ARM GAS  C:\Users\RECEPC~1\AppData\Local\Temp\cclIxQZ0.s 			page 1


   1              		.syntax unified
   2              		.cpu cortex-m3
   3              		.fpu softvfp
   4              		.eabi_attribute 20, 1
   5              		.eabi_attribute 21, 1
   6              		.eabi_attribute 23, 3
   7              		.eabi_attribute 24, 1
   8              		.eabi_attribute 25, 1
   9              		.eabi_attribute 26, 1
  10              		.eabi_attribute 30, 1
  11              		.eabi_attribute 34, 1
  12              		.eabi_attribute 18, 4
  13              		.thumb
  14              		.file	"Display1.c"
  15              		.text
  16              	.Ltext0:
  17              		.cfi_sections	.debug_frame
  18              		.section	.text.Display1_Init,"ax",%progbits
  19              		.align	2
  20              		.global	Display1_Init
  21              		.thumb
  22              		.thumb_func
  23              		.type	Display1_Init, %function
  24              	Display1_Init:
  25              	.LFB1:
  26              		.file 1 ".\\Generated_Source\\PSoC5\\Display1.c"
   1:.\Generated_Source\PSoC5/Display1.c **** /*******************************************************************************
   2:.\Generated_Source\PSoC5/Display1.c **** * File Name: Display1.c
   3:.\Generated_Source\PSoC5/Display1.c **** * Version 2.50
   4:.\Generated_Source\PSoC5/Display1.c **** *
   5:.\Generated_Source\PSoC5/Display1.c **** * Description:
   6:.\Generated_Source\PSoC5/Display1.c **** *  This file provides all API functionality of the UART component
   7:.\Generated_Source\PSoC5/Display1.c **** *
   8:.\Generated_Source\PSoC5/Display1.c **** * Note:
   9:.\Generated_Source\PSoC5/Display1.c **** *
  10:.\Generated_Source\PSoC5/Display1.c **** ********************************************************************************
  11:.\Generated_Source\PSoC5/Display1.c **** * Copyright 2008-2015, Cypress Semiconductor Corporation.  All rights reserved.
  12:.\Generated_Source\PSoC5/Display1.c **** * You may use this file only in accordance with the license, terms, conditions,
  13:.\Generated_Source\PSoC5/Display1.c **** * disclaimers, and limitations in the end user license agreement accompanying
  14:.\Generated_Source\PSoC5/Display1.c **** * the software package with which this file was provided.
  15:.\Generated_Source\PSoC5/Display1.c **** *******************************************************************************/
  16:.\Generated_Source\PSoC5/Display1.c **** 
  17:.\Generated_Source\PSoC5/Display1.c **** #include "Display1.h"
  18:.\Generated_Source\PSoC5/Display1.c **** #if (Display1_INTERNAL_CLOCK_USED)
  19:.\Generated_Source\PSoC5/Display1.c ****     #include "Display1_IntClock.h"
  20:.\Generated_Source\PSoC5/Display1.c **** #endif /* End Display1_INTERNAL_CLOCK_USED */
  21:.\Generated_Source\PSoC5/Display1.c **** 
  22:.\Generated_Source\PSoC5/Display1.c **** 
  23:.\Generated_Source\PSoC5/Display1.c **** /***************************************
  24:.\Generated_Source\PSoC5/Display1.c **** * Global data allocation
  25:.\Generated_Source\PSoC5/Display1.c **** ***************************************/
  26:.\Generated_Source\PSoC5/Display1.c **** 
  27:.\Generated_Source\PSoC5/Display1.c **** uint8 Display1_initVar = 0u;
  28:.\Generated_Source\PSoC5/Display1.c **** 
  29:.\Generated_Source\PSoC5/Display1.c **** #if (Display1_TX_INTERRUPT_ENABLED && Display1_TX_ENABLED)
  30:.\Generated_Source\PSoC5/Display1.c ****     volatile uint8 Display1_txBuffer[Display1_TX_BUFFER_SIZE];
  31:.\Generated_Source\PSoC5/Display1.c ****     volatile uint8 Display1_txBufferRead = 0u;
ARM GAS  C:\Users\RECEPC~1\AppData\Local\Temp\cclIxQZ0.s 			page 2


  32:.\Generated_Source\PSoC5/Display1.c ****     uint8 Display1_txBufferWrite = 0u;
  33:.\Generated_Source\PSoC5/Display1.c **** #endif /* (Display1_TX_INTERRUPT_ENABLED && Display1_TX_ENABLED) */
  34:.\Generated_Source\PSoC5/Display1.c **** 
  35:.\Generated_Source\PSoC5/Display1.c **** #if (Display1_RX_INTERRUPT_ENABLED && (Display1_RX_ENABLED || Display1_HD_ENABLED))
  36:.\Generated_Source\PSoC5/Display1.c ****     uint8 Display1_errorStatus = 0u;
  37:.\Generated_Source\PSoC5/Display1.c ****     volatile uint8 Display1_rxBuffer[Display1_RX_BUFFER_SIZE];
  38:.\Generated_Source\PSoC5/Display1.c ****     volatile uint8 Display1_rxBufferRead  = 0u;
  39:.\Generated_Source\PSoC5/Display1.c ****     volatile uint8 Display1_rxBufferWrite = 0u;
  40:.\Generated_Source\PSoC5/Display1.c ****     volatile uint8 Display1_rxBufferLoopDetect = 0u;
  41:.\Generated_Source\PSoC5/Display1.c ****     volatile uint8 Display1_rxBufferOverflow   = 0u;
  42:.\Generated_Source\PSoC5/Display1.c ****     #if (Display1_RXHW_ADDRESS_ENABLED)
  43:.\Generated_Source\PSoC5/Display1.c ****         volatile uint8 Display1_rxAddressMode = Display1_RX_ADDRESS_MODE;
  44:.\Generated_Source\PSoC5/Display1.c ****         volatile uint8 Display1_rxAddressDetected = 0u;
  45:.\Generated_Source\PSoC5/Display1.c ****     #endif /* (Display1_RXHW_ADDRESS_ENABLED) */
  46:.\Generated_Source\PSoC5/Display1.c **** #endif /* (Display1_RX_INTERRUPT_ENABLED && (Display1_RX_ENABLED || Display1_HD_ENABLED)) */
  47:.\Generated_Source\PSoC5/Display1.c **** 
  48:.\Generated_Source\PSoC5/Display1.c **** 
  49:.\Generated_Source\PSoC5/Display1.c **** /*******************************************************************************
  50:.\Generated_Source\PSoC5/Display1.c **** * Function Name: Display1_Start
  51:.\Generated_Source\PSoC5/Display1.c **** ********************************************************************************
  52:.\Generated_Source\PSoC5/Display1.c **** *
  53:.\Generated_Source\PSoC5/Display1.c **** * Summary:
  54:.\Generated_Source\PSoC5/Display1.c **** *  This is the preferred method to begin component operation.
  55:.\Generated_Source\PSoC5/Display1.c **** *  Display1_Start() sets the initVar variable, calls the
  56:.\Generated_Source\PSoC5/Display1.c **** *  Display1_Init() function, and then calls the
  57:.\Generated_Source\PSoC5/Display1.c **** *  Display1_Enable() function.
  58:.\Generated_Source\PSoC5/Display1.c **** *
  59:.\Generated_Source\PSoC5/Display1.c **** * Parameters:
  60:.\Generated_Source\PSoC5/Display1.c **** *  None.
  61:.\Generated_Source\PSoC5/Display1.c **** *
  62:.\Generated_Source\PSoC5/Display1.c **** * Return:
  63:.\Generated_Source\PSoC5/Display1.c **** *  None.
  64:.\Generated_Source\PSoC5/Display1.c **** *
  65:.\Generated_Source\PSoC5/Display1.c **** * Global variables:
  66:.\Generated_Source\PSoC5/Display1.c **** *  The Display1_intiVar variable is used to indicate initial
  67:.\Generated_Source\PSoC5/Display1.c **** *  configuration of this component. The variable is initialized to zero (0u)
  68:.\Generated_Source\PSoC5/Display1.c **** *  and set to one (1u) the first time Display1_Start() is called. This
  69:.\Generated_Source\PSoC5/Display1.c **** *  allows for component initialization without re-initialization in all
  70:.\Generated_Source\PSoC5/Display1.c **** *  subsequent calls to the Display1_Start() routine.
  71:.\Generated_Source\PSoC5/Display1.c **** *
  72:.\Generated_Source\PSoC5/Display1.c **** * Reentrant:
  73:.\Generated_Source\PSoC5/Display1.c **** *  No.
  74:.\Generated_Source\PSoC5/Display1.c **** *
  75:.\Generated_Source\PSoC5/Display1.c **** *******************************************************************************/
  76:.\Generated_Source\PSoC5/Display1.c **** void Display1_Start(void) 
  77:.\Generated_Source\PSoC5/Display1.c **** {
  78:.\Generated_Source\PSoC5/Display1.c ****     /* If not initialized then initialize all required hardware and software */
  79:.\Generated_Source\PSoC5/Display1.c ****     if(Display1_initVar == 0u)
  80:.\Generated_Source\PSoC5/Display1.c ****     {
  81:.\Generated_Source\PSoC5/Display1.c ****         Display1_Init();
  82:.\Generated_Source\PSoC5/Display1.c ****         Display1_initVar = 1u;
  83:.\Generated_Source\PSoC5/Display1.c ****     }
  84:.\Generated_Source\PSoC5/Display1.c **** 
  85:.\Generated_Source\PSoC5/Display1.c ****     Display1_Enable();
  86:.\Generated_Source\PSoC5/Display1.c **** }
  87:.\Generated_Source\PSoC5/Display1.c **** 
  88:.\Generated_Source\PSoC5/Display1.c **** 
ARM GAS  C:\Users\RECEPC~1\AppData\Local\Temp\cclIxQZ0.s 			page 3


  89:.\Generated_Source\PSoC5/Display1.c **** /*******************************************************************************
  90:.\Generated_Source\PSoC5/Display1.c **** * Function Name: Display1_Init
  91:.\Generated_Source\PSoC5/Display1.c **** ********************************************************************************
  92:.\Generated_Source\PSoC5/Display1.c **** *
  93:.\Generated_Source\PSoC5/Display1.c **** * Summary:
  94:.\Generated_Source\PSoC5/Display1.c **** *  Initializes or restores the component according to the customizer Configure
  95:.\Generated_Source\PSoC5/Display1.c **** *  dialog settings. It is not necessary to call Display1_Init() because
  96:.\Generated_Source\PSoC5/Display1.c **** *  the Display1_Start() API calls this function and is the preferred
  97:.\Generated_Source\PSoC5/Display1.c **** *  method to begin component operation.
  98:.\Generated_Source\PSoC5/Display1.c **** *
  99:.\Generated_Source\PSoC5/Display1.c **** * Parameters:
 100:.\Generated_Source\PSoC5/Display1.c **** *  None.
 101:.\Generated_Source\PSoC5/Display1.c **** *
 102:.\Generated_Source\PSoC5/Display1.c **** * Return:
 103:.\Generated_Source\PSoC5/Display1.c **** *  None.
 104:.\Generated_Source\PSoC5/Display1.c **** *
 105:.\Generated_Source\PSoC5/Display1.c **** *******************************************************************************/
 106:.\Generated_Source\PSoC5/Display1.c **** void Display1_Init(void) 
 107:.\Generated_Source\PSoC5/Display1.c **** {
  27              		.loc 1 107 0
  28              		.cfi_startproc
  29              		@ args = 0, pretend = 0, frame = 0
  30              		@ frame_needed = 0, uses_anonymous_args = 0
  31 0000 08B5     		push	{r3, lr}
  32              		.cfi_def_cfa_offset 8
  33              		.cfi_offset 3, -8
  34              		.cfi_offset 14, -4
 108:.\Generated_Source\PSoC5/Display1.c ****     #if(Display1_RX_ENABLED || Display1_HD_ENABLED)
 109:.\Generated_Source\PSoC5/Display1.c **** 
 110:.\Generated_Source\PSoC5/Display1.c ****         #if (Display1_RX_INTERRUPT_ENABLED)
 111:.\Generated_Source\PSoC5/Display1.c ****             /* Set RX interrupt vector and priority */
 112:.\Generated_Source\PSoC5/Display1.c ****             (void) CyIntSetVector(Display1_RX_VECT_NUM, &Display1_RXISR);
  35              		.loc 1 112 0
  36 0002 0020     		movs	r0, #0
  37 0004 0C49     		ldr	r1, .L3
  38 0006 FFF7FEFF 		bl	CyIntSetVector
  39              	.LVL0:
 113:.\Generated_Source\PSoC5/Display1.c ****             CyIntSetPriority(Display1_RX_VECT_NUM, Display1_RX_PRIOR_NUM);
  40              		.loc 1 113 0
  41 000a 0020     		movs	r0, #0
  42 000c 0721     		movs	r1, #7
  43 000e FFF7FEFF 		bl	CyIntSetPriority
  44              	.LVL1:
 114:.\Generated_Source\PSoC5/Display1.c ****             Display1_errorStatus = 0u;
  45              		.loc 1 114 0
  46 0012 0023     		movs	r3, #0
  47 0014 094A     		ldr	r2, .L3+4
  48 0016 1370     		strb	r3, [r2]
 115:.\Generated_Source\PSoC5/Display1.c ****         #endif /* (Display1_RX_INTERRUPT_ENABLED) */
 116:.\Generated_Source\PSoC5/Display1.c **** 
 117:.\Generated_Source\PSoC5/Display1.c ****         #if (Display1_RXHW_ADDRESS_ENABLED)
 118:.\Generated_Source\PSoC5/Display1.c ****             Display1_SetRxAddressMode(Display1_RX_ADDRESS_MODE);
 119:.\Generated_Source\PSoC5/Display1.c ****             Display1_SetRxAddress1(Display1_RX_HW_ADDRESS1);
 120:.\Generated_Source\PSoC5/Display1.c ****             Display1_SetRxAddress2(Display1_RX_HW_ADDRESS2);
 121:.\Generated_Source\PSoC5/Display1.c ****         #endif /* End Display1_RXHW_ADDRESS_ENABLED */
 122:.\Generated_Source\PSoC5/Display1.c **** 
 123:.\Generated_Source\PSoC5/Display1.c ****         /* Init Count7 period */
ARM GAS  C:\Users\RECEPC~1\AppData\Local\Temp\cclIxQZ0.s 			page 4


 124:.\Generated_Source\PSoC5/Display1.c ****         Display1_RXBITCTR_PERIOD_REG = Display1_RXBITCTR_INIT;
  49              		.loc 1 124 0
  50 0018 7221     		movs	r1, #114
  51 001a 094A     		ldr	r2, .L3+8
  52 001c 1170     		strb	r1, [r2]
 125:.\Generated_Source\PSoC5/Display1.c ****         /* Configure the Initial RX interrupt mask */
 126:.\Generated_Source\PSoC5/Display1.c ****         Display1_RXSTATUS_MASK_REG  = Display1_INIT_RX_INTERRUPTS_MASK;
  53              		.loc 1 126 0
  54 001e 2021     		movs	r1, #32
  55 0020 FF3A     		subs	r2, r2, #255
  56 0022 1170     		strb	r1, [r2]
 127:.\Generated_Source\PSoC5/Display1.c ****     #endif /* End Display1_RX_ENABLED || Display1_HD_ENABLED*/
 128:.\Generated_Source\PSoC5/Display1.c **** 
 129:.\Generated_Source\PSoC5/Display1.c ****     #if(Display1_TX_ENABLED)
 130:.\Generated_Source\PSoC5/Display1.c ****         #if (Display1_TX_INTERRUPT_ENABLED)
 131:.\Generated_Source\PSoC5/Display1.c ****             /* Set TX interrupt vector and priority */
 132:.\Generated_Source\PSoC5/Display1.c ****             (void) CyIntSetVector(Display1_TX_VECT_NUM, &Display1_TXISR);
 133:.\Generated_Source\PSoC5/Display1.c ****             CyIntSetPriority(Display1_TX_VECT_NUM, Display1_TX_PRIOR_NUM);
 134:.\Generated_Source\PSoC5/Display1.c ****         #endif /* (Display1_TX_INTERRUPT_ENABLED) */
 135:.\Generated_Source\PSoC5/Display1.c **** 
 136:.\Generated_Source\PSoC5/Display1.c ****         /* Write Counter Value for TX Bit Clk Generator*/
 137:.\Generated_Source\PSoC5/Display1.c ****         #if (Display1_TXCLKGEN_DP)
 138:.\Generated_Source\PSoC5/Display1.c ****             Display1_TXBITCLKGEN_CTR_REG = Display1_BIT_CENTER;
  57              		.loc 1 138 0
  58 0024 0621     		movs	r1, #6
  59 0026 A132     		adds	r2, r2, #161
  60 0028 1170     		strb	r1, [r2]
 139:.\Generated_Source\PSoC5/Display1.c ****             Display1_TXBITCLKTX_COMPLETE_REG = ((Display1_NUMBER_OF_DATA_BITS +
  61              		.loc 1 139 0
  62 002a 4721     		movs	r1, #71
  63 002c 1032     		adds	r2, r2, #16
  64 002e 1170     		strb	r1, [r2]
 140:.\Generated_Source\PSoC5/Display1.c ****                         Display1_NUMBER_OF_START_BIT) * Display1_OVER_SAMPLE_COUNT) - 1u;
 141:.\Generated_Source\PSoC5/Display1.c ****         #else
 142:.\Generated_Source\PSoC5/Display1.c ****             Display1_TXBITCTR_PERIOD_REG = ((Display1_NUMBER_OF_DATA_BITS +
 143:.\Generated_Source\PSoC5/Display1.c ****                         Display1_NUMBER_OF_START_BIT) * Display1_OVER_SAMPLE_8) - 1u;
 144:.\Generated_Source\PSoC5/Display1.c ****         #endif /* End Display1_TXCLKGEN_DP */
 145:.\Generated_Source\PSoC5/Display1.c **** 
 146:.\Generated_Source\PSoC5/Display1.c ****         /* Configure the Initial TX interrupt mask */
 147:.\Generated_Source\PSoC5/Display1.c ****         #if (Display1_TX_INTERRUPT_ENABLED)
 148:.\Generated_Source\PSoC5/Display1.c ****             Display1_TXSTATUS_MASK_REG = Display1_TX_STS_FIFO_EMPTY;
 149:.\Generated_Source\PSoC5/Display1.c ****         #else
 150:.\Generated_Source\PSoC5/Display1.c ****             Display1_TXSTATUS_MASK_REG = Display1_INIT_TX_INTERRUPTS_MASK;
  65              		.loc 1 150 0
  66 0030 AF3A     		subs	r2, r2, #175
  67 0032 1370     		strb	r3, [r2]
  68 0034 08BD     		pop	{r3, pc}
  69              	.L4:
  70 0036 00BF     		.align	2
  71              	.L3:
  72 0038 00000000 		.word	Display1_RXISR
  73 003c 00000000 		.word	.LANCHOR0
  74 0040 85650040 		.word	1073767813
  75              		.cfi_endproc
  76              	.LFE1:
  77              		.size	Display1_Init, .-Display1_Init
  78              		.section	.text.Display1_Enable,"ax",%progbits
ARM GAS  C:\Users\RECEPC~1\AppData\Local\Temp\cclIxQZ0.s 			page 5


  79              		.align	2
  80              		.global	Display1_Enable
  81              		.thumb
  82              		.thumb_func
  83              		.type	Display1_Enable, %function
  84              	Display1_Enable:
  85              	.LFB2:
 151:.\Generated_Source\PSoC5/Display1.c ****         #endif /*End Display1_TX_INTERRUPT_ENABLED*/
 152:.\Generated_Source\PSoC5/Display1.c **** 
 153:.\Generated_Source\PSoC5/Display1.c ****     #endif /* End Display1_TX_ENABLED */
 154:.\Generated_Source\PSoC5/Display1.c **** 
 155:.\Generated_Source\PSoC5/Display1.c ****     #if(Display1_PARITY_TYPE_SW)  /* Write Parity to Control Register */
 156:.\Generated_Source\PSoC5/Display1.c ****         Display1_WriteControlRegister( \
 157:.\Generated_Source\PSoC5/Display1.c ****             (Display1_ReadControlRegister() & (uint8)~Display1_CTRL_PARITY_TYPE_MASK) | \
 158:.\Generated_Source\PSoC5/Display1.c ****             (uint8)(Display1_PARITY_TYPE << Display1_CTRL_PARITY_TYPE0_SHIFT) );
 159:.\Generated_Source\PSoC5/Display1.c ****     #endif /* End Display1_PARITY_TYPE_SW */
 160:.\Generated_Source\PSoC5/Display1.c **** }
 161:.\Generated_Source\PSoC5/Display1.c **** 
 162:.\Generated_Source\PSoC5/Display1.c **** 
 163:.\Generated_Source\PSoC5/Display1.c **** /*******************************************************************************
 164:.\Generated_Source\PSoC5/Display1.c **** * Function Name: Display1_Enable
 165:.\Generated_Source\PSoC5/Display1.c **** ********************************************************************************
 166:.\Generated_Source\PSoC5/Display1.c **** *
 167:.\Generated_Source\PSoC5/Display1.c **** * Summary:
 168:.\Generated_Source\PSoC5/Display1.c **** *  Activates the hardware and begins component operation. It is not necessary
 169:.\Generated_Source\PSoC5/Display1.c **** *  to call Display1_Enable() because the Display1_Start() API
 170:.\Generated_Source\PSoC5/Display1.c **** *  calls this function, which is the preferred method to begin component
 171:.\Generated_Source\PSoC5/Display1.c **** *  operation.
 172:.\Generated_Source\PSoC5/Display1.c **** 
 173:.\Generated_Source\PSoC5/Display1.c **** * Parameters:
 174:.\Generated_Source\PSoC5/Display1.c **** *  None.
 175:.\Generated_Source\PSoC5/Display1.c **** *
 176:.\Generated_Source\PSoC5/Display1.c **** * Return:
 177:.\Generated_Source\PSoC5/Display1.c **** *  None.
 178:.\Generated_Source\PSoC5/Display1.c **** *
 179:.\Generated_Source\PSoC5/Display1.c **** * Global Variables:
 180:.\Generated_Source\PSoC5/Display1.c **** *  Display1_rxAddressDetected - set to initial state (0).
 181:.\Generated_Source\PSoC5/Display1.c **** *
 182:.\Generated_Source\PSoC5/Display1.c **** *******************************************************************************/
 183:.\Generated_Source\PSoC5/Display1.c **** void Display1_Enable(void) 
 184:.\Generated_Source\PSoC5/Display1.c **** {
  86              		.loc 1 184 0
  87              		.cfi_startproc
  88              		@ args = 0, pretend = 0, frame = 0
  89              		@ frame_needed = 0, uses_anonymous_args = 0
  90 0000 10B5     		push	{r4, lr}
  91              		.cfi_def_cfa_offset 8
  92              		.cfi_offset 4, -8
  93              		.cfi_offset 14, -4
 185:.\Generated_Source\PSoC5/Display1.c ****     uint8 enableInterrupts;
 186:.\Generated_Source\PSoC5/Display1.c ****     enableInterrupts = CyEnterCriticalSection();
  94              		.loc 1 186 0
  95 0002 FFF7FEFF 		bl	CyEnterCriticalSection
  96              	.LVL2:
  97 0006 0446     		mov	r4, r0
  98              	.LVL3:
 187:.\Generated_Source\PSoC5/Display1.c **** 
ARM GAS  C:\Users\RECEPC~1\AppData\Local\Temp\cclIxQZ0.s 			page 6


 188:.\Generated_Source\PSoC5/Display1.c ****     #if (Display1_RX_ENABLED || Display1_HD_ENABLED)
 189:.\Generated_Source\PSoC5/Display1.c ****         /* RX Counter (Count7) Enable */
 190:.\Generated_Source\PSoC5/Display1.c ****         Display1_RXBITCTR_CONTROL_REG |= Display1_CNTR_ENABLE;
  99              		.loc 1 190 0
 100 0008 0B4A     		ldr	r2, .L7
 101 000a 1378     		ldrb	r3, [r2]	@ zero_extendqisi2
 102 000c 43F02003 		orr	r3, r3, #32
 103 0010 1370     		strb	r3, [r2]
 191:.\Generated_Source\PSoC5/Display1.c **** 
 192:.\Generated_Source\PSoC5/Display1.c ****         /* Enable the RX Interrupt */
 193:.\Generated_Source\PSoC5/Display1.c ****         Display1_RXSTATUS_ACTL_REG  |= Display1_INT_ENABLE;
 104              		.loc 1 193 0
 105 0012 FF3A     		subs	r2, r2, #255
 106 0014 1378     		ldrb	r3, [r2]	@ zero_extendqisi2
 107 0016 43F01003 		orr	r3, r3, #16
 108 001a 1370     		strb	r3, [r2]
 194:.\Generated_Source\PSoC5/Display1.c **** 
 195:.\Generated_Source\PSoC5/Display1.c ****         #if (Display1_RX_INTERRUPT_ENABLED)
 196:.\Generated_Source\PSoC5/Display1.c ****             Display1_EnableRxInt();
 109              		.loc 1 196 0
 110 001c 0122     		movs	r2, #1
 111 001e 074B     		ldr	r3, .L7+4
 112 0020 1A60     		str	r2, [r3]
 197:.\Generated_Source\PSoC5/Display1.c **** 
 198:.\Generated_Source\PSoC5/Display1.c ****             #if (Display1_RXHW_ADDRESS_ENABLED)
 199:.\Generated_Source\PSoC5/Display1.c ****                 Display1_rxAddressDetected = 0u;
 200:.\Generated_Source\PSoC5/Display1.c ****             #endif /* (Display1_RXHW_ADDRESS_ENABLED) */
 201:.\Generated_Source\PSoC5/Display1.c ****         #endif /* (Display1_RX_INTERRUPT_ENABLED) */
 202:.\Generated_Source\PSoC5/Display1.c ****     #endif /* (Display1_RX_ENABLED || Display1_HD_ENABLED) */
 203:.\Generated_Source\PSoC5/Display1.c **** 
 204:.\Generated_Source\PSoC5/Display1.c ****     #if(Display1_TX_ENABLED)
 205:.\Generated_Source\PSoC5/Display1.c ****         /* TX Counter (DP/Count7) Enable */
 206:.\Generated_Source\PSoC5/Display1.c ****         #if(!Display1_TXCLKGEN_DP)
 207:.\Generated_Source\PSoC5/Display1.c ****             Display1_TXBITCTR_CONTROL_REG |= Display1_CNTR_ENABLE;
 208:.\Generated_Source\PSoC5/Display1.c ****         #endif /* End Display1_TXCLKGEN_DP */
 209:.\Generated_Source\PSoC5/Display1.c **** 
 210:.\Generated_Source\PSoC5/Display1.c ****         /* Enable the TX Interrupt */
 211:.\Generated_Source\PSoC5/Display1.c ****         Display1_TXSTATUS_ACTL_REG |= Display1_INT_ENABLE;
 113              		.loc 1 211 0
 114 0022 074A     		ldr	r2, .L7+8
 115 0024 1378     		ldrb	r3, [r2]	@ zero_extendqisi2
 116 0026 43F01003 		orr	r3, r3, #16
 117 002a 1370     		strb	r3, [r2]
 212:.\Generated_Source\PSoC5/Display1.c ****         #if (Display1_TX_INTERRUPT_ENABLED)
 213:.\Generated_Source\PSoC5/Display1.c ****             Display1_ClearPendingTxInt(); /* Clear history of TX_NOT_EMPTY */
 214:.\Generated_Source\PSoC5/Display1.c ****             Display1_EnableTxInt();
 215:.\Generated_Source\PSoC5/Display1.c ****         #endif /* (Display1_TX_INTERRUPT_ENABLED) */
 216:.\Generated_Source\PSoC5/Display1.c ****      #endif /* (Display1_TX_INTERRUPT_ENABLED) */
 217:.\Generated_Source\PSoC5/Display1.c **** 
 218:.\Generated_Source\PSoC5/Display1.c ****     #if (Display1_INTERNAL_CLOCK_USED)
 219:.\Generated_Source\PSoC5/Display1.c ****         Display1_IntClock_Start();  /* Enable the clock */
 118              		.loc 1 219 0
 119 002c FFF7FEFF 		bl	Display1_IntClock_Start
 120              	.LVL4:
 220:.\Generated_Source\PSoC5/Display1.c ****     #endif /* (Display1_INTERNAL_CLOCK_USED) */
 221:.\Generated_Source\PSoC5/Display1.c **** 
 222:.\Generated_Source\PSoC5/Display1.c ****     CyExitCriticalSection(enableInterrupts);
ARM GAS  C:\Users\RECEPC~1\AppData\Local\Temp\cclIxQZ0.s 			page 7


 121              		.loc 1 222 0
 122 0030 2046     		mov	r0, r4
 123 0032 FFF7FEFF 		bl	CyExitCriticalSection
 124              	.LVL5:
 125 0036 10BD     		pop	{r4, pc}
 126              	.LVL6:
 127              	.L8:
 128              		.align	2
 129              	.L7:
 130 0038 95650040 		.word	1073767829
 131 003c 00E100E0 		.word	-536813312
 132 0040 98640040 		.word	1073767576
 133              		.cfi_endproc
 134              	.LFE2:
 135              		.size	Display1_Enable, .-Display1_Enable
 136              		.section	.text.Display1_Start,"ax",%progbits
 137              		.align	2
 138              		.global	Display1_Start
 139              		.thumb
 140              		.thumb_func
 141              		.type	Display1_Start, %function
 142              	Display1_Start:
 143              	.LFB0:
  77:.\Generated_Source\PSoC5/Display1.c ****     /* If not initialized then initialize all required hardware and software */
 144              		.loc 1 77 0
 145              		.cfi_startproc
 146              		@ args = 0, pretend = 0, frame = 0
 147              		@ frame_needed = 0, uses_anonymous_args = 0
 148 0000 08B5     		push	{r3, lr}
 149              		.cfi_def_cfa_offset 8
 150              		.cfi_offset 3, -8
 151              		.cfi_offset 14, -4
  79:.\Generated_Source\PSoC5/Display1.c ****     {
 152              		.loc 1 79 0
 153 0002 054B     		ldr	r3, .L12
 154 0004 5B78     		ldrb	r3, [r3, #1]	@ zero_extendqisi2
 155 0006 23B9     		cbnz	r3, .L10
  81:.\Generated_Source\PSoC5/Display1.c ****         Display1_initVar = 1u;
 156              		.loc 1 81 0
 157 0008 FFF7FEFF 		bl	Display1_Init
 158              	.LVL7:
  82:.\Generated_Source\PSoC5/Display1.c ****     }
 159              		.loc 1 82 0
 160 000c 0122     		movs	r2, #1
 161 000e 024B     		ldr	r3, .L12
 162 0010 5A70     		strb	r2, [r3, #1]
 163              	.L10:
  85:.\Generated_Source\PSoC5/Display1.c **** }
 164              		.loc 1 85 0
 165 0012 FFF7FEFF 		bl	Display1_Enable
 166              	.LVL8:
 167 0016 08BD     		pop	{r3, pc}
 168              	.L13:
 169              		.align	2
 170              	.L12:
 171 0018 00000000 		.word	.LANCHOR0
 172              		.cfi_endproc
ARM GAS  C:\Users\RECEPC~1\AppData\Local\Temp\cclIxQZ0.s 			page 8


 173              	.LFE0:
 174              		.size	Display1_Start, .-Display1_Start
 175              		.section	.text.Display1_Stop,"ax",%progbits
 176              		.align	2
 177              		.global	Display1_Stop
 178              		.thumb
 179              		.thumb_func
 180              		.type	Display1_Stop, %function
 181              	Display1_Stop:
 182              	.LFB3:
 223:.\Generated_Source\PSoC5/Display1.c **** }
 224:.\Generated_Source\PSoC5/Display1.c **** 
 225:.\Generated_Source\PSoC5/Display1.c **** 
 226:.\Generated_Source\PSoC5/Display1.c **** /*******************************************************************************
 227:.\Generated_Source\PSoC5/Display1.c **** * Function Name: Display1_Stop
 228:.\Generated_Source\PSoC5/Display1.c **** ********************************************************************************
 229:.\Generated_Source\PSoC5/Display1.c **** *
 230:.\Generated_Source\PSoC5/Display1.c **** * Summary:
 231:.\Generated_Source\PSoC5/Display1.c **** *  Disables the UART operation.
 232:.\Generated_Source\PSoC5/Display1.c **** *
 233:.\Generated_Source\PSoC5/Display1.c **** * Parameters:
 234:.\Generated_Source\PSoC5/Display1.c **** *  None.
 235:.\Generated_Source\PSoC5/Display1.c **** *
 236:.\Generated_Source\PSoC5/Display1.c **** * Return:
 237:.\Generated_Source\PSoC5/Display1.c **** *  None.
 238:.\Generated_Source\PSoC5/Display1.c **** *
 239:.\Generated_Source\PSoC5/Display1.c **** *******************************************************************************/
 240:.\Generated_Source\PSoC5/Display1.c **** void Display1_Stop(void) 
 241:.\Generated_Source\PSoC5/Display1.c **** {
 183              		.loc 1 241 0
 184              		.cfi_startproc
 185              		@ args = 0, pretend = 0, frame = 0
 186              		@ frame_needed = 0, uses_anonymous_args = 0
 187 0000 10B5     		push	{r4, lr}
 188              		.cfi_def_cfa_offset 8
 189              		.cfi_offset 4, -8
 190              		.cfi_offset 14, -4
 242:.\Generated_Source\PSoC5/Display1.c ****     uint8 enableInterrupts;
 243:.\Generated_Source\PSoC5/Display1.c ****     enableInterrupts = CyEnterCriticalSection();
 191              		.loc 1 243 0
 192 0002 FFF7FEFF 		bl	CyEnterCriticalSection
 193              	.LVL9:
 194 0006 0446     		mov	r4, r0
 195              	.LVL10:
 244:.\Generated_Source\PSoC5/Display1.c **** 
 245:.\Generated_Source\PSoC5/Display1.c ****     /* Write Bit Counter Disable */
 246:.\Generated_Source\PSoC5/Display1.c ****     #if (Display1_RX_ENABLED || Display1_HD_ENABLED)
 247:.\Generated_Source\PSoC5/Display1.c ****         Display1_RXBITCTR_CONTROL_REG &= (uint8) ~Display1_CNTR_ENABLE;
 196              		.loc 1 247 0
 197 0008 0B4A     		ldr	r2, .L16
 198 000a 1378     		ldrb	r3, [r2]	@ zero_extendqisi2
 199 000c 03F0DF03 		and	r3, r3, #223
 200 0010 1370     		strb	r3, [r2]
 248:.\Generated_Source\PSoC5/Display1.c ****     #endif /* (Display1_RX_ENABLED || Display1_HD_ENABLED) */
 249:.\Generated_Source\PSoC5/Display1.c **** 
 250:.\Generated_Source\PSoC5/Display1.c ****     #if (Display1_TX_ENABLED)
 251:.\Generated_Source\PSoC5/Display1.c ****         #if(!Display1_TXCLKGEN_DP)
ARM GAS  C:\Users\RECEPC~1\AppData\Local\Temp\cclIxQZ0.s 			page 9


 252:.\Generated_Source\PSoC5/Display1.c ****             Display1_TXBITCTR_CONTROL_REG &= (uint8) ~Display1_CNTR_ENABLE;
 253:.\Generated_Source\PSoC5/Display1.c ****         #endif /* (!Display1_TXCLKGEN_DP) */
 254:.\Generated_Source\PSoC5/Display1.c ****     #endif /* (Display1_TX_ENABLED) */
 255:.\Generated_Source\PSoC5/Display1.c **** 
 256:.\Generated_Source\PSoC5/Display1.c ****     #if (Display1_INTERNAL_CLOCK_USED)
 257:.\Generated_Source\PSoC5/Display1.c ****         Display1_IntClock_Stop();   /* Disable the clock */
 201              		.loc 1 257 0
 202 0012 FFF7FEFF 		bl	Display1_IntClock_Stop
 203              	.LVL11:
 258:.\Generated_Source\PSoC5/Display1.c ****     #endif /* (Display1_INTERNAL_CLOCK_USED) */
 259:.\Generated_Source\PSoC5/Display1.c **** 
 260:.\Generated_Source\PSoC5/Display1.c ****     /* Disable internal interrupt component */
 261:.\Generated_Source\PSoC5/Display1.c ****     #if (Display1_RX_ENABLED || Display1_HD_ENABLED)
 262:.\Generated_Source\PSoC5/Display1.c ****         Display1_RXSTATUS_ACTL_REG  &= (uint8) ~Display1_INT_ENABLE;
 204              		.loc 1 262 0
 205 0016 094A     		ldr	r2, .L16+4
 206 0018 1378     		ldrb	r3, [r2]	@ zero_extendqisi2
 207 001a 03F0EF03 		and	r3, r3, #239
 208 001e 1370     		strb	r3, [r2]
 263:.\Generated_Source\PSoC5/Display1.c **** 
 264:.\Generated_Source\PSoC5/Display1.c ****         #if (Display1_RX_INTERRUPT_ENABLED)
 265:.\Generated_Source\PSoC5/Display1.c ****             Display1_DisableRxInt();
 209              		.loc 1 265 0
 210 0020 0122     		movs	r2, #1
 211 0022 074B     		ldr	r3, .L16+8
 212 0024 1A60     		str	r2, [r3]
 266:.\Generated_Source\PSoC5/Display1.c ****         #endif /* (Display1_RX_INTERRUPT_ENABLED) */
 267:.\Generated_Source\PSoC5/Display1.c ****     #endif /* (Display1_RX_ENABLED || Display1_HD_ENABLED) */
 268:.\Generated_Source\PSoC5/Display1.c **** 
 269:.\Generated_Source\PSoC5/Display1.c ****     #if (Display1_TX_ENABLED)
 270:.\Generated_Source\PSoC5/Display1.c ****         Display1_TXSTATUS_ACTL_REG &= (uint8) ~Display1_INT_ENABLE;
 213              		.loc 1 270 0
 214 0026 074A     		ldr	r2, .L16+12
 215 0028 1378     		ldrb	r3, [r2]	@ zero_extendqisi2
 216 002a 03F0EF03 		and	r3, r3, #239
 217 002e 1370     		strb	r3, [r2]
 271:.\Generated_Source\PSoC5/Display1.c **** 
 272:.\Generated_Source\PSoC5/Display1.c ****         #if (Display1_TX_INTERRUPT_ENABLED)
 273:.\Generated_Source\PSoC5/Display1.c ****             Display1_DisableTxInt();
 274:.\Generated_Source\PSoC5/Display1.c ****         #endif /* (Display1_TX_INTERRUPT_ENABLED) */
 275:.\Generated_Source\PSoC5/Display1.c ****     #endif /* (Display1_TX_ENABLED) */
 276:.\Generated_Source\PSoC5/Display1.c **** 
 277:.\Generated_Source\PSoC5/Display1.c ****     CyExitCriticalSection(enableInterrupts);
 218              		.loc 1 277 0
 219 0030 2046     		mov	r0, r4
 220 0032 FFF7FEFF 		bl	CyExitCriticalSection
 221              	.LVL12:
 222 0036 10BD     		pop	{r4, pc}
 223              	.LVL13:
 224              	.L17:
 225              		.align	2
 226              	.L16:
 227 0038 95650040 		.word	1073767829
 228 003c 96640040 		.word	1073767574
 229 0040 80E100E0 		.word	-536813184
 230 0044 98640040 		.word	1073767576
 231              		.cfi_endproc
ARM GAS  C:\Users\RECEPC~1\AppData\Local\Temp\cclIxQZ0.s 			page 10


 232              	.LFE3:
 233              		.size	Display1_Stop, .-Display1_Stop
 234              		.section	.text.Display1_ReadControlRegister,"ax",%progbits
 235              		.align	2
 236              		.global	Display1_ReadControlRegister
 237              		.thumb
 238              		.thumb_func
 239              		.type	Display1_ReadControlRegister, %function
 240              	Display1_ReadControlRegister:
 241              	.LFB4:
 278:.\Generated_Source\PSoC5/Display1.c **** }
 279:.\Generated_Source\PSoC5/Display1.c **** 
 280:.\Generated_Source\PSoC5/Display1.c **** 
 281:.\Generated_Source\PSoC5/Display1.c **** /*******************************************************************************
 282:.\Generated_Source\PSoC5/Display1.c **** * Function Name: Display1_ReadControlRegister
 283:.\Generated_Source\PSoC5/Display1.c **** ********************************************************************************
 284:.\Generated_Source\PSoC5/Display1.c **** *
 285:.\Generated_Source\PSoC5/Display1.c **** * Summary:
 286:.\Generated_Source\PSoC5/Display1.c **** *  Returns the current value of the control register.
 287:.\Generated_Source\PSoC5/Display1.c **** *
 288:.\Generated_Source\PSoC5/Display1.c **** * Parameters:
 289:.\Generated_Source\PSoC5/Display1.c **** *  None.
 290:.\Generated_Source\PSoC5/Display1.c **** *
 291:.\Generated_Source\PSoC5/Display1.c **** * Return:
 292:.\Generated_Source\PSoC5/Display1.c **** *  Contents of the control register.
 293:.\Generated_Source\PSoC5/Display1.c **** *
 294:.\Generated_Source\PSoC5/Display1.c **** *******************************************************************************/
 295:.\Generated_Source\PSoC5/Display1.c **** uint8 Display1_ReadControlRegister(void) 
 296:.\Generated_Source\PSoC5/Display1.c **** {
 242              		.loc 1 296 0
 243              		.cfi_startproc
 244              		@ args = 0, pretend = 0, frame = 0
 245              		@ frame_needed = 0, uses_anonymous_args = 0
 246              		@ link register save eliminated.
 297:.\Generated_Source\PSoC5/Display1.c ****     #if (Display1_CONTROL_REG_REMOVED)
 298:.\Generated_Source\PSoC5/Display1.c ****         return(0u);
 299:.\Generated_Source\PSoC5/Display1.c ****     #else
 300:.\Generated_Source\PSoC5/Display1.c ****         return(Display1_CONTROL_REG);
 301:.\Generated_Source\PSoC5/Display1.c ****     #endif /* (Display1_CONTROL_REG_REMOVED) */
 302:.\Generated_Source\PSoC5/Display1.c **** }
 247              		.loc 1 302 0
 248 0000 0020     		movs	r0, #0
 249 0002 7047     		bx	lr
 250              		.cfi_endproc
 251              	.LFE4:
 252              		.size	Display1_ReadControlRegister, .-Display1_ReadControlRegister
 253              		.section	.text.Display1_WriteControlRegister,"ax",%progbits
 254              		.align	2
 255              		.global	Display1_WriteControlRegister
 256              		.thumb
 257              		.thumb_func
 258              		.type	Display1_WriteControlRegister, %function
 259              	Display1_WriteControlRegister:
 260              	.LFB5:
 303:.\Generated_Source\PSoC5/Display1.c **** 
 304:.\Generated_Source\PSoC5/Display1.c **** 
 305:.\Generated_Source\PSoC5/Display1.c **** /*******************************************************************************
ARM GAS  C:\Users\RECEPC~1\AppData\Local\Temp\cclIxQZ0.s 			page 11


 306:.\Generated_Source\PSoC5/Display1.c **** * Function Name: Display1_WriteControlRegister
 307:.\Generated_Source\PSoC5/Display1.c **** ********************************************************************************
 308:.\Generated_Source\PSoC5/Display1.c **** *
 309:.\Generated_Source\PSoC5/Display1.c **** * Summary:
 310:.\Generated_Source\PSoC5/Display1.c **** *  Writes an 8-bit value into the control register
 311:.\Generated_Source\PSoC5/Display1.c **** *
 312:.\Generated_Source\PSoC5/Display1.c **** * Parameters:
 313:.\Generated_Source\PSoC5/Display1.c **** *  control:  control register value
 314:.\Generated_Source\PSoC5/Display1.c **** *
 315:.\Generated_Source\PSoC5/Display1.c **** * Return:
 316:.\Generated_Source\PSoC5/Display1.c **** *  None.
 317:.\Generated_Source\PSoC5/Display1.c **** *
 318:.\Generated_Source\PSoC5/Display1.c **** *******************************************************************************/
 319:.\Generated_Source\PSoC5/Display1.c **** void  Display1_WriteControlRegister(uint8 control) 
 320:.\Generated_Source\PSoC5/Display1.c **** {
 261              		.loc 1 320 0
 262              		.cfi_startproc
 263              		@ args = 0, pretend = 0, frame = 0
 264              		@ frame_needed = 0, uses_anonymous_args = 0
 265              		@ link register save eliminated.
 266              	.LVL14:
 267 0000 7047     		bx	lr
 268              		.cfi_endproc
 269              	.LFE5:
 270              		.size	Display1_WriteControlRegister, .-Display1_WriteControlRegister
 271 0002 00BF     		.section	.text.Display1_SetRxInterruptMode,"ax",%progbits
 272              		.align	2
 273              		.global	Display1_SetRxInterruptMode
 274              		.thumb
 275              		.thumb_func
 276              		.type	Display1_SetRxInterruptMode, %function
 277              	Display1_SetRxInterruptMode:
 278              	.LFB6:
 321:.\Generated_Source\PSoC5/Display1.c ****     #if (Display1_CONTROL_REG_REMOVED)
 322:.\Generated_Source\PSoC5/Display1.c ****         if(0u != control)
 323:.\Generated_Source\PSoC5/Display1.c ****         {
 324:.\Generated_Source\PSoC5/Display1.c ****             /* Suppress compiler warning */
 325:.\Generated_Source\PSoC5/Display1.c ****         }
 326:.\Generated_Source\PSoC5/Display1.c ****     #else
 327:.\Generated_Source\PSoC5/Display1.c ****        Display1_CONTROL_REG = control;
 328:.\Generated_Source\PSoC5/Display1.c ****     #endif /* (Display1_CONTROL_REG_REMOVED) */
 329:.\Generated_Source\PSoC5/Display1.c **** }
 330:.\Generated_Source\PSoC5/Display1.c **** 
 331:.\Generated_Source\PSoC5/Display1.c **** 
 332:.\Generated_Source\PSoC5/Display1.c **** #if(Display1_RX_ENABLED || Display1_HD_ENABLED)
 333:.\Generated_Source\PSoC5/Display1.c ****     /*******************************************************************************
 334:.\Generated_Source\PSoC5/Display1.c ****     * Function Name: Display1_SetRxInterruptMode
 335:.\Generated_Source\PSoC5/Display1.c ****     ********************************************************************************
 336:.\Generated_Source\PSoC5/Display1.c ****     *
 337:.\Generated_Source\PSoC5/Display1.c ****     * Summary:
 338:.\Generated_Source\PSoC5/Display1.c ****     *  Configures the RX interrupt sources enabled.
 339:.\Generated_Source\PSoC5/Display1.c ****     *
 340:.\Generated_Source\PSoC5/Display1.c ****     * Parameters:
 341:.\Generated_Source\PSoC5/Display1.c ****     *  IntSrc:  Bit field containing the RX interrupts to enable. Based on the 
 342:.\Generated_Source\PSoC5/Display1.c ****     *  bit-field arrangement of the status register. This value must be a 
 343:.\Generated_Source\PSoC5/Display1.c ****     *  combination of status register bit-masks shown below:
 344:.\Generated_Source\PSoC5/Display1.c ****     *      Display1_RX_STS_FIFO_NOTEMPTY    Interrupt on byte received.
ARM GAS  C:\Users\RECEPC~1\AppData\Local\Temp\cclIxQZ0.s 			page 12


 345:.\Generated_Source\PSoC5/Display1.c ****     *      Display1_RX_STS_PAR_ERROR        Interrupt on parity error.
 346:.\Generated_Source\PSoC5/Display1.c ****     *      Display1_RX_STS_STOP_ERROR       Interrupt on stop error.
 347:.\Generated_Source\PSoC5/Display1.c ****     *      Display1_RX_STS_BREAK            Interrupt on break.
 348:.\Generated_Source\PSoC5/Display1.c ****     *      Display1_RX_STS_OVERRUN          Interrupt on overrun error.
 349:.\Generated_Source\PSoC5/Display1.c ****     *      Display1_RX_STS_ADDR_MATCH       Interrupt on address match.
 350:.\Generated_Source\PSoC5/Display1.c ****     *      Display1_RX_STS_MRKSPC           Interrupt on address detect.
 351:.\Generated_Source\PSoC5/Display1.c ****     *
 352:.\Generated_Source\PSoC5/Display1.c ****     * Return:
 353:.\Generated_Source\PSoC5/Display1.c ****     *  None.
 354:.\Generated_Source\PSoC5/Display1.c ****     *
 355:.\Generated_Source\PSoC5/Display1.c ****     * Theory:
 356:.\Generated_Source\PSoC5/Display1.c ****     *  Enables the output of specific status bits to the interrupt controller
 357:.\Generated_Source\PSoC5/Display1.c ****     *
 358:.\Generated_Source\PSoC5/Display1.c ****     *******************************************************************************/
 359:.\Generated_Source\PSoC5/Display1.c ****     void Display1_SetRxInterruptMode(uint8 intSrc) 
 360:.\Generated_Source\PSoC5/Display1.c ****     {
 279              		.loc 1 360 0
 280              		.cfi_startproc
 281              		@ args = 0, pretend = 0, frame = 0
 282              		@ frame_needed = 0, uses_anonymous_args = 0
 283              		@ link register save eliminated.
 284              	.LVL15:
 361:.\Generated_Source\PSoC5/Display1.c ****         Display1_RXSTATUS_MASK_REG  = intSrc;
 285              		.loc 1 361 0
 286 0000 014B     		ldr	r3, .L21
 287 0002 1870     		strb	r0, [r3]
 288 0004 7047     		bx	lr
 289              	.L22:
 290 0006 00BF     		.align	2
 291              	.L21:
 292 0008 86640040 		.word	1073767558
 293              		.cfi_endproc
 294              	.LFE6:
 295              		.size	Display1_SetRxInterruptMode, .-Display1_SetRxInterruptMode
 296              		.section	.text.Display1_ReadRxData,"ax",%progbits
 297              		.align	2
 298              		.global	Display1_ReadRxData
 299              		.thumb
 300              		.thumb_func
 301              		.type	Display1_ReadRxData, %function
 302              	Display1_ReadRxData:
 303              	.LFB7:
 362:.\Generated_Source\PSoC5/Display1.c ****     }
 363:.\Generated_Source\PSoC5/Display1.c **** 
 364:.\Generated_Source\PSoC5/Display1.c **** 
 365:.\Generated_Source\PSoC5/Display1.c ****     /*******************************************************************************
 366:.\Generated_Source\PSoC5/Display1.c ****     * Function Name: Display1_ReadRxData
 367:.\Generated_Source\PSoC5/Display1.c ****     ********************************************************************************
 368:.\Generated_Source\PSoC5/Display1.c ****     *
 369:.\Generated_Source\PSoC5/Display1.c ****     * Summary:
 370:.\Generated_Source\PSoC5/Display1.c ****     *  Returns the next byte of received data. This function returns data without
 371:.\Generated_Source\PSoC5/Display1.c ****     *  checking the status. You must check the status separately.
 372:.\Generated_Source\PSoC5/Display1.c ****     *
 373:.\Generated_Source\PSoC5/Display1.c ****     * Parameters:
 374:.\Generated_Source\PSoC5/Display1.c ****     *  None.
 375:.\Generated_Source\PSoC5/Display1.c ****     *
 376:.\Generated_Source\PSoC5/Display1.c ****     * Return:
ARM GAS  C:\Users\RECEPC~1\AppData\Local\Temp\cclIxQZ0.s 			page 13


 377:.\Generated_Source\PSoC5/Display1.c ****     *  Received data from RX register
 378:.\Generated_Source\PSoC5/Display1.c ****     *
 379:.\Generated_Source\PSoC5/Display1.c ****     * Global Variables:
 380:.\Generated_Source\PSoC5/Display1.c ****     *  Display1_rxBuffer - RAM buffer pointer for save received data.
 381:.\Generated_Source\PSoC5/Display1.c ****     *  Display1_rxBufferWrite - cyclic index for write to rxBuffer,
 382:.\Generated_Source\PSoC5/Display1.c ****     *     checked to identify new data.
 383:.\Generated_Source\PSoC5/Display1.c ****     *  Display1_rxBufferRead - cyclic index for read from rxBuffer,
 384:.\Generated_Source\PSoC5/Display1.c ****     *     incremented after each byte has been read from buffer.
 385:.\Generated_Source\PSoC5/Display1.c ****     *  Display1_rxBufferLoopDetect - cleared if loop condition was detected
 386:.\Generated_Source\PSoC5/Display1.c ****     *     in RX ISR.
 387:.\Generated_Source\PSoC5/Display1.c ****     *
 388:.\Generated_Source\PSoC5/Display1.c ****     * Reentrant:
 389:.\Generated_Source\PSoC5/Display1.c ****     *  No.
 390:.\Generated_Source\PSoC5/Display1.c ****     *
 391:.\Generated_Source\PSoC5/Display1.c ****     *******************************************************************************/
 392:.\Generated_Source\PSoC5/Display1.c ****     uint8 Display1_ReadRxData(void) 
 393:.\Generated_Source\PSoC5/Display1.c ****     {
 304              		.loc 1 393 0
 305              		.cfi_startproc
 306              		@ args = 0, pretend = 0, frame = 0
 307              		@ frame_needed = 0, uses_anonymous_args = 0
 308              		@ link register save eliminated.
 394:.\Generated_Source\PSoC5/Display1.c ****         uint8 rxData;
 395:.\Generated_Source\PSoC5/Display1.c **** 
 396:.\Generated_Source\PSoC5/Display1.c ****     #if (Display1_RX_INTERRUPT_ENABLED)
 397:.\Generated_Source\PSoC5/Display1.c **** 
 398:.\Generated_Source\PSoC5/Display1.c ****         uint8 locRxBufferRead;
 399:.\Generated_Source\PSoC5/Display1.c ****         uint8 locRxBufferWrite;
 400:.\Generated_Source\PSoC5/Display1.c **** 
 401:.\Generated_Source\PSoC5/Display1.c ****         /* Protect variables that could change on interrupt */
 402:.\Generated_Source\PSoC5/Display1.c ****         Display1_DisableRxInt();
 309              		.loc 1 402 0
 310 0000 0122     		movs	r2, #1
 311 0002 134B     		ldr	r3, .L29
 312 0004 1A60     		str	r2, [r3]
 403:.\Generated_Source\PSoC5/Display1.c **** 
 404:.\Generated_Source\PSoC5/Display1.c ****         locRxBufferRead  = Display1_rxBufferRead;
 313              		.loc 1 404 0
 314 0006 134A     		ldr	r2, .L29+4
 315 0008 9378     		ldrb	r3, [r2, #2]	@ zero_extendqisi2
 316 000a DBB2     		uxtb	r3, r3
 317              	.LVL16:
 405:.\Generated_Source\PSoC5/Display1.c ****         locRxBufferWrite = Display1_rxBufferWrite;
 318              		.loc 1 405 0
 319 000c D178     		ldrb	r1, [r2, #3]	@ zero_extendqisi2
 320 000e C9B2     		uxtb	r1, r1
 321              	.LVL17:
 406:.\Generated_Source\PSoC5/Display1.c **** 
 407:.\Generated_Source\PSoC5/Display1.c ****         if( (Display1_rxBufferLoopDetect != 0u) || (locRxBufferRead != locRxBufferWrite) )
 322              		.loc 1 407 0
 323 0010 1279     		ldrb	r2, [r2, #4]	@ zero_extendqisi2
 324 0012 12F0FF0F 		tst	r2, #255
 325 0016 01D1     		bne	.L24
 326              		.loc 1 407 0 is_stmt 0 discriminator 1
 327 0018 8B42     		cmp	r3, r1
 328 001a 11D0     		beq	.L25
 329              	.L24:
ARM GAS  C:\Users\RECEPC~1\AppData\Local\Temp\cclIxQZ0.s 			page 14


 408:.\Generated_Source\PSoC5/Display1.c ****         {
 409:.\Generated_Source\PSoC5/Display1.c ****             rxData = Display1_rxBuffer[locRxBufferRead];
 330              		.loc 1 409 0 is_stmt 1
 331 001c 0E4A     		ldr	r2, .L29+8
 332 001e D05C     		ldrb	r0, [r2, r3]	@ zero_extendqisi2
 333 0020 C0B2     		uxtb	r0, r0
 334              	.LVL18:
 410:.\Generated_Source\PSoC5/Display1.c ****             locRxBufferRead++;
 335              		.loc 1 410 0
 336 0022 0133     		adds	r3, r3, #1
 337              	.LVL19:
 338 0024 DBB2     		uxtb	r3, r3
 339              	.LVL20:
 411:.\Generated_Source\PSoC5/Display1.c **** 
 412:.\Generated_Source\PSoC5/Display1.c ****             if(locRxBufferRead >= Display1_RX_BUFFER_SIZE)
 340              		.loc 1 412 0
 341 0026 1F2B     		cmp	r3, #31
 342 0028 00D9     		bls	.L26
 413:.\Generated_Source\PSoC5/Display1.c ****             {
 414:.\Generated_Source\PSoC5/Display1.c ****                 locRxBufferRead = 0u;
 343              		.loc 1 414 0
 344 002a 0023     		movs	r3, #0
 345              	.LVL21:
 346              	.L26:
 415:.\Generated_Source\PSoC5/Display1.c ****             }
 416:.\Generated_Source\PSoC5/Display1.c ****             /* Update the real pointer */
 417:.\Generated_Source\PSoC5/Display1.c ****             Display1_rxBufferRead = locRxBufferRead;
 347              		.loc 1 417 0
 348 002c 094A     		ldr	r2, .L29+4
 349 002e 9370     		strb	r3, [r2, #2]
 418:.\Generated_Source\PSoC5/Display1.c **** 
 419:.\Generated_Source\PSoC5/Display1.c ****             if(Display1_rxBufferLoopDetect != 0u)
 350              		.loc 1 419 0
 351 0030 1379     		ldrb	r3, [r2, #4]	@ zero_extendqisi2
 352              	.LVL22:
 353 0032 13F0FF0F 		tst	r3, #255
 354 0036 06D0     		beq	.L27
 420:.\Generated_Source\PSoC5/Display1.c ****             {
 421:.\Generated_Source\PSoC5/Display1.c ****                 Display1_rxBufferLoopDetect = 0u;
 355              		.loc 1 421 0
 356 0038 0022     		movs	r2, #0
 357 003a 064B     		ldr	r3, .L29+4
 358 003c 1A71     		strb	r2, [r3, #4]
 359              	.LVL23:
 360 003e 02E0     		b	.L27
 361              	.LVL24:
 362              	.L25:
 422:.\Generated_Source\PSoC5/Display1.c ****                 #if ((Display1_RX_INTERRUPT_ENABLED) && (Display1_FLOW_CONTROL != 0u))
 423:.\Generated_Source\PSoC5/Display1.c ****                     /* When Hardware Flow Control selected - return RX mask */
 424:.\Generated_Source\PSoC5/Display1.c ****                     #if( Display1_HD_ENABLED )
 425:.\Generated_Source\PSoC5/Display1.c ****                         if((Display1_CONTROL_REG & Display1_CTRL_HD_SEND) == 0u)
 426:.\Generated_Source\PSoC5/Display1.c ****                         {   /* In Half duplex mode return RX mask only in RX
 427:.\Generated_Source\PSoC5/Display1.c ****                             *  configuration set, otherwise
 428:.\Generated_Source\PSoC5/Display1.c ****                             *  mask will be returned in LoadRxConfig() API.
 429:.\Generated_Source\PSoC5/Display1.c ****                             */
 430:.\Generated_Source\PSoC5/Display1.c ****                             Display1_RXSTATUS_MASK_REG  |= Display1_RX_STS_FIFO_NOTEMPTY;
 431:.\Generated_Source\PSoC5/Display1.c ****                         }
ARM GAS  C:\Users\RECEPC~1\AppData\Local\Temp\cclIxQZ0.s 			page 15


 432:.\Generated_Source\PSoC5/Display1.c ****                     #else
 433:.\Generated_Source\PSoC5/Display1.c ****                         Display1_RXSTATUS_MASK_REG  |= Display1_RX_STS_FIFO_NOTEMPTY;
 434:.\Generated_Source\PSoC5/Display1.c ****                     #endif /* end Display1_HD_ENABLED */
 435:.\Generated_Source\PSoC5/Display1.c ****                 #endif /* ((Display1_RX_INTERRUPT_ENABLED) && (Display1_FLOW_CONTROL != 0u)) */
 436:.\Generated_Source\PSoC5/Display1.c ****             }
 437:.\Generated_Source\PSoC5/Display1.c ****         }
 438:.\Generated_Source\PSoC5/Display1.c ****         else
 439:.\Generated_Source\PSoC5/Display1.c ****         {   /* Needs to check status for RX_STS_FIFO_NOTEMPTY bit */
 440:.\Generated_Source\PSoC5/Display1.c ****             rxData = Display1_RXDATA_REG;
 363              		.loc 1 440 0
 364 0040 064B     		ldr	r3, .L29+12
 365              	.LVL25:
 366 0042 1878     		ldrb	r0, [r3]	@ zero_extendqisi2
 367 0044 C0B2     		uxtb	r0, r0
 368              	.LVL26:
 369              	.L27:
 441:.\Generated_Source\PSoC5/Display1.c ****         }
 442:.\Generated_Source\PSoC5/Display1.c **** 
 443:.\Generated_Source\PSoC5/Display1.c ****         Display1_EnableRxInt();
 370              		.loc 1 443 0
 371 0046 0122     		movs	r2, #1
 372 0048 054B     		ldr	r3, .L29+16
 373 004a 1A60     		str	r2, [r3]
 444:.\Generated_Source\PSoC5/Display1.c **** 
 445:.\Generated_Source\PSoC5/Display1.c ****     #else
 446:.\Generated_Source\PSoC5/Display1.c **** 
 447:.\Generated_Source\PSoC5/Display1.c ****         /* Needs to check status for RX_STS_FIFO_NOTEMPTY bit */
 448:.\Generated_Source\PSoC5/Display1.c ****         rxData = Display1_RXDATA_REG;
 449:.\Generated_Source\PSoC5/Display1.c **** 
 450:.\Generated_Source\PSoC5/Display1.c ****     #endif /* (Display1_RX_INTERRUPT_ENABLED) */
 451:.\Generated_Source\PSoC5/Display1.c **** 
 452:.\Generated_Source\PSoC5/Display1.c ****         return(rxData);
 453:.\Generated_Source\PSoC5/Display1.c ****     }
 374              		.loc 1 453 0
 375 004c 7047     		bx	lr
 376              	.L30:
 377 004e 00BF     		.align	2
 378              	.L29:
 379 0050 80E100E0 		.word	-536813184
 380 0054 00000000 		.word	.LANCHOR0
 381 0058 00000000 		.word	Display1_rxBuffer
 382 005c 46650040 		.word	1073767750
 383 0060 00E100E0 		.word	-536813312
 384              		.cfi_endproc
 385              	.LFE7:
 386              		.size	Display1_ReadRxData, .-Display1_ReadRxData
 387              		.section	.text.Display1_ReadRxStatus,"ax",%progbits
 388              		.align	2
 389              		.global	Display1_ReadRxStatus
 390              		.thumb
 391              		.thumb_func
 392              		.type	Display1_ReadRxStatus, %function
 393              	Display1_ReadRxStatus:
 394              	.LFB8:
 454:.\Generated_Source\PSoC5/Display1.c **** 
 455:.\Generated_Source\PSoC5/Display1.c **** 
 456:.\Generated_Source\PSoC5/Display1.c ****     /*******************************************************************************
ARM GAS  C:\Users\RECEPC~1\AppData\Local\Temp\cclIxQZ0.s 			page 16


 457:.\Generated_Source\PSoC5/Display1.c ****     * Function Name: Display1_ReadRxStatus
 458:.\Generated_Source\PSoC5/Display1.c ****     ********************************************************************************
 459:.\Generated_Source\PSoC5/Display1.c ****     *
 460:.\Generated_Source\PSoC5/Display1.c ****     * Summary:
 461:.\Generated_Source\PSoC5/Display1.c ****     *  Returns the current state of the receiver status register and the software
 462:.\Generated_Source\PSoC5/Display1.c ****     *  buffer overflow status.
 463:.\Generated_Source\PSoC5/Display1.c ****     *
 464:.\Generated_Source\PSoC5/Display1.c ****     * Parameters:
 465:.\Generated_Source\PSoC5/Display1.c ****     *  None.
 466:.\Generated_Source\PSoC5/Display1.c ****     *
 467:.\Generated_Source\PSoC5/Display1.c ****     * Return:
 468:.\Generated_Source\PSoC5/Display1.c ****     *  Current state of the status register.
 469:.\Generated_Source\PSoC5/Display1.c ****     *
 470:.\Generated_Source\PSoC5/Display1.c ****     * Side Effect:
 471:.\Generated_Source\PSoC5/Display1.c ****     *  All status register bits are clear-on-read except
 472:.\Generated_Source\PSoC5/Display1.c ****     *  Display1_RX_STS_FIFO_NOTEMPTY.
 473:.\Generated_Source\PSoC5/Display1.c ****     *  Display1_RX_STS_FIFO_NOTEMPTY clears immediately after RX data
 474:.\Generated_Source\PSoC5/Display1.c ****     *  register read.
 475:.\Generated_Source\PSoC5/Display1.c ****     *
 476:.\Generated_Source\PSoC5/Display1.c ****     * Global Variables:
 477:.\Generated_Source\PSoC5/Display1.c ****     *  Display1_rxBufferOverflow - used to indicate overload condition.
 478:.\Generated_Source\PSoC5/Display1.c ****     *   It set to one in RX interrupt when there isn't free space in
 479:.\Generated_Source\PSoC5/Display1.c ****     *   Display1_rxBufferRead to write new data. This condition returned
 480:.\Generated_Source\PSoC5/Display1.c ****     *   and cleared to zero by this API as an
 481:.\Generated_Source\PSoC5/Display1.c ****     *   Display1_RX_STS_SOFT_BUFF_OVER bit along with RX Status register
 482:.\Generated_Source\PSoC5/Display1.c ****     *   bits.
 483:.\Generated_Source\PSoC5/Display1.c ****     *
 484:.\Generated_Source\PSoC5/Display1.c ****     *******************************************************************************/
 485:.\Generated_Source\PSoC5/Display1.c ****     uint8 Display1_ReadRxStatus(void) 
 486:.\Generated_Source\PSoC5/Display1.c ****     {
 395              		.loc 1 486 0
 396              		.cfi_startproc
 397              		@ args = 0, pretend = 0, frame = 0
 398              		@ frame_needed = 0, uses_anonymous_args = 0
 399              		@ link register save eliminated.
 487:.\Generated_Source\PSoC5/Display1.c ****         uint8 status;
 488:.\Generated_Source\PSoC5/Display1.c **** 
 489:.\Generated_Source\PSoC5/Display1.c ****         status = Display1_RXSTATUS_REG & Display1_RX_HW_MASK;
 400              		.loc 1 489 0
 401 0000 074B     		ldr	r3, .L33
 402 0002 1878     		ldrb	r0, [r3]	@ zero_extendqisi2
 403 0004 00F07F00 		and	r0, r0, #127
 404              	.LVL27:
 490:.\Generated_Source\PSoC5/Display1.c **** 
 491:.\Generated_Source\PSoC5/Display1.c ****     #if (Display1_RX_INTERRUPT_ENABLED)
 492:.\Generated_Source\PSoC5/Display1.c ****         if(Display1_rxBufferOverflow != 0u)
 405              		.loc 1 492 0
 406 0008 064B     		ldr	r3, .L33+4
 407 000a 5B79     		ldrb	r3, [r3, #5]	@ zero_extendqisi2
 408 000c 13F0FF0F 		tst	r3, #255
 409 0010 04D0     		beq	.L32
 493:.\Generated_Source\PSoC5/Display1.c ****         {
 494:.\Generated_Source\PSoC5/Display1.c ****             status |= Display1_RX_STS_SOFT_BUFF_OVER;
 410              		.loc 1 494 0
 411 0012 40F08000 		orr	r0, r0, #128
 412              	.LVL28:
 495:.\Generated_Source\PSoC5/Display1.c ****             Display1_rxBufferOverflow = 0u;
ARM GAS  C:\Users\RECEPC~1\AppData\Local\Temp\cclIxQZ0.s 			page 17


 413              		.loc 1 495 0
 414 0016 0022     		movs	r2, #0
 415 0018 024B     		ldr	r3, .L33+4
 416 001a 5A71     		strb	r2, [r3, #5]
 417              	.L32:
 496:.\Generated_Source\PSoC5/Display1.c ****         }
 497:.\Generated_Source\PSoC5/Display1.c ****     #endif /* (Display1_RX_INTERRUPT_ENABLED) */
 498:.\Generated_Source\PSoC5/Display1.c **** 
 499:.\Generated_Source\PSoC5/Display1.c ****         return(status);
 500:.\Generated_Source\PSoC5/Display1.c ****     }
 418              		.loc 1 500 0
 419 001c 7047     		bx	lr
 420              	.L34:
 421 001e 00BF     		.align	2
 422              	.L33:
 423 0020 66640040 		.word	1073767526
 424 0024 00000000 		.word	.LANCHOR0
 425              		.cfi_endproc
 426              	.LFE8:
 427              		.size	Display1_ReadRxStatus, .-Display1_ReadRxStatus
 428              		.section	.text.Display1_GetChar,"ax",%progbits
 429              		.align	2
 430              		.global	Display1_GetChar
 431              		.thumb
 432              		.thumb_func
 433              		.type	Display1_GetChar, %function
 434              	Display1_GetChar:
 435              	.LFB9:
 501:.\Generated_Source\PSoC5/Display1.c **** 
 502:.\Generated_Source\PSoC5/Display1.c **** 
 503:.\Generated_Source\PSoC5/Display1.c ****     /*******************************************************************************
 504:.\Generated_Source\PSoC5/Display1.c ****     * Function Name: Display1_GetChar
 505:.\Generated_Source\PSoC5/Display1.c ****     ********************************************************************************
 506:.\Generated_Source\PSoC5/Display1.c ****     *
 507:.\Generated_Source\PSoC5/Display1.c ****     * Summary:
 508:.\Generated_Source\PSoC5/Display1.c ****     *  Returns the last received byte of data. Display1_GetChar() is
 509:.\Generated_Source\PSoC5/Display1.c ****     *  designed for ASCII characters and returns a uint8 where 1 to 255 are values
 510:.\Generated_Source\PSoC5/Display1.c ****     *  for valid characters and 0 indicates an error occurred or no data is present.
 511:.\Generated_Source\PSoC5/Display1.c ****     *
 512:.\Generated_Source\PSoC5/Display1.c ****     * Parameters:
 513:.\Generated_Source\PSoC5/Display1.c ****     *  None.
 514:.\Generated_Source\PSoC5/Display1.c ****     *
 515:.\Generated_Source\PSoC5/Display1.c ****     * Return:
 516:.\Generated_Source\PSoC5/Display1.c ****     *  Character read from UART RX buffer. ASCII characters from 1 to 255 are valid.
 517:.\Generated_Source\PSoC5/Display1.c ****     *  A returned zero signifies an error condition or no data available.
 518:.\Generated_Source\PSoC5/Display1.c ****     *
 519:.\Generated_Source\PSoC5/Display1.c ****     * Global Variables:
 520:.\Generated_Source\PSoC5/Display1.c ****     *  Display1_rxBuffer - RAM buffer pointer for save received data.
 521:.\Generated_Source\PSoC5/Display1.c ****     *  Display1_rxBufferWrite - cyclic index for write to rxBuffer,
 522:.\Generated_Source\PSoC5/Display1.c ****     *     checked to identify new data.
 523:.\Generated_Source\PSoC5/Display1.c ****     *  Display1_rxBufferRead - cyclic index for read from rxBuffer,
 524:.\Generated_Source\PSoC5/Display1.c ****     *     incremented after each byte has been read from buffer.
 525:.\Generated_Source\PSoC5/Display1.c ****     *  Display1_rxBufferLoopDetect - cleared if loop condition was detected
 526:.\Generated_Source\PSoC5/Display1.c ****     *     in RX ISR.
 527:.\Generated_Source\PSoC5/Display1.c ****     *
 528:.\Generated_Source\PSoC5/Display1.c ****     * Reentrant:
 529:.\Generated_Source\PSoC5/Display1.c ****     *  No.
ARM GAS  C:\Users\RECEPC~1\AppData\Local\Temp\cclIxQZ0.s 			page 18


 530:.\Generated_Source\PSoC5/Display1.c ****     *
 531:.\Generated_Source\PSoC5/Display1.c ****     *******************************************************************************/
 532:.\Generated_Source\PSoC5/Display1.c ****     uint8 Display1_GetChar(void) 
 533:.\Generated_Source\PSoC5/Display1.c ****     {
 436              		.loc 1 533 0
 437              		.cfi_startproc
 438              		@ args = 0, pretend = 0, frame = 0
 439              		@ frame_needed = 0, uses_anonymous_args = 0
 440              		@ link register save eliminated.
 441              	.LVL29:
 534:.\Generated_Source\PSoC5/Display1.c ****         uint8 rxData = 0u;
 535:.\Generated_Source\PSoC5/Display1.c ****         uint8 rxStatus;
 536:.\Generated_Source\PSoC5/Display1.c **** 
 537:.\Generated_Source\PSoC5/Display1.c ****     #if (Display1_RX_INTERRUPT_ENABLED)
 538:.\Generated_Source\PSoC5/Display1.c ****         uint8 locRxBufferRead;
 539:.\Generated_Source\PSoC5/Display1.c ****         uint8 locRxBufferWrite;
 540:.\Generated_Source\PSoC5/Display1.c **** 
 541:.\Generated_Source\PSoC5/Display1.c ****         /* Protect variables that could change on interrupt */
 542:.\Generated_Source\PSoC5/Display1.c ****         Display1_DisableRxInt();
 442              		.loc 1 542 0
 443 0000 0122     		movs	r2, #1
 444 0002 194B     		ldr	r3, .L43
 445 0004 1A60     		str	r2, [r3]
 543:.\Generated_Source\PSoC5/Display1.c **** 
 544:.\Generated_Source\PSoC5/Display1.c ****         locRxBufferRead  = Display1_rxBufferRead;
 446              		.loc 1 544 0
 447 0006 194A     		ldr	r2, .L43+4
 448 0008 9378     		ldrb	r3, [r2, #2]	@ zero_extendqisi2
 449 000a DBB2     		uxtb	r3, r3
 450              	.LVL30:
 545:.\Generated_Source\PSoC5/Display1.c ****         locRxBufferWrite = Display1_rxBufferWrite;
 451              		.loc 1 545 0
 452 000c D178     		ldrb	r1, [r2, #3]	@ zero_extendqisi2
 453 000e C9B2     		uxtb	r1, r1
 454              	.LVL31:
 546:.\Generated_Source\PSoC5/Display1.c **** 
 547:.\Generated_Source\PSoC5/Display1.c ****         if( (Display1_rxBufferLoopDetect != 0u) || (locRxBufferRead != locRxBufferWrite) )
 455              		.loc 1 547 0
 456 0010 1279     		ldrb	r2, [r2, #4]	@ zero_extendqisi2
 457 0012 12F0FF0F 		tst	r2, #255
 458 0016 01D1     		bne	.L36
 459              		.loc 1 547 0 is_stmt 0 discriminator 1
 460 0018 8B42     		cmp	r3, r1
 461 001a 11D0     		beq	.L37
 462              	.L36:
 548:.\Generated_Source\PSoC5/Display1.c ****         {
 549:.\Generated_Source\PSoC5/Display1.c ****             rxData = Display1_rxBuffer[locRxBufferRead];
 463              		.loc 1 549 0 is_stmt 1
 464 001c 144A     		ldr	r2, .L43+8
 465 001e D05C     		ldrb	r0, [r2, r3]	@ zero_extendqisi2
 466 0020 C0B2     		uxtb	r0, r0
 467              	.LVL32:
 550:.\Generated_Source\PSoC5/Display1.c ****             locRxBufferRead++;
 468              		.loc 1 550 0
 469 0022 0133     		adds	r3, r3, #1
 470              	.LVL33:
 471 0024 DBB2     		uxtb	r3, r3
ARM GAS  C:\Users\RECEPC~1\AppData\Local\Temp\cclIxQZ0.s 			page 19


 472              	.LVL34:
 551:.\Generated_Source\PSoC5/Display1.c ****             if(locRxBufferRead >= Display1_RX_BUFFER_SIZE)
 473              		.loc 1 551 0
 474 0026 1F2B     		cmp	r3, #31
 475 0028 00D9     		bls	.L38
 552:.\Generated_Source\PSoC5/Display1.c ****             {
 553:.\Generated_Source\PSoC5/Display1.c ****                 locRxBufferRead = 0u;
 476              		.loc 1 553 0
 477 002a 0023     		movs	r3, #0
 478              	.LVL35:
 479              	.L38:
 554:.\Generated_Source\PSoC5/Display1.c ****             }
 555:.\Generated_Source\PSoC5/Display1.c ****             /* Update the real pointer */
 556:.\Generated_Source\PSoC5/Display1.c ****             Display1_rxBufferRead = locRxBufferRead;
 480              		.loc 1 556 0
 481 002c 0F4A     		ldr	r2, .L43+4
 482 002e 9370     		strb	r3, [r2, #2]
 557:.\Generated_Source\PSoC5/Display1.c **** 
 558:.\Generated_Source\PSoC5/Display1.c ****             if(Display1_rxBufferLoopDetect != 0u)
 483              		.loc 1 558 0
 484 0030 1379     		ldrb	r3, [r2, #4]	@ zero_extendqisi2
 485              	.LVL36:
 486 0032 13F0FF0F 		tst	r3, #255
 487 0036 13D0     		beq	.L39
 559:.\Generated_Source\PSoC5/Display1.c ****             {
 560:.\Generated_Source\PSoC5/Display1.c ****                 Display1_rxBufferLoopDetect = 0u;
 488              		.loc 1 560 0
 489 0038 0022     		movs	r2, #0
 490 003a 0C4B     		ldr	r3, .L43+4
 491 003c 1A71     		strb	r2, [r3, #4]
 492              	.LVL37:
 493 003e 0FE0     		b	.L39
 494              	.LVL38:
 495              	.L37:
 561:.\Generated_Source\PSoC5/Display1.c ****                 #if( (Display1_RX_INTERRUPT_ENABLED) && (Display1_FLOW_CONTROL != 0u) )
 562:.\Generated_Source\PSoC5/Display1.c ****                     /* When Hardware Flow Control selected - return RX mask */
 563:.\Generated_Source\PSoC5/Display1.c ****                     #if( Display1_HD_ENABLED )
 564:.\Generated_Source\PSoC5/Display1.c ****                         if((Display1_CONTROL_REG & Display1_CTRL_HD_SEND) == 0u)
 565:.\Generated_Source\PSoC5/Display1.c ****                         {   /* In Half duplex mode return RX mask only if
 566:.\Generated_Source\PSoC5/Display1.c ****                             *  RX configuration set, otherwise
 567:.\Generated_Source\PSoC5/Display1.c ****                             *  mask will be returned in LoadRxConfig() API.
 568:.\Generated_Source\PSoC5/Display1.c ****                             */
 569:.\Generated_Source\PSoC5/Display1.c ****                             Display1_RXSTATUS_MASK_REG |= Display1_RX_STS_FIFO_NOTEMPTY;
 570:.\Generated_Source\PSoC5/Display1.c ****                         }
 571:.\Generated_Source\PSoC5/Display1.c ****                     #else
 572:.\Generated_Source\PSoC5/Display1.c ****                         Display1_RXSTATUS_MASK_REG |= Display1_RX_STS_FIFO_NOTEMPTY;
 573:.\Generated_Source\PSoC5/Display1.c ****                     #endif /* end Display1_HD_ENABLED */
 574:.\Generated_Source\PSoC5/Display1.c ****                 #endif /* Display1_RX_INTERRUPT_ENABLED and Hardware flow control*/
 575:.\Generated_Source\PSoC5/Display1.c ****             }
 576:.\Generated_Source\PSoC5/Display1.c **** 
 577:.\Generated_Source\PSoC5/Display1.c ****         }
 578:.\Generated_Source\PSoC5/Display1.c ****         else
 579:.\Generated_Source\PSoC5/Display1.c ****         {   rxStatus = Display1_RXSTATUS_REG;
 496              		.loc 1 579 0
 497 0040 0C4B     		ldr	r3, .L43+12
 498              	.LVL39:
 499 0042 1B78     		ldrb	r3, [r3]	@ zero_extendqisi2
ARM GAS  C:\Users\RECEPC~1\AppData\Local\Temp\cclIxQZ0.s 			page 20


 500 0044 DBB2     		uxtb	r3, r3
 501              	.LVL40:
 580:.\Generated_Source\PSoC5/Display1.c ****             if((rxStatus & Display1_RX_STS_FIFO_NOTEMPTY) != 0u)
 502              		.loc 1 580 0
 503 0046 13F0200F 		tst	r3, #32
 504 004a 06D0     		beq	.L41
 581:.\Generated_Source\PSoC5/Display1.c ****             {   /* Read received data from FIFO */
 582:.\Generated_Source\PSoC5/Display1.c ****                 rxData = Display1_RXDATA_REG;
 505              		.loc 1 582 0
 506 004c 0A4A     		ldr	r2, .L43+16
 507 004e 1078     		ldrb	r0, [r2]	@ zero_extendqisi2
 508 0050 C0B2     		uxtb	r0, r0
 509              	.LVL41:
 583:.\Generated_Source\PSoC5/Display1.c ****                 /*Check status on error*/
 584:.\Generated_Source\PSoC5/Display1.c ****                 if((rxStatus & (Display1_RX_STS_BREAK | Display1_RX_STS_PAR_ERROR |
 510              		.loc 1 584 0
 511 0052 13F01E0F 		tst	r3, #30
 512 0056 02D1     		bne	.L42
 513 0058 02E0     		b	.L39
 514              	.LVL42:
 515              	.L41:
 534:.\Generated_Source\PSoC5/Display1.c ****         uint8 rxStatus;
 516              		.loc 1 534 0
 517 005a 0020     		movs	r0, #0
 518 005c 00E0     		b	.L39
 519              	.LVL43:
 520              	.L42:
 585:.\Generated_Source\PSoC5/Display1.c ****                                 Display1_RX_STS_STOP_ERROR | Display1_RX_STS_OVERRUN)) != 0u)
 586:.\Generated_Source\PSoC5/Display1.c ****                 {
 587:.\Generated_Source\PSoC5/Display1.c ****                     rxData = 0u;
 521              		.loc 1 587 0
 522 005e 0020     		movs	r0, #0
 523              	.LVL44:
 524              	.L39:
 588:.\Generated_Source\PSoC5/Display1.c ****                 }
 589:.\Generated_Source\PSoC5/Display1.c ****             }
 590:.\Generated_Source\PSoC5/Display1.c ****         }
 591:.\Generated_Source\PSoC5/Display1.c **** 
 592:.\Generated_Source\PSoC5/Display1.c ****         Display1_EnableRxInt();
 525              		.loc 1 592 0
 526 0060 0122     		movs	r2, #1
 527 0062 064B     		ldr	r3, .L43+20
 528 0064 1A60     		str	r2, [r3]
 593:.\Generated_Source\PSoC5/Display1.c **** 
 594:.\Generated_Source\PSoC5/Display1.c ****     #else
 595:.\Generated_Source\PSoC5/Display1.c **** 
 596:.\Generated_Source\PSoC5/Display1.c ****         rxStatus =Display1_RXSTATUS_REG;
 597:.\Generated_Source\PSoC5/Display1.c ****         if((rxStatus & Display1_RX_STS_FIFO_NOTEMPTY) != 0u)
 598:.\Generated_Source\PSoC5/Display1.c ****         {
 599:.\Generated_Source\PSoC5/Display1.c ****             /* Read received data from FIFO */
 600:.\Generated_Source\PSoC5/Display1.c ****             rxData = Display1_RXDATA_REG;
 601:.\Generated_Source\PSoC5/Display1.c **** 
 602:.\Generated_Source\PSoC5/Display1.c ****             /*Check status on error*/
 603:.\Generated_Source\PSoC5/Display1.c ****             if((rxStatus & (Display1_RX_STS_BREAK | Display1_RX_STS_PAR_ERROR |
 604:.\Generated_Source\PSoC5/Display1.c ****                             Display1_RX_STS_STOP_ERROR | Display1_RX_STS_OVERRUN)) != 0u)
 605:.\Generated_Source\PSoC5/Display1.c ****             {
 606:.\Generated_Source\PSoC5/Display1.c ****                 rxData = 0u;
ARM GAS  C:\Users\RECEPC~1\AppData\Local\Temp\cclIxQZ0.s 			page 21


 607:.\Generated_Source\PSoC5/Display1.c ****             }
 608:.\Generated_Source\PSoC5/Display1.c ****         }
 609:.\Generated_Source\PSoC5/Display1.c ****     #endif /* (Display1_RX_INTERRUPT_ENABLED) */
 610:.\Generated_Source\PSoC5/Display1.c **** 
 611:.\Generated_Source\PSoC5/Display1.c ****         return(rxData);
 612:.\Generated_Source\PSoC5/Display1.c ****     }
 529              		.loc 1 612 0
 530 0066 7047     		bx	lr
 531              	.L44:
 532              		.align	2
 533              	.L43:
 534 0068 80E100E0 		.word	-536813184
 535 006c 00000000 		.word	.LANCHOR0
 536 0070 00000000 		.word	Display1_rxBuffer
 537 0074 66640040 		.word	1073767526
 538 0078 46650040 		.word	1073767750
 539 007c 00E100E0 		.word	-536813312
 540              		.cfi_endproc
 541              	.LFE9:
 542              		.size	Display1_GetChar, .-Display1_GetChar
 543              		.section	.text.Display1_GetByte,"ax",%progbits
 544              		.align	2
 545              		.global	Display1_GetByte
 546              		.thumb
 547              		.thumb_func
 548              		.type	Display1_GetByte, %function
 549              	Display1_GetByte:
 550              	.LFB10:
 613:.\Generated_Source\PSoC5/Display1.c **** 
 614:.\Generated_Source\PSoC5/Display1.c **** 
 615:.\Generated_Source\PSoC5/Display1.c ****     /*******************************************************************************
 616:.\Generated_Source\PSoC5/Display1.c ****     * Function Name: Display1_GetByte
 617:.\Generated_Source\PSoC5/Display1.c ****     ********************************************************************************
 618:.\Generated_Source\PSoC5/Display1.c ****     *
 619:.\Generated_Source\PSoC5/Display1.c ****     * Summary:
 620:.\Generated_Source\PSoC5/Display1.c ****     *  Reads UART RX buffer immediately, returns received character and error
 621:.\Generated_Source\PSoC5/Display1.c ****     *  condition.
 622:.\Generated_Source\PSoC5/Display1.c ****     *
 623:.\Generated_Source\PSoC5/Display1.c ****     * Parameters:
 624:.\Generated_Source\PSoC5/Display1.c ****     *  None.
 625:.\Generated_Source\PSoC5/Display1.c ****     *
 626:.\Generated_Source\PSoC5/Display1.c ****     * Return:
 627:.\Generated_Source\PSoC5/Display1.c ****     *  MSB contains status and LSB contains UART RX data. If the MSB is nonzero,
 628:.\Generated_Source\PSoC5/Display1.c ****     *  an error has occurred.
 629:.\Generated_Source\PSoC5/Display1.c ****     *
 630:.\Generated_Source\PSoC5/Display1.c ****     * Reentrant:
 631:.\Generated_Source\PSoC5/Display1.c ****     *  No.
 632:.\Generated_Source\PSoC5/Display1.c ****     *
 633:.\Generated_Source\PSoC5/Display1.c ****     *******************************************************************************/
 634:.\Generated_Source\PSoC5/Display1.c ****     uint16 Display1_GetByte(void) 
 635:.\Generated_Source\PSoC5/Display1.c ****     {
 551              		.loc 1 635 0
 552              		.cfi_startproc
 553              		@ args = 0, pretend = 0, frame = 0
 554              		@ frame_needed = 0, uses_anonymous_args = 0
 555 0000 10B5     		push	{r4, lr}
 556              		.cfi_def_cfa_offset 8
ARM GAS  C:\Users\RECEPC~1\AppData\Local\Temp\cclIxQZ0.s 			page 22


 557              		.cfi_offset 4, -8
 558              		.cfi_offset 14, -4
 636:.\Generated_Source\PSoC5/Display1.c ****         
 637:.\Generated_Source\PSoC5/Display1.c ****     #if (Display1_RX_INTERRUPT_ENABLED)
 638:.\Generated_Source\PSoC5/Display1.c ****         uint16 locErrorStatus;
 639:.\Generated_Source\PSoC5/Display1.c ****         /* Protect variables that could change on interrupt */
 640:.\Generated_Source\PSoC5/Display1.c ****         Display1_DisableRxInt();
 559              		.loc 1 640 0
 560 0002 0123     		movs	r3, #1
 561 0004 064A     		ldr	r2, .L47
 562 0006 1360     		str	r3, [r2]
 641:.\Generated_Source\PSoC5/Display1.c ****         locErrorStatus = (uint16)Display1_errorStatus;
 563              		.loc 1 641 0
 564 0008 064A     		ldr	r2, .L47+4
 565 000a 1478     		ldrb	r4, [r2]	@ zero_extendqisi2
 566              	.LVL45:
 642:.\Generated_Source\PSoC5/Display1.c ****         Display1_errorStatus = 0u;
 567              		.loc 1 642 0
 568 000c 0021     		movs	r1, #0
 569 000e 1170     		strb	r1, [r2]
 643:.\Generated_Source\PSoC5/Display1.c ****         Display1_EnableRxInt();
 570              		.loc 1 643 0
 571 0010 054A     		ldr	r2, .L47+8
 572 0012 1360     		str	r3, [r2]
 644:.\Generated_Source\PSoC5/Display1.c ****         return ( (uint16)(locErrorStatus << 8u) | Display1_ReadRxData() );
 573              		.loc 1 644 0
 574 0014 2402     		lsls	r4, r4, #8
 575              	.LVL46:
 576 0016 FFF7FEFF 		bl	Display1_ReadRxData
 577              	.LVL47:
 578 001a 2043     		orrs	r0, r0, r4
 645:.\Generated_Source\PSoC5/Display1.c ****     #else
 646:.\Generated_Source\PSoC5/Display1.c ****         return ( ((uint16)Display1_ReadRxStatus() << 8u) | Display1_ReadRxData() );
 647:.\Generated_Source\PSoC5/Display1.c ****     #endif /* Display1_RX_INTERRUPT_ENABLED */
 648:.\Generated_Source\PSoC5/Display1.c ****         
 649:.\Generated_Source\PSoC5/Display1.c ****     }
 579              		.loc 1 649 0
 580 001c 80B2     		uxth	r0, r0
 581 001e 10BD     		pop	{r4, pc}
 582              	.L48:
 583              		.align	2
 584              	.L47:
 585 0020 80E100E0 		.word	-536813184
 586 0024 00000000 		.word	.LANCHOR0
 587 0028 00E100E0 		.word	-536813312
 588              		.cfi_endproc
 589              	.LFE10:
 590              		.size	Display1_GetByte, .-Display1_GetByte
 591              		.section	.text.Display1_GetRxBufferSize,"ax",%progbits
 592              		.align	2
 593              		.global	Display1_GetRxBufferSize
 594              		.thumb
 595              		.thumb_func
 596              		.type	Display1_GetRxBufferSize, %function
 597              	Display1_GetRxBufferSize:
 598              	.LFB11:
 650:.\Generated_Source\PSoC5/Display1.c **** 
ARM GAS  C:\Users\RECEPC~1\AppData\Local\Temp\cclIxQZ0.s 			page 23


 651:.\Generated_Source\PSoC5/Display1.c **** 
 652:.\Generated_Source\PSoC5/Display1.c ****     /*******************************************************************************
 653:.\Generated_Source\PSoC5/Display1.c ****     * Function Name: Display1_GetRxBufferSize
 654:.\Generated_Source\PSoC5/Display1.c ****     ********************************************************************************
 655:.\Generated_Source\PSoC5/Display1.c ****     *
 656:.\Generated_Source\PSoC5/Display1.c ****     * Summary:
 657:.\Generated_Source\PSoC5/Display1.c ****     *  Returns the number of received bytes available in the RX buffer.
 658:.\Generated_Source\PSoC5/Display1.c ****     *  * RX software buffer is disabled (RX Buffer Size parameter is equal to 4): 
 659:.\Generated_Source\PSoC5/Display1.c ****     *    returns 0 for empty RX FIFO or 1 for not empty RX FIFO.
 660:.\Generated_Source\PSoC5/Display1.c ****     *  * RX software buffer is enabled: returns the number of bytes available in 
 661:.\Generated_Source\PSoC5/Display1.c ****     *    the RX software buffer. Bytes available in the RX FIFO do not take to 
 662:.\Generated_Source\PSoC5/Display1.c ****     *    account.
 663:.\Generated_Source\PSoC5/Display1.c ****     *
 664:.\Generated_Source\PSoC5/Display1.c ****     * Parameters:
 665:.\Generated_Source\PSoC5/Display1.c ****     *  None.
 666:.\Generated_Source\PSoC5/Display1.c ****     *
 667:.\Generated_Source\PSoC5/Display1.c ****     * Return:
 668:.\Generated_Source\PSoC5/Display1.c ****     *  uint8: Number of bytes in the RX buffer. 
 669:.\Generated_Source\PSoC5/Display1.c ****     *    Return value type depends on RX Buffer Size parameter.
 670:.\Generated_Source\PSoC5/Display1.c ****     *
 671:.\Generated_Source\PSoC5/Display1.c ****     * Global Variables:
 672:.\Generated_Source\PSoC5/Display1.c ****     *  Display1_rxBufferWrite - used to calculate left bytes.
 673:.\Generated_Source\PSoC5/Display1.c ****     *  Display1_rxBufferRead - used to calculate left bytes.
 674:.\Generated_Source\PSoC5/Display1.c ****     *  Display1_rxBufferLoopDetect - checked to decide left bytes amount.
 675:.\Generated_Source\PSoC5/Display1.c ****     *
 676:.\Generated_Source\PSoC5/Display1.c ****     * Reentrant:
 677:.\Generated_Source\PSoC5/Display1.c ****     *  No.
 678:.\Generated_Source\PSoC5/Display1.c ****     *
 679:.\Generated_Source\PSoC5/Display1.c ****     * Theory:
 680:.\Generated_Source\PSoC5/Display1.c ****     *  Allows the user to find out how full the RX Buffer is.
 681:.\Generated_Source\PSoC5/Display1.c ****     *
 682:.\Generated_Source\PSoC5/Display1.c ****     *******************************************************************************/
 683:.\Generated_Source\PSoC5/Display1.c ****     uint8 Display1_GetRxBufferSize(void)
 684:.\Generated_Source\PSoC5/Display1.c ****                                                             
 685:.\Generated_Source\PSoC5/Display1.c ****     {
 599              		.loc 1 685 0
 600              		.cfi_startproc
 601              		@ args = 0, pretend = 0, frame = 0
 602              		@ frame_needed = 0, uses_anonymous_args = 0
 603              		@ link register save eliminated.
 686:.\Generated_Source\PSoC5/Display1.c ****         uint8 size;
 687:.\Generated_Source\PSoC5/Display1.c **** 
 688:.\Generated_Source\PSoC5/Display1.c ****     #if (Display1_RX_INTERRUPT_ENABLED)
 689:.\Generated_Source\PSoC5/Display1.c **** 
 690:.\Generated_Source\PSoC5/Display1.c ****         /* Protect variables that could change on interrupt */
 691:.\Generated_Source\PSoC5/Display1.c ****         Display1_DisableRxInt();
 604              		.loc 1 691 0
 605 0000 0122     		movs	r2, #1
 606 0002 134B     		ldr	r3, .L54
 607 0004 1A60     		str	r2, [r3]
 692:.\Generated_Source\PSoC5/Display1.c **** 
 693:.\Generated_Source\PSoC5/Display1.c ****         if(Display1_rxBufferRead == Display1_rxBufferWrite)
 608              		.loc 1 693 0
 609 0006 134A     		ldr	r2, .L54+4
 610 0008 9378     		ldrb	r3, [r2, #2]	@ zero_extendqisi2
 611 000a D278     		ldrb	r2, [r2, #3]	@ zero_extendqisi2
 612 000c DBB2     		uxtb	r3, r3
ARM GAS  C:\Users\RECEPC~1\AppData\Local\Temp\cclIxQZ0.s 			page 24


 613 000e 9342     		cmp	r3, r2
 614 0010 06D1     		bne	.L50
 694:.\Generated_Source\PSoC5/Display1.c ****         {
 695:.\Generated_Source\PSoC5/Display1.c ****             if(Display1_rxBufferLoopDetect != 0u)
 615              		.loc 1 695 0
 616 0012 104B     		ldr	r3, .L54+4
 617 0014 1B79     		ldrb	r3, [r3, #4]	@ zero_extendqisi2
 618 0016 13F0FF0F 		tst	r3, #255
 619 001a 14D0     		beq	.L53
 696:.\Generated_Source\PSoC5/Display1.c ****             {
 697:.\Generated_Source\PSoC5/Display1.c ****                 size = Display1_RX_BUFFER_SIZE;
 620              		.loc 1 697 0
 621 001c 2020     		movs	r0, #32
 622 001e 13E0     		b	.L51
 623              	.L50:
 698:.\Generated_Source\PSoC5/Display1.c ****             }
 699:.\Generated_Source\PSoC5/Display1.c ****             else
 700:.\Generated_Source\PSoC5/Display1.c ****             {
 701:.\Generated_Source\PSoC5/Display1.c ****                 size = 0u;
 702:.\Generated_Source\PSoC5/Display1.c ****             }
 703:.\Generated_Source\PSoC5/Display1.c ****         }
 704:.\Generated_Source\PSoC5/Display1.c ****         else if(Display1_rxBufferRead < Display1_rxBufferWrite)
 624              		.loc 1 704 0
 625 0020 0C4A     		ldr	r2, .L54+4
 626 0022 9378     		ldrb	r3, [r2, #2]	@ zero_extendqisi2
 627 0024 D278     		ldrb	r2, [r2, #3]	@ zero_extendqisi2
 628 0026 DBB2     		uxtb	r3, r3
 629 0028 9342     		cmp	r3, r2
 630 002a 05D2     		bcs	.L52
 705:.\Generated_Source\PSoC5/Display1.c ****         {
 706:.\Generated_Source\PSoC5/Display1.c ****             size = (Display1_rxBufferWrite - Display1_rxBufferRead);
 631              		.loc 1 706 0
 632 002c 094A     		ldr	r2, .L54+4
 633 002e D378     		ldrb	r3, [r2, #3]	@ zero_extendqisi2
 634 0030 9078     		ldrb	r0, [r2, #2]	@ zero_extendqisi2
 635 0032 181A     		subs	r0, r3, r0
 636 0034 C0B2     		uxtb	r0, r0
 637              	.LVL48:
 638 0036 07E0     		b	.L51
 639              	.LVL49:
 640              	.L52:
 707:.\Generated_Source\PSoC5/Display1.c ****         }
 708:.\Generated_Source\PSoC5/Display1.c ****         else
 709:.\Generated_Source\PSoC5/Display1.c ****         {
 710:.\Generated_Source\PSoC5/Display1.c ****             size = (Display1_RX_BUFFER_SIZE - Display1_rxBufferRead) + Display1_rxBufferWrite;
 641              		.loc 1 710 0
 642 0038 064A     		ldr	r2, .L54+4
 643 003a D378     		ldrb	r3, [r2, #3]	@ zero_extendqisi2
 644 003c 9078     		ldrb	r0, [r2, #2]	@ zero_extendqisi2
 645 003e 181A     		subs	r0, r3, r0
 646 0040 2030     		adds	r0, r0, #32
 647 0042 C0B2     		uxtb	r0, r0
 648              	.LVL50:
 649 0044 00E0     		b	.L51
 650              	.LVL51:
 651              	.L53:
 701:.\Generated_Source\PSoC5/Display1.c ****             }
ARM GAS  C:\Users\RECEPC~1\AppData\Local\Temp\cclIxQZ0.s 			page 25


 652              		.loc 1 701 0
 653 0046 0020     		movs	r0, #0
 654              	.L51:
 655              	.LVL52:
 711:.\Generated_Source\PSoC5/Display1.c ****         }
 712:.\Generated_Source\PSoC5/Display1.c **** 
 713:.\Generated_Source\PSoC5/Display1.c ****         Display1_EnableRxInt();
 656              		.loc 1 713 0
 657 0048 0122     		movs	r2, #1
 658 004a 034B     		ldr	r3, .L54+8
 659 004c 1A60     		str	r2, [r3]
 714:.\Generated_Source\PSoC5/Display1.c **** 
 715:.\Generated_Source\PSoC5/Display1.c ****     #else
 716:.\Generated_Source\PSoC5/Display1.c **** 
 717:.\Generated_Source\PSoC5/Display1.c ****         /* We can only know if there is data in the fifo. */
 718:.\Generated_Source\PSoC5/Display1.c ****         size = ((Display1_RXSTATUS_REG & Display1_RX_STS_FIFO_NOTEMPTY) != 0u) ? 1u : 0u;
 719:.\Generated_Source\PSoC5/Display1.c **** 
 720:.\Generated_Source\PSoC5/Display1.c ****     #endif /* (Display1_RX_INTERRUPT_ENABLED) */
 721:.\Generated_Source\PSoC5/Display1.c **** 
 722:.\Generated_Source\PSoC5/Display1.c ****         return(size);
 723:.\Generated_Source\PSoC5/Display1.c ****     }
 660              		.loc 1 723 0
 661 004e 7047     		bx	lr
 662              	.L55:
 663              		.align	2
 664              	.L54:
 665 0050 80E100E0 		.word	-536813184
 666 0054 00000000 		.word	.LANCHOR0
 667 0058 00E100E0 		.word	-536813312
 668              		.cfi_endproc
 669              	.LFE11:
 670              		.size	Display1_GetRxBufferSize, .-Display1_GetRxBufferSize
 671              		.section	.text.Display1_ClearRxBuffer,"ax",%progbits
 672              		.align	2
 673              		.global	Display1_ClearRxBuffer
 674              		.thumb
 675              		.thumb_func
 676              		.type	Display1_ClearRxBuffer, %function
 677              	Display1_ClearRxBuffer:
 678              	.LFB12:
 724:.\Generated_Source\PSoC5/Display1.c **** 
 725:.\Generated_Source\PSoC5/Display1.c **** 
 726:.\Generated_Source\PSoC5/Display1.c ****     /*******************************************************************************
 727:.\Generated_Source\PSoC5/Display1.c ****     * Function Name: Display1_ClearRxBuffer
 728:.\Generated_Source\PSoC5/Display1.c ****     ********************************************************************************
 729:.\Generated_Source\PSoC5/Display1.c ****     *
 730:.\Generated_Source\PSoC5/Display1.c ****     * Summary:
 731:.\Generated_Source\PSoC5/Display1.c ****     *  Clears the receiver memory buffer and hardware RX FIFO of all received data.
 732:.\Generated_Source\PSoC5/Display1.c ****     *
 733:.\Generated_Source\PSoC5/Display1.c ****     * Parameters:
 734:.\Generated_Source\PSoC5/Display1.c ****     *  None.
 735:.\Generated_Source\PSoC5/Display1.c ****     *
 736:.\Generated_Source\PSoC5/Display1.c ****     * Return:
 737:.\Generated_Source\PSoC5/Display1.c ****     *  None.
 738:.\Generated_Source\PSoC5/Display1.c ****     *
 739:.\Generated_Source\PSoC5/Display1.c ****     * Global Variables:
 740:.\Generated_Source\PSoC5/Display1.c ****     *  Display1_rxBufferWrite - cleared to zero.
ARM GAS  C:\Users\RECEPC~1\AppData\Local\Temp\cclIxQZ0.s 			page 26


 741:.\Generated_Source\PSoC5/Display1.c ****     *  Display1_rxBufferRead - cleared to zero.
 742:.\Generated_Source\PSoC5/Display1.c ****     *  Display1_rxBufferLoopDetect - cleared to zero.
 743:.\Generated_Source\PSoC5/Display1.c ****     *  Display1_rxBufferOverflow - cleared to zero.
 744:.\Generated_Source\PSoC5/Display1.c ****     *
 745:.\Generated_Source\PSoC5/Display1.c ****     * Reentrant:
 746:.\Generated_Source\PSoC5/Display1.c ****     *  No.
 747:.\Generated_Source\PSoC5/Display1.c ****     *
 748:.\Generated_Source\PSoC5/Display1.c ****     * Theory:
 749:.\Generated_Source\PSoC5/Display1.c ****     *  Setting the pointers to zero makes the system believe there is no data to
 750:.\Generated_Source\PSoC5/Display1.c ****     *  read and writing will resume at address 0 overwriting any data that may
 751:.\Generated_Source\PSoC5/Display1.c ****     *  have remained in the RAM.
 752:.\Generated_Source\PSoC5/Display1.c ****     *
 753:.\Generated_Source\PSoC5/Display1.c ****     * Side Effects:
 754:.\Generated_Source\PSoC5/Display1.c ****     *  Any received data not read from the RAM or FIFO buffer will be lost.
 755:.\Generated_Source\PSoC5/Display1.c ****     *
 756:.\Generated_Source\PSoC5/Display1.c ****     *******************************************************************************/
 757:.\Generated_Source\PSoC5/Display1.c ****     void Display1_ClearRxBuffer(void) 
 758:.\Generated_Source\PSoC5/Display1.c ****     {
 679              		.loc 1 758 0
 680              		.cfi_startproc
 681              		@ args = 0, pretend = 0, frame = 0
 682              		@ frame_needed = 0, uses_anonymous_args = 0
 683 0000 08B5     		push	{r3, lr}
 684              		.cfi_def_cfa_offset 8
 685              		.cfi_offset 3, -8
 686              		.cfi_offset 14, -4
 759:.\Generated_Source\PSoC5/Display1.c ****         uint8 enableInterrupts;
 760:.\Generated_Source\PSoC5/Display1.c **** 
 761:.\Generated_Source\PSoC5/Display1.c ****         /* Clear the HW FIFO */
 762:.\Generated_Source\PSoC5/Display1.c ****         enableInterrupts = CyEnterCriticalSection();
 687              		.loc 1 762 0
 688 0002 FFF7FEFF 		bl	CyEnterCriticalSection
 689              	.LVL53:
 763:.\Generated_Source\PSoC5/Display1.c ****         Display1_RXDATA_AUX_CTL_REG |= (uint8)  Display1_RX_FIFO_CLR;
 690              		.loc 1 763 0
 691 0006 0B4B     		ldr	r3, .L58
 692 0008 1A78     		ldrb	r2, [r3]	@ zero_extendqisi2
 693 000a 42F00102 		orr	r2, r2, #1
 694 000e 1A70     		strb	r2, [r3]
 764:.\Generated_Source\PSoC5/Display1.c ****         Display1_RXDATA_AUX_CTL_REG &= (uint8) ~Display1_RX_FIFO_CLR;
 695              		.loc 1 764 0
 696 0010 1A78     		ldrb	r2, [r3]	@ zero_extendqisi2
 697 0012 02F0FE02 		and	r2, r2, #254
 698 0016 1A70     		strb	r2, [r3]
 765:.\Generated_Source\PSoC5/Display1.c ****         CyExitCriticalSection(enableInterrupts);
 699              		.loc 1 765 0
 700 0018 FFF7FEFF 		bl	CyExitCriticalSection
 701              	.LVL54:
 766:.\Generated_Source\PSoC5/Display1.c **** 
 767:.\Generated_Source\PSoC5/Display1.c ****     #if (Display1_RX_INTERRUPT_ENABLED)
 768:.\Generated_Source\PSoC5/Display1.c **** 
 769:.\Generated_Source\PSoC5/Display1.c ****         /* Protect variables that could change on interrupt. */
 770:.\Generated_Source\PSoC5/Display1.c ****         Display1_DisableRxInt();
 702              		.loc 1 770 0
 703 001c 0121     		movs	r1, #1
 704 001e 064B     		ldr	r3, .L58+4
 705 0020 1960     		str	r1, [r3]
ARM GAS  C:\Users\RECEPC~1\AppData\Local\Temp\cclIxQZ0.s 			page 27


 771:.\Generated_Source\PSoC5/Display1.c **** 
 772:.\Generated_Source\PSoC5/Display1.c ****         Display1_rxBufferRead = 0u;
 706              		.loc 1 772 0
 707 0022 064B     		ldr	r3, .L58+8
 708 0024 0022     		movs	r2, #0
 709 0026 9A70     		strb	r2, [r3, #2]
 773:.\Generated_Source\PSoC5/Display1.c ****         Display1_rxBufferWrite = 0u;
 710              		.loc 1 773 0
 711 0028 DA70     		strb	r2, [r3, #3]
 774:.\Generated_Source\PSoC5/Display1.c ****         Display1_rxBufferLoopDetect = 0u;
 712              		.loc 1 774 0
 713 002a 1A71     		strb	r2, [r3, #4]
 775:.\Generated_Source\PSoC5/Display1.c ****         Display1_rxBufferOverflow = 0u;
 714              		.loc 1 775 0
 715 002c 5A71     		strb	r2, [r3, #5]
 776:.\Generated_Source\PSoC5/Display1.c **** 
 777:.\Generated_Source\PSoC5/Display1.c ****         Display1_EnableRxInt();
 716              		.loc 1 777 0
 717 002e 044B     		ldr	r3, .L58+12
 718 0030 1960     		str	r1, [r3]
 719 0032 08BD     		pop	{r3, pc}
 720              	.L59:
 721              		.align	2
 722              	.L58:
 723 0034 96650040 		.word	1073767830
 724 0038 80E100E0 		.word	-536813184
 725 003c 00000000 		.word	.LANCHOR0
 726 0040 00E100E0 		.word	-536813312
 727              		.cfi_endproc
 728              	.LFE12:
 729              		.size	Display1_ClearRxBuffer, .-Display1_ClearRxBuffer
 730              		.section	.text.Display1_SetRxAddressMode,"ax",%progbits
 731              		.align	2
 732              		.global	Display1_SetRxAddressMode
 733              		.thumb
 734              		.thumb_func
 735              		.type	Display1_SetRxAddressMode, %function
 736              	Display1_SetRxAddressMode:
 737              	.LFB13:
 778:.\Generated_Source\PSoC5/Display1.c **** 
 779:.\Generated_Source\PSoC5/Display1.c ****     #endif /* (Display1_RX_INTERRUPT_ENABLED) */
 780:.\Generated_Source\PSoC5/Display1.c **** 
 781:.\Generated_Source\PSoC5/Display1.c ****     }
 782:.\Generated_Source\PSoC5/Display1.c **** 
 783:.\Generated_Source\PSoC5/Display1.c **** 
 784:.\Generated_Source\PSoC5/Display1.c ****     /*******************************************************************************
 785:.\Generated_Source\PSoC5/Display1.c ****     * Function Name: Display1_SetRxAddressMode
 786:.\Generated_Source\PSoC5/Display1.c ****     ********************************************************************************
 787:.\Generated_Source\PSoC5/Display1.c ****     *
 788:.\Generated_Source\PSoC5/Display1.c ****     * Summary:
 789:.\Generated_Source\PSoC5/Display1.c ****     *  Sets the software controlled Addressing mode used by the RX portion of the
 790:.\Generated_Source\PSoC5/Display1.c ****     *  UART.
 791:.\Generated_Source\PSoC5/Display1.c ****     *
 792:.\Generated_Source\PSoC5/Display1.c ****     * Parameters:
 793:.\Generated_Source\PSoC5/Display1.c ****     *  addressMode: Enumerated value indicating the mode of RX addressing
 794:.\Generated_Source\PSoC5/Display1.c ****     *  Display1__B_UART__AM_SW_BYTE_BYTE -  Software Byte-by-Byte address
 795:.\Generated_Source\PSoC5/Display1.c ****     *                                               detection
ARM GAS  C:\Users\RECEPC~1\AppData\Local\Temp\cclIxQZ0.s 			page 28


 796:.\Generated_Source\PSoC5/Display1.c ****     *  Display1__B_UART__AM_SW_DETECT_TO_BUFFER - Software Detect to Buffer
 797:.\Generated_Source\PSoC5/Display1.c ****     *                                               address detection
 798:.\Generated_Source\PSoC5/Display1.c ****     *  Display1__B_UART__AM_HW_BYTE_BY_BYTE - Hardware Byte-by-Byte address
 799:.\Generated_Source\PSoC5/Display1.c ****     *                                               detection
 800:.\Generated_Source\PSoC5/Display1.c ****     *  Display1__B_UART__AM_HW_DETECT_TO_BUFFER - Hardware Detect to Buffer
 801:.\Generated_Source\PSoC5/Display1.c ****     *                                               address detection
 802:.\Generated_Source\PSoC5/Display1.c ****     *  Display1__B_UART__AM_NONE - No address detection
 803:.\Generated_Source\PSoC5/Display1.c ****     *
 804:.\Generated_Source\PSoC5/Display1.c ****     * Return:
 805:.\Generated_Source\PSoC5/Display1.c ****     *  None.
 806:.\Generated_Source\PSoC5/Display1.c ****     *
 807:.\Generated_Source\PSoC5/Display1.c ****     * Global Variables:
 808:.\Generated_Source\PSoC5/Display1.c ****     *  Display1_rxAddressMode - the parameter stored in this variable for
 809:.\Generated_Source\PSoC5/Display1.c ****     *   the farther usage in RX ISR.
 810:.\Generated_Source\PSoC5/Display1.c ****     *  Display1_rxAddressDetected - set to initial state (0).
 811:.\Generated_Source\PSoC5/Display1.c ****     *
 812:.\Generated_Source\PSoC5/Display1.c ****     *******************************************************************************/
 813:.\Generated_Source\PSoC5/Display1.c ****     void Display1_SetRxAddressMode(uint8 addressMode)
 814:.\Generated_Source\PSoC5/Display1.c ****                                                         
 815:.\Generated_Source\PSoC5/Display1.c ****     {
 738              		.loc 1 815 0
 739              		.cfi_startproc
 740              		@ args = 0, pretend = 0, frame = 0
 741              		@ frame_needed = 0, uses_anonymous_args = 0
 742              		@ link register save eliminated.
 743              	.LVL55:
 744 0000 7047     		bx	lr
 745              		.cfi_endproc
 746              	.LFE13:
 747              		.size	Display1_SetRxAddressMode, .-Display1_SetRxAddressMode
 748 0002 00BF     		.section	.text.Display1_SetRxAddress1,"ax",%progbits
 749              		.align	2
 750              		.global	Display1_SetRxAddress1
 751              		.thumb
 752              		.thumb_func
 753              		.type	Display1_SetRxAddress1, %function
 754              	Display1_SetRxAddress1:
 755              	.LFB14:
 816:.\Generated_Source\PSoC5/Display1.c ****         #if(Display1_RXHW_ADDRESS_ENABLED)
 817:.\Generated_Source\PSoC5/Display1.c ****             #if(Display1_CONTROL_REG_REMOVED)
 818:.\Generated_Source\PSoC5/Display1.c ****                 if(0u != addressMode)
 819:.\Generated_Source\PSoC5/Display1.c ****                 {
 820:.\Generated_Source\PSoC5/Display1.c ****                     /* Suppress compiler warning */
 821:.\Generated_Source\PSoC5/Display1.c ****                 }
 822:.\Generated_Source\PSoC5/Display1.c ****             #else /* Display1_CONTROL_REG_REMOVED */
 823:.\Generated_Source\PSoC5/Display1.c ****                 uint8 tmpCtrl;
 824:.\Generated_Source\PSoC5/Display1.c ****                 tmpCtrl = Display1_CONTROL_REG & (uint8)~Display1_CTRL_RXADDR_MODE_MASK;
 825:.\Generated_Source\PSoC5/Display1.c ****                 tmpCtrl |= (uint8)(addressMode << Display1_CTRL_RXADDR_MODE0_SHIFT);
 826:.\Generated_Source\PSoC5/Display1.c ****                 Display1_CONTROL_REG = tmpCtrl;
 827:.\Generated_Source\PSoC5/Display1.c **** 
 828:.\Generated_Source\PSoC5/Display1.c ****                 #if(Display1_RX_INTERRUPT_ENABLED && \
 829:.\Generated_Source\PSoC5/Display1.c ****                    (Display1_RXBUFFERSIZE > Display1_FIFO_LENGTH) )
 830:.\Generated_Source\PSoC5/Display1.c ****                     Display1_rxAddressMode = addressMode;
 831:.\Generated_Source\PSoC5/Display1.c ****                     Display1_rxAddressDetected = 0u;
 832:.\Generated_Source\PSoC5/Display1.c ****                 #endif /* End Display1_RXBUFFERSIZE > Display1_FIFO_LENGTH*/
 833:.\Generated_Source\PSoC5/Display1.c ****             #endif /* End Display1_CONTROL_REG_REMOVED */
 834:.\Generated_Source\PSoC5/Display1.c ****         #else /* Display1_RXHW_ADDRESS_ENABLED */
ARM GAS  C:\Users\RECEPC~1\AppData\Local\Temp\cclIxQZ0.s 			page 29


 835:.\Generated_Source\PSoC5/Display1.c ****             if(0u != addressMode)
 836:.\Generated_Source\PSoC5/Display1.c ****             {
 837:.\Generated_Source\PSoC5/Display1.c ****                 /* Suppress compiler warning */
 838:.\Generated_Source\PSoC5/Display1.c ****             }
 839:.\Generated_Source\PSoC5/Display1.c ****         #endif /* End Display1_RXHW_ADDRESS_ENABLED */
 840:.\Generated_Source\PSoC5/Display1.c ****     }
 841:.\Generated_Source\PSoC5/Display1.c **** 
 842:.\Generated_Source\PSoC5/Display1.c **** 
 843:.\Generated_Source\PSoC5/Display1.c ****     /*******************************************************************************
 844:.\Generated_Source\PSoC5/Display1.c ****     * Function Name: Display1_SetRxAddress1
 845:.\Generated_Source\PSoC5/Display1.c ****     ********************************************************************************
 846:.\Generated_Source\PSoC5/Display1.c ****     *
 847:.\Generated_Source\PSoC5/Display1.c ****     * Summary:
 848:.\Generated_Source\PSoC5/Display1.c ****     *  Sets the first of two hardware-detectable receiver addresses.
 849:.\Generated_Source\PSoC5/Display1.c ****     *
 850:.\Generated_Source\PSoC5/Display1.c ****     * Parameters:
 851:.\Generated_Source\PSoC5/Display1.c ****     *  address: Address #1 for hardware address detection.
 852:.\Generated_Source\PSoC5/Display1.c ****     *
 853:.\Generated_Source\PSoC5/Display1.c ****     * Return:
 854:.\Generated_Source\PSoC5/Display1.c ****     *  None.
 855:.\Generated_Source\PSoC5/Display1.c ****     *
 856:.\Generated_Source\PSoC5/Display1.c ****     *******************************************************************************/
 857:.\Generated_Source\PSoC5/Display1.c ****     void Display1_SetRxAddress1(uint8 address) 
 858:.\Generated_Source\PSoC5/Display1.c ****     {
 756              		.loc 1 858 0
 757              		.cfi_startproc
 758              		@ args = 0, pretend = 0, frame = 0
 759              		@ frame_needed = 0, uses_anonymous_args = 0
 760              		@ link register save eliminated.
 761              	.LVL56:
 859:.\Generated_Source\PSoC5/Display1.c ****         Display1_RXADDRESS1_REG = address;
 762              		.loc 1 859 0
 763 0000 014B     		ldr	r3, .L62
 764 0002 1870     		strb	r0, [r3]
 765 0004 7047     		bx	lr
 766              	.L63:
 767 0006 00BF     		.align	2
 768              	.L62:
 769 0008 26650040 		.word	1073767718
 770              		.cfi_endproc
 771              	.LFE14:
 772              		.size	Display1_SetRxAddress1, .-Display1_SetRxAddress1
 773              		.section	.text.Display1_SetRxAddress2,"ax",%progbits
 774              		.align	2
 775              		.global	Display1_SetRxAddress2
 776              		.thumb
 777              		.thumb_func
 778              		.type	Display1_SetRxAddress2, %function
 779              	Display1_SetRxAddress2:
 780              	.LFB15:
 860:.\Generated_Source\PSoC5/Display1.c ****     }
 861:.\Generated_Source\PSoC5/Display1.c **** 
 862:.\Generated_Source\PSoC5/Display1.c **** 
 863:.\Generated_Source\PSoC5/Display1.c ****     /*******************************************************************************
 864:.\Generated_Source\PSoC5/Display1.c ****     * Function Name: Display1_SetRxAddress2
 865:.\Generated_Source\PSoC5/Display1.c ****     ********************************************************************************
 866:.\Generated_Source\PSoC5/Display1.c ****     *
ARM GAS  C:\Users\RECEPC~1\AppData\Local\Temp\cclIxQZ0.s 			page 30


 867:.\Generated_Source\PSoC5/Display1.c ****     * Summary:
 868:.\Generated_Source\PSoC5/Display1.c ****     *  Sets the second of two hardware-detectable receiver addresses.
 869:.\Generated_Source\PSoC5/Display1.c ****     *
 870:.\Generated_Source\PSoC5/Display1.c ****     * Parameters:
 871:.\Generated_Source\PSoC5/Display1.c ****     *  address: Address #2 for hardware address detection.
 872:.\Generated_Source\PSoC5/Display1.c ****     *
 873:.\Generated_Source\PSoC5/Display1.c ****     * Return:
 874:.\Generated_Source\PSoC5/Display1.c ****     *  None.
 875:.\Generated_Source\PSoC5/Display1.c ****     *
 876:.\Generated_Source\PSoC5/Display1.c ****     *******************************************************************************/
 877:.\Generated_Source\PSoC5/Display1.c ****     void Display1_SetRxAddress2(uint8 address) 
 878:.\Generated_Source\PSoC5/Display1.c ****     {
 781              		.loc 1 878 0
 782              		.cfi_startproc
 783              		@ args = 0, pretend = 0, frame = 0
 784              		@ frame_needed = 0, uses_anonymous_args = 0
 785              		@ link register save eliminated.
 786              	.LVL57:
 879:.\Generated_Source\PSoC5/Display1.c ****         Display1_RXADDRESS2_REG = address;
 787              		.loc 1 879 0
 788 0000 014B     		ldr	r3, .L65
 789 0002 1870     		strb	r0, [r3]
 790 0004 7047     		bx	lr
 791              	.L66:
 792 0006 00BF     		.align	2
 793              	.L65:
 794 0008 36650040 		.word	1073767734
 795              		.cfi_endproc
 796              	.LFE15:
 797              		.size	Display1_SetRxAddress2, .-Display1_SetRxAddress2
 798              		.section	.text.Display1_SetTxInterruptMode,"ax",%progbits
 799              		.align	2
 800              		.global	Display1_SetTxInterruptMode
 801              		.thumb
 802              		.thumb_func
 803              		.type	Display1_SetTxInterruptMode, %function
 804              	Display1_SetTxInterruptMode:
 805              	.LFB16:
 880:.\Generated_Source\PSoC5/Display1.c ****     }
 881:.\Generated_Source\PSoC5/Display1.c **** 
 882:.\Generated_Source\PSoC5/Display1.c **** #endif  /* Display1_RX_ENABLED || Display1_HD_ENABLED*/
 883:.\Generated_Source\PSoC5/Display1.c **** 
 884:.\Generated_Source\PSoC5/Display1.c **** 
 885:.\Generated_Source\PSoC5/Display1.c **** #if( (Display1_TX_ENABLED) || (Display1_HD_ENABLED) )
 886:.\Generated_Source\PSoC5/Display1.c ****     /*******************************************************************************
 887:.\Generated_Source\PSoC5/Display1.c ****     * Function Name: Display1_SetTxInterruptMode
 888:.\Generated_Source\PSoC5/Display1.c ****     ********************************************************************************
 889:.\Generated_Source\PSoC5/Display1.c ****     *
 890:.\Generated_Source\PSoC5/Display1.c ****     * Summary:
 891:.\Generated_Source\PSoC5/Display1.c ****     *  Configures the TX interrupt sources to be enabled, but does not enable the
 892:.\Generated_Source\PSoC5/Display1.c ****     *  interrupt.
 893:.\Generated_Source\PSoC5/Display1.c ****     *
 894:.\Generated_Source\PSoC5/Display1.c ****     * Parameters:
 895:.\Generated_Source\PSoC5/Display1.c ****     *  intSrc: Bit field containing the TX interrupt sources to enable
 896:.\Generated_Source\PSoC5/Display1.c ****     *   Display1_TX_STS_COMPLETE        Interrupt on TX byte complete
 897:.\Generated_Source\PSoC5/Display1.c ****     *   Display1_TX_STS_FIFO_EMPTY      Interrupt when TX FIFO is empty
 898:.\Generated_Source\PSoC5/Display1.c ****     *   Display1_TX_STS_FIFO_FULL       Interrupt when TX FIFO is full
ARM GAS  C:\Users\RECEPC~1\AppData\Local\Temp\cclIxQZ0.s 			page 31


 899:.\Generated_Source\PSoC5/Display1.c ****     *   Display1_TX_STS_FIFO_NOT_FULL   Interrupt when TX FIFO is not full
 900:.\Generated_Source\PSoC5/Display1.c ****     *
 901:.\Generated_Source\PSoC5/Display1.c ****     * Return:
 902:.\Generated_Source\PSoC5/Display1.c ****     *  None.
 903:.\Generated_Source\PSoC5/Display1.c ****     *
 904:.\Generated_Source\PSoC5/Display1.c ****     * Theory:
 905:.\Generated_Source\PSoC5/Display1.c ****     *  Enables the output of specific status bits to the interrupt controller
 906:.\Generated_Source\PSoC5/Display1.c ****     *
 907:.\Generated_Source\PSoC5/Display1.c ****     *******************************************************************************/
 908:.\Generated_Source\PSoC5/Display1.c ****     void Display1_SetTxInterruptMode(uint8 intSrc) 
 909:.\Generated_Source\PSoC5/Display1.c ****     {
 806              		.loc 1 909 0
 807              		.cfi_startproc
 808              		@ args = 0, pretend = 0, frame = 0
 809              		@ frame_needed = 0, uses_anonymous_args = 0
 810              		@ link register save eliminated.
 811              	.LVL58:
 910:.\Generated_Source\PSoC5/Display1.c ****         Display1_TXSTATUS_MASK_REG = intSrc;
 812              		.loc 1 910 0
 813 0000 014B     		ldr	r3, .L68
 814 0002 1870     		strb	r0, [r3]
 815 0004 7047     		bx	lr
 816              	.L69:
 817 0006 00BF     		.align	2
 818              	.L68:
 819 0008 88640040 		.word	1073767560
 820              		.cfi_endproc
 821              	.LFE16:
 822              		.size	Display1_SetTxInterruptMode, .-Display1_SetTxInterruptMode
 823              		.section	.text.Display1_WriteTxData,"ax",%progbits
 824              		.align	2
 825              		.global	Display1_WriteTxData
 826              		.thumb
 827              		.thumb_func
 828              		.type	Display1_WriteTxData, %function
 829              	Display1_WriteTxData:
 830              	.LFB17:
 911:.\Generated_Source\PSoC5/Display1.c ****     }
 912:.\Generated_Source\PSoC5/Display1.c **** 
 913:.\Generated_Source\PSoC5/Display1.c **** 
 914:.\Generated_Source\PSoC5/Display1.c ****     /*******************************************************************************
 915:.\Generated_Source\PSoC5/Display1.c ****     * Function Name: Display1_WriteTxData
 916:.\Generated_Source\PSoC5/Display1.c ****     ********************************************************************************
 917:.\Generated_Source\PSoC5/Display1.c ****     *
 918:.\Generated_Source\PSoC5/Display1.c ****     * Summary:
 919:.\Generated_Source\PSoC5/Display1.c ****     *  Places a byte of data into the transmit buffer to be sent when the bus is
 920:.\Generated_Source\PSoC5/Display1.c ****     *  available without checking the TX status register. You must check status
 921:.\Generated_Source\PSoC5/Display1.c ****     *  separately.
 922:.\Generated_Source\PSoC5/Display1.c ****     *
 923:.\Generated_Source\PSoC5/Display1.c ****     * Parameters:
 924:.\Generated_Source\PSoC5/Display1.c ****     *  txDataByte: data byte
 925:.\Generated_Source\PSoC5/Display1.c ****     *
 926:.\Generated_Source\PSoC5/Display1.c ****     * Return:
 927:.\Generated_Source\PSoC5/Display1.c ****     * None.
 928:.\Generated_Source\PSoC5/Display1.c ****     *
 929:.\Generated_Source\PSoC5/Display1.c ****     * Global Variables:
 930:.\Generated_Source\PSoC5/Display1.c ****     *  Display1_txBuffer - RAM buffer pointer for save data for transmission
ARM GAS  C:\Users\RECEPC~1\AppData\Local\Temp\cclIxQZ0.s 			page 32


 931:.\Generated_Source\PSoC5/Display1.c ****     *  Display1_txBufferWrite - cyclic index for write to txBuffer,
 932:.\Generated_Source\PSoC5/Display1.c ****     *    incremented after each byte saved to buffer.
 933:.\Generated_Source\PSoC5/Display1.c ****     *  Display1_txBufferRead - cyclic index for read from txBuffer,
 934:.\Generated_Source\PSoC5/Display1.c ****     *    checked to identify the condition to write to FIFO directly or to TX buffer
 935:.\Generated_Source\PSoC5/Display1.c ****     *  Display1_initVar - checked to identify that the component has been
 936:.\Generated_Source\PSoC5/Display1.c ****     *    initialized.
 937:.\Generated_Source\PSoC5/Display1.c ****     *
 938:.\Generated_Source\PSoC5/Display1.c ****     * Reentrant:
 939:.\Generated_Source\PSoC5/Display1.c ****     *  No.
 940:.\Generated_Source\PSoC5/Display1.c ****     *
 941:.\Generated_Source\PSoC5/Display1.c ****     *******************************************************************************/
 942:.\Generated_Source\PSoC5/Display1.c ****     void Display1_WriteTxData(uint8 txDataByte) 
 943:.\Generated_Source\PSoC5/Display1.c ****     {
 831              		.loc 1 943 0
 832              		.cfi_startproc
 833              		@ args = 0, pretend = 0, frame = 0
 834              		@ frame_needed = 0, uses_anonymous_args = 0
 835              		@ link register save eliminated.
 836              	.LVL59:
 944:.\Generated_Source\PSoC5/Display1.c ****         /* If not Initialized then skip this function*/
 945:.\Generated_Source\PSoC5/Display1.c ****         if(Display1_initVar != 0u)
 837              		.loc 1 945 0
 838 0000 024B     		ldr	r3, .L72
 839 0002 5B78     		ldrb	r3, [r3, #1]	@ zero_extendqisi2
 840 0004 0BB1     		cbz	r3, .L70
 946:.\Generated_Source\PSoC5/Display1.c ****         {
 947:.\Generated_Source\PSoC5/Display1.c ****         #if (Display1_TX_INTERRUPT_ENABLED)
 948:.\Generated_Source\PSoC5/Display1.c **** 
 949:.\Generated_Source\PSoC5/Display1.c ****             /* Protect variables that could change on interrupt. */
 950:.\Generated_Source\PSoC5/Display1.c ****             Display1_DisableTxInt();
 951:.\Generated_Source\PSoC5/Display1.c **** 
 952:.\Generated_Source\PSoC5/Display1.c ****             if( (Display1_txBufferRead == Display1_txBufferWrite) &&
 953:.\Generated_Source\PSoC5/Display1.c ****                 ((Display1_TXSTATUS_REG & Display1_TX_STS_FIFO_FULL) == 0u) )
 954:.\Generated_Source\PSoC5/Display1.c ****             {
 955:.\Generated_Source\PSoC5/Display1.c ****                 /* Add directly to the FIFO. */
 956:.\Generated_Source\PSoC5/Display1.c ****                 Display1_TXDATA_REG = txDataByte;
 957:.\Generated_Source\PSoC5/Display1.c ****             }
 958:.\Generated_Source\PSoC5/Display1.c ****             else
 959:.\Generated_Source\PSoC5/Display1.c ****             {
 960:.\Generated_Source\PSoC5/Display1.c ****                 if(Display1_txBufferWrite >= Display1_TX_BUFFER_SIZE)
 961:.\Generated_Source\PSoC5/Display1.c ****                 {
 962:.\Generated_Source\PSoC5/Display1.c ****                     Display1_txBufferWrite = 0u;
 963:.\Generated_Source\PSoC5/Display1.c ****                 }
 964:.\Generated_Source\PSoC5/Display1.c **** 
 965:.\Generated_Source\PSoC5/Display1.c ****                 Display1_txBuffer[Display1_txBufferWrite] = txDataByte;
 966:.\Generated_Source\PSoC5/Display1.c **** 
 967:.\Generated_Source\PSoC5/Display1.c ****                 /* Add to the software buffer. */
 968:.\Generated_Source\PSoC5/Display1.c ****                 Display1_txBufferWrite++;
 969:.\Generated_Source\PSoC5/Display1.c ****             }
 970:.\Generated_Source\PSoC5/Display1.c **** 
 971:.\Generated_Source\PSoC5/Display1.c ****             Display1_EnableTxInt();
 972:.\Generated_Source\PSoC5/Display1.c **** 
 973:.\Generated_Source\PSoC5/Display1.c ****         #else
 974:.\Generated_Source\PSoC5/Display1.c **** 
 975:.\Generated_Source\PSoC5/Display1.c ****             /* Add directly to the FIFO. */
 976:.\Generated_Source\PSoC5/Display1.c ****             Display1_TXDATA_REG = txDataByte;
 841              		.loc 1 976 0
ARM GAS  C:\Users\RECEPC~1\AppData\Local\Temp\cclIxQZ0.s 			page 33


 842 0006 024B     		ldr	r3, .L72+4
 843 0008 1870     		strb	r0, [r3]
 844              	.L70:
 845 000a 7047     		bx	lr
 846              	.L73:
 847              		.align	2
 848              	.L72:
 849 000c 00000000 		.word	.LANCHOR0
 850 0010 47640040 		.word	1073767495
 851              		.cfi_endproc
 852              	.LFE17:
 853              		.size	Display1_WriteTxData, .-Display1_WriteTxData
 854              		.section	.text.Display1_ReadTxStatus,"ax",%progbits
 855              		.align	2
 856              		.global	Display1_ReadTxStatus
 857              		.thumb
 858              		.thumb_func
 859              		.type	Display1_ReadTxStatus, %function
 860              	Display1_ReadTxStatus:
 861              	.LFB18:
 977:.\Generated_Source\PSoC5/Display1.c **** 
 978:.\Generated_Source\PSoC5/Display1.c ****         #endif /*(Display1_TX_INTERRUPT_ENABLED) */
 979:.\Generated_Source\PSoC5/Display1.c ****         }
 980:.\Generated_Source\PSoC5/Display1.c ****     }
 981:.\Generated_Source\PSoC5/Display1.c **** 
 982:.\Generated_Source\PSoC5/Display1.c **** 
 983:.\Generated_Source\PSoC5/Display1.c ****     /*******************************************************************************
 984:.\Generated_Source\PSoC5/Display1.c ****     * Function Name: Display1_ReadTxStatus
 985:.\Generated_Source\PSoC5/Display1.c ****     ********************************************************************************
 986:.\Generated_Source\PSoC5/Display1.c ****     *
 987:.\Generated_Source\PSoC5/Display1.c ****     * Summary:
 988:.\Generated_Source\PSoC5/Display1.c ****     *  Reads the status register for the TX portion of the UART.
 989:.\Generated_Source\PSoC5/Display1.c ****     *
 990:.\Generated_Source\PSoC5/Display1.c ****     * Parameters:
 991:.\Generated_Source\PSoC5/Display1.c ****     *  None.
 992:.\Generated_Source\PSoC5/Display1.c ****     *
 993:.\Generated_Source\PSoC5/Display1.c ****     * Return:
 994:.\Generated_Source\PSoC5/Display1.c ****     *  Contents of the status register
 995:.\Generated_Source\PSoC5/Display1.c ****     *
 996:.\Generated_Source\PSoC5/Display1.c ****     * Theory:
 997:.\Generated_Source\PSoC5/Display1.c ****     *  This function reads the TX status register, which is cleared on read.
 998:.\Generated_Source\PSoC5/Display1.c ****     *  It is up to the user to handle all bits in this return value accordingly,
 999:.\Generated_Source\PSoC5/Display1.c ****     *  even if the bit was not enabled as an interrupt source the event happened
1000:.\Generated_Source\PSoC5/Display1.c ****     *  and must be handled accordingly.
1001:.\Generated_Source\PSoC5/Display1.c ****     *
1002:.\Generated_Source\PSoC5/Display1.c ****     *******************************************************************************/
1003:.\Generated_Source\PSoC5/Display1.c ****     uint8 Display1_ReadTxStatus(void) 
1004:.\Generated_Source\PSoC5/Display1.c ****     {
 862              		.loc 1 1004 0
 863              		.cfi_startproc
 864              		@ args = 0, pretend = 0, frame = 0
 865              		@ frame_needed = 0, uses_anonymous_args = 0
 866              		@ link register save eliminated.
1005:.\Generated_Source\PSoC5/Display1.c ****         return(Display1_TXSTATUS_REG);
 867              		.loc 1 1005 0
 868 0000 014B     		ldr	r3, .L75
 869 0002 1878     		ldrb	r0, [r3]	@ zero_extendqisi2
ARM GAS  C:\Users\RECEPC~1\AppData\Local\Temp\cclIxQZ0.s 			page 34


1006:.\Generated_Source\PSoC5/Display1.c ****     }
 870              		.loc 1 1006 0
 871 0004 7047     		bx	lr
 872              	.L76:
 873 0006 00BF     		.align	2
 874              	.L75:
 875 0008 68640040 		.word	1073767528
 876              		.cfi_endproc
 877              	.LFE18:
 878              		.size	Display1_ReadTxStatus, .-Display1_ReadTxStatus
 879              		.section	.text.Display1_PutChar,"ax",%progbits
 880              		.align	2
 881              		.global	Display1_PutChar
 882              		.thumb
 883              		.thumb_func
 884              		.type	Display1_PutChar, %function
 885              	Display1_PutChar:
 886              	.LFB19:
1007:.\Generated_Source\PSoC5/Display1.c **** 
1008:.\Generated_Source\PSoC5/Display1.c **** 
1009:.\Generated_Source\PSoC5/Display1.c ****     /*******************************************************************************
1010:.\Generated_Source\PSoC5/Display1.c ****     * Function Name: Display1_PutChar
1011:.\Generated_Source\PSoC5/Display1.c ****     ********************************************************************************
1012:.\Generated_Source\PSoC5/Display1.c ****     *
1013:.\Generated_Source\PSoC5/Display1.c ****     * Summary:
1014:.\Generated_Source\PSoC5/Display1.c ****     *  Puts a byte of data into the transmit buffer to be sent when the bus is
1015:.\Generated_Source\PSoC5/Display1.c ****     *  available. This is a blocking API that waits until the TX buffer has room to
1016:.\Generated_Source\PSoC5/Display1.c ****     *  hold the data.
1017:.\Generated_Source\PSoC5/Display1.c ****     *
1018:.\Generated_Source\PSoC5/Display1.c ****     * Parameters:
1019:.\Generated_Source\PSoC5/Display1.c ****     *  txDataByte: Byte containing the data to transmit
1020:.\Generated_Source\PSoC5/Display1.c ****     *
1021:.\Generated_Source\PSoC5/Display1.c ****     * Return:
1022:.\Generated_Source\PSoC5/Display1.c ****     *  None.
1023:.\Generated_Source\PSoC5/Display1.c ****     *
1024:.\Generated_Source\PSoC5/Display1.c ****     * Global Variables:
1025:.\Generated_Source\PSoC5/Display1.c ****     *  Display1_txBuffer - RAM buffer pointer for save data for transmission
1026:.\Generated_Source\PSoC5/Display1.c ****     *  Display1_txBufferWrite - cyclic index for write to txBuffer,
1027:.\Generated_Source\PSoC5/Display1.c ****     *     checked to identify free space in txBuffer and incremented after each byte
1028:.\Generated_Source\PSoC5/Display1.c ****     *     saved to buffer.
1029:.\Generated_Source\PSoC5/Display1.c ****     *  Display1_txBufferRead - cyclic index for read from txBuffer,
1030:.\Generated_Source\PSoC5/Display1.c ****     *     checked to identify free space in txBuffer.
1031:.\Generated_Source\PSoC5/Display1.c ****     *  Display1_initVar - checked to identify that the component has been
1032:.\Generated_Source\PSoC5/Display1.c ****     *     initialized.
1033:.\Generated_Source\PSoC5/Display1.c ****     *
1034:.\Generated_Source\PSoC5/Display1.c ****     * Reentrant:
1035:.\Generated_Source\PSoC5/Display1.c ****     *  No.
1036:.\Generated_Source\PSoC5/Display1.c ****     *
1037:.\Generated_Source\PSoC5/Display1.c ****     * Theory:
1038:.\Generated_Source\PSoC5/Display1.c ****     *  Allows the user to transmit any byte of data in a single transfer
1039:.\Generated_Source\PSoC5/Display1.c ****     *
1040:.\Generated_Source\PSoC5/Display1.c ****     *******************************************************************************/
1041:.\Generated_Source\PSoC5/Display1.c ****     void Display1_PutChar(uint8 txDataByte) 
1042:.\Generated_Source\PSoC5/Display1.c ****     {
 887              		.loc 1 1042 0
 888              		.cfi_startproc
 889              		@ args = 0, pretend = 0, frame = 0
ARM GAS  C:\Users\RECEPC~1\AppData\Local\Temp\cclIxQZ0.s 			page 35


 890              		@ frame_needed = 0, uses_anonymous_args = 0
 891              		@ link register save eliminated.
 892              	.LVL60:
 893              	.L78:
1043:.\Generated_Source\PSoC5/Display1.c ****     #if (Display1_TX_INTERRUPT_ENABLED)
1044:.\Generated_Source\PSoC5/Display1.c ****         /* The temporary output pointer is used since it takes two instructions
1045:.\Generated_Source\PSoC5/Display1.c ****         *  to increment with a wrap, and we can't risk doing that with the real
1046:.\Generated_Source\PSoC5/Display1.c ****         *  pointer and getting an interrupt in between instructions.
1047:.\Generated_Source\PSoC5/Display1.c ****         */
1048:.\Generated_Source\PSoC5/Display1.c ****         uint8 locTxBufferWrite;
1049:.\Generated_Source\PSoC5/Display1.c ****         uint8 locTxBufferRead;
1050:.\Generated_Source\PSoC5/Display1.c **** 
1051:.\Generated_Source\PSoC5/Display1.c ****         do
1052:.\Generated_Source\PSoC5/Display1.c ****         { /* Block if software buffer is full, so we don't overwrite. */
1053:.\Generated_Source\PSoC5/Display1.c **** 
1054:.\Generated_Source\PSoC5/Display1.c ****         #if ((Display1_TX_BUFFER_SIZE > Display1_MAX_BYTE_VALUE) && (CY_PSOC3))
1055:.\Generated_Source\PSoC5/Display1.c ****             /* Disable TX interrupt to protect variables from modification */
1056:.\Generated_Source\PSoC5/Display1.c ****             Display1_DisableTxInt();
1057:.\Generated_Source\PSoC5/Display1.c ****         #endif /* (Display1_TX_BUFFER_SIZE > Display1_MAX_BYTE_VALUE) && (CY_PSOC3) */
1058:.\Generated_Source\PSoC5/Display1.c **** 
1059:.\Generated_Source\PSoC5/Display1.c ****             locTxBufferWrite = Display1_txBufferWrite;
1060:.\Generated_Source\PSoC5/Display1.c ****             locTxBufferRead  = Display1_txBufferRead;
1061:.\Generated_Source\PSoC5/Display1.c **** 
1062:.\Generated_Source\PSoC5/Display1.c ****         #if ((Display1_TX_BUFFER_SIZE > Display1_MAX_BYTE_VALUE) && (CY_PSOC3))
1063:.\Generated_Source\PSoC5/Display1.c ****             /* Enable interrupt to continue transmission */
1064:.\Generated_Source\PSoC5/Display1.c ****             Display1_EnableTxInt();
1065:.\Generated_Source\PSoC5/Display1.c ****         #endif /* (Display1_TX_BUFFER_SIZE > Display1_MAX_BYTE_VALUE) && (CY_PSOC3) */
1066:.\Generated_Source\PSoC5/Display1.c ****         }
1067:.\Generated_Source\PSoC5/Display1.c ****         while( (locTxBufferWrite < locTxBufferRead) ? (locTxBufferWrite == (locTxBufferRead - 1u)) 
1068:.\Generated_Source\PSoC5/Display1.c ****                                 ((locTxBufferWrite - locTxBufferRead) ==
1069:.\Generated_Source\PSoC5/Display1.c ****                                 (uint8)(Display1_TX_BUFFER_SIZE - 1u)) );
1070:.\Generated_Source\PSoC5/Display1.c **** 
1071:.\Generated_Source\PSoC5/Display1.c ****         if( (locTxBufferRead == locTxBufferWrite) &&
1072:.\Generated_Source\PSoC5/Display1.c ****             ((Display1_TXSTATUS_REG & Display1_TX_STS_FIFO_FULL) == 0u) )
1073:.\Generated_Source\PSoC5/Display1.c ****         {
1074:.\Generated_Source\PSoC5/Display1.c ****             /* Add directly to the FIFO */
1075:.\Generated_Source\PSoC5/Display1.c ****             Display1_TXDATA_REG = txDataByte;
1076:.\Generated_Source\PSoC5/Display1.c ****         }
1077:.\Generated_Source\PSoC5/Display1.c ****         else
1078:.\Generated_Source\PSoC5/Display1.c ****         {
1079:.\Generated_Source\PSoC5/Display1.c ****             if(locTxBufferWrite >= Display1_TX_BUFFER_SIZE)
1080:.\Generated_Source\PSoC5/Display1.c ****             {
1081:.\Generated_Source\PSoC5/Display1.c ****                 locTxBufferWrite = 0u;
1082:.\Generated_Source\PSoC5/Display1.c ****             }
1083:.\Generated_Source\PSoC5/Display1.c ****             /* Add to the software buffer. */
1084:.\Generated_Source\PSoC5/Display1.c ****             Display1_txBuffer[locTxBufferWrite] = txDataByte;
1085:.\Generated_Source\PSoC5/Display1.c ****             locTxBufferWrite++;
1086:.\Generated_Source\PSoC5/Display1.c **** 
1087:.\Generated_Source\PSoC5/Display1.c ****             /* Finally, update the real output pointer */
1088:.\Generated_Source\PSoC5/Display1.c ****         #if ((Display1_TX_BUFFER_SIZE > Display1_MAX_BYTE_VALUE) && (CY_PSOC3))
1089:.\Generated_Source\PSoC5/Display1.c ****             Display1_DisableTxInt();
1090:.\Generated_Source\PSoC5/Display1.c ****         #endif /* (Display1_TX_BUFFER_SIZE > Display1_MAX_BYTE_VALUE) && (CY_PSOC3) */
1091:.\Generated_Source\PSoC5/Display1.c **** 
1092:.\Generated_Source\PSoC5/Display1.c ****             Display1_txBufferWrite = locTxBufferWrite;
1093:.\Generated_Source\PSoC5/Display1.c **** 
1094:.\Generated_Source\PSoC5/Display1.c ****         #if ((Display1_TX_BUFFER_SIZE > Display1_MAX_BYTE_VALUE) && (CY_PSOC3))
1095:.\Generated_Source\PSoC5/Display1.c ****             Display1_EnableTxInt();
ARM GAS  C:\Users\RECEPC~1\AppData\Local\Temp\cclIxQZ0.s 			page 36


1096:.\Generated_Source\PSoC5/Display1.c ****         #endif /* (Display1_TX_BUFFER_SIZE > Display1_MAX_BYTE_VALUE) && (CY_PSOC3) */
1097:.\Generated_Source\PSoC5/Display1.c **** 
1098:.\Generated_Source\PSoC5/Display1.c ****             if(0u != (Display1_TXSTATUS_REG & Display1_TX_STS_FIFO_EMPTY))
1099:.\Generated_Source\PSoC5/Display1.c ****             {
1100:.\Generated_Source\PSoC5/Display1.c ****                 /* Trigger TX interrupt to send software buffer */
1101:.\Generated_Source\PSoC5/Display1.c ****                 Display1_SetPendingTxInt();
1102:.\Generated_Source\PSoC5/Display1.c ****             }
1103:.\Generated_Source\PSoC5/Display1.c ****         }
1104:.\Generated_Source\PSoC5/Display1.c **** 
1105:.\Generated_Source\PSoC5/Display1.c ****     #else
1106:.\Generated_Source\PSoC5/Display1.c **** 
1107:.\Generated_Source\PSoC5/Display1.c ****         while((Display1_TXSTATUS_REG & Display1_TX_STS_FIFO_FULL) != 0u)
 894              		.loc 1 1107 0 discriminator 1
 895 0000 034B     		ldr	r3, .L79
 896 0002 1B78     		ldrb	r3, [r3]	@ zero_extendqisi2
 897 0004 13F0040F 		tst	r3, #4
 898 0008 FAD1     		bne	.L78
1108:.\Generated_Source\PSoC5/Display1.c ****         {
1109:.\Generated_Source\PSoC5/Display1.c ****             /* Wait for room in the FIFO */
1110:.\Generated_Source\PSoC5/Display1.c ****         }
1111:.\Generated_Source\PSoC5/Display1.c **** 
1112:.\Generated_Source\PSoC5/Display1.c ****         /* Add directly to the FIFO */
1113:.\Generated_Source\PSoC5/Display1.c ****         Display1_TXDATA_REG = txDataByte;
 899              		.loc 1 1113 0
 900 000a 024B     		ldr	r3, .L79+4
 901 000c 1870     		strb	r0, [r3]
 902 000e 7047     		bx	lr
 903              	.L80:
 904              		.align	2
 905              	.L79:
 906 0010 68640040 		.word	1073767528
 907 0014 47640040 		.word	1073767495
 908              		.cfi_endproc
 909              	.LFE19:
 910              		.size	Display1_PutChar, .-Display1_PutChar
 911              		.section	.text.Display1_PutString,"ax",%progbits
 912              		.align	2
 913              		.global	Display1_PutString
 914              		.thumb
 915              		.thumb_func
 916              		.type	Display1_PutString, %function
 917              	Display1_PutString:
 918              	.LFB20:
1114:.\Generated_Source\PSoC5/Display1.c **** 
1115:.\Generated_Source\PSoC5/Display1.c ****     #endif /* Display1_TX_INTERRUPT_ENABLED */
1116:.\Generated_Source\PSoC5/Display1.c ****     }
1117:.\Generated_Source\PSoC5/Display1.c **** 
1118:.\Generated_Source\PSoC5/Display1.c **** 
1119:.\Generated_Source\PSoC5/Display1.c ****     /*******************************************************************************
1120:.\Generated_Source\PSoC5/Display1.c ****     * Function Name: Display1_PutString
1121:.\Generated_Source\PSoC5/Display1.c ****     ********************************************************************************
1122:.\Generated_Source\PSoC5/Display1.c ****     *
1123:.\Generated_Source\PSoC5/Display1.c ****     * Summary:
1124:.\Generated_Source\PSoC5/Display1.c ****     *  Sends a NULL terminated string to the TX buffer for transmission.
1125:.\Generated_Source\PSoC5/Display1.c ****     *
1126:.\Generated_Source\PSoC5/Display1.c ****     * Parameters:
1127:.\Generated_Source\PSoC5/Display1.c ****     *  string[]: Pointer to the null terminated string array residing in RAM or ROM
ARM GAS  C:\Users\RECEPC~1\AppData\Local\Temp\cclIxQZ0.s 			page 37


1128:.\Generated_Source\PSoC5/Display1.c ****     *
1129:.\Generated_Source\PSoC5/Display1.c ****     * Return:
1130:.\Generated_Source\PSoC5/Display1.c ****     *  None.
1131:.\Generated_Source\PSoC5/Display1.c ****     *
1132:.\Generated_Source\PSoC5/Display1.c ****     * Global Variables:
1133:.\Generated_Source\PSoC5/Display1.c ****     *  Display1_initVar - checked to identify that the component has been
1134:.\Generated_Source\PSoC5/Display1.c ****     *     initialized.
1135:.\Generated_Source\PSoC5/Display1.c ****     *
1136:.\Generated_Source\PSoC5/Display1.c ****     * Reentrant:
1137:.\Generated_Source\PSoC5/Display1.c ****     *  No.
1138:.\Generated_Source\PSoC5/Display1.c ****     *
1139:.\Generated_Source\PSoC5/Display1.c ****     * Theory:
1140:.\Generated_Source\PSoC5/Display1.c ****     *  If there is not enough memory in the TX buffer for the entire string, this
1141:.\Generated_Source\PSoC5/Display1.c ****     *  function blocks until the last character of the string is loaded into the
1142:.\Generated_Source\PSoC5/Display1.c ****     *  TX buffer.
1143:.\Generated_Source\PSoC5/Display1.c ****     *
1144:.\Generated_Source\PSoC5/Display1.c ****     *******************************************************************************/
1145:.\Generated_Source\PSoC5/Display1.c ****     void Display1_PutString(const char8 string[]) 
1146:.\Generated_Source\PSoC5/Display1.c ****     {
 919              		.loc 1 1146 0
 920              		.cfi_startproc
 921              		@ args = 0, pretend = 0, frame = 0
 922              		@ frame_needed = 0, uses_anonymous_args = 0
 923              	.LVL61:
 924 0000 38B5     		push	{r3, r4, r5, lr}
 925              		.cfi_def_cfa_offset 16
 926              		.cfi_offset 3, -16
 927              		.cfi_offset 4, -12
 928              		.cfi_offset 5, -8
 929              		.cfi_offset 14, -4
 930              	.LVL62:
1147:.\Generated_Source\PSoC5/Display1.c ****         uint16 bufIndex = 0u;
1148:.\Generated_Source\PSoC5/Display1.c **** 
1149:.\Generated_Source\PSoC5/Display1.c ****         /* If not Initialized then skip this function */
1150:.\Generated_Source\PSoC5/Display1.c ****         if(Display1_initVar != 0u)
 931              		.loc 1 1150 0
 932 0002 074B     		ldr	r3, .L87
 933 0004 5B78     		ldrb	r3, [r3, #1]	@ zero_extendqisi2
 934 0006 2BB9     		cbnz	r3, .L85
 935 0008 38BD     		pop	{r3, r4, r5, pc}
 936              	.LVL63:
 937              	.L84:
1151:.\Generated_Source\PSoC5/Display1.c ****         {
1152:.\Generated_Source\PSoC5/Display1.c ****             /* This is a blocking function, it will not exit until all data is sent */
1153:.\Generated_Source\PSoC5/Display1.c ****             while(string[bufIndex] != (char8) 0)
1154:.\Generated_Source\PSoC5/Display1.c ****             {
1155:.\Generated_Source\PSoC5/Display1.c ****                 Display1_PutChar((uint8)string[bufIndex]);
 938              		.loc 1 1155 0
 939 000a FFF7FEFF 		bl	Display1_PutChar
 940              	.LVL64:
1156:.\Generated_Source\PSoC5/Display1.c ****                 bufIndex++;
 941              		.loc 1 1156 0
 942 000e 0134     		adds	r4, r4, #1
 943              	.LVL65:
 944 0010 A4B2     		uxth	r4, r4
 945              	.LVL66:
 946 0012 01E0     		b	.L82
ARM GAS  C:\Users\RECEPC~1\AppData\Local\Temp\cclIxQZ0.s 			page 38


 947              	.LVL67:
 948              	.L85:
 949 0014 0546     		mov	r5, r0
 950 0016 0024     		movs	r4, #0
 951              	.LVL68:
 952              	.L82:
1153:.\Generated_Source\PSoC5/Display1.c ****             {
 953              		.loc 1 1153 0
 954 0018 285D     		ldrb	r0, [r5, r4]	@ zero_extendqisi2
 955 001a 0028     		cmp	r0, #0
 956 001c F5D1     		bne	.L84
 957 001e 38BD     		pop	{r3, r4, r5, pc}
 958              	.LVL69:
 959              	.L88:
 960              		.align	2
 961              	.L87:
 962 0020 00000000 		.word	.LANCHOR0
 963              		.cfi_endproc
 964              	.LFE20:
 965              		.size	Display1_PutString, .-Display1_PutString
 966              		.section	.text.Display1_PutArray,"ax",%progbits
 967              		.align	2
 968              		.global	Display1_PutArray
 969              		.thumb
 970              		.thumb_func
 971              		.type	Display1_PutArray, %function
 972              	Display1_PutArray:
 973              	.LFB21:
1157:.\Generated_Source\PSoC5/Display1.c ****             }
1158:.\Generated_Source\PSoC5/Display1.c ****         }
1159:.\Generated_Source\PSoC5/Display1.c ****     }
1160:.\Generated_Source\PSoC5/Display1.c **** 
1161:.\Generated_Source\PSoC5/Display1.c **** 
1162:.\Generated_Source\PSoC5/Display1.c ****     /*******************************************************************************
1163:.\Generated_Source\PSoC5/Display1.c ****     * Function Name: Display1_PutArray
1164:.\Generated_Source\PSoC5/Display1.c ****     ********************************************************************************
1165:.\Generated_Source\PSoC5/Display1.c ****     *
1166:.\Generated_Source\PSoC5/Display1.c ****     * Summary:
1167:.\Generated_Source\PSoC5/Display1.c ****     *  Places N bytes of data from a memory array into the TX buffer for
1168:.\Generated_Source\PSoC5/Display1.c ****     *  transmission.
1169:.\Generated_Source\PSoC5/Display1.c ****     *
1170:.\Generated_Source\PSoC5/Display1.c ****     * Parameters:
1171:.\Generated_Source\PSoC5/Display1.c ****     *  string[]: Address of the memory array residing in RAM or ROM.
1172:.\Generated_Source\PSoC5/Display1.c ****     *  byteCount: Number of bytes to be transmitted. The type depends on TX Buffer
1173:.\Generated_Source\PSoC5/Display1.c ****     *             Size parameter.
1174:.\Generated_Source\PSoC5/Display1.c ****     *
1175:.\Generated_Source\PSoC5/Display1.c ****     * Return:
1176:.\Generated_Source\PSoC5/Display1.c ****     *  None.
1177:.\Generated_Source\PSoC5/Display1.c ****     *
1178:.\Generated_Source\PSoC5/Display1.c ****     * Global Variables:
1179:.\Generated_Source\PSoC5/Display1.c ****     *  Display1_initVar - checked to identify that the component has been
1180:.\Generated_Source\PSoC5/Display1.c ****     *     initialized.
1181:.\Generated_Source\PSoC5/Display1.c ****     *
1182:.\Generated_Source\PSoC5/Display1.c ****     * Reentrant:
1183:.\Generated_Source\PSoC5/Display1.c ****     *  No.
1184:.\Generated_Source\PSoC5/Display1.c ****     *
1185:.\Generated_Source\PSoC5/Display1.c ****     * Theory:
ARM GAS  C:\Users\RECEPC~1\AppData\Local\Temp\cclIxQZ0.s 			page 39


1186:.\Generated_Source\PSoC5/Display1.c ****     *  If there is not enough memory in the TX buffer for the entire string, this
1187:.\Generated_Source\PSoC5/Display1.c ****     *  function blocks until the last character of the string is loaded into the
1188:.\Generated_Source\PSoC5/Display1.c ****     *  TX buffer.
1189:.\Generated_Source\PSoC5/Display1.c ****     *
1190:.\Generated_Source\PSoC5/Display1.c ****     *******************************************************************************/
1191:.\Generated_Source\PSoC5/Display1.c ****     void Display1_PutArray(const uint8 string[], uint8 byteCount)
1192:.\Generated_Source\PSoC5/Display1.c ****                                                                     
1193:.\Generated_Source\PSoC5/Display1.c ****     {
 974              		.loc 1 1193 0
 975              		.cfi_startproc
 976              		@ args = 0, pretend = 0, frame = 0
 977              		@ frame_needed = 0, uses_anonymous_args = 0
 978              	.LVL70:
1194:.\Generated_Source\PSoC5/Display1.c ****         uint8 bufIndex = 0u;
1195:.\Generated_Source\PSoC5/Display1.c **** 
1196:.\Generated_Source\PSoC5/Display1.c ****         /* If not Initialized then skip this function */
1197:.\Generated_Source\PSoC5/Display1.c ****         if(Display1_initVar != 0u)
 979              		.loc 1 1197 0
 980 0000 084B     		ldr	r3, .L95
 981 0002 5B78     		ldrb	r3, [r3, #1]	@ zero_extendqisi2
 982 0004 33B9     		cbnz	r3, .L93
 983 0006 7047     		bx	lr
 984              	.LVL71:
 985              	.L92:
 986              		.cfi_def_cfa_offset 16
 987              		.cfi_offset 4, -16
 988              		.cfi_offset 5, -12
 989              		.cfi_offset 6, -8
 990              		.cfi_offset 14, -4
1198:.\Generated_Source\PSoC5/Display1.c ****         {
1199:.\Generated_Source\PSoC5/Display1.c ****             while(bufIndex < byteCount)
1200:.\Generated_Source\PSoC5/Display1.c ****             {
1201:.\Generated_Source\PSoC5/Display1.c ****                 Display1_PutChar(string[bufIndex]);
 991              		.loc 1 1201 0
 992 0008 305D     		ldrb	r0, [r6, r4]	@ zero_extendqisi2
 993 000a FFF7FEFF 		bl	Display1_PutChar
 994              	.LVL72:
1202:.\Generated_Source\PSoC5/Display1.c ****                 bufIndex++;
 995              		.loc 1 1202 0
 996 000e 0134     		adds	r4, r4, #1
 997              	.LVL73:
 998 0010 E4B2     		uxtb	r4, r4
 999              	.LVL74:
 1000 0012 03E0     		b	.L90
 1001              	.LVL75:
 1002              	.L93:
 1003              		.cfi_def_cfa_offset 0
 1004              		.cfi_restore 4
 1005              		.cfi_restore 5
 1006              		.cfi_restore 6
 1007              		.cfi_restore 14
1193:.\Generated_Source\PSoC5/Display1.c ****         uint8 bufIndex = 0u;
 1008              		.loc 1 1193 0
 1009 0014 70B5     		push	{r4, r5, r6, lr}
 1010              		.cfi_def_cfa_offset 16
 1011              		.cfi_offset 4, -16
 1012              		.cfi_offset 5, -12
ARM GAS  C:\Users\RECEPC~1\AppData\Local\Temp\cclIxQZ0.s 			page 40


 1013              		.cfi_offset 6, -8
 1014              		.cfi_offset 14, -4
 1015 0016 0D46     		mov	r5, r1
 1016 0018 0646     		mov	r6, r0
 1017 001a 0024     		movs	r4, #0
 1018              	.LVL76:
 1019              	.L90:
1199:.\Generated_Source\PSoC5/Display1.c ****             {
 1020              		.loc 1 1199 0
 1021 001c AC42     		cmp	r4, r5
 1022 001e F3D3     		bcc	.L92
 1023 0020 70BD     		pop	{r4, r5, r6, pc}
 1024              	.LVL77:
 1025              	.L96:
 1026 0022 00BF     		.align	2
 1027              	.L95:
 1028 0024 00000000 		.word	.LANCHOR0
 1029              		.cfi_endproc
 1030              	.LFE21:
 1031              		.size	Display1_PutArray, .-Display1_PutArray
 1032              		.section	.text.Display1_PutCRLF,"ax",%progbits
 1033              		.align	2
 1034              		.global	Display1_PutCRLF
 1035              		.thumb
 1036              		.thumb_func
 1037              		.type	Display1_PutCRLF, %function
 1038              	Display1_PutCRLF:
 1039              	.LFB22:
1203:.\Generated_Source\PSoC5/Display1.c ****             }
1204:.\Generated_Source\PSoC5/Display1.c ****         }
1205:.\Generated_Source\PSoC5/Display1.c ****     }
1206:.\Generated_Source\PSoC5/Display1.c **** 
1207:.\Generated_Source\PSoC5/Display1.c **** 
1208:.\Generated_Source\PSoC5/Display1.c ****     /*******************************************************************************
1209:.\Generated_Source\PSoC5/Display1.c ****     * Function Name: Display1_PutCRLF
1210:.\Generated_Source\PSoC5/Display1.c ****     ********************************************************************************
1211:.\Generated_Source\PSoC5/Display1.c ****     *
1212:.\Generated_Source\PSoC5/Display1.c ****     * Summary:
1213:.\Generated_Source\PSoC5/Display1.c ****     *  Writes a byte of data followed by a carriage return (0x0D) and line feed
1214:.\Generated_Source\PSoC5/Display1.c ****     *  (0x0A) to the transmit buffer.
1215:.\Generated_Source\PSoC5/Display1.c ****     *
1216:.\Generated_Source\PSoC5/Display1.c ****     * Parameters:
1217:.\Generated_Source\PSoC5/Display1.c ****     *  txDataByte: Data byte to transmit before the carriage return and line feed.
1218:.\Generated_Source\PSoC5/Display1.c ****     *
1219:.\Generated_Source\PSoC5/Display1.c ****     * Return:
1220:.\Generated_Source\PSoC5/Display1.c ****     *  None.
1221:.\Generated_Source\PSoC5/Display1.c ****     *
1222:.\Generated_Source\PSoC5/Display1.c ****     * Global Variables:
1223:.\Generated_Source\PSoC5/Display1.c ****     *  Display1_initVar - checked to identify that the component has been
1224:.\Generated_Source\PSoC5/Display1.c ****     *     initialized.
1225:.\Generated_Source\PSoC5/Display1.c ****     *
1226:.\Generated_Source\PSoC5/Display1.c ****     * Reentrant:
1227:.\Generated_Source\PSoC5/Display1.c ****     *  No.
1228:.\Generated_Source\PSoC5/Display1.c ****     *
1229:.\Generated_Source\PSoC5/Display1.c ****     *******************************************************************************/
1230:.\Generated_Source\PSoC5/Display1.c ****     void Display1_PutCRLF(uint8 txDataByte) 
1231:.\Generated_Source\PSoC5/Display1.c ****     {
ARM GAS  C:\Users\RECEPC~1\AppData\Local\Temp\cclIxQZ0.s 			page 41


 1040              		.loc 1 1231 0
 1041              		.cfi_startproc
 1042              		@ args = 0, pretend = 0, frame = 0
 1043              		@ frame_needed = 0, uses_anonymous_args = 0
 1044              	.LVL78:
 1045 0000 08B5     		push	{r3, lr}
 1046              		.cfi_def_cfa_offset 8
 1047              		.cfi_offset 3, -8
 1048              		.cfi_offset 14, -4
1232:.\Generated_Source\PSoC5/Display1.c ****         /* If not Initialized then skip this function */
1233:.\Generated_Source\PSoC5/Display1.c ****         if(Display1_initVar != 0u)
 1049              		.loc 1 1233 0
 1050 0002 064B     		ldr	r3, .L100
 1051 0004 5B78     		ldrb	r3, [r3, #1]	@ zero_extendqisi2
 1052 0006 3BB1     		cbz	r3, .L97
1234:.\Generated_Source\PSoC5/Display1.c ****         {
1235:.\Generated_Source\PSoC5/Display1.c ****             Display1_PutChar(txDataByte);
 1053              		.loc 1 1235 0
 1054 0008 FFF7FEFF 		bl	Display1_PutChar
 1055              	.LVL79:
1236:.\Generated_Source\PSoC5/Display1.c ****             Display1_PutChar(0x0Du);
 1056              		.loc 1 1236 0
 1057 000c 0D20     		movs	r0, #13
 1058 000e FFF7FEFF 		bl	Display1_PutChar
 1059              	.LVL80:
1237:.\Generated_Source\PSoC5/Display1.c ****             Display1_PutChar(0x0Au);
 1060              		.loc 1 1237 0
 1061 0012 0A20     		movs	r0, #10
 1062 0014 FFF7FEFF 		bl	Display1_PutChar
 1063              	.LVL81:
 1064              	.L97:
 1065 0018 08BD     		pop	{r3, pc}
 1066              	.L101:
 1067 001a 00BF     		.align	2
 1068              	.L100:
 1069 001c 00000000 		.word	.LANCHOR0
 1070              		.cfi_endproc
 1071              	.LFE22:
 1072              		.size	Display1_PutCRLF, .-Display1_PutCRLF
 1073              		.section	.text.Display1_GetTxBufferSize,"ax",%progbits
 1074              		.align	2
 1075              		.global	Display1_GetTxBufferSize
 1076              		.thumb
 1077              		.thumb_func
 1078              		.type	Display1_GetTxBufferSize, %function
 1079              	Display1_GetTxBufferSize:
 1080              	.LFB23:
1238:.\Generated_Source\PSoC5/Display1.c ****         }
1239:.\Generated_Source\PSoC5/Display1.c ****     }
1240:.\Generated_Source\PSoC5/Display1.c **** 
1241:.\Generated_Source\PSoC5/Display1.c **** 
1242:.\Generated_Source\PSoC5/Display1.c ****     /*******************************************************************************
1243:.\Generated_Source\PSoC5/Display1.c ****     * Function Name: Display1_GetTxBufferSize
1244:.\Generated_Source\PSoC5/Display1.c ****     ********************************************************************************
1245:.\Generated_Source\PSoC5/Display1.c ****     *
1246:.\Generated_Source\PSoC5/Display1.c ****     * Summary:
1247:.\Generated_Source\PSoC5/Display1.c ****     *  Returns the number of bytes in the TX buffer which are waiting to be 
ARM GAS  C:\Users\RECEPC~1\AppData\Local\Temp\cclIxQZ0.s 			page 42


1248:.\Generated_Source\PSoC5/Display1.c ****     *  transmitted.
1249:.\Generated_Source\PSoC5/Display1.c ****     *  * TX software buffer is disabled (TX Buffer Size parameter is equal to 4): 
1250:.\Generated_Source\PSoC5/Display1.c ****     *    returns 0 for empty TX FIFO, 1 for not full TX FIFO or 4 for full TX FIFO.
1251:.\Generated_Source\PSoC5/Display1.c ****     *  * TX software buffer is enabled: returns the number of bytes in the TX 
1252:.\Generated_Source\PSoC5/Display1.c ****     *    software buffer which are waiting to be transmitted. Bytes available in the
1253:.\Generated_Source\PSoC5/Display1.c ****     *    TX FIFO do not count.
1254:.\Generated_Source\PSoC5/Display1.c ****     *
1255:.\Generated_Source\PSoC5/Display1.c ****     * Parameters:
1256:.\Generated_Source\PSoC5/Display1.c ****     *  None.
1257:.\Generated_Source\PSoC5/Display1.c ****     *
1258:.\Generated_Source\PSoC5/Display1.c ****     * Return:
1259:.\Generated_Source\PSoC5/Display1.c ****     *  Number of bytes used in the TX buffer. Return value type depends on the TX 
1260:.\Generated_Source\PSoC5/Display1.c ****     *  Buffer Size parameter.
1261:.\Generated_Source\PSoC5/Display1.c ****     *
1262:.\Generated_Source\PSoC5/Display1.c ****     * Global Variables:
1263:.\Generated_Source\PSoC5/Display1.c ****     *  Display1_txBufferWrite - used to calculate left space.
1264:.\Generated_Source\PSoC5/Display1.c ****     *  Display1_txBufferRead - used to calculate left space.
1265:.\Generated_Source\PSoC5/Display1.c ****     *
1266:.\Generated_Source\PSoC5/Display1.c ****     * Reentrant:
1267:.\Generated_Source\PSoC5/Display1.c ****     *  No.
1268:.\Generated_Source\PSoC5/Display1.c ****     *
1269:.\Generated_Source\PSoC5/Display1.c ****     * Theory:
1270:.\Generated_Source\PSoC5/Display1.c ****     *  Allows the user to find out how full the TX Buffer is.
1271:.\Generated_Source\PSoC5/Display1.c ****     *
1272:.\Generated_Source\PSoC5/Display1.c ****     *******************************************************************************/
1273:.\Generated_Source\PSoC5/Display1.c ****     uint8 Display1_GetTxBufferSize(void)
1274:.\Generated_Source\PSoC5/Display1.c ****                                                             
1275:.\Generated_Source\PSoC5/Display1.c ****     {
 1081              		.loc 1 1275 0
 1082              		.cfi_startproc
 1083              		@ args = 0, pretend = 0, frame = 0
 1084              		@ frame_needed = 0, uses_anonymous_args = 0
 1085              		@ link register save eliminated.
1276:.\Generated_Source\PSoC5/Display1.c ****         uint8 size;
1277:.\Generated_Source\PSoC5/Display1.c **** 
1278:.\Generated_Source\PSoC5/Display1.c ****     #if (Display1_TX_INTERRUPT_ENABLED)
1279:.\Generated_Source\PSoC5/Display1.c **** 
1280:.\Generated_Source\PSoC5/Display1.c ****         /* Protect variables that could change on interrupt. */
1281:.\Generated_Source\PSoC5/Display1.c ****         Display1_DisableTxInt();
1282:.\Generated_Source\PSoC5/Display1.c **** 
1283:.\Generated_Source\PSoC5/Display1.c ****         if(Display1_txBufferRead == Display1_txBufferWrite)
1284:.\Generated_Source\PSoC5/Display1.c ****         {
1285:.\Generated_Source\PSoC5/Display1.c ****             size = 0u;
1286:.\Generated_Source\PSoC5/Display1.c ****         }
1287:.\Generated_Source\PSoC5/Display1.c ****         else if(Display1_txBufferRead < Display1_txBufferWrite)
1288:.\Generated_Source\PSoC5/Display1.c ****         {
1289:.\Generated_Source\PSoC5/Display1.c ****             size = (Display1_txBufferWrite - Display1_txBufferRead);
1290:.\Generated_Source\PSoC5/Display1.c ****         }
1291:.\Generated_Source\PSoC5/Display1.c ****         else
1292:.\Generated_Source\PSoC5/Display1.c ****         {
1293:.\Generated_Source\PSoC5/Display1.c ****             size = (Display1_TX_BUFFER_SIZE - Display1_txBufferRead) +
1294:.\Generated_Source\PSoC5/Display1.c ****                     Display1_txBufferWrite;
1295:.\Generated_Source\PSoC5/Display1.c ****         }
1296:.\Generated_Source\PSoC5/Display1.c **** 
1297:.\Generated_Source\PSoC5/Display1.c ****         Display1_EnableTxInt();
1298:.\Generated_Source\PSoC5/Display1.c **** 
1299:.\Generated_Source\PSoC5/Display1.c ****     #else
ARM GAS  C:\Users\RECEPC~1\AppData\Local\Temp\cclIxQZ0.s 			page 43


1300:.\Generated_Source\PSoC5/Display1.c **** 
1301:.\Generated_Source\PSoC5/Display1.c ****         size = Display1_TXSTATUS_REG;
 1086              		.loc 1 1301 0
 1087 0000 074B     		ldr	r3, .L106
 1088 0002 1B78     		ldrb	r3, [r3]	@ zero_extendqisi2
 1089 0004 DBB2     		uxtb	r3, r3
 1090              	.LVL82:
1302:.\Generated_Source\PSoC5/Display1.c **** 
1303:.\Generated_Source\PSoC5/Display1.c ****         /* Is the fifo is full. */
1304:.\Generated_Source\PSoC5/Display1.c ****         if((size & Display1_TX_STS_FIFO_FULL) != 0u)
 1091              		.loc 1 1304 0
 1092 0006 13F0040F 		tst	r3, #4
 1093 000a 04D1     		bne	.L104
1305:.\Generated_Source\PSoC5/Display1.c ****         {
1306:.\Generated_Source\PSoC5/Display1.c ****             size = Display1_FIFO_LENGTH;
1307:.\Generated_Source\PSoC5/Display1.c ****         }
1308:.\Generated_Source\PSoC5/Display1.c ****         else if((size & Display1_TX_STS_FIFO_EMPTY) != 0u)
 1094              		.loc 1 1308 0
 1095 000c 13F0020F 		tst	r3, #2
 1096 0010 03D0     		beq	.L105
1309:.\Generated_Source\PSoC5/Display1.c ****         {
1310:.\Generated_Source\PSoC5/Display1.c ****             size = 0u;
 1097              		.loc 1 1310 0
 1098 0012 0020     		movs	r0, #0
 1099 0014 7047     		bx	lr
 1100              	.L104:
1306:.\Generated_Source\PSoC5/Display1.c ****         }
 1101              		.loc 1 1306 0
 1102 0016 0420     		movs	r0, #4
 1103 0018 7047     		bx	lr
 1104              	.L105:
1311:.\Generated_Source\PSoC5/Display1.c ****         }
1312:.\Generated_Source\PSoC5/Display1.c ****         else
1313:.\Generated_Source\PSoC5/Display1.c ****         {
1314:.\Generated_Source\PSoC5/Display1.c ****             /* We only know there is data in the fifo. */
1315:.\Generated_Source\PSoC5/Display1.c ****             size = 1u;
 1105              		.loc 1 1315 0
 1106 001a 0120     		movs	r0, #1
 1107              	.LVL83:
1316:.\Generated_Source\PSoC5/Display1.c ****         }
1317:.\Generated_Source\PSoC5/Display1.c **** 
1318:.\Generated_Source\PSoC5/Display1.c ****     #endif /* (Display1_TX_INTERRUPT_ENABLED) */
1319:.\Generated_Source\PSoC5/Display1.c **** 
1320:.\Generated_Source\PSoC5/Display1.c ****     return(size);
1321:.\Generated_Source\PSoC5/Display1.c ****     }
 1108              		.loc 1 1321 0
 1109 001c 7047     		bx	lr
 1110              	.L107:
 1111 001e 00BF     		.align	2
 1112              	.L106:
 1113 0020 68640040 		.word	1073767528
 1114              		.cfi_endproc
 1115              	.LFE23:
 1116              		.size	Display1_GetTxBufferSize, .-Display1_GetTxBufferSize
 1117              		.section	.text.Display1_ClearTxBuffer,"ax",%progbits
 1118              		.align	2
 1119              		.global	Display1_ClearTxBuffer
ARM GAS  C:\Users\RECEPC~1\AppData\Local\Temp\cclIxQZ0.s 			page 44


 1120              		.thumb
 1121              		.thumb_func
 1122              		.type	Display1_ClearTxBuffer, %function
 1123              	Display1_ClearTxBuffer:
 1124              	.LFB24:
1322:.\Generated_Source\PSoC5/Display1.c **** 
1323:.\Generated_Source\PSoC5/Display1.c **** 
1324:.\Generated_Source\PSoC5/Display1.c ****     /*******************************************************************************
1325:.\Generated_Source\PSoC5/Display1.c ****     * Function Name: Display1_ClearTxBuffer
1326:.\Generated_Source\PSoC5/Display1.c ****     ********************************************************************************
1327:.\Generated_Source\PSoC5/Display1.c ****     *
1328:.\Generated_Source\PSoC5/Display1.c ****     * Summary:
1329:.\Generated_Source\PSoC5/Display1.c ****     *  Clears all data from the TX buffer and hardware TX FIFO.
1330:.\Generated_Source\PSoC5/Display1.c ****     *
1331:.\Generated_Source\PSoC5/Display1.c ****     * Parameters:
1332:.\Generated_Source\PSoC5/Display1.c ****     *  None.
1333:.\Generated_Source\PSoC5/Display1.c ****     *
1334:.\Generated_Source\PSoC5/Display1.c ****     * Return:
1335:.\Generated_Source\PSoC5/Display1.c ****     *  None.
1336:.\Generated_Source\PSoC5/Display1.c ****     *
1337:.\Generated_Source\PSoC5/Display1.c ****     * Global Variables:
1338:.\Generated_Source\PSoC5/Display1.c ****     *  Display1_txBufferWrite - cleared to zero.
1339:.\Generated_Source\PSoC5/Display1.c ****     *  Display1_txBufferRead - cleared to zero.
1340:.\Generated_Source\PSoC5/Display1.c ****     *
1341:.\Generated_Source\PSoC5/Display1.c ****     * Reentrant:
1342:.\Generated_Source\PSoC5/Display1.c ****     *  No.
1343:.\Generated_Source\PSoC5/Display1.c ****     *
1344:.\Generated_Source\PSoC5/Display1.c ****     * Theory:
1345:.\Generated_Source\PSoC5/Display1.c ****     *  Setting the pointers to zero makes the system believe there is no data to
1346:.\Generated_Source\PSoC5/Display1.c ****     *  read and writing will resume at address 0 overwriting any data that may have
1347:.\Generated_Source\PSoC5/Display1.c ****     *  remained in the RAM.
1348:.\Generated_Source\PSoC5/Display1.c ****     *
1349:.\Generated_Source\PSoC5/Display1.c ****     * Side Effects:
1350:.\Generated_Source\PSoC5/Display1.c ****     *  Data waiting in the transmit buffer is not sent; a byte that is currently
1351:.\Generated_Source\PSoC5/Display1.c ****     *  transmitting finishes transmitting.
1352:.\Generated_Source\PSoC5/Display1.c ****     *
1353:.\Generated_Source\PSoC5/Display1.c ****     *******************************************************************************/
1354:.\Generated_Source\PSoC5/Display1.c ****     void Display1_ClearTxBuffer(void) 
1355:.\Generated_Source\PSoC5/Display1.c ****     {
 1125              		.loc 1 1355 0
 1126              		.cfi_startproc
 1127              		@ args = 0, pretend = 0, frame = 0
 1128              		@ frame_needed = 0, uses_anonymous_args = 0
 1129 0000 08B5     		push	{r3, lr}
 1130              		.cfi_def_cfa_offset 8
 1131              		.cfi_offset 3, -8
 1132              		.cfi_offset 14, -4
1356:.\Generated_Source\PSoC5/Display1.c ****         uint8 enableInterrupts;
1357:.\Generated_Source\PSoC5/Display1.c **** 
1358:.\Generated_Source\PSoC5/Display1.c ****         enableInterrupts = CyEnterCriticalSection();
 1133              		.loc 1 1358 0
 1134 0002 FFF7FEFF 		bl	CyEnterCriticalSection
 1135              	.LVL84:
1359:.\Generated_Source\PSoC5/Display1.c ****         /* Clear the HW FIFO */
1360:.\Generated_Source\PSoC5/Display1.c ****         Display1_TXDATA_AUX_CTL_REG |= (uint8)  Display1_TX_FIFO_CLR;
 1136              		.loc 1 1360 0
 1137 0006 064B     		ldr	r3, .L110
ARM GAS  C:\Users\RECEPC~1\AppData\Local\Temp\cclIxQZ0.s 			page 45


 1138 0008 1A78     		ldrb	r2, [r3]	@ zero_extendqisi2
 1139 000a 42F00102 		orr	r2, r2, #1
 1140 000e 1A70     		strb	r2, [r3]
1361:.\Generated_Source\PSoC5/Display1.c ****         Display1_TXDATA_AUX_CTL_REG &= (uint8) ~Display1_TX_FIFO_CLR;
 1141              		.loc 1 1361 0
 1142 0010 1A78     		ldrb	r2, [r3]	@ zero_extendqisi2
 1143 0012 02F0FE02 		and	r2, r2, #254
 1144 0016 1A70     		strb	r2, [r3]
1362:.\Generated_Source\PSoC5/Display1.c ****         CyExitCriticalSection(enableInterrupts);
 1145              		.loc 1 1362 0
 1146 0018 FFF7FEFF 		bl	CyExitCriticalSection
 1147              	.LVL85:
 1148 001c 08BD     		pop	{r3, pc}
 1149              	.L111:
 1150 001e 00BF     		.align	2
 1151              	.L110:
 1152 0020 97640040 		.word	1073767575
 1153              		.cfi_endproc
 1154              	.LFE24:
 1155              		.size	Display1_ClearTxBuffer, .-Display1_ClearTxBuffer
 1156              		.section	.text.Display1_SendBreak,"ax",%progbits
 1157              		.align	2
 1158              		.global	Display1_SendBreak
 1159              		.thumb
 1160              		.thumb_func
 1161              		.type	Display1_SendBreak, %function
 1162              	Display1_SendBreak:
 1163              	.LFB25:
1363:.\Generated_Source\PSoC5/Display1.c **** 
1364:.\Generated_Source\PSoC5/Display1.c ****     #if (Display1_TX_INTERRUPT_ENABLED)
1365:.\Generated_Source\PSoC5/Display1.c **** 
1366:.\Generated_Source\PSoC5/Display1.c ****         /* Protect variables that could change on interrupt. */
1367:.\Generated_Source\PSoC5/Display1.c ****         Display1_DisableTxInt();
1368:.\Generated_Source\PSoC5/Display1.c **** 
1369:.\Generated_Source\PSoC5/Display1.c ****         Display1_txBufferRead = 0u;
1370:.\Generated_Source\PSoC5/Display1.c ****         Display1_txBufferWrite = 0u;
1371:.\Generated_Source\PSoC5/Display1.c **** 
1372:.\Generated_Source\PSoC5/Display1.c ****         /* Enable Tx interrupt. */
1373:.\Generated_Source\PSoC5/Display1.c ****         Display1_EnableTxInt();
1374:.\Generated_Source\PSoC5/Display1.c **** 
1375:.\Generated_Source\PSoC5/Display1.c ****     #endif /* (Display1_TX_INTERRUPT_ENABLED) */
1376:.\Generated_Source\PSoC5/Display1.c ****     }
1377:.\Generated_Source\PSoC5/Display1.c **** 
1378:.\Generated_Source\PSoC5/Display1.c **** 
1379:.\Generated_Source\PSoC5/Display1.c ****     /*******************************************************************************
1380:.\Generated_Source\PSoC5/Display1.c ****     * Function Name: Display1_SendBreak
1381:.\Generated_Source\PSoC5/Display1.c ****     ********************************************************************************
1382:.\Generated_Source\PSoC5/Display1.c ****     *
1383:.\Generated_Source\PSoC5/Display1.c ****     * Summary:
1384:.\Generated_Source\PSoC5/Display1.c ****     *  Transmits a break signal on the bus.
1385:.\Generated_Source\PSoC5/Display1.c ****     *
1386:.\Generated_Source\PSoC5/Display1.c ****     * Parameters:
1387:.\Generated_Source\PSoC5/Display1.c ****     *  uint8 retMode:  Send Break return mode. See the following table for options.
1388:.\Generated_Source\PSoC5/Display1.c ****     *   Display1_SEND_BREAK - Initialize registers for break, send the Break
1389:.\Generated_Source\PSoC5/Display1.c ****     *       signal and return immediately.
1390:.\Generated_Source\PSoC5/Display1.c ****     *   Display1_WAIT_FOR_COMPLETE_REINIT - Wait until break transmission is
1391:.\Generated_Source\PSoC5/Display1.c ****     *       complete, reinitialize registers to normal transmission mode then return
ARM GAS  C:\Users\RECEPC~1\AppData\Local\Temp\cclIxQZ0.s 			page 46


1392:.\Generated_Source\PSoC5/Display1.c ****     *   Display1_REINIT - Reinitialize registers to normal transmission mode
1393:.\Generated_Source\PSoC5/Display1.c ****     *       then return.
1394:.\Generated_Source\PSoC5/Display1.c ****     *   Display1_SEND_WAIT_REINIT - Performs both options: 
1395:.\Generated_Source\PSoC5/Display1.c ****     *      Display1_SEND_BREAK and Display1_WAIT_FOR_COMPLETE_REINIT.
1396:.\Generated_Source\PSoC5/Display1.c ****     *      This option is recommended for most cases.
1397:.\Generated_Source\PSoC5/Display1.c ****     *
1398:.\Generated_Source\PSoC5/Display1.c ****     * Return:
1399:.\Generated_Source\PSoC5/Display1.c ****     *  None.
1400:.\Generated_Source\PSoC5/Display1.c ****     *
1401:.\Generated_Source\PSoC5/Display1.c ****     * Global Variables:
1402:.\Generated_Source\PSoC5/Display1.c ****     *  Display1_initVar - checked to identify that the component has been
1403:.\Generated_Source\PSoC5/Display1.c ****     *     initialized.
1404:.\Generated_Source\PSoC5/Display1.c ****     *  txPeriod - static variable, used for keeping TX period configuration.
1405:.\Generated_Source\PSoC5/Display1.c ****     *
1406:.\Generated_Source\PSoC5/Display1.c ****     * Reentrant:
1407:.\Generated_Source\PSoC5/Display1.c ****     *  No.
1408:.\Generated_Source\PSoC5/Display1.c ****     *
1409:.\Generated_Source\PSoC5/Display1.c ****     * Theory:
1410:.\Generated_Source\PSoC5/Display1.c ****     *  SendBreak function initializes registers to send 13-bit break signal. It is
1411:.\Generated_Source\PSoC5/Display1.c ****     *  important to return the registers configuration to normal for continue 8-bit
1412:.\Generated_Source\PSoC5/Display1.c ****     *  operation.
1413:.\Generated_Source\PSoC5/Display1.c ****     *  There are 3 variants for this API usage:
1414:.\Generated_Source\PSoC5/Display1.c ****     *  1) SendBreak(3) - function will send the Break signal and take care on the
1415:.\Generated_Source\PSoC5/Display1.c ****     *     configuration returning. Function will block CPU until transmission
1416:.\Generated_Source\PSoC5/Display1.c ****     *     complete.
1417:.\Generated_Source\PSoC5/Display1.c ****     *  2) User may want to use blocking time if UART configured to the low speed
1418:.\Generated_Source\PSoC5/Display1.c ****     *     operation
1419:.\Generated_Source\PSoC5/Display1.c ****     *     Example for this case:
1420:.\Generated_Source\PSoC5/Display1.c ****     *     SendBreak(0);     - initialize Break signal transmission
1421:.\Generated_Source\PSoC5/Display1.c ****     *         Add your code here to use CPU time
1422:.\Generated_Source\PSoC5/Display1.c ****     *     SendBreak(1);     - complete Break operation
1423:.\Generated_Source\PSoC5/Display1.c ****     *  3) Same to 2) but user may want to initialize and use the interrupt to
1424:.\Generated_Source\PSoC5/Display1.c ****     *     complete break operation.
1425:.\Generated_Source\PSoC5/Display1.c ****     *     Example for this case:
1426:.\Generated_Source\PSoC5/Display1.c ****     *     Initialize TX interrupt with "TX - On TX Complete" parameter
1427:.\Generated_Source\PSoC5/Display1.c ****     *     SendBreak(0);     - initialize Break signal transmission
1428:.\Generated_Source\PSoC5/Display1.c ****     *         Add your code here to use CPU time
1429:.\Generated_Source\PSoC5/Display1.c ****     *     When interrupt appear with Display1_TX_STS_COMPLETE status:
1430:.\Generated_Source\PSoC5/Display1.c ****     *     SendBreak(2);     - complete Break operation
1431:.\Generated_Source\PSoC5/Display1.c ****     *
1432:.\Generated_Source\PSoC5/Display1.c ****     * Side Effects:
1433:.\Generated_Source\PSoC5/Display1.c ****     *  The Display1_SendBreak() function initializes registers to send a
1434:.\Generated_Source\PSoC5/Display1.c ****     *  break signal.
1435:.\Generated_Source\PSoC5/Display1.c ****     *  Break signal length depends on the break signal bits configuration.
1436:.\Generated_Source\PSoC5/Display1.c ****     *  The register configuration should be reinitialized before normal 8-bit
1437:.\Generated_Source\PSoC5/Display1.c ****     *  communication can continue.
1438:.\Generated_Source\PSoC5/Display1.c ****     *
1439:.\Generated_Source\PSoC5/Display1.c ****     *******************************************************************************/
1440:.\Generated_Source\PSoC5/Display1.c ****     void Display1_SendBreak(uint8 retMode) 
1441:.\Generated_Source\PSoC5/Display1.c ****     {
 1164              		.loc 1 1441 0
 1165              		.cfi_startproc
 1166              		@ args = 0, pretend = 0, frame = 0
 1167              		@ frame_needed = 0, uses_anonymous_args = 0
 1168              		@ link register save eliminated.
 1169              	.LVL86:
1442:.\Generated_Source\PSoC5/Display1.c **** 
ARM GAS  C:\Users\RECEPC~1\AppData\Local\Temp\cclIxQZ0.s 			page 47


1443:.\Generated_Source\PSoC5/Display1.c ****         /* If not Initialized then skip this function*/
1444:.\Generated_Source\PSoC5/Display1.c ****         if(Display1_initVar != 0u)
 1170              		.loc 1 1444 0
 1171 0000 124B     		ldr	r3, .L119
 1172 0002 5B78     		ldrb	r3, [r3, #1]	@ zero_extendqisi2
 1173 0004 0BB3     		cbz	r3, .L112
 1174              	.LBB2:
1445:.\Generated_Source\PSoC5/Display1.c ****         {
1446:.\Generated_Source\PSoC5/Display1.c ****             /* Set the Counter to 13-bits and transmit a 00 byte */
1447:.\Generated_Source\PSoC5/Display1.c ****             /* When that is done then reset the counter value back */
1448:.\Generated_Source\PSoC5/Display1.c ****             uint8 tmpStat;
1449:.\Generated_Source\PSoC5/Display1.c **** 
1450:.\Generated_Source\PSoC5/Display1.c ****         #if(Display1_HD_ENABLED) /* Half Duplex mode*/
1451:.\Generated_Source\PSoC5/Display1.c **** 
1452:.\Generated_Source\PSoC5/Display1.c ****             if( (retMode == Display1_SEND_BREAK) ||
1453:.\Generated_Source\PSoC5/Display1.c ****                 (retMode == Display1_SEND_WAIT_REINIT ) )
1454:.\Generated_Source\PSoC5/Display1.c ****             {
1455:.\Generated_Source\PSoC5/Display1.c ****                 /* CTRL_HD_SEND_BREAK - sends break bits in HD mode */
1456:.\Generated_Source\PSoC5/Display1.c ****                 Display1_WriteControlRegister(Display1_ReadControlRegister() |
1457:.\Generated_Source\PSoC5/Display1.c ****                                                       Display1_CTRL_HD_SEND_BREAK);
1458:.\Generated_Source\PSoC5/Display1.c ****                 /* Send zeros */
1459:.\Generated_Source\PSoC5/Display1.c ****                 Display1_TXDATA_REG = 0u;
1460:.\Generated_Source\PSoC5/Display1.c **** 
1461:.\Generated_Source\PSoC5/Display1.c ****                 do /* Wait until transmit starts */
1462:.\Generated_Source\PSoC5/Display1.c ****                 {
1463:.\Generated_Source\PSoC5/Display1.c ****                     tmpStat = Display1_TXSTATUS_REG;
1464:.\Generated_Source\PSoC5/Display1.c ****                 }
1465:.\Generated_Source\PSoC5/Display1.c ****                 while((tmpStat & Display1_TX_STS_FIFO_EMPTY) != 0u);
1466:.\Generated_Source\PSoC5/Display1.c ****             }
1467:.\Generated_Source\PSoC5/Display1.c **** 
1468:.\Generated_Source\PSoC5/Display1.c ****             if( (retMode == Display1_WAIT_FOR_COMPLETE_REINIT) ||
1469:.\Generated_Source\PSoC5/Display1.c ****                 (retMode == Display1_SEND_WAIT_REINIT) )
1470:.\Generated_Source\PSoC5/Display1.c ****             {
1471:.\Generated_Source\PSoC5/Display1.c ****                 do /* Wait until transmit complete */
1472:.\Generated_Source\PSoC5/Display1.c ****                 {
1473:.\Generated_Source\PSoC5/Display1.c ****                     tmpStat = Display1_TXSTATUS_REG;
1474:.\Generated_Source\PSoC5/Display1.c ****                 }
1475:.\Generated_Source\PSoC5/Display1.c ****                 while(((uint8)~tmpStat & Display1_TX_STS_COMPLETE) != 0u);
1476:.\Generated_Source\PSoC5/Display1.c ****             }
1477:.\Generated_Source\PSoC5/Display1.c **** 
1478:.\Generated_Source\PSoC5/Display1.c ****             if( (retMode == Display1_WAIT_FOR_COMPLETE_REINIT) ||
1479:.\Generated_Source\PSoC5/Display1.c ****                 (retMode == Display1_REINIT) ||
1480:.\Generated_Source\PSoC5/Display1.c ****                 (retMode == Display1_SEND_WAIT_REINIT) )
1481:.\Generated_Source\PSoC5/Display1.c ****             {
1482:.\Generated_Source\PSoC5/Display1.c ****                 Display1_WriteControlRegister(Display1_ReadControlRegister() &
1483:.\Generated_Source\PSoC5/Display1.c ****                                               (uint8)~Display1_CTRL_HD_SEND_BREAK);
1484:.\Generated_Source\PSoC5/Display1.c ****             }
1485:.\Generated_Source\PSoC5/Display1.c **** 
1486:.\Generated_Source\PSoC5/Display1.c ****         #else /* Display1_HD_ENABLED Full Duplex mode */
1487:.\Generated_Source\PSoC5/Display1.c **** 
1488:.\Generated_Source\PSoC5/Display1.c ****             static uint8 txPeriod;
1489:.\Generated_Source\PSoC5/Display1.c **** 
1490:.\Generated_Source\PSoC5/Display1.c ****             if( (retMode == Display1_SEND_BREAK) ||
 1175              		.loc 1 1490 0
 1176 0006 08B1     		cbz	r0, .L114
 1177              		.loc 1 1490 0 is_stmt 0 discriminator 1
 1178 0008 0328     		cmp	r0, #3
ARM GAS  C:\Users\RECEPC~1\AppData\Local\Temp\cclIxQZ0.s 			page 48


 1179 000a 0DD1     		bne	.L115
 1180              	.L114:
1491:.\Generated_Source\PSoC5/Display1.c ****                 (retMode == Display1_SEND_WAIT_REINIT) )
1492:.\Generated_Source\PSoC5/Display1.c ****             {
1493:.\Generated_Source\PSoC5/Display1.c ****                 /* CTRL_HD_SEND_BREAK - skip to send parity bit at Break signal in Full Duplex mode
1494:.\Generated_Source\PSoC5/Display1.c ****                 #if( (Display1_PARITY_TYPE != Display1__B_UART__NONE_REVB) || \
1495:.\Generated_Source\PSoC5/Display1.c ****                                     (Display1_PARITY_TYPE_SW != 0u) )
1496:.\Generated_Source\PSoC5/Display1.c ****                     Display1_WriteControlRegister(Display1_ReadControlRegister() |
1497:.\Generated_Source\PSoC5/Display1.c ****                                                           Display1_CTRL_HD_SEND_BREAK);
1498:.\Generated_Source\PSoC5/Display1.c ****                 #endif /* End Display1_PARITY_TYPE != Display1__B_UART__NONE_REVB  */
1499:.\Generated_Source\PSoC5/Display1.c **** 
1500:.\Generated_Source\PSoC5/Display1.c ****                 #if(Display1_TXCLKGEN_DP)
1501:.\Generated_Source\PSoC5/Display1.c ****                     txPeriod = Display1_TXBITCLKTX_COMPLETE_REG;
 1181              		.loc 1 1501 0 is_stmt 1
 1182 000c 104B     		ldr	r3, .L119+4
 1183 000e 1978     		ldrb	r1, [r3]	@ zero_extendqisi2
 1184 0010 0E4A     		ldr	r2, .L119
 1185 0012 9171     		strb	r1, [r2, #6]
1502:.\Generated_Source\PSoC5/Display1.c ****                     Display1_TXBITCLKTX_COMPLETE_REG = Display1_TXBITCTR_BREAKBITS;
 1186              		.loc 1 1502 0
 1187 0014 6722     		movs	r2, #103
 1188 0016 1A70     		strb	r2, [r3]
1503:.\Generated_Source\PSoC5/Display1.c ****                 #else
1504:.\Generated_Source\PSoC5/Display1.c ****                     txPeriod = Display1_TXBITCTR_PERIOD_REG;
1505:.\Generated_Source\PSoC5/Display1.c ****                     Display1_TXBITCTR_PERIOD_REG = Display1_TXBITCTR_BREAKBITS8X;
1506:.\Generated_Source\PSoC5/Display1.c ****                 #endif /* End Display1_TXCLKGEN_DP */
1507:.\Generated_Source\PSoC5/Display1.c **** 
1508:.\Generated_Source\PSoC5/Display1.c ****                 /* Send zeros */
1509:.\Generated_Source\PSoC5/Display1.c ****                 Display1_TXDATA_REG = 0u;
 1189              		.loc 1 1509 0
 1190 0018 0022     		movs	r2, #0
 1191 001a F03B     		subs	r3, r3, #240
 1192 001c 1A70     		strb	r2, [r3]
 1193              	.L116:
1510:.\Generated_Source\PSoC5/Display1.c **** 
1511:.\Generated_Source\PSoC5/Display1.c ****                 do /* Wait until transmit starts */
1512:.\Generated_Source\PSoC5/Display1.c ****                 {
1513:.\Generated_Source\PSoC5/Display1.c ****                     tmpStat = Display1_TXSTATUS_REG;
 1194              		.loc 1 1513 0 discriminator 1
 1195 001e 0D4B     		ldr	r3, .L119+8
 1196 0020 1B78     		ldrb	r3, [r3]	@ zero_extendqisi2
 1197              	.LVL87:
1514:.\Generated_Source\PSoC5/Display1.c ****                 }
1515:.\Generated_Source\PSoC5/Display1.c ****                 while((tmpStat & Display1_TX_STS_FIFO_EMPTY) != 0u);
 1198              		.loc 1 1515 0 discriminator 1
 1199 0022 13F0020F 		tst	r3, #2
 1200 0026 FAD1     		bne	.L116
 1201              	.LVL88:
 1202              	.L115:
1516:.\Generated_Source\PSoC5/Display1.c ****             }
1517:.\Generated_Source\PSoC5/Display1.c **** 
1518:.\Generated_Source\PSoC5/Display1.c ****             if( (retMode == Display1_WAIT_FOR_COMPLETE_REINIT) ||
 1203              		.loc 1 1518 0
 1204 0028 0128     		cmp	r0, #1
 1205 002a 01D0     		beq	.L117
 1206              		.loc 1 1518 0 is_stmt 0 discriminator 1
 1207 002c 0328     		cmp	r0, #3
ARM GAS  C:\Users\RECEPC~1\AppData\Local\Temp\cclIxQZ0.s 			page 49


 1208 002e 04D1     		bne	.L118
 1209              	.L117:
1519:.\Generated_Source\PSoC5/Display1.c ****                 (retMode == Display1_SEND_WAIT_REINIT) )
1520:.\Generated_Source\PSoC5/Display1.c ****             {
1521:.\Generated_Source\PSoC5/Display1.c ****                 do /* Wait until transmit complete */
1522:.\Generated_Source\PSoC5/Display1.c ****                 {
1523:.\Generated_Source\PSoC5/Display1.c ****                     tmpStat = Display1_TXSTATUS_REG;
 1210              		.loc 1 1523 0 is_stmt 1 discriminator 1
 1211 0030 084B     		ldr	r3, .L119+8
 1212 0032 1B78     		ldrb	r3, [r3]	@ zero_extendqisi2
 1213              	.LVL89:
1524:.\Generated_Source\PSoC5/Display1.c ****                 }
1525:.\Generated_Source\PSoC5/Display1.c ****                 while(((uint8)~tmpStat & Display1_TX_STS_COMPLETE) != 0u);
 1214              		.loc 1 1525 0 discriminator 1
 1215 0034 13F0010F 		tst	r3, #1
 1216 0038 FAD0     		beq	.L117
 1217              	.LVL90:
 1218              	.L118:
1526:.\Generated_Source\PSoC5/Display1.c ****             }
1527:.\Generated_Source\PSoC5/Display1.c **** 
1528:.\Generated_Source\PSoC5/Display1.c ****             if( (retMode == Display1_WAIT_FOR_COMPLETE_REINIT) ||
1529:.\Generated_Source\PSoC5/Display1.c ****                 (retMode == Display1_REINIT) ||
 1219              		.loc 1 1529 0
 1220 003a 0138     		subs	r0, r0, #1
 1221              	.LVL91:
 1222 003c C0B2     		uxtb	r0, r0
1528:.\Generated_Source\PSoC5/Display1.c ****                 (retMode == Display1_REINIT) ||
 1223              		.loc 1 1528 0
 1224 003e 0228     		cmp	r0, #2
 1225 0040 03D8     		bhi	.L112
1530:.\Generated_Source\PSoC5/Display1.c ****                 (retMode == Display1_SEND_WAIT_REINIT) )
1531:.\Generated_Source\PSoC5/Display1.c ****             {
1532:.\Generated_Source\PSoC5/Display1.c **** 
1533:.\Generated_Source\PSoC5/Display1.c ****             #if(Display1_TXCLKGEN_DP)
1534:.\Generated_Source\PSoC5/Display1.c ****                 Display1_TXBITCLKTX_COMPLETE_REG = txPeriod;
 1226              		.loc 1 1534 0
 1227 0042 024B     		ldr	r3, .L119
 1228 0044 9A79     		ldrb	r2, [r3, #6]	@ zero_extendqisi2
 1229 0046 024B     		ldr	r3, .L119+4
 1230 0048 1A70     		strb	r2, [r3]
 1231              	.L112:
 1232 004a 7047     		bx	lr
 1233              	.L120:
 1234              		.align	2
 1235              	.L119:
 1236 004c 00000000 		.word	.LANCHOR0
 1237 0050 37650040 		.word	1073767735
 1238 0054 68640040 		.word	1073767528
 1239              	.LBE2:
 1240              		.cfi_endproc
 1241              	.LFE25:
 1242              		.size	Display1_SendBreak, .-Display1_SendBreak
 1243              		.section	.text.Display1_SetTxAddressMode,"ax",%progbits
 1244              		.align	2
 1245              		.global	Display1_SetTxAddressMode
 1246              		.thumb
 1247              		.thumb_func
ARM GAS  C:\Users\RECEPC~1\AppData\Local\Temp\cclIxQZ0.s 			page 50


 1248              		.type	Display1_SetTxAddressMode, %function
 1249              	Display1_SetTxAddressMode:
 1250              	.LFB26:
1535:.\Generated_Source\PSoC5/Display1.c ****             #else
1536:.\Generated_Source\PSoC5/Display1.c ****                 Display1_TXBITCTR_PERIOD_REG = txPeriod;
1537:.\Generated_Source\PSoC5/Display1.c ****             #endif /* End Display1_TXCLKGEN_DP */
1538:.\Generated_Source\PSoC5/Display1.c **** 
1539:.\Generated_Source\PSoC5/Display1.c ****             #if( (Display1_PARITY_TYPE != Display1__B_UART__NONE_REVB) || \
1540:.\Generated_Source\PSoC5/Display1.c ****                  (Display1_PARITY_TYPE_SW != 0u) )
1541:.\Generated_Source\PSoC5/Display1.c ****                 Display1_WriteControlRegister(Display1_ReadControlRegister() &
1542:.\Generated_Source\PSoC5/Display1.c ****                                                       (uint8) ~Display1_CTRL_HD_SEND_BREAK);
1543:.\Generated_Source\PSoC5/Display1.c ****             #endif /* End Display1_PARITY_TYPE != NONE */
1544:.\Generated_Source\PSoC5/Display1.c ****             }
1545:.\Generated_Source\PSoC5/Display1.c ****         #endif    /* End Display1_HD_ENABLED */
1546:.\Generated_Source\PSoC5/Display1.c ****         }
1547:.\Generated_Source\PSoC5/Display1.c ****     }
1548:.\Generated_Source\PSoC5/Display1.c **** 
1549:.\Generated_Source\PSoC5/Display1.c **** 
1550:.\Generated_Source\PSoC5/Display1.c ****     /*******************************************************************************
1551:.\Generated_Source\PSoC5/Display1.c ****     * Function Name: Display1_SetTxAddressMode
1552:.\Generated_Source\PSoC5/Display1.c ****     ********************************************************************************
1553:.\Generated_Source\PSoC5/Display1.c ****     *
1554:.\Generated_Source\PSoC5/Display1.c ****     * Summary:
1555:.\Generated_Source\PSoC5/Display1.c ****     *  Configures the transmitter to signal the next bytes is address or data.
1556:.\Generated_Source\PSoC5/Display1.c ****     *
1557:.\Generated_Source\PSoC5/Display1.c ****     * Parameters:
1558:.\Generated_Source\PSoC5/Display1.c ****     *  addressMode: 
1559:.\Generated_Source\PSoC5/Display1.c ****     *       Display1_SET_SPACE - Configure the transmitter to send the next
1560:.\Generated_Source\PSoC5/Display1.c ****     *                                    byte as a data.
1561:.\Generated_Source\PSoC5/Display1.c ****     *       Display1_SET_MARK  - Configure the transmitter to send the next
1562:.\Generated_Source\PSoC5/Display1.c ****     *                                    byte as an address.
1563:.\Generated_Source\PSoC5/Display1.c ****     *
1564:.\Generated_Source\PSoC5/Display1.c ****     * Return:
1565:.\Generated_Source\PSoC5/Display1.c ****     *  None.
1566:.\Generated_Source\PSoC5/Display1.c ****     *
1567:.\Generated_Source\PSoC5/Display1.c ****     * Side Effects:
1568:.\Generated_Source\PSoC5/Display1.c ****     *  This function sets and clears Display1_CTRL_MARK bit in the Control
1569:.\Generated_Source\PSoC5/Display1.c ****     *  register.
1570:.\Generated_Source\PSoC5/Display1.c ****     *
1571:.\Generated_Source\PSoC5/Display1.c ****     *******************************************************************************/
1572:.\Generated_Source\PSoC5/Display1.c ****     void Display1_SetTxAddressMode(uint8 addressMode) 
1573:.\Generated_Source\PSoC5/Display1.c ****     {
 1251              		.loc 1 1573 0
 1252              		.cfi_startproc
 1253              		@ args = 0, pretend = 0, frame = 0
 1254              		@ frame_needed = 0, uses_anonymous_args = 0
 1255              		@ link register save eliminated.
 1256              	.LVL92:
 1257 0000 7047     		bx	lr
 1258              		.cfi_endproc
 1259              	.LFE26:
 1260              		.size	Display1_SetTxAddressMode, .-Display1_SetTxAddressMode
 1261              		.global	Display1_rxBufferOverflow
 1262              		.global	Display1_rxBufferLoopDetect
 1263              		.global	Display1_rxBufferWrite
 1264              		.global	Display1_rxBufferRead
 1265              		.comm	Display1_rxBuffer,32,4
ARM GAS  C:\Users\RECEPC~1\AppData\Local\Temp\cclIxQZ0.s 			page 51


 1266              		.global	Display1_errorStatus
 1267              		.global	Display1_initVar
 1268 0002 00BF     		.bss
 1269              		.set	.LANCHOR0,. + 0
 1270              		.type	Display1_errorStatus, %object
 1271              		.size	Display1_errorStatus, 1
 1272              	Display1_errorStatus:
 1273 0000 00       		.space	1
 1274              		.type	Display1_initVar, %object
 1275              		.size	Display1_initVar, 1
 1276              	Display1_initVar:
 1277 0001 00       		.space	1
 1278              		.type	Display1_rxBufferRead, %object
 1279              		.size	Display1_rxBufferRead, 1
 1280              	Display1_rxBufferRead:
 1281 0002 00       		.space	1
 1282              		.type	Display1_rxBufferWrite, %object
 1283              		.size	Display1_rxBufferWrite, 1
 1284              	Display1_rxBufferWrite:
 1285 0003 00       		.space	1
 1286              		.type	Display1_rxBufferLoopDetect, %object
 1287              		.size	Display1_rxBufferLoopDetect, 1
 1288              	Display1_rxBufferLoopDetect:
 1289 0004 00       		.space	1
 1290              		.type	Display1_rxBufferOverflow, %object
 1291              		.size	Display1_rxBufferOverflow, 1
 1292              	Display1_rxBufferOverflow:
 1293 0005 00       		.space	1
 1294              		.type	txPeriod.5008, %object
 1295              		.size	txPeriod.5008, 1
 1296              	txPeriod.5008:
 1297 0006 00       		.space	1
 1298              		.text
 1299              	.Letext0:
 1300              		.file 2 ".\\Generated_Source\\PSoC5\\cytypes.h"
 1301              		.file 3 ".\\Generated_Source\\PSoC5\\CyLib.h"
 1302              		.file 4 ".\\Generated_Source\\PSoC5\\Display1_IntClock.h"