ARM GAS  C:\Users\RECEPC~1\AppData\Local\Temp\cclIxQZ0.s 			page 1


   1              		.syntax unified
   2              		.cpu cortex-m3
   3              		.fpu softvfp
   4              		.eabi_attribute 20, 1
   5              		.eabi_attribute 21, 1
   6              		.eabi_attribute 23, 3
   7              		.eabi_attribute 24, 1
   8              		.eabi_attribute 25, 1
   9              		.eabi_attribute 26, 1
  10              		.eabi_attribute 30, 1
  11              		.eabi_attribute 34, 1
  12              		.eabi_attribute 18, 4
  13              		.thumb
  14              		.file	"Display1.c"
  15              		.text
  16              	.Ltext0:
  17              		.cfi_sections	.debug_frame
  18              		.section	.text.Display1_Init,"ax",%progbits
  19              		.align	2
  20              		.global	Display1_Init
  21              		.thumb
  22              		.thumb_func
  23              		.type	Display1_Init, %function
  24              	Display1_Init:
  25              	.LFB1:
  26              		.file 1 ".\\Generated_Source\\PSoC5\\Display1.c"
   1:.\Generated_Source\PSoC5/Display1.c **** /*******************************************************************************
   2:.\Generated_Source\PSoC5/Display1.c **** * File Name: Display1.c
   3:.\Generated_Source\PSoC5/Display1.c **** * Version 2.50
   4:.\Generated_Source\PSoC5/Display1.c **** *
   5:.\Generated_Source\PSoC5/Display1.c **** * Description:
   6:.\Generated_Source\PSoC5/Display1.c **** *  This file provides all API functionality of the UART component
   7:.\Generated_Source\PSoC5/Display1.c **** *
   8:.\Generated_Source\PSoC5/Display1.c **** * Note:
   9:.\Generated_Source\PSoC5/Display1.c **** *
  10:.\Generated_Source\PSoC5/Display1.c **** ********************************************************************************
  11:.\Generated_Source\PSoC5/Display1.c **** * Copyright 2008-2015, Cypress Semiconductor Corporation.  All rights reserved.
  12:.\Generated_Source\PSoC5/Display1.c **** * You may use this file only in accordance with the license, terms, conditions,
  13:.\Generated_Source\PSoC5/Display1.c **** * disclaimers, and limitations in the end user license agreement accompanying
  14:.\Generated_Source\PSoC5/Display1.c **** * the software package with which this file was provided.
  15:.\Generated_Source\PSoC5/Display1.c **** *******************************************************************************/
  16:.\Generated_Source\PSoC5/Display1.c **** 
  17:.\Generated_Source\PSoC5/Display1.c **** #include "Display1.h"
  18:.\Generated_Source\PSoC5/Display1.c **** #if (Display1_INTERNAL_CLOCK_USED)
  19:.\Generated_Source\PSoC5/Display1.c ****     #include "Display1_IntClock.h"
  20:.\Generated_Source\PSoC5/Display1.c **** #endif /* End Display1_INTERNAL_CLOCK_USED */
  21:.\Generated_Source\PSoC5/Display1.c **** 
  22:.\Generated_Source\PSoC5/Display1.c **** 
  23:.\Generated_Source\PSoC5/Display1.c **** /***************************************
  24:.\Generated_Source\PSoC5/Display1.c **** * Global data allocation
  25:.\Generated_Source\PSoC5/Display1.c **** ***************************************/
  26:.\Generated_Source\PSoC5/Display1.c **** 
  27:.\Generated_Source\PSoC5/Display1.c **** uint8 Display1_initVar = 0u;
  28:.\Generated_Source\PSoC5/Display1.c **** 
  29:.\Generated_Source\PSoC5/Display1.c **** #if (Display1_TX_INTERRUPT_ENABLED && Display1_TX_ENABLED)
  30:.\Generated_Source\PSoC5/Display1.c ****     volatile uint8 Display1_txBuffer[Display1_TX_BUFFER_SIZE];
  31:.\Generated_Source\PSoC5/Display1.c ****     volatile uint8 Display1_txBufferRead = 0u;
ARM GAS  C:\Users\RECEPC~1\AppData\Local\Temp\cclIxQZ0.s 			page 2


  32:.\Generated_Source\PSoC5/Display1.c ****     uint8 Display1_txBufferWrite = 0u;
  33:.\Generated_Source\PSoC5/Display1.c **** #endif /* (Display1_TX_INTERRUPT_ENABLED && Display1_TX_ENABLED) */
  34:.\Generated_Source\PSoC5/Display1.c **** 
  35:.\Generated_Source\PSoC5/Display1.c **** #if (Display1_RX_INTERRUPT_ENABLED && (Display1_RX_ENABLED || Display1_HD_ENABLED))
  36:.\Generated_Source\PSoC5/Display1.c ****     uint8 Display1_errorStatus = 0u;
  37:.\Generated_Source\PSoC5/Display1.c ****     volatile uint8 Display1_rxBuffer[Display1_RX_BUFFER_SIZE];
  38:.\Generated_Source\PSoC5/Display1.c ****     volatile uint8 Display1_rxBufferRead  = 0u;
  39:.\Generated_Source\PSoC5/Display1.c ****     volatile uint8 Display1_rxBufferWrite = 0u;
  40:.\Generated_Source\PSoC5/Display1.c ****     volatile uint8 Display1_rxBufferLoopDetect = 0u;
  41:.\Generated_Source\PSoC5/Display1.c ****     volatile uint8 Display1_rxBufferOverflow   = 0u;
  42:.\Generated_Source\PSoC5/Display1.c ****     #if (Display1_RXHW_ADDRESS_ENABLED)
  43:.\Generated_Source\PSoC5/Display1.c ****         volatile uint8 Display1_rxAddressMode = Display1_RX_ADDRESS_MODE;
  44:.\Generated_Source\PSoC5/Display1.c ****         volatile uint8 Display1_rxAddressDetected = 0u;
  45:.\Generated_Source\PSoC5/Display1.c ****     #endif /* (Display1_RXHW_ADDRESS_ENABLED) */
  46:.\Generated_Source\PSoC5/Display1.c **** #endif /* (Display1_RX_INTERRUPT_ENABLED && (Display1_RX_ENABLED || Display1_HD_ENABLED)) */
  47:.\Generated_Source\PSoC5/Display1.c **** 
  48:.\Generated_Source\PSoC5/Display1.c **** 
  49:.\Generated_Source\PSoC5/Display1.c **** /*******************************************************************************
  50:.\Generated_Source\PSoC5/Display1.c **** * Function Name: Display1_Start
  51:.\Generated_Source\PSoC5/Display1.c **** ********************************************************************************
  52:.\Generated_Source\PSoC5/Display1.c **** *
  53:.\Generated_Source\PSoC5/Display1.c **** * Summary:
  54:.\Generated_Source\PSoC5/Display1.c **** *  This is the preferred method to begin component operation.
  55:.\Generated_Source\PSoC5/Display1.c **** *  Display1_Start() sets the initVar variable, calls the
  56:.\Generated_Source\PSoC5/Display1.c **** *  Display1_Init() function, and then calls the
  57:.\Generated_Source\PSoC5/Display1.c **** *  Display1_Enable() function.
  58:.\Generated_Source\PSoC5/Display1.c **** *
  59:.\Generated_Source\PSoC5/Display1.c **** * Parameters:
  60:.\Generated_Source\PSoC5/Display1.c **** *  None.
  61:.\Generated_Source\PSoC5/Display1.c **** *
  62:.\Generated_Source\PSoC5/Display1.c **** * Return:
  63:.\Generated_Source\PSoC5/Display1.c **** *  None.
  64:.\Generated_Source\PSoC5/Display1.c **** *
  65:.\Generated_Source\PSoC5/Display1.c **** * Global variables:
  66:.\Generated_Source\PSoC5/Display1.c **** *  The Display1_intiVar variable is used to indicate initial
  67:.\Generated_Source\PSoC5/Display1.c **** *  configuration of this component. The variable is initialized to zero (0u)
  68:.\Generated_Source\PSoC5/Display1.c **** *  and set to one (1u) the first time Display1_Start() is called. This
  69:.\Generated_Source\PSoC5/Display1.c **** *  allows for component initialization without re-initialization in all
  70:.\Generated_Source\PSoC5/Display1.c **** *  subsequent calls to the Display1_Start() routine.
  71:.\Generated_Source\PSoC5/Display1.c **** *
  72:.\Generated_Source\PSoC5/Display1.c **** * Reentrant:
  73:.\Generated_Source\PSoC5/Display1.c **** *  No.
  74:.\Generated_Source\PSoC5/Display1.c **** *
  75:.\Generated_Source\PSoC5/Display1.c **** *******************************************************************************/
  76:.\Generated_Source\PSoC5/Display1.c **** void Display1_Start(void) 
  77:.\Generated_Source\PSoC5/Display1.c **** {
  78:.\Generated_Source\PSoC5/Display1.c ****     /* If not initialized then initialize all required hardware and software */
  79:.\Generated_Source\PSoC5/Display1.c ****     if(Display1_initVar == 0u)
  80:.\Generated_Source\PSoC5/Display1.c ****     {
  81:.\Generated_Source\PSoC5/Display1.c ****         Display1_Init();
  82:.\Generated_Source\PSoC5/Display1.c ****         Display1_initVar = 1u;
  83:.\Generated_Source\PSoC5/Display1.c ****     }
  84:.\Generated_Source\PSoC5/Display1.c **** 
  85:.\Generated_Source\PSoC5/Display1.c ****     Display1_Enable();
  86:.\Generated_Source\PSoC5/Display1.c **** }
  87:.\Generated_Source\PSoC5/Display1.c **** 
  88:.\Generated_Source\PSoC5/Display1.c **** 
ARM GAS  C:\Users\RECEPC~1\AppData\Local\Temp\cclIxQZ0.s 			page 3


  89:.\Generated_Source\PSoC5/Display1.c **** /*******************************************************************************
  90:.\Generated_Source\PSoC5/Display1.c **** * Function Name: Display1_Init
  91:.\Generated_Source\PSoC5/Display1.c **** ********************************************************************************
  92:.\Generated_Source\PSoC5/Display1.c **** *
  93:.\Generated_Source\PSoC5/Display1.c **** * Summary:
  94:.\Generated_Source\PSoC5/Display1.c **** *  Initializes or restores the component according to the customizer Configure
  95:.\Generated_Source\PSoC5/Display1.c **** *  dialog settings. It is not necessary to call Display1_Init() because
  96:.\Generated_Source\PSoC5/Display1.c **** *  the Display1_Start() API calls this function and is the preferred
  97:.\Generated_Source\PSoC5/Display1.c **** *  method to begin component operation.
  98:.\Generated_Source\PSoC5/Display1.c **** *
  99:.\Generated_Source\PSoC5/Display1.c **** * Parameters:
 100:.\Generated_Source\PSoC5/Display1.c **** *  None.
 101:.\Generated_Source\PSoC5/Display1.c **** *
 102:.\Generated_Source\PSoC5/Display1.c **** * Return:
 103:.\Generated_Source\PSoC5/Display1.c **** *  None.
 104:.\Generated_Source\PSoC5/Display1.c **** *
 105:.\Generated_Source\PSoC5/Display1.c **** *******************************************************************************/
 106:.\Generated_Source\PSoC5/Display1.c **** void Display1_Init(void) 
 107:.\Generated_Source\PSoC5/Display1.c **** {
  27              		.loc 1 107 0
  28              		.cfi_startproc
  29              		@ args = 0, pretend = 0, frame = 0
  30              		@ frame_needed = 0, uses_anonymous_args = 0
  31 0000 08B5     		push	{r3, lr}
  32              		.cfi_def_cfa_offset 8
  33              		.cfi_offset 3, -8
  34              		.cfi_offset 14, -4
 108:.\Generated_Source\PSoC5/Display1.c ****     #if(Display1_RX_ENABLED || Display1_HD_ENABLED)
 109:.\Generated_Source\PSoC5/Display1.c **** 
 110:.\Generated_Source\PSoC5/Display1.c ****         #if (Display1_RX_INTERRUPT_ENABLED)
 111:.\Generated_Source\PSoC5/Display1.c ****             /* Set RX interrupt vector and priority */
 112:.\Generated_Source\PSoC5/Display1.c ****             (void) CyIntSetVector(Display1_RX_VECT_NUM, &Display1_RXISR);
  35              		.loc 1 112 0
  36 0002 0020     		movs	r0, #0
  37 0004 0C49     		ldr	r1, .L3
  38 0006 FFF7FEFF 		bl	CyIntSetVector
  39              	.LVL0:
 113:.\Generated_Source\PSoC5/Display1.c ****             CyIntSetPriority(Display1_RX_VECT_NUM, Display1_RX_PRIOR_NUM);
  40              		.loc 1 113 0
  41 000a 0020     		movs	r0, #0
  42 000c 0721     		movs	r1, #7
  43 000e FFF7FEFF 		bl	CyIntSetPriority
  44              	.LVL1:
 114:.\Generated_Source\PSoC5/Display1.c ****             Display1_errorStatus = 0u;
  45              		.loc 1 114 0
  46 0012 0023     		movs	r3, #0
  47 0014 094A     		ldr	r2, .L3+4
  48 0016 1370     		strb	r3, [r2]
 115:.\Generated_Source\PSoC5/Display1.c ****         #endif /* (Display1_RX_INTERRUPT_ENABLED) */
 116:.\Generated_Source\PSoC5/Display1.c **** 
 117:.\Generated_Source\PSoC5/Display1.c ****         #if (Display1_RXHW_ADDRESS_ENABLED)
 118:.\Generated_Source\PSoC5/Display1.c ****             Display1_SetRxAddressMode(Display1_RX_ADDRESS_MODE);
 119:.\Generated_Source\PSoC5/Display1.c ****             Display1_SetRxAddress1(Display1_RX_HW_ADDRESS1);
 120:.\Generated_Source\PSoC5/Display1.c ****             Display1_SetRxAddress2(Display1_RX_HW_ADDRESS2);
 121:.\Generated_Source\PSoC5/Display1.c ****         #endif /* End Display1_RXHW_ADDRESS_ENABLED */
 122:.\Generated_Source\PSoC5/Display1.c **** 
 123:.\Generated_Source\PSoC5/Display1.c ****         /* Init Count7 period */
ARM GAS  C:\Users\RECEPC~1\AppData\Local\Temp\cclIxQZ0.s 			page 4


 124:.\Generated_Source\PSoC5/Display1.c ****         Display1_RXBITCTR_PERIOD_REG = Display1_RXBITCTR_INIT;
  49              		.loc 1 124 0
  50 0018 7221     		movs	r1, #114
  51 001a 094A     		ldr	r2, .L3+8
  52 001c 1170     		strb	r1, [r2]
 125:.\Generated_Source\PSoC5/Display1.c ****         /* Configure the Initial RX interrupt mask */
 126:.\Generated_Source\PSoC5/Display1.c ****         Display1_RXSTATUS_MASK_REG  = Display1_INIT_RX_INTERRUPTS_MASK;
  53              		.loc 1 126 0
  54 001e 2021     		movs	r1, #32
  55 0020 FF3A     		subs	r2, r2, #255
  56 0022 1170     		strb	r1, [r2]
 127:.\Generated_Source\PSoC5/Display1.c ****     #endif /* End Display1_RX_ENABLED || Display1_HD_ENABLED*/
 128:.\Generated_Source\PSoC5/Display1.c **** 
 129:.\Generated_Source\PSoC5/Display1.c ****     #if(Display1_TX_ENABLED)
 130:.\Generated_Source\PSoC5/Display1.c ****         #if (Display1_TX_INTERRUPT_ENABLED)
 131:.\Generated_Source\PSoC5/Display1.c ****             /* Set TX interrupt vector and priority */
 132:.\Generated_Source\PSoC5/Display1.c ****             (void) CyIntSetVector(Display1_TX_VECT_NUM, &Display1_TXISR);
 133:.\Generated_Source\PSoC5/Display1.c ****             CyIntSetPriority(Display1_TX_VECT_NUM, Display1_TX_PRIOR_NUM);
 134:.\Generated_Source\PSoC5/Display1.c ****         #endif /* (Display1_TX_INTERRUPT_ENABLED) */
 135:.\Generated_Source\PSoC5/Display1.c **** 
 136:.\Generated_Source\PSoC5/Display1.c ****         /* Write Counter Value for TX Bit Clk Generator*/
 137:.\Generated_Source\PSoC5/Display1.c ****         #if (Display1_TXCLKGEN_DP)
 138:.\Generated_Source\PSoC5/Display1.c ****             Display1_TXBITCLKGEN_CTR_REG = Display1_BIT_CENTER;
  57              		.loc 1 138 0
  58 0024 0621     		movs	r1, #6
  59 0026 A132     		adds	r2, r2, #161
  60 0028 1170     		strb	r1, [r2]
 139:.\Generated_Source\PSoC5/Display1.c ****             Display1_TXBITCLKTX_COMPLETE_REG = ((Display1_NUMBER_OF_DATA_BITS +
  61              		.loc 1 139 0
  62 002a 4721     		movs	r1, #71
  63 002c 1032     		adds	r2, r2, #16
  64 002e 1170     		strb	r1, [r2]
 140:.\Generated_Source\PSoC5/Display1.c ****                         Display1_NUMBER_OF_START_BIT) * Display1_OVER_SAMPLE_COUNT) - 1u;
 141:.\Generated_Source\PSoC5/Display1.c ****         #else
 142:.\Generated_Source\PSoC5/Display1.c ****             Display1_TXBITCTR_PERIOD_REG = ((Display1_NUMBER_OF_DATA_BITS +
 143:.\Generated_Source\PSoC5/Display1.c ****                         Display1_NUMBER_OF_START_BIT) * Display1_OVER_SAMPLE_8) - 1u;
 144:.\Generated_Source\PSoC5/Display1.c ****         #endif /* End Display1_TXCLKGEN_DP */
 145:.\Generated_Source\PSoC5/Display1.c **** 
 146:.\Generated_Source\PSoC5/Display1.c ****         /* Configure the Initial TX interrupt mask */
 147:.\Generated_Source\PSoC5/Display1.c ****         #if (Display1_TX_INTERRUPT_ENABLED)
 148:.\Generated_Source\PSoC5/Display1.c ****             Display1_TXSTATUS_MASK_REG = Display1_TX_STS_FIFO_EMPTY;
 149:.\Generated_Source\PSoC5/Display1.c ****         #else
 150:.\Generated_Source\PSoC5/Display1.c ****             Display1_TXSTATUS_MASK_REG = Display1_INIT_TX_INTERRUPTS_MASK;
  65              		.loc 1 150 0
  66 0030 AF3A     		subs	r2, r2, #175
  67 0032 1370     		strb	r3, [r2]
  68 0034 08BD     		pop	{r3, pc}
  69              	.L4:
  70 0036 00BF     		.align	2
  71              	.L3:
  72 0038 00000000 		.word	Display1_RXISR
  73 003c 00000000 		.word	.LANCHOR0
  74 0040 85650040 		.word	1073767813
  75              		.cfi_endproc
  76              	.LFE1:
  77              		.size	Display1_Init, .-Display1_Init
  78              		.section	.text.Display1_Enable,"ax",%progbits
ARM GAS  C:\Users\RECEPC~1\AppData\Local\Temp\cclIxQZ0.s 			page 5


  79              		.align	2
  80              		.global	Display1_Enable
  81              		.thumb
  82              		.thumb_func
  83              		.type	Display1_Enable, %function
  84              	Display1_Enable:
  85              	.LFB2:
 151:.\Generated_Source\PSoC5/Display1.c ****         #endif /*End Display1_TX_INTERRUPT_ENABLED*/
 152:.\Generated_Source\PSoC5/Display1.c **** 
 153:.\Generated_Source\PSoC5/Display1.c ****     #endif /* End Display1_TX_ENABLED */
 154:.\Generated_Source\PSoC5/Display1.c **** 
 155:.\Generated_Source\PSoC5/Display1.c ****     #if(Display1_PARITY_TYPE_SW)  /* Write Parity to Control Register */
 156:.\Generated_Source\PSoC5/Display1.c ****         Display1_WriteControlRegister( \
 157:.\Generated_Source\PSoC5/Display1.c ****             (Display1_ReadControlRegister() & (uint8)~Display1_CTRL_PARITY_TYPE_MASK) | \
 158:.\Generated_Source\PSoC5/Display1.c ****             (uint8)(Display1_PARITY_TYPE << Display1_CTRL_PARITY_TYPE0_SHIFT) );
 159:.\Generated_Source\PSoC5/Display1.c ****     #endif /* End Display1_PARITY_TYPE_SW */
 160:.\Generated_Source\PSoC5/Display1.c **** }
 161:.\Generated_Source\PSoC5/Display1.c **** 
 162:.\Generated_Source\PSoC5/Display1.c **** 
 163:.\Generated_Source\PSoC5/Display1.c **** /*******************************************************************************
 164:.\Generated_Source\PSoC5/Display1.c **** * Function Name: Display1_Enable
 165:.\Generated_Source\PSoC5/Display1.c **** ********************************************************************************
 166:.\Generated_Source\PSoC5/Display1.c **** *
 167:.\Generated_Source\PSoC5/Display1.c **** * Summary:
 168:.\Generated_Source\PSoC5/Display1.c **** *  Activates the hardware and begins component operation. It is not necessary
 169:.\Generated_Source\PSoC5/Display1.c **** *  to call Display1_Enable() because the Display1_Start() API
 170:.\Generated_Source\PSoC5/Display1.c **** *  calls this function, which is the preferred method to begin component
 171:.\Generated_Source\PSoC5/Display1.c **** *  operation.
 172:.\Generated_Source\PSoC5/Display1.c **** 
 173:.\Generated_Source\PSoC5/Display1.c **** * Parameters:
 174:.\Generated_Source\PSoC5/Display1.c **** *  None.
 175:.\Generated_Source\PSoC5/Display1.c **** *
 176:.\Generated_Source\PSoC5/Display1.c **** * Return:
 177:.\Generated_Source\PSoC5/Display1.c **** *  None.
 178:.\Generated_Source\PSoC5/Display1.c **** *
 179:.\Generated_Source\PSoC5/Display1.c **** * Global Variables:
 180:.\Generated_Source\PSoC5/Display1.c **** *  Display1_rxAddressDetected - set to initial state (0).
 181:.\Generated_Source\PSoC5/Display1.c **** *
 182:.\Generated_Source\PSoC5/Display1.c **** *******************************************************************************/
 183:.\Generated_Source\PSoC5/Display1.c **** void Display1_Enable(void) 
 184:.\Generated_Source\PSoC5/Display1.c **** {
  86              		.loc 1 184 0
  87              		.cfi_startproc
  88              		@ args = 0, pretend = 0, frame = 0
  89              		@ frame_needed = 0, uses_anonymous_args = 0
  90 0000 10B5     		push	{r4, lr}
  91              		.cfi_def_cfa_offset 8
  92              		.cfi_offset 4, -8
  93              		.cfi_offset 14, -4
 185:.\Generated_Source\PSoC5/Display1.c ****     uint8 enableInterrupts;
 186:.\Generated_Source\PSoC5/Display1.c ****     enableInterrupts = CyEnterCriticalSection();
  94              		.loc 1 186 0
  95 0002 FFF7FEFF 		bl	CyEnterCriticalSection
  96              	.LVL2:
  97 0006 0446     		mov	r4, r0
  98              	.LVL3:
 187:.\Generated_Source\PSoC5/Display1.c **** 
ARM GAS  C:\Users\RECEPC~1\AppData\Local\Temp\cclIxQZ0.s 			page 6


 188:.\Generated_Source\PSoC5/Display1.c ****     #if (Display1_RX_ENABLED || Display1_HD_ENABLED)
 189:.\Generated_Source\PSoC5/Display1.c ****         /* RX Counter (Count7) Enable */
 190:.\Generated_Source\PSoC5/Display1.c ****         Display1_RXBITCTR_CONTROL_REG |= Display1_CNTR_ENABLE;
  99              		.loc 1 190 0
 100 0008 0B4A     		ldr	r2, .L7
 101 000a 1378     		ldrb	r3, [r2]	@ zero_extendqisi2
 102 000c 43F02003 		orr	r3, r3, #32
 103 0010 1370     		strb	r3, [r2]
 191:.\Generated_Source\PSoC5/Display1.c **** 
 192:.\Generated_Source\PSoC5/Display1.c ****         /* Enable the RX Interrupt */
 193:.\Generated_Source\PSoC5/Display1.c ****         Display1_RXSTATUS_ACTL_REG  |= Display1_INT_ENABLE;
 104              		.loc 1 193 0
 105 0012 FF3A     		subs	r2, r2, #255
 106 0014 1378     		ldrb	r3, [r2]	@ zero_extendqisi2
 107 0016 43F01003 		orr	r3, r3, #16
 108 001a 1370     		strb	r3, [r2]
 194:.\Generated_Source\PSoC5/Display1.c **** 
 195:.\Generated_Source\PSoC5/Display1.c ****         #if (Display1_RX_INTERRUPT_ENABLED)
 196:.\Generated_Source\PSoC5/Display1.c ****             Display1_EnableRxInt();
 109              		.loc 1 196 0
 110 001c 0122     		movs	r2, #1
 111 001e 074B     		ldr	r3, .L7+4
 112 0020 1A60     		str	r2, [r3]
 197:.\Generated_Source\PSoC5/Display1.c **** 
 198:.\Generated_Source\PSoC5/Display1.c ****             #if (Display1_RXHW_ADDRESS_ENABLED)
 199:.\Generated_Source\PSoC5/Display1.c ****                 Display1_rxAddressDetected = 0u;
 200:.\Generated_Source\PSoC5/Display1.c ****             #endif /* (Display1_RXHW_ADDRESS_ENABLED) */
 201:.\Generated_Source\PSoC5/Display1.c ****         #endif /* (Display1_RX_INTERRUPT_ENABLED) */
 202:.\Generated_Source\PSoC5/Display1.c ****     #endif /* (Display1_RX_ENABLED || Display1_HD_ENABLED) */
 203:.\Generated_Source\PSoC5/Display1.c **** 
 204:.\Generated_Source\PSoC5/Display1.c ****     #if(Display1_TX_ENABLED)
 205:.\Generated_Source\PSoC5/Display1.c ****         /* TX Counter (DP/Count7) Enable */
 206:.\Generated_Source\PSoC5/Display1.c ****         #if(!Display1_TXCLKGEN_DP)
 207:.\Generated_Source\PSoC5/Display1.c ****             Display1_TXBITCTR_CONTROL_REG |= Display1_CNTR_ENABLE;
 208:.\Generated_Source\PSoC5/Display1.c ****         #endif /* End Display1_TXCLKGEN_DP */
 209:.\Generated_Source\PSoC5/Display1.c **** 
 210:.\Generated_Source\PSoC5/Display1.c ****         /* Enable the TX Interrupt */
 211:.\Generated_Source\PSoC5/Display1.c ****         Display1_TXSTATUS_ACTL_REG |= Display1_INT_ENABLE;
 113              		.loc 1 211 0
 114 0022 074A     		ldr	r2, .L7+8
 115 0024 1378     		ldrb	r3, [r2]	@ zero_extendqisi2
 116 0026 43F01003 		orr	r3, r3, #16
 117 002a 1370     		strb	r3, [r2]
 212:.\Generated_Source\PSoC5/Display1.c ****         #if (Display1_TX_INTERRUPT_ENABLED)
 213:.\Generated_Source\PSoC5/Display1.c ****             Display1_ClearPendingTxInt(); /* Clear history of TX_NOT_EMPTY */
 214:.\Generated_Source\PSoC5/Display1.c ****             Display1_EnableTxInt();
 215:.\Generated_Source\PSoC5/Display1.c ****         #endif /* (Display1_TX_INTERRUPT_ENABLED) */
 216:.\Generated_Source\PSoC5/Display1.c ****      #endif /* (Display1_TX_INTERRUPT_ENABLED) */
 217:.\Generated_Source\PSoC5/Display1.c **** 
 218:.\Generated_Source\PSoC5/Display1.c ****     #if (Display1_INTERNAL_CLOCK_USED)
 219:.\Generated_Source\PSoC5/Display1.c ****         Display1_IntClock_Start();  /* Enable the clock */
 118              		.loc 1 219 0
 119 002c FFF7FEFF 		bl	Display1_IntClock_Start
 120              	.LVL4:
 220:.\Generated_Source\PSoC5/Display1.c ****     #endif /* (Display1_INTERNAL_CLOCK_USED) */
 221:.\Generated_Source\PSoC5/Display1.c **** 
 222:.\Generated_Source\PSoC5/Display1.c ****     CyExitCriticalSection(enableInterrupts);
ARM GAS  C:\Users\RECEPC~1\AppData\Local\Temp\cclIxQZ0.s 			page 7


 121              		.loc 1 222 0
 122 0030 2046     		mov	r0, r4
 123 0032 FFF7FEFF 		bl	CyExitCriticalSection
 124              	.LVL5:
 125 0036 10BD     		pop	{r4, pc}
 126              	.LVL6:
 127              	.L8:
 128              		.align	2
 129              	.L7:
 130 0038 95650040 		.word	1073767829
 131 003c 00E100E0 		.word	-536813312
 132 0040 98640040 		.word	1073767576
 133              		.cfi_endproc
 134              	.LFE2:
 135              		.size	Display1_Enable, .-Display1_Enable
 136              		.section	.text.Display1_Start,"ax",%progbits
 137              		.align	2
 138              		.global	Display1_Start
 139              		.thumb
 140              		.thumb_func
 141              		.type	Display1_Start, %function
 142              	Display1_Start:
 143              	.LFB0:
  77:.\Generated_Source\PSoC5/Display1.c ****     /* If not initialized then initialize all required hardware and software */
 144              		.loc 1 77 0
 145              		.cfi_startproc
 146              		@ args = 0, pretend = 0, frame = 0
 147              		@ frame_needed = 0, uses_anonymous_args = 0
 148 0000 08B5     		push	{r3, lr}
 149              		.cfi_def_cfa_offset 8
 150              		.cfi_offset 3, -8
 151              		.cfi_offset 14, -4
  79:.\Generated_Source\PSoC5/Display1.c ****     {
 152              		.loc 1 79 0
 153 0002 054B     		ldr	r3, .L12
 154 0004 5B78     		ldrb	r3, [r3, #1]	@ zero_extendqisi2
 155 0006 23B9     		cbnz	r3, .L10
  81:.\Generated_Source\PSoC5/Display1.c ****         Display1_initVar = 1u;
 156              		.loc 1 81 0
 157 0008 FFF7FEFF 		bl	Display1_Init
 158              	.LVL7:
  82:.\Generated_Source\PSoC5/Display1.c ****     }
 159              		.loc 1 82 0
 160 000c 0122     		movs	r2, #1
 161 000e 024B     		ldr	r3, .L12
 162 0010 5A70     		strb	r2, [r3, #1]
 163              	.L10:
  85:.\Generated_Source\PSoC5/Display1.c **** }
 164              		.loc 1 85 0
 165 0012 FFF7FEFF 		bl	Display1_Enable
 166              	.LVL8:
 167 0016 08BD     		pop	{r3, pc}
 168              	.L13:
 169              		.align	2
 170              	.L12:
 171 0018 00000000 		.word	.LANCHOR0
 172              		.cfi_endproc
ARM GAS  C:\Users\RECEPC~1\AppData\Local\Temp\cclIxQZ0.s 			page 8


 173              	.LFE0:
 174              		.size	Display1_Start, .-Display1_Start
 175              		.section	.text.Display1_Stop,"ax",%progbits
 176              		.align	2
 177              		.global	Display1_Stop
 178              		.thumb
 179              		.thumb_func
 180              		.type	Display1_Stop, %function
 181              	Display1_Stop:
 182              	.LFB3:
 223:.\Generated_Source\PSoC5/Display1.c **** }
 224:.\Generated_Source\PSoC5/Display1.c **** 
 225:.\Generated_Source\PSoC5/Display1.c **** 
 226:.\Generated_Source\PSoC5/Display1.c **** /*******************************************************************************
 227:.\Generated_Source\PSoC5/Display1.c **** * Function Name: Display1_Stop
 228:.\Generated_Source\PSoC5/Display1.c **** ********************************************************************************
 229:.\Generated_Source\PSoC5/Display1.c **** *
 230:.\Generated_Source\PSoC5/Display1.c **** * Summary:
 231:.\Generated_Source\PSoC5/Display1.c **** *  Disables the UART operation.
 232:.\Generated_Source\PSoC5/Display1.c **** *
 233:.\Generated_Source\PSoC5/Display1.c **** * Parameters:
 234:.\Generated_Source\PSoC5/Display1.c **** *  None.
 235:.\Generated_Source\PSoC5/Display1.c **** *
 236:.\Generated_Source\PSoC5/Display1.c **** * Return:
 237:.\Generated_Source\PSoC5/Display1.c **** *  None.
 238:.\Generated_Source\PSoC5/Display1.c **** *
 239:.\Generated_Source\PSoC5/Display1.c **** *******************************************************************************/
 240:.\Generated_Source\PSoC5/Display1.c **** void Display1_Stop(void) 
 241:.\Generated_Source\PSoC5/Display1.c **** {
 183              		.loc 1 241 0
 184              		.cfi_startproc
 185              		@ args = 0, pretend = 0, frame = 0
 186              		@ frame_needed = 0, uses_anonymous_args = 0
 187 0000 10B5     		push	{r4, lr}
 188              		.cfi_def_cfa_offset 8
 189              		.cfi_offset 4, -8
 190              		.cfi_offset 14, -4
 242:.\Generated_Source\PSoC5/Display1.c ****     uint8 enableInterrupts;
 243:.\Generated_Source\PSoC5/Display1.c ****     enableInterrupts = CyEnterCriticalSection();
 191              		.loc 1 243 0
 192 0002 FFF7FEFF 		bl	CyEnterCriticalSection
 193              	.LVL9:
 194 0006 0446     		mov	r4, r0
 195              	.LVL10:
 244:.\Generated_Source\PSoC5/Display1.c **** 
 245:.\Generated_Source\PSoC5/Display1.c ****     /* Write Bit Counter Disable */
 246:.\Generated_Source\PSoC5/Display1.c ****     #if (Display1_RX_ENABLED || Display1_HD_ENABLED)
 247:.\Generated_Source\PSoC5/Display1.c ****         Display1_RXBITCTR_CONTROL_REG &= (uint8) ~Display1_CNTR_ENABLE;
 196              		.loc 1 247 0
 197 0008 0B4A     		ldr	r2, .L16
 198 000a 1378     		ldrb	r3, [r2]	@ zero_extendqisi2
 199 000c 03F0DF03 		and	r3, r3, #223
 200 0010 1370     		strb	r3, [r2]
 248:.\Generated_Source\PSoC5/Display1.c ****     #endif /* (Display1_RX_ENABLED || Display1_HD_ENABLED) */
 249:.\Generated_Source\PSoC5/Display1.c **** 
 250:.\Generated_Source\PSoC5/Display1.c ****     #if (Display1_TX_ENABLED)
 251:.\Generated_Source\PSoC5/Display1.c ****         #if(!Display1_TXCLKGEN_DP)
ARM GAS  C:\Users\RECEPC~1\AppData\Local\Temp\cclIxQZ0.s 			page 9


 252:.\Generated_Source\PSoC5/Display1.c ****             Display1_TXBITCTR_CONTROL_REG &= (uint8) ~Display1_CNTR_ENABLE;
 253:.\Generated_Source\PSoC5/Display1.c ****         #endif /* (!Display1_TXCLKGEN_DP) */
 254:.\Generated_Source\PSoC5/Display1.c ****     #endif /* (Display1_TX_ENABLED) */
 255:.\Generated_Source\PSoC5/Display1.c **** 
 256:.\Generated_Source\PSoC5/Display1.c ****     #if (Display1_INTERNAL_CLOCK_USED)
 257:.\Generated_Source\PSoC5/Display1.c ****         Display1_IntClock_Stop();   /* Disable the clock */
 201              		.loc 1 257 0
 202 0012 FFF7FEFF 		bl	Display1_IntClock_Stop
 203              	.LVL11:
 258:.\Generated_Source\PSoC5/Display1.c ****     #endif /* (Display1_INTERNAL_CLOCK_USED) */
 259:.\Generated_Source\PSoC5/Display1.c **** 
 260:.\Generated_Source\PSoC5/Display1.c ****     /* Disable internal interrupt component */
 261:.\Generated_Source\PSoC5/Display1.c ****     #if (Display1_RX_ENABLED || Display1_HD_ENABLED)
 262:.\Generated_Source\PSoC5/Display1.c ****         Display1_RXSTATUS_ACTL_REG  &= (uint8) ~Display1_INT_ENABLE;
 204              		.loc 1 262 0
 205 0016 094A     		ldr	r2, .L16+4
 206 0018 1378     		ldrb	r3, [r2]	@ zero_extendqisi2
 207 001a 03F0EF03 		and	r3, r3, #239
 208 001e 1370     		strb	r3, [r2]
 263:.\Generated_Source\PSoC5/Display1.c **** 
 264:.\Generated_Source\PSoC5/Display1.c ****         #if (Display1_RX_INTERRUPT_ENABLED)
 265:.\Generated_Source\PSoC5/Display1.c ****             Display1_DisableRxInt();
 209              		.loc 1 265 0
 210 0020 0122     		movs	r2, #1
 211 0022 074B     		ldr	r3, .L16+8
 212 0024 1A60     		str	r2, [r3]
 266:.\Generated_Source\PSoC5/Display1.c ****         #endif /* (Display1_RX_INTERRUPT_ENABLED) */
 267:.\Generated_Source\PSoC5/Display1.c ****     #endif /* (Display1_RX_ENABLED || Display1_HD_ENABLED) */
 268:.\Generated_Source\PSoC5/Display1.c **** 
 269:.\Generated_Source\PSoC5/Display1.c ****     #if (Display1_TX_ENABLED)
 270:.\Generated_Source\PSoC5/Display1.c ****         Display1_TXSTATUS_ACTL_REG &= (uint8) ~Display1_INT_ENABLE;
 213              		.loc 1 270 0
 214 0026 074A     		ldr	r2, .L16+12
 215 0028 1378     		ldrb	r3, [r2]	@ zero_extendqisi2
 216 002a 03F0EF03 		and	r3, r3, #239
 217 002e 1370     		strb	r3, [r2]
 271:.\Generated_Source\PSoC5/Display1.c **** 
 272:.\Generated_Source\PSoC5/Display1.c ****         #if (Display1_TX_INTERRUPT_ENABLED)
 273:.\Generated_Source\PSoC5/Display1.c ****             Display1_DisableTxInt();
 274:.\Generated_Source\PSoC5/Display1.c ****         #endif /* (Display1_TX_INTERRUPT_ENABLED) */
 275:.\Generated_Source\PSoC5/Display1.c ****     #endif /* (Display1_TX_ENABLED) */
 276:.\Generated_Source\PSoC5/Display1.c **** 
 277:.\Generated_Source\PSoC5/Display1.c ****     CyExitCriticalSection(enableInterrupts);
 218              		.loc 1 277 0
 219 0030 2046     		mov	r0, r4
 220 0032 FFF7FEFF 		bl	CyExitCriticalSection
 221              	.LVL12:
 222 0036 10BD     		pop	{r4, pc}
 223              	.LVL13:
 224              	.L17:
 225              		.align	2
 226              	.L16:
 227 0038 95650040 		.word	1073767829
 228 003c 96640040 		.word	1073767574
 229 0040 80E100E0 		.word	-536813184
 230 0044 98640040 		.word	1073767576
 231              		.cfi_endproc
ARM GAS  C:\Users\RECEPC~1\AppData\Local\Temp\cclIxQZ0.s 			page 10


 232              	.LFE3:
 233              		.size	Display1_Stop, .-Display1_Stop
 234              		.section	.text.Display1_ReadControlRegister,"ax",%progbits
 235              		.align	2
 236              		.global	Display1_ReadControlRegister
 237              		.thumb
 238              		.thumb_func
 239              		.type	Display1_ReadControlRegister, %function
 240              	Display1_ReadControlRegister:
 241              	.LFB4:
 278:.\Generated_Source\PSoC5/Display1.c **** }
 279:.\Generated_Source\PSoC5/Display1.c **** 
 280:.\Generated_Source\PSoC5/Display1.c **** 
 281:.\Generated_Source\PSoC5/Display1.c **** /*******************************************************************************
 282:.\Generated_Source\PSoC5/Display1.c **** * Function Name: Display1_ReadControlRegister
 283:.\Generated_Source\PSoC5/Display1.c **** ********************************************************************************
 284:.\Generated_Source\PSoC5/Display1.c **** *
 285:.\Generated_Source\PSoC5/Display1.c **** * Summary:
 286:.\Generated_Source\PSoC5/Display1.c **** *  Returns the current value of the control register.
 287:.\Generated_Source\PSoC5/Display1.c **** *
 288:.\Generated_Source\PSoC5/Display1.c **** * Parameters:
 289:.\Generated_Source\PSoC5/Display1.c **** *  None.
 290:.\Generated_Source\PSoC5/Display1.c **** *
 291:.\Generated_Source\PSoC5/Display1.c **** * Return:
 292:.\Generated_Source\PSoC5/Display1.c **** *  Contents of the control register.
 293:.\Generated_Source\PSoC5/Display1.c **** *
 294:.\Generated_Source\PSoC5/Display1.c **** *******************************************************************************/
 295:.\Generated_Source\PSoC5/Display1.c **** uint8 Display1_ReadControlRegister(void) 
 296:.\Generated_Source\PSoC5/Display1.c **** {
 242              		.loc 1 296 0
 243              		.cfi_startproc
 244              		@ args = 0, pretend = 0, frame = 0
 245              		@ frame_needed = 0, uses_anonymous_args = 0
 246              		@ link register save eliminated.
 297:.\Generated_Source\PSoC5/Display1.c ****     #if (Display1_CONTROL_REG_REMOVED)
 298:.\Generated_Source\PSoC5/Display1.c ****         return(0u);
 299:.\Generated_Source\PSoC5/Display1.c ****     #else
 300:.\Generated_Source\PSoC5/Display1.c ****         return(Display1_CONTROL_REG);
 301:.\Generated_Source\PSoC5/Display1.c ****     #endif /* (Display1_CONTROL_REG_REMOVED) */
 302:.\Generated_Source\PSoC5/Display1.c **** }
 247              		.loc 1 302 0
 248 0000 0020     		movs	r0, #0
 249 0002 7047     		bx	lr
 250              		.cfi_endproc
 251              	.LFE4:
 252              		.size	Display1_ReadControlRegister, .-Display1_ReadControlRegister
 253              		.section	.text.Display1_WriteControlRegister,"ax",%progbits
 254              		.align	2
 255              		.global	Display1_WriteControlRegister
 256              		.thumb
 257              		.thumb_func
 258              		.type	Display1_WriteControlRegister, %function
 259              	Display1_WriteControlRegister:
 260              	.LFB5:
 303:.\Generated_Source\PSoC5/Display1.c **** 
 304:.\Generated_Source\PSoC5/Display1.c **** 
 305:.\Generated_Source\PSoC5/Display1.c **** /*******************************************************************************
ARM GAS  C:\Users\RECEPC~1\AppData\Local\Temp\cclIxQZ0.s 			page 11


 306:.\Generated_Source\PSoC5/Display1.c **** * Function Name: Display1_WriteControlRegister
 307:.\Generated_Source\PSoC5/Display1.c **** ********************************************************************************
 308:.\Generated_Source\PSoC5/Display1.c **** *
 309:.\Generated_Source\PSoC5/Display1.c **** * Summary:
 310:.\Generated_Source\PSoC5/Display1.c **** *  Writes an 8-bit value into the control register
 311:.\Generated_Source\PSoC5/Display1.c **** *
 312:.\Generated_Source\PSoC5/Display1.c **** * Parameters:
 313:.\Generated_Source\PSoC5/Display1.c **** *  control:  control register value
 314:.\Generated_Source\PSoC5/Display1.c **** *
 315:.\Generated_Source\PSoC5/Display1.c **** * Return:
 316:.\Generated_Source\PSoC5/Display1.c **** *  None.
 317:.\Generated_Source\PSoC5/Display1.c **** *
 318:.\Generated_Source\PSoC5/Display1.c **** *******************************************************************************/
 319:.\Generated_Source\PSoC5/Display1.c **** void  Display1_WriteControlRegister(uint8 control) 
 320:.\Generated_Source\PSoC5/Display1.c **** {
 261              		.loc 1 320 0
 262              		.cfi_startproc
 263              		@ args = 0, pretend = 0, frame = 0
 264              		@ frame_needed = 0, uses_anonymous_args = 0
 265              		@ link register save eliminated.
 266              	.LVL14:
 267 0000 7047     		bx	lr
 268              		.cfi_endproc
 269              	.LFE5:
 270              		.size	Display1_WriteControlRegister, .-Display1_WriteControlRegister
 271 0002 00BF     		.section	.text.Display1_SetRxInterruptMode,"ax",%progbits
 272              		.align	2
 273              		.global	Display1_SetRxInterruptMode
 274              		.thumb
 275              		.thumb_func
 276              		.type	Display1_SetRxInterruptMode, %function
 277              	Display1_SetRxInterruptMode:
 278              	.LFB6:
 321:.\Generated_Source\PSoC5/Display1.c ****     #if (Display1_CONTROL_REG_REMOVED)
 322:.\Generated_Source\PSoC5/Display1.c ****         if(0u != control)
 323:.\Generated_Source\PSoC5/Display1.c ****         {
 324:.\Generated_Source\PSoC5/Display1.c ****             /* Suppress compiler warning */
 325:.\Generated_Source\PSoC5/Display1.c ****         }
 326:.\Generated_Source\PSoC5/Display1.c ****     #else
 327:.\Generated_Source\PSoC5/Display1.c ****        Display1_CONTROL_REG = control;
 328:.\Generated_Source\PSoC5/Display1.c ****     #endif /* (Display1_CONTROL_REG_REMOVED) */
 329:.\Generated_Source\PSoC5/Display1.c **** }
 330:.\Generated_Source\PSoC5/Display1.c **** 
 331:.\Generated_Source\PSoC5/Display1.c **** 
 332:.\Generated_Source\PSoC5/Display1.c **** #if(Display1_RX_ENABLED || Display1_HD_ENABLED)
 333:.\Generated_Source\PSoC5/Display1.c ****     /*******************************************************************************
 334:.\Generated_Source\PSoC5/Display1.c ****     * Function Name: Display1_SetRxInterruptMode
 335:.\Generated_Source\PSoC5/Display1.c ****     ********************************************************************************
 336:.\Generated_Source\PSoC5/Display1.c ****     *
 337:.\Generated_Source\PSoC5/Display1.c ****     * Summary:
 338:.\Generated_Source\PSoC5/Display1.c ****     *  Configures the RX interrupt sources enabled.
 339:.\Generated_Source\PSoC5/Display1.c ****     *
 340:.\Generated_Source\PSoC5/Display1.c ****     * Parameters:
 341:.\Generated_Source\PSoC5/Display1.c ****     *  IntSrc:  Bit field containing the RX interrupts to enable. Based on the 
 342:.\Generated_Source\PSoC5/Display1.c ****     *  bit-field arrangement of the status register. This value must be a 
 343:.\Generated_Source\PSoC5/Display1.c ****     *  combination of status register bit-masks shown below:
 344:.\Generated_Source\PSoC5/Display1.c ****     *      Display1_RX_STS_FIFO_NOTEMPTY    Interrupt on byte received.
ARM GAS  C:\Users\RECEPC~1\AppData\Local\Temp\cclIxQZ0.s 			page 12


 345:.\Generated_Source\PSoC5/Display1.c ****     *      Display1_RX_STS_PAR_ERROR        Interrupt on parity error.
 346:.\Generated_Source\PSoC5/Display1.c ****     *      Display1_RX_STS_STOP_ERROR       Interrupt on stop error.
 347:.\Generated_Source\PSoC5/Display1.c ****     *      Display1_RX_STS_BREAK            Interrupt on break.
 348:.\Generated_Source\PSoC5/Display1.c ****     *      Display1_RX_STS_OVERRUN          Interrupt on overrun error.
 349:.\Generated_Source\PSoC5/Display1.c ****     *      Display1_RX_STS_ADDR_MATCH       Interrupt on address match.
 350:.\Generated_Source\PSoC5/Display1.c ****     *      Display1_RX_STS_MRKSPC           Interrupt on address detect.
 351:.\Generated_Source\PSoC5/Display1.c ****     *
 352:.\Generated_Source\PSoC5/Display1.c ****     * Return:
 353:.\Generated_Source\PSoC5/Display1.c ****     *  None.
 354:.\Generated_Source\PSoC5/Display1.c ****     *
 355:.\Generated_Source\PSoC5/Display1.c ****     * Theory:
 356:.\Generated_Source\PSoC5/Display1.c ****     *  Enables the output of specific status bits to the interrupt controller
 357:.\Generated_Source\PSoC5/Display1.c ****     *
 358:.\Generated_Source\PSoC5/Display1.c ****     *******************************************************************************/
 359:.\Generated_Source\PSoC5/Display1.c ****     void Display1_SetRxInterruptMode(uint8 intSrc) 
 360:.\Generated_Source\PSoC5/Display1.c ****     {
 279              		.loc 1 360 0
 280              		.cfi_startproc
 281              		@ args = 0, pretend = 0, frame = 0
 282              		@ frame_needed = 0, uses_anonymous_args = 0
 283              		@ link register save eliminated.
 284              	.LVL15:
 361:.\Generated_Source\PSoC5/Display1.c ****         Display1_RXSTATUS_MASK_REG  = intSrc;
 285              		.loc 1 361 0
 286 0000 014B     		ldr	r3, .L21
 287 0002 1870     		strb	r0, [r3]
 288 0004 7047     		bx	lr
 289              	.L22:
 290 0006 00BF     		.align	2
 291              	.L21:
 292 0008 86640040 		.word	1073767558
 293              		.cfi_endproc
 294              	.LFE6:
 295              		.size	Display1_SetRxInterruptMode, .-Display1_SetRxInterruptMode
 296              		.section	.text.Display1_ReadRxData,"ax",%progbits
 297              		.align	2
 298              		.global	Display1_ReadRxData
 299              		.thumb
 300              		.thumb_func
 301              		.type	Display1_ReadRxData, %function
 302              	Display1_ReadRxData:
 303              	.LFB7:
 362:.\Generated_Source\PSoC5/Display1.c ****     }
 363:.\Generated_Source\PSoC5/Display1.c **** 
 364:.\Generated_Source\PSoC5/Display1.c **** 
 365:.\Generated_Source\PSoC5/Display1.c ****     /*******************************************************************************
 366:.\Generated_Source\PSoC5/Display1.c ****     * Function Name: Display1_ReadRxData
 367:.\Generated_Source\PSoC5/Display1.c ****     ********************************************************************************
 368:.\Generated_Source\PSoC5/Display1.c ****     *
 369:.\Generated_Source\PSoC5/Display1.c ****     * Summary:
 370:.\Generated_Source\PSoC5/Display1.c ****     *  Returns the next byte of received data. This function returns data without
 371:.\Generated_Source\PSoC5/Display1.c ****     *  checking the status. You must check the status separately.
 372:.\Generated_Source\PSoC5/Display1.c ****     *
 373:.\Generated_Source\PSoC5/Display1.c ****     * Parameters:
 374:.\Generated_Source\PSoC5/Display1.c ****     *  None.
 375:.\Generated_Source\PSoC5/Display1.c ****     *
 376:.\Generated_Source\PSoC5/Display1.c ****     * Return:
ARM GAS  C:\Users\RECEPC~1\AppData\Local\Temp\cclIxQZ0.s 			page 13


 377:.\Generated_Source\PSoC5/Display1.c ****     *  Received data from RX register
 378:.\Generated_Source\PSoC5/Display1.c ****     *
 379:.\Generated_Source\PSoC5/Display1.c ****     * Global Variables:
 380:.\Generated_Source\PSoC5/Display1.c ****     *  Display1_rxBuffer - RAM buffer pointer for save received data.
 381:.\Generated_Source\PSoC5/Display1.c ****     *  Display1_rxBufferWrite - cyclic index for write to rxBuffer,
 382:.\Generated_Source\PSoC5/Display1.c ****     *     checked to identify new data.
 383:.\Generated_Source\PSoC5/Display1.c ****     *  Display1_rxBufferRead - cyclic index for read from rxBuffer,
 384:.\Generated_Source\PSoC5/Display1.c ****     *     incremented after each byte has been read from buffer.
 385:.\Generated_Source\PSoC5/Display1.c ****     *  Display1_rxBufferLoopDetect - cleared if loop condition was detected
 386:.\Generated_Source\PSoC5/Display1.c ****     *     in RX ISR.
 387:.\Generated_Source\PSoC5/Display1.c ****     *
 388:.\Generated_Source\PSoC5/Display1.c ****     * Reentrant:
 389:.\Generated_Source\PSoC5/Display1.c ****     *  No.
 390:.\Generated_Source\PSoC5/Display1.c ****     *
 391:.\Generated_Source\PSoC5/Display1.c ****     *******************************************************************************/
 392:.\Generated_Source\PSoC5/Display1.c ****     uint8 Display1_ReadRxData(void) 
 393:.\Generated_Source\PSoC5/Display1.c ****     {
 304              		.loc 1 393 0
 305              		.cfi_startproc
 306              		@ args = 0, pretend = 0, frame = 0
 307              		@ frame_needed = 0, uses_anonymous_args = 0
 308              		@ link register save eliminated.
 394:.\Generated_Source\PSoC5/Display1.c ****         uint8 rxData;
 395:.\Generated_Source\PSoC5/Display1.c **** 
 396:.\Generated_Source\PSoC5/Display1.c ****     #if (Display1_RX_INTERRUPT_ENABLED)
 397:.\Generated_Source\PSoC5/Display1.c **** 
 398:.\Generated_Source\PSoC5/Display1.c ****         uint8 locRxBufferRead;
 399:.\Generated_Source\PSoC5/Display1.c ****         uint8 locRxBufferWrite;
 400:.\Generated_Source\PSoC5/Display1.c **** 
 401:.\Generated_Source\PSoC5/Display1.c ****         /* Protect variables that could change on interrupt */
 402:.\Generated_Source\PSoC5/Display1.c ****         Display1_DisableRxInt();
 309              		.loc 1 402 0
 310 0000 0122     		movs	r2, #1
 311 0002 134B     		ldr	r3, .L29
 312 0004 1A60     		str	r2, [r3]
 403:.\Generated_Source\PSoC5/Display1.c **** 
 404:.\Generated_Source\PSoC5/Display1.c ****         locRxBufferRead  = Display1_rxBufferRead;
 313              		.loc 1 404 0
 314 0006 134A     		ldr	r2, .L29+4
 315 0008 9378     		ldrb	r3, [r2, #2]	@ zero_extendqisi2
 316 000a DBB2     		uxtb	r3, r3
 317              	.LVL16:
 405:.\Generated_Source\PSoC5/Display1.c ****         locRxBufferWrite = Display1_rxBufferWrite;
 318              		.loc 1 405 0
 319 000c D178     		ldrb	r1, [r2, #3]	@ zero_extendqisi2
 320 000e C9B2     		uxtb	r1, r1
 321              	.LVL17:
 406:.\Generated_Source\PSoC5/Display1.c **** 
 407:.\Generated_Source\PSoC5/Display1.c ****         if( (Display1_rxBufferLoopDetect != 0u) || (locRxBufferRead != locRxBufferWrite) )
 322              		.loc 1 407 0
 323 0010 1279     		ldrb	r2, [r2, #4]	@ zero_extendqisi2
 324 0012 12F0FF0F 		tst	r2, #255
 325 0016 01D1     		bne	.L24
 326              		.loc 1 407 0 is_stmt 0 discriminator 1
 327 0018 8B42     		cmp	r3, r1
 328 001a 11D0     		beq	.L25
 329              	.L24:
ARM GAS  C:\Users\RECEPC~1\AppData\Local\Temp\cclIxQZ0.s 			page 14


 408:.\Generated_Source\PSoC5/Display1.c ****         {
 409:.\Generated_Source\PSoC5/Display1.c ****             rxData = Display1_rxBuffer[locRxBufferRead];
 330              		.loc 1 409 0 is_stmt 1
 331 001c 0E4A     		ldr	r2, .L29+8
 332 001e D05C     		ldrb	r0, [r2, r3]	@ zero_extendqisi2
 333 0020 C0B2     		uxtb	r0, r0
 334              	.LVL18:
 410:.\Generated_Source\PSoC5/Display1.c ****             locRxBufferRead++;
 335              		.loc 1 410 0
 336 0022 0133     		adds	r3, r3, #1
 337              	.LVL19:
 338 0024 DBB2     		uxtb	r3, r3
 339              	.LVL20:
 411:.\Generated_Source\PSoC5/Display1.c **** 
 412:.\Generated_Source\PSoC5/Display1.c ****             if(locRxBufferRead >= Display1_RX_BUFFER_SIZE)
 340              		.loc 1 412 0
 341 0026 1F2B     		cmp	r3, #31
 342 0028 00D9     		bls	.L26
 413:.\Generated_Source\PSoC5/Display1.c ****             {
 414:.\Generated_Source\PSoC5/Display1.c ****                 locRxBufferRead = 0u;
 343              		.loc 1 414 0
 344 002a 0023     		movs	r3, #0
 345              	.LVL21:
 346              	.L26:
 415:.\Generated_Source\PSoC5/Display1.c ****             }
 416:.\Generated_Source\PSoC5/Display1.c ****             /* Update the real pointer */
 417:.\Generated_Source\PSoC5/Display1.c ****             Display1_rxBufferRead = locRxBufferRead;
 347              		.loc 1 417 0
 348 002c 094A     		ldr	r2, .L29+4
 349 002e 9370     		strb	r3, [r2, #2]
 418:.\Generated_Source\PSoC5/Display1.c **** 
 419:.\Generated_Source\PSoC5/Display1.c ****             if(Display1_rxBufferLoopDetect != 0u)
 350              		.loc 1 419 0
 351 0030 1379     		ldrb	r3, [r2, #4]	@ zero_extendqisi2
 352              	.LVL22:
 353 0032 13F0FF0F 		tst	r3, #255
 354 0036 06D0     		beq	.L27
 420:.\Generated_Source\PSoC5/Display1.c ****             {
 421:.\Generated_Source\PSoC5/Display1.c ****                 Display1_rxBufferLoopDetect = 0u;
 355              		.loc 1 421 0
 356 0038 0022     		movs	r2, #0
 357 003a 064B     		ldr	r3, .L29+4
 358 003c 1A71     		strb	r2, [r3, #4]
 359              	.LVL23:
 360 003e 02E0     		b	.L27
 361              	.LVL24:
 362              	.L25:
 422:.\Generated_Source\PSoC5/Display1.c ****                 #if ((Display1_RX_INTERRUPT_ENABLED) && (Display1_FLOW_CONTROL != 0u))
 423:.\Generated_Source\PSoC5/Display1.c ****                     /* When Hardware Flow Control selected - return RX mask */
 424:.\Generated_Source\PSoC5/Display1.c ****                     #if( Display1_HD_ENABLED )
 425:.\Generated_Source\PSoC5/Display1.c ****                         if((Display1_CONTROL_REG & Display1_CTRL_HD_SEND) == 0u)
 426:.\Generated_Source\PSoC5/Display1.c ****                         {   /* In Half duplex mode return RX mask only in RX
 427:.\Generated_Source\PSoC5/Display1.c ****                             *  configuration set, otherwise
 428:.\Generated_Source\PSoC5/Display1.c ****                             *  mask will be returned in LoadRxConfig() API.
 429:.\Generated_Source\PSoC5/Display1.c ****                             */
 430:.\Generated_Source\PSoC5/Display1.c ****                             Display1_RXSTATUS_MASK_REG  |= Display1_RX_STS_FIFO_NOTEMPTY;
 431:.\Generated_Source\PSoC5/Display1.c ****                         }
ARM GAS  C:\Users\RECEPC~1\AppData\Local\Temp\cclIxQZ0.s 			page 15


 432:.\Generated_Source\PSoC5/Display1.c ****                     #else
 433:.\Generated_Source\PSoC5/Display1.c ****                         Display1_RXSTATUS_MASK_REG  |= Display1_RX_STS_FIFO_NOTEMPTY;
 434:.\Generated_Source\PSoC5/Display1.c ****                     #endif /* end Display1_HD_ENABLED */
 435:.\Generated_Source\PSoC5/Display1.c ****                 #endif /* ((Display1_RX_INTERRUPT_ENABLED) && (Display1_FLOW_CONTROL != 0u)) */
 436:.\Generated_Source\PSoC5/Display1.c ****             }
 437:.\Generated_Source\PSoC5/Display1.c ****         }
 438:.\Generated_Source\PSoC5/Display1.c ****         else
 439:.\Generated_Source\PSoC5/Display1.c ****         {   /* Needs to check status for RX_STS_FIFO_NOTEMPTY bit */
 440:.\Generated_Source\PSoC5/Display1.c ****             rxData = Display1_RXDATA_REG;
 363              		.loc 1 440 0
 364 0040 064B     		ldr	r3, .L29+12
 365              	.LVL25:
 366 0042 1878     		ldrb	r0, [r3]	@ zero_extendqisi2
 367 0044 C0B2     		uxtb	r0, r0
 368              	.LVL26:
 369              	.L27:
 441:.\Generated_Source\PSoC5/Display1.c ****         }
 442:.\Generated_Source\PSoC5/Display1.c **** 
 443:.\Generated_Source\PSoC5/Display1.c ****         Display1_EnableRxInt();
 370              		.loc 1 443 0
 371 0046 0122     		movs	r2, #1
 372 0048 054B     		ldr	r3, .L29+16
 373 004a 1A60     		str	r2, [r3]
 444:.\Generated_Source\PSoC5/Display1.c **** 
 445:.\Generated_Source\PSoC5/Display1.c ****     #else
 446:.\Generated_Source\PSoC5/Display1.c **** 
 447:.\Generated_Source\PSoC5/Display1.c ****         /* Needs to check status for RX_STS_FIFO_NOTEMPTY bit */
 448:.\Generated_Source\PSoC5/Display1.c ****         rxData = Display1_RXDATA_REG;
 449:.\Generated_Source\PSoC5/Display1.c **** 
 450:.\Generated_Source\PSoC5/Display1.c ****     #endif /* (Display1_RX_INTERRUPT_ENABLED) */
 451:.\Generated_Source\PSoC5/Display1.c **** 
 452:.\Generated_Source\PSoC5/Display1.c ****         return(rxData);
 453:.\Generated_Source\PSoC5/Display1.c ****     }
 374              		.loc 1 453 0
 375 004c 7047     		bx	lr
 376              	.L30:
 377 004e 00BF     		.align	2
 378              	.L29:
 379 0050 80E100E0 		.word	-536813184
 380 0054 00000000 		.word	.LANCHOR0
 381 0058 00000000 		.word	Display1_rxBuffer
 382 005c 46650040 		.word	1073767750
 383 0060 00E100E0 		.word	-536813312
 384              		.cfi_endproc
 385              	.LFE7:
 386              		.size	Display1_ReadRxData, .-Display1_ReadRxData
 387              		.section	.text.Display1_ReadRxStatus,"ax",%progbits
 388              		.align	2
 389              		.global	Display1_ReadRxStatus
 390              		.thumb
 391              		.thumb_func
 392              		.type	Display1_ReadRxStatus, %function
 393              	Display1_ReadRxStatus:
 394              	.LFB8:
 454:.\Generated_Source\PSoC5/Display1.c **** 
 455:.\Generated_Source\PSoC5/Display1.c **** 
 456:.\Generated_Source\PSoC5/Display1.c ****     /*******************************************************************************
ARM GAS  C:\Users\RECEPC~1\AppData\Local\Temp\cclIxQZ0.s 			page 16


 457:.\Generated_Source\PSoC5/Display1.c ****     * Function Name: Display1_ReadRxStatus
 458:.\Generated_Source\PSoC5/Display1.c ****     ********************************************************************************
 459:.\Generated_Source\PSoC5/Display1.c ****     *
 460:.\Generated_Source\PSoC5/Display1.c ****     * Summary:
 461:.\Generated_Source\PSoC5/Display1.c ****     *  Returns the current state of the receiver status register and the software
 462:.\Generated_Source\PSoC5/Display1.c ****     *  buffer overflow status.
 463:.\Generated_Source\PSoC5/Display1.c ****     *
 464:.\Generated_Source\PSoC5/Display1.c ****     * Parameters:
 465:.\Generated_Source\PSoC5/Display1.c ****     *  None.
 466:.\Generated_Source\PSoC5/Display1.c ****     *
 467:.\Generated_Source\PSoC5/Display1.c ****     * Return:
 468:.\Generated_Source\PSoC5/Display1.c ****     *  Current state of the status register.
 469:.\Generated_Source\PSoC5/Display1.c ****     *
 470:.\Generated_Source\PSoC5/Display1.c ****     * Side Effect:
 471:.\Generated_Source\PSoC5/Display1.c ****     *  All status register bits are clear-on-read except
 472:.\Generated_Source\PSoC5/Display1.c ****     *  Display1_RX_STS_FIFO_NOTEMPTY.
 473:.\Generated_Source\PSoC5/Display1.c ****     *  Display1_RX_STS_FIFO_NOTEMPTY clears immediately after RX data
 474:.\Generated_Source\PSoC5/Display1.c ****     *  register read.
 475:.\Generated_Source\PSoC5/Display1.c ****     *
 476:.\Generated_Source\PSoC5/Display1.c ****     * Global Variables:
 477:.\Generated_Source\PSoC5/Display1.c ****     *  Display1_rxBufferOverflow - used to indicate overload condition.
 478:.\Generated_Source\PSoC5/Display1.c ****     *   It set to one in RX interrupt when there isn't free space in
 479:.\Generated_Source\PSoC5/Display1.c ****     *   Display1_rxBufferRead to write new data. This condition returned
 480:.\Generated_Source\PSoC5/Display1.c ****     *   and cleared to zero by this API as an
 481:.\Generated_Source\PSoC5/Display1.c ****     *   Display1_RX_STS_SOFT_BUFF_OVER bit along with RX Status register
 482:.\Generated_Source\PSoC5/Display1.c ****     *   bits.
 483:.\Generated_Source\PSoC5/Display1.c ****     *
 484:.\Generated_Source\PSoC5/Display1.c ****     *******************************************************************************/
 485:.\Generated_Source\PSoC5/Display1.c ****     uint8 Display1_ReadRxStatus(void) 
 486:.\Generated_Source\PSoC5/Display1.c ****     {
 395              		.loc 1 486 0
 396              		.cfi_startproc
 397              		@ args = 0, pretend = 0, frame = 0
 398              		@ frame_needed = 0, uses_anonymous_args = 0
 399              		@ link register save eliminated.
 487:.\Generated_Source\PSoC5/Display1.c ****         uint8 status;
 488:.\Generated_Source\PSoC5/Display1.c **** 
 489:.\Generated_Source\PSoC5/Display1.c ****         status = Display1_RXSTATUS_REG & Display1_RX_HW_MASK;
 400              		.loc 1 489 0
 401 0000 074B     		ldr	r3, .L33
 402 0002 1878     		ldrb	r0, [r3]	@ zero_extendqisi2
 403 0004 00F07F00 		and	r0, r0, #127
 404              	.LVL27:
 490:.\Generated_Source\PSoC5/Display1.c **** 
 491:.\Generated_Source\PSoC5/Display1.c ****     #if (Display1_RX_INTERRUPT_ENABLED)
 492:.\Generated_Source\PSoC5/Display1.c ****         if(Display1_rxBufferOverflow != 0u)
 405              		.loc 1 492 0
 406 0008 064B     		ldr	r3, .L33+4
 407 000a 5B79     		ldrb	r3, [r3, #5]	@ zero_extendqisi2
 408 000c 13F0FF0F 		tst	r3, #255
 409 0010 04D0     		beq	.L32
 493:.\Generated_Source\PSoC5/Display1.c ****         {
 494:.\Generated_Source\PSoC5/Display1.c ****             status |= Display1_RX_STS_SOFT_BUFF_OVER;
 410              		.loc 1 494 0
 411 0012 40F08000 		orr	r0, r0, #128
 412              	.LVL28:
 495:.\Generated_Source\PSoC5/Display1.c ****             Display1_rxBufferOverflow = 0u;
ARM GAS  C:\Users\RECEPC~1\AppData\Local\Temp\cclIxQZ0.s 			page 17


 413              		.loc 1 495 0
 414 0016 0022     		movs	r2, #0
 415 0018 024B     		ldr	r3, .L33+4
 416 001a 5A71     		strb	r2, [r3, #5]
 417              	.L32:
 496:.\Generated_Source\PSoC5/Display1.c ****         }
 497:.\Generated_Source\PSoC5/Display1.c ****     #endif /* (Display1_RX_INTERRUPT_ENABLED) */
 498:.\Generated_Source\PSoC5/Display1.c **** 
 499:.\Generated_Source\PSoC5/Display1.c ****         return(status);
 500:.\Generated_Source\PSoC5/Display1.c ****     }
 418              		.loc 1 500 0
 419 001c 7047     		bx	lr
 420              	.L34:
 421 001e 00BF     		.align	2
 422              	.L33:
 423 0020 66640040 		.word	1073767526
 424 0024 00000000 		.word	.LANCHOR0
 425              		.cfi_endproc
 426              	.LFE8:
 427              		.size	Display1_ReadRxStatus, .-Display1_ReadRxStatus
 428              		.section	.text.Display1_GetChar,"ax",%progbits
 429              		.align	2
 430              		.global	Display1_GetChar
 431              		.thumb
 432              		.thumb_func
 433              		.type	Display1_GetChar, %function
 434              	Display1_GetChar:
 435              	.LFB9:
 501:.\Generated_Source\PSoC5/Display1.c **** 
 502:.\Generated_Source\PSoC5/Display1.c **** 
 503:.\Generated_Source\PSoC5/Display1.c ****     /*******************************************************************************
 504:.\Generated_Source\PSoC5/Display1.c ****     * Function Name: Display1_GetChar
 505:.\Generated_Source\PSoC5/Display1.c ****     ********************************************************************************
 506:.\Generated_Source\PSoC5/Display1.c ****     *
 507:.\Generated_Source\PSoC5/Display1.c ****     * Summary:
 508:.\Generated_Source\PSoC5/Display1.c ****     *  Returns the last received byte of data. Display1_GetChar() is
 509:.\Generated_Source\PSoC5/Display1.c ****     *  designed for ASCII characters and returns a uint8 where 1 to 255 are values
 510:.\Generated_Source\PSoC5/Display1.c ****     *  for valid characters and 0 indicates an error occurred or no data is present.
 511:.\Generated_Source\PSoC5/Display1.c ****     *
 512:.\Generated_Source\PSoC5/Display1.c ****     * Parameters:
 513:.\Generated_Source\PSoC5/Display1.c ****     *  None.
 514:.\Generated_Source\PSoC5/Display1.c ****     *
 515:.\Generated_Source\PSoC5/Display1.c ****     * Return:
 516:.\Generated_Source\PSoC5/Display1.c ****     *  Character read from UART RX buffer. ASCII characters from 1 to 255 are valid.
 517:.\Generated_Source\PSoC5/Display1.c ****     *  A returned zero signifies an error condition or no data available.
 518:.\Generated_Source\PSoC5/Display1.c ****     *
 519:.\Generated_Source\PSoC5/Display1.c ****     * Global Variables:
 520:.\Generated_Source\PSoC5/Display1.c ****     *  Display1_rxBuffer - RAM buffer pointer for save received data.
 521:.\Generated_Source\PSoC5/Display1.c ****     *  Display1_rxBufferWrite - cyclic index for write to rxBuffer,
 522:.\Generated_Source\PSoC5/Display1.c ****     *     checked to identify new data.
 523:.\Generated_Source\PSoC5/Display1.c ****     *  Display1_rxBufferRead - cyclic index for read from rxBuffer,
 524:.\Generated_Source\PSoC5/Display1.c ****     *     incremented after each byte has been read from buffer.
 525:.\Generated_Source\PSoC5/Display1.c ****     *  Display1_rxBufferLoopDetect - cleared if loop condition was detected
 526:.\Generated_Source\PSoC5/Display1.c ****     *     in RX ISR.
 527:.\Generated_Source\PSoC5/Display1.c ****     *
 528:.\Generated_Source\PSoC5/Display1.c ****     * Reentrant:
 529:.\Generated_Source\PSoC5/Display1.c ****     *  No.
ARM GAS  C:\Users\RECEPC~1\AppData\Local\Temp\cclIxQZ0.s 			page 18


 530:.\Generated_Source\PSoC5/Display1.c ****     *
 531:.\Generated_Source\PSoC5/Display1.c ****     *******************************************************************************/
 532:.\Generated_Source\PSoC5/Display1.c ****     uint8 Display1_GetChar(void) 
 533:.\Generated_Source\PSoC5/Display1.c ****     {
 436              		.loc 1 533 0
 437              		.cfi_startproc
 438              		@ args = 0, pretend = 0, frame = 0
 439              		@ frame_needed = 0, uses_anonymous_args = 0
 440              		@ link register save eliminated.
 441              	.LVL29:
 534:.\Generated_Source\PSoC5/Display1.c ****         uint8 rxData = 0u;
 535:.\Generated_Source\PSoC5/Display1.c ****         uint8 rxStatus;
 536:.\Generated_Source\PSoC5/Display1.c **** 
 537:.\Generated_Source\PSoC5/Display1.c ****     #if (Display1_RX_INTERRUPT_ENABLED)
 538:.\Generated_Source\PSoC5/Display1.c ****         uint8 locRxBufferRead;
 539:.\Generated_Source\PSoC5/Display1.c ****         uint8 locRxBufferWrite;
 540:.\Generated_Source\PSoC5/Display1.c **** 
 541:.\Generated_Source\PSoC5/Display1.c ****         /* Protect variables that could change on interrupt */
 542:.\Generated_Source\PSoC5/Display1.c ****         Display1_DisableRxInt();
 442              		.loc 1 542 0
 443 0000 0122     		movs	r2, #1
 444 0002 194B     		ldr	r3, .L43
 445 0004 1A60     		str	r2, [r3]
 543:.\Generated_Source\PSoC5/Display1.c **** 
 544:.\Generated_Source\PSoC5/Display1.c ****         locRxBufferRead  = Display1_rxBufferRead;
 446              		.loc 1 544 0
 447 0006 194A     		ldr	r2, .L43+4
 448 0008 9378     		ldrb	r3, [r2, #2]	@ zero_extendqisi2
 449 000a DBB2     		uxtb	r3, r3
 450              	.LVL30:
 545:.\Generated_Source\PSoC5/Display1.c ****         locRxBufferWrite = Display1_rxBufferWrite;
 451              		.loc 1 545 0
 452 000c D178     		ldrb	r1, [r2, #3]	@ zero_extendqisi2
 453 000e C9B2     		uxtb	r1, r1
 454              	.LVL31:
 546:.\Generated_Source\PSoC5/Display1.c **** 
 547:.\Generated_Source\PSoC5/Display1.c ****         if( (Display1_rxBufferLoopDetect != 0u) || (locRxBufferRead != locRxBufferWrite) )
 455              		.loc 1 547 0
 456 0010 1279     		ldrb	r2, [r2, #4]	@ zero_extendqisi2
 457 0012 12F0FF0F 		tst	r2, #255
 458 0016 01D1     		bne	.L36
 459              		.loc 1 547 0 is_stmt 0 discriminator 1
 460 0018 8B42     		cmp	r3, r1
 461 001a 11D0     		beq	.L37
 462              	.L36:
 548:.\Generated_Source\PSoC5/Display1.c ****         {
 549:.\Generated_Source\PSoC5/Display1.c ****             rxData = Display1_rxBuffer[locRxBufferRead];
 463              		.loc 1 549 0 is_stmt 1
 464 001c 144A     		ldr	r2, .L43+8
 465 001e D05C     		ldrb	r0, [r2, r3]	@ zero_extendqisi2
 466 0020 C0B2     		uxtb	r0, r0
 467              	.LVL32:
 550:.\Generated_Source\PSoC5/Display1.c ****             locRxBufferRead++;
 468              		.loc 1 550 0
 469 0022 0133     		adds	r3, r3, #1
 470              	.LVL33:
 471 0024 DBB2     		uxtb	r3, r3
ARM GAS  C:\Users\RECEPC~1\AppData\Local\Temp\cclIxQZ0.s 			page 19


 472              	.LVL34:
 551:.\Generated_Source\PSoC5/Display1.c ****             if(locRxBufferRead >= Display1_RX_BUFFER_SIZE)
 473              		.loc 1 551 0
 474 0026 1F2B     		cmp	r3, #31
 475 0028 00D9     		bls	.L38
 552:.\Generated_Source\PSoC5/Display1.c ****             {
 553:.\Generated_Source\PSoC5/Display1.c ****                 locRxBufferRead = 0u;
 476              		.loc 1 553 0
 477 002a 0023     		movs	r3, #0
 478              	.LVL35:
 479              	.L38:
 554:.\Generated_Source\PSoC5/Display1.c ****             }
 555:.\Generated_Source\PSoC5/Display1.c ****             /* Update the real pointer */
 556:.\Generated_Source\PSoC5/Display1.c ****             Display1_rxBufferRead = locRxBufferRead;
 480              		.loc 1 556 0
 481 002c 0F4A     		ldr	r2, .L43+4
 482 002e 9370     		strb	r3, [r2, #2]
 557:.\Generated_Source\PSoC5/Display1.c **** 
 558:.\Generated_Source\PSoC5/Display1.c ****             if(Display1_rxBufferLoopDetect != 0u)
 483              		.loc 1 558 0
 484 0030 1379     		ldrb	r3, [r2, #4]	@ zero_extendqisi2
 485              	.LVL36:
 486 0032 13F0FF0F 		tst	r3, #255
 487 0036 13D0     		beq	.L39
 559:.\Generated_Source\PSoC5/Display1.c ****             {
 560:.\Generated_Source\PSoC5/Display1.c ****                 Display1_rxBufferLoopDetect = 0u;
 488              		.loc 1 560 0
 489 0038 0022     		movs	r2, #0
 490 003a 0C4B     		ldr	r3, .L43+4
 491 003c 1A71     		strb	r2, [r3, #4]
 492              	.LVL37:
 493 003e 0FE0     		b	.L39
 494              	.LVL38:
 495              	.L37:
 561:.\Generated_Source\PSoC5/Display1.c ****                 #if( (Display1_RX_INTERRUPT_ENABLED) && (Display1_FLOW_CONTROL != 0u) )
 562:.\Generated_Source\PSoC5/Display1.c ****                     /* When Hardware Flow Control selected - return RX mask */
 563:.\Generated_Source\PSoC5/Display1.c ****                     #if( Display1_HD_ENABLED )
 564:.\Generated_Source\PSoC5/Display1.c ****                         if((Display1_CONTROL_REG & Display1_CTRL_HD_SEND) == 0u)
 565:.\Generated_Source\PSoC5/Display1.c ****                         {   /* In Half duplex mode return RX mask only if
 566:.\Generated_Source\PSoC5/Display1.c ****                             *  RX configuration set, otherwise
 567:.\Generated_Source\PSoC5/Display1.c ****                             *  mask will be returned in LoadRxConfig() API.
 568:.\Generated_Source\PSoC5/Display1.c ****                             */
 569:.\Generated_Source\PSoC5/Display1.c ****                             Display1_RXSTATUS_MASK_REG |= Display1_RX_STS_FIFO_NOTEMPTY;
 570:.\Generated_Source\PSoC5/Display1.c ****                         }
 571:.\Generated_Source\PSoC5/Display1.c ****                     #else
 572:.\Generated_Source\PSoC5/Display1.c ****                         Display1_RXSTATUS_MASK_REG |= Display1_RX_STS_FIFO_NOTEMPTY;
 573:.\Generated_Source\PSoC5/Display1.c ****                     #endif /* end Display1_HD_ENABLED */
 574:.\Generated_Source\PSoC5/Display1.c ****                 #endif /* Display1_RX_INTERRUPT_ENABLED and Hardware flow control*/
 575:.\Generated_Source\PSoC5/Display1.c ****             }
 576:.\Generated_Source\PSoC5/Display1.c **** 
 577:.\Generated_Source\PSoC5/Display1.c ****         }
 578:.\Generated_Source\PSoC5/Display1.c ****         else
 579:.\Generated_Source\PSoC5/Display1.c ****         {   rxStatus = Display1_RXSTATUS_REG;
 496              		.loc 1 579 0
 497 0040 0C4B     		ldr	r3, .L43+12
 498              	.LVL39:
 499 0042 1B78     		ldrb	r3, [r3]	@ zero_extendqisi2
ARM GAS  C:\Users\RECEPC~1\AppData\Local\Temp\cclIxQZ0.s 			page 20


 500 0044 DBB2     		uxtb	r3, r3
 501              	.LVL40:
 580:.\Generated_Source\PSoC5/Display1.c ****             if((rxStatus & Display1_RX_STS_FIFO_NOTEMPTY) != 0u)
 502              		.loc 1 580 0
 503 0046 13F0200F 		tst	r3, #32
 504 004a 06D0     		beq	.L41
 581:.\Generated_Source\PSoC5/Display1.c ****             {   /* Read received data from FIFO */
 582:.\Generated_Source\PSoC5/Display1.c ****                 rxData = Display1_RXDATA_REG;
 505              		.loc 1 582 0
 506 004c 0A4A     		ldr	r2, .L43+16
 507 004e 1078     		ldrb	r0, [r2]	@ zero_extendqisi2
 508 0050 C0B2     		uxtb	r0, r0
 509              	.LVL41:
 583:.\Generated_Source\PSoC5/Display1.c ****                 /*Check status on error*/
 584:.\Generated_Source\PSoC5/Display1.c ****                 if((rxStatus & (Display1_RX_STS_BREAK | Display1_RX_STS_PAR_ERROR |
 510              		.loc 1 584 0
 511 0052 13F01E0F 		tst	r3, #30
 512 0056 02D1     		bne	.L42
 513 0058 02E0     		b	.L39
 514              	.LVL42:
 515              	.L41:
 534:.\Generated_Source\PSoC5/Display1.c ****         uint8 rxStatus;
 516              		.loc 1 534 0
 517 005a 0020     		movs	r0, #0
 518 005c 00E0     		b	.L39
 519              	.LVL43:
 520              	.L42:
 585:.\Generated_Source\PSoC5/Display1.c ****                                 Display1_RX_STS_STOP_ERROR | Display1_RX_STS_OVERRUN)) != 0u)
 586:.\Generated_Source\PSoC5/Display1.c ****                 {
 587:.\Generated_Source\PSoC5/Display1.c ****                     rxData = 0u;
 521              		.loc 1 587 0
 522 005e 0020     		movs	r0, #0
 523              	.LVL44:
 524              	.L39:
 588:.\Generated_Source\PSoC5/Display1.c ****                 }
 589:.\Generated_Source\PSoC5/Display1.c ****             }
 590:.\Generated_Source\PSoC5/Display1.c ****         }
 591:.\Generated_Source\PSoC5/Display1.c **** 
 592:.\Generated_Source\PSoC5/Display1.c ****         Display1_EnableRxInt();
 525              		.loc 1 592 0
 526 0060 0122     		movs	r2, #1
 527 0062 064B     		ldr	r3, .L43+20
 528 0064 1A60     		str	r2, [r3]
 593:.\Generated_Source\PSoC5/Display1.c **** 
 594:.\Generated_Source\PSoC5/Display1.c ****     #else
 595:.\Generated_Source\PSoC5/Display1.c **** 
 596:.\Generated_Source\PSoC5/Display1.c ****         rxStatus =Display1_RXSTATUS_REG;
 597:.\Generated_Source\PSoC5/Display1.c ****         if((rxStatus & Display1_RX_STS_FIFO_NOTEMPTY) != 0u)
 598:.\Generated_Source\PSoC5/Display1.c ****         {
 599:.\Generated_Source\PSoC5/Display1.c ****             /* Read received data from FIFO */
 600:.\Generated_Source\PSoC5/Display1.c ****             rxData = Display1_RXDATA_REG;
 601:.\Generated_Source\PSoC5/Display1.c **** 
 602:.\Generated_Source\PSoC5/Display1.c ****             /*Check status on error*/
 603:.\Generated_Source\PSoC5/Display1.c ****             if((rxStatus & (Display1_RX_STS_BREAK | Display1_RX_STS_PAR_ERROR |
 604:.\Generated_Source\PSoC5/Display1.c ****                             Display1_RX_STS_STOP_ERROR | Display1_RX_STS_OVERRUN)) != 0u)
 605:.\Generated_Source\PSoC5/Display1.c ****             {
 606:.\Generated_Source\PSoC5/Display1.c ****                 rxData = 0u;
ARM GAS  C:\Users\RECEPC~1\AppData\Local\Temp\cclIxQZ0.s 			page 21


 607:.\Generated_Source\PSoC5/Display1.c ****             }
 608:.\Generated_Source\PSoC5/Display1.c ****         }
 609:.\Generated_Source\PSoC5/Display1.c ****     #endif /* (Display1_RX_INTERRUPT_ENABLED) */
 610:.\Generated_Source\PSoC5/Display1.c **** 
 611:.\Generated_Source\PSoC5/Display1.c ****         return(rxData);
 612:.\Generated_Source\PSoC5/Display1.c ****     }
 529              		.loc 1 612 0
 530 0066 7047     		bx	lr
 531              	.L44:
 532              		.align	2
 533              	.L43:
 534 0068 80E100E0 		.word	-536813184
 535 006c 00000000 		.word	.LANCHOR0
 536 0070 00000000 		.word	Display1_rxBuffer
 537 0074 66640040 		.word	1073767526
 538 0078 46650040 		.word	1073767750
 539 007c 00E100E0 		.word	-536813312
 540              		.cfi_endproc
 541              	.LFE9:
 542              		.size	Display1_GetChar, .-Display1_GetChar
 543              		.section	.text.Display1_GetByte,"ax",%progbits
 544              		.align	2
 545              		.global	Display1_GetByte
 546              		.thumb
 547              		.thumb_func
 548              		.type	Display1_GetByte, %function
 549              	Display1_GetByte:
 550              	.LFB10:
 613:.\Generated_Source\PSoC5/Display1.c **** 
 614:.\Generated_Source\PSoC5/Display1.c **** 
 615:.\Generated_Source\PSoC5/Display1.c ****     /*******************************************************************************
 616:.\Generated_Source\PSoC5/Display1.c ****     * Function Name: Display1_GetByte
 617:.\Generated_Source\PSoC5/Display1.c ****     ********************************************************************************
 618:.\Generated_Source\PSoC5/Display1.c ****     *
 619:.\Generated_Source\PSoC5/Display1.c ****     * Summary:
 620:.\Generated_Source\PSoC5/Display1.c ****     *  Reads UART RX buffer immediately, returns received character and error
 621:.\Generated_Source\PSoC5/Display1.c ****     *  condition.
 622:.\Generated_Source\PSoC5/Display1.c ****     *
 623:.\Generated_Source\PSoC5/Display1.c ****     * Parameters:
 624:.\Generated_Source\PSoC5/Display1.c ****     *  None.
 625:.\Generated_Source\PSoC5/Display1.c ****     *
 626:.\Generated_Source\PSoC5/Display1.c ****     * Return:
 627:.\Generated_Source\PSoC5/Display1.c ****     *  MSB contains status and LSB contains UART RX data. If the MSB is nonzero,
 628:.\Generated_Source\PSoC5/Display1.c ****     *  an error has occurred.
 629:.\Generated_Source\PSoC5/Display1.c ****     *
 630:.\Generated_Source\PSoC5/Display1.c ****     * Reentrant:
 631:.\Generated_Source\PSoC5/Display1.c ****     *  No.
 632:.\Generated_Source\PSoC5/Display1.c ****     *
 633:.\Generated_Source\PSoC5/Display1.c ****     *******************************************************************************/
 634:.\Generated_Source\PSoC5/Display1.c ****     uint16 Display1_GetByte(void) 
 635:.\Generated_Source\PSoC5/Display1.c ****     {
 551              		.loc 1 635 0
 552              		.cfi_startproc
 553              		@ args = 0, pretend = 0, frame = 0
 554              		@ frame_needed = 0, uses_anonymous_args = 0
 555 0000 10B5     		push	{r4, lr}
 556              		.cfi_def_cfa_offset 8
ARM GAS  C:\Users\RECEPC~1\AppData\Local\Temp\cclIxQZ0.s 			page 22


 557              		.cfi_offset 4, -8
 558              		.cfi_offset 14, -4
 636:.\Generated_Source\PSoC5/Display1.c ****         
 637:.\Generated_Source\PSoC5/Display1.c ****     #if (Display1_RX_INTERRUPT_ENABLED)
 638:.\Generated_Source\PSoC5/Display1.c ****         uint16 locErrorStatus;
 639:.\Generated_Source\PSoC5/Display1.c ****         /* Protect variables that could change on interrupt */
 640:.\Generated_Source\PSoC5/Display1.c ****         Display1_DisableRxInt();
 559              		.loc 1 640 0
 560 0002 0123     		movs	r3, #1
 561 0004 064A     		ldr	r2, .L47
 562 0006 1360     		str	r3, [r2]
 641:.\Generated_Source\PSoC5/Display1.c ****         locErrorStatus = (uint16)Display1_errorStatus;
 563              		.loc 1 641 0
 564 0008 064A     		ldr	r2, .L47+4
 565 000a 1478     		ldrb	r4, [r2]	@ zero_extendqisi2
 566              	.LVL45:
 642:.\Generated_Source\PSoC5/Display1.c ****         Display1_errorStatus = 0u;
 567              		.loc 1 642 0
 568 000c 0021     		movs	r1, #0
 569 000e 1170     		strb	r1, [r2]
 643:.\Generated_Source\PSoC5/Display1.c ****         Display1_EnableRxInt();
 570              		.loc 1 643 0
 571 0010 054A     		ldr	r2, .L47+8
 572 0012 1360     		str	r3, [r2]
 644:.\Generated_Source\PSoC5/Display1.c ****         return ( (uint16)(locErrorStatus << 8u) | Display1_ReadRxData() );
 573              		.loc 1 644 0
 574 0014 2402     		lsls	r4, r4, #8
 575              	.LVL46:
 576 0016 FFF7FEFF 		bl	Display1_ReadRxData
 577              	.LVL47:
 578 001a 2043     		orrs	r0, r0, r4
 645:.\Generated_Source\PSoC5/Display1.c ****     #else
 646:.\Generated_Source\PSoC5/Display1.c ****         return ( ((uint16)Display1_ReadRxStatus() << 8u) | Display1_ReadRxData() );
 647:.\Generated_Source\PSoC5/Display1.c ****     #endif /* Display1_RX_INTERRUPT_ENABLED */
 648:.\Generated_Source\PSoC5/Display1.c ****         
 649:.\Generated_Source\PSoC5/Display1.c ****     }
 579              		.loc 1 649 0
 580 001c 80B2     		uxth	r0, r0
 581 001e 10BD     		pop	{r4, pc}
 582              	.L48:
 583              		.align	2
 584              	.L47:
 585 0020 80E100E0 		.word	-536813184
 586 0024 00000000 		.word	.LANCHOR0
 587 0028 00E100E0 		.word	-536813312
 588              		.cfi_endproc
 589              	.LFE10:
 590              		.size	Display1_GetByte, .-Display1_GetByte
 591              		.section	.text.Display1_GetRxBufferSize,"ax",%progbits
 592              		.align	2
 593              		.global	Display1_GetRxBufferSize
 594              		.thumb
 595              		.thumb_func
 596              		.type	Display1_GetRxBufferSize, %function
 597              	Display1_GetRxBufferSize:
 598              	.LFB11:
 650:.\Generated_Source\PSoC5/Display1.c **** 
ARM GAS  C:\Users\RECEPC~1\AppData\Local\Temp\cclIxQZ0.s 			page 23


 651:.\Generated_Source\PSoC5/Display1.c **** 
 652:.\Generated_Source\PSoC5/Display1.c ****     /*******************************************************************************
 653:.\Generated_Source\PSoC5/Display1.c ****     * Function Name: Display1_GetRxBufferSize
 654:.\Generated_Source\PSoC5/Display1.c ****     ********************************************************************************
 655:.\Generated_Source\PSoC5/Display1.c ****     *
 656:.\Generated_Source\PSoC5/Display1.c ****     * Summary:
 657:.\Generated_Source\PSoC5/Display1.c ****     *  Returns the number of received bytes available in the RX buffer.
 658:.\Generated_Source\PSoC5/Display1.c ****     *  * RX software buffer is disabled (RX Buffer Size parameter is equal to 4): 
 659:.\Generated_Source\PSoC5/Display1.c ****     *    returns 0 for empty RX FIFO or 1 for not empty RX FIFO.
 660:.\Generated_Source\PSoC5/Display1.c ****     *  * RX software buffer is enabled: returns the number of bytes available in 
 661:.\Generated_Source\PSoC5/Display1.c ****     *    the RX software buffer. Bytes available in the RX FIFO do not take to 
 662:.\Generated_Source\PSoC5/Display1.c ****     *    account.
 663:.\Generated_Source\PSoC5/Display1.c ****     *
 664:.\Generated_Source\PSoC5/Display1.c ****     * Parameters:
 665:.\Generated_Source\PSoC5/Display1.c ****     *  None.
 666:.\Generated_Source\PSoC5/Display1.c ****     *
 667:.\Generated_Source\PSoC5/Display1.c ****     * Return:
 668:.\Generated_Source\PSoC5/Display1.c ****     *  uint8: Number of bytes in the RX buffer. 
 669:.\Generated_Source\PSoC5/Display1.c ****     *    Return value type depends on RX Buffer Size parameter.
 670:.\Generated_Source\PSoC5/Display1.c ****     *
 671:.\Generated_Source\PSoC5/Display1.c ****     * Global Variables:
 672:.\Generated_Source\PSoC5/Display1.c ****     *  Display1_rxBufferWrite - used to calculate left bytes.
 673:.\Generated_Source\PSoC5/Display1.c ****     *  Display1_rxBufferRead - used to calculate left bytes.
 674:.\Generated_Source\PSoC5/Display1.c ****     *  Display1_rxBufferLoopDetect - checked to decide left bytes amount.
 675:.\Generated_Source\PSoC5/Display1.c ****     *
 676:.\Generated_Source\PSoC5/Display1.c ****     * Reentrant:
 677:.\Generated_Source\PSoC5/Display1.c ****     *  No.
 678:.\Generated_Source\PSoC5/Display1.c ****     *
 679:.\Generated_Source\PSoC5/Display1.c ****     * Theory:
 680:.\Generated_Source\PSoC5/Display1.c ****     *  Allows the user to find out how full the RX Buffer is.
 681:.\Generated_Source\PSoC5/Display1.c ****     *
 682:.\Generated_Source\PSoC5/Display1.c ****     *******************************************************************************/
 683:.\Generated_Source\PSoC5/Display1.c ****     uint8 Display1_GetRxBufferSize(void)
 684:.\Generated_Source\PSoC5/Display1.c ****                                                             
 685:.\Generated_Source\PSoC5/Display1.c ****     {
 599              		.loc 1 685 0
 600              		.cfi_startproc
 601              		@ args = 0, pretend = 0, frame = 0
 602              		@ frame_needed = 0, uses_anonymous_args = 0
 603              		@ link register save eliminated.
 686:.\Generated_Source\PSoC5/Display1.c ****         uint8 size;
 687:.\Generated_Source\PSoC5/Display1.c **** 
 688:.\Generated_Source\PSoC5/Display1.c ****     #if (Display1_RX_INTERRUPT_ENABLED)
 689:.\Generated_Source\PSoC5/Display1.c **** 
 690:.\Generated_Source\PSoC5/Display1.c ****         /* Protect variables that could change on interrupt */
 691:.\Generated_Source\PSoC5/Display1.c ****         Display1_DisableRxInt();
 604              		.loc 1 691 0
 605 0000 0122     		movs	r2, #1
 606 0002 134B     		ldr	r3, .L54
 607 0004 1A60     		str	r2, [r3]
 692:.\Generated_Source\PSoC5/Display1.c **** 
 693:.\Generated_Source\PSoC5/Display1.c ****         if(Display1_rxBufferRead == Display1_rxBufferWrite)
 608              		.loc 1 693 0
 609 0006 134A     		ldr	r2, .L54+4
 610 0008 9378     		ldrb	r3, [r2, #2]	@ zero_extendqisi2
 611 000a D278     		ldrb	r2, [r2, #3]	@ zero_extendqisi2
 612 000c DBB2     		uxtb	r3, r3
ARM GAS  C:\Users\RECEPC~1\AppData\Local\Temp\cclIxQZ0.s 			page 24


 613 000e 9342     		cmp	r3, r2
 614 0010 06D1     		bne	.L50
 694:.\Generated_Source\PSoC5/Display1.c ****         {
 695:.\Generated_Source\PSoC5/Display1.c ****             if(Display1_rxBufferLoopDetect != 0u)
 615              		.loc 1 695 0
 616 0012 104B     		ldr	r3, .L54+4
 617 0014 1B79     		ldrb	r3, [r3, #4]	@ zero_extendqisi2
 618 0016 13F0FF0F 		tst	r3, #255
 619 001a 14D0     		beq	.L53
 696:.\Generated_Source\PSoC5/Display1.c ****             {
 697:.\Generated_Source\PSoC5/Display1.c ****                 size = Display1_RX_BUFFER_SIZE;
 620              		.loc 1 697 0
 621 001c 2020     		movs	r0, #32
 622 001e 13E0     		b	.L51
 623              	.L50:
 698:.\Generated_Source\PSoC5/Display1.c ****             }
 699:.\Generated_Source\PSoC5/Display1.c ****             else
 700:.\Generated_Source\PSoC5/Display1.c ****             {
 701:.\Generated_Source\PSoC5/Display1.c ****                 size = 0u;
 702:.\Generated_Source\PSoC5/Display1.c ****             }
 703:.\Generated_Source\PSoC5/Display1.c ****         }
 704:.\Generated_Source\PSoC5/Display1.c ****         else if(Display1_rxBufferRead < Display1_rxBufferWrite)
 624              		.loc 1 704 0
 625 0020 0C4A     		ldr	r2, .L54+4
 626 0022 9378     		ldrb	r3, [r2, #2]	@ zero_extendqisi2
 627 0024 D278     		ldrb	r2, [r2, #3]	@ zero_extendqisi2
 628 0026 DBB2     		uxtb	r3, r3
 629 0028 9342     		cmp	r3, r2
 630 002a 05D2     		bcs	.L52
 705:.\Generated_Source\PSoC5/Display1.c ****         {
 706:.\Generated_Source\PSoC5/Display1.c ****             size = (Display1_rxBufferWrite - Display1_rxBufferRead);
 631              		.loc 1 706 0
 632 002c 094A     		ldr	r2, .L54+4
 633 002e D378     		ldrb	r3, [r2, #3]	@ zero_extendqisi2
 634 0030 9078     		ldrb	r0, [r2, #2]	@ zero_extendqisi2
 635 0032 181A     		subs	r0, r3, r0
 636 0034 C0B2     		uxtb	r0, r0
 637              	.LVL48:
 638 0036 07E0     		b	.L51
 639              	.LVL49:
 640              	.L52:
 707:.\Generated_Source\PSoC5/Display1.c ****         }
 708:.\Generated_Source\PSoC5/Display1.c ****         else
 709:.\Generated_Source\PSoC5/Display1.c ****         {
 710:.\Generated_Source\PSoC5/Display1.c ****             size = (Display1_RX_BUFFER_SIZE - Display1_rxBufferRead) + Display1_rxBufferWrite;
 641              		.loc 1 710 0
 642 0038 064A     		ldr	r2, .L54+4
 643 003a D378     		ldrb	r3, [r2, #3]	@ zero_extendqisi2
 644 003c 9078     		ldrb	r0, [r2, #2]	@ zero_extendqisi2
 645 003e 181A     		subs	r0, r3, r0
 646 0040 2030     		adds	r0, r0, #32
 647 0042 C0B2     		uxtb	r0, r0
 648              	.LVL50:
 649 0044 00E0     		b	.L51
 650              	.LVL51:
 651              	.L53:
 701:.\Generated_Source\PSoC5/Display1.c ****             }
ARM GAS  C:\Users\RECEPC~1\AppData\Local\Temp\cclIxQZ0.s 			page 25


 652              		.loc 1 701 0
 653 0046 0020     		movs	r0, #0
 654              	.L51:
 655              	.LVL52:
 711:.\Generated_Source\PSoC5/Display1.c ****         }
 712:.\Generated_Source\PSoC5/Display1.c **** 
 713:.\Generated_Source\PSoC5/Display1.c ****         Display1_EnableRxInt();
 656              		.loc 1 713 0
 657 0048 0122     		movs	r2, #1
 658 004a 034B     		ldr	r3, .L54+8
 659 004c 1A60     		str	r2, [r3]
 714:.\Generated_Source\PSoC5/Display1.c **** 
 715:.\Generated_Source\PSoC5/Display1.c ****     #else
 716:.\Generated_Source\PSoC5/Display1.c **** 
 717:.\Generated_Source\PSoC5/Display1.c ****         /* We can only know if there is data in the fifo. */
 718:.\Generated_Source\PSoC5/Display1.c ****         size = ((Display1_RXSTATUS_REG & Display1_RX_STS_FIFO_NOTEMPTY) != 0u) ? 1u : 0u;
 719:.\Generated_Source\PSoC5/Display1.c **** 
 720:.\Generated_Source\PSoC5/Display1.c ****     #endif /* (Display1_RX_INTERRUPT_ENABLED) */
 721:.\Generated_Source\PSoC5/Display1.c **** 
 722:.\Generated_Source\PSoC5/Display1.c ****         return(size);
 723:.\Generated_Source\PSoC5/Display1.c ****     }
 660              		.loc 1 723 0
 661 004e 7047     		bx	lr
 662              	.L55:
 663              		.align	2
 664              	.L54:
 665 0050 80E100E0 		.word	-536813184
 666 0054 00000000 		.word	.LANCHOR0
 667 0058 00E100E0 		.word	-536813312
 668              		.cfi_endproc
 669              	.LFE11:
 670              		.size	Display1_GetRxBufferSize, .-Display1_GetRxBufferSize
 671              		.section	.text.Display1_ClearRxBuffer,"ax",%progbits
 672              		.align	2
 673              		.global	Display1_ClearRxBuffer
 674              		.thumb
 675              		.thumb_func
 676              		.type	Display1_ClearRxBuffer, %function
 677              	Display1_ClearRxBuffer:
 678              	.LFB12:
 724:.\Generated_Source\PSoC5/Display1.c **** 
 725:.\Generated_Source\PSoC5/Display1.c **** 
 726:.\Generated_Source\PSoC5/Display1.c ****     /*******************************************************************************
 727:.\Generated_Source\PSoC5/Display1.c ****     * Function Name: Display1_ClearRxBuffer
 728:.\Generated_Source\PSoC5/Display1.c ****     ********************************************************************************
 729:.\Generated_Source\PSoC5/Display1.c ****     *
 730:.\Generated_Source\PSoC5/Display1.c ****     * Summary:
 731:.\Generated_Source\PSoC5/Display1.c ****     *  Clears the receiver memory buffer and hardware RX FIFO of all received data.
 732:.\Generated_Source\PSoC5/Display1.c ****     *
 733:.\Generated_Source\PSoC5/Display1.c ****     * Parameters:
 734:.\Generated_Source\PSoC5/Display1.c ****     *  None.
 735:.\Generated_Source\PSoC5/Display1.c ****     *
 736:.\Generated_Source\PSoC5/Display1.c ****     * Return:
 737:.\Generated_Source\PSoC5/Display1.c ****     *  None.
 738:.\Generated_Source\PSoC5/Display1.c ****     *
 739:.\Generated_Source\PSoC5/Display1.c ****     * Global Variables:
 740:.\Generated_Source\PSoC5/Display1.c ****     *  Display1_rxBufferWrite - cleared to zero.
ARM GAS  C:\Users\RECEPC~1\AppData\Local\Temp\cclIxQZ0.s 			page 26


 741:.\Generated_Source\PSoC5/Display1.c ****     *  Display1_rxBufferRead - cleared to zero.
 742:.\Generated_Source\PSoC5/Display1.c ****     *  Display1_rxBufferLoopDetect - cleared to zero.
 743:.\Generated_Source\PSoC5/Display1.c ****     *  Display1_rxBufferOverflow - cleared to zero.
 744:.\Generated_Source\PSoC5/Display1.c ****     *
 745:.\Generated_Source\PSoC5/Display1.c ****     * Reentrant:
 746:.\Generated_Source\PSoC5/Display1.c ****     *  No.
 747:.\Generated_Source\PSoC5/Display1.c ****     *
 748:.\Generated_Source\PSoC5/Display1.c ****     * Theory:
 749:.\Generated_Source\PSoC5/Display1.c ****     *  Setting the pointers to zero makes the system believe there is no data to
 750:.\Generated_Source\PSoC5/Display1.c ****     *  read and writing will resume at address 0 overwriting any data that may
 751:.\Generated_Source\PSoC5/Display1.c ****     *  have remained in the RAM.
 752:.\Generated_Source\PSoC5/Display1.c ****     *
 753:.\Generated_Source\PSoC5/Display1.c ****     * Side Effects:
 754:.\Generated_Source\PSoC5/Display1.c ****     *  Any received data not read from the RAM or FIFO buffer will be lost.
 755:.\Generated_Source\PSoC5/Display1.c ****     *
 756:.\Generated_Source\PSoC5/Display1.c ****     *******************************************************************************/
 757:.\Generated_Source\PSoC5/Display1.c ****     void Display1_ClearRxBuffer(void) 
 758:.\Generated_Source\PSoC5/Display1.c ****     {
 679              		.loc 1 758 0
 680              		.cfi_startproc
 681              		@ args = 0, pretend = 0, frame = 0
 682              		@ frame_needed = 0, uses_anonymous_args = 0
 683 0000 08B5     		push	{r3, lr}
 684              		.cfi_def_cfa_offset 8
 685              		.cfi_offset 3, -8
 686              		.cfi_offset 14, -4
 759:.\Generated_Source\PSoC5/Display1.c ****         uint8 enableInterrupts;
 760:.\Generated_Source\PSoC5/Display1.c **** 
 761:.\Generated_Source\PSoC5/Display1.c ****         /* Clear the HW FIFO */
 762:.\Generated_Source\PSoC5/Display1.c ****         enableInterrupts = CyEnterCriticalSection();
 687              		.loc 1 762 0
 688 0002 FFF7FEFF 		bl	CyEnterCriticalSection
 689              	.LVL53:
 763:.\Generated_Source\PSoC5/Display1.c ****         Display1_RXDATA_AUX_CTL_REG |= (uint8)  Display1_RX_FIFO_CLR;
 690              		.loc 1 763 0
 691 0006 0B4B     		ldr	r3, .L58
 692 0008 1A78     		ldrb	r2, [r3]	@ zero_extendqisi2
 693 000a 42F00102 		orr	r2, r2, #1
 694 000e 1A70     		strb	r2, [r3]
 764:.\Generated_Source\PSoC5/Display1.c ****         Display1_RXDATA_AUX_CTL_REG &= (uint8) ~Display1_RX_FIFO_CLR;
 695              		.loc 1 764 0
 696 0010 1A78     		ldrb	r2, [r3]	@ zero_extendqisi2
 697 0012 02F0FE02 		and	r2, r2, #254
 698 0016 1A70     		strb	r2, [r3]
 765:.\Generated_Source\PSoC5/Display1.c ****         CyExitCriticalSection(enableInterrupts);
 699              		.loc 1 765 0
 700 0018 FFF7FEFF 		bl	CyExitCriticalSection
 701              	.LVL54:
 766:.\Generated_Source\PSoC5/Display1.c **** 
 767:.\Generated_Source\PSoC5/Display1.c ****     #if (Display1_RX_INTERRUPT_ENABLED)
 768:.\Generated_Source\PSoC5/Display1.c **** 
 769:.\Generated_Source\PSoC5/Display1.c ****         /* Protect variables that could change on interrupt. */
 770:.\Generated_Source\PSoC5/Display1.c ****         Display1_DisableRxInt();
 702              		.loc 1 770 0
 703 001c 0121     		movs	r1, #1
 704 001e 064B     		ldr	r3, .L58+4
 705 0020 1960     		str	r1, [r3]
ARM GAS  C:\Users\RECEPC~1\AppData\Local\Temp\cclIxQZ0.s 			page 27


 771:.\Generated_Source\PSoC5/Display1.c **** 
 772:.\Generated_Source\PSoC5/Display1.c ****         Display1_rxBufferRead = 0u;
 706              		.loc 1 772 0
 707 0022 064B     		ldr	r3, .L58+8
 708 0024 0022     		movs	r2, #0
 709 0026 9A70     		strb	r2, [r3, #2]
 773:.\Generated_Source\PSoC5/Display1.c ****         Display1_rxBufferWrite = 0u;
 710              		.loc 1 773 0
 711 0028 DA70     		strb	r2, [r3, #3]
 774:.\Generated_Source\PSoC5/Display1.c ****         Display1_rxBufferLoopDetect = 0u;
 712              		.loc 1 774 0
 713 002a 1A71     		strb	r2, [r3, #4]
 775:.\Generated_Source\PSoC5/Display1.c ****         Display1_rxBufferOverflow = 0u;
 714              		.loc 1 775 0
 715 002c 5A71     		strb	r2, [r3, #5]
 776:.\Generated_Source\PSoC5/Display1.c **** 
 777:.\Generated_Source\PSoC5/Display1.c ****         Display1_EnableRxInt();
 716              		.loc 1 777 0
 717 002e 044B     		ldr	r3, .L58+12
 718 0030 1960     		str	r1, [r3]
 719 0032 08BD     		pop	{r3, pc}
 720              	.L59:
 721              		.align	2
 722              	.L58:
 723 0034 96650040 		.word	1073767830
 724 0038 80E100E0 		.word	-536813184
 725 003c 00000000 		.word	.LANCHOR0
 726 0040 00E100E0 		.word	-536813312
 727              		.cfi_endproc
 728              	.LFE12:
 729              		.size	Display1_ClearRxBuffer, .-Display1_ClearRxBuffer
 730              		.section	.text.Display1_SetRxAddressMode,"ax",%progbits
 731              		.align	2
 732              		.global	Display1_SetRxAddressMode
 733              		.thumb
 734              		.thumb_func
 735              		.type	Display1_SetRxAddressMode, %function
 736              	Display1_SetRxAddressMode:
 737              	.LFB13:
 778:.\Generated_Source\PSoC5/Display1.c **** 
 779:.\Generated_Source\PSoC5/Display1.c ****     #endif /* (Display1_RX_INTERRUPT_ENABLED) */
 780:.\Generated_Source\PSoC5/Display1.c **** 
 781:.\Generated_Source\PSoC5/Display1.c ****     }
 782:.\Generated_Source\PSoC5/Display1.c **** 
 783:.\Generated_Source\PSoC5/Display1.c **** 
 784:.\Generated_Source\PSoC5/Display1.c ****     /*******************************************************************************
 785:.\Generated_Source\PSoC5/Display1.c ****     * Function Name: Display1_SetRxAddressMode
 786:.\Generated_Source\PSoC5/Display1.c ****     ********************************************************************************
 787:.\Generated_Source\PSoC5/Display1.c ****     *
 788:.\Generated_Source\PSoC5/Display1.c ****     * Summary:
 789:.\Generated_Source\PSoC5/Display1.c ****     *  Sets the software controlled Addressing mode used by the RX portion of the
 790:.\Generated_Source\PSoC5/Display1.c ****     *  UART.
 791:.\Generated_Source\PSoC5/Display1.c ****     *
 792:.\Generated_Source\PSoC5/Display1.c ****     * Parameters:
 793:.\Generated_Source\PSoC5/Display1.c ****     *  addressMode: Enumerated value indicating the mode of RX addressing
 794:.\Generated_Source\PSoC5/Display1.c ****     *  Display1__B_UART__AM_SW_BYTE_BYTE -  Software Byte-by-Byte address
 795:.\Generated_Source\PSoC5/Display1.c ****     *                                               detection
ARM GAS  C:\Users\RECEPC~1\AppData\Local\Temp\cclIxQZ0.s 			page 28


 796:.\Generated_Source\PSoC5/Display1.c ****     *  Display1__B_UART__AM_SW_DETECT_TO_BUFFER - Software Detect to Buffer
 797:.\Generated_Source\PSoC5/Display1.c ****     *                                               address detection
 798:.\Generated_Source\PSoC5/Display1.c ****     *  Display1__B_UART__AM_HW_BYTE_BY_BYTE - Hardware Byte-by-Byte address
 799:.\Generated_Source\PSoC5/Display1.c ****     *                                               detection
 800:.\Generated_Source\PSoC5/Display1.c ****     *  Display1__B_UART__AM_HW_DETECT_TO_BUFFER - Hardware Detect to Buffer
 801:.\Generated_Source\PSoC5/Display1.c ****     *                                               address detection
 802:.\Generated_Source\PSoC5/Display1.c ****     *  Display1__B_UART__AM_NONE - No address detection
 803:.\Generated_Source\PSoC5/Display1.c ****     *
 804:.\Generated_Source\PSoC5/Display1.c ****     * Return:
 805:.\Generated_Source\PSoC5/Display1.c ****     *  None.
 806:.\Generated_Source\PSoC5/Display1.c ****     *
 807:.\Generated_Source\PSoC5/Display1.c ****     * Global Variables:
 808:.\Generated_Source\PSoC5/Display1.c ****     *  Display1_rxAddressMode - the parameter stored in this variable for
 809:.\Generated_Source\PSoC5/Display1.c ****     *   the farther usage in RX ISR.
 810:.\Generated_Source\PSoC5/Display1.c ****     *  Display1_rxAddressDetected - set to initial state (0).
 811:.\Generated_Source\PSoC5/Display1.c ****     *
 812:.\Generated_Source\PSoC5/Display1.c ****     *******************************************************************************/
 813:.\Generated_Source\PSoC5/Display1.c ****     void Display1_SetRxAddressMode(uint8 addressMode)
 814:.\Generated_Source\PSoC5/Display1.c ****                                                         
 815:.\Generated_Source\PSoC5/Display1.c ****     {
 738              		.loc 1 815 0
 739              		.cfi_startproc
 740              		@ args = 0, pretend = 0, frame = 0
 741              		@ frame_needed = 0, uses_anonymous_args = 0
 742              		@ link register save eliminated.
 743              	.LVL55:
 744 0000 7047     		bx	lr
 745              		.cfi_endproc
 746              	.LFE13:
 747              		.size	Display1_SetRxAddressMode, .-Display1_SetRxAddressMode
 748 0002 00BF     		.section	.text.Display1_SetRxAddress1,"ax",%progbits
 749              		.align	2
 750              		.global	Display1_SetRxAddress1
 751              		.thumb
 752              		.thumb_func
 753              		.type	Display1_SetRxAddress1, %function
 754              	Display1_SetRxAddress1:
 755              	.LFB14:
 816:.\Generated_Source\PSoC5/Display1.c ****         #if(Display1_RXHW_ADDRESS_ENABLED)
 817:.\Generated_Source\PSoC5/Display1.c ****             #if(Display1_CONTROL_REG_REMOVED)
 818:.\Generated_Source\PSoC5/Display1.c ****                 if(0u != addressMode)
 819:.\Generated_Source\PSoC5/Display1.c ****                 {
 820:.\Generated_Source\PSoC5/Display1.c ****                     /* Suppress compiler warning */
 821:.\Generated_Source\PSoC5/Display1.c ****                 }
 822:.\Generated_Source\PSoC5/Display1.c ****             #else /* Display1_CONTROL_REG_REMOVED */
 823:.\Generated_Source\PSoC5/Display1.c ****                 uint8 tmpCtrl;
 824:.\Generated_Source\PSoC5/Display1.c ****                 tmpCtrl = Display1_CONTROL_REG & (uint8)~Display1_CTRL_RXADDR_MODE_MASK;
 825:.\Generated_Source\PSoC5/Display1.c ****                 tmpCtrl |= (uint8)(addressMode << Display1_CTRL_RXADDR_MODE0_SHIFT);
 826:.\Generated_Source\PSoC5/Display1.c ****                 Display1_CONTROL_REG = tmpCtrl;
 827:.\Generated_Source\PSoC5/Display1.c **** 
 828:.\Generated_Source\PSoC5/Display1.c ****                 #if(Display1_RX_INTERRUPT_ENABLED && \
 829:.\Generated_Source\PSoC5/Display1.c ****                    (Display1_RXBUFFERSIZE > Display1_FIFO_LENGTH) )
 830:.\Generated_Source\PSoC5/Display1.c ****                     Display1_rxAddressMode = addressMode;
 831:.\Generated_Source\PSoC5/Display1.c ****                     Display1_rxAddressDetected = 0u;
 832:.\Generated_Source\PSoC5/Display1.c ****                 #endif /* End Display1_RXBUFFERSIZE > Display1_FIFO_LENGTH*/
 833:.\Generated_Source\PSoC5/Display1.c ****             #endif /* End Display1_CONTROL_REG_REMOVED */
 834:.\Generated_Source\PSoC5/Display1.c ****         #else /* Display1_RXHW_ADDRESS_ENABLED */
ARM GAS  C:\Users\RECEPC~1\AppData\Local\Temp\cclIxQZ0.s 			page 29


 835:.\Generated_Source\PSoC5/Display1.c ****             if(0u != addressMode)
 836:.\Generated_Source\PSoC5/Display1.c ****             {
 837:.\Generated_Source\PSoC5/Display1.c ****                 /* Suppress compiler warning */
 838:.\Generated_Source\PSoC5/Display1.c ****             }
 839:.\Generated_Source\PSoC5/Display1.c ****         #endif /* End Display1_RXHW_ADDRESS_ENABLED */
 840:.\Generated_Source\PSoC5/Display1.c ****     }
 841:.\Generated_Source\PSoC5/Display1.c **** 
 842:.\Generated_Source\PSoC5/Display1.c **** 
 843:.\Generated_Source\PSoC5/Display1.c ****     /*******************************************************************************
 844:.\Generated_Source\PSoC5/Display1.c ****     * Function Name: Display1_SetRxAddress1
 845:.\Generated_Source\PSoC5/Display1.c ****     ********************************************************************************
 846:.\Generated_Source\PSoC5/Display1.c ****     *
 847:.\Generated_Source\PSoC5/Display1.c ****     * Summary:
 848:.\Generated_Source\PSoC5/Display1.c ****     *  Sets the first of two hardware-detectable receiver addresses.
 849:.\Generated_Source\PSoC5/Display1.c ****     *
 850:.\Generated_Source\PSoC5/Display1.c ****     * Parameters:
 851:.\Generated_Source\PSoC5/Display1.c ****     *  address: Address #1 for hardware address detection.
 852:.\Generated_Source\PSoC5/Display1.c ****     *
 853:.\Generated_Source\PSoC5/Display1.c ****     * Return:
 854:.\Generated_Source\PSoC5/Display1.c ****     *  None.
 855:.\Generated_Source\PSoC5/Display1.c ****     *
 856:.\Generated_Source\PSoC5/Display1.c ****     *******************************************************************************/
 857:.\Generated_Source\PSoC5/Display1.c ****     void Display1_SetRxAddress1(uint8 address) 
 858:.\Generated_Source\PSoC5/Display1.c ****     {
 756              		.loc 1 858 0
 757              		.cfi_startproc
 758              		@ args = 0, pretend = 0, frame = 0
 759              		@ frame_needed = 0, uses_anonymous_args = 0
 760              		@ link register save eliminated.
 761              	.LVL56:
 859:.\Generated_Source\PSoC5/Display1.c ****         Display1_RXADDRESS1_REG = address;
 762              		.loc 1 859 0
 763 0000 014B     		ldr	r3, .L62
 764 0002 1870     		strb	r0, [r3]
 765 0004 7047     		bx	lr
 766              	.L63:
 767 0006 00BF     		.align	2
 768              	.L62:
 769 0008 26650040 		.word	1073767718
 770              		.cfi_endproc
 771              	.LFE14:
 772              		.size	Display1_SetRxAddress1, .-Display1_SetRxAddress1
 773              		.section	.text.Display1_SetRxAddress2,"ax",%progbits
 774              		.align	2
 775              		.global	Display1_SetRxAddress2
 776              		.thumb
 777              		.thumb_func
 778              		.type	Display1_SetRxAddress2, %function
 779              	Display1_SetRxAddress2:
 780              	.LFB15:
 860:.\Generated_Source\PSoC5/Display1.c ****     }
 861:.\Generated_Source\PSoC5/Display1.c **** 
 862:.\Generated_Source\PSoC5/Display1.c **** 
 863:.\Generated_Source\PSoC5/Display1.c ****     /*******************************************************************************
 864:.\Generated_Source\PSoC5/Display1.c ****     * Function Name: Display1_SetRxAddress2
 865:.\Generated_Source\PSoC5/Display1.c ****     ********************************************************************************
 866:.\Generated_Source\PSoC5/Display1.c ****     *
ARM GAS  C:\Users\RECEPC~1\AppData\Local\Temp\cclIxQZ0.s 			page 30


 867:.\Generated_Source\PSoC5/Display1.c ****     * Summary:
 868:.\Generated_Source\PSoC5/Display1.c ****     *  Sets the second of two hardware-detectable receiver addresses.
 869:.\Generated_Source\PSoC5/Display1.c ****     *
 870:.\Generated_Source\PSoC5/Display1.c ****     * Parameters:
 871:.\Generated_Source\PSoC5/Display1.c ****     *  address: Address #2 for hardware address detection.
 872:.\Generated_Source\PSoC5/Display1.c ****     *
 873:.\Generated_Source\PSoC5/Display1.c ****     * Return:
 874:.\Generated_Source\PSoC5/Display1.c ****     *  None.
 875:.\Generated_Source\PSoC5/Display1.c ****     *
 876:.\Generated_Source\PSoC5/Display1.c ****     *******************************************************************************/
 877:.\Generated_Source\PSoC5/Display1.c ****     void Display1_SetRxAddress2(uint8 address) 
 878:.\Generated_Source\PSoC5/Display1.c ****     {
 781              		.loc 1 878 0
 782              		.cfi_startproc
 783              		@ args = 0, pretend = 0, frame = 0
 784              		@ frame_needed = 0, uses_anonymous_args = 0
 785              		@ link register save eliminated.
 786              	.LVL57:
 879:.\Generated_Source\PSoC5/Display1.c ****         Display1_RXADDRESS2_REG = address;
 787              		.loc 1 879 0
 788 0000 014B     		ldr	r3, .L65
 789 0002 1870     		strb	r0, [r3]
 790 0004 7047     		bx	lr
 791              	.L66:
 792 0006 00BF     		.align	2
 793              	.L65:
 794 0008 36650040 		.word	1073767734
 795              		.cfi_endproc
 796              	.LFE15:
 797              		.size	Display1_SetRxAddress2, .-Display1_SetRxAddress2
 798              		.section	.text.Display1_SetTxInterruptMode,"ax",%progbits
 799              		.align	2
 800              		.global	Display1_SetTxInterruptMode
 801              		.thumb
 802              		.thumb_func
 803              		.type	Display1_SetTxInterruptMode, %function
 804              	Display1_SetTxInterruptMode:
 805              	.LFB16:
 880:.\Generated_Source\PSoC5/Display1.c ****     }
 881:.\Generated_Source\PSoC5/Display1.c **** 
 882:.\Generated_Source\PSoC5/Display1.c **** #endif  /* Display1_RX_ENABLED || Display1_HD_ENABLED*/
 883:.\Generated_Source\PSoC5/Display1.c **** 
 884:.\Generated_Source\PSoC5/Display1.c **** 
 885:.\Generated_Source\PSoC5/Display1.c **** #if( (Display1_TX_ENABLED) || (Display1_HD_ENABLED) )
 886:.\Generated_Source\PSoC5/Display1.c ****     /*******************************************************************************
 887:.\Generated_Source\PSoC5/Display1.c ****     * Function Name: Display1_SetTxInterruptMode
 888:.\Generated_Source\PSoC5/Display1.c ****     ********************************************************************************
 889:.\Generated_Source\PSoC5/Display1.c ****     *
 890:.\Generated_Source\PSoC5/Display1.c ****     * Summary:
 891:.\Generated_Source\PSoC5/Display1.c ****     *  Configures the TX interrupt sources to be enabled, but does not enable the
 892:.\Generated_Source\PSoC5/Display1.c ****     *  interrupt.
 893:.\Generated_Source\PSoC5/Display1.c ****     *
 894:.\Generated_Source\PSoC5/Display1.c ****     * Parameters:
 895:.\Generated_Source\PSoC5/Display1.c ****     *  intSrc: Bit field containing the TX interrupt sources to enable
 896:.\Generated_Source\PSoC5/Display1.c ****     *   Display1_TX_STS_COMPLETE        Interrupt on TX byte complete
 897:.\Generated_Source\PSoC5/Display1.c ****     *   Display1_TX_STS_FIFO_EMPTY      Interrupt when TX FIFO is empty
 898:.\Generated_Source\PSoC5/Display1.c ****     *   Display1_TX_STS_FIFO_FULL       Interrupt when TX FIFO is full
ARM GAS  C:\Users\RECEPC~1\AppData\Local\Temp\cclIxQZ0.s 			page 31


 899:.\Generated_Source\PSoC5/Display1.c ****     *   Display1_TX_STS_FIFO_NOT_FULL   Interrupt when TX FIFO is not full
 900:.\Generated_Source\PSoC5/Display1.c ****     *
 901:.\Generated_Source\PSoC5/Display1.c ****     * Return:
 902:.\Generated_Source\PSoC5/Display1.c ****     *  None.
 903:.\Generated_Source\PSoC5/Display1.c ****     *
 904:.\Generated_Source\PSoC5/Display1.c ****     * Theory:
 905:.\Generated_Source\PSoC5/Display1.c ****     *  Enables the output of specific status bits to the interrupt controller
 906:.\Generated_Source\PSoC5/Display1.c ****     *
 907:.\Generated_Source\PSoC5/Display1.c ****     *******************************************************************************/
 908:.\Generated_Source\PSoC5/Display1.c ****     void Display1_SetTxInterruptMode(uint8 intSrc) 
 909:.\Generated_Source\PSoC5/Display1.c ****     {
 806              		.loc 1 909 0
 807              		.cfi_startproc
 808              		@ args = 0, pretend = 0, frame = 0
 809              		@ frame_needed = 0, uses_anonymous_args = 0
 810              		@ link register save eliminated.
 811              	.LVL58:
 910:.\Generated_Source\PSoC5/Display1.c ****         Display1_TXSTATUS_MASK_REG = intSrc;
 812              		.loc 1 910 0
 813 0000 014B     		ldr	r3, .L68
 814 0002 1870     		strb	r0, [r3]
 815 0004 7047     		bx	lr
 816              	.L69:
 817 0006 00BF     		.align	2
 818              	.L68:
 819 0008 88640040 		.word	1073767560
 820              		.cfi_endproc
 821              	.LFE16:
 822              		.size	Display1_SetTxInterruptMode, .-Display1_SetTxInterruptMode
 823              		.section	.text.Display1_WriteTxData,"ax",%progbits
 824              		.align	2
 825              		.global	Display1_WriteTxData
 826              		.thumb
 827              		.thumb_func
 828              		.type	Display1_WriteTxData, %function
 829              	Display1_WriteTxData:
 830              	.LFB17:
 911:.\Generated_Source\PSoC5/Display1.c ****     }
 912:.\Generated_Source\PSoC5/Display1.c **** 
 913:.\Generated_Source\PSoC5/Display1.c **** 
 914:.\Generated_Source\PSoC5/Display1.c ****     /*******************************************************************************
 915:.\Generated_Source\PSoC5/Display1.c ****     * Function Name: Display1_WriteTxData
 916:.\Generated_Source\PSoC5/Display1.c ****     ********************************************************************************
 917:.\Generated_Source\PSoC5/Display1.c ****     *
 918:.\Generated_Source\PSoC5/Display1.c ****     * Summary:
 919:.\Generated_Source\PSoC5/Display1.c ****     *  Places a byte of data into the transmit buffer to be sent when the bus is
 920:.\Generated_Source\PSoC5/Display1.c ****     *  available without checking the TX status register. You must check status
 921:.\Generated_Source\PSoC5/Display1.c ****     *  separately.
 922:.\Generated_Source\PSoC5/Display1.c ****     *
 923:.\Generated_Source\PSoC5/Display1.c ****     * Parameters:
 924:.\Generated_Source\PSoC5/Display1.c ****     *  txDataByte: data byte
 925:.\Generated_Source\PSoC5/Display1.c ****     *
 926:.\Generated_Source\PSoC5/Display1.c ****     * Return:
 927:.\Generated_Source\PSoC5/Display1.c ****     * None.
 928:.\Generated_Source\PSoC5/Display1.c ****     *
 929:.\Generated_Source\PSoC5/Display1.c ****     * Global Variables:
 930:.\Generated_Source\PSoC5/Display1.c ****     *  Display1_txBuffer - RAM buffer pointer for save data for transmission
ARM GAS  C:\Users\RECEPC~1\AppData\Local\Temp\cclIxQZ0.s 			page 32


 931:.\Generated_Source\PSoC5/Display1.c ****     *  Display1_txBufferWrite - cyclic index for write to txBuffer,
 932:.\Generated_Source\PSoC5/Display1.c ****     *    incremented after each byte saved to buffer.
 933:.\Generated_Source\PSoC5/Display1.c ****     *  Display1_txBufferRead - cyclic index for read from txBuffer,
 934:.\Generated_Source\PSoC5/Display1.c ****     *    checked to identify the condition to write to FIFO directly or to TX buffer
 935:.\Generated_Source\PSoC5/Display1.c ****     *  Display1_initVar - checked to identify that the component has been
 936:.\Generated_Source\PSoC5/Display1.c ****     *    initialized.
 937:.\Generated_Source\PSoC5/Display1.c ****     *
 938:.\Generated_Source\PSoC5/Display1.c ****     * Reentrant:
 939:.\Generated_Source\PSoC5/Display1.c ****     *  No.
 940:.\Generated_Source\PSoC5/Display1.c ****     *
 941:.\Generated_Source\PSoC5/Display1.c ****     *******************************************************************************/
 942:.\Generated_Source\PSoC5/Display1.c ****     void Display1_WriteTxData(uint8 txDataByte) 
 943:.\Generated_Source\PSoC5/Display1.c ****     {
 831              		.loc 1 943 0
 832              		.cfi_startproc
 833              		@ args = 0, pretend = 0, frame = 0
 834              		@ frame_needed = 0, uses_anonymous_args = 0
 835              		@ link register save eliminated.
 836              	.LVL59:
 944:.\Generated_Source\PSoC5/Display1.c ****         /* If not Initialized then skip this function*/
 945:.\Generated_Source\PSoC5/Display1.c ****         if(Display1_initVar != 0u)
 837              		.loc 1 945 0
 838 0000 024B     		ldr	r3, .L72
 839 0002 5B78     		ldrb	r3, [r3, #1]	@ zero_extendqisi2
 840 0004 0BB1     		cbz	r3, .L70
 946:.\Generated_Source\PSoC5/Display1.c ****         {
 947:.\Generated_Source\PSoC5/Display1.c ****         #if (Display1_TX_INTERRUPT_ENABLED)
 948:.\Generated_Source\PSoC5/Display1.c **** 
 949:.\Generated_Source\PSoC5/Display1.c ****             /* Protect variables that could change on interrupt. */
 950:.\Generated_Source\PSoC5/Display1.c ****             Display1_DisableTxInt();
 951:.\Generated_Source\PSoC5/Display1.c **** 
 952:.\Generated_Source\PSoC5/Display1.c ****             if( (Display1_txBufferRead == Display1_txBufferWrite) &&
 953:.\Generated_Source\PSoC5/Display1.c ****                 ((Display1_TXSTATUS_REG & Display1_TX_STS_FIFO_FULL) == 0u) )
 954:.\Generated_Source\PSoC5/Display1.c ****             {
 955:.\Generated_Source\PSoC5/Display1.c ****                 /* Add directly to the FIFO. */
 956:.\Generated_Source\PSoC5/Display1.c ****                 Display1_TXDATA_REG = txDataByte;
 957:.\Generated_Source\PSoC5/Display1.c ****             }
 958:.\Generated_Source\PSoC5/Display1.c ****             else
 959:.\Generated_Source\PSoC5/Display1.c ****             {
 960:.\Generated_Source\PSoC5/Display1.c ****                 if(Display1_txBufferWrite >= Display1_TX_BUFFER_SIZE)
 961:.\Generated_Source\PSoC5/Display1.c ****                 {
 962:.\Generated_Source\PSoC5/Display1.c ****                     Display1_txBufferWrite = 0u;
 963:.\Generated_Source\PSoC5/Display1.c ****                 }
 964:.\Generated_Source\PSoC5/Display1.c **** 
 965:.\Generated_Source\PSoC5/Display1.c ****                 Display1_txBuffer[Display1_txBufferWrite] = txDataByte;
 966:.\Generated_Source\PSoC5/Display1.c **** 
 967:.\Generated_Source\PSoC5/Display1.c ****                 /* Add to the software buffer. */
 968:.\Generated_Source\PSoC5/Display1.c ****                 Display1_txBufferWrite++;
 969:.\Generated_Source\PSoC5/Display1.c ****             }
 970:.\Generated_Source\PSoC5/Display1.c **** 
 971:.\Generated_Source\PSoC5/Display1.c ****             Display1_EnableTxInt();
 972:.\Generated_Source\PSoC5/Display1.c **** 
 973:.\Generated_Source\PSoC5/Display1.c ****         #else
 974:.\Generated_Source\PSoC5/Display1.c **** 
 975:.\Generated_Source\PSoC5/Display1.c ****             /* Add directly to the FIFO. */
 976:.\Generated_Source\PSoC5/Display1.c ****             Display1_TXDATA_REG = txDataByte;
 841              		.loc 1 976 0
ARM GAS  C:\Users\RECEPC~1\AppData\Local\Temp\cclIxQZ0.s 			page 33


 842 0006 024B     		ldr	r3, .L72+4
 843 0008 1870     		strb	r0, [r3]
 844              	.L70:
 845 000a 7047     		bx	lr
 846              	.L73:
 847              		.align	2
 848              	.L72:
 849 000c 00000000 		.word	.LANCHOR0
 850 0010 47640040 		.word	1073767495
 851              		.cfi_endproc
 852              	.LFE17:
 853              		.size	Display1_WriteTxData, .-Display1_WriteTxData
 854              		.section	.text.Display1_ReadTxStatus,"ax",%progbits
 855              		.align	2
 856              		.global	Display1_ReadTxStatus
 857              		.thumb
 858              		.thumb_func
 859              		.type	Display1_ReadTxStatus, %function
 860              	Display1_ReadTxStatus:
 861              	.LFB18:
 977:.\Generated_Source\PSoC5/Display1.c **** 
 978:.\Generated_Source\PSoC5/Display1.c ****         #endif /*(Display1_TX_INTERRUPT_ENABLED) */
 979:.\Generated_Source\PSoC5/Display1.c ****         }
 980:.\Generated_Source\PSoC5/Display1.c ****     }
 981:.\Generated_Source\PSoC5/Display1.c **** 
 982:.\Generated_Source\PSoC5/Display1.c **** 
 983:.\Generated_Source\PSoC5/Display1.c ****     /*******************************************************************************
 984:.\Generated_Source\PSoC5/Display1.c ****     * Function Name: Display1_ReadTxStatus
 985:.\Generated_Source\PSoC5/Display1.c ****     ********************************************************************************
 986:.\Generated_Source\PSoC5/Display1.c ****     *
 987:.\Generated_Source\PSoC5/Display1.c ****     * Summary:
 988:.\Generated_Source\PSoC5/Display1.c ****     *  Reads the status register for the TX portion of the UART.
 989:.\Generated_Source\PSoC5/Display1.c ****     *
 990:.\Generated_Source\PSoC5/Display1.c ****     * Parameters:
 991:.\Generated_Source\PSoC5/Display1.c ****     *  None.
 992:.\Generated_Source\PSoC5/Display1.c ****     *
 993:.\Generated_Source\PSoC5/Display1.c ****     * Return:
 994:.\Generated_Source\PSoC5/Display1.c ****     *  Contents of the status register
 995:.\Generated_Source\PSoC5/Display1.c ****     *
 996:.\Generated_Source\PSoC5/Display1.c ****     * Theory:
 997:.\Generated_Source\PSoC5/Display1.c ****     *  This function reads the TX status register, which is cleared on read.
 998:.\Generated_Source\PSoC5/Display1.c ****     *  It is up to the user to handle all bits in this return value accordingly,
 999:.\Generated_Source\PSoC5/Display1.c ****     *  even if the bit was not enabled as an interrupt source the event happened
1000:.\Generated_Source\PSoC5/Display1.c ****     *  and must be handled accordingly.
1001:.\Generated_Source\PSoC5/Display1.c ****     *
1002:.\Generated_Source\PSoC5/Display1.c ****     *******************************************************************************/
1003:.\Generated_Source\PSoC5/Display1.c ****     uint8 Display1_ReadTxStatus(void) 
1004:.\Generated_Source\PSoC5/Display1.c ****     {
 862              		.loc 1 1004 0
 863              		.cfi_startproc
 864              		@ args = 0, pretend = 0, frame = 0
 865              		@ frame_needed = 0, uses_anonymous_args = 0
 866              		@ link register save eliminated.
1005:.\Generated_Source\PSoC5/Display1.c ****         return(Display1_TXSTATUS_REG);
 867              		.loc 1 1005 0
 868 0000 014B     		ldr	r3, .L75
 869 0002 1878     		ldrb	r0, [r3]	@ zero_extendqisi2
ARM GAS  C:\Users\RECEPC~1\AppData\Local\Temp\cclIxQZ0.s 			page 34


1006:.\Generated_Source\PSoC5/Display1.c ****     }
 870              		.loc 1 1006 0
 871 0004 7047     		bx	lr
 872              	.L76:
 873 0006 00BF     		.align	2
 874              	.L75:
 875 0008 68640040 		.word	1073767528
 876              		.cfi_endproc
 877              	.LFE18:
 878              		.size	Display1_ReadTxStatus, .-Display1_ReadTxStatus
 879              		.section	.text.Display1_PutChar,"ax",%progbits
 880              		.align	2
 881              		.global	Display1_PutChar
 882              		.thumb
 883              		.thumb_func
 884              		.type	Display1_PutChar, %function
 885              	Display1_PutChar:
 886              	.LFB19:
1007:.\Generated_Source\PSoC5/Display1.c **** 
1008:.\Generated_Source\PSoC5/Display1.c **** 
1009:.\Generated_Source\PSoC5/Display1.c ****     /*******************************************************************************
1010:.\Generated_Source\PSoC5/Display1.c ****     * Function Name: Display1_PutChar
1011:.\Generated_Source\PSoC5/Display1.c ****     ********************************************************************************
1012:.\Generated_Source\PSoC5/Display1.c ****     *
1013:.\Generated_Source\PSoC5/Display1.c ****     * Summary:
1014:.\Generated_Source\PSoC5/Display1.c ****     *  Puts a byte of data into the transmit buffer to be sent when the bus is
1015:.\Generated_Source\PSoC5/Display1.c ****     *  available. This is a blocking API that waits until the TX buffer has room to
1016:.\Generated_Source\PSoC5/Display1.c ****     *  hold the data.
1017:.\Generated_Source\PSoC5/Display1.c ****     *
1018:.\Generated_Source\PSoC5/Display1.c ****     * Parameters:
1019:.\Generated_Source\PSoC5/Display1.c ****     *  txDataByte: Byte containing the data to transmit
1020:.\Generated_Source\PSoC5/Display1.c ****     *
1021:.\Generated_Source\PSoC5/Display1.c ****     * Return:
1022:.\Generated_Source\PSoC5/Display1.c ****     *  None.
1023:.\Generated_Source\PSoC5/Display1.c ****     *
1024:.\Generated_Source\PSoC5/Display1.c ****     * Global Variables:
1025:.\Generated_Source\PSoC5/Display1.c ****     *  Display1_txBuffer - RAM buffer pointer for save data for transmission
1026:.\Generated_Source\PSoC5/Display1.c ****     *  Display1_txBufferWrite - cyclic index for write to txBuffer,
1027:.\Generated_Source\PSoC5/Display1.c ****     *     checked to identify free space in txBuffer and incremented after each byte
1028:.\Generated_Source\PSoC5/Display1.c ****     *     saved to buffer.
1029:.\Generated_Source\PSoC5/Display1.c ****     *  Display1_txBufferRead - cyclic index for read from txBuffer,
1030:.\Generated_Source\PSoC5/Display1.c ****     *     checked to identify free space in txBuffer.
1031:.\Generated_Source\PSoC5/Display1.c ****     *  Display1_initVar - checked to identify that the component has been
1032:.\Generated_Source\PSoC5/Display1.c ****     *     initialized.
1033:.\Generated_Source\PSoC5/Display1.c ****     *
1034:.\Generated_Source\PSoC5/Display1.c ****     * Reentrant:
1035:.\Generated_Source\PSoC5/Display1.c ****     *  No.
1036:.\Generated_Source\PSoC5/Display1.c ****     *
1037:.\Generated_Source\PSoC5/Display1.c ****     * Theory:
1038:.\Generated_Source\PSoC5/Display1.c ****     *  Allows the user to transmit any byte of data in a single transfer
1039:.\Generated_Source\PSoC5/Display1.c ****     *
1040:.\Generated_Source\PSoC5/Display1.c ****     *******************************************************************************/
1041:.\Generated_Source\PSoC5/Display1.c ****     void Display1_PutChar(uint8 txDataByte) 
1042:.\Generated_Source\PSoC5/Display1.c ****     {
 887              		.loc 1 1042 0
 888              		.cfi_startproc
 889              		@ args = 0, pretend = 0, frame = 0
ARM GAS  C:\Users\RECEPC~1\AppData\Local\Temp\cclIxQZ0.s 			page 35


 890              		@ frame_needed = 0, uses_anonymous_args = 0
 891              		@ link register save eliminated.
 892              	.LVL60:
 893              	.L78:
1043:.\Generated_Source\PSoC5/Display1.c ****     #if (Display1_TX_INTERRUPT_ENABLED)
1044:.\Generated_Source\PSoC5/Display1.c ****         /* The temporary output pointer is used since it takes two instructions
1045:.\Generated_Source\PSoC5/Display1.c ****         *  to increment with a wrap, and we can't risk doing that with the real
1046:.\Generated_Source\PSoC5/Display1.c ****         *  pointer and getting an interrupt in between instructions.
1047:.\Generated_Source\PSoC5/Display1.c ****         */
1048:.\Generated_Source\PSoC5/Display1.c ****         uint8 locTxBufferWrite;
1049:.\Generated_Source\PSoC5/Display1.c ****         uint8 locTxBufferRead;
1050:.\Generated_Source\PSoC5/Display1.c **** 
1051:.\Generated_Source\PSoC5/Display1.c ****         do
1052:.\Generated_Source\PSoC5/Display1.c ****         { /* Block if software buffer is full, so we don't overwrite. */
1053:.\Generated_Source\PSoC5/Display1.c **** 
1054:.\Generated_Source\PSoC5/Display1.c ****         #if ((Display1_TX_BUFFER_SIZE > Display1_MAX_BYTE_VALUE) && (CY_PSOC3))
1055:.\Generated_Source\PSoC5/Display1.c ****             /* Disable TX interrupt to protect variables from modification */
1056:.\Generated_Source\PSoC5/Display1.c ****             Display1_DisableTxInt();
1057:.\Generated_Source\PSoC5/Display1.c ****         #endif /* (Display1_TX_BUFFER_SIZE > Display1_MAX_BYTE_VALUE) && (CY_PSOC3) */
1058:.\Generated_Source\PSoC5/Display1.c **** 
1059:.\Generated_Source\PSoC5/Display1.c ****             locTxBufferWrite = Display1_txBufferWrite;
1060:.\Generated_Source\PSoC5/Display1.c ****             locTxBufferRead  = Display1_txBufferRead;
1061:.\Generated_Source\PSoC5/Display1.c **** 
1062:.\Generated_Source\PSoC5/Display1.c ****         #if ((Display1_TX_BUFFER_SIZE > Display1_MAX_BYTE_VALUE) && (CY_PSOC3))
1063:.\Generated_Source\PSoC5/Display1.c ****             /* Enable interrupt to continue transmission */
1064:.\Generated_Source\PSoC5/Display1.c ****             Display1_EnableTxInt();
1065:.\Generated_Source\PSoC5/Display1.c ****         #endif /* (Display1_TX_BUFFER_SIZE > Display1_MAX_BYTE_VALUE) && (CY_PSOC3) */
1066:.\Generated_Source\PSoC5/Display1.c ****         }
1067:.\Generated_Source\PSoC5/Display1.c ****         while( (locTxBufferWrite < locTxBufferRead) ? (locTxBufferWrite == (locTxBufferRead - 1u)) 
1068:.\Generated_Source\PSoC5/Display1.c ****                                 ((locTxBufferWrite - locTxBufferRead) ==
1069:.\Generated_Source\PSoC5/Display1.c ****                                 (uint8)(Display1_TX_BUFFER_SIZE - 1u)) );
1070:.\Generated_Source\PSoC5/Display1.c **** 
1071:.\Generated_Source\PSoC5/Display1.c ****         if( (locTxBufferRead == locTxBufferWrite) &&
1072:.\Generated_Source\PSoC5/Display1.c ****             ((Display1_TXSTATUS_REG & Display1_TX_STS_FIFO_FULL) == 0u) )
1073:.\Generated_Source\PSoC5/Display1.c ****         {
1074:.\Generated_Source\PSoC5/Display1.c ****             /* Add directly to the FIFO */
1075:.\Generated_Source\PSoC5/Display1.c ****             Display1_TXDATA_REG = txDataByte;
1076:.\Generated_Source\PSoC5/Display1.c ****         }
1077:.\Generated_Source\PSoC5/Display1.c ****         else
1078:.\Generated_Source\PSoC5/Display1.c ****         {
1079:.\Generated_Source\PSoC5/Display1.c ****             if(locTxBufferWrite >= Display1_TX_BUFFER_SIZE)
1080:.\Generated_Source\PSoC5/Display1.c ****             {
1081:.\Generated_Source\PSoC5/Display1.c ****                 locTxBufferWrite = 0u;
1082:.\Generated_Source\PSoC5/Display1.c ****             }
1083:.\Generated_Source\PSoC5/Display1.c ****             /* Add to the software buffer. */
1084:.\Generated_Source\PSoC5/Display1.c ****             Display1_txBuffer[locTxBufferWrite] = txDataByte;
1085:.\Generated_Source\PSoC5/Display1.c ****             locTxBufferWrite++;
1086:.\Generated_Source\PSoC5/Display1.c **** 
1087:.\Generated_Source\PSoC5/Display1.c ****             /* Finally, update the real output pointer */
1088:.\Generated_Source\PSoC5/Display1.c ****         #if ((Display1_TX_BUFFER_SIZE > Display1_MAX_BYTE_VALUE) && (CY_PSOC3))
1089:.\Generated_Source\PSoC5/Display1.c ****             Display1_DisableTxInt();
1090:.\Generated_Source\PSoC5/Display1.c ****         #endif /* (Display1_TX_BUFFER_SIZE > Display1_MAX_BYTE_VALUE) && (CY_PSOC3) */
1091:.\Generated_Source\PSoC5/Display1.c **** 
1092:.\Generated_Source\PSoC5/Display1.c ****             Display1_txBufferWrite = locTxBufferWrite;
1093:.\Generated_Source\PSoC5/Display1.c **** 
1094:.\Generated_Source\PSoC5/Display1.c ****         #if ((Display1_TX_BUFFER_SIZE > Display1_MAX_BYTE_VALUE) && (CY_PSOC3))
1095:.\Generated_Source\PSoC5/Display1.c ****             Display1_EnableTxInt();
ARM GAS  C:\Users\RECEPC~1\AppData\Local\Temp\cclIxQZ0.s 			page 36


1096:.\Generated_Source\PSoC5/Display1.c ****         #endif /* (Display1_TX_BUFFER_SIZE > Display1_MAX_BYTE_VALUE) && (CY_PSOC3) */
1097:.\Generated_Source\PSoC5/Display1.c **** 
1098:.\Generated_Source\PSoC5/Display1.c ****             if(0u != (Display1_TXSTATUS_REG & Display1_TX_STS_FIFO_EMPTY))
1099:.\Generated_Source\PSoC5/Display1.c ****             {
1100:.\Generated_Source\PSoC5/Display1.c ****                 /* Trigger TX interrupt to send software buffer */
1101:.\Generated_Source\PSoC5/Display1.c ****                 Display1_SetPendingTxInt();
1102:.\Generated_Source\PSoC5/Display1.c ****             }
1103:.\Generated_Source\PSoC5/Display1.c ****         }
1104:.\Generated_Source\PSoC5/Display1.c **** 
1105:.\Generated_Source\PSoC5/Display1.c ****     #else
1106:.\Generated_Source\PSoC5/Display1.c **** 
1107:.\Generated_Source\PSoC5/Display1.c ****         while((Display1_TXSTATUS_REG & Display1_TX_STS_FIFO_FULL) != 0u)
 894              		.loc 1 1107 0 discriminator 1
 895 0000 034B     		ldr	r3, .L79
 896 0002 1B78     		ldrb	r3, [r3]	@ zero_extendqisi2
 897 0004 13F0040F 		tst	r3, #4
 898 0008 FAD1     		bne	.L78
1108:.\Generated_Source\PSoC5/Display1.c ****         {
1109:.\Generated_Source\PSoC5/Display1.c ****             /* Wait for room in the FIFO */
1110:.\Generated_Source\PSoC5/Display1.c ****         }
1111:.\Generated_Source\PSoC5/Display1.c **** 
1112:.\Generated_Source\PSoC5/Display1.c ****         /* Add directly to the FIFO */
1113:.\Generated_Source\PSoC5/Display1.c ****         Display1_TXDATA_REG = txDataByte;
 899              		.loc 1 1113 0
 900 000a 024B     		ldr	r3, .L79+4
 901 000c 1870     		strb	r0, [r3]
 902 000e 7047     		bx	lr
 903              	.L80:
 904              		.align	2
 905              	.L79:
 906 0010 68640040 		.word	1073767528
 907 0014 47640040 		.word	1073767495
 908              		.cfi_endproc
 909              	.LFE19:
 910              		.size	Display1_PutChar, .-Display1_PutChar
 911              		.section	.text.Display1_PutString,"ax",%progbits
 912              		.align	2
 913              		.global	Display1_PutString
 914              		.thumb
 915              		.thumb_func
 916              		.type	Display1_PutString, %function
 917              	Display1_PutString:
 918              	.LFB20:
1114:.\Generated_Source\PSoC5/Display1.c **** 
1115:.\Generated_Source\PSoC5/Display1.c ****     #endif /* Display1_TX_INTERRUPT_ENABLED */
1116:.\Generated_Source\PSoC5/Display1.c ****     }
1117:.\Generated_Source\PSoC5/Display1.c **** 
1118:.\Generated_Source\PSoC5/Display1.c **** 
1119:.\Generated_Source\PSoC5/Display1.c ****     /*******************************************************************************
1120:.\Generated_Source\PSoC5/Display1.c ****     * Function Name: Display1_PutString
1121:.\Generated_Source\PSoC5/Display1.c ****     ********************************************************************************
1122:.\Generated_Source\PSoC5/Display1.c ****     *
1123:.\Generated_Source\PSoC5/Display1.c ****     * Summary:
1124:.\Generated_Source\PSoC5/Display1.c ****     *  Sends a NULL terminated string to the TX buffer for transmission.
1125:.\Generated_Source\PSoC5/Display1.c ****     *
1126:.\Generated_Source\PSoC5/Display1.c ****     * Parameters:
1127:.\Generated_Source\PSoC5/Display1.c ****     *  string[]: Pointer to the null terminated string array residing in RAM or ROM
ARM GAS  C:\Users\RECEPC~1\AppData\Local\Temp\cclIxQZ0.s 			page 37


1128:.\Generated_Source\PSoC5/Display1.c ****     *
1129:.\Generated_Source\PSoC5/Display1.c ****     * Return:
1130:.\Generated_Source\PSoC5/Display1.c ****     *  None.
1131:.\Generated_Source\PSoC5/Display1.c ****     *
1132:.\Generated_Source\PSoC5/Display1.c ****     * Global Variables:
1133:.\Generated_Source\PSoC5/Display1.c ****     *  Display1_initVar - checked to identify that the component has been
1134:.\Generated_Source\PSoC5/Display1.c ****     *     initialized.
1135:.\Generated_Source\PSoC5/Display1.c ****     *
1136:.\Generated_Source\PSoC5/Display1.c ****     * Reentrant:
1137:.\Generated_Source\PSoC5/Display1.c ****     *  No.
1138:.\Generated_Source\PSoC5/Display1.c ****     *
1139:.\Generated_Source\PSoC5/Display1.c ****     * Theory:
1140:.\Generated_Source\PSoC5/Display1.c ****     *  If there is not enough memory in the TX buffer for the entire string, this
1141:.\Generated_Source\PSoC5/Display1.c ****     *  function blocks until the last character of the string is loaded into the
1142:.\Generated_Source\PSoC5/Display1.c ****     *  TX buffer.
1143:.\Generated_Source\PSoC5/Display1.c ****     *
1144:.\Generated_Source\PSoC5/Display1.c ****     *******************************************************************************/
1145:.\Generated_Source\PSoC5/Display1.c ****     void Display1_PutString(const char8 string[]) 
1146:.\Generated_Source\PSoC5/Display1.c ****     {
 919              		.loc 1 1146 0
 920              		.cfi_startproc
 921              		@ args = 0, pretend = 0, frame = 0
 922              		@ frame_needed = 0, uses_anonymous_args = 0
 923              	.LVL61:
 924 0000 38B5     		push	{r3, r4, r5, lr}
 925              		.cfi_def_cfa_offset 16
 926              		.cfi_offset 3, -16
 927              		.cfi_offset 4, -12
 928              		.cfi_offset 5, -8
 929              		.cfi_offset 14, -4
 930              	.LVL62:
1147:.\Generated_Source\PSoC5/Display1.c ****         uint16 bufIndex = 0u;
1148:.\Generated_Source\PSoC5/Display1.c **** 
1149:.\Generated_Source\PSoC5/Display1.c ****         /* If not Initialized then skip this function */
1150:.\Generated_Source\PSoC5/Display1.c ****         if(Display1_initVar != 0u)
 931              		.loc 1 1150 0
 932 0002 074B     		ldr	r3, .L87
 933 0004 5B78     		ldrb	r3, [r3, #1]	@ zero_extendqisi2
 934 0006 2BB9     		cbnz	r3, .L85
 935 0008 38BD     		pop	{r3, r4, r5, pc}
 936              	.LVL63:
 937              	.L84:
1151:.\Generated_Source\PSoC5/Display1.c ****         {
1152:.\Generated_Source\PSoC5/Display1.c ****             /* This is a blocking function, it will not exit until all data is sent */
1153:.\Generated_Source\PSoC5/Display1.c ****             while(string[bufIndex] != (char8) 0)
1154:.\Generated_Source\PSoC5/Display1.c ****             {
1155:.\Generated_Source\PSoC5/Display1.c ****                 Display1_PutChar((uint8)string[bufIndex]);
 938              		.loc 1 1155 0
 939 000a FFF7FEFF 		bl	Display1_PutChar
 940              	.LVL64:
1156:.\Generated_Source\PSoC5/Display1.c ****                 bufIndex++;
 941              		.loc 1 1156 0
 942 000e 0134     		adds	r4, r4, #1
 943              	.LVL65:
 944 0010 A4B2     		uxth	r4, r4
 945              	.LVL66:
 946 0012 01E0     		b	.L82
ARM GAS  C:\Users\RECEPC~1\AppData\Local\Temp\cclIxQZ0.s 			page 38


 947              	.LVL67:
 948              	.L85:
 949 0014 0546     		mov	r5, r0
 950 0016 0024     		movs	r4, #0
 951              	.LVL68:
 952              	.L82:
1153:.\Generated_Source\PSoC5/Display1.c ****             {
 953              		.loc 1 1153 0
 954 0018 285D     		ldrb	r0, [r5, r4]	@ zero_extendqisi2
 955 001a 0028     		cmp	r0, #0
 956 001c F5D1     		bne	.L84
 957 001e 38BD     		pop	{r3, r4, r5, pc}
 958              	.LVL69:
 959              	.L88:
 960              		.align	2
 961              	.L87:
 962 0020 00000000 		.word	.LANCHOR0
 963              		.cfi_endproc
 964              	.LFE20:
 965              		.size	Display1_PutString, .-Display1_PutString
 966              		.section	.text.Display1_PutArray,"ax",%progbits
 967              		.align	2
 968              		.global	Display1_PutArray
 969              		.thumb
 970              		.thumb_func
 971              		.type	Display1_PutArray, %function
 972              	Display1_PutArray:
 973              	.LFB21:
1157:.\Generated_Source\PSoC5/Display1.c ****             }
1158:.\Generated_Source\PSoC5/Display1.c ****         }
1159:.\Generated_Source\PSoC5/Display1.c ****     }
1160:.\Generated_Source\PSoC5/Display1.c **** 
1161:.\Generated_Source\PSoC5/Display1.c **** 
1162:.\Generated_Source\PSoC5/Display1.c ****     /*******************************************************************************
1163:.\Generated_Source\PSoC5/Display1.c ****     * Function Name: Display1_PutArray
1164:.\Generated_Source\PSoC5/Display1.c ****     ********************************************************************************
1165:.\Generated_Source\PSoC5/Display1.c ****     *
1166:.\Generated_Source\PSoC5/Display1.c ****     * Summary:
1167:.\Generated_Source\PSoC5/Display1.c ****     *  Places N bytes of data from a memory array into the TX buffer for
1168:.\Generated_Source\PSoC5/Display1.c ****     *  transmission.
1169:.\Generated_Source\PSoC5/Display1.c ****     *
1170:.\Generated_Source\PSoC5/Display1.c ****     * Parameters:
1171:.\Generated_Source\PSoC5/Display1.c ****     *  string[]: Address of the memory array residing in RAM or ROM.
1172:.\Generated_Source\PSoC5/Display1.c ****     *  byteCount: Number of bytes to be transmitted. The type depends on TX Buffer
1173:.\Generated_Source\PSoC5/Display1.c ****     *             Size parameter.
1174:.\Generated_Source\PSoC5/Display1.c ****     *
1175:.\Generated_Source\PSoC5/Display1.c ****     * Return:
1176:.\Generated_Source\PSoC5/Display1.c ****     *  None.
1177:.\Generated_Source\PSoC5/Display1.c ****     *
1178:.\Generated_Source\PSoC5/Display1.c ****     * Global Variables:
1179:.\Generated_Source\PSoC5/Display1.c ****     *  Display1_initVar - checked to identify that the component has been
1180:.\Generated_Source\PSoC5/Display1.c ****     *     initialized.
1181:.\Generated_Source\PSoC5/Display1.c ****     *
1182:.\Generated_Source\PSoC5/Display1.c ****     * Reentrant:
1183:.\Generated_Source\PSoC5/Display1.c ****     *  No.
1184:.\Generated_Source\PSoC5/Display1.c ****     *
1185:.\Generated_Source\PSoC5/Display1.c ****     * Theory:
ARM GAS  C:\Users\RECEPC~1\AppData\Local\Temp\cclIxQZ0.s 			page 39


1186:.\Generated_Source\PSoC5/Display1.c ****     *  If there is not enough memory in the TX buffer for the entire string, this
1187:.\Generated_Source\PSoC5/Display1.c ****     *  function blocks until the last character of the string is loaded into the
1188:.\Generated_Source\PSoC5/Display1.c ****     *  TX buffer.
1189:.\Generated_Source\PSoC5/Display1.c ****     *
1190:.\Generated_Source\PSoC5/Display1.c ****     *******************************************************************************/
1191:.\Generated_Source\PSoC5/Display1.c ****     void Display1_PutArray(const uint8 string[], uint8 byteCount)
1192:.\Generated_Source\PSoC5/Display1.c ****                                                                     
1193:.\Generated_Source\PSoC5/Display1.c ****     {
 974              		.loc 1 1193 0
 975              		.cfi_startproc
 976              		@ args = 0, pretend = 0, frame = 0
 977              		@ frame_needed = 0, uses_anonymous_args = 0
 978              	.LVL70:
1194:.\Generated_Source\PSoC5/Display1.c ****         uint8 bufIndex = 0u;
1195:.\Generated_Source\PSoC5/Display1.c **** 
1196:.\Generated_Source\PSoC5/Display1.c ****         /* If not Initialized then skip this function */
1197:.\Generated_Source\PSoC5/Display1.c ****         if(Display1_initVar != 0u)
 979              		.loc 1 1197 0
 980 0000 084B     		ldr	r3, .L95
 981 0002 5B78     		ldrb	r3, [r3, #1]	@ zero_extendqisi2
 982 0004 33B9     		cbnz	r3, .L93
 983 0006 7047     		bx	lr
 984              	.LVL71:
 985              	.L92:
 986              		.cfi_def_cfa_offset 16
 987              		.cfi_offset 4, -16
 988              		.cfi_offset 5, -12
 989              		.cfi_offset 6, -8
 990              		.cfi_offset 14, -4
1198:.\Generated_Source\PSoC5/Display1.c ****         {
1199:.\Generated_Source\PSoC5/Display1.c ****             while(bufIndex < byteCount)
1200:.\Generated_Source\PSoC5/Display1.c ****             {
1201:.\Generated_Source\PSoC5/Display1.c ****                 Display1_PutChar(string[bufIndex]);
 991              		.loc 1 1201 0
 992 0008 305D     		ldrb	r0, [r6, r4]	@ zero_extendqisi2
 993 000a FFF7FEFF 		bl	Display1_PutChar
 994              	.LVL72:
1202:.\Generated_Source\PSoC5/Display1.c ****                 bufIndex++;
 995              		.loc 1 1202 0
 996 000e 0134     		adds	r4, r4, #1
 997              	.LVL73:
 998 0010 E4B2     		uxtb	r4, r4
 999              	.LVL74:
 1000 0012 03E0     		b	.L90
 1001              	.LVL75:
 1002              	.L93:
 1003              		.cfi_def_cfa_offset 0
 1004              		.cfi_restore 4
 1005              		.cfi_restore 5
 1006              		.cfi_restore 6
 1007              		.cfi_restore 14
1193:.\Generated_Source\PSoC5/Display1.c ****         uint8 bufIndex = 0u;
 1008              		.loc 1 1193 0
 1009 0014 70B5     		push	{r4, r5, r6, lr}
 1010              		.cfi_def_cfa_offset 16
 1011              		.cfi_offset 4, -16
 1012              		.cfi_offset 5, -12
ARM GAS  C:\Users\RECEPC~1\AppData\Local\Temp\cclIxQZ0.s 			page 40


 1013              		.cfi_offset 6, -8
 1014              		.cfi_offset 14, -4
 1015 0016 0D46     		mov	r5, r1
 1016 0018 0646     		mov	r6, r0
 1017 001a 0024     		movs	r4, #0
 1018              	.LVL76:
 1019              	.L90:
1199:.\Generated_Source\PSoC5/Display1.c ****             {
 1020              		.loc 1 1199 0
 1021 001c AC42     		cmp	r4, r5
 1022 001e F3D3     		bcc	.L92
 1023 0020 70BD     		pop	{r4, r5, r6, pc}
 1024              	.LVL77:
 1025              	.L96:
 1026 0022 00BF     		.align	2
 1027              	.L95:
 1028 0024 00000000 		.word	.LANCHOR0
 1029              		.cfi_endproc
 1030              	.LFE21:
 1031              		.size	Display1_PutArray, .-Display1_PutArray
 1032              		.section	.text.Display1_PutCRLF,"ax",%progbits
 1033              		.align	2
 1034              		.global	Display1_PutCRLF
 1035              		.thumb
 1036              		.thumb_func
 1037              		.type	Display1_PutCRLF, %function
 1038              	Display1_PutCRLF:
 1039              	.LFB22:
1203:.\Generated_Source\PSoC5/Display1.c ****             }
1204:.\Generated_Source\PSoC5/Display1.c ****         }
1205:.\Generated_Source\PSoC5/Display1.c ****     }
1206:.\Generated_Source\PSoC5/Display1.c **** 
1207:.\Generated_Source\PSoC5/Display1.c **** 
1208:.\Generated_Source\PSoC5/Display1.c ****     /*******************************************************************************
1209:.\Generated_Source\PSoC5/Display1.c ****     * Function Name: Display1_PutCRLF
1210:.\Generated_Source\PSoC5/Display1.c ****     ********************************************************************************
1211:.\Generated_Source\PSoC5/Display1.c ****     *
1212:.\Generated_Source\PSoC5/Display1.c ****     * Summary:
1213:.\Generated_Source\PSoC5/Display1.c ****     *  Writes a byte of data followed by a carriage return (0x0D) and line feed
1214:.\Generated_Source\PSoC5/Display1.c ****     *  (0x0A) to the transmit buffer.
1215:.\Generated_Source\PSoC5/Display1.c ****     *
1216:.\Generated_Source\PSoC5/Display1.c ****     * Parameters:
1217:.\Generated_Source\PSoC5/Display1.c ****     *  txDataByte: Data byte to transmit before the carriage return and line feed.
1218:.\Generated_Source\PSoC5/Display1.c ****     *
1219:.\Generated_Source\PSoC5/Display1.c ****     * Return:
1220:.\Generated_Source\PSoC5/Display1.c ****     *  None.
1221:.\Generated_Source\PSoC5/Display1.c ****     *
1222:.\Generated_Source\PSoC5/Display1.c ****     * Global Variables:
1223:.\Generated_Source\PSoC5/Display1.c ****     *  Display1_initVar - checked to identify that the component has been
1224:.\Generated_Source\PSoC5/Display1.c ****     *     initialized.
1225:.\Generated_Source\PSoC5/Display1.c ****     *
1226:.\Generated_Source\PSoC5/Display1.c ****     * Reentrant:
1227:.\Generated_Source\PSoC5/Display1.c ****     *  No.
1228:.\Generated_Source\PSoC5/Display1.c ****     *
1229:.\Generated_Source\PSoC5/Display1.c ****     *******************************************************************************/
1230:.\Generated_Source\PSoC5/Display1.c ****     void Display1_PutCRLF(uint8 txDataByte) 
1231:.\Generated_Source\PSoC5/Display1.c ****     {
ARM GAS  C:\Users\RECEPC~1\AppData\Local\Temp\cclIxQZ0.s 			page 41


 1040              		.loc 1 1231 0
 1041              		.cfi_startproc
 1042              		@ args = 0, pretend = 0, frame = 0
 1043              		@ frame_needed = 0, uses_anonymous_args = 0
 1044              	.LVL78:
 1045 0000 08B5     		push	{r3, lr}
 1046              		.cfi_def_cfa_offset 8
 1047              		.cfi_offset 3, -8
 1048              		.cfi_offset 14, -4
1232:.\Generated_Source\PSoC5/Display1.c ****         /* If not Initialized then skip this function */
1233:.\Generated_Source\PSoC5/Display1.c ****         if(Display1_initVar != 0u)
 1049              		.loc 1 1233 0
 1050 0002 064B     		ldr	r3, .L100
 1051 0004 5B78     		ldrb	r3, [r3, #1]	@ zero_extendqisi2
 1052 0006 3BB1     		cbz	r3, .L97
1234:.\Generated_Source\PSoC5/Display1.c ****         {
1235:.\Generated_Source\PSoC5/Display1.c ****             Display1_PutChar(txDataByte);
 1053              		.loc 1 1235 0
 1054 0008 FFF7FEFF 		bl	Display1_PutChar
 1055              	.LVL79:
1236:.\Generated_Source\PSoC5/Display1.c ****             Display1_PutChar(0x0Du);
 1056              		.loc 1 1236 0
 1057 000c 0D20     		movs	r0, #13
 1058 000e FFF7FEFF 		bl	Display1_PutChar
 1059              	.LVL80:
1237:.\Generated_Source\PSoC5/Display1.c ****             Display1_PutChar(0x0Au);
 1060              		.loc 1 1237 0
 1061 0012 0A20     		movs	r0, #10
 1062 0014 FFF7FEFF 		bl	Display1_PutChar
 1063              	.LVL81:
 1064              	.L97:
 1065 0018 08BD     		pop	{r3, pc}
 1066              	.L101:
 1067 001a 00BF     		.align	2
 1068              	.L100:
 1069 001c 00000000 		.word	.LANCHOR0
 1070              		.cfi_endproc
 1071              	.LFE22:
 1072              		.size	Display1_PutCRLF, .-Display1_PutCRLF
 1073              		.section	.text.Display1_GetTxBufferSize,"ax",%progbits
 1074              		.align	2
 1075              		.global	Display1_GetTxBufferSize
 1076              		.thumb
 1077              		.thumb_func
 1078              		.type	Display1_GetTxBufferSize, %function
 1079              	Display1_GetTxBufferSize:
 1080              	.LFB23:
1238:.\Generated_Source\PSoC5/Display1.c ****         }
1239:.\Generated_Source\PSoC5/Display1.c ****     }
1240:.\Generated_Source\PSoC5/Display1.c **** 
1241:.\Generated_Source\PSoC5/Display1.c **** 
1242:.\Generated_Source\PSoC5/Display1.c ****     /*******************************************************************************
1243:.\Generated_Source\PSoC5/Display1.c ****     * Function Name: Display1_GetTxBufferSize
1244:.\Generated_Source\PSoC5/Display1.c ****     ********************************************************************************
1245:.\Generated_Source\PSoC5/Display1.c ****     *
1246:.\Generated_Source\PSoC5/Display1.c ****     * Summary:
1247:.\Generated_Source\PSoC5/Display1.c ****     *  Returns the number of bytes in the TX buffer which are waiting to be 
ARM GAS  C:\Users\RECEPC~1\AppData\Local\Temp\cclIxQZ0.s 			page 42


1248:.\Generated_Source\PSoC5/Display1.c ****     *  transmitted.
1249:.\Generated_Source\PSoC5/Display1.c ****     *  * TX software buffer is disabled (TX Buffer Size parameter is equal to 4): 
1250:.\Generated_Source\PSoC5/Display1.c ****     *    returns 0 for empty TX FIFO, 1 for not full TX FIFO or 4 for full TX FIFO.
1251:.\Generated_Source\PSoC5/Display1.c ****     *  * TX software buffer is enabled: returns the number of bytes in the TX 
1252:.\Generated_Source\PSoC5/Display1.c ****     *    software buffer which are waiting to be transmitted. Bytes available in the
1253:.\Generated_Source\PSoC5/Display1.c ****     *    TX FIFO do not count.
1254:.\Generated_Source\PSoC5/Display1.c ****     *
1255:.\Generated_Source\PSoC5/Display1.c ****     * Parameters:
1256:.\Generated_Source\PSoC5/Display1.c ****     *  None.
1257:.\Generated_Source\PSoC5/Display1.c ****     *
1258:.\Generated_Source\PSoC5/Display1.c ****     * Return:
1259:.\Generated_Source\PSoC5/Display1.c ****     *  Number of bytes used in the TX buffer. Return value type depends on the TX 
1260:.\Generated_Source\PSoC5/Display1.c ****     *  Buffer Size parameter.
1261:.\Generated_Source\PSoC5/Display1.c ****     *
1262:.\Generated_Source\PSoC5/Display1.c ****     * Global Variables:
1263:.\Generated_Source\PSoC5/Display1.c ****     *  Display1_txBufferWrite - used to calculate left space.
1264:.\Generated_Source\PSoC5/Display1.c ****     *  Display1_txBufferRead - used to calculate left space.
1265:.\Generated_Source\PSoC5/Display1.c ****     *
1266:.\Generated_Source\PSoC5/Display1.c ****     * Reentrant:
1267:.\Generated_Source\PSoC5/Display1.c ****     *  No.
1268:.\Generated_Source\PSoC5/Display1.c ****     *
1269:.\Generated_Source\PSoC5/Display1.c ****     * Theory:
1270:.\Generated_Source\PSoC5/Display1.c ****     *  Allows the user to find out how full the TX Buffer is.
1271:.\Generated_Source\PSoC5/Display1.c ****     *
1272:.\Generated_Source\PSoC5/Display1.c ****     *******************************************************************************/
1273:.\Generated_Source\PSoC5/Display1.c ****     uint8 Display1_GetTxBufferSize(void)
1274:.\Generated_Source\PSoC5/Display1.c ****                                                             
1275:.\Generated_Source\PSoC5/Display1.c ****     {
 1081              		.loc 1 1275 0
 1082              		.cfi_startproc
 1083              		@ args = 0, pretend = 0, frame = 0
 1084              		@ frame_needed = 0, uses_anonymous_args = 0
 1085              		@ link register save eliminated.
1276:.\Generated_Source\PSoC5/Display1.c ****         uint8 size;
1277:.\Generated_Source\PSoC5/Display1.c **** 
1278:.\Generated_Source\PSoC5/Display1.c ****     #if (Display1_TX_INTERRUPT_ENABLED)
1279:.\Generated_Source\PSoC5/Display1.c **** 
1280:.\Generated_Source\PSoC5/Display1.c ****         /* Protect variables that could change on interrupt. */
1281:.\Generated_Source\PSoC5/Display1.c ****         Display1_DisableTxInt();
1282:.\Generated_Source\PSoC5/Display1.c **** 
1283:.\Generated_Source\PSoC5/Display1.c ****         if(Display1_txBufferRead == Display1_txBufferWrite)
1284:.\Generated_Source\PSoC5/Display1.c ****         {
1285:.\Generated_Source\PSoC5/Display1.c ****             size = 0u;
1286:.\Generated_Source\PSoC5/Display1.c ****         }
1287:.\Generated_Source\PSoC5/Display1.c ****         else if(Display1_txBufferRead < Display1_txBufferWrite)
1288:.\Generated_Source\PSoC5/Display1.c ****         {
1289:.\Generated_Source\PSoC5/Display1.c ****             size = (Display1_txBufferWrite - Display1_txBufferRead);
1290:.\Generated_Source\PSoC5/Display1.c ****         }
1291:.\Generated_Source\PSoC5/Display1.c ****         else
1292:.\Generated_Source\PSoC5/Display1.c ****         {
1293:.\Generated_Source\PSoC5/Display1.c ****             size = (Display1_TX_BUFFER_SIZE - Display1_txBufferRead) +
1294:.\Generated_Source\PSoC5/Display1.c ****                     Display1_txBufferWrite;
1295:.\Generated_Source\PSoC5/Display1.c ****         }
1296:.\Generated_Source\PSoC5/Display1.c **** 
1297:.\Generated_Source\PSoC5/Display1.c ****         Display1_EnableTxInt();
1298:.\Generated_Source\PSoC5/Display1.c **** 
1299:.\Generated_Source\PSoC5/Display1.c ****     #else
ARM GAS  C:\Users\RECEPC~1\AppData\Local\Temp\cclIxQZ0.s 			page 43


1300:.\Generated_Source\PSoC5/Display1.c **** 
1301:.\Generated_Source\PSoC5/Display1.c ****         size = Display1_TXSTATUS_REG;
 1086              		.loc 1 1301 0
 1087 0000 074B     		ldr	r3, .L106
 1088 0002 1B78     		ldrb	r3, [r3]	@ zero_extendqisi2
 1089 0004 DBB2     		uxtb	r3, r3
 1090              	.LVL82:
1302:.\Generated_Source\PSoC5/Display1.c **** 
1303:.\Generated_Source\PSoC5/Display1.c ****         /* Is the fifo is full. */
1304:.\Generated_Source\PSoC5/Display1.c ****         if((size & Display1_TX_STS_FIFO_FULL) != 0u)
 1091              		.loc 1 1304 0
 1092 0006 13F0040F 		tst	r3, #4
 1093 000a 04D1     		bne	.L104
1305:.\Generated_Source\PSoC5/Display1.c ****         {
1306:.\Generated_Source\PSoC5/Display1.c ****             size = Display1_FIFO_LENGTH;
1307:.\Generated_Source\PSoC5/Display1.c ****         }
1308:.\Generated_Source\PSoC5/Display1.c ****         else if((size & Display1_TX_STS_FIFO_EMPTY) != 0u)
 1094              		.loc 1 1308 0
 1095 000c 13F0020F 		tst	r3, #2
 1096 0010 03D0     		beq	.L105
1309:.\Generated_Source\PSoC5/Display1.c ****         {
1310:.\Generated_Source\PSoC5/Display1.c ****             size = 0u;
 1097              		.loc 1 1310 0
 1098 0012 0020     		movs	r0, #0
 1099 0014 7047     		bx	lr
 1100              	.L104:
1306:.\Generated_Source\PSoC5/Display1.c ****         }
 1101              		.loc 1 1306 0
 1102 0016 0420     		movs	r0, #4
 1103 0018 7047     		bx	lr
 1104              	.L105:
1311:.\Generated_Source\PSoC5/Display1.c ****         }
1312:.\Generated_Source\PSoC5/Display1.c ****         else
1313:.\Generated_Source\PSoC5/Display1.c ****         {
1314:.\Generated_Source\PSoC5/Display1.c ****             /* We only know there is data in the fifo. */
1315:.\Generated_Source\PSoC5/Display1.c ****             size = 1u;
 1105              		.loc 1 1315 0
 1106 001a 0120     		movs	r0, #1
 1107              	.LVL83:
1316:.\Generated_Source\PSoC5/Display1.c ****         }
1317:.\Generated_Source\PSoC5/Display1.c **** 
1318:.\Generated_Source\PSoC5/Display1.c ****     #endif /* (Display1_TX_INTERRUPT_ENABLED) */
1319:.\Generated_Source\PSoC5/Display1.c **** 
1320:.\Generated_Source\PSoC5/Display1.c ****     return(size);
1321:.\Generated_Source\PSoC5/Display1.c ****     }
 1108              		.loc 1 1321 0
 1109 001c 7047     		bx	lr
 1110              	.L107:
 1111 001e 00BF     		.align	2
 1112              	.L106:
 1113 0020 68640040 		.word	1073767528
 1114              		.cfi_endproc
 1115              	.LFE23:
 1116              		.size	Display1_GetTxBufferSize, .-Display1_GetTxBufferSize
 1117              		.section	.text.Display1_ClearTxBuffer,"ax",%progbits
 1118              		.align	2
 1119              		.global	Display1_ClearTxBuffer
ARM GAS  C:\Users\RECEPC~1\AppData\Local\Temp\cclIxQZ0.s 			page 44


 1120              		.thumb
 1121              		.thumb_func
 1122              		.type	Display1_ClearTxBuffer, %function
 1123              	Display1_ClearTxBuffer:
 1124              	.LFB24:
1322:.\Generated_Source\PSoC5/Display1.c **** 
1323:.\Generated_Source\PSoC5/Display1.c **** 
1324:.\Generated_Source\PSoC5/Display1.c ****     /*******************************************************************************
1325:.\Generated_Source\PSoC5/Display1.c ****     * Function Name: Display1_ClearTxBuffer
1326:.\Generated_Source\PSoC5/Display1.c ****     ********************************************************************************
1327:.\Generated_Source\PSoC5/Display1.c ****     *
1328:.\Generated_Source\PSoC5/Display1.c ****     * Summary:
1329:.\Generated_Source\PSoC5/Display1.c ****     *  Clears all data from the TX buffer and hardware TX FIFO.
1330:.\Generated_Source\PSoC5/Display1.c ****     *
1331:.\Generated_Source\PSoC5/Display1.c ****     * Parameters:
1332:.\Generated_Source\PSoC5/Display1.c ****     *  None.
1333:.\Generated_Source\PSoC5/Display1.c ****     *
1334:.\Generated_Source\PSoC5/Display1.c ****     * Return:
1335:.\Generated_Source\PSoC5/Display1.c ****     *  None.
1336:.\Generated_Source\PSoC5/Display1.c ****     *
1337:.\Generated_Source\PSoC5/Display1.c ****     * Global Variables:
1338:.\Generated_Source\PSoC5/Display1.c ****     *  Display1_txBufferWrite - cleared to zero.
1339:.\Generated_Source\PSoC5/Display1.c ****     *  Display1_txBufferRead - cleared to zero.
1340:.\Generated_Source\PSoC5/Display1.c ****     *
1341:.\Generated_Source\PSoC5/Display1.c ****     * Reentrant:
1342:.\Generated_Source\PSoC5/Display1.c ****     *  No.
1343:.\Generated_Source\PSoC5/Display1.c ****     *
1344:.\Generated_Source\PSoC5/Display1.c ****     * Theory:
1345:.\Generated_Source\PSoC5/Display1.c ****     *  Setting the pointers to zero makes the system believe there is no data to
1346:.\Generated_Source\PSoC5/Display1.c ****     *  read and writing will resume at address 0 overwriting any data that may have
1347:.\Generated_Source\PSoC5/Display1.c ****     *  remained in the RAM.
1348:.\Generated_Source\PSoC5/Display1.c ****     *
1349:.\Generated_Source\PSoC5/Display1.c ****     * Side Effects:
1350:.\Generated_Source\PSoC5/Display1.c ****     *  Data waiting in the transmit buffer is not sent; a byte that is currently
1351:.\Generated_Source\PSoC5/Display1.c ****     *  transmitting finishes transmitting.
1352:.\Generated_Source\PSoC5/Display1.c ****     *
1353:.\Generated_Source\PSoC5/Display1.c ****     *******************************************************************************/
1354:.\Generated_Source\PSoC5/Display1.c ****     void Display1_ClearTxBuffer(void) 
1355:.\Generated_Source\PSoC5/Display1.c ****     {
 1125              		.loc 1 1355 0
 1126              		.cfi_startproc
 1127              		@ args = 0, pretend = 0, frame = 0
 1128              		@ frame_needed = 0, uses_anonymous_args = 0
 1129 0000 08B5     		push	{r3, lr}
 1130              		.cfi_def_cfa_offset 8
 1131              		.cfi_offset 3, -8
 1132              		.cfi_offset 14, -4
1356:.\Generated_Source\PSoC5/Display1.c ****         uint8 enableInterrupts;
1357:.\Generated_Source\PSoC5/Display1.c **** 
1358:.\Generated_Source\PSoC5/Display1.c ****         enableInterrupts = CyEnterCriticalSection();
 1133              		.loc 1 1358 0
 1134 0002 FFF7FEFF 		bl	CyEnterCriticalSection
 1135              	.LVL84:
1359:.\Generated_Source\PSoC5/Display1.c ****         /* Clear the HW FIFO */
1360:.\Generated_Source\PSoC5/Display1.c ****         Display1_TXDATA_AUX_CTL_REG |= (uint8)  Display1_TX_FIFO_CLR;
 1136              		.loc 1 1360 0
 1137 0006 064B     		ldr	r3, .L110
ARM GAS  C:\Users\RECEPC~1\AppData\Local\Temp\cclIxQZ0.s 			page 45


 1138 0008 1A78     		ldrb	r2, [r3]	@ zero_extendqisi2
 1139 000a 42F00102 		orr	r2, r2, #1
 1140 000e 1A70     		strb	r2, [r3]
1361:.\Generated_Source\PSoC5/Display1.c ****         Display1_TXDATA_AUX_CTL_REG &= (uint8) ~Display1_TX_FIFO_CLR;
 1141              		.loc 1 1361 0
 1142 0010 1A78     		ldrb	r2, [r3]	@ zero_extendqisi2
 1143 0012 02F0FE02 		and	r2, r2, #254
 1144 0016 1A70     		strb	r2, [r3]
1362:.\Generated_Source\PSoC5/Display1.c ****         CyExitCriticalSection(enableInterrupts);
 1145              		.loc 1 1362 0
 1146 0018 FFF7FEFF 		bl	CyExitCriticalSection
 1147              	.LVL85:
 1148 001c 08BD     		pop	{r3, pc}
 1149              	.L111:
 1150 001e 00BF     		.align	2
 1151              	.L110:
 1152 0020 97640040 		.word	1073767575
 1153              		.cfi_endproc
 1154              	.LFE24:
 1155              		.size	Display1_ClearTxBuffer, .-Display1_ClearTxBuffer
 1156              		.section	.text.Display1_SendBreak,"ax",%progbits
 1157              		.align	2
 1158              		.global	Display1_SendBreak
 1159              		.thumb
 1160              		.thumb_func
 1161              		.type	Display1_SendBreak, %function
 1162              	Display1_SendBreak:
 1163              	.LFB25:
1363:.\Generated_Source\PSoC5/Display1.c **** 
1364:.\Generated_Source\PSoC5/Display1.c ****     #if (Display1_TX_INTERRUPT_ENABLED)
1365:.\Generated_Source\PSoC5/Display1.c **** 
1366:.\Generated_Source\PSoC5/Display1.c ****         /* Protect variables that could change on interrupt. */
1367:.\Generated_Source\PSoC5/Display1.c ****         Display1_DisableTxInt();
1368:.\Generated_Source\PSoC5/Display1.c **** 
1369:.\Generated_Source\PSoC5/Display1.c ****         Display1_txBufferRead = 0u;
1370:.\Generated_Source\PSoC5/Display1.c ****         Display1_txBufferWrite = 0u;
1371:.\Generated_Source\PSoC5/Display1.c **** 
1372:.\Generated_Source\PSoC5/Display1.c ****         /* Enable Tx interrupt. */
1373:.\Generated_Source\PSoC5/Display1.c ****         Display1_EnableTxInt();
1374:.\Generated_Source\PSoC5/Display1.c **** 
1375:.\Generated_Source\PSoC5/Display1.c ****     #endif /* (Display1_TX_INTERRUPT_ENABLED) */
1376:.\Generated_Source\PSoC5/Display1.c ****     }
1377:.\Generated_Source\PSoC5/Display1.c **** 
1378:.\Generated_Source\PSoC5/Display1.c **** 
1379:.\Generated_Source\PSoC5/Display1.c ****     /*******************************************************************************
1380:.\Generated_Source\PSoC5/Display1.c ****     * Function Name: Display1_SendBreak
1381:.\Generated_Source\PSoC5/Display1.c ****     ********************************************************************************
1382:.\Generated_Source\PSoC5/Display1.c ****     *
1383:.\Generated_Source\PSoC5/Display1.c ****     * Summary:
1384:.\Generated_Source\PSoC5/Display1.c ****     *  Transmits a break signal on the bus.
1385:.\Generated_Source\PSoC5/Display1.c ****     *
1386:.\Generated_Source\PSoC5/Display1.c ****     * Parameters:
1387:.\Generated_Source\PSoC5/Display1.c ****     *  uint8 retMode:  Send Break return mode. See the following table for options.
1388:.\Generated_Source\PSoC5/Display1.c ****     *   Display1_SEND_BREAK - Initialize registers for break, send the Break
1389:.\Generated_Source\PSoC5/Display1.c ****     *       signal and return immediately.
1390:.\Generated_Source\PSoC5/Display1.c ****     *   Display1_WAIT_FOR_COMPLETE_REINIT - Wait until break transmission is
1391:.\Generated_Source\PSoC5/Display1.c ****     *       complete, reinitialize registers to normal transmission mode then return
ARM GAS  C:\Users\RECEPC~1\AppData\Local\Temp\cclIxQZ0.s 			page 46


1392:.\Generated_Source\PSoC5/Display1.c ****     *   Display1_REINIT - Reinitialize registers to normal transmission mode
1393:.\Generated_Source\PSoC5/Display1.c ****     *       then return.
1394:.\Generated_Source\PSoC5/Display1.c ****     *   Display1_SEND_WAIT_REINIT - Performs both options: 
1395:.\Generated_Source\PSoC5/Display1.c ****     *      Display1_SEND_BREAK and Display1_WAIT_FOR_COMPLETE_REINIT.
1396:.\Generated_Source\PSoC5/Display1.c ****     *      This option is recommended for most cases.
1397:.\Generated_Source\PSoC5/Display1.c ****     *
1398:.\Generated_Source\PSoC5/Display1.c ****     * Return:
1399:.\Generated_Source\PSoC5/Display1.c ****     *  None.
1400:.\Generated_Source\PSoC5/Display1.c ****     *
1401:.\Generated_Source\PSoC5/Display1.c ****     * Global Variables:
1402:.\Generated_Source\PSoC5/Display1.c ****     *  Display1_initVar - checked to identify that the component has been
1403:.\Generated_Source\PSoC5/Display1.c ****     *     initialized.
1404:.\Generated_Source\PSoC5/Display1.c ****     *  txPeriod - static variable, used for keeping TX period configuration.
1405:.\Generated_Source\PSoC5/Display1.c ****     *
1406:.\Generated_Source\PSoC5/Display1.c ****     * Reentrant:
1407:.\Generated_Source\PSoC5/Display1.c ****     *  No.
1408:.\Generated_Source\PSoC5/Display1.c ****     *
1409:.\Generated_Source\PSoC5/Display1.c ****     * Theory:
1410:.\Generated_Source\PSoC5/Display1.c ****     *  SendBreak function initializes registers to send 13-bit break signal. It is
1411:.\Generated_Source\PSoC5/Display1.c ****     *  important to return the registers configuration to normal for continue 8-bit
1412:.\Generated_Source\PSoC5/Display1.c ****     *  operation.
1413:.\Generated_Source\PSoC5/Display1.c ****     *  There are 3 variants for this API usage:
1414:.\Generated_Source\PSoC5/Display1.c ****     *  1) SendBreak(3) - function will send the Break signal and take care on the
1415:.\Generated_Source\PSoC5/Display1.c ****     *     configuration returning. Function will block CPU until transmission
1416:.\Generated_Source\PSoC5/Display1.c ****     *     complete.
1417:.\Generated_Source\PSoC5/Display1.c ****     *  2) User may want to use blocking time if UART configured to the low speed
1418:.\Generated_Source\PSoC5/Display1.c ****     *     operation
1419:.\Generated_Source\PSoC5/Display1.c ****     *     Example for this case:
1420:.\Generated_Source\PSoC5/Display1.c ****     *     SendBreak(0);     - initialize Break signal transmission
1421:.\Generated_Source\PSoC5/Display1.c ****     *         Add your code here to use CPU time
1422:.\Generated_Source\PSoC5/Display1.c ****     *     SendBreak(1);     - complete Break operation
1423:.\Generated_Source\PSoC5/Display1.c ****     *  3) Same to 2) but user may want to initialize and use the interrupt to
1424:.\Generated_Source\PSoC5/Display1.c ****     *     complete break operation.
1425:.\Generated_Source\PSoC5/Display1.c ****     *     Example for this case:
1426:.\Generated_Source\PSoC5/Display1.c ****     *     Initialize TX interrupt with "TX - On TX Complete" parameter
1427:.\Generated_Source\PSoC5/Display1.c ****     *     SendBreak(0);     - initialize Break signal transmission
1428:.\Generated_Source\PSoC5/Display1.c ****     *         Add your code here to use CPU time
1429:.\Generated_Source\PSoC5/Display1.c ****     *     When interrupt appear with Display1_TX_STS_COMPLETE status:
1430:.\Generated_Source\PSoC5/Display1.c ****     *     SendBreak(2);     - complete Break operation
1431:.\Generated_Source\PSoC5/Display1.c ****     *
1432:.\Generated_Source\PSoC5/Display1.c ****     * Side Effects:
1433:.\Generated_Source\PSoC5/Display1.c ****     *  The Display1_SendBreak() function initializes registers to send a
1434:.\Generated_Source\PSoC5/Display1.c ****     *  break signal.
1435:.\Generated_Source\PSoC5/Display1.c ****     *  Break signal length depends on the break signal bits configuration.
1436:.\Generated_Source\PSoC5/Display1.c ****     *  The register configuration should be reinitialized before normal 8-bit
1437:.\Generated_Source\PSoC5/Display1.c ****     *  communication can continue.
1438:.\Generated_Source\PSoC5/Display1.c ****     *
1439:.\Generated_Source\PSoC5/Display1.c ****     *******************************************************************************/
1440:.\Generated_Source\PSoC5/Display1.c ****     void Display1_SendBreak(uint8 retMode) 
1441:.\Generated_Source\PSoC5/Display1.c ****     {
 1164              		.loc 1 1441 0
 1165              		.cfi_startproc
 1166              		@ args = 0, pretend = 0, frame = 0
 1167              		@ frame_needed = 0, uses_anonymous_args = 0
 1168              		@ link register save eliminated.
 1169              	.LVL86:
1442:.\Generated_Source\PSoC5/Display1.c **** 
ARM GAS  C:\Users\RECEPC~1\AppData\Local\Temp\cclIxQZ0.s 			page 47


1443:.\Generated_Source\PSoC5/Display1.c ****         /* If not Initialized then skip this function*/
1444:.\Generated_Source\PSoC5/Display1.c ****         if(Display1_initVar != 0u)
 1170              		.loc 1 1444 0
 1171 0000 124B     		ldr	r3, .L119
 1172 0002 5B78     		ldrb	r3, [r3, #1]	@ zero_extendqisi2
 1173 0004 0BB3     		cbz	r3, .L112
 1174              	.LBB2:
1445:.\Generated_Source\PSoC5/Display1.c ****         {
1446:.\Generated_Source\PSoC5/Display1.c ****             /* Set the Counter to 13-bits and transmit a 00 byte */
1447:.\Generated_Source\PSoC5/Display1.c ****             /* When that is done then reset the counter value back */
1448:.\Generated_Source\PSoC5/Display1.c ****             uint8 tmpStat;
1449:.\Generated_Source\PSoC5/Display1.c **** 
1450:.\Generated_Source\PSoC5/Display1.c ****         #if(Display1_HD_ENABLED) /* Half Duplex mode*/
1451:.\Generated_Source\PSoC5/Display1.c **** 
1452:.\Generated_Source\PSoC5/Display1.c ****             if( (retMode == Display1_SEND_BREAK) ||
1453:.\Generated_Source\PSoC5/Display1.c ****                 (retMode == Display1_SEND_WAIT_REINIT ) )
1454:.\Generated_Source\PSoC5/Display1.c ****             {
1455:.\Generated_Source\PSoC5/Display1.c ****                 /* CTRL_HD_SEND_BREAK - sends break bits in HD mode */
1456:.\Generated_Source\PSoC5/Display1.c ****                 Display1_WriteControlRegister(Display1_ReadControlRegister() |
1457:.\Generated_Source\PSoC5/Display1.c ****                                                       Display1_CTRL_HD_SEND_BREAK);
1458:.\Generated_Source\PSoC5/Display1.c ****                 /* Send zeros */
1459:.\Generated_Source\PSoC5/Display1.c ****                 Display1_TXDATA_REG = 0u;
1460:.\Generated_Source\PSoC5/Display1.c **** 
1461:.\Generated_Source\PSoC5/Display1.c ****                 do /* Wait until transmit starts */
1462:.\Generated_Source\PSoC5/Display1.c ****                 {
1463:.\Generated_Source\PSoC5/Display1.c ****                     tmpStat = Display1_TXSTATUS_REG;
1464:.\Generated_Source\PSoC5/Display1.c ****                 }
1465:.\Generated_Source\PSoC5/Display1.c ****                 while((tmpStat & Display1_TX_STS_FIFO_EMPTY) != 0u);
1466:.\Generated_Source\PSoC5/Display1.c ****             }
1467:.\Generated_Source\PSoC5/Display1.c **** 
1468:.\Generated_Source\PSoC5/Display1.c ****             if( (retMode == Display1_WAIT_FOR_COMPLETE_REINIT) ||
1469:.\Generated_Source\PSoC5/Display1.c ****                 (retMode == Display1_SEND_WAIT_REINIT) )
1470:.\Generated_Source\PSoC5/Display1.c ****             {
1471:.\Generated_Source\PSoC5/Display1.c ****                 do /* Wait until transmit complete */
1472:.\Generated_Source\PSoC5/Display1.c ****                 {
1473:.\Generated_Source\PSoC5/Display1.c ****                     tmpStat = Display1_TXSTATUS_REG;
1474:.\Generated_Source\PSoC5/Display1.c ****                 }
1475:.\Generated_Source\PSoC5/Display1.c ****                 while(((uint8)~tmpStat & Display1_TX_STS_COMPLETE) != 0u);
1476:.\Generated_Source\PSoC5/Display1.c ****             }
1477:.\Generated_Source\PSoC5/Display1.c **** 
1478:.\Generated_Source\PSoC5/Display1.c ****             if( (retMode == Display1_WAIT_FOR_COMPLETE_REINIT) ||
1479:.\Generated_Source\PSoC5/Display1.c ****                 (retMode == Display1_REINIT) ||
1480:.\Generated_Source\PSoC5/Display1.c ****                 (retMode == Display1_SEND_WAIT_REINIT) )
1481:.\Generated_Source\PSoC5/Display1.c ****             {
1482:.\Generated_Source\PSoC5/Display1.c ****                 Display1_WriteControlRegister(Display1_ReadControlRegister() &
1483:.\Generated_Source\PSoC5/Display1.c ****                                               (uint8)~Display1_CTRL_HD_SEND_BREAK);
1484:.\Generated_Source\PSoC5/Display1.c ****             }
1485:.\Generated_Source\PSoC5/Display1.c **** 
1486:.\Generated_Source\PSoC5/Display1.c ****         #else /* Display1_HD_ENABLED Full Duplex mode */
1487:.\Generated_Source\PSoC5/Display1.c **** 
1488:.\Generated_Source\PSoC5/Display1.c ****             static uint8 txPeriod;
1489:.\Generated_Source\PSoC5/Display1.c **** 
1490:.\Generated_Source\PSoC5/Display1.c ****             if( (retMode == Display1_SEND_BREAK) ||
 1175              		.loc 1 1490 0
 1176 0006 08B1     		cbz	r0, .L114
 1177              		.loc 1 1490 0 is_stmt 0 discriminator 1
 1178 0008 0328     		cmp	r0, #3
ARM GAS  C:\Users\RECEPC~1\AppData\Local\Temp\cclIxQZ0.s 			page 48


 1179 000a 0DD1     		bne	.L115
 1180              	.L114:
1491:.\Generated_Source\PSoC5/Display1.c ****                 (retMode == Display1_SEND_WAIT_REINIT) )
1492:.\Generated_Source\PSoC5/Display1.c ****             {
1493:.\Generated_Source\PSoC5/Display1.c ****                 /* CTRL_HD_SEND_BREAK - skip to send parity bit at Break signal in Full Duplex mode
1494:.\Generated_Source\PSoC5/Display1.c ****                 #if( (Display1_PARITY_TYPE != Display1__B_UART__NONE_REVB) || \
1495:.\Generated_Source\PSoC5/Display1.c ****                                     (Display1_PARITY_TYPE_SW != 0u) )
1496:.\Generated_Source\PSoC5/Display1.c ****                     Display1_WriteControlRegister(Display1_ReadControlRegister() |
1497:.\Generated_Source\PSoC5/Display1.c ****                                                           Display1_CTRL_HD_SEND_BREAK);
1498:.\Generated_Source\PSoC5/Display1.c ****                 #endif /* End Display1_PARITY_TYPE != Display1__B_UART__NONE_REVB  */
1499:.\Generated_Source\PSoC5/Display1.c **** 
1500:.\Generated_Source\PSoC5/Display1.c ****                 #if(Display1_TXCLKGEN_DP)
1501:.\Generated_Source\PSoC5/Display1.c ****                     txPeriod = Display1_TXBITCLKTX_COMPLETE_REG;
 1181              		.loc 1 1501 0 is_stmt 1
 1182 000c 104B     		ldr	r3, .L119+4
 1183 000e 1978     		ldrb	r1, [r3]	@ zero_extendqisi2
 1184 0010 0E4A     		ldr	r2, .L119
 1185 0012 9171     		strb	r1, [r2, #6]
1502:.\Generated_Source\PSoC5/Display1.c ****                     Display1_TXBITCLKTX_COMPLETE_REG = Display1_TXBITCTR_BREAKBITS;
 1186              		.loc 1 1502 0
 1187 0014 6722     		movs	r2, #103
 1188 0016 1A70     		strb	r2, [r3]
1503:.\Generated_Source\PSoC5/Display1.c ****                 #else
1504:.\Generated_Source\PSoC5/Display1.c ****                     txPeriod = Display1_TXBITCTR_PERIOD_REG;
1505:.\Generated_Source\PSoC5/Display1.c ****                     Display1_TXBITCTR_PERIOD_REG = Display1_TXBITCTR_BREAKBITS8X;
1506:.\Generated_Source\PSoC5/Display1.c ****                 #endif /* End Display1_TXCLKGEN_DP */
1507:.\Generated_Source\PSoC5/Display1.c **** 
1508:.\Generated_Source\PSoC5/Display1.c ****                 /* Send zeros */
1509:.\Generated_Source\PSoC5/Display1.c ****                 Display1_TXDATA_REG = 0u;
 1189              		.loc 1 1509 0
 1190 0018 0022     		movs	r2, #0
 1191 001a F03B     		subs	r3, r3, #240
 1192 001c 1A70     		strb	r2, [r3]
 1193              	.L116:
1510:.\Generated_Source\PSoC5/Display1.c **** 
1511:.\Generated_Source\PSoC5/Display1.c ****                 do /* Wait until transmit starts */
1512:.\Generated_Source\PSoC5/Display1.c ****                 {
1513:.\Generated_Source\PSoC5/Display1.c ****                     tmpStat = Display1_TXSTATUS_REG;
 1194              		.loc 1 1513 0 discriminator 1
 1195 001e 0D4B     		ldr	r3, .L119+8
 1196 0020 1B78     		ldrb	r3, [r3]	@ zero_extendqisi2
 1197              	.LVL87:
1514:.\Generated_Source\PSoC5/Display1.c ****                 }
1515:.\Generated_Source\PSoC5/Display1.c ****                 while((tmpStat & Display1_TX_STS_FIFO_EMPTY) != 0u);
 1198              		.loc 1 1515 0 discriminator 1
 1199 0022 13F0020F 		tst	r3, #2
 1200 0026 FAD1     		bne	.L116
 1201              	.LVL88:
 1202              	.L115:
1516:.\Generated_Source\PSoC5/Display1.c ****             }
1517:.\Generated_Source\PSoC5/Display1.c **** 
1518:.\Generated_Source\PSoC5/Display1.c ****             if( (retMode == Display1_WAIT_FOR_COMPLETE_REINIT) ||
 1203              		.loc 1 1518 0
 1204 0028 0128     		cmp	r0, #1
 1205 002a 01D0     		beq	.L117
 1206              		.loc 1 1518 0 is_stmt 0 discriminator 1
 1207 002c 0328     		cmp	r0, #3
ARM GAS  C:\Users\RECEPC~1\AppData\Local\Temp\cclIxQZ0.s 			page 49


 1208 002e 04D1     		bne	.L118
 1209              	.L117:
1519:.\Generated_Source\PSoC5/Display1.c ****                 (retMode == Display1_SEND_WAIT_REINIT) )
1520:.\Generated_Source\PSoC5/Display1.c ****             {
1521:.\Generated_Source\PSoC5/Display1.c ****                 do /* Wait until transmit complete */
1522:.\Generated_Source\PSoC5/Display1.c ****                 {
1523:.\Generated_Source\PSoC5/Display1.c ****                     tmpStat = Display1_TXSTATUS_REG;
 1210              		.loc 1 1523 0 is_stmt 1 discriminator 1
 1211 0030 084B     		ldr	r3, .L119+8
 1212 0032 1B78     		ldrb	r3, [r3]	@ zero_extendqisi2
 1213              	.LVL89:
1524:.\Generated_Source\PSoC5/Display1.c ****                 }
1525:.\Generated_Source\PSoC5/Display1.c ****                 while(((uint8)~tmpStat & Display1_TX_STS_COMPLETE) != 0u);
 1214              		.loc 1 1525 0 discriminator 1
 1215 0034 13F0010F 		tst	r3, #1
 1216 0038 FAD0     		beq	.L117
 1217              	.LVL90:
 1218              	.L118:
1526:.\Generated_Source\PSoC5/Display1.c ****             }
1527:.\Generated_Source\PSoC5/Display1.c **** 
1528:.\Generated_Source\PSoC5/Display1.c ****             if( (retMode == Display1_WAIT_FOR_COMPLETE_REINIT) ||
1529:.\Generated_Source\PSoC5/Display1.c ****                 (retMode == Display1_REINIT) ||
 1219              		.loc 1 1529 0
 1220 003a 0138     		subs	r0, r0, #1
 1221              	.LVL91:
 1222 003c C0B2     		uxtb	r0, r0
1528:.\Generated_Source\PSoC5/Display1.c ****                 (retMode == Display1_REINIT) ||
 1223              		.loc 1 1528 0
 1224 003e 0228     		cmp	r0, #2
 1225 0040 03D8     		bhi	.L112
1530:.\Generated_Source\PSoC5/Display1.c ****                 (retMode == Display1_SEND_WAIT_REINIT) )
1531:.\Generated_Source\PSoC5/Display1.c ****             {
1532:.\Generated_Source\PSoC5/Display1.c **** 
1533:.\Generated_Source\PSoC5/Display1.c ****             #if(Display1_TXCLKGEN_DP)
1534:.\Generated_Source\PSoC5/Display1.c ****                 Display1_TXBITCLKTX_COMPLETE_REG = txPeriod;
 1226              		.loc 1 1534 0
 1227 0042 024B     		ldr	r3, .L119
 1228 0044 9A79     		ldrb	r2, [r3, #6]	@ zero_extendqisi2
 1229 0046 024B     		ldr	r3, .L119+4
 1230 0048 1A70     		strb	r2, [r3]
 1231              	.L112:
 1232 004a 7047     		bx	lr
 1233              	.L120:
 1234              		.align	2
 1235              	.L119:
 1236 004c 00000000 		.word	.LANCHOR0
 1237 0050 37650040 		.word	1073767735
 1238 0054 68640040 		.word	1073767528
 1239              	.LBE2:
 1240              		.cfi_endproc
 1241              	.LFE25:
 1242              		.size	Display1_SendBreak, .-Display1_SendBreak
 1243              		.section	.text.Display1_SetTxAddressMode,"ax",%progbits
 1244              		.align	2
 1245              		.global	Display1_SetTxAddressMode
 1246              		.thumb
 1247              		.thumb_func
ARM GAS  C:\Users\RECEPC~1\AppData\Local\Temp\cclIxQZ0.s 			page 50


 1248              		.type	Display1_SetTxAddressMode, %function
 1249              	Display1_SetTxAddressMode:
 1250              	.LFB26:
1535:.\Generated_Source\PSoC5/Display1.c ****             #else
1536:.\Generated_Source\PSoC5/Display1.c ****                 Display1_TXBITCTR_PERIOD_REG = txPeriod;
1537:.\Generated_Source\PSoC5/Display1.c ****             #endif /* End Display1_TXCLKGEN_DP */
1538:.\Generated_Source\PSoC5/Display1.c **** 
1539:.\Generated_Source\PSoC5/Display1.c ****             #if( (Display1_PARITY_TYPE != Display1__B_UART__NONE_REVB) || \
1540:.\Generated_Source\PSoC5/Display1.c ****                  (Display1_PARITY_TYPE_SW != 0u) )
1541:.\Generated_Source\PSoC5/Display1.c ****                 Display1_WriteControlRegister(Display1_ReadControlRegister() &
1542:.\Generated_Source\PSoC5/Display1.c ****                                                       (uint8) ~Display1_CTRL_HD_SEND_BREAK);
1543:.\Generated_Source\PSoC5/Display1.c ****             #endif /* End Display1_PARITY_TYPE != NONE */
1544:.\Generated_Source\PSoC5/Display1.c ****             }
1545:.\Generated_Source\PSoC5/Display1.c ****         #endif    /* End Display1_HD_ENABLED */
1546:.\Generated_Source\PSoC5/Display1.c ****         }
1547:.\Generated_Source\PSoC5/Display1.c ****     }
1548:.\Generated_Source\PSoC5/Display1.c **** 
1549:.\Generated_Source\PSoC5/Display1.c **** 
1550:.\Generated_Source\PSoC5/Display1.c ****     /*******************************************************************************
1551:.\Generated_Source\PSoC5/Display1.c ****     * Function Name: Display1_SetTxAddressMode
1552:.\Generated_Source\PSoC5/Display1.c ****     ********************************************************************************
1553:.\Generated_Source\PSoC5/Display1.c ****     *
1554:.\Generated_Source\PSoC5/Display1.c ****     * Summary:
1555:.\Generated_Source\PSoC5/Display1.c ****     *  Configures the transmitter to signal the next bytes is address or data.
1556:.\Generated_Source\PSoC5/Display1.c ****     *
1557:.\Generated_Source\PSoC5/Display1.c ****     * Parameters:
1558:.\Generated_Source\PSoC5/Display1.c ****     *  addressMode: 
1559:.\Generated_Source\PSoC5/Display1.c ****     *       Display1_SET_SPACE - Configure the transmitter to send the next
1560:.\Generated_Source\PSoC5/Display1.c ****     *                                    byte as a data.
1561:.\Generated_Source\PSoC5/Display1.c ****     *       Display1_SET_MARK  - Configure the transmitter to send the next
1562:.\Generated_Source\PSoC5/Display1.c ****     *                                    byte as an address.
1563:.\Generated_Source\PSoC5/Display1.c ****     *
1564:.\Generated_Source\PSoC5/Display1.c ****     * Return:
1565:.\Generated_Source\PSoC5/Display1.c ****     *  None.
1566:.\Generated_Source\PSoC5/Display1.c ****     *
1567:.\Generated_Source\PSoC5/Display1.c ****     * Side Effects:
1568:.\Generated_Source\PSoC5/Display1.c ****     *  This function sets and clears Display1_CTRL_MARK bit in the Control
1569:.\Generated_Source\PSoC5/Display1.c ****     *  register.
1570:.\Generated_Source\PSoC5/Display1.c ****     *
1571:.\Generated_Source\PSoC5/Display1.c ****     *******************************************************************************/
1572:.\Generated_Source\PSoC5/Display1.c ****     void Display1_SetTxAddressMode(uint8 addressMode) 
1573:.\Generated_Source\PSoC5/Display1.c ****     {
 1251              		.loc 1 1573 0
 1252              		.cfi_startproc
 1253              		@ args = 0, pretend = 0, frame = 0
 1254              		@ frame_needed = 0, uses_anonymous_args = 0
 1255              		@ link register save eliminated.
 1256              	.LVL92:
 1257 0000 7047     		bx	lr
 1258              		.cfi_endproc
 1259              	.LFE26:
 1260              		.size	Display1_SetTxAddressMode, .-Display1_SetTxAddressMode
 1261              		.global	Display1_rxBufferOverflow
 1262              		.global	Display1_rxBufferLoopDetect
 1263              		.global	Display1_rxBufferWrite
 1264              		.global	Display1_rxBufferRead
 1265              		.comm	Display1_rxBuffer,32,4
ARM GAS  C:\Users\RECEPC~1\AppData\Local\Temp\cclIxQZ0.s 			page 51


 1266              		.global	Display1_errorStatus
 1267              		.global	Display1_initVar
 1268 0002 00BF     		.bss
 1269              		.set	.LANCHOR0,. + 0
 1270              		.type	Display1_errorStatus, %object
 1271              		.size	Display1_errorStatus, 1
 1272              	Display1_errorStatus:
 1273 0000 00       		.space	1
 1274              		.type	Display1_initVar, %object
 1275              		.size	Display1_initVar, 1
 1276              	Display1_initVar:
 1277 0001 00       		.space	1
 1278              		.type	Display1_rxBufferRead, %object
 1279              		.size	Display1_rxBufferRead, 1
 1280              	Display1_rxBufferRead:
 1281 0002 00       		.space	1
 1282              		.type	Display1_rxBufferWrite, %object
 1283              		.size	Display1_rxBufferWrite, 1
 1284              	Display1_rxBufferWrite:
 1285 0003 00       		.space	1
 1286              		.type	Display1_rxBufferLoopDetect, %object
 1287              		.size	Display1_rxBufferLoopDetect, 1
 1288              	Display1_rxBufferLoopDetect:
 1289 0004 00       		.space	1
 1290              		.type	Display1_rxBufferOverflow, %object
 1291              		.size	Display1_rxBufferOverflow, 1
 1292              	Display1_rxBufferOverflow:
 1293 0005 00       		.space	1
 1294              		.type	txPeriod.5008, %object
 1295              		.size	txPeriod.5008, 1
 1296              	txPeriod.5008:
 1297 0006 00       		.space	1
 1298              		.text
 1299              	.Letext0:
 1300              		.file 2 ".\\Generated_Source\\PSoC5\\cytypes.h"
 1301              		.file 3 ".\\Generated_Source\\PSoC5\\CyLib.h"
 1302              		.file 4 ".\\Generated_Source\\PSoC5\\Display1_IntClock.h"
 1303              		.section	.debug_info,"",%progbits
 1304              	.Ldebug_info0:
 1305 0000 4D070000 		.4byte	0x74d
 1306 0004 0400     		.2byte	0x4
 1307 0006 00000000 		.4byte	.Ldebug_abbrev0
 1308 000a 04       		.byte	0x4
 1309 000b 01       		.uleb128 0x1
 1310 000c 2E050000 		.4byte	.LASF77
 1311 0010 01       		.byte	0x1
 1312 0011 92040000 		.4byte	.LASF78
 1313 0015 BD020000 		.4byte	.LASF79
 1314 0019 00000000 		.4byte	.Ldebug_ranges0+0
 1315 001d 00000000 		.4byte	0
 1316 0021 00000000 		.4byte	.Ldebug_line0
 1317 0025 02       		.uleb128 0x2
 1318 0026 01       		.byte	0x1
 1319 0027 06       		.byte	0x6
 1320 0028 07010000 		.4byte	.LASF0
 1321 002c 02       		.uleb128 0x2
 1322 002d 01       		.byte	0x1
ARM GAS  C:\Users\RECEPC~1\AppData\Local\Temp\cclIxQZ0.s 			page 52


 1323 002e 08       		.byte	0x8
 1324 002f B8030000 		.4byte	.LASF1
 1325 0033 02       		.uleb128 0x2
 1326 0034 02       		.byte	0x2
 1327 0035 05       		.byte	0x5
 1328 0036 C6030000 		.4byte	.LASF2
 1329 003a 02       		.uleb128 0x2
 1330 003b 02       		.byte	0x2
 1331 003c 07       		.byte	0x7
 1332 003d 8B020000 		.4byte	.LASF3
 1333 0041 02       		.uleb128 0x2
 1334 0042 04       		.byte	0x4
 1335 0043 05       		.byte	0x5
 1336 0044 71010000 		.4byte	.LASF4
 1337 0048 02       		.uleb128 0x2
 1338 0049 04       		.byte	0x4
 1339 004a 07       		.byte	0x7
 1340 004b 2A020000 		.4byte	.LASF5
 1341 004f 02       		.uleb128 0x2
 1342 0050 08       		.byte	0x8
 1343 0051 05       		.byte	0x5
 1344 0052 F9000000 		.4byte	.LASF6
 1345 0056 02       		.uleb128 0x2
 1346 0057 08       		.byte	0x8
 1347 0058 07       		.byte	0x7
 1348 0059 7F000000 		.4byte	.LASF7
 1349 005d 03       		.uleb128 0x3
 1350 005e 04       		.byte	0x4
 1351 005f 05       		.byte	0x5
 1352 0060 696E7400 		.ascii	"int\000"
 1353 0064 02       		.uleb128 0x2
 1354 0065 04       		.byte	0x4
 1355 0066 07       		.byte	0x7
 1356 0067 F5010000 		.4byte	.LASF8
 1357 006b 04       		.uleb128 0x4
 1358 006c 7A010000 		.4byte	.LASF9
 1359 0070 02       		.byte	0x2
 1360 0071 3801     		.2byte	0x138
 1361 0073 2C000000 		.4byte	0x2c
 1362 0077 04       		.uleb128 0x4
 1363 0078 00000000 		.4byte	.LASF10
 1364 007c 02       		.byte	0x2
 1365 007d 3901     		.2byte	0x139
 1366 007f 3A000000 		.4byte	0x3a
 1367 0083 04       		.uleb128 0x4
 1368 0084 AF010000 		.4byte	.LASF11
 1369 0088 02       		.byte	0x2
 1370 0089 3A01     		.2byte	0x13a
 1371 008b 48000000 		.4byte	0x48
 1372 008f 02       		.uleb128 0x2
 1373 0090 04       		.byte	0x4
 1374 0091 04       		.byte	0x4
 1375 0092 AD030000 		.4byte	.LASF12
 1376 0096 02       		.uleb128 0x2
 1377 0097 08       		.byte	0x8
 1378 0098 04       		.byte	0x4
 1379 0099 9C010000 		.4byte	.LASF13
ARM GAS  C:\Users\RECEPC~1\AppData\Local\Temp\cclIxQZ0.s 			page 53


 1380 009d 04       		.uleb128 0x4
 1381 009e 70040000 		.4byte	.LASF14
 1382 00a2 02       		.byte	0x2
 1383 00a3 4901     		.2byte	0x149
 1384 00a5 A9000000 		.4byte	0xa9
 1385 00a9 02       		.uleb128 0x2
 1386 00aa 01       		.byte	0x1
 1387 00ab 08       		.byte	0x8
 1388 00ac 48040000 		.4byte	.LASF15
 1389 00b0 04       		.uleb128 0x4
 1390 00b1 B3030000 		.4byte	.LASF16
 1391 00b5 02       		.byte	0x2
 1392 00b6 E201     		.2byte	0x1e2
 1393 00b8 BC000000 		.4byte	0xbc
 1394 00bc 05       		.uleb128 0x5
 1395 00bd 6B000000 		.4byte	0x6b
 1396 00c1 04       		.uleb128 0x4
 1397 00c2 03030000 		.4byte	.LASF17
 1398 00c6 02       		.byte	0x2
 1399 00c7 E401     		.2byte	0x1e4
 1400 00c9 CD000000 		.4byte	0xcd
 1401 00cd 05       		.uleb128 0x5
 1402 00ce 83000000 		.4byte	0x83
 1403 00d2 04       		.uleb128 0x4
 1404 00d3 63040000 		.4byte	.LASF18
 1405 00d7 02       		.byte	0x2
 1406 00d8 F401     		.2byte	0x1f4
 1407 00da DE000000 		.4byte	0xde
 1408 00de 06       		.uleb128 0x6
 1409 00df 04       		.byte	0x4
 1410 00e0 E4000000 		.4byte	0xe4
 1411 00e4 07       		.uleb128 0x7
 1412 00e5 02       		.uleb128 0x2
 1413 00e6 04       		.byte	0x4
 1414 00e7 07       		.byte	0x7
 1415 00e8 3B030000 		.4byte	.LASF19
 1416 00ec 08       		.uleb128 0x8
 1417 00ed D1050000 		.4byte	.LASF20
 1418 00f1 01       		.byte	0x1
 1419 00f2 6A       		.byte	0x6a
 1420 00f3 00000000 		.4byte	.LFB1
 1421 00f7 44000000 		.4byte	.LFE1-.LFB1
 1422 00fb 01       		.uleb128 0x1
 1423 00fc 9C       		.byte	0x9c
 1424 00fd 29010000 		.4byte	0x129
 1425 0101 09       		.uleb128 0x9
 1426 0102 0A000000 		.4byte	.LVL0
 1427 0106 F6060000 		.4byte	0x6f6
 1428 010a 14010000 		.4byte	0x114
 1429 010e 0A       		.uleb128 0xa
 1430 010f 01       		.uleb128 0x1
 1431 0110 50       		.byte	0x50
 1432 0111 01       		.uleb128 0x1
 1433 0112 30       		.byte	0x30
 1434 0113 00       		.byte	0
 1435 0114 0B       		.uleb128 0xb
 1436 0115 12000000 		.4byte	.LVL1
ARM GAS  C:\Users\RECEPC~1\AppData\Local\Temp\cclIxQZ0.s 			page 54


 1437 0119 10070000 		.4byte	0x710
 1438 011d 0A       		.uleb128 0xa
 1439 011e 01       		.uleb128 0x1
 1440 011f 51       		.byte	0x51
 1441 0120 01       		.uleb128 0x1
 1442 0121 37       		.byte	0x37
 1443 0122 0A       		.uleb128 0xa
 1444 0123 01       		.uleb128 0x1
 1445 0124 50       		.byte	0x50
 1446 0125 01       		.uleb128 0x1
 1447 0126 30       		.byte	0x30
 1448 0127 00       		.byte	0
 1449 0128 00       		.byte	0
 1450 0129 08       		.uleb128 0x8
 1451 012a 03040000 		.4byte	.LASF21
 1452 012e 01       		.byte	0x1
 1453 012f B7       		.byte	0xb7
 1454 0130 00000000 		.4byte	.LFB2
 1455 0134 44000000 		.4byte	.LFE2-.LFB2
 1456 0138 01       		.uleb128 0x1
 1457 0139 9C       		.byte	0x9c
 1458 013a 70010000 		.4byte	0x170
 1459 013e 0C       		.uleb128 0xc
 1460 013f E2040000 		.4byte	.LASF24
 1461 0143 01       		.byte	0x1
 1462 0144 B9       		.byte	0xb9
 1463 0145 6B000000 		.4byte	0x6b
 1464 0149 00000000 		.4byte	.LLST0
 1465 014d 0D       		.uleb128 0xd
 1466 014e 06000000 		.4byte	.LVL2
 1467 0152 26070000 		.4byte	0x726
 1468 0156 0D       		.uleb128 0xd
 1469 0157 30000000 		.4byte	.LVL4
 1470 015b 31070000 		.4byte	0x731
 1471 015f 0B       		.uleb128 0xb
 1472 0160 36000000 		.4byte	.LVL5
 1473 0164 38070000 		.4byte	0x738
 1474 0168 0A       		.uleb128 0xa
 1475 0169 01       		.uleb128 0x1
 1476 016a 50       		.byte	0x50
 1477 016b 02       		.uleb128 0x2
 1478 016c 74       		.byte	0x74
 1479 016d 00       		.sleb128 0
 1480 016e 00       		.byte	0
 1481 016f 00       		.byte	0
 1482 0170 08       		.uleb128 0x8
 1483 0171 45010000 		.4byte	.LASF22
 1484 0175 01       		.byte	0x1
 1485 0176 4C       		.byte	0x4c
 1486 0177 00000000 		.4byte	.LFB0
 1487 017b 1C000000 		.4byte	.LFE0-.LFB0
 1488 017f 01       		.uleb128 0x1
 1489 0180 9C       		.byte	0x9c
 1490 0181 98010000 		.4byte	0x198
 1491 0185 0D       		.uleb128 0xd
 1492 0186 0C000000 		.4byte	.LVL7
 1493 018a EC000000 		.4byte	0xec
ARM GAS  C:\Users\RECEPC~1\AppData\Local\Temp\cclIxQZ0.s 			page 55


 1494 018e 0D       		.uleb128 0xd
 1495 018f 16000000 		.4byte	.LVL8
 1496 0193 29010000 		.4byte	0x129
 1497 0197 00       		.byte	0
 1498 0198 08       		.uleb128 0x8
 1499 0199 4C030000 		.4byte	.LASF23
 1500 019d 01       		.byte	0x1
 1501 019e F0       		.byte	0xf0
 1502 019f 00000000 		.4byte	.LFB3
 1503 01a3 48000000 		.4byte	.LFE3-.LFB3
 1504 01a7 01       		.uleb128 0x1
 1505 01a8 9C       		.byte	0x9c
 1506 01a9 DF010000 		.4byte	0x1df
 1507 01ad 0C       		.uleb128 0xc
 1508 01ae E2040000 		.4byte	.LASF24
 1509 01b2 01       		.byte	0x1
 1510 01b3 F2       		.byte	0xf2
 1511 01b4 6B000000 		.4byte	0x6b
 1512 01b8 13000000 		.4byte	.LLST1
 1513 01bc 0D       		.uleb128 0xd
 1514 01bd 06000000 		.4byte	.LVL9
 1515 01c1 26070000 		.4byte	0x726
 1516 01c5 0D       		.uleb128 0xd
 1517 01c6 16000000 		.4byte	.LVL11
 1518 01ca 49070000 		.4byte	0x749
 1519 01ce 0B       		.uleb128 0xb
 1520 01cf 36000000 		.4byte	.LVL12
 1521 01d3 38070000 		.4byte	0x738
 1522 01d7 0A       		.uleb128 0xa
 1523 01d8 01       		.uleb128 0x1
 1524 01d9 50       		.byte	0x50
 1525 01da 02       		.uleb128 0x2
 1526 01db 74       		.byte	0x74
 1527 01dc 00       		.sleb128 0
 1528 01dd 00       		.byte	0
 1529 01de 00       		.byte	0
 1530 01df 0E       		.uleb128 0xe
 1531 01e0 54010000 		.4byte	.LASF50
 1532 01e4 01       		.byte	0x1
 1533 01e5 2701     		.2byte	0x127
 1534 01e7 6B000000 		.4byte	0x6b
 1535 01eb 00000000 		.4byte	.LFB4
 1536 01ef 04000000 		.4byte	.LFE4-.LFB4
 1537 01f3 01       		.uleb128 0x1
 1538 01f4 9C       		.byte	0x9c
 1539 01f5 0F       		.uleb128 0xf
 1540 01f6 B6010000 		.4byte	.LASF25
 1541 01fa 01       		.byte	0x1
 1542 01fb 3F01     		.2byte	0x13f
 1543 01fd 00000000 		.4byte	.LFB5
 1544 0201 02000000 		.4byte	.LFE5-.LFB5
 1545 0205 01       		.uleb128 0x1
 1546 0206 9C       		.byte	0x9c
 1547 0207 1A020000 		.4byte	0x21a
 1548 020b 10       		.uleb128 0x10
 1549 020c D4010000 		.4byte	.LASF27
 1550 0210 01       		.byte	0x1
ARM GAS  C:\Users\RECEPC~1\AppData\Local\Temp\cclIxQZ0.s 			page 56


 1551 0211 3F01     		.2byte	0x13f
 1552 0213 6B000000 		.4byte	0x6b
 1553 0217 01       		.uleb128 0x1
 1554 0218 50       		.byte	0x50
 1555 0219 00       		.byte	0
 1556 021a 0F       		.uleb128 0xf
 1557 021b 80010000 		.4byte	.LASF26
 1558 021f 01       		.byte	0x1
 1559 0220 6701     		.2byte	0x167
 1560 0222 00000000 		.4byte	.LFB6
 1561 0226 0C000000 		.4byte	.LFE6-.LFB6
 1562 022a 01       		.uleb128 0x1
 1563 022b 9C       		.byte	0x9c
 1564 022c 3F020000 		.4byte	0x23f
 1565 0230 10       		.uleb128 0x10
 1566 0231 B6020000 		.4byte	.LASF28
 1567 0235 01       		.byte	0x1
 1568 0236 6701     		.2byte	0x167
 1569 0238 6B000000 		.4byte	0x6b
 1570 023c 01       		.uleb128 0x1
 1571 023d 50       		.byte	0x50
 1572 023e 00       		.byte	0
 1573 023f 11       		.uleb128 0x11
 1574 0240 E5000000 		.4byte	.LASF32
 1575 0244 01       		.byte	0x1
 1576 0245 8801     		.2byte	0x188
 1577 0247 6B000000 		.4byte	0x6b
 1578 024b 00000000 		.4byte	.LFB7
 1579 024f 64000000 		.4byte	.LFE7-.LFB7
 1580 0253 01       		.uleb128 0x1
 1581 0254 9C       		.byte	0x9c
 1582 0255 88020000 		.4byte	0x288
 1583 0259 12       		.uleb128 0x12
 1584 025a 13040000 		.4byte	.LASF29
 1585 025e 01       		.byte	0x1
 1586 025f 8A01     		.2byte	0x18a
 1587 0261 6B000000 		.4byte	0x6b
 1588 0265 26000000 		.4byte	.LLST2
 1589 0269 12       		.uleb128 0x12
 1590 026a D2040000 		.4byte	.LASF30
 1591 026e 01       		.byte	0x1
 1592 026f 8E01     		.2byte	0x18e
 1593 0271 6B000000 		.4byte	0x6b
 1594 0275 44000000 		.4byte	.LLST3
 1595 0279 13       		.uleb128 0x13
 1596 027a 71030000 		.4byte	.LASF31
 1597 027e 01       		.byte	0x1
 1598 027f 8F01     		.2byte	0x18f
 1599 0281 6B000000 		.4byte	0x6b
 1600 0285 01       		.uleb128 0x1
 1601 0286 51       		.byte	0x51
 1602 0287 00       		.byte	0
 1603 0288 11       		.uleb128 0x11
 1604 0289 96000000 		.4byte	.LASF33
 1605 028d 01       		.byte	0x1
 1606 028e E501     		.2byte	0x1e5
 1607 0290 6B000000 		.4byte	0x6b
ARM GAS  C:\Users\RECEPC~1\AppData\Local\Temp\cclIxQZ0.s 			page 57


 1608 0294 00000000 		.4byte	.LFB8
 1609 0298 28000000 		.4byte	.LFE8-.LFB8
 1610 029c 01       		.uleb128 0x1
 1611 029d 9C       		.byte	0x9c
 1612 029e B1020000 		.4byte	0x2b1
 1613 02a2 13       		.uleb128 0x13
 1614 02a3 27050000 		.4byte	.LASF34
 1615 02a7 01       		.byte	0x1
 1616 02a8 E701     		.2byte	0x1e7
 1617 02aa 6B000000 		.4byte	0x6b
 1618 02ae 01       		.uleb128 0x1
 1619 02af 50       		.byte	0x50
 1620 02b0 00       		.byte	0
 1621 02b1 11       		.uleb128 0x11
 1622 02b2 6E000000 		.4byte	.LASF35
 1623 02b6 01       		.byte	0x1
 1624 02b7 1402     		.2byte	0x214
 1625 02b9 6B000000 		.4byte	0x6b
 1626 02bd 00000000 		.4byte	.LFB9
 1627 02c1 80000000 		.4byte	.LFE9-.LFB9
 1628 02c5 01       		.uleb128 0x1
 1629 02c6 9C       		.byte	0x9c
 1630 02c7 0A030000 		.4byte	0x30a
 1631 02cb 12       		.uleb128 0x12
 1632 02cc 13040000 		.4byte	.LASF29
 1633 02d0 01       		.byte	0x1
 1634 02d1 1602     		.2byte	0x216
 1635 02d3 6B000000 		.4byte	0x6b
 1636 02d7 89000000 		.4byte	.LLST4
 1637 02db 12       		.uleb128 0x12
 1638 02dc 82030000 		.4byte	.LASF36
 1639 02e0 01       		.byte	0x1
 1640 02e1 1702     		.2byte	0x217
 1641 02e3 6B000000 		.4byte	0x6b
 1642 02e7 D6000000 		.4byte	.LLST5
 1643 02eb 12       		.uleb128 0x12
 1644 02ec D2040000 		.4byte	.LASF30
 1645 02f0 01       		.byte	0x1
 1646 02f1 1A02     		.2byte	0x21a
 1647 02f3 6B000000 		.4byte	0x6b
 1648 02f7 E9000000 		.4byte	.LLST6
 1649 02fb 13       		.uleb128 0x13
 1650 02fc 71030000 		.4byte	.LASF31
 1651 0300 01       		.byte	0x1
 1652 0301 1B02     		.2byte	0x21b
 1653 0303 6B000000 		.4byte	0x6b
 1654 0307 01       		.uleb128 0x1
 1655 0308 51       		.byte	0x51
 1656 0309 00       		.byte	0
 1657 030a 11       		.uleb128 0x11
 1658 030b 9C030000 		.4byte	.LASF37
 1659 030f 01       		.byte	0x1
 1660 0310 7A02     		.2byte	0x27a
 1661 0312 77000000 		.4byte	0x77
 1662 0316 00000000 		.4byte	.LFB10
 1663 031a 2C000000 		.4byte	.LFE10-.LFB10
 1664 031e 01       		.uleb128 0x1
ARM GAS  C:\Users\RECEPC~1\AppData\Local\Temp\cclIxQZ0.s 			page 58


 1665 031f 9C       		.byte	0x9c
 1666 0320 3E030000 		.4byte	0x33e
 1667 0324 12       		.uleb128 0x12
 1668 0325 1B020000 		.4byte	.LASF38
 1669 0329 01       		.byte	0x1
 1670 032a 7E02     		.2byte	0x27e
 1671 032c 77000000 		.4byte	0x77
 1672 0330 2E010000 		.4byte	.LLST7
 1673 0334 0D       		.uleb128 0xd
 1674 0335 1A000000 		.4byte	.LVL47
 1675 0339 3F020000 		.4byte	0x23f
 1676 033d 00       		.byte	0
 1677 033e 11       		.uleb128 0x11
 1678 033f 02020000 		.4byte	.LASF39
 1679 0343 01       		.byte	0x1
 1680 0344 AB02     		.2byte	0x2ab
 1681 0346 6B000000 		.4byte	0x6b
 1682 034a 00000000 		.4byte	.LFB11
 1683 034e 5C000000 		.4byte	.LFE11-.LFB11
 1684 0352 01       		.uleb128 0x1
 1685 0353 9C       		.byte	0x9c
 1686 0354 69030000 		.4byte	0x369
 1687 0358 12       		.uleb128 0x12
 1688 0359 86020000 		.4byte	.LASF40
 1689 035d 01       		.byte	0x1
 1690 035e AE02     		.2byte	0x2ae
 1691 0360 6B000000 		.4byte	0x6b
 1692 0364 41010000 		.4byte	.LLST8
 1693 0368 00       		.byte	0
 1694 0369 0F       		.uleb128 0xf
 1695 036a EC030000 		.4byte	.LASF41
 1696 036e 01       		.byte	0x1
 1697 036f F502     		.2byte	0x2f5
 1698 0371 00000000 		.4byte	.LFB12
 1699 0375 44000000 		.4byte	.LFE12-.LFB12
 1700 0379 01       		.uleb128 0x1
 1701 037a 9C       		.byte	0x9c
 1702 037b A2030000 		.4byte	0x3a2
 1703 037f 12       		.uleb128 0x12
 1704 0380 E2040000 		.4byte	.LASF24
 1705 0384 01       		.byte	0x1
 1706 0385 F702     		.2byte	0x2f7
 1707 0387 6B000000 		.4byte	0x6b
 1708 038b 6A010000 		.4byte	.LLST9
 1709 038f 0D       		.uleb128 0xd
 1710 0390 06000000 		.4byte	.LVL53
 1711 0394 26070000 		.4byte	0x726
 1712 0398 0D       		.uleb128 0xd
 1713 0399 1C000000 		.4byte	.LVL54
 1714 039d 38070000 		.4byte	0x738
 1715 03a1 00       		.byte	0
 1716 03a2 0F       		.uleb128 0xf
 1717 03a3 6C020000 		.4byte	.LASF42
 1718 03a7 01       		.byte	0x1
 1719 03a8 2D03     		.2byte	0x32d
 1720 03aa 00000000 		.4byte	.LFB13
 1721 03ae 02000000 		.4byte	.LFE13-.LFB13
ARM GAS  C:\Users\RECEPC~1\AppData\Local\Temp\cclIxQZ0.s 			page 59


 1722 03b2 01       		.uleb128 0x1
 1723 03b3 9C       		.byte	0x9c
 1724 03b4 C7030000 		.4byte	0x3c7
 1725 03b8 10       		.uleb128 0x10
 1726 03b9 A3010000 		.4byte	.LASF43
 1727 03bd 01       		.byte	0x1
 1728 03be 2D03     		.2byte	0x32d
 1729 03c0 6B000000 		.4byte	0x6b
 1730 03c4 01       		.uleb128 0x1
 1731 03c5 50       		.byte	0x50
 1732 03c6 00       		.byte	0
 1733 03c7 0F       		.uleb128 0xf
 1734 03c8 1A040000 		.4byte	.LASF44
 1735 03cc 01       		.byte	0x1
 1736 03cd 5903     		.2byte	0x359
 1737 03cf 00000000 		.4byte	.LFB14
 1738 03d3 0C000000 		.4byte	.LFE14-.LFB14
 1739 03d7 01       		.uleb128 0x1
 1740 03d8 9C       		.byte	0x9c
 1741 03d9 EC030000 		.4byte	0x3ec
 1742 03dd 10       		.uleb128 0x10
 1743 03de 44030000 		.4byte	.LASF45
 1744 03e2 01       		.byte	0x1
 1745 03e3 5903     		.2byte	0x359
 1746 03e5 6B000000 		.4byte	0x6b
 1747 03e9 01       		.uleb128 0x1
 1748 03ea 50       		.byte	0x50
 1749 03eb 00       		.byte	0
 1750 03ec 0F       		.uleb128 0xf
 1751 03ed 31040000 		.4byte	.LASF46
 1752 03f1 01       		.byte	0x1
 1753 03f2 6D03     		.2byte	0x36d
 1754 03f4 00000000 		.4byte	.LFB15
 1755 03f8 0C000000 		.4byte	.LFE15-.LFB15
 1756 03fc 01       		.uleb128 0x1
 1757 03fd 9C       		.byte	0x9c
 1758 03fe 11040000 		.4byte	0x411
 1759 0402 10       		.uleb128 0x10
 1760 0403 44030000 		.4byte	.LASF45
 1761 0407 01       		.byte	0x1
 1762 0408 6D03     		.2byte	0x36d
 1763 040a 6B000000 		.4byte	0x6b
 1764 040e 01       		.uleb128 0x1
 1765 040f 50       		.byte	0x50
 1766 0410 00       		.byte	0
 1767 0411 0F       		.uleb128 0xf
 1768 0412 76040000 		.4byte	.LASF47
 1769 0416 01       		.byte	0x1
 1770 0417 8C03     		.2byte	0x38c
 1771 0419 00000000 		.4byte	.LFB16
 1772 041d 0C000000 		.4byte	.LFE16-.LFB16
 1773 0421 01       		.uleb128 0x1
 1774 0422 9C       		.byte	0x9c
 1775 0423 36040000 		.4byte	0x436
 1776 0427 10       		.uleb128 0x10
 1777 0428 B6020000 		.4byte	.LASF28
 1778 042c 01       		.byte	0x1
ARM GAS  C:\Users\RECEPC~1\AppData\Local\Temp\cclIxQZ0.s 			page 60


 1779 042d 8C03     		.2byte	0x38c
 1780 042f 6B000000 		.4byte	0x6b
 1781 0433 01       		.uleb128 0x1
 1782 0434 50       		.byte	0x50
 1783 0435 00       		.byte	0
 1784 0436 0F       		.uleb128 0xf
 1785 0437 BC050000 		.4byte	.LASF48
 1786 043b 01       		.byte	0x1
 1787 043c AE03     		.2byte	0x3ae
 1788 043e 00000000 		.4byte	.LFB17
 1789 0442 14000000 		.4byte	.LFE17-.LFB17
 1790 0446 01       		.uleb128 0x1
 1791 0447 9C       		.byte	0x9c
 1792 0448 5B040000 		.4byte	0x45b
 1793 044c 10       		.uleb128 0x10
 1794 044d 1D000000 		.4byte	.LASF49
 1795 0451 01       		.byte	0x1
 1796 0452 AE03     		.2byte	0x3ae
 1797 0454 6B000000 		.4byte	0x6b
 1798 0458 01       		.uleb128 0x1
 1799 0459 50       		.byte	0x50
 1800 045a 00       		.byte	0
 1801 045b 0E       		.uleb128 0xe
 1802 045c 28000000 		.4byte	.LASF51
 1803 0460 01       		.byte	0x1
 1804 0461 EB03     		.2byte	0x3eb
 1805 0463 6B000000 		.4byte	0x6b
 1806 0467 00000000 		.4byte	.LFB18
 1807 046b 0C000000 		.4byte	.LFE18-.LFB18
 1808 046f 01       		.uleb128 0x1
 1809 0470 9C       		.byte	0x9c
 1810 0471 0F       		.uleb128 0xf
 1811 0472 5D000000 		.4byte	.LASF52
 1812 0476 01       		.byte	0x1
 1813 0477 1104     		.2byte	0x411
 1814 0479 00000000 		.4byte	.LFB19
 1815 047d 18000000 		.4byte	.LFE19-.LFB19
 1816 0481 01       		.uleb128 0x1
 1817 0482 9C       		.byte	0x9c
 1818 0483 96040000 		.4byte	0x496
 1819 0487 10       		.uleb128 0x10
 1820 0488 1D000000 		.4byte	.LASF49
 1821 048c 01       		.byte	0x1
 1822 048d 1104     		.2byte	0x411
 1823 048f 6B000000 		.4byte	0x6b
 1824 0493 01       		.uleb128 0x1
 1825 0494 50       		.byte	0x50
 1826 0495 00       		.byte	0
 1827 0496 0F       		.uleb128 0xf
 1828 0497 AC000000 		.4byte	.LASF53
 1829 049b 01       		.byte	0x1
 1830 049c 7904     		.2byte	0x479
 1831 049e 00000000 		.4byte	.LFB20
 1832 04a2 24000000 		.4byte	.LFE20-.LFB20
 1833 04a6 01       		.uleb128 0x1
 1834 04a7 9C       		.byte	0x9c
 1835 04a8 D6040000 		.4byte	0x4d6
ARM GAS  C:\Users\RECEPC~1\AppData\Local\Temp\cclIxQZ0.s 			page 61


 1836 04ac 14       		.uleb128 0x14
 1837 04ad 56000000 		.4byte	.LASF54
 1838 04b1 01       		.byte	0x1
 1839 04b2 7904     		.2byte	0x479
 1840 04b4 D6040000 		.4byte	0x4d6
 1841 04b8 7D010000 		.4byte	.LLST10
 1842 04bc 12       		.uleb128 0x12
 1843 04bd AD020000 		.4byte	.LASF55
 1844 04c1 01       		.byte	0x1
 1845 04c2 7B04     		.2byte	0x47b
 1846 04c4 77000000 		.4byte	0x77
 1847 04c8 BF010000 		.4byte	.LLST11
 1848 04cc 0D       		.uleb128 0xd
 1849 04cd 0E000000 		.4byte	.LVL64
 1850 04d1 71040000 		.4byte	0x471
 1851 04d5 00       		.byte	0
 1852 04d6 06       		.uleb128 0x6
 1853 04d7 04       		.byte	0x4
 1854 04d8 DC040000 		.4byte	0x4dc
 1855 04dc 15       		.uleb128 0x15
 1856 04dd 9D000000 		.4byte	0x9d
 1857 04e1 0F       		.uleb128 0xf
 1858 04e2 33010000 		.4byte	.LASF56
 1859 04e6 01       		.byte	0x1
 1860 04e7 A704     		.2byte	0x4a7
 1861 04e9 00000000 		.4byte	.LFB21
 1862 04ed 28000000 		.4byte	.LFE21-.LFB21
 1863 04f1 01       		.uleb128 0x1
 1864 04f2 9C       		.byte	0x9c
 1865 04f3 31050000 		.4byte	0x531
 1866 04f7 14       		.uleb128 0x14
 1867 04f8 56000000 		.4byte	.LASF54
 1868 04fc 01       		.byte	0x1
 1869 04fd A704     		.2byte	0x4a7
 1870 04ff 31050000 		.4byte	0x531
 1871 0503 00020000 		.4byte	.LLST12
 1872 0507 14       		.uleb128 0x14
 1873 0508 E2030000 		.4byte	.LASF57
 1874 050c 01       		.byte	0x1
 1875 050d A704     		.2byte	0x4a7
 1876 050f 6B000000 		.4byte	0x6b
 1877 0513 42020000 		.4byte	.LLST13
 1878 0517 12       		.uleb128 0x12
 1879 0518 AD020000 		.4byte	.LASF55
 1880 051c 01       		.byte	0x1
 1881 051d AA04     		.2byte	0x4aa
 1882 051f 6B000000 		.4byte	0x6b
 1883 0523 7C020000 		.4byte	.LLST14
 1884 0527 0D       		.uleb128 0xd
 1885 0528 0E000000 		.4byte	.LVL72
 1886 052c 71040000 		.4byte	0x471
 1887 0530 00       		.byte	0
 1888 0531 06       		.uleb128 0x6
 1889 0532 04       		.byte	0x4
 1890 0533 37050000 		.4byte	0x537
 1891 0537 15       		.uleb128 0x15
 1892 0538 6B000000 		.4byte	0x6b
ARM GAS  C:\Users\RECEPC~1\AppData\Local\Temp\cclIxQZ0.s 			page 62


 1893 053c 0F       		.uleb128 0xf
 1894 053d DC010000 		.4byte	.LASF58
 1895 0541 01       		.byte	0x1
 1896 0542 CE04     		.2byte	0x4ce
 1897 0544 00000000 		.4byte	.LFB22
 1898 0548 20000000 		.4byte	.LFE22-.LFB22
 1899 054c 01       		.uleb128 0x1
 1900 054d 9C       		.byte	0x9c
 1901 054e 8E050000 		.4byte	0x58e
 1902 0552 14       		.uleb128 0x14
 1903 0553 1D000000 		.4byte	.LASF49
 1904 0557 01       		.byte	0x1
 1905 0558 CE04     		.2byte	0x4ce
 1906 055a 6B000000 		.4byte	0x6b
 1907 055e BD020000 		.4byte	.LLST15
 1908 0562 0D       		.uleb128 0xd
 1909 0563 0C000000 		.4byte	.LVL79
 1910 0567 71040000 		.4byte	0x471
 1911 056b 09       		.uleb128 0x9
 1912 056c 12000000 		.4byte	.LVL80
 1913 0570 71040000 		.4byte	0x471
 1914 0574 7E050000 		.4byte	0x57e
 1915 0578 0A       		.uleb128 0xa
 1916 0579 01       		.uleb128 0x1
 1917 057a 50       		.byte	0x50
 1918 057b 01       		.uleb128 0x1
 1919 057c 3D       		.byte	0x3d
 1920 057d 00       		.byte	0
 1921 057e 0B       		.uleb128 0xb
 1922 057f 18000000 		.4byte	.LVL81
 1923 0583 71040000 		.4byte	0x471
 1924 0587 0A       		.uleb128 0xa
 1925 0588 01       		.uleb128 0x1
 1926 0589 50       		.byte	0x50
 1927 058a 01       		.uleb128 0x1
 1928 058b 3A       		.byte	0x3a
 1929 058c 00       		.byte	0
 1930 058d 00       		.byte	0
 1931 058e 11       		.uleb128 0x11
 1932 058f 3C020000 		.4byte	.LASF59
 1933 0593 01       		.byte	0x1
 1934 0594 F904     		.2byte	0x4f9
 1935 0596 6B000000 		.4byte	0x6b
 1936 059a 00000000 		.4byte	.LFB23
 1937 059e 24000000 		.4byte	.LFE23-.LFB23
 1938 05a2 01       		.uleb128 0x1
 1939 05a3 9C       		.byte	0x9c
 1940 05a4 B9050000 		.4byte	0x5b9
 1941 05a8 12       		.uleb128 0x12
 1942 05a9 86020000 		.4byte	.LASF40
 1943 05ad 01       		.byte	0x1
 1944 05ae FC04     		.2byte	0x4fc
 1945 05b0 6B000000 		.4byte	0x6b
 1946 05b4 DE020000 		.4byte	.LLST16
 1947 05b8 00       		.byte	0
 1948 05b9 0F       		.uleb128 0xf
 1949 05ba 5A030000 		.4byte	.LASF60
ARM GAS  C:\Users\RECEPC~1\AppData\Local\Temp\cclIxQZ0.s 			page 63


 1950 05be 01       		.byte	0x1
 1951 05bf 4A05     		.2byte	0x54a
 1952 05c1 00000000 		.4byte	.LFB24
 1953 05c5 24000000 		.4byte	.LFE24-.LFB24
 1954 05c9 01       		.uleb128 0x1
 1955 05ca 9C       		.byte	0x9c
 1956 05cb F2050000 		.4byte	0x5f2
 1957 05cf 12       		.uleb128 0x12
 1958 05d0 E2040000 		.4byte	.LASF24
 1959 05d4 01       		.byte	0x1
 1960 05d5 4C05     		.2byte	0x54c
 1961 05d7 6B000000 		.4byte	0x6b
 1962 05db FC020000 		.4byte	.LLST17
 1963 05df 0D       		.uleb128 0xd
 1964 05e0 06000000 		.4byte	.LVL84
 1965 05e4 26070000 		.4byte	0x726
 1966 05e8 0D       		.uleb128 0xd
 1967 05e9 1C000000 		.4byte	.LVL85
 1968 05ed 38070000 		.4byte	0x738
 1969 05f1 00       		.byte	0
 1970 05f2 0F       		.uleb128 0xf
 1971 05f3 28030000 		.4byte	.LASF61
 1972 05f7 01       		.byte	0x1
 1973 05f8 A005     		.2byte	0x5a0
 1974 05fa 00000000 		.4byte	.LFB25
 1975 05fe 58000000 		.4byte	.LFE25-.LFB25
 1976 0602 01       		.uleb128 0x1
 1977 0603 9C       		.byte	0x9c
 1978 0604 45060000 		.4byte	0x645
 1979 0608 14       		.uleb128 0x14
 1980 0609 ED010000 		.4byte	.LASF62
 1981 060d 01       		.byte	0x1
 1982 060e A005     		.2byte	0x5a0
 1983 0610 6B000000 		.4byte	0x6b
 1984 0614 0F030000 		.4byte	.LLST18
 1985 0618 16       		.uleb128 0x16
 1986 0619 06000000 		.4byte	.LBB2
 1987 061d 52000000 		.4byte	.LBE2-.LBB2
 1988 0621 12       		.uleb128 0x12
 1989 0622 20030000 		.4byte	.LASF63
 1990 0626 01       		.byte	0x1
 1991 0627 A805     		.2byte	0x5a8
 1992 0629 6B000000 		.4byte	0x6b
 1993 062d 30030000 		.4byte	.LLST19
 1994 0631 13       		.uleb128 0x13
 1995 0632 13010000 		.4byte	.LASF64
 1996 0636 01       		.byte	0x1
 1997 0637 D005     		.2byte	0x5d0
 1998 0639 6B000000 		.4byte	0x6b
 1999 063d 05       		.uleb128 0x5
 2000 063e 03       		.byte	0x3
 2001 063f 06000000 		.4byte	txPeriod.5008
 2002 0643 00       		.byte	0
 2003 0644 00       		.byte	0
 2004 0645 0F       		.uleb128 0xf
 2005 0646 0D050000 		.4byte	.LASF65
 2006 064a 01       		.byte	0x1
ARM GAS  C:\Users\RECEPC~1\AppData\Local\Temp\cclIxQZ0.s 			page 64


 2007 064b 2406     		.2byte	0x624
 2008 064d 00000000 		.4byte	.LFB26
 2009 0651 02000000 		.4byte	.LFE26-.LFB26
 2010 0655 01       		.uleb128 0x1
 2011 0656 9C       		.byte	0x9c
 2012 0657 6A060000 		.4byte	0x66a
 2013 065b 10       		.uleb128 0x10
 2014 065c A3010000 		.4byte	.LASF43
 2015 0660 01       		.byte	0x1
 2016 0661 2406     		.2byte	0x624
 2017 0663 6B000000 		.4byte	0x6b
 2018 0667 01       		.uleb128 0x1
 2019 0668 50       		.byte	0x50
 2020 0669 00       		.byte	0
 2021 066a 17       		.uleb128 0x17
 2022 066b BF000000 		.4byte	.LASF66
 2023 066f 01       		.byte	0x1
 2024 0670 1B       		.byte	0x1b
 2025 0671 6B000000 		.4byte	0x6b
 2026 0675 05       		.uleb128 0x5
 2027 0676 03       		.byte	0x3
 2028 0677 00000000 		.4byte	Display1_initVar
 2029 067b 17       		.uleb128 0x17
 2030 067c D0000000 		.4byte	.LASF67
 2031 0680 01       		.byte	0x1
 2032 0681 24       		.byte	0x24
 2033 0682 6B000000 		.4byte	0x6b
 2034 0686 05       		.uleb128 0x5
 2035 0687 03       		.byte	0x3
 2036 0688 00000000 		.4byte	Display1_errorStatus
 2037 068c 18       		.uleb128 0x18
 2038 068d 6B000000 		.4byte	0x6b
 2039 0691 9C060000 		.4byte	0x69c
 2040 0695 19       		.uleb128 0x19
 2041 0696 E5000000 		.4byte	0xe5
 2042 069a 1F       		.byte	0x1f
 2043 069b 00       		.byte	0
 2044 069c 17       		.uleb128 0x17
 2045 069d D0030000 		.4byte	.LASF68
 2046 06a1 01       		.byte	0x1
 2047 06a2 25       		.byte	0x25
 2048 06a3 AD060000 		.4byte	0x6ad
 2049 06a7 05       		.uleb128 0x5
 2050 06a8 03       		.byte	0x3
 2051 06a9 00000000 		.4byte	Display1_rxBuffer
 2052 06ad 05       		.uleb128 0x5
 2053 06ae 8C060000 		.4byte	0x68c
 2054 06b2 17       		.uleb128 0x17
 2055 06b3 4D040000 		.4byte	.LASF69
 2056 06b7 01       		.byte	0x1
 2057 06b8 26       		.byte	0x26
 2058 06b9 BC000000 		.4byte	0xbc
 2059 06bd 05       		.uleb128 0x5
 2060 06be 03       		.byte	0x3
 2061 06bf 00000000 		.4byte	Display1_rxBufferRead
 2062 06c3 17       		.uleb128 0x17
 2063 06c4 1C010000 		.4byte	.LASF70
ARM GAS  C:\Users\RECEPC~1\AppData\Local\Temp\cclIxQZ0.s 			page 65


 2064 06c8 01       		.byte	0x1
 2065 06c9 27       		.byte	0x27
 2066 06ca BC000000 		.4byte	0xbc
 2067 06ce 05       		.uleb128 0x5
 2068 06cf 03       		.byte	0x3
 2069 06d0 00000000 		.4byte	Display1_rxBufferWrite
 2070 06d4 17       		.uleb128 0x17
 2071 06d5 B6040000 		.4byte	.LASF71
 2072 06d9 01       		.byte	0x1
 2073 06da 28       		.byte	0x28
 2074 06db BC000000 		.4byte	0xbc
 2075 06df 05       		.uleb128 0x5
 2076 06e0 03       		.byte	0x3
 2077 06e1 00000000 		.4byte	Display1_rxBufferLoopDetect
 2078 06e5 17       		.uleb128 0x17
 2079 06e6 F3040000 		.4byte	.LASF72
 2080 06ea 01       		.byte	0x1
 2081 06eb 29       		.byte	0x29
 2082 06ec BC000000 		.4byte	0xbc
 2083 06f0 05       		.uleb128 0x5
 2084 06f1 03       		.byte	0x3
 2085 06f2 00000000 		.4byte	Display1_rxBufferOverflow
 2086 06f6 1A       		.uleb128 0x1a
 2087 06f7 9E020000 		.4byte	.LASF80
 2088 06fb 03       		.byte	0x3
 2089 06fc 89       		.byte	0x89
 2090 06fd D2000000 		.4byte	0xd2
 2091 0701 10070000 		.4byte	0x710
 2092 0705 1B       		.uleb128 0x1b
 2093 0706 6B000000 		.4byte	0x6b
 2094 070a 1B       		.uleb128 0x1b
 2095 070b D2000000 		.4byte	0xd2
 2096 070f 00       		.byte	0
 2097 0710 1C       		.uleb128 0x1c
 2098 0711 8B030000 		.4byte	.LASF73
 2099 0715 03       		.byte	0x3
 2100 0716 8C       		.byte	0x8c
 2101 0717 26070000 		.4byte	0x726
 2102 071b 1B       		.uleb128 0x1b
 2103 071c 6B000000 		.4byte	0x6b
 2104 0720 1B       		.uleb128 0x1b
 2105 0721 6B000000 		.4byte	0x6b
 2106 0725 00       		.byte	0
 2107 0726 1D       		.uleb128 0x1d
 2108 0727 55020000 		.4byte	.LASF81
 2109 072b 03       		.byte	0x3
 2110 072c 7E       		.byte	0x7e
 2111 072d 6B000000 		.4byte	0x6b
 2112 0731 1E       		.uleb128 0x1e
 2113 0732 3E000000 		.4byte	.LASF75
 2114 0736 04       		.byte	0x4
 2115 0737 27       		.byte	0x27
 2116 0738 1C       		.uleb128 0x1c
 2117 0739 07000000 		.4byte	.LASF74
 2118 073d 03       		.byte	0x3
 2119 073e 7F       		.byte	0x7f
 2120 073f 49070000 		.4byte	0x749
ARM GAS  C:\Users\RECEPC~1\AppData\Local\Temp\cclIxQZ0.s 			page 66


 2121 0743 1B       		.uleb128 0x1b
 2122 0744 6B000000 		.4byte	0x6b
 2123 0748 00       		.byte	0
 2124 0749 1E       		.uleb128 0x1e
 2125 074a 09030000 		.4byte	.LASF76
 2126 074e 04       		.byte	0x4
 2127 074f 28       		.byte	0x28
 2128 0750 00       		.byte	0
 2129              		.section	.debug_abbrev,"",%progbits
 2130              	.Ldebug_abbrev0:
 2131 0000 01       		.uleb128 0x1
 2132 0001 11       		.uleb128 0x11
 2133 0002 01       		.byte	0x1
 2134 0003 25       		.uleb128 0x25
 2135 0004 0E       		.uleb128 0xe
 2136 0005 13       		.uleb128 0x13
 2137 0006 0B       		.uleb128 0xb
 2138 0007 03       		.uleb128 0x3
 2139 0008 0E       		.uleb128 0xe
 2140 0009 1B       		.uleb128 0x1b
 2141 000a 0E       		.uleb128 0xe
 2142 000b 55       		.uleb128 0x55
 2143 000c 17       		.uleb128 0x17
 2144 000d 11       		.uleb128 0x11
 2145 000e 01       		.uleb128 0x1
 2146 000f 10       		.uleb128 0x10
 2147 0010 17       		.uleb128 0x17
 2148 0011 00       		.byte	0
 2149 0012 00       		.byte	0
 2150 0013 02       		.uleb128 0x2
 2151 0014 24       		.uleb128 0x24
 2152 0015 00       		.byte	0
 2153 0016 0B       		.uleb128 0xb
 2154 0017 0B       		.uleb128 0xb
 2155 0018 3E       		.uleb128 0x3e
 2156 0019 0B       		.uleb128 0xb
 2157 001a 03       		.uleb128 0x3
 2158 001b 0E       		.uleb128 0xe
 2159 001c 00       		.byte	0
 2160 001d 00       		.byte	0
 2161 001e 03       		.uleb128 0x3
 2162 001f 24       		.uleb128 0x24
 2163 0020 00       		.byte	0
 2164 0021 0B       		.uleb128 0xb
 2165 0022 0B       		.uleb128 0xb
 2166 0023 3E       		.uleb128 0x3e
 2167 0024 0B       		.uleb128 0xb
 2168 0025 03       		.uleb128 0x3
 2169 0026 08       		.uleb128 0x8
 2170 0027 00       		.byte	0
 2171 0028 00       		.byte	0
 2172 0029 04       		.uleb128 0x4
 2173 002a 16       		.uleb128 0x16
 2174 002b 00       		.byte	0
 2175 002c 03       		.uleb128 0x3
 2176 002d 0E       		.uleb128 0xe
 2177 002e 3A       		.uleb128 0x3a
ARM GAS  C:\Users\RECEPC~1\AppData\Local\Temp\cclIxQZ0.s 			page 67


 2178 002f 0B       		.uleb128 0xb
 2179 0030 3B       		.uleb128 0x3b
 2180 0031 05       		.uleb128 0x5
 2181 0032 49       		.uleb128 0x49
 2182 0033 13       		.uleb128 0x13
 2183 0034 00       		.byte	0
 2184 0035 00       		.byte	0
 2185 0036 05       		.uleb128 0x5
 2186 0037 35       		.uleb128 0x35
 2187 0038 00       		.byte	0
 2188 0039 49       		.uleb128 0x49
 2189 003a 13       		.uleb128 0x13
 2190 003b 00       		.byte	0
 2191 003c 00       		.byte	0
 2192 003d 06       		.uleb128 0x6
 2193 003e 0F       		.uleb128 0xf
 2194 003f 00       		.byte	0
 2195 0040 0B       		.uleb128 0xb
 2196 0041 0B       		.uleb128 0xb
 2197 0042 49       		.uleb128 0x49
 2198 0043 13       		.uleb128 0x13
 2199 0044 00       		.byte	0
 2200 0045 00       		.byte	0
 2201 0046 07       		.uleb128 0x7
 2202 0047 15       		.uleb128 0x15
 2203 0048 00       		.byte	0
 2204 0049 27       		.uleb128 0x27
 2205 004a 19       		.uleb128 0x19
 2206 004b 00       		.byte	0
 2207 004c 00       		.byte	0
 2208 004d 08       		.uleb128 0x8
 2209 004e 2E       		.uleb128 0x2e
 2210 004f 01       		.byte	0x1
 2211 0050 3F       		.uleb128 0x3f
 2212 0051 19       		.uleb128 0x19
 2213 0052 03       		.uleb128 0x3
 2214 0053 0E       		.uleb128 0xe
 2215 0054 3A       		.uleb128 0x3a
 2216 0055 0B       		.uleb128 0xb
 2217 0056 3B       		.uleb128 0x3b
 2218 0057 0B       		.uleb128 0xb
 2219 0058 27       		.uleb128 0x27
 2220 0059 19       		.uleb128 0x19
 2221 005a 11       		.uleb128 0x11
 2222 005b 01       		.uleb128 0x1
 2223 005c 12       		.uleb128 0x12
 2224 005d 06       		.uleb128 0x6
 2225 005e 40       		.uleb128 0x40
 2226 005f 18       		.uleb128 0x18
 2227 0060 9742     		.uleb128 0x2117
 2228 0062 19       		.uleb128 0x19
 2229 0063 01       		.uleb128 0x1
 2230 0064 13       		.uleb128 0x13
 2231 0065 00       		.byte	0
 2232 0066 00       		.byte	0
 2233 0067 09       		.uleb128 0x9
 2234 0068 898201   		.uleb128 0x4109
ARM GAS  C:\Users\RECEPC~1\AppData\Local\Temp\cclIxQZ0.s 			page 68


 2235 006b 01       		.byte	0x1
 2236 006c 11       		.uleb128 0x11
 2237 006d 01       		.uleb128 0x1
 2238 006e 31       		.uleb128 0x31
 2239 006f 13       		.uleb128 0x13
 2240 0070 01       		.uleb128 0x1
 2241 0071 13       		.uleb128 0x13
 2242 0072 00       		.byte	0
 2243 0073 00       		.byte	0
 2244 0074 0A       		.uleb128 0xa
 2245 0075 8A8201   		.uleb128 0x410a
 2246 0078 00       		.byte	0
 2247 0079 02       		.uleb128 0x2
 2248 007a 18       		.uleb128 0x18
 2249 007b 9142     		.uleb128 0x2111
 2250 007d 18       		.uleb128 0x18
 2251 007e 00       		.byte	0
 2252 007f 00       		.byte	0
 2253 0080 0B       		.uleb128 0xb
 2254 0081 898201   		.uleb128 0x4109
 2255 0084 01       		.byte	0x1
 2256 0085 11       		.uleb128 0x11
 2257 0086 01       		.uleb128 0x1
 2258 0087 31       		.uleb128 0x31
 2259 0088 13       		.uleb128 0x13
 2260 0089 00       		.byte	0
 2261 008a 00       		.byte	0
 2262 008b 0C       		.uleb128 0xc
 2263 008c 34       		.uleb128 0x34
 2264 008d 00       		.byte	0
 2265 008e 03       		.uleb128 0x3
 2266 008f 0E       		.uleb128 0xe
 2267 0090 3A       		.uleb128 0x3a
 2268 0091 0B       		.uleb128 0xb
 2269 0092 3B       		.uleb128 0x3b
 2270 0093 0B       		.uleb128 0xb
 2271 0094 49       		.uleb128 0x49
 2272 0095 13       		.uleb128 0x13
 2273 0096 02       		.uleb128 0x2
 2274 0097 17       		.uleb128 0x17
 2275 0098 00       		.byte	0
 2276 0099 00       		.byte	0
 2277 009a 0D       		.uleb128 0xd
 2278 009b 898201   		.uleb128 0x4109
 2279 009e 00       		.byte	0
 2280 009f 11       		.uleb128 0x11
 2281 00a0 01       		.uleb128 0x1
 2282 00a1 31       		.uleb128 0x31
 2283 00a2 13       		.uleb128 0x13
 2284 00a3 00       		.byte	0
 2285 00a4 00       		.byte	0
 2286 00a5 0E       		.uleb128 0xe
 2287 00a6 2E       		.uleb128 0x2e
 2288 00a7 00       		.byte	0
 2289 00a8 3F       		.uleb128 0x3f
 2290 00a9 19       		.uleb128 0x19
 2291 00aa 03       		.uleb128 0x3
ARM GAS  C:\Users\RECEPC~1\AppData\Local\Temp\cclIxQZ0.s 			page 69


 2292 00ab 0E       		.uleb128 0xe
 2293 00ac 3A       		.uleb128 0x3a
 2294 00ad 0B       		.uleb128 0xb
 2295 00ae 3B       		.uleb128 0x3b
 2296 00af 05       		.uleb128 0x5
 2297 00b0 27       		.uleb128 0x27
 2298 00b1 19       		.uleb128 0x19
 2299 00b2 49       		.uleb128 0x49
 2300 00b3 13       		.uleb128 0x13
 2301 00b4 11       		.uleb128 0x11
 2302 00b5 01       		.uleb128 0x1
 2303 00b6 12       		.uleb128 0x12
 2304 00b7 06       		.uleb128 0x6
 2305 00b8 40       		.uleb128 0x40
 2306 00b9 18       		.uleb128 0x18
 2307 00ba 9742     		.uleb128 0x2117
 2308 00bc 19       		.uleb128 0x19
 2309 00bd 00       		.byte	0
 2310 00be 00       		.byte	0
 2311 00bf 0F       		.uleb128 0xf
 2312 00c0 2E       		.uleb128 0x2e
 2313 00c1 01       		.byte	0x1
 2314 00c2 3F       		.uleb128 0x3f
 2315 00c3 19       		.uleb128 0x19
 2316 00c4 03       		.uleb128 0x3
 2317 00c5 0E       		.uleb128 0xe
 2318 00c6 3A       		.uleb128 0x3a
 2319 00c7 0B       		.uleb128 0xb
 2320 00c8 3B       		.uleb128 0x3b
 2321 00c9 05       		.uleb128 0x5
 2322 00ca 27       		.uleb128 0x27
 2323 00cb 19       		.uleb128 0x19
 2324 00cc 11       		.uleb128 0x11
 2325 00cd 01       		.uleb128 0x1
 2326 00ce 12       		.uleb128 0x12
 2327 00cf 06       		.uleb128 0x6
 2328 00d0 40       		.uleb128 0x40
 2329 00d1 18       		.uleb128 0x18
 2330 00d2 9742     		.uleb128 0x2117
 2331 00d4 19       		.uleb128 0x19
 2332 00d5 01       		.uleb128 0x1
 2333 00d6 13       		.uleb128 0x13
 2334 00d7 00       		.byte	0
 2335 00d8 00       		.byte	0
 2336 00d9 10       		.uleb128 0x10
 2337 00da 05       		.uleb128 0x5
 2338 00db 00       		.byte	0
 2339 00dc 03       		.uleb128 0x3
 2340 00dd 0E       		.uleb128 0xe
 2341 00de 3A       		.uleb128 0x3a
 2342 00df 0B       		.uleb128 0xb
 2343 00e0 3B       		.uleb128 0x3b
 2344 00e1 05       		.uleb128 0x5
 2345 00e2 49       		.uleb128 0x49
 2346 00e3 13       		.uleb128 0x13
 2347 00e4 02       		.uleb128 0x2
 2348 00e5 18       		.uleb128 0x18
ARM GAS  C:\Users\RECEPC~1\AppData\Local\Temp\cclIxQZ0.s 			page 70


 2349 00e6 00       		.byte	0
 2350 00e7 00       		.byte	0
 2351 00e8 11       		.uleb128 0x11
 2352 00e9 2E       		.uleb128 0x2e
 2353 00ea 01       		.byte	0x1
 2354 00eb 3F       		.uleb128 0x3f
 2355 00ec 19       		.uleb128 0x19
 2356 00ed 03       		.uleb128 0x3
 2357 00ee 0E       		.uleb128 0xe
 2358 00ef 3A       		.uleb128 0x3a
 2359 00f0 0B       		.uleb128 0xb
 2360 00f1 3B       		.uleb128 0x3b
 2361 00f2 05       		.uleb128 0x5
 2362 00f3 27       		.uleb128 0x27
 2363 00f4 19       		.uleb128 0x19
 2364 00f5 49       		.uleb128 0x49
 2365 00f6 13       		.uleb128 0x13
 2366 00f7 11       		.uleb128 0x11
 2367 00f8 01       		.uleb128 0x1
 2368 00f9 12       		.uleb128 0x12
 2369 00fa 06       		.uleb128 0x6
 2370 00fb 40       		.uleb128 0x40
 2371 00fc 18       		.uleb128 0x18
 2372 00fd 9742     		.uleb128 0x2117
 2373 00ff 19       		.uleb128 0x19
 2374 0100 01       		.uleb128 0x1
 2375 0101 13       		.uleb128 0x13
 2376 0102 00       		.byte	0
 2377 0103 00       		.byte	0
 2378 0104 12       		.uleb128 0x12
 2379 0105 34       		.uleb128 0x34
 2380 0106 00       		.byte	0
 2381 0107 03       		.uleb128 0x3
 2382 0108 0E       		.uleb128 0xe
 2383 0109 3A       		.uleb128 0x3a
 2384 010a 0B       		.uleb128 0xb
 2385 010b 3B       		.uleb128 0x3b
 2386 010c 05       		.uleb128 0x5
 2387 010d 49       		.uleb128 0x49
 2388 010e 13       		.uleb128 0x13
 2389 010f 02       		.uleb128 0x2
 2390 0110 17       		.uleb128 0x17
 2391 0111 00       		.byte	0
 2392 0112 00       		.byte	0
 2393 0113 13       		.uleb128 0x13
 2394 0114 34       		.uleb128 0x34
 2395 0115 00       		.byte	0
 2396 0116 03       		.uleb128 0x3
 2397 0117 0E       		.uleb128 0xe
 2398 0118 3A       		.uleb128 0x3a
 2399 0119 0B       		.uleb128 0xb
 2400 011a 3B       		.uleb128 0x3b
 2401 011b 05       		.uleb128 0x5
 2402 011c 49       		.uleb128 0x49
 2403 011d 13       		.uleb128 0x13
 2404 011e 02       		.uleb128 0x2
 2405 011f 18       		.uleb128 0x18
ARM GAS  C:\Users\RECEPC~1\AppData\Local\Temp\cclIxQZ0.s 			page 71


 2406 0120 00       		.byte	0
 2407 0121 00       		.byte	0
 2408 0122 14       		.uleb128 0x14
 2409 0123 05       		.uleb128 0x5
 2410 0124 00       		.byte	0
 2411 0125 03       		.uleb128 0x3
 2412 0126 0E       		.uleb128 0xe
 2413 0127 3A       		.uleb128 0x3a
 2414 0128 0B       		.uleb128 0xb
 2415 0129 3B       		.uleb128 0x3b
 2416 012a 05       		.uleb128 0x5
 2417 012b 49       		.uleb128 0x49
 2418 012c 13       		.uleb128 0x13
 2419 012d 02       		.uleb128 0x2
 2420 012e 17       		.uleb128 0x17
 2421 012f 00       		.byte	0
 2422 0130 00       		.byte	0
 2423 0131 15       		.uleb128 0x15
 2424 0132 26       		.uleb128 0x26
 2425 0133 00       		.byte	0
 2426 0134 49       		.uleb128 0x49
 2427 0135 13       		.uleb128 0x13
 2428 0136 00       		.byte	0
 2429 0137 00       		.byte	0
 2430 0138 16       		.uleb128 0x16
 2431 0139 0B       		.uleb128 0xb
 2432 013a 01       		.byte	0x1
 2433 013b 11       		.uleb128 0x11
 2434 013c 01       		.uleb128 0x1
 2435 013d 12       		.uleb128 0x12
 2436 013e 06       		.uleb128 0x6
 2437 013f 00       		.byte	0
 2438 0140 00       		.byte	0
 2439 0141 17       		.uleb128 0x17
 2440 0142 34       		.uleb128 0x34
 2441 0143 00       		.byte	0
 2442 0144 03       		.uleb128 0x3
 2443 0145 0E       		.uleb128 0xe
 2444 0146 3A       		.uleb128 0x3a
 2445 0147 0B       		.uleb128 0xb
 2446 0148 3B       		.uleb128 0x3b
 2447 0149 0B       		.uleb128 0xb
 2448 014a 49       		.uleb128 0x49
 2449 014b 13       		.uleb128 0x13
 2450 014c 3F       		.uleb128 0x3f
 2451 014d 19       		.uleb128 0x19
 2452 014e 02       		.uleb128 0x2
 2453 014f 18       		.uleb128 0x18
 2454 0150 00       		.byte	0
 2455 0151 00       		.byte	0
 2456 0152 18       		.uleb128 0x18
 2457 0153 01       		.uleb128 0x1
 2458 0154 01       		.byte	0x1
 2459 0155 49       		.uleb128 0x49
 2460 0156 13       		.uleb128 0x13
 2461 0157 01       		.uleb128 0x1
 2462 0158 13       		.uleb128 0x13
ARM GAS  C:\Users\RECEPC~1\AppData\Local\Temp\cclIxQZ0.s 			page 72


 2463 0159 00       		.byte	0
 2464 015a 00       		.byte	0
 2465 015b 19       		.uleb128 0x19
 2466 015c 21       		.uleb128 0x21
 2467 015d 00       		.byte	0
 2468 015e 49       		.uleb128 0x49
 2469 015f 13       		.uleb128 0x13
 2470 0160 2F       		.uleb128 0x2f
 2471 0161 0B       		.uleb128 0xb
 2472 0162 00       		.byte	0
 2473 0163 00       		.byte	0
 2474 0164 1A       		.uleb128 0x1a
 2475 0165 2E       		.uleb128 0x2e
 2476 0166 01       		.byte	0x1
 2477 0167 3F       		.uleb128 0x3f
 2478 0168 19       		.uleb128 0x19
 2479 0169 03       		.uleb128 0x3
 2480 016a 0E       		.uleb128 0xe
 2481 016b 3A       		.uleb128 0x3a
 2482 016c 0B       		.uleb128 0xb
 2483 016d 3B       		.uleb128 0x3b
 2484 016e 0B       		.uleb128 0xb
 2485 016f 27       		.uleb128 0x27
 2486 0170 19       		.uleb128 0x19
 2487 0171 49       		.uleb128 0x49
 2488 0172 13       		.uleb128 0x13
 2489 0173 3C       		.uleb128 0x3c
 2490 0174 19       		.uleb128 0x19
 2491 0175 01       		.uleb128 0x1
 2492 0176 13       		.uleb128 0x13
 2493 0177 00       		.byte	0
 2494 0178 00       		.byte	0
 2495 0179 1B       		.uleb128 0x1b
 2496 017a 05       		.uleb128 0x5
 2497 017b 00       		.byte	0
 2498 017c 49       		.uleb128 0x49
 2499 017d 13       		.uleb128 0x13
 2500 017e 00       		.byte	0
 2501 017f 00       		.byte	0
 2502 0180 1C       		.uleb128 0x1c
 2503 0181 2E       		.uleb128 0x2e
 2504 0182 01       		.byte	0x1
 2505 0183 3F       		.uleb128 0x3f
 2506 0184 19       		.uleb128 0x19
 2507 0185 03       		.uleb128 0x3
 2508 0186 0E       		.uleb128 0xe
 2509 0187 3A       		.uleb128 0x3a
 2510 0188 0B       		.uleb128 0xb
 2511 0189 3B       		.uleb128 0x3b
 2512 018a 0B       		.uleb128 0xb
 2513 018b 27       		.uleb128 0x27
 2514 018c 19       		.uleb128 0x19
 2515 018d 3C       		.uleb128 0x3c
 2516 018e 19       		.uleb128 0x19
 2517 018f 01       		.uleb128 0x1
 2518 0190 13       		.uleb128 0x13
 2519 0191 00       		.byte	0
ARM GAS  C:\Users\RECEPC~1\AppData\Local\Temp\cclIxQZ0.s 			page 73


 2520 0192 00       		.byte	0
 2521 0193 1D       		.uleb128 0x1d
 2522 0194 2E       		.uleb128 0x2e
 2523 0195 00       		.byte	0
 2524 0196 3F       		.uleb128 0x3f
 2525 0197 19       		.uleb128 0x19
 2526 0198 03       		.uleb128 0x3
 2527 0199 0E       		.uleb128 0xe
 2528 019a 3A       		.uleb128 0x3a
 2529 019b 0B       		.uleb128 0xb
 2530 019c 3B       		.uleb128 0x3b
 2531 019d 0B       		.uleb128 0xb
 2532 019e 27       		.uleb128 0x27
 2533 019f 19       		.uleb128 0x19
 2534 01a0 49       		.uleb128 0x49
 2535 01a1 13       		.uleb128 0x13
 2536 01a2 3C       		.uleb128 0x3c
 2537 01a3 19       		.uleb128 0x19
 2538 01a4 00       		.byte	0
 2539 01a5 00       		.byte	0
 2540 01a6 1E       		.uleb128 0x1e
 2541 01a7 2E       		.uleb128 0x2e
 2542 01a8 00       		.byte	0
 2543 01a9 3F       		.uleb128 0x3f
 2544 01aa 19       		.uleb128 0x19
 2545 01ab 03       		.uleb128 0x3
 2546 01ac 0E       		.uleb128 0xe
 2547 01ad 3A       		.uleb128 0x3a
 2548 01ae 0B       		.uleb128 0xb
 2549 01af 3B       		.uleb128 0x3b
 2550 01b0 0B       		.uleb128 0xb
 2551 01b1 27       		.uleb128 0x27
 2552 01b2 19       		.uleb128 0x19
 2553 01b3 3C       		.uleb128 0x3c
 2554 01b4 19       		.uleb128 0x19
 2555 01b5 00       		.byte	0
 2556 01b6 00       		.byte	0
 2557 01b7 00       		.byte	0
 2558              		.section	.debug_loc,"",%progbits
 2559              	.Ldebug_loc0:
 2560              	.LLST0:
 2561 0000 08000000 		.4byte	.LVL3
 2562 0004 38000000 		.4byte	.LVL6
 2563 0008 0100     		.2byte	0x1
 2564 000a 54       		.byte	0x54
 2565 000b 00000000 		.4byte	0
 2566 000f 00000000 		.4byte	0
 2567              	.LLST1:
 2568 0013 08000000 		.4byte	.LVL10
 2569 0017 38000000 		.4byte	.LVL13
 2570 001b 0100     		.2byte	0x1
 2571 001d 54       		.byte	0x54
 2572 001e 00000000 		.4byte	0
 2573 0022 00000000 		.4byte	0
 2574              	.LLST2:
 2575 0026 22000000 		.4byte	.LVL18
 2576 002a 40000000 		.4byte	.LVL24
ARM GAS  C:\Users\RECEPC~1\AppData\Local\Temp\cclIxQZ0.s 			page 74


 2577 002e 0100     		.2byte	0x1
 2578 0030 50       		.byte	0x50
 2579 0031 46000000 		.4byte	.LVL26
 2580 0035 64000000 		.4byte	.LFE7
 2581 0039 0100     		.2byte	0x1
 2582 003b 50       		.byte	0x50
 2583 003c 00000000 		.4byte	0
 2584 0040 00000000 		.4byte	0
 2585              	.LLST3:
 2586 0044 0C000000 		.4byte	.LVL16
 2587 0048 24000000 		.4byte	.LVL19
 2588 004c 0100     		.2byte	0x1
 2589 004e 53       		.byte	0x53
 2590 004f 24000000 		.4byte	.LVL19
 2591 0053 26000000 		.4byte	.LVL20
 2592 0057 0300     		.2byte	0x3
 2593 0059 73       		.byte	0x73
 2594 005a 7F       		.sleb128 -1
 2595 005b 9F       		.byte	0x9f
 2596 005c 26000000 		.4byte	.LVL20
 2597 0060 32000000 		.4byte	.LVL22
 2598 0064 0100     		.2byte	0x1
 2599 0066 53       		.byte	0x53
 2600 0067 32000000 		.4byte	.LVL22
 2601 006b 3E000000 		.4byte	.LVL23
 2602 006f 0500     		.2byte	0x5
 2603 0071 03       		.byte	0x3
 2604 0072 00000000 		.4byte	Display1_rxBufferRead
 2605 0076 40000000 		.4byte	.LVL24
 2606 007a 42000000 		.4byte	.LVL25
 2607 007e 0100     		.2byte	0x1
 2608 0080 53       		.byte	0x53
 2609 0081 00000000 		.4byte	0
 2610 0085 00000000 		.4byte	0
 2611              	.LLST4:
 2612 0089 00000000 		.4byte	.LVL29
 2613 008d 22000000 		.4byte	.LVL32
 2614 0091 0200     		.2byte	0x2
 2615 0093 30       		.byte	0x30
 2616 0094 9F       		.byte	0x9f
 2617 0095 22000000 		.4byte	.LVL32
 2618 0099 40000000 		.4byte	.LVL38
 2619 009d 0100     		.2byte	0x1
 2620 009f 50       		.byte	0x50
 2621 00a0 40000000 		.4byte	.LVL38
 2622 00a4 52000000 		.4byte	.LVL41
 2623 00a8 0200     		.2byte	0x2
 2624 00aa 30       		.byte	0x30
 2625 00ab 9F       		.byte	0x9f
 2626 00ac 52000000 		.4byte	.LVL41
 2627 00b0 5A000000 		.4byte	.LVL42
 2628 00b4 0100     		.2byte	0x1
 2629 00b6 50       		.byte	0x50
 2630 00b7 5A000000 		.4byte	.LVL42
 2631 00bb 5E000000 		.4byte	.LVL43
 2632 00bf 0200     		.2byte	0x2
 2633 00c1 30       		.byte	0x30
ARM GAS  C:\Users\RECEPC~1\AppData\Local\Temp\cclIxQZ0.s 			page 75


 2634 00c2 9F       		.byte	0x9f
 2635 00c3 5E000000 		.4byte	.LVL43
 2636 00c7 80000000 		.4byte	.LFE9
 2637 00cb 0100     		.2byte	0x1
 2638 00cd 50       		.byte	0x50
 2639 00ce 00000000 		.4byte	0
 2640 00d2 00000000 		.4byte	0
 2641              	.LLST5:
 2642 00d6 46000000 		.4byte	.LVL40
 2643 00da 60000000 		.4byte	.LVL44
 2644 00de 0100     		.2byte	0x1
 2645 00e0 53       		.byte	0x53
 2646 00e1 00000000 		.4byte	0
 2647 00e5 00000000 		.4byte	0
 2648              	.LLST6:
 2649 00e9 0C000000 		.4byte	.LVL30
 2650 00ed 24000000 		.4byte	.LVL33
 2651 00f1 0100     		.2byte	0x1
 2652 00f3 53       		.byte	0x53
 2653 00f4 24000000 		.4byte	.LVL33
 2654 00f8 26000000 		.4byte	.LVL34
 2655 00fc 0300     		.2byte	0x3
 2656 00fe 73       		.byte	0x73
 2657 00ff 7F       		.sleb128 -1
 2658 0100 9F       		.byte	0x9f
 2659 0101 26000000 		.4byte	.LVL34
 2660 0105 32000000 		.4byte	.LVL36
 2661 0109 0100     		.2byte	0x1
 2662 010b 53       		.byte	0x53
 2663 010c 32000000 		.4byte	.LVL36
 2664 0110 3E000000 		.4byte	.LVL37
 2665 0114 0500     		.2byte	0x5
 2666 0116 03       		.byte	0x3
 2667 0117 00000000 		.4byte	Display1_rxBufferRead
 2668 011b 40000000 		.4byte	.LVL38
 2669 011f 42000000 		.4byte	.LVL39
 2670 0123 0100     		.2byte	0x1
 2671 0125 53       		.byte	0x53
 2672 0126 00000000 		.4byte	0
 2673 012a 00000000 		.4byte	0
 2674              	.LLST7:
 2675 012e 0C000000 		.4byte	.LVL45
 2676 0132 16000000 		.4byte	.LVL46
 2677 0136 0100     		.2byte	0x1
 2678 0138 54       		.byte	0x54
 2679 0139 00000000 		.4byte	0
 2680 013d 00000000 		.4byte	0
 2681              	.LLST8:
 2682 0141 36000000 		.4byte	.LVL48
 2683 0145 38000000 		.4byte	.LVL49
 2684 0149 0100     		.2byte	0x1
 2685 014b 50       		.byte	0x50
 2686 014c 44000000 		.4byte	.LVL50
 2687 0150 46000000 		.4byte	.LVL51
 2688 0154 0100     		.2byte	0x1
 2689 0156 50       		.byte	0x50
 2690 0157 48000000 		.4byte	.LVL52
ARM GAS  C:\Users\RECEPC~1\AppData\Local\Temp\cclIxQZ0.s 			page 76


 2691 015b 5C000000 		.4byte	.LFE11
 2692 015f 0100     		.2byte	0x1
 2693 0161 50       		.byte	0x50
 2694 0162 00000000 		.4byte	0
 2695 0166 00000000 		.4byte	0
 2696              	.LLST9:
 2697 016a 06000000 		.4byte	.LVL53
 2698 016e 1B000000 		.4byte	.LVL54-1
 2699 0172 0100     		.2byte	0x1
 2700 0174 50       		.byte	0x50
 2701 0175 00000000 		.4byte	0
 2702 0179 00000000 		.4byte	0
 2703              	.LLST10:
 2704 017d 00000000 		.4byte	.LVL61
 2705 0181 0A000000 		.4byte	.LVL63
 2706 0185 0100     		.2byte	0x1
 2707 0187 50       		.byte	0x50
 2708 0188 0A000000 		.4byte	.LVL63
 2709 018c 14000000 		.4byte	.LVL67
 2710 0190 0100     		.2byte	0x1
 2711 0192 55       		.byte	0x55
 2712 0193 14000000 		.4byte	.LVL67
 2713 0197 18000000 		.4byte	.LVL68
 2714 019b 0100     		.2byte	0x1
 2715 019d 50       		.byte	0x50
 2716 019e 18000000 		.4byte	.LVL68
 2717 01a2 20000000 		.4byte	.LVL69
 2718 01a6 0100     		.2byte	0x1
 2719 01a8 55       		.byte	0x55
 2720 01a9 20000000 		.4byte	.LVL69
 2721 01ad 24000000 		.4byte	.LFE20
 2722 01b1 0400     		.2byte	0x4
 2723 01b3 F3       		.byte	0xf3
 2724 01b4 01       		.uleb128 0x1
 2725 01b5 50       		.byte	0x50
 2726 01b6 9F       		.byte	0x9f
 2727 01b7 00000000 		.4byte	0
 2728 01bb 00000000 		.4byte	0
 2729              	.LLST11:
 2730 01bf 02000000 		.4byte	.LVL62
 2731 01c3 0A000000 		.4byte	.LVL63
 2732 01c7 0200     		.2byte	0x2
 2733 01c9 30       		.byte	0x30
 2734 01ca 9F       		.byte	0x9f
 2735 01cb 0A000000 		.4byte	.LVL63
 2736 01cf 10000000 		.4byte	.LVL65
 2737 01d3 0100     		.2byte	0x1
 2738 01d5 54       		.byte	0x54
 2739 01d6 12000000 		.4byte	.LVL66
 2740 01da 14000000 		.4byte	.LVL67
 2741 01de 0100     		.2byte	0x1
 2742 01e0 54       		.byte	0x54
 2743 01e1 14000000 		.4byte	.LVL67
 2744 01e5 18000000 		.4byte	.LVL68
 2745 01e9 0200     		.2byte	0x2
 2746 01eb 30       		.byte	0x30
 2747 01ec 9F       		.byte	0x9f
ARM GAS  C:\Users\RECEPC~1\AppData\Local\Temp\cclIxQZ0.s 			page 77


 2748 01ed 18000000 		.4byte	.LVL68
 2749 01f1 20000000 		.4byte	.LVL69
 2750 01f5 0100     		.2byte	0x1
 2751 01f7 54       		.byte	0x54
 2752 01f8 00000000 		.4byte	0
 2753 01fc 00000000 		.4byte	0
 2754              	.LLST12:
 2755 0200 00000000 		.4byte	.LVL70
 2756 0204 08000000 		.4byte	.LVL71
 2757 0208 0100     		.2byte	0x1
 2758 020a 50       		.byte	0x50
 2759 020b 08000000 		.4byte	.LVL71
 2760 020f 14000000 		.4byte	.LVL75
 2761 0213 0100     		.2byte	0x1
 2762 0215 56       		.byte	0x56
 2763 0216 14000000 		.4byte	.LVL75
 2764 021a 1C000000 		.4byte	.LVL76
 2765 021e 0100     		.2byte	0x1
 2766 0220 50       		.byte	0x50
 2767 0221 1C000000 		.4byte	.LVL76
 2768 0225 22000000 		.4byte	.LVL77
 2769 0229 0100     		.2byte	0x1
 2770 022b 56       		.byte	0x56
 2771 022c 22000000 		.4byte	.LVL77
 2772 0230 28000000 		.4byte	.LFE21
 2773 0234 0400     		.2byte	0x4
 2774 0236 F3       		.byte	0xf3
 2775 0237 01       		.uleb128 0x1
 2776 0238 50       		.byte	0x50
 2777 0239 9F       		.byte	0x9f
 2778 023a 00000000 		.4byte	0
 2779 023e 00000000 		.4byte	0
 2780              	.LLST13:
 2781 0242 00000000 		.4byte	.LVL70
 2782 0246 08000000 		.4byte	.LVL71
 2783 024a 0100     		.2byte	0x1
 2784 024c 51       		.byte	0x51
 2785 024d 08000000 		.4byte	.LVL71
 2786 0251 14000000 		.4byte	.LVL75
 2787 0255 0400     		.2byte	0x4
 2788 0257 F3       		.byte	0xf3
 2789 0258 01       		.uleb128 0x1
 2790 0259 51       		.byte	0x51
 2791 025a 9F       		.byte	0x9f
 2792 025b 14000000 		.4byte	.LVL75
 2793 025f 1C000000 		.4byte	.LVL76
 2794 0263 0100     		.2byte	0x1
 2795 0265 51       		.byte	0x51
 2796 0266 1C000000 		.4byte	.LVL76
 2797 026a 28000000 		.4byte	.LFE21
 2798 026e 0400     		.2byte	0x4
 2799 0270 F3       		.byte	0xf3
 2800 0271 01       		.uleb128 0x1
 2801 0272 51       		.byte	0x51
 2802 0273 9F       		.byte	0x9f
 2803 0274 00000000 		.4byte	0
 2804 0278 00000000 		.4byte	0
ARM GAS  C:\Users\RECEPC~1\AppData\Local\Temp\cclIxQZ0.s 			page 78


 2805              	.LLST14:
 2806 027c 00000000 		.4byte	.LVL70
 2807 0280 08000000 		.4byte	.LVL71
 2808 0284 0200     		.2byte	0x2
 2809 0286 30       		.byte	0x30
 2810 0287 9F       		.byte	0x9f
 2811 0288 08000000 		.4byte	.LVL71
 2812 028c 10000000 		.4byte	.LVL73
 2813 0290 0100     		.2byte	0x1
 2814 0292 54       		.byte	0x54
 2815 0293 12000000 		.4byte	.LVL74
 2816 0297 14000000 		.4byte	.LVL75
 2817 029b 0100     		.2byte	0x1
 2818 029d 54       		.byte	0x54
 2819 029e 14000000 		.4byte	.LVL75
 2820 02a2 1C000000 		.4byte	.LVL76
 2821 02a6 0200     		.2byte	0x2
 2822 02a8 30       		.byte	0x30
 2823 02a9 9F       		.byte	0x9f
 2824 02aa 1C000000 		.4byte	.LVL76
 2825 02ae 22000000 		.4byte	.LVL77
 2826 02b2 0100     		.2byte	0x1
 2827 02b4 54       		.byte	0x54
 2828 02b5 00000000 		.4byte	0
 2829 02b9 00000000 		.4byte	0
 2830              	.LLST15:
 2831 02bd 00000000 		.4byte	.LVL78
 2832 02c1 0B000000 		.4byte	.LVL79-1
 2833 02c5 0100     		.2byte	0x1
 2834 02c7 50       		.byte	0x50
 2835 02c8 0B000000 		.4byte	.LVL79-1
 2836 02cc 20000000 		.4byte	.LFE22
 2837 02d0 0400     		.2byte	0x4
 2838 02d2 F3       		.byte	0xf3
 2839 02d3 01       		.uleb128 0x1
 2840 02d4 50       		.byte	0x50
 2841 02d5 9F       		.byte	0x9f
 2842 02d6 00000000 		.4byte	0
 2843 02da 00000000 		.4byte	0
 2844              	.LLST16:
 2845 02de 06000000 		.4byte	.LVL82
 2846 02e2 1C000000 		.4byte	.LVL83
 2847 02e6 0100     		.2byte	0x1
 2848 02e8 53       		.byte	0x53
 2849 02e9 1C000000 		.4byte	.LVL83
 2850 02ed 24000000 		.4byte	.LFE23
 2851 02f1 0100     		.2byte	0x1
 2852 02f3 50       		.byte	0x50
 2853 02f4 00000000 		.4byte	0
 2854 02f8 00000000 		.4byte	0
 2855              	.LLST17:
 2856 02fc 06000000 		.4byte	.LVL84
 2857 0300 1B000000 		.4byte	.LVL85-1
 2858 0304 0100     		.2byte	0x1
 2859 0306 50       		.byte	0x50
 2860 0307 00000000 		.4byte	0
 2861 030b 00000000 		.4byte	0
ARM GAS  C:\Users\RECEPC~1\AppData\Local\Temp\cclIxQZ0.s 			page 79


 2862              	.LLST18:
 2863 030f 00000000 		.4byte	.LVL86
 2864 0313 3C000000 		.4byte	.LVL91
 2865 0317 0100     		.2byte	0x1
 2866 0319 50       		.byte	0x50
 2867 031a 3C000000 		.4byte	.LVL91
 2868 031e 58000000 		.4byte	.LFE25
 2869 0322 0400     		.2byte	0x4
 2870 0324 F3       		.byte	0xf3
 2871 0325 01       		.uleb128 0x1
 2872 0326 50       		.byte	0x50
 2873 0327 9F       		.byte	0x9f
 2874 0328 00000000 		.4byte	0
 2875 032c 00000000 		.4byte	0
 2876              	.LLST19:
 2877 0330 22000000 		.4byte	.LVL87
 2878 0334 28000000 		.4byte	.LVL88
 2879 0338 0100     		.2byte	0x1
 2880 033a 53       		.byte	0x53
 2881 033b 34000000 		.4byte	.LVL89
 2882 033f 3A000000 		.4byte	.LVL90
 2883 0343 0100     		.2byte	0x1
 2884 0345 53       		.byte	0x53
 2885 0346 00000000 		.4byte	0
 2886 034a 00000000 		.4byte	0
 2887              		.section	.debug_aranges,"",%progbits
 2888 0000 EC000000 		.4byte	0xec
 2889 0004 0200     		.2byte	0x2
 2890 0006 00000000 		.4byte	.Ldebug_info0
 2891 000a 04       		.byte	0x4
 2892 000b 00       		.byte	0
 2893 000c 0000     		.2byte	0
 2894 000e 0000     		.2byte	0
 2895 0010 00000000 		.4byte	.LFB1
 2896 0014 44000000 		.4byte	.LFE1-.LFB1
 2897 0018 00000000 		.4byte	.LFB2
 2898 001c 44000000 		.4byte	.LFE2-.LFB2
 2899 0020 00000000 		.4byte	.LFB0
 2900 0024 1C000000 		.4byte	.LFE0-.LFB0
 2901 0028 00000000 		.4byte	.LFB3
 2902 002c 48000000 		.4byte	.LFE3-.LFB3
 2903 0030 00000000 		.4byte	.LFB4
 2904 0034 04000000 		.4byte	.LFE4-.LFB4
 2905 0038 00000000 		.4byte	.LFB5
 2906 003c 02000000 		.4byte	.LFE5-.LFB5
 2907 0040 00000000 		.4byte	.LFB6
 2908 0044 0C000000 		.4byte	.LFE6-.LFB6
 2909 0048 00000000 		.4byte	.LFB7
 2910 004c 64000000 		.4byte	.LFE7-.LFB7
 2911 0050 00000000 		.4byte	.LFB8
 2912 0054 28000000 		.4byte	.LFE8-.LFB8
 2913 0058 00000000 		.4byte	.LFB9
 2914 005c 80000000 		.4byte	.LFE9-.LFB9
 2915 0060 00000000 		.4byte	.LFB10
 2916 0064 2C000000 		.4byte	.LFE10-.LFB10
 2917 0068 00000000 		.4byte	.LFB11
 2918 006c 5C000000 		.4byte	.LFE11-.LFB11
ARM GAS  C:\Users\RECEPC~1\AppData\Local\Temp\cclIxQZ0.s 			page 80


 2919 0070 00000000 		.4byte	.LFB12
 2920 0074 44000000 		.4byte	.LFE12-.LFB12
 2921 0078 00000000 		.4byte	.LFB13
 2922 007c 02000000 		.4byte	.LFE13-.LFB13
 2923 0080 00000000 		.4byte	.LFB14
 2924 0084 0C000000 		.4byte	.LFE14-.LFB14
 2925 0088 00000000 		.4byte	.LFB15
 2926 008c 0C000000 		.4byte	.LFE15-.LFB15
 2927 0090 00000000 		.4byte	.LFB16
 2928 0094 0C000000 		.4byte	.LFE16-.LFB16
 2929 0098 00000000 		.4byte	.LFB17
 2930 009c 14000000 		.4byte	.LFE17-.LFB17
 2931 00a0 00000000 		.4byte	.LFB18
 2932 00a4 0C000000 		.4byte	.LFE18-.LFB18
 2933 00a8 00000000 		.4byte	.LFB19
 2934 00ac 18000000 		.4byte	.LFE19-.LFB19
 2935 00b0 00000000 		.4byte	.LFB20
 2936 00b4 24000000 		.4byte	.LFE20-.LFB20
 2937 00b8 00000000 		.4byte	.LFB21
 2938 00bc 28000000 		.4byte	.LFE21-.LFB21
 2939 00c0 00000000 		.4byte	.LFB22
 2940 00c4 20000000 		.4byte	.LFE22-.LFB22
 2941 00c8 00000000 		.4byte	.LFB23
 2942 00cc 24000000 		.4byte	.LFE23-.LFB23
 2943 00d0 00000000 		.4byte	.LFB24
 2944 00d4 24000000 		.4byte	.LFE24-.LFB24
 2945 00d8 00000000 		.4byte	.LFB25
 2946 00dc 58000000 		.4byte	.LFE25-.LFB25
 2947 00e0 00000000 		.4byte	.LFB26
 2948 00e4 02000000 		.4byte	.LFE26-.LFB26
 2949 00e8 00000000 		.4byte	0
 2950 00ec 00000000 		.4byte	0
 2951              		.section	.debug_ranges,"",%progbits
 2952              	.Ldebug_ranges0:
 2953 0000 00000000 		.4byte	.LFB1
 2954 0004 44000000 		.4byte	.LFE1
 2955 0008 00000000 		.4byte	.LFB2
 2956 000c 44000000 		.4byte	.LFE2
 2957 0010 00000000 		.4byte	.LFB0
 2958 0014 1C000000 		.4byte	.LFE0
 2959 0018 00000000 		.4byte	.LFB3
 2960 001c 48000000 		.4byte	.LFE3
 2961 0020 00000000 		.4byte	.LFB4
 2962 0024 04000000 		.4byte	.LFE4
 2963 0028 00000000 		.4byte	.LFB5
 2964 002c 02000000 		.4byte	.LFE5
 2965 0030 00000000 		.4byte	.LFB6
 2966 0034 0C000000 		.4byte	.LFE6
 2967 0038 00000000 		.4byte	.LFB7
 2968 003c 64000000 		.4byte	.LFE7
 2969 0040 00000000 		.4byte	.LFB8
 2970 0044 28000000 		.4byte	.LFE8
 2971 0048 00000000 		.4byte	.LFB9
 2972 004c 80000000 		.4byte	.LFE9
 2973 0050 00000000 		.4byte	.LFB10
 2974 0054 2C000000 		.4byte	.LFE10
 2975 0058 00000000 		.4byte	.LFB11
ARM GAS  C:\Users\RECEPC~1\AppData\Local\Temp\cclIxQZ0.s 			page 81


 2976 005c 5C000000 		.4byte	.LFE11
 2977 0060 00000000 		.4byte	.LFB12
 2978 0064 44000000 		.4byte	.LFE12
 2979 0068 00000000 		.4byte	.LFB13
 2980 006c 02000000 		.4byte	.LFE13
 2981 0070 00000000 		.4byte	.LFB14
 2982 0074 0C000000 		.4byte	.LFE14
 2983 0078 00000000 		.4byte	.LFB15
 2984 007c 0C000000 		.4byte	.LFE15
 2985 0080 00000000 		.4byte	.LFB16
 2986 0084 0C000000 		.4byte	.LFE16
 2987 0088 00000000 		.4byte	.LFB17
 2988 008c 14000000 		.4byte	.LFE17
 2989 0090 00000000 		.4byte	.LFB18
 2990 0094 0C000000 		.4byte	.LFE18
 2991 0098 00000000 		.4byte	.LFB19
 2992 009c 18000000 		.4byte	.LFE19
 2993 00a0 00000000 		.4byte	.LFB20
 2994 00a4 24000000 		.4byte	.LFE20
 2995 00a8 00000000 		.4byte	.LFB21
 2996 00ac 28000000 		.4byte	.LFE21
 2997 00b0 00000000 		.4byte	.LFB22
 2998 00b4 20000000 		.4byte	.LFE22
 2999 00b8 00000000 		.4byte	.LFB23
 3000 00bc 24000000 		.4byte	.LFE23
 3001 00c0 00000000 		.4byte	.LFB24
 3002 00c4 24000000 		.4byte	.LFE24
 3003 00c8 00000000 		.4byte	.LFB25
 3004 00cc 58000000 		.4byte	.LFE25
 3005 00d0 00000000 		.4byte	.LFB26
 3006 00d4 02000000 		.4byte	.LFE26
 3007 00d8 00000000 		.4byte	0
 3008 00dc 00000000 		.4byte	0
 3009              		.section	.debug_line,"",%progbits
 3010              	.Ldebug_line0:
 3011 0000 08030000 		.section	.debug_str,"MS",%progbits,1
 3011      02006900 
 3011      00000201 
 3011      FB0E0D00 
 3011      01010101 
 3012              	.LASF10:
 3013 0000 75696E74 		.ascii	"uint16\000"
 3013      313600
 3014              	.LASF74:
 3015 0007 43794578 		.ascii	"CyExitCriticalSection\000"
 3015      69744372 
 3015      69746963 
 3015      616C5365 
 3015      6374696F 
 3016              	.LASF49:
 3017 001d 74784461 		.ascii	"txDataByte\000"
 3017      74614279 
 3017      746500
 3018              	.LASF51:
 3019 0028 44697370 		.ascii	"Display1_ReadTxStatus\000"
 3019      6C617931 
 3019      5F526561 
ARM GAS  C:\Users\RECEPC~1\AppData\Local\Temp\cclIxQZ0.s 			page 82


 3019      64547853 
 3019      74617475 
 3020              	.LASF75:
 3021 003e 44697370 		.ascii	"Display1_IntClock_Start\000"
 3021      6C617931 
 3021      5F496E74 
 3021      436C6F63 
 3021      6B5F5374 
 3022              	.LASF54:
 3023 0056 73747269 		.ascii	"string\000"
 3023      6E6700
 3024              	.LASF52:
 3025 005d 44697370 		.ascii	"Display1_PutChar\000"
 3025      6C617931 
 3025      5F507574 
 3025      43686172 
 3025      00
 3026              	.LASF35:
 3027 006e 44697370 		.ascii	"Display1_GetChar\000"
 3027      6C617931 
 3027      5F476574 
 3027      43686172 
 3027      00
 3028              	.LASF7:
 3029 007f 6C6F6E67 		.ascii	"long long unsigned int\000"
 3029      206C6F6E 
 3029      6720756E 
 3029      7369676E 
 3029      65642069 
 3030              	.LASF33:
 3031 0096 44697370 		.ascii	"Display1_ReadRxStatus\000"
 3031      6C617931 
 3031      5F526561 
 3031      64527853 
 3031      74617475 
 3032              	.LASF53:
 3033 00ac 44697370 		.ascii	"Display1_PutString\000"
 3033      6C617931 
 3033      5F507574 
 3033      53747269 
 3033      6E6700
 3034              	.LASF66:
 3035 00bf 44697370 		.ascii	"Display1_initVar\000"
 3035      6C617931 
 3035      5F696E69 
 3035      74566172 
 3035      00
 3036              	.LASF67:
 3037 00d0 44697370 		.ascii	"Display1_errorStatus\000"
 3037      6C617931 
 3037      5F657272 
 3037      6F725374 
 3037      61747573 
 3038              	.LASF32:
 3039 00e5 44697370 		.ascii	"Display1_ReadRxData\000"
 3039      6C617931 
 3039      5F526561 
ARM GAS  C:\Users\RECEPC~1\AppData\Local\Temp\cclIxQZ0.s 			page 83


 3039      64527844 
 3039      61746100 
 3040              	.LASF6:
 3041 00f9 6C6F6E67 		.ascii	"long long int\000"
 3041      206C6F6E 
 3041      6720696E 
 3041      7400
 3042              	.LASF0:
 3043 0107 7369676E 		.ascii	"signed char\000"
 3043      65642063 
 3043      68617200 
 3044              	.LASF64:
 3045 0113 74785065 		.ascii	"txPeriod\000"
 3045      72696F64 
 3045      00
 3046              	.LASF70:
 3047 011c 44697370 		.ascii	"Display1_rxBufferWrite\000"
 3047      6C617931 
 3047      5F727842 
 3047      75666665 
 3047      72577269 
 3048              	.LASF56:
 3049 0133 44697370 		.ascii	"Display1_PutArray\000"
 3049      6C617931 
 3049      5F507574 
 3049      41727261 
 3049      7900
 3050              	.LASF22:
 3051 0145 44697370 		.ascii	"Display1_Start\000"
 3051      6C617931 
 3051      5F537461 
 3051      727400
 3052              	.LASF50:
 3053 0154 44697370 		.ascii	"Display1_ReadControlRegister\000"
 3053      6C617931 
 3053      5F526561 
 3053      64436F6E 
 3053      74726F6C 
 3054              	.LASF4:
 3055 0171 6C6F6E67 		.ascii	"long int\000"
 3055      20696E74 
 3055      00
 3056              	.LASF9:
 3057 017a 75696E74 		.ascii	"uint8\000"
 3057      3800
 3058              	.LASF26:
 3059 0180 44697370 		.ascii	"Display1_SetRxInterruptMode\000"
 3059      6C617931 
 3059      5F536574 
 3059      5278496E 
 3059      74657272 
 3060              	.LASF13:
 3061 019c 646F7562 		.ascii	"double\000"
 3061      6C6500
 3062              	.LASF43:
 3063 01a3 61646472 		.ascii	"addressMode\000"
 3063      6573734D 
ARM GAS  C:\Users\RECEPC~1\AppData\Local\Temp\cclIxQZ0.s 			page 84


 3063      6F646500 
 3064              	.LASF11:
 3065 01af 75696E74 		.ascii	"uint32\000"
 3065      333200
 3066              	.LASF25:
 3067 01b6 44697370 		.ascii	"Display1_WriteControlRegister\000"
 3067      6C617931 
 3067      5F577269 
 3067      7465436F 
 3067      6E74726F 
 3068              	.LASF27:
 3069 01d4 636F6E74 		.ascii	"control\000"
 3069      726F6C00 
 3070              	.LASF58:
 3071 01dc 44697370 		.ascii	"Display1_PutCRLF\000"
 3071      6C617931 
 3071      5F507574 
 3071      43524C46 
 3071      00
 3072              	.LASF62:
 3073 01ed 7265744D 		.ascii	"retMode\000"
 3073      6F646500 
 3074              	.LASF8:
 3075 01f5 756E7369 		.ascii	"unsigned int\000"
 3075      676E6564 
 3075      20696E74 
 3075      00
 3076              	.LASF39:
 3077 0202 44697370 		.ascii	"Display1_GetRxBufferSize\000"
 3077      6C617931 
 3077      5F476574 
 3077      52784275 
 3077      66666572 
 3078              	.LASF38:
 3079 021b 6C6F6345 		.ascii	"locErrorStatus\000"
 3079      72726F72 
 3079      53746174 
 3079      757300
 3080              	.LASF5:
 3081 022a 6C6F6E67 		.ascii	"long unsigned int\000"
 3081      20756E73 
 3081      69676E65 
 3081      6420696E 
 3081      7400
 3082              	.LASF59:
 3083 023c 44697370 		.ascii	"Display1_GetTxBufferSize\000"
 3083      6C617931 
 3083      5F476574 
 3083      54784275 
 3083      66666572 
 3084              	.LASF81:
 3085 0255 4379456E 		.ascii	"CyEnterCriticalSection\000"
 3085      74657243 
 3085      72697469 
 3085      63616C53 
 3085      65637469 
 3086              	.LASF42:
ARM GAS  C:\Users\RECEPC~1\AppData\Local\Temp\cclIxQZ0.s 			page 85


 3087 026c 44697370 		.ascii	"Display1_SetRxAddressMode\000"
 3087      6C617931 
 3087      5F536574 
 3087      52784164 
 3087      64726573 
 3088              	.LASF40:
 3089 0286 73697A65 		.ascii	"size\000"
 3089      00
 3090              	.LASF3:
 3091 028b 73686F72 		.ascii	"short unsigned int\000"
 3091      7420756E 
 3091      7369676E 
 3091      65642069 
 3091      6E7400
 3092              	.LASF80:
 3093 029e 4379496E 		.ascii	"CyIntSetVector\000"
 3093      74536574 
 3093      56656374 
 3093      6F7200
 3094              	.LASF55:
 3095 02ad 62756649 		.ascii	"bufIndex\000"
 3095      6E646578 
 3095      00
 3096              	.LASF28:
 3097 02b6 696E7453 		.ascii	"intSrc\000"
 3097      726300
 3098              	.LASF79:
 3099 02bd 433A5C55 		.ascii	"C:\\Users\\Recepcion\\Documents\\GitHub\\NSY-DH\\Wo"
 3099      73657273 
 3099      5C526563 
 3099      65706369 
 3099      6F6E5C44 
 3100 02ea 726B7370 		.ascii	"rkspace01\\Design01.cydsn\000"
 3100      61636530 
 3100      315C4465 
 3100      7369676E 
 3100      30312E63 
 3101              	.LASF17:
 3102 0303 72656733 		.ascii	"reg32\000"
 3102      3200
 3103              	.LASF76:
 3104 0309 44697370 		.ascii	"Display1_IntClock_Stop\000"
 3104      6C617931 
 3104      5F496E74 
 3104      436C6F63 
 3104      6B5F5374 
 3105              	.LASF63:
 3106 0320 746D7053 		.ascii	"tmpStat\000"
 3106      74617400 
 3107              	.LASF61:
 3108 0328 44697370 		.ascii	"Display1_SendBreak\000"
 3108      6C617931 
 3108      5F53656E 
 3108      64427265 
 3108      616B00
 3109              	.LASF19:
 3110 033b 73697A65 		.ascii	"sizetype\000"
ARM GAS  C:\Users\RECEPC~1\AppData\Local\Temp\cclIxQZ0.s 			page 86


 3110      74797065 
 3110      00
 3111              	.LASF45:
 3112 0344 61646472 		.ascii	"address\000"
 3112      65737300 
 3113              	.LASF23:
 3114 034c 44697370 		.ascii	"Display1_Stop\000"
 3114      6C617931 
 3114      5F53746F 
 3114      7000
 3115              	.LASF60:
 3116 035a 44697370 		.ascii	"Display1_ClearTxBuffer\000"
 3116      6C617931 
 3116      5F436C65 
 3116      61725478 
 3116      42756666 
 3117              	.LASF31:
 3118 0371 6C6F6352 		.ascii	"locRxBufferWrite\000"
 3118      78427566 
 3118      66657257 
 3118      72697465 
 3118      00
 3119              	.LASF36:
 3120 0382 72785374 		.ascii	"rxStatus\000"
 3120      61747573 
 3120      00
 3121              	.LASF73:
 3122 038b 4379496E 		.ascii	"CyIntSetPriority\000"
 3122      74536574 
 3122      5072696F 
 3122      72697479 
 3122      00
 3123              	.LASF37:
 3124 039c 44697370 		.ascii	"Display1_GetByte\000"
 3124      6C617931 
 3124      5F476574 
 3124      42797465 
 3124      00
 3125              	.LASF12:
 3126 03ad 666C6F61 		.ascii	"float\000"
 3126      7400
 3127              	.LASF16:
 3128 03b3 72656738 		.ascii	"reg8\000"
 3128      00
 3129              	.LASF1:
 3130 03b8 756E7369 		.ascii	"unsigned char\000"
 3130      676E6564 
 3130      20636861 
 3130      7200
 3131              	.LASF2:
 3132 03c6 73686F72 		.ascii	"short int\000"
 3132      7420696E 
 3132      7400
 3133              	.LASF68:
 3134 03d0 44697370 		.ascii	"Display1_rxBuffer\000"
 3134      6C617931 
 3134      5F727842 
ARM GAS  C:\Users\RECEPC~1\AppData\Local\Temp\cclIxQZ0.s 			page 87


 3134      75666665 
 3134      7200
 3135              	.LASF57:
 3136 03e2 62797465 		.ascii	"byteCount\000"
 3136      436F756E 
 3136      7400
 3137              	.LASF41:
 3138 03ec 44697370 		.ascii	"Display1_ClearRxBuffer\000"
 3138      6C617931 
 3138      5F436C65 
 3138      61725278 
 3138      42756666 
 3139              	.LASF21:
 3140 0403 44697370 		.ascii	"Display1_Enable\000"
 3140      6C617931 
 3140      5F456E61 
 3140      626C6500 
 3141              	.LASF29:
 3142 0413 72784461 		.ascii	"rxData\000"
 3142      746100
 3143              	.LASF44:
 3144 041a 44697370 		.ascii	"Display1_SetRxAddress1\000"
 3144      6C617931 
 3144      5F536574 
 3144      52784164 
 3144      64726573 
 3145              	.LASF46:
 3146 0431 44697370 		.ascii	"Display1_SetRxAddress2\000"
 3146      6C617931 
 3146      5F536574 
 3146      52784164 
 3146      64726573 
 3147              	.LASF15:
 3148 0448 63686172 		.ascii	"char\000"
 3148      00
 3149              	.LASF69:
 3150 044d 44697370 		.ascii	"Display1_rxBufferRead\000"
 3150      6C617931 
 3150      5F727842 
 3150      75666665 
 3150      72526561 
 3151              	.LASF18:
 3152 0463 63796973 		.ascii	"cyisraddress\000"
 3152      72616464 
 3152      72657373 
 3152      00
 3153              	.LASF14:
 3154 0470 63686172 		.ascii	"char8\000"
 3154      3800
 3155              	.LASF47:
 3156 0476 44697370 		.ascii	"Display1_SetTxInterruptMode\000"
 3156      6C617931 
 3156      5F536574 
 3156      5478496E 
 3156      74657272 
 3157              	.LASF78:
 3158 0492 2E5C4765 		.ascii	".\\Generated_Source\\PSoC5\\Display1.c\000"
ARM GAS  C:\Users\RECEPC~1\AppData\Local\Temp\cclIxQZ0.s 			page 88


 3158      6E657261 
 3158      7465645F 
 3158      536F7572 
 3158      63655C50 
 3159              	.LASF71:
 3160 04b6 44697370 		.ascii	"Display1_rxBufferLoopDetect\000"
 3160      6C617931 
 3160      5F727842 
 3160      75666665 
 3160      724C6F6F 
 3161              	.LASF30:
 3162 04d2 6C6F6352 		.ascii	"locRxBufferRead\000"
 3162      78427566 
 3162      66657252 
 3162      65616400 
 3163              	.LASF24:
 3164 04e2 656E6162 		.ascii	"enableInterrupts\000"
 3164      6C65496E 
 3164      74657272 
 3164      75707473 
 3164      00
 3165              	.LASF72:
 3166 04f3 44697370 		.ascii	"Display1_rxBufferOverflow\000"
 3166      6C617931 
 3166      5F727842 
 3166      75666665 
 3166      724F7665 
 3167              	.LASF65:
 3168 050d 44697370 		.ascii	"Display1_SetTxAddressMode\000"
 3168      6C617931 
 3168      5F536574 
 3168      54784164 
 3168      64726573 
 3169              	.LASF34:
 3170 0527 73746174 		.ascii	"status\000"
 3170      757300
 3171              	.LASF77:
 3172 052e 474E5520 		.ascii	"GNU C 4.9.3 20150303 (release) [ARM/embedded-4_9-br"
 3172      4320342E 
 3172      392E3320 
 3172      32303135 
 3172      30333033 
 3173 0561 616E6368 		.ascii	"anch revision 221220] -mcpu=cortex-m3 -mthumb -g -O"
 3173      20726576 
 3173      6973696F 
 3173      6E203232 
 3173      31323230 
 3174 0594 67202D66 		.ascii	"g -ffunction-sections -ffat-lto-objects\000"
 3174      66756E63 
 3174      74696F6E 
 3174      2D736563 
 3174      74696F6E 
 3175              	.LASF48:
 3176 05bc 44697370 		.ascii	"Display1_WriteTxData\000"
 3176      6C617931 
 3176      5F577269 
 3176      74655478 
ARM GAS  C:\Users\RECEPC~1\AppData\Local\Temp\cclIxQZ0.s 			page 89


 3176      44617461 
 3177              	.LASF20:
 3178 05d1 44697370 		.ascii	"Display1_Init\000"
 3178      6C617931 
 3178      5F496E69 
 3178      7400
 3179              		.ident	"GCC: (GNU Tools for ARM Embedded Processors) 4.9.3 20150303 (release) [ARM/embedded-4_9-br
