ARM GAS  C:\Users\RECEPC~1\AppData\Local\Temp\ccJ4U0Wa.s 			page 1


   1              		.syntax unified
   2              		.cpu cortex-m3
   3              		.fpu softvfp
   4              		.eabi_attribute 20, 1
   5              		.eabi_attribute 21, 1
   6              		.eabi_attribute 23, 3
   7              		.eabi_attribute 24, 1
   8              		.eabi_attribute 25, 1
   9              		.eabi_attribute 26, 1
  10              		.eabi_attribute 30, 1
  11              		.eabi_attribute 34, 1
  12              		.eabi_attribute 18, 4
  13              		.thumb
  14              		.file	"I2C.c"
  15              		.text
  16              	.Ltext0:
  17              		.cfi_sections	.debug_frame
  18              		.section	.text.write_psoc1,"ax",%progbits
  19              		.align	2
  20              		.global	write_psoc1
  21              		.thumb
  22              		.thumb_func
  23              		.type	write_psoc1, %function
  24              	write_psoc1:
  25              	.LFB63:
  26              		.file 1 ".\\I2C.c"
   1:.\I2C.c       **** /*
   2:.\I2C.c       **** ***************************************************************************************************
   3:.\I2C.c       **** *                                           GRP550/700 CODE
   4:.\I2C.c       **** *
   5:.\I2C.c       **** *                             (c) Copyright 2013; Sistemas Insepet LTDA
   6:.\I2C.c       **** *
   7:.\I2C.c       **** *               All rights reserved.  Protected by international copyright laws.
   8:.\I2C.c       **** *               Knowledge of the source code may NOT be used to develop a similar product.
   9:.\I2C.c       **** *               Please help us continue to provide the Embedded community with the finest
  10:.\I2C.c       **** *               software available.  Your honesty is greatly appreciated.
  11:.\I2C.c       **** ***************************************************************************************************
  12:.\I2C.c       **** */
  13:.\I2C.c       **** 
  14:.\I2C.c       **** /*
  15:.\I2C.c       **** ***************************************************************************************************
  16:.\I2C.c       **** *
  17:.\I2C.c       **** *                                             GRP550/700 CODE
  18:.\I2C.c       **** *
  19:.\I2C.c       **** *                                             CYPRESS PSoC5LP
  20:.\I2C.c       **** *                                                with the
  21:.\I2C.c       **** *                                            CY8C5969AXI-LP035
  22:.\I2C.c       **** *
  23:.\I2C.c       **** * Filename      : I2C.c
  24:.\I2C.c       **** * Version       : V1.00
  25:.\I2C.c       **** * Programmer(s) : 
  26:.\I2C.c       ****                   
  27:.\I2C.c       **** ***************************************************************************************************
  28:.\I2C.c       **** */
  29:.\I2C.c       **** 
  30:.\I2C.c       **** 
  31:.\I2C.c       **** /*
ARM GAS  C:\Users\RECEPC~1\AppData\Local\Temp\ccJ4U0Wa.s 			page 2


  32:.\I2C.c       **** ***************************************************************************************************
  33:.\I2C.c       **** *                                             INCLUDE FILES
  34:.\I2C.c       **** ***************************************************************************************************
  35:.\I2C.c       **** */
  36:.\I2C.c       **** #include <device.h>
  37:.\I2C.c       **** #include <Variables.h>
  38:.\I2C.c       **** #include "LCD.h"
  39:.\I2C.c       **** 
  40:.\I2C.c       **** 
  41:.\I2C.c       **** 
  42:.\I2C.c       **** /*
  43:.\I2C.c       **** ***************************************************************************************************
  44:.\I2C.c       **** *                                   uint8 write_psoc1( uint8 puerto, uint8 valor )
  45:.\I2C.c       **** *
  46:.\I2C.c       **** * Description : 
  47:.\I2C.c       **** *               
  48:.\I2C.c       **** *
  49:.\I2C.c       **** * Argument(s) : none
  50:.\I2C.c       **** *
  51:.\I2C.c       **** * Return(s)   : none
  52:.\I2C.c       **** *
  53:.\I2C.c       **** * Caller(s)   : 
  54:.\I2C.c       **** *
  55:.\I2C.c       **** * Note(s)     : none.
  56:.\I2C.c       **** ***************************************************************************************************
  57:.\I2C.c       **** */
  58:.\I2C.c       **** 
  59:.\I2C.c       **** uint8 write_psoc1( uint8 puerto, uint8 valor ){
  27              		.loc 1 59 0
  28              		.cfi_startproc
  29              		@ args = 0, pretend = 0, frame = 8
  30              		@ frame_needed = 0, uses_anonymous_args = 0
  31              	.LVL0:
  32 0000 10B5     		push	{r4, lr}
  33              		.cfi_def_cfa_offset 8
  34              		.cfi_offset 4, -8
  35              		.cfi_offset 14, -4
  36 0002 82B0     		sub	sp, sp, #8
  37              		.cfi_def_cfa_offset 16
  60:.\I2C.c       **** 	uint8 status, dato[2],i;
  61:.\I2C.c       **** 	dato[0]=puerto;
  38              		.loc 1 61 0
  39 0004 8DF80400 		strb	r0, [sp, #4]
  62:.\I2C.c       **** 	dato[1]=valor;
  40              		.loc 1 62 0
  41 0008 8DF80510 		strb	r1, [sp, #5]
  63:.\I2C.c       **** 	I2C_Bus_MasterClearStatus();
  42              		.loc 1 63 0
  43 000c FFF7FEFF 		bl	I2C_Bus_MasterClearStatus
  44              	.LVL1:
  64:.\I2C.c       ****     status = I2C_Bus_MasterSendStart(7u, I2C_Bus_WRITE_XFER_MODE);
  45              		.loc 1 64 0
  46 0010 0720     		movs	r0, #7
  47 0012 0021     		movs	r1, #0
  48 0014 FFF7FEFF 		bl	I2C_Bus_MasterSendStart
  49              	.LVL2:
  65:.\I2C.c       ****     if(I2C_Bus_MSTR_NO_ERROR == status) 
ARM GAS  C:\Users\RECEPC~1\AppData\Local\Temp\ccJ4U0Wa.s 			page 3


  50              		.loc 1 65 0
  51 0018 58B1     		cbz	r0, .L5
  66:.\I2C.c       ****     {
  67:.\I2C.c       ****         for(i=0; i<2; i++)
  68:.\I2C.c       ****         {
  69:.\I2C.c       ****             status = I2C_Bus_MasterWriteByte(dato[i]);
  70:.\I2C.c       ****             if(status != I2C_Bus_MSTR_NO_ERROR)
  71:.\I2C.c       ****             {
  72:.\I2C.c       ****                 return 0;
  73:.\I2C.c       ****             }
  74:.\I2C.c       ****         }
  75:.\I2C.c       ****     }
  76:.\I2C.c       ****     else{
  77:.\I2C.c       **** 		return 0;
  52              		.loc 1 77 0
  53 001a 0020     		movs	r0, #0
  54              	.LVL3:
  55 001c 11E0     		b	.L3
  56              	.LVL4:
  57              	.L4:
  69:.\I2C.c       ****             if(status != I2C_Bus_MSTR_NO_ERROR)
  58              		.loc 1 69 0
  59 001e 02AB     		add	r3, sp, #8
  60 0020 2344     		add	r3, r3, r4
  61 0022 13F8040C 		ldrb	r0, [r3, #-4]	@ zero_extendqisi2
  62              	.LVL5:
  63 0026 FFF7FEFF 		bl	I2C_Bus_MasterWriteByte
  64              	.LVL6:
  70:.\I2C.c       ****             {
  65              		.loc 1 70 0
  66 002a 48B9     		cbnz	r0, .L6
  67:.\I2C.c       ****         {
  67              		.loc 1 67 0 discriminator 2
  68 002c 0134     		adds	r4, r4, #1
  69              	.LVL7:
  70 002e E4B2     		uxtb	r4, r4
  71              	.LVL8:
  72 0030 00E0     		b	.L2
  73              	.LVL9:
  74              	.L5:
  75 0032 0024     		movs	r4, #0
  76              	.L2:
  77              	.LVL10:
  67:.\I2C.c       ****         {
  78              		.loc 1 67 0 is_stmt 0 discriminator 1
  79 0034 012C     		cmp	r4, #1
  80 0036 F2D9     		bls	.L4
  78:.\I2C.c       ****     }
  79:.\I2C.c       ****     I2C_Bus_MasterSendStop();	
  81              		.loc 1 79 0 is_stmt 1
  82 0038 FFF7FEFF 		bl	I2C_Bus_MasterSendStop
  83              	.LVL11:
  80:.\I2C.c       **** 	return 1;
  84              		.loc 1 80 0
  85 003c 0120     		movs	r0, #1
  86 003e 00E0     		b	.L3
  87              	.LVL12:
ARM GAS  C:\Users\RECEPC~1\AppData\Local\Temp\ccJ4U0Wa.s 			page 4


  88              	.L6:
  72:.\I2C.c       ****             }
  89              		.loc 1 72 0
  90 0040 0020     		movs	r0, #0
  91              	.LVL13:
  92              	.L3:
  81:.\I2C.c       **** }
  93              		.loc 1 81 0
  94 0042 02B0     		add	sp, sp, #8
  95              		.cfi_def_cfa_offset 8
  96              		@ sp needed
  97 0044 10BD     		pop	{r4, pc}
  98              		.cfi_endproc
  99              	.LFE63:
 100              		.size	write_psoc1, .-write_psoc1
 101 0046 00BF     		.section	.text.leer_fecha,"ax",%progbits
 102              		.align	2
 103              		.global	leer_fecha
 104              		.thumb
 105              		.thumb_func
 106              		.type	leer_fecha, %function
 107              	leer_fecha:
 108              	.LFB64:
  82:.\I2C.c       **** /*
  83:.\I2C.c       **** ***************************************************************************************************
  84:.\I2C.c       **** *                                         uint8 leer_fecha( void )
  85:.\I2C.c       **** *
  86:.\I2C.c       **** * Description : 
  87:.\I2C.c       **** *               
  88:.\I2C.c       **** *
  89:.\I2C.c       **** * Argument(s) : none
  90:.\I2C.c       **** *
  91:.\I2C.c       **** * Return(s)   : none
  92:.\I2C.c       **** *
  93:.\I2C.c       **** * Caller(s)   : 
  94:.\I2C.c       **** *
  95:.\I2C.c       **** * Note(s)     : none.
  96:.\I2C.c       **** ***************************************************************************************************
  97:.\I2C.c       **** */
  98:.\I2C.c       **** uint8 leer_fecha(){
 109              		.loc 1 98 0
 110              		.cfi_startproc
 111              		@ args = 0, pretend = 0, frame = 0
 112              		@ frame_needed = 0, uses_anonymous_args = 0
 113 0000 38B5     		push	{r3, r4, r5, lr}
 114              		.cfi_def_cfa_offset 16
 115              		.cfi_offset 3, -16
 116              		.cfi_offset 4, -12
 117              		.cfi_offset 5, -8
 118              		.cfi_offset 14, -4
 119              	.LVL14:
  99:.\I2C.c       **** 	uint8 status,i;
 100:.\I2C.c       **** 	for(i=4;i<=6;i++){
 120              		.loc 1 100 0
 121 0002 0424     		movs	r4, #4
 122 0004 1DE0     		b	.L9
 123              	.LVL15:
ARM GAS  C:\Users\RECEPC~1\AppData\Local\Temp\ccJ4U0Wa.s 			page 5


 124              	.L11:
 101:.\I2C.c       ****         I2C_Bus_MasterClearStatus();
 125              		.loc 1 101 0
 126 0006 FFF7FEFF 		bl	I2C_Bus_MasterClearStatus
 127              	.LVL16:
 102:.\I2C.c       ****         status = I2C_Bus_MasterSendStart(0x68, I2C_Bus_WRITE_XFER_MODE);
 128              		.loc 1 102 0
 129 000a 6820     		movs	r0, #104
 130 000c 0021     		movs	r1, #0
 131 000e FFF7FEFF 		bl	I2C_Bus_MasterSendStart
 132              	.LVL17:
 103:.\I2C.c       ****         if(I2C_Bus_MSTR_NO_ERROR == status)								 		/* Check if transfer completed without errors
 133              		.loc 1 103 0
 134 0012 D0B9     		cbnz	r0, .L12
 104:.\I2C.c       ****     	{
 105:.\I2C.c       ****             status = I2C_Bus_MasterWriteByte(i);
 135              		.loc 1 105 0
 136 0014 2046     		mov	r0, r4
 137              	.LVL18:
 138 0016 FFF7FEFF 		bl	I2C_Bus_MasterWriteByte
 139              	.LVL19:
 106:.\I2C.c       ****             if(status != I2C_Bus_MSTR_NO_ERROR)
 140              		.loc 1 106 0
 141 001a C0B9     		cbnz	r0, .L13
 107:.\I2C.c       ****             {
 108:.\I2C.c       ****                 return 0;
 109:.\I2C.c       ****             }
 110:.\I2C.c       **** 			else{
 111:.\I2C.c       **** 		        I2C_Bus_MasterSendStop(); 										/* Send Stop */
 142              		.loc 1 111 0
 143 001c FFF7FEFF 		bl	I2C_Bus_MasterSendStop
 144              	.LVL20:
 112:.\I2C.c       **** 		        CyDelay(10);
 145              		.loc 1 112 0
 146 0020 0A20     		movs	r0, #10
 147 0022 FFF7FEFF 		bl	CyDelay
 148              	.LVL21:
 113:.\I2C.c       **** 		        status = I2C_Bus_MasterSendStart(0x68, I2C_Bus_READ_XFER_MODE);
 149              		.loc 1 113 0
 150 0026 6820     		movs	r0, #104
 151 0028 0121     		movs	r1, #1
 152 002a FFF7FEFF 		bl	I2C_Bus_MasterSendStart
 153              	.LVL22:
 114:.\I2C.c       **** 		        if(I2C_Bus_MSTR_NO_ERROR == status){
 154              		.loc 1 114 0
 155 002e 80B9     		cbnz	r0, .L14
 115:.\I2C.c       **** 		            dateDownHandle[i-4] = I2C_Bus_MasterReadByte(I2C_Bus_NAK_DATA);
 156              		.loc 1 115 0
 157 0030 251F     		subs	r5, r4, #4
 158 0032 FFF7FEFF 		bl	I2C_Bus_MasterReadByte
 159              	.LVL23:
 160 0036 084B     		ldr	r3, .L16
 161 0038 5855     		strb	r0, [r3, r5]
 116:.\I2C.c       **** 		        }
 117:.\I2C.c       **** 				else{
 118:.\I2C.c       **** 					return 0;
 119:.\I2C.c       **** 				}
ARM GAS  C:\Users\RECEPC~1\AppData\Local\Temp\ccJ4U0Wa.s 			page 6


 120:.\I2C.c       **** 		        I2C_Bus_MasterSendStop();	
 162              		.loc 1 120 0
 163 003a FFF7FEFF 		bl	I2C_Bus_MasterSendStop
 164              	.LVL24:
 100:.\I2C.c       ****         I2C_Bus_MasterClearStatus();
 165              		.loc 1 100 0
 166 003e 0134     		adds	r4, r4, #1
 167              	.LVL25:
 168 0040 E4B2     		uxtb	r4, r4
 169              	.LVL26:
 170              	.L9:
 100:.\I2C.c       ****         I2C_Bus_MasterClearStatus();
 171              		.loc 1 100 0 is_stmt 0 discriminator 1
 172 0042 062C     		cmp	r4, #6
 173 0044 DFD9     		bls	.L11
 121:.\I2C.c       **** 			}
 122:.\I2C.c       ****         }
 123:.\I2C.c       **** 		else{
 124:.\I2C.c       **** 			return 0;
 125:.\I2C.c       **** 		}		
 126:.\I2C.c       **** 	}
 127:.\I2C.c       **** 	return 1;
 174              		.loc 1 127 0 is_stmt 1
 175 0046 0120     		movs	r0, #1
 176 0048 38BD     		pop	{r3, r4, r5, pc}
 177              	.LVL27:
 178              	.L12:
 124:.\I2C.c       **** 		}		
 179              		.loc 1 124 0
 180 004a 0020     		movs	r0, #0
 181              	.LVL28:
 182 004c 38BD     		pop	{r3, r4, r5, pc}
 183              	.LVL29:
 184              	.L13:
 108:.\I2C.c       ****             }
 185              		.loc 1 108 0
 186 004e 0020     		movs	r0, #0
 187              	.LVL30:
 188 0050 38BD     		pop	{r3, r4, r5, pc}
 189              	.LVL31:
 190              	.L14:
 118:.\I2C.c       **** 				}
 191              		.loc 1 118 0
 192 0052 0020     		movs	r0, #0
 193              	.LVL32:
 128:.\I2C.c       **** }
 194              		.loc 1 128 0
 195 0054 38BD     		pop	{r3, r4, r5, pc}
 196              	.LVL33:
 197              	.L17:
 198 0056 00BF     		.align	2
 199              	.L16:
 200 0058 00000000 		.word	dateDownHandle
 201              		.cfi_endproc
 202              	.LFE64:
 203              		.size	leer_fecha, .-leer_fecha
 204              		.section	.text.write_fecha,"ax",%progbits
ARM GAS  C:\Users\RECEPC~1\AppData\Local\Temp\ccJ4U0Wa.s 			page 7


 205              		.align	2
 206              		.global	write_fecha
 207              		.thumb
 208              		.thumb_func
 209              		.type	write_fecha, %function
 210              	write_fecha:
 211              	.LFB65:
 129:.\I2C.c       **** /*
 130:.\I2C.c       **** ***************************************************************************************************
 131:.\I2C.c       **** *                                         uint8 write_fecha( void )
 132:.\I2C.c       **** *
 133:.\I2C.c       **** * Description : 
 134:.\I2C.c       **** *               
 135:.\I2C.c       **** *
 136:.\I2C.c       **** * Argument(s) : none
 137:.\I2C.c       **** *
 138:.\I2C.c       **** * Return(s)   : none
 139:.\I2C.c       **** *
 140:.\I2C.c       **** * Caller(s)   : 
 141:.\I2C.c       **** *
 142:.\I2C.c       **** * Note(s)     : none.
 143:.\I2C.c       **** ***************************************************************************************************
 144:.\I2C.c       **** */
 145:.\I2C.c       **** 
 146:.\I2C.c       **** uint8 write_fecha( void ){
 212              		.loc 1 146 0
 213              		.cfi_startproc
 214              		@ args = 0, pretend = 0, frame = 8
 215              		@ frame_needed = 0, uses_anonymous_args = 0
 216 0000 10B5     		push	{r4, lr}
 217              		.cfi_def_cfa_offset 8
 218              		.cfi_offset 4, -8
 219              		.cfi_offset 14, -4
 220 0002 82B0     		sub	sp, sp, #8
 221              		.cfi_def_cfa_offset 16
 147:.\I2C.c       **** 	uint8 status, dato[4],i;
 148:.\I2C.c       **** 	dato[0]=4;
 222              		.loc 1 148 0
 223 0004 0423     		movs	r3, #4
 224 0006 8DF80430 		strb	r3, [sp, #4]
 149:.\I2C.c       **** 	dato[1]=date[0];
 225              		.loc 1 149 0
 226 000a 134B     		ldr	r3, .L25
 227 000c 1A78     		ldrb	r2, [r3]	@ zero_extendqisi2
 228 000e 8DF80520 		strb	r2, [sp, #5]
 150:.\I2C.c       **** 	dato[2]=date[1];
 229              		.loc 1 150 0
 230 0012 5A78     		ldrb	r2, [r3, #1]	@ zero_extendqisi2
 231 0014 8DF80620 		strb	r2, [sp, #6]
 151:.\I2C.c       **** 	dato[3]=date[2];
 232              		.loc 1 151 0
 233 0018 9B78     		ldrb	r3, [r3, #2]	@ zero_extendqisi2
 234 001a 8DF80730 		strb	r3, [sp, #7]
 152:.\I2C.c       **** 	I2C_Bus_MasterClearStatus();
 235              		.loc 1 152 0
 236 001e FFF7FEFF 		bl	I2C_Bus_MasterClearStatus
 237              	.LVL34:
ARM GAS  C:\Users\RECEPC~1\AppData\Local\Temp\ccJ4U0Wa.s 			page 8


 153:.\I2C.c       ****     status = I2C_Bus_MasterSendStart(0x68, I2C_Bus_WRITE_XFER_MODE);
 238              		.loc 1 153 0
 239 0022 6820     		movs	r0, #104
 240 0024 0021     		movs	r1, #0
 241 0026 FFF7FEFF 		bl	I2C_Bus_MasterSendStart
 242              	.LVL35:
 154:.\I2C.c       ****     if(I2C_Bus_MSTR_NO_ERROR == status) 
 243              		.loc 1 154 0
 244 002a 58B1     		cbz	r0, .L22
 155:.\I2C.c       ****     {
 156:.\I2C.c       ****         for(i=0; i<4; i++)
 157:.\I2C.c       ****         {
 158:.\I2C.c       ****             status = I2C_Bus_MasterWriteByte(dato[i]);
 159:.\I2C.c       ****             if(status != I2C_Bus_MSTR_NO_ERROR)
 160:.\I2C.c       ****             {
 161:.\I2C.c       ****                 return 0;
 162:.\I2C.c       ****             }
 163:.\I2C.c       ****         }
 164:.\I2C.c       ****     }
 165:.\I2C.c       ****     else{
 166:.\I2C.c       **** 		return 0;
 245              		.loc 1 166 0
 246 002c 0020     		movs	r0, #0
 247              	.LVL36:
 248 002e 11E0     		b	.L20
 249              	.LVL37:
 250              	.L21:
 158:.\I2C.c       ****             if(status != I2C_Bus_MSTR_NO_ERROR)
 251              		.loc 1 158 0
 252 0030 02AB     		add	r3, sp, #8
 253 0032 2344     		add	r3, r3, r4
 254 0034 13F8040C 		ldrb	r0, [r3, #-4]	@ zero_extendqisi2
 255              	.LVL38:
 256 0038 FFF7FEFF 		bl	I2C_Bus_MasterWriteByte
 257              	.LVL39:
 159:.\I2C.c       ****             {
 258              		.loc 1 159 0
 259 003c 48B9     		cbnz	r0, .L23
 156:.\I2C.c       ****         {
 260              		.loc 1 156 0 discriminator 2
 261 003e 0134     		adds	r4, r4, #1
 262              	.LVL40:
 263 0040 E4B2     		uxtb	r4, r4
 264              	.LVL41:
 265 0042 00E0     		b	.L19
 266              	.LVL42:
 267              	.L22:
 268 0044 0024     		movs	r4, #0
 269              	.L19:
 270              	.LVL43:
 156:.\I2C.c       ****         {
 271              		.loc 1 156 0 is_stmt 0 discriminator 1
 272 0046 032C     		cmp	r4, #3
 273 0048 F2D9     		bls	.L21
 167:.\I2C.c       ****     }
 168:.\I2C.c       ****     I2C_Bus_MasterSendStop();	
 274              		.loc 1 168 0 is_stmt 1
ARM GAS  C:\Users\RECEPC~1\AppData\Local\Temp\ccJ4U0Wa.s 			page 9


 275 004a FFF7FEFF 		bl	I2C_Bus_MasterSendStop
 276              	.LVL44:
 169:.\I2C.c       **** 	return 1;
 277              		.loc 1 169 0
 278 004e 0120     		movs	r0, #1
 279 0050 00E0     		b	.L20
 280              	.LVL45:
 281              	.L23:
 161:.\I2C.c       ****             }
 282              		.loc 1 161 0
 283 0052 0020     		movs	r0, #0
 284              	.LVL46:
 285              	.L20:
 170:.\I2C.c       **** }
 286              		.loc 1 170 0
 287 0054 02B0     		add	sp, sp, #8
 288              		.cfi_def_cfa_offset 8
 289              		@ sp needed
 290 0056 10BD     		pop	{r4, pc}
 291              	.L26:
 292              		.align	2
 293              	.L25:
 294 0058 00000000 		.word	date
 295              		.cfi_endproc
 296              	.LFE65:
 297              		.size	write_fecha, .-write_fecha
 298              		.section	.text.leer_hora,"ax",%progbits
 299              		.align	2
 300              		.global	leer_hora
 301              		.thumb
 302              		.thumb_func
 303              		.type	leer_hora, %function
 304              	leer_hora:
 305              	.LFB66:
 171:.\I2C.c       **** /*
 172:.\I2C.c       **** ***************************************************************************************************
 173:.\I2C.c       **** *                                         uint8 leer_hora( void )
 174:.\I2C.c       **** *
 175:.\I2C.c       **** * Description : 
 176:.\I2C.c       **** *               
 177:.\I2C.c       **** *
 178:.\I2C.c       **** * Argument(s) : none
 179:.\I2C.c       **** *
 180:.\I2C.c       **** * Return(s)   : none
 181:.\I2C.c       **** *
 182:.\I2C.c       **** * Caller(s)   : 
 183:.\I2C.c       **** *
 184:.\I2C.c       **** * Note(s)     : none.
 185:.\I2C.c       **** ***************************************************************************************************
 186:.\I2C.c       **** */
 187:.\I2C.c       **** uint8 leer_hora(){
 306              		.loc 1 187 0
 307              		.cfi_startproc
 308              		@ args = 0, pretend = 0, frame = 0
 309              		@ frame_needed = 0, uses_anonymous_args = 0
 310 0000 38B5     		push	{r3, r4, r5, lr}
 311              		.cfi_def_cfa_offset 16
ARM GAS  C:\Users\RECEPC~1\AppData\Local\Temp\ccJ4U0Wa.s 			page 10


 312              		.cfi_offset 3, -16
 313              		.cfi_offset 4, -12
 314              		.cfi_offset 5, -8
 315              		.cfi_offset 14, -4
 316              	.LVL47:
 188:.\I2C.c       **** 	uint8 status,i;
 189:.\I2C.c       **** 	for(i=1;i<=2;i++){
 317              		.loc 1 189 0
 318 0002 0124     		movs	r4, #1
 319 0004 1DE0     		b	.L28
 320              	.LVL48:
 321              	.L30:
 190:.\I2C.c       ****         I2C_Bus_MasterClearStatus();
 322              		.loc 1 190 0
 323 0006 FFF7FEFF 		bl	I2C_Bus_MasterClearStatus
 324              	.LVL49:
 191:.\I2C.c       ****         status = I2C_Bus_MasterSendStart(0x68, I2C_Bus_WRITE_XFER_MODE);
 325              		.loc 1 191 0
 326 000a 6820     		movs	r0, #104
 327 000c 0021     		movs	r1, #0
 328 000e FFF7FEFF 		bl	I2C_Bus_MasterSendStart
 329              	.LVL50:
 192:.\I2C.c       ****         if(I2C_Bus_MSTR_NO_ERROR == status)								 		/* Check if transfer completed without errors
 330              		.loc 1 192 0
 331 0012 D0B9     		cbnz	r0, .L31
 193:.\I2C.c       ****     	{
 194:.\I2C.c       ****             status = I2C_Bus_MasterWriteByte(i);
 332              		.loc 1 194 0
 333 0014 2046     		mov	r0, r4
 334              	.LVL51:
 335 0016 FFF7FEFF 		bl	I2C_Bus_MasterWriteByte
 336              	.LVL52:
 195:.\I2C.c       ****             if(status != I2C_Bus_MSTR_NO_ERROR)
 337              		.loc 1 195 0
 338 001a C0B9     		cbnz	r0, .L32
 196:.\I2C.c       ****             {
 197:.\I2C.c       ****                 return 0;
 198:.\I2C.c       ****             }
 199:.\I2C.c       **** 			else{
 200:.\I2C.c       **** 		        I2C_Bus_MasterSendStop(); 										/* Send Stop */
 339              		.loc 1 200 0
 340 001c FFF7FEFF 		bl	I2C_Bus_MasterSendStop
 341              	.LVL53:
 201:.\I2C.c       **** 		        CyDelay(10);
 342              		.loc 1 201 0
 343 0020 0A20     		movs	r0, #10
 344 0022 FFF7FEFF 		bl	CyDelay
 345              	.LVL54:
 202:.\I2C.c       **** 		        status = I2C_Bus_MasterSendStart(0x68, I2C_Bus_READ_XFER_MODE);
 346              		.loc 1 202 0
 347 0026 6820     		movs	r0, #104
 348 0028 0121     		movs	r1, #1
 349 002a FFF7FEFF 		bl	I2C_Bus_MasterSendStart
 350              	.LVL55:
 203:.\I2C.c       **** 		        if(I2C_Bus_MSTR_NO_ERROR == status){
 351              		.loc 1 203 0
 352 002e 80B9     		cbnz	r0, .L33
ARM GAS  C:\Users\RECEPC~1\AppData\Local\Temp\ccJ4U0Wa.s 			page 11


 204:.\I2C.c       **** 		            timeDownHandle[i-1] = I2C_Bus_MasterReadByte(I2C_Bus_NAK_DATA);
 353              		.loc 1 204 0
 354 0030 651E     		subs	r5, r4, #1
 355 0032 FFF7FEFF 		bl	I2C_Bus_MasterReadByte
 356              	.LVL56:
 357 0036 084B     		ldr	r3, .L35
 358 0038 5855     		strb	r0, [r3, r5]
 205:.\I2C.c       **** 		        }
 206:.\I2C.c       **** 				else{
 207:.\I2C.c       **** 					return 0;
 208:.\I2C.c       **** 				}
 209:.\I2C.c       **** 		        I2C_Bus_MasterSendStop();	
 359              		.loc 1 209 0
 360 003a FFF7FEFF 		bl	I2C_Bus_MasterSendStop
 361              	.LVL57:
 189:.\I2C.c       ****         I2C_Bus_MasterClearStatus();
 362              		.loc 1 189 0
 363 003e 0134     		adds	r4, r4, #1
 364              	.LVL58:
 365 0040 E4B2     		uxtb	r4, r4
 366              	.LVL59:
 367              	.L28:
 189:.\I2C.c       ****         I2C_Bus_MasterClearStatus();
 368              		.loc 1 189 0 is_stmt 0 discriminator 1
 369 0042 022C     		cmp	r4, #2
 370 0044 DFD9     		bls	.L30
 210:.\I2C.c       **** 			}
 211:.\I2C.c       ****         }
 212:.\I2C.c       **** 		else{
 213:.\I2C.c       **** 			return 0;
 214:.\I2C.c       **** 		}		
 215:.\I2C.c       **** 	}
 216:.\I2C.c       **** 	return 1;
 371              		.loc 1 216 0 is_stmt 1
 372 0046 0120     		movs	r0, #1
 373 0048 38BD     		pop	{r3, r4, r5, pc}
 374              	.LVL60:
 375              	.L31:
 213:.\I2C.c       **** 		}		
 376              		.loc 1 213 0
 377 004a 0020     		movs	r0, #0
 378              	.LVL61:
 379 004c 38BD     		pop	{r3, r4, r5, pc}
 380              	.LVL62:
 381              	.L32:
 197:.\I2C.c       ****             }
 382              		.loc 1 197 0
 383 004e 0020     		movs	r0, #0
 384              	.LVL63:
 385 0050 38BD     		pop	{r3, r4, r5, pc}
 386              	.LVL64:
 387              	.L33:
 207:.\I2C.c       **** 				}
 388              		.loc 1 207 0
 389 0052 0020     		movs	r0, #0
 390              	.LVL65:
 217:.\I2C.c       **** }
ARM GAS  C:\Users\RECEPC~1\AppData\Local\Temp\ccJ4U0Wa.s 			page 12


 391              		.loc 1 217 0
 392 0054 38BD     		pop	{r3, r4, r5, pc}
 393              	.LVL66:
 394              	.L36:
 395 0056 00BF     		.align	2
 396              	.L35:
 397 0058 00000000 		.word	timeDownHandle
 398              		.cfi_endproc
 399              	.LFE66:
 400              		.size	leer_hora, .-leer_hora
 401              		.section	.text.write_hora,"ax",%progbits
 402              		.align	2
 403              		.global	write_hora
 404              		.thumb
 405              		.thumb_func
 406              		.type	write_hora, %function
 407              	write_hora:
 408              	.LFB67:
 218:.\I2C.c       **** /*
 219:.\I2C.c       **** ***************************************************************************************************
 220:.\I2C.c       **** *                                         uint8 write_hora( void )
 221:.\I2C.c       **** *
 222:.\I2C.c       **** * Description : 
 223:.\I2C.c       **** *               
 224:.\I2C.c       **** *
 225:.\I2C.c       **** * Argument(s) : none
 226:.\I2C.c       **** *
 227:.\I2C.c       **** * Return(s)   : none
 228:.\I2C.c       **** *
 229:.\I2C.c       **** * Caller(s)   : 
 230:.\I2C.c       **** *
 231:.\I2C.c       **** * Note(s)     : none.
 232:.\I2C.c       **** ***************************************************************************************************
 233:.\I2C.c       **** */
 234:.\I2C.c       **** 
 235:.\I2C.c       **** uint8 write_hora( void ){
 409              		.loc 1 235 0
 410              		.cfi_startproc
 411              		@ args = 0, pretend = 0, frame = 8
 412              		@ frame_needed = 0, uses_anonymous_args = 0
 413 0000 10B5     		push	{r4, lr}
 414              		.cfi_def_cfa_offset 8
 415              		.cfi_offset 4, -8
 416              		.cfi_offset 14, -4
 417 0002 82B0     		sub	sp, sp, #8
 418              		.cfi_def_cfa_offset 16
 236:.\I2C.c       **** 	uint8 status, dato[3],i;
 237:.\I2C.c       **** 	dato[0]=1;
 419              		.loc 1 237 0
 420 0004 0123     		movs	r3, #1
 421 0006 8DF80430 		strb	r3, [sp, #4]
 238:.\I2C.c       **** 	dato[1]=time[0];
 422              		.loc 1 238 0
 423 000a 124B     		ldr	r3, .L44
 424 000c 1A78     		ldrb	r2, [r3]	@ zero_extendqisi2
 425 000e 8DF80520 		strb	r2, [sp, #5]
 239:.\I2C.c       **** 	dato[2]=time[1];
ARM GAS  C:\Users\RECEPC~1\AppData\Local\Temp\ccJ4U0Wa.s 			page 13


 426              		.loc 1 239 0
 427 0012 5B78     		ldrb	r3, [r3, #1]	@ zero_extendqisi2
 428 0014 8DF80630 		strb	r3, [sp, #6]
 240:.\I2C.c       **** 	I2C_Bus_MasterClearStatus();
 429              		.loc 1 240 0
 430 0018 FFF7FEFF 		bl	I2C_Bus_MasterClearStatus
 431              	.LVL67:
 241:.\I2C.c       ****     status = I2C_Bus_MasterSendStart(0x68, I2C_Bus_WRITE_XFER_MODE);
 432              		.loc 1 241 0
 433 001c 6820     		movs	r0, #104
 434 001e 0021     		movs	r1, #0
 435 0020 FFF7FEFF 		bl	I2C_Bus_MasterSendStart
 436              	.LVL68:
 242:.\I2C.c       ****     if(I2C_Bus_MSTR_NO_ERROR == status) 
 437              		.loc 1 242 0
 438 0024 58B1     		cbz	r0, .L41
 243:.\I2C.c       ****     {
 244:.\I2C.c       ****         for(i=0; i<3; i++)
 245:.\I2C.c       ****         {
 246:.\I2C.c       ****             status = I2C_Bus_MasterWriteByte(dato[i]);
 247:.\I2C.c       ****             if(status != I2C_Bus_MSTR_NO_ERROR)
 248:.\I2C.c       ****             {
 249:.\I2C.c       ****                 return 0;
 250:.\I2C.c       ****             }
 251:.\I2C.c       ****         }
 252:.\I2C.c       ****     }
 253:.\I2C.c       ****     else{
 254:.\I2C.c       **** 		return 0;
 439              		.loc 1 254 0
 440 0026 0020     		movs	r0, #0
 441              	.LVL69:
 442 0028 11E0     		b	.L39
 443              	.LVL70:
 444              	.L40:
 246:.\I2C.c       ****             if(status != I2C_Bus_MSTR_NO_ERROR)
 445              		.loc 1 246 0
 446 002a 02AB     		add	r3, sp, #8
 447 002c 2344     		add	r3, r3, r4
 448 002e 13F8040C 		ldrb	r0, [r3, #-4]	@ zero_extendqisi2
 449              	.LVL71:
 450 0032 FFF7FEFF 		bl	I2C_Bus_MasterWriteByte
 451              	.LVL72:
 247:.\I2C.c       ****             {
 452              		.loc 1 247 0
 453 0036 48B9     		cbnz	r0, .L42
 244:.\I2C.c       ****         {
 454              		.loc 1 244 0 discriminator 2
 455 0038 0134     		adds	r4, r4, #1
 456              	.LVL73:
 457 003a E4B2     		uxtb	r4, r4
 458              	.LVL74:
 459 003c 00E0     		b	.L38
 460              	.LVL75:
 461              	.L41:
 462 003e 0024     		movs	r4, #0
 463              	.L38:
 464              	.LVL76:
ARM GAS  C:\Users\RECEPC~1\AppData\Local\Temp\ccJ4U0Wa.s 			page 14


 244:.\I2C.c       ****         {
 465              		.loc 1 244 0 is_stmt 0 discriminator 1
 466 0040 022C     		cmp	r4, #2
 467 0042 F2D9     		bls	.L40
 255:.\I2C.c       ****     }
 256:.\I2C.c       ****     I2C_Bus_MasterSendStop();	
 468              		.loc 1 256 0 is_stmt 1
 469 0044 FFF7FEFF 		bl	I2C_Bus_MasterSendStop
 470              	.LVL77:
 257:.\I2C.c       **** 	return 1;
 471              		.loc 1 257 0
 472 0048 0120     		movs	r0, #1
 473 004a 00E0     		b	.L39
 474              	.LVL78:
 475              	.L42:
 249:.\I2C.c       ****             }
 476              		.loc 1 249 0
 477 004c 0020     		movs	r0, #0
 478              	.LVL79:
 479              	.L39:
 258:.\I2C.c       **** }
 480              		.loc 1 258 0
 481 004e 02B0     		add	sp, sp, #8
 482              		.cfi_def_cfa_offset 8
 483              		@ sp needed
 484 0050 10BD     		pop	{r4, pc}
 485              	.L45:
 486 0052 00BF     		.align	2
 487              	.L44:
 488 0054 00000000 		.word	time
 489              		.cfi_endproc
 490              	.LFE67:
 491              		.size	write_hora, .-write_hora
 492              		.comm	side,1048,4
 493              		.comm	bufferDisplay4,332,4
 494              		.comm	bufferDisplay3,332,4
 495              		.comm	bufferDisplay2,332,4
 496              		.comm	bufferDisplay1,332,4
 497              		.comm	RFstateReport,1,1
 498              		.comm	GradesHose,5,4
 499              		.comm	CopiasCredito,1,1
 500              		.comm	Encabezado4,30,4
 501              		.comm	Encabezado3,30,4
 502              		.comm	Encabezado2,30,4
 503              		.comm	Encabezado1,30,4
 504              		.comm	intIDStation,2,2
 505              		.comm	buffer_txDisplay,512,4
 506              		.comm	buffer_tx,512,4
 507              		.comm	buffer_rf,512,4
 508              		.comm	printPortB,1,1
 509              		.comm	printPortA,1,1
 510              		.comm	pumpGap,3,4
 511              		.comm	idStation,5,4
 512              		.comm	controlChar,1,1
 513              		.comm	configAccess,5,4
 514              		.comm	count_protector2,1,1
 515              		.comm	count_protector,1,1
ARM GAS  C:\Users\RECEPC~1\AppData\Local\Temp\ccJ4U0Wa.s 			page 15


 516              		.comm	timeDownHandle,2,4
 517              		.comm	dateDownHandle,3,4
 518              		.comm	VolUnit,6,4
 519              		.comm	PrinterType,1,1
 520              		.comm	hiddenKeys,1,1
 521              		.comm	digits,1,1
 522              		.comm	lockTurn,1,1
 523              		.comm	NumPositions,1,1
 524              		.comm	statePump,4,4
 525              		.comm	DDMode,1,1
 526              		.comm	PPUDec,1,1
 527              		.comm	VolDec,1,1
 528              		.comm	MoneyDec,1,1
 529              		.comm	ConversionFactor,1,1
 530              		.comm	UnitType,1,1
 531              		.comm	CGrade,1,1
 532              		.comm	tempPreset,8,4
 533              		.comm	temporal,30,4
 534              		.comm	counterRF,1,1
 535              		.comm	ActiveRF,1,1
 536              		.comm	IDCast,2,4
 537              		.comm	PlateRequest,1,1
 538              		.comm	PrevStatePump,4,4
 539              		.comm	stateBeagleSoft,1,1
 540              		.comm	flagResetMux,1,1
 541              		.comm	passwordSeller,8,4
 542              		.comm	typeIdSeller,1,1
 543              		.comm	idSeller,25,4
 544              		.comm	residue,14,4
 545              		.comm	screen,2,4
 546              		.comm	date,3,4
 547              		.comm	time,3,4
 548              		.comm	symbols,2,4
 549              		.comm	decimalVolume,1,1
 550              		.comm	decimalMoney,1,1
 551              		.comm	ppux10,1,1
 552              		.comm	delayPicture2,4,4
 553              		.comm	delayPicture1,4,4
 554              		.comm	productNumber,1,1
 555              		.comm	flagPoint2,1,1
 556              		.comm	flagPoint1,1,1
 557              		.comm	numberKeys2,1,1
 558              		.comm	numberKeys1,1,1
 559              		.comm	flowDisplay4,4,4
 560              		.comm	flowDisplay3,4,4
 561              		.comm	flowDisplay2,4,4
 562              		.comm	flowDisplay1,4,4
 563              		.comm	countLCD,8,8
 564              		.comm	countPump,8,8
 565              		.comm	countTX,8,8
 566              		.comm	countRX,8,8
 567              		.comm	countAnimation2,8,8
 568              		.comm	countAnimation1,8,8
 569              		.text
 570              	.Letext0:
 571              		.file 2 "c:\\program files (x86)\\cypress\\psoc creator\\3.3\\psoc creator\\import\\gnu\\arm\\4.9.
 572              		.file 3 "c:\\program files (x86)\\cypress\\psoc creator\\3.3\\psoc creator\\import\\gnu\\arm\\4.9.
ARM GAS  C:\Users\RECEPC~1\AppData\Local\Temp\ccJ4U0Wa.s 			page 16


 573              		.file 4 "Generated_Source\\PSoC5/cytypes.h"
 574              		.file 5 "./Variables.h"
 575              		.file 6 "Generated_Source\\PSoC5/core_cm3.h"
 576              		.file 7 "Generated_Source\\PSoC5/I2C_Bus.h"
 577              		.file 8 "Generated_Source\\PSoC5/CyLib.h"