ARM GAS  C:\Users\Diego\AppData\Local\Temp\cctB0Z5v.s 			page 1


   1              		.syntax unified
   2              		.cpu cortex-m3
   3              		.fpu softvfp
   4              		.eabi_attribute 20, 1
   5              		.eabi_attribute 21, 1
   6              		.eabi_attribute 23, 3
   7              		.eabi_attribute 24, 1
   8              		.eabi_attribute 25, 1
   9              		.eabi_attribute 26, 1
  10              		.eabi_attribute 30, 1
  11              		.eabi_attribute 34, 1
  12              		.eabi_attribute 18, 4
  13              		.thumb
  14              		.file	"I2C.c"
  15              		.text
  16              	.Ltext0:
  17              		.cfi_sections	.debug_frame
  18              		.section	.text.write_psoc1,"ax",%progbits
  19              		.align	2
  20              		.global	write_psoc1
  21              		.thumb
  22              		.thumb_func
  23              		.type	write_psoc1, %function
  24              	write_psoc1:
  25              	.LFB63:
  26              		.file 1 ".\\I2C.c"
   1:.\I2C.c       **** /*
   2:.\I2C.c       **** ***************************************************************************************************
   3:.\I2C.c       **** *                                           GRP550/700 CODE
   4:.\I2C.c       **** *
   5:.\I2C.c       **** *                             (c) Copyright 2013; Sistemas Insepet LTDA
   6:.\I2C.c       **** *
   7:.\I2C.c       **** *               All rights reserved.  Protected by international copyright laws.
   8:.\I2C.c       **** *               Knowledge of the source code may NOT be used to develop a similar product.
   9:.\I2C.c       **** *               Please help us continue to provide the Embedded community with the finest
  10:.\I2C.c       **** *               software available.  Your honesty is greatly appreciated.
  11:.\I2C.c       **** ***************************************************************************************************
  12:.\I2C.c       **** */
  13:.\I2C.c       **** 
  14:.\I2C.c       **** /*
  15:.\I2C.c       **** ***************************************************************************************************
  16:.\I2C.c       **** *
  17:.\I2C.c       **** *                                             GRP550/700 CODE
  18:.\I2C.c       **** *
  19:.\I2C.c       **** *                                             CYPRESS PSoC5LP
  20:.\I2C.c       **** *                                                with the
  21:.\I2C.c       **** *                                            CY8C5969AXI-LP035
  22:.\I2C.c       **** *
  23:.\I2C.c       **** * Filename      : I2C.c
  24:.\I2C.c       **** * Version       : V1.00
  25:.\I2C.c       **** * Programmer(s) : 
  26:.\I2C.c       ****                   
  27:.\I2C.c       **** ***************************************************************************************************
  28:.\I2C.c       **** */
  29:.\I2C.c       **** 
  30:.\I2C.c       **** 
  31:.\I2C.c       **** /*
ARM GAS  C:\Users\Diego\AppData\Local\Temp\cctB0Z5v.s 			page 2


  32:.\I2C.c       **** ***************************************************************************************************
  33:.\I2C.c       **** *                                             INCLUDE FILES
  34:.\I2C.c       **** ***************************************************************************************************
  35:.\I2C.c       **** */
  36:.\I2C.c       **** #include <device.h>
  37:.\I2C.c       **** #include <Variables.h>
  38:.\I2C.c       **** #include "LCD.h"
  39:.\I2C.c       **** 
  40:.\I2C.c       **** 
  41:.\I2C.c       **** 
  42:.\I2C.c       **** /*
  43:.\I2C.c       **** ***************************************************************************************************
  44:.\I2C.c       **** *                                   uint8 write_psoc1( uint8 puerto, uint8 valor )
  45:.\I2C.c       **** *
  46:.\I2C.c       **** * Description : 
  47:.\I2C.c       **** *               
  48:.\I2C.c       **** *
  49:.\I2C.c       **** * Argument(s) : none
  50:.\I2C.c       **** *
  51:.\I2C.c       **** * Return(s)   : none
  52:.\I2C.c       **** *
  53:.\I2C.c       **** * Caller(s)   : 
  54:.\I2C.c       **** *
  55:.\I2C.c       **** * Note(s)     : none.
  56:.\I2C.c       **** ***************************************************************************************************
  57:.\I2C.c       **** */
  58:.\I2C.c       **** 
  59:.\I2C.c       **** uint8 write_psoc1( uint8 puerto, uint8 valor ){
  27              		.loc 1 59 0
  28              		.cfi_startproc
  29              		@ args = 0, pretend = 0, frame = 8
  30              		@ frame_needed = 0, uses_anonymous_args = 0
  31              	.LVL0:
  32 0000 10B5     		push	{r4, lr}
  33              		.cfi_def_cfa_offset 8
  34              		.cfi_offset 4, -8
  35              		.cfi_offset 14, -4
  36 0002 82B0     		sub	sp, sp, #8
  37              		.cfi_def_cfa_offset 16
  60:.\I2C.c       **** 	uint8 status, dato[2],i;
  61:.\I2C.c       **** 	dato[0]=puerto;
  38              		.loc 1 61 0
  39 0004 8DF80400 		strb	r0, [sp, #4]
  62:.\I2C.c       **** 	dato[1]=valor;
  40              		.loc 1 62 0
  41 0008 8DF80510 		strb	r1, [sp, #5]
  63:.\I2C.c       **** 	I2C_Bus_MasterClearStatus();
  42              		.loc 1 63 0
  43 000c FFF7FEFF 		bl	I2C_Bus_MasterClearStatus
  44              	.LVL1:
  64:.\I2C.c       ****     status = I2C_Bus_MasterSendStart(7u, I2C_Bus_WRITE_XFER_MODE);
  45              		.loc 1 64 0
  46 0010 0720     		movs	r0, #7
  47 0012 0021     		movs	r1, #0
  48 0014 FFF7FEFF 		bl	I2C_Bus_MasterSendStart
  49              	.LVL2:
  65:.\I2C.c       ****     if(I2C_Bus_MSTR_NO_ERROR == status) 
ARM GAS  C:\Users\Diego\AppData\Local\Temp\cctB0Z5v.s 			page 3


  50              		.loc 1 65 0
  51 0018 58B1     		cbz	r0, .L5
  66:.\I2C.c       ****     {
  67:.\I2C.c       ****         for(i=0; i<2; i++)
  68:.\I2C.c       ****         {
  69:.\I2C.c       ****             status = I2C_Bus_MasterWriteByte(dato[i]);
  70:.\I2C.c       ****             if(status != I2C_Bus_MSTR_NO_ERROR)
  71:.\I2C.c       ****             {
  72:.\I2C.c       ****                 return 0;
  73:.\I2C.c       ****             }
  74:.\I2C.c       ****         }
  75:.\I2C.c       ****     }
  76:.\I2C.c       ****     else{
  77:.\I2C.c       **** 		return 0;
  52              		.loc 1 77 0
  53 001a 0020     		movs	r0, #0
  54              	.LVL3:
  55 001c 11E0     		b	.L3
  56              	.LVL4:
  57              	.L4:
  69:.\I2C.c       ****             if(status != I2C_Bus_MSTR_NO_ERROR)
  58              		.loc 1 69 0
  59 001e 02AB     		add	r3, sp, #8
  60 0020 2344     		add	r3, r3, r4
  61 0022 13F8040C 		ldrb	r0, [r3, #-4]	@ zero_extendqisi2
  62              	.LVL5:
  63 0026 FFF7FEFF 		bl	I2C_Bus_MasterWriteByte
  64              	.LVL6:
  70:.\I2C.c       ****             {
  65              		.loc 1 70 0
  66 002a 48B9     		cbnz	r0, .L6
  67:.\I2C.c       ****         {
  67              		.loc 1 67 0 discriminator 2
  68 002c 0134     		adds	r4, r4, #1
  69              	.LVL7:
  70 002e E4B2     		uxtb	r4, r4
  71              	.LVL8:
  72 0030 00E0     		b	.L2
  73              	.LVL9:
  74              	.L5:
  75 0032 0024     		movs	r4, #0
  76              	.L2:
  77              	.LVL10:
  67:.\I2C.c       ****         {
  78              		.loc 1 67 0 is_stmt 0 discriminator 1
  79 0034 012C     		cmp	r4, #1
  80 0036 F2D9     		bls	.L4
  78:.\I2C.c       ****     }
  79:.\I2C.c       ****     I2C_Bus_MasterSendStop();	
  81              		.loc 1 79 0 is_stmt 1
  82 0038 FFF7FEFF 		bl	I2C_Bus_MasterSendStop
  83              	.LVL11:
  80:.\I2C.c       **** 	return 1;
  84              		.loc 1 80 0
  85 003c 0120     		movs	r0, #1
  86 003e 00E0     		b	.L3
  87              	.LVL12:
ARM GAS  C:\Users\Diego\AppData\Local\Temp\cctB0Z5v.s 			page 4


  88              	.L6:
  72:.\I2C.c       ****             }
  89              		.loc 1 72 0
  90 0040 0020     		movs	r0, #0
  91              	.LVL13:
  92              	.L3:
  81:.\I2C.c       **** }
  93              		.loc 1 81 0
  94 0042 02B0     		add	sp, sp, #8
  95              		.cfi_def_cfa_offset 8
  96              		@ sp needed
  97 0044 10BD     		pop	{r4, pc}
  98              		.cfi_endproc
  99              	.LFE63:
 100              		.size	write_psoc1, .-write_psoc1
 101 0046 00BF     		.section	.text.leer_fecha,"ax",%progbits
 102              		.align	2
 103              		.global	leer_fecha
 104              		.thumb
 105              		.thumb_func
 106              		.type	leer_fecha, %function
 107              	leer_fecha:
 108              	.LFB64:
  82:.\I2C.c       **** /*
  83:.\I2C.c       **** ***************************************************************************************************
  84:.\I2C.c       **** *                                         uint8 leer_fecha( void )
  85:.\I2C.c       **** *
  86:.\I2C.c       **** * Description : 
  87:.\I2C.c       **** *               
  88:.\I2C.c       **** *
  89:.\I2C.c       **** * Argument(s) : none
  90:.\I2C.c       **** *
  91:.\I2C.c       **** * Return(s)   : none
  92:.\I2C.c       **** *
  93:.\I2C.c       **** * Caller(s)   : 
  94:.\I2C.c       **** *
  95:.\I2C.c       **** * Note(s)     : none.
  96:.\I2C.c       **** ***************************************************************************************************
  97:.\I2C.c       **** */
  98:.\I2C.c       **** uint8 leer_fecha(){
 109              		.loc 1 98 0
 110              		.cfi_startproc
 111              		@ args = 0, pretend = 0, frame = 0
 112              		@ frame_needed = 0, uses_anonymous_args = 0
 113 0000 38B5     		push	{r3, r4, r5, lr}
 114              		.cfi_def_cfa_offset 16
 115              		.cfi_offset 3, -16
 116              		.cfi_offset 4, -12
 117              		.cfi_offset 5, -8
 118              		.cfi_offset 14, -4
 119              	.LVL14:
  99:.\I2C.c       **** 	uint8 status,i;
 100:.\I2C.c       **** 	for(i=4;i<=6;i++){
 120              		.loc 1 100 0
 121 0002 0424     		movs	r4, #4
 122 0004 1DE0     		b	.L9
 123              	.LVL15:
ARM GAS  C:\Users\Diego\AppData\Local\Temp\cctB0Z5v.s 			page 5


 124              	.L11:
 101:.\I2C.c       ****         I2C_Bus_MasterClearStatus();
 125              		.loc 1 101 0
 126 0006 FFF7FEFF 		bl	I2C_Bus_MasterClearStatus
 127              	.LVL16:
 102:.\I2C.c       ****         status = I2C_Bus_MasterSendStart(0x68, I2C_Bus_WRITE_XFER_MODE);
 128              		.loc 1 102 0
 129 000a 6820     		movs	r0, #104
 130 000c 0021     		movs	r1, #0
 131 000e FFF7FEFF 		bl	I2C_Bus_MasterSendStart
 132              	.LVL17:
 103:.\I2C.c       ****         if(I2C_Bus_MSTR_NO_ERROR == status)								 		/* Check if transfer completed without errors
 133              		.loc 1 103 0
 134 0012 D0B9     		cbnz	r0, .L12
 104:.\I2C.c       ****     	{
 105:.\I2C.c       ****             status = I2C_Bus_MasterWriteByte(i);
 135              		.loc 1 105 0
 136 0014 2046     		mov	r0, r4
 137              	.LVL18:
 138 0016 FFF7FEFF 		bl	I2C_Bus_MasterWriteByte
 139              	.LVL19:
 106:.\I2C.c       ****             if(status != I2C_Bus_MSTR_NO_ERROR)
 140              		.loc 1 106 0
 141 001a C0B9     		cbnz	r0, .L13
 107:.\I2C.c       ****             {
 108:.\I2C.c       ****                 return 0;
 109:.\I2C.c       ****             }
 110:.\I2C.c       **** 			else{
 111:.\I2C.c       **** 		        I2C_Bus_MasterSendStop(); 										/* Send Stop */
 142              		.loc 1 111 0
 143 001c FFF7FEFF 		bl	I2C_Bus_MasterSendStop
 144              	.LVL20:
 112:.\I2C.c       **** 		        CyDelay(10);
 145              		.loc 1 112 0
 146 0020 0A20     		movs	r0, #10
 147 0022 FFF7FEFF 		bl	CyDelay
 148              	.LVL21:
 113:.\I2C.c       **** 		        status = I2C_Bus_MasterSendStart(0x68, I2C_Bus_READ_XFER_MODE);
 149              		.loc 1 113 0
 150 0026 6820     		movs	r0, #104
 151 0028 0121     		movs	r1, #1
 152 002a FFF7FEFF 		bl	I2C_Bus_MasterSendStart
 153              	.LVL22:
 114:.\I2C.c       **** 		        if(I2C_Bus_MSTR_NO_ERROR == status){
 154              		.loc 1 114 0
 155 002e 80B9     		cbnz	r0, .L14
 115:.\I2C.c       **** 		            dateDownHandle[i-4] = I2C_Bus_MasterReadByte(I2C_Bus_NAK_DATA);
 156              		.loc 1 115 0
 157 0030 251F     		subs	r5, r4, #4
 158 0032 FFF7FEFF 		bl	I2C_Bus_MasterReadByte
 159              	.LVL23:
 160 0036 084B     		ldr	r3, .L16
 161 0038 5855     		strb	r0, [r3, r5]
 116:.\I2C.c       **** 		        }
 117:.\I2C.c       **** 				else{
 118:.\I2C.c       **** 					return 0;
 119:.\I2C.c       **** 				}
ARM GAS  C:\Users\Diego\AppData\Local\Temp\cctB0Z5v.s 			page 6


 120:.\I2C.c       **** 		        I2C_Bus_MasterSendStop();	
 162              		.loc 1 120 0
 163 003a FFF7FEFF 		bl	I2C_Bus_MasterSendStop
 164              	.LVL24:
 100:.\I2C.c       ****         I2C_Bus_MasterClearStatus();
 165              		.loc 1 100 0
 166 003e 0134     		adds	r4, r4, #1
 167              	.LVL25:
 168 0040 E4B2     		uxtb	r4, r4
 169              	.LVL26:
 170              	.L9:
 100:.\I2C.c       ****         I2C_Bus_MasterClearStatus();
 171              		.loc 1 100 0 is_stmt 0 discriminator 1
 172 0042 062C     		cmp	r4, #6
 173 0044 DFD9     		bls	.L11
 121:.\I2C.c       **** 			}
 122:.\I2C.c       ****         }
 123:.\I2C.c       **** 		else{
 124:.\I2C.c       **** 			return 0;
 125:.\I2C.c       **** 		}		
 126:.\I2C.c       **** 	}
 127:.\I2C.c       **** 	return 1;
 174              		.loc 1 127 0 is_stmt 1
 175 0046 0120     		movs	r0, #1
 176 0048 38BD     		pop	{r3, r4, r5, pc}
 177              	.LVL27:
 178              	.L12:
 124:.\I2C.c       **** 		}		
 179              		.loc 1 124 0
 180 004a 0020     		movs	r0, #0
 181              	.LVL28:
 182 004c 38BD     		pop	{r3, r4, r5, pc}
 183              	.LVL29:
 184              	.L13:
 108:.\I2C.c       ****             }
 185              		.loc 1 108 0
 186 004e 0020     		movs	r0, #0
 187              	.LVL30:
 188 0050 38BD     		pop	{r3, r4, r5, pc}
 189              	.LVL31:
 190              	.L14:
 118:.\I2C.c       **** 				}
 191              		.loc 1 118 0
 192 0052 0020     		movs	r0, #0
 193              	.LVL32:
 128:.\I2C.c       **** }
 194              		.loc 1 128 0
 195 0054 38BD     		pop	{r3, r4, r5, pc}
 196              	.LVL33:
 197              	.L17:
 198 0056 00BF     		.align	2
 199              	.L16:
 200 0058 00000000 		.word	dateDownHandle
 201              		.cfi_endproc
 202              	.LFE64:
 203              		.size	leer_fecha, .-leer_fecha
 204              		.section	.text.write_fecha,"ax",%progbits
ARM GAS  C:\Users\Diego\AppData\Local\Temp\cctB0Z5v.s 			page 7


 205              		.align	2
 206              		.global	write_fecha
 207              		.thumb
 208              		.thumb_func
 209              		.type	write_fecha, %function
 210              	write_fecha:
 211              	.LFB65:
 129:.\I2C.c       **** /*
 130:.\I2C.c       **** ***************************************************************************************************
 131:.\I2C.c       **** *                                         uint8 write_fecha( void )
 132:.\I2C.c       **** *
 133:.\I2C.c       **** * Description : 
 134:.\I2C.c       **** *               
 135:.\I2C.c       **** *
 136:.\I2C.c       **** * Argument(s) : none
 137:.\I2C.c       **** *
 138:.\I2C.c       **** * Return(s)   : none
 139:.\I2C.c       **** *
 140:.\I2C.c       **** * Caller(s)   : 
 141:.\I2C.c       **** *
 142:.\I2C.c       **** * Note(s)     : none.
 143:.\I2C.c       **** ***************************************************************************************************
 144:.\I2C.c       **** */
 145:.\I2C.c       **** 
 146:.\I2C.c       **** uint8 write_fecha( void ){
 212              		.loc 1 146 0
 213              		.cfi_startproc
 214              		@ args = 0, pretend = 0, frame = 8
 215              		@ frame_needed = 0, uses_anonymous_args = 0
 216 0000 10B5     		push	{r4, lr}
 217              		.cfi_def_cfa_offset 8
 218              		.cfi_offset 4, -8
 219              		.cfi_offset 14, -4
 220 0002 82B0     		sub	sp, sp, #8
 221              		.cfi_def_cfa_offset 16
 147:.\I2C.c       **** 	uint8 status, dato[4],i;
 148:.\I2C.c       **** 	dato[0]=4;
 222              		.loc 1 148 0
 223 0004 0423     		movs	r3, #4
 224 0006 8DF80430 		strb	r3, [sp, #4]
 149:.\I2C.c       **** 	dato[1]=date[0];
 225              		.loc 1 149 0
 226 000a 134B     		ldr	r3, .L25
 227 000c 1A78     		ldrb	r2, [r3]	@ zero_extendqisi2
 228 000e 8DF80520 		strb	r2, [sp, #5]
 150:.\I2C.c       **** 	dato[2]=date[1];
 229              		.loc 1 150 0
 230 0012 5A78     		ldrb	r2, [r3, #1]	@ zero_extendqisi2
 231 0014 8DF80620 		strb	r2, [sp, #6]
 151:.\I2C.c       **** 	dato[3]=date[2];
 232              		.loc 1 151 0
 233 0018 9B78     		ldrb	r3, [r3, #2]	@ zero_extendqisi2
 234 001a 8DF80730 		strb	r3, [sp, #7]
 152:.\I2C.c       **** 	I2C_Bus_MasterClearStatus();
 235              		.loc 1 152 0
 236 001e FFF7FEFF 		bl	I2C_Bus_MasterClearStatus
 237              	.LVL34:
ARM GAS  C:\Users\Diego\AppData\Local\Temp\cctB0Z5v.s 			page 8


 153:.\I2C.c       ****     status = I2C_Bus_MasterSendStart(0x68, I2C_Bus_WRITE_XFER_MODE);
 238              		.loc 1 153 0
 239 0022 6820     		movs	r0, #104
 240 0024 0021     		movs	r1, #0
 241 0026 FFF7FEFF 		bl	I2C_Bus_MasterSendStart
 242              	.LVL35:
 154:.\I2C.c       ****     if(I2C_Bus_MSTR_NO_ERROR == status) 
 243              		.loc 1 154 0
 244 002a 58B1     		cbz	r0, .L22
 155:.\I2C.c       ****     {
 156:.\I2C.c       ****         for(i=0; i<4; i++)
 157:.\I2C.c       ****         {
 158:.\I2C.c       ****             status = I2C_Bus_MasterWriteByte(dato[i]);
 159:.\I2C.c       ****             if(status != I2C_Bus_MSTR_NO_ERROR)
 160:.\I2C.c       ****             {
 161:.\I2C.c       ****                 return 0;
 162:.\I2C.c       ****             }
 163:.\I2C.c       ****         }
 164:.\I2C.c       ****     }
 165:.\I2C.c       ****     else{
 166:.\I2C.c       **** 		return 0;
 245              		.loc 1 166 0
 246 002c 0020     		movs	r0, #0
 247              	.LVL36:
 248 002e 11E0     		b	.L20
 249              	.LVL37:
 250              	.L21:
 158:.\I2C.c       ****             if(status != I2C_Bus_MSTR_NO_ERROR)
 251              		.loc 1 158 0
 252 0030 02AB     		add	r3, sp, #8
 253 0032 2344     		add	r3, r3, r4
 254 0034 13F8040C 		ldrb	r0, [r3, #-4]	@ zero_extendqisi2
 255              	.LVL38:
 256 0038 FFF7FEFF 		bl	I2C_Bus_MasterWriteByte
 257              	.LVL39:
 159:.\I2C.c       ****             {
 258              		.loc 1 159 0
 259 003c 48B9     		cbnz	r0, .L23
 156:.\I2C.c       ****         {
 260              		.loc 1 156 0 discriminator 2
 261 003e 0134     		adds	r4, r4, #1
 262              	.LVL40:
 263 0040 E4B2     		uxtb	r4, r4
 264              	.LVL41:
 265 0042 00E0     		b	.L19
 266              	.LVL42:
 267              	.L22:
 268 0044 0024     		movs	r4, #0
 269              	.L19:
 270              	.LVL43:
 156:.\I2C.c       ****         {
 271              		.loc 1 156 0 is_stmt 0 discriminator 1
 272 0046 032C     		cmp	r4, #3
 273 0048 F2D9     		bls	.L21
 167:.\I2C.c       ****     }
 168:.\I2C.c       ****     I2C_Bus_MasterSendStop();	
 274              		.loc 1 168 0 is_stmt 1
ARM GAS  C:\Users\Diego\AppData\Local\Temp\cctB0Z5v.s 			page 9


 275 004a FFF7FEFF 		bl	I2C_Bus_MasterSendStop
 276              	.LVL44:
 169:.\I2C.c       **** 	return 1;
 277              		.loc 1 169 0
 278 004e 0120     		movs	r0, #1
 279 0050 00E0     		b	.L20
 280              	.LVL45:
 281              	.L23:
 161:.\I2C.c       ****             }
 282              		.loc 1 161 0
 283 0052 0020     		movs	r0, #0
 284              	.LVL46:
 285              	.L20:
 170:.\I2C.c       **** }
 286              		.loc 1 170 0
 287 0054 02B0     		add	sp, sp, #8
 288              		.cfi_def_cfa_offset 8
 289              		@ sp needed
 290 0056 10BD     		pop	{r4, pc}
 291              	.L26:
 292              		.align	2
 293              	.L25:
 294 0058 00000000 		.word	date
 295              		.cfi_endproc
 296              	.LFE65:
 297              		.size	write_fecha, .-write_fecha
 298              		.section	.text.leer_hora,"ax",%progbits
 299              		.align	2
 300              		.global	leer_hora
 301              		.thumb
 302              		.thumb_func
 303              		.type	leer_hora, %function
 304              	leer_hora:
 305              	.LFB66:
 171:.\I2C.c       **** /*
 172:.\I2C.c       **** ***************************************************************************************************
 173:.\I2C.c       **** *                                         uint8 leer_hora( void )
 174:.\I2C.c       **** *
 175:.\I2C.c       **** * Description : 
 176:.\I2C.c       **** *               
 177:.\I2C.c       **** *
 178:.\I2C.c       **** * Argument(s) : none
 179:.\I2C.c       **** *
 180:.\I2C.c       **** * Return(s)   : none
 181:.\I2C.c       **** *
 182:.\I2C.c       **** * Caller(s)   : 
 183:.\I2C.c       **** *
 184:.\I2C.c       **** * Note(s)     : none.
 185:.\I2C.c       **** ***************************************************************************************************
 186:.\I2C.c       **** */
 187:.\I2C.c       **** uint8 leer_hora(){
 306              		.loc 1 187 0
 307              		.cfi_startproc
 308              		@ args = 0, pretend = 0, frame = 0
 309              		@ frame_needed = 0, uses_anonymous_args = 0
 310 0000 38B5     		push	{r3, r4, r5, lr}
 311              		.cfi_def_cfa_offset 16
ARM GAS  C:\Users\Diego\AppData\Local\Temp\cctB0Z5v.s 			page 10


 312              		.cfi_offset 3, -16
 313              		.cfi_offset 4, -12
 314              		.cfi_offset 5, -8
 315              		.cfi_offset 14, -4
 316              	.LVL47:
 188:.\I2C.c       **** 	uint8 status,i;
 189:.\I2C.c       **** 	for(i=1;i<=2;i++){
 317              		.loc 1 189 0
 318 0002 0124     		movs	r4, #1
 319 0004 1DE0     		b	.L28
 320              	.LVL48:
 321              	.L30:
 190:.\I2C.c       ****         I2C_Bus_MasterClearStatus();
 322              		.loc 1 190 0
 323 0006 FFF7FEFF 		bl	I2C_Bus_MasterClearStatus
 324              	.LVL49:
 191:.\I2C.c       ****         status = I2C_Bus_MasterSendStart(0x68, I2C_Bus_WRITE_XFER_MODE);
 325              		.loc 1 191 0
 326 000a 6820     		movs	r0, #104
 327 000c 0021     		movs	r1, #0
 328 000e FFF7FEFF 		bl	I2C_Bus_MasterSendStart
 329              	.LVL50:
 192:.\I2C.c       ****         if(I2C_Bus_MSTR_NO_ERROR == status)								 		/* Check if transfer completed without errors
 330              		.loc 1 192 0
 331 0012 D0B9     		cbnz	r0, .L31
 193:.\I2C.c       ****     	{
 194:.\I2C.c       ****             status = I2C_Bus_MasterWriteByte(i);
 332              		.loc 1 194 0
 333 0014 2046     		mov	r0, r4
 334              	.LVL51:
 335 0016 FFF7FEFF 		bl	I2C_Bus_MasterWriteByte
 336              	.LVL52:
 195:.\I2C.c       ****             if(status != I2C_Bus_MSTR_NO_ERROR)
 337              		.loc 1 195 0
 338 001a C0B9     		cbnz	r0, .L32
 196:.\I2C.c       ****             {
 197:.\I2C.c       ****                 return 0;
 198:.\I2C.c       ****             }
 199:.\I2C.c       **** 			else{
 200:.\I2C.c       **** 		        I2C_Bus_MasterSendStop(); 										/* Send Stop */
 339              		.loc 1 200 0
 340 001c FFF7FEFF 		bl	I2C_Bus_MasterSendStop
 341              	.LVL53:
 201:.\I2C.c       **** 		        CyDelay(10);
 342              		.loc 1 201 0
 343 0020 0A20     		movs	r0, #10
 344 0022 FFF7FEFF 		bl	CyDelay
 345              	.LVL54:
 202:.\I2C.c       **** 		        status = I2C_Bus_MasterSendStart(0x68, I2C_Bus_READ_XFER_MODE);
 346              		.loc 1 202 0
 347 0026 6820     		movs	r0, #104
 348 0028 0121     		movs	r1, #1
 349 002a FFF7FEFF 		bl	I2C_Bus_MasterSendStart
 350              	.LVL55:
 203:.\I2C.c       **** 		        if(I2C_Bus_MSTR_NO_ERROR == status){
 351              		.loc 1 203 0
 352 002e 80B9     		cbnz	r0, .L33
ARM GAS  C:\Users\Diego\AppData\Local\Temp\cctB0Z5v.s 			page 11


 204:.\I2C.c       **** 		            timeDownHandle[i-1] = I2C_Bus_MasterReadByte(I2C_Bus_NAK_DATA);
 353              		.loc 1 204 0
 354 0030 651E     		subs	r5, r4, #1
 355 0032 FFF7FEFF 		bl	I2C_Bus_MasterReadByte
 356              	.LVL56:
 357 0036 084B     		ldr	r3, .L35
 358 0038 5855     		strb	r0, [r3, r5]
 205:.\I2C.c       **** 		        }
 206:.\I2C.c       **** 				else{
 207:.\I2C.c       **** 					return 0;
 208:.\I2C.c       **** 				}
 209:.\I2C.c       **** 		        I2C_Bus_MasterSendStop();	
 359              		.loc 1 209 0
 360 003a FFF7FEFF 		bl	I2C_Bus_MasterSendStop
 361              	.LVL57:
 189:.\I2C.c       ****         I2C_Bus_MasterClearStatus();
 362              		.loc 1 189 0
 363 003e 0134     		adds	r4, r4, #1
 364              	.LVL58:
 365 0040 E4B2     		uxtb	r4, r4
 366              	.LVL59:
 367              	.L28:
 189:.\I2C.c       ****         I2C_Bus_MasterClearStatus();
 368              		.loc 1 189 0 is_stmt 0 discriminator 1
 369 0042 022C     		cmp	r4, #2
 370 0044 DFD9     		bls	.L30
 210:.\I2C.c       **** 			}
 211:.\I2C.c       ****         }
 212:.\I2C.c       **** 		else{
 213:.\I2C.c       **** 			return 0;
 214:.\I2C.c       **** 		}		
 215:.\I2C.c       **** 	}
 216:.\I2C.c       **** 	return 1;
 371              		.loc 1 216 0 is_stmt 1
 372 0046 0120     		movs	r0, #1
 373 0048 38BD     		pop	{r3, r4, r5, pc}
 374              	.LVL60:
 375              	.L31:
 213:.\I2C.c       **** 		}		
 376              		.loc 1 213 0
 377 004a 0020     		movs	r0, #0
 378              	.LVL61:
 379 004c 38BD     		pop	{r3, r4, r5, pc}
 380              	.LVL62:
 381              	.L32:
 197:.\I2C.c       ****             }
 382              		.loc 1 197 0
 383 004e 0020     		movs	r0, #0
 384              	.LVL63:
 385 0050 38BD     		pop	{r3, r4, r5, pc}
 386              	.LVL64:
 387              	.L33:
 207:.\I2C.c       **** 				}
 388              		.loc 1 207 0
 389 0052 0020     		movs	r0, #0
 390              	.LVL65:
 217:.\I2C.c       **** }
ARM GAS  C:\Users\Diego\AppData\Local\Temp\cctB0Z5v.s 			page 12


 391              		.loc 1 217 0
 392 0054 38BD     		pop	{r3, r4, r5, pc}
 393              	.LVL66:
 394              	.L36:
 395 0056 00BF     		.align	2
 396              	.L35:
 397 0058 00000000 		.word	timeDownHandle
 398              		.cfi_endproc
 399              	.LFE66:
 400              		.size	leer_hora, .-leer_hora
 401              		.section	.text.write_hora,"ax",%progbits
 402              		.align	2
 403              		.global	write_hora
 404              		.thumb
 405              		.thumb_func
 406              		.type	write_hora, %function
 407              	write_hora:
 408              	.LFB67:
 218:.\I2C.c       **** /*
 219:.\I2C.c       **** ***************************************************************************************************
 220:.\I2C.c       **** *                                         uint8 write_hora( void )
 221:.\I2C.c       **** *
 222:.\I2C.c       **** * Description : 
 223:.\I2C.c       **** *               
 224:.\I2C.c       **** *
 225:.\I2C.c       **** * Argument(s) : none
 226:.\I2C.c       **** *
 227:.\I2C.c       **** * Return(s)   : none
 228:.\I2C.c       **** *
 229:.\I2C.c       **** * Caller(s)   : 
 230:.\I2C.c       **** *
 231:.\I2C.c       **** * Note(s)     : none.
 232:.\I2C.c       **** ***************************************************************************************************
 233:.\I2C.c       **** */
 234:.\I2C.c       **** 
 235:.\I2C.c       **** uint8 write_hora( void ){
 409              		.loc 1 235 0
 410              		.cfi_startproc
 411              		@ args = 0, pretend = 0, frame = 8
 412              		@ frame_needed = 0, uses_anonymous_args = 0
 413 0000 10B5     		push	{r4, lr}
 414              		.cfi_def_cfa_offset 8
 415              		.cfi_offset 4, -8
 416              		.cfi_offset 14, -4
 417 0002 82B0     		sub	sp, sp, #8
 418              		.cfi_def_cfa_offset 16
 236:.\I2C.c       **** 	uint8 status, dato[3],i;
 237:.\I2C.c       **** 	dato[0]=1;
 419              		.loc 1 237 0
 420 0004 0123     		movs	r3, #1
 421 0006 8DF80430 		strb	r3, [sp, #4]
 238:.\I2C.c       **** 	dato[1]=time[0];
 422              		.loc 1 238 0
 423 000a 124B     		ldr	r3, .L44
 424 000c 1A78     		ldrb	r2, [r3]	@ zero_extendqisi2
 425 000e 8DF80520 		strb	r2, [sp, #5]
 239:.\I2C.c       **** 	dato[2]=time[1];
ARM GAS  C:\Users\Diego\AppData\Local\Temp\cctB0Z5v.s 			page 13


 426              		.loc 1 239 0
 427 0012 5B78     		ldrb	r3, [r3, #1]	@ zero_extendqisi2
 428 0014 8DF80630 		strb	r3, [sp, #6]
 240:.\I2C.c       **** 	I2C_Bus_MasterClearStatus();
 429              		.loc 1 240 0
 430 0018 FFF7FEFF 		bl	I2C_Bus_MasterClearStatus
 431              	.LVL67:
 241:.\I2C.c       ****     status = I2C_Bus_MasterSendStart(0x68, I2C_Bus_WRITE_XFER_MODE);
 432              		.loc 1 241 0
 433 001c 6820     		movs	r0, #104
 434 001e 0021     		movs	r1, #0
 435 0020 FFF7FEFF 		bl	I2C_Bus_MasterSendStart
 436              	.LVL68:
 242:.\I2C.c       ****     if(I2C_Bus_MSTR_NO_ERROR == status) 
 437              		.loc 1 242 0
 438 0024 58B1     		cbz	r0, .L41
 243:.\I2C.c       ****     {
 244:.\I2C.c       ****         for(i=0; i<3; i++)
 245:.\I2C.c       ****         {
 246:.\I2C.c       ****             status = I2C_Bus_MasterWriteByte(dato[i]);
 247:.\I2C.c       ****             if(status != I2C_Bus_MSTR_NO_ERROR)
 248:.\I2C.c       ****             {
 249:.\I2C.c       ****                 return 0;
 250:.\I2C.c       ****             }
 251:.\I2C.c       ****         }
 252:.\I2C.c       ****     }
 253:.\I2C.c       ****     else{
 254:.\I2C.c       **** 		return 0;
 439              		.loc 1 254 0
 440 0026 0020     		movs	r0, #0
 441              	.LVL69:
 442 0028 11E0     		b	.L39
 443              	.LVL70:
 444              	.L40:
 246:.\I2C.c       ****             if(status != I2C_Bus_MSTR_NO_ERROR)
 445              		.loc 1 246 0
 446 002a 02AB     		add	r3, sp, #8
 447 002c 2344     		add	r3, r3, r4
 448 002e 13F8040C 		ldrb	r0, [r3, #-4]	@ zero_extendqisi2
 449              	.LVL71:
 450 0032 FFF7FEFF 		bl	I2C_Bus_MasterWriteByte
 451              	.LVL72:
 247:.\I2C.c       ****             {
 452              		.loc 1 247 0
 453 0036 48B9     		cbnz	r0, .L42
 244:.\I2C.c       ****         {
 454              		.loc 1 244 0 discriminator 2
 455 0038 0134     		adds	r4, r4, #1
 456              	.LVL73:
 457 003a E4B2     		uxtb	r4, r4
 458              	.LVL74:
 459 003c 00E0     		b	.L38
 460              	.LVL75:
 461              	.L41:
 462 003e 0024     		movs	r4, #0
 463              	.L38:
 464              	.LVL76:
ARM GAS  C:\Users\Diego\AppData\Local\Temp\cctB0Z5v.s 			page 14


 244:.\I2C.c       ****         {
 465              		.loc 1 244 0 is_stmt 0 discriminator 1
 466 0040 022C     		cmp	r4, #2
 467 0042 F2D9     		bls	.L40
 255:.\I2C.c       ****     }
 256:.\I2C.c       ****     I2C_Bus_MasterSendStop();	
 468              		.loc 1 256 0 is_stmt 1
 469 0044 FFF7FEFF 		bl	I2C_Bus_MasterSendStop
 470              	.LVL77:
 257:.\I2C.c       **** 	return 1;
 471              		.loc 1 257 0
 472 0048 0120     		movs	r0, #1
 473 004a 00E0     		b	.L39
 474              	.LVL78:
 475              	.L42:
 249:.\I2C.c       ****             }
 476              		.loc 1 249 0
 477 004c 0020     		movs	r0, #0
 478              	.LVL79:
 479              	.L39:
 258:.\I2C.c       **** }
 480              		.loc 1 258 0
 481 004e 02B0     		add	sp, sp, #8
 482              		.cfi_def_cfa_offset 8
 483              		@ sp needed
 484 0050 10BD     		pop	{r4, pc}
 485              	.L45:
 486 0052 00BF     		.align	2
 487              	.L44:
 488 0054 00000000 		.word	time
 489              		.cfi_endproc
 490              	.LFE67:
 491              		.size	write_hora, .-write_hora
 492              		.comm	side,1048,4
 493              		.comm	bufferDisplay4,332,4
 494              		.comm	bufferDisplay3,332,4
 495              		.comm	bufferDisplay2,332,4
 496              		.comm	bufferDisplay1,332,4
 497              		.comm	RFstateReport,1,1
 498              		.comm	GradesHose,5,4
 499              		.comm	CopiasCredito,1,1
 500              		.comm	Encabezado4,30,4
 501              		.comm	Encabezado3,30,4
 502              		.comm	Encabezado2,30,4
 503              		.comm	Encabezado1,30,4
 504              		.comm	intIDStation,2,2
 505              		.comm	buffer_txDisplay,512,4
 506              		.comm	buffer_tx,512,4
 507              		.comm	buffer_rf,512,4
 508              		.comm	printPortB,1,1
 509              		.comm	printPortA,1,1
 510              		.comm	pumpGap,3,4
 511              		.comm	idStation,5,4
 512              		.comm	controlChar,1,1
 513              		.comm	configAccess,5,4
 514              		.comm	count_protector2,1,1
 515              		.comm	count_protector,1,1
ARM GAS  C:\Users\Diego\AppData\Local\Temp\cctB0Z5v.s 			page 15


 516              		.comm	timeDownHandle,2,4
 517              		.comm	dateDownHandle,3,4
 518              		.comm	VolUnit,6,4
 519              		.comm	PrinterType,1,1
 520              		.comm	hiddenKeys,1,1
 521              		.comm	digits,1,1
 522              		.comm	lockTurn,1,1
 523              		.comm	NumPositions,1,1
 524              		.comm	statePump,4,4
 525              		.comm	DDMode,1,1
 526              		.comm	PPUDec,1,1
 527              		.comm	VolDec,1,1
 528              		.comm	MoneyDec,1,1
 529              		.comm	ConversionFactor,1,1
 530              		.comm	UnitType,1,1
 531              		.comm	ShiftState,1,1
 532              		.comm	CGrade,1,1
 533              		.comm	tempPPU,5,4
 534              		.comm	tempPreset,8,4
 535              		.comm	temporal,30,4
 536              		.comm	counterRF,1,1
 537              		.comm	ActiveRF,1,1
 538              		.comm	IDCast,2,4
 539              		.comm	PlateRequest,1,1
 540              		.comm	PrevStatePump,4,4
 541              		.comm	stateBeagleSoft,1,1
 542              		.comm	flagResetMux,1,1
 543              		.comm	passwordSeller,8,4
 544              		.comm	typeIdSeller,1,1
 545              		.comm	idSeller,25,4
 546              		.comm	residue,14,4
 547              		.comm	screen,2,4
 548              		.comm	date,3,4
 549              		.comm	time,3,4
 550              		.comm	symbols,2,4
 551              		.comm	decimalVolume,1,1
 552              		.comm	decimalMoney,1,1
 553              		.comm	ppux10,1,1
 554              		.comm	delayPicture2,4,4
 555              		.comm	delayPicture1,4,4
 556              		.comm	productNumber,1,1
 557              		.comm	flagPoint2,1,1
 558              		.comm	flagPoint1,1,1
 559              		.comm	numberKeys2,1,1
 560              		.comm	numberKeys1,1,1
 561              		.comm	flowDisplay4,4,4
 562              		.comm	flowDisplay3,4,4
 563              		.comm	flowDisplay2,4,4
 564              		.comm	flowDisplay1,4,4
 565              		.comm	countLCD,8,8
 566              		.comm	countPump,8,8
 567              		.comm	countTX,8,8
 568              		.comm	countRX,8,8
 569              		.comm	countAnimation2,8,8
 570              		.comm	countAnimation1,8,8
 571              		.text
 572              	.Letext0:
ARM GAS  C:\Users\Diego\AppData\Local\Temp\cctB0Z5v.s 			page 16


 573              		.file 2 "c:\\program files (x86)\\cypress\\psoc creator\\3.3\\psoc creator\\import\\gnu\\arm\\4.9.
 574              		.file 3 "c:\\program files (x86)\\cypress\\psoc creator\\3.3\\psoc creator\\import\\gnu\\arm\\4.9.
 575              		.file 4 "Generated_Source\\PSoC5/cytypes.h"
 576              		.file 5 "./Variables.h"
 577              		.file 6 "Generated_Source\\PSoC5/core_cm3.h"
 578              		.file 7 "Generated_Source\\PSoC5/I2C_Bus.h"
 579              		.file 8 "Generated_Source\\PSoC5/CyLib.h"
 580              		.section	.debug_info,"",%progbits
 581              	.Ldebug_info0:
 582 0000 3F0E0000 		.4byte	0xe3f
 583 0004 0400     		.2byte	0x4
 584 0006 00000000 		.4byte	.Ldebug_abbrev0
 585 000a 04       		.byte	0x4
 586 000b 01       		.uleb128 0x1
 587 000c 18070000 		.4byte	.LASF172
 588 0010 01       		.byte	0x1
 589 0011 E3070000 		.4byte	.LASF173
 590 0015 42040000 		.4byte	.LASF174
 591 0019 00000000 		.4byte	.Ldebug_ranges0+0
 592 001d 00000000 		.4byte	0
 593 0021 00000000 		.4byte	.Ldebug_line0
 594 0025 02       		.uleb128 0x2
 595 0026 01       		.byte	0x1
 596 0027 06       		.byte	0x6
 597 0028 F9070000 		.4byte	.LASF0
 598 002c 02       		.uleb128 0x2
 599 002d 01       		.byte	0x1
 600 002e 08       		.byte	0x8
 601 002f 0A070000 		.4byte	.LASF1
 602 0033 02       		.uleb128 0x2
 603 0034 02       		.byte	0x2
 604 0035 05       		.byte	0x5
 605 0036 55050000 		.4byte	.LASF2
 606 003a 02       		.uleb128 0x2
 607 003b 02       		.byte	0x2
 608 003c 07       		.byte	0x7
 609 003d 1B080000 		.4byte	.LASF3
 610 0041 03       		.uleb128 0x3
 611 0042 AF000000 		.4byte	.LASF9
 612 0046 02       		.byte	0x2
 613 0047 3F       		.byte	0x3f
 614 0048 4C000000 		.4byte	0x4c
 615 004c 02       		.uleb128 0x2
 616 004d 04       		.byte	0x4
 617 004e 05       		.byte	0x5
 618 004f 5F050000 		.4byte	.LASF4
 619 0053 02       		.uleb128 0x2
 620 0054 04       		.byte	0x4
 621 0055 07       		.byte	0x7
 622 0056 89060000 		.4byte	.LASF5
 623 005a 02       		.uleb128 0x2
 624 005b 08       		.byte	0x8
 625 005c 05       		.byte	0x5
 626 005d A2030000 		.4byte	.LASF6
 627 0061 02       		.uleb128 0x2
 628 0062 08       		.byte	0x8
 629 0063 07       		.byte	0x7
ARM GAS  C:\Users\Diego\AppData\Local\Temp\cctB0Z5v.s 			page 17


 630 0064 B2010000 		.4byte	.LASF7
 631 0068 04       		.uleb128 0x4
 632 0069 04       		.byte	0x4
 633 006a 05       		.byte	0x5
 634 006b 696E7400 		.ascii	"int\000"
 635 006f 02       		.uleb128 0x2
 636 0070 04       		.byte	0x4
 637 0071 07       		.byte	0x7
 638 0072 96000000 		.4byte	.LASF8
 639 0076 03       		.uleb128 0x3
 640 0077 B7060000 		.4byte	.LASF10
 641 007b 03       		.byte	0x3
 642 007c 2C       		.byte	0x2c
 643 007d 41000000 		.4byte	0x41
 644 0081 05       		.uleb128 0x5
 645 0082 44080000 		.4byte	.LASF11
 646 0086 04       		.byte	0x4
 647 0087 3801     		.2byte	0x138
 648 0089 2C000000 		.4byte	0x2c
 649 008d 05       		.uleb128 0x5
 650 008e 24030000 		.4byte	.LASF12
 651 0092 04       		.byte	0x4
 652 0093 3901     		.2byte	0x139
 653 0095 3A000000 		.4byte	0x3a
 654 0099 05       		.uleb128 0x5
 655 009a 2E040000 		.4byte	.LASF13
 656 009e 04       		.byte	0x4
 657 009f 3A01     		.2byte	0x13a
 658 00a1 53000000 		.4byte	0x53
 659 00a5 02       		.uleb128 0x2
 660 00a6 04       		.byte	0x4
 661 00a7 04       		.byte	0x4
 662 00a8 62010000 		.4byte	.LASF14
 663 00ac 02       		.uleb128 0x2
 664 00ad 08       		.byte	0x8
 665 00ae 04       		.byte	0x4
 666 00af 4A080000 		.4byte	.LASF15
 667 00b3 05       		.uleb128 0x5
 668 00b4 24060000 		.4byte	.LASF16
 669 00b8 04       		.byte	0x4
 670 00b9 4401     		.2byte	0x144
 671 00bb 61000000 		.4byte	0x61
 672 00bf 05       		.uleb128 0x5
 673 00c0 52030000 		.4byte	.LASF17
 674 00c4 04       		.byte	0x4
 675 00c5 4901     		.2byte	0x149
 676 00c7 CB000000 		.4byte	0xcb
 677 00cb 02       		.uleb128 0x2
 678 00cc 01       		.byte	0x1
 679 00cd 08       		.byte	0x8
 680 00ce F6020000 		.4byte	.LASF18
 681 00d2 06       		.uleb128 0x6
 682 00d3 81000000 		.4byte	0x81
 683 00d7 06       		.uleb128 0x6
 684 00d8 99000000 		.4byte	0x99
 685 00dc 02       		.uleb128 0x2
 686 00dd 04       		.byte	0x4
ARM GAS  C:\Users\Diego\AppData\Local\Temp\cctB0Z5v.s 			page 18


 687 00de 07       		.byte	0x7
 688 00df 80060000 		.4byte	.LASF19
 689 00e3 07       		.uleb128 0x7
 690 00e4 81000000 		.4byte	0x81
 691 00e8 F3000000 		.4byte	0xf3
 692 00ec 08       		.uleb128 0x8
 693 00ed DC000000 		.4byte	0xdc
 694 00f1 03       		.byte	0x3
 695 00f2 00       		.byte	0
 696 00f3 09       		.uleb128 0x9
 697 00f4 6C000000 		.4byte	.LASF62
 698 00f8 4C01     		.2byte	0x14c
 699 00fa 05       		.byte	0x5
 700 00fb 7C       		.byte	0x7c
 701 00fc 07030000 		.4byte	0x307
 702 0100 0A       		.uleb128 0xa
 703 0101 DB000000 		.4byte	.LASF20
 704 0105 05       		.byte	0x5
 705 0106 7D       		.byte	0x7d
 706 0107 81000000 		.4byte	0x81
 707 010b 00       		.byte	0
 708 010c 0A       		.uleb128 0xa
 709 010d 47020000 		.4byte	.LASF21
 710 0111 05       		.byte	0x5
 711 0112 7E       		.byte	0x7e
 712 0113 07030000 		.4byte	0x307
 713 0117 01       		.byte	0x1
 714 0118 0A       		.uleb128 0xa
 715 0119 51080000 		.4byte	.LASF22
 716 011d 05       		.byte	0x5
 717 011e 7F       		.byte	0x7f
 718 011f 81000000 		.4byte	0x81
 719 0123 1A       		.byte	0x1a
 720 0124 0A       		.uleb128 0xa
 721 0125 F8060000 		.4byte	.LASF23
 722 0129 05       		.byte	0x5
 723 012a 80       		.byte	0x80
 724 012b 81000000 		.4byte	0x81
 725 012f 1B       		.byte	0x1b
 726 0130 0A       		.uleb128 0xa
 727 0131 F8000000 		.4byte	.LASF24
 728 0135 05       		.byte	0x5
 729 0136 81       		.byte	0x81
 730 0137 17030000 		.4byte	0x317
 731 013b 1C       		.byte	0x1c
 732 013c 0A       		.uleb128 0xa
 733 013d F1040000 		.4byte	.LASF25
 734 0141 05       		.byte	0x5
 735 0142 82       		.byte	0x82
 736 0143 17030000 		.4byte	0x317
 737 0147 26       		.byte	0x26
 738 0148 0A       		.uleb128 0xa
 739 0149 77080000 		.4byte	.LASF26
 740 014d 05       		.byte	0x5
 741 014e 83       		.byte	0x83
 742 014f 07030000 		.4byte	0x307
 743 0153 30       		.byte	0x30
ARM GAS  C:\Users\Diego\AppData\Local\Temp\cctB0Z5v.s 			page 19


 744 0154 0A       		.uleb128 0xa
 745 0155 BB040000 		.4byte	.LASF27
 746 0159 05       		.byte	0x5
 747 015a 84       		.byte	0x84
 748 015b 81000000 		.4byte	0x81
 749 015f 49       		.byte	0x49
 750 0160 0A       		.uleb128 0xa
 751 0161 A6070000 		.4byte	.LASF28
 752 0165 05       		.byte	0x5
 753 0166 85       		.byte	0x85
 754 0167 81000000 		.4byte	0x81
 755 016b 4A       		.byte	0x4a
 756 016c 0A       		.uleb128 0xa
 757 016d EC020000 		.4byte	.LASF29
 758 0171 05       		.byte	0x5
 759 0172 86       		.byte	0x86
 760 0173 27030000 		.4byte	0x327
 761 0177 4B       		.byte	0x4b
 762 0178 0A       		.uleb128 0xa
 763 0179 15040000 		.4byte	.LASF30
 764 017d 05       		.byte	0x5
 765 017e 87       		.byte	0x87
 766 017f 81000000 		.4byte	0x81
 767 0183 60       		.byte	0x60
 768 0184 0A       		.uleb128 0xa
 769 0185 E3020000 		.4byte	.LASF31
 770 0189 05       		.byte	0x5
 771 018a 88       		.byte	0x88
 772 018b 81000000 		.4byte	0x81
 773 018f 61       		.byte	0x61
 774 0190 0A       		.uleb128 0xa
 775 0191 8A000000 		.4byte	.LASF32
 776 0195 05       		.byte	0x5
 777 0196 89       		.byte	0x89
 778 0197 81000000 		.4byte	0x81
 779 019b 62       		.byte	0x62
 780 019c 0A       		.uleb128 0xa
 781 019d CD070000 		.4byte	.LASF33
 782 01a1 05       		.byte	0x5
 783 01a2 8A       		.byte	0x8a
 784 01a3 37030000 		.4byte	0x337
 785 01a7 63       		.byte	0x63
 786 01a8 0A       		.uleb128 0xa
 787 01a9 CC020000 		.4byte	.LASF34
 788 01ad 05       		.byte	0x5
 789 01ae 8B       		.byte	0x8b
 790 01af 47030000 		.4byte	0x347
 791 01b3 65       		.byte	0x65
 792 01b4 0A       		.uleb128 0xa
 793 01b5 24020000 		.4byte	.LASF35
 794 01b9 05       		.byte	0x5
 795 01ba 8C       		.byte	0x8c
 796 01bb 81000000 		.4byte	0x81
 797 01bf 79       		.byte	0x79
 798 01c0 0A       		.uleb128 0xa
 799 01c1 47060000 		.4byte	.LASF36
 800 01c5 05       		.byte	0x5
ARM GAS  C:\Users\Diego\AppData\Local\Temp\cctB0Z5v.s 			page 20


 801 01c6 8D       		.byte	0x8d
 802 01c7 5D030000 		.4byte	0x35d
 803 01cb 7A       		.byte	0x7a
 804 01cc 0A       		.uleb128 0xa
 805 01cd B0050000 		.4byte	.LASF37
 806 01d1 05       		.byte	0x5
 807 01d2 8E       		.byte	0x8e
 808 01d3 6D030000 		.4byte	0x36d
 809 01d7 7F       		.byte	0x7f
 810 01d8 0A       		.uleb128 0xa
 811 01d9 5A080000 		.4byte	.LASF38
 812 01dd 05       		.byte	0x5
 813 01de 8F       		.byte	0x8f
 814 01df 6D030000 		.4byte	0x36d
 815 01e3 85       		.byte	0x85
 816 01e4 0A       		.uleb128 0xa
 817 01e5 D3040000 		.4byte	.LASF39
 818 01e9 05       		.byte	0x5
 819 01ea 90       		.byte	0x90
 820 01eb 7D030000 		.4byte	0x37d
 821 01ef 8B       		.byte	0x8b
 822 01f0 0A       		.uleb128 0xa
 823 01f1 C9010000 		.4byte	.LASF40
 824 01f5 05       		.byte	0x5
 825 01f6 91       		.byte	0x91
 826 01f7 7D030000 		.4byte	0x37d
 827 01fb 99       		.byte	0x99
 828 01fc 0A       		.uleb128 0xa
 829 01fd E5030000 		.4byte	.LASF41
 830 0201 05       		.byte	0x5
 831 0202 92       		.byte	0x92
 832 0203 7D030000 		.4byte	0x37d
 833 0207 A7       		.byte	0xa7
 834 0208 0A       		.uleb128 0xa
 835 0209 61030000 		.4byte	.LASF42
 836 020d 05       		.byte	0x5
 837 020e 93       		.byte	0x93
 838 020f 7D030000 		.4byte	0x37d
 839 0213 B5       		.byte	0xb5
 840 0214 0A       		.uleb128 0xa
 841 0215 0A060000 		.4byte	.LASF43
 842 0219 05       		.byte	0x5
 843 021a 94       		.byte	0x94
 844 021b 7D030000 		.4byte	0x37d
 845 021f C3       		.byte	0xc3
 846 0220 0A       		.uleb128 0xa
 847 0221 AD040000 		.4byte	.LASF44
 848 0225 05       		.byte	0x5
 849 0226 95       		.byte	0x95
 850 0227 7D030000 		.4byte	0x37d
 851 022b D1       		.byte	0xd1
 852 022c 0A       		.uleb128 0xa
 853 022d 3C050000 		.4byte	.LASF45
 854 0231 05       		.byte	0x5
 855 0232 96       		.byte	0x96
 856 0233 8D030000 		.4byte	0x38d
 857 0237 DF       		.byte	0xdf
ARM GAS  C:\Users\Diego\AppData\Local\Temp\cctB0Z5v.s 			page 21


 858 0238 0A       		.uleb128 0xa
 859 0239 62020000 		.4byte	.LASF46
 860 023d 05       		.byte	0x5
 861 023e 97       		.byte	0x97
 862 023f 8D030000 		.4byte	0x38d
 863 0243 EA       		.byte	0xea
 864 0244 0A       		.uleb128 0xa
 865 0245 D8020000 		.4byte	.LASF47
 866 0249 05       		.byte	0x5
 867 024a 98       		.byte	0x98
 868 024b 8D030000 		.4byte	0x38d
 869 024f F5       		.byte	0xf5
 870 0250 0B       		.uleb128 0xb
 871 0251 21040000 		.4byte	.LASF48
 872 0255 05       		.byte	0x5
 873 0256 99       		.byte	0x99
 874 0257 81000000 		.4byte	0x81
 875 025b 0001     		.2byte	0x100
 876 025d 0B       		.uleb128 0xb
 877 025e 46030000 		.4byte	.LASF49
 878 0262 05       		.byte	0x5
 879 0263 9A       		.byte	0x9a
 880 0264 81000000 		.4byte	0x81
 881 0268 0101     		.2byte	0x101
 882 026a 0B       		.uleb128 0xb
 883 026b B9000000 		.4byte	.LASF50
 884 026f 05       		.byte	0x5
 885 0270 9B       		.byte	0x9b
 886 0271 81000000 		.4byte	0x81
 887 0275 0201     		.2byte	0x102
 888 0277 0B       		.uleb128 0xb
 889 0278 A4050000 		.4byte	.LASF51
 890 027c 05       		.byte	0x5
 891 027d 9C       		.byte	0x9c
 892 027e 81000000 		.4byte	0x81
 893 0282 0301     		.2byte	0x103
 894 0284 0B       		.uleb128 0xb
 895 0285 71030000 		.4byte	.LASF52
 896 0289 05       		.byte	0x5
 897 028a 9D       		.byte	0x9d
 898 028b 17030000 		.4byte	0x317
 899 028f 0401     		.2byte	0x104
 900 0291 0B       		.uleb128 0xb
 901 0292 56000000 		.4byte	.LASF53
 902 0296 05       		.byte	0x5
 903 0297 9E       		.byte	0x9e
 904 0298 17030000 		.4byte	0x317
 905 029c 0E01     		.2byte	0x10e
 906 029e 0B       		.uleb128 0xb
 907 029f 58030000 		.4byte	.LASF54
 908 02a3 05       		.byte	0x5
 909 02a4 9F       		.byte	0x9f
 910 02a5 17030000 		.4byte	0x317
 911 02a9 1801     		.2byte	0x118
 912 02ab 0B       		.uleb128 0xb
 913 02ac 48050000 		.4byte	.LASF55
 914 02b0 05       		.byte	0x5
ARM GAS  C:\Users\Diego\AppData\Local\Temp\cctB0Z5v.s 			page 22


 915 02b1 A0       		.byte	0xa0
 916 02b2 9D030000 		.4byte	0x39d
 917 02b6 2201     		.2byte	0x122
 918 02b8 0B       		.uleb128 0xb
 919 02b9 7C030000 		.4byte	.LASF56
 920 02bd 05       		.byte	0x5
 921 02be A1       		.byte	0xa1
 922 02bf 37030000 		.4byte	0x337
 923 02c3 3101     		.2byte	0x131
 924 02c5 0B       		.uleb128 0xb
 925 02c6 6E020000 		.4byte	.LASF57
 926 02ca 05       		.byte	0x5
 927 02cb A2       		.byte	0xa2
 928 02cc 81000000 		.4byte	0x81
 929 02d0 3301     		.2byte	0x133
 930 02d2 0B       		.uleb128 0xb
 931 02d3 AD060000 		.4byte	.LASF58
 932 02d7 05       		.byte	0x5
 933 02d8 A3       		.byte	0xa3
 934 02d9 81000000 		.4byte	0x81
 935 02dd 3401     		.2byte	0x134
 936 02df 0B       		.uleb128 0xb
 937 02e0 7C020000 		.4byte	.LASF59
 938 02e4 05       		.byte	0x5
 939 02e5 A4       		.byte	0xa4
 940 02e6 81000000 		.4byte	0x81
 941 02ea 3501     		.2byte	0x135
 942 02ec 0B       		.uleb128 0xb
 943 02ed 8F050000 		.4byte	.LASF60
 944 02f1 05       		.byte	0x5
 945 02f2 A5       		.byte	0xa5
 946 02f3 8D030000 		.4byte	0x38d
 947 02f7 3601     		.2byte	0x136
 948 02f9 0B       		.uleb128 0xb
 949 02fa EB070000 		.4byte	.LASF61
 950 02fe 05       		.byte	0x5
 951 02ff A6       		.byte	0xa6
 952 0300 8D030000 		.4byte	0x38d
 953 0304 4101     		.2byte	0x141
 954 0306 00       		.byte	0
 955 0307 07       		.uleb128 0x7
 956 0308 81000000 		.4byte	0x81
 957 030c 17030000 		.4byte	0x317
 958 0310 08       		.uleb128 0x8
 959 0311 DC000000 		.4byte	0xdc
 960 0315 18       		.byte	0x18
 961 0316 00       		.byte	0
 962 0317 07       		.uleb128 0x7
 963 0318 81000000 		.4byte	0x81
 964 031c 27030000 		.4byte	0x327
 965 0320 08       		.uleb128 0x8
 966 0321 DC000000 		.4byte	0xdc
 967 0325 09       		.byte	0x9
 968 0326 00       		.byte	0
 969 0327 07       		.uleb128 0x7
 970 0328 81000000 		.4byte	0x81
 971 032c 37030000 		.4byte	0x337
ARM GAS  C:\Users\Diego\AppData\Local\Temp\cctB0Z5v.s 			page 23


 972 0330 08       		.uleb128 0x8
 973 0331 DC000000 		.4byte	0xdc
 974 0335 14       		.byte	0x14
 975 0336 00       		.byte	0
 976 0337 07       		.uleb128 0x7
 977 0338 81000000 		.4byte	0x81
 978 033c 47030000 		.4byte	0x347
 979 0340 08       		.uleb128 0x8
 980 0341 DC000000 		.4byte	0xdc
 981 0345 01       		.byte	0x1
 982 0346 00       		.byte	0
 983 0347 07       		.uleb128 0x7
 984 0348 81000000 		.4byte	0x81
 985 034c 5D030000 		.4byte	0x35d
 986 0350 08       		.uleb128 0x8
 987 0351 DC000000 		.4byte	0xdc
 988 0355 01       		.byte	0x1
 989 0356 08       		.uleb128 0x8
 990 0357 DC000000 		.4byte	0xdc
 991 035b 09       		.byte	0x9
 992 035c 00       		.byte	0
 993 035d 07       		.uleb128 0x7
 994 035e 81000000 		.4byte	0x81
 995 0362 6D030000 		.4byte	0x36d
 996 0366 08       		.uleb128 0x8
 997 0367 DC000000 		.4byte	0xdc
 998 036b 04       		.byte	0x4
 999 036c 00       		.byte	0
 1000 036d 07       		.uleb128 0x7
 1001 036e 81000000 		.4byte	0x81
 1002 0372 7D030000 		.4byte	0x37d
 1003 0376 08       		.uleb128 0x8
 1004 0377 DC000000 		.4byte	0xdc
 1005 037b 05       		.byte	0x5
 1006 037c 00       		.byte	0
 1007 037d 07       		.uleb128 0x7
 1008 037e 81000000 		.4byte	0x81
 1009 0382 8D030000 		.4byte	0x38d
 1010 0386 08       		.uleb128 0x8
 1011 0387 DC000000 		.4byte	0xdc
 1012 038b 0D       		.byte	0xd
 1013 038c 00       		.byte	0
 1014 038d 07       		.uleb128 0x7
 1015 038e 81000000 		.4byte	0x81
 1016 0392 9D030000 		.4byte	0x39d
 1017 0396 08       		.uleb128 0x8
 1018 0397 DC000000 		.4byte	0xdc
 1019 039b 0A       		.byte	0xa
 1020 039c 00       		.byte	0
 1021 039d 07       		.uleb128 0x7
 1022 039e 81000000 		.4byte	0x81
 1023 03a2 AD030000 		.4byte	0x3ad
 1024 03a6 08       		.uleb128 0x8
 1025 03a7 DC000000 		.4byte	0xdc
 1026 03ab 0E       		.byte	0xe
 1027 03ac 00       		.byte	0
 1028 03ad 09       		.uleb128 0x9
ARM GAS  C:\Users\Diego\AppData\Local\Temp\cctB0Z5v.s 			page 24


 1029 03ae 8A080000 		.4byte	.LASF63
 1030 03b2 0601     		.2byte	0x106
 1031 03b4 05       		.byte	0x5
 1032 03b5 B7       		.byte	0xb7
 1033 03b6 5D040000 		.4byte	0x45d
 1034 03ba 0C       		.uleb128 0xc
 1035 03bb 64697200 		.ascii	"dir\000"
 1036 03bf 05       		.byte	0x5
 1037 03c0 B8       		.byte	0xb8
 1038 03c1 81000000 		.4byte	0x81
 1039 03c5 00       		.byte	0
 1040 03c6 0A       		.uleb128 0xa
 1041 03c7 BF020000 		.4byte	.LASF64
 1042 03cb 05       		.byte	0x5
 1043 03cc B9       		.byte	0xb9
 1044 03cd 5D040000 		.4byte	0x45d
 1045 03d1 01       		.byte	0x1
 1046 03d2 0A       		.uleb128 0xa
 1047 03d3 69080000 		.4byte	.LASF65
 1048 03d7 05       		.byte	0x5
 1049 03d8 BA       		.byte	0xba
 1050 03d9 79040000 		.4byte	0x479
 1051 03dd B5       		.byte	0xb5
 1052 03de 0A       		.uleb128 0xa
 1053 03df 98030000 		.4byte	.LASF66
 1054 03e3 05       		.byte	0x5
 1055 03e4 BB       		.byte	0xbb
 1056 03e5 7D030000 		.4byte	0x37d
 1057 03e9 D5       		.byte	0xd5
 1058 03ea 0A       		.uleb128 0xa
 1059 03eb D8070000 		.4byte	.LASF67
 1060 03ef 05       		.byte	0x5
 1061 03f0 BC       		.byte	0xbc
 1062 03f1 7D030000 		.4byte	0x37d
 1063 03f5 E3       		.byte	0xe3
 1064 03f6 0A       		.uleb128 0xa
 1065 03f7 B0030000 		.4byte	.LASF68
 1066 03fb 05       		.byte	0x5
 1067 03fc BD       		.byte	0xbd
 1068 03fd 7D030000 		.4byte	0x37d
 1069 0401 F1       		.byte	0xf1
 1070 0402 0A       		.uleb128 0xa
 1071 0403 38080000 		.4byte	.LASF69
 1072 0407 05       		.byte	0x5
 1073 0408 BE       		.byte	0xbe
 1074 0409 81000000 		.4byte	0x81
 1075 040d FF       		.byte	0xff
 1076 040e 0B       		.uleb128 0xb
 1077 040f A2060000 		.4byte	.LASF70
 1078 0413 05       		.byte	0x5
 1079 0414 BF       		.byte	0xbf
 1080 0415 81000000 		.4byte	0x81
 1081 0419 0001     		.2byte	0x100
 1082 041b 0B       		.uleb128 0xb
 1083 041c 9E010000 		.4byte	.LASF71
 1084 0420 05       		.byte	0x5
 1085 0421 C0       		.byte	0xc0
ARM GAS  C:\Users\Diego\AppData\Local\Temp\cctB0Z5v.s 			page 25


 1086 0422 81000000 		.4byte	0x81
 1087 0426 0101     		.2byte	0x101
 1088 0428 0B       		.uleb128 0xb
 1089 0429 BF050000 		.4byte	.LASF72
 1090 042d 05       		.byte	0x5
 1091 042e C1       		.byte	0xc1
 1092 042f 81000000 		.4byte	0x81
 1093 0433 0201     		.2byte	0x102
 1094 0435 0B       		.uleb128 0xb
 1095 0436 A6080000 		.4byte	.LASF73
 1096 043a 05       		.byte	0x5
 1097 043b C2       		.byte	0xc2
 1098 043c 81000000 		.4byte	0x81
 1099 0440 0301     		.2byte	0x103
 1100 0442 0B       		.uleb128 0xb
 1101 0443 30030000 		.4byte	.LASF74
 1102 0447 05       		.byte	0x5
 1103 0448 C3       		.byte	0xc3
 1104 0449 81000000 		.4byte	0x81
 1105 044d 0401     		.2byte	0x104
 1106 044f 0B       		.uleb128 0xb
 1107 0450 18010000 		.4byte	.LASF75
 1108 0454 05       		.byte	0x5
 1109 0455 C4       		.byte	0xc4
 1110 0456 81000000 		.4byte	0x81
 1111 045a 0501     		.2byte	0x105
 1112 045c 00       		.byte	0
 1113 045d 07       		.uleb128 0x7
 1114 045e 81000000 		.4byte	0x81
 1115 0462 79040000 		.4byte	0x479
 1116 0466 08       		.uleb128 0x8
 1117 0467 DC000000 		.4byte	0xdc
 1118 046b 03       		.byte	0x3
 1119 046c 08       		.uleb128 0x8
 1120 046d DC000000 		.4byte	0xdc
 1121 0471 02       		.byte	0x2
 1122 0472 08       		.uleb128 0x8
 1123 0473 DC000000 		.4byte	0xdc
 1124 0477 0E       		.byte	0xe
 1125 0478 00       		.byte	0
 1126 0479 07       		.uleb128 0x7
 1127 047a 81000000 		.4byte	0x81
 1128 047e 8F040000 		.4byte	0x48f
 1129 0482 08       		.uleb128 0x8
 1130 0483 DC000000 		.4byte	0xdc
 1131 0487 03       		.byte	0x3
 1132 0488 08       		.uleb128 0x8
 1133 0489 DC000000 		.4byte	0xdc
 1134 048d 07       		.byte	0x7
 1135 048e 00       		.byte	0
 1136 048f 09       		.uleb128 0x9
 1137 0490 B8070000 		.4byte	.LASF76
 1138 0494 1804     		.2byte	0x418
 1139 0496 05       		.byte	0x5
 1140 0497 C7       		.byte	0xc7
 1141 0498 C8040000 		.4byte	0x4c8
 1142 049c 0C       		.uleb128 0xc
ARM GAS  C:\Users\Diego\AppData\Local\Temp\cctB0Z5v.s 			page 26


 1143 049d 6100     		.ascii	"a\000"
 1144 049f 05       		.byte	0x5
 1145 04a0 C8       		.byte	0xc8
 1146 04a1 AD030000 		.4byte	0x3ad
 1147 04a5 00       		.byte	0
 1148 04a6 0D       		.uleb128 0xd
 1149 04a7 6200     		.ascii	"b\000"
 1150 04a9 05       		.byte	0x5
 1151 04aa C9       		.byte	0xc9
 1152 04ab AD030000 		.4byte	0x3ad
 1153 04af 0601     		.2byte	0x106
 1154 04b1 0D       		.uleb128 0xd
 1155 04b2 6300     		.ascii	"c\000"
 1156 04b4 05       		.byte	0x5
 1157 04b5 CA       		.byte	0xca
 1158 04b6 AD030000 		.4byte	0x3ad
 1159 04ba 0C02     		.2byte	0x20c
 1160 04bc 0D       		.uleb128 0xd
 1161 04bd 6400     		.ascii	"d\000"
 1162 04bf 05       		.byte	0x5
 1163 04c0 CB       		.byte	0xcb
 1164 04c1 AD030000 		.4byte	0x3ad
 1165 04c5 1203     		.2byte	0x312
 1166 04c7 00       		.byte	0
 1167 04c8 0E       		.uleb128 0xe
 1168 04c9 3F010000 		.4byte	.LASF81
 1169 04cd 01       		.byte	0x1
 1170 04ce 3B       		.byte	0x3b
 1171 04cf 81000000 		.4byte	0x81
 1172 04d3 00000000 		.4byte	.LFB63
 1173 04d7 46000000 		.4byte	.LFE63-.LFB63
 1174 04db 01       		.uleb128 0x1
 1175 04dc 9C       		.byte	0x9c
 1176 04dd 6F050000 		.4byte	0x56f
 1177 04e1 0F       		.uleb128 0xf
 1178 04e2 E6050000 		.4byte	.LASF77
 1179 04e6 01       		.byte	0x1
 1180 04e7 3B       		.byte	0x3b
 1181 04e8 81000000 		.4byte	0x81
 1182 04ec 00000000 		.4byte	.LLST0
 1183 04f0 0F       		.uleb128 0xf
 1184 04f1 05080000 		.4byte	.LASF78
 1185 04f5 01       		.byte	0x1
 1186 04f6 3B       		.byte	0x3b
 1187 04f7 81000000 		.4byte	0x81
 1188 04fb 1F000000 		.4byte	.LLST1
 1189 04ff 10       		.uleb128 0x10
 1190 0500 3F030000 		.4byte	.LASF79
 1191 0504 01       		.byte	0x1
 1192 0505 3C       		.byte	0x3c
 1193 0506 81000000 		.4byte	0x81
 1194 050a 3E000000 		.4byte	.LLST2
 1195 050e 11       		.uleb128 0x11
 1196 050f 3A030000 		.4byte	.LASF80
 1197 0513 01       		.byte	0x1
 1198 0514 3C       		.byte	0x3c
 1199 0515 37030000 		.4byte	0x337
ARM GAS  C:\Users\Diego\AppData\Local\Temp\cctB0Z5v.s 			page 27


 1200 0519 02       		.uleb128 0x2
 1201 051a 91       		.byte	0x91
 1202 051b 74       		.sleb128 -12
 1203 051c 12       		.uleb128 0x12
 1204 051d 6900     		.ascii	"i\000"
 1205 051f 01       		.byte	0x1
 1206 0520 3C       		.byte	0x3c
 1207 0521 81000000 		.4byte	0x81
 1208 0525 72000000 		.4byte	.LLST3
 1209 0529 13       		.uleb128 0x13
 1210 052a 10000000 		.4byte	.LVL1
 1211 052e DB0D0000 		.4byte	0xddb
 1212 0532 14       		.uleb128 0x14
 1213 0533 18000000 		.4byte	.LVL2
 1214 0537 E60D0000 		.4byte	0xde6
 1215 053b 4A050000 		.4byte	0x54a
 1216 053f 15       		.uleb128 0x15
 1217 0540 01       		.uleb128 0x1
 1218 0541 51       		.byte	0x51
 1219 0542 01       		.uleb128 0x1
 1220 0543 30       		.byte	0x30
 1221 0544 15       		.uleb128 0x15
 1222 0545 01       		.uleb128 0x1
 1223 0546 50       		.byte	0x50
 1224 0547 01       		.uleb128 0x1
 1225 0548 37       		.byte	0x37
 1226 0549 00       		.byte	0
 1227 054a 14       		.uleb128 0x14
 1228 054b 2A000000 		.4byte	.LVL6
 1229 054f 000E0000 		.4byte	0xe00
 1230 0553 65050000 		.4byte	0x565
 1231 0557 15       		.uleb128 0x15
 1232 0558 01       		.uleb128 0x1
 1233 0559 50       		.byte	0x50
 1234 055a 09       		.uleb128 0x9
 1235 055b 91       		.byte	0x91
 1236 055c 00       		.sleb128 0
 1237 055d 74       		.byte	0x74
 1238 055e 00       		.sleb128 0
 1239 055f 22       		.byte	0x22
 1240 0560 3C       		.byte	0x3c
 1241 0561 1C       		.byte	0x1c
 1242 0562 94       		.byte	0x94
 1243 0563 01       		.byte	0x1
 1244 0564 00       		.byte	0
 1245 0565 13       		.uleb128 0x13
 1246 0566 3C000000 		.4byte	.LVL11
 1247 056a 150E0000 		.4byte	0xe15
 1248 056e 00       		.byte	0
 1249 056f 16       		.uleb128 0x16
 1250 0570 93080000 		.4byte	.LASF83
 1251 0574 01       		.byte	0x1
 1252 0575 62       		.byte	0x62
 1253 0576 81000000 		.4byte	0x81
 1254 057a 00000000 		.4byte	.LFB64
 1255 057e 5C000000 		.4byte	.LFE64-.LFB64
 1256 0582 01       		.uleb128 0x1
ARM GAS  C:\Users\Diego\AppData\Local\Temp\cctB0Z5v.s 			page 28


 1257 0583 9C       		.byte	0x9c
 1258 0584 22060000 		.4byte	0x622
 1259 0588 10       		.uleb128 0x10
 1260 0589 3F030000 		.4byte	.LASF79
 1261 058d 01       		.byte	0x1
 1262 058e 63       		.byte	0x63
 1263 058f 81000000 		.4byte	0x81
 1264 0593 9B000000 		.4byte	.LLST4
 1265 0597 12       		.uleb128 0x12
 1266 0598 6900     		.ascii	"i\000"
 1267 059a 01       		.byte	0x1
 1268 059b 63       		.byte	0x63
 1269 059c 81000000 		.4byte	0x81
 1270 05a0 E5000000 		.4byte	.LLST5
 1271 05a4 13       		.uleb128 0x13
 1272 05a5 0A000000 		.4byte	.LVL16
 1273 05a9 DB0D0000 		.4byte	0xddb
 1274 05ad 14       		.uleb128 0x14
 1275 05ae 12000000 		.4byte	.LVL17
 1276 05b2 E60D0000 		.4byte	0xde6
 1277 05b6 C6050000 		.4byte	0x5c6
 1278 05ba 15       		.uleb128 0x15
 1279 05bb 01       		.uleb128 0x1
 1280 05bc 51       		.byte	0x51
 1281 05bd 01       		.uleb128 0x1
 1282 05be 30       		.byte	0x30
 1283 05bf 15       		.uleb128 0x15
 1284 05c0 01       		.uleb128 0x1
 1285 05c1 50       		.byte	0x50
 1286 05c2 02       		.uleb128 0x2
 1287 05c3 08       		.byte	0x8
 1288 05c4 68       		.byte	0x68
 1289 05c5 00       		.byte	0
 1290 05c6 14       		.uleb128 0x14
 1291 05c7 1A000000 		.4byte	.LVL19
 1292 05cb 000E0000 		.4byte	0xe00
 1293 05cf DA050000 		.4byte	0x5da
 1294 05d3 15       		.uleb128 0x15
 1295 05d4 01       		.uleb128 0x1
 1296 05d5 50       		.byte	0x50
 1297 05d6 02       		.uleb128 0x2
 1298 05d7 74       		.byte	0x74
 1299 05d8 00       		.sleb128 0
 1300 05d9 00       		.byte	0
 1301 05da 13       		.uleb128 0x13
 1302 05db 20000000 		.4byte	.LVL20
 1303 05df 150E0000 		.4byte	0xe15
 1304 05e3 14       		.uleb128 0x14
 1305 05e4 26000000 		.4byte	.LVL21
 1306 05e8 200E0000 		.4byte	0xe20
 1307 05ec F6050000 		.4byte	0x5f6
 1308 05f0 15       		.uleb128 0x15
 1309 05f1 01       		.uleb128 0x1
 1310 05f2 50       		.byte	0x50
 1311 05f3 01       		.uleb128 0x1
 1312 05f4 3A       		.byte	0x3a
 1313 05f5 00       		.byte	0
ARM GAS  C:\Users\Diego\AppData\Local\Temp\cctB0Z5v.s 			page 29


 1314 05f6 14       		.uleb128 0x14
 1315 05f7 2E000000 		.4byte	.LVL22
 1316 05fb E60D0000 		.4byte	0xde6
 1317 05ff 0F060000 		.4byte	0x60f
 1318 0603 15       		.uleb128 0x15
 1319 0604 01       		.uleb128 0x1
 1320 0605 51       		.byte	0x51
 1321 0606 01       		.uleb128 0x1
 1322 0607 31       		.byte	0x31
 1323 0608 15       		.uleb128 0x15
 1324 0609 01       		.uleb128 0x1
 1325 060a 50       		.byte	0x50
 1326 060b 02       		.uleb128 0x2
 1327 060c 08       		.byte	0x8
 1328 060d 68       		.byte	0x68
 1329 060e 00       		.byte	0
 1330 060f 13       		.uleb128 0x13
 1331 0610 36000000 		.4byte	.LVL23
 1332 0614 310E0000 		.4byte	0xe31
 1333 0618 13       		.uleb128 0x13
 1334 0619 3E000000 		.4byte	.LVL24
 1335 061d 150E0000 		.4byte	0xe15
 1336 0621 00       		.byte	0
 1337 0622 0E       		.uleb128 0xe
 1338 0623 6F010000 		.4byte	.LASF82
 1339 0627 01       		.byte	0x1
 1340 0628 92       		.byte	0x92
 1341 0629 81000000 		.4byte	0x81
 1342 062d 00000000 		.4byte	.LFB65
 1343 0631 5C000000 		.4byte	.LFE65-.LFB65
 1344 0635 01       		.uleb128 0x1
 1345 0636 9C       		.byte	0x9c
 1346 0637 AC060000 		.4byte	0x6ac
 1347 063b 10       		.uleb128 0x10
 1348 063c 3F030000 		.4byte	.LASF79
 1349 0640 01       		.byte	0x1
 1350 0641 93       		.byte	0x93
 1351 0642 81000000 		.4byte	0x81
 1352 0646 0F010000 		.4byte	.LLST6
 1353 064a 11       		.uleb128 0x11
 1354 064b 3A030000 		.4byte	.LASF80
 1355 064f 01       		.byte	0x1
 1356 0650 93       		.byte	0x93
 1357 0651 E3000000 		.4byte	0xe3
 1358 0655 02       		.uleb128 0x2
 1359 0656 91       		.byte	0x91
 1360 0657 74       		.sleb128 -12
 1361 0658 12       		.uleb128 0x12
 1362 0659 6900     		.ascii	"i\000"
 1363 065b 01       		.byte	0x1
 1364 065c 93       		.byte	0x93
 1365 065d 81000000 		.4byte	0x81
 1366 0661 43010000 		.4byte	.LLST7
 1367 0665 13       		.uleb128 0x13
 1368 0666 22000000 		.4byte	.LVL34
 1369 066a DB0D0000 		.4byte	0xddb
 1370 066e 14       		.uleb128 0x14
ARM GAS  C:\Users\Diego\AppData\Local\Temp\cctB0Z5v.s 			page 30


 1371 066f 2A000000 		.4byte	.LVL35
 1372 0673 E60D0000 		.4byte	0xde6
 1373 0677 87060000 		.4byte	0x687
 1374 067b 15       		.uleb128 0x15
 1375 067c 01       		.uleb128 0x1
 1376 067d 51       		.byte	0x51
 1377 067e 01       		.uleb128 0x1
 1378 067f 30       		.byte	0x30
 1379 0680 15       		.uleb128 0x15
 1380 0681 01       		.uleb128 0x1
 1381 0682 50       		.byte	0x50
 1382 0683 02       		.uleb128 0x2
 1383 0684 08       		.byte	0x8
 1384 0685 68       		.byte	0x68
 1385 0686 00       		.byte	0
 1386 0687 14       		.uleb128 0x14
 1387 0688 3C000000 		.4byte	.LVL39
 1388 068c 000E0000 		.4byte	0xe00
 1389 0690 A2060000 		.4byte	0x6a2
 1390 0694 15       		.uleb128 0x15
 1391 0695 01       		.uleb128 0x1
 1392 0696 50       		.byte	0x50
 1393 0697 09       		.uleb128 0x9
 1394 0698 91       		.byte	0x91
 1395 0699 00       		.sleb128 0
 1396 069a 74       		.byte	0x74
 1397 069b 00       		.sleb128 0
 1398 069c 22       		.byte	0x22
 1399 069d 3C       		.byte	0x3c
 1400 069e 1C       		.byte	0x1c
 1401 069f 94       		.byte	0x94
 1402 06a0 01       		.byte	0x1
 1403 06a1 00       		.byte	0
 1404 06a2 13       		.uleb128 0x13
 1405 06a3 4E000000 		.4byte	.LVL44
 1406 06a7 150E0000 		.4byte	0xe15
 1407 06ab 00       		.byte	0
 1408 06ac 16       		.uleb128 0x16
 1409 06ad 8E030000 		.4byte	.LASF84
 1410 06b1 01       		.byte	0x1
 1411 06b2 BB       		.byte	0xbb
 1412 06b3 81000000 		.4byte	0x81
 1413 06b7 00000000 		.4byte	.LFB66
 1414 06bb 5C000000 		.4byte	.LFE66-.LFB66
 1415 06bf 01       		.uleb128 0x1
 1416 06c0 9C       		.byte	0x9c
 1417 06c1 5F070000 		.4byte	0x75f
 1418 06c5 10       		.uleb128 0x10
 1419 06c6 3F030000 		.4byte	.LASF79
 1420 06ca 01       		.byte	0x1
 1421 06cb BC       		.byte	0xbc
 1422 06cc 81000000 		.4byte	0x81
 1423 06d0 6C010000 		.4byte	.LLST8
 1424 06d4 12       		.uleb128 0x12
 1425 06d5 6900     		.ascii	"i\000"
 1426 06d7 01       		.byte	0x1
 1427 06d8 BC       		.byte	0xbc
ARM GAS  C:\Users\Diego\AppData\Local\Temp\cctB0Z5v.s 			page 31


 1428 06d9 81000000 		.4byte	0x81
 1429 06dd B6010000 		.4byte	.LLST9
 1430 06e1 13       		.uleb128 0x13
 1431 06e2 0A000000 		.4byte	.LVL49
 1432 06e6 DB0D0000 		.4byte	0xddb
 1433 06ea 14       		.uleb128 0x14
 1434 06eb 12000000 		.4byte	.LVL50
 1435 06ef E60D0000 		.4byte	0xde6
 1436 06f3 03070000 		.4byte	0x703
 1437 06f7 15       		.uleb128 0x15
 1438 06f8 01       		.uleb128 0x1
 1439 06f9 51       		.byte	0x51
 1440 06fa 01       		.uleb128 0x1
 1441 06fb 30       		.byte	0x30
 1442 06fc 15       		.uleb128 0x15
 1443 06fd 01       		.uleb128 0x1
 1444 06fe 50       		.byte	0x50
 1445 06ff 02       		.uleb128 0x2
 1446 0700 08       		.byte	0x8
 1447 0701 68       		.byte	0x68
 1448 0702 00       		.byte	0
 1449 0703 14       		.uleb128 0x14
 1450 0704 1A000000 		.4byte	.LVL52
 1451 0708 000E0000 		.4byte	0xe00
 1452 070c 17070000 		.4byte	0x717
 1453 0710 15       		.uleb128 0x15
 1454 0711 01       		.uleb128 0x1
 1455 0712 50       		.byte	0x50
 1456 0713 02       		.uleb128 0x2
 1457 0714 74       		.byte	0x74
 1458 0715 00       		.sleb128 0
 1459 0716 00       		.byte	0
 1460 0717 13       		.uleb128 0x13
 1461 0718 20000000 		.4byte	.LVL53
 1462 071c 150E0000 		.4byte	0xe15
 1463 0720 14       		.uleb128 0x14
 1464 0721 26000000 		.4byte	.LVL54
 1465 0725 200E0000 		.4byte	0xe20
 1466 0729 33070000 		.4byte	0x733
 1467 072d 15       		.uleb128 0x15
 1468 072e 01       		.uleb128 0x1
 1469 072f 50       		.byte	0x50
 1470 0730 01       		.uleb128 0x1
 1471 0731 3A       		.byte	0x3a
 1472 0732 00       		.byte	0
 1473 0733 14       		.uleb128 0x14
 1474 0734 2E000000 		.4byte	.LVL55
 1475 0738 E60D0000 		.4byte	0xde6
 1476 073c 4C070000 		.4byte	0x74c
 1477 0740 15       		.uleb128 0x15
 1478 0741 01       		.uleb128 0x1
 1479 0742 51       		.byte	0x51
 1480 0743 01       		.uleb128 0x1
 1481 0744 31       		.byte	0x31
 1482 0745 15       		.uleb128 0x15
 1483 0746 01       		.uleb128 0x1
 1484 0747 50       		.byte	0x50
ARM GAS  C:\Users\Diego\AppData\Local\Temp\cctB0Z5v.s 			page 32


 1485 0748 02       		.uleb128 0x2
 1486 0749 08       		.byte	0x8
 1487 074a 68       		.byte	0x68
 1488 074b 00       		.byte	0
 1489 074c 13       		.uleb128 0x13
 1490 074d 36000000 		.4byte	.LVL56
 1491 0751 310E0000 		.4byte	0xe31
 1492 0755 13       		.uleb128 0x13
 1493 0756 3E000000 		.4byte	.LVL57
 1494 075a 150E0000 		.4byte	0xe15
 1495 075e 00       		.byte	0
 1496 075f 0E       		.uleb128 0xe
 1497 0760 0B050000 		.4byte	.LASF85
 1498 0764 01       		.byte	0x1
 1499 0765 EB       		.byte	0xeb
 1500 0766 81000000 		.4byte	0x81
 1501 076a 00000000 		.4byte	.LFB67
 1502 076e 58000000 		.4byte	.LFE67-.LFB67
 1503 0772 01       		.uleb128 0x1
 1504 0773 9C       		.byte	0x9c
 1505 0774 E9070000 		.4byte	0x7e9
 1506 0778 10       		.uleb128 0x10
 1507 0779 3F030000 		.4byte	.LASF79
 1508 077d 01       		.byte	0x1
 1509 077e EC       		.byte	0xec
 1510 077f 81000000 		.4byte	0x81
 1511 0783 E0010000 		.4byte	.LLST10
 1512 0787 11       		.uleb128 0x11
 1513 0788 3A030000 		.4byte	.LASF80
 1514 078c 01       		.byte	0x1
 1515 078d EC       		.byte	0xec
 1516 078e E9070000 		.4byte	0x7e9
 1517 0792 02       		.uleb128 0x2
 1518 0793 91       		.byte	0x91
 1519 0794 74       		.sleb128 -12
 1520 0795 12       		.uleb128 0x12
 1521 0796 6900     		.ascii	"i\000"
 1522 0798 01       		.byte	0x1
 1523 0799 EC       		.byte	0xec
 1524 079a 81000000 		.4byte	0x81
 1525 079e 14020000 		.4byte	.LLST11
 1526 07a2 13       		.uleb128 0x13
 1527 07a3 1C000000 		.4byte	.LVL67
 1528 07a7 DB0D0000 		.4byte	0xddb
 1529 07ab 14       		.uleb128 0x14
 1530 07ac 24000000 		.4byte	.LVL68
 1531 07b0 E60D0000 		.4byte	0xde6
 1532 07b4 C4070000 		.4byte	0x7c4
 1533 07b8 15       		.uleb128 0x15
 1534 07b9 01       		.uleb128 0x1
 1535 07ba 51       		.byte	0x51
 1536 07bb 01       		.uleb128 0x1
 1537 07bc 30       		.byte	0x30
 1538 07bd 15       		.uleb128 0x15
 1539 07be 01       		.uleb128 0x1
 1540 07bf 50       		.byte	0x50
 1541 07c0 02       		.uleb128 0x2
ARM GAS  C:\Users\Diego\AppData\Local\Temp\cctB0Z5v.s 			page 33


 1542 07c1 08       		.byte	0x8
 1543 07c2 68       		.byte	0x68
 1544 07c3 00       		.byte	0
 1545 07c4 14       		.uleb128 0x14
 1546 07c5 36000000 		.4byte	.LVL72
 1547 07c9 000E0000 		.4byte	0xe00
 1548 07cd DF070000 		.4byte	0x7df
 1549 07d1 15       		.uleb128 0x15
 1550 07d2 01       		.uleb128 0x1
 1551 07d3 50       		.byte	0x50
 1552 07d4 09       		.uleb128 0x9
 1553 07d5 91       		.byte	0x91
 1554 07d6 00       		.sleb128 0
 1555 07d7 74       		.byte	0x74
 1556 07d8 00       		.sleb128 0
 1557 07d9 22       		.byte	0x22
 1558 07da 3C       		.byte	0x3c
 1559 07db 1C       		.byte	0x1c
 1560 07dc 94       		.byte	0x94
 1561 07dd 01       		.byte	0x1
 1562 07de 00       		.byte	0
 1563 07df 13       		.uleb128 0x13
 1564 07e0 48000000 		.4byte	.LVL77
 1565 07e4 150E0000 		.4byte	0xe15
 1566 07e8 00       		.byte	0
 1567 07e9 07       		.uleb128 0x7
 1568 07ea 81000000 		.4byte	0x81
 1569 07ee F9070000 		.4byte	0x7f9
 1570 07f2 08       		.uleb128 0x8
 1571 07f3 DC000000 		.4byte	0xdc
 1572 07f7 02       		.byte	0x2
 1573 07f8 00       		.byte	0
 1574 07f9 17       		.uleb128 0x17
 1575 07fa 77050000 		.4byte	.LASF86
 1576 07fe 06       		.byte	0x6
 1577 07ff 5506     		.2byte	0x655
 1578 0801 05080000 		.4byte	0x805
 1579 0805 06       		.uleb128 0x6
 1580 0806 76000000 		.4byte	0x76
 1581 080a 18       		.uleb128 0x18
 1582 080b B8030000 		.4byte	.LASF87
 1583 080f 05       		.byte	0x5
 1584 0810 2C       		.byte	0x2c
 1585 0811 1B080000 		.4byte	0x81b
 1586 0815 05       		.uleb128 0x5
 1587 0816 03       		.byte	0x3
 1588 0817 00000000 		.4byte	countAnimation1
 1589 081b 06       		.uleb128 0x6
 1590 081c B3000000 		.4byte	0xb3
 1591 0820 18       		.uleb128 0x18
 1592 0821 F6030000 		.4byte	.LASF88
 1593 0825 05       		.byte	0x5
 1594 0826 2D       		.byte	0x2d
 1595 0827 1B080000 		.4byte	0x81b
 1596 082b 05       		.uleb128 0x5
 1597 082c 03       		.byte	0x3
 1598 082d 00000000 		.4byte	countAnimation2
ARM GAS  C:\Users\Diego\AppData\Local\Temp\cctB0Z5v.s 			page 34


 1599 0831 18       		.uleb128 0x18
 1600 0832 40000000 		.4byte	.LASF89
 1601 0836 05       		.byte	0x5
 1602 0837 2E       		.byte	0x2e
 1603 0838 1B080000 		.4byte	0x81b
 1604 083c 05       		.uleb128 0x5
 1605 083d 03       		.byte	0x3
 1606 083e 00000000 		.4byte	countRX
 1607 0842 18       		.uleb128 0x18
 1608 0843 10010000 		.4byte	.LASF90
 1609 0847 05       		.byte	0x5
 1610 0848 2F       		.byte	0x2f
 1611 0849 1B080000 		.4byte	0x81b
 1612 084d 05       		.uleb128 0x5
 1613 084e 03       		.byte	0x3
 1614 084f 00000000 		.4byte	countTX
 1615 0853 18       		.uleb128 0x18
 1616 0854 2E080000 		.4byte	.LASF91
 1617 0858 05       		.byte	0x5
 1618 0859 30       		.byte	0x30
 1619 085a 1B080000 		.4byte	0x81b
 1620 085e 05       		.uleb128 0x5
 1621 085f 03       		.byte	0x3
 1622 0860 00000000 		.4byte	countPump
 1623 0864 18       		.uleb128 0x18
 1624 0865 59020000 		.4byte	.LASF92
 1625 0869 05       		.byte	0x5
 1626 086a 31       		.byte	0x31
 1627 086b 1B080000 		.4byte	0x81b
 1628 086f 05       		.uleb128 0x5
 1629 0870 03       		.byte	0x3
 1630 0871 00000000 		.4byte	countLCD
 1631 0875 18       		.uleb128 0x18
 1632 0876 8B020000 		.4byte	.LASF93
 1633 087a 05       		.byte	0x5
 1634 087b 32       		.byte	0x32
 1635 087c D7000000 		.4byte	0xd7
 1636 0880 05       		.uleb128 0x5
 1637 0881 03       		.byte	0x3
 1638 0882 00000000 		.4byte	flowDisplay1
 1639 0886 18       		.uleb128 0x18
 1640 0887 98020000 		.4byte	.LASF94
 1641 088b 05       		.byte	0x5
 1642 088c 33       		.byte	0x33
 1643 088d D7000000 		.4byte	0xd7
 1644 0891 05       		.uleb128 0x5
 1645 0892 03       		.byte	0x3
 1646 0893 00000000 		.4byte	flowDisplay2
 1647 0897 18       		.uleb128 0x18
 1648 0898 A5020000 		.4byte	.LASF95
 1649 089c 05       		.byte	0x5
 1650 089d 34       		.byte	0x34
 1651 089e D7000000 		.4byte	0xd7
 1652 08a2 05       		.uleb128 0x5
 1653 08a3 03       		.byte	0x3
 1654 08a4 00000000 		.4byte	flowDisplay3
 1655 08a8 18       		.uleb128 0x18
ARM GAS  C:\Users\Diego\AppData\Local\Temp\cctB0Z5v.s 			page 35


 1656 08a9 B2020000 		.4byte	.LASF96
 1657 08ad 05       		.byte	0x5
 1658 08ae 35       		.byte	0x35
 1659 08af D7000000 		.4byte	0xd7
 1660 08b3 05       		.uleb128 0x5
 1661 08b4 03       		.byte	0x3
 1662 08b5 00000000 		.4byte	flowDisplay4
 1663 08b9 18       		.uleb128 0x18
 1664 08ba 0C030000 		.4byte	.LASF97
 1665 08be 05       		.byte	0x5
 1666 08bf 36       		.byte	0x36
 1667 08c0 D2000000 		.4byte	0xd2
 1668 08c4 05       		.uleb128 0x5
 1669 08c5 03       		.byte	0x3
 1670 08c6 00000000 		.4byte	numberKeys1
 1671 08ca 18       		.uleb128 0x18
 1672 08cb 18030000 		.4byte	.LASF98
 1673 08cf 05       		.byte	0x5
 1674 08d0 37       		.byte	0x37
 1675 08d1 D2000000 		.4byte	0xd2
 1676 08d5 05       		.uleb128 0x5
 1677 08d6 03       		.byte	0x3
 1678 08d7 00000000 		.4byte	numberKeys2
 1679 08db 18       		.uleb128 0x18
 1680 08dc E6040000 		.4byte	.LASF99
 1681 08e0 05       		.byte	0x5
 1682 08e1 38       		.byte	0x38
 1683 08e2 D2000000 		.4byte	0xd2
 1684 08e6 05       		.uleb128 0x5
 1685 08e7 03       		.byte	0x3
 1686 08e8 00000000 		.4byte	flagPoint1
 1687 08ec 18       		.uleb128 0x18
 1688 08ed 05010000 		.4byte	.LASF100
 1689 08f1 05       		.byte	0x5
 1690 08f2 39       		.byte	0x39
 1691 08f3 D2000000 		.4byte	0xd2
 1692 08f7 05       		.uleb128 0x5
 1693 08f8 03       		.byte	0x3
 1694 08f9 00000000 		.4byte	flagPoint2
 1695 08fd 18       		.uleb128 0x18
 1696 08fe 30020000 		.4byte	.LASF101
 1697 0902 05       		.byte	0x5
 1698 0903 3A       		.byte	0x3a
 1699 0904 D2000000 		.4byte	0xd2
 1700 0908 05       		.uleb128 0x5
 1701 0909 03       		.byte	0x3
 1702 090a 00000000 		.4byte	productNumber
 1703 090e 18       		.uleb128 0x18
 1704 090f 2B060000 		.4byte	.LASF102
 1705 0913 05       		.byte	0x5
 1706 0914 3B       		.byte	0x3b
 1707 0915 D7000000 		.4byte	0xd7
 1708 0919 05       		.uleb128 0x5
 1709 091a 03       		.byte	0x3
 1710 091b 00000000 		.4byte	delayPicture1
 1711 091f 18       		.uleb128 0x18
 1712 0920 39060000 		.4byte	.LASF103
ARM GAS  C:\Users\Diego\AppData\Local\Temp\cctB0Z5v.s 			page 36


 1713 0924 05       		.byte	0x5
 1714 0925 3C       		.byte	0x3c
 1715 0926 D7000000 		.4byte	0xd7
 1716 092a 05       		.uleb128 0x5
 1717 092b 03       		.byte	0x3
 1718 092c 00000000 		.4byte	delayPicture2
 1719 0930 18       		.uleb128 0x18
 1720 0931 CC040000 		.4byte	.LASF104
 1721 0935 05       		.byte	0x5
 1722 0936 3D       		.byte	0x3d
 1723 0937 D2000000 		.4byte	0xd2
 1724 093b 05       		.uleb128 0x5
 1725 093c 03       		.byte	0x3
 1726 093d 00000000 		.4byte	ppux10
 1727 0941 18       		.uleb128 0x18
 1728 0942 7D000000 		.4byte	.LASF105
 1729 0946 05       		.byte	0x5
 1730 0947 3E       		.byte	0x3e
 1731 0948 D2000000 		.4byte	0xd2
 1732 094c 05       		.uleb128 0x5
 1733 094d 03       		.byte	0x3
 1734 094e 00000000 		.4byte	decimalMoney
 1735 0952 18       		.uleb128 0x18
 1736 0953 19000000 		.4byte	.LASF106
 1737 0957 05       		.byte	0x5
 1738 0958 3F       		.byte	0x3f
 1739 0959 D2000000 		.4byte	0xd2
 1740 095d 05       		.uleb128 0x5
 1741 095e 03       		.byte	0x3
 1742 095f 00000000 		.4byte	decimalVolume
 1743 0963 18       		.uleb128 0x18
 1744 0964 03050000 		.4byte	.LASF107
 1745 0968 05       		.byte	0x5
 1746 0969 40       		.byte	0x40
 1747 096a 74090000 		.4byte	0x974
 1748 096e 05       		.uleb128 0x5
 1749 096f 03       		.byte	0x3
 1750 0970 00000000 		.4byte	symbols
 1751 0974 06       		.uleb128 0x6
 1752 0975 37030000 		.4byte	0x337
 1753 0979 18       		.uleb128 0x18
 1754 097a F1010000 		.4byte	.LASF108
 1755 097e 05       		.byte	0x5
 1756 097f 41       		.byte	0x41
 1757 0980 8A090000 		.4byte	0x98a
 1758 0984 05       		.uleb128 0x5
 1759 0985 03       		.byte	0x3
 1760 0986 00000000 		.4byte	time
 1761 098a 06       		.uleb128 0x6
 1762 098b E9070000 		.4byte	0x7e9
 1763 098f 18       		.uleb128 0x18
 1764 0990 2B030000 		.4byte	.LASF109
 1765 0994 05       		.byte	0x5
 1766 0995 42       		.byte	0x42
 1767 0996 A0090000 		.4byte	0x9a0
 1768 099a 05       		.uleb128 0x5
 1769 099b 03       		.byte	0x3
ARM GAS  C:\Users\Diego\AppData\Local\Temp\cctB0Z5v.s 			page 37


 1770 099c 00000000 		.4byte	date
 1771 09a0 06       		.uleb128 0x6
 1772 09a1 E9070000 		.4byte	0x7e9
 1773 09a5 18       		.uleb128 0x18
 1774 09a6 22010000 		.4byte	.LASF110
 1775 09aa 05       		.byte	0x5
 1776 09ab 43       		.byte	0x43
 1777 09ac B6090000 		.4byte	0x9b6
 1778 09b0 05       		.uleb128 0x5
 1779 09b1 03       		.byte	0x3
 1780 09b2 00000000 		.4byte	screen
 1781 09b6 06       		.uleb128 0x6
 1782 09b7 37030000 		.4byte	0x337
 1783 09bb 18       		.uleb128 0x18
 1784 09bc C8000000 		.4byte	.LASF111
 1785 09c0 05       		.byte	0x5
 1786 09c1 44       		.byte	0x44
 1787 09c2 CC090000 		.4byte	0x9cc
 1788 09c6 05       		.uleb128 0x5
 1789 09c7 03       		.byte	0x3
 1790 09c8 00000000 		.4byte	residue
 1791 09cc 06       		.uleb128 0x6
 1792 09cd 7D030000 		.4byte	0x37d
 1793 09d1 18       		.uleb128 0x18
 1794 09d2 3E020000 		.4byte	.LASF112
 1795 09d6 05       		.byte	0x5
 1796 09d7 45       		.byte	0x45
 1797 09d8 E2090000 		.4byte	0x9e2
 1798 09dc 05       		.uleb128 0x5
 1799 09dd 03       		.byte	0x3
 1800 09de 00000000 		.4byte	idSeller
 1801 09e2 06       		.uleb128 0x6
 1802 09e3 07030000 		.4byte	0x307
 1803 09e7 18       		.uleb128 0x18
 1804 09e8 97050000 		.4byte	.LASF113
 1805 09ec 05       		.byte	0x5
 1806 09ed 46       		.byte	0x46
 1807 09ee D2000000 		.4byte	0xd2
 1808 09f2 05       		.uleb128 0x5
 1809 09f3 03       		.byte	0x3
 1810 09f4 00000000 		.4byte	typeIdSeller
 1811 09f8 07       		.uleb128 0x7
 1812 09f9 81000000 		.4byte	0x81
 1813 09fd 080A0000 		.4byte	0xa08
 1814 0a01 08       		.uleb128 0x8
 1815 0a02 DC000000 		.4byte	0xdc
 1816 0a06 07       		.byte	0x7
 1817 0a07 00       		.byte	0
 1818 0a08 18       		.uleb128 0x18
 1819 0a09 FB050000 		.4byte	.LASF114
 1820 0a0d 05       		.byte	0x5
 1821 0a0e 47       		.byte	0x47
 1822 0a0f 190A0000 		.4byte	0xa19
 1823 0a13 05       		.uleb128 0x5
 1824 0a14 03       		.byte	0x3
 1825 0a15 00000000 		.4byte	passwordSeller
 1826 0a19 06       		.uleb128 0x6
ARM GAS  C:\Users\Diego\AppData\Local\Temp\cctB0Z5v.s 			page 38


 1827 0a1a F8090000 		.4byte	0x9f8
 1828 0a1e 18       		.uleb128 0x18
 1829 0a1f 35040000 		.4byte	.LASF115
 1830 0a23 05       		.byte	0x5
 1831 0a24 48       		.byte	0x48
 1832 0a25 D2000000 		.4byte	0xd2
 1833 0a29 05       		.uleb128 0x5
 1834 0a2a 03       		.byte	0x3
 1835 0a2b 00000000 		.4byte	flagResetMux
 1836 0a2f 18       		.uleb128 0x18
 1837 0a30 D5030000 		.4byte	.LASF116
 1838 0a34 05       		.byte	0x5
 1839 0a35 49       		.byte	0x49
 1840 0a36 D2000000 		.4byte	0xd2
 1841 0a3a 05       		.uleb128 0x5
 1842 0a3b 03       		.byte	0x3
 1843 0a3c 00000000 		.4byte	stateBeagleSoft
 1844 0a40 18       		.uleb128 0x18
 1845 0a41 27000000 		.4byte	.LASF117
 1846 0a45 05       		.byte	0x5
 1847 0a46 4A       		.byte	0x4a
 1848 0a47 510A0000 		.4byte	0xa51
 1849 0a4b 05       		.uleb128 0x5
 1850 0a4c 03       		.byte	0x3
 1851 0a4d 00000000 		.4byte	PrevStatePump
 1852 0a51 06       		.uleb128 0x6
 1853 0a52 E3000000 		.4byte	0xe3
 1854 0a56 18       		.uleb128 0x18
 1855 0a57 4B010000 		.4byte	.LASF118
 1856 0a5b 05       		.byte	0x5
 1857 0a5c 4B       		.byte	0x4b
 1858 0a5d D2000000 		.4byte	0xd2
 1859 0a61 05       		.uleb128 0x5
 1860 0a62 03       		.byte	0x3
 1861 0a63 00000000 		.4byte	PlateRequest
 1862 0a67 18       		.uleb128 0x18
 1863 0a68 70050000 		.4byte	.LASF119
 1864 0a6c 05       		.byte	0x5
 1865 0a6d 4C       		.byte	0x4c
 1866 0a6e 780A0000 		.4byte	0xa78
 1867 0a72 05       		.uleb128 0x5
 1868 0a73 03       		.byte	0x3
 1869 0a74 00000000 		.4byte	IDCast
 1870 0a78 06       		.uleb128 0x6
 1871 0a79 37030000 		.4byte	0x337
 1872 0a7d 18       		.uleb128 0x18
 1873 0a7e 85030000 		.4byte	.LASF120
 1874 0a82 05       		.byte	0x5
 1875 0a83 4D       		.byte	0x4d
 1876 0a84 D2000000 		.4byte	0xd2
 1877 0a88 05       		.uleb128 0x5
 1878 0a89 03       		.byte	0x3
 1879 0a8a 00000000 		.4byte	ActiveRF
 1880 0a8e 18       		.uleb128 0x18
 1881 0a8f 35010000 		.4byte	.LASF121
 1882 0a93 05       		.byte	0x5
 1883 0a94 4E       		.byte	0x4e
ARM GAS  C:\Users\Diego\AppData\Local\Temp\cctB0Z5v.s 			page 39


 1884 0a95 D2000000 		.4byte	0xd2
 1885 0a99 05       		.uleb128 0x5
 1886 0a9a 03       		.byte	0x3
 1887 0a9b 00000000 		.4byte	counterRF
 1888 0a9f 07       		.uleb128 0x7
 1889 0aa0 81000000 		.4byte	0x81
 1890 0aa4 AF0A0000 		.4byte	0xaaf
 1891 0aa8 08       		.uleb128 0x8
 1892 0aa9 DC000000 		.4byte	0xdc
 1893 0aad 1D       		.byte	0x1d
 1894 0aae 00       		.byte	0
 1895 0aaf 18       		.uleb128 0x18
 1896 0ab0 BD070000 		.4byte	.LASF122
 1897 0ab4 05       		.byte	0x5
 1898 0ab5 4F       		.byte	0x4f
 1899 0ab6 C00A0000 		.4byte	0xac0
 1900 0aba 05       		.uleb128 0x5
 1901 0abb 03       		.byte	0x3
 1902 0abc 00000000 		.4byte	temporal
 1903 0ac0 06       		.uleb128 0x6
 1904 0ac1 9F0A0000 		.4byte	0xa9f
 1905 0ac5 18       		.uleb128 0x18
 1906 0ac6 D0000000 		.4byte	.LASF123
 1907 0aca 05       		.byte	0x5
 1908 0acb 50       		.byte	0x50
 1909 0acc D60A0000 		.4byte	0xad6
 1910 0ad0 05       		.uleb128 0x5
 1911 0ad1 03       		.byte	0x3
 1912 0ad2 00000000 		.4byte	tempPreset
 1913 0ad6 06       		.uleb128 0x6
 1914 0ad7 F8090000 		.4byte	0x9f8
 1915 0adb 18       		.uleb128 0x18
 1916 0adc BF060000 		.4byte	.LASF124
 1917 0ae0 05       		.byte	0x5
 1918 0ae1 51       		.byte	0x51
 1919 0ae2 EC0A0000 		.4byte	0xaec
 1920 0ae6 05       		.uleb128 0x5
 1921 0ae7 03       		.byte	0x3
 1922 0ae8 00000000 		.4byte	tempPPU
 1923 0aec 06       		.uleb128 0x6
 1924 0aed 5D030000 		.4byte	0x35d
 1925 0af1 18       		.uleb128 0x18
 1926 0af2 68010000 		.4byte	.LASF125
 1927 0af6 05       		.byte	0x5
 1928 0af7 52       		.byte	0x52
 1929 0af8 D2000000 		.4byte	0xd2
 1930 0afc 05       		.uleb128 0x5
 1931 0afd 03       		.byte	0x3
 1932 0afe 00000000 		.4byte	CGrade
 1933 0b02 18       		.uleb128 0x18
 1934 0b03 7B010000 		.4byte	.LASF126
 1935 0b07 05       		.byte	0x5
 1936 0b08 53       		.byte	0x53
 1937 0b09 D2000000 		.4byte	0xd2
 1938 0b0d 05       		.uleb128 0x5
 1939 0b0e 03       		.byte	0x3
 1940 0b0f 00000000 		.4byte	ShiftState
ARM GAS  C:\Users\Diego\AppData\Local\Temp\cctB0Z5v.s 			page 40


 1941 0b13 18       		.uleb128 0x18
 1942 0b14 1B060000 		.4byte	.LASF127
 1943 0b18 05       		.byte	0x5
 1944 0b19 55       		.byte	0x55
 1945 0b1a 81000000 		.4byte	0x81
 1946 0b1e 05       		.uleb128 0x5
 1947 0b1f 03       		.byte	0x3
 1948 0b20 00000000 		.4byte	UnitType
 1949 0b24 18       		.uleb128 0x18
 1950 0b25 FB020000 		.4byte	.LASF128
 1951 0b29 05       		.byte	0x5
 1952 0b2a 55       		.byte	0x55
 1953 0b2b 81000000 		.4byte	0x81
 1954 0b2f 05       		.uleb128 0x5
 1955 0b30 03       		.byte	0x3
 1956 0b31 00000000 		.4byte	ConversionFactor
 1957 0b35 18       		.uleb128 0x18
 1958 0b36 86010000 		.4byte	.LASF129
 1959 0b3a 05       		.byte	0x5
 1960 0b3b 55       		.byte	0x55
 1961 0b3c 81000000 		.4byte	0x81
 1962 0b40 05       		.uleb128 0x5
 1963 0b41 03       		.byte	0x3
 1964 0b42 00000000 		.4byte	MoneyDec
 1965 0b46 18       		.uleb128 0x18
 1966 0b47 C6070000 		.4byte	.LASF130
 1967 0b4b 05       		.byte	0x5
 1968 0b4c 55       		.byte	0x55
 1969 0b4d 81000000 		.4byte	0x81
 1970 0b51 05       		.uleb128 0x5
 1971 0b52 03       		.byte	0x3
 1972 0b53 00000000 		.4byte	VolDec
 1973 0b57 18       		.uleb128 0x18
 1974 0b58 9B060000 		.4byte	.LASF131
 1975 0b5c 05       		.byte	0x5
 1976 0b5d 55       		.byte	0x55
 1977 0b5e 81000000 		.4byte	0x81
 1978 0b62 05       		.uleb128 0x5
 1979 0b63 03       		.byte	0x3
 1980 0b64 00000000 		.4byte	PPUDec
 1981 0b68 18       		.uleb128 0x18
 1982 0b69 E2000000 		.4byte	.LASF132
 1983 0b6d 05       		.byte	0x5
 1984 0b6e 55       		.byte	0x55
 1985 0b6f 81000000 		.4byte	0x81
 1986 0b73 05       		.uleb128 0x5
 1987 0b74 03       		.byte	0x3
 1988 0b75 00000000 		.4byte	DDMode
 1989 0b79 18       		.uleb128 0x18
 1990 0b7a 62000000 		.4byte	.LASF133
 1991 0b7e 05       		.byte	0x5
 1992 0b7f 56       		.byte	0x56
 1993 0b80 E3000000 		.4byte	0xe3
 1994 0b84 05       		.uleb128 0x5
 1995 0b85 03       		.byte	0x3
 1996 0b86 00000000 		.4byte	statePump
 1997 0b8a 18       		.uleb128 0x18
ARM GAS  C:\Users\Diego\AppData\Local\Temp\cctB0Z5v.s 			page 41


 1998 0b8b C8030000 		.4byte	.LASF134
 1999 0b8f 05       		.byte	0x5
 2000 0b90 57       		.byte	0x57
 2001 0b91 81000000 		.4byte	0x81
 2002 0b95 05       		.uleb128 0x5
 2003 0b96 03       		.byte	0x3
 2004 0b97 00000000 		.4byte	NumPositions
 2005 0b9b 18       		.uleb128 0x18
 2006 0b9c 50020000 		.4byte	.LASF135
 2007 0ba0 05       		.byte	0x5
 2008 0ba1 58       		.byte	0x58
 2009 0ba2 81000000 		.4byte	0x81
 2010 0ba6 05       		.uleb128 0x5
 2011 0ba7 03       		.byte	0x3
 2012 0ba8 00000000 		.4byte	lockTurn
 2013 0bac 18       		.uleb128 0x18
 2014 0bad EA010000 		.4byte	.LASF136
 2015 0bb1 05       		.byte	0x5
 2016 0bb2 59       		.byte	0x59
 2017 0bb3 81000000 		.4byte	0x81
 2018 0bb7 05       		.uleb128 0x5
 2019 0bb8 03       		.byte	0x3
 2020 0bb9 00000000 		.4byte	digits
 2021 0bbd 18       		.uleb128 0x18
 2022 0bbe 84050000 		.4byte	.LASF137
 2023 0bc2 05       		.byte	0x5
 2024 0bc3 5A       		.byte	0x5a
 2025 0bc4 81000000 		.4byte	0x81
 2026 0bc8 05       		.uleb128 0x5
 2027 0bc9 03       		.byte	0x3
 2028 0bca 00000000 		.4byte	hiddenKeys
 2029 0bce 18       		.uleb128 0x18
 2030 0bcf A3000000 		.4byte	.LASF138
 2031 0bd3 05       		.byte	0x5
 2032 0bd4 5B       		.byte	0x5b
 2033 0bd5 81000000 		.4byte	0x81
 2034 0bd9 05       		.uleb128 0x5
 2035 0bda 03       		.byte	0x3
 2036 0bdb 00000000 		.4byte	PrinterType
 2037 0bdf 07       		.uleb128 0x7
 2038 0be0 BF000000 		.4byte	0xbf
 2039 0be4 EF0B0000 		.4byte	0xbef
 2040 0be8 08       		.uleb128 0x8
 2041 0be9 DC000000 		.4byte	0xdc
 2042 0bed 05       		.byte	0x5
 2043 0bee 00       		.byte	0
 2044 0bef 18       		.uleb128 0x18
 2045 0bf0 68050000 		.4byte	.LASF139
 2046 0bf4 05       		.byte	0x5
 2047 0bf5 5C       		.byte	0x5c
 2048 0bf6 DF0B0000 		.4byte	0xbdf
 2049 0bfa 05       		.uleb128 0x5
 2050 0bfb 03       		.byte	0x3
 2051 0bfc 00000000 		.4byte	VolUnit
 2052 0c00 18       		.uleb128 0x18
 2053 0c01 2D050000 		.4byte	.LASF140
 2054 0c05 05       		.byte	0x5
ARM GAS  C:\Users\Diego\AppData\Local\Temp\cctB0Z5v.s 			page 42


 2055 0c06 5D       		.byte	0x5d
 2056 0c07 E9070000 		.4byte	0x7e9
 2057 0c0b 05       		.uleb128 0x5
 2058 0c0c 03       		.byte	0x3
 2059 0c0d 00000000 		.4byte	dateDownHandle
 2060 0c11 18       		.uleb128 0x18
 2061 0c12 06040000 		.4byte	.LASF141
 2062 0c16 05       		.byte	0x5
 2063 0c17 5E       		.byte	0x5e
 2064 0c18 37030000 		.4byte	0x337
 2065 0c1c 05       		.uleb128 0x5
 2066 0c1d 03       		.byte	0x3
 2067 0c1e 00000000 		.4byte	timeDownHandle
 2068 0c22 18       		.uleb128 0x18
 2069 0c23 0B080000 		.4byte	.LASF142
 2070 0c27 05       		.byte	0x5
 2071 0c28 5F       		.byte	0x5f
 2072 0c29 81000000 		.4byte	0x81
 2073 0c2d 05       		.uleb128 0x5
 2074 0c2e 03       		.byte	0x3
 2075 0c2f 00000000 		.4byte	count_protector
 2076 0c33 18       		.uleb128 0x18
 2077 0c34 08000000 		.4byte	.LASF143
 2078 0c38 05       		.byte	0x5
 2079 0c39 5F       		.byte	0x5f
 2080 0c3a 81000000 		.4byte	0x81
 2081 0c3e 05       		.uleb128 0x5
 2082 0c3f 03       		.byte	0x3
 2083 0c40 00000000 		.4byte	count_protector2
 2084 0c44 18       		.uleb128 0x18
 2085 0c45 DD010000 		.4byte	.LASF144
 2086 0c49 05       		.byte	0x5
 2087 0c4a 60       		.byte	0x60
 2088 0c4b 5D030000 		.4byte	0x35d
 2089 0c4f 05       		.uleb128 0x5
 2090 0c50 03       		.byte	0x3
 2091 0c51 00000000 		.4byte	configAccess
 2092 0c55 18       		.uleb128 0x18
 2093 0c56 29010000 		.4byte	.LASF145
 2094 0c5a 05       		.byte	0x5
 2095 0c5b 61       		.byte	0x61
 2096 0c5c 81000000 		.4byte	0x81
 2097 0c60 05       		.uleb128 0x5
 2098 0c61 03       		.byte	0x3
 2099 0c62 00000000 		.4byte	controlChar
 2100 0c66 07       		.uleb128 0x7
 2101 0c67 BF000000 		.4byte	0xbf
 2102 0c6b 760C0000 		.4byte	0xc76
 2103 0c6f 08       		.uleb128 0x8
 2104 0c70 DC000000 		.4byte	0xdc
 2105 0c74 04       		.byte	0x4
 2106 0c75 00       		.byte	0
 2107 0c76 18       		.uleb128 0x18
 2108 0c77 EE000000 		.4byte	.LASF146
 2109 0c7b 05       		.byte	0x5
 2110 0c7c 62       		.byte	0x62
 2111 0c7d 660C0000 		.4byte	0xc66
ARM GAS  C:\Users\Diego\AppData\Local\Temp\cctB0Z5v.s 			page 43


 2112 0c81 05       		.uleb128 0x5
 2113 0c82 03       		.byte	0x3
 2114 0c83 00000000 		.4byte	idStation
 2115 0c87 18       		.uleb128 0x18
 2116 0c88 9E080000 		.4byte	.LASF147
 2117 0c8c 05       		.byte	0x5
 2118 0c8d 63       		.byte	0x63
 2119 0c8e E9070000 		.4byte	0x7e9
 2120 0c92 05       		.uleb128 0x5
 2121 0c93 03       		.byte	0x3
 2122 0c94 00000000 		.4byte	pumpGap
 2123 0c98 18       		.uleb128 0x18
 2124 0c99 F6010000 		.4byte	.LASF148
 2125 0c9d 05       		.byte	0x5
 2126 0c9e 64       		.byte	0x64
 2127 0c9f 81000000 		.4byte	0x81
 2128 0ca3 05       		.uleb128 0x5
 2129 0ca4 03       		.byte	0x3
 2130 0ca5 00000000 		.4byte	printPortA
 2131 0ca9 18       		.uleb128 0x18
 2132 0caa 01020000 		.4byte	.LASF149
 2133 0cae 05       		.byte	0x5
 2134 0caf 65       		.byte	0x65
 2135 0cb0 81000000 		.4byte	0x81
 2136 0cb4 05       		.uleb128 0x5
 2137 0cb5 03       		.byte	0x3
 2138 0cb6 00000000 		.4byte	printPortB
 2139 0cba 07       		.uleb128 0x7
 2140 0cbb 81000000 		.4byte	0x81
 2141 0cbf CB0C0000 		.4byte	0xccb
 2142 0cc3 19       		.uleb128 0x19
 2143 0cc4 DC000000 		.4byte	0xdc
 2144 0cc8 FF01     		.2byte	0x1ff
 2145 0cca 00       		.byte	0
 2146 0ccb 18       		.uleb128 0x18
 2147 0ccc 73000000 		.4byte	.LASF150
 2148 0cd0 05       		.byte	0x5
 2149 0cd1 66       		.byte	0x66
 2150 0cd2 BA0C0000 		.4byte	0xcba
 2151 0cd6 05       		.uleb128 0x5
 2152 0cd7 03       		.byte	0x3
 2153 0cd8 00000000 		.4byte	buffer_rf
 2154 0cdc 18       		.uleb128 0x18
 2155 0cdd 58010000 		.4byte	.LASF151
 2156 0ce1 05       		.byte	0x5
 2157 0ce2 67       		.byte	0x67
 2158 0ce3 BA0C0000 		.4byte	0xcba
 2159 0ce7 05       		.uleb128 0x5
 2160 0ce8 03       		.byte	0x3
 2161 0ce9 00000000 		.4byte	buffer_tx
 2162 0ced 18       		.uleb128 0x18
 2163 0cee 84040000 		.4byte	.LASF152
 2164 0cf2 05       		.byte	0x5
 2165 0cf3 68       		.byte	0x68
 2166 0cf4 BA0C0000 		.4byte	0xcba
 2167 0cf8 05       		.uleb128 0x5
 2168 0cf9 03       		.byte	0x3
ARM GAS  C:\Users\Diego\AppData\Local\Temp\cctB0Z5v.s 			page 44


 2169 0cfa 00000000 		.4byte	buffer_txDisplay
 2170 0cfe 18       		.uleb128 0x18
 2171 0cff D9050000 		.4byte	.LASF153
 2172 0d03 05       		.byte	0x5
 2173 0d04 69       		.byte	0x69
 2174 0d05 8D000000 		.4byte	0x8d
 2175 0d09 05       		.uleb128 0x5
 2176 0d0a 03       		.byte	0x3
 2177 0d0b 00000000 		.4byte	intIDStation
 2178 0d0f 18       		.uleb128 0x18
 2179 0d10 50060000 		.4byte	.LASF154
 2180 0d14 05       		.byte	0x5
 2181 0d15 6A       		.byte	0x6a
 2182 0d16 9F0A0000 		.4byte	0xa9f
 2183 0d1a 05       		.uleb128 0x5
 2184 0d1b 03       		.byte	0x3
 2185 0d1c 00000000 		.4byte	Encabezado1
 2186 0d20 18       		.uleb128 0x18
 2187 0d21 5C060000 		.4byte	.LASF155
 2188 0d25 05       		.byte	0x5
 2189 0d26 6B       		.byte	0x6b
 2190 0d27 9F0A0000 		.4byte	0xa9f
 2191 0d2b 05       		.uleb128 0x5
 2192 0d2c 03       		.byte	0x3
 2193 0d2d 00000000 		.4byte	Encabezado2
 2194 0d31 18       		.uleb128 0x18
 2195 0d32 68060000 		.4byte	.LASF156
 2196 0d36 05       		.byte	0x5
 2197 0d37 6C       		.byte	0x6c
 2198 0d38 9F0A0000 		.4byte	0xa9f
 2199 0d3c 05       		.uleb128 0x5
 2200 0d3d 03       		.byte	0x3
 2201 0d3e 00000000 		.4byte	Encabezado3
 2202 0d42 18       		.uleb128 0x18
 2203 0d43 74060000 		.4byte	.LASF157
 2204 0d47 05       		.byte	0x5
 2205 0d48 6D       		.byte	0x6d
 2206 0d49 9F0A0000 		.4byte	0xa9f
 2207 0d4d 05       		.uleb128 0x5
 2208 0d4e 03       		.byte	0x3
 2209 0d4f 00000000 		.4byte	Encabezado4
 2210 0d53 18       		.uleb128 0x18
 2211 0d54 ED050000 		.4byte	.LASF158
 2212 0d58 05       		.byte	0x5
 2213 0d59 6E       		.byte	0x6e
 2214 0d5a 81000000 		.4byte	0x81
 2215 0d5e 05       		.uleb128 0x5
 2216 0d5f 03       		.byte	0x3
 2217 0d60 00000000 		.4byte	CopiasCredito
 2218 0d64 18       		.uleb128 0x18
 2219 0d65 35000000 		.4byte	.LASF159
 2220 0d69 05       		.byte	0x5
 2221 0d6a 6F       		.byte	0x6f
 2222 0d6b 5D030000 		.4byte	0x35d
 2223 0d6f 05       		.uleb128 0x5
 2224 0d70 03       		.byte	0x3
 2225 0d71 00000000 		.4byte	GradesHose
ARM GAS  C:\Users\Diego\AppData\Local\Temp\cctB0Z5v.s 			page 45


 2226 0d75 18       		.uleb128 0x18
 2227 0d76 48000000 		.4byte	.LASF160
 2228 0d7a 05       		.byte	0x5
 2229 0d7b 70       		.byte	0x70
 2230 0d7c 81000000 		.4byte	0x81
 2231 0d80 05       		.uleb128 0x5
 2232 0d81 03       		.byte	0x3
 2233 0d82 00000000 		.4byte	RFstateReport
 2234 0d86 18       		.uleb128 0x18
 2235 0d87 8F010000 		.4byte	.LASF161
 2236 0d8b 05       		.byte	0x5
 2237 0d8c A9       		.byte	0xa9
 2238 0d8d F3000000 		.4byte	0xf3
 2239 0d91 05       		.uleb128 0x5
 2240 0d92 03       		.byte	0x3
 2241 0d93 00000000 		.4byte	bufferDisplay1
 2242 0d97 18       		.uleb128 0x18
 2243 0d98 CA050000 		.4byte	.LASF162
 2244 0d9c 05       		.byte	0x5
 2245 0d9d AA       		.byte	0xaa
 2246 0d9e F3000000 		.4byte	0xf3
 2247 0da2 05       		.uleb128 0x5
 2248 0da3 03       		.byte	0x3
 2249 0da4 00000000 		.4byte	bufferDisplay2
 2250 0da8 18       		.uleb128 0x18
 2251 0da9 A3010000 		.4byte	.LASF163
 2252 0dad 05       		.byte	0x5
 2253 0dae AB       		.byte	0xab
 2254 0daf F3000000 		.4byte	0xf3
 2255 0db3 05       		.uleb128 0x5
 2256 0db4 03       		.byte	0x3
 2257 0db5 00000000 		.4byte	bufferDisplay3
 2258 0db9 18       		.uleb128 0x18
 2259 0dba AE080000 		.4byte	.LASF164
 2260 0dbe 05       		.byte	0x5
 2261 0dbf AC       		.byte	0xac
 2262 0dc0 F3000000 		.4byte	0xf3
 2263 0dc4 05       		.uleb128 0x5
 2264 0dc5 03       		.byte	0x3
 2265 0dc6 00000000 		.4byte	bufferDisplay4
 2266 0dca 18       		.uleb128 0x18
 2267 0dcb E9000000 		.4byte	.LASF165
 2268 0dcf 05       		.byte	0x5
 2269 0dd0 CE       		.byte	0xce
 2270 0dd1 8F040000 		.4byte	0x48f
 2271 0dd5 05       		.uleb128 0x5
 2272 0dd6 03       		.byte	0x3
 2273 0dd7 00000000 		.4byte	side
 2274 0ddb 1A       		.uleb128 0x1a
 2275 0ddc DE060000 		.4byte	.LASF168
 2276 0de0 07       		.byte	0x7
 2277 0de1 BD       		.byte	0xbd
 2278 0de2 81000000 		.4byte	0x81
 2279 0de6 1B       		.uleb128 0x1b
 2280 0de7 95040000 		.4byte	.LASF166
 2281 0deb 07       		.byte	0x7
 2282 0dec CA       		.byte	0xca
ARM GAS  C:\Users\Diego\AppData\Local\Temp\cctB0Z5v.s 			page 46


 2283 0ded 81000000 		.4byte	0x81
 2284 0df1 000E0000 		.4byte	0xe00
 2285 0df5 1C       		.uleb128 0x1c
 2286 0df6 81000000 		.4byte	0x81
 2287 0dfa 1C       		.uleb128 0x1c
 2288 0dfb 81000000 		.4byte	0x81
 2289 0dff 00       		.byte	0
 2290 0e00 1B       		.uleb128 0x1b
 2291 0e01 0C020000 		.4byte	.LASF167
 2292 0e05 07       		.byte	0x7
 2293 0e06 CF       		.byte	0xcf
 2294 0e07 81000000 		.4byte	0x81
 2295 0e0b 150E0000 		.4byte	0xe15
 2296 0e0f 1C       		.uleb128 0x1c
 2297 0e10 81000000 		.4byte	0x81
 2298 0e14 00       		.byte	0
 2299 0e15 1A       		.uleb128 0x1a
 2300 0e16 C7060000 		.4byte	.LASF169
 2301 0e1a 07       		.byte	0x7
 2302 0e1b CE       		.byte	0xce
 2303 0e1c 81000000 		.4byte	0x81
 2304 0e20 1D       		.uleb128 0x1d
 2305 0e21 00000000 		.4byte	.LASF170
 2306 0e25 08       		.byte	0x8
 2307 0e26 77       		.byte	0x77
 2308 0e27 310E0000 		.4byte	0xe31
 2309 0e2b 1C       		.uleb128 0x1c
 2310 0e2c 99000000 		.4byte	0x99
 2311 0e30 00       		.byte	0
 2312 0e31 1E       		.uleb128 0x1e
 2313 0e32 16050000 		.4byte	.LASF171
 2314 0e36 07       		.byte	0x7
 2315 0e37 D0       		.byte	0xd0
 2316 0e38 81000000 		.4byte	0x81
 2317 0e3c 1C       		.uleb128 0x1c
 2318 0e3d 81000000 		.4byte	0x81
 2319 0e41 00       		.byte	0
 2320 0e42 00       		.byte	0
 2321              		.section	.debug_abbrev,"",%progbits
 2322              	.Ldebug_abbrev0:
 2323 0000 01       		.uleb128 0x1
 2324 0001 11       		.uleb128 0x11
 2325 0002 01       		.byte	0x1
 2326 0003 25       		.uleb128 0x25
 2327 0004 0E       		.uleb128 0xe
 2328 0005 13       		.uleb128 0x13
 2329 0006 0B       		.uleb128 0xb
 2330 0007 03       		.uleb128 0x3
 2331 0008 0E       		.uleb128 0xe
 2332 0009 1B       		.uleb128 0x1b
 2333 000a 0E       		.uleb128 0xe
 2334 000b 55       		.uleb128 0x55
 2335 000c 17       		.uleb128 0x17
 2336 000d 11       		.uleb128 0x11
 2337 000e 01       		.uleb128 0x1
 2338 000f 10       		.uleb128 0x10
 2339 0010 17       		.uleb128 0x17
ARM GAS  C:\Users\Diego\AppData\Local\Temp\cctB0Z5v.s 			page 47


 2340 0011 00       		.byte	0
 2341 0012 00       		.byte	0
 2342 0013 02       		.uleb128 0x2
 2343 0014 24       		.uleb128 0x24
 2344 0015 00       		.byte	0
 2345 0016 0B       		.uleb128 0xb
 2346 0017 0B       		.uleb128 0xb
 2347 0018 3E       		.uleb128 0x3e
 2348 0019 0B       		.uleb128 0xb
 2349 001a 03       		.uleb128 0x3
 2350 001b 0E       		.uleb128 0xe
 2351 001c 00       		.byte	0
 2352 001d 00       		.byte	0
 2353 001e 03       		.uleb128 0x3
 2354 001f 16       		.uleb128 0x16
 2355 0020 00       		.byte	0
 2356 0021 03       		.uleb128 0x3
 2357 0022 0E       		.uleb128 0xe
 2358 0023 3A       		.uleb128 0x3a
 2359 0024 0B       		.uleb128 0xb
 2360 0025 3B       		.uleb128 0x3b
 2361 0026 0B       		.uleb128 0xb
 2362 0027 49       		.uleb128 0x49
 2363 0028 13       		.uleb128 0x13
 2364 0029 00       		.byte	0
 2365 002a 00       		.byte	0
 2366 002b 04       		.uleb128 0x4
 2367 002c 24       		.uleb128 0x24
 2368 002d 00       		.byte	0
 2369 002e 0B       		.uleb128 0xb
 2370 002f 0B       		.uleb128 0xb
 2371 0030 3E       		.uleb128 0x3e
 2372 0031 0B       		.uleb128 0xb
 2373 0032 03       		.uleb128 0x3
 2374 0033 08       		.uleb128 0x8
 2375 0034 00       		.byte	0
 2376 0035 00       		.byte	0
 2377 0036 05       		.uleb128 0x5
 2378 0037 16       		.uleb128 0x16
 2379 0038 00       		.byte	0
 2380 0039 03       		.uleb128 0x3
 2381 003a 0E       		.uleb128 0xe
 2382 003b 3A       		.uleb128 0x3a
 2383 003c 0B       		.uleb128 0xb
 2384 003d 3B       		.uleb128 0x3b
 2385 003e 05       		.uleb128 0x5
 2386 003f 49       		.uleb128 0x49
 2387 0040 13       		.uleb128 0x13
 2388 0041 00       		.byte	0
 2389 0042 00       		.byte	0
 2390 0043 06       		.uleb128 0x6
 2391 0044 35       		.uleb128 0x35
 2392 0045 00       		.byte	0
 2393 0046 49       		.uleb128 0x49
 2394 0047 13       		.uleb128 0x13
 2395 0048 00       		.byte	0
 2396 0049 00       		.byte	0
ARM GAS  C:\Users\Diego\AppData\Local\Temp\cctB0Z5v.s 			page 48


 2397 004a 07       		.uleb128 0x7
 2398 004b 01       		.uleb128 0x1
 2399 004c 01       		.byte	0x1
 2400 004d 49       		.uleb128 0x49
 2401 004e 13       		.uleb128 0x13
 2402 004f 01       		.uleb128 0x1
 2403 0050 13       		.uleb128 0x13
 2404 0051 00       		.byte	0
 2405 0052 00       		.byte	0
 2406 0053 08       		.uleb128 0x8
 2407 0054 21       		.uleb128 0x21
 2408 0055 00       		.byte	0
 2409 0056 49       		.uleb128 0x49
 2410 0057 13       		.uleb128 0x13
 2411 0058 2F       		.uleb128 0x2f
 2412 0059 0B       		.uleb128 0xb
 2413 005a 00       		.byte	0
 2414 005b 00       		.byte	0
 2415 005c 09       		.uleb128 0x9
 2416 005d 13       		.uleb128 0x13
 2417 005e 01       		.byte	0x1
 2418 005f 03       		.uleb128 0x3
 2419 0060 0E       		.uleb128 0xe
 2420 0061 0B       		.uleb128 0xb
 2421 0062 05       		.uleb128 0x5
 2422 0063 3A       		.uleb128 0x3a
 2423 0064 0B       		.uleb128 0xb
 2424 0065 3B       		.uleb128 0x3b
 2425 0066 0B       		.uleb128 0xb
 2426 0067 01       		.uleb128 0x1
 2427 0068 13       		.uleb128 0x13
 2428 0069 00       		.byte	0
 2429 006a 00       		.byte	0
 2430 006b 0A       		.uleb128 0xa
 2431 006c 0D       		.uleb128 0xd
 2432 006d 00       		.byte	0
 2433 006e 03       		.uleb128 0x3
 2434 006f 0E       		.uleb128 0xe
 2435 0070 3A       		.uleb128 0x3a
 2436 0071 0B       		.uleb128 0xb
 2437 0072 3B       		.uleb128 0x3b
 2438 0073 0B       		.uleb128 0xb
 2439 0074 49       		.uleb128 0x49
 2440 0075 13       		.uleb128 0x13
 2441 0076 38       		.uleb128 0x38
 2442 0077 0B       		.uleb128 0xb
 2443 0078 00       		.byte	0
 2444 0079 00       		.byte	0
 2445 007a 0B       		.uleb128 0xb
 2446 007b 0D       		.uleb128 0xd
 2447 007c 00       		.byte	0
 2448 007d 03       		.uleb128 0x3
 2449 007e 0E       		.uleb128 0xe
 2450 007f 3A       		.uleb128 0x3a
 2451 0080 0B       		.uleb128 0xb
 2452 0081 3B       		.uleb128 0x3b
 2453 0082 0B       		.uleb128 0xb
ARM GAS  C:\Users\Diego\AppData\Local\Temp\cctB0Z5v.s 			page 49


 2454 0083 49       		.uleb128 0x49
 2455 0084 13       		.uleb128 0x13
 2456 0085 38       		.uleb128 0x38
 2457 0086 05       		.uleb128 0x5
 2458 0087 00       		.byte	0
 2459 0088 00       		.byte	0
 2460 0089 0C       		.uleb128 0xc
 2461 008a 0D       		.uleb128 0xd
 2462 008b 00       		.byte	0
 2463 008c 03       		.uleb128 0x3
 2464 008d 08       		.uleb128 0x8
 2465 008e 3A       		.uleb128 0x3a
 2466 008f 0B       		.uleb128 0xb
 2467 0090 3B       		.uleb128 0x3b
 2468 0091 0B       		.uleb128 0xb
 2469 0092 49       		.uleb128 0x49
 2470 0093 13       		.uleb128 0x13
 2471 0094 38       		.uleb128 0x38
 2472 0095 0B       		.uleb128 0xb
 2473 0096 00       		.byte	0
 2474 0097 00       		.byte	0
 2475 0098 0D       		.uleb128 0xd
 2476 0099 0D       		.uleb128 0xd
 2477 009a 00       		.byte	0
 2478 009b 03       		.uleb128 0x3
 2479 009c 08       		.uleb128 0x8
 2480 009d 3A       		.uleb128 0x3a
 2481 009e 0B       		.uleb128 0xb
 2482 009f 3B       		.uleb128 0x3b
 2483 00a0 0B       		.uleb128 0xb
 2484 00a1 49       		.uleb128 0x49
 2485 00a2 13       		.uleb128 0x13
 2486 00a3 38       		.uleb128 0x38
 2487 00a4 05       		.uleb128 0x5
 2488 00a5 00       		.byte	0
 2489 00a6 00       		.byte	0
 2490 00a7 0E       		.uleb128 0xe
 2491 00a8 2E       		.uleb128 0x2e
 2492 00a9 01       		.byte	0x1
 2493 00aa 3F       		.uleb128 0x3f
 2494 00ab 19       		.uleb128 0x19
 2495 00ac 03       		.uleb128 0x3
 2496 00ad 0E       		.uleb128 0xe
 2497 00ae 3A       		.uleb128 0x3a
 2498 00af 0B       		.uleb128 0xb
 2499 00b0 3B       		.uleb128 0x3b
 2500 00b1 0B       		.uleb128 0xb
 2501 00b2 27       		.uleb128 0x27
 2502 00b3 19       		.uleb128 0x19
 2503 00b4 49       		.uleb128 0x49
 2504 00b5 13       		.uleb128 0x13
 2505 00b6 11       		.uleb128 0x11
 2506 00b7 01       		.uleb128 0x1
 2507 00b8 12       		.uleb128 0x12
 2508 00b9 06       		.uleb128 0x6
 2509 00ba 40       		.uleb128 0x40
 2510 00bb 18       		.uleb128 0x18
ARM GAS  C:\Users\Diego\AppData\Local\Temp\cctB0Z5v.s 			page 50


 2511 00bc 9742     		.uleb128 0x2117
 2512 00be 19       		.uleb128 0x19
 2513 00bf 01       		.uleb128 0x1
 2514 00c0 13       		.uleb128 0x13
 2515 00c1 00       		.byte	0
 2516 00c2 00       		.byte	0
 2517 00c3 0F       		.uleb128 0xf
 2518 00c4 05       		.uleb128 0x5
 2519 00c5 00       		.byte	0
 2520 00c6 03       		.uleb128 0x3
 2521 00c7 0E       		.uleb128 0xe
 2522 00c8 3A       		.uleb128 0x3a
 2523 00c9 0B       		.uleb128 0xb
 2524 00ca 3B       		.uleb128 0x3b
 2525 00cb 0B       		.uleb128 0xb
 2526 00cc 49       		.uleb128 0x49
 2527 00cd 13       		.uleb128 0x13
 2528 00ce 02       		.uleb128 0x2
 2529 00cf 17       		.uleb128 0x17
 2530 00d0 00       		.byte	0
 2531 00d1 00       		.byte	0
 2532 00d2 10       		.uleb128 0x10
 2533 00d3 34       		.uleb128 0x34
 2534 00d4 00       		.byte	0
 2535 00d5 03       		.uleb128 0x3
 2536 00d6 0E       		.uleb128 0xe
 2537 00d7 3A       		.uleb128 0x3a
 2538 00d8 0B       		.uleb128 0xb
 2539 00d9 3B       		.uleb128 0x3b
 2540 00da 0B       		.uleb128 0xb
 2541 00db 49       		.uleb128 0x49
 2542 00dc 13       		.uleb128 0x13
 2543 00dd 02       		.uleb128 0x2
 2544 00de 17       		.uleb128 0x17
 2545 00df 00       		.byte	0
 2546 00e0 00       		.byte	0
 2547 00e1 11       		.uleb128 0x11
 2548 00e2 34       		.uleb128 0x34
 2549 00e3 00       		.byte	0
 2550 00e4 03       		.uleb128 0x3
 2551 00e5 0E       		.uleb128 0xe
 2552 00e6 3A       		.uleb128 0x3a
 2553 00e7 0B       		.uleb128 0xb
 2554 00e8 3B       		.uleb128 0x3b
 2555 00e9 0B       		.uleb128 0xb
 2556 00ea 49       		.uleb128 0x49
 2557 00eb 13       		.uleb128 0x13
 2558 00ec 02       		.uleb128 0x2
 2559 00ed 18       		.uleb128 0x18
 2560 00ee 00       		.byte	0
 2561 00ef 00       		.byte	0
 2562 00f0 12       		.uleb128 0x12
 2563 00f1 34       		.uleb128 0x34
 2564 00f2 00       		.byte	0
 2565 00f3 03       		.uleb128 0x3
 2566 00f4 08       		.uleb128 0x8
 2567 00f5 3A       		.uleb128 0x3a
ARM GAS  C:\Users\Diego\AppData\Local\Temp\cctB0Z5v.s 			page 51


 2568 00f6 0B       		.uleb128 0xb
 2569 00f7 3B       		.uleb128 0x3b
 2570 00f8 0B       		.uleb128 0xb
 2571 00f9 49       		.uleb128 0x49
 2572 00fa 13       		.uleb128 0x13
 2573 00fb 02       		.uleb128 0x2
 2574 00fc 17       		.uleb128 0x17
 2575 00fd 00       		.byte	0
 2576 00fe 00       		.byte	0
 2577 00ff 13       		.uleb128 0x13
 2578 0100 898201   		.uleb128 0x4109
 2579 0103 00       		.byte	0
 2580 0104 11       		.uleb128 0x11
 2581 0105 01       		.uleb128 0x1
 2582 0106 31       		.uleb128 0x31
 2583 0107 13       		.uleb128 0x13
 2584 0108 00       		.byte	0
 2585 0109 00       		.byte	0
 2586 010a 14       		.uleb128 0x14
 2587 010b 898201   		.uleb128 0x4109
 2588 010e 01       		.byte	0x1
 2589 010f 11       		.uleb128 0x11
 2590 0110 01       		.uleb128 0x1
 2591 0111 31       		.uleb128 0x31
 2592 0112 13       		.uleb128 0x13
 2593 0113 01       		.uleb128 0x1
 2594 0114 13       		.uleb128 0x13
 2595 0115 00       		.byte	0
 2596 0116 00       		.byte	0
 2597 0117 15       		.uleb128 0x15
 2598 0118 8A8201   		.uleb128 0x410a
 2599 011b 00       		.byte	0
 2600 011c 02       		.uleb128 0x2
 2601 011d 18       		.uleb128 0x18
 2602 011e 9142     		.uleb128 0x2111
 2603 0120 18       		.uleb128 0x18
 2604 0121 00       		.byte	0
 2605 0122 00       		.byte	0
 2606 0123 16       		.uleb128 0x16
 2607 0124 2E       		.uleb128 0x2e
 2608 0125 01       		.byte	0x1
 2609 0126 3F       		.uleb128 0x3f
 2610 0127 19       		.uleb128 0x19
 2611 0128 03       		.uleb128 0x3
 2612 0129 0E       		.uleb128 0xe
 2613 012a 3A       		.uleb128 0x3a
 2614 012b 0B       		.uleb128 0xb
 2615 012c 3B       		.uleb128 0x3b
 2616 012d 0B       		.uleb128 0xb
 2617 012e 49       		.uleb128 0x49
 2618 012f 13       		.uleb128 0x13
 2619 0130 11       		.uleb128 0x11
 2620 0131 01       		.uleb128 0x1
 2621 0132 12       		.uleb128 0x12
 2622 0133 06       		.uleb128 0x6
 2623 0134 40       		.uleb128 0x40
 2624 0135 18       		.uleb128 0x18
ARM GAS  C:\Users\Diego\AppData\Local\Temp\cctB0Z5v.s 			page 52


 2625 0136 9742     		.uleb128 0x2117
 2626 0138 19       		.uleb128 0x19
 2627 0139 01       		.uleb128 0x1
 2628 013a 13       		.uleb128 0x13
 2629 013b 00       		.byte	0
 2630 013c 00       		.byte	0
 2631 013d 17       		.uleb128 0x17
 2632 013e 34       		.uleb128 0x34
 2633 013f 00       		.byte	0
 2634 0140 03       		.uleb128 0x3
 2635 0141 0E       		.uleb128 0xe
 2636 0142 3A       		.uleb128 0x3a
 2637 0143 0B       		.uleb128 0xb
 2638 0144 3B       		.uleb128 0x3b
 2639 0145 05       		.uleb128 0x5
 2640 0146 49       		.uleb128 0x49
 2641 0147 13       		.uleb128 0x13
 2642 0148 3F       		.uleb128 0x3f
 2643 0149 19       		.uleb128 0x19
 2644 014a 3C       		.uleb128 0x3c
 2645 014b 19       		.uleb128 0x19
 2646 014c 00       		.byte	0
 2647 014d 00       		.byte	0
 2648 014e 18       		.uleb128 0x18
 2649 014f 34       		.uleb128 0x34
 2650 0150 00       		.byte	0
 2651 0151 03       		.uleb128 0x3
 2652 0152 0E       		.uleb128 0xe
 2653 0153 3A       		.uleb128 0x3a
 2654 0154 0B       		.uleb128 0xb
 2655 0155 3B       		.uleb128 0x3b
 2656 0156 0B       		.uleb128 0xb
 2657 0157 49       		.uleb128 0x49
 2658 0158 13       		.uleb128 0x13
 2659 0159 3F       		.uleb128 0x3f
 2660 015a 19       		.uleb128 0x19
 2661 015b 02       		.uleb128 0x2
 2662 015c 18       		.uleb128 0x18
 2663 015d 00       		.byte	0
 2664 015e 00       		.byte	0
 2665 015f 19       		.uleb128 0x19
 2666 0160 21       		.uleb128 0x21
 2667 0161 00       		.byte	0
 2668 0162 49       		.uleb128 0x49
 2669 0163 13       		.uleb128 0x13
 2670 0164 2F       		.uleb128 0x2f
 2671 0165 05       		.uleb128 0x5
 2672 0166 00       		.byte	0
 2673 0167 00       		.byte	0
 2674 0168 1A       		.uleb128 0x1a
 2675 0169 2E       		.uleb128 0x2e
 2676 016a 00       		.byte	0
 2677 016b 3F       		.uleb128 0x3f
 2678 016c 19       		.uleb128 0x19
 2679 016d 03       		.uleb128 0x3
 2680 016e 0E       		.uleb128 0xe
 2681 016f 3A       		.uleb128 0x3a
ARM GAS  C:\Users\Diego\AppData\Local\Temp\cctB0Z5v.s 			page 53


 2682 0170 0B       		.uleb128 0xb
 2683 0171 3B       		.uleb128 0x3b
 2684 0172 0B       		.uleb128 0xb
 2685 0173 27       		.uleb128 0x27
 2686 0174 19       		.uleb128 0x19
 2687 0175 49       		.uleb128 0x49
 2688 0176 13       		.uleb128 0x13
 2689 0177 3C       		.uleb128 0x3c
 2690 0178 19       		.uleb128 0x19
 2691 0179 00       		.byte	0
 2692 017a 00       		.byte	0
 2693 017b 1B       		.uleb128 0x1b
 2694 017c 2E       		.uleb128 0x2e
 2695 017d 01       		.byte	0x1
 2696 017e 3F       		.uleb128 0x3f
 2697 017f 19       		.uleb128 0x19
 2698 0180 03       		.uleb128 0x3
 2699 0181 0E       		.uleb128 0xe
 2700 0182 3A       		.uleb128 0x3a
 2701 0183 0B       		.uleb128 0xb
 2702 0184 3B       		.uleb128 0x3b
 2703 0185 0B       		.uleb128 0xb
 2704 0186 27       		.uleb128 0x27
 2705 0187 19       		.uleb128 0x19
 2706 0188 49       		.uleb128 0x49
 2707 0189 13       		.uleb128 0x13
 2708 018a 3C       		.uleb128 0x3c
 2709 018b 19       		.uleb128 0x19
 2710 018c 01       		.uleb128 0x1
 2711 018d 13       		.uleb128 0x13
 2712 018e 00       		.byte	0
 2713 018f 00       		.byte	0
 2714 0190 1C       		.uleb128 0x1c
 2715 0191 05       		.uleb128 0x5
 2716 0192 00       		.byte	0
 2717 0193 49       		.uleb128 0x49
 2718 0194 13       		.uleb128 0x13
 2719 0195 00       		.byte	0
 2720 0196 00       		.byte	0
 2721 0197 1D       		.uleb128 0x1d
 2722 0198 2E       		.uleb128 0x2e
 2723 0199 01       		.byte	0x1
 2724 019a 3F       		.uleb128 0x3f
 2725 019b 19       		.uleb128 0x19
 2726 019c 03       		.uleb128 0x3
 2727 019d 0E       		.uleb128 0xe
 2728 019e 3A       		.uleb128 0x3a
 2729 019f 0B       		.uleb128 0xb
 2730 01a0 3B       		.uleb128 0x3b
 2731 01a1 0B       		.uleb128 0xb
 2732 01a2 27       		.uleb128 0x27
 2733 01a3 19       		.uleb128 0x19
 2734 01a4 3C       		.uleb128 0x3c
 2735 01a5 19       		.uleb128 0x19
 2736 01a6 01       		.uleb128 0x1
 2737 01a7 13       		.uleb128 0x13
 2738 01a8 00       		.byte	0
ARM GAS  C:\Users\Diego\AppData\Local\Temp\cctB0Z5v.s 			page 54


 2739 01a9 00       		.byte	0
 2740 01aa 1E       		.uleb128 0x1e
 2741 01ab 2E       		.uleb128 0x2e
 2742 01ac 01       		.byte	0x1
 2743 01ad 3F       		.uleb128 0x3f
 2744 01ae 19       		.uleb128 0x19
 2745 01af 03       		.uleb128 0x3
 2746 01b0 0E       		.uleb128 0xe
 2747 01b1 3A       		.uleb128 0x3a
 2748 01b2 0B       		.uleb128 0xb
 2749 01b3 3B       		.uleb128 0x3b
 2750 01b4 0B       		.uleb128 0xb
 2751 01b5 27       		.uleb128 0x27
 2752 01b6 19       		.uleb128 0x19
 2753 01b7 49       		.uleb128 0x49
 2754 01b8 13       		.uleb128 0x13
 2755 01b9 3C       		.uleb128 0x3c
 2756 01ba 19       		.uleb128 0x19
 2757 01bb 00       		.byte	0
 2758 01bc 00       		.byte	0
 2759 01bd 00       		.byte	0
 2760              		.section	.debug_loc,"",%progbits
 2761              	.Ldebug_loc0:
 2762              	.LLST0:
 2763 0000 00000000 		.4byte	.LVL0
 2764 0004 0F000000 		.4byte	.LVL1-1
 2765 0008 0100     		.2byte	0x1
 2766 000a 50       		.byte	0x50
 2767 000b 0F000000 		.4byte	.LVL1-1
 2768 000f 46000000 		.4byte	.LFE63
 2769 0013 0200     		.2byte	0x2
 2770 0015 91       		.byte	0x91
 2771 0016 74       		.sleb128 -12
 2772 0017 00000000 		.4byte	0
 2773 001b 00000000 		.4byte	0
 2774              	.LLST1:
 2775 001f 00000000 		.4byte	.LVL0
 2776 0023 0F000000 		.4byte	.LVL1-1
 2777 0027 0100     		.2byte	0x1
 2778 0029 51       		.byte	0x51
 2779 002a 0F000000 		.4byte	.LVL1-1
 2780 002e 46000000 		.4byte	.LFE63
 2781 0032 0200     		.2byte	0x2
 2782 0034 91       		.byte	0x91
 2783 0035 75       		.sleb128 -11
 2784 0036 00000000 		.4byte	0
 2785 003a 00000000 		.4byte	0
 2786              	.LLST2:
 2787 003e 18000000 		.4byte	.LVL2
 2788 0042 1C000000 		.4byte	.LVL3
 2789 0046 0100     		.2byte	0x1
 2790 0048 50       		.byte	0x50
 2791 0049 1E000000 		.4byte	.LVL4
 2792 004d 26000000 		.4byte	.LVL5
 2793 0051 0100     		.2byte	0x1
 2794 0053 50       		.byte	0x50
 2795 0054 2A000000 		.4byte	.LVL6
ARM GAS  C:\Users\Diego\AppData\Local\Temp\cctB0Z5v.s 			page 55


 2796 0058 3B000000 		.4byte	.LVL11-1
 2797 005c 0100     		.2byte	0x1
 2798 005e 50       		.byte	0x50
 2799 005f 40000000 		.4byte	.LVL12
 2800 0063 42000000 		.4byte	.LVL13
 2801 0067 0100     		.2byte	0x1
 2802 0069 50       		.byte	0x50
 2803 006a 00000000 		.4byte	0
 2804 006e 00000000 		.4byte	0
 2805              	.LLST3:
 2806 0072 1E000000 		.4byte	.LVL4
 2807 0076 2E000000 		.4byte	.LVL7
 2808 007a 0100     		.2byte	0x1
 2809 007c 54       		.byte	0x54
 2810 007d 30000000 		.4byte	.LVL8
 2811 0081 32000000 		.4byte	.LVL9
 2812 0085 0100     		.2byte	0x1
 2813 0087 54       		.byte	0x54
 2814 0088 34000000 		.4byte	.LVL10
 2815 008c 42000000 		.4byte	.LVL13
 2816 0090 0100     		.2byte	0x1
 2817 0092 54       		.byte	0x54
 2818 0093 00000000 		.4byte	0
 2819 0097 00000000 		.4byte	0
 2820              	.LLST4:
 2821 009b 12000000 		.4byte	.LVL17
 2822 009f 16000000 		.4byte	.LVL18
 2823 00a3 0100     		.2byte	0x1
 2824 00a5 50       		.byte	0x50
 2825 00a6 1A000000 		.4byte	.LVL19
 2826 00aa 1F000000 		.4byte	.LVL20-1
 2827 00ae 0100     		.2byte	0x1
 2828 00b0 50       		.byte	0x50
 2829 00b1 2E000000 		.4byte	.LVL22
 2830 00b5 35000000 		.4byte	.LVL23-1
 2831 00b9 0100     		.2byte	0x1
 2832 00bb 50       		.byte	0x50
 2833 00bc 4A000000 		.4byte	.LVL27
 2834 00c0 4C000000 		.4byte	.LVL28
 2835 00c4 0100     		.2byte	0x1
 2836 00c6 50       		.byte	0x50
 2837 00c7 4E000000 		.4byte	.LVL29
 2838 00cb 50000000 		.4byte	.LVL30
 2839 00cf 0100     		.2byte	0x1
 2840 00d1 50       		.byte	0x50
 2841 00d2 52000000 		.4byte	.LVL31
 2842 00d6 54000000 		.4byte	.LVL32
 2843 00da 0100     		.2byte	0x1
 2844 00dc 50       		.byte	0x50
 2845 00dd 00000000 		.4byte	0
 2846 00e1 00000000 		.4byte	0
 2847              	.LLST5:
 2848 00e5 02000000 		.4byte	.LVL14
 2849 00e9 06000000 		.4byte	.LVL15
 2850 00ed 0200     		.2byte	0x2
 2851 00ef 34       		.byte	0x34
 2852 00f0 9F       		.byte	0x9f
ARM GAS  C:\Users\Diego\AppData\Local\Temp\cctB0Z5v.s 			page 56


 2853 00f1 06000000 		.4byte	.LVL15
 2854 00f5 40000000 		.4byte	.LVL25
 2855 00f9 0100     		.2byte	0x1
 2856 00fb 54       		.byte	0x54
 2857 00fc 42000000 		.4byte	.LVL26
 2858 0100 56000000 		.4byte	.LVL33
 2859 0104 0100     		.2byte	0x1
 2860 0106 54       		.byte	0x54
 2861 0107 00000000 		.4byte	0
 2862 010b 00000000 		.4byte	0
 2863              	.LLST6:
 2864 010f 2A000000 		.4byte	.LVL35
 2865 0113 2E000000 		.4byte	.LVL36
 2866 0117 0100     		.2byte	0x1
 2867 0119 50       		.byte	0x50
 2868 011a 30000000 		.4byte	.LVL37
 2869 011e 38000000 		.4byte	.LVL38
 2870 0122 0100     		.2byte	0x1
 2871 0124 50       		.byte	0x50
 2872 0125 3C000000 		.4byte	.LVL39
 2873 0129 4D000000 		.4byte	.LVL44-1
 2874 012d 0100     		.2byte	0x1
 2875 012f 50       		.byte	0x50
 2876 0130 52000000 		.4byte	.LVL45
 2877 0134 54000000 		.4byte	.LVL46
 2878 0138 0100     		.2byte	0x1
 2879 013a 50       		.byte	0x50
 2880 013b 00000000 		.4byte	0
 2881 013f 00000000 		.4byte	0
 2882              	.LLST7:
 2883 0143 30000000 		.4byte	.LVL37
 2884 0147 40000000 		.4byte	.LVL40
 2885 014b 0100     		.2byte	0x1
 2886 014d 54       		.byte	0x54
 2887 014e 42000000 		.4byte	.LVL41
 2888 0152 44000000 		.4byte	.LVL42
 2889 0156 0100     		.2byte	0x1
 2890 0158 54       		.byte	0x54
 2891 0159 46000000 		.4byte	.LVL43
 2892 015d 54000000 		.4byte	.LVL46
 2893 0161 0100     		.2byte	0x1
 2894 0163 54       		.byte	0x54
 2895 0164 00000000 		.4byte	0
 2896 0168 00000000 		.4byte	0
 2897              	.LLST8:
 2898 016c 12000000 		.4byte	.LVL50
 2899 0170 16000000 		.4byte	.LVL51
 2900 0174 0100     		.2byte	0x1
 2901 0176 50       		.byte	0x50
 2902 0177 1A000000 		.4byte	.LVL52
 2903 017b 1F000000 		.4byte	.LVL53-1
 2904 017f 0100     		.2byte	0x1
 2905 0181 50       		.byte	0x50
 2906 0182 2E000000 		.4byte	.LVL55
 2907 0186 35000000 		.4byte	.LVL56-1
 2908 018a 0100     		.2byte	0x1
 2909 018c 50       		.byte	0x50
ARM GAS  C:\Users\Diego\AppData\Local\Temp\cctB0Z5v.s 			page 57


 2910 018d 4A000000 		.4byte	.LVL60
 2911 0191 4C000000 		.4byte	.LVL61
 2912 0195 0100     		.2byte	0x1
 2913 0197 50       		.byte	0x50
 2914 0198 4E000000 		.4byte	.LVL62
 2915 019c 50000000 		.4byte	.LVL63
 2916 01a0 0100     		.2byte	0x1
 2917 01a2 50       		.byte	0x50
 2918 01a3 52000000 		.4byte	.LVL64
 2919 01a7 54000000 		.4byte	.LVL65
 2920 01ab 0100     		.2byte	0x1
 2921 01ad 50       		.byte	0x50
 2922 01ae 00000000 		.4byte	0
 2923 01b2 00000000 		.4byte	0
 2924              	.LLST9:
 2925 01b6 02000000 		.4byte	.LVL47
 2926 01ba 06000000 		.4byte	.LVL48
 2927 01be 0200     		.2byte	0x2
 2928 01c0 31       		.byte	0x31
 2929 01c1 9F       		.byte	0x9f
 2930 01c2 06000000 		.4byte	.LVL48
 2931 01c6 40000000 		.4byte	.LVL58
 2932 01ca 0100     		.2byte	0x1
 2933 01cc 54       		.byte	0x54
 2934 01cd 42000000 		.4byte	.LVL59
 2935 01d1 56000000 		.4byte	.LVL66
 2936 01d5 0100     		.2byte	0x1
 2937 01d7 54       		.byte	0x54
 2938 01d8 00000000 		.4byte	0
 2939 01dc 00000000 		.4byte	0
 2940              	.LLST10:
 2941 01e0 24000000 		.4byte	.LVL68
 2942 01e4 28000000 		.4byte	.LVL69
 2943 01e8 0100     		.2byte	0x1
 2944 01ea 50       		.byte	0x50
 2945 01eb 2A000000 		.4byte	.LVL70
 2946 01ef 32000000 		.4byte	.LVL71
 2947 01f3 0100     		.2byte	0x1
 2948 01f5 50       		.byte	0x50
 2949 01f6 36000000 		.4byte	.LVL72
 2950 01fa 47000000 		.4byte	.LVL77-1
 2951 01fe 0100     		.2byte	0x1
 2952 0200 50       		.byte	0x50
 2953 0201 4C000000 		.4byte	.LVL78
 2954 0205 4E000000 		.4byte	.LVL79
 2955 0209 0100     		.2byte	0x1
 2956 020b 50       		.byte	0x50
 2957 020c 00000000 		.4byte	0
 2958 0210 00000000 		.4byte	0
 2959              	.LLST11:
 2960 0214 2A000000 		.4byte	.LVL70
 2961 0218 3A000000 		.4byte	.LVL73
 2962 021c 0100     		.2byte	0x1
 2963 021e 54       		.byte	0x54
 2964 021f 3C000000 		.4byte	.LVL74
 2965 0223 3E000000 		.4byte	.LVL75
 2966 0227 0100     		.2byte	0x1
ARM GAS  C:\Users\Diego\AppData\Local\Temp\cctB0Z5v.s 			page 58


 2967 0229 54       		.byte	0x54
 2968 022a 40000000 		.4byte	.LVL76
 2969 022e 4E000000 		.4byte	.LVL79
 2970 0232 0100     		.2byte	0x1
 2971 0234 54       		.byte	0x54
 2972 0235 00000000 		.4byte	0
 2973 0239 00000000 		.4byte	0
 2974              		.section	.debug_aranges,"",%progbits
 2975 0000 3C000000 		.4byte	0x3c
 2976 0004 0200     		.2byte	0x2
 2977 0006 00000000 		.4byte	.Ldebug_info0
 2978 000a 04       		.byte	0x4
 2979 000b 00       		.byte	0
 2980 000c 0000     		.2byte	0
 2981 000e 0000     		.2byte	0
 2982 0010 00000000 		.4byte	.LFB63
 2983 0014 46000000 		.4byte	.LFE63-.LFB63
 2984 0018 00000000 		.4byte	.LFB64
 2985 001c 5C000000 		.4byte	.LFE64-.LFB64
 2986 0020 00000000 		.4byte	.LFB65
 2987 0024 5C000000 		.4byte	.LFE65-.LFB65
 2988 0028 00000000 		.4byte	.LFB66
 2989 002c 5C000000 		.4byte	.LFE66-.LFB66
 2990 0030 00000000 		.4byte	.LFB67
 2991 0034 58000000 		.4byte	.LFE67-.LFB67
 2992 0038 00000000 		.4byte	0
 2993 003c 00000000 		.4byte	0
 2994              		.section	.debug_ranges,"",%progbits
 2995              	.Ldebug_ranges0:
 2996 0000 00000000 		.4byte	.LFB63
 2997 0004 46000000 		.4byte	.LFE63
 2998 0008 00000000 		.4byte	.LFB64
 2999 000c 5C000000 		.4byte	.LFE64
 3000 0010 00000000 		.4byte	.LFB65
 3001 0014 5C000000 		.4byte	.LFE65
 3002 0018 00000000 		.4byte	.LFB66
 3003 001c 5C000000 		.4byte	.LFE66
 3004 0020 00000000 		.4byte	.LFB67
 3005 0024 58000000 		.4byte	.LFE67
 3006 0028 00000000 		.4byte	0
 3007 002c 00000000 		.4byte	0
 3008              		.section	.debug_line,"",%progbits
 3009              	.Ldebug_line0:
 3010 0000 75020000 		.section	.debug_str,"MS",%progbits,1
 3010      02007101 
 3010      00000201 
 3010      FB0E0D00 
 3010      01010101 
 3011              	.LASF170:
 3012 0000 43794465 		.ascii	"CyDelay\000"
 3012      6C617900 
 3013              	.LASF143:
 3014 0008 636F756E 		.ascii	"count_protector2\000"
 3014      745F7072 
 3014      6F746563 
 3014      746F7232 
 3014      00
ARM GAS  C:\Users\Diego\AppData\Local\Temp\cctB0Z5v.s 			page 59


 3015              	.LASF106:
 3016 0019 64656369 		.ascii	"decimalVolume\000"
 3016      6D616C56 
 3016      6F6C756D 
 3016      6500
 3017              	.LASF117:
 3018 0027 50726576 		.ascii	"PrevStatePump\000"
 3018      53746174 
 3018      6550756D 
 3018      7000
 3019              	.LASF159:
 3020 0035 47726164 		.ascii	"GradesHose\000"
 3020      6573486F 
 3020      736500
 3021              	.LASF89:
 3022 0040 636F756E 		.ascii	"countRX\000"
 3022      74525800 
 3023              	.LASF160:
 3024 0048 52467374 		.ascii	"RFstateReport\000"
 3024      61746552 
 3024      65706F72 
 3024      7400
 3025              	.LASF53:
 3026 0056 766F6C75 		.ascii	"volumeQuota\000"
 3026      6D655175 
 3026      6F746100 
 3027              	.LASF133:
 3028 0062 73746174 		.ascii	"statePump\000"
 3028      6550756D 
 3028      7000
 3029              	.LASF62:
 3030 006c 62756666 		.ascii	"buffer\000"
 3030      657200
 3031              	.LASF150:
 3032 0073 62756666 		.ascii	"buffer_rf\000"
 3032      65725F72 
 3032      6600
 3033              	.LASF105:
 3034 007d 64656369 		.ascii	"decimalMoney\000"
 3034      6D616C4D 
 3034      6F6E6579 
 3034      00
 3035              	.LASF32:
 3036 008a 73616C65 		.ascii	"salePerform\000"
 3036      50657266 
 3036      6F726D00 
 3037              	.LASF8:
 3038 0096 756E7369 		.ascii	"unsigned int\000"
 3038      676E6564 
 3038      20696E74 
 3038      00
 3039              	.LASF138:
 3040 00a3 5072696E 		.ascii	"PrinterType\000"
 3040      74657254 
 3040      79706500 
 3041              	.LASF9:
 3042 00af 5F5F696E 		.ascii	"__int32_t\000"
ARM GAS  C:\Users\Diego\AppData\Local\Temp\cctB0Z5v.s 			page 60


 3042      7433325F 
 3042      7400
 3043              	.LASF50:
 3044 00b9 666C6167 		.ascii	"flagLiftHandle\000"
 3044      4C696674 
 3044      48616E64 
 3044      6C6500
 3045              	.LASF111:
 3046 00c8 72657369 		.ascii	"residue\000"
 3046      64756500 
 3047              	.LASF123:
 3048 00d0 74656D70 		.ascii	"tempPreset\000"
 3048      50726573 
 3048      657400
 3049              	.LASF20:
 3050 00db 69645479 		.ascii	"idType\000"
 3050      706500
 3051              	.LASF132:
 3052 00e2 44444D6F 		.ascii	"DDMode\000"
 3052      646500
 3053              	.LASF165:
 3054 00e9 73696465 		.ascii	"side\000"
 3054      00
 3055              	.LASF146:
 3056 00ee 69645374 		.ascii	"idStation\000"
 3056      6174696F 
 3056      6E00
 3057              	.LASF24:
 3058 00f8 73656C65 		.ascii	"selectedSale\000"
 3058      63746564 
 3058      53616C65 
 3058      00
 3059              	.LASF100:
 3060 0105 666C6167 		.ascii	"flagPoint2\000"
 3060      506F696E 
 3060      743200
 3061              	.LASF90:
 3062 0110 636F756E 		.ascii	"countTX\000"
 3062      74545800 
 3063              	.LASF75:
 3064 0118 6368616E 		.ascii	"changePPU\000"
 3064      67655050 
 3064      5500
 3065              	.LASF110:
 3066 0122 73637265 		.ascii	"screen\000"
 3066      656E00
 3067              	.LASF145:
 3068 0129 636F6E74 		.ascii	"controlChar\000"
 3068      726F6C43 
 3068      68617200 
 3069              	.LASF121:
 3070 0135 636F756E 		.ascii	"counterRF\000"
 3070      74657252 
 3070      4600
 3071              	.LASF81:
 3072 013f 77726974 		.ascii	"write_psoc1\000"
 3072      655F7073 
ARM GAS  C:\Users\Diego\AppData\Local\Temp\cctB0Z5v.s 			page 61


 3072      6F633100 
 3073              	.LASF118:
 3074 014b 506C6174 		.ascii	"PlateRequest\000"
 3074      65526571 
 3074      75657374 
 3074      00
 3075              	.LASF151:
 3076 0158 62756666 		.ascii	"buffer_tx\000"
 3076      65725F74 
 3076      7800
 3077              	.LASF14:
 3078 0162 666C6F61 		.ascii	"float\000"
 3078      7400
 3079              	.LASF125:
 3080 0168 43477261 		.ascii	"CGrade\000"
 3080      646500
 3081              	.LASF82:
 3082 016f 77726974 		.ascii	"write_fecha\000"
 3082      655F6665 
 3082      63686100 
 3083              	.LASF126:
 3084 017b 53686966 		.ascii	"ShiftState\000"
 3084      74537461 
 3084      746500
 3085              	.LASF129:
 3086 0186 4D6F6E65 		.ascii	"MoneyDec\000"
 3086      79446563 
 3086      00
 3087              	.LASF161:
 3088 018f 62756666 		.ascii	"bufferDisplay1\000"
 3088      65724469 
 3088      73706C61 
 3088      793100
 3089              	.LASF71:
 3090 019e 686F7365 		.ascii	"hose\000"
 3090      00
 3091              	.LASF163:
 3092 01a3 62756666 		.ascii	"bufferDisplay3\000"
 3092      65724469 
 3092      73706C61 
 3092      793300
 3093              	.LASF7:
 3094 01b2 6C6F6E67 		.ascii	"long long unsigned int\000"
 3094      206C6F6E 
 3094      6720756E 
 3094      7369676E 
 3094      65642069 
 3095              	.LASF40:
 3096 01c9 746F7461 		.ascii	"totalVolumePrevious\000"
 3096      6C566F6C 
 3096      756D6550 
 3096      72657669 
 3096      6F757300 
 3097              	.LASF144:
 3098 01dd 636F6E66 		.ascii	"configAccess\000"
 3098      69674163 
 3098      63657373 
ARM GAS  C:\Users\Diego\AppData\Local\Temp\cctB0Z5v.s 			page 62


 3098      00
 3099              	.LASF136:
 3100 01ea 64696769 		.ascii	"digits\000"
 3100      747300
 3101              	.LASF108:
 3102 01f1 74696D65 		.ascii	"time\000"
 3102      00
 3103              	.LASF148:
 3104 01f6 7072696E 		.ascii	"printPortA\000"
 3104      74506F72 
 3104      744100
 3105              	.LASF149:
 3106 0201 7072696E 		.ascii	"printPortB\000"
 3106      74506F72 
 3106      744200
 3107              	.LASF167:
 3108 020c 4932435F 		.ascii	"I2C_Bus_MasterWriteByte\000"
 3108      4275735F 
 3108      4D617374 
 3108      65725772 
 3108      69746542 
 3109              	.LASF35:
 3110 0224 70726F64 		.ascii	"productType\000"
 3110      75637454 
 3110      79706500 
 3111              	.LASF101:
 3112 0230 70726F64 		.ascii	"productNumber\000"
 3112      7563744E 
 3112      756D6265 
 3112      7200
 3113              	.LASF112:
 3114 023e 69645365 		.ascii	"idSeller\000"
 3114      6C6C6572 
 3114      00
 3115              	.LASF21:
 3116 0247 69645365 		.ascii	"idSerial\000"
 3116      7269616C 
 3116      00
 3117              	.LASF135:
 3118 0250 6C6F636B 		.ascii	"lockTurn\000"
 3118      5475726E 
 3118      00
 3119              	.LASF92:
 3120 0259 636F756E 		.ascii	"countLCD\000"
 3120      744C4344 
 3120      00
 3121              	.LASF46:
 3122 0262 6D696C65 		.ascii	"mileageSale\000"
 3122      61676553 
 3122      616C6500 
 3123              	.LASF57:
 3124 026e 666C6167 		.ascii	"flagChangePPU\000"
 3124      4368616E 
 3124      67655050 
 3124      5500
 3125              	.LASF59:
 3126 027c 666C6167 		.ascii	"flagActiveSale\000"
ARM GAS  C:\Users\Diego\AppData\Local\Temp\cctB0Z5v.s 			page 63


 3126      41637469 
 3126      76655361 
 3126      6C6500
 3127              	.LASF93:
 3128 028b 666C6F77 		.ascii	"flowDisplay1\000"
 3128      44697370 
 3128      6C617931 
 3128      00
 3129              	.LASF94:
 3130 0298 666C6F77 		.ascii	"flowDisplay2\000"
 3130      44697370 
 3130      6C617932 
 3130      00
 3131              	.LASF95:
 3132 02a5 666C6F77 		.ascii	"flowDisplay3\000"
 3132      44697370 
 3132      6C617933 
 3132      00
 3133              	.LASF96:
 3134 02b2 666C6F77 		.ascii	"flowDisplay4\000"
 3134      44697370 
 3134      6C617934 
 3134      00
 3135              	.LASF64:
 3136 02bf 746F7461 		.ascii	"totalsHandle\000"
 3136      6C734861 
 3136      6E646C65 
 3136      00
 3137              	.LASF34:
 3138 02cc 70726573 		.ascii	"presetValue\000"
 3138      65745661 
 3138      6C756500 
 3139              	.LASF47:
 3140 02d8 6964656E 		.ascii	"identySale\000"
 3140      74795361 
 3140      6C6500
 3141              	.LASF31:
 3142 02e3 73616C65 		.ascii	"saleType\000"
 3142      54797065 
 3142      00
 3143              	.LASF29:
 3144 02ec 76616C75 		.ascii	"valueKeys\000"
 3144      654B6579 
 3144      7300
 3145              	.LASF18:
 3146 02f6 63686172 		.ascii	"char\000"
 3146      00
 3147              	.LASF128:
 3148 02fb 436F6E76 		.ascii	"ConversionFactor\000"
 3148      65727369 
 3148      6F6E4661 
 3148      63746F72 
 3148      00
 3149              	.LASF97:
 3150 030c 6E756D62 		.ascii	"numberKeys1\000"
 3150      65724B65 
 3150      79733100 
ARM GAS  C:\Users\Diego\AppData\Local\Temp\cctB0Z5v.s 			page 64


 3151              	.LASF98:
 3152 0318 6E756D62 		.ascii	"numberKeys2\000"
 3152      65724B65 
 3152      79733200 
 3153              	.LASF12:
 3154 0324 75696E74 		.ascii	"uint16\000"
 3154      313600
 3155              	.LASF109:
 3156 032b 64617465 		.ascii	"date\000"
 3156      00
 3157              	.LASF74:
 3158 0330 70756D70 		.ascii	"pumpState\000"
 3158      53746174 
 3158      6500
 3159              	.LASF80:
 3160 033a 6461746F 		.ascii	"dato\000"
 3160      00
 3161              	.LASF79:
 3162 033f 73746174 		.ascii	"status\000"
 3162      757300
 3163              	.LASF49:
 3164 0346 666C6167 		.ascii	"flagPayment\000"
 3164      5061796D 
 3164      656E7400 
 3165              	.LASF17:
 3166 0352 63686172 		.ascii	"char8\000"
 3166      3800
 3167              	.LASF54:
 3168 0358 70707551 		.ascii	"ppuQuota\000"
 3168      756F7461 
 3168      00
 3169              	.LASF42:
 3170 0361 746F7461 		.ascii	"totalMoneyAfter\000"
 3170      6C4D6F6E 
 3170      65794166 
 3170      74657200 
 3171              	.LASF52:
 3172 0371 6D6F6E65 		.ascii	"moneyQuota\000"
 3172      7951756F 
 3172      746100
 3173              	.LASF56:
 3174 037c 7072696E 		.ascii	"printers\000"
 3174      74657273 
 3174      00
 3175              	.LASF120:
 3176 0385 41637469 		.ascii	"ActiveRF\000"
 3176      76655246 
 3176      00
 3177              	.LASF84:
 3178 038e 6C656572 		.ascii	"leer_hora\000"
 3178      5F686F72 
 3178      6100
 3179              	.LASF66:
 3180 0398 6D6F6E65 		.ascii	"moneySale\000"
 3180      7953616C 
 3180      6500
 3181              	.LASF6:
ARM GAS  C:\Users\Diego\AppData\Local\Temp\cctB0Z5v.s 			page 65


 3182 03a2 6C6F6E67 		.ascii	"long long int\000"
 3182      206C6F6E 
 3182      6720696E 
 3182      7400
 3183              	.LASF68:
 3184 03b0 70707553 		.ascii	"ppuSale\000"
 3184      616C6500 
 3185              	.LASF87:
 3186 03b8 636F756E 		.ascii	"countAnimation1\000"
 3186      74416E69 
 3186      6D617469 
 3186      6F6E3100 
 3187              	.LASF134:
 3188 03c8 4E756D50 		.ascii	"NumPositions\000"
 3188      6F736974 
 3188      696F6E73 
 3188      00
 3189              	.LASF116:
 3190 03d5 73746174 		.ascii	"stateBeagleSoft\000"
 3190      65426561 
 3190      676C6553 
 3190      6F667400 
 3191              	.LASF41:
 3192 03e5 746F7461 		.ascii	"totalPPUPrevious\000"
 3192      6C505055 
 3192      50726576 
 3192      696F7573 
 3192      00
 3193              	.LASF88:
 3194 03f6 636F756E 		.ascii	"countAnimation2\000"
 3194      74416E69 
 3194      6D617469 
 3194      6F6E3200 
 3195              	.LASF141:
 3196 0406 74696D65 		.ascii	"timeDownHandle\000"
 3196      446F776E 
 3196      48616E64 
 3196      6C6500
 3197              	.LASF30:
 3198 0415 76656869 		.ascii	"vehicleType\000"
 3198      636C6554 
 3198      79706500 
 3199              	.LASF48:
 3200 0421 666C6167 		.ascii	"flagKeyboard\000"
 3200      4B657962 
 3200      6F617264 
 3200      00
 3201              	.LASF13:
 3202 042e 75696E74 		.ascii	"uint32\000"
 3202      333200
 3203              	.LASF115:
 3204 0435 666C6167 		.ascii	"flagResetMux\000"
 3204      52657365 
 3204      744D7578 
 3204      00
 3205              	.LASF174:
 3206 0442 433A5C55 		.ascii	"C:\\Users\\Diego\\Documents\\GitHub\\NSY-DH\\Worksp"
ARM GAS  C:\Users\Diego\AppData\Local\Temp\cctB0Z5v.s 			page 66


 3206      73657273 
 3206      5C446965 
 3206      676F5C44 
 3206      6F63756D 
 3207 046f 61636530 		.ascii	"ace01\\Design01.cydsn\000"
 3207      315C4465 
 3207      7369676E 
 3207      30312E63 
 3207      7964736E 
 3208              	.LASF152:
 3209 0484 62756666 		.ascii	"buffer_txDisplay\000"
 3209      65725F74 
 3209      78446973 
 3209      706C6179 
 3209      00
 3210              	.LASF166:
 3211 0495 4932435F 		.ascii	"I2C_Bus_MasterSendStart\000"
 3211      4275735F 
 3211      4D617374 
 3211      65725365 
 3211      6E645374 
 3212              	.LASF44:
 3213 04ad 746F7461 		.ascii	"totalPPUAfter\000"
 3213      6C505055 
 3213      41667465 
 3213      7200
 3214              	.LASF27:
 3215 04bb 6B657962 		.ascii	"keyboardWayToPay\000"
 3215      6F617264 
 3215      57617954 
 3215      6F506179 
 3215      00
 3216              	.LASF104:
 3217 04cc 70707578 		.ascii	"ppux10\000"
 3217      313000
 3218              	.LASF39:
 3219 04d3 746F7461 		.ascii	"totalMoneyPrevious\000"
 3219      6C4D6F6E 
 3219      65795072 
 3219      6576696F 
 3219      757300
 3220              	.LASF99:
 3221 04e6 666C6167 		.ascii	"flagPoint1\000"
 3221      506F696E 
 3221      743100
 3222              	.LASF25:
 3223 04f1 6D6F6E65 		.ascii	"moneySelectedSale\000"
 3223      7953656C 
 3223      65637465 
 3223      6453616C 
 3223      6500
 3224              	.LASF107:
 3225 0503 73796D62 		.ascii	"symbols\000"
 3225      6F6C7300 
 3226              	.LASF85:
 3227 050b 77726974 		.ascii	"write_hora\000"
 3227      655F686F 
ARM GAS  C:\Users\Diego\AppData\Local\Temp\cctB0Z5v.s 			page 67


 3227      726100
 3228              	.LASF171:
 3229 0516 4932435F 		.ascii	"I2C_Bus_MasterReadByte\000"
 3229      4275735F 
 3229      4D617374 
 3229      65725265 
 3229      61644279 
 3230              	.LASF140:
 3231 052d 64617465 		.ascii	"dateDownHandle\000"
 3231      446F776E 
 3231      48616E64 
 3231      6C6500
 3232              	.LASF45:
 3233 053c 6C696365 		.ascii	"licenceSale\000"
 3233      6E636553 
 3233      616C6500 
 3234              	.LASF55:
 3235 0548 70726963 		.ascii	"priceConsign\000"
 3235      65436F6E 
 3235      7369676E 
 3235      00
 3236              	.LASF2:
 3237 0555 73686F72 		.ascii	"short int\000"
 3237      7420696E 
 3237      7400
 3238              	.LASF4:
 3239 055f 6C6F6E67 		.ascii	"long int\000"
 3239      20696E74 
 3239      00
 3240              	.LASF139:
 3241 0568 566F6C55 		.ascii	"VolUnit\000"
 3241      6E697400 
 3242              	.LASF119:
 3243 0570 49444361 		.ascii	"IDCast\000"
 3243      737400
 3244              	.LASF86:
 3245 0577 49544D5F 		.ascii	"ITM_RxBuffer\000"
 3245      52784275 
 3245      66666572 
 3245      00
 3246              	.LASF137:
 3247 0584 68696464 		.ascii	"hiddenKeys\000"
 3247      656E4B65 
 3247      797300
 3248              	.LASF60:
 3249 058f 73686966 		.ascii	"shiftId\000"
 3249      74496400 
 3250              	.LASF113:
 3251 0597 74797065 		.ascii	"typeIdSeller\000"
 3251      49645365 
 3251      6C6C6572 
 3251      00
 3252              	.LASF51:
 3253 05a4 666C6167 		.ascii	"flagEndSale\000"
 3253      456E6453 
 3253      616C6500 
 3254              	.LASF37:
ARM GAS  C:\Users\Diego\AppData\Local\Temp\cctB0Z5v.s 			page 68


 3255 05b0 64617465 		.ascii	"dateLiftHandle\000"
 3255      4C696674 
 3255      48616E64 
 3255      6C6500
 3256              	.LASF72:
 3257 05bf 686F7365 		.ascii	"hoseNumber\000"
 3257      4E756D62 
 3257      657200
 3258              	.LASF162:
 3259 05ca 62756666 		.ascii	"bufferDisplay2\000"
 3259      65724469 
 3259      73706C61 
 3259      793200
 3260              	.LASF153:
 3261 05d9 696E7449 		.ascii	"intIDStation\000"
 3261      44537461 
 3261      74696F6E 
 3261      00
 3262              	.LASF77:
 3263 05e6 70756572 		.ascii	"puerto\000"
 3263      746F00
 3264              	.LASF158:
 3265 05ed 436F7069 		.ascii	"CopiasCredito\000"
 3265      61734372 
 3265      65646974 
 3265      6F00
 3266              	.LASF114:
 3267 05fb 70617373 		.ascii	"passwordSeller\000"
 3267      776F7264 
 3267      53656C6C 
 3267      657200
 3268              	.LASF43:
 3269 060a 746F7461 		.ascii	"totalVolumeAfter\000"
 3269      6C566F6C 
 3269      756D6541 
 3269      66746572 
 3269      00
 3270              	.LASF127:
 3271 061b 556E6974 		.ascii	"UnitType\000"
 3271      54797065 
 3271      00
 3272              	.LASF16:
 3273 0624 75696E74 		.ascii	"uint64\000"
 3273      363400
 3274              	.LASF102:
 3275 062b 64656C61 		.ascii	"delayPicture1\000"
 3275      79506963 
 3275      74757265 
 3275      3100
 3276              	.LASF103:
 3277 0639 64656C61 		.ascii	"delayPicture2\000"
 3277      79506963 
 3277      74757265 
 3277      3200
 3278              	.LASF36:
 3279 0647 73746174 		.ascii	"stateMux\000"
 3279      654D7578 
ARM GAS  C:\Users\Diego\AppData\Local\Temp\cctB0Z5v.s 			page 69


 3279      00
 3280              	.LASF154:
 3281 0650 456E6361 		.ascii	"Encabezado1\000"
 3281      62657A61 
 3281      646F3100 
 3282              	.LASF155:
 3283 065c 456E6361 		.ascii	"Encabezado2\000"
 3283      62657A61 
 3283      646F3200 
 3284              	.LASF156:
 3285 0668 456E6361 		.ascii	"Encabezado3\000"
 3285      62657A61 
 3285      646F3300 
 3286              	.LASF157:
 3287 0674 456E6361 		.ascii	"Encabezado4\000"
 3287      62657A61 
 3287      646F3400 
 3288              	.LASF19:
 3289 0680 73697A65 		.ascii	"sizetype\000"
 3289      74797065 
 3289      00
 3290              	.LASF5:
 3291 0689 6C6F6E67 		.ascii	"long unsigned int\000"
 3291      20756E73 
 3291      69676E65 
 3291      6420696E 
 3291      7400
 3292              	.LASF131:
 3293 069b 50505544 		.ascii	"PPUDec\000"
 3293      656300
 3294              	.LASF70:
 3295 06a2 61637469 		.ascii	"activeHose\000"
 3295      7665486F 
 3295      736500
 3296              	.LASF58:
 3297 06ad 666C6167 		.ascii	"flagPrint\000"
 3297      5072696E 
 3297      7400
 3298              	.LASF10:
 3299 06b7 696E7433 		.ascii	"int32_t\000"
 3299      325F7400 
 3300              	.LASF124:
 3301 06bf 74656D70 		.ascii	"tempPPU\000"
 3301      50505500 
 3302              	.LASF169:
 3303 06c7 4932435F 		.ascii	"I2C_Bus_MasterSendStop\000"
 3303      4275735F 
 3303      4D617374 
 3303      65725365 
 3303      6E645374 
 3304              	.LASF168:
 3305 06de 4932435F 		.ascii	"I2C_Bus_MasterClearStatus\000"
 3305      4275735F 
 3305      4D617374 
 3305      6572436C 
 3305      65617253 
 3306              	.LASF23:
ARM GAS  C:\Users\Diego\AppData\Local\Temp\cctB0Z5v.s 			page 70


 3307 06f8 666C6167 		.ascii	"flagWayToPayMixed\000"
 3307      57617954 
 3307      6F506179 
 3307      4D697865 
 3307      6400
 3308              	.LASF1:
 3309 070a 756E7369 		.ascii	"unsigned char\000"
 3309      676E6564 
 3309      20636861 
 3309      7200
 3310              	.LASF172:
 3311 0718 474E5520 		.ascii	"GNU C 4.9.3 20150303 (release) [ARM/embedded-4_9-br"
 3311      4320342E 
 3311      392E3320 
 3311      32303135 
 3311      30333033 
 3312 074b 616E6368 		.ascii	"anch revision 221220] -mcpu=cortex-m3 -mthumb -g -O"
 3312      20726576 
 3312      6973696F 
 3312      6E203232 
 3312      31323230 
 3313 077e 67202D66 		.ascii	"g -ffunction-sections -ffat-lto-objects\000"
 3313      66756E63 
 3313      74696F6E 
 3313      2D736563 
 3313      74696F6E 
 3314              	.LASF28:
 3315 07a6 61757468 		.ascii	"authorizationFlag\000"
 3315      6F72697A 
 3315      6174696F 
 3315      6E466C61 
 3315      6700
 3316              	.LASF76:
 3317 07b8 70756D70 		.ascii	"pump\000"
 3317      00
 3318              	.LASF122:
 3319 07bd 74656D70 		.ascii	"temporal\000"
 3319      6F72616C 
 3319      00
 3320              	.LASF130:
 3321 07c6 566F6C44 		.ascii	"VolDec\000"
 3321      656300
 3322              	.LASF33:
 3323 07cd 70726573 		.ascii	"presetType\000"
 3323      65745479 
 3323      706500
 3324              	.LASF67:
 3325 07d8 766F6C75 		.ascii	"volumeSale\000"
 3325      6D655361 
 3325      6C6500
 3326              	.LASF173:
 3327 07e3 2E5C4932 		.ascii	".\\I2C.c\000"
 3327      432E6300 
 3328              	.LASF61:
 3329 07eb 73686966 		.ascii	"shiftPassword\000"
 3329      74506173 
 3329      73776F72 
ARM GAS  C:\Users\Diego\AppData\Local\Temp\cctB0Z5v.s 			page 71


 3329      6400
 3330              	.LASF0:
 3331 07f9 7369676E 		.ascii	"signed char\000"
 3331      65642063 
 3331      68617200 
 3332              	.LASF78:
 3333 0805 76616C6F 		.ascii	"valor\000"
 3333      7200
 3334              	.LASF142:
 3335 080b 636F756E 		.ascii	"count_protector\000"
 3335      745F7072 
 3335      6F746563 
 3335      746F7200 
 3336              	.LASF3:
 3337 081b 73686F72 		.ascii	"short unsigned int\000"
 3337      7420756E 
 3337      7369676E 
 3337      65642069 
 3337      6E7400
 3338              	.LASF91:
 3339 082e 636F756E 		.ascii	"countPump\000"
 3339      7450756D 
 3339      7000
 3340              	.LASF69:
 3341 0838 70726F64 		.ascii	"productSale\000"
 3341      75637453 
 3341      616C6500 
 3342              	.LASF11:
 3343 0844 75696E74 		.ascii	"uint8\000"
 3343      3800
 3344              	.LASF15:
 3345 084a 646F7562 		.ascii	"double\000"
 3345      6C6500
 3346              	.LASF22:
 3347 0851 77617954 		.ascii	"wayToPay\000"
 3347      6F506179 
 3347      00
 3348              	.LASF38:
 3349 085a 74696D65 		.ascii	"timeLiftHandle\000"
 3349      4C696674 
 3349      48616E64 
 3349      6C6500
 3350              	.LASF65:
 3351 0869 70707541 		.ascii	"ppuAuthorized\000"
 3351      7574686F 
 3351      72697A65 
 3351      6400
 3352              	.LASF26:
 3353 0877 73657269 		.ascii	"serialSelectedSale\000"
 3353      616C5365 
 3353      6C656374 
 3353      65645361 
 3353      6C6500
 3354              	.LASF63:
 3355 088a 706F7369 		.ascii	"position\000"
 3355      74696F6E 
 3355      00
ARM GAS  C:\Users\Diego\AppData\Local\Temp\cctB0Z5v.s 			page 72


 3356              	.LASF83:
 3357 0893 6C656572 		.ascii	"leer_fecha\000"
 3357      5F666563 
 3357      686100
 3358              	.LASF147:
 3359 089e 70756D70 		.ascii	"pumpGap\000"
 3359      47617000 
 3360              	.LASF73:
 3361 08a6 72665374 		.ascii	"rfState\000"
 3361      61746500 
 3362              	.LASF164:
 3363 08ae 62756666 		.ascii	"bufferDisplay4\000"
 3363      65724469 
 3363      73706C61 
 3363      793400
 3364              		.ident	"GCC: (GNU Tools for ARM Embedded Processors) 4.9.3 20150303 (release) [ARM/embedded-4_9-br
