ARM GAS  C:\Users\RECEPC~1\AppData\Local\Temp\cc9CG50v.s 			page 1


   1              		.syntax unified
   2              		.cpu cortex-m3
   3              		.fpu softvfp
   4              		.eabi_attribute 20, 1
   5              		.eabi_attribute 21, 1
   6              		.eabi_attribute 23, 3
   7              		.eabi_attribute 24, 1
   8              		.eabi_attribute 25, 1
   9              		.eabi_attribute 26, 1
  10              		.eabi_attribute 30, 1
  11              		.eabi_attribute 34, 1
  12              		.eabi_attribute 18, 4
  13              		.thumb
  14              		.file	"I2C.c"
  15              		.text
  16              	.Ltext0:
  17              		.cfi_sections	.debug_frame
  18              		.section	.text.write_psoc1,"ax",%progbits
  19              		.align	2
  20              		.global	write_psoc1
  21              		.thumb
  22              		.thumb_func
  23              		.type	write_psoc1, %function
  24              	write_psoc1:
  25              	.LFB63:
  26              		.file 1 ".\\I2C.c"
   1:.\I2C.c       **** /*
   2:.\I2C.c       **** ***************************************************************************************************
   3:.\I2C.c       **** *                                           GRP550/700 CODE
   4:.\I2C.c       **** *
   5:.\I2C.c       **** *                             (c) Copyright 2013; Sistemas Insepet LTDA
   6:.\I2C.c       **** *
   7:.\I2C.c       **** *               All rights reserved.  Protected by international copyright laws.
   8:.\I2C.c       **** *               Knowledge of the source code may NOT be used to develop a similar product.
   9:.\I2C.c       **** *               Please help us continue to provide the Embedded community with the finest
  10:.\I2C.c       **** *               software available.  Your honesty is greatly appreciated.
  11:.\I2C.c       **** ***************************************************************************************************
  12:.\I2C.c       **** */
  13:.\I2C.c       **** 
  14:.\I2C.c       **** /*
  15:.\I2C.c       **** ***************************************************************************************************
  16:.\I2C.c       **** *
  17:.\I2C.c       **** *                                             GRP550/700 CODE
  18:.\I2C.c       **** *
  19:.\I2C.c       **** *                                             CYPRESS PSoC5LP
  20:.\I2C.c       **** *                                                with the
  21:.\I2C.c       **** *                                            CY8C5969AXI-LP035
  22:.\I2C.c       **** *
  23:.\I2C.c       **** * Filename      : I2C.c
  24:.\I2C.c       **** * Version       : V1.00
  25:.\I2C.c       **** * Programmer(s) : 
  26:.\I2C.c       ****                   
  27:.\I2C.c       **** ***************************************************************************************************
  28:.\I2C.c       **** */
  29:.\I2C.c       **** 
  30:.\I2C.c       **** 
  31:.\I2C.c       **** /*
ARM GAS  C:\Users\RECEPC~1\AppData\Local\Temp\cc9CG50v.s 			page 2


  32:.\I2C.c       **** ***************************************************************************************************
  33:.\I2C.c       **** *                                             INCLUDE FILES
  34:.\I2C.c       **** ***************************************************************************************************
  35:.\I2C.c       **** */
  36:.\I2C.c       **** #include <device.h>
  37:.\I2C.c       **** #include <Variables.h>
  38:.\I2C.c       **** #include "LCD.h"
  39:.\I2C.c       **** 
  40:.\I2C.c       **** 
  41:.\I2C.c       **** 
  42:.\I2C.c       **** /*
  43:.\I2C.c       **** ***************************************************************************************************
  44:.\I2C.c       **** *                                   uint8 write_psoc1( uint8 puerto, uint8 valor )
  45:.\I2C.c       **** *
  46:.\I2C.c       **** * Description : 
  47:.\I2C.c       **** *               
  48:.\I2C.c       **** *
  49:.\I2C.c       **** * Argument(s) : none
  50:.\I2C.c       **** *
  51:.\I2C.c       **** * Return(s)   : none
  52:.\I2C.c       **** *
  53:.\I2C.c       **** * Caller(s)   : 
  54:.\I2C.c       **** *
  55:.\I2C.c       **** * Note(s)     : none.
  56:.\I2C.c       **** ***************************************************************************************************
  57:.\I2C.c       **** */
  58:.\I2C.c       **** 
  59:.\I2C.c       **** uint8 write_psoc1( uint8 puerto, uint8 valor ){
  27              		.loc 1 59 0
  28              		.cfi_startproc
  29              		@ args = 0, pretend = 0, frame = 8
  30              		@ frame_needed = 0, uses_anonymous_args = 0
  31              	.LVL0:
  32 0000 10B5     		push	{r4, lr}
  33              		.cfi_def_cfa_offset 8
  34              		.cfi_offset 4, -8
  35              		.cfi_offset 14, -4
  36 0002 82B0     		sub	sp, sp, #8
  37              		.cfi_def_cfa_offset 16
  60:.\I2C.c       **** 	uint8 status, dato[2],i;
  61:.\I2C.c       **** 	dato[0]=puerto;
  38              		.loc 1 61 0
  39 0004 8DF80400 		strb	r0, [sp, #4]
  62:.\I2C.c       **** 	dato[1]=valor;
  40              		.loc 1 62 0
  41 0008 8DF80510 		strb	r1, [sp, #5]
  63:.\I2C.c       **** 	I2C_Bus_MasterClearStatus();
  42              		.loc 1 63 0
  43 000c FFF7FEFF 		bl	I2C_Bus_MasterClearStatus
  44              	.LVL1:
  64:.\I2C.c       ****     status = I2C_Bus_MasterSendStart(7u, I2C_Bus_WRITE_XFER_MODE);
  45              		.loc 1 64 0
  46 0010 0720     		movs	r0, #7
  47 0012 0021     		movs	r1, #0
  48 0014 FFF7FEFF 		bl	I2C_Bus_MasterSendStart
  49              	.LVL2:
  65:.\I2C.c       ****     if(I2C_Bus_MSTR_NO_ERROR == status) 
ARM GAS  C:\Users\RECEPC~1\AppData\Local\Temp\cc9CG50v.s 			page 3


  50              		.loc 1 65 0
  51 0018 58B1     		cbz	r0, .L5
  66:.\I2C.c       ****     {
  67:.\I2C.c       ****         for(i=0; i<2; i++)
  68:.\I2C.c       ****         {
  69:.\I2C.c       ****             status = I2C_Bus_MasterWriteByte(dato[i]);
  70:.\I2C.c       ****             if(status != I2C_Bus_MSTR_NO_ERROR)
  71:.\I2C.c       ****             {
  72:.\I2C.c       ****                 return 0;
  73:.\I2C.c       ****             }
  74:.\I2C.c       ****         }
  75:.\I2C.c       ****     }
  76:.\I2C.c       ****     else{
  77:.\I2C.c       **** 		return 0;
  52              		.loc 1 77 0
  53 001a 0020     		movs	r0, #0
  54              	.LVL3:
  55 001c 11E0     		b	.L3
  56              	.LVL4:
  57              	.L4:
  69:.\I2C.c       ****             if(status != I2C_Bus_MSTR_NO_ERROR)
  58              		.loc 1 69 0
  59 001e 02AB     		add	r3, sp, #8
  60 0020 2344     		add	r3, r3, r4
  61 0022 13F8040C 		ldrb	r0, [r3, #-4]	@ zero_extendqisi2
  62              	.LVL5:
  63 0026 FFF7FEFF 		bl	I2C_Bus_MasterWriteByte
  64              	.LVL6:
  70:.\I2C.c       ****             {
  65              		.loc 1 70 0
  66 002a 48B9     		cbnz	r0, .L6
  67:.\I2C.c       ****         {
  67              		.loc 1 67 0 discriminator 2
  68 002c 0134     		adds	r4, r4, #1
  69              	.LVL7:
  70 002e E4B2     		uxtb	r4, r4
  71              	.LVL8:
  72 0030 00E0     		b	.L2
  73              	.LVL9:
  74              	.L5:
  75 0032 0024     		movs	r4, #0
  76              	.L2:
  77              	.LVL10:
  67:.\I2C.c       ****         {
  78              		.loc 1 67 0 is_stmt 0 discriminator 1
  79 0034 012C     		cmp	r4, #1
  80 0036 F2D9     		bls	.L4
  78:.\I2C.c       ****     }
  79:.\I2C.c       ****     I2C_Bus_MasterSendStop();	
  81              		.loc 1 79 0 is_stmt 1
  82 0038 FFF7FEFF 		bl	I2C_Bus_MasterSendStop
  83              	.LVL11:
  80:.\I2C.c       **** 	return 1;
  84              		.loc 1 80 0
  85 003c 0120     		movs	r0, #1
  86 003e 00E0     		b	.L3
  87              	.LVL12:
ARM GAS  C:\Users\RECEPC~1\AppData\Local\Temp\cc9CG50v.s 			page 4


  88              	.L6:
  72:.\I2C.c       ****             }
  89              		.loc 1 72 0
  90 0040 0020     		movs	r0, #0
  91              	.LVL13:
  92              	.L3:
  81:.\I2C.c       **** }
  93              		.loc 1 81 0
  94 0042 02B0     		add	sp, sp, #8
  95              		.cfi_def_cfa_offset 8
  96              		@ sp needed
  97 0044 10BD     		pop	{r4, pc}
  98              		.cfi_endproc
  99              	.LFE63:
 100              		.size	write_psoc1, .-write_psoc1
 101 0046 00BF     		.section	.text.leer_fecha,"ax",%progbits
 102              		.align	2
 103              		.global	leer_fecha
 104              		.thumb
 105              		.thumb_func
 106              		.type	leer_fecha, %function
 107              	leer_fecha:
 108              	.LFB64:
  82:.\I2C.c       **** /*
  83:.\I2C.c       **** ***************************************************************************************************
  84:.\I2C.c       **** *                                         uint8 leer_fecha( void )
  85:.\I2C.c       **** *
  86:.\I2C.c       **** * Description : 
  87:.\I2C.c       **** *               
  88:.\I2C.c       **** *
  89:.\I2C.c       **** * Argument(s) : none
  90:.\I2C.c       **** *
  91:.\I2C.c       **** * Return(s)   : none
  92:.\I2C.c       **** *
  93:.\I2C.c       **** * Caller(s)   : 
  94:.\I2C.c       **** *
  95:.\I2C.c       **** * Note(s)     : none.
  96:.\I2C.c       **** ***************************************************************************************************
  97:.\I2C.c       **** */
  98:.\I2C.c       **** uint8 leer_fecha(){
 109              		.loc 1 98 0
 110              		.cfi_startproc
 111              		@ args = 0, pretend = 0, frame = 0
 112              		@ frame_needed = 0, uses_anonymous_args = 0
 113 0000 38B5     		push	{r3, r4, r5, lr}
 114              		.cfi_def_cfa_offset 16
 115              		.cfi_offset 3, -16
 116              		.cfi_offset 4, -12
 117              		.cfi_offset 5, -8
 118              		.cfi_offset 14, -4
 119              	.LVL14:
  99:.\I2C.c       **** 	uint8 status,i;
 100:.\I2C.c       **** 	for(i=4;i<=6;i++){
 120              		.loc 1 100 0
 121 0002 0424     		movs	r4, #4
 122 0004 1DE0     		b	.L9
 123              	.LVL15:
ARM GAS  C:\Users\RECEPC~1\AppData\Local\Temp\cc9CG50v.s 			page 5


 124              	.L11:
 101:.\I2C.c       ****         I2C_Bus_MasterClearStatus();
 125              		.loc 1 101 0
 126 0006 FFF7FEFF 		bl	I2C_Bus_MasterClearStatus
 127              	.LVL16:
 102:.\I2C.c       ****         status = I2C_Bus_MasterSendStart(0x68, I2C_Bus_WRITE_XFER_MODE);
 128              		.loc 1 102 0
 129 000a 6820     		movs	r0, #104
 130 000c 0021     		movs	r1, #0
 131 000e FFF7FEFF 		bl	I2C_Bus_MasterSendStart
 132              	.LVL17:
 103:.\I2C.c       ****         if(I2C_Bus_MSTR_NO_ERROR == status)								 		/* Check if transfer completed without errors
 133              		.loc 1 103 0
 134 0012 D0B9     		cbnz	r0, .L12
 104:.\I2C.c       ****     	{
 105:.\I2C.c       ****             status = I2C_Bus_MasterWriteByte(i);
 135              		.loc 1 105 0
 136 0014 2046     		mov	r0, r4
 137              	.LVL18:
 138 0016 FFF7FEFF 		bl	I2C_Bus_MasterWriteByte
 139              	.LVL19:
 106:.\I2C.c       ****             if(status != I2C_Bus_MSTR_NO_ERROR)
 140              		.loc 1 106 0
 141 001a C0B9     		cbnz	r0, .L13
 107:.\I2C.c       ****             {
 108:.\I2C.c       ****                 return 0;
 109:.\I2C.c       ****             }
 110:.\I2C.c       **** 			else{
 111:.\I2C.c       **** 		        I2C_Bus_MasterSendStop(); 										/* Send Stop */
 142              		.loc 1 111 0
 143 001c FFF7FEFF 		bl	I2C_Bus_MasterSendStop
 144              	.LVL20:
 112:.\I2C.c       **** 		        CyDelay(10);
 145              		.loc 1 112 0
 146 0020 0A20     		movs	r0, #10
 147 0022 FFF7FEFF 		bl	CyDelay
 148              	.LVL21:
 113:.\I2C.c       **** 		        status = I2C_Bus_MasterSendStart(0x68, I2C_Bus_READ_XFER_MODE);
 149              		.loc 1 113 0
 150 0026 6820     		movs	r0, #104
 151 0028 0121     		movs	r1, #1
 152 002a FFF7FEFF 		bl	I2C_Bus_MasterSendStart
 153              	.LVL22:
 114:.\I2C.c       **** 		        if(I2C_Bus_MSTR_NO_ERROR == status){
 154              		.loc 1 114 0
 155 002e 80B9     		cbnz	r0, .L14
 115:.\I2C.c       **** 		            dateDownHandle[i-4] = I2C_Bus_MasterReadByte(I2C_Bus_NAK_DATA);
 156              		.loc 1 115 0
 157 0030 251F     		subs	r5, r4, #4
 158 0032 FFF7FEFF 		bl	I2C_Bus_MasterReadByte
 159              	.LVL23:
 160 0036 084B     		ldr	r3, .L16
 161 0038 5855     		strb	r0, [r3, r5]
 116:.\I2C.c       **** 		        }
 117:.\I2C.c       **** 				else{
 118:.\I2C.c       **** 					return 0;
 119:.\I2C.c       **** 				}
ARM GAS  C:\Users\RECEPC~1\AppData\Local\Temp\cc9CG50v.s 			page 6


 120:.\I2C.c       **** 		        I2C_Bus_MasterSendStop();	
 162              		.loc 1 120 0
 163 003a FFF7FEFF 		bl	I2C_Bus_MasterSendStop
 164              	.LVL24:
 100:.\I2C.c       ****         I2C_Bus_MasterClearStatus();
 165              		.loc 1 100 0
 166 003e 0134     		adds	r4, r4, #1
 167              	.LVL25:
 168 0040 E4B2     		uxtb	r4, r4
 169              	.LVL26:
 170              	.L9:
 100:.\I2C.c       ****         I2C_Bus_MasterClearStatus();
 171              		.loc 1 100 0 is_stmt 0 discriminator 1
 172 0042 062C     		cmp	r4, #6
 173 0044 DFD9     		bls	.L11
 121:.\I2C.c       **** 			}
 122:.\I2C.c       ****         }
 123:.\I2C.c       **** 		else{
 124:.\I2C.c       **** 			return 0;
 125:.\I2C.c       **** 		}		
 126:.\I2C.c       **** 	}
 127:.\I2C.c       **** 	return 1;
 174              		.loc 1 127 0 is_stmt 1
 175 0046 0120     		movs	r0, #1
 176 0048 38BD     		pop	{r3, r4, r5, pc}
 177              	.LVL27:
 178              	.L12:
 124:.\I2C.c       **** 		}		
 179              		.loc 1 124 0
 180 004a 0020     		movs	r0, #0
 181              	.LVL28:
 182 004c 38BD     		pop	{r3, r4, r5, pc}
 183              	.LVL29:
 184              	.L13:
 108:.\I2C.c       ****             }
 185              		.loc 1 108 0
 186 004e 0020     		movs	r0, #0
 187              	.LVL30:
 188 0050 38BD     		pop	{r3, r4, r5, pc}
 189              	.LVL31:
 190              	.L14:
 118:.\I2C.c       **** 				}
 191              		.loc 1 118 0
 192 0052 0020     		movs	r0, #0
 193              	.LVL32:
 128:.\I2C.c       **** }
 194              		.loc 1 128 0
 195 0054 38BD     		pop	{r3, r4, r5, pc}
 196              	.LVL33:
 197              	.L17:
 198 0056 00BF     		.align	2
 199              	.L16:
 200 0058 00000000 		.word	dateDownHandle
 201              		.cfi_endproc
 202              	.LFE64:
 203              		.size	leer_fecha, .-leer_fecha
 204              		.section	.text.leer_hora,"ax",%progbits
ARM GAS  C:\Users\RECEPC~1\AppData\Local\Temp\cc9CG50v.s 			page 7


 205              		.align	2
 206              		.global	leer_hora
 207              		.thumb
 208              		.thumb_func
 209              		.type	leer_hora, %function
 210              	leer_hora:
 211              	.LFB65:
 129:.\I2C.c       **** /*
 130:.\I2C.c       **** ***************************************************************************************************
 131:.\I2C.c       **** *                                         uint8 leer_hora( void )
 132:.\I2C.c       **** *
 133:.\I2C.c       **** * Description : 
 134:.\I2C.c       **** *               
 135:.\I2C.c       **** *
 136:.\I2C.c       **** * Argument(s) : none
 137:.\I2C.c       **** *
 138:.\I2C.c       **** * Return(s)   : none
 139:.\I2C.c       **** *
 140:.\I2C.c       **** * Caller(s)   : 
 141:.\I2C.c       **** *
 142:.\I2C.c       **** * Note(s)     : none.
 143:.\I2C.c       **** ***************************************************************************************************
 144:.\I2C.c       **** */
 145:.\I2C.c       **** uint8 leer_hora(){
 212              		.loc 1 145 0
 213              		.cfi_startproc
 214              		@ args = 0, pretend = 0, frame = 0
 215              		@ frame_needed = 0, uses_anonymous_args = 0
 216 0000 38B5     		push	{r3, r4, r5, lr}
 217              		.cfi_def_cfa_offset 16
 218              		.cfi_offset 3, -16
 219              		.cfi_offset 4, -12
 220              		.cfi_offset 5, -8
 221              		.cfi_offset 14, -4
 222              	.LVL34:
 146:.\I2C.c       **** 	uint8 status,i;
 147:.\I2C.c       **** 	for(i=1;i<=2;i++){
 223              		.loc 1 147 0
 224 0002 0124     		movs	r4, #1
 225 0004 1DE0     		b	.L19
 226              	.LVL35:
 227              	.L21:
 148:.\I2C.c       ****         I2C_Bus_MasterClearStatus();
 228              		.loc 1 148 0
 229 0006 FFF7FEFF 		bl	I2C_Bus_MasterClearStatus
 230              	.LVL36:
 149:.\I2C.c       ****         status = I2C_Bus_MasterSendStart(0x68, I2C_Bus_WRITE_XFER_MODE);
 231              		.loc 1 149 0
 232 000a 6820     		movs	r0, #104
 233 000c 0021     		movs	r1, #0
 234 000e FFF7FEFF 		bl	I2C_Bus_MasterSendStart
 235              	.LVL37:
 150:.\I2C.c       ****         if(I2C_Bus_MSTR_NO_ERROR == status)								 		/* Check if transfer completed without errors
 236              		.loc 1 150 0
 237 0012 D0B9     		cbnz	r0, .L22
 151:.\I2C.c       ****     	{
 152:.\I2C.c       ****             status = I2C_Bus_MasterWriteByte(i);
ARM GAS  C:\Users\RECEPC~1\AppData\Local\Temp\cc9CG50v.s 			page 8


 238              		.loc 1 152 0
 239 0014 2046     		mov	r0, r4
 240              	.LVL38:
 241 0016 FFF7FEFF 		bl	I2C_Bus_MasterWriteByte
 242              	.LVL39:
 153:.\I2C.c       ****             if(status != I2C_Bus_MSTR_NO_ERROR)
 243              		.loc 1 153 0
 244 001a C0B9     		cbnz	r0, .L23
 154:.\I2C.c       ****             {
 155:.\I2C.c       ****                 return 0;
 156:.\I2C.c       ****             }
 157:.\I2C.c       **** 			else{
 158:.\I2C.c       **** 		        I2C_Bus_MasterSendStop(); 										/* Send Stop */
 245              		.loc 1 158 0
 246 001c FFF7FEFF 		bl	I2C_Bus_MasterSendStop
 247              	.LVL40:
 159:.\I2C.c       **** 		        CyDelay(10);
 248              		.loc 1 159 0
 249 0020 0A20     		movs	r0, #10
 250 0022 FFF7FEFF 		bl	CyDelay
 251              	.LVL41:
 160:.\I2C.c       **** 		        status = I2C_Bus_MasterSendStart(0x68, I2C_Bus_READ_XFER_MODE);
 252              		.loc 1 160 0
 253 0026 6820     		movs	r0, #104
 254 0028 0121     		movs	r1, #1
 255 002a FFF7FEFF 		bl	I2C_Bus_MasterSendStart
 256              	.LVL42:
 161:.\I2C.c       **** 		        if(I2C_Bus_MSTR_NO_ERROR == status){
 257              		.loc 1 161 0
 258 002e 80B9     		cbnz	r0, .L24
 162:.\I2C.c       **** 		            timeDownHandle[i-1] = I2C_Bus_MasterReadByte(I2C_Bus_NAK_DATA);
 259              		.loc 1 162 0
 260 0030 651E     		subs	r5, r4, #1
 261 0032 FFF7FEFF 		bl	I2C_Bus_MasterReadByte
 262              	.LVL43:
 263 0036 084B     		ldr	r3, .L26
 264 0038 5855     		strb	r0, [r3, r5]
 163:.\I2C.c       **** 		        }
 164:.\I2C.c       **** 				else{
 165:.\I2C.c       **** 					return 0;
 166:.\I2C.c       **** 				}
 167:.\I2C.c       **** 		        I2C_Bus_MasterSendStop();	
 265              		.loc 1 167 0
 266 003a FFF7FEFF 		bl	I2C_Bus_MasterSendStop
 267              	.LVL44:
 147:.\I2C.c       ****         I2C_Bus_MasterClearStatus();
 268              		.loc 1 147 0
 269 003e 0134     		adds	r4, r4, #1
 270              	.LVL45:
 271 0040 E4B2     		uxtb	r4, r4
 272              	.LVL46:
 273              	.L19:
 147:.\I2C.c       ****         I2C_Bus_MasterClearStatus();
 274              		.loc 1 147 0 is_stmt 0 discriminator 1
 275 0042 022C     		cmp	r4, #2
 276 0044 DFD9     		bls	.L21
 168:.\I2C.c       **** 			}
ARM GAS  C:\Users\RECEPC~1\AppData\Local\Temp\cc9CG50v.s 			page 9


 169:.\I2C.c       ****         }
 170:.\I2C.c       **** 		else{
 171:.\I2C.c       **** 			return 0;
 172:.\I2C.c       **** 		}		
 173:.\I2C.c       **** 	}
 174:.\I2C.c       **** 	return 1;
 277              		.loc 1 174 0 is_stmt 1
 278 0046 0120     		movs	r0, #1
 279 0048 38BD     		pop	{r3, r4, r5, pc}
 280              	.LVL47:
 281              	.L22:
 171:.\I2C.c       **** 		}		
 282              		.loc 1 171 0
 283 004a 0020     		movs	r0, #0
 284              	.LVL48:
 285 004c 38BD     		pop	{r3, r4, r5, pc}
 286              	.LVL49:
 287              	.L23:
 155:.\I2C.c       ****             }
 288              		.loc 1 155 0
 289 004e 0020     		movs	r0, #0
 290              	.LVL50:
 291 0050 38BD     		pop	{r3, r4, r5, pc}
 292              	.LVL51:
 293              	.L24:
 165:.\I2C.c       **** 				}
 294              		.loc 1 165 0
 295 0052 0020     		movs	r0, #0
 296              	.LVL52:
 175:.\I2C.c       **** }
 297              		.loc 1 175 0
 298 0054 38BD     		pop	{r3, r4, r5, pc}
 299              	.LVL53:
 300              	.L27:
 301 0056 00BF     		.align	2
 302              	.L26:
 303 0058 00000000 		.word	timeDownHandle
 304              		.cfi_endproc
 305              	.LFE65:
 306              		.size	leer_hora, .-leer_hora
 307              		.comm	side,1036,4
 308              		.comm	bufferDisplay4,648,4
 309              		.comm	bufferDisplay3,648,4
 310              		.comm	bufferDisplay2,648,4
 311              		.comm	bufferDisplay1,648,4
 312              		.comm	intIDStation,2,2
 313              		.comm	buffer_tx,1500,4
 314              		.comm	buffer_rf,1500,4
 315              		.comm	printPortB,1,1
 316              		.comm	printPortA,1,1
 317              		.comm	pumpGap,3,4
 318              		.comm	idStation,5,4
 319              		.comm	controlChar,1,1
 320              		.comm	configAccess,5,4
 321              		.comm	count_protector2,1,1
 322              		.comm	count_protector,1,1
 323              		.comm	timeDownHandle,2,4
ARM GAS  C:\Users\RECEPC~1\AppData\Local\Temp\cc9CG50v.s 			page 10


 324              		.comm	dateDownHandle,3,4
 325              		.comm	VolUnit,6,4
 326              		.comm	PrinterType,1,1
 327              		.comm	hiddenKeys,1,1
 328              		.comm	digits,1,1
 329              		.comm	lockTurn,1,1
 330              		.comm	NumPositions,1,1
 331              		.comm	statePump,4,4
 332              		.comm	DDMode,1,1
 333              		.comm	PPUDec,1,1
 334              		.comm	VolDec,1,1
 335              		.comm	MoneyDec,1,1
 336              		.comm	ConversionFactor,1,1
 337              		.comm	UnitType,1,1
 338              		.comm	IDCast,4,4
 339              		.comm	PlateRequest,1,1
 340              		.comm	PrevStatePump,4,4
 341              		.comm	stateBeagleSoft,1,1
 342              		.comm	flagResetMux,1,1
 343              		.comm	passwordSeller,8,4
 344              		.comm	typeIdSeller,1,1
 345              		.comm	idSeller,25,4
 346              		.comm	temporal,30,4
 347              		.comm	residue,14,4
 348              		.comm	screen,2,4
 349              		.comm	date,3,4
 350              		.comm	time,3,4
 351              		.comm	symbols,2,4
 352              		.comm	decimalVolume,1,1
 353              		.comm	decimalMoney,1,1
 354              		.comm	ppux10,1,1
 355              		.comm	delayPicture2,4,4
 356              		.comm	delayPicture1,4,4
 357              		.comm	productNumber,1,1
 358              		.comm	flagPoint2,1,1
 359              		.comm	flagPoint1,1,1
 360              		.comm	numberKeys2,1,1
 361              		.comm	numberKeys1,1,1
 362              		.comm	flowDisplay4,4,4
 363              		.comm	flowDisplay3,4,4
 364              		.comm	flowDisplay2,4,4
 365              		.comm	flowDisplay1,4,4
 366              		.comm	countPump,8,8
 367              		.comm	countBeagleTX,8,8
 368              		.comm	countAnimation2,8,8
 369              		.comm	countAnimation1,8,8
 370              		.text
 371              	.Letext0:
 372              		.file 2 "c:\\program files (x86)\\cypress\\psoc creator\\3.3\\psoc creator\\import\\gnu\\arm\\4.9.
 373              		.file 3 "c:\\program files (x86)\\cypress\\psoc creator\\3.3\\psoc creator\\import\\gnu\\arm\\4.9.
 374              		.file 4 "Generated_Source\\PSoC5/cytypes.h"
 375              		.file 5 "./Variables.h"
 376              		.file 6 "Generated_Source\\PSoC5/core_cm3.h"
 377              		.file 7 "Generated_Source\\PSoC5/I2C_Bus.h"
 378              		.file 8 "Generated_Source\\PSoC5/CyLib.h"
 379              		.section	.debug_info,"",%progbits
 380              	.Ldebug_info0:
ARM GAS  C:\Users\RECEPC~1\AppData\Local\Temp\cc9CG50v.s 			page 11


 381 0000 AC0C0000 		.4byte	0xcac
 382 0004 0400     		.2byte	0x4
 383 0006 00000000 		.4byte	.Ldebug_abbrev0
 384 000a 04       		.byte	0x4
 385 000b 01       		.uleb128 0x1
 386 000c 63060000 		.4byte	.LASF159
 387 0010 01       		.byte	0x1
 388 0011 95070000 		.4byte	.LASF160
 389 0015 19070000 		.4byte	.LASF161
 390 0019 00000000 		.4byte	.Ldebug_ranges0+0
 391 001d 00000000 		.4byte	0
 392 0021 00000000 		.4byte	.Ldebug_line0
 393 0025 02       		.uleb128 0x2
 394 0026 01       		.byte	0x1
 395 0027 06       		.byte	0x6
 396 0028 AB070000 		.4byte	.LASF0
 397 002c 02       		.uleb128 0x2
 398 002d 01       		.byte	0x1
 399 002e 08       		.byte	0x8
 400 002f 55060000 		.4byte	.LASF1
 401 0033 02       		.uleb128 0x2
 402 0034 02       		.byte	0x2
 403 0035 05       		.byte	0x5
 404 0036 CB040000 		.4byte	.LASF2
 405 003a 02       		.uleb128 0x2
 406 003b 02       		.byte	0x2
 407 003c 07       		.byte	0x7
 408 003d CD070000 		.4byte	.LASF3
 409 0041 03       		.uleb128 0x3
 410 0042 AF000000 		.4byte	.LASF9
 411 0046 02       		.byte	0x2
 412 0047 3F       		.byte	0x3f
 413 0048 4C000000 		.4byte	0x4c
 414 004c 02       		.uleb128 0x2
 415 004d 04       		.byte	0x4
 416 004e 05       		.byte	0x5
 417 004f D5040000 		.4byte	.LASF4
 418 0053 02       		.uleb128 0x2
 419 0054 04       		.byte	0x4
 420 0055 07       		.byte	0x7
 421 0056 C1050000 		.4byte	.LASF5
 422 005a 02       		.uleb128 0x2
 423 005b 08       		.byte	0x8
 424 005c 05       		.byte	0x5
 425 005d 81030000 		.4byte	.LASF6
 426 0061 02       		.uleb128 0x2
 427 0062 08       		.byte	0x8
 428 0063 07       		.byte	0x7
 429 0064 88010000 		.4byte	.LASF7
 430 0068 04       		.uleb128 0x4
 431 0069 04       		.byte	0x4
 432 006a 05       		.byte	0x5
 433 006b 696E7400 		.ascii	"int\000"
 434 006f 02       		.uleb128 0x2
 435 0070 04       		.byte	0x4
 436 0071 07       		.byte	0x7
 437 0072 88000000 		.4byte	.LASF8
ARM GAS  C:\Users\RECEPC~1\AppData\Local\Temp\cc9CG50v.s 			page 12


 438 0076 03       		.uleb128 0x3
 439 0077 F7050000 		.4byte	.LASF10
 440 007b 03       		.byte	0x3
 441 007c 2C       		.byte	0x2c
 442 007d 41000000 		.4byte	0x41
 443 0081 05       		.uleb128 0x5
 444 0082 F6070000 		.4byte	.LASF11
 445 0086 04       		.byte	0x4
 446 0087 3801     		.2byte	0x138
 447 0089 2C000000 		.4byte	0x2c
 448 008d 05       		.uleb128 0x5
 449 008e 16030000 		.4byte	.LASF12
 450 0092 04       		.byte	0x4
 451 0093 3901     		.2byte	0x139
 452 0095 3A000000 		.4byte	0x3a
 453 0099 05       		.uleb128 0x5
 454 009a 19040000 		.4byte	.LASF13
 455 009e 04       		.byte	0x4
 456 009f 3A01     		.2byte	0x13a
 457 00a1 53000000 		.4byte	0x53
 458 00a5 02       		.uleb128 0x2
 459 00a6 04       		.byte	0x4
 460 00a7 04       		.byte	0x4
 461 00a8 56010000 		.4byte	.LASF14
 462 00ac 02       		.uleb128 0x2
 463 00ad 08       		.byte	0x8
 464 00ae 04       		.byte	0x4
 465 00af FC070000 		.4byte	.LASF15
 466 00b3 05       		.uleb128 0x5
 467 00b4 8C050000 		.4byte	.LASF16
 468 00b8 04       		.byte	0x4
 469 00b9 4401     		.2byte	0x144
 470 00bb 61000000 		.4byte	0x61
 471 00bf 05       		.uleb128 0x5
 472 00c0 3A030000 		.4byte	.LASF17
 473 00c4 04       		.byte	0x4
 474 00c5 4901     		.2byte	0x149
 475 00c7 CB000000 		.4byte	0xcb
 476 00cb 02       		.uleb128 0x2
 477 00cc 01       		.byte	0x1
 478 00cd 08       		.byte	0x8
 479 00ce DA020000 		.4byte	.LASF18
 480 00d2 06       		.uleb128 0x6
 481 00d3 81000000 		.4byte	0x81
 482 00d7 06       		.uleb128 0x6
 483 00d8 99000000 		.4byte	0x99
 484 00dc 02       		.uleb128 0x2
 485 00dd 04       		.byte	0x4
 486 00de 07       		.byte	0x7
 487 00df B8050000 		.4byte	.LASF19
 488 00e3 07       		.uleb128 0x7
 489 00e4 81000000 		.4byte	0x81
 490 00e8 F3000000 		.4byte	0xf3
 491 00ec 08       		.uleb128 0x8
 492 00ed DC000000 		.4byte	0xdc
 493 00f1 03       		.byte	0x3
 494 00f2 00       		.byte	0
ARM GAS  C:\Users\RECEPC~1\AppData\Local\Temp\cc9CG50v.s 			page 13


 495 00f3 09       		.uleb128 0x9
 496 00f4 5E000000 		.4byte	.LASF71
 497 00f8 8802     		.2byte	0x288
 498 00fa 05       		.byte	0x5
 499 00fb 6A       		.byte	0x6a
 500 00fc 7C030000 		.4byte	0x37c
 501 0100 0A       		.uleb128 0xa
 502 0101 D0000000 		.4byte	.LASF20
 503 0105 05       		.byte	0x5
 504 0106 6B       		.byte	0x6b
 505 0107 81000000 		.4byte	0x81
 506 010b 00       		.byte	0
 507 010c 0A       		.uleb128 0xa
 508 010d 1D020000 		.4byte	.LASF21
 509 0111 05       		.byte	0x5
 510 0112 6C       		.byte	0x6c
 511 0113 7C030000 		.4byte	0x37c
 512 0117 01       		.byte	0x1
 513 0118 0A       		.uleb128 0xa
 514 0119 03080000 		.4byte	.LASF22
 515 011d 05       		.byte	0x5
 516 011e 6D       		.byte	0x6d
 517 011f 81000000 		.4byte	0x81
 518 0123 1A       		.byte	0x1a
 519 0124 0A       		.uleb128 0xa
 520 0125 43060000 		.4byte	.LASF23
 521 0129 05       		.byte	0x5
 522 012a 6E       		.byte	0x6e
 523 012b 81000000 		.4byte	0x81
 524 012f 1B       		.byte	0x1b
 525 0130 0A       		.uleb128 0xa
 526 0131 ED000000 		.4byte	.LASF24
 527 0135 05       		.byte	0x5
 528 0136 6F       		.byte	0x6f
 529 0137 8C030000 		.4byte	0x38c
 530 013b 1C       		.byte	0x1c
 531 013c 0A       		.uleb128 0xa
 532 013d 89040000 		.4byte	.LASF25
 533 0141 05       		.byte	0x5
 534 0142 70       		.byte	0x70
 535 0143 8C030000 		.4byte	0x38c
 536 0147 26       		.byte	0x26
 537 0148 0A       		.uleb128 0xa
 538 0149 29080000 		.4byte	.LASF26
 539 014d 05       		.byte	0x5
 540 014e 71       		.byte	0x71
 541 014f 7C030000 		.4byte	0x37c
 542 0153 30       		.byte	0x30
 543 0154 0A       		.uleb128 0xa
 544 0155 53040000 		.4byte	.LASF27
 545 0159 05       		.byte	0x5
 546 015a 72       		.byte	0x72
 547 015b 81000000 		.4byte	0x81
 548 015f 49       		.byte	0x49
 549 0160 0A       		.uleb128 0xa
 550 0161 F1060000 		.4byte	.LASF28
 551 0165 05       		.byte	0x5
ARM GAS  C:\Users\RECEPC~1\AppData\Local\Temp\cc9CG50v.s 			page 14


 552 0166 73       		.byte	0x73
 553 0167 81000000 		.4byte	0x81
 554 016b 4A       		.byte	0x4a
 555 016c 0A       		.uleb128 0xa
 556 016d D0020000 		.4byte	.LASF29
 557 0171 05       		.byte	0x5
 558 0172 74       		.byte	0x74
 559 0173 9C030000 		.4byte	0x39c
 560 0177 4B       		.byte	0x4b
 561 0178 0A       		.uleb128 0xa
 562 0179 00040000 		.4byte	.LASF30
 563 017d 05       		.byte	0x5
 564 017e 75       		.byte	0x75
 565 017f 81000000 		.4byte	0x81
 566 0183 60       		.byte	0x60
 567 0184 0A       		.uleb128 0xa
 568 0185 C7020000 		.4byte	.LASF31
 569 0189 05       		.byte	0x5
 570 018a 76       		.byte	0x76
 571 018b 81000000 		.4byte	0x81
 572 018f 61       		.byte	0x61
 573 0190 0A       		.uleb128 0xa
 574 0191 7C000000 		.4byte	.LASF32
 575 0195 05       		.byte	0x5
 576 0196 77       		.byte	0x77
 577 0197 81000000 		.4byte	0x81
 578 019b 62       		.byte	0x62
 579 019c 0A       		.uleb128 0xa
 580 019d 6F070000 		.4byte	.LASF33
 581 01a1 05       		.byte	0x5
 582 01a2 78       		.byte	0x78
 583 01a3 AC030000 		.4byte	0x3ac
 584 01a7 63       		.byte	0x63
 585 01a8 0A       		.uleb128 0xa
 586 01a9 B0020000 		.4byte	.LASF34
 587 01ad 05       		.byte	0x5
 588 01ae 79       		.byte	0x79
 589 01af BC030000 		.4byte	0x3bc
 590 01b3 65       		.byte	0x65
 591 01b4 0A       		.uleb128 0xa
 592 01b5 FA010000 		.4byte	.LASF35
 593 01b9 05       		.byte	0x5
 594 01ba 7A       		.byte	0x7a
 595 01bb 81000000 		.4byte	0x81
 596 01bf 79       		.byte	0x79
 597 01c0 0A       		.uleb128 0xa
 598 01c1 AF050000 		.4byte	.LASF36
 599 01c5 05       		.byte	0x5
 600 01c6 7B       		.byte	0x7b
 601 01c7 D2030000 		.4byte	0x3d2
 602 01cb 7A       		.byte	0x7a
 603 01cc 0A       		.uleb128 0xa
 604 01cd 26050000 		.4byte	.LASF37
 605 01d1 05       		.byte	0x5
 606 01d2 7C       		.byte	0x7c
 607 01d3 E2030000 		.4byte	0x3e2
 608 01d7 7F       		.byte	0x7f
ARM GAS  C:\Users\RECEPC~1\AppData\Local\Temp\cc9CG50v.s 			page 15


 609 01d8 0A       		.uleb128 0xa
 610 01d9 0C080000 		.4byte	.LASF38
 611 01dd 05       		.byte	0x5
 612 01de 7D       		.byte	0x7d
 613 01df E2030000 		.4byte	0x3e2
 614 01e3 85       		.byte	0x85
 615 01e4 0A       		.uleb128 0xa
 616 01e5 6B040000 		.4byte	.LASF39
 617 01e9 05       		.byte	0x5
 618 01ea 7E       		.byte	0x7e
 619 01eb F2030000 		.4byte	0x3f2
 620 01ef 8B       		.byte	0x8b
 621 01f0 0A       		.uleb128 0xa
 622 01f1 9F010000 		.4byte	.LASF40
 623 01f5 05       		.byte	0x5
 624 01f6 7F       		.byte	0x7f
 625 01f7 F2030000 		.4byte	0x3f2
 626 01fb 99       		.byte	0x99
 627 01fc 0A       		.uleb128 0xa
 628 01fd C4030000 		.4byte	.LASF41
 629 0201 05       		.byte	0x5
 630 0202 80       		.byte	0x80
 631 0203 F2030000 		.4byte	0x3f2
 632 0207 A7       		.byte	0xa7
 633 0208 0A       		.uleb128 0xa
 634 0209 49030000 		.4byte	.LASF42
 635 020d 05       		.byte	0x5
 636 020e 81       		.byte	0x81
 637 020f F2030000 		.4byte	0x3f2
 638 0213 B5       		.byte	0xb5
 639 0214 0A       		.uleb128 0xa
 640 0215 72050000 		.4byte	.LASF43
 641 0219 05       		.byte	0x5
 642 021a 82       		.byte	0x82
 643 021b F2030000 		.4byte	0x3f2
 644 021f C3       		.byte	0xc3
 645 0220 0A       		.uleb128 0xa
 646 0221 45040000 		.4byte	.LASF44
 647 0225 05       		.byte	0x5
 648 0226 83       		.byte	0x83
 649 0227 F2030000 		.4byte	0x3f2
 650 022b D1       		.byte	0xd1
 651 022c 0A       		.uleb128 0xa
 652 022d B2040000 		.4byte	.LASF45
 653 0231 05       		.byte	0x5
 654 0232 84       		.byte	0x84
 655 0233 02040000 		.4byte	0x402
 656 0237 DF       		.byte	0xdf
 657 0238 0A       		.uleb128 0xa
 658 0239 2F020000 		.4byte	.LASF46
 659 023d 05       		.byte	0x5
 660 023e 85       		.byte	0x85
 661 023f 02040000 		.4byte	0x402
 662 0243 EA       		.byte	0xea
 663 0244 0A       		.uleb128 0xa
 664 0245 BC020000 		.4byte	.LASF47
 665 0249 05       		.byte	0x5
ARM GAS  C:\Users\RECEPC~1\AppData\Local\Temp\cc9CG50v.s 			page 16


 666 024a 86       		.byte	0x86
 667 024b 02040000 		.4byte	0x402
 668 024f F5       		.byte	0xf5
 669 0250 0B       		.uleb128 0xb
 670 0251 0C040000 		.4byte	.LASF48
 671 0255 05       		.byte	0x5
 672 0256 87       		.byte	0x87
 673 0257 81000000 		.4byte	0x81
 674 025b 0001     		.2byte	0x100
 675 025d 0B       		.uleb128 0xb
 676 025e 2E030000 		.4byte	.LASF49
 677 0262 05       		.byte	0x5
 678 0263 88       		.byte	0x88
 679 0264 81000000 		.4byte	0x81
 680 0268 0101     		.2byte	0x101
 681 026a 0B       		.uleb128 0xb
 682 026b B9000000 		.4byte	.LASF50
 683 026f 05       		.byte	0x5
 684 0270 89       		.byte	0x89
 685 0271 81000000 		.4byte	0x81
 686 0275 0201     		.2byte	0x102
 687 0277 0B       		.uleb128 0xb
 688 0278 1A050000 		.4byte	.LASF51
 689 027c 05       		.byte	0x5
 690 027d 8A       		.byte	0x8a
 691 027e 81000000 		.4byte	0x81
 692 0282 0301     		.2byte	0x103
 693 0284 0B       		.uleb128 0xb
 694 0285 4C000000 		.4byte	.LASF52
 695 0289 05       		.byte	0x5
 696 028a 8B       		.byte	0x8b
 697 028b 12040000 		.4byte	0x412
 698 028f 0401     		.2byte	0x104
 699 0291 0B       		.uleb128 0xb
 700 0292 59030000 		.4byte	.LASF53
 701 0296 05       		.byte	0x5
 702 0297 8C       		.byte	0x8c
 703 0298 8C030000 		.4byte	0x38c
 704 029c 4501     		.2byte	0x145
 705 029e 0B       		.uleb128 0xb
 706 029f 27010000 		.4byte	.LASF54
 707 02a3 05       		.byte	0x5
 708 02a4 8D       		.byte	0x8d
 709 02a5 8C030000 		.4byte	0x38c
 710 02a9 4F01     		.2byte	0x14f
 711 02ab 0B       		.uleb128 0xb
 712 02ac 40030000 		.4byte	.LASF55
 713 02b0 05       		.byte	0x5
 714 02b1 8E       		.byte	0x8e
 715 02b2 8C030000 		.4byte	0x38c
 716 02b6 5901     		.2byte	0x159
 717 02b8 0B       		.uleb128 0xb
 718 02b9 96020000 		.4byte	.LASF56
 719 02bd 05       		.byte	0x5
 720 02be 8F       		.byte	0x8f
 721 02bf 22040000 		.4byte	0x422
 722 02c3 6301     		.2byte	0x163
ARM GAS  C:\Users\RECEPC~1\AppData\Local\Temp\cc9CG50v.s 			page 17


 723 02c5 0B       		.uleb128 0xb
 724 02c6 95000000 		.4byte	.LASF57
 725 02ca 05       		.byte	0x5
 726 02cb 90       		.byte	0x90
 727 02cc 22040000 		.4byte	0x422
 728 02d0 AE01     		.2byte	0x1ae
 729 02d2 0B       		.uleb128 0xb
 730 02d3 FA000000 		.4byte	.LASF58
 731 02d7 05       		.byte	0x5
 732 02d8 91       		.byte	0x91
 733 02d9 38040000 		.4byte	0x438
 734 02dd F901     		.2byte	0x1f9
 735 02df 0B       		.uleb128 0xb
 736 02e0 16060000 		.4byte	.LASF59
 737 02e4 05       		.byte	0x5
 738 02e5 92       		.byte	0x92
 739 02e6 38040000 		.4byte	0x438
 740 02ea 0802     		.2byte	0x208
 741 02ec 0B       		.uleb128 0xb
 742 02ed 03070000 		.4byte	.LASF60
 743 02f1 05       		.byte	0x5
 744 02f2 93       		.byte	0x93
 745 02f3 4E040000 		.4byte	0x44e
 746 02f7 1702     		.2byte	0x217
 747 02f9 0B       		.uleb128 0xb
 748 02fa 7A070000 		.4byte	.LASF61
 749 02fe 05       		.byte	0x5
 750 02ff 94       		.byte	0x94
 751 0300 4E040000 		.4byte	0x44e
 752 0304 3502     		.2byte	0x235
 753 0306 0B       		.uleb128 0xb
 754 0307 E5030000 		.4byte	.LASF62
 755 030b 05       		.byte	0x5
 756 030c 95       		.byte	0x95
 757 030d 8C030000 		.4byte	0x38c
 758 0311 5302     		.2byte	0x253
 759 0313 0B       		.uleb128 0xb
 760 0314 E5050000 		.4byte	.LASF63
 761 0318 05       		.byte	0x5
 762 0319 96       		.byte	0x96
 763 031a 81000000 		.4byte	0x81
 764 031e 5D02     		.2byte	0x25d
 765 0320 0B       		.uleb128 0xb
 766 0321 BE040000 		.4byte	.LASF64
 767 0325 05       		.byte	0x5
 768 0326 97       		.byte	0x97
 769 0327 64040000 		.4byte	0x464
 770 032b 5E02     		.2byte	0x25e
 771 032d 0B       		.uleb128 0xb
 772 032e 64030000 		.4byte	.LASF65
 773 0332 05       		.byte	0x5
 774 0333 98       		.byte	0x98
 775 0334 AC030000 		.4byte	0x3ac
 776 0338 6D02     		.2byte	0x26d
 777 033a 0B       		.uleb128 0xb
 778 033b 3B020000 		.4byte	.LASF66
 779 033f 05       		.byte	0x5
ARM GAS  C:\Users\RECEPC~1\AppData\Local\Temp\cc9CG50v.s 			page 18


 780 0340 99       		.byte	0x99
 781 0341 81000000 		.4byte	0x81
 782 0345 6F02     		.2byte	0x26f
 783 0347 0B       		.uleb128 0xb
 784 0348 49020000 		.4byte	.LASF67
 785 034c 05       		.byte	0x5
 786 034d 9A       		.byte	0x9a
 787 034e 81000000 		.4byte	0x81
 788 0352 7002     		.2byte	0x270
 789 0354 0B       		.uleb128 0xb
 790 0355 53020000 		.4byte	.LASF68
 791 0359 05       		.byte	0x5
 792 035a 9B       		.byte	0x9b
 793 035b 81000000 		.4byte	0x81
 794 035f 7102     		.2byte	0x271
 795 0361 0B       		.uleb128 0xb
 796 0362 05050000 		.4byte	.LASF69
 797 0366 05       		.byte	0x5
 798 0367 9C       		.byte	0x9c
 799 0368 02040000 		.4byte	0x402
 800 036c 7202     		.2byte	0x272
 801 036e 0B       		.uleb128 0xb
 802 036f 9D070000 		.4byte	.LASF70
 803 0373 05       		.byte	0x5
 804 0374 9D       		.byte	0x9d
 805 0375 02040000 		.4byte	0x402
 806 0379 7D02     		.2byte	0x27d
 807 037b 00       		.byte	0
 808 037c 07       		.uleb128 0x7
 809 037d 81000000 		.4byte	0x81
 810 0381 8C030000 		.4byte	0x38c
 811 0385 08       		.uleb128 0x8
 812 0386 DC000000 		.4byte	0xdc
 813 038a 18       		.byte	0x18
 814 038b 00       		.byte	0
 815 038c 07       		.uleb128 0x7
 816 038d 81000000 		.4byte	0x81
 817 0391 9C030000 		.4byte	0x39c
 818 0395 08       		.uleb128 0x8
 819 0396 DC000000 		.4byte	0xdc
 820 039a 09       		.byte	0x9
 821 039b 00       		.byte	0
 822 039c 07       		.uleb128 0x7
 823 039d 81000000 		.4byte	0x81
 824 03a1 AC030000 		.4byte	0x3ac
 825 03a5 08       		.uleb128 0x8
 826 03a6 DC000000 		.4byte	0xdc
 827 03aa 14       		.byte	0x14
 828 03ab 00       		.byte	0
 829 03ac 07       		.uleb128 0x7
 830 03ad 81000000 		.4byte	0x81
 831 03b1 BC030000 		.4byte	0x3bc
 832 03b5 08       		.uleb128 0x8
 833 03b6 DC000000 		.4byte	0xdc
 834 03ba 01       		.byte	0x1
 835 03bb 00       		.byte	0
 836 03bc 07       		.uleb128 0x7
ARM GAS  C:\Users\RECEPC~1\AppData\Local\Temp\cc9CG50v.s 			page 19


 837 03bd 81000000 		.4byte	0x81
 838 03c1 D2030000 		.4byte	0x3d2
 839 03c5 08       		.uleb128 0x8
 840 03c6 DC000000 		.4byte	0xdc
 841 03ca 01       		.byte	0x1
 842 03cb 08       		.uleb128 0x8
 843 03cc DC000000 		.4byte	0xdc
 844 03d0 09       		.byte	0x9
 845 03d1 00       		.byte	0
 846 03d2 07       		.uleb128 0x7
 847 03d3 81000000 		.4byte	0x81
 848 03d7 E2030000 		.4byte	0x3e2
 849 03db 08       		.uleb128 0x8
 850 03dc DC000000 		.4byte	0xdc
 851 03e0 04       		.byte	0x4
 852 03e1 00       		.byte	0
 853 03e2 07       		.uleb128 0x7
 854 03e3 81000000 		.4byte	0x81
 855 03e7 F2030000 		.4byte	0x3f2
 856 03eb 08       		.uleb128 0x8
 857 03ec DC000000 		.4byte	0xdc
 858 03f0 05       		.byte	0x5
 859 03f1 00       		.byte	0
 860 03f2 07       		.uleb128 0x7
 861 03f3 81000000 		.4byte	0x81
 862 03f7 02040000 		.4byte	0x402
 863 03fb 08       		.uleb128 0x8
 864 03fc DC000000 		.4byte	0xdc
 865 0400 0D       		.byte	0xd
 866 0401 00       		.byte	0
 867 0402 07       		.uleb128 0x7
 868 0403 81000000 		.4byte	0x81
 869 0407 12040000 		.4byte	0x412
 870 040b 08       		.uleb128 0x8
 871 040c DC000000 		.4byte	0xdc
 872 0410 0A       		.byte	0xa
 873 0411 00       		.byte	0
 874 0412 07       		.uleb128 0x7
 875 0413 81000000 		.4byte	0x81
 876 0417 22040000 		.4byte	0x422
 877 041b 08       		.uleb128 0x8
 878 041c DC000000 		.4byte	0xdc
 879 0420 40       		.byte	0x40
 880 0421 00       		.byte	0
 881 0422 07       		.uleb128 0x7
 882 0423 81000000 		.4byte	0x81
 883 0427 38040000 		.4byte	0x438
 884 042b 08       		.uleb128 0x8
 885 042c DC000000 		.4byte	0xdc
 886 0430 02       		.byte	0x2
 887 0431 08       		.uleb128 0x8
 888 0432 DC000000 		.4byte	0xdc
 889 0436 18       		.byte	0x18
 890 0437 00       		.byte	0
 891 0438 07       		.uleb128 0x7
 892 0439 81000000 		.4byte	0x81
 893 043d 4E040000 		.4byte	0x44e
ARM GAS  C:\Users\RECEPC~1\AppData\Local\Temp\cc9CG50v.s 			page 20


 894 0441 08       		.uleb128 0x8
 895 0442 DC000000 		.4byte	0xdc
 896 0446 02       		.byte	0x2
 897 0447 08       		.uleb128 0x8
 898 0448 DC000000 		.4byte	0xdc
 899 044c 04       		.byte	0x4
 900 044d 00       		.byte	0
 901 044e 07       		.uleb128 0x7
 902 044f 81000000 		.4byte	0x81
 903 0453 64040000 		.4byte	0x464
 904 0457 08       		.uleb128 0x8
 905 0458 DC000000 		.4byte	0xdc
 906 045c 02       		.byte	0x2
 907 045d 08       		.uleb128 0x8
 908 045e DC000000 		.4byte	0xdc
 909 0462 09       		.byte	0x9
 910 0463 00       		.byte	0
 911 0464 07       		.uleb128 0x7
 912 0465 81000000 		.4byte	0x81
 913 0469 74040000 		.4byte	0x474
 914 046d 08       		.uleb128 0x8
 915 046e DC000000 		.4byte	0xdc
 916 0472 0E       		.byte	0xe
 917 0473 00       		.byte	0
 918 0474 09       		.uleb128 0x9
 919 0475 3C080000 		.4byte	.LASF72
 920 0479 0301     		.2byte	0x103
 921 047b 05       		.byte	0x5
 922 047c AE       		.byte	0xae
 923 047d FD040000 		.4byte	0x4fd
 924 0481 0C       		.uleb128 0xc
 925 0482 64697200 		.ascii	"dir\000"
 926 0486 05       		.byte	0x5
 927 0487 AF       		.byte	0xaf
 928 0488 81000000 		.4byte	0x81
 929 048c 00       		.byte	0
 930 048d 0A       		.uleb128 0xa
 931 048e A3020000 		.4byte	.LASF73
 932 0492 05       		.byte	0x5
 933 0493 B0       		.byte	0xb0
 934 0494 FD040000 		.4byte	0x4fd
 935 0498 01       		.byte	0x1
 936 0499 0A       		.uleb128 0xa
 937 049a 1B080000 		.4byte	.LASF74
 938 049e 05       		.byte	0x5
 939 049f B1       		.byte	0xb1
 940 04a0 19050000 		.4byte	0x519
 941 04a4 B5       		.byte	0xb5
 942 04a5 0A       		.uleb128 0xa
 943 04a6 77030000 		.4byte	.LASF75
 944 04aa 05       		.byte	0x5
 945 04ab B2       		.byte	0xb2
 946 04ac F2030000 		.4byte	0x3f2
 947 04b0 D5       		.byte	0xd5
 948 04b1 0A       		.uleb128 0xa
 949 04b2 8A070000 		.4byte	.LASF76
 950 04b6 05       		.byte	0x5
ARM GAS  C:\Users\RECEPC~1\AppData\Local\Temp\cc9CG50v.s 			page 21


 951 04b7 B3       		.byte	0xb3
 952 04b8 F2030000 		.4byte	0x3f2
 953 04bc E3       		.byte	0xe3
 954 04bd 0A       		.uleb128 0xa
 955 04be 8F030000 		.4byte	.LASF77
 956 04c2 05       		.byte	0x5
 957 04c3 B4       		.byte	0xb4
 958 04c4 F2030000 		.4byte	0x3f2
 959 04c8 F1       		.byte	0xf1
 960 04c9 0A       		.uleb128 0xa
 961 04ca EA070000 		.4byte	.LASF78
 962 04ce 05       		.byte	0x5
 963 04cf B5       		.byte	0xb5
 964 04d0 81000000 		.4byte	0x81
 965 04d4 FF       		.byte	0xff
 966 04d5 0B       		.uleb128 0xb
 967 04d6 DA050000 		.4byte	.LASF79
 968 04da 05       		.byte	0x5
 969 04db B6       		.byte	0xb6
 970 04dc 81000000 		.4byte	0x81
 971 04e0 0001     		.2byte	0x100
 972 04e2 0B       		.uleb128 0xb
 973 04e3 74010000 		.4byte	.LASF80
 974 04e7 05       		.byte	0x5
 975 04e8 B7       		.byte	0xb7
 976 04e9 81000000 		.4byte	0x81
 977 04ed 0101     		.2byte	0x101
 978 04ef 0B       		.uleb128 0xb
 979 04f0 35050000 		.4byte	.LASF81
 980 04f4 05       		.byte	0x5
 981 04f5 B8       		.byte	0xb8
 982 04f6 81000000 		.4byte	0x81
 983 04fa 0201     		.2byte	0x102
 984 04fc 00       		.byte	0
 985 04fd 07       		.uleb128 0x7
 986 04fe 81000000 		.4byte	0x81
 987 0502 19050000 		.4byte	0x519
 988 0506 08       		.uleb128 0x8
 989 0507 DC000000 		.4byte	0xdc
 990 050b 03       		.byte	0x3
 991 050c 08       		.uleb128 0x8
 992 050d DC000000 		.4byte	0xdc
 993 0511 02       		.byte	0x2
 994 0512 08       		.uleb128 0x8
 995 0513 DC000000 		.4byte	0xdc
 996 0517 0E       		.byte	0xe
 997 0518 00       		.byte	0
 998 0519 07       		.uleb128 0x7
 999 051a 81000000 		.4byte	0x81
 1000 051e 2F050000 		.4byte	0x52f
 1001 0522 08       		.uleb128 0x8
 1002 0523 DC000000 		.4byte	0xdc
 1003 0527 03       		.byte	0x3
 1004 0528 08       		.uleb128 0x8
 1005 0529 DC000000 		.4byte	0xdc
 1006 052d 07       		.byte	0x7
 1007 052e 00       		.byte	0
ARM GAS  C:\Users\RECEPC~1\AppData\Local\Temp\cc9CG50v.s 			page 22


 1008 052f 09       		.uleb128 0x9
 1009 0530 14070000 		.4byte	.LASF82
 1010 0534 0C04     		.2byte	0x40c
 1011 0536 05       		.byte	0x5
 1012 0537 BB       		.byte	0xbb
 1013 0538 68050000 		.4byte	0x568
 1014 053c 0C       		.uleb128 0xc
 1015 053d 6100     		.ascii	"a\000"
 1016 053f 05       		.byte	0x5
 1017 0540 BC       		.byte	0xbc
 1018 0541 74040000 		.4byte	0x474
 1019 0545 00       		.byte	0
 1020 0546 0D       		.uleb128 0xd
 1021 0547 6200     		.ascii	"b\000"
 1022 0549 05       		.byte	0x5
 1023 054a BD       		.byte	0xbd
 1024 054b 74040000 		.4byte	0x474
 1025 054f 0301     		.2byte	0x103
 1026 0551 0D       		.uleb128 0xd
 1027 0552 6300     		.ascii	"c\000"
 1028 0554 05       		.byte	0x5
 1029 0555 BE       		.byte	0xbe
 1030 0556 74040000 		.4byte	0x474
 1031 055a 0602     		.2byte	0x206
 1032 055c 0D       		.uleb128 0xd
 1033 055d 6400     		.ascii	"d\000"
 1034 055f 05       		.byte	0x5
 1035 0560 BF       		.byte	0xbf
 1036 0561 74040000 		.4byte	0x474
 1037 0565 0903     		.2byte	0x309
 1038 0567 00       		.byte	0
 1039 0568 0E       		.uleb128 0xe
 1040 0569 33010000 		.4byte	.LASF162
 1041 056d 01       		.byte	0x1
 1042 056e 3B       		.byte	0x3b
 1043 056f 81000000 		.4byte	0x81
 1044 0573 00000000 		.4byte	.LFB63
 1045 0577 46000000 		.4byte	.LFE63-.LFB63
 1046 057b 01       		.uleb128 0x1
 1047 057c 9C       		.byte	0x9c
 1048 057d 0F060000 		.4byte	0x60f
 1049 0581 0F       		.uleb128 0xf
 1050 0582 5C050000 		.4byte	.LASF83
 1051 0586 01       		.byte	0x1
 1052 0587 3B       		.byte	0x3b
 1053 0588 81000000 		.4byte	0x81
 1054 058c 00000000 		.4byte	.LLST0
 1055 0590 0F       		.uleb128 0xf
 1056 0591 B7070000 		.4byte	.LASF84
 1057 0595 01       		.byte	0x1
 1058 0596 3B       		.byte	0x3b
 1059 0597 81000000 		.4byte	0x81
 1060 059b 1F000000 		.4byte	.LLST1
 1061 059f 10       		.uleb128 0x10
 1062 05a0 27030000 		.4byte	.LASF85
 1063 05a4 01       		.byte	0x1
 1064 05a5 3C       		.byte	0x3c
ARM GAS  C:\Users\RECEPC~1\AppData\Local\Temp\cc9CG50v.s 			page 23


 1065 05a6 81000000 		.4byte	0x81
 1066 05aa 3E000000 		.4byte	.LLST2
 1067 05ae 11       		.uleb128 0x11
 1068 05af 22030000 		.4byte	.LASF86
 1069 05b3 01       		.byte	0x1
 1070 05b4 3C       		.byte	0x3c
 1071 05b5 AC030000 		.4byte	0x3ac
 1072 05b9 02       		.uleb128 0x2
 1073 05ba 91       		.byte	0x91
 1074 05bb 74       		.sleb128 -12
 1075 05bc 12       		.uleb128 0x12
 1076 05bd 6900     		.ascii	"i\000"
 1077 05bf 01       		.byte	0x1
 1078 05c0 3C       		.byte	0x3c
 1079 05c1 81000000 		.4byte	0x81
 1080 05c5 72000000 		.4byte	.LLST3
 1081 05c9 13       		.uleb128 0x13
 1082 05ca 10000000 		.4byte	.LVL1
 1083 05ce 480C0000 		.4byte	0xc48
 1084 05d2 14       		.uleb128 0x14
 1085 05d3 18000000 		.4byte	.LVL2
 1086 05d7 530C0000 		.4byte	0xc53
 1087 05db EA050000 		.4byte	0x5ea
 1088 05df 15       		.uleb128 0x15
 1089 05e0 01       		.uleb128 0x1
 1090 05e1 51       		.byte	0x51
 1091 05e2 01       		.uleb128 0x1
 1092 05e3 30       		.byte	0x30
 1093 05e4 15       		.uleb128 0x15
 1094 05e5 01       		.uleb128 0x1
 1095 05e6 50       		.byte	0x50
 1096 05e7 01       		.uleb128 0x1
 1097 05e8 37       		.byte	0x37
 1098 05e9 00       		.byte	0
 1099 05ea 14       		.uleb128 0x14
 1100 05eb 2A000000 		.4byte	.LVL6
 1101 05ef 6D0C0000 		.4byte	0xc6d
 1102 05f3 05060000 		.4byte	0x605
 1103 05f7 15       		.uleb128 0x15
 1104 05f8 01       		.uleb128 0x1
 1105 05f9 50       		.byte	0x50
 1106 05fa 09       		.uleb128 0x9
 1107 05fb 91       		.byte	0x91
 1108 05fc 00       		.sleb128 0
 1109 05fd 74       		.byte	0x74
 1110 05fe 00       		.sleb128 0
 1111 05ff 22       		.byte	0x22
 1112 0600 3C       		.byte	0x3c
 1113 0601 1C       		.byte	0x1c
 1114 0602 94       		.byte	0x94
 1115 0603 01       		.byte	0x1
 1116 0604 00       		.byte	0
 1117 0605 13       		.uleb128 0x13
 1118 0606 3C000000 		.4byte	.LVL11
 1119 060a 820C0000 		.4byte	0xc82
 1120 060e 00       		.byte	0
 1121 060f 16       		.uleb128 0x16
ARM GAS  C:\Users\RECEPC~1\AppData\Local\Temp\cc9CG50v.s 			page 24


 1122 0610 45080000 		.4byte	.LASF87
 1123 0614 01       		.byte	0x1
 1124 0615 62       		.byte	0x62
 1125 0616 81000000 		.4byte	0x81
 1126 061a 00000000 		.4byte	.LFB64
 1127 061e 5C000000 		.4byte	.LFE64-.LFB64
 1128 0622 01       		.uleb128 0x1
 1129 0623 9C       		.byte	0x9c
 1130 0624 C2060000 		.4byte	0x6c2
 1131 0628 10       		.uleb128 0x10
 1132 0629 27030000 		.4byte	.LASF85
 1133 062d 01       		.byte	0x1
 1134 062e 63       		.byte	0x63
 1135 062f 81000000 		.4byte	0x81
 1136 0633 9B000000 		.4byte	.LLST4
 1137 0637 12       		.uleb128 0x12
 1138 0638 6900     		.ascii	"i\000"
 1139 063a 01       		.byte	0x1
 1140 063b 63       		.byte	0x63
 1141 063c 81000000 		.4byte	0x81
 1142 0640 E5000000 		.4byte	.LLST5
 1143 0644 13       		.uleb128 0x13
 1144 0645 0A000000 		.4byte	.LVL16
 1145 0649 480C0000 		.4byte	0xc48
 1146 064d 14       		.uleb128 0x14
 1147 064e 12000000 		.4byte	.LVL17
 1148 0652 530C0000 		.4byte	0xc53
 1149 0656 66060000 		.4byte	0x666
 1150 065a 15       		.uleb128 0x15
 1151 065b 01       		.uleb128 0x1
 1152 065c 51       		.byte	0x51
 1153 065d 01       		.uleb128 0x1
 1154 065e 30       		.byte	0x30
 1155 065f 15       		.uleb128 0x15
 1156 0660 01       		.uleb128 0x1
 1157 0661 50       		.byte	0x50
 1158 0662 02       		.uleb128 0x2
 1159 0663 08       		.byte	0x8
 1160 0664 68       		.byte	0x68
 1161 0665 00       		.byte	0
 1162 0666 14       		.uleb128 0x14
 1163 0667 1A000000 		.4byte	.LVL19
 1164 066b 6D0C0000 		.4byte	0xc6d
 1165 066f 7A060000 		.4byte	0x67a
 1166 0673 15       		.uleb128 0x15
 1167 0674 01       		.uleb128 0x1
 1168 0675 50       		.byte	0x50
 1169 0676 02       		.uleb128 0x2
 1170 0677 74       		.byte	0x74
 1171 0678 00       		.sleb128 0
 1172 0679 00       		.byte	0
 1173 067a 13       		.uleb128 0x13
 1174 067b 20000000 		.4byte	.LVL20
 1175 067f 820C0000 		.4byte	0xc82
 1176 0683 14       		.uleb128 0x14
 1177 0684 26000000 		.4byte	.LVL21
 1178 0688 8D0C0000 		.4byte	0xc8d
ARM GAS  C:\Users\RECEPC~1\AppData\Local\Temp\cc9CG50v.s 			page 25


 1179 068c 96060000 		.4byte	0x696
 1180 0690 15       		.uleb128 0x15
 1181 0691 01       		.uleb128 0x1
 1182 0692 50       		.byte	0x50
 1183 0693 01       		.uleb128 0x1
 1184 0694 3A       		.byte	0x3a
 1185 0695 00       		.byte	0
 1186 0696 14       		.uleb128 0x14
 1187 0697 2E000000 		.4byte	.LVL22
 1188 069b 530C0000 		.4byte	0xc53
 1189 069f AF060000 		.4byte	0x6af
 1190 06a3 15       		.uleb128 0x15
 1191 06a4 01       		.uleb128 0x1
 1192 06a5 51       		.byte	0x51
 1193 06a6 01       		.uleb128 0x1
 1194 06a7 31       		.byte	0x31
 1195 06a8 15       		.uleb128 0x15
 1196 06a9 01       		.uleb128 0x1
 1197 06aa 50       		.byte	0x50
 1198 06ab 02       		.uleb128 0x2
 1199 06ac 08       		.byte	0x8
 1200 06ad 68       		.byte	0x68
 1201 06ae 00       		.byte	0
 1202 06af 13       		.uleb128 0x13
 1203 06b0 36000000 		.4byte	.LVL23
 1204 06b4 9E0C0000 		.4byte	0xc9e
 1205 06b8 13       		.uleb128 0x13
 1206 06b9 3E000000 		.4byte	.LVL24
 1207 06bd 820C0000 		.4byte	0xc82
 1208 06c1 00       		.byte	0
 1209 06c2 16       		.uleb128 0x16
 1210 06c3 6D030000 		.4byte	.LASF88
 1211 06c7 01       		.byte	0x1
 1212 06c8 91       		.byte	0x91
 1213 06c9 81000000 		.4byte	0x81
 1214 06cd 00000000 		.4byte	.LFB65
 1215 06d1 5C000000 		.4byte	.LFE65-.LFB65
 1216 06d5 01       		.uleb128 0x1
 1217 06d6 9C       		.byte	0x9c
 1218 06d7 75070000 		.4byte	0x775
 1219 06db 10       		.uleb128 0x10
 1220 06dc 27030000 		.4byte	.LASF85
 1221 06e0 01       		.byte	0x1
 1222 06e1 92       		.byte	0x92
 1223 06e2 81000000 		.4byte	0x81
 1224 06e6 0F010000 		.4byte	.LLST6
 1225 06ea 12       		.uleb128 0x12
 1226 06eb 6900     		.ascii	"i\000"
 1227 06ed 01       		.byte	0x1
 1228 06ee 92       		.byte	0x92
 1229 06ef 81000000 		.4byte	0x81
 1230 06f3 59010000 		.4byte	.LLST7
 1231 06f7 13       		.uleb128 0x13
 1232 06f8 0A000000 		.4byte	.LVL36
 1233 06fc 480C0000 		.4byte	0xc48
 1234 0700 14       		.uleb128 0x14
 1235 0701 12000000 		.4byte	.LVL37
ARM GAS  C:\Users\RECEPC~1\AppData\Local\Temp\cc9CG50v.s 			page 26


 1236 0705 530C0000 		.4byte	0xc53
 1237 0709 19070000 		.4byte	0x719
 1238 070d 15       		.uleb128 0x15
 1239 070e 01       		.uleb128 0x1
 1240 070f 51       		.byte	0x51
 1241 0710 01       		.uleb128 0x1
 1242 0711 30       		.byte	0x30
 1243 0712 15       		.uleb128 0x15
 1244 0713 01       		.uleb128 0x1
 1245 0714 50       		.byte	0x50
 1246 0715 02       		.uleb128 0x2
 1247 0716 08       		.byte	0x8
 1248 0717 68       		.byte	0x68
 1249 0718 00       		.byte	0
 1250 0719 14       		.uleb128 0x14
 1251 071a 1A000000 		.4byte	.LVL39
 1252 071e 6D0C0000 		.4byte	0xc6d
 1253 0722 2D070000 		.4byte	0x72d
 1254 0726 15       		.uleb128 0x15
 1255 0727 01       		.uleb128 0x1
 1256 0728 50       		.byte	0x50
 1257 0729 02       		.uleb128 0x2
 1258 072a 74       		.byte	0x74
 1259 072b 00       		.sleb128 0
 1260 072c 00       		.byte	0
 1261 072d 13       		.uleb128 0x13
 1262 072e 20000000 		.4byte	.LVL40
 1263 0732 820C0000 		.4byte	0xc82
 1264 0736 14       		.uleb128 0x14
 1265 0737 26000000 		.4byte	.LVL41
 1266 073b 8D0C0000 		.4byte	0xc8d
 1267 073f 49070000 		.4byte	0x749
 1268 0743 15       		.uleb128 0x15
 1269 0744 01       		.uleb128 0x1
 1270 0745 50       		.byte	0x50
 1271 0746 01       		.uleb128 0x1
 1272 0747 3A       		.byte	0x3a
 1273 0748 00       		.byte	0
 1274 0749 14       		.uleb128 0x14
 1275 074a 2E000000 		.4byte	.LVL42
 1276 074e 530C0000 		.4byte	0xc53
 1277 0752 62070000 		.4byte	0x762
 1278 0756 15       		.uleb128 0x15
 1279 0757 01       		.uleb128 0x1
 1280 0758 51       		.byte	0x51
 1281 0759 01       		.uleb128 0x1
 1282 075a 31       		.byte	0x31
 1283 075b 15       		.uleb128 0x15
 1284 075c 01       		.uleb128 0x1
 1285 075d 50       		.byte	0x50
 1286 075e 02       		.uleb128 0x2
 1287 075f 08       		.byte	0x8
 1288 0760 68       		.byte	0x68
 1289 0761 00       		.byte	0
 1290 0762 13       		.uleb128 0x13
 1291 0763 36000000 		.4byte	.LVL43
 1292 0767 9E0C0000 		.4byte	0xc9e
ARM GAS  C:\Users\RECEPC~1\AppData\Local\Temp\cc9CG50v.s 			page 27


 1293 076b 13       		.uleb128 0x13
 1294 076c 3E000000 		.4byte	.LVL44
 1295 0770 820C0000 		.4byte	0xc82
 1296 0774 00       		.byte	0
 1297 0775 17       		.uleb128 0x17
 1298 0776 ED040000 		.4byte	.LASF89
 1299 077a 06       		.byte	0x6
 1300 077b 5506     		.2byte	0x655
 1301 077d 81070000 		.4byte	0x781
 1302 0781 06       		.uleb128 0x6
 1303 0782 76000000 		.4byte	0x76
 1304 0786 18       		.uleb128 0x18
 1305 0787 97030000 		.4byte	.LASF90
 1306 078b 05       		.byte	0x5
 1307 078c 2C       		.byte	0x2c
 1308 078d 97070000 		.4byte	0x797
 1309 0791 05       		.uleb128 0x5
 1310 0792 03       		.byte	0x3
 1311 0793 00000000 		.4byte	countAnimation1
 1312 0797 06       		.uleb128 0x6
 1313 0798 B3000000 		.4byte	0xb3
 1314 079c 18       		.uleb128 0x18
 1315 079d D5030000 		.4byte	.LASF91
 1316 07a1 05       		.byte	0x5
 1317 07a2 2D       		.byte	0x2d
 1318 07a3 97070000 		.4byte	0x797
 1319 07a7 05       		.uleb128 0x5
 1320 07a8 03       		.byte	0x3
 1321 07a9 00000000 		.4byte	countAnimation2
 1322 07ad 18       		.uleb128 0x18
 1323 07ae 08030000 		.4byte	.LASF92
 1324 07b2 05       		.byte	0x5
 1325 07b3 2E       		.byte	0x2e
 1326 07b4 97070000 		.4byte	0x797
 1327 07b8 05       		.uleb128 0x5
 1328 07b9 03       		.byte	0x3
 1329 07ba 00000000 		.4byte	countBeagleTX
 1330 07be 18       		.uleb128 0x18
 1331 07bf E0070000 		.4byte	.LASF93
 1332 07c3 05       		.byte	0x5
 1333 07c4 2F       		.byte	0x2f
 1334 07c5 97070000 		.4byte	0x797
 1335 07c9 05       		.uleb128 0x5
 1336 07ca 03       		.byte	0x3
 1337 07cb 00000000 		.4byte	countPump
 1338 07cf 18       		.uleb128 0x18
 1339 07d0 62020000 		.4byte	.LASF94
 1340 07d4 05       		.byte	0x5
 1341 07d5 30       		.byte	0x30
 1342 07d6 D7000000 		.4byte	0xd7
 1343 07da 05       		.uleb128 0x5
 1344 07db 03       		.byte	0x3
 1345 07dc 00000000 		.4byte	flowDisplay1
 1346 07e0 18       		.uleb128 0x18
 1347 07e1 6F020000 		.4byte	.LASF95
 1348 07e5 05       		.byte	0x5
 1349 07e6 31       		.byte	0x31
ARM GAS  C:\Users\RECEPC~1\AppData\Local\Temp\cc9CG50v.s 			page 28


 1350 07e7 D7000000 		.4byte	0xd7
 1351 07eb 05       		.uleb128 0x5
 1352 07ec 03       		.byte	0x3
 1353 07ed 00000000 		.4byte	flowDisplay2
 1354 07f1 18       		.uleb128 0x18
 1355 07f2 7C020000 		.4byte	.LASF96
 1356 07f6 05       		.byte	0x5
 1357 07f7 32       		.byte	0x32
 1358 07f8 D7000000 		.4byte	0xd7
 1359 07fc 05       		.uleb128 0x5
 1360 07fd 03       		.byte	0x3
 1361 07fe 00000000 		.4byte	flowDisplay3
 1362 0802 18       		.uleb128 0x18
 1363 0803 89020000 		.4byte	.LASF97
 1364 0807 05       		.byte	0x5
 1365 0808 33       		.byte	0x33
 1366 0809 D7000000 		.4byte	0xd7
 1367 080d 05       		.uleb128 0x5
 1368 080e 03       		.byte	0x3
 1369 080f 00000000 		.4byte	flowDisplay4
 1370 0813 18       		.uleb128 0x18
 1371 0814 F0020000 		.4byte	.LASF98
 1372 0818 05       		.byte	0x5
 1373 0819 34       		.byte	0x34
 1374 081a D2000000 		.4byte	0xd2
 1375 081e 05       		.uleb128 0x5
 1376 081f 03       		.byte	0x3
 1377 0820 00000000 		.4byte	numberKeys1
 1378 0824 18       		.uleb128 0x18
 1379 0825 FC020000 		.4byte	.LASF99
 1380 0829 05       		.byte	0x5
 1381 082a 35       		.byte	0x35
 1382 082b D2000000 		.4byte	0xd2
 1383 082f 05       		.uleb128 0x5
 1384 0830 03       		.byte	0x3
 1385 0831 00000000 		.4byte	numberKeys2
 1386 0835 18       		.uleb128 0x18
 1387 0836 7E040000 		.4byte	.LASF100
 1388 083a 05       		.byte	0x5
 1389 083b 36       		.byte	0x36
 1390 083c D2000000 		.4byte	0xd2
 1391 0840 05       		.uleb128 0x5
 1392 0841 03       		.byte	0x3
 1393 0842 00000000 		.4byte	flagPoint1
 1394 0846 18       		.uleb128 0x18
 1395 0847 09010000 		.4byte	.LASF101
 1396 084b 05       		.byte	0x5
 1397 084c 37       		.byte	0x37
 1398 084d D2000000 		.4byte	0xd2
 1399 0851 05       		.uleb128 0x5
 1400 0852 03       		.byte	0x3
 1401 0853 00000000 		.4byte	flagPoint2
 1402 0857 18       		.uleb128 0x18
 1403 0858 06020000 		.4byte	.LASF102
 1404 085c 05       		.byte	0x5
 1405 085d 38       		.byte	0x38
 1406 085e D2000000 		.4byte	0xd2
ARM GAS  C:\Users\RECEPC~1\AppData\Local\Temp\cc9CG50v.s 			page 29


 1407 0862 05       		.uleb128 0x5
 1408 0863 03       		.byte	0x3
 1409 0864 00000000 		.4byte	productNumber
 1410 0868 18       		.uleb128 0x18
 1411 0869 93050000 		.4byte	.LASF103
 1412 086d 05       		.byte	0x5
 1413 086e 39       		.byte	0x39
 1414 086f D7000000 		.4byte	0xd7
 1415 0873 05       		.uleb128 0x5
 1416 0874 03       		.byte	0x3
 1417 0875 00000000 		.4byte	delayPicture1
 1418 0879 18       		.uleb128 0x18
 1419 087a A1050000 		.4byte	.LASF104
 1420 087e 05       		.byte	0x5
 1421 087f 3A       		.byte	0x3a
 1422 0880 D7000000 		.4byte	0xd7
 1423 0884 05       		.uleb128 0x5
 1424 0885 03       		.byte	0x3
 1425 0886 00000000 		.4byte	delayPicture2
 1426 088a 18       		.uleb128 0x18
 1427 088b 64040000 		.4byte	.LASF105
 1428 088f 05       		.byte	0x5
 1429 0890 3B       		.byte	0x3b
 1430 0891 D2000000 		.4byte	0xd2
 1431 0895 05       		.uleb128 0x5
 1432 0896 03       		.byte	0x3
 1433 0897 00000000 		.4byte	ppux10
 1434 089b 18       		.uleb128 0x18
 1435 089c 6F000000 		.4byte	.LASF106
 1436 08a0 05       		.byte	0x5
 1437 08a1 3C       		.byte	0x3c
 1438 08a2 D2000000 		.4byte	0xd2
 1439 08a6 05       		.uleb128 0x5
 1440 08a7 03       		.byte	0x3
 1441 08a8 00000000 		.4byte	decimalMoney
 1442 08ac 18       		.uleb128 0x18
 1443 08ad 19000000 		.4byte	.LASF107
 1444 08b1 05       		.byte	0x5
 1445 08b2 3D       		.byte	0x3d
 1446 08b3 D2000000 		.4byte	0xd2
 1447 08b7 05       		.uleb128 0x5
 1448 08b8 03       		.byte	0x3
 1449 08b9 00000000 		.4byte	decimalVolume
 1450 08bd 18       		.uleb128 0x18
 1451 08be 9B040000 		.4byte	.LASF108
 1452 08c2 05       		.byte	0x5
 1453 08c3 3E       		.byte	0x3e
 1454 08c4 CE080000 		.4byte	0x8ce
 1455 08c8 05       		.uleb128 0x5
 1456 08c9 03       		.byte	0x3
 1457 08ca 00000000 		.4byte	symbols
 1458 08ce 06       		.uleb128 0x6
 1459 08cf AC030000 		.4byte	0x3ac
 1460 08d3 07       		.uleb128 0x7
 1461 08d4 81000000 		.4byte	0x81
 1462 08d8 E3080000 		.4byte	0x8e3
 1463 08dc 08       		.uleb128 0x8
ARM GAS  C:\Users\RECEPC~1\AppData\Local\Temp\cc9CG50v.s 			page 30


 1464 08dd DC000000 		.4byte	0xdc
 1465 08e1 02       		.byte	0x2
 1466 08e2 00       		.byte	0
 1467 08e3 18       		.uleb128 0x18
 1468 08e4 C7010000 		.4byte	.LASF109
 1469 08e8 05       		.byte	0x5
 1470 08e9 3F       		.byte	0x3f
 1471 08ea F4080000 		.4byte	0x8f4
 1472 08ee 05       		.uleb128 0x5
 1473 08ef 03       		.byte	0x3
 1474 08f0 00000000 		.4byte	time
 1475 08f4 06       		.uleb128 0x6
 1476 08f5 D3080000 		.4byte	0x8d3
 1477 08f9 18       		.uleb128 0x18
 1478 08fa 1D030000 		.4byte	.LASF110
 1479 08fe 05       		.byte	0x5
 1480 08ff 40       		.byte	0x40
 1481 0900 0A090000 		.4byte	0x90a
 1482 0904 05       		.uleb128 0x5
 1483 0905 03       		.byte	0x3
 1484 0906 00000000 		.4byte	date
 1485 090a 06       		.uleb128 0x6
 1486 090b D3080000 		.4byte	0x8d3
 1487 090f 18       		.uleb128 0x18
 1488 0910 14010000 		.4byte	.LASF111
 1489 0914 05       		.byte	0x5
 1490 0915 41       		.byte	0x41
 1491 0916 20090000 		.4byte	0x920
 1492 091a 05       		.uleb128 0x5
 1493 091b 03       		.byte	0x3
 1494 091c 00000000 		.4byte	screen
 1495 0920 06       		.uleb128 0x6
 1496 0921 AC030000 		.4byte	0x3ac
 1497 0925 18       		.uleb128 0x18
 1498 0926 C8000000 		.4byte	.LASF112
 1499 092a 05       		.byte	0x5
 1500 092b 42       		.byte	0x42
 1501 092c 36090000 		.4byte	0x936
 1502 0930 05       		.uleb128 0x5
 1503 0931 03       		.byte	0x3
 1504 0932 00000000 		.4byte	residue
 1505 0936 06       		.uleb128 0x6
 1506 0937 F2030000 		.4byte	0x3f2
 1507 093b 07       		.uleb128 0x7
 1508 093c 81000000 		.4byte	0x81
 1509 0940 4B090000 		.4byte	0x94b
 1510 0944 08       		.uleb128 0x8
 1511 0945 DC000000 		.4byte	0xdc
 1512 0949 1D       		.byte	0x1d
 1513 094a 00       		.byte	0
 1514 094b 18       		.uleb128 0x18
 1515 094c 5F070000 		.4byte	.LASF113
 1516 0950 05       		.byte	0x5
 1517 0951 43       		.byte	0x43
 1518 0952 3B090000 		.4byte	0x93b
 1519 0956 05       		.uleb128 0x5
 1520 0957 03       		.byte	0x3
ARM GAS  C:\Users\RECEPC~1\AppData\Local\Temp\cc9CG50v.s 			page 31


 1521 0958 00000000 		.4byte	temporal
 1522 095c 18       		.uleb128 0x18
 1523 095d 14020000 		.4byte	.LASF114
 1524 0961 05       		.byte	0x5
 1525 0962 44       		.byte	0x44
 1526 0963 6D090000 		.4byte	0x96d
 1527 0967 05       		.uleb128 0x5
 1528 0968 03       		.byte	0x3
 1529 0969 00000000 		.4byte	idSeller
 1530 096d 06       		.uleb128 0x6
 1531 096e 7C030000 		.4byte	0x37c
 1532 0972 18       		.uleb128 0x18
 1533 0973 0D050000 		.4byte	.LASF115
 1534 0977 05       		.byte	0x5
 1535 0978 45       		.byte	0x45
 1536 0979 D2000000 		.4byte	0xd2
 1537 097d 05       		.uleb128 0x5
 1538 097e 03       		.byte	0x3
 1539 097f 00000000 		.4byte	typeIdSeller
 1540 0983 07       		.uleb128 0x7
 1541 0984 81000000 		.4byte	0x81
 1542 0988 93090000 		.4byte	0x993
 1543 098c 08       		.uleb128 0x8
 1544 098d DC000000 		.4byte	0xdc
 1545 0991 07       		.byte	0x7
 1546 0992 00       		.byte	0
 1547 0993 18       		.uleb128 0x18
 1548 0994 63050000 		.4byte	.LASF116
 1549 0998 05       		.byte	0x5
 1550 0999 46       		.byte	0x46
 1551 099a A4090000 		.4byte	0x9a4
 1552 099e 05       		.uleb128 0x5
 1553 099f 03       		.byte	0x3
 1554 09a0 00000000 		.4byte	passwordSeller
 1555 09a4 06       		.uleb128 0x6
 1556 09a5 83090000 		.4byte	0x983
 1557 09a9 18       		.uleb128 0x18
 1558 09aa 20040000 		.4byte	.LASF117
 1559 09ae 05       		.byte	0x5
 1560 09af 47       		.byte	0x47
 1561 09b0 D2000000 		.4byte	0xd2
 1562 09b4 05       		.uleb128 0x5
 1563 09b5 03       		.byte	0x3
 1564 09b6 00000000 		.4byte	flagResetMux
 1565 09ba 18       		.uleb128 0x18
 1566 09bb B4030000 		.4byte	.LASF118
 1567 09bf 05       		.byte	0x5
 1568 09c0 48       		.byte	0x48
 1569 09c1 D2000000 		.4byte	0xd2
 1570 09c5 05       		.uleb128 0x5
 1571 09c6 03       		.byte	0x3
 1572 09c7 00000000 		.4byte	stateBeagleSoft
 1573 09cb 18       		.uleb128 0x18
 1574 09cc 27000000 		.4byte	.LASF119
 1575 09d0 05       		.byte	0x5
 1576 09d1 49       		.byte	0x49
 1577 09d2 DC090000 		.4byte	0x9dc
ARM GAS  C:\Users\RECEPC~1\AppData\Local\Temp\cc9CG50v.s 			page 32


 1578 09d6 05       		.uleb128 0x5
 1579 09d7 03       		.byte	0x3
 1580 09d8 00000000 		.4byte	PrevStatePump
 1581 09dc 06       		.uleb128 0x6
 1582 09dd E3000000 		.4byte	0xe3
 1583 09e1 18       		.uleb128 0x18
 1584 09e2 3F010000 		.4byte	.LASF120
 1585 09e6 05       		.byte	0x5
 1586 09e7 4A       		.byte	0x4a
 1587 09e8 D2000000 		.4byte	0xd2
 1588 09ec 05       		.uleb128 0x5
 1589 09ed 03       		.byte	0x3
 1590 09ee 00000000 		.4byte	PlateRequest
 1591 09f2 18       		.uleb128 0x18
 1592 09f3 E6040000 		.4byte	.LASF121
 1593 09f7 05       		.byte	0x5
 1594 09f8 4B       		.byte	0x4b
 1595 09f9 030A0000 		.4byte	0xa03
 1596 09fd 05       		.uleb128 0x5
 1597 09fe 03       		.byte	0x3
 1598 09ff 00000000 		.4byte	IDCast
 1599 0a03 06       		.uleb128 0x6
 1600 0a04 E3000000 		.4byte	0xe3
 1601 0a08 18       		.uleb128 0x18
 1602 0a09 83050000 		.4byte	.LASF122
 1603 0a0d 05       		.byte	0x5
 1604 0a0e 4D       		.byte	0x4d
 1605 0a0f 81000000 		.4byte	0x81
 1606 0a13 05       		.uleb128 0x5
 1607 0a14 03       		.byte	0x3
 1608 0a15 00000000 		.4byte	UnitType
 1609 0a19 18       		.uleb128 0x18
 1610 0a1a DF020000 		.4byte	.LASF123
 1611 0a1e 05       		.byte	0x5
 1612 0a1f 4D       		.byte	0x4d
 1613 0a20 81000000 		.4byte	0x81
 1614 0a24 05       		.uleb128 0x5
 1615 0a25 03       		.byte	0x3
 1616 0a26 00000000 		.4byte	ConversionFactor
 1617 0a2a 18       		.uleb128 0x18
 1618 0a2b 5C010000 		.4byte	.LASF124
 1619 0a2f 05       		.byte	0x5
 1620 0a30 4D       		.byte	0x4d
 1621 0a31 81000000 		.4byte	0x81
 1622 0a35 05       		.uleb128 0x5
 1623 0a36 03       		.byte	0x3
 1624 0a37 00000000 		.4byte	MoneyDec
 1625 0a3b 18       		.uleb128 0x18
 1626 0a3c 68070000 		.4byte	.LASF125
 1627 0a40 05       		.byte	0x5
 1628 0a41 4D       		.byte	0x4d
 1629 0a42 81000000 		.4byte	0x81
 1630 0a46 05       		.uleb128 0x5
 1631 0a47 03       		.byte	0x3
 1632 0a48 00000000 		.4byte	VolDec
 1633 0a4c 18       		.uleb128 0x18
 1634 0a4d D3050000 		.4byte	.LASF126
ARM GAS  C:\Users\RECEPC~1\AppData\Local\Temp\cc9CG50v.s 			page 33


 1635 0a51 05       		.byte	0x5
 1636 0a52 4D       		.byte	0x4d
 1637 0a53 81000000 		.4byte	0x81
 1638 0a57 05       		.uleb128 0x5
 1639 0a58 03       		.byte	0x3
 1640 0a59 00000000 		.4byte	PPUDec
 1641 0a5d 18       		.uleb128 0x18
 1642 0a5e D7000000 		.4byte	.LASF127
 1643 0a62 05       		.byte	0x5
 1644 0a63 4D       		.byte	0x4d
 1645 0a64 81000000 		.4byte	0x81
 1646 0a68 05       		.uleb128 0x5
 1647 0a69 03       		.byte	0x3
 1648 0a6a 00000000 		.4byte	DDMode
 1649 0a6e 18       		.uleb128 0x18
 1650 0a6f 54000000 		.4byte	.LASF128
 1651 0a73 05       		.byte	0x5
 1652 0a74 4E       		.byte	0x4e
 1653 0a75 E3000000 		.4byte	0xe3
 1654 0a79 05       		.uleb128 0x5
 1655 0a7a 03       		.byte	0x3
 1656 0a7b 00000000 		.4byte	statePump
 1657 0a7f 18       		.uleb128 0x18
 1658 0a80 A7030000 		.4byte	.LASF129
 1659 0a84 05       		.byte	0x5
 1660 0a85 4F       		.byte	0x4f
 1661 0a86 81000000 		.4byte	0x81
 1662 0a8a 05       		.uleb128 0x5
 1663 0a8b 03       		.byte	0x3
 1664 0a8c 00000000 		.4byte	NumPositions
 1665 0a90 18       		.uleb128 0x18
 1666 0a91 26020000 		.4byte	.LASF130
 1667 0a95 05       		.byte	0x5
 1668 0a96 50       		.byte	0x50
 1669 0a97 81000000 		.4byte	0x81
 1670 0a9b 05       		.uleb128 0x5
 1671 0a9c 03       		.byte	0x3
 1672 0a9d 00000000 		.4byte	lockTurn
 1673 0aa1 18       		.uleb128 0x18
 1674 0aa2 C0010000 		.4byte	.LASF131
 1675 0aa6 05       		.byte	0x5
 1676 0aa7 51       		.byte	0x51
 1677 0aa8 81000000 		.4byte	0x81
 1678 0aac 05       		.uleb128 0x5
 1679 0aad 03       		.byte	0x3
 1680 0aae 00000000 		.4byte	digits
 1681 0ab2 18       		.uleb128 0x18
 1682 0ab3 FA040000 		.4byte	.LASF132
 1683 0ab7 05       		.byte	0x5
 1684 0ab8 52       		.byte	0x52
 1685 0ab9 81000000 		.4byte	0x81
 1686 0abd 05       		.uleb128 0x5
 1687 0abe 03       		.byte	0x3
 1688 0abf 00000000 		.4byte	hiddenKeys
 1689 0ac3 18       		.uleb128 0x18
 1690 0ac4 A3000000 		.4byte	.LASF133
 1691 0ac8 05       		.byte	0x5
ARM GAS  C:\Users\RECEPC~1\AppData\Local\Temp\cc9CG50v.s 			page 34


 1692 0ac9 53       		.byte	0x53
 1693 0aca 81000000 		.4byte	0x81
 1694 0ace 05       		.uleb128 0x5
 1695 0acf 03       		.byte	0x3
 1696 0ad0 00000000 		.4byte	PrinterType
 1697 0ad4 07       		.uleb128 0x7
 1698 0ad5 BF000000 		.4byte	0xbf
 1699 0ad9 E40A0000 		.4byte	0xae4
 1700 0add 08       		.uleb128 0x8
 1701 0ade DC000000 		.4byte	0xdc
 1702 0ae2 05       		.byte	0x5
 1703 0ae3 00       		.byte	0
 1704 0ae4 18       		.uleb128 0x18
 1705 0ae5 DE040000 		.4byte	.LASF134
 1706 0ae9 05       		.byte	0x5
 1707 0aea 54       		.byte	0x54
 1708 0aeb D40A0000 		.4byte	0xad4
 1709 0aef 05       		.uleb128 0x5
 1710 0af0 03       		.byte	0x3
 1711 0af1 00000000 		.4byte	VolUnit
 1712 0af5 18       		.uleb128 0x18
 1713 0af6 A3040000 		.4byte	.LASF135
 1714 0afa 05       		.byte	0x5
 1715 0afb 55       		.byte	0x55
 1716 0afc D3080000 		.4byte	0x8d3
 1717 0b00 05       		.uleb128 0x5
 1718 0b01 03       		.byte	0x3
 1719 0b02 00000000 		.4byte	dateDownHandle
 1720 0b06 18       		.uleb128 0x18
 1721 0b07 F1030000 		.4byte	.LASF136
 1722 0b0b 05       		.byte	0x5
 1723 0b0c 56       		.byte	0x56
 1724 0b0d AC030000 		.4byte	0x3ac
 1725 0b11 05       		.uleb128 0x5
 1726 0b12 03       		.byte	0x3
 1727 0b13 00000000 		.4byte	timeDownHandle
 1728 0b17 18       		.uleb128 0x18
 1729 0b18 BD070000 		.4byte	.LASF137
 1730 0b1c 05       		.byte	0x5
 1731 0b1d 57       		.byte	0x57
 1732 0b1e 81000000 		.4byte	0x81
 1733 0b22 05       		.uleb128 0x5
 1734 0b23 03       		.byte	0x3
 1735 0b24 00000000 		.4byte	count_protector
 1736 0b28 18       		.uleb128 0x18
 1737 0b29 08000000 		.4byte	.LASF138
 1738 0b2d 05       		.byte	0x5
 1739 0b2e 57       		.byte	0x57
 1740 0b2f 81000000 		.4byte	0x81
 1741 0b33 05       		.uleb128 0x5
 1742 0b34 03       		.byte	0x3
 1743 0b35 00000000 		.4byte	count_protector2
 1744 0b39 18       		.uleb128 0x18
 1745 0b3a B3010000 		.4byte	.LASF139
 1746 0b3e 05       		.byte	0x5
 1747 0b3f 58       		.byte	0x58
 1748 0b40 D2030000 		.4byte	0x3d2
ARM GAS  C:\Users\RECEPC~1\AppData\Local\Temp\cc9CG50v.s 			page 35


 1749 0b44 05       		.uleb128 0x5
 1750 0b45 03       		.byte	0x3
 1751 0b46 00000000 		.4byte	configAccess
 1752 0b4a 18       		.uleb128 0x18
 1753 0b4b 1B010000 		.4byte	.LASF140
 1754 0b4f 05       		.byte	0x5
 1755 0b50 59       		.byte	0x59
 1756 0b51 81000000 		.4byte	0x81
 1757 0b55 05       		.uleb128 0x5
 1758 0b56 03       		.byte	0x3
 1759 0b57 00000000 		.4byte	controlChar
 1760 0b5b 07       		.uleb128 0x7
 1761 0b5c BF000000 		.4byte	0xbf
 1762 0b60 6B0B0000 		.4byte	0xb6b
 1763 0b64 08       		.uleb128 0x8
 1764 0b65 DC000000 		.4byte	0xdc
 1765 0b69 04       		.byte	0x4
 1766 0b6a 00       		.byte	0
 1767 0b6b 18       		.uleb128 0x18
 1768 0b6c E3000000 		.4byte	.LASF141
 1769 0b70 05       		.byte	0x5
 1770 0b71 5A       		.byte	0x5a
 1771 0b72 5B0B0000 		.4byte	0xb5b
 1772 0b76 05       		.uleb128 0x5
 1773 0b77 03       		.byte	0x3
 1774 0b78 00000000 		.4byte	idStation
 1775 0b7c 18       		.uleb128 0x18
 1776 0b7d 50080000 		.4byte	.LASF142
 1777 0b81 05       		.byte	0x5
 1778 0b82 5B       		.byte	0x5b
 1779 0b83 D3080000 		.4byte	0x8d3
 1780 0b87 05       		.uleb128 0x5
 1781 0b88 03       		.byte	0x3
 1782 0b89 00000000 		.4byte	pumpGap
 1783 0b8d 18       		.uleb128 0x18
 1784 0b8e CC010000 		.4byte	.LASF143
 1785 0b92 05       		.byte	0x5
 1786 0b93 5C       		.byte	0x5c
 1787 0b94 81000000 		.4byte	0x81
 1788 0b98 05       		.uleb128 0x5
 1789 0b99 03       		.byte	0x3
 1790 0b9a 00000000 		.4byte	printPortA
 1791 0b9e 18       		.uleb128 0x18
 1792 0b9f D7010000 		.4byte	.LASF144
 1793 0ba3 05       		.byte	0x5
 1794 0ba4 5D       		.byte	0x5d
 1795 0ba5 81000000 		.4byte	0x81
 1796 0ba9 05       		.uleb128 0x5
 1797 0baa 03       		.byte	0x3
 1798 0bab 00000000 		.4byte	printPortB
 1799 0baf 07       		.uleb128 0x7
 1800 0bb0 81000000 		.4byte	0x81
 1801 0bb4 C00B0000 		.4byte	0xbc0
 1802 0bb8 19       		.uleb128 0x19
 1803 0bb9 DC000000 		.4byte	0xdc
 1804 0bbd DB05     		.2byte	0x5db
 1805 0bbf 00       		.byte	0
ARM GAS  C:\Users\RECEPC~1\AppData\Local\Temp\cc9CG50v.s 			page 36


 1806 0bc0 18       		.uleb128 0x18
 1807 0bc1 65000000 		.4byte	.LASF145
 1808 0bc5 05       		.byte	0x5
 1809 0bc6 5E       		.byte	0x5e
 1810 0bc7 AF0B0000 		.4byte	0xbaf
 1811 0bcb 05       		.uleb128 0x5
 1812 0bcc 03       		.byte	0x3
 1813 0bcd 00000000 		.4byte	buffer_rf
 1814 0bd1 18       		.uleb128 0x18
 1815 0bd2 4C010000 		.4byte	.LASF146
 1816 0bd6 05       		.byte	0x5
 1817 0bd7 5F       		.byte	0x5f
 1818 0bd8 AF0B0000 		.4byte	0xbaf
 1819 0bdc 05       		.uleb128 0x5
 1820 0bdd 03       		.byte	0x3
 1821 0bde 00000000 		.4byte	buffer_tx
 1822 0be2 18       		.uleb128 0x18
 1823 0be3 4F050000 		.4byte	.LASF147
 1824 0be7 05       		.byte	0x5
 1825 0be8 60       		.byte	0x60
 1826 0be9 8D000000 		.4byte	0x8d
 1827 0bed 05       		.uleb128 0x5
 1828 0bee 03       		.byte	0x3
 1829 0bef 00000000 		.4byte	intIDStation
 1830 0bf3 18       		.uleb128 0x18
 1831 0bf4 65010000 		.4byte	.LASF148
 1832 0bf8 05       		.byte	0x5
 1833 0bf9 A0       		.byte	0xa0
 1834 0bfa F3000000 		.4byte	0xf3
 1835 0bfe 05       		.uleb128 0x5
 1836 0bff 03       		.byte	0x3
 1837 0c00 00000000 		.4byte	bufferDisplay1
 1838 0c04 18       		.uleb128 0x18
 1839 0c05 40050000 		.4byte	.LASF149
 1840 0c09 05       		.byte	0x5
 1841 0c0a A1       		.byte	0xa1
 1842 0c0b F3000000 		.4byte	0xf3
 1843 0c0f 05       		.uleb128 0x5
 1844 0c10 03       		.byte	0x3
 1845 0c11 00000000 		.4byte	bufferDisplay2
 1846 0c15 18       		.uleb128 0x18
 1847 0c16 79010000 		.4byte	.LASF150
 1848 0c1a 05       		.byte	0x5
 1849 0c1b A2       		.byte	0xa2
 1850 0c1c F3000000 		.4byte	0xf3
 1851 0c20 05       		.uleb128 0x5
 1852 0c21 03       		.byte	0x3
 1853 0c22 00000000 		.4byte	bufferDisplay3
 1854 0c26 18       		.uleb128 0x18
 1855 0c27 58080000 		.4byte	.LASF151
 1856 0c2b 05       		.byte	0x5
 1857 0c2c A3       		.byte	0xa3
 1858 0c2d F3000000 		.4byte	0xf3
 1859 0c31 05       		.uleb128 0x5
 1860 0c32 03       		.byte	0x3
 1861 0c33 00000000 		.4byte	bufferDisplay4
 1862 0c37 18       		.uleb128 0x18
ARM GAS  C:\Users\RECEPC~1\AppData\Local\Temp\cc9CG50v.s 			page 37


 1863 0c38 DE000000 		.4byte	.LASF152
 1864 0c3c 05       		.byte	0x5
 1865 0c3d C2       		.byte	0xc2
 1866 0c3e 2F050000 		.4byte	0x52f
 1867 0c42 05       		.uleb128 0x5
 1868 0c43 03       		.byte	0x3
 1869 0c44 00000000 		.4byte	side
 1870 0c48 1A       		.uleb128 0x1a
 1871 0c49 29060000 		.4byte	.LASF155
 1872 0c4d 07       		.byte	0x7
 1873 0c4e BD       		.byte	0xbd
 1874 0c4f 81000000 		.4byte	0x81
 1875 0c53 1B       		.uleb128 0x1b
 1876 0c54 2D040000 		.4byte	.LASF153
 1877 0c58 07       		.byte	0x7
 1878 0c59 CA       		.byte	0xca
 1879 0c5a 81000000 		.4byte	0x81
 1880 0c5e 6D0C0000 		.4byte	0xc6d
 1881 0c62 1C       		.uleb128 0x1c
 1882 0c63 81000000 		.4byte	0x81
 1883 0c67 1C       		.uleb128 0x1c
 1884 0c68 81000000 		.4byte	0x81
 1885 0c6c 00       		.byte	0
 1886 0c6d 1B       		.uleb128 0x1b
 1887 0c6e E2010000 		.4byte	.LASF154
 1888 0c72 07       		.byte	0x7
 1889 0c73 CF       		.byte	0xcf
 1890 0c74 81000000 		.4byte	0x81
 1891 0c78 820C0000 		.4byte	0xc82
 1892 0c7c 1C       		.uleb128 0x1c
 1893 0c7d 81000000 		.4byte	0x81
 1894 0c81 00       		.byte	0
 1895 0c82 1A       		.uleb128 0x1a
 1896 0c83 FF050000 		.4byte	.LASF156
 1897 0c87 07       		.byte	0x7
 1898 0c88 CE       		.byte	0xce
 1899 0c89 81000000 		.4byte	0x81
 1900 0c8d 1D       		.uleb128 0x1d
 1901 0c8e 00000000 		.4byte	.LASF157
 1902 0c92 08       		.byte	0x8
 1903 0c93 77       		.byte	0x77
 1904 0c94 9E0C0000 		.4byte	0xc9e
 1905 0c98 1C       		.uleb128 0x1c
 1906 0c99 99000000 		.4byte	0x99
 1907 0c9d 00       		.byte	0
 1908 0c9e 1E       		.uleb128 0x1e
 1909 0c9f 35000000 		.4byte	.LASF158
 1910 0ca3 07       		.byte	0x7
 1911 0ca4 D0       		.byte	0xd0
 1912 0ca5 81000000 		.4byte	0x81
 1913 0ca9 1C       		.uleb128 0x1c
 1914 0caa 81000000 		.4byte	0x81
 1915 0cae 00       		.byte	0
 1916 0caf 00       		.byte	0
 1917              		.section	.debug_abbrev,"",%progbits
 1918              	.Ldebug_abbrev0:
 1919 0000 01       		.uleb128 0x1
ARM GAS  C:\Users\RECEPC~1\AppData\Local\Temp\cc9CG50v.s 			page 38


 1920 0001 11       		.uleb128 0x11
 1921 0002 01       		.byte	0x1
 1922 0003 25       		.uleb128 0x25
 1923 0004 0E       		.uleb128 0xe
 1924 0005 13       		.uleb128 0x13
 1925 0006 0B       		.uleb128 0xb
 1926 0007 03       		.uleb128 0x3
 1927 0008 0E       		.uleb128 0xe
 1928 0009 1B       		.uleb128 0x1b
 1929 000a 0E       		.uleb128 0xe
 1930 000b 55       		.uleb128 0x55
 1931 000c 17       		.uleb128 0x17
 1932 000d 11       		.uleb128 0x11
 1933 000e 01       		.uleb128 0x1
 1934 000f 10       		.uleb128 0x10
 1935 0010 17       		.uleb128 0x17
 1936 0011 00       		.byte	0
 1937 0012 00       		.byte	0
 1938 0013 02       		.uleb128 0x2
 1939 0014 24       		.uleb128 0x24
 1940 0015 00       		.byte	0
 1941 0016 0B       		.uleb128 0xb
 1942 0017 0B       		.uleb128 0xb
 1943 0018 3E       		.uleb128 0x3e
 1944 0019 0B       		.uleb128 0xb
 1945 001a 03       		.uleb128 0x3
 1946 001b 0E       		.uleb128 0xe
 1947 001c 00       		.byte	0
 1948 001d 00       		.byte	0
 1949 001e 03       		.uleb128 0x3
 1950 001f 16       		.uleb128 0x16
 1951 0020 00       		.byte	0
 1952 0021 03       		.uleb128 0x3
 1953 0022 0E       		.uleb128 0xe
 1954 0023 3A       		.uleb128 0x3a
 1955 0024 0B       		.uleb128 0xb
 1956 0025 3B       		.uleb128 0x3b
 1957 0026 0B       		.uleb128 0xb
 1958 0027 49       		.uleb128 0x49
 1959 0028 13       		.uleb128 0x13
 1960 0029 00       		.byte	0
 1961 002a 00       		.byte	0
 1962 002b 04       		.uleb128 0x4
 1963 002c 24       		.uleb128 0x24
 1964 002d 00       		.byte	0
 1965 002e 0B       		.uleb128 0xb
 1966 002f 0B       		.uleb128 0xb
 1967 0030 3E       		.uleb128 0x3e
 1968 0031 0B       		.uleb128 0xb
 1969 0032 03       		.uleb128 0x3
 1970 0033 08       		.uleb128 0x8
 1971 0034 00       		.byte	0
 1972 0035 00       		.byte	0
 1973 0036 05       		.uleb128 0x5
 1974 0037 16       		.uleb128 0x16
 1975 0038 00       		.byte	0
 1976 0039 03       		.uleb128 0x3
ARM GAS  C:\Users\RECEPC~1\AppData\Local\Temp\cc9CG50v.s 			page 39


 1977 003a 0E       		.uleb128 0xe
 1978 003b 3A       		.uleb128 0x3a
 1979 003c 0B       		.uleb128 0xb
 1980 003d 3B       		.uleb128 0x3b
 1981 003e 05       		.uleb128 0x5
 1982 003f 49       		.uleb128 0x49
 1983 0040 13       		.uleb128 0x13
 1984 0041 00       		.byte	0
 1985 0042 00       		.byte	0
 1986 0043 06       		.uleb128 0x6
 1987 0044 35       		.uleb128 0x35
 1988 0045 00       		.byte	0
 1989 0046 49       		.uleb128 0x49
 1990 0047 13       		.uleb128 0x13
 1991 0048 00       		.byte	0
 1992 0049 00       		.byte	0
 1993 004a 07       		.uleb128 0x7
 1994 004b 01       		.uleb128 0x1
 1995 004c 01       		.byte	0x1
 1996 004d 49       		.uleb128 0x49
 1997 004e 13       		.uleb128 0x13
 1998 004f 01       		.uleb128 0x1
 1999 0050 13       		.uleb128 0x13
 2000 0051 00       		.byte	0
 2001 0052 00       		.byte	0
 2002 0053 08       		.uleb128 0x8
 2003 0054 21       		.uleb128 0x21
 2004 0055 00       		.byte	0
 2005 0056 49       		.uleb128 0x49
 2006 0057 13       		.uleb128 0x13
 2007 0058 2F       		.uleb128 0x2f
 2008 0059 0B       		.uleb128 0xb
 2009 005a 00       		.byte	0
 2010 005b 00       		.byte	0
 2011 005c 09       		.uleb128 0x9
 2012 005d 13       		.uleb128 0x13
 2013 005e 01       		.byte	0x1
 2014 005f 03       		.uleb128 0x3
 2015 0060 0E       		.uleb128 0xe
 2016 0061 0B       		.uleb128 0xb
 2017 0062 05       		.uleb128 0x5
 2018 0063 3A       		.uleb128 0x3a
 2019 0064 0B       		.uleb128 0xb
 2020 0065 3B       		.uleb128 0x3b
 2021 0066 0B       		.uleb128 0xb
 2022 0067 01       		.uleb128 0x1
 2023 0068 13       		.uleb128 0x13
 2024 0069 00       		.byte	0
 2025 006a 00       		.byte	0
 2026 006b 0A       		.uleb128 0xa
 2027 006c 0D       		.uleb128 0xd
 2028 006d 00       		.byte	0
 2029 006e 03       		.uleb128 0x3
 2030 006f 0E       		.uleb128 0xe
 2031 0070 3A       		.uleb128 0x3a
 2032 0071 0B       		.uleb128 0xb
 2033 0072 3B       		.uleb128 0x3b
ARM GAS  C:\Users\RECEPC~1\AppData\Local\Temp\cc9CG50v.s 			page 40


 2034 0073 0B       		.uleb128 0xb
 2035 0074 49       		.uleb128 0x49
 2036 0075 13       		.uleb128 0x13
 2037 0076 38       		.uleb128 0x38
 2038 0077 0B       		.uleb128 0xb
 2039 0078 00       		.byte	0
 2040 0079 00       		.byte	0
 2041 007a 0B       		.uleb128 0xb
 2042 007b 0D       		.uleb128 0xd
 2043 007c 00       		.byte	0
 2044 007d 03       		.uleb128 0x3
 2045 007e 0E       		.uleb128 0xe
 2046 007f 3A       		.uleb128 0x3a
 2047 0080 0B       		.uleb128 0xb
 2048 0081 3B       		.uleb128 0x3b
 2049 0082 0B       		.uleb128 0xb
 2050 0083 49       		.uleb128 0x49
 2051 0084 13       		.uleb128 0x13
 2052 0085 38       		.uleb128 0x38
 2053 0086 05       		.uleb128 0x5
 2054 0087 00       		.byte	0
 2055 0088 00       		.byte	0
 2056 0089 0C       		.uleb128 0xc
 2057 008a 0D       		.uleb128 0xd
 2058 008b 00       		.byte	0
 2059 008c 03       		.uleb128 0x3
 2060 008d 08       		.uleb128 0x8
 2061 008e 3A       		.uleb128 0x3a
 2062 008f 0B       		.uleb128 0xb
 2063 0090 3B       		.uleb128 0x3b
 2064 0091 0B       		.uleb128 0xb
 2065 0092 49       		.uleb128 0x49
 2066 0093 13       		.uleb128 0x13
 2067 0094 38       		.uleb128 0x38
 2068 0095 0B       		.uleb128 0xb
 2069 0096 00       		.byte	0
 2070 0097 00       		.byte	0
 2071 0098 0D       		.uleb128 0xd
 2072 0099 0D       		.uleb128 0xd
 2073 009a 00       		.byte	0
 2074 009b 03       		.uleb128 0x3
 2075 009c 08       		.uleb128 0x8
 2076 009d 3A       		.uleb128 0x3a
 2077 009e 0B       		.uleb128 0xb
 2078 009f 3B       		.uleb128 0x3b
 2079 00a0 0B       		.uleb128 0xb
 2080 00a1 49       		.uleb128 0x49
 2081 00a2 13       		.uleb128 0x13
 2082 00a3 38       		.uleb128 0x38
 2083 00a4 05       		.uleb128 0x5
 2084 00a5 00       		.byte	0
 2085 00a6 00       		.byte	0
 2086 00a7 0E       		.uleb128 0xe
 2087 00a8 2E       		.uleb128 0x2e
 2088 00a9 01       		.byte	0x1
 2089 00aa 3F       		.uleb128 0x3f
 2090 00ab 19       		.uleb128 0x19
ARM GAS  C:\Users\RECEPC~1\AppData\Local\Temp\cc9CG50v.s 			page 41


 2091 00ac 03       		.uleb128 0x3
 2092 00ad 0E       		.uleb128 0xe
 2093 00ae 3A       		.uleb128 0x3a
 2094 00af 0B       		.uleb128 0xb
 2095 00b0 3B       		.uleb128 0x3b
 2096 00b1 0B       		.uleb128 0xb
 2097 00b2 27       		.uleb128 0x27
 2098 00b3 19       		.uleb128 0x19
 2099 00b4 49       		.uleb128 0x49
 2100 00b5 13       		.uleb128 0x13
 2101 00b6 11       		.uleb128 0x11
 2102 00b7 01       		.uleb128 0x1
 2103 00b8 12       		.uleb128 0x12
 2104 00b9 06       		.uleb128 0x6
 2105 00ba 40       		.uleb128 0x40
 2106 00bb 18       		.uleb128 0x18
 2107 00bc 9742     		.uleb128 0x2117
 2108 00be 19       		.uleb128 0x19
 2109 00bf 01       		.uleb128 0x1
 2110 00c0 13       		.uleb128 0x13
 2111 00c1 00       		.byte	0
 2112 00c2 00       		.byte	0
 2113 00c3 0F       		.uleb128 0xf
 2114 00c4 05       		.uleb128 0x5
 2115 00c5 00       		.byte	0
 2116 00c6 03       		.uleb128 0x3
 2117 00c7 0E       		.uleb128 0xe
 2118 00c8 3A       		.uleb128 0x3a
 2119 00c9 0B       		.uleb128 0xb
 2120 00ca 3B       		.uleb128 0x3b
 2121 00cb 0B       		.uleb128 0xb
 2122 00cc 49       		.uleb128 0x49
 2123 00cd 13       		.uleb128 0x13
 2124 00ce 02       		.uleb128 0x2
 2125 00cf 17       		.uleb128 0x17
 2126 00d0 00       		.byte	0
 2127 00d1 00       		.byte	0
 2128 00d2 10       		.uleb128 0x10
 2129 00d3 34       		.uleb128 0x34
 2130 00d4 00       		.byte	0
 2131 00d5 03       		.uleb128 0x3
 2132 00d6 0E       		.uleb128 0xe
 2133 00d7 3A       		.uleb128 0x3a
 2134 00d8 0B       		.uleb128 0xb
 2135 00d9 3B       		.uleb128 0x3b
 2136 00da 0B       		.uleb128 0xb
 2137 00db 49       		.uleb128 0x49
 2138 00dc 13       		.uleb128 0x13
 2139 00dd 02       		.uleb128 0x2
 2140 00de 17       		.uleb128 0x17
 2141 00df 00       		.byte	0
 2142 00e0 00       		.byte	0
 2143 00e1 11       		.uleb128 0x11
 2144 00e2 34       		.uleb128 0x34
 2145 00e3 00       		.byte	0
 2146 00e4 03       		.uleb128 0x3
 2147 00e5 0E       		.uleb128 0xe
ARM GAS  C:\Users\RECEPC~1\AppData\Local\Temp\cc9CG50v.s 			page 42


 2148 00e6 3A       		.uleb128 0x3a
 2149 00e7 0B       		.uleb128 0xb
 2150 00e8 3B       		.uleb128 0x3b
 2151 00e9 0B       		.uleb128 0xb
 2152 00ea 49       		.uleb128 0x49
 2153 00eb 13       		.uleb128 0x13
 2154 00ec 02       		.uleb128 0x2
 2155 00ed 18       		.uleb128 0x18
 2156 00ee 00       		.byte	0
 2157 00ef 00       		.byte	0
 2158 00f0 12       		.uleb128 0x12
 2159 00f1 34       		.uleb128 0x34
 2160 00f2 00       		.byte	0
 2161 00f3 03       		.uleb128 0x3
 2162 00f4 08       		.uleb128 0x8
 2163 00f5 3A       		.uleb128 0x3a
 2164 00f6 0B       		.uleb128 0xb
 2165 00f7 3B       		.uleb128 0x3b
 2166 00f8 0B       		.uleb128 0xb
 2167 00f9 49       		.uleb128 0x49
 2168 00fa 13       		.uleb128 0x13
 2169 00fb 02       		.uleb128 0x2
 2170 00fc 17       		.uleb128 0x17
 2171 00fd 00       		.byte	0
 2172 00fe 00       		.byte	0
 2173 00ff 13       		.uleb128 0x13
 2174 0100 898201   		.uleb128 0x4109
 2175 0103 00       		.byte	0
 2176 0104 11       		.uleb128 0x11
 2177 0105 01       		.uleb128 0x1
 2178 0106 31       		.uleb128 0x31
 2179 0107 13       		.uleb128 0x13
 2180 0108 00       		.byte	0
 2181 0109 00       		.byte	0
 2182 010a 14       		.uleb128 0x14
 2183 010b 898201   		.uleb128 0x4109
 2184 010e 01       		.byte	0x1
 2185 010f 11       		.uleb128 0x11
 2186 0110 01       		.uleb128 0x1
 2187 0111 31       		.uleb128 0x31
 2188 0112 13       		.uleb128 0x13
 2189 0113 01       		.uleb128 0x1
 2190 0114 13       		.uleb128 0x13
 2191 0115 00       		.byte	0
 2192 0116 00       		.byte	0
 2193 0117 15       		.uleb128 0x15
 2194 0118 8A8201   		.uleb128 0x410a
 2195 011b 00       		.byte	0
 2196 011c 02       		.uleb128 0x2
 2197 011d 18       		.uleb128 0x18
 2198 011e 9142     		.uleb128 0x2111
 2199 0120 18       		.uleb128 0x18
 2200 0121 00       		.byte	0
 2201 0122 00       		.byte	0
 2202 0123 16       		.uleb128 0x16
 2203 0124 2E       		.uleb128 0x2e
 2204 0125 01       		.byte	0x1
ARM GAS  C:\Users\RECEPC~1\AppData\Local\Temp\cc9CG50v.s 			page 43


 2205 0126 3F       		.uleb128 0x3f
 2206 0127 19       		.uleb128 0x19
 2207 0128 03       		.uleb128 0x3
 2208 0129 0E       		.uleb128 0xe
 2209 012a 3A       		.uleb128 0x3a
 2210 012b 0B       		.uleb128 0xb
 2211 012c 3B       		.uleb128 0x3b
 2212 012d 0B       		.uleb128 0xb
 2213 012e 49       		.uleb128 0x49
 2214 012f 13       		.uleb128 0x13
 2215 0130 11       		.uleb128 0x11
 2216 0131 01       		.uleb128 0x1
 2217 0132 12       		.uleb128 0x12
 2218 0133 06       		.uleb128 0x6
 2219 0134 40       		.uleb128 0x40
 2220 0135 18       		.uleb128 0x18
 2221 0136 9742     		.uleb128 0x2117
 2222 0138 19       		.uleb128 0x19
 2223 0139 01       		.uleb128 0x1
 2224 013a 13       		.uleb128 0x13
 2225 013b 00       		.byte	0
 2226 013c 00       		.byte	0
 2227 013d 17       		.uleb128 0x17
 2228 013e 34       		.uleb128 0x34
 2229 013f 00       		.byte	0
 2230 0140 03       		.uleb128 0x3
 2231 0141 0E       		.uleb128 0xe
 2232 0142 3A       		.uleb128 0x3a
 2233 0143 0B       		.uleb128 0xb
 2234 0144 3B       		.uleb128 0x3b
 2235 0145 05       		.uleb128 0x5
 2236 0146 49       		.uleb128 0x49
 2237 0147 13       		.uleb128 0x13
 2238 0148 3F       		.uleb128 0x3f
 2239 0149 19       		.uleb128 0x19
 2240 014a 3C       		.uleb128 0x3c
 2241 014b 19       		.uleb128 0x19
 2242 014c 00       		.byte	0
 2243 014d 00       		.byte	0
 2244 014e 18       		.uleb128 0x18
 2245 014f 34       		.uleb128 0x34
 2246 0150 00       		.byte	0
 2247 0151 03       		.uleb128 0x3
 2248 0152 0E       		.uleb128 0xe
 2249 0153 3A       		.uleb128 0x3a
 2250 0154 0B       		.uleb128 0xb
 2251 0155 3B       		.uleb128 0x3b
 2252 0156 0B       		.uleb128 0xb
 2253 0157 49       		.uleb128 0x49
 2254 0158 13       		.uleb128 0x13
 2255 0159 3F       		.uleb128 0x3f
 2256 015a 19       		.uleb128 0x19
 2257 015b 02       		.uleb128 0x2
 2258 015c 18       		.uleb128 0x18
 2259 015d 00       		.byte	0
 2260 015e 00       		.byte	0
 2261 015f 19       		.uleb128 0x19
ARM GAS  C:\Users\RECEPC~1\AppData\Local\Temp\cc9CG50v.s 			page 44


 2262 0160 21       		.uleb128 0x21
 2263 0161 00       		.byte	0
 2264 0162 49       		.uleb128 0x49
 2265 0163 13       		.uleb128 0x13
 2266 0164 2F       		.uleb128 0x2f
 2267 0165 05       		.uleb128 0x5
 2268 0166 00       		.byte	0
 2269 0167 00       		.byte	0
 2270 0168 1A       		.uleb128 0x1a
 2271 0169 2E       		.uleb128 0x2e
 2272 016a 00       		.byte	0
 2273 016b 3F       		.uleb128 0x3f
 2274 016c 19       		.uleb128 0x19
 2275 016d 03       		.uleb128 0x3
 2276 016e 0E       		.uleb128 0xe
 2277 016f 3A       		.uleb128 0x3a
 2278 0170 0B       		.uleb128 0xb
 2279 0171 3B       		.uleb128 0x3b
 2280 0172 0B       		.uleb128 0xb
 2281 0173 27       		.uleb128 0x27
 2282 0174 19       		.uleb128 0x19
 2283 0175 49       		.uleb128 0x49
 2284 0176 13       		.uleb128 0x13
 2285 0177 3C       		.uleb128 0x3c
 2286 0178 19       		.uleb128 0x19
 2287 0179 00       		.byte	0
 2288 017a 00       		.byte	0
 2289 017b 1B       		.uleb128 0x1b
 2290 017c 2E       		.uleb128 0x2e
 2291 017d 01       		.byte	0x1
 2292 017e 3F       		.uleb128 0x3f
 2293 017f 19       		.uleb128 0x19
 2294 0180 03       		.uleb128 0x3
 2295 0181 0E       		.uleb128 0xe
 2296 0182 3A       		.uleb128 0x3a
 2297 0183 0B       		.uleb128 0xb
 2298 0184 3B       		.uleb128 0x3b
 2299 0185 0B       		.uleb128 0xb
 2300 0186 27       		.uleb128 0x27
 2301 0187 19       		.uleb128 0x19
 2302 0188 49       		.uleb128 0x49
 2303 0189 13       		.uleb128 0x13
 2304 018a 3C       		.uleb128 0x3c
 2305 018b 19       		.uleb128 0x19
 2306 018c 01       		.uleb128 0x1
 2307 018d 13       		.uleb128 0x13
 2308 018e 00       		.byte	0
 2309 018f 00       		.byte	0
 2310 0190 1C       		.uleb128 0x1c
 2311 0191 05       		.uleb128 0x5
 2312 0192 00       		.byte	0
 2313 0193 49       		.uleb128 0x49
 2314 0194 13       		.uleb128 0x13
 2315 0195 00       		.byte	0
 2316 0196 00       		.byte	0
 2317 0197 1D       		.uleb128 0x1d
 2318 0198 2E       		.uleb128 0x2e
ARM GAS  C:\Users\RECEPC~1\AppData\Local\Temp\cc9CG50v.s 			page 45


 2319 0199 01       		.byte	0x1
 2320 019a 3F       		.uleb128 0x3f
 2321 019b 19       		.uleb128 0x19
 2322 019c 03       		.uleb128 0x3
 2323 019d 0E       		.uleb128 0xe
 2324 019e 3A       		.uleb128 0x3a
 2325 019f 0B       		.uleb128 0xb
 2326 01a0 3B       		.uleb128 0x3b
 2327 01a1 0B       		.uleb128 0xb
 2328 01a2 27       		.uleb128 0x27
 2329 01a3 19       		.uleb128 0x19
 2330 01a4 3C       		.uleb128 0x3c
 2331 01a5 19       		.uleb128 0x19
 2332 01a6 01       		.uleb128 0x1
 2333 01a7 13       		.uleb128 0x13
 2334 01a8 00       		.byte	0
 2335 01a9 00       		.byte	0
 2336 01aa 1E       		.uleb128 0x1e
 2337 01ab 2E       		.uleb128 0x2e
 2338 01ac 01       		.byte	0x1
 2339 01ad 3F       		.uleb128 0x3f
 2340 01ae 19       		.uleb128 0x19
 2341 01af 03       		.uleb128 0x3
 2342 01b0 0E       		.uleb128 0xe
 2343 01b1 3A       		.uleb128 0x3a
 2344 01b2 0B       		.uleb128 0xb
 2345 01b3 3B       		.uleb128 0x3b
 2346 01b4 0B       		.uleb128 0xb
 2347 01b5 27       		.uleb128 0x27
 2348 01b6 19       		.uleb128 0x19
 2349 01b7 49       		.uleb128 0x49
 2350 01b8 13       		.uleb128 0x13
 2351 01b9 3C       		.uleb128 0x3c
 2352 01ba 19       		.uleb128 0x19
 2353 01bb 00       		.byte	0
 2354 01bc 00       		.byte	0
 2355 01bd 00       		.byte	0
 2356              		.section	.debug_loc,"",%progbits
 2357              	.Ldebug_loc0:
 2358              	.LLST0:
 2359 0000 00000000 		.4byte	.LVL0
 2360 0004 0F000000 		.4byte	.LVL1-1
 2361 0008 0100     		.2byte	0x1
 2362 000a 50       		.byte	0x50
 2363 000b 0F000000 		.4byte	.LVL1-1
 2364 000f 46000000 		.4byte	.LFE63
 2365 0013 0200     		.2byte	0x2
 2366 0015 91       		.byte	0x91
 2367 0016 74       		.sleb128 -12
 2368 0017 00000000 		.4byte	0
 2369 001b 00000000 		.4byte	0
 2370              	.LLST1:
 2371 001f 00000000 		.4byte	.LVL0
 2372 0023 0F000000 		.4byte	.LVL1-1
 2373 0027 0100     		.2byte	0x1
 2374 0029 51       		.byte	0x51
 2375 002a 0F000000 		.4byte	.LVL1-1
ARM GAS  C:\Users\RECEPC~1\AppData\Local\Temp\cc9CG50v.s 			page 46


 2376 002e 46000000 		.4byte	.LFE63
 2377 0032 0200     		.2byte	0x2
 2378 0034 91       		.byte	0x91
 2379 0035 75       		.sleb128 -11
 2380 0036 00000000 		.4byte	0
 2381 003a 00000000 		.4byte	0
 2382              	.LLST2:
 2383 003e 18000000 		.4byte	.LVL2
 2384 0042 1C000000 		.4byte	.LVL3
 2385 0046 0100     		.2byte	0x1
 2386 0048 50       		.byte	0x50
 2387 0049 1E000000 		.4byte	.LVL4
 2388 004d 26000000 		.4byte	.LVL5
 2389 0051 0100     		.2byte	0x1
 2390 0053 50       		.byte	0x50
 2391 0054 2A000000 		.4byte	.LVL6
 2392 0058 3B000000 		.4byte	.LVL11-1
 2393 005c 0100     		.2byte	0x1
 2394 005e 50       		.byte	0x50
 2395 005f 40000000 		.4byte	.LVL12
 2396 0063 42000000 		.4byte	.LVL13
 2397 0067 0100     		.2byte	0x1
 2398 0069 50       		.byte	0x50
 2399 006a 00000000 		.4byte	0
 2400 006e 00000000 		.4byte	0
 2401              	.LLST3:
 2402 0072 1E000000 		.4byte	.LVL4
 2403 0076 2E000000 		.4byte	.LVL7
 2404 007a 0100     		.2byte	0x1
 2405 007c 54       		.byte	0x54
 2406 007d 30000000 		.4byte	.LVL8
 2407 0081 32000000 		.4byte	.LVL9
 2408 0085 0100     		.2byte	0x1
 2409 0087 54       		.byte	0x54
 2410 0088 34000000 		.4byte	.LVL10
 2411 008c 42000000 		.4byte	.LVL13
 2412 0090 0100     		.2byte	0x1
 2413 0092 54       		.byte	0x54
 2414 0093 00000000 		.4byte	0
 2415 0097 00000000 		.4byte	0
 2416              	.LLST4:
 2417 009b 12000000 		.4byte	.LVL17
 2418 009f 16000000 		.4byte	.LVL18
 2419 00a3 0100     		.2byte	0x1
 2420 00a5 50       		.byte	0x50
 2421 00a6 1A000000 		.4byte	.LVL19
 2422 00aa 1F000000 		.4byte	.LVL20-1
 2423 00ae 0100     		.2byte	0x1
 2424 00b0 50       		.byte	0x50
 2425 00b1 2E000000 		.4byte	.LVL22
 2426 00b5 35000000 		.4byte	.LVL23-1
 2427 00b9 0100     		.2byte	0x1
 2428 00bb 50       		.byte	0x50
 2429 00bc 4A000000 		.4byte	.LVL27
 2430 00c0 4C000000 		.4byte	.LVL28
 2431 00c4 0100     		.2byte	0x1
 2432 00c6 50       		.byte	0x50
ARM GAS  C:\Users\RECEPC~1\AppData\Local\Temp\cc9CG50v.s 			page 47


 2433 00c7 4E000000 		.4byte	.LVL29
 2434 00cb 50000000 		.4byte	.LVL30
 2435 00cf 0100     		.2byte	0x1
 2436 00d1 50       		.byte	0x50
 2437 00d2 52000000 		.4byte	.LVL31
 2438 00d6 54000000 		.4byte	.LVL32
 2439 00da 0100     		.2byte	0x1
 2440 00dc 50       		.byte	0x50
 2441 00dd 00000000 		.4byte	0
 2442 00e1 00000000 		.4byte	0
 2443              	.LLST5:
 2444 00e5 02000000 		.4byte	.LVL14
 2445 00e9 06000000 		.4byte	.LVL15
 2446 00ed 0200     		.2byte	0x2
 2447 00ef 34       		.byte	0x34
 2448 00f0 9F       		.byte	0x9f
 2449 00f1 06000000 		.4byte	.LVL15
 2450 00f5 40000000 		.4byte	.LVL25
 2451 00f9 0100     		.2byte	0x1
 2452 00fb 54       		.byte	0x54
 2453 00fc 42000000 		.4byte	.LVL26
 2454 0100 56000000 		.4byte	.LVL33
 2455 0104 0100     		.2byte	0x1
 2456 0106 54       		.byte	0x54
 2457 0107 00000000 		.4byte	0
 2458 010b 00000000 		.4byte	0
 2459              	.LLST6:
 2460 010f 12000000 		.4byte	.LVL37
 2461 0113 16000000 		.4byte	.LVL38
 2462 0117 0100     		.2byte	0x1
 2463 0119 50       		.byte	0x50
 2464 011a 1A000000 		.4byte	.LVL39
 2465 011e 1F000000 		.4byte	.LVL40-1
 2466 0122 0100     		.2byte	0x1
 2467 0124 50       		.byte	0x50
 2468 0125 2E000000 		.4byte	.LVL42
 2469 0129 35000000 		.4byte	.LVL43-1
 2470 012d 0100     		.2byte	0x1
 2471 012f 50       		.byte	0x50
 2472 0130 4A000000 		.4byte	.LVL47
 2473 0134 4C000000 		.4byte	.LVL48
 2474 0138 0100     		.2byte	0x1
 2475 013a 50       		.byte	0x50
 2476 013b 4E000000 		.4byte	.LVL49
 2477 013f 50000000 		.4byte	.LVL50
 2478 0143 0100     		.2byte	0x1
 2479 0145 50       		.byte	0x50
 2480 0146 52000000 		.4byte	.LVL51
 2481 014a 54000000 		.4byte	.LVL52
 2482 014e 0100     		.2byte	0x1
 2483 0150 50       		.byte	0x50
 2484 0151 00000000 		.4byte	0
 2485 0155 00000000 		.4byte	0
 2486              	.LLST7:
 2487 0159 02000000 		.4byte	.LVL34
 2488 015d 06000000 		.4byte	.LVL35
 2489 0161 0200     		.2byte	0x2
ARM GAS  C:\Users\RECEPC~1\AppData\Local\Temp\cc9CG50v.s 			page 48


 2490 0163 31       		.byte	0x31
 2491 0164 9F       		.byte	0x9f
 2492 0165 06000000 		.4byte	.LVL35
 2493 0169 40000000 		.4byte	.LVL45
 2494 016d 0100     		.2byte	0x1
 2495 016f 54       		.byte	0x54
 2496 0170 42000000 		.4byte	.LVL46
 2497 0174 56000000 		.4byte	.LVL53
 2498 0178 0100     		.2byte	0x1
 2499 017a 54       		.byte	0x54
 2500 017b 00000000 		.4byte	0
 2501 017f 00000000 		.4byte	0
 2502              		.section	.debug_aranges,"",%progbits
 2503 0000 2C000000 		.4byte	0x2c
 2504 0004 0200     		.2byte	0x2
 2505 0006 00000000 		.4byte	.Ldebug_info0
 2506 000a 04       		.byte	0x4
 2507 000b 00       		.byte	0
 2508 000c 0000     		.2byte	0
 2509 000e 0000     		.2byte	0
 2510 0010 00000000 		.4byte	.LFB63
 2511 0014 46000000 		.4byte	.LFE63-.LFB63
 2512 0018 00000000 		.4byte	.LFB64
 2513 001c 5C000000 		.4byte	.LFE64-.LFB64
 2514 0020 00000000 		.4byte	.LFB65
 2515 0024 5C000000 		.4byte	.LFE65-.LFB65
 2516 0028 00000000 		.4byte	0
 2517 002c 00000000 		.4byte	0
 2518              		.section	.debug_ranges,"",%progbits
 2519              	.Ldebug_ranges0:
 2520 0000 00000000 		.4byte	.LFB63
 2521 0004 46000000 		.4byte	.LFE63
 2522 0008 00000000 		.4byte	.LFB64
 2523 000c 5C000000 		.4byte	.LFE64
 2524 0010 00000000 		.4byte	.LFB65
 2525 0014 5C000000 		.4byte	.LFE65
 2526 0018 00000000 		.4byte	0
 2527 001c 00000000 		.4byte	0
 2528              		.section	.debug_line,"",%progbits
 2529              	.Ldebug_line0:
 2530 0000 0E020000 		.section	.debug_str,"MS",%progbits,1
 2530      02007101 
 2530      00000201 
 2530      FB0E0D00 
 2530      01010101 
 2531              	.LASF157:
 2532 0000 43794465 		.ascii	"CyDelay\000"
 2532      6C617900 
 2533              	.LASF138:
 2534 0008 636F756E 		.ascii	"count_protector2\000"
 2534      745F7072 
 2534      6F746563 
 2534      746F7232 
 2534      00
 2535              	.LASF107:
 2536 0019 64656369 		.ascii	"decimalVolume\000"
 2536      6D616C56 
ARM GAS  C:\Users\RECEPC~1\AppData\Local\Temp\cc9CG50v.s 			page 49


 2536      6F6C756D 
 2536      6500
 2537              	.LASF119:
 2538 0027 50726576 		.ascii	"PrevStatePump\000"
 2538      53746174 
 2538      6550756D 
 2538      7000
 2539              	.LASF158:
 2540 0035 4932435F 		.ascii	"I2C_Bus_MasterReadByte\000"
 2540      4275735F 
 2540      4D617374 
 2540      65725265 
 2540      61644279 
 2541              	.LASF52:
 2542 004c 6D657373 		.ascii	"message\000"
 2542      61676500 
 2543              	.LASF128:
 2544 0054 73746174 		.ascii	"statePump\000"
 2544      6550756D 
 2544      7000
 2545              	.LASF71:
 2546 005e 62756666 		.ascii	"buffer\000"
 2546      657200
 2547              	.LASF145:
 2548 0065 62756666 		.ascii	"buffer_rf\000"
 2548      65725F72 
 2548      6600
 2549              	.LASF106:
 2550 006f 64656369 		.ascii	"decimalMoney\000"
 2550      6D616C4D 
 2550      6F6E6579 
 2550      00
 2551              	.LASF32:
 2552 007c 73616C65 		.ascii	"salePerform\000"
 2552      50657266 
 2552      6F726D00 
 2553              	.LASF8:
 2554 0088 756E7369 		.ascii	"unsigned int\000"
 2554      676E6564 
 2554      20696E74 
 2554      00
 2555              	.LASF57:
 2556 0095 70726F64 		.ascii	"productMarket\000"
 2556      7563744D 
 2556      61726B65 
 2556      7400
 2557              	.LASF133:
 2558 00a3 5072696E 		.ascii	"PrinterType\000"
 2558      74657254 
 2558      79706500 
 2559              	.LASF9:
 2560 00af 5F5F696E 		.ascii	"__int32_t\000"
 2560      7433325F 
 2560      7400
 2561              	.LASF50:
 2562 00b9 666C6167 		.ascii	"flagLiftHandle\000"
 2562      4C696674 
ARM GAS  C:\Users\RECEPC~1\AppData\Local\Temp\cc9CG50v.s 			page 50


 2562      48616E64 
 2562      6C6500
 2563              	.LASF112:
 2564 00c8 72657369 		.ascii	"residue\000"
 2564      64756500 
 2565              	.LASF20:
 2566 00d0 69645479 		.ascii	"idType\000"
 2566      706500
 2567              	.LASF127:
 2568 00d7 44444D6F 		.ascii	"DDMode\000"
 2568      646500
 2569              	.LASF152:
 2570 00de 73696465 		.ascii	"side\000"
 2570      00
 2571              	.LASF141:
 2572 00e3 69645374 		.ascii	"idStation\000"
 2572      6174696F 
 2572      6E00
 2573              	.LASF24:
 2574 00ed 73656C65 		.ascii	"selectedSale\000"
 2574      63746564 
 2574      53616C65 
 2574      00
 2575              	.LASF58:
 2576 00fa 7175616E 		.ascii	"quantityMarket\000"
 2576      74697479 
 2576      4D61726B 
 2576      657400
 2577              	.LASF101:
 2578 0109 666C6167 		.ascii	"flagPoint2\000"
 2578      506F696E 
 2578      743200
 2579              	.LASF111:
 2580 0114 73637265 		.ascii	"screen\000"
 2580      656E00
 2581              	.LASF140:
 2582 011b 636F6E74 		.ascii	"controlChar\000"
 2582      726F6C43 
 2582      68617200 
 2583              	.LASF54:
 2584 0127 766F6C75 		.ascii	"volumeQuota\000"
 2584      6D655175 
 2584      6F746100 
 2585              	.LASF162:
 2586 0133 77726974 		.ascii	"write_psoc1\000"
 2586      655F7073 
 2586      6F633100 
 2587              	.LASF120:
 2588 013f 506C6174 		.ascii	"PlateRequest\000"
 2588      65526571 
 2588      75657374 
 2588      00
 2589              	.LASF146:
 2590 014c 62756666 		.ascii	"buffer_tx\000"
 2590      65725F74 
 2590      7800
 2591              	.LASF14:
ARM GAS  C:\Users\RECEPC~1\AppData\Local\Temp\cc9CG50v.s 			page 51


 2592 0156 666C6F61 		.ascii	"float\000"
 2592      7400
 2593              	.LASF124:
 2594 015c 4D6F6E65 		.ascii	"MoneyDec\000"
 2594      79446563 
 2594      00
 2595              	.LASF148:
 2596 0165 62756666 		.ascii	"bufferDisplay1\000"
 2596      65724469 
 2596      73706C61 
 2596      793100
 2597              	.LASF80:
 2598 0174 686F7365 		.ascii	"hose\000"
 2598      00
 2599              	.LASF150:
 2600 0179 62756666 		.ascii	"bufferDisplay3\000"
 2600      65724469 
 2600      73706C61 
 2600      793300
 2601              	.LASF7:
 2602 0188 6C6F6E67 		.ascii	"long long unsigned int\000"
 2602      206C6F6E 
 2602      6720756E 
 2602      7369676E 
 2602      65642069 
 2603              	.LASF40:
 2604 019f 746F7461 		.ascii	"totalVolumePrevious\000"
 2604      6C566F6C 
 2604      756D6550 
 2604      72657669 
 2604      6F757300 
 2605              	.LASF139:
 2606 01b3 636F6E66 		.ascii	"configAccess\000"
 2606      69674163 
 2606      63657373 
 2606      00
 2607              	.LASF131:
 2608 01c0 64696769 		.ascii	"digits\000"
 2608      747300
 2609              	.LASF109:
 2610 01c7 74696D65 		.ascii	"time\000"
 2610      00
 2611              	.LASF143:
 2612 01cc 7072696E 		.ascii	"printPortA\000"
 2612      74506F72 
 2612      744100
 2613              	.LASF144:
 2614 01d7 7072696E 		.ascii	"printPortB\000"
 2614      74506F72 
 2614      744200
 2615              	.LASF154:
 2616 01e2 4932435F 		.ascii	"I2C_Bus_MasterWriteByte\000"
 2616      4275735F 
 2616      4D617374 
 2616      65725772 
 2616      69746542 
 2617              	.LASF35:
ARM GAS  C:\Users\RECEPC~1\AppData\Local\Temp\cc9CG50v.s 			page 52


 2618 01fa 70726F64 		.ascii	"productType\000"
 2618      75637454 
 2618      79706500 
 2619              	.LASF102:
 2620 0206 70726F64 		.ascii	"productNumber\000"
 2620      7563744E 
 2620      756D6265 
 2620      7200
 2621              	.LASF114:
 2622 0214 69645365 		.ascii	"idSeller\000"
 2622      6C6C6572 
 2622      00
 2623              	.LASF21:
 2624 021d 69645365 		.ascii	"idSerial\000"
 2624      7269616C 
 2624      00
 2625              	.LASF130:
 2626 0226 6C6F636B 		.ascii	"lockTurn\000"
 2626      5475726E 
 2626      00
 2627              	.LASF46:
 2628 022f 6D696C65 		.ascii	"mileageSale\000"
 2628      61676553 
 2628      616C6500 
 2629              	.LASF66:
 2630 023b 666C6167 		.ascii	"flagChangePPU\000"
 2630      4368616E 
 2630      67655050 
 2630      5500
 2631              	.LASF67:
 2632 0249 666C6167 		.ascii	"flagPrint\000"
 2632      5072696E 
 2632      7400
 2633              	.LASF68:
 2634 0253 666C6167 		.ascii	"flagActiveSale\000"
 2634      41637469 
 2634      76655361 
 2634      6C6500
 2635              	.LASF94:
 2636 0262 666C6F77 		.ascii	"flowDisplay1\000"
 2636      44697370 
 2636      6C617931 
 2636      00
 2637              	.LASF95:
 2638 026f 666C6F77 		.ascii	"flowDisplay2\000"
 2638      44697370 
 2638      6C617932 
 2638      00
 2639              	.LASF96:
 2640 027c 666C6F77 		.ascii	"flowDisplay3\000"
 2640      44697370 
 2640      6C617933 
 2640      00
 2641              	.LASF97:
 2642 0289 666C6F77 		.ascii	"flowDisplay4\000"
 2642      44697370 
 2642      6C617934 
ARM GAS  C:\Users\RECEPC~1\AppData\Local\Temp\cc9CG50v.s 			page 53


 2642      00
 2643              	.LASF56:
 2644 0296 73657269 		.ascii	"serialMarket\000"
 2644      616C4D61 
 2644      726B6574 
 2644      00
 2645              	.LASF73:
 2646 02a3 746F7461 		.ascii	"totalsHandle\000"
 2646      6C734861 
 2646      6E646C65 
 2646      00
 2647              	.LASF34:
 2648 02b0 70726573 		.ascii	"presetValue\000"
 2648      65745661 
 2648      6C756500 
 2649              	.LASF47:
 2650 02bc 6964656E 		.ascii	"identySale\000"
 2650      74795361 
 2650      6C6500
 2651              	.LASF31:
 2652 02c7 73616C65 		.ascii	"saleType\000"
 2652      54797065 
 2652      00
 2653              	.LASF29:
 2654 02d0 76616C75 		.ascii	"valueKeys\000"
 2654      654B6579 
 2654      7300
 2655              	.LASF18:
 2656 02da 63686172 		.ascii	"char\000"
 2656      00
 2657              	.LASF123:
 2658 02df 436F6E76 		.ascii	"ConversionFactor\000"
 2658      65727369 
 2658      6F6E4661 
 2658      63746F72 
 2658      00
 2659              	.LASF98:
 2660 02f0 6E756D62 		.ascii	"numberKeys1\000"
 2660      65724B65 
 2660      79733100 
 2661              	.LASF99:
 2662 02fc 6E756D62 		.ascii	"numberKeys2\000"
 2662      65724B65 
 2662      79733200 
 2663              	.LASF92:
 2664 0308 636F756E 		.ascii	"countBeagleTX\000"
 2664      74426561 
 2664      676C6554 
 2664      5800
 2665              	.LASF12:
 2666 0316 75696E74 		.ascii	"uint16\000"
 2666      313600
 2667              	.LASF110:
 2668 031d 64617465 		.ascii	"date\000"
 2668      00
 2669              	.LASF86:
 2670 0322 6461746F 		.ascii	"dato\000"
ARM GAS  C:\Users\RECEPC~1\AppData\Local\Temp\cc9CG50v.s 			page 54


 2670      00
 2671              	.LASF85:
 2672 0327 73746174 		.ascii	"status\000"
 2672      757300
 2673              	.LASF49:
 2674 032e 666C6167 		.ascii	"flagPayment\000"
 2674      5061796D 
 2674      656E7400 
 2675              	.LASF17:
 2676 033a 63686172 		.ascii	"char8\000"
 2676      3800
 2677              	.LASF55:
 2678 0340 70707551 		.ascii	"ppuQuota\000"
 2678      756F7461 
 2678      00
 2679              	.LASF42:
 2680 0349 746F7461 		.ascii	"totalMoneyAfter\000"
 2680      6C4D6F6E 
 2680      65794166 
 2680      74657200 
 2681              	.LASF53:
 2682 0359 6D6F6E65 		.ascii	"moneyQuota\000"
 2682      7951756F 
 2682      746100
 2683              	.LASF65:
 2684 0364 7072696E 		.ascii	"printers\000"
 2684      74657273 
 2684      00
 2685              	.LASF88:
 2686 036d 6C656572 		.ascii	"leer_hora\000"
 2686      5F686F72 
 2686      6100
 2687              	.LASF75:
 2688 0377 6D6F6E65 		.ascii	"moneySale\000"
 2688      7953616C 
 2688      6500
 2689              	.LASF6:
 2690 0381 6C6F6E67 		.ascii	"long long int\000"
 2690      206C6F6E 
 2690      6720696E 
 2690      7400
 2691              	.LASF77:
 2692 038f 70707553 		.ascii	"ppuSale\000"
 2692      616C6500 
 2693              	.LASF90:
 2694 0397 636F756E 		.ascii	"countAnimation1\000"
 2694      74416E69 
 2694      6D617469 
 2694      6F6E3100 
 2695              	.LASF129:
 2696 03a7 4E756D50 		.ascii	"NumPositions\000"
 2696      6F736974 
 2696      696F6E73 
 2696      00
 2697              	.LASF118:
 2698 03b4 73746174 		.ascii	"stateBeagleSoft\000"
 2698      65426561 
ARM GAS  C:\Users\RECEPC~1\AppData\Local\Temp\cc9CG50v.s 			page 55


 2698      676C6553 
 2698      6F667400 
 2699              	.LASF41:
 2700 03c4 746F7461 		.ascii	"totalPPUPrevious\000"
 2700      6C505055 
 2700      50726576 
 2700      696F7573 
 2700      00
 2701              	.LASF91:
 2702 03d5 636F756E 		.ascii	"countAnimation2\000"
 2702      74416E69 
 2702      6D617469 
 2702      6F6E3200 
 2703              	.LASF62:
 2704 03e5 746F7461 		.ascii	"totalMarket\000"
 2704      6C4D6172 
 2704      6B657400 
 2705              	.LASF136:
 2706 03f1 74696D65 		.ascii	"timeDownHandle\000"
 2706      446F776E 
 2706      48616E64 
 2706      6C6500
 2707              	.LASF30:
 2708 0400 76656869 		.ascii	"vehicleType\000"
 2708      636C6554 
 2708      79706500 
 2709              	.LASF48:
 2710 040c 666C6167 		.ascii	"flagKeyboard\000"
 2710      4B657962 
 2710      6F617264 
 2710      00
 2711              	.LASF13:
 2712 0419 75696E74 		.ascii	"uint32\000"
 2712      333200
 2713              	.LASF117:
 2714 0420 666C6167 		.ascii	"flagResetMux\000"
 2714      52657365 
 2714      744D7578 
 2714      00
 2715              	.LASF153:
 2716 042d 4932435F 		.ascii	"I2C_Bus_MasterSendStart\000"
 2716      4275735F 
 2716      4D617374 
 2716      65725365 
 2716      6E645374 
 2717              	.LASF44:
 2718 0445 746F7461 		.ascii	"totalPPUAfter\000"
 2718      6C505055 
 2718      41667465 
 2718      7200
 2719              	.LASF27:
 2720 0453 6B657962 		.ascii	"keyboardWayToPay\000"
 2720      6F617264 
 2720      57617954 
 2720      6F506179 
 2720      00
 2721              	.LASF105:
ARM GAS  C:\Users\RECEPC~1\AppData\Local\Temp\cc9CG50v.s 			page 56


 2722 0464 70707578 		.ascii	"ppux10\000"
 2722      313000
 2723              	.LASF39:
 2724 046b 746F7461 		.ascii	"totalMoneyPrevious\000"
 2724      6C4D6F6E 
 2724      65795072 
 2724      6576696F 
 2724      757300
 2725              	.LASF100:
 2726 047e 666C6167 		.ascii	"flagPoint1\000"
 2726      506F696E 
 2726      743100
 2727              	.LASF25:
 2728 0489 6D6F6E65 		.ascii	"moneySelectedSale\000"
 2728      7953656C 
 2728      65637465 
 2728      6453616C 
 2728      6500
 2729              	.LASF108:
 2730 049b 73796D62 		.ascii	"symbols\000"
 2730      6F6C7300 
 2731              	.LASF135:
 2732 04a3 64617465 		.ascii	"dateDownHandle\000"
 2732      446F776E 
 2732      48616E64 
 2732      6C6500
 2733              	.LASF45:
 2734 04b2 6C696365 		.ascii	"licenceSale\000"
 2734      6E636553 
 2734      616C6500 
 2735              	.LASF64:
 2736 04be 70726963 		.ascii	"priceConsign\000"
 2736      65436F6E 
 2736      7369676E 
 2736      00
 2737              	.LASF2:
 2738 04cb 73686F72 		.ascii	"short int\000"
 2738      7420696E 
 2738      7400
 2739              	.LASF4:
 2740 04d5 6C6F6E67 		.ascii	"long int\000"
 2740      20696E74 
 2740      00
 2741              	.LASF134:
 2742 04de 566F6C55 		.ascii	"VolUnit\000"
 2742      6E697400 
 2743              	.LASF121:
 2744 04e6 49444361 		.ascii	"IDCast\000"
 2744      737400
 2745              	.LASF89:
 2746 04ed 49544D5F 		.ascii	"ITM_RxBuffer\000"
 2746      52784275 
 2746      66666572 
 2746      00
 2747              	.LASF132:
 2748 04fa 68696464 		.ascii	"hiddenKeys\000"
 2748      656E4B65 
ARM GAS  C:\Users\RECEPC~1\AppData\Local\Temp\cc9CG50v.s 			page 57


 2748      797300
 2749              	.LASF69:
 2750 0505 73686966 		.ascii	"shiftId\000"
 2750      74496400 
 2751              	.LASF115:
 2752 050d 74797065 		.ascii	"typeIdSeller\000"
 2752      49645365 
 2752      6C6C6572 
 2752      00
 2753              	.LASF51:
 2754 051a 666C6167 		.ascii	"flagEndSale\000"
 2754      456E6453 
 2754      616C6500 
 2755              	.LASF37:
 2756 0526 64617465 		.ascii	"dateLiftHandle\000"
 2756      4C696674 
 2756      48616E64 
 2756      6C6500
 2757              	.LASF81:
 2758 0535 686F7365 		.ascii	"hoseNumber\000"
 2758      4E756D62 
 2758      657200
 2759              	.LASF149:
 2760 0540 62756666 		.ascii	"bufferDisplay2\000"
 2760      65724469 
 2760      73706C61 
 2760      793200
 2761              	.LASF147:
 2762 054f 696E7449 		.ascii	"intIDStation\000"
 2762      44537461 
 2762      74696F6E 
 2762      00
 2763              	.LASF83:
 2764 055c 70756572 		.ascii	"puerto\000"
 2764      746F00
 2765              	.LASF116:
 2766 0563 70617373 		.ascii	"passwordSeller\000"
 2766      776F7264 
 2766      53656C6C 
 2766      657200
 2767              	.LASF43:
 2768 0572 746F7461 		.ascii	"totalVolumeAfter\000"
 2768      6C566F6C 
 2768      756D6541 
 2768      66746572 
 2768      00
 2769              	.LASF122:
 2770 0583 556E6974 		.ascii	"UnitType\000"
 2770      54797065 
 2770      00
 2771              	.LASF16:
 2772 058c 75696E74 		.ascii	"uint64\000"
 2772      363400
 2773              	.LASF103:
 2774 0593 64656C61 		.ascii	"delayPicture1\000"
 2774      79506963 
 2774      74757265 
ARM GAS  C:\Users\RECEPC~1\AppData\Local\Temp\cc9CG50v.s 			page 58


 2774      3100
 2775              	.LASF104:
 2776 05a1 64656C61 		.ascii	"delayPicture2\000"
 2776      79506963 
 2776      74757265 
 2776      3200
 2777              	.LASF36:
 2778 05af 73746174 		.ascii	"stateMux\000"
 2778      654D7578 
 2778      00
 2779              	.LASF19:
 2780 05b8 73697A65 		.ascii	"sizetype\000"
 2780      74797065 
 2780      00
 2781              	.LASF5:
 2782 05c1 6C6F6E67 		.ascii	"long unsigned int\000"
 2782      20756E73 
 2782      69676E65 
 2782      6420696E 
 2782      7400
 2783              	.LASF126:
 2784 05d3 50505544 		.ascii	"PPUDec\000"
 2784      656300
 2785              	.LASF79:
 2786 05da 61637469 		.ascii	"activeHose\000"
 2786      7665486F 
 2786      736500
 2787              	.LASF63:
 2788 05e5 666C6167 		.ascii	"flagProductmarket\000"
 2788      50726F64 
 2788      7563746D 
 2788      61726B65 
 2788      7400
 2789              	.LASF10:
 2790 05f7 696E7433 		.ascii	"int32_t\000"
 2790      325F7400 
 2791              	.LASF156:
 2792 05ff 4932435F 		.ascii	"I2C_Bus_MasterSendStop\000"
 2792      4275735F 
 2792      4D617374 
 2792      65725365 
 2792      6E645374 
 2793              	.LASF59:
 2794 0616 7175616E 		.ascii	"quantAvailableMark\000"
 2794      74417661 
 2794      696C6162 
 2794      6C654D61 
 2794      726B00
 2795              	.LASF155:
 2796 0629 4932435F 		.ascii	"I2C_Bus_MasterClearStatus\000"
 2796      4275735F 
 2796      4D617374 
 2796      6572436C 
 2796      65617253 
 2797              	.LASF23:
 2798 0643 666C6167 		.ascii	"flagWayToPayMixed\000"
 2798      57617954 
ARM GAS  C:\Users\RECEPC~1\AppData\Local\Temp\cc9CG50v.s 			page 59


 2798      6F506179 
 2798      4D697865 
 2798      6400
 2799              	.LASF1:
 2800 0655 756E7369 		.ascii	"unsigned char\000"
 2800      676E6564 
 2800      20636861 
 2800      7200
 2801              	.LASF159:
 2802 0663 474E5520 		.ascii	"GNU C 4.9.3 20150303 (release) [ARM/embedded-4_9-br"
 2802      4320342E 
 2802      392E3320 
 2802      32303135 
 2802      30333033 
 2803 0696 616E6368 		.ascii	"anch revision 221220] -mcpu=cortex-m3 -mthumb -g -O"
 2803      20726576 
 2803      6973696F 
 2803      6E203232 
 2803      31323230 
 2804 06c9 67202D66 		.ascii	"g -ffunction-sections -ffat-lto-objects\000"
 2804      66756E63 
 2804      74696F6E 
 2804      2D736563 
 2804      74696F6E 
 2805              	.LASF28:
 2806 06f1 61757468 		.ascii	"authorizationFlag\000"
 2806      6F72697A 
 2806      6174696F 
 2806      6E466C61 
 2806      6700
 2807              	.LASF60:
 2808 0703 70726963 		.ascii	"priceTotalMarket\000"
 2808      65546F74 
 2808      616C4D61 
 2808      726B6574 
 2808      00
 2809              	.LASF82:
 2810 0714 70756D70 		.ascii	"pump\000"
 2810      00
 2811              	.LASF161:
 2812 0719 433A5C55 		.ascii	"C:\\Users\\Recepcion\\Documents\\GitHub\\NSY-DH\\Wo"
 2812      73657273 
 2812      5C526563 
 2812      65706369 
 2812      6F6E5C44 
 2813 0746 726B7370 		.ascii	"rkspace01\\Design01.cydsn\000"
 2813      61636530 
 2813      315C4465 
 2813      7369676E 
 2813      30312E63 
 2814              	.LASF113:
 2815 075f 74656D70 		.ascii	"temporal\000"
 2815      6F72616C 
 2815      00
 2816              	.LASF125:
 2817 0768 566F6C44 		.ascii	"VolDec\000"
 2817      656300
ARM GAS  C:\Users\RECEPC~1\AppData\Local\Temp\cc9CG50v.s 			page 60


 2818              	.LASF33:
 2819 076f 70726573 		.ascii	"presetType\000"
 2819      65745479 
 2819      706500
 2820              	.LASF61:
 2821 077a 70726963 		.ascii	"priceUnitMarket\000"
 2821      65556E69 
 2821      744D6172 
 2821      6B657400 
 2822              	.LASF76:
 2823 078a 766F6C75 		.ascii	"volumeSale\000"
 2823      6D655361 
 2823      6C6500
 2824              	.LASF160:
 2825 0795 2E5C4932 		.ascii	".\\I2C.c\000"
 2825      432E6300 
 2826              	.LASF70:
 2827 079d 73686966 		.ascii	"shiftPassword\000"
 2827      74506173 
 2827      73776F72 
 2827      6400
 2828              	.LASF0:
 2829 07ab 7369676E 		.ascii	"signed char\000"
 2829      65642063 
 2829      68617200 
 2830              	.LASF84:
 2831 07b7 76616C6F 		.ascii	"valor\000"
 2831      7200
 2832              	.LASF137:
 2833 07bd 636F756E 		.ascii	"count_protector\000"
 2833      745F7072 
 2833      6F746563 
 2833      746F7200 
 2834              	.LASF3:
 2835 07cd 73686F72 		.ascii	"short unsigned int\000"
 2835      7420756E 
 2835      7369676E 
 2835      65642069 
 2835      6E7400
 2836              	.LASF93:
 2837 07e0 636F756E 		.ascii	"countPump\000"
 2837      7450756D 
 2837      7000
 2838              	.LASF78:
 2839 07ea 70726F64 		.ascii	"productSale\000"
 2839      75637453 
 2839      616C6500 
 2840              	.LASF11:
 2841 07f6 75696E74 		.ascii	"uint8\000"
 2841      3800
 2842              	.LASF15:
 2843 07fc 646F7562 		.ascii	"double\000"
 2843      6C6500
 2844              	.LASF22:
 2845 0803 77617954 		.ascii	"wayToPay\000"
 2845      6F506179 
 2845      00
ARM GAS  C:\Users\RECEPC~1\AppData\Local\Temp\cc9CG50v.s 			page 61


 2846              	.LASF38:
 2847 080c 74696D65 		.ascii	"timeLiftHandle\000"
 2847      4C696674 
 2847      48616E64 
 2847      6C6500
 2848              	.LASF74:
 2849 081b 70707541 		.ascii	"ppuAuthorized\000"
 2849      7574686F 
 2849      72697A65 
 2849      6400
 2850              	.LASF26:
 2851 0829 73657269 		.ascii	"serialSelectedSale\000"
 2851      616C5365 
 2851      6C656374 
 2851      65645361 
 2851      6C6500
 2852              	.LASF72:
 2853 083c 706F7369 		.ascii	"position\000"
 2853      74696F6E 
 2853      00
 2854              	.LASF87:
 2855 0845 6C656572 		.ascii	"leer_fecha\000"
 2855      5F666563 
 2855      686100
 2856              	.LASF142:
 2857 0850 70756D70 		.ascii	"pumpGap\000"
 2857      47617000 
 2858              	.LASF151:
 2859 0858 62756666 		.ascii	"bufferDisplay4\000"
 2859      65724469 
 2859      73706C61 
 2859      793400
 2860              		.ident	"GCC: (GNU Tools for ARM Embedded Processors) 4.9.3 20150303 (release) [ARM/embedded-4_9-br
