ARM GAS  C:\Users\Diego\AppData\Local\Temp\ccwc3itV.s 			page 1


   1              		.syntax unified
   2              		.cpu cortex-m3
   3              		.fpu softvfp
   4              		.eabi_attribute 20, 1
   5              		.eabi_attribute 21, 1
   6              		.eabi_attribute 23, 3
   7              		.eabi_attribute 24, 1
   8              		.eabi_attribute 25, 1
   9              		.eabi_attribute 26, 1
  10              		.eabi_attribute 30, 1
  11              		.eabi_attribute 34, 1
  12              		.eabi_attribute 18, 4
  13              		.thumb
  14              		.file	"keyboard.c"
  15              		.text
  16              	.Ltext0:
  17              		.cfi_sections	.debug_frame
  18              		.section	.text.alphanumeric_keyboard,"ax",%progbits
  19              		.align	2
  20              		.global	alphanumeric_keyboard
  21              		.thumb
  22              		.thumb_func
  23              		.type	alphanumeric_keyboard, %function
  24              	alphanumeric_keyboard:
  25              	.LFB63:
  26              		.file 1 ".\\keyboard.c"
   1:.\keyboard.c  **** /*
   2:.\keyboard.c  **** ***************************************************************************************************
   3:.\keyboard.c  **** *                                         MUX ADVANCE CODE
   4:.\keyboard.c  **** *
   5:.\keyboard.c  **** *                             (c) Copyright 2016; Sistemas Insepet LTDA
   6:.\keyboard.c  **** *
   7:.\keyboard.c  **** *               All rights reserved.  Protected by international copyright laws.
   8:.\keyboard.c  **** *               Knowledge of the source code may NOT be used to develop a similar product.
   9:.\keyboard.c  **** *               Please help us continue to provide the Embedded community with the finest
  10:.\keyboard.c  **** *               software available.  Your honesty is greatly appreciated.
  11:.\keyboard.c  **** ***************************************************************************************************
  12:.\keyboard.c  **** */
  13:.\keyboard.c  **** 
  14:.\keyboard.c  **** /*
  15:.\keyboard.c  **** ***************************************************************************************************
  16:.\keyboard.c  **** *
  17:.\keyboard.c  **** *                                            MUX ADVANCE CODE
  18:.\keyboard.c  **** *
  19:.\keyboard.c  **** *                                             CYPRESS PSoC5LP
  20:.\keyboard.c  **** *                                                with the
  21:.\keyboard.c  **** *                                            CY8C5969AXI-LP035
  22:.\keyboard.c  **** *
  23:.\keyboard.c  **** * Filename      : keyboard.c
  24:.\keyboard.c  **** * Version       : V1.00
  25:.\keyboard.c  **** * Programmer(s) : 
  26:.\keyboard.c  ****                   
  27:.\keyboard.c  **** ***************************************************************************************************
  28:.\keyboard.c  **** */
  29:.\keyboard.c  **** 
  30:.\keyboard.c  **** /*
  31:.\keyboard.c  **** ***************************************************************************************************
ARM GAS  C:\Users\Diego\AppData\Local\Temp\ccwc3itV.s 			page 2


  32:.\keyboard.c  **** *                                             INCLUDE FILES
  33:.\keyboard.c  **** ***************************************************************************************************
  34:.\keyboard.c  **** */
  35:.\keyboard.c  **** 
  36:.\keyboard.c  **** #include <device.h>
  37:.\keyboard.c  **** #include "variables.h"
  38:.\keyboard.c  **** #include <LCD.h>
  39:.\keyboard.c  **** #include "LCD.h"
  40:.\keyboard.c  **** 
  41:.\keyboard.c  **** /*
  42:.\keyboard.c  **** ***************************************************************************************************
  43:.\keyboard.c  **** *               uint8 alphanumeric_keyboard(uint8 lcd, uint8 maxNumberKeys, uint8 character)
  44:.\keyboard.c  **** *
  45:.\keyboard.c  **** * Description : 
  46:.\keyboard.c  **** *               
  47:.\keyboard.c  **** *
  48:.\keyboard.c  **** * Argument(s) : none
  49:.\keyboard.c  **** *
  50:.\keyboard.c  **** * Return(s)   : none
  51:.\keyboard.c  **** *
  52:.\keyboard.c  **** * Caller(s)   :  
  53:.\keyboard.c  **** *
  54:.\keyboard.c  **** * Note(s)     : none.
  55:.\keyboard.c  **** ***************************************************************************************************
  56:.\keyboard.c  **** */
  57:.\keyboard.c  **** 
  58:.\keyboard.c  **** uint8 alphanumeric_keyboard(uint8 lcd, uint8 maxNumberKeys, uint8 character){
  27              		.loc 1 58 0
  28              		.cfi_startproc
  29              		@ args = 0, pretend = 0, frame = 0
  30              		@ frame_needed = 0, uses_anonymous_args = 0
  31              	.LVL0:
  32 0000 70B5     		push	{r4, r5, r6, lr}
  33              		.cfi_def_cfa_offset 16
  34              		.cfi_offset 4, -16
  35              		.cfi_offset 5, -12
  36              		.cfi_offset 6, -8
  37              		.cfi_offset 14, -4
  38 0002 84B0     		sub	sp, sp, #16
  39              		.cfi_def_cfa_offset 32
  40 0004 0D46     		mov	r5, r1
  41 0006 1446     		mov	r4, r2
  59:.\keyboard.c  ****     char8 PressedKey;
  60:.\keyboard.c  ****     if(lcd==1){
  42              		.loc 1 60 0
  43 0008 0128     		cmp	r0, #1
  44 000a 40F00E81 		bne	.L2
  61:.\keyboard.c  ****         if(Display1_GetRxBufferSize()==8){
  45              		.loc 1 61 0
  46 000e FFF7FEFF 		bl	Display1_GetRxBufferSize
  47              	.LVL1:
  48 0012 0828     		cmp	r0, #8
  49 0014 40F02B82 		bne	.L26
  62:.\keyboard.c  ****             if((Display1_rxBuffer[0]==0xAA) && (Display1_rxBuffer[6]==0xC3) && (Display1_rxBuffer[7
  50              		.loc 1 62 0
  51 0018 A74B     		ldr	r3, .L29
  52 001a 1B78     		ldrb	r3, [r3]	@ zero_extendqisi2
ARM GAS  C:\Users\Diego\AppData\Local\Temp\ccwc3itV.s 			page 3


  53 001c DBB2     		uxtb	r3, r3
  54 001e AA2B     		cmp	r3, #170
  55 0020 40F0FC80 		bne	.L4
  56              		.loc 1 62 0 is_stmt 0 discriminator 1
  57 0024 A44B     		ldr	r3, .L29
  58 0026 9B79     		ldrb	r3, [r3, #6]	@ zero_extendqisi2
  59 0028 DBB2     		uxtb	r3, r3
  60 002a C32B     		cmp	r3, #195
  61 002c 40F0F680 		bne	.L4
  62              		.loc 1 62 0 discriminator 2
  63 0030 A14B     		ldr	r3, .L29
  64 0032 DB79     		ldrb	r3, [r3, #7]	@ zero_extendqisi2
  65 0034 DBB2     		uxtb	r3, r3
  66 0036 3C2B     		cmp	r3, #60
  67 0038 40F0F080 		bne	.L4
  63:.\keyboard.c  ****                 if(numberKeys1<=(maxNumberKeys-1)){
  68              		.loc 1 63 0 is_stmt 1
  69 003c 9F4B     		ldr	r3, .L29+4
  70 003e 1B78     		ldrb	r3, [r3]	@ zero_extendqisi2
  71 0040 DBB2     		uxtb	r3, r3
  72 0042 013D     		subs	r5, r5, #1
  73 0044 AB42     		cmp	r3, r5
  74 0046 00F39E80 		bgt	.L5
  64:.\keyboard.c  ****                     PressedKey =UnmapCode(Display1_rxBuffer[3]);
  75              		.loc 1 64 0
  76 004a 9B4B     		ldr	r3, .L29
  77 004c D878     		ldrb	r0, [r3, #3]	@ zero_extendqisi2
  78 004e FFF7FEFF 		bl	UnmapCode
  79              	.LVL2:
  80 0052 0646     		mov	r6, r0
  81              	.LVL3:
  65:.\keyboard.c  ****                     if(PressedKey>=0x20 && PressedKey<=0x2B){ //Comandos ascii sin incluir coma (,)
  82              		.loc 1 65 0
  83 0054 A0F12003 		sub	r3, r0, #32
  84 0058 DBB2     		uxtb	r3, r3
  85 005a 0B2B     		cmp	r3, #11
  86 005c 2AD8     		bhi	.L6
  66:.\keyboard.c  ****                         numberKeys1++;  
  87              		.loc 1 66 0
  88 005e 974A     		ldr	r2, .L29+4
  89 0060 1378     		ldrb	r3, [r2]	@ zero_extendqisi2
  90 0062 0133     		adds	r3, r3, #1
  91 0064 DBB2     		uxtb	r3, r3
  92 0066 1370     		strb	r3, [r2]
  67:.\keyboard.c  ****                         bufferDisplay1.valueKeys[numberKeys1]=PressedKey;                        
  93              		.loc 1 67 0
  94 0068 1378     		ldrb	r3, [r2]	@ zero_extendqisi2
  95 006a 954A     		ldr	r2, .L29+8
  96 006c 1344     		add	r3, r3, r2
  97 006e 83F84B00 		strb	r0, [r3, #75]
  68:.\keyboard.c  ****                         if(character==0){
  98              		.loc 1 68 0
  99 0072 8CB9     		cbnz	r4, .L7
  69:.\keyboard.c  ****                             WriteLCD(1,bufferDisplay1.valueKeys[numberKeys1],3,numberKeys1+2,1,0x00
 100              		.loc 1 69 0
 101 0074 914B     		ldr	r3, .L29+4
 102 0076 1A78     		ldrb	r2, [r3]	@ zero_extendqisi2
ARM GAS  C:\Users\Diego\AppData\Local\Temp\ccwc3itV.s 			page 4


 103 0078 1B78     		ldrb	r3, [r3]	@ zero_extendqisi2
 104 007a 9149     		ldr	r1, .L29+8
 105 007c 0A44     		add	r2, r2, r1
 106 007e 92F84B10 		ldrb	r1, [r2, #75]	@ zero_extendqisi2
 107 0082 0120     		movs	r0, #1
 108              	.LVL4:
 109 0084 0090     		str	r0, [sp]
 110 0086 0022     		movs	r2, #0
 111 0088 0192     		str	r2, [sp, #4]
 112 008a 4E22     		movs	r2, #78
 113 008c 0292     		str	r2, [sp, #8]
 114 008e 0322     		movs	r2, #3
 115 0090 0233     		adds	r3, r3, #2
 116 0092 FFF7FEFF 		bl	WriteLCD
 117              	.LVL5:
 118 0096 76E0     		b	.L5
 119              	.LVL6:
 120              	.L7:
  70:.\keyboard.c  ****                         }else{
  71:.\keyboard.c  ****                             WriteLCD(1,character,3,numberKeys1+2,1,0x0000,'N');
 121              		.loc 1 71 0
 122 0098 884B     		ldr	r3, .L29+4
 123 009a 1B78     		ldrb	r3, [r3]	@ zero_extendqisi2
 124 009c 0120     		movs	r0, #1
 125              	.LVL7:
 126 009e 0090     		str	r0, [sp]
 127 00a0 0022     		movs	r2, #0
 128 00a2 0192     		str	r2, [sp, #4]
 129 00a4 4E22     		movs	r2, #78
 130 00a6 0292     		str	r2, [sp, #8]
 131 00a8 2146     		mov	r1, r4
 132 00aa 0322     		movs	r2, #3
 133 00ac 0233     		adds	r3, r3, #2
 134 00ae FFF7FEFF 		bl	WriteLCD
 135              	.LVL8:
 136 00b2 68E0     		b	.L5
 137              	.LVL9:
 138              	.L6:
  72:.\keyboard.c  ****                         }
  73:.\keyboard.c  ****                     }else if(PressedKey>=0x2D && PressedKey<=0x7E){ //Comandos ascii sin incluir co
 139              		.loc 1 73 0
 140 00b4 A0F12D03 		sub	r3, r0, #45
 141 00b8 DBB2     		uxtb	r3, r3
 142 00ba 512B     		cmp	r3, #81
 143 00bc 2AD8     		bhi	.L8
  74:.\keyboard.c  ****                         numberKeys1++;  
 144              		.loc 1 74 0
 145 00be 7F4A     		ldr	r2, .L29+4
 146 00c0 1378     		ldrb	r3, [r2]	@ zero_extendqisi2
 147 00c2 0133     		adds	r3, r3, #1
 148 00c4 DBB2     		uxtb	r3, r3
 149 00c6 1370     		strb	r3, [r2]
  75:.\keyboard.c  ****                         bufferDisplay1.valueKeys[numberKeys1]=PressedKey;
 150              		.loc 1 75 0
 151 00c8 1378     		ldrb	r3, [r2]	@ zero_extendqisi2
 152 00ca 7D4A     		ldr	r2, .L29+8
 153 00cc 1344     		add	r3, r3, r2
ARM GAS  C:\Users\Diego\AppData\Local\Temp\ccwc3itV.s 			page 5


 154 00ce 83F84B00 		strb	r0, [r3, #75]
  76:.\keyboard.c  ****                         if(character==0){
 155              		.loc 1 76 0
 156 00d2 8CB9     		cbnz	r4, .L9
  77:.\keyboard.c  ****                             WriteLCD(1,bufferDisplay1.valueKeys[numberKeys1],3,numberKeys1+2,1,0x00
 157              		.loc 1 77 0
 158 00d4 794B     		ldr	r3, .L29+4
 159 00d6 1A78     		ldrb	r2, [r3]	@ zero_extendqisi2
 160 00d8 1B78     		ldrb	r3, [r3]	@ zero_extendqisi2
 161 00da 7949     		ldr	r1, .L29+8
 162 00dc 0A44     		add	r2, r2, r1
 163 00de 92F84B10 		ldrb	r1, [r2, #75]	@ zero_extendqisi2
 164 00e2 0120     		movs	r0, #1
 165              	.LVL10:
 166 00e4 0090     		str	r0, [sp]
 167 00e6 0022     		movs	r2, #0
 168 00e8 0192     		str	r2, [sp, #4]
 169 00ea 4E22     		movs	r2, #78
 170 00ec 0292     		str	r2, [sp, #8]
 171 00ee 0322     		movs	r2, #3
 172 00f0 0233     		adds	r3, r3, #2
 173 00f2 FFF7FEFF 		bl	WriteLCD
 174              	.LVL11:
 175 00f6 46E0     		b	.L5
 176              	.LVL12:
 177              	.L9:
  78:.\keyboard.c  ****                         }else{
  79:.\keyboard.c  ****                             WriteLCD(1,character,3,numberKeys1+2,1,0x0000,'N');
 178              		.loc 1 79 0
 179 00f8 704B     		ldr	r3, .L29+4
 180 00fa 1B78     		ldrb	r3, [r3]	@ zero_extendqisi2
 181 00fc 0120     		movs	r0, #1
 182              	.LVL13:
 183 00fe 0090     		str	r0, [sp]
 184 0100 0022     		movs	r2, #0
 185 0102 0192     		str	r2, [sp, #4]
 186 0104 4E22     		movs	r2, #78
 187 0106 0292     		str	r2, [sp, #8]
 188 0108 2146     		mov	r1, r4
 189 010a 0322     		movs	r2, #3
 190 010c 0233     		adds	r3, r3, #2
 191 010e FFF7FEFF 		bl	WriteLCD
 192              	.LVL14:
 193 0112 38E0     		b	.L5
 194              	.LVL15:
 195              	.L8:
  80:.\keyboard.c  ****                         }
  81:.\keyboard.c  ****                     }else if(PressedKey==',' && numberKeys1>=1 && flagPoint1==0){  //Coma (,)
 196              		.loc 1 81 0
 197 0114 2C28     		cmp	r0, #44
 198 0116 36D1     		bne	.L5
 199              		.loc 1 81 0 is_stmt 0 discriminator 1
 200 0118 684B     		ldr	r3, .L29+4
 201 011a 1B78     		ldrb	r3, [r3]	@ zero_extendqisi2
 202 011c 13F0FF0F 		tst	r3, #255
 203 0120 31D0     		beq	.L5
 204              		.loc 1 81 0 discriminator 2
ARM GAS  C:\Users\Diego\AppData\Local\Temp\ccwc3itV.s 			page 6


 205 0122 684B     		ldr	r3, .L29+12
 206 0124 1B78     		ldrb	r3, [r3]	@ zero_extendqisi2
 207 0126 13F0FF0F 		tst	r3, #255
 208 012a 2CD1     		bne	.L5
  82:.\keyboard.c  ****                         numberKeys1++;  
 209              		.loc 1 82 0 is_stmt 1
 210 012c 634A     		ldr	r2, .L29+4
 211 012e 1378     		ldrb	r3, [r2]	@ zero_extendqisi2
 212 0130 0133     		adds	r3, r3, #1
 213 0132 DBB2     		uxtb	r3, r3
 214 0134 1370     		strb	r3, [r2]
  83:.\keyboard.c  ****                         flagPoint1=1;
 215              		.loc 1 83 0
 216 0136 0121     		movs	r1, #1
 217 0138 624B     		ldr	r3, .L29+12
 218 013a 1970     		strb	r1, [r3]
  84:.\keyboard.c  ****                         bufferDisplay1.valueKeys[numberKeys1]=PressedKey;
 219              		.loc 1 84 0
 220 013c 1378     		ldrb	r3, [r2]	@ zero_extendqisi2
 221 013e 604A     		ldr	r2, .L29+8
 222 0140 1344     		add	r3, r3, r2
 223 0142 83F84B00 		strb	r0, [r3, #75]
  85:.\keyboard.c  ****                         if(character==0){
 224              		.loc 1 85 0
 225 0146 8CB9     		cbnz	r4, .L10
  86:.\keyboard.c  ****                             WriteLCD(1,bufferDisplay1.valueKeys[numberKeys1],3,numberKeys1+2,1,0x00
 226              		.loc 1 86 0
 227 0148 5C4B     		ldr	r3, .L29+4
 228 014a 1A78     		ldrb	r2, [r3]	@ zero_extendqisi2
 229 014c 1B78     		ldrb	r3, [r3]	@ zero_extendqisi2
 230 014e 5C49     		ldr	r1, .L29+8
 231 0150 0A44     		add	r2, r2, r1
 232 0152 92F84B10 		ldrb	r1, [r2, #75]	@ zero_extendqisi2
 233 0156 0120     		movs	r0, #1
 234              	.LVL16:
 235 0158 0090     		str	r0, [sp]
 236 015a 0022     		movs	r2, #0
 237 015c 0192     		str	r2, [sp, #4]
 238 015e 4E22     		movs	r2, #78
 239 0160 0292     		str	r2, [sp, #8]
 240 0162 0322     		movs	r2, #3
 241 0164 0233     		adds	r3, r3, #2
 242 0166 FFF7FEFF 		bl	WriteLCD
 243              	.LVL17:
 244 016a 0CE0     		b	.L5
 245              	.LVL18:
 246              	.L10:
  87:.\keyboard.c  ****                         }else{
  88:.\keyboard.c  ****                             WriteLCD(1,character,3,numberKeys1+2,1,0x0000,'N');
 247              		.loc 1 88 0
 248 016c 534B     		ldr	r3, .L29+4
 249 016e 1B78     		ldrb	r3, [r3]	@ zero_extendqisi2
 250 0170 0120     		movs	r0, #1
 251              	.LVL19:
 252 0172 0090     		str	r0, [sp]
 253 0174 0022     		movs	r2, #0
 254 0176 0192     		str	r2, [sp, #4]
ARM GAS  C:\Users\Diego\AppData\Local\Temp\ccwc3itV.s 			page 7


 255 0178 4E22     		movs	r2, #78
 256 017a 0292     		str	r2, [sp, #8]
 257 017c 2146     		mov	r1, r4
 258 017e 0322     		movs	r2, #3
 259 0180 0233     		adds	r3, r3, #2
 260 0182 FFF7FEFF 		bl	WriteLCD
 261              	.LVL20:
 262              	.L5:
  89:.\keyboard.c  ****                         }
  90:.\keyboard.c  ****                     }
  91:.\keyboard.c  ****                 }  
  92:.\keyboard.c  ****                 if(Display1_rxBuffer[3]==0x0B){ //Borrar
 263              		.loc 1 92 0
 264 0186 4C4B     		ldr	r3, .L29
 265 0188 DB78     		ldrb	r3, [r3, #3]	@ zero_extendqisi2
 266 018a DBB2     		uxtb	r3, r3
 267 018c 0B2B     		cmp	r3, #11
 268 018e 26D1     		bne	.L11
  93:.\keyboard.c  ****                     if(numberKeys1==0){		//Si no ha presionado nada regresa al menu anterior
 269              		.loc 1 93 0
 270 0190 4A4B     		ldr	r3, .L29+4
 271 0192 1B78     		ldrb	r3, [r3]	@ zero_extendqisi2
 272 0194 03F0FF04 		and	r4, r3, #255
 273 0198 2BB9     		cbnz	r3, .L12
  94:.\keyboard.c  ****                         CyDelay(20);         
 274              		.loc 1 94 0
 275 019a 1420     		movs	r0, #20
 276 019c FFF7FEFF 		bl	CyDelay
 277              	.LVL21:
  95:.\keyboard.c  ****                         Display1_ClearRxBuffer();
 278              		.loc 1 95 0
 279 01a0 FFF7FEFF 		bl	Display1_ClearRxBuffer
 280              	.LVL22:
  96:.\keyboard.c  ****                         return 0;
 281              		.loc 1 96 0
 282 01a4 66E1     		b	.L3
 283              	.L12:
  97:.\keyboard.c  ****                     }
  98:.\keyboard.c  ****                     else{
  99:.\keyboard.c  ****                         WriteLCD(1,' ',3,numberKeys1+2,1,0x0000,'N');	//Si ya presiono borra el dat
 284              		.loc 1 99 0
 285 01a6 454C     		ldr	r4, .L29+4
 286 01a8 2378     		ldrb	r3, [r4]	@ zero_extendqisi2
 287 01aa 0120     		movs	r0, #1
 288 01ac 0090     		str	r0, [sp]
 289 01ae 0022     		movs	r2, #0
 290 01b0 0192     		str	r2, [sp, #4]
 291 01b2 4E22     		movs	r2, #78
 292 01b4 0292     		str	r2, [sp, #8]
 293 01b6 2021     		movs	r1, #32
 294 01b8 0322     		movs	r2, #3
 295 01ba 0233     		adds	r3, r3, #2
 296 01bc FFF7FEFF 		bl	WriteLCD
 297              	.LVL23:
 100:.\keyboard.c  ****                         if(bufferDisplay1.valueKeys[numberKeys1]==0x2C){
 298              		.loc 1 100 0
 299 01c0 2378     		ldrb	r3, [r4]	@ zero_extendqisi2
ARM GAS  C:\Users\Diego\AppData\Local\Temp\ccwc3itV.s 			page 8


 300 01c2 3F4A     		ldr	r2, .L29+8
 301 01c4 1344     		add	r3, r3, r2
 302 01c6 93F84B30 		ldrb	r3, [r3, #75]	@ zero_extendqisi2
 303 01ca 2C2B     		cmp	r3, #44
 304 01cc 02D1     		bne	.L13
 101:.\keyboard.c  ****                             flagPoint1=0;
 305              		.loc 1 101 0
 306 01ce 0022     		movs	r2, #0
 307 01d0 3C4B     		ldr	r3, .L29+12
 308 01d2 1A70     		strb	r2, [r3]
 309              	.L13:
 102:.\keyboard.c  ****                         }
 103:.\keyboard.c  ****                         numberKeys1--;
 310              		.loc 1 103 0
 311 01d4 394A     		ldr	r2, .L29+4
 312 01d6 1378     		ldrb	r3, [r2]	@ zero_extendqisi2
 313 01d8 013B     		subs	r3, r3, #1
 314 01da DBB2     		uxtb	r3, r3
 315 01dc 1370     		strb	r3, [r2]
 316              	.L11:
 104:.\keyboard.c  ****                     }
 105:.\keyboard.c  ****                 }
 106:.\keyboard.c  ****                 if(PressedKey==0x0A){ //Enter
 317              		.loc 1 106 0
 318 01de 0A2E     		cmp	r6, #10
 319 01e0 10D1     		bne	.L14
 107:.\keyboard.c  ****                     if(numberKeys1>0){
 320              		.loc 1 107 0
 321 01e2 364B     		ldr	r3, .L29+4
 322 01e4 1B78     		ldrb	r3, [r3]	@ zero_extendqisi2
 323 01e6 13F0FF0F 		tst	r3, #255
 324 01ea 0BD0     		beq	.L14
 108:.\keyboard.c  ****                         bufferDisplay1.valueKeys[0]=numberKeys1;
 325              		.loc 1 108 0
 326 01ec 334B     		ldr	r3, .L29+4
 327 01ee 1A78     		ldrb	r2, [r3]	@ zero_extendqisi2
 328 01f0 334B     		ldr	r3, .L29+8
 329 01f2 83F84B20 		strb	r2, [r3, #75]
 109:.\keyboard.c  ****                         CyDelay(20);         
 330              		.loc 1 109 0
 331 01f6 1420     		movs	r0, #20
 332 01f8 FFF7FEFF 		bl	CyDelay
 333              	.LVL24:
 110:.\keyboard.c  ****                         Display1_ClearRxBuffer();
 334              		.loc 1 110 0
 335 01fc FFF7FEFF 		bl	Display1_ClearRxBuffer
 336              	.LVL25:
 111:.\keyboard.c  ****                         return 1;
 337              		.loc 1 111 0
 338 0200 0124     		movs	r4, #1
 339 0202 37E1     		b	.L3
 340              	.L14:
 112:.\keyboard.c  ****                     }
 113:.\keyboard.c  ****                 }
 114:.\keyboard.c  ****                 if(Display1_rxBuffer[3]==0x94){ //Atras
 341              		.loc 1 114 0
 342 0204 2C4B     		ldr	r3, .L29
ARM GAS  C:\Users\Diego\AppData\Local\Temp\ccwc3itV.s 			page 9


 343 0206 DB78     		ldrb	r3, [r3, #3]	@ zero_extendqisi2
 344 0208 DBB2     		uxtb	r3, r3
 345 020a 942B     		cmp	r3, #148
 346 020c 06D1     		bne	.L4
 115:.\keyboard.c  ****                     CyDelay(20);         
 347              		.loc 1 115 0
 348 020e 1420     		movs	r0, #20
 349 0210 FFF7FEFF 		bl	CyDelay
 350              	.LVL26:
 116:.\keyboard.c  ****                     Display1_ClearRxBuffer();
 351              		.loc 1 116 0
 352 0214 FFF7FEFF 		bl	Display1_ClearRxBuffer
 353              	.LVL27:
 117:.\keyboard.c  ****                     return 0;
 354              		.loc 1 117 0
 355 0218 0024     		movs	r4, #0
 356 021a 2BE1     		b	.L3
 357              	.LVL28:
 358              	.L4:
 118:.\keyboard.c  ****                 }
 119:.\keyboard.c  ****             } 
 120:.\keyboard.c  ****             CyDelay(20);         
 359              		.loc 1 120 0
 360 021c 1420     		movs	r0, #20
 361 021e FFF7FEFF 		bl	CyDelay
 362              	.LVL29:
 121:.\keyboard.c  ****             Display1_ClearRxBuffer();
 363              		.loc 1 121 0
 364 0222 FFF7FEFF 		bl	Display1_ClearRxBuffer
 365              	.LVL30:
 122:.\keyboard.c  ****         }
 123:.\keyboard.c  ****     }else{
 124:.\keyboard.c  ****         if(Display2_GetRxBufferSize()==8){
 125:.\keyboard.c  ****             if((Display2_rxBuffer[0]==0xAA) && (Display2_rxBuffer[6]==0xC3) && (Display2_rxBuffer[7
 126:.\keyboard.c  ****                 if(numberKeys2<=(maxNumberKeys-1)){
 127:.\keyboard.c  ****                     PressedKey =UnmapCode(Display2_rxBuffer[3]);
 128:.\keyboard.c  ****                     if(PressedKey>=0x20 && PressedKey<=0x2B){ //Comandos ascii sin incluir coma (,)
 129:.\keyboard.c  ****                         numberKeys2++;  
 130:.\keyboard.c  ****                         bufferDisplay2.valueKeys[numberKeys2]=PressedKey;
 131:.\keyboard.c  ****                         if(character==0){
 132:.\keyboard.c  ****                             WriteLCD(2,bufferDisplay2.valueKeys[numberKeys2],3,numberKeys2+2,1,0x00
 133:.\keyboard.c  ****                         }else{
 134:.\keyboard.c  ****                             WriteLCD(2,character,2,numberKeys2+2,1,0x0000,'N');
 135:.\keyboard.c  ****                         }
 136:.\keyboard.c  ****                     }else if(PressedKey>=0x2D && PressedKey<=0x7E){ //Comandos ascii sin incluir co
 137:.\keyboard.c  ****                         numberKeys2++;  
 138:.\keyboard.c  ****                         bufferDisplay2.valueKeys[numberKeys2]=PressedKey;
 139:.\keyboard.c  ****                         if(character==0){
 140:.\keyboard.c  ****                             WriteLCD(2,bufferDisplay2.valueKeys[numberKeys2],3,numberKeys2+2,1,0x00
 141:.\keyboard.c  ****                         }else{
 142:.\keyboard.c  ****                             WriteLCD(2,character,2,numberKeys2+2,1,0x0000,'N');
 143:.\keyboard.c  ****                         }
 144:.\keyboard.c  ****                     }else if(PressedKey==',' && numberKeys2>=1 && flagPoint2==0){  //Coma (,)
 145:.\keyboard.c  ****                         numberKeys2++;  
 146:.\keyboard.c  ****                         flagPoint2=1;
 147:.\keyboard.c  ****                         bufferDisplay2.valueKeys[numberKeys2]=Display2_rxBuffer[3];
 148:.\keyboard.c  ****                         if(character==0){
ARM GAS  C:\Users\Diego\AppData\Local\Temp\ccwc3itV.s 			page 10


 149:.\keyboard.c  ****                             WriteLCD(2,bufferDisplay2.valueKeys[numberKeys2],3,numberKeys2+2,1,0x00
 150:.\keyboard.c  ****                         }else{
 151:.\keyboard.c  ****                             WriteLCD(2,character,2,numberKeys2+2,1,0x0000,'N');
 152:.\keyboard.c  ****                         }
 153:.\keyboard.c  ****                     }
 154:.\keyboard.c  ****                 }
 155:.\keyboard.c  ****                 if(PressedKey==0x0B){ //Borrar
 156:.\keyboard.c  ****                     if(numberKeys2==0){		//Si no ha presionado nada regresa al menu anterior
 157:.\keyboard.c  ****                         CyDelay(20);         
 158:.\keyboard.c  ****                         Display2_ClearRxBuffer();
 159:.\keyboard.c  ****                         return 0;
 160:.\keyboard.c  ****                     }
 161:.\keyboard.c  ****                     else{
 162:.\keyboard.c  ****                         WriteLCD(2,' ',2,numberKeys2+2,1,0x0000,'N');	//Si ya presiono borra el dat
 163:.\keyboard.c  ****                         if(bufferDisplay2.valueKeys[numberKeys2]==0x2C){
 164:.\keyboard.c  ****                             flagPoint2=0;
 165:.\keyboard.c  ****                         }
 166:.\keyboard.c  ****                         numberKeys2--;
 167:.\keyboard.c  ****                     }
 168:.\keyboard.c  ****                 }
 169:.\keyboard.c  ****                 if(PressedKey==0x0A){ //Enter
 170:.\keyboard.c  ****                     if(numberKeys2>0){
 171:.\keyboard.c  ****                         bufferDisplay2.valueKeys[0]=numberKeys2;
 172:.\keyboard.c  ****                         CyDelay(20);         
 173:.\keyboard.c  ****                         Display2_ClearRxBuffer();
 174:.\keyboard.c  ****                         return 1;
 175:.\keyboard.c  ****                     }
 176:.\keyboard.c  ****                 }
 177:.\keyboard.c  ****                 if(Display2_rxBuffer[3]==0x94){ //Atras
 178:.\keyboard.c  ****                     CyDelay(20);         
 179:.\keyboard.c  ****                     Display2_ClearRxBuffer();
 180:.\keyboard.c  ****                     return 0;
 181:.\keyboard.c  ****                 }
 182:.\keyboard.c  ****             } 
 183:.\keyboard.c  ****             CyDelay(20);         
 184:.\keyboard.c  ****             Display2_ClearRxBuffer();
 185:.\keyboard.c  ****         }
 186:.\keyboard.c  ****     }
 187:.\keyboard.c  ****     return 2;
 366              		.loc 1 187 0
 367 0226 0224     		movs	r4, #2
 368 0228 24E1     		b	.L3
 369              	.LVL31:
 370              	.L2:
 124:.\keyboard.c  ****             if((Display2_rxBuffer[0]==0xAA) && (Display2_rxBuffer[6]==0xC3) && (Display2_rxBuffer[7
 371              		.loc 1 124 0
 372 022a FFF7FEFF 		bl	Display2_GetRxBufferSize
 373              	.LVL32:
 374 022e 0828     		cmp	r0, #8
 375 0230 40F01F81 		bne	.L27
 125:.\keyboard.c  ****                 if(numberKeys2<=(maxNumberKeys-1)){
 376              		.loc 1 125 0
 377 0234 244B     		ldr	r3, .L29+16
 378 0236 1B78     		ldrb	r3, [r3]	@ zero_extendqisi2
 379 0238 DBB2     		uxtb	r3, r3
 380 023a AA2B     		cmp	r3, #170
 381 023c 40F01081 		bne	.L15
ARM GAS  C:\Users\Diego\AppData\Local\Temp\ccwc3itV.s 			page 11


 125:.\keyboard.c  ****                 if(numberKeys2<=(maxNumberKeys-1)){
 382              		.loc 1 125 0 is_stmt 0 discriminator 1
 383 0240 214B     		ldr	r3, .L29+16
 384 0242 9B79     		ldrb	r3, [r3, #6]	@ zero_extendqisi2
 385 0244 DBB2     		uxtb	r3, r3
 386 0246 C32B     		cmp	r3, #195
 387 0248 40F00A81 		bne	.L15
 125:.\keyboard.c  ****                 if(numberKeys2<=(maxNumberKeys-1)){
 388              		.loc 1 125 0 discriminator 2
 389 024c 1E4B     		ldr	r3, .L29+16
 390 024e DB79     		ldrb	r3, [r3, #7]	@ zero_extendqisi2
 391 0250 DBB2     		uxtb	r3, r3
 392 0252 3C2B     		cmp	r3, #60
 393 0254 40F00481 		bne	.L15
 126:.\keyboard.c  ****                     PressedKey =UnmapCode(Display2_rxBuffer[3]);
 394              		.loc 1 126 0 is_stmt 1
 395 0258 1C4B     		ldr	r3, .L29+20
 396 025a 1B78     		ldrb	r3, [r3]	@ zero_extendqisi2
 397 025c DBB2     		uxtb	r3, r3
 398 025e 013D     		subs	r5, r5, #1
 399 0260 AB42     		cmp	r3, r5
 400 0262 00F3B480 		bgt	.L16
 127:.\keyboard.c  ****                     if(PressedKey>=0x20 && PressedKey<=0x2B){ //Comandos ascii sin incluir coma (,)
 401              		.loc 1 127 0
 402 0266 184B     		ldr	r3, .L29+16
 403 0268 D878     		ldrb	r0, [r3, #3]	@ zero_extendqisi2
 404 026a FFF7FEFF 		bl	UnmapCode
 405              	.LVL33:
 406 026e 0646     		mov	r6, r0
 407              	.LVL34:
 128:.\keyboard.c  ****                         numberKeys2++;  
 408              		.loc 1 128 0
 409 0270 A0F12003 		sub	r3, r0, #32
 410 0274 DBB2     		uxtb	r3, r3
 411 0276 0B2B     		cmp	r3, #11
 412 0278 3BD8     		bhi	.L17
 129:.\keyboard.c  ****                         bufferDisplay2.valueKeys[numberKeys2]=PressedKey;
 413              		.loc 1 129 0
 414 027a 144A     		ldr	r2, .L29+20
 415 027c 1378     		ldrb	r3, [r2]	@ zero_extendqisi2
 416 027e 0133     		adds	r3, r3, #1
 417 0280 DBB2     		uxtb	r3, r3
 418 0282 1370     		strb	r3, [r2]
 130:.\keyboard.c  ****                         if(character==0){
 419              		.loc 1 130 0
 420 0284 1378     		ldrb	r3, [r2]	@ zero_extendqisi2
 421 0286 124A     		ldr	r2, .L29+24
 422 0288 1344     		add	r3, r3, r2
 423 028a 83F84B00 		strb	r0, [r3, #75]
 131:.\keyboard.c  ****                             WriteLCD(2,bufferDisplay2.valueKeys[numberKeys2],3,numberKeys2+2,1,0x00
 424              		.loc 1 131 0
 425 028e 0CBB     		cbnz	r4, .L18
 132:.\keyboard.c  ****                         }else{
 426              		.loc 1 132 0
 427 0290 0E4B     		ldr	r3, .L29+20
 428 0292 1A78     		ldrb	r2, [r3]	@ zero_extendqisi2
 429 0294 1B78     		ldrb	r3, [r3]	@ zero_extendqisi2
ARM GAS  C:\Users\Diego\AppData\Local\Temp\ccwc3itV.s 			page 12


 430 0296 0E49     		ldr	r1, .L29+24
 431 0298 0A44     		add	r2, r2, r1
 432 029a 92F84B10 		ldrb	r1, [r2, #75]	@ zero_extendqisi2
 433 029e 0122     		movs	r2, #1
 434 02a0 0092     		str	r2, [sp]
 435 02a2 0022     		movs	r2, #0
 436 02a4 0192     		str	r2, [sp, #4]
 437 02a6 4E22     		movs	r2, #78
 438 02a8 0292     		str	r2, [sp, #8]
 439 02aa 0220     		movs	r0, #2
 440              	.LVL35:
 441 02ac 0322     		movs	r2, #3
 442 02ae 0344     		add	r3, r3, r0
 443 02b0 FFF7FEFF 		bl	WriteLCD
 444              	.LVL36:
 445 02b4 8BE0     		b	.L16
 446              	.L30:
 447 02b6 00BF     		.align	2
 448              	.L29:
 449 02b8 00000000 		.word	Display1_rxBuffer
 450 02bc 00000000 		.word	numberKeys1
 451 02c0 00000000 		.word	bufferDisplay1
 452 02c4 00000000 		.word	flagPoint1
 453 02c8 00000000 		.word	Display2_rxBuffer
 454 02cc 00000000 		.word	numberKeys2
 455 02d0 00000000 		.word	bufferDisplay2
 456              	.LVL37:
 457              	.L18:
 134:.\keyboard.c  ****                         }
 458              		.loc 1 134 0
 459 02d4 694B     		ldr	r3, .L31
 460 02d6 1B78     		ldrb	r3, [r3]	@ zero_extendqisi2
 461 02d8 0122     		movs	r2, #1
 462 02da 0092     		str	r2, [sp]
 463 02dc 0022     		movs	r2, #0
 464 02de 0192     		str	r2, [sp, #4]
 465 02e0 4E22     		movs	r2, #78
 466 02e2 0292     		str	r2, [sp, #8]
 467 02e4 0220     		movs	r0, #2
 468              	.LVL38:
 469 02e6 2146     		mov	r1, r4
 470 02e8 0246     		mov	r2, r0
 471 02ea 0344     		add	r3, r3, r0
 472 02ec FFF7FEFF 		bl	WriteLCD
 473              	.LVL39:
 474 02f0 6DE0     		b	.L16
 475              	.LVL40:
 476              	.L17:
 136:.\keyboard.c  ****                         numberKeys2++;  
 477              		.loc 1 136 0
 478 02f2 A0F12D03 		sub	r3, r0, #45
 479 02f6 DBB2     		uxtb	r3, r3
 480 02f8 512B     		cmp	r3, #81
 481 02fa 2CD8     		bhi	.L19
 137:.\keyboard.c  ****                         bufferDisplay2.valueKeys[numberKeys2]=PressedKey;
 482              		.loc 1 137 0
 483 02fc 5F4A     		ldr	r2, .L31
ARM GAS  C:\Users\Diego\AppData\Local\Temp\ccwc3itV.s 			page 13


 484 02fe 1378     		ldrb	r3, [r2]	@ zero_extendqisi2
 485 0300 0133     		adds	r3, r3, #1
 486 0302 DBB2     		uxtb	r3, r3
 487 0304 1370     		strb	r3, [r2]
 138:.\keyboard.c  ****                         if(character==0){
 488              		.loc 1 138 0
 489 0306 1378     		ldrb	r3, [r2]	@ zero_extendqisi2
 490 0308 5D4A     		ldr	r2, .L31+4
 491 030a 1344     		add	r3, r3, r2
 492 030c 83F84B00 		strb	r0, [r3, #75]
 139:.\keyboard.c  ****                             WriteLCD(2,bufferDisplay2.valueKeys[numberKeys2],3,numberKeys2+2,1,0x00
 493              		.loc 1 139 0
 494 0310 94B9     		cbnz	r4, .L20
 140:.\keyboard.c  ****                         }else{
 495              		.loc 1 140 0
 496 0312 5A4B     		ldr	r3, .L31
 497 0314 1A78     		ldrb	r2, [r3]	@ zero_extendqisi2
 498 0316 1B78     		ldrb	r3, [r3]	@ zero_extendqisi2
 499 0318 5949     		ldr	r1, .L31+4
 500 031a 0A44     		add	r2, r2, r1
 501 031c 92F84B10 		ldrb	r1, [r2, #75]	@ zero_extendqisi2
 502 0320 0122     		movs	r2, #1
 503 0322 0092     		str	r2, [sp]
 504 0324 0022     		movs	r2, #0
 505 0326 0192     		str	r2, [sp, #4]
 506 0328 4E22     		movs	r2, #78
 507 032a 0292     		str	r2, [sp, #8]
 508 032c 0220     		movs	r0, #2
 509              	.LVL41:
 510 032e 0322     		movs	r2, #3
 511 0330 0344     		add	r3, r3, r0
 512 0332 FFF7FEFF 		bl	WriteLCD
 513              	.LVL42:
 514 0336 4AE0     		b	.L16
 515              	.LVL43:
 516              	.L20:
 142:.\keyboard.c  ****                         }
 517              		.loc 1 142 0
 518 0338 504B     		ldr	r3, .L31
 519 033a 1B78     		ldrb	r3, [r3]	@ zero_extendqisi2
 520 033c 0122     		movs	r2, #1
 521 033e 0092     		str	r2, [sp]
 522 0340 0022     		movs	r2, #0
 523 0342 0192     		str	r2, [sp, #4]
 524 0344 4E22     		movs	r2, #78
 525 0346 0292     		str	r2, [sp, #8]
 526 0348 0220     		movs	r0, #2
 527              	.LVL44:
 528 034a 2146     		mov	r1, r4
 529 034c 0246     		mov	r2, r0
 530 034e 0344     		add	r3, r3, r0
 531 0350 FFF7FEFF 		bl	WriteLCD
 532              	.LVL45:
 533 0354 3BE0     		b	.L16
 534              	.LVL46:
 535              	.L19:
 144:.\keyboard.c  ****                         numberKeys2++;  
ARM GAS  C:\Users\Diego\AppData\Local\Temp\ccwc3itV.s 			page 14


 536              		.loc 1 144 0
 537 0356 2C28     		cmp	r0, #44
 538 0358 39D1     		bne	.L16
 144:.\keyboard.c  ****                         numberKeys2++;  
 539              		.loc 1 144 0 is_stmt 0 discriminator 1
 540 035a 484B     		ldr	r3, .L31
 541 035c 1B78     		ldrb	r3, [r3]	@ zero_extendqisi2
 542 035e 13F0FF0F 		tst	r3, #255
 543 0362 34D0     		beq	.L16
 144:.\keyboard.c  ****                         numberKeys2++;  
 544              		.loc 1 144 0 discriminator 2
 545 0364 474B     		ldr	r3, .L31+8
 546 0366 1B78     		ldrb	r3, [r3]	@ zero_extendqisi2
 547 0368 13F0FF0F 		tst	r3, #255
 548 036c 2FD1     		bne	.L16
 145:.\keyboard.c  ****                         flagPoint2=1;
 549              		.loc 1 145 0 is_stmt 1
 550 036e 434A     		ldr	r2, .L31
 551 0370 1378     		ldrb	r3, [r2]	@ zero_extendqisi2
 552 0372 0133     		adds	r3, r3, #1
 553 0374 DBB2     		uxtb	r3, r3
 554 0376 1370     		strb	r3, [r2]
 146:.\keyboard.c  ****                         bufferDisplay2.valueKeys[numberKeys2]=Display2_rxBuffer[3];
 555              		.loc 1 146 0
 556 0378 0121     		movs	r1, #1
 557 037a 424B     		ldr	r3, .L31+8
 558 037c 1970     		strb	r1, [r3]
 147:.\keyboard.c  ****                         if(character==0){
 559              		.loc 1 147 0
 560 037e 1378     		ldrb	r3, [r2]	@ zero_extendqisi2
 561 0380 414A     		ldr	r2, .L31+12
 562 0382 D278     		ldrb	r2, [r2, #3]	@ zero_extendqisi2
 563 0384 3E49     		ldr	r1, .L31+4
 564 0386 0B44     		add	r3, r3, r1
 565 0388 83F84B20 		strb	r2, [r3, #75]
 148:.\keyboard.c  ****                             WriteLCD(2,bufferDisplay2.valueKeys[numberKeys2],3,numberKeys2+2,1,0x00
 566              		.loc 1 148 0
 567 038c 8CB9     		cbnz	r4, .L21
 149:.\keyboard.c  ****                         }else{
 568              		.loc 1 149 0
 569 038e 3B4B     		ldr	r3, .L31
 570 0390 1A78     		ldrb	r2, [r3]	@ zero_extendqisi2
 571 0392 1B78     		ldrb	r3, [r3]	@ zero_extendqisi2
 572 0394 0A44     		add	r2, r2, r1
 573 0396 92F84B10 		ldrb	r1, [r2, #75]	@ zero_extendqisi2
 574 039a 0122     		movs	r2, #1
 575 039c 0092     		str	r2, [sp]
 576 039e 0022     		movs	r2, #0
 577 03a0 0192     		str	r2, [sp, #4]
 578 03a2 4E22     		movs	r2, #78
 579 03a4 0292     		str	r2, [sp, #8]
 580 03a6 0220     		movs	r0, #2
 581              	.LVL47:
 582 03a8 0322     		movs	r2, #3
 583 03aa 0344     		add	r3, r3, r0
 584 03ac FFF7FEFF 		bl	WriteLCD
 585              	.LVL48:
ARM GAS  C:\Users\Diego\AppData\Local\Temp\ccwc3itV.s 			page 15


 586 03b0 0DE0     		b	.L16
 587              	.LVL49:
 588              	.L21:
 151:.\keyboard.c  ****                         }
 589              		.loc 1 151 0
 590 03b2 324B     		ldr	r3, .L31
 591 03b4 1B78     		ldrb	r3, [r3]	@ zero_extendqisi2
 592 03b6 0122     		movs	r2, #1
 593 03b8 0092     		str	r2, [sp]
 594 03ba 0022     		movs	r2, #0
 595 03bc 0192     		str	r2, [sp, #4]
 596 03be 4E22     		movs	r2, #78
 597 03c0 0292     		str	r2, [sp, #8]
 598 03c2 0220     		movs	r0, #2
 599              	.LVL50:
 600 03c4 2146     		mov	r1, r4
 601 03c6 0246     		mov	r2, r0
 602 03c8 0344     		add	r3, r3, r0
 603 03ca FFF7FEFF 		bl	WriteLCD
 604              	.LVL51:
 605              	.L16:
 155:.\keyboard.c  ****                     if(numberKeys2==0){		//Si no ha presionado nada regresa al menu anterior
 606              		.loc 1 155 0
 607 03ce 0B2E     		cmp	r6, #11
 608 03d0 27D1     		bne	.L22
 156:.\keyboard.c  ****                         CyDelay(20);         
 609              		.loc 1 156 0
 610 03d2 2A4B     		ldr	r3, .L31
 611 03d4 1B78     		ldrb	r3, [r3]	@ zero_extendqisi2
 612 03d6 03F0FF04 		and	r4, r3, #255
 613 03da 2BB9     		cbnz	r3, .L23
 157:.\keyboard.c  ****                         Display2_ClearRxBuffer();
 614              		.loc 1 157 0
 615 03dc 1420     		movs	r0, #20
 616 03de FFF7FEFF 		bl	CyDelay
 617              	.LVL52:
 158:.\keyboard.c  ****                         return 0;
 618              		.loc 1 158 0
 619 03e2 FFF7FEFF 		bl	Display2_ClearRxBuffer
 620              	.LVL53:
 159:.\keyboard.c  ****                     }
 621              		.loc 1 159 0
 622 03e6 45E0     		b	.L3
 623              	.L23:
 162:.\keyboard.c  ****                         if(bufferDisplay2.valueKeys[numberKeys2]==0x2C){
 624              		.loc 1 162 0
 625 03e8 244C     		ldr	r4, .L31
 626 03ea 2378     		ldrb	r3, [r4]	@ zero_extendqisi2
 627 03ec 0122     		movs	r2, #1
 628 03ee 0092     		str	r2, [sp]
 629 03f0 0022     		movs	r2, #0
 630 03f2 0192     		str	r2, [sp, #4]
 631 03f4 4E22     		movs	r2, #78
 632 03f6 0292     		str	r2, [sp, #8]
 633 03f8 0220     		movs	r0, #2
 634 03fa 2021     		movs	r1, #32
 635 03fc 0246     		mov	r2, r0
ARM GAS  C:\Users\Diego\AppData\Local\Temp\ccwc3itV.s 			page 16


 636 03fe 0344     		add	r3, r3, r0
 637 0400 FFF7FEFF 		bl	WriteLCD
 638              	.LVL54:
 163:.\keyboard.c  ****                             flagPoint2=0;
 639              		.loc 1 163 0
 640 0404 2378     		ldrb	r3, [r4]	@ zero_extendqisi2
 641 0406 1E4A     		ldr	r2, .L31+4
 642 0408 1344     		add	r3, r3, r2
 643 040a 93F84B30 		ldrb	r3, [r3, #75]	@ zero_extendqisi2
 644 040e 2C2B     		cmp	r3, #44
 645 0410 02D1     		bne	.L24
 164:.\keyboard.c  ****                         }
 646              		.loc 1 164 0
 647 0412 0022     		movs	r2, #0
 648 0414 1B4B     		ldr	r3, .L31+8
 649 0416 1A70     		strb	r2, [r3]
 650              	.L24:
 166:.\keyboard.c  ****                     }
 651              		.loc 1 166 0
 652 0418 184A     		ldr	r2, .L31
 653 041a 1378     		ldrb	r3, [r2]	@ zero_extendqisi2
 654 041c 013B     		subs	r3, r3, #1
 655 041e DBB2     		uxtb	r3, r3
 656 0420 1370     		strb	r3, [r2]
 657              	.L22:
 169:.\keyboard.c  ****                     if(numberKeys2>0){
 658              		.loc 1 169 0
 659 0422 0A2E     		cmp	r6, #10
 660 0424 10D1     		bne	.L25
 170:.\keyboard.c  ****                         bufferDisplay2.valueKeys[0]=numberKeys2;
 661              		.loc 1 170 0
 662 0426 154B     		ldr	r3, .L31
 663 0428 1B78     		ldrb	r3, [r3]	@ zero_extendqisi2
 664 042a 13F0FF0F 		tst	r3, #255
 665 042e 0BD0     		beq	.L25
 171:.\keyboard.c  ****                         CyDelay(20);         
 666              		.loc 1 171 0
 667 0430 124B     		ldr	r3, .L31
 668 0432 1A78     		ldrb	r2, [r3]	@ zero_extendqisi2
 669 0434 124B     		ldr	r3, .L31+4
 670 0436 83F84B20 		strb	r2, [r3, #75]
 172:.\keyboard.c  ****                         Display2_ClearRxBuffer();
 671              		.loc 1 172 0
 672 043a 1420     		movs	r0, #20
 673 043c FFF7FEFF 		bl	CyDelay
 674              	.LVL55:
 173:.\keyboard.c  ****                         return 1;
 675              		.loc 1 173 0
 676 0440 FFF7FEFF 		bl	Display2_ClearRxBuffer
 677              	.LVL56:
 174:.\keyboard.c  ****                     }
 678              		.loc 1 174 0
 679 0444 0124     		movs	r4, #1
 680 0446 15E0     		b	.L3
 681              	.L25:
 177:.\keyboard.c  ****                     CyDelay(20);         
 682              		.loc 1 177 0
ARM GAS  C:\Users\Diego\AppData\Local\Temp\ccwc3itV.s 			page 17


 683 0448 0F4B     		ldr	r3, .L31+12
 684 044a DB78     		ldrb	r3, [r3, #3]	@ zero_extendqisi2
 685 044c DBB2     		uxtb	r3, r3
 686 044e 942B     		cmp	r3, #148
 687 0450 06D1     		bne	.L15
 178:.\keyboard.c  ****                     Display2_ClearRxBuffer();
 688              		.loc 1 178 0
 689 0452 1420     		movs	r0, #20
 690 0454 FFF7FEFF 		bl	CyDelay
 691              	.LVL57:
 179:.\keyboard.c  ****                     return 0;
 692              		.loc 1 179 0
 693 0458 FFF7FEFF 		bl	Display2_ClearRxBuffer
 694              	.LVL58:
 180:.\keyboard.c  ****                 }
 695              		.loc 1 180 0
 696 045c 0024     		movs	r4, #0
 697 045e 09E0     		b	.L3
 698              	.LVL59:
 699              	.L15:
 183:.\keyboard.c  ****             Display2_ClearRxBuffer();
 700              		.loc 1 183 0
 701 0460 1420     		movs	r0, #20
 702 0462 FFF7FEFF 		bl	CyDelay
 703              	.LVL60:
 184:.\keyboard.c  ****         }
 704              		.loc 1 184 0
 705 0466 FFF7FEFF 		bl	Display2_ClearRxBuffer
 706              	.LVL61:
 707              		.loc 1 187 0
 708 046a 0224     		movs	r4, #2
 709 046c 02E0     		b	.L3
 710              	.L26:
 711 046e 0224     		movs	r4, #2
 712 0470 00E0     		b	.L3
 713              	.L27:
 714 0472 0224     		movs	r4, #2
 715              	.L3:
 188:.\keyboard.c  **** }...
 716              		.loc 1 188 0
 717 0474 2046     		mov	r0, r4
 718 0476 04B0     		add	sp, sp, #16
 719              		.cfi_def_cfa_offset 16
 720              		@ sp needed
 721 0478 70BD     		pop	{r4, r5, r6, pc}
 722              	.L32:
 723 047a 00BF     		.align	2
 724              	.L31:
 725 047c 00000000 		.word	numberKeys2
 726 0480 00000000 		.word	bufferDisplay2
 727 0484 00000000 		.word	flagPoint2
 728 0488 00000000 		.word	Display2_rxBuffer
 729              		.cfi_endproc
 730              	.LFE63:
 731              		.size	alphanumeric_keyboard, .-alphanumeric_keyboard
 732              		.comm	side,1036,4
 733              		.comm	bufferDisplay4,332,4
ARM GAS  C:\Users\Diego\AppData\Local\Temp\ccwc3itV.s 			page 18


 734              		.comm	bufferDisplay3,332,4
 735              		.comm	bufferDisplay2,332,4
 736              		.comm	bufferDisplay1,332,4
 737              		.comm	GradesHose,5,4
 738              		.comm	CopiasCredito,1,1
 739              		.comm	Encabezado1,30,4
 740              		.comm	intIDStation,2,2
 741              		.comm	buffer_tx,1500,4
 742              		.comm	buffer_rf,1500,4
 743              		.comm	printPortB,1,1
 744              		.comm	printPortA,1,1
 745              		.comm	pumpGap,3,4
 746              		.comm	idStation,5,4
 747              		.comm	controlChar,1,1
 748              		.comm	configAccess,5,4
 749              		.comm	count_protector2,1,1
 750              		.comm	count_protector,1,1
 751              		.comm	timeDownHandle,2,4
 752              		.comm	dateDownHandle,3,4
 753              		.comm	VolUnit,6,4
 754              		.comm	PrinterType,1,1
 755              		.comm	hiddenKeys,1,1
 756              		.comm	digits,1,1
 757              		.comm	lockTurn,1,1
 758              		.comm	NumPositions,1,1
 759              		.comm	statePump,4,4
 760              		.comm	DDMode,1,1
 761              		.comm	PPUDec,1,1
 762              		.comm	VolDec,1,1
 763              		.comm	MoneyDec,1,1
 764              		.comm	ConversionFactor,1,1
 765              		.comm	UnitType,1,1
 766              		.comm	IDCast,2,4
 767              		.comm	PlateRequest,1,1
 768              		.comm	PrevStatePump,4,4
 769              		.comm	stateBeagleSoft,1,1
 770              		.comm	flagResetMux,1,1
 771              		.comm	passwordSeller,8,4
 772              		.comm	typeIdSeller,1,1
 773              		.comm	idSeller,25,4
 774              		.comm	temporal,30,4
 775              		.comm	residue,14,4
 776              		.comm	screen,2,4
 777              		.comm	date,3,4
 778              		.comm	time,3,4
 779              		.comm	symbols,2,4
 780              		.comm	decimalVolume,1,1
 781              		.comm	decimalMoney,1,1
 782              		.comm	ppux10,1,1
 783              		.comm	delayPicture2,4,4
 784              		.comm	delayPicture1,4,4
 785              		.comm	productNumber,1,1
 786              		.comm	flagPoint2,1,1
 787              		.comm	flagPoint1,1,1
 788              		.comm	numberKeys2,1,1
 789              		.comm	numberKeys1,1,1
 790              		.comm	flowDisplay4,4,4
ARM GAS  C:\Users\Diego\AppData\Local\Temp\ccwc3itV.s 			page 19


 791              		.comm	flowDisplay3,4,4
 792              		.comm	flowDisplay2,4,4
 793              		.comm	flowDisplay1,4,4
 794              		.comm	countPump,8,8
 795              		.comm	countBeagleTX,8,8
 796              		.comm	countAnimation2,8,8
 797              		.comm	countAnimation1,8,8
 798              		.text
 799              	.Letext0:
 800              		.file 2 "c:\\program files (x86)\\cypress\\psoc creator\\3.3\\psoc creator\\import\\gnu\\arm\\4.9.
 801              		.file 3 "c:\\program files (x86)\\cypress\\psoc creator\\3.3\\psoc creator\\import\\gnu\\arm\\4.9.
 802              		.file 4 "Generated_Source\\PSoC5/cytypes.h"
 803              		.file 5 ".\\variables.h"
 804              		.file 6 "Generated_Source\\PSoC5/Display1.h"
 805              		.file 7 "Generated_Source\\PSoC5/Display2.h"
 806              		.file 8 "Generated_Source\\PSoC5/core_cm3.h"
 807              		.file 9 "./LCD.h"
 808              		.file 10 "Generated_Source\\PSoC5/CyLib.h"
 809              		.section	.debug_info,"",%progbits
 810              	.Ldebug_info0:
 811 0000 5F0E0000 		.4byte	0xe5f
 812 0004 0400     		.2byte	0x4
 813 0006 00000000 		.4byte	.Ldebug_abbrev0
 814 000a 04       		.byte	0x4
 815 000b 01       		.uleb128 0x1
 816 000c 87060000 		.4byte	.LASF155
 817 0010 01       		.byte	0x1
 818 0011 35020000 		.4byte	.LASF156
 819 0015 27040000 		.4byte	.LASF157
 820 0019 00000000 		.4byte	.Ldebug_ranges0+0
 821 001d 00000000 		.4byte	0
 822 0021 00000000 		.4byte	.Ldebug_line0
 823 0025 02       		.uleb128 0x2
 824 0026 01       		.byte	0x1
 825 0027 06       		.byte	0x6
 826 0028 79070000 		.4byte	.LASF0
 827 002c 03       		.uleb128 0x3
 828 002d BD050000 		.4byte	.LASF3
 829 0031 02       		.byte	0x2
 830 0032 1D       		.byte	0x1d
 831 0033 37000000 		.4byte	0x37
 832 0037 02       		.uleb128 0x2
 833 0038 01       		.byte	0x1
 834 0039 08       		.byte	0x8
 835 003a 79060000 		.4byte	.LASF1
 836 003e 02       		.uleb128 0x2
 837 003f 02       		.byte	0x2
 838 0040 05       		.byte	0x5
 839 0041 F8040000 		.4byte	.LASF2
 840 0045 03       		.uleb128 0x3
 841 0046 C8010000 		.4byte	.LASF4
 842 004a 02       		.byte	0x2
 843 004b 2B       		.byte	0x2b
 844 004c 50000000 		.4byte	0x50
 845 0050 02       		.uleb128 0x2
 846 0051 02       		.byte	0x2
 847 0052 07       		.byte	0x7
ARM GAS  C:\Users\Diego\AppData\Local\Temp\ccwc3itV.s 			page 20


 848 0053 95070000 		.4byte	.LASF5
 849 0057 03       		.uleb128 0x3
 850 0058 C8000000 		.4byte	.LASF6
 851 005c 02       		.byte	0x2
 852 005d 3F       		.byte	0x3f
 853 005e 62000000 		.4byte	0x62
 854 0062 02       		.uleb128 0x2
 855 0063 04       		.byte	0x4
 856 0064 05       		.byte	0x5
 857 0065 02050000 		.4byte	.LASF7
 858 0069 02       		.uleb128 0x2
 859 006a 04       		.byte	0x4
 860 006b 07       		.byte	0x7
 861 006c 31060000 		.4byte	.LASF8
 862 0070 02       		.uleb128 0x2
 863 0071 08       		.byte	0x8
 864 0072 05       		.byte	0x5
 865 0073 79030000 		.4byte	.LASF9
 866 0077 02       		.uleb128 0x2
 867 0078 08       		.byte	0x8
 868 0079 07       		.byte	0x7
 869 007a 87010000 		.4byte	.LASF10
 870 007e 04       		.uleb128 0x4
 871 007f 04       		.byte	0x4
 872 0080 05       		.byte	0x5
 873 0081 696E7400 		.ascii	"int\000"
 874 0085 02       		.uleb128 0x2
 875 0086 04       		.byte	0x4
 876 0087 07       		.byte	0x7
 877 0088 AF000000 		.4byte	.LASF11
 878 008c 03       		.uleb128 0x3
 879 008d 28030000 		.4byte	.LASF12
 880 0091 03       		.byte	0x3
 881 0092 15       		.byte	0x15
 882 0093 2C000000 		.4byte	0x2c
 883 0097 03       		.uleb128 0x3
 884 0098 77040000 		.4byte	.LASF13
 885 009c 03       		.byte	0x3
 886 009d 21       		.byte	0x21
 887 009e 45000000 		.4byte	0x45
 888 00a2 03       		.uleb128 0x3
 889 00a3 5F060000 		.4byte	.LASF14
 890 00a7 03       		.byte	0x3
 891 00a8 2C       		.byte	0x2c
 892 00a9 57000000 		.4byte	0x57
 893 00ad 05       		.uleb128 0x5
 894 00ae D0070000 		.4byte	.LASF15
 895 00b2 04       		.byte	0x4
 896 00b3 3801     		.2byte	0x138
 897 00b5 37000000 		.4byte	0x37
 898 00b9 05       		.uleb128 0x5
 899 00ba 1C030000 		.4byte	.LASF16
 900 00be 04       		.byte	0x4
 901 00bf 3901     		.2byte	0x139
 902 00c1 50000000 		.4byte	0x50
 903 00c5 05       		.uleb128 0x5
 904 00c6 05040000 		.4byte	.LASF17
ARM GAS  C:\Users\Diego\AppData\Local\Temp\ccwc3itV.s 			page 21


 905 00ca 04       		.byte	0x4
 906 00cb 3A01     		.2byte	0x13a
 907 00cd 69000000 		.4byte	0x69
 908 00d1 02       		.uleb128 0x2
 909 00d2 04       		.byte	0x4
 910 00d3 04       		.byte	0x4
 911 00d4 64010000 		.4byte	.LASF18
 912 00d8 02       		.uleb128 0x2
 913 00d9 08       		.byte	0x8
 914 00da 04       		.byte	0x4
 915 00db D6070000 		.4byte	.LASF19
 916 00df 05       		.uleb128 0x5
 917 00e0 F0050000 		.4byte	.LASF20
 918 00e4 04       		.byte	0x4
 919 00e5 4401     		.2byte	0x144
 920 00e7 77000000 		.4byte	0x77
 921 00eb 05       		.uleb128 0x5
 922 00ec 3C030000 		.4byte	.LASF21
 923 00f0 04       		.byte	0x4
 924 00f1 4901     		.2byte	0x149
 925 00f3 F7000000 		.4byte	0xf7
 926 00f7 02       		.uleb128 0x2
 927 00f8 01       		.byte	0x1
 928 00f9 08       		.byte	0x8
 929 00fa E0020000 		.4byte	.LASF22
 930 00fe 06       		.uleb128 0x6
 931 00ff AD000000 		.4byte	0xad
 932 0103 06       		.uleb128 0x6
 933 0104 C5000000 		.4byte	0xc5
 934 0108 02       		.uleb128 0x2
 935 0109 04       		.byte	0x4
 936 010a 07       		.byte	0x7
 937 010b 28060000 		.4byte	.LASF23
 938 010f 07       		.uleb128 0x7
 939 0110 AD000000 		.4byte	0xad
 940 0114 1F010000 		.4byte	0x11f
 941 0118 08       		.uleb128 0x8
 942 0119 08010000 		.4byte	0x108
 943 011d 03       		.byte	0x3
 944 011e 00       		.byte	0
 945 011f 09       		.uleb128 0x9
 946 0120 6F000000 		.4byte	.LASF66
 947 0124 4C01     		.2byte	0x14c
 948 0126 05       		.byte	0x5
 949 0127 6D       		.byte	0x6d
 950 0128 33030000 		.4byte	0x333
 951 012c 0A       		.uleb128 0xa
 952 012d E9000000 		.4byte	.LASF24
 953 0131 05       		.byte	0x5
 954 0132 6E       		.byte	0x6e
 955 0133 AD000000 		.4byte	0xad
 956 0137 00       		.byte	0
 957 0138 0A       		.uleb128 0xa
 958 0139 18020000 		.4byte	.LASF25
 959 013d 05       		.byte	0x5
 960 013e 6F       		.byte	0x6f
 961 013f 33030000 		.4byte	0x333
ARM GAS  C:\Users\Diego\AppData\Local\Temp\ccwc3itV.s 			page 22


 962 0143 01       		.byte	0x1
 963 0144 0A       		.uleb128 0xa
 964 0145 DD070000 		.4byte	.LASF26
 965 0149 05       		.byte	0x5
 966 014a 70       		.byte	0x70
 967 014b AD000000 		.4byte	0xad
 968 014f 1A       		.byte	0x1a
 969 0150 0A       		.uleb128 0xa
 970 0151 67060000 		.4byte	.LASF27
 971 0155 05       		.byte	0x5
 972 0156 71       		.byte	0x71
 973 0157 AD000000 		.4byte	0xad
 974 015b 1B       		.byte	0x1b
 975 015c 0A       		.uleb128 0xa
 976 015d 06010000 		.4byte	.LASF28
 977 0161 05       		.byte	0x5
 978 0162 72       		.byte	0x72
 979 0163 43030000 		.4byte	0x343
 980 0167 1C       		.byte	0x1c
 981 0168 0A       		.uleb128 0xa
 982 0169 B6040000 		.4byte	.LASF29
 983 016d 05       		.byte	0x5
 984 016e 73       		.byte	0x73
 985 016f 43030000 		.4byte	0x343
 986 0173 26       		.byte	0x26
 987 0174 0A       		.uleb128 0xa
 988 0175 1A080000 		.4byte	.LASF30
 989 0179 05       		.byte	0x5
 990 017a 74       		.byte	0x74
 991 017b 33030000 		.4byte	0x333
 992 017f 30       		.byte	0x30
 993 0180 0A       		.uleb128 0xa
 994 0181 80040000 		.4byte	.LASF31
 995 0185 05       		.byte	0x5
 996 0186 75       		.byte	0x75
 997 0187 AD000000 		.4byte	0xad
 998 018b 49       		.byte	0x49
 999 018c 0A       		.uleb128 0xa
 1000 018d 2E070000 		.4byte	.LASF32
 1001 0191 05       		.byte	0x5
 1002 0192 76       		.byte	0x76
 1003 0193 AD000000 		.4byte	0xad
 1004 0197 4A       		.byte	0x4a
 1005 0198 0A       		.uleb128 0xa
 1006 0199 D6020000 		.4byte	.LASF33
 1007 019d 05       		.byte	0x5
 1008 019e 77       		.byte	0x77
 1009 019f 53030000 		.4byte	0x353
 1010 01a3 4B       		.byte	0x4b
 1011 01a4 0A       		.uleb128 0xa
 1012 01a5 EC030000 		.4byte	.LASF34
 1013 01a9 05       		.byte	0x5
 1014 01aa 78       		.byte	0x78
 1015 01ab AD000000 		.4byte	0xad
 1016 01af 60       		.byte	0x60
 1017 01b0 0A       		.uleb128 0xa
 1018 01b1 CD020000 		.4byte	.LASF35
ARM GAS  C:\Users\Diego\AppData\Local\Temp\ccwc3itV.s 			page 23


 1019 01b5 05       		.byte	0x5
 1020 01b6 79       		.byte	0x79
 1021 01b7 AD000000 		.4byte	0xad
 1022 01bb 61       		.byte	0x61
 1023 01bc 0A       		.uleb128 0xa
 1024 01bd A3000000 		.4byte	.LASF36
 1025 01c1 05       		.byte	0x5
 1026 01c2 7A       		.byte	0x7a
 1027 01c3 AD000000 		.4byte	0xad
 1028 01c7 62       		.byte	0x62
 1029 01c8 0A       		.uleb128 0xa
 1030 01c9 55070000 		.4byte	.LASF37
 1031 01cd 05       		.byte	0x5
 1032 01ce 7B       		.byte	0x7b
 1033 01cf 63030000 		.4byte	0x363
 1034 01d3 63       		.byte	0x63
 1035 01d4 0A       		.uleb128 0xa
 1036 01d5 B6020000 		.4byte	.LASF38
 1037 01d9 05       		.byte	0x5
 1038 01da 7C       		.byte	0x7c
 1039 01db 73030000 		.4byte	0x373
 1040 01df 65       		.byte	0x65
 1041 01e0 0A       		.uleb128 0xa
 1042 01e1 F5010000 		.4byte	.LASF39
 1043 01e5 05       		.byte	0x5
 1044 01e6 7D       		.byte	0x7d
 1045 01e7 AD000000 		.4byte	0xad
 1046 01eb 79       		.byte	0x79
 1047 01ec 0A       		.uleb128 0xa
 1048 01ed 13060000 		.4byte	.LASF40
 1049 01f1 05       		.byte	0x5
 1050 01f2 7E       		.byte	0x7e
 1051 01f3 89030000 		.4byte	0x389
 1052 01f7 7A       		.byte	0x7a
 1053 01f8 0A       		.uleb128 0xa
 1054 01f9 78050000 		.4byte	.LASF41
 1055 01fd 05       		.byte	0x5
 1056 01fe 7F       		.byte	0x7f
 1057 01ff 99030000 		.4byte	0x399
 1058 0203 7F       		.byte	0x7f
 1059 0204 0A       		.uleb128 0xa
 1060 0205 FD070000 		.4byte	.LASF42
 1061 0209 05       		.byte	0x5
 1062 020a 80       		.byte	0x80
 1063 020b 99030000 		.4byte	0x399
 1064 020f 85       		.byte	0x85
 1065 0210 0A       		.uleb128 0xa
 1066 0211 98040000 		.4byte	.LASF43
 1067 0215 05       		.byte	0x5
 1068 0216 81       		.byte	0x81
 1069 0217 A9030000 		.4byte	0x3a9
 1070 021b 8B       		.byte	0x8b
 1071 021c 0A       		.uleb128 0xa
 1072 021d A7010000 		.4byte	.LASF44
 1073 0221 05       		.byte	0x5
 1074 0222 82       		.byte	0x82
 1075 0223 A9030000 		.4byte	0x3a9
ARM GAS  C:\Users\Diego\AppData\Local\Temp\ccwc3itV.s 			page 24


 1076 0227 99       		.byte	0x99
 1077 0228 0A       		.uleb128 0xa
 1078 0229 BC030000 		.4byte	.LASF45
 1079 022d 05       		.byte	0x5
 1080 022e 83       		.byte	0x83
 1081 022f A9030000 		.4byte	0x3a9
 1082 0233 A7       		.byte	0xa7
 1083 0234 0A       		.uleb128 0xa
 1084 0235 4B030000 		.4byte	.LASF46
 1085 0239 05       		.byte	0x5
 1086 023a 84       		.byte	0x84
 1087 023b A9030000 		.4byte	0x3a9
 1088 023f B5       		.byte	0xb5
 1089 0240 0A       		.uleb128 0xa
 1090 0241 D6050000 		.4byte	.LASF47
 1091 0245 05       		.byte	0x5
 1092 0246 85       		.byte	0x85
 1093 0247 A9030000 		.4byte	0x3a9
 1094 024b C3       		.byte	0xc3
 1095 024c 0A       		.uleb128 0xa
 1096 024d 69040000 		.4byte	.LASF48
 1097 0251 05       		.byte	0x5
 1098 0252 86       		.byte	0x86
 1099 0253 A9030000 		.4byte	0x3a9
 1100 0257 D1       		.byte	0xd1
 1101 0258 0A       		.uleb128 0xa
 1102 0259 DF040000 		.4byte	.LASF49
 1103 025d 05       		.byte	0x5
 1104 025e 87       		.byte	0x87
 1105 025f B9030000 		.4byte	0x3b9
 1106 0263 DF       		.byte	0xdf
 1107 0264 0A       		.uleb128 0xa
 1108 0265 42020000 		.4byte	.LASF50
 1109 0269 05       		.byte	0x5
 1110 026a 88       		.byte	0x88
 1111 026b B9030000 		.4byte	0x3b9
 1112 026f EA       		.byte	0xea
 1113 0270 0A       		.uleb128 0xa
 1114 0271 C2020000 		.4byte	.LASF51
 1115 0275 05       		.byte	0x5
 1116 0276 89       		.byte	0x89
 1117 0277 B9030000 		.4byte	0x3b9
 1118 027b F5       		.byte	0xf5
 1119 027c 0B       		.uleb128 0xb
 1120 027d F8030000 		.4byte	.LASF52
 1121 0281 05       		.byte	0x5
 1122 0282 8A       		.byte	0x8a
 1123 0283 AD000000 		.4byte	0xad
 1124 0287 0001     		.2byte	0x100
 1125 0289 0B       		.uleb128 0xb
 1126 028a 30030000 		.4byte	.LASF53
 1127 028e 05       		.byte	0x5
 1128 028f 8B       		.byte	0x8b
 1129 0290 AD000000 		.4byte	0xad
 1130 0294 0101     		.2byte	0x101
 1131 0296 0B       		.uleb128 0xb
 1132 0297 D2000000 		.4byte	.LASF54
ARM GAS  C:\Users\Diego\AppData\Local\Temp\ccwc3itV.s 			page 25


 1133 029b 05       		.byte	0x5
 1134 029c 8C       		.byte	0x8c
 1135 029d AD000000 		.4byte	0xad
 1136 02a1 0201     		.2byte	0x102
 1137 02a3 0B       		.uleb128 0xb
 1138 02a4 6C050000 		.4byte	.LASF55
 1139 02a8 05       		.byte	0x5
 1140 02a9 8D       		.byte	0x8d
 1141 02aa AD000000 		.4byte	0xad
 1142 02ae 0301     		.2byte	0x103
 1143 02b0 0B       		.uleb128 0xb
 1144 02b1 5B030000 		.4byte	.LASF56
 1145 02b5 05       		.byte	0x5
 1146 02b6 8E       		.byte	0x8e
 1147 02b7 43030000 		.4byte	0x343
 1148 02bb 0401     		.2byte	0x104
 1149 02bd 0B       		.uleb128 0xb
 1150 02be 59000000 		.4byte	.LASF57
 1151 02c2 05       		.byte	0x5
 1152 02c3 8F       		.byte	0x8f
 1153 02c4 43030000 		.4byte	0x343
 1154 02c8 0E01     		.2byte	0x10e
 1155 02ca 0B       		.uleb128 0xb
 1156 02cb 42030000 		.4byte	.LASF58
 1157 02cf 05       		.byte	0x5
 1158 02d0 90       		.byte	0x90
 1159 02d1 43030000 		.4byte	0x343
 1160 02d5 1801     		.2byte	0x118
 1161 02d7 0B       		.uleb128 0xb
 1162 02d8 EB040000 		.4byte	.LASF59
 1163 02dc 05       		.byte	0x5
 1164 02dd 91       		.byte	0x91
 1165 02de C9030000 		.4byte	0x3c9
 1166 02e2 2201     		.2byte	0x122
 1167 02e4 0B       		.uleb128 0xb
 1168 02e5 66030000 		.4byte	.LASF60
 1169 02e9 05       		.byte	0x5
 1170 02ea 92       		.byte	0x92
 1171 02eb 63030000 		.4byte	0x363
 1172 02ef 3101     		.2byte	0x131
 1173 02f1 0B       		.uleb128 0xb
 1174 02f2 4E020000 		.4byte	.LASF61
 1175 02f6 05       		.byte	0x5
 1176 02f7 93       		.byte	0x93
 1177 02f8 AD000000 		.4byte	0xad
 1178 02fc 3301     		.2byte	0x133
 1179 02fe 0B       		.uleb128 0xb
 1180 02ff 55060000 		.4byte	.LASF62
 1181 0303 05       		.byte	0x5
 1182 0304 94       		.byte	0x94
 1183 0305 AD000000 		.4byte	0xad
 1184 0309 3401     		.2byte	0x134
 1185 030b 0B       		.uleb128 0xb
 1186 030c 66020000 		.4byte	.LASF63
 1187 0310 05       		.byte	0x5
 1188 0311 95       		.byte	0x95
 1189 0312 AD000000 		.4byte	0xad
ARM GAS  C:\Users\Diego\AppData\Local\Temp\ccwc3itV.s 			page 26


 1190 0316 3501     		.2byte	0x135
 1191 0318 0B       		.uleb128 0xb
 1192 0319 40050000 		.4byte	.LASF64
 1193 031d 05       		.byte	0x5
 1194 031e 96       		.byte	0x96
 1195 031f B9030000 		.4byte	0x3b9
 1196 0323 3601     		.2byte	0x136
 1197 0325 0B       		.uleb128 0xb
 1198 0326 6B070000 		.4byte	.LASF65
 1199 032a 05       		.byte	0x5
 1200 032b 97       		.byte	0x97
 1201 032c B9030000 		.4byte	0x3b9
 1202 0330 4101     		.2byte	0x141
 1203 0332 00       		.byte	0
 1204 0333 07       		.uleb128 0x7
 1205 0334 AD000000 		.4byte	0xad
 1206 0338 43030000 		.4byte	0x343
 1207 033c 08       		.uleb128 0x8
 1208 033d 08010000 		.4byte	0x108
 1209 0341 18       		.byte	0x18
 1210 0342 00       		.byte	0
 1211 0343 07       		.uleb128 0x7
 1212 0344 AD000000 		.4byte	0xad
 1213 0348 53030000 		.4byte	0x353
 1214 034c 08       		.uleb128 0x8
 1215 034d 08010000 		.4byte	0x108
 1216 0351 09       		.byte	0x9
 1217 0352 00       		.byte	0
 1218 0353 07       		.uleb128 0x7
 1219 0354 AD000000 		.4byte	0xad
 1220 0358 63030000 		.4byte	0x363
 1221 035c 08       		.uleb128 0x8
 1222 035d 08010000 		.4byte	0x108
 1223 0361 14       		.byte	0x14
 1224 0362 00       		.byte	0
 1225 0363 07       		.uleb128 0x7
 1226 0364 AD000000 		.4byte	0xad
 1227 0368 73030000 		.4byte	0x373
 1228 036c 08       		.uleb128 0x8
 1229 036d 08010000 		.4byte	0x108
 1230 0371 01       		.byte	0x1
 1231 0372 00       		.byte	0
 1232 0373 07       		.uleb128 0x7
 1233 0374 AD000000 		.4byte	0xad
 1234 0378 89030000 		.4byte	0x389
 1235 037c 08       		.uleb128 0x8
 1236 037d 08010000 		.4byte	0x108
 1237 0381 01       		.byte	0x1
 1238 0382 08       		.uleb128 0x8
 1239 0383 08010000 		.4byte	0x108
 1240 0387 09       		.byte	0x9
 1241 0388 00       		.byte	0
 1242 0389 07       		.uleb128 0x7
 1243 038a AD000000 		.4byte	0xad
 1244 038e 99030000 		.4byte	0x399
 1245 0392 08       		.uleb128 0x8
 1246 0393 08010000 		.4byte	0x108
ARM GAS  C:\Users\Diego\AppData\Local\Temp\ccwc3itV.s 			page 27


 1247 0397 04       		.byte	0x4
 1248 0398 00       		.byte	0
 1249 0399 07       		.uleb128 0x7
 1250 039a AD000000 		.4byte	0xad
 1251 039e A9030000 		.4byte	0x3a9
 1252 03a2 08       		.uleb128 0x8
 1253 03a3 08010000 		.4byte	0x108
 1254 03a7 05       		.byte	0x5
 1255 03a8 00       		.byte	0
 1256 03a9 07       		.uleb128 0x7
 1257 03aa AD000000 		.4byte	0xad
 1258 03ae B9030000 		.4byte	0x3b9
 1259 03b2 08       		.uleb128 0x8
 1260 03b3 08010000 		.4byte	0x108
 1261 03b7 0D       		.byte	0xd
 1262 03b8 00       		.byte	0
 1263 03b9 07       		.uleb128 0x7
 1264 03ba AD000000 		.4byte	0xad
 1265 03be C9030000 		.4byte	0x3c9
 1266 03c2 08       		.uleb128 0x8
 1267 03c3 08010000 		.4byte	0x108
 1268 03c7 0A       		.byte	0xa
 1269 03c8 00       		.byte	0
 1270 03c9 07       		.uleb128 0x7
 1271 03ca AD000000 		.4byte	0xad
 1272 03ce D9030000 		.4byte	0x3d9
 1273 03d2 08       		.uleb128 0x8
 1274 03d3 08010000 		.4byte	0x108
 1275 03d7 0E       		.byte	0xe
 1276 03d8 00       		.byte	0
 1277 03d9 09       		.uleb128 0x9
 1278 03da 2D080000 		.4byte	.LASF67
 1279 03de 0301     		.2byte	0x103
 1280 03e0 05       		.byte	0x5
 1281 03e1 A8       		.byte	0xa8
 1282 03e2 62040000 		.4byte	0x462
 1283 03e6 0C       		.uleb128 0xc
 1284 03e7 64697200 		.ascii	"dir\000"
 1285 03eb 05       		.byte	0x5
 1286 03ec A9       		.byte	0xa9
 1287 03ed AD000000 		.4byte	0xad
 1288 03f1 00       		.byte	0
 1289 03f2 0A       		.uleb128 0xa
 1290 03f3 A9020000 		.4byte	.LASF68
 1291 03f7 05       		.byte	0x5
 1292 03f8 AA       		.byte	0xaa
 1293 03f9 62040000 		.4byte	0x462
 1294 03fd 01       		.byte	0x1
 1295 03fe 0A       		.uleb128 0xa
 1296 03ff 0C080000 		.4byte	.LASF69
 1297 0403 05       		.byte	0x5
 1298 0404 AB       		.byte	0xab
 1299 0405 7E040000 		.4byte	0x47e
 1300 0409 B5       		.byte	0xb5
 1301 040a 0A       		.uleb128 0xa
 1302 040b 6F030000 		.4byte	.LASF70
 1303 040f 05       		.byte	0x5
ARM GAS  C:\Users\Diego\AppData\Local\Temp\ccwc3itV.s 			page 28


 1304 0410 AC       		.byte	0xac
 1305 0411 A9030000 		.4byte	0x3a9
 1306 0415 D5       		.byte	0xd5
 1307 0416 0A       		.uleb128 0xa
 1308 0417 60070000 		.4byte	.LASF71
 1309 041b 05       		.byte	0x5
 1310 041c AD       		.byte	0xad
 1311 041d A9030000 		.4byte	0x3a9
 1312 0421 E3       		.byte	0xe3
 1313 0422 0A       		.uleb128 0xa
 1314 0423 87030000 		.4byte	.LASF72
 1315 0427 05       		.byte	0x5
 1316 0428 AE       		.byte	0xae
 1317 0429 A9030000 		.4byte	0x3a9
 1318 042d F1       		.byte	0xf1
 1319 042e 0A       		.uleb128 0xa
 1320 042f C4070000 		.4byte	.LASF73
 1321 0433 05       		.byte	0x5
 1322 0434 AF       		.byte	0xaf
 1323 0435 AD000000 		.4byte	0xad
 1324 0439 FF       		.byte	0xff
 1325 043a 0B       		.uleb128 0xb
 1326 043b 4A060000 		.4byte	.LASF74
 1327 043f 05       		.byte	0x5
 1328 0440 B0       		.byte	0xb0
 1329 0441 AD000000 		.4byte	0xad
 1330 0445 0001     		.2byte	0x100
 1331 0447 0B       		.uleb128 0xb
 1332 0448 73010000 		.4byte	.LASF75
 1333 044c 05       		.byte	0x5
 1334 044d B1       		.byte	0xb1
 1335 044e AD000000 		.4byte	0xad
 1336 0452 0101     		.2byte	0x101
 1337 0454 0B       		.uleb128 0xb
 1338 0455 87050000 		.4byte	.LASF76
 1339 0459 05       		.byte	0x5
 1340 045a B2       		.byte	0xb2
 1341 045b AD000000 		.4byte	0xad
 1342 045f 0201     		.2byte	0x102
 1343 0461 00       		.byte	0
 1344 0462 07       		.uleb128 0x7
 1345 0463 AD000000 		.4byte	0xad
 1346 0467 7E040000 		.4byte	0x47e
 1347 046b 08       		.uleb128 0x8
 1348 046c 08010000 		.4byte	0x108
 1349 0470 03       		.byte	0x3
 1350 0471 08       		.uleb128 0x8
 1351 0472 08010000 		.4byte	0x108
 1352 0476 02       		.byte	0x2
 1353 0477 08       		.uleb128 0x8
 1354 0478 08010000 		.4byte	0x108
 1355 047c 0E       		.byte	0xe
 1356 047d 00       		.byte	0
 1357 047e 07       		.uleb128 0x7
 1358 047f AD000000 		.4byte	0xad
 1359 0483 94040000 		.4byte	0x494
 1360 0487 08       		.uleb128 0x8
ARM GAS  C:\Users\Diego\AppData\Local\Temp\ccwc3itV.s 			page 29


 1361 0488 08010000 		.4byte	0x108
 1362 048c 03       		.byte	0x3
 1363 048d 08       		.uleb128 0x8
 1364 048e 08010000 		.4byte	0x108
 1365 0492 07       		.byte	0x7
 1366 0493 00       		.byte	0
 1367 0494 09       		.uleb128 0x9
 1368 0495 40070000 		.4byte	.LASF77
 1369 0499 0C04     		.2byte	0x40c
 1370 049b 05       		.byte	0x5
 1371 049c B5       		.byte	0xb5
 1372 049d CD040000 		.4byte	0x4cd
 1373 04a1 0C       		.uleb128 0xc
 1374 04a2 6100     		.ascii	"a\000"
 1375 04a4 05       		.byte	0x5
 1376 04a5 B6       		.byte	0xb6
 1377 04a6 D9030000 		.4byte	0x3d9
 1378 04aa 00       		.byte	0
 1379 04ab 0D       		.uleb128 0xd
 1380 04ac 6200     		.ascii	"b\000"
 1381 04ae 05       		.byte	0x5
 1382 04af B7       		.byte	0xb7
 1383 04b0 D9030000 		.4byte	0x3d9
 1384 04b4 0301     		.2byte	0x103
 1385 04b6 0D       		.uleb128 0xd
 1386 04b7 6300     		.ascii	"c\000"
 1387 04b9 05       		.byte	0x5
 1388 04ba B8       		.byte	0xb8
 1389 04bb D9030000 		.4byte	0x3d9
 1390 04bf 0602     		.2byte	0x206
 1391 04c1 0D       		.uleb128 0xd
 1392 04c2 6400     		.ascii	"d\000"
 1393 04c4 05       		.byte	0x5
 1394 04c5 B9       		.byte	0xb9
 1395 04c6 D9030000 		.4byte	0x3d9
 1396 04ca 0903     		.2byte	0x309
 1397 04cc 00       		.byte	0
 1398 04cd 0E       		.uleb128 0xe
 1399 04ce 76000000 		.4byte	.LASF158
 1400 04d2 01       		.byte	0x1
 1401 04d3 3A       		.byte	0x3a
 1402 04d4 AD000000 		.4byte	0xad
 1403 04d8 00000000 		.4byte	.LFB63
 1404 04dc 8C040000 		.4byte	.LFE63-.LFB63
 1405 04e0 01       		.uleb128 0x1
 1406 04e1 9C       		.byte	0x9c
 1407 04e2 B1080000 		.4byte	0x8b1
 1408 04e6 0F       		.uleb128 0xf
 1409 04e7 6C636400 		.ascii	"lcd\000"
 1410 04eb 01       		.byte	0x1
 1411 04ec 3A       		.byte	0x3a
 1412 04ed AD000000 		.4byte	0xad
 1413 04f1 00000000 		.4byte	.LLST0
 1414 04f5 10       		.uleb128 0x10
 1415 04f6 19040000 		.4byte	.LASF78
 1416 04fa 01       		.byte	0x1
 1417 04fb 3A       		.byte	0x3a
ARM GAS  C:\Users\Diego\AppData\Local\Temp\ccwc3itV.s 			page 30


 1418 04fc AD000000 		.4byte	0xad
 1419 0500 3A000000 		.4byte	.LLST1
 1420 0504 10       		.uleb128 0x10
 1421 0505 5C020000 		.4byte	.LASF79
 1422 0509 01       		.byte	0x1
 1423 050a 3A       		.byte	0x3a
 1424 050b AD000000 		.4byte	0xad
 1425 050f 74000000 		.4byte	.LLST2
 1426 0513 11       		.uleb128 0x11
 1427 0514 2A020000 		.4byte	.LASF159
 1428 0518 01       		.byte	0x1
 1429 0519 3B       		.byte	0x3b
 1430 051a EB000000 		.4byte	0xeb
 1431 051e AE000000 		.4byte	.LLST3
 1432 0522 12       		.uleb128 0x12
 1433 0523 12000000 		.4byte	.LVL1
 1434 0527 E90D0000 		.4byte	0xde9
 1435 052b 12       		.uleb128 0x12
 1436 052c 52000000 		.4byte	.LVL2
 1437 0530 F40D0000 		.4byte	0xdf4
 1438 0534 13       		.uleb128 0x13
 1439 0535 96000000 		.4byte	.LVL5
 1440 0539 090E0000 		.4byte	0xe09
 1441 053d 5F050000 		.4byte	0x55f
 1442 0541 14       		.uleb128 0x14
 1443 0542 01       		.uleb128 0x1
 1444 0543 52       		.byte	0x52
 1445 0544 01       		.uleb128 0x1
 1446 0545 33       		.byte	0x33
 1447 0546 14       		.uleb128 0x14
 1448 0547 01       		.uleb128 0x1
 1449 0548 50       		.byte	0x50
 1450 0549 01       		.uleb128 0x1
 1451 054a 31       		.byte	0x31
 1452 054b 14       		.uleb128 0x14
 1453 054c 02       		.uleb128 0x2
 1454 054d 7D       		.byte	0x7d
 1455 054e 08       		.sleb128 8
 1456 054f 02       		.uleb128 0x2
 1457 0550 08       		.byte	0x8
 1458 0551 4E       		.byte	0x4e
 1459 0552 14       		.uleb128 0x14
 1460 0553 02       		.uleb128 0x2
 1461 0554 7D       		.byte	0x7d
 1462 0555 04       		.sleb128 4
 1463 0556 01       		.uleb128 0x1
 1464 0557 30       		.byte	0x30
 1465 0558 14       		.uleb128 0x14
 1466 0559 02       		.uleb128 0x2
 1467 055a 7D       		.byte	0x7d
 1468 055b 00       		.sleb128 0
 1469 055c 01       		.uleb128 0x1
 1470 055d 31       		.byte	0x31
 1471 055e 00       		.byte	0
 1472 055f 13       		.uleb128 0x13
 1473 0560 B2000000 		.4byte	.LVL8
 1474 0564 090E0000 		.4byte	0xe09
ARM GAS  C:\Users\Diego\AppData\Local\Temp\ccwc3itV.s 			page 31


 1475 0568 90050000 		.4byte	0x590
 1476 056c 14       		.uleb128 0x14
 1477 056d 01       		.uleb128 0x1
 1478 056e 52       		.byte	0x52
 1479 056f 01       		.uleb128 0x1
 1480 0570 33       		.byte	0x33
 1481 0571 14       		.uleb128 0x14
 1482 0572 01       		.uleb128 0x1
 1483 0573 51       		.byte	0x51
 1484 0574 02       		.uleb128 0x2
 1485 0575 74       		.byte	0x74
 1486 0576 00       		.sleb128 0
 1487 0577 14       		.uleb128 0x14
 1488 0578 01       		.uleb128 0x1
 1489 0579 50       		.byte	0x50
 1490 057a 01       		.uleb128 0x1
 1491 057b 31       		.byte	0x31
 1492 057c 14       		.uleb128 0x14
 1493 057d 02       		.uleb128 0x2
 1494 057e 7D       		.byte	0x7d
 1495 057f 08       		.sleb128 8
 1496 0580 02       		.uleb128 0x2
 1497 0581 08       		.byte	0x8
 1498 0582 4E       		.byte	0x4e
 1499 0583 14       		.uleb128 0x14
 1500 0584 02       		.uleb128 0x2
 1501 0585 7D       		.byte	0x7d
 1502 0586 04       		.sleb128 4
 1503 0587 01       		.uleb128 0x1
 1504 0588 30       		.byte	0x30
 1505 0589 14       		.uleb128 0x14
 1506 058a 02       		.uleb128 0x2
 1507 058b 7D       		.byte	0x7d
 1508 058c 00       		.sleb128 0
 1509 058d 01       		.uleb128 0x1
 1510 058e 31       		.byte	0x31
 1511 058f 00       		.byte	0
 1512 0590 13       		.uleb128 0x13
 1513 0591 F6000000 		.4byte	.LVL11
 1514 0595 090E0000 		.4byte	0xe09
 1515 0599 BB050000 		.4byte	0x5bb
 1516 059d 14       		.uleb128 0x14
 1517 059e 01       		.uleb128 0x1
 1518 059f 52       		.byte	0x52
 1519 05a0 01       		.uleb128 0x1
 1520 05a1 33       		.byte	0x33
 1521 05a2 14       		.uleb128 0x14
 1522 05a3 01       		.uleb128 0x1
 1523 05a4 50       		.byte	0x50
 1524 05a5 01       		.uleb128 0x1
 1525 05a6 31       		.byte	0x31
 1526 05a7 14       		.uleb128 0x14
 1527 05a8 02       		.uleb128 0x2
 1528 05a9 7D       		.byte	0x7d
 1529 05aa 08       		.sleb128 8
 1530 05ab 02       		.uleb128 0x2
 1531 05ac 08       		.byte	0x8
ARM GAS  C:\Users\Diego\AppData\Local\Temp\ccwc3itV.s 			page 32


 1532 05ad 4E       		.byte	0x4e
 1533 05ae 14       		.uleb128 0x14
 1534 05af 02       		.uleb128 0x2
 1535 05b0 7D       		.byte	0x7d
 1536 05b1 04       		.sleb128 4
 1537 05b2 01       		.uleb128 0x1
 1538 05b3 30       		.byte	0x30
 1539 05b4 14       		.uleb128 0x14
 1540 05b5 02       		.uleb128 0x2
 1541 05b6 7D       		.byte	0x7d
 1542 05b7 00       		.sleb128 0
 1543 05b8 01       		.uleb128 0x1
 1544 05b9 31       		.byte	0x31
 1545 05ba 00       		.byte	0
 1546 05bb 13       		.uleb128 0x13
 1547 05bc 12010000 		.4byte	.LVL14
 1548 05c0 090E0000 		.4byte	0xe09
 1549 05c4 EC050000 		.4byte	0x5ec
 1550 05c8 14       		.uleb128 0x14
 1551 05c9 01       		.uleb128 0x1
 1552 05ca 52       		.byte	0x52
 1553 05cb 01       		.uleb128 0x1
 1554 05cc 33       		.byte	0x33
 1555 05cd 14       		.uleb128 0x14
 1556 05ce 01       		.uleb128 0x1
 1557 05cf 51       		.byte	0x51
 1558 05d0 02       		.uleb128 0x2
 1559 05d1 74       		.byte	0x74
 1560 05d2 00       		.sleb128 0
 1561 05d3 14       		.uleb128 0x14
 1562 05d4 01       		.uleb128 0x1
 1563 05d5 50       		.byte	0x50
 1564 05d6 01       		.uleb128 0x1
 1565 05d7 31       		.byte	0x31
 1566 05d8 14       		.uleb128 0x14
 1567 05d9 02       		.uleb128 0x2
 1568 05da 7D       		.byte	0x7d
 1569 05db 08       		.sleb128 8
 1570 05dc 02       		.uleb128 0x2
 1571 05dd 08       		.byte	0x8
 1572 05de 4E       		.byte	0x4e
 1573 05df 14       		.uleb128 0x14
 1574 05e0 02       		.uleb128 0x2
 1575 05e1 7D       		.byte	0x7d
 1576 05e2 04       		.sleb128 4
 1577 05e3 01       		.uleb128 0x1
 1578 05e4 30       		.byte	0x30
 1579 05e5 14       		.uleb128 0x14
 1580 05e6 02       		.uleb128 0x2
 1581 05e7 7D       		.byte	0x7d
 1582 05e8 00       		.sleb128 0
 1583 05e9 01       		.uleb128 0x1
 1584 05ea 31       		.byte	0x31
 1585 05eb 00       		.byte	0
 1586 05ec 13       		.uleb128 0x13
 1587 05ed 6A010000 		.4byte	.LVL17
 1588 05f1 090E0000 		.4byte	0xe09
ARM GAS  C:\Users\Diego\AppData\Local\Temp\ccwc3itV.s 			page 33


 1589 05f5 17060000 		.4byte	0x617
 1590 05f9 14       		.uleb128 0x14
 1591 05fa 01       		.uleb128 0x1
 1592 05fb 52       		.byte	0x52
 1593 05fc 01       		.uleb128 0x1
 1594 05fd 33       		.byte	0x33
 1595 05fe 14       		.uleb128 0x14
 1596 05ff 01       		.uleb128 0x1
 1597 0600 50       		.byte	0x50
 1598 0601 01       		.uleb128 0x1
 1599 0602 31       		.byte	0x31
 1600 0603 14       		.uleb128 0x14
 1601 0604 02       		.uleb128 0x2
 1602 0605 7D       		.byte	0x7d
 1603 0606 08       		.sleb128 8
 1604 0607 02       		.uleb128 0x2
 1605 0608 08       		.byte	0x8
 1606 0609 4E       		.byte	0x4e
 1607 060a 14       		.uleb128 0x14
 1608 060b 02       		.uleb128 0x2
 1609 060c 7D       		.byte	0x7d
 1610 060d 04       		.sleb128 4
 1611 060e 01       		.uleb128 0x1
 1612 060f 30       		.byte	0x30
 1613 0610 14       		.uleb128 0x14
 1614 0611 02       		.uleb128 0x2
 1615 0612 7D       		.byte	0x7d
 1616 0613 00       		.sleb128 0
 1617 0614 01       		.uleb128 0x1
 1618 0615 31       		.byte	0x31
 1619 0616 00       		.byte	0
 1620 0617 13       		.uleb128 0x13
 1621 0618 86010000 		.4byte	.LVL20
 1622 061c 090E0000 		.4byte	0xe09
 1623 0620 48060000 		.4byte	0x648
 1624 0624 14       		.uleb128 0x14
 1625 0625 01       		.uleb128 0x1
 1626 0626 52       		.byte	0x52
 1627 0627 01       		.uleb128 0x1
 1628 0628 33       		.byte	0x33
 1629 0629 14       		.uleb128 0x14
 1630 062a 01       		.uleb128 0x1
 1631 062b 51       		.byte	0x51
 1632 062c 02       		.uleb128 0x2
 1633 062d 74       		.byte	0x74
 1634 062e 00       		.sleb128 0
 1635 062f 14       		.uleb128 0x14
 1636 0630 01       		.uleb128 0x1
 1637 0631 50       		.byte	0x50
 1638 0632 01       		.uleb128 0x1
 1639 0633 31       		.byte	0x31
 1640 0634 14       		.uleb128 0x14
 1641 0635 02       		.uleb128 0x2
 1642 0636 7D       		.byte	0x7d
 1643 0637 08       		.sleb128 8
 1644 0638 02       		.uleb128 0x2
 1645 0639 08       		.byte	0x8
ARM GAS  C:\Users\Diego\AppData\Local\Temp\ccwc3itV.s 			page 34


 1646 063a 4E       		.byte	0x4e
 1647 063b 14       		.uleb128 0x14
 1648 063c 02       		.uleb128 0x2
 1649 063d 7D       		.byte	0x7d
 1650 063e 04       		.sleb128 4
 1651 063f 01       		.uleb128 0x1
 1652 0640 30       		.byte	0x30
 1653 0641 14       		.uleb128 0x14
 1654 0642 02       		.uleb128 0x2
 1655 0643 7D       		.byte	0x7d
 1656 0644 00       		.sleb128 0
 1657 0645 01       		.uleb128 0x1
 1658 0646 31       		.byte	0x31
 1659 0647 00       		.byte	0
 1660 0648 13       		.uleb128 0x13
 1661 0649 A0010000 		.4byte	.LVL21
 1662 064d 380E0000 		.4byte	0xe38
 1663 0651 5B060000 		.4byte	0x65b
 1664 0655 14       		.uleb128 0x14
 1665 0656 01       		.uleb128 0x1
 1666 0657 50       		.byte	0x50
 1667 0658 01       		.uleb128 0x1
 1668 0659 44       		.byte	0x44
 1669 065a 00       		.byte	0
 1670 065b 12       		.uleb128 0x12
 1671 065c A4010000 		.4byte	.LVL22
 1672 0660 490E0000 		.4byte	0xe49
 1673 0664 13       		.uleb128 0x13
 1674 0665 C0010000 		.4byte	.LVL23
 1675 0669 090E0000 		.4byte	0xe09
 1676 066d 95060000 		.4byte	0x695
 1677 0671 14       		.uleb128 0x14
 1678 0672 01       		.uleb128 0x1
 1679 0673 52       		.byte	0x52
 1680 0674 01       		.uleb128 0x1
 1681 0675 33       		.byte	0x33
 1682 0676 14       		.uleb128 0x14
 1683 0677 01       		.uleb128 0x1
 1684 0678 51       		.byte	0x51
 1685 0679 02       		.uleb128 0x2
 1686 067a 08       		.byte	0x8
 1687 067b 20       		.byte	0x20
 1688 067c 14       		.uleb128 0x14
 1689 067d 01       		.uleb128 0x1
 1690 067e 50       		.byte	0x50
 1691 067f 01       		.uleb128 0x1
 1692 0680 31       		.byte	0x31
 1693 0681 14       		.uleb128 0x14
 1694 0682 02       		.uleb128 0x2
 1695 0683 7D       		.byte	0x7d
 1696 0684 08       		.sleb128 8
 1697 0685 02       		.uleb128 0x2
 1698 0686 08       		.byte	0x8
 1699 0687 4E       		.byte	0x4e
 1700 0688 14       		.uleb128 0x14
 1701 0689 02       		.uleb128 0x2
 1702 068a 7D       		.byte	0x7d
ARM GAS  C:\Users\Diego\AppData\Local\Temp\ccwc3itV.s 			page 35


 1703 068b 04       		.sleb128 4
 1704 068c 01       		.uleb128 0x1
 1705 068d 30       		.byte	0x30
 1706 068e 14       		.uleb128 0x14
 1707 068f 02       		.uleb128 0x2
 1708 0690 7D       		.byte	0x7d
 1709 0691 00       		.sleb128 0
 1710 0692 01       		.uleb128 0x1
 1711 0693 31       		.byte	0x31
 1712 0694 00       		.byte	0
 1713 0695 13       		.uleb128 0x13
 1714 0696 FC010000 		.4byte	.LVL24
 1715 069a 380E0000 		.4byte	0xe38
 1716 069e A8060000 		.4byte	0x6a8
 1717 06a2 14       		.uleb128 0x14
 1718 06a3 01       		.uleb128 0x1
 1719 06a4 50       		.byte	0x50
 1720 06a5 01       		.uleb128 0x1
 1721 06a6 44       		.byte	0x44
 1722 06a7 00       		.byte	0
 1723 06a8 12       		.uleb128 0x12
 1724 06a9 00020000 		.4byte	.LVL25
 1725 06ad 490E0000 		.4byte	0xe49
 1726 06b1 13       		.uleb128 0x13
 1727 06b2 14020000 		.4byte	.LVL26
 1728 06b6 380E0000 		.4byte	0xe38
 1729 06ba C4060000 		.4byte	0x6c4
 1730 06be 14       		.uleb128 0x14
 1731 06bf 01       		.uleb128 0x1
 1732 06c0 50       		.byte	0x50
 1733 06c1 01       		.uleb128 0x1
 1734 06c2 44       		.byte	0x44
 1735 06c3 00       		.byte	0
 1736 06c4 12       		.uleb128 0x12
 1737 06c5 18020000 		.4byte	.LVL27
 1738 06c9 490E0000 		.4byte	0xe49
 1739 06cd 13       		.uleb128 0x13
 1740 06ce 22020000 		.4byte	.LVL29
 1741 06d2 380E0000 		.4byte	0xe38
 1742 06d6 E0060000 		.4byte	0x6e0
 1743 06da 14       		.uleb128 0x14
 1744 06db 01       		.uleb128 0x1
 1745 06dc 50       		.byte	0x50
 1746 06dd 01       		.uleb128 0x1
 1747 06de 44       		.byte	0x44
 1748 06df 00       		.byte	0
 1749 06e0 12       		.uleb128 0x12
 1750 06e1 26020000 		.4byte	.LVL30
 1751 06e5 490E0000 		.4byte	0xe49
 1752 06e9 12       		.uleb128 0x12
 1753 06ea 2E020000 		.4byte	.LVL32
 1754 06ee 500E0000 		.4byte	0xe50
 1755 06f2 12       		.uleb128 0x12
 1756 06f3 6E020000 		.4byte	.LVL33
 1757 06f7 F40D0000 		.4byte	0xdf4
 1758 06fb 13       		.uleb128 0x13
 1759 06fc B4020000 		.4byte	.LVL36
ARM GAS  C:\Users\Diego\AppData\Local\Temp\ccwc3itV.s 			page 36


 1760 0700 090E0000 		.4byte	0xe09
 1761 0704 26070000 		.4byte	0x726
 1762 0708 14       		.uleb128 0x14
 1763 0709 01       		.uleb128 0x1
 1764 070a 52       		.byte	0x52
 1765 070b 01       		.uleb128 0x1
 1766 070c 33       		.byte	0x33
 1767 070d 14       		.uleb128 0x14
 1768 070e 01       		.uleb128 0x1
 1769 070f 50       		.byte	0x50
 1770 0710 01       		.uleb128 0x1
 1771 0711 32       		.byte	0x32
 1772 0712 14       		.uleb128 0x14
 1773 0713 02       		.uleb128 0x2
 1774 0714 7D       		.byte	0x7d
 1775 0715 08       		.sleb128 8
 1776 0716 02       		.uleb128 0x2
 1777 0717 08       		.byte	0x8
 1778 0718 4E       		.byte	0x4e
 1779 0719 14       		.uleb128 0x14
 1780 071a 02       		.uleb128 0x2
 1781 071b 7D       		.byte	0x7d
 1782 071c 04       		.sleb128 4
 1783 071d 01       		.uleb128 0x1
 1784 071e 30       		.byte	0x30
 1785 071f 14       		.uleb128 0x14
 1786 0720 02       		.uleb128 0x2
 1787 0721 7D       		.byte	0x7d
 1788 0722 00       		.sleb128 0
 1789 0723 01       		.uleb128 0x1
 1790 0724 31       		.byte	0x31
 1791 0725 00       		.byte	0
 1792 0726 13       		.uleb128 0x13
 1793 0727 F0020000 		.4byte	.LVL39
 1794 072b 090E0000 		.4byte	0xe09
 1795 072f 57070000 		.4byte	0x757
 1796 0733 14       		.uleb128 0x14
 1797 0734 01       		.uleb128 0x1
 1798 0735 52       		.byte	0x52
 1799 0736 01       		.uleb128 0x1
 1800 0737 32       		.byte	0x32
 1801 0738 14       		.uleb128 0x14
 1802 0739 01       		.uleb128 0x1
 1803 073a 51       		.byte	0x51
 1804 073b 02       		.uleb128 0x2
 1805 073c 74       		.byte	0x74
 1806 073d 00       		.sleb128 0
 1807 073e 14       		.uleb128 0x14
 1808 073f 01       		.uleb128 0x1
 1809 0740 50       		.byte	0x50
 1810 0741 01       		.uleb128 0x1
 1811 0742 32       		.byte	0x32
 1812 0743 14       		.uleb128 0x14
 1813 0744 02       		.uleb128 0x2
 1814 0745 7D       		.byte	0x7d
 1815 0746 08       		.sleb128 8
 1816 0747 02       		.uleb128 0x2
ARM GAS  C:\Users\Diego\AppData\Local\Temp\ccwc3itV.s 			page 37


 1817 0748 08       		.byte	0x8
 1818 0749 4E       		.byte	0x4e
 1819 074a 14       		.uleb128 0x14
 1820 074b 02       		.uleb128 0x2
 1821 074c 7D       		.byte	0x7d
 1822 074d 04       		.sleb128 4
 1823 074e 01       		.uleb128 0x1
 1824 074f 30       		.byte	0x30
 1825 0750 14       		.uleb128 0x14
 1826 0751 02       		.uleb128 0x2
 1827 0752 7D       		.byte	0x7d
 1828 0753 00       		.sleb128 0
 1829 0754 01       		.uleb128 0x1
 1830 0755 31       		.byte	0x31
 1831 0756 00       		.byte	0
 1832 0757 13       		.uleb128 0x13
 1833 0758 36030000 		.4byte	.LVL42
 1834 075c 090E0000 		.4byte	0xe09
 1835 0760 82070000 		.4byte	0x782
 1836 0764 14       		.uleb128 0x14
 1837 0765 01       		.uleb128 0x1
 1838 0766 52       		.byte	0x52
 1839 0767 01       		.uleb128 0x1
 1840 0768 33       		.byte	0x33
 1841 0769 14       		.uleb128 0x14
 1842 076a 01       		.uleb128 0x1
 1843 076b 50       		.byte	0x50
 1844 076c 01       		.uleb128 0x1
 1845 076d 32       		.byte	0x32
 1846 076e 14       		.uleb128 0x14
 1847 076f 02       		.uleb128 0x2
 1848 0770 7D       		.byte	0x7d
 1849 0771 08       		.sleb128 8
 1850 0772 02       		.uleb128 0x2
 1851 0773 08       		.byte	0x8
 1852 0774 4E       		.byte	0x4e
 1853 0775 14       		.uleb128 0x14
 1854 0776 02       		.uleb128 0x2
 1855 0777 7D       		.byte	0x7d
 1856 0778 04       		.sleb128 4
 1857 0779 01       		.uleb128 0x1
 1858 077a 30       		.byte	0x30
 1859 077b 14       		.uleb128 0x14
 1860 077c 02       		.uleb128 0x2
 1861 077d 7D       		.byte	0x7d
 1862 077e 00       		.sleb128 0
 1863 077f 01       		.uleb128 0x1
 1864 0780 31       		.byte	0x31
 1865 0781 00       		.byte	0
 1866 0782 13       		.uleb128 0x13
 1867 0783 54030000 		.4byte	.LVL45
 1868 0787 090E0000 		.4byte	0xe09
 1869 078b B3070000 		.4byte	0x7b3
 1870 078f 14       		.uleb128 0x14
 1871 0790 01       		.uleb128 0x1
 1872 0791 52       		.byte	0x52
 1873 0792 01       		.uleb128 0x1
ARM GAS  C:\Users\Diego\AppData\Local\Temp\ccwc3itV.s 			page 38


 1874 0793 32       		.byte	0x32
 1875 0794 14       		.uleb128 0x14
 1876 0795 01       		.uleb128 0x1
 1877 0796 51       		.byte	0x51
 1878 0797 02       		.uleb128 0x2
 1879 0798 74       		.byte	0x74
 1880 0799 00       		.sleb128 0
 1881 079a 14       		.uleb128 0x14
 1882 079b 01       		.uleb128 0x1
 1883 079c 50       		.byte	0x50
 1884 079d 01       		.uleb128 0x1
 1885 079e 32       		.byte	0x32
 1886 079f 14       		.uleb128 0x14
 1887 07a0 02       		.uleb128 0x2
 1888 07a1 7D       		.byte	0x7d
 1889 07a2 08       		.sleb128 8
 1890 07a3 02       		.uleb128 0x2
 1891 07a4 08       		.byte	0x8
 1892 07a5 4E       		.byte	0x4e
 1893 07a6 14       		.uleb128 0x14
 1894 07a7 02       		.uleb128 0x2
 1895 07a8 7D       		.byte	0x7d
 1896 07a9 04       		.sleb128 4
 1897 07aa 01       		.uleb128 0x1
 1898 07ab 30       		.byte	0x30
 1899 07ac 14       		.uleb128 0x14
 1900 07ad 02       		.uleb128 0x2
 1901 07ae 7D       		.byte	0x7d
 1902 07af 00       		.sleb128 0
 1903 07b0 01       		.uleb128 0x1
 1904 07b1 31       		.byte	0x31
 1905 07b2 00       		.byte	0
 1906 07b3 13       		.uleb128 0x13
 1907 07b4 B0030000 		.4byte	.LVL48
 1908 07b8 090E0000 		.4byte	0xe09
 1909 07bc DE070000 		.4byte	0x7de
 1910 07c0 14       		.uleb128 0x14
 1911 07c1 01       		.uleb128 0x1
 1912 07c2 52       		.byte	0x52
 1913 07c3 01       		.uleb128 0x1
 1914 07c4 33       		.byte	0x33
 1915 07c5 14       		.uleb128 0x14
 1916 07c6 01       		.uleb128 0x1
 1917 07c7 50       		.byte	0x50
 1918 07c8 01       		.uleb128 0x1
 1919 07c9 32       		.byte	0x32
 1920 07ca 14       		.uleb128 0x14
 1921 07cb 02       		.uleb128 0x2
 1922 07cc 7D       		.byte	0x7d
 1923 07cd 08       		.sleb128 8
 1924 07ce 02       		.uleb128 0x2
 1925 07cf 08       		.byte	0x8
 1926 07d0 4E       		.byte	0x4e
 1927 07d1 14       		.uleb128 0x14
 1928 07d2 02       		.uleb128 0x2
 1929 07d3 7D       		.byte	0x7d
 1930 07d4 04       		.sleb128 4
ARM GAS  C:\Users\Diego\AppData\Local\Temp\ccwc3itV.s 			page 39


 1931 07d5 01       		.uleb128 0x1
 1932 07d6 30       		.byte	0x30
 1933 07d7 14       		.uleb128 0x14
 1934 07d8 02       		.uleb128 0x2
 1935 07d9 7D       		.byte	0x7d
 1936 07da 00       		.sleb128 0
 1937 07db 01       		.uleb128 0x1
 1938 07dc 31       		.byte	0x31
 1939 07dd 00       		.byte	0
 1940 07de 13       		.uleb128 0x13
 1941 07df CE030000 		.4byte	.LVL51
 1942 07e3 090E0000 		.4byte	0xe09
 1943 07e7 0F080000 		.4byte	0x80f
 1944 07eb 14       		.uleb128 0x14
 1945 07ec 01       		.uleb128 0x1
 1946 07ed 52       		.byte	0x52
 1947 07ee 01       		.uleb128 0x1
 1948 07ef 32       		.byte	0x32
 1949 07f0 14       		.uleb128 0x14
 1950 07f1 01       		.uleb128 0x1
 1951 07f2 51       		.byte	0x51
 1952 07f3 02       		.uleb128 0x2
 1953 07f4 74       		.byte	0x74
 1954 07f5 00       		.sleb128 0
 1955 07f6 14       		.uleb128 0x14
 1956 07f7 01       		.uleb128 0x1
 1957 07f8 50       		.byte	0x50
 1958 07f9 01       		.uleb128 0x1
 1959 07fa 32       		.byte	0x32
 1960 07fb 14       		.uleb128 0x14
 1961 07fc 02       		.uleb128 0x2
 1962 07fd 7D       		.byte	0x7d
 1963 07fe 08       		.sleb128 8
 1964 07ff 02       		.uleb128 0x2
 1965 0800 08       		.byte	0x8
 1966 0801 4E       		.byte	0x4e
 1967 0802 14       		.uleb128 0x14
 1968 0803 02       		.uleb128 0x2
 1969 0804 7D       		.byte	0x7d
 1970 0805 04       		.sleb128 4
 1971 0806 01       		.uleb128 0x1
 1972 0807 30       		.byte	0x30
 1973 0808 14       		.uleb128 0x14
 1974 0809 02       		.uleb128 0x2
 1975 080a 7D       		.byte	0x7d
 1976 080b 00       		.sleb128 0
 1977 080c 01       		.uleb128 0x1
 1978 080d 31       		.byte	0x31
 1979 080e 00       		.byte	0
 1980 080f 13       		.uleb128 0x13
 1981 0810 E2030000 		.4byte	.LVL52
 1982 0814 380E0000 		.4byte	0xe38
 1983 0818 22080000 		.4byte	0x822
 1984 081c 14       		.uleb128 0x14
 1985 081d 01       		.uleb128 0x1
 1986 081e 50       		.byte	0x50
 1987 081f 01       		.uleb128 0x1
ARM GAS  C:\Users\Diego\AppData\Local\Temp\ccwc3itV.s 			page 40


 1988 0820 44       		.byte	0x44
 1989 0821 00       		.byte	0
 1990 0822 12       		.uleb128 0x12
 1991 0823 E6030000 		.4byte	.LVL53
 1992 0827 5B0E0000 		.4byte	0xe5b
 1993 082b 13       		.uleb128 0x13
 1994 082c 04040000 		.4byte	.LVL54
 1995 0830 090E0000 		.4byte	0xe09
 1996 0834 5C080000 		.4byte	0x85c
 1997 0838 14       		.uleb128 0x14
 1998 0839 01       		.uleb128 0x1
 1999 083a 52       		.byte	0x52
 2000 083b 01       		.uleb128 0x1
 2001 083c 32       		.byte	0x32
 2002 083d 14       		.uleb128 0x14
 2003 083e 01       		.uleb128 0x1
 2004 083f 51       		.byte	0x51
 2005 0840 02       		.uleb128 0x2
 2006 0841 08       		.byte	0x8
 2007 0842 20       		.byte	0x20
 2008 0843 14       		.uleb128 0x14
 2009 0844 01       		.uleb128 0x1
 2010 0845 50       		.byte	0x50
 2011 0846 01       		.uleb128 0x1
 2012 0847 32       		.byte	0x32
 2013 0848 14       		.uleb128 0x14
 2014 0849 02       		.uleb128 0x2
 2015 084a 7D       		.byte	0x7d
 2016 084b 08       		.sleb128 8
 2017 084c 02       		.uleb128 0x2
 2018 084d 08       		.byte	0x8
 2019 084e 4E       		.byte	0x4e
 2020 084f 14       		.uleb128 0x14
 2021 0850 02       		.uleb128 0x2
 2022 0851 7D       		.byte	0x7d
 2023 0852 04       		.sleb128 4
 2024 0853 01       		.uleb128 0x1
 2025 0854 30       		.byte	0x30
 2026 0855 14       		.uleb128 0x14
 2027 0856 02       		.uleb128 0x2
 2028 0857 7D       		.byte	0x7d
 2029 0858 00       		.sleb128 0
 2030 0859 01       		.uleb128 0x1
 2031 085a 31       		.byte	0x31
 2032 085b 00       		.byte	0
 2033 085c 13       		.uleb128 0x13
 2034 085d 40040000 		.4byte	.LVL55
 2035 0861 380E0000 		.4byte	0xe38
 2036 0865 6F080000 		.4byte	0x86f
 2037 0869 14       		.uleb128 0x14
 2038 086a 01       		.uleb128 0x1
 2039 086b 50       		.byte	0x50
 2040 086c 01       		.uleb128 0x1
 2041 086d 44       		.byte	0x44
 2042 086e 00       		.byte	0
 2043 086f 12       		.uleb128 0x12
 2044 0870 44040000 		.4byte	.LVL56
ARM GAS  C:\Users\Diego\AppData\Local\Temp\ccwc3itV.s 			page 41


 2045 0874 5B0E0000 		.4byte	0xe5b
 2046 0878 13       		.uleb128 0x13
 2047 0879 58040000 		.4byte	.LVL57
 2048 087d 380E0000 		.4byte	0xe38
 2049 0881 8B080000 		.4byte	0x88b
 2050 0885 14       		.uleb128 0x14
 2051 0886 01       		.uleb128 0x1
 2052 0887 50       		.byte	0x50
 2053 0888 01       		.uleb128 0x1
 2054 0889 44       		.byte	0x44
 2055 088a 00       		.byte	0
 2056 088b 12       		.uleb128 0x12
 2057 088c 5C040000 		.4byte	.LVL58
 2058 0890 5B0E0000 		.4byte	0xe5b
 2059 0894 13       		.uleb128 0x13
 2060 0895 66040000 		.4byte	.LVL60
 2061 0899 380E0000 		.4byte	0xe38
 2062 089d A7080000 		.4byte	0x8a7
 2063 08a1 14       		.uleb128 0x14
 2064 08a2 01       		.uleb128 0x1
 2065 08a3 50       		.byte	0x50
 2066 08a4 01       		.uleb128 0x1
 2067 08a5 44       		.byte	0x44
 2068 08a6 00       		.byte	0
 2069 08a7 12       		.uleb128 0x12
 2070 08a8 6A040000 		.4byte	.LVL61
 2071 08ac 5B0E0000 		.4byte	0xe5b
 2072 08b0 00       		.byte	0
 2073 08b1 07       		.uleb128 0x7
 2074 08b2 AD000000 		.4byte	0xad
 2075 08b6 C1080000 		.4byte	0x8c1
 2076 08ba 08       		.uleb128 0x8
 2077 08bb 08010000 		.4byte	0x108
 2078 08bf 1F       		.byte	0x1f
 2079 08c0 00       		.byte	0
 2080 08c1 15       		.uleb128 0x15
 2081 08c2 B2070000 		.4byte	.LASF80
 2082 08c6 06       		.byte	0x6
 2083 08c7 3E01     		.2byte	0x13e
 2084 08c9 CD080000 		.4byte	0x8cd
 2085 08cd 06       		.uleb128 0x6
 2086 08ce B1080000 		.4byte	0x8b1
 2087 08d2 15       		.uleb128 0x15
 2088 08d3 13010000 		.4byte	.LASF81
 2089 08d7 07       		.byte	0x7
 2090 08d8 3E01     		.2byte	0x13e
 2091 08da DE080000 		.4byte	0x8de
 2092 08de 06       		.uleb128 0x6
 2093 08df B1080000 		.4byte	0x8b1
 2094 08e3 15       		.uleb128 0x15
 2095 08e4 28050000 		.4byte	.LASF82
 2096 08e8 08       		.byte	0x8
 2097 08e9 5506     		.2byte	0x655
 2098 08eb EF080000 		.4byte	0x8ef
 2099 08ef 06       		.uleb128 0x6
 2100 08f0 A2000000 		.4byte	0xa2
 2101 08f4 16       		.uleb128 0x16
ARM GAS  C:\Users\Diego\AppData\Local\Temp\ccwc3itV.s 			page 42


 2102 08f5 8F030000 		.4byte	.LASF83
 2103 08f9 05       		.byte	0x5
 2104 08fa 2C       		.byte	0x2c
 2105 08fb 05090000 		.4byte	0x905
 2106 08ff 05       		.uleb128 0x5
 2107 0900 03       		.byte	0x3
 2108 0901 00000000 		.4byte	countAnimation1
 2109 0905 06       		.uleb128 0x6
 2110 0906 DF000000 		.4byte	0xdf
 2111 090a 16       		.uleb128 0x16
 2112 090b CD030000 		.4byte	.LASF84
 2113 090f 05       		.byte	0x5
 2114 0910 2D       		.byte	0x2d
 2115 0911 05090000 		.4byte	0x905
 2116 0915 05       		.uleb128 0x5
 2117 0916 03       		.byte	0x3
 2118 0917 00000000 		.4byte	countAnimation2
 2119 091b 16       		.uleb128 0x16
 2120 091c 0E030000 		.4byte	.LASF85
 2121 0920 05       		.byte	0x5
 2122 0921 2E       		.byte	0x2e
 2123 0922 05090000 		.4byte	0x905
 2124 0926 05       		.uleb128 0x5
 2125 0927 03       		.byte	0x3
 2126 0928 00000000 		.4byte	countBeagleTX
 2127 092c 16       		.uleb128 0x16
 2128 092d A8070000 		.4byte	.LASF86
 2129 0931 05       		.byte	0x5
 2130 0932 2F       		.byte	0x2f
 2131 0933 05090000 		.4byte	0x905
 2132 0937 05       		.uleb128 0x5
 2133 0938 03       		.byte	0x3
 2134 0939 00000000 		.4byte	countPump
 2135 093d 16       		.uleb128 0x16
 2136 093e 75020000 		.4byte	.LASF87
 2137 0942 05       		.byte	0x5
 2138 0943 30       		.byte	0x30
 2139 0944 03010000 		.4byte	0x103
 2140 0948 05       		.uleb128 0x5
 2141 0949 03       		.byte	0x3
 2142 094a 00000000 		.4byte	flowDisplay1
 2143 094e 16       		.uleb128 0x16
 2144 094f 82020000 		.4byte	.LASF88
 2145 0953 05       		.byte	0x5
 2146 0954 31       		.byte	0x31
 2147 0955 03010000 		.4byte	0x103
 2148 0959 05       		.uleb128 0x5
 2149 095a 03       		.byte	0x3
 2150 095b 00000000 		.4byte	flowDisplay2
 2151 095f 16       		.uleb128 0x16
 2152 0960 8F020000 		.4byte	.LASF89
 2153 0964 05       		.byte	0x5
 2154 0965 32       		.byte	0x32
 2155 0966 03010000 		.4byte	0x103
 2156 096a 05       		.uleb128 0x5
 2157 096b 03       		.byte	0x3
 2158 096c 00000000 		.4byte	flowDisplay3
ARM GAS  C:\Users\Diego\AppData\Local\Temp\ccwc3itV.s 			page 43


 2159 0970 16       		.uleb128 0x16
 2160 0971 9C020000 		.4byte	.LASF90
 2161 0975 05       		.byte	0x5
 2162 0976 33       		.byte	0x33
 2163 0977 03010000 		.4byte	0x103
 2164 097b 05       		.uleb128 0x5
 2165 097c 03       		.byte	0x3
 2166 097d 00000000 		.4byte	flowDisplay4
 2167 0981 16       		.uleb128 0x16
 2168 0982 F6020000 		.4byte	.LASF91
 2169 0986 05       		.byte	0x5
 2170 0987 34       		.byte	0x34
 2171 0988 FE000000 		.4byte	0xfe
 2172 098c 05       		.uleb128 0x5
 2173 098d 03       		.byte	0x3
 2174 098e 00000000 		.4byte	numberKeys1
 2175 0992 16       		.uleb128 0x16
 2176 0993 02030000 		.4byte	.LASF92
 2177 0997 05       		.byte	0x5
 2178 0998 35       		.byte	0x35
 2179 0999 FE000000 		.4byte	0xfe
 2180 099d 05       		.uleb128 0x5
 2181 099e 03       		.byte	0x3
 2182 099f 00000000 		.4byte	numberKeys2
 2183 09a3 16       		.uleb128 0x16
 2184 09a4 AB040000 		.4byte	.LASF93
 2185 09a8 05       		.byte	0x5
 2186 09a9 36       		.byte	0x36
 2187 09aa FE000000 		.4byte	0xfe
 2188 09ae 05       		.uleb128 0x5
 2189 09af 03       		.byte	0x3
 2190 09b0 00000000 		.4byte	flagPoint1
 2191 09b4 16       		.uleb128 0x16
 2192 09b5 2F010000 		.4byte	.LASF94
 2193 09b9 05       		.byte	0x5
 2194 09ba 37       		.byte	0x37
 2195 09bb FE000000 		.4byte	0xfe
 2196 09bf 05       		.uleb128 0x5
 2197 09c0 03       		.byte	0x3
 2198 09c1 00000000 		.4byte	flagPoint2
 2199 09c5 16       		.uleb128 0x16
 2200 09c6 01020000 		.4byte	.LASF95
 2201 09ca 05       		.byte	0x5
 2202 09cb 38       		.byte	0x38
 2203 09cc FE000000 		.4byte	0xfe
 2204 09d0 05       		.uleb128 0x5
 2205 09d1 03       		.byte	0x3
 2206 09d2 00000000 		.4byte	productNumber
 2207 09d6 16       		.uleb128 0x16
 2208 09d7 F7050000 		.4byte	.LASF96
 2209 09db 05       		.byte	0x5
 2210 09dc 39       		.byte	0x39
 2211 09dd 03010000 		.4byte	0x103
 2212 09e1 05       		.uleb128 0x5
 2213 09e2 03       		.byte	0x3
 2214 09e3 00000000 		.4byte	delayPicture1
 2215 09e7 16       		.uleb128 0x16
ARM GAS  C:\Users\Diego\AppData\Local\Temp\ccwc3itV.s 			page 44


 2216 09e8 05060000 		.4byte	.LASF97
 2217 09ec 05       		.byte	0x5
 2218 09ed 3A       		.byte	0x3a
 2219 09ee 03010000 		.4byte	0x103
 2220 09f2 05       		.uleb128 0x5
 2221 09f3 03       		.byte	0x3
 2222 09f4 00000000 		.4byte	delayPicture2
 2223 09f8 16       		.uleb128 0x16
 2224 09f9 91040000 		.4byte	.LASF98
 2225 09fd 05       		.byte	0x5
 2226 09fe 3B       		.byte	0x3b
 2227 09ff FE000000 		.4byte	0xfe
 2228 0a03 05       		.uleb128 0x5
 2229 0a04 03       		.byte	0x3
 2230 0a05 00000000 		.4byte	ppux10
 2231 0a09 16       		.uleb128 0x16
 2232 0a0a 96000000 		.4byte	.LASF99
 2233 0a0e 05       		.byte	0x5
 2234 0a0f 3C       		.byte	0x3c
 2235 0a10 FE000000 		.4byte	0xfe
 2236 0a14 05       		.uleb128 0x5
 2237 0a15 03       		.byte	0x3
 2238 0a16 00000000 		.4byte	decimalMoney
 2239 0a1a 16       		.uleb128 0x16
 2240 0a1b 19000000 		.4byte	.LASF100
 2241 0a1f 05       		.byte	0x5
 2242 0a20 3D       		.byte	0x3d
 2243 0a21 FE000000 		.4byte	0xfe
 2244 0a25 05       		.uleb128 0x5
 2245 0a26 03       		.byte	0x3
 2246 0a27 00000000 		.4byte	decimalVolume
 2247 0a2b 16       		.uleb128 0x16
 2248 0a2c C8040000 		.4byte	.LASF101
 2249 0a30 05       		.byte	0x5
 2250 0a31 3E       		.byte	0x3e
 2251 0a32 3C0A0000 		.4byte	0xa3c
 2252 0a36 05       		.uleb128 0x5
 2253 0a37 03       		.byte	0x3
 2254 0a38 00000000 		.4byte	symbols
 2255 0a3c 06       		.uleb128 0x6
 2256 0a3d 63030000 		.4byte	0x363
 2257 0a41 07       		.uleb128 0x7
 2258 0a42 AD000000 		.4byte	0xad
 2259 0a46 510A0000 		.4byte	0xa51
 2260 0a4a 08       		.uleb128 0x8
 2261 0a4b 08010000 		.4byte	0x108
 2262 0a4f 02       		.byte	0x2
 2263 0a50 00       		.byte	0
 2264 0a51 16       		.uleb128 0x16
 2265 0a52 DA010000 		.4byte	.LASF102
 2266 0a56 05       		.byte	0x5
 2267 0a57 3F       		.byte	0x3f
 2268 0a58 620A0000 		.4byte	0xa62
 2269 0a5c 05       		.uleb128 0x5
 2270 0a5d 03       		.byte	0x3
 2271 0a5e 00000000 		.4byte	time
 2272 0a62 06       		.uleb128 0x6
ARM GAS  C:\Users\Diego\AppData\Local\Temp\ccwc3itV.s 			page 45


 2273 0a63 410A0000 		.4byte	0xa41
 2274 0a67 16       		.uleb128 0x16
 2275 0a68 23030000 		.4byte	.LASF103
 2276 0a6c 05       		.byte	0x5
 2277 0a6d 40       		.byte	0x40
 2278 0a6e 780A0000 		.4byte	0xa78
 2279 0a72 05       		.uleb128 0x5
 2280 0a73 03       		.byte	0x3
 2281 0a74 00000000 		.4byte	date
 2282 0a78 06       		.uleb128 0x6
 2283 0a79 410A0000 		.4byte	0xa41
 2284 0a7d 16       		.uleb128 0x16
 2285 0a7e 3A010000 		.4byte	.LASF104
 2286 0a82 05       		.byte	0x5
 2287 0a83 41       		.byte	0x41
 2288 0a84 8E0A0000 		.4byte	0xa8e
 2289 0a88 05       		.uleb128 0x5
 2290 0a89 03       		.byte	0x3
 2291 0a8a 00000000 		.4byte	screen
 2292 0a8e 06       		.uleb128 0x6
 2293 0a8f 63030000 		.4byte	0x363
 2294 0a93 16       		.uleb128 0x16
 2295 0a94 E1000000 		.4byte	.LASF105
 2296 0a98 05       		.byte	0x5
 2297 0a99 42       		.byte	0x42
 2298 0a9a A40A0000 		.4byte	0xaa4
 2299 0a9e 05       		.uleb128 0x5
 2300 0a9f 03       		.byte	0x3
 2301 0aa0 00000000 		.4byte	residue
 2302 0aa4 06       		.uleb128 0x6
 2303 0aa5 A9030000 		.4byte	0x3a9
 2304 0aa9 07       		.uleb128 0x7
 2305 0aaa AD000000 		.4byte	0xad
 2306 0aae B90A0000 		.4byte	0xab9
 2307 0ab2 08       		.uleb128 0x8
 2308 0ab3 08010000 		.4byte	0x108
 2309 0ab7 1D       		.byte	0x1d
 2310 0ab8 00       		.byte	0
 2311 0ab9 16       		.uleb128 0x16
 2312 0aba 45070000 		.4byte	.LASF106
 2313 0abe 05       		.byte	0x5
 2314 0abf 43       		.byte	0x43
 2315 0ac0 A90A0000 		.4byte	0xaa9
 2316 0ac4 05       		.uleb128 0x5
 2317 0ac5 03       		.byte	0x3
 2318 0ac6 00000000 		.4byte	temporal
 2319 0aca 16       		.uleb128 0x16
 2320 0acb 0F020000 		.4byte	.LASF107
 2321 0acf 05       		.byte	0x5
 2322 0ad0 44       		.byte	0x44
 2323 0ad1 DB0A0000 		.4byte	0xadb
 2324 0ad5 05       		.uleb128 0x5
 2325 0ad6 03       		.byte	0x3
 2326 0ad7 00000000 		.4byte	idSeller
 2327 0adb 06       		.uleb128 0x6
 2328 0adc 33030000 		.4byte	0x333
 2329 0ae0 16       		.uleb128 0x16
ARM GAS  C:\Users\Diego\AppData\Local\Temp\ccwc3itV.s 			page 46


 2330 0ae1 48050000 		.4byte	.LASF108
 2331 0ae5 05       		.byte	0x5
 2332 0ae6 45       		.byte	0x45
 2333 0ae7 FE000000 		.4byte	0xfe
 2334 0aeb 05       		.uleb128 0x5
 2335 0aec 03       		.byte	0x3
 2336 0aed 00000000 		.4byte	typeIdSeller
 2337 0af1 07       		.uleb128 0x7
 2338 0af2 AD000000 		.4byte	0xad
 2339 0af6 010B0000 		.4byte	0xb01
 2340 0afa 08       		.uleb128 0x8
 2341 0afb 08010000 		.4byte	0x108
 2342 0aff 07       		.byte	0x7
 2343 0b00 00       		.byte	0
 2344 0b01 16       		.uleb128 0x16
 2345 0b02 C7050000 		.4byte	.LASF109
 2346 0b06 05       		.byte	0x5
 2347 0b07 46       		.byte	0x46
 2348 0b08 120B0000 		.4byte	0xb12
 2349 0b0c 05       		.uleb128 0x5
 2350 0b0d 03       		.byte	0x3
 2351 0b0e 00000000 		.4byte	passwordSeller
 2352 0b12 06       		.uleb128 0x6
 2353 0b13 F10A0000 		.4byte	0xaf1
 2354 0b17 16       		.uleb128 0x16
 2355 0b18 0C040000 		.4byte	.LASF110
 2356 0b1c 05       		.byte	0x5
 2357 0b1d 47       		.byte	0x47
 2358 0b1e FE000000 		.4byte	0xfe
 2359 0b22 05       		.uleb128 0x5
 2360 0b23 03       		.byte	0x3
 2361 0b24 00000000 		.4byte	flagResetMux
 2362 0b28 16       		.uleb128 0x16
 2363 0b29 AC030000 		.4byte	.LASF111
 2364 0b2d 05       		.byte	0x5
 2365 0b2e 48       		.byte	0x48
 2366 0b2f FE000000 		.4byte	0xfe
 2367 0b33 05       		.uleb128 0x5
 2368 0b34 03       		.byte	0x3
 2369 0b35 00000000 		.4byte	stateBeagleSoft
 2370 0b39 16       		.uleb128 0x16
 2371 0b3a 27000000 		.4byte	.LASF112
 2372 0b3e 05       		.byte	0x5
 2373 0b3f 49       		.byte	0x49
 2374 0b40 4A0B0000 		.4byte	0xb4a
 2375 0b44 05       		.uleb128 0x5
 2376 0b45 03       		.byte	0x3
 2377 0b46 00000000 		.4byte	PrevStatePump
 2378 0b4a 06       		.uleb128 0x6
 2379 0b4b 0F010000 		.4byte	0x10f
 2380 0b4f 16       		.uleb128 0x16
 2381 0b50 4D010000 		.4byte	.LASF113
 2382 0b54 05       		.byte	0x5
 2383 0b55 4A       		.byte	0x4a
 2384 0b56 FE000000 		.4byte	0xfe
 2385 0b5a 05       		.uleb128 0x5
 2386 0b5b 03       		.byte	0x3
ARM GAS  C:\Users\Diego\AppData\Local\Temp\ccwc3itV.s 			page 47


 2387 0b5c 00000000 		.4byte	PlateRequest
 2388 0b60 16       		.uleb128 0x16
 2389 0b61 21050000 		.4byte	.LASF114
 2390 0b65 05       		.byte	0x5
 2391 0b66 4B       		.byte	0x4b
 2392 0b67 710B0000 		.4byte	0xb71
 2393 0b6b 05       		.uleb128 0x5
 2394 0b6c 03       		.byte	0x3
 2395 0b6d 00000000 		.4byte	IDCast
 2396 0b71 06       		.uleb128 0x6
 2397 0b72 63030000 		.4byte	0x363
 2398 0b76 16       		.uleb128 0x16
 2399 0b77 E7050000 		.4byte	.LASF115
 2400 0b7b 05       		.byte	0x5
 2401 0b7c 4D       		.byte	0x4d
 2402 0b7d AD000000 		.4byte	0xad
 2403 0b81 05       		.uleb128 0x5
 2404 0b82 03       		.byte	0x3
 2405 0b83 00000000 		.4byte	UnitType
 2406 0b87 16       		.uleb128 0x16
 2407 0b88 E5020000 		.4byte	.LASF116
 2408 0b8c 05       		.byte	0x5
 2409 0b8d 4D       		.byte	0x4d
 2410 0b8e AD000000 		.4byte	0xad
 2411 0b92 05       		.uleb128 0x5
 2412 0b93 03       		.byte	0x3
 2413 0b94 00000000 		.4byte	ConversionFactor
 2414 0b98 16       		.uleb128 0x16
 2415 0b99 6A010000 		.4byte	.LASF117
 2416 0b9d 05       		.byte	0x5
 2417 0b9e 4D       		.byte	0x4d
 2418 0b9f AD000000 		.4byte	0xad
 2419 0ba3 05       		.uleb128 0x5
 2420 0ba4 03       		.byte	0x3
 2421 0ba5 00000000 		.4byte	MoneyDec
 2422 0ba9 16       		.uleb128 0x16
 2423 0baa 4E070000 		.4byte	.LASF118
 2424 0bae 05       		.byte	0x5
 2425 0baf 4D       		.byte	0x4d
 2426 0bb0 AD000000 		.4byte	0xad
 2427 0bb4 05       		.uleb128 0x5
 2428 0bb5 03       		.byte	0x3
 2429 0bb6 00000000 		.4byte	VolDec
 2430 0bba 16       		.uleb128 0x16
 2431 0bbb 43060000 		.4byte	.LASF119
 2432 0bbf 05       		.byte	0x5
 2433 0bc0 4D       		.byte	0x4d
 2434 0bc1 AD000000 		.4byte	0xad
 2435 0bc5 05       		.uleb128 0x5
 2436 0bc6 03       		.byte	0x3
 2437 0bc7 00000000 		.4byte	PPUDec
 2438 0bcb 16       		.uleb128 0x16
 2439 0bcc F0000000 		.4byte	.LASF120
 2440 0bd0 05       		.byte	0x5
 2441 0bd1 4D       		.byte	0x4d
 2442 0bd2 AD000000 		.4byte	0xad
 2443 0bd6 05       		.uleb128 0x5
ARM GAS  C:\Users\Diego\AppData\Local\Temp\ccwc3itV.s 			page 48


 2444 0bd7 03       		.byte	0x3
 2445 0bd8 00000000 		.4byte	DDMode
 2446 0bdc 16       		.uleb128 0x16
 2447 0bdd 65000000 		.4byte	.LASF121
 2448 0be1 05       		.byte	0x5
 2449 0be2 4E       		.byte	0x4e
 2450 0be3 0F010000 		.4byte	0x10f
 2451 0be7 05       		.uleb128 0x5
 2452 0be8 03       		.byte	0x3
 2453 0be9 00000000 		.4byte	statePump
 2454 0bed 16       		.uleb128 0x16
 2455 0bee 9F030000 		.4byte	.LASF122
 2456 0bf2 05       		.byte	0x5
 2457 0bf3 4F       		.byte	0x4f
 2458 0bf4 AD000000 		.4byte	0xad
 2459 0bf8 05       		.uleb128 0x5
 2460 0bf9 03       		.byte	0x3
 2461 0bfa 00000000 		.4byte	NumPositions
 2462 0bfe 16       		.uleb128 0x16
 2463 0bff 21020000 		.4byte	.LASF123
 2464 0c03 05       		.byte	0x5
 2465 0c04 50       		.byte	0x50
 2466 0c05 AD000000 		.4byte	0xad
 2467 0c09 05       		.uleb128 0x5
 2468 0c0a 03       		.byte	0x3
 2469 0c0b 00000000 		.4byte	lockTurn
 2470 0c0f 16       		.uleb128 0x16
 2471 0c10 D3010000 		.4byte	.LASF124
 2472 0c14 05       		.byte	0x5
 2473 0c15 51       		.byte	0x51
 2474 0c16 AD000000 		.4byte	0xad
 2475 0c1a 05       		.uleb128 0x5
 2476 0c1b 03       		.byte	0x3
 2477 0c1c 00000000 		.4byte	digits
 2478 0c20 16       		.uleb128 0x16
 2479 0c21 35050000 		.4byte	.LASF125
 2480 0c25 05       		.byte	0x5
 2481 0c26 52       		.byte	0x52
 2482 0c27 AD000000 		.4byte	0xad
 2483 0c2b 05       		.uleb128 0x5
 2484 0c2c 03       		.byte	0x3
 2485 0c2d 00000000 		.4byte	hiddenKeys
 2486 0c31 16       		.uleb128 0x16
 2487 0c32 BC000000 		.4byte	.LASF126
 2488 0c36 05       		.byte	0x5
 2489 0c37 53       		.byte	0x53
 2490 0c38 AD000000 		.4byte	0xad
 2491 0c3c 05       		.uleb128 0x5
 2492 0c3d 03       		.byte	0x3
 2493 0c3e 00000000 		.4byte	PrinterType
 2494 0c42 07       		.uleb128 0x7
 2495 0c43 EB000000 		.4byte	0xeb
 2496 0c47 520C0000 		.4byte	0xc52
 2497 0c4b 08       		.uleb128 0x8
 2498 0c4c 08010000 		.4byte	0x108
 2499 0c50 05       		.byte	0x5
 2500 0c51 00       		.byte	0
ARM GAS  C:\Users\Diego\AppData\Local\Temp\ccwc3itV.s 			page 49


 2501 0c52 16       		.uleb128 0x16
 2502 0c53 19050000 		.4byte	.LASF127
 2503 0c57 05       		.byte	0x5
 2504 0c58 54       		.byte	0x54
 2505 0c59 420C0000 		.4byte	0xc42
 2506 0c5d 05       		.uleb128 0x5
 2507 0c5e 03       		.byte	0x3
 2508 0c5f 00000000 		.4byte	VolUnit
 2509 0c63 16       		.uleb128 0x16
 2510 0c64 D0040000 		.4byte	.LASF128
 2511 0c68 05       		.byte	0x5
 2512 0c69 55       		.byte	0x55
 2513 0c6a 410A0000 		.4byte	0xa41
 2514 0c6e 05       		.uleb128 0x5
 2515 0c6f 03       		.byte	0x3
 2516 0c70 00000000 		.4byte	dateDownHandle
 2517 0c74 16       		.uleb128 0x16
 2518 0c75 DD030000 		.4byte	.LASF129
 2519 0c79 05       		.byte	0x5
 2520 0c7a 56       		.byte	0x56
 2521 0c7b 63030000 		.4byte	0x363
 2522 0c7f 05       		.uleb128 0x5
 2523 0c80 03       		.byte	0x3
 2524 0c81 00000000 		.4byte	timeDownHandle
 2525 0c85 16       		.uleb128 0x16
 2526 0c86 85070000 		.4byte	.LASF130
 2527 0c8a 05       		.byte	0x5
 2528 0c8b 57       		.byte	0x57
 2529 0c8c AD000000 		.4byte	0xad
 2530 0c90 05       		.uleb128 0x5
 2531 0c91 03       		.byte	0x3
 2532 0c92 00000000 		.4byte	count_protector
 2533 0c96 16       		.uleb128 0x16
 2534 0c97 08000000 		.4byte	.LASF131
 2535 0c9b 05       		.byte	0x5
 2536 0c9c 57       		.byte	0x57
 2537 0c9d AD000000 		.4byte	0xad
 2538 0ca1 05       		.uleb128 0x5
 2539 0ca2 03       		.byte	0x3
 2540 0ca3 00000000 		.4byte	count_protector2
 2541 0ca7 16       		.uleb128 0x16
 2542 0ca8 BB010000 		.4byte	.LASF132
 2543 0cac 05       		.byte	0x5
 2544 0cad 58       		.byte	0x58
 2545 0cae 89030000 		.4byte	0x389
 2546 0cb2 05       		.uleb128 0x5
 2547 0cb3 03       		.byte	0x3
 2548 0cb4 00000000 		.4byte	configAccess
 2549 0cb8 16       		.uleb128 0x16
 2550 0cb9 41010000 		.4byte	.LASF133
 2551 0cbd 05       		.byte	0x5
 2552 0cbe 59       		.byte	0x59
 2553 0cbf AD000000 		.4byte	0xad
 2554 0cc3 05       		.uleb128 0x5
 2555 0cc4 03       		.byte	0x3
 2556 0cc5 00000000 		.4byte	controlChar
 2557 0cc9 07       		.uleb128 0x7
ARM GAS  C:\Users\Diego\AppData\Local\Temp\ccwc3itV.s 			page 50


 2558 0cca EB000000 		.4byte	0xeb
 2559 0cce D90C0000 		.4byte	0xcd9
 2560 0cd2 08       		.uleb128 0x8
 2561 0cd3 08010000 		.4byte	0x108
 2562 0cd7 04       		.byte	0x4
 2563 0cd8 00       		.byte	0
 2564 0cd9 16       		.uleb128 0x16
 2565 0cda FC000000 		.4byte	.LASF134
 2566 0cde 05       		.byte	0x5
 2567 0cdf 5A       		.byte	0x5a
 2568 0ce0 C90C0000 		.4byte	0xcc9
 2569 0ce4 05       		.uleb128 0x5
 2570 0ce5 03       		.byte	0x3
 2571 0ce6 00000000 		.4byte	idStation
 2572 0cea 16       		.uleb128 0x16
 2573 0ceb 45080000 		.4byte	.LASF135
 2574 0cef 05       		.byte	0x5
 2575 0cf0 5B       		.byte	0x5b
 2576 0cf1 410A0000 		.4byte	0xa41
 2577 0cf5 05       		.uleb128 0x5
 2578 0cf6 03       		.byte	0x3
 2579 0cf7 00000000 		.4byte	pumpGap
 2580 0cfb 16       		.uleb128 0x16
 2581 0cfc DF010000 		.4byte	.LASF136
 2582 0d00 05       		.byte	0x5
 2583 0d01 5C       		.byte	0x5c
 2584 0d02 AD000000 		.4byte	0xad
 2585 0d06 05       		.uleb128 0x5
 2586 0d07 03       		.byte	0x3
 2587 0d08 00000000 		.4byte	printPortA
 2588 0d0c 16       		.uleb128 0x16
 2589 0d0d EA010000 		.4byte	.LASF137
 2590 0d11 05       		.byte	0x5
 2591 0d12 5D       		.byte	0x5d
 2592 0d13 AD000000 		.4byte	0xad
 2593 0d17 05       		.uleb128 0x5
 2594 0d18 03       		.byte	0x3
 2595 0d19 00000000 		.4byte	printPortB
 2596 0d1d 07       		.uleb128 0x7
 2597 0d1e AD000000 		.4byte	0xad
 2598 0d22 2E0D0000 		.4byte	0xd2e
 2599 0d26 17       		.uleb128 0x17
 2600 0d27 08010000 		.4byte	0x108
 2601 0d2b DB05     		.2byte	0x5db
 2602 0d2d 00       		.byte	0
 2603 0d2e 16       		.uleb128 0x16
 2604 0d2f 8C000000 		.4byte	.LASF138
 2605 0d33 05       		.byte	0x5
 2606 0d34 5E       		.byte	0x5e
 2607 0d35 1D0D0000 		.4byte	0xd1d
 2608 0d39 05       		.uleb128 0x5
 2609 0d3a 03       		.byte	0x3
 2610 0d3b 00000000 		.4byte	buffer_rf
 2611 0d3f 16       		.uleb128 0x16
 2612 0d40 5A010000 		.4byte	.LASF139
 2613 0d44 05       		.byte	0x5
 2614 0d45 5F       		.byte	0x5f
ARM GAS  C:\Users\Diego\AppData\Local\Temp\ccwc3itV.s 			page 51


 2615 0d46 1D0D0000 		.4byte	0xd1d
 2616 0d4a 05       		.uleb128 0x5
 2617 0d4b 03       		.byte	0x3
 2618 0d4c 00000000 		.4byte	buffer_tx
 2619 0d50 16       		.uleb128 0x16
 2620 0d51 A1050000 		.4byte	.LASF140
 2621 0d55 05       		.byte	0x5
 2622 0d56 60       		.byte	0x60
 2623 0d57 B9000000 		.4byte	0xb9
 2624 0d5b 05       		.uleb128 0x5
 2625 0d5c 03       		.byte	0x3
 2626 0d5d 00000000 		.4byte	intIDStation
 2627 0d61 16       		.uleb128 0x16
 2628 0d62 1C060000 		.4byte	.LASF141
 2629 0d66 05       		.byte	0x5
 2630 0d67 61       		.byte	0x61
 2631 0d68 A90A0000 		.4byte	0xaa9
 2632 0d6c 05       		.uleb128 0x5
 2633 0d6d 03       		.byte	0x3
 2634 0d6e 00000000 		.4byte	Encabezado1
 2635 0d72 16       		.uleb128 0x16
 2636 0d73 0B050000 		.4byte	.LASF142
 2637 0d77 05       		.byte	0x5
 2638 0d78 62       		.byte	0x62
 2639 0d79 AD000000 		.4byte	0xad
 2640 0d7d 05       		.uleb128 0x5
 2641 0d7e 03       		.byte	0x3
 2642 0d7f 00000000 		.4byte	CopiasCredito
 2643 0d83 16       		.uleb128 0x16
 2644 0d84 35000000 		.4byte	.LASF143
 2645 0d88 05       		.byte	0x5
 2646 0d89 63       		.byte	0x63
 2647 0d8a 89030000 		.4byte	0x389
 2648 0d8e 05       		.uleb128 0x5
 2649 0d8f 03       		.byte	0x3
 2650 0d90 00000000 		.4byte	GradesHose
 2651 0d94 16       		.uleb128 0x16
 2652 0d95 36080000 		.4byte	.LASF144
 2653 0d99 05       		.byte	0x5
 2654 0d9a 9A       		.byte	0x9a
 2655 0d9b 1F010000 		.4byte	0x11f
 2656 0d9f 05       		.uleb128 0x5
 2657 0da0 03       		.byte	0x3
 2658 0da1 00000000 		.4byte	bufferDisplay1
 2659 0da5 16       		.uleb128 0x16
 2660 0da6 92050000 		.4byte	.LASF145
 2661 0daa 05       		.byte	0x5
 2662 0dab 9B       		.byte	0x9b
 2663 0dac 1F010000 		.4byte	0x11f
 2664 0db0 05       		.uleb128 0x5
 2665 0db1 03       		.byte	0x3
 2666 0db2 00000000 		.4byte	bufferDisplay2
 2667 0db6 16       		.uleb128 0x16
 2668 0db7 78010000 		.4byte	.LASF146
 2669 0dbb 05       		.byte	0x5
 2670 0dbc 9C       		.byte	0x9c
 2671 0dbd 1F010000 		.4byte	0x11f
ARM GAS  C:\Users\Diego\AppData\Local\Temp\ccwc3itV.s 			page 52


 2672 0dc1 05       		.uleb128 0x5
 2673 0dc2 03       		.byte	0x3
 2674 0dc3 00000000 		.4byte	bufferDisplay3
 2675 0dc7 16       		.uleb128 0x16
 2676 0dc8 AE050000 		.4byte	.LASF147
 2677 0dcc 05       		.byte	0x5
 2678 0dcd 9D       		.byte	0x9d
 2679 0dce 1F010000 		.4byte	0x11f
 2680 0dd2 05       		.uleb128 0x5
 2681 0dd3 03       		.byte	0x3
 2682 0dd4 00000000 		.4byte	bufferDisplay4
 2683 0dd8 16       		.uleb128 0x16
 2684 0dd9 F7000000 		.4byte	.LASF148
 2685 0ddd 05       		.byte	0x5
 2686 0dde BC       		.byte	0xbc
 2687 0ddf 94040000 		.4byte	0x494
 2688 0de3 05       		.uleb128 0x5
 2689 0de4 03       		.byte	0x3
 2690 0de5 00000000 		.4byte	side
 2691 0de9 18       		.uleb128 0x18
 2692 0dea 15070000 		.4byte	.LASF151
 2693 0dee 06       		.byte	0x6
 2694 0def 73       		.byte	0x73
 2695 0df0 AD000000 		.4byte	0xad
 2696 0df4 19       		.uleb128 0x19
 2697 0df5 25010000 		.4byte	.LASF160
 2698 0df9 09       		.byte	0x9
 2699 0dfa 2B       		.byte	0x2b
 2700 0dfb EB000000 		.4byte	0xeb
 2701 0dff 090E0000 		.4byte	0xe09
 2702 0e03 1A       		.uleb128 0x1a
 2703 0e04 AD000000 		.4byte	0xad
 2704 0e08 00       		.byte	0
 2705 0e09 1B       		.uleb128 0x1b
 2706 0e0a 9E010000 		.4byte	.LASF149
 2707 0e0e 09       		.byte	0x9
 2708 0e0f 24       		.byte	0x24
 2709 0e10 380E0000 		.4byte	0xe38
 2710 0e14 1A       		.uleb128 0x1a
 2711 0e15 8C000000 		.4byte	0x8c
 2712 0e19 1A       		.uleb128 0x1a
 2713 0e1a 8C000000 		.4byte	0x8c
 2714 0e1e 1A       		.uleb128 0x1a
 2715 0e1f 97000000 		.4byte	0x97
 2716 0e23 1A       		.uleb128 0x1a
 2717 0e24 97000000 		.4byte	0x97
 2718 0e28 1A       		.uleb128 0x1a
 2719 0e29 8C000000 		.4byte	0x8c
 2720 0e2d 1A       		.uleb128 0x1a
 2721 0e2e 97000000 		.4byte	0x97
 2722 0e32 1A       		.uleb128 0x1a
 2723 0e33 8C000000 		.4byte	0x8c
 2724 0e37 00       		.byte	0
 2725 0e38 1B       		.uleb128 0x1b
 2726 0e39 00000000 		.4byte	.LASF150
 2727 0e3d 0A       		.byte	0xa
 2728 0e3e 77       		.byte	0x77
ARM GAS  C:\Users\Diego\AppData\Local\Temp\ccwc3itV.s 			page 53


 2729 0e3f 490E0000 		.4byte	0xe49
 2730 0e43 1A       		.uleb128 0x1a
 2731 0e44 C5000000 		.4byte	0xc5
 2732 0e48 00       		.byte	0
 2733 0e49 1C       		.uleb128 0x1c
 2734 0e4a E6070000 		.4byte	.LASF153
 2735 0e4e 06       		.byte	0x6
 2736 0e4f 75       		.byte	0x75
 2737 0e50 18       		.uleb128 0x18
 2738 0e51 40000000 		.4byte	.LASF152
 2739 0e55 07       		.byte	0x7
 2740 0e56 73       		.byte	0x73
 2741 0e57 AD000000 		.4byte	0xad
 2742 0e5b 1C       		.uleb128 0x1c
 2743 0e5c 55050000 		.4byte	.LASF154
 2744 0e60 07       		.byte	0x7
 2745 0e61 75       		.byte	0x75
 2746 0e62 00       		.byte	0
 2747              		.section	.debug_abbrev,"",%progbits
 2748              	.Ldebug_abbrev0:
 2749 0000 01       		.uleb128 0x1
 2750 0001 11       		.uleb128 0x11
 2751 0002 01       		.byte	0x1
 2752 0003 25       		.uleb128 0x25
 2753 0004 0E       		.uleb128 0xe
 2754 0005 13       		.uleb128 0x13
 2755 0006 0B       		.uleb128 0xb
 2756 0007 03       		.uleb128 0x3
 2757 0008 0E       		.uleb128 0xe
 2758 0009 1B       		.uleb128 0x1b
 2759 000a 0E       		.uleb128 0xe
 2760 000b 55       		.uleb128 0x55
 2761 000c 17       		.uleb128 0x17
 2762 000d 11       		.uleb128 0x11
 2763 000e 01       		.uleb128 0x1
 2764 000f 10       		.uleb128 0x10
 2765 0010 17       		.uleb128 0x17
 2766 0011 00       		.byte	0
 2767 0012 00       		.byte	0
 2768 0013 02       		.uleb128 0x2
 2769 0014 24       		.uleb128 0x24
 2770 0015 00       		.byte	0
 2771 0016 0B       		.uleb128 0xb
 2772 0017 0B       		.uleb128 0xb
 2773 0018 3E       		.uleb128 0x3e
 2774 0019 0B       		.uleb128 0xb
 2775 001a 03       		.uleb128 0x3
 2776 001b 0E       		.uleb128 0xe
 2777 001c 00       		.byte	0
 2778 001d 00       		.byte	0
 2779 001e 03       		.uleb128 0x3
 2780 001f 16       		.uleb128 0x16
 2781 0020 00       		.byte	0
 2782 0021 03       		.uleb128 0x3
 2783 0022 0E       		.uleb128 0xe
 2784 0023 3A       		.uleb128 0x3a
 2785 0024 0B       		.uleb128 0xb
ARM GAS  C:\Users\Diego\AppData\Local\Temp\ccwc3itV.s 			page 54


 2786 0025 3B       		.uleb128 0x3b
 2787 0026 0B       		.uleb128 0xb
 2788 0027 49       		.uleb128 0x49
 2789 0028 13       		.uleb128 0x13
 2790 0029 00       		.byte	0
 2791 002a 00       		.byte	0
 2792 002b 04       		.uleb128 0x4
 2793 002c 24       		.uleb128 0x24
 2794 002d 00       		.byte	0
 2795 002e 0B       		.uleb128 0xb
 2796 002f 0B       		.uleb128 0xb
 2797 0030 3E       		.uleb128 0x3e
 2798 0031 0B       		.uleb128 0xb
 2799 0032 03       		.uleb128 0x3
 2800 0033 08       		.uleb128 0x8
 2801 0034 00       		.byte	0
 2802 0035 00       		.byte	0
 2803 0036 05       		.uleb128 0x5
 2804 0037 16       		.uleb128 0x16
 2805 0038 00       		.byte	0
 2806 0039 03       		.uleb128 0x3
 2807 003a 0E       		.uleb128 0xe
 2808 003b 3A       		.uleb128 0x3a
 2809 003c 0B       		.uleb128 0xb
 2810 003d 3B       		.uleb128 0x3b
 2811 003e 05       		.uleb128 0x5
 2812 003f 49       		.uleb128 0x49
 2813 0040 13       		.uleb128 0x13
 2814 0041 00       		.byte	0
 2815 0042 00       		.byte	0
 2816 0043 06       		.uleb128 0x6
 2817 0044 35       		.uleb128 0x35
 2818 0045 00       		.byte	0
 2819 0046 49       		.uleb128 0x49
 2820 0047 13       		.uleb128 0x13
 2821 0048 00       		.byte	0
 2822 0049 00       		.byte	0
 2823 004a 07       		.uleb128 0x7
 2824 004b 01       		.uleb128 0x1
 2825 004c 01       		.byte	0x1
 2826 004d 49       		.uleb128 0x49
 2827 004e 13       		.uleb128 0x13
 2828 004f 01       		.uleb128 0x1
 2829 0050 13       		.uleb128 0x13
 2830 0051 00       		.byte	0
 2831 0052 00       		.byte	0
 2832 0053 08       		.uleb128 0x8
 2833 0054 21       		.uleb128 0x21
 2834 0055 00       		.byte	0
 2835 0056 49       		.uleb128 0x49
 2836 0057 13       		.uleb128 0x13
 2837 0058 2F       		.uleb128 0x2f
 2838 0059 0B       		.uleb128 0xb
 2839 005a 00       		.byte	0
 2840 005b 00       		.byte	0
 2841 005c 09       		.uleb128 0x9
 2842 005d 13       		.uleb128 0x13
ARM GAS  C:\Users\Diego\AppData\Local\Temp\ccwc3itV.s 			page 55


 2843 005e 01       		.byte	0x1
 2844 005f 03       		.uleb128 0x3
 2845 0060 0E       		.uleb128 0xe
 2846 0061 0B       		.uleb128 0xb
 2847 0062 05       		.uleb128 0x5
 2848 0063 3A       		.uleb128 0x3a
 2849 0064 0B       		.uleb128 0xb
 2850 0065 3B       		.uleb128 0x3b
 2851 0066 0B       		.uleb128 0xb
 2852 0067 01       		.uleb128 0x1
 2853 0068 13       		.uleb128 0x13
 2854 0069 00       		.byte	0
 2855 006a 00       		.byte	0
 2856 006b 0A       		.uleb128 0xa
 2857 006c 0D       		.uleb128 0xd
 2858 006d 00       		.byte	0
 2859 006e 03       		.uleb128 0x3
 2860 006f 0E       		.uleb128 0xe
 2861 0070 3A       		.uleb128 0x3a
 2862 0071 0B       		.uleb128 0xb
 2863 0072 3B       		.uleb128 0x3b
 2864 0073 0B       		.uleb128 0xb
 2865 0074 49       		.uleb128 0x49
 2866 0075 13       		.uleb128 0x13
 2867 0076 38       		.uleb128 0x38
 2868 0077 0B       		.uleb128 0xb
 2869 0078 00       		.byte	0
 2870 0079 00       		.byte	0
 2871 007a 0B       		.uleb128 0xb
 2872 007b 0D       		.uleb128 0xd
 2873 007c 00       		.byte	0
 2874 007d 03       		.uleb128 0x3
 2875 007e 0E       		.uleb128 0xe
 2876 007f 3A       		.uleb128 0x3a
 2877 0080 0B       		.uleb128 0xb
 2878 0081 3B       		.uleb128 0x3b
 2879 0082 0B       		.uleb128 0xb
 2880 0083 49       		.uleb128 0x49
 2881 0084 13       		.uleb128 0x13
 2882 0085 38       		.uleb128 0x38
 2883 0086 05       		.uleb128 0x5
 2884 0087 00       		.byte	0
 2885 0088 00       		.byte	0
 2886 0089 0C       		.uleb128 0xc
 2887 008a 0D       		.uleb128 0xd
 2888 008b 00       		.byte	0
 2889 008c 03       		.uleb128 0x3
 2890 008d 08       		.uleb128 0x8
 2891 008e 3A       		.uleb128 0x3a
 2892 008f 0B       		.uleb128 0xb
 2893 0090 3B       		.uleb128 0x3b
 2894 0091 0B       		.uleb128 0xb
 2895 0092 49       		.uleb128 0x49
 2896 0093 13       		.uleb128 0x13
 2897 0094 38       		.uleb128 0x38
 2898 0095 0B       		.uleb128 0xb
 2899 0096 00       		.byte	0
ARM GAS  C:\Users\Diego\AppData\Local\Temp\ccwc3itV.s 			page 56


 2900 0097 00       		.byte	0
 2901 0098 0D       		.uleb128 0xd
 2902 0099 0D       		.uleb128 0xd
 2903 009a 00       		.byte	0
 2904 009b 03       		.uleb128 0x3
 2905 009c 08       		.uleb128 0x8
 2906 009d 3A       		.uleb128 0x3a
 2907 009e 0B       		.uleb128 0xb
 2908 009f 3B       		.uleb128 0x3b
 2909 00a0 0B       		.uleb128 0xb
 2910 00a1 49       		.uleb128 0x49
 2911 00a2 13       		.uleb128 0x13
 2912 00a3 38       		.uleb128 0x38
 2913 00a4 05       		.uleb128 0x5
 2914 00a5 00       		.byte	0
 2915 00a6 00       		.byte	0
 2916 00a7 0E       		.uleb128 0xe
 2917 00a8 2E       		.uleb128 0x2e
 2918 00a9 01       		.byte	0x1
 2919 00aa 3F       		.uleb128 0x3f
 2920 00ab 19       		.uleb128 0x19
 2921 00ac 03       		.uleb128 0x3
 2922 00ad 0E       		.uleb128 0xe
 2923 00ae 3A       		.uleb128 0x3a
 2924 00af 0B       		.uleb128 0xb
 2925 00b0 3B       		.uleb128 0x3b
 2926 00b1 0B       		.uleb128 0xb
 2927 00b2 27       		.uleb128 0x27
 2928 00b3 19       		.uleb128 0x19
 2929 00b4 49       		.uleb128 0x49
 2930 00b5 13       		.uleb128 0x13
 2931 00b6 11       		.uleb128 0x11
 2932 00b7 01       		.uleb128 0x1
 2933 00b8 12       		.uleb128 0x12
 2934 00b9 06       		.uleb128 0x6
 2935 00ba 40       		.uleb128 0x40
 2936 00bb 18       		.uleb128 0x18
 2937 00bc 9742     		.uleb128 0x2117
 2938 00be 19       		.uleb128 0x19
 2939 00bf 01       		.uleb128 0x1
 2940 00c0 13       		.uleb128 0x13
 2941 00c1 00       		.byte	0
 2942 00c2 00       		.byte	0
 2943 00c3 0F       		.uleb128 0xf
 2944 00c4 05       		.uleb128 0x5
 2945 00c5 00       		.byte	0
 2946 00c6 03       		.uleb128 0x3
 2947 00c7 08       		.uleb128 0x8
 2948 00c8 3A       		.uleb128 0x3a
 2949 00c9 0B       		.uleb128 0xb
 2950 00ca 3B       		.uleb128 0x3b
 2951 00cb 0B       		.uleb128 0xb
 2952 00cc 49       		.uleb128 0x49
 2953 00cd 13       		.uleb128 0x13
 2954 00ce 02       		.uleb128 0x2
 2955 00cf 17       		.uleb128 0x17
 2956 00d0 00       		.byte	0
ARM GAS  C:\Users\Diego\AppData\Local\Temp\ccwc3itV.s 			page 57


 2957 00d1 00       		.byte	0
 2958 00d2 10       		.uleb128 0x10
 2959 00d3 05       		.uleb128 0x5
 2960 00d4 00       		.byte	0
 2961 00d5 03       		.uleb128 0x3
 2962 00d6 0E       		.uleb128 0xe
 2963 00d7 3A       		.uleb128 0x3a
 2964 00d8 0B       		.uleb128 0xb
 2965 00d9 3B       		.uleb128 0x3b
 2966 00da 0B       		.uleb128 0xb
 2967 00db 49       		.uleb128 0x49
 2968 00dc 13       		.uleb128 0x13
 2969 00dd 02       		.uleb128 0x2
 2970 00de 17       		.uleb128 0x17
 2971 00df 00       		.byte	0
 2972 00e0 00       		.byte	0
 2973 00e1 11       		.uleb128 0x11
 2974 00e2 34       		.uleb128 0x34
 2975 00e3 00       		.byte	0
 2976 00e4 03       		.uleb128 0x3
 2977 00e5 0E       		.uleb128 0xe
 2978 00e6 3A       		.uleb128 0x3a
 2979 00e7 0B       		.uleb128 0xb
 2980 00e8 3B       		.uleb128 0x3b
 2981 00e9 0B       		.uleb128 0xb
 2982 00ea 49       		.uleb128 0x49
 2983 00eb 13       		.uleb128 0x13
 2984 00ec 02       		.uleb128 0x2
 2985 00ed 17       		.uleb128 0x17
 2986 00ee 00       		.byte	0
 2987 00ef 00       		.byte	0
 2988 00f0 12       		.uleb128 0x12
 2989 00f1 898201   		.uleb128 0x4109
 2990 00f4 00       		.byte	0
 2991 00f5 11       		.uleb128 0x11
 2992 00f6 01       		.uleb128 0x1
 2993 00f7 31       		.uleb128 0x31
 2994 00f8 13       		.uleb128 0x13
 2995 00f9 00       		.byte	0
 2996 00fa 00       		.byte	0
 2997 00fb 13       		.uleb128 0x13
 2998 00fc 898201   		.uleb128 0x4109
 2999 00ff 01       		.byte	0x1
 3000 0100 11       		.uleb128 0x11
 3001 0101 01       		.uleb128 0x1
 3002 0102 31       		.uleb128 0x31
 3003 0103 13       		.uleb128 0x13
 3004 0104 01       		.uleb128 0x1
 3005 0105 13       		.uleb128 0x13
 3006 0106 00       		.byte	0
 3007 0107 00       		.byte	0
 3008 0108 14       		.uleb128 0x14
 3009 0109 8A8201   		.uleb128 0x410a
 3010 010c 00       		.byte	0
 3011 010d 02       		.uleb128 0x2
 3012 010e 18       		.uleb128 0x18
 3013 010f 9142     		.uleb128 0x2111
ARM GAS  C:\Users\Diego\AppData\Local\Temp\ccwc3itV.s 			page 58


 3014 0111 18       		.uleb128 0x18
 3015 0112 00       		.byte	0
 3016 0113 00       		.byte	0
 3017 0114 15       		.uleb128 0x15
 3018 0115 34       		.uleb128 0x34
 3019 0116 00       		.byte	0
 3020 0117 03       		.uleb128 0x3
 3021 0118 0E       		.uleb128 0xe
 3022 0119 3A       		.uleb128 0x3a
 3023 011a 0B       		.uleb128 0xb
 3024 011b 3B       		.uleb128 0x3b
 3025 011c 05       		.uleb128 0x5
 3026 011d 49       		.uleb128 0x49
 3027 011e 13       		.uleb128 0x13
 3028 011f 3F       		.uleb128 0x3f
 3029 0120 19       		.uleb128 0x19
 3030 0121 3C       		.uleb128 0x3c
 3031 0122 19       		.uleb128 0x19
 3032 0123 00       		.byte	0
 3033 0124 00       		.byte	0
 3034 0125 16       		.uleb128 0x16
 3035 0126 34       		.uleb128 0x34
 3036 0127 00       		.byte	0
 3037 0128 03       		.uleb128 0x3
 3038 0129 0E       		.uleb128 0xe
 3039 012a 3A       		.uleb128 0x3a
 3040 012b 0B       		.uleb128 0xb
 3041 012c 3B       		.uleb128 0x3b
 3042 012d 0B       		.uleb128 0xb
 3043 012e 49       		.uleb128 0x49
 3044 012f 13       		.uleb128 0x13
 3045 0130 3F       		.uleb128 0x3f
 3046 0131 19       		.uleb128 0x19
 3047 0132 02       		.uleb128 0x2
 3048 0133 18       		.uleb128 0x18
 3049 0134 00       		.byte	0
 3050 0135 00       		.byte	0
 3051 0136 17       		.uleb128 0x17
 3052 0137 21       		.uleb128 0x21
 3053 0138 00       		.byte	0
 3054 0139 49       		.uleb128 0x49
 3055 013a 13       		.uleb128 0x13
 3056 013b 2F       		.uleb128 0x2f
 3057 013c 05       		.uleb128 0x5
 3058 013d 00       		.byte	0
 3059 013e 00       		.byte	0
 3060 013f 18       		.uleb128 0x18
 3061 0140 2E       		.uleb128 0x2e
 3062 0141 00       		.byte	0
 3063 0142 3F       		.uleb128 0x3f
 3064 0143 19       		.uleb128 0x19
 3065 0144 03       		.uleb128 0x3
 3066 0145 0E       		.uleb128 0xe
 3067 0146 3A       		.uleb128 0x3a
 3068 0147 0B       		.uleb128 0xb
 3069 0148 3B       		.uleb128 0x3b
 3070 0149 0B       		.uleb128 0xb
ARM GAS  C:\Users\Diego\AppData\Local\Temp\ccwc3itV.s 			page 59


 3071 014a 27       		.uleb128 0x27
 3072 014b 19       		.uleb128 0x19
 3073 014c 49       		.uleb128 0x49
 3074 014d 13       		.uleb128 0x13
 3075 014e 3C       		.uleb128 0x3c
 3076 014f 19       		.uleb128 0x19
 3077 0150 00       		.byte	0
 3078 0151 00       		.byte	0
 3079 0152 19       		.uleb128 0x19
 3080 0153 2E       		.uleb128 0x2e
 3081 0154 01       		.byte	0x1
 3082 0155 3F       		.uleb128 0x3f
 3083 0156 19       		.uleb128 0x19
 3084 0157 03       		.uleb128 0x3
 3085 0158 0E       		.uleb128 0xe
 3086 0159 3A       		.uleb128 0x3a
 3087 015a 0B       		.uleb128 0xb
 3088 015b 3B       		.uleb128 0x3b
 3089 015c 0B       		.uleb128 0xb
 3090 015d 27       		.uleb128 0x27
 3091 015e 19       		.uleb128 0x19
 3092 015f 49       		.uleb128 0x49
 3093 0160 13       		.uleb128 0x13
 3094 0161 3C       		.uleb128 0x3c
 3095 0162 19       		.uleb128 0x19
 3096 0163 01       		.uleb128 0x1
 3097 0164 13       		.uleb128 0x13
 3098 0165 00       		.byte	0
 3099 0166 00       		.byte	0
 3100 0167 1A       		.uleb128 0x1a
 3101 0168 05       		.uleb128 0x5
 3102 0169 00       		.byte	0
 3103 016a 49       		.uleb128 0x49
 3104 016b 13       		.uleb128 0x13
 3105 016c 00       		.byte	0
 3106 016d 00       		.byte	0
 3107 016e 1B       		.uleb128 0x1b
 3108 016f 2E       		.uleb128 0x2e
 3109 0170 01       		.byte	0x1
 3110 0171 3F       		.uleb128 0x3f
 3111 0172 19       		.uleb128 0x19
 3112 0173 03       		.uleb128 0x3
 3113 0174 0E       		.uleb128 0xe
 3114 0175 3A       		.uleb128 0x3a
 3115 0176 0B       		.uleb128 0xb
 3116 0177 3B       		.uleb128 0x3b
 3117 0178 0B       		.uleb128 0xb
 3118 0179 27       		.uleb128 0x27
 3119 017a 19       		.uleb128 0x19
 3120 017b 3C       		.uleb128 0x3c
 3121 017c 19       		.uleb128 0x19
 3122 017d 01       		.uleb128 0x1
 3123 017e 13       		.uleb128 0x13
 3124 017f 00       		.byte	0
 3125 0180 00       		.byte	0
 3126 0181 1C       		.uleb128 0x1c
 3127 0182 2E       		.uleb128 0x2e
ARM GAS  C:\Users\Diego\AppData\Local\Temp\ccwc3itV.s 			page 60


 3128 0183 00       		.byte	0
 3129 0184 3F       		.uleb128 0x3f
 3130 0185 19       		.uleb128 0x19
 3131 0186 03       		.uleb128 0x3
 3132 0187 0E       		.uleb128 0xe
 3133 0188 3A       		.uleb128 0x3a
 3134 0189 0B       		.uleb128 0xb
 3135 018a 3B       		.uleb128 0x3b
 3136 018b 0B       		.uleb128 0xb
 3137 018c 27       		.uleb128 0x27
 3138 018d 19       		.uleb128 0x19
 3139 018e 3C       		.uleb128 0x3c
 3140 018f 19       		.uleb128 0x19
 3141 0190 00       		.byte	0
 3142 0191 00       		.byte	0
 3143 0192 00       		.byte	0
 3144              		.section	.debug_loc,"",%progbits
 3145              	.Ldebug_loc0:
 3146              	.LLST0:
 3147 0000 00000000 		.4byte	.LVL0
 3148 0004 11000000 		.4byte	.LVL1-1
 3149 0008 0100     		.2byte	0x1
 3150 000a 50       		.byte	0x50
 3151 000b 11000000 		.4byte	.LVL1-1
 3152 000f 2A020000 		.4byte	.LVL31
 3153 0013 0400     		.2byte	0x4
 3154 0015 F3       		.byte	0xf3
 3155 0016 01       		.uleb128 0x1
 3156 0017 50       		.byte	0x50
 3157 0018 9F       		.byte	0x9f
 3158 0019 2A020000 		.4byte	.LVL31
 3159 001d 2D020000 		.4byte	.LVL32-1
 3160 0021 0100     		.2byte	0x1
 3161 0023 50       		.byte	0x50
 3162 0024 2D020000 		.4byte	.LVL32-1
 3163 0028 8C040000 		.4byte	.LFE63
 3164 002c 0400     		.2byte	0x4
 3165 002e F3       		.byte	0xf3
 3166 002f 01       		.uleb128 0x1
 3167 0030 50       		.byte	0x50
 3168 0031 9F       		.byte	0x9f
 3169 0032 00000000 		.4byte	0
 3170 0036 00000000 		.4byte	0
 3171              	.LLST1:
 3172 003a 00000000 		.4byte	.LVL0
 3173 003e 11000000 		.4byte	.LVL1-1
 3174 0042 0100     		.2byte	0x1
 3175 0044 51       		.byte	0x51
 3176 0045 11000000 		.4byte	.LVL1-1
 3177 0049 2A020000 		.4byte	.LVL31
 3178 004d 0400     		.2byte	0x4
 3179 004f F3       		.byte	0xf3
 3180 0050 01       		.uleb128 0x1
 3181 0051 51       		.byte	0x51
 3182 0052 9F       		.byte	0x9f
 3183 0053 2A020000 		.4byte	.LVL31
 3184 0057 2D020000 		.4byte	.LVL32-1
ARM GAS  C:\Users\Diego\AppData\Local\Temp\ccwc3itV.s 			page 61


 3185 005b 0100     		.2byte	0x1
 3186 005d 51       		.byte	0x51
 3187 005e 2D020000 		.4byte	.LVL32-1
 3188 0062 8C040000 		.4byte	.LFE63
 3189 0066 0400     		.2byte	0x4
 3190 0068 F3       		.byte	0xf3
 3191 0069 01       		.uleb128 0x1
 3192 006a 51       		.byte	0x51
 3193 006b 9F       		.byte	0x9f
 3194 006c 00000000 		.4byte	0
 3195 0070 00000000 		.4byte	0
 3196              	.LLST2:
 3197 0074 00000000 		.4byte	.LVL0
 3198 0078 11000000 		.4byte	.LVL1-1
 3199 007c 0100     		.2byte	0x1
 3200 007e 52       		.byte	0x52
 3201 007f 11000000 		.4byte	.LVL1-1
 3202 0083 2A020000 		.4byte	.LVL31
 3203 0087 0400     		.2byte	0x4
 3204 0089 F3       		.byte	0xf3
 3205 008a 01       		.uleb128 0x1
 3206 008b 52       		.byte	0x52
 3207 008c 9F       		.byte	0x9f
 3208 008d 2A020000 		.4byte	.LVL31
 3209 0091 2D020000 		.4byte	.LVL32-1
 3210 0095 0100     		.2byte	0x1
 3211 0097 52       		.byte	0x52
 3212 0098 2D020000 		.4byte	.LVL32-1
 3213 009c 8C040000 		.4byte	.LFE63
 3214 00a0 0400     		.2byte	0x4
 3215 00a2 F3       		.byte	0xf3
 3216 00a3 01       		.uleb128 0x1
 3217 00a4 52       		.byte	0x52
 3218 00a5 9F       		.byte	0x9f
 3219 00a6 00000000 		.4byte	0
 3220 00aa 00000000 		.4byte	0
 3221              	.LLST3:
 3222 00ae 54000000 		.4byte	.LVL3
 3223 00b2 84000000 		.4byte	.LVL4
 3224 00b6 0100     		.2byte	0x1
 3225 00b8 50       		.byte	0x50
 3226 00b9 98000000 		.4byte	.LVL6
 3227 00bd 9E000000 		.4byte	.LVL7
 3228 00c1 0100     		.2byte	0x1
 3229 00c3 50       		.byte	0x50
 3230 00c4 B4000000 		.4byte	.LVL9
 3231 00c8 E4000000 		.4byte	.LVL10
 3232 00cc 0100     		.2byte	0x1
 3233 00ce 50       		.byte	0x50
 3234 00cf E4000000 		.4byte	.LVL10
 3235 00d3 F8000000 		.4byte	.LVL12
 3236 00d7 0100     		.2byte	0x1
 3237 00d9 56       		.byte	0x56
 3238 00da F8000000 		.4byte	.LVL12
 3239 00de FE000000 		.4byte	.LVL13
 3240 00e2 0100     		.2byte	0x1
 3241 00e4 50       		.byte	0x50
ARM GAS  C:\Users\Diego\AppData\Local\Temp\ccwc3itV.s 			page 62


 3242 00e5 FE000000 		.4byte	.LVL13
 3243 00e9 14010000 		.4byte	.LVL15
 3244 00ed 0100     		.2byte	0x1
 3245 00ef 56       		.byte	0x56
 3246 00f0 14010000 		.4byte	.LVL15
 3247 00f4 58010000 		.4byte	.LVL16
 3248 00f8 0100     		.2byte	0x1
 3249 00fa 50       		.byte	0x50
 3250 00fb 6C010000 		.4byte	.LVL18
 3251 00ff 72010000 		.4byte	.LVL19
 3252 0103 0100     		.2byte	0x1
 3253 0105 50       		.byte	0x50
 3254 0106 86010000 		.4byte	.LVL20
 3255 010a 1C020000 		.4byte	.LVL28
 3256 010e 0100     		.2byte	0x1
 3257 0110 56       		.byte	0x56
 3258 0111 70020000 		.4byte	.LVL34
 3259 0115 AC020000 		.4byte	.LVL35
 3260 0119 0100     		.2byte	0x1
 3261 011b 50       		.byte	0x50
 3262 011c D4020000 		.4byte	.LVL37
 3263 0120 E6020000 		.4byte	.LVL38
 3264 0124 0100     		.2byte	0x1
 3265 0126 50       		.byte	0x50
 3266 0127 F2020000 		.4byte	.LVL40
 3267 012b 2E030000 		.4byte	.LVL41
 3268 012f 0100     		.2byte	0x1
 3269 0131 50       		.byte	0x50
 3270 0132 2E030000 		.4byte	.LVL41
 3271 0136 38030000 		.4byte	.LVL43
 3272 013a 0100     		.2byte	0x1
 3273 013c 56       		.byte	0x56
 3274 013d 38030000 		.4byte	.LVL43
 3275 0141 4A030000 		.4byte	.LVL44
 3276 0145 0100     		.2byte	0x1
 3277 0147 50       		.byte	0x50
 3278 0148 4A030000 		.4byte	.LVL44
 3279 014c 56030000 		.4byte	.LVL46
 3280 0150 0100     		.2byte	0x1
 3281 0152 56       		.byte	0x56
 3282 0153 56030000 		.4byte	.LVL46
 3283 0157 A8030000 		.4byte	.LVL47
 3284 015b 0100     		.2byte	0x1
 3285 015d 50       		.byte	0x50
 3286 015e B2030000 		.4byte	.LVL49
 3287 0162 C4030000 		.4byte	.LVL50
 3288 0166 0100     		.2byte	0x1
 3289 0168 50       		.byte	0x50
 3290 0169 CE030000 		.4byte	.LVL51
 3291 016d 60040000 		.4byte	.LVL59
 3292 0171 0100     		.2byte	0x1
 3293 0173 56       		.byte	0x56
 3294 0174 00000000 		.4byte	0
 3295 0178 00000000 		.4byte	0
 3296              		.section	.debug_aranges,"",%progbits
 3297 0000 1C000000 		.4byte	0x1c
 3298 0004 0200     		.2byte	0x2
ARM GAS  C:\Users\Diego\AppData\Local\Temp\ccwc3itV.s 			page 63


 3299 0006 00000000 		.4byte	.Ldebug_info0
 3300 000a 04       		.byte	0x4
 3301 000b 00       		.byte	0
 3302 000c 0000     		.2byte	0
 3303 000e 0000     		.2byte	0
 3304 0010 00000000 		.4byte	.LFB63
 3305 0014 8C040000 		.4byte	.LFE63-.LFB63
 3306 0018 00000000 		.4byte	0
 3307 001c 00000000 		.4byte	0
 3308              		.section	.debug_ranges,"",%progbits
 3309              	.Ldebug_ranges0:
 3310 0000 00000000 		.4byte	.LFB63
 3311 0004 8C040000 		.4byte	.LFE63
 3312 0008 00000000 		.4byte	0
 3313 000c 00000000 		.4byte	0
 3314              		.section	.debug_line,"",%progbits
 3315              	.Ldebug_line0:
 3316 0000 3D020000 		.section	.debug_str,"MS",%progbits,1
 3316      02009001 
 3316      00000201 
 3316      FB0E0D00 
 3316      01010101 
 3317              	.LASF150:
 3318 0000 43794465 		.ascii	"CyDelay\000"
 3318      6C617900 
 3319              	.LASF131:
 3320 0008 636F756E 		.ascii	"count_protector2\000"
 3320      745F7072 
 3320      6F746563 
 3320      746F7232 
 3320      00
 3321              	.LASF100:
 3322 0019 64656369 		.ascii	"decimalVolume\000"
 3322      6D616C56 
 3322      6F6C756D 
 3322      6500
 3323              	.LASF112:
 3324 0027 50726576 		.ascii	"PrevStatePump\000"
 3324      53746174 
 3324      6550756D 
 3324      7000
 3325              	.LASF143:
 3326 0035 47726164 		.ascii	"GradesHose\000"
 3326      6573486F 
 3326      736500
 3327              	.LASF152:
 3328 0040 44697370 		.ascii	"Display2_GetRxBufferSize\000"
 3328      6C617932 
 3328      5F476574 
 3328      52784275 
 3328      66666572 
 3329              	.LASF57:
 3330 0059 766F6C75 		.ascii	"volumeQuota\000"
 3330      6D655175 
 3330      6F746100 
 3331              	.LASF121:
 3332 0065 73746174 		.ascii	"statePump\000"
ARM GAS  C:\Users\Diego\AppData\Local\Temp\ccwc3itV.s 			page 64


 3332      6550756D 
 3332      7000
 3333              	.LASF66:
 3334 006f 62756666 		.ascii	"buffer\000"
 3334      657200
 3335              	.LASF158:
 3336 0076 616C7068 		.ascii	"alphanumeric_keyboard\000"
 3336      616E756D 
 3336      65726963 
 3336      5F6B6579 
 3336      626F6172 
 3337              	.LASF138:
 3338 008c 62756666 		.ascii	"buffer_rf\000"
 3338      65725F72 
 3338      6600
 3339              	.LASF99:
 3340 0096 64656369 		.ascii	"decimalMoney\000"
 3340      6D616C4D 
 3340      6F6E6579 
 3340      00
 3341              	.LASF36:
 3342 00a3 73616C65 		.ascii	"salePerform\000"
 3342      50657266 
 3342      6F726D00 
 3343              	.LASF11:
 3344 00af 756E7369 		.ascii	"unsigned int\000"
 3344      676E6564 
 3344      20696E74 
 3344      00
 3345              	.LASF126:
 3346 00bc 5072696E 		.ascii	"PrinterType\000"
 3346      74657254 
 3346      79706500 
 3347              	.LASF6:
 3348 00c8 5F5F696E 		.ascii	"__int32_t\000"
 3348      7433325F 
 3348      7400
 3349              	.LASF54:
 3350 00d2 666C6167 		.ascii	"flagLiftHandle\000"
 3350      4C696674 
 3350      48616E64 
 3350      6C6500
 3351              	.LASF105:
 3352 00e1 72657369 		.ascii	"residue\000"
 3352      64756500 
 3353              	.LASF24:
 3354 00e9 69645479 		.ascii	"idType\000"
 3354      706500
 3355              	.LASF120:
 3356 00f0 44444D6F 		.ascii	"DDMode\000"
 3356      646500
 3357              	.LASF148:
 3358 00f7 73696465 		.ascii	"side\000"
 3358      00
 3359              	.LASF134:
 3360 00fc 69645374 		.ascii	"idStation\000"
 3360      6174696F 
ARM GAS  C:\Users\Diego\AppData\Local\Temp\ccwc3itV.s 			page 65


 3360      6E00
 3361              	.LASF28:
 3362 0106 73656C65 		.ascii	"selectedSale\000"
 3362      63746564 
 3362      53616C65 
 3362      00
 3363              	.LASF81:
 3364 0113 44697370 		.ascii	"Display2_rxBuffer\000"
 3364      6C617932 
 3364      5F727842 
 3364      75666665 
 3364      7200
 3365              	.LASF160:
 3366 0125 556E6D61 		.ascii	"UnmapCode\000"
 3366      70436F64 
 3366      6500
 3367              	.LASF94:
 3368 012f 666C6167 		.ascii	"flagPoint2\000"
 3368      506F696E 
 3368      743200
 3369              	.LASF104:
 3370 013a 73637265 		.ascii	"screen\000"
 3370      656E00
 3371              	.LASF133:
 3372 0141 636F6E74 		.ascii	"controlChar\000"
 3372      726F6C43 
 3372      68617200 
 3373              	.LASF113:
 3374 014d 506C6174 		.ascii	"PlateRequest\000"
 3374      65526571 
 3374      75657374 
 3374      00
 3375              	.LASF139:
 3376 015a 62756666 		.ascii	"buffer_tx\000"
 3376      65725F74 
 3376      7800
 3377              	.LASF18:
 3378 0164 666C6F61 		.ascii	"float\000"
 3378      7400
 3379              	.LASF117:
 3380 016a 4D6F6E65 		.ascii	"MoneyDec\000"
 3380      79446563 
 3380      00
 3381              	.LASF75:
 3382 0173 686F7365 		.ascii	"hose\000"
 3382      00
 3383              	.LASF146:
 3384 0178 62756666 		.ascii	"bufferDisplay3\000"
 3384      65724469 
 3384      73706C61 
 3384      793300
 3385              	.LASF10:
 3386 0187 6C6F6E67 		.ascii	"long long unsigned int\000"
 3386      206C6F6E 
 3386      6720756E 
 3386      7369676E 
 3386      65642069 
ARM GAS  C:\Users\Diego\AppData\Local\Temp\ccwc3itV.s 			page 66


 3387              	.LASF149:
 3388 019e 57726974 		.ascii	"WriteLCD\000"
 3388      654C4344 
 3388      00
 3389              	.LASF44:
 3390 01a7 746F7461 		.ascii	"totalVolumePrevious\000"
 3390      6C566F6C 
 3390      756D6550 
 3390      72657669 
 3390      6F757300 
 3391              	.LASF132:
 3392 01bb 636F6E66 		.ascii	"configAccess\000"
 3392      69674163 
 3392      63657373 
 3392      00
 3393              	.LASF4:
 3394 01c8 5F5F7569 		.ascii	"__uint16_t\000"
 3394      6E743136 
 3394      5F7400
 3395              	.LASF124:
 3396 01d3 64696769 		.ascii	"digits\000"
 3396      747300
 3397              	.LASF102:
 3398 01da 74696D65 		.ascii	"time\000"
 3398      00
 3399              	.LASF136:
 3400 01df 7072696E 		.ascii	"printPortA\000"
 3400      74506F72 
 3400      744100
 3401              	.LASF137:
 3402 01ea 7072696E 		.ascii	"printPortB\000"
 3402      74506F72 
 3402      744200
 3403              	.LASF39:
 3404 01f5 70726F64 		.ascii	"productType\000"
 3404      75637454 
 3404      79706500 
 3405              	.LASF95:
 3406 0201 70726F64 		.ascii	"productNumber\000"
 3406      7563744E 
 3406      756D6265 
 3406      7200
 3407              	.LASF107:
 3408 020f 69645365 		.ascii	"idSeller\000"
 3408      6C6C6572 
 3408      00
 3409              	.LASF25:
 3410 0218 69645365 		.ascii	"idSerial\000"
 3410      7269616C 
 3410      00
 3411              	.LASF123:
 3412 0221 6C6F636B 		.ascii	"lockTurn\000"
 3412      5475726E 
 3412      00
 3413              	.LASF159:
 3414 022a 50726573 		.ascii	"PressedKey\000"
 3414      7365644B 
ARM GAS  C:\Users\Diego\AppData\Local\Temp\ccwc3itV.s 			page 67


 3414      657900
 3415              	.LASF156:
 3416 0235 2E5C6B65 		.ascii	".\\keyboard.c\000"
 3416      79626F61 
 3416      72642E63 
 3416      00
 3417              	.LASF50:
 3418 0242 6D696C65 		.ascii	"mileageSale\000"
 3418      61676553 
 3418      616C6500 
 3419              	.LASF61:
 3420 024e 666C6167 		.ascii	"flagChangePPU\000"
 3420      4368616E 
 3420      67655050 
 3420      5500
 3421              	.LASF79:
 3422 025c 63686172 		.ascii	"character\000"
 3422      61637465 
 3422      7200
 3423              	.LASF63:
 3424 0266 666C6167 		.ascii	"flagActiveSale\000"
 3424      41637469 
 3424      76655361 
 3424      6C6500
 3425              	.LASF87:
 3426 0275 666C6F77 		.ascii	"flowDisplay1\000"
 3426      44697370 
 3426      6C617931 
 3426      00
 3427              	.LASF88:
 3428 0282 666C6F77 		.ascii	"flowDisplay2\000"
 3428      44697370 
 3428      6C617932 
 3428      00
 3429              	.LASF89:
 3430 028f 666C6F77 		.ascii	"flowDisplay3\000"
 3430      44697370 
 3430      6C617933 
 3430      00
 3431              	.LASF90:
 3432 029c 666C6F77 		.ascii	"flowDisplay4\000"
 3432      44697370 
 3432      6C617934 
 3432      00
 3433              	.LASF68:
 3434 02a9 746F7461 		.ascii	"totalsHandle\000"
 3434      6C734861 
 3434      6E646C65 
 3434      00
 3435              	.LASF38:
 3436 02b6 70726573 		.ascii	"presetValue\000"
 3436      65745661 
 3436      6C756500 
 3437              	.LASF51:
 3438 02c2 6964656E 		.ascii	"identySale\000"
 3438      74795361 
 3438      6C6500
ARM GAS  C:\Users\Diego\AppData\Local\Temp\ccwc3itV.s 			page 68


 3439              	.LASF35:
 3440 02cd 73616C65 		.ascii	"saleType\000"
 3440      54797065 
 3440      00
 3441              	.LASF33:
 3442 02d6 76616C75 		.ascii	"valueKeys\000"
 3442      654B6579 
 3442      7300
 3443              	.LASF22:
 3444 02e0 63686172 		.ascii	"char\000"
 3444      00
 3445              	.LASF116:
 3446 02e5 436F6E76 		.ascii	"ConversionFactor\000"
 3446      65727369 
 3446      6F6E4661 
 3446      63746F72 
 3446      00
 3447              	.LASF91:
 3448 02f6 6E756D62 		.ascii	"numberKeys1\000"
 3448      65724B65 
 3448      79733100 
 3449              	.LASF92:
 3450 0302 6E756D62 		.ascii	"numberKeys2\000"
 3450      65724B65 
 3450      79733200 
 3451              	.LASF85:
 3452 030e 636F756E 		.ascii	"countBeagleTX\000"
 3452      74426561 
 3452      676C6554 
 3452      5800
 3453              	.LASF16:
 3454 031c 75696E74 		.ascii	"uint16\000"
 3454      313600
 3455              	.LASF103:
 3456 0323 64617465 		.ascii	"date\000"
 3456      00
 3457              	.LASF12:
 3458 0328 75696E74 		.ascii	"uint8_t\000"
 3458      385F7400 
 3459              	.LASF53:
 3460 0330 666C6167 		.ascii	"flagPayment\000"
 3460      5061796D 
 3460      656E7400 
 3461              	.LASF21:
 3462 033c 63686172 		.ascii	"char8\000"
 3462      3800
 3463              	.LASF58:
 3464 0342 70707551 		.ascii	"ppuQuota\000"
 3464      756F7461 
 3464      00
 3465              	.LASF46:
 3466 034b 746F7461 		.ascii	"totalMoneyAfter\000"
 3466      6C4D6F6E 
 3466      65794166 
 3466      74657200 
 3467              	.LASF56:
 3468 035b 6D6F6E65 		.ascii	"moneyQuota\000"
ARM GAS  C:\Users\Diego\AppData\Local\Temp\ccwc3itV.s 			page 69


 3468      7951756F 
 3468      746100
 3469              	.LASF60:
 3470 0366 7072696E 		.ascii	"printers\000"
 3470      74657273 
 3470      00
 3471              	.LASF70:
 3472 036f 6D6F6E65 		.ascii	"moneySale\000"
 3472      7953616C 
 3472      6500
 3473              	.LASF9:
 3474 0379 6C6F6E67 		.ascii	"long long int\000"
 3474      206C6F6E 
 3474      6720696E 
 3474      7400
 3475              	.LASF72:
 3476 0387 70707553 		.ascii	"ppuSale\000"
 3476      616C6500 
 3477              	.LASF83:
 3478 038f 636F756E 		.ascii	"countAnimation1\000"
 3478      74416E69 
 3478      6D617469 
 3478      6F6E3100 
 3479              	.LASF122:
 3480 039f 4E756D50 		.ascii	"NumPositions\000"
 3480      6F736974 
 3480      696F6E73 
 3480      00
 3481              	.LASF111:
 3482 03ac 73746174 		.ascii	"stateBeagleSoft\000"
 3482      65426561 
 3482      676C6553 
 3482      6F667400 
 3483              	.LASF45:
 3484 03bc 746F7461 		.ascii	"totalPPUPrevious\000"
 3484      6C505055 
 3484      50726576 
 3484      696F7573 
 3484      00
 3485              	.LASF84:
 3486 03cd 636F756E 		.ascii	"countAnimation2\000"
 3486      74416E69 
 3486      6D617469 
 3486      6F6E3200 
 3487              	.LASF129:
 3488 03dd 74696D65 		.ascii	"timeDownHandle\000"
 3488      446F776E 
 3488      48616E64 
 3488      6C6500
 3489              	.LASF34:
 3490 03ec 76656869 		.ascii	"vehicleType\000"
 3490      636C6554 
 3490      79706500 
 3491              	.LASF52:
 3492 03f8 666C6167 		.ascii	"flagKeyboard\000"
 3492      4B657962 
 3492      6F617264 
ARM GAS  C:\Users\Diego\AppData\Local\Temp\ccwc3itV.s 			page 70


 3492      00
 3493              	.LASF17:
 3494 0405 75696E74 		.ascii	"uint32\000"
 3494      333200
 3495              	.LASF110:
 3496 040c 666C6167 		.ascii	"flagResetMux\000"
 3496      52657365 
 3496      744D7578 
 3496      00
 3497              	.LASF78:
 3498 0419 6D61784E 		.ascii	"maxNumberKeys\000"
 3498      756D6265 
 3498      724B6579 
 3498      7300
 3499              	.LASF157:
 3500 0427 433A5C55 		.ascii	"C:\\Users\\Diego\\Documents\\GitHub\\NSY-DH\\Worksp"
 3500      73657273 
 3500      5C446965 
 3500      676F5C44 
 3500      6F63756D 
 3501 0454 61636530 		.ascii	"ace01\\Design01.cydsn\000"
 3501      315C4465 
 3501      7369676E 
 3501      30312E63 
 3501      7964736E 
 3502              	.LASF48:
 3503 0469 746F7461 		.ascii	"totalPPUAfter\000"
 3503      6C505055 
 3503      41667465 
 3503      7200
 3504              	.LASF13:
 3505 0477 75696E74 		.ascii	"uint16_t\000"
 3505      31365F74 
 3505      00
 3506              	.LASF31:
 3507 0480 6B657962 		.ascii	"keyboardWayToPay\000"
 3507      6F617264 
 3507      57617954 
 3507      6F506179 
 3507      00
 3508              	.LASF98:
 3509 0491 70707578 		.ascii	"ppux10\000"
 3509      313000
 3510              	.LASF43:
 3511 0498 746F7461 		.ascii	"totalMoneyPrevious\000"
 3511      6C4D6F6E 
 3511      65795072 
 3511      6576696F 
 3511      757300
 3512              	.LASF93:
 3513 04ab 666C6167 		.ascii	"flagPoint1\000"
 3513      506F696E 
 3513      743100
 3514              	.LASF29:
 3515 04b6 6D6F6E65 		.ascii	"moneySelectedSale\000"
 3515      7953656C 
 3515      65637465 
ARM GAS  C:\Users\Diego\AppData\Local\Temp\ccwc3itV.s 			page 71


 3515      6453616C 
 3515      6500
 3516              	.LASF101:
 3517 04c8 73796D62 		.ascii	"symbols\000"
 3517      6F6C7300 
 3518              	.LASF128:
 3519 04d0 64617465 		.ascii	"dateDownHandle\000"
 3519      446F776E 
 3519      48616E64 
 3519      6C6500
 3520              	.LASF49:
 3521 04df 6C696365 		.ascii	"licenceSale\000"
 3521      6E636553 
 3521      616C6500 
 3522              	.LASF59:
 3523 04eb 70726963 		.ascii	"priceConsign\000"
 3523      65436F6E 
 3523      7369676E 
 3523      00
 3524              	.LASF2:
 3525 04f8 73686F72 		.ascii	"short int\000"
 3525      7420696E 
 3525      7400
 3526              	.LASF7:
 3527 0502 6C6F6E67 		.ascii	"long int\000"
 3527      20696E74 
 3527      00
 3528              	.LASF142:
 3529 050b 436F7069 		.ascii	"CopiasCredito\000"
 3529      61734372 
 3529      65646974 
 3529      6F00
 3530              	.LASF127:
 3531 0519 566F6C55 		.ascii	"VolUnit\000"
 3531      6E697400 
 3532              	.LASF114:
 3533 0521 49444361 		.ascii	"IDCast\000"
 3533      737400
 3534              	.LASF82:
 3535 0528 49544D5F 		.ascii	"ITM_RxBuffer\000"
 3535      52784275 
 3535      66666572 
 3535      00
 3536              	.LASF125:
 3537 0535 68696464 		.ascii	"hiddenKeys\000"
 3537      656E4B65 
 3537      797300
 3538              	.LASF64:
 3539 0540 73686966 		.ascii	"shiftId\000"
 3539      74496400 
 3540              	.LASF108:
 3541 0548 74797065 		.ascii	"typeIdSeller\000"
 3541      49645365 
 3541      6C6C6572 
 3541      00
 3542              	.LASF154:
 3543 0555 44697370 		.ascii	"Display2_ClearRxBuffer\000"
ARM GAS  C:\Users\Diego\AppData\Local\Temp\ccwc3itV.s 			page 72


 3543      6C617932 
 3543      5F436C65 
 3543      61725278 
 3543      42756666 
 3544              	.LASF55:
 3545 056c 666C6167 		.ascii	"flagEndSale\000"
 3545      456E6453 
 3545      616C6500 
 3546              	.LASF41:
 3547 0578 64617465 		.ascii	"dateLiftHandle\000"
 3547      4C696674 
 3547      48616E64 
 3547      6C6500
 3548              	.LASF76:
 3549 0587 686F7365 		.ascii	"hoseNumber\000"
 3549      4E756D62 
 3549      657200
 3550              	.LASF145:
 3551 0592 62756666 		.ascii	"bufferDisplay2\000"
 3551      65724469 
 3551      73706C61 
 3551      793200
 3552              	.LASF140:
 3553 05a1 696E7449 		.ascii	"intIDStation\000"
 3553      44537461 
 3553      74696F6E 
 3553      00
 3554              	.LASF147:
 3555 05ae 62756666 		.ascii	"bufferDisplay4\000"
 3555      65724469 
 3555      73706C61 
 3555      793400
 3556              	.LASF3:
 3557 05bd 5F5F7569 		.ascii	"__uint8_t\000"
 3557      6E74385F 
 3557      7400
 3558              	.LASF109:
 3559 05c7 70617373 		.ascii	"passwordSeller\000"
 3559      776F7264 
 3559      53656C6C 
 3559      657200
 3560              	.LASF47:
 3561 05d6 746F7461 		.ascii	"totalVolumeAfter\000"
 3561      6C566F6C 
 3561      756D6541 
 3561      66746572 
 3561      00
 3562              	.LASF115:
 3563 05e7 556E6974 		.ascii	"UnitType\000"
 3563      54797065 
 3563      00
 3564              	.LASF20:
 3565 05f0 75696E74 		.ascii	"uint64\000"
 3565      363400
 3566              	.LASF96:
 3567 05f7 64656C61 		.ascii	"delayPicture1\000"
 3567      79506963 
ARM GAS  C:\Users\Diego\AppData\Local\Temp\ccwc3itV.s 			page 73


 3567      74757265 
 3567      3100
 3568              	.LASF97:
 3569 0605 64656C61 		.ascii	"delayPicture2\000"
 3569      79506963 
 3569      74757265 
 3569      3200
 3570              	.LASF40:
 3571 0613 73746174 		.ascii	"stateMux\000"
 3571      654D7578 
 3571      00
 3572              	.LASF141:
 3573 061c 456E6361 		.ascii	"Encabezado1\000"
 3573      62657A61 
 3573      646F3100 
 3574              	.LASF23:
 3575 0628 73697A65 		.ascii	"sizetype\000"
 3575      74797065 
 3575      00
 3576              	.LASF8:
 3577 0631 6C6F6E67 		.ascii	"long unsigned int\000"
 3577      20756E73 
 3577      69676E65 
 3577      6420696E 
 3577      7400
 3578              	.LASF119:
 3579 0643 50505544 		.ascii	"PPUDec\000"
 3579      656300
 3580              	.LASF74:
 3581 064a 61637469 		.ascii	"activeHose\000"
 3581      7665486F 
 3581      736500
 3582              	.LASF62:
 3583 0655 666C6167 		.ascii	"flagPrint\000"
 3583      5072696E 
 3583      7400
 3584              	.LASF14:
 3585 065f 696E7433 		.ascii	"int32_t\000"
 3585      325F7400 
 3586              	.LASF27:
 3587 0667 666C6167 		.ascii	"flagWayToPayMixed\000"
 3587      57617954 
 3587      6F506179 
 3587      4D697865 
 3587      6400
 3588              	.LASF1:
 3589 0679 756E7369 		.ascii	"unsigned char\000"
 3589      676E6564 
 3589      20636861 
 3589      7200
 3590              	.LASF155:
 3591 0687 474E5520 		.ascii	"GNU C 4.9.3 20150303 (release) [ARM/embedded-4_9-br"
 3591      4320342E 
 3591      392E3320 
 3591      32303135 
 3591      30333033 
 3592 06ba 616E6368 		.ascii	"anch revision 221220] -mcpu=cortex-m3 -mthumb -g -O"
ARM GAS  C:\Users\Diego\AppData\Local\Temp\ccwc3itV.s 			page 74


 3592      20726576 
 3592      6973696F 
 3592      6E203232 
 3592      31323230 
 3593 06ed 67202D66 		.ascii	"g -ffunction-sections -ffat-lto-objects\000"
 3593      66756E63 
 3593      74696F6E 
 3593      2D736563 
 3593      74696F6E 
 3594              	.LASF151:
 3595 0715 44697370 		.ascii	"Display1_GetRxBufferSize\000"
 3595      6C617931 
 3595      5F476574 
 3595      52784275 
 3595      66666572 
 3596              	.LASF32:
 3597 072e 61757468 		.ascii	"authorizationFlag\000"
 3597      6F72697A 
 3597      6174696F 
 3597      6E466C61 
 3597      6700
 3598              	.LASF77:
 3599 0740 70756D70 		.ascii	"pump\000"
 3599      00
 3600              	.LASF106:
 3601 0745 74656D70 		.ascii	"temporal\000"
 3601      6F72616C 
 3601      00
 3602              	.LASF118:
 3603 074e 566F6C44 		.ascii	"VolDec\000"
 3603      656300
 3604              	.LASF37:
 3605 0755 70726573 		.ascii	"presetType\000"
 3605      65745479 
 3605      706500
 3606              	.LASF71:
 3607 0760 766F6C75 		.ascii	"volumeSale\000"
 3607      6D655361 
 3607      6C6500
 3608              	.LASF65:
 3609 076b 73686966 		.ascii	"shiftPassword\000"
 3609      74506173 
 3609      73776F72 
 3609      6400
 3610              	.LASF0:
 3611 0779 7369676E 		.ascii	"signed char\000"
 3611      65642063 
 3611      68617200 
 3612              	.LASF130:
 3613 0785 636F756E 		.ascii	"count_protector\000"
 3613      745F7072 
 3613      6F746563 
 3613      746F7200 
 3614              	.LASF5:
 3615 0795 73686F72 		.ascii	"short unsigned int\000"
 3615      7420756E 
 3615      7369676E 
ARM GAS  C:\Users\Diego\AppData\Local\Temp\ccwc3itV.s 			page 75


 3615      65642069 
 3615      6E7400
 3616              	.LASF86:
 3617 07a8 636F756E 		.ascii	"countPump\000"
 3617      7450756D 
 3617      7000
 3618              	.LASF80:
 3619 07b2 44697370 		.ascii	"Display1_rxBuffer\000"
 3619      6C617931 
 3619      5F727842 
 3619      75666665 
 3619      7200
 3620              	.LASF73:
 3621 07c4 70726F64 		.ascii	"productSale\000"
 3621      75637453 
 3621      616C6500 
 3622              	.LASF15:
 3623 07d0 75696E74 		.ascii	"uint8\000"
 3623      3800
 3624              	.LASF19:
 3625 07d6 646F7562 		.ascii	"double\000"
 3625      6C6500
 3626              	.LASF26:
 3627 07dd 77617954 		.ascii	"wayToPay\000"
 3627      6F506179 
 3627      00
 3628              	.LASF153:
 3629 07e6 44697370 		.ascii	"Display1_ClearRxBuffer\000"
 3629      6C617931 
 3629      5F436C65 
 3629      61725278 
 3629      42756666 
 3630              	.LASF42:
 3631 07fd 74696D65 		.ascii	"timeLiftHandle\000"
 3631      4C696674 
 3631      48616E64 
 3631      6C6500
 3632              	.LASF69:
 3633 080c 70707541 		.ascii	"ppuAuthorized\000"
 3633      7574686F 
 3633      72697A65 
 3633      6400
 3634              	.LASF30:
 3635 081a 73657269 		.ascii	"serialSelectedSale\000"
 3635      616C5365 
 3635      6C656374 
 3635      65645361 
 3635      6C6500
 3636              	.LASF67:
 3637 082d 706F7369 		.ascii	"position\000"
 3637      74696F6E 
 3637      00
 3638              	.LASF144:
 3639 0836 62756666 		.ascii	"bufferDisplay1\000"
 3639      65724469 
 3639      73706C61 
 3639      793100
ARM GAS  C:\Users\Diego\AppData\Local\Temp\ccwc3itV.s 			page 76


 3640              	.LASF135:
 3641 0845 70756D70 		.ascii	"pumpGap\000"
 3641      47617000 
 3642              		.ident	"GCC: (GNU Tools for ARM Embedded Processors) 4.9.3 20150303 (release) [ARM/embedded-4_9-br
