ARM GAS  C:\Users\RECEPC~1\AppData\Local\Temp\ccxnXfjK.s 			page 1


   1              		.syntax unified
   2              		.cpu cortex-m3
   3              		.fpu softvfp
   4              		.eabi_attribute 20, 1
   5              		.eabi_attribute 21, 1
   6              		.eabi_attribute 23, 3
   7              		.eabi_attribute 24, 1
   8              		.eabi_attribute 25, 1
   9              		.eabi_attribute 26, 1
  10              		.eabi_attribute 30, 1
  11              		.eabi_attribute 34, 1
  12              		.eabi_attribute 18, 4
  13              		.thumb
  14              		.file	"keyboard.c"
  15              		.text
  16              	.Ltext0:
  17              		.cfi_sections	.debug_frame
  18              		.section	.text.alphanumeric_keyboard,"ax",%progbits
  19              		.align	2
  20              		.global	alphanumeric_keyboard
  21              		.thumb
  22              		.thumb_func
  23              		.type	alphanumeric_keyboard, %function
  24              	alphanumeric_keyboard:
  25              	.LFB63:
  26              		.file 1 ".\\keyboard.c"
   1:.\keyboard.c  **** /*
   2:.\keyboard.c  **** ***************************************************************************************************
   3:.\keyboard.c  **** *                                         MUX ADVANCE CODE
   4:.\keyboard.c  **** *
   5:.\keyboard.c  **** *                             (c) Copyright 2016; Sistemas Insepet LTDA
   6:.\keyboard.c  **** *
   7:.\keyboard.c  **** *               All rights reserved.  Protected by international copyright laws.
   8:.\keyboard.c  **** *               Knowledge of the source code may NOT be used to develop a similar product.
   9:.\keyboard.c  **** *               Please help us continue to provide the Embedded community with the finest
  10:.\keyboard.c  **** *               software available.  Your honesty is greatly appreciated.
  11:.\keyboard.c  **** ***************************************************************************************************
  12:.\keyboard.c  **** */
  13:.\keyboard.c  **** 
  14:.\keyboard.c  **** /*
  15:.\keyboard.c  **** ***************************************************************************************************
  16:.\keyboard.c  **** *
  17:.\keyboard.c  **** *                                            MUX ADVANCE CODE
  18:.\keyboard.c  **** *
  19:.\keyboard.c  **** *                                             CYPRESS PSoC5LP
  20:.\keyboard.c  **** *                                                with the
  21:.\keyboard.c  **** *                                            CY8C5969AXI-LP035
  22:.\keyboard.c  **** *
  23:.\keyboard.c  **** * Filename      : keyboard.c
  24:.\keyboard.c  **** * Version       : V1.00
  25:.\keyboard.c  **** * Programmer(s) : 
  26:.\keyboard.c  ****                   
  27:.\keyboard.c  **** ***************************************************************************************************
  28:.\keyboard.c  **** */
  29:.\keyboard.c  **** 
  30:.\keyboard.c  **** /*
  31:.\keyboard.c  **** ***************************************************************************************************
ARM GAS  C:\Users\RECEPC~1\AppData\Local\Temp\ccxnXfjK.s 			page 2


  32:.\keyboard.c  **** *                                             INCLUDE FILES
  33:.\keyboard.c  **** ***************************************************************************************************
  34:.\keyboard.c  **** */
  35:.\keyboard.c  **** 
  36:.\keyboard.c  **** #include <device.h>
  37:.\keyboard.c  **** #include "variables.h"
  38:.\keyboard.c  **** #include <LCD.h>
  39:.\keyboard.c  **** #include "LCD.h"
  40:.\keyboard.c  **** 
  41:.\keyboard.c  **** /*
  42:.\keyboard.c  **** ***************************************************************************************************
  43:.\keyboard.c  **** *               uint8 alphanumeric_keyboard(uint8 lcd, uint8 maxNumberKeys, uint8 character)
  44:.\keyboard.c  **** *
  45:.\keyboard.c  **** * Description : 
  46:.\keyboard.c  **** *               
  47:.\keyboard.c  **** *
  48:.\keyboard.c  **** * Argument(s) : none
  49:.\keyboard.c  **** *
  50:.\keyboard.c  **** * Return(s)   : none
  51:.\keyboard.c  **** *
  52:.\keyboard.c  **** * Caller(s)   :  
  53:.\keyboard.c  **** *
  54:.\keyboard.c  **** * Note(s)     : none.
  55:.\keyboard.c  **** ***************************************************************************************************
  56:.\keyboard.c  **** */
  57:.\keyboard.c  **** 
  58:.\keyboard.c  **** uint8 alphanumeric_keyboard(uint8 lcd, uint8 maxNumberKeys, uint8 character){
  27              		.loc 1 58 0
  28              		.cfi_startproc
  29              		@ args = 0, pretend = 0, frame = 0
  30              		@ frame_needed = 0, uses_anonymous_args = 0
  31              	.LVL0:
  32 0000 30B5     		push	{r4, r5, lr}
  33              		.cfi_def_cfa_offset 12
  34              		.cfi_offset 4, -12
  35              		.cfi_offset 5, -8
  36              		.cfi_offset 14, -4
  37 0002 85B0     		sub	sp, sp, #20
  38              		.cfi_def_cfa_offset 32
  39 0004 0D46     		mov	r5, r1
  40 0006 1446     		mov	r4, r2
  41              	.LVL1:
  59:.\keyboard.c  ****     char8 PressedKey = 0;
  60:.\keyboard.c  ****     if(lcd==1){
  42              		.loc 1 60 0
  43 0008 0128     		cmp	r0, #1
  44 000a 40F01081 		bne	.L2
  61:.\keyboard.c  ****         if(Display1_GetRxBufferSize()==8){
  45              		.loc 1 61 0
  46 000e FFF7FEFF 		bl	Display1_GetRxBufferSize
  47              	.LVL2:
  48 0012 0828     		cmp	r0, #8
  49 0014 40F02F82 		bne	.L26
  62:.\keyboard.c  ****             if((Display1_rxBuffer[0]==0xAA) && (Display1_rxBuffer[6]==0xC3) && (Display1_rxBuffer[7
  50              		.loc 1 62 0
  51 0018 A84B     		ldr	r3, .L31
  52 001a 1B78     		ldrb	r3, [r3]	@ zero_extendqisi2
ARM GAS  C:\Users\RECEPC~1\AppData\Local\Temp\ccxnXfjK.s 			page 3


  53 001c DBB2     		uxtb	r3, r3
  54 001e AA2B     		cmp	r3, #170
  55 0020 40F0FE80 		bne	.L4
  56              		.loc 1 62 0 is_stmt 0 discriminator 1
  57 0024 A54B     		ldr	r3, .L31
  58 0026 9B79     		ldrb	r3, [r3, #6]	@ zero_extendqisi2
  59 0028 DBB2     		uxtb	r3, r3
  60 002a C32B     		cmp	r3, #195
  61 002c 40F0F880 		bne	.L4
  62              		.loc 1 62 0 discriminator 2
  63 0030 A24B     		ldr	r3, .L31
  64 0032 DB79     		ldrb	r3, [r3, #7]	@ zero_extendqisi2
  65 0034 DBB2     		uxtb	r3, r3
  66 0036 3C2B     		cmp	r3, #60
  67 0038 40F0F280 		bne	.L4
  63:.\keyboard.c  ****                 if(numberKeys1<=(maxNumberKeys-1)){
  68              		.loc 1 63 0 is_stmt 1
  69 003c A04B     		ldr	r3, .L31+4
  70 003e 1B78     		ldrb	r3, [r3]	@ zero_extendqisi2
  71 0040 DBB2     		uxtb	r3, r3
  72 0042 013D     		subs	r5, r5, #1
  73 0044 AB42     		cmp	r3, r5
  74 0046 00F39F80 		bgt	.L27
  64:.\keyboard.c  ****                     PressedKey =UnmapCode(Display1_rxBuffer[3]);
  75              		.loc 1 64 0
  76 004a 9C4B     		ldr	r3, .L31
  77 004c D878     		ldrb	r0, [r3, #3]	@ zero_extendqisi2
  78 004e FFF7FEFF 		bl	UnmapCode
  79              	.LVL3:
  80 0052 0546     		mov	r5, r0
  81              	.LVL4:
  65:.\keyboard.c  ****                     if(PressedKey>=0x20 && PressedKey<=0x2B){ //Comandos ascii sin incluir coma (,)
  82              		.loc 1 65 0
  83 0054 A0F12003 		sub	r3, r0, #32
  84 0058 DBB2     		uxtb	r3, r3
  85 005a 0B2B     		cmp	r3, #11
  86 005c 2AD8     		bhi	.L6
  66:.\keyboard.c  ****                         numberKeys1++;  
  87              		.loc 1 66 0
  88 005e 984A     		ldr	r2, .L31+4
  89 0060 1378     		ldrb	r3, [r2]	@ zero_extendqisi2
  90 0062 0133     		adds	r3, r3, #1
  91 0064 DBB2     		uxtb	r3, r3
  92 0066 1370     		strb	r3, [r2]
  67:.\keyboard.c  ****                         bufferDisplay1.valueKeys[numberKeys1]=PressedKey;                        
  93              		.loc 1 67 0
  94 0068 1378     		ldrb	r3, [r2]	@ zero_extendqisi2
  95 006a 964A     		ldr	r2, .L31+8
  96 006c 1344     		add	r3, r3, r2
  97 006e 83F84B00 		strb	r0, [r3, #75]
  68:.\keyboard.c  ****                         if(character==0){
  98              		.loc 1 68 0
  99 0072 8CB9     		cbnz	r4, .L7
  69:.\keyboard.c  ****                             WriteLCD(1,bufferDisplay1.valueKeys[numberKeys1],3,numberKeys1+2,1,0x00
 100              		.loc 1 69 0
 101 0074 924B     		ldr	r3, .L31+4
 102 0076 1A78     		ldrb	r2, [r3]	@ zero_extendqisi2
ARM GAS  C:\Users\RECEPC~1\AppData\Local\Temp\ccxnXfjK.s 			page 4


 103 0078 1B78     		ldrb	r3, [r3]	@ zero_extendqisi2
 104 007a 9249     		ldr	r1, .L31+8
 105 007c 0A44     		add	r2, r2, r1
 106 007e 92F84B10 		ldrb	r1, [r2, #75]	@ zero_extendqisi2
 107 0082 0120     		movs	r0, #1
 108              	.LVL5:
 109 0084 0090     		str	r0, [sp]
 110 0086 0022     		movs	r2, #0
 111 0088 0192     		str	r2, [sp, #4]
 112 008a 4E22     		movs	r2, #78
 113 008c 0292     		str	r2, [sp, #8]
 114 008e 0322     		movs	r2, #3
 115 0090 0233     		adds	r3, r3, #2
 116 0092 FFF7FEFF 		bl	WriteLCD
 117              	.LVL6:
 118 0096 78E0     		b	.L5
 119              	.LVL7:
 120              	.L7:
  70:.\keyboard.c  ****                         }else{
  71:.\keyboard.c  ****                             WriteLCD(1,character,3,numberKeys1+2,1,0x0000,'N');
 121              		.loc 1 71 0
 122 0098 894B     		ldr	r3, .L31+4
 123 009a 1B78     		ldrb	r3, [r3]	@ zero_extendqisi2
 124 009c 0120     		movs	r0, #1
 125              	.LVL8:
 126 009e 0090     		str	r0, [sp]
 127 00a0 0022     		movs	r2, #0
 128 00a2 0192     		str	r2, [sp, #4]
 129 00a4 4E22     		movs	r2, #78
 130 00a6 0292     		str	r2, [sp, #8]
 131 00a8 2146     		mov	r1, r4
 132 00aa 0322     		movs	r2, #3
 133 00ac 0233     		adds	r3, r3, #2
 134 00ae FFF7FEFF 		bl	WriteLCD
 135              	.LVL9:
 136 00b2 6AE0     		b	.L5
 137              	.LVL10:
 138              	.L6:
  72:.\keyboard.c  ****                         }
  73:.\keyboard.c  ****                     }else if(PressedKey>=0x2D && PressedKey<=0x7E){ //Comandos ascii sin incluir co
 139              		.loc 1 73 0
 140 00b4 A0F12D03 		sub	r3, r0, #45
 141 00b8 DBB2     		uxtb	r3, r3
 142 00ba 512B     		cmp	r3, #81
 143 00bc 2AD8     		bhi	.L8
  74:.\keyboard.c  ****                         numberKeys1++;  
 144              		.loc 1 74 0
 145 00be 804A     		ldr	r2, .L31+4
 146 00c0 1378     		ldrb	r3, [r2]	@ zero_extendqisi2
 147 00c2 0133     		adds	r3, r3, #1
 148 00c4 DBB2     		uxtb	r3, r3
 149 00c6 1370     		strb	r3, [r2]
  75:.\keyboard.c  ****                         bufferDisplay1.valueKeys[numberKeys1]=PressedKey;
 150              		.loc 1 75 0
 151 00c8 1378     		ldrb	r3, [r2]	@ zero_extendqisi2
 152 00ca 7E4A     		ldr	r2, .L31+8
 153 00cc 1344     		add	r3, r3, r2
ARM GAS  C:\Users\RECEPC~1\AppData\Local\Temp\ccxnXfjK.s 			page 5


 154 00ce 83F84B00 		strb	r0, [r3, #75]
  76:.\keyboard.c  ****                         if(character==0){
 155              		.loc 1 76 0
 156 00d2 8CB9     		cbnz	r4, .L9
  77:.\keyboard.c  ****                             WriteLCD(1,bufferDisplay1.valueKeys[numberKeys1],3,numberKeys1+2,1,0x00
 157              		.loc 1 77 0
 158 00d4 7A4B     		ldr	r3, .L31+4
 159 00d6 1A78     		ldrb	r2, [r3]	@ zero_extendqisi2
 160 00d8 1B78     		ldrb	r3, [r3]	@ zero_extendqisi2
 161 00da 7A49     		ldr	r1, .L31+8
 162 00dc 0A44     		add	r2, r2, r1
 163 00de 92F84B10 		ldrb	r1, [r2, #75]	@ zero_extendqisi2
 164 00e2 0120     		movs	r0, #1
 165              	.LVL11:
 166 00e4 0090     		str	r0, [sp]
 167 00e6 0022     		movs	r2, #0
 168 00e8 0192     		str	r2, [sp, #4]
 169 00ea 4E22     		movs	r2, #78
 170 00ec 0292     		str	r2, [sp, #8]
 171 00ee 0322     		movs	r2, #3
 172 00f0 0233     		adds	r3, r3, #2
 173 00f2 FFF7FEFF 		bl	WriteLCD
 174              	.LVL12:
 175 00f6 48E0     		b	.L5
 176              	.LVL13:
 177              	.L9:
  78:.\keyboard.c  ****                         }else{
  79:.\keyboard.c  ****                             WriteLCD(1,character,3,numberKeys1+2,1,0x0000,'N');
 178              		.loc 1 79 0
 179 00f8 714B     		ldr	r3, .L31+4
 180 00fa 1B78     		ldrb	r3, [r3]	@ zero_extendqisi2
 181 00fc 0120     		movs	r0, #1
 182              	.LVL14:
 183 00fe 0090     		str	r0, [sp]
 184 0100 0022     		movs	r2, #0
 185 0102 0192     		str	r2, [sp, #4]
 186 0104 4E22     		movs	r2, #78
 187 0106 0292     		str	r2, [sp, #8]
 188 0108 2146     		mov	r1, r4
 189 010a 0322     		movs	r2, #3
 190 010c 0233     		adds	r3, r3, #2
 191 010e FFF7FEFF 		bl	WriteLCD
 192              	.LVL15:
 193 0112 3AE0     		b	.L5
 194              	.LVL16:
 195              	.L8:
  80:.\keyboard.c  ****                         }
  81:.\keyboard.c  ****                     }else if(PressedKey==',' && numberKeys1>=1 && flagPoint1==0){  //Coma (,)
 196              		.loc 1 81 0
 197 0114 2C28     		cmp	r0, #44
 198 0116 38D1     		bne	.L5
 199              		.loc 1 81 0 is_stmt 0 discriminator 1
 200 0118 694B     		ldr	r3, .L31+4
 201 011a 1B78     		ldrb	r3, [r3]	@ zero_extendqisi2
 202 011c 13F0FF0F 		tst	r3, #255
 203 0120 33D0     		beq	.L5
 204              		.loc 1 81 0 discriminator 2
ARM GAS  C:\Users\RECEPC~1\AppData\Local\Temp\ccxnXfjK.s 			page 6


 205 0122 694B     		ldr	r3, .L31+12
 206 0124 1B78     		ldrb	r3, [r3]	@ zero_extendqisi2
 207 0126 13F0FF0F 		tst	r3, #255
 208 012a 2ED1     		bne	.L5
  82:.\keyboard.c  ****                         numberKeys1++;  
 209              		.loc 1 82 0 is_stmt 1
 210 012c 644A     		ldr	r2, .L31+4
 211 012e 1378     		ldrb	r3, [r2]	@ zero_extendqisi2
 212 0130 0133     		adds	r3, r3, #1
 213 0132 DBB2     		uxtb	r3, r3
 214 0134 1370     		strb	r3, [r2]
  83:.\keyboard.c  ****                         flagPoint1=1;
 215              		.loc 1 83 0
 216 0136 0121     		movs	r1, #1
 217 0138 634B     		ldr	r3, .L31+12
 218 013a 1970     		strb	r1, [r3]
  84:.\keyboard.c  ****                         bufferDisplay1.valueKeys[numberKeys1]=PressedKey;
 219              		.loc 1 84 0
 220 013c 1378     		ldrb	r3, [r2]	@ zero_extendqisi2
 221 013e 614A     		ldr	r2, .L31+8
 222 0140 1344     		add	r3, r3, r2
 223 0142 83F84B00 		strb	r0, [r3, #75]
  85:.\keyboard.c  ****                         if(character==0){
 224              		.loc 1 85 0
 225 0146 8CB9     		cbnz	r4, .L10
  86:.\keyboard.c  ****                             WriteLCD(1,bufferDisplay1.valueKeys[numberKeys1],3,numberKeys1+2,1,0x00
 226              		.loc 1 86 0
 227 0148 5D4B     		ldr	r3, .L31+4
 228 014a 1A78     		ldrb	r2, [r3]	@ zero_extendqisi2
 229 014c 1B78     		ldrb	r3, [r3]	@ zero_extendqisi2
 230 014e 5D49     		ldr	r1, .L31+8
 231 0150 0A44     		add	r2, r2, r1
 232 0152 92F84B10 		ldrb	r1, [r2, #75]	@ zero_extendqisi2
 233 0156 0120     		movs	r0, #1
 234              	.LVL17:
 235 0158 0090     		str	r0, [sp]
 236 015a 0022     		movs	r2, #0
 237 015c 0192     		str	r2, [sp, #4]
 238 015e 4E22     		movs	r2, #78
 239 0160 0292     		str	r2, [sp, #8]
 240 0162 0322     		movs	r2, #3
 241 0164 0233     		adds	r3, r3, #2
 242 0166 FFF7FEFF 		bl	WriteLCD
 243              	.LVL18:
 244 016a 0EE0     		b	.L5
 245              	.LVL19:
 246              	.L10:
  87:.\keyboard.c  ****                         }else{
  88:.\keyboard.c  ****                             WriteLCD(1,character,3,numberKeys1+2,1,0x0000,'N');
 247              		.loc 1 88 0
 248 016c 544B     		ldr	r3, .L31+4
 249 016e 1B78     		ldrb	r3, [r3]	@ zero_extendqisi2
 250 0170 0120     		movs	r0, #1
 251              	.LVL20:
 252 0172 0090     		str	r0, [sp]
 253 0174 0022     		movs	r2, #0
 254 0176 0192     		str	r2, [sp, #4]
ARM GAS  C:\Users\RECEPC~1\AppData\Local\Temp\ccxnXfjK.s 			page 7


 255 0178 4E22     		movs	r2, #78
 256 017a 0292     		str	r2, [sp, #8]
 257 017c 2146     		mov	r1, r4
 258 017e 0322     		movs	r2, #3
 259 0180 0233     		adds	r3, r3, #2
 260 0182 FFF7FEFF 		bl	WriteLCD
 261              	.LVL21:
 262 0186 00E0     		b	.L5
 263              	.LVL22:
 264              	.L27:
  59:.\keyboard.c  ****     if(lcd==1){
 265              		.loc 1 59 0
 266 0188 0025     		movs	r5, #0
 267              	.LVL23:
 268              	.L5:
  89:.\keyboard.c  ****                         }
  90:.\keyboard.c  ****                     }
  91:.\keyboard.c  ****                 }  
  92:.\keyboard.c  ****                 if(Display1_rxBuffer[3]==0x0B){ //Borrar
 269              		.loc 1 92 0
 270 018a 4C4B     		ldr	r3, .L31
 271 018c DB78     		ldrb	r3, [r3, #3]	@ zero_extendqisi2
 272 018e DBB2     		uxtb	r3, r3
 273 0190 0B2B     		cmp	r3, #11
 274 0192 26D1     		bne	.L11
  93:.\keyboard.c  ****                     if(numberKeys1==0){		//Si no ha presionado nada regresa al menu anterior
 275              		.loc 1 93 0
 276 0194 4A4B     		ldr	r3, .L31+4
 277 0196 1B78     		ldrb	r3, [r3]	@ zero_extendqisi2
 278 0198 03F0FF04 		and	r4, r3, #255
 279 019c 2BB9     		cbnz	r3, .L12
  94:.\keyboard.c  ****                         CyDelay(20);         
 280              		.loc 1 94 0
 281 019e 1420     		movs	r0, #20
 282 01a0 FFF7FEFF 		bl	CyDelay
 283              	.LVL24:
  95:.\keyboard.c  ****                         Display1_ClearRxBuffer();
 284              		.loc 1 95 0
 285 01a4 FFF7FEFF 		bl	Display1_ClearRxBuffer
 286              	.LVL25:
  96:.\keyboard.c  ****                         return 0;
 287              		.loc 1 96 0
 288 01a8 68E1     		b	.L3
 289              	.L12:
  97:.\keyboard.c  ****                     }
  98:.\keyboard.c  ****                     else{
  99:.\keyboard.c  ****                         WriteLCD(1,' ',3,numberKeys1+2,1,0x0000,'N');	//Si ya presiono borra el dat
 290              		.loc 1 99 0
 291 01aa 454C     		ldr	r4, .L31+4
 292 01ac 2378     		ldrb	r3, [r4]	@ zero_extendqisi2
 293 01ae 0120     		movs	r0, #1
 294 01b0 0090     		str	r0, [sp]
 295 01b2 0022     		movs	r2, #0
 296 01b4 0192     		str	r2, [sp, #4]
 297 01b6 4E22     		movs	r2, #78
 298 01b8 0292     		str	r2, [sp, #8]
 299 01ba 2021     		movs	r1, #32
ARM GAS  C:\Users\RECEPC~1\AppData\Local\Temp\ccxnXfjK.s 			page 8


 300 01bc 0322     		movs	r2, #3
 301 01be 0233     		adds	r3, r3, #2
 302 01c0 FFF7FEFF 		bl	WriteLCD
 303              	.LVL26:
 100:.\keyboard.c  ****                         if(bufferDisplay1.valueKeys[numberKeys1]==0x2C){
 304              		.loc 1 100 0
 305 01c4 2378     		ldrb	r3, [r4]	@ zero_extendqisi2
 306 01c6 3F4A     		ldr	r2, .L31+8
 307 01c8 1344     		add	r3, r3, r2
 308 01ca 93F84B30 		ldrb	r3, [r3, #75]	@ zero_extendqisi2
 309 01ce 2C2B     		cmp	r3, #44
 310 01d0 02D1     		bne	.L13
 101:.\keyboard.c  ****                             flagPoint1=0;
 311              		.loc 1 101 0
 312 01d2 0022     		movs	r2, #0
 313 01d4 3C4B     		ldr	r3, .L31+12
 314 01d6 1A70     		strb	r2, [r3]
 315              	.L13:
 102:.\keyboard.c  ****                         }
 103:.\keyboard.c  ****                         numberKeys1--;
 316              		.loc 1 103 0
 317 01d8 394A     		ldr	r2, .L31+4
 318 01da 1378     		ldrb	r3, [r2]	@ zero_extendqisi2
 319 01dc 013B     		subs	r3, r3, #1
 320 01de DBB2     		uxtb	r3, r3
 321 01e0 1370     		strb	r3, [r2]
 322              	.L11:
 104:.\keyboard.c  ****                     }
 105:.\keyboard.c  ****                 }
 106:.\keyboard.c  ****                 if(PressedKey==0x0A){ //Enter
 323              		.loc 1 106 0
 324 01e2 0A2D     		cmp	r5, #10
 325 01e4 10D1     		bne	.L14
 107:.\keyboard.c  ****                     if(numberKeys1>0){
 326              		.loc 1 107 0
 327 01e6 364B     		ldr	r3, .L31+4
 328 01e8 1B78     		ldrb	r3, [r3]	@ zero_extendqisi2
 329 01ea 13F0FF0F 		tst	r3, #255
 330 01ee 0BD0     		beq	.L14
 108:.\keyboard.c  ****                         bufferDisplay1.valueKeys[0]=numberKeys1;
 331              		.loc 1 108 0
 332 01f0 334B     		ldr	r3, .L31+4
 333 01f2 1A78     		ldrb	r2, [r3]	@ zero_extendqisi2
 334 01f4 334B     		ldr	r3, .L31+8
 335 01f6 83F84B20 		strb	r2, [r3, #75]
 109:.\keyboard.c  ****                         CyDelay(20);         
 336              		.loc 1 109 0
 337 01fa 1420     		movs	r0, #20
 338 01fc FFF7FEFF 		bl	CyDelay
 339              	.LVL27:
 110:.\keyboard.c  ****                         Display1_ClearRxBuffer();
 340              		.loc 1 110 0
 341 0200 FFF7FEFF 		bl	Display1_ClearRxBuffer
 342              	.LVL28:
 111:.\keyboard.c  ****                         return 1;
 343              		.loc 1 111 0
 344 0204 0124     		movs	r4, #1
ARM GAS  C:\Users\RECEPC~1\AppData\Local\Temp\ccxnXfjK.s 			page 9


 345 0206 39E1     		b	.L3
 346              	.L14:
 112:.\keyboard.c  ****                     }
 113:.\keyboard.c  ****                 }
 114:.\keyboard.c  ****                 if(Display1_rxBuffer[3]==0x94){ //Atras
 347              		.loc 1 114 0
 348 0208 2C4B     		ldr	r3, .L31
 349 020a DB78     		ldrb	r3, [r3, #3]	@ zero_extendqisi2
 350 020c DBB2     		uxtb	r3, r3
 351 020e 942B     		cmp	r3, #148
 352 0210 06D1     		bne	.L4
 115:.\keyboard.c  ****                     CyDelay(20);         
 353              		.loc 1 115 0
 354 0212 1420     		movs	r0, #20
 355 0214 FFF7FEFF 		bl	CyDelay
 356              	.LVL29:
 116:.\keyboard.c  ****                     Display1_ClearRxBuffer();
 357              		.loc 1 116 0
 358 0218 FFF7FEFF 		bl	Display1_ClearRxBuffer
 359              	.LVL30:
 117:.\keyboard.c  ****                     return 0;
 360              		.loc 1 117 0
 361 021c 0024     		movs	r4, #0
 362 021e 2DE1     		b	.L3
 363              	.LVL31:
 364              	.L4:
 118:.\keyboard.c  ****                 }
 119:.\keyboard.c  ****             } 
 120:.\keyboard.c  ****             CyDelay(20);         
 365              		.loc 1 120 0
 366 0220 1420     		movs	r0, #20
 367 0222 FFF7FEFF 		bl	CyDelay
 368              	.LVL32:
 121:.\keyboard.c  ****             Display1_ClearRxBuffer();
 369              		.loc 1 121 0
 370 0226 FFF7FEFF 		bl	Display1_ClearRxBuffer
 371              	.LVL33:
 122:.\keyboard.c  ****         }
 123:.\keyboard.c  ****     }else{
 124:.\keyboard.c  ****         if(Display2_GetRxBufferSize()==8){
 125:.\keyboard.c  ****             if((Display2_rxBuffer[0]==0xAA) && (Display2_rxBuffer[6]==0xC3) && (Display2_rxBuffer[7
 126:.\keyboard.c  ****                 if(numberKeys2<=(maxNumberKeys-1)){
 127:.\keyboard.c  ****                     PressedKey =UnmapCode(Display2_rxBuffer[3]);
 128:.\keyboard.c  ****                     if(PressedKey>=0x20 && PressedKey<=0x2B){ //Comandos ascii sin incluir coma (,)
 129:.\keyboard.c  ****                         numberKeys2++;  
 130:.\keyboard.c  ****                         bufferDisplay2.valueKeys[numberKeys2]=PressedKey;
 131:.\keyboard.c  ****                         if(character==0){
 132:.\keyboard.c  ****                             WriteLCD(2,bufferDisplay2.valueKeys[numberKeys2],3,numberKeys2+2,1,0x00
 133:.\keyboard.c  ****                         }else{
 134:.\keyboard.c  ****                             WriteLCD(2,character,2,numberKeys2+2,1,0x0000,'N');
 135:.\keyboard.c  ****                         }
 136:.\keyboard.c  ****                     }else if(PressedKey>=0x2D && PressedKey<=0x7E){ //Comandos ascii sin incluir co
 137:.\keyboard.c  ****                         numberKeys2++;  
 138:.\keyboard.c  ****                         bufferDisplay2.valueKeys[numberKeys2]=PressedKey;
 139:.\keyboard.c  ****                         if(character==0){
 140:.\keyboard.c  ****                             WriteLCD(2,bufferDisplay2.valueKeys[numberKeys2],3,numberKeys2+2,1,0x00
 141:.\keyboard.c  ****                         }else{
ARM GAS  C:\Users\RECEPC~1\AppData\Local\Temp\ccxnXfjK.s 			page 10


 142:.\keyboard.c  ****                             WriteLCD(2,character,2,numberKeys2+2,1,0x0000,'N');
 143:.\keyboard.c  ****                         }
 144:.\keyboard.c  ****                     }else if(PressedKey==',' && numberKeys2>=1 && flagPoint2==0){  //Coma (,)
 145:.\keyboard.c  ****                         numberKeys2++;  
 146:.\keyboard.c  ****                         flagPoint2=1;
 147:.\keyboard.c  ****                         bufferDisplay2.valueKeys[numberKeys2]=Display2_rxBuffer[3];
 148:.\keyboard.c  ****                         if(character==0){
 149:.\keyboard.c  ****                             WriteLCD(2,bufferDisplay2.valueKeys[numberKeys2],3,numberKeys2+2,1,0x00
 150:.\keyboard.c  ****                         }else{
 151:.\keyboard.c  ****                             WriteLCD(2,character,2,numberKeys2+2,1,0x0000,'N');
 152:.\keyboard.c  ****                         }
 153:.\keyboard.c  ****                     }
 154:.\keyboard.c  ****                 }
 155:.\keyboard.c  ****                 if(PressedKey==0x0B){ //Borrar
 156:.\keyboard.c  ****                     if(numberKeys2==0){		//Si no ha presionado nada regresa al menu anterior
 157:.\keyboard.c  ****                         CyDelay(20);         
 158:.\keyboard.c  ****                         Display2_ClearRxBuffer();
 159:.\keyboard.c  ****                         return 0;
 160:.\keyboard.c  ****                     }
 161:.\keyboard.c  ****                     else{
 162:.\keyboard.c  ****                         WriteLCD(2,' ',2,numberKeys2+2,1,0x0000,'N');	//Si ya presiono borra el dat
 163:.\keyboard.c  ****                         if(bufferDisplay2.valueKeys[numberKeys2]==0x2C){
 164:.\keyboard.c  ****                             flagPoint2=0;
 165:.\keyboard.c  ****                         }
 166:.\keyboard.c  ****                         numberKeys2--;
 167:.\keyboard.c  ****                     }
 168:.\keyboard.c  ****                 }
 169:.\keyboard.c  ****                 if(PressedKey==0x0A){ //Enter
 170:.\keyboard.c  ****                     if(numberKeys2>0){
 171:.\keyboard.c  ****                         bufferDisplay2.valueKeys[0]=numberKeys2;
 172:.\keyboard.c  ****                         CyDelay(20);         
 173:.\keyboard.c  ****                         Display2_ClearRxBuffer();
 174:.\keyboard.c  ****                         return 1;
 175:.\keyboard.c  ****                     }
 176:.\keyboard.c  ****                 }
 177:.\keyboard.c  ****                 if(Display2_rxBuffer[3]==0x94){ //Atras
 178:.\keyboard.c  ****                     CyDelay(20);         
 179:.\keyboard.c  ****                     Display2_ClearRxBuffer();
 180:.\keyboard.c  ****                     return 0;
 181:.\keyboard.c  ****                 }
 182:.\keyboard.c  ****             } 
 183:.\keyboard.c  ****             CyDelay(20);         
 184:.\keyboard.c  ****             Display2_ClearRxBuffer();
 185:.\keyboard.c  ****         }
 186:.\keyboard.c  ****     }
 187:.\keyboard.c  ****     return 2;
 372              		.loc 1 187 0
 373 022a 0224     		movs	r4, #2
 374 022c 26E1     		b	.L3
 375              	.LVL34:
 376              	.L2:
 124:.\keyboard.c  ****             if((Display2_rxBuffer[0]==0xAA) && (Display2_rxBuffer[6]==0xC3) && (Display2_rxBuffer[7
 377              		.loc 1 124 0
 378 022e FFF7FEFF 		bl	Display2_GetRxBufferSize
 379              	.LVL35:
 380 0232 0828     		cmp	r0, #8
 381 0234 40F02181 		bne	.L28
ARM GAS  C:\Users\RECEPC~1\AppData\Local\Temp\ccxnXfjK.s 			page 11


 125:.\keyboard.c  ****                 if(numberKeys2<=(maxNumberKeys-1)){
 382              		.loc 1 125 0
 383 0238 244B     		ldr	r3, .L31+16
 384 023a 1B78     		ldrb	r3, [r3]	@ zero_extendqisi2
 385 023c DBB2     		uxtb	r3, r3
 386 023e AA2B     		cmp	r3, #170
 387 0240 40F01281 		bne	.L15
 125:.\keyboard.c  ****                 if(numberKeys2<=(maxNumberKeys-1)){
 388              		.loc 1 125 0 is_stmt 0 discriminator 1
 389 0244 214B     		ldr	r3, .L31+16
 390 0246 9B79     		ldrb	r3, [r3, #6]	@ zero_extendqisi2
 391 0248 DBB2     		uxtb	r3, r3
 392 024a C32B     		cmp	r3, #195
 393 024c 40F00C81 		bne	.L15
 125:.\keyboard.c  ****                 if(numberKeys2<=(maxNumberKeys-1)){
 394              		.loc 1 125 0 discriminator 2
 395 0250 1E4B     		ldr	r3, .L31+16
 396 0252 DB79     		ldrb	r3, [r3, #7]	@ zero_extendqisi2
 397 0254 DBB2     		uxtb	r3, r3
 398 0256 3C2B     		cmp	r3, #60
 399 0258 40F00681 		bne	.L15
 126:.\keyboard.c  ****                     PressedKey =UnmapCode(Display2_rxBuffer[3]);
 400              		.loc 1 126 0 is_stmt 1
 401 025c 1C4B     		ldr	r3, .L31+20
 402 025e 1B78     		ldrb	r3, [r3]	@ zero_extendqisi2
 403 0260 DBB2     		uxtb	r3, r3
 404 0262 013D     		subs	r5, r5, #1
 405 0264 AB42     		cmp	r3, r5
 406 0266 00F3B580 		bgt	.L29
 127:.\keyboard.c  ****                     if(PressedKey>=0x20 && PressedKey<=0x2B){ //Comandos ascii sin incluir coma (,)
 407              		.loc 1 127 0
 408 026a 184B     		ldr	r3, .L31+16
 409 026c D878     		ldrb	r0, [r3, #3]	@ zero_extendqisi2
 410 026e FFF7FEFF 		bl	UnmapCode
 411              	.LVL36:
 412 0272 0546     		mov	r5, r0
 413              	.LVL37:
 128:.\keyboard.c  ****                         numberKeys2++;  
 414              		.loc 1 128 0
 415 0274 A0F12003 		sub	r3, r0, #32
 416 0278 DBB2     		uxtb	r3, r3
 417 027a 0B2B     		cmp	r3, #11
 418 027c 3BD8     		bhi	.L17
 129:.\keyboard.c  ****                         bufferDisplay2.valueKeys[numberKeys2]=PressedKey;
 419              		.loc 1 129 0
 420 027e 144A     		ldr	r2, .L31+20
 421 0280 1378     		ldrb	r3, [r2]	@ zero_extendqisi2
 422 0282 0133     		adds	r3, r3, #1
 423 0284 DBB2     		uxtb	r3, r3
 424 0286 1370     		strb	r3, [r2]
 130:.\keyboard.c  ****                         if(character==0){
 425              		.loc 1 130 0
 426 0288 1378     		ldrb	r3, [r2]	@ zero_extendqisi2
 427 028a 124A     		ldr	r2, .L31+24
 428 028c 1344     		add	r3, r3, r2
 429 028e 83F84B00 		strb	r0, [r3, #75]
 131:.\keyboard.c  ****                             WriteLCD(2,bufferDisplay2.valueKeys[numberKeys2],3,numberKeys2+2,1,0x00
ARM GAS  C:\Users\RECEPC~1\AppData\Local\Temp\ccxnXfjK.s 			page 12


 430              		.loc 1 131 0
 431 0292 0CBB     		cbnz	r4, .L18
 132:.\keyboard.c  ****                         }else{
 432              		.loc 1 132 0
 433 0294 0E4B     		ldr	r3, .L31+20
 434 0296 1A78     		ldrb	r2, [r3]	@ zero_extendqisi2
 435 0298 1B78     		ldrb	r3, [r3]	@ zero_extendqisi2
 436 029a 0E49     		ldr	r1, .L31+24
 437 029c 0A44     		add	r2, r2, r1
 438 029e 92F84B10 		ldrb	r1, [r2, #75]	@ zero_extendqisi2
 439 02a2 0122     		movs	r2, #1
 440 02a4 0092     		str	r2, [sp]
 441 02a6 0022     		movs	r2, #0
 442 02a8 0192     		str	r2, [sp, #4]
 443 02aa 4E22     		movs	r2, #78
 444 02ac 0292     		str	r2, [sp, #8]
 445 02ae 0220     		movs	r0, #2
 446              	.LVL38:
 447 02b0 0322     		movs	r2, #3
 448 02b2 0344     		add	r3, r3, r0
 449 02b4 FFF7FEFF 		bl	WriteLCD
 450              	.LVL39:
 451 02b8 8DE0     		b	.L16
 452              	.L32:
 453 02ba 00BF     		.align	2
 454              	.L31:
 455 02bc 00000000 		.word	Display1_rxBuffer
 456 02c0 00000000 		.word	numberKeys1
 457 02c4 00000000 		.word	bufferDisplay1
 458 02c8 00000000 		.word	flagPoint1
 459 02cc 00000000 		.word	Display2_rxBuffer
 460 02d0 00000000 		.word	numberKeys2
 461 02d4 00000000 		.word	bufferDisplay2
 462              	.LVL40:
 463              	.L18:
 134:.\keyboard.c  ****                         }
 464              		.loc 1 134 0
 465 02d8 6A4B     		ldr	r3, .L33
 466 02da 1B78     		ldrb	r3, [r3]	@ zero_extendqisi2
 467 02dc 0122     		movs	r2, #1
 468 02de 0092     		str	r2, [sp]
 469 02e0 0022     		movs	r2, #0
 470 02e2 0192     		str	r2, [sp, #4]
 471 02e4 4E22     		movs	r2, #78
 472 02e6 0292     		str	r2, [sp, #8]
 473 02e8 0220     		movs	r0, #2
 474              	.LVL41:
 475 02ea 2146     		mov	r1, r4
 476 02ec 0246     		mov	r2, r0
 477 02ee 0344     		add	r3, r3, r0
 478 02f0 FFF7FEFF 		bl	WriteLCD
 479              	.LVL42:
 480 02f4 6FE0     		b	.L16
 481              	.LVL43:
 482              	.L17:
 136:.\keyboard.c  ****                         numberKeys2++;  
 483              		.loc 1 136 0
ARM GAS  C:\Users\RECEPC~1\AppData\Local\Temp\ccxnXfjK.s 			page 13


 484 02f6 A0F12D03 		sub	r3, r0, #45
 485 02fa DBB2     		uxtb	r3, r3
 486 02fc 512B     		cmp	r3, #81
 487 02fe 2CD8     		bhi	.L19
 137:.\keyboard.c  ****                         bufferDisplay2.valueKeys[numberKeys2]=PressedKey;
 488              		.loc 1 137 0
 489 0300 604A     		ldr	r2, .L33
 490 0302 1378     		ldrb	r3, [r2]	@ zero_extendqisi2
 491 0304 0133     		adds	r3, r3, #1
 492 0306 DBB2     		uxtb	r3, r3
 493 0308 1370     		strb	r3, [r2]
 138:.\keyboard.c  ****                         if(character==0){
 494              		.loc 1 138 0
 495 030a 1378     		ldrb	r3, [r2]	@ zero_extendqisi2
 496 030c 5E4A     		ldr	r2, .L33+4
 497 030e 1344     		add	r3, r3, r2
 498 0310 83F84B00 		strb	r0, [r3, #75]
 139:.\keyboard.c  ****                             WriteLCD(2,bufferDisplay2.valueKeys[numberKeys2],3,numberKeys2+2,1,0x00
 499              		.loc 1 139 0
 500 0314 94B9     		cbnz	r4, .L20
 140:.\keyboard.c  ****                         }else{
 501              		.loc 1 140 0
 502 0316 5B4B     		ldr	r3, .L33
 503 0318 1A78     		ldrb	r2, [r3]	@ zero_extendqisi2
 504 031a 1B78     		ldrb	r3, [r3]	@ zero_extendqisi2
 505 031c 5A49     		ldr	r1, .L33+4
 506 031e 0A44     		add	r2, r2, r1
 507 0320 92F84B10 		ldrb	r1, [r2, #75]	@ zero_extendqisi2
 508 0324 0122     		movs	r2, #1
 509 0326 0092     		str	r2, [sp]
 510 0328 0022     		movs	r2, #0
 511 032a 0192     		str	r2, [sp, #4]
 512 032c 4E22     		movs	r2, #78
 513 032e 0292     		str	r2, [sp, #8]
 514 0330 0220     		movs	r0, #2
 515              	.LVL44:
 516 0332 0322     		movs	r2, #3
 517 0334 0344     		add	r3, r3, r0
 518 0336 FFF7FEFF 		bl	WriteLCD
 519              	.LVL45:
 520 033a 4CE0     		b	.L16
 521              	.LVL46:
 522              	.L20:
 142:.\keyboard.c  ****                         }
 523              		.loc 1 142 0
 524 033c 514B     		ldr	r3, .L33
 525 033e 1B78     		ldrb	r3, [r3]	@ zero_extendqisi2
 526 0340 0122     		movs	r2, #1
 527 0342 0092     		str	r2, [sp]
 528 0344 0022     		movs	r2, #0
 529 0346 0192     		str	r2, [sp, #4]
 530 0348 4E22     		movs	r2, #78
 531 034a 0292     		str	r2, [sp, #8]
 532 034c 0220     		movs	r0, #2
 533              	.LVL47:
 534 034e 2146     		mov	r1, r4
 535 0350 0246     		mov	r2, r0
ARM GAS  C:\Users\RECEPC~1\AppData\Local\Temp\ccxnXfjK.s 			page 14


 536 0352 0344     		add	r3, r3, r0
 537 0354 FFF7FEFF 		bl	WriteLCD
 538              	.LVL48:
 539 0358 3DE0     		b	.L16
 540              	.LVL49:
 541              	.L19:
 144:.\keyboard.c  ****                         numberKeys2++;  
 542              		.loc 1 144 0
 543 035a 2C28     		cmp	r0, #44
 544 035c 3BD1     		bne	.L16
 144:.\keyboard.c  ****                         numberKeys2++;  
 545              		.loc 1 144 0 is_stmt 0 discriminator 1
 546 035e 494B     		ldr	r3, .L33
 547 0360 1B78     		ldrb	r3, [r3]	@ zero_extendqisi2
 548 0362 13F0FF0F 		tst	r3, #255
 549 0366 36D0     		beq	.L16
 144:.\keyboard.c  ****                         numberKeys2++;  
 550              		.loc 1 144 0 discriminator 2
 551 0368 484B     		ldr	r3, .L33+8
 552 036a 1B78     		ldrb	r3, [r3]	@ zero_extendqisi2
 553 036c 13F0FF0F 		tst	r3, #255
 554 0370 31D1     		bne	.L16
 145:.\keyboard.c  ****                         flagPoint2=1;
 555              		.loc 1 145 0 is_stmt 1
 556 0372 444A     		ldr	r2, .L33
 557 0374 1378     		ldrb	r3, [r2]	@ zero_extendqisi2
 558 0376 0133     		adds	r3, r3, #1
 559 0378 DBB2     		uxtb	r3, r3
 560 037a 1370     		strb	r3, [r2]
 146:.\keyboard.c  ****                         bufferDisplay2.valueKeys[numberKeys2]=Display2_rxBuffer[3];
 561              		.loc 1 146 0
 562 037c 0121     		movs	r1, #1
 563 037e 434B     		ldr	r3, .L33+8
 564 0380 1970     		strb	r1, [r3]
 147:.\keyboard.c  ****                         if(character==0){
 565              		.loc 1 147 0
 566 0382 1378     		ldrb	r3, [r2]	@ zero_extendqisi2
 567 0384 424A     		ldr	r2, .L33+12
 568 0386 D278     		ldrb	r2, [r2, #3]	@ zero_extendqisi2
 569 0388 3F49     		ldr	r1, .L33+4
 570 038a 0B44     		add	r3, r3, r1
 571 038c 83F84B20 		strb	r2, [r3, #75]
 148:.\keyboard.c  ****                             WriteLCD(2,bufferDisplay2.valueKeys[numberKeys2],3,numberKeys2+2,1,0x00
 572              		.loc 1 148 0
 573 0390 8CB9     		cbnz	r4, .L21
 149:.\keyboard.c  ****                         }else{
 574              		.loc 1 149 0
 575 0392 3C4B     		ldr	r3, .L33
 576 0394 1A78     		ldrb	r2, [r3]	@ zero_extendqisi2
 577 0396 1B78     		ldrb	r3, [r3]	@ zero_extendqisi2
 578 0398 0A44     		add	r2, r2, r1
 579 039a 92F84B10 		ldrb	r1, [r2, #75]	@ zero_extendqisi2
 580 039e 0122     		movs	r2, #1
 581 03a0 0092     		str	r2, [sp]
 582 03a2 0022     		movs	r2, #0
 583 03a4 0192     		str	r2, [sp, #4]
 584 03a6 4E22     		movs	r2, #78
ARM GAS  C:\Users\RECEPC~1\AppData\Local\Temp\ccxnXfjK.s 			page 15


 585 03a8 0292     		str	r2, [sp, #8]
 586 03aa 0220     		movs	r0, #2
 587              	.LVL50:
 588 03ac 0322     		movs	r2, #3
 589 03ae 0344     		add	r3, r3, r0
 590 03b0 FFF7FEFF 		bl	WriteLCD
 591              	.LVL51:
 592 03b4 0FE0     		b	.L16
 593              	.LVL52:
 594              	.L21:
 151:.\keyboard.c  ****                         }
 595              		.loc 1 151 0
 596 03b6 334B     		ldr	r3, .L33
 597 03b8 1B78     		ldrb	r3, [r3]	@ zero_extendqisi2
 598 03ba 0122     		movs	r2, #1
 599 03bc 0092     		str	r2, [sp]
 600 03be 0022     		movs	r2, #0
 601 03c0 0192     		str	r2, [sp, #4]
 602 03c2 4E22     		movs	r2, #78
 603 03c4 0292     		str	r2, [sp, #8]
 604 03c6 0220     		movs	r0, #2
 605              	.LVL53:
 606 03c8 2146     		mov	r1, r4
 607 03ca 0246     		mov	r2, r0
 608 03cc 0344     		add	r3, r3, r0
 609 03ce FFF7FEFF 		bl	WriteLCD
 610              	.LVL54:
 611 03d2 00E0     		b	.L16
 612              	.LVL55:
 613              	.L29:
  59:.\keyboard.c  ****     if(lcd==1){
 614              		.loc 1 59 0
 615 03d4 0025     		movs	r5, #0
 616              	.LVL56:
 617              	.L16:
 155:.\keyboard.c  ****                     if(numberKeys2==0){		//Si no ha presionado nada regresa al menu anterior
 618              		.loc 1 155 0
 619 03d6 0B2D     		cmp	r5, #11
 620 03d8 27D1     		bne	.L22
 156:.\keyboard.c  ****                         CyDelay(20);         
 621              		.loc 1 156 0
 622 03da 2A4B     		ldr	r3, .L33
 623 03dc 1B78     		ldrb	r3, [r3]	@ zero_extendqisi2
 624 03de 03F0FF04 		and	r4, r3, #255
 625 03e2 2BB9     		cbnz	r3, .L23
 157:.\keyboard.c  ****                         Display2_ClearRxBuffer();
 626              		.loc 1 157 0
 627 03e4 1420     		movs	r0, #20
 628 03e6 FFF7FEFF 		bl	CyDelay
 629              	.LVL57:
 158:.\keyboard.c  ****                         return 0;
 630              		.loc 1 158 0
 631 03ea FFF7FEFF 		bl	Display2_ClearRxBuffer
 632              	.LVL58:
 159:.\keyboard.c  ****                     }
 633              		.loc 1 159 0
 634 03ee 45E0     		b	.L3
ARM GAS  C:\Users\RECEPC~1\AppData\Local\Temp\ccxnXfjK.s 			page 16


 635              	.L23:
 162:.\keyboard.c  ****                         if(bufferDisplay2.valueKeys[numberKeys2]==0x2C){
 636              		.loc 1 162 0
 637 03f0 244C     		ldr	r4, .L33
 638 03f2 2378     		ldrb	r3, [r4]	@ zero_extendqisi2
 639 03f4 0122     		movs	r2, #1
 640 03f6 0092     		str	r2, [sp]
 641 03f8 0022     		movs	r2, #0
 642 03fa 0192     		str	r2, [sp, #4]
 643 03fc 4E22     		movs	r2, #78
 644 03fe 0292     		str	r2, [sp, #8]
 645 0400 0220     		movs	r0, #2
 646 0402 2021     		movs	r1, #32
 647 0404 0246     		mov	r2, r0
 648 0406 0344     		add	r3, r3, r0
 649 0408 FFF7FEFF 		bl	WriteLCD
 650              	.LVL59:
 163:.\keyboard.c  ****                             flagPoint2=0;
 651              		.loc 1 163 0
 652 040c 2378     		ldrb	r3, [r4]	@ zero_extendqisi2
 653 040e 1E4A     		ldr	r2, .L33+4
 654 0410 1344     		add	r3, r3, r2
 655 0412 93F84B30 		ldrb	r3, [r3, #75]	@ zero_extendqisi2
 656 0416 2C2B     		cmp	r3, #44
 657 0418 02D1     		bne	.L24
 164:.\keyboard.c  ****                         }
 658              		.loc 1 164 0
 659 041a 0022     		movs	r2, #0
 660 041c 1B4B     		ldr	r3, .L33+8
 661 041e 1A70     		strb	r2, [r3]
 662              	.L24:
 166:.\keyboard.c  ****                     }
 663              		.loc 1 166 0
 664 0420 184A     		ldr	r2, .L33
 665 0422 1378     		ldrb	r3, [r2]	@ zero_extendqisi2
 666 0424 013B     		subs	r3, r3, #1
 667 0426 DBB2     		uxtb	r3, r3
 668 0428 1370     		strb	r3, [r2]
 669              	.L22:
 169:.\keyboard.c  ****                     if(numberKeys2>0){
 670              		.loc 1 169 0
 671 042a 0A2D     		cmp	r5, #10
 672 042c 10D1     		bne	.L25
 170:.\keyboard.c  ****                         bufferDisplay2.valueKeys[0]=numberKeys2;
 673              		.loc 1 170 0
 674 042e 154B     		ldr	r3, .L33
 675 0430 1B78     		ldrb	r3, [r3]	@ zero_extendqisi2
 676 0432 13F0FF0F 		tst	r3, #255
 677 0436 0BD0     		beq	.L25
 171:.\keyboard.c  ****                         CyDelay(20);         
 678              		.loc 1 171 0
 679 0438 124B     		ldr	r3, .L33
 680 043a 1A78     		ldrb	r2, [r3]	@ zero_extendqisi2
 681 043c 124B     		ldr	r3, .L33+4
 682 043e 83F84B20 		strb	r2, [r3, #75]
 172:.\keyboard.c  ****                         Display2_ClearRxBuffer();
 683              		.loc 1 172 0
ARM GAS  C:\Users\RECEPC~1\AppData\Local\Temp\ccxnXfjK.s 			page 17


 684 0442 1420     		movs	r0, #20
 685 0444 FFF7FEFF 		bl	CyDelay
 686              	.LVL60:
 173:.\keyboard.c  ****                         return 1;
 687              		.loc 1 173 0
 688 0448 FFF7FEFF 		bl	Display2_ClearRxBuffer
 689              	.LVL61:
 174:.\keyboard.c  ****                     }
 690              		.loc 1 174 0
 691 044c 0124     		movs	r4, #1
 692 044e 15E0     		b	.L3
 693              	.L25:
 177:.\keyboard.c  ****                     CyDelay(20);         
 694              		.loc 1 177 0
 695 0450 0F4B     		ldr	r3, .L33+12
 696 0452 DB78     		ldrb	r3, [r3, #3]	@ zero_extendqisi2
 697 0454 DBB2     		uxtb	r3, r3
 698 0456 942B     		cmp	r3, #148
 699 0458 06D1     		bne	.L15
 178:.\keyboard.c  ****                     Display2_ClearRxBuffer();
 700              		.loc 1 178 0
 701 045a 1420     		movs	r0, #20
 702 045c FFF7FEFF 		bl	CyDelay
 703              	.LVL62:
 179:.\keyboard.c  ****                     return 0;
 704              		.loc 1 179 0
 705 0460 FFF7FEFF 		bl	Display2_ClearRxBuffer
 706              	.LVL63:
 180:.\keyboard.c  ****                 }
 707              		.loc 1 180 0
 708 0464 0024     		movs	r4, #0
 709 0466 09E0     		b	.L3
 710              	.LVL64:
 711              	.L15:
 183:.\keyboard.c  ****             Display2_ClearRxBuffer();
 712              		.loc 1 183 0
 713 0468 1420     		movs	r0, #20
 714 046a FFF7FEFF 		bl	CyDelay
 715              	.LVL65:
 184:.\keyboard.c  ****         }
 716              		.loc 1 184 0
 717 046e FFF7FEFF 		bl	Display2_ClearRxBuffer
 718              	.LVL66:
 719              		.loc 1 187 0
 720 0472 0224     		movs	r4, #2
 721 0474 02E0     		b	.L3
 722              	.LVL67:
 723              	.L26:
 724 0476 0224     		movs	r4, #2
 725 0478 00E0     		b	.L3
 726              	.L28:
 727 047a 0224     		movs	r4, #2
 728              	.LVL68:
 729              	.L3:
 188:.\keyboard.c  **** }...
 730              		.loc 1 188 0
 731 047c 2046     		mov	r0, r4
ARM GAS  C:\Users\RECEPC~1\AppData\Local\Temp\ccxnXfjK.s 			page 18


 732 047e 05B0     		add	sp, sp, #20
 733              		.cfi_def_cfa_offset 12
 734              		@ sp needed
 735 0480 30BD     		pop	{r4, r5, pc}
 736              	.L34:
 737 0482 00BF     		.align	2
 738              	.L33:
 739 0484 00000000 		.word	numberKeys2
 740 0488 00000000 		.word	bufferDisplay2
 741 048c 00000000 		.word	flagPoint2
 742 0490 00000000 		.word	Display2_rxBuffer
 743              		.cfi_endproc
 744              	.LFE63:
 745              		.size	alphanumeric_keyboard, .-alphanumeric_keyboard
 746              		.comm	side,1096,4
 747              		.comm	bufferDisplay4,332,4
 748              		.comm	bufferDisplay3,332,4
 749              		.comm	bufferDisplay2,332,4
 750              		.comm	bufferDisplay1,332,4
 751              		.comm	GradesHose,5,4
 752              		.comm	CopiasCredito,1,1
 753              		.comm	Encabezado4,30,4
 754              		.comm	Encabezado3,30,4
 755              		.comm	Encabezado2,30,4
 756              		.comm	Encabezado1,30,4
 757              		.comm	intIDStation,2,2
 758              		.comm	buffer_txDisplay,60,4
 759              		.comm	buffer_txEOT,60,4
 760              		.comm	buffer_txPreset,60,4
 761              		.comm	buffer_print,250,4
 762              		.comm	buffer_A,255,4
 763              		.comm	buffer_txTotals,512,4
 764              		.comm	buffer_tx,512,4
 765              		.comm	buffer_rf,512,4
 766              		.comm	printPortB,1,1
 767              		.comm	printPortA,1,1
 768              		.comm	pumpGap,3,4
 769              		.comm	idStation,5,4
 770              		.comm	controlChar,1,1
 771              		.comm	configAccess,5,4
 772              		.comm	count_protector2,1,1
 773              		.comm	count_protector,1,1
 774              		.comm	timeDownHandle,2,4
 775              		.comm	dateDownHandle,3,4
 776              		.comm	VolUnit,6,4
 777              		.comm	PrinterType,1,1
 778              		.comm	hiddenKeys,1,1
 779              		.comm	digits,1,1
 780              		.comm	lockTurn,1,1
 781              		.comm	NumPositions,1,1
 782              		.comm	statePump,4,4
 783              		.comm	DDMode,1,1
 784              		.comm	PPUDec,1,1
 785              		.comm	VolDec,1,1
 786              		.comm	MoneyDec,1,1
 787              		.comm	ConversionFactor,1,1
 788              		.comm	UnitType,1,1
ARM GAS  C:\Users\RECEPC~1\AppData\Local\Temp\ccxnXfjK.s 			page 19


 789              		.comm	bufferAready,1,1
 790              		.comm	sizeSendB,1,1
 791              		.comm	pollTotals,1,1
 792              		.comm	ShiftState,1,1
 793              		.comm	CGrade,1,1
 794              		.comm	tempPPU,5,4
 795              		.comm	tempPreset,8,4
 796              		.comm	temporal,30,4
 797              		.comm	counterRF,1,1
 798              		.comm	ActiveRF,1,1
 799              		.comm	IDCast,2,4
 800              		.comm	PlateRequest,1,1
 801              		.comm	PrevStatePump,4,4
 802              		.comm	stateBeagleSoft,1,1
 803              		.comm	flagResetMux,1,1
 804              		.comm	passwordSeller,8,4
 805              		.comm	typeIdSeller,1,1
 806              		.comm	idSeller,25,4
 807              		.comm	residue,14,4
 808              		.comm	screen,2,4
 809              		.comm	date,3,4
 810              		.comm	time,3,4
 811              		.comm	symbols,2,4
 812              		.comm	ppux10,1,1
 813              		.comm	delayPicture2,4,4
 814              		.comm	delayPicture1,4,4
 815              		.comm	productNumber,1,1
 816              		.comm	flagPoint2,1,1
 817              		.comm	flagPoint1,1,1
 818              		.comm	numberKeys2,1,1
 819              		.comm	numberKeys1,1,1
 820              		.comm	flowDisplay4,4,4
 821              		.comm	flowDisplay3,4,4
 822              		.comm	flowDisplay2,4,4
 823              		.comm	flowDisplay1,4,4
 824              		.comm	countLCD,8,8
 825              		.comm	countPump,8,8
 826              		.comm	countTX,8,8
 827              		.comm	countRX,8,8
 828              		.comm	countAnimation2,8,8
 829              		.comm	countAnimation1,8,8
 830              		.text
 831              	.Letext0:
 832              		.file 2 "c:\\program files (x86)\\cypress\\psoc creator\\3.3\\psoc creator\\import\\gnu\\arm\\4.9.
 833              		.file 3 "c:\\program files (x86)\\cypress\\psoc creator\\3.3\\psoc creator\\import\\gnu\\arm\\4.9.
 834              		.file 4 "Generated_Source\\PSoC5/cytypes.h"
 835              		.file 5 ".\\variables.h"
 836              		.file 6 "Generated_Source\\PSoC5/Display1.h"
 837              		.file 7 "Generated_Source\\PSoC5/Display2.h"
 838              		.file 8 "Generated_Source\\PSoC5/core_cm3.h"
 839              		.file 9 "./LCD.h"
 840              		.file 10 "Generated_Source\\PSoC5/CyLib.h"