ARM GAS  C:\Users\RECEPC~1\AppData\Local\Temp\cc26jA3l.s 			page 1


   1              		.syntax unified
   2              		.cpu cortex-m3
   3              		.fpu softvfp
   4              		.eabi_attribute 20, 1
   5              		.eabi_attribute 21, 1
   6              		.eabi_attribute 23, 3
   7              		.eabi_attribute 24, 1
   8              		.eabi_attribute 25, 1
   9              		.eabi_attribute 26, 1
  10              		.eabi_attribute 30, 1
  11              		.eabi_attribute 34, 1
  12              		.eabi_attribute 18, 4
  13              		.thumb
  14              		.file	"keyboard.c"
  15              		.text
  16              	.Ltext0:
  17              		.cfi_sections	.debug_frame
  18              		.section	.text.alphanumeric_keyboard,"ax",%progbits
  19              		.align	2
  20              		.global	alphanumeric_keyboard
  21              		.thumb
  22              		.thumb_func
  23              		.type	alphanumeric_keyboard, %function
  24              	alphanumeric_keyboard:
  25              	.LFB63:
  26              		.file 1 ".\\keyboard.c"
   1:.\keyboard.c  **** /*
   2:.\keyboard.c  **** ***************************************************************************************************
   3:.\keyboard.c  **** *                                         MUX ADVANCE CODE
   4:.\keyboard.c  **** *
   5:.\keyboard.c  **** *                             (c) Copyright 2016; Sistemas Insepet LTDA
   6:.\keyboard.c  **** *
   7:.\keyboard.c  **** *               All rights reserved.  Protected by international copyright laws.
   8:.\keyboard.c  **** *               Knowledge of the source code may NOT be used to develop a similar product.
   9:.\keyboard.c  **** *               Please help us continue to provide the Embedded community with the finest
  10:.\keyboard.c  **** *               software available.  Your honesty is greatly appreciated.
  11:.\keyboard.c  **** ***************************************************************************************************
  12:.\keyboard.c  **** */
  13:.\keyboard.c  **** 
  14:.\keyboard.c  **** /*
  15:.\keyboard.c  **** ***************************************************************************************************
  16:.\keyboard.c  **** *
  17:.\keyboard.c  **** *                                            MUX ADVANCE CODE
  18:.\keyboard.c  **** *
  19:.\keyboard.c  **** *                                             CYPRESS PSoC5LP
  20:.\keyboard.c  **** *                                                with the
  21:.\keyboard.c  **** *                                            CY8C5969AXI-LP035
  22:.\keyboard.c  **** *
  23:.\keyboard.c  **** * Filename      : keyboard.c
  24:.\keyboard.c  **** * Version       : V1.00
  25:.\keyboard.c  **** * Programmer(s) : 
  26:.\keyboard.c  ****                   
  27:.\keyboard.c  **** ***************************************************************************************************
  28:.\keyboard.c  **** */
  29:.\keyboard.c  **** 
  30:.\keyboard.c  **** /*
  31:.\keyboard.c  **** ***************************************************************************************************
ARM GAS  C:\Users\RECEPC~1\AppData\Local\Temp\cc26jA3l.s 			page 2


  32:.\keyboard.c  **** *                                             INCLUDE FILES
  33:.\keyboard.c  **** ***************************************************************************************************
  34:.\keyboard.c  **** */
  35:.\keyboard.c  **** 
  36:.\keyboard.c  **** #include <device.h>
  37:.\keyboard.c  **** #include "variables.h"
  38:.\keyboard.c  **** #include <LCD.h>
  39:.\keyboard.c  **** #include "LCD.h"
  40:.\keyboard.c  **** 
  41:.\keyboard.c  **** /*
  42:.\keyboard.c  **** ***************************************************************************************************
  43:.\keyboard.c  **** *               uint8 alphanumeric_keyboard(uint8 lcd, uint8 maxNumberKeys, uint8 character)
  44:.\keyboard.c  **** *
  45:.\keyboard.c  **** * Description : 
  46:.\keyboard.c  **** *               
  47:.\keyboard.c  **** *
  48:.\keyboard.c  **** * Argument(s) : none
  49:.\keyboard.c  **** *
  50:.\keyboard.c  **** * Return(s)   : none
  51:.\keyboard.c  **** *
  52:.\keyboard.c  **** * Caller(s)   :  
  53:.\keyboard.c  **** *
  54:.\keyboard.c  **** * Note(s)     : none.
  55:.\keyboard.c  **** ***************************************************************************************************
  56:.\keyboard.c  **** */
  57:.\keyboard.c  **** 
  58:.\keyboard.c  **** uint8 alphanumeric_keyboard(uint8 lcd, uint8 maxNumberKeys, uint8 character){
  27              		.loc 1 58 0
  28              		.cfi_startproc
  29              		@ args = 0, pretend = 0, frame = 0
  30              		@ frame_needed = 0, uses_anonymous_args = 0
  31              	.LVL0:
  32 0000 30B5     		push	{r4, r5, lr}
  33              		.cfi_def_cfa_offset 12
  34              		.cfi_offset 4, -12
  35              		.cfi_offset 5, -8
  36              		.cfi_offset 14, -4
  37 0002 85B0     		sub	sp, sp, #20
  38              		.cfi_def_cfa_offset 32
  39 0004 0D46     		mov	r5, r1
  40 0006 1446     		mov	r4, r2
  41              	.LVL1:
  59:.\keyboard.c  ****     char8 PressedKey = 0;
  60:.\keyboard.c  ****     if(lcd==1){
  42              		.loc 1 60 0
  43 0008 0128     		cmp	r0, #1
  44 000a 40F01081 		bne	.L2
  61:.\keyboard.c  ****         if(Display1_GetRxBufferSize()==8){
  45              		.loc 1 61 0
  46 000e FFF7FEFF 		bl	Display1_GetRxBufferSize
  47              	.LVL2:
  48 0012 0828     		cmp	r0, #8
  49 0014 40F02F82 		bne	.L26
  62:.\keyboard.c  ****             if((Display1_rxBuffer[0]==0xAA) && (Display1_rxBuffer[6]==0xC3) && (Display1_rxBuffer[7
  50              		.loc 1 62 0
  51 0018 A84B     		ldr	r3, .L31
  52 001a 1B78     		ldrb	r3, [r3]	@ zero_extendqisi2
ARM GAS  C:\Users\RECEPC~1\AppData\Local\Temp\cc26jA3l.s 			page 3


  53 001c DBB2     		uxtb	r3, r3
  54 001e AA2B     		cmp	r3, #170
  55 0020 40F0FE80 		bne	.L4
  56              		.loc 1 62 0 is_stmt 0 discriminator 1
  57 0024 A54B     		ldr	r3, .L31
  58 0026 9B79     		ldrb	r3, [r3, #6]	@ zero_extendqisi2
  59 0028 DBB2     		uxtb	r3, r3
  60 002a C32B     		cmp	r3, #195
  61 002c 40F0F880 		bne	.L4
  62              		.loc 1 62 0 discriminator 2
  63 0030 A24B     		ldr	r3, .L31
  64 0032 DB79     		ldrb	r3, [r3, #7]	@ zero_extendqisi2
  65 0034 DBB2     		uxtb	r3, r3
  66 0036 3C2B     		cmp	r3, #60
  67 0038 40F0F280 		bne	.L4
  63:.\keyboard.c  ****                 if(numberKeys1<=(maxNumberKeys-1)){
  68              		.loc 1 63 0 is_stmt 1
  69 003c A04B     		ldr	r3, .L31+4
  70 003e 1B78     		ldrb	r3, [r3]	@ zero_extendqisi2
  71 0040 DBB2     		uxtb	r3, r3
  72 0042 013D     		subs	r5, r5, #1
  73 0044 AB42     		cmp	r3, r5
  74 0046 00F39F80 		bgt	.L27
  64:.\keyboard.c  ****                     PressedKey =UnmapCode(Display1_rxBuffer[3]);
  75              		.loc 1 64 0
  76 004a 9C4B     		ldr	r3, .L31
  77 004c D878     		ldrb	r0, [r3, #3]	@ zero_extendqisi2
  78 004e FFF7FEFF 		bl	UnmapCode
  79              	.LVL3:
  80 0052 0546     		mov	r5, r0
  81              	.LVL4:
  65:.\keyboard.c  ****                     if(PressedKey>=0x20 && PressedKey<=0x2B){ //Comandos ascii sin incluir coma (,)
  82              		.loc 1 65 0
  83 0054 A0F12003 		sub	r3, r0, #32
  84 0058 DBB2     		uxtb	r3, r3
  85 005a 0B2B     		cmp	r3, #11
  86 005c 2AD8     		bhi	.L6
  66:.\keyboard.c  ****                         numberKeys1++;  
  87              		.loc 1 66 0
  88 005e 984A     		ldr	r2, .L31+4
  89 0060 1378     		ldrb	r3, [r2]	@ zero_extendqisi2
  90 0062 0133     		adds	r3, r3, #1
  91 0064 DBB2     		uxtb	r3, r3
  92 0066 1370     		strb	r3, [r2]
  67:.\keyboard.c  ****                         bufferDisplay1.valueKeys[numberKeys1]=PressedKey;
  93              		.loc 1 67 0
  94 0068 1378     		ldrb	r3, [r2]	@ zero_extendqisi2
  95 006a 964A     		ldr	r2, .L31+8
  96 006c 1344     		add	r3, r3, r2
  97 006e 83F86400 		strb	r0, [r3, #100]
  68:.\keyboard.c  ****                         if(character==0){
  98              		.loc 1 68 0
  99 0072 8CB9     		cbnz	r4, .L7
  69:.\keyboard.c  ****                             WriteLCD(1,bufferDisplay1.valueKeys[numberKeys1],3,numberKeys1+2,1,0x00
 100              		.loc 1 69 0
 101 0074 924B     		ldr	r3, .L31+4
 102 0076 1A78     		ldrb	r2, [r3]	@ zero_extendqisi2
ARM GAS  C:\Users\RECEPC~1\AppData\Local\Temp\cc26jA3l.s 			page 4


 103 0078 1B78     		ldrb	r3, [r3]	@ zero_extendqisi2
 104 007a 9249     		ldr	r1, .L31+8
 105 007c 0A44     		add	r2, r2, r1
 106 007e 92F86410 		ldrb	r1, [r2, #100]	@ zero_extendqisi2
 107 0082 0120     		movs	r0, #1
 108              	.LVL5:
 109 0084 0090     		str	r0, [sp]
 110 0086 0022     		movs	r2, #0
 111 0088 0192     		str	r2, [sp, #4]
 112 008a 4E22     		movs	r2, #78
 113 008c 0292     		str	r2, [sp, #8]
 114 008e 0322     		movs	r2, #3
 115 0090 0233     		adds	r3, r3, #2
 116 0092 FFF7FEFF 		bl	WriteLCD
 117              	.LVL6:
 118 0096 78E0     		b	.L5
 119              	.LVL7:
 120              	.L7:
  70:.\keyboard.c  ****                         }else{
  71:.\keyboard.c  ****                             WriteLCD(1,character,2,numberKeys1+2,1,0x0000,'N');
 121              		.loc 1 71 0
 122 0098 894B     		ldr	r3, .L31+4
 123 009a 1B78     		ldrb	r3, [r3]	@ zero_extendqisi2
 124 009c 0120     		movs	r0, #1
 125              	.LVL8:
 126 009e 0090     		str	r0, [sp]
 127 00a0 0022     		movs	r2, #0
 128 00a2 0192     		str	r2, [sp, #4]
 129 00a4 4E22     		movs	r2, #78
 130 00a6 0292     		str	r2, [sp, #8]
 131 00a8 2146     		mov	r1, r4
 132 00aa 0222     		movs	r2, #2
 133 00ac 1344     		add	r3, r3, r2
 134 00ae FFF7FEFF 		bl	WriteLCD
 135              	.LVL9:
 136 00b2 6AE0     		b	.L5
 137              	.LVL10:
 138              	.L6:
  72:.\keyboard.c  ****                         }
  73:.\keyboard.c  ****                     }else if(PressedKey>=0x2D && PressedKey<=0x7E){ //Comandos ascii sin incluir co
 139              		.loc 1 73 0
 140 00b4 A0F12D03 		sub	r3, r0, #45
 141 00b8 DBB2     		uxtb	r3, r3
 142 00ba 512B     		cmp	r3, #81
 143 00bc 2AD8     		bhi	.L8
  74:.\keyboard.c  ****                         numberKeys1++;  
 144              		.loc 1 74 0
 145 00be 804A     		ldr	r2, .L31+4
 146 00c0 1378     		ldrb	r3, [r2]	@ zero_extendqisi2
 147 00c2 0133     		adds	r3, r3, #1
 148 00c4 DBB2     		uxtb	r3, r3
 149 00c6 1370     		strb	r3, [r2]
  75:.\keyboard.c  ****                         bufferDisplay1.valueKeys[numberKeys1]=PressedKey;
 150              		.loc 1 75 0
 151 00c8 1378     		ldrb	r3, [r2]	@ zero_extendqisi2
 152 00ca 7E4A     		ldr	r2, .L31+8
 153 00cc 1344     		add	r3, r3, r2
ARM GAS  C:\Users\RECEPC~1\AppData\Local\Temp\cc26jA3l.s 			page 5


 154 00ce 83F86400 		strb	r0, [r3, #100]
  76:.\keyboard.c  ****                         if(character==0){
 155              		.loc 1 76 0
 156 00d2 8CB9     		cbnz	r4, .L9
  77:.\keyboard.c  ****                             WriteLCD(1,bufferDisplay1.valueKeys[numberKeys1],3,numberKeys1+2,1,0x00
 157              		.loc 1 77 0
 158 00d4 7A4B     		ldr	r3, .L31+4
 159 00d6 1A78     		ldrb	r2, [r3]	@ zero_extendqisi2
 160 00d8 1B78     		ldrb	r3, [r3]	@ zero_extendqisi2
 161 00da 7A49     		ldr	r1, .L31+8
 162 00dc 0A44     		add	r2, r2, r1
 163 00de 92F86410 		ldrb	r1, [r2, #100]	@ zero_extendqisi2
 164 00e2 0120     		movs	r0, #1
 165              	.LVL11:
 166 00e4 0090     		str	r0, [sp]
 167 00e6 0022     		movs	r2, #0
 168 00e8 0192     		str	r2, [sp, #4]
 169 00ea 4E22     		movs	r2, #78
 170 00ec 0292     		str	r2, [sp, #8]
 171 00ee 0322     		movs	r2, #3
 172 00f0 0233     		adds	r3, r3, #2
 173 00f2 FFF7FEFF 		bl	WriteLCD
 174              	.LVL12:
 175 00f6 48E0     		b	.L5
 176              	.LVL13:
 177              	.L9:
  78:.\keyboard.c  ****                         }else{
  79:.\keyboard.c  ****                             WriteLCD(1,character,2,numberKeys1+2,1,0x0000,'N');
 178              		.loc 1 79 0
 179 00f8 714B     		ldr	r3, .L31+4
 180 00fa 1B78     		ldrb	r3, [r3]	@ zero_extendqisi2
 181 00fc 0120     		movs	r0, #1
 182              	.LVL14:
 183 00fe 0090     		str	r0, [sp]
 184 0100 0022     		movs	r2, #0
 185 0102 0192     		str	r2, [sp, #4]
 186 0104 4E22     		movs	r2, #78
 187 0106 0292     		str	r2, [sp, #8]
 188 0108 2146     		mov	r1, r4
 189 010a 0222     		movs	r2, #2
 190 010c 1344     		add	r3, r3, r2
 191 010e FFF7FEFF 		bl	WriteLCD
 192              	.LVL15:
 193 0112 3AE0     		b	.L5
 194              	.LVL16:
 195              	.L8:
  80:.\keyboard.c  ****                         }
  81:.\keyboard.c  ****                     }else if(PressedKey==',' && numberKeys1>=1 && flagPoint1==0){  //Coma (,)
 196              		.loc 1 81 0
 197 0114 2C28     		cmp	r0, #44
 198 0116 38D1     		bne	.L5
 199              		.loc 1 81 0 is_stmt 0 discriminator 1
 200 0118 694B     		ldr	r3, .L31+4
 201 011a 1B78     		ldrb	r3, [r3]	@ zero_extendqisi2
 202 011c 13F0FF0F 		tst	r3, #255
 203 0120 33D0     		beq	.L5
 204              		.loc 1 81 0 discriminator 2
ARM GAS  C:\Users\RECEPC~1\AppData\Local\Temp\cc26jA3l.s 			page 6


 205 0122 694B     		ldr	r3, .L31+12
 206 0124 1B78     		ldrb	r3, [r3]	@ zero_extendqisi2
 207 0126 13F0FF0F 		tst	r3, #255
 208 012a 2ED1     		bne	.L5
  82:.\keyboard.c  ****                         numberKeys1++;  
 209              		.loc 1 82 0 is_stmt 1
 210 012c 644A     		ldr	r2, .L31+4
 211 012e 1378     		ldrb	r3, [r2]	@ zero_extendqisi2
 212 0130 0133     		adds	r3, r3, #1
 213 0132 DBB2     		uxtb	r3, r3
 214 0134 1370     		strb	r3, [r2]
  83:.\keyboard.c  ****                         flagPoint1=1;
 215              		.loc 1 83 0
 216 0136 0121     		movs	r1, #1
 217 0138 634B     		ldr	r3, .L31+12
 218 013a 1970     		strb	r1, [r3]
  84:.\keyboard.c  ****                         bufferDisplay1.valueKeys[numberKeys1]=PressedKey;
 219              		.loc 1 84 0
 220 013c 1378     		ldrb	r3, [r2]	@ zero_extendqisi2
 221 013e 614A     		ldr	r2, .L31+8
 222 0140 1344     		add	r3, r3, r2
 223 0142 83F86400 		strb	r0, [r3, #100]
  85:.\keyboard.c  ****                         if(character==0){
 224              		.loc 1 85 0
 225 0146 8CB9     		cbnz	r4, .L10
  86:.\keyboard.c  ****                             WriteLCD(1,bufferDisplay1.valueKeys[numberKeys1],3,numberKeys1+2,1,0x00
 226              		.loc 1 86 0
 227 0148 5D4B     		ldr	r3, .L31+4
 228 014a 1A78     		ldrb	r2, [r3]	@ zero_extendqisi2
 229 014c 1B78     		ldrb	r3, [r3]	@ zero_extendqisi2
 230 014e 5D49     		ldr	r1, .L31+8
 231 0150 0A44     		add	r2, r2, r1
 232 0152 92F86410 		ldrb	r1, [r2, #100]	@ zero_extendqisi2
 233 0156 0120     		movs	r0, #1
 234              	.LVL17:
 235 0158 0090     		str	r0, [sp]
 236 015a 0022     		movs	r2, #0
 237 015c 0192     		str	r2, [sp, #4]
 238 015e 4E22     		movs	r2, #78
 239 0160 0292     		str	r2, [sp, #8]
 240 0162 0322     		movs	r2, #3
 241 0164 0233     		adds	r3, r3, #2
 242 0166 FFF7FEFF 		bl	WriteLCD
 243              	.LVL18:
 244 016a 0EE0     		b	.L5
 245              	.LVL19:
 246              	.L10:
  87:.\keyboard.c  ****                         }else{
  88:.\keyboard.c  ****                             WriteLCD(1,character,2,numberKeys1+2,1,0x0000,'N');
 247              		.loc 1 88 0
 248 016c 544B     		ldr	r3, .L31+4
 249 016e 1B78     		ldrb	r3, [r3]	@ zero_extendqisi2
 250 0170 0120     		movs	r0, #1
 251              	.LVL20:
 252 0172 0090     		str	r0, [sp]
 253 0174 0022     		movs	r2, #0
 254 0176 0192     		str	r2, [sp, #4]
ARM GAS  C:\Users\RECEPC~1\AppData\Local\Temp\cc26jA3l.s 			page 7


 255 0178 4E22     		movs	r2, #78
 256 017a 0292     		str	r2, [sp, #8]
 257 017c 2146     		mov	r1, r4
 258 017e 0222     		movs	r2, #2
 259 0180 1344     		add	r3, r3, r2
 260 0182 FFF7FEFF 		bl	WriteLCD
 261              	.LVL21:
 262 0186 00E0     		b	.L5
 263              	.LVL22:
 264              	.L27:
  59:.\keyboard.c  ****     if(lcd==1){
 265              		.loc 1 59 0
 266 0188 0025     		movs	r5, #0
 267              	.LVL23:
 268              	.L5:
  89:.\keyboard.c  ****                         }
  90:.\keyboard.c  ****                     }
  91:.\keyboard.c  ****                 }  
  92:.\keyboard.c  ****                 if(Display1_rxBuffer[3]==0x0B){ //Borrar
 269              		.loc 1 92 0
 270 018a 4C4B     		ldr	r3, .L31
 271 018c DB78     		ldrb	r3, [r3, #3]	@ zero_extendqisi2
 272 018e DBB2     		uxtb	r3, r3
 273 0190 0B2B     		cmp	r3, #11
 274 0192 26D1     		bne	.L11
  93:.\keyboard.c  ****                     if(numberKeys1==0){		//Si no ha presionado nada regresa al menu anterior
 275              		.loc 1 93 0
 276 0194 4A4B     		ldr	r3, .L31+4
 277 0196 1B78     		ldrb	r3, [r3]	@ zero_extendqisi2
 278 0198 03F0FF04 		and	r4, r3, #255
 279 019c 2BB9     		cbnz	r3, .L12
  94:.\keyboard.c  ****                         CyDelay(20);         
 280              		.loc 1 94 0
 281 019e 1420     		movs	r0, #20
 282 01a0 FFF7FEFF 		bl	CyDelay
 283              	.LVL24:
  95:.\keyboard.c  ****                         Display1_ClearRxBuffer();
 284              		.loc 1 95 0
 285 01a4 FFF7FEFF 		bl	Display1_ClearRxBuffer
 286              	.LVL25:
  96:.\keyboard.c  ****                         return 0;
 287              		.loc 1 96 0
 288 01a8 68E1     		b	.L3
 289              	.L12:
  97:.\keyboard.c  ****                     }
  98:.\keyboard.c  ****                     else{
  99:.\keyboard.c  ****                         WriteLCD(1,' ',3,numberKeys1+2,1,0x0000,'N');	//Si ya presiono borra el dat
 290              		.loc 1 99 0
 291 01aa 454C     		ldr	r4, .L31+4
 292 01ac 2378     		ldrb	r3, [r4]	@ zero_extendqisi2
 293 01ae 0120     		movs	r0, #1
 294 01b0 0090     		str	r0, [sp]
 295 01b2 0022     		movs	r2, #0
 296 01b4 0192     		str	r2, [sp, #4]
 297 01b6 4E22     		movs	r2, #78
 298 01b8 0292     		str	r2, [sp, #8]
 299 01ba 2021     		movs	r1, #32
ARM GAS  C:\Users\RECEPC~1\AppData\Local\Temp\cc26jA3l.s 			page 8


 300 01bc 0322     		movs	r2, #3
 301 01be 0233     		adds	r3, r3, #2
 302 01c0 FFF7FEFF 		bl	WriteLCD
 303              	.LVL26:
 100:.\keyboard.c  ****                         if(bufferDisplay1.valueKeys[numberKeys1]==0x2C){
 304              		.loc 1 100 0
 305 01c4 2378     		ldrb	r3, [r4]	@ zero_extendqisi2
 306 01c6 3F4A     		ldr	r2, .L31+8
 307 01c8 1344     		add	r3, r3, r2
 308 01ca 93F86430 		ldrb	r3, [r3, #100]	@ zero_extendqisi2
 309 01ce 2C2B     		cmp	r3, #44
 310 01d0 02D1     		bne	.L13
 101:.\keyboard.c  ****                             flagPoint1=0;
 311              		.loc 1 101 0
 312 01d2 0022     		movs	r2, #0
 313 01d4 3C4B     		ldr	r3, .L31+12
 314 01d6 1A70     		strb	r2, [r3]
 315              	.L13:
 102:.\keyboard.c  ****                         }
 103:.\keyboard.c  ****                         numberKeys1--;
 316              		.loc 1 103 0
 317 01d8 394A     		ldr	r2, .L31+4
 318 01da 1378     		ldrb	r3, [r2]	@ zero_extendqisi2
 319 01dc 013B     		subs	r3, r3, #1
 320 01de DBB2     		uxtb	r3, r3
 321 01e0 1370     		strb	r3, [r2]
 322              	.L11:
 104:.\keyboard.c  ****                     }
 105:.\keyboard.c  ****                 }
 106:.\keyboard.c  ****                 if(PressedKey==0x0A){ //Enter
 323              		.loc 1 106 0
 324 01e2 0A2D     		cmp	r5, #10
 325 01e4 10D1     		bne	.L14
 107:.\keyboard.c  ****                     if(numberKeys1>0){
 326              		.loc 1 107 0
 327 01e6 364B     		ldr	r3, .L31+4
 328 01e8 1B78     		ldrb	r3, [r3]	@ zero_extendqisi2
 329 01ea 13F0FF0F 		tst	r3, #255
 330 01ee 0BD0     		beq	.L14
 108:.\keyboard.c  ****                         bufferDisplay1.valueKeys[0]=numberKeys1;
 331              		.loc 1 108 0
 332 01f0 334B     		ldr	r3, .L31+4
 333 01f2 1A78     		ldrb	r2, [r3]	@ zero_extendqisi2
 334 01f4 334B     		ldr	r3, .L31+8
 335 01f6 83F86420 		strb	r2, [r3, #100]
 109:.\keyboard.c  ****                         CyDelay(20);         
 336              		.loc 1 109 0
 337 01fa 1420     		movs	r0, #20
 338 01fc FFF7FEFF 		bl	CyDelay
 339              	.LVL27:
 110:.\keyboard.c  ****                         Display1_ClearRxBuffer();
 340              		.loc 1 110 0
 341 0200 FFF7FEFF 		bl	Display1_ClearRxBuffer
 342              	.LVL28:
 111:.\keyboard.c  ****                         return 1;
 343              		.loc 1 111 0
 344 0204 0124     		movs	r4, #1
ARM GAS  C:\Users\RECEPC~1\AppData\Local\Temp\cc26jA3l.s 			page 9


 345 0206 39E1     		b	.L3
 346              	.L14:
 112:.\keyboard.c  ****                     }
 113:.\keyboard.c  ****                 }
 114:.\keyboard.c  ****                 if(Display1_rxBuffer[3]==0x94){ //Atras
 347              		.loc 1 114 0
 348 0208 2C4B     		ldr	r3, .L31
 349 020a DB78     		ldrb	r3, [r3, #3]	@ zero_extendqisi2
 350 020c DBB2     		uxtb	r3, r3
 351 020e 942B     		cmp	r3, #148
 352 0210 06D1     		bne	.L4
 115:.\keyboard.c  ****                     CyDelay(20);         
 353              		.loc 1 115 0
 354 0212 1420     		movs	r0, #20
 355 0214 FFF7FEFF 		bl	CyDelay
 356              	.LVL29:
 116:.\keyboard.c  ****                     Display1_ClearRxBuffer();
 357              		.loc 1 116 0
 358 0218 FFF7FEFF 		bl	Display1_ClearRxBuffer
 359              	.LVL30:
 117:.\keyboard.c  ****                     return 0;
 360              		.loc 1 117 0
 361 021c 0024     		movs	r4, #0
 362 021e 2DE1     		b	.L3
 363              	.LVL31:
 364              	.L4:
 118:.\keyboard.c  ****                 }
 119:.\keyboard.c  ****             } 
 120:.\keyboard.c  ****             CyDelay(20);         
 365              		.loc 1 120 0
 366 0220 1420     		movs	r0, #20
 367 0222 FFF7FEFF 		bl	CyDelay
 368              	.LVL32:
 121:.\keyboard.c  ****             Display1_ClearRxBuffer();
 369              		.loc 1 121 0
 370 0226 FFF7FEFF 		bl	Display1_ClearRxBuffer
 371              	.LVL33:
 122:.\keyboard.c  ****         }
 123:.\keyboard.c  ****     }else{
 124:.\keyboard.c  ****         if(Display2_GetRxBufferSize()==8){
 125:.\keyboard.c  ****             if((Display2_rxBuffer[0]==0xAA) && (Display2_rxBuffer[6]==0xC3) && (Display2_rxBuffer[7
 126:.\keyboard.c  ****                 if(numberKeys2<=(maxNumberKeys-1)){
 127:.\keyboard.c  ****                     PressedKey =UnmapCode(Display2_rxBuffer[3]);
 128:.\keyboard.c  ****                     if(PressedKey>=0x20 && PressedKey<=0x2B){ //Comandos ascii sin incluir coma (,)
 129:.\keyboard.c  ****                         numberKeys2++;  
 130:.\keyboard.c  ****                         bufferDisplay2.valueKeys[numberKeys2]=PressedKey;
 131:.\keyboard.c  ****                         if(character==0){
 132:.\keyboard.c  ****                             WriteLCD(2,bufferDisplay2.valueKeys[numberKeys2],3,numberKeys2+2,1,0x00
 133:.\keyboard.c  ****                         }else{
 134:.\keyboard.c  ****                             WriteLCD(2,character,2,numberKeys2+2,1,0x0000,'N');
 135:.\keyboard.c  ****                         }
 136:.\keyboard.c  ****                     }else if(PressedKey>=0x2D && PressedKey<=0x7E){ //Comandos ascii sin incluir co
 137:.\keyboard.c  ****                         numberKeys2++;  
 138:.\keyboard.c  ****                         bufferDisplay2.valueKeys[numberKeys2]=PressedKey;
 139:.\keyboard.c  ****                         if(character==0){
 140:.\keyboard.c  ****                             WriteLCD(2,bufferDisplay2.valueKeys[numberKeys2],3,numberKeys2+2,1,0x00
 141:.\keyboard.c  ****                         }else{
ARM GAS  C:\Users\RECEPC~1\AppData\Local\Temp\cc26jA3l.s 			page 10


 142:.\keyboard.c  ****                             WriteLCD(2,character,2,numberKeys2+2,1,0x0000,'N');
 143:.\keyboard.c  ****                         }
 144:.\keyboard.c  ****                     }else if(PressedKey==',' && numberKeys2>=1 && flagPoint2==0){  //Coma (,)
 145:.\keyboard.c  ****                         numberKeys2++;  
 146:.\keyboard.c  ****                         flagPoint2=1;
 147:.\keyboard.c  ****                         bufferDisplay2.valueKeys[numberKeys2]=Display2_rxBuffer[3];
 148:.\keyboard.c  ****                         if(character==0){
 149:.\keyboard.c  ****                             WriteLCD(2,bufferDisplay2.valueKeys[numberKeys2],3,numberKeys2+2,1,0x00
 150:.\keyboard.c  ****                         }else{
 151:.\keyboard.c  ****                             WriteLCD(2,character,2,numberKeys2+2,1,0x0000,'N');
 152:.\keyboard.c  ****                         }
 153:.\keyboard.c  ****                     }
 154:.\keyboard.c  ****                 }
 155:.\keyboard.c  ****                 if(PressedKey==0x0B){ //Borrar
 156:.\keyboard.c  ****                     if(numberKeys2==0){		//Si no ha presionado nada regresa al menu anterior
 157:.\keyboard.c  ****                         CyDelay(20);         
 158:.\keyboard.c  ****                         Display2_ClearRxBuffer();
 159:.\keyboard.c  ****                         return 0;
 160:.\keyboard.c  ****                     }
 161:.\keyboard.c  ****                     else{
 162:.\keyboard.c  ****                         WriteLCD(2,' ',2,numberKeys2+2,1,0x0000,'N');	//Si ya presiono borra el dat
 163:.\keyboard.c  ****                         if(bufferDisplay2.valueKeys[numberKeys2]==0x2C){
 164:.\keyboard.c  ****                             flagPoint2=0;
 165:.\keyboard.c  ****                         }
 166:.\keyboard.c  ****                         numberKeys2--;
 167:.\keyboard.c  ****                     }
 168:.\keyboard.c  ****                 }
 169:.\keyboard.c  ****                 if(PressedKey==0x0A){ //Enter
 170:.\keyboard.c  ****                     if(numberKeys2>0){
 171:.\keyboard.c  ****                         bufferDisplay2.valueKeys[0]=numberKeys2;
 172:.\keyboard.c  ****                         CyDelay(20);         
 173:.\keyboard.c  ****                         Display2_ClearRxBuffer();
 174:.\keyboard.c  ****                         return 1;
 175:.\keyboard.c  ****                     }
 176:.\keyboard.c  ****                 }
 177:.\keyboard.c  ****                 if(Display2_rxBuffer[3]==0x94){ //Atras
 178:.\keyboard.c  ****                     CyDelay(20);         
 179:.\keyboard.c  ****                     Display2_ClearRxBuffer();
 180:.\keyboard.c  ****                     return 0;
 181:.\keyboard.c  ****                 }
 182:.\keyboard.c  ****             } 
 183:.\keyboard.c  ****             CyDelay(20);         
 184:.\keyboard.c  ****             Display2_ClearRxBuffer();
 185:.\keyboard.c  ****         }
 186:.\keyboard.c  ****     }
 187:.\keyboard.c  ****     return 2;
 372              		.loc 1 187 0
 373 022a 0224     		movs	r4, #2
 374 022c 26E1     		b	.L3
 375              	.LVL34:
 376              	.L2:
 124:.\keyboard.c  ****             if((Display2_rxBuffer[0]==0xAA) && (Display2_rxBuffer[6]==0xC3) && (Display2_rxBuffer[7
 377              		.loc 1 124 0
 378 022e FFF7FEFF 		bl	Display2_GetRxBufferSize
 379              	.LVL35:
 380 0232 0828     		cmp	r0, #8
 381 0234 40F02181 		bne	.L28
ARM GAS  C:\Users\RECEPC~1\AppData\Local\Temp\cc26jA3l.s 			page 11


 125:.\keyboard.c  ****                 if(numberKeys2<=(maxNumberKeys-1)){
 382              		.loc 1 125 0
 383 0238 244B     		ldr	r3, .L31+16
 384 023a 1B78     		ldrb	r3, [r3]	@ zero_extendqisi2
 385 023c DBB2     		uxtb	r3, r3
 386 023e AA2B     		cmp	r3, #170
 387 0240 40F01281 		bne	.L15
 125:.\keyboard.c  ****                 if(numberKeys2<=(maxNumberKeys-1)){
 388              		.loc 1 125 0 is_stmt 0 discriminator 1
 389 0244 214B     		ldr	r3, .L31+16
 390 0246 9B79     		ldrb	r3, [r3, #6]	@ zero_extendqisi2
 391 0248 DBB2     		uxtb	r3, r3
 392 024a C32B     		cmp	r3, #195
 393 024c 40F00C81 		bne	.L15
 125:.\keyboard.c  ****                 if(numberKeys2<=(maxNumberKeys-1)){
 394              		.loc 1 125 0 discriminator 2
 395 0250 1E4B     		ldr	r3, .L31+16
 396 0252 DB79     		ldrb	r3, [r3, #7]	@ zero_extendqisi2
 397 0254 DBB2     		uxtb	r3, r3
 398 0256 3C2B     		cmp	r3, #60
 399 0258 40F00681 		bne	.L15
 126:.\keyboard.c  ****                     PressedKey =UnmapCode(Display2_rxBuffer[3]);
 400              		.loc 1 126 0 is_stmt 1
 401 025c 1C4B     		ldr	r3, .L31+20
 402 025e 1B78     		ldrb	r3, [r3]	@ zero_extendqisi2
 403 0260 DBB2     		uxtb	r3, r3
 404 0262 013D     		subs	r5, r5, #1
 405 0264 AB42     		cmp	r3, r5
 406 0266 00F3B580 		bgt	.L29
 127:.\keyboard.c  ****                     if(PressedKey>=0x20 && PressedKey<=0x2B){ //Comandos ascii sin incluir coma (,)
 407              		.loc 1 127 0
 408 026a 184B     		ldr	r3, .L31+16
 409 026c D878     		ldrb	r0, [r3, #3]	@ zero_extendqisi2
 410 026e FFF7FEFF 		bl	UnmapCode
 411              	.LVL36:
 412 0272 0546     		mov	r5, r0
 413              	.LVL37:
 128:.\keyboard.c  ****                         numberKeys2++;  
 414              		.loc 1 128 0
 415 0274 A0F12003 		sub	r3, r0, #32
 416 0278 DBB2     		uxtb	r3, r3
 417 027a 0B2B     		cmp	r3, #11
 418 027c 3BD8     		bhi	.L17
 129:.\keyboard.c  ****                         bufferDisplay2.valueKeys[numberKeys2]=PressedKey;
 419              		.loc 1 129 0
 420 027e 144A     		ldr	r2, .L31+20
 421 0280 1378     		ldrb	r3, [r2]	@ zero_extendqisi2
 422 0282 0133     		adds	r3, r3, #1
 423 0284 DBB2     		uxtb	r3, r3
 424 0286 1370     		strb	r3, [r2]
 130:.\keyboard.c  ****                         if(character==0){
 425              		.loc 1 130 0
 426 0288 1378     		ldrb	r3, [r2]	@ zero_extendqisi2
 427 028a 124A     		ldr	r2, .L31+24
 428 028c 1344     		add	r3, r3, r2
 429 028e 83F86400 		strb	r0, [r3, #100]
 131:.\keyboard.c  ****                             WriteLCD(2,bufferDisplay2.valueKeys[numberKeys2],3,numberKeys2+2,1,0x00
ARM GAS  C:\Users\RECEPC~1\AppData\Local\Temp\cc26jA3l.s 			page 12


 430              		.loc 1 131 0
 431 0292 0CBB     		cbnz	r4, .L18
 132:.\keyboard.c  ****                         }else{
 432              		.loc 1 132 0
 433 0294 0E4B     		ldr	r3, .L31+20
 434 0296 1A78     		ldrb	r2, [r3]	@ zero_extendqisi2
 435 0298 1B78     		ldrb	r3, [r3]	@ zero_extendqisi2
 436 029a 0E49     		ldr	r1, .L31+24
 437 029c 0A44     		add	r2, r2, r1
 438 029e 92F86410 		ldrb	r1, [r2, #100]	@ zero_extendqisi2
 439 02a2 0122     		movs	r2, #1
 440 02a4 0092     		str	r2, [sp]
 441 02a6 0022     		movs	r2, #0
 442 02a8 0192     		str	r2, [sp, #4]
 443 02aa 4E22     		movs	r2, #78
 444 02ac 0292     		str	r2, [sp, #8]
 445 02ae 0220     		movs	r0, #2
 446              	.LVL38:
 447 02b0 0322     		movs	r2, #3
 448 02b2 0344     		add	r3, r3, r0
 449 02b4 FFF7FEFF 		bl	WriteLCD
 450              	.LVL39:
 451 02b8 8DE0     		b	.L16
 452              	.L32:
 453 02ba 00BF     		.align	2
 454              	.L31:
 455 02bc 00000000 		.word	Display1_rxBuffer
 456 02c0 00000000 		.word	numberKeys1
 457 02c4 00000000 		.word	bufferDisplay1
 458 02c8 00000000 		.word	flagPoint1
 459 02cc 00000000 		.word	Display2_rxBuffer
 460 02d0 00000000 		.word	numberKeys2
 461 02d4 00000000 		.word	bufferDisplay2
 462              	.LVL40:
 463              	.L18:
 134:.\keyboard.c  ****                         }
 464              		.loc 1 134 0
 465 02d8 6A4B     		ldr	r3, .L33
 466 02da 1B78     		ldrb	r3, [r3]	@ zero_extendqisi2
 467 02dc 0122     		movs	r2, #1
 468 02de 0092     		str	r2, [sp]
 469 02e0 0022     		movs	r2, #0
 470 02e2 0192     		str	r2, [sp, #4]
 471 02e4 4E22     		movs	r2, #78
 472 02e6 0292     		str	r2, [sp, #8]
 473 02e8 0220     		movs	r0, #2
 474              	.LVL41:
 475 02ea 2146     		mov	r1, r4
 476 02ec 0246     		mov	r2, r0
 477 02ee 0344     		add	r3, r3, r0
 478 02f0 FFF7FEFF 		bl	WriteLCD
 479              	.LVL42:
 480 02f4 6FE0     		b	.L16
 481              	.LVL43:
 482              	.L17:
 136:.\keyboard.c  ****                         numberKeys2++;  
 483              		.loc 1 136 0
ARM GAS  C:\Users\RECEPC~1\AppData\Local\Temp\cc26jA3l.s 			page 13


 484 02f6 A0F12D03 		sub	r3, r0, #45
 485 02fa DBB2     		uxtb	r3, r3
 486 02fc 512B     		cmp	r3, #81
 487 02fe 2CD8     		bhi	.L19
 137:.\keyboard.c  ****                         bufferDisplay2.valueKeys[numberKeys2]=PressedKey;
 488              		.loc 1 137 0
 489 0300 604A     		ldr	r2, .L33
 490 0302 1378     		ldrb	r3, [r2]	@ zero_extendqisi2
 491 0304 0133     		adds	r3, r3, #1
 492 0306 DBB2     		uxtb	r3, r3
 493 0308 1370     		strb	r3, [r2]
 138:.\keyboard.c  ****                         if(character==0){
 494              		.loc 1 138 0
 495 030a 1378     		ldrb	r3, [r2]	@ zero_extendqisi2
 496 030c 5E4A     		ldr	r2, .L33+4
 497 030e 1344     		add	r3, r3, r2
 498 0310 83F86400 		strb	r0, [r3, #100]
 139:.\keyboard.c  ****                             WriteLCD(2,bufferDisplay2.valueKeys[numberKeys2],3,numberKeys2+2,1,0x00
 499              		.loc 1 139 0
 500 0314 94B9     		cbnz	r4, .L20
 140:.\keyboard.c  ****                         }else{
 501              		.loc 1 140 0
 502 0316 5B4B     		ldr	r3, .L33
 503 0318 1A78     		ldrb	r2, [r3]	@ zero_extendqisi2
 504 031a 1B78     		ldrb	r3, [r3]	@ zero_extendqisi2
 505 031c 5A49     		ldr	r1, .L33+4
 506 031e 0A44     		add	r2, r2, r1
 507 0320 92F86410 		ldrb	r1, [r2, #100]	@ zero_extendqisi2
 508 0324 0122     		movs	r2, #1
 509 0326 0092     		str	r2, [sp]
 510 0328 0022     		movs	r2, #0
 511 032a 0192     		str	r2, [sp, #4]
 512 032c 4E22     		movs	r2, #78
 513 032e 0292     		str	r2, [sp, #8]
 514 0330 0220     		movs	r0, #2
 515              	.LVL44:
 516 0332 0322     		movs	r2, #3
 517 0334 0344     		add	r3, r3, r0
 518 0336 FFF7FEFF 		bl	WriteLCD
 519              	.LVL45:
 520 033a 4CE0     		b	.L16
 521              	.LVL46:
 522              	.L20:
 142:.\keyboard.c  ****                         }
 523              		.loc 1 142 0
 524 033c 514B     		ldr	r3, .L33
 525 033e 1B78     		ldrb	r3, [r3]	@ zero_extendqisi2
 526 0340 0122     		movs	r2, #1
 527 0342 0092     		str	r2, [sp]
 528 0344 0022     		movs	r2, #0
 529 0346 0192     		str	r2, [sp, #4]
 530 0348 4E22     		movs	r2, #78
 531 034a 0292     		str	r2, [sp, #8]
 532 034c 0220     		movs	r0, #2
 533              	.LVL47:
 534 034e 2146     		mov	r1, r4
 535 0350 0246     		mov	r2, r0
ARM GAS  C:\Users\RECEPC~1\AppData\Local\Temp\cc26jA3l.s 			page 14


 536 0352 0344     		add	r3, r3, r0
 537 0354 FFF7FEFF 		bl	WriteLCD
 538              	.LVL48:
 539 0358 3DE0     		b	.L16
 540              	.LVL49:
 541              	.L19:
 144:.\keyboard.c  ****                         numberKeys2++;  
 542              		.loc 1 144 0
 543 035a 2C28     		cmp	r0, #44
 544 035c 3BD1     		bne	.L16
 144:.\keyboard.c  ****                         numberKeys2++;  
 545              		.loc 1 144 0 is_stmt 0 discriminator 1
 546 035e 494B     		ldr	r3, .L33
 547 0360 1B78     		ldrb	r3, [r3]	@ zero_extendqisi2
 548 0362 13F0FF0F 		tst	r3, #255
 549 0366 36D0     		beq	.L16
 144:.\keyboard.c  ****                         numberKeys2++;  
 550              		.loc 1 144 0 discriminator 2
 551 0368 484B     		ldr	r3, .L33+8
 552 036a 1B78     		ldrb	r3, [r3]	@ zero_extendqisi2
 553 036c 13F0FF0F 		tst	r3, #255
 554 0370 31D1     		bne	.L16
 145:.\keyboard.c  ****                         flagPoint2=1;
 555              		.loc 1 145 0 is_stmt 1
 556 0372 444A     		ldr	r2, .L33
 557 0374 1378     		ldrb	r3, [r2]	@ zero_extendqisi2
 558 0376 0133     		adds	r3, r3, #1
 559 0378 DBB2     		uxtb	r3, r3
 560 037a 1370     		strb	r3, [r2]
 146:.\keyboard.c  ****                         bufferDisplay2.valueKeys[numberKeys2]=Display2_rxBuffer[3];
 561              		.loc 1 146 0
 562 037c 0121     		movs	r1, #1
 563 037e 434B     		ldr	r3, .L33+8
 564 0380 1970     		strb	r1, [r3]
 147:.\keyboard.c  ****                         if(character==0){
 565              		.loc 1 147 0
 566 0382 1378     		ldrb	r3, [r2]	@ zero_extendqisi2
 567 0384 424A     		ldr	r2, .L33+12
 568 0386 D278     		ldrb	r2, [r2, #3]	@ zero_extendqisi2
 569 0388 3F49     		ldr	r1, .L33+4
 570 038a 0B44     		add	r3, r3, r1
 571 038c 83F86420 		strb	r2, [r3, #100]
 148:.\keyboard.c  ****                             WriteLCD(2,bufferDisplay2.valueKeys[numberKeys2],3,numberKeys2+2,1,0x00
 572              		.loc 1 148 0
 573 0390 8CB9     		cbnz	r4, .L21
 149:.\keyboard.c  ****                         }else{
 574              		.loc 1 149 0
 575 0392 3C4B     		ldr	r3, .L33
 576 0394 1A78     		ldrb	r2, [r3]	@ zero_extendqisi2
 577 0396 1B78     		ldrb	r3, [r3]	@ zero_extendqisi2
 578 0398 0A44     		add	r2, r2, r1
 579 039a 92F86410 		ldrb	r1, [r2, #100]	@ zero_extendqisi2
 580 039e 0122     		movs	r2, #1
 581 03a0 0092     		str	r2, [sp]
 582 03a2 0022     		movs	r2, #0
 583 03a4 0192     		str	r2, [sp, #4]
 584 03a6 4E22     		movs	r2, #78
ARM GAS  C:\Users\RECEPC~1\AppData\Local\Temp\cc26jA3l.s 			page 15


 585 03a8 0292     		str	r2, [sp, #8]
 586 03aa 0220     		movs	r0, #2
 587              	.LVL50:
 588 03ac 0322     		movs	r2, #3
 589 03ae 0344     		add	r3, r3, r0
 590 03b0 FFF7FEFF 		bl	WriteLCD
 591              	.LVL51:
 592 03b4 0FE0     		b	.L16
 593              	.LVL52:
 594              	.L21:
 151:.\keyboard.c  ****                         }
 595              		.loc 1 151 0
 596 03b6 334B     		ldr	r3, .L33
 597 03b8 1B78     		ldrb	r3, [r3]	@ zero_extendqisi2
 598 03ba 0122     		movs	r2, #1
 599 03bc 0092     		str	r2, [sp]
 600 03be 0022     		movs	r2, #0
 601 03c0 0192     		str	r2, [sp, #4]
 602 03c2 4E22     		movs	r2, #78
 603 03c4 0292     		str	r2, [sp, #8]
 604 03c6 0220     		movs	r0, #2
 605              	.LVL53:
 606 03c8 2146     		mov	r1, r4
 607 03ca 0246     		mov	r2, r0
 608 03cc 0344     		add	r3, r3, r0
 609 03ce FFF7FEFF 		bl	WriteLCD
 610              	.LVL54:
 611 03d2 00E0     		b	.L16
 612              	.LVL55:
 613              	.L29:
  59:.\keyboard.c  ****     if(lcd==1){
 614              		.loc 1 59 0
 615 03d4 0025     		movs	r5, #0
 616              	.LVL56:
 617              	.L16:
 155:.\keyboard.c  ****                     if(numberKeys2==0){		//Si no ha presionado nada regresa al menu anterior
 618              		.loc 1 155 0
 619 03d6 0B2D     		cmp	r5, #11
 620 03d8 27D1     		bne	.L22
 156:.\keyboard.c  ****                         CyDelay(20);         
 621              		.loc 1 156 0
 622 03da 2A4B     		ldr	r3, .L33
 623 03dc 1B78     		ldrb	r3, [r3]	@ zero_extendqisi2
 624 03de 03F0FF04 		and	r4, r3, #255
 625 03e2 2BB9     		cbnz	r3, .L23
 157:.\keyboard.c  ****                         Display2_ClearRxBuffer();
 626              		.loc 1 157 0
 627 03e4 1420     		movs	r0, #20
 628 03e6 FFF7FEFF 		bl	CyDelay
 629              	.LVL57:
 158:.\keyboard.c  ****                         return 0;
 630              		.loc 1 158 0
 631 03ea FFF7FEFF 		bl	Display2_ClearRxBuffer
 632              	.LVL58:
 159:.\keyboard.c  ****                     }
 633              		.loc 1 159 0
 634 03ee 45E0     		b	.L3
ARM GAS  C:\Users\RECEPC~1\AppData\Local\Temp\cc26jA3l.s 			page 16


 635              	.L23:
 162:.\keyboard.c  ****                         if(bufferDisplay2.valueKeys[numberKeys2]==0x2C){
 636              		.loc 1 162 0
 637 03f0 244C     		ldr	r4, .L33
 638 03f2 2378     		ldrb	r3, [r4]	@ zero_extendqisi2
 639 03f4 0122     		movs	r2, #1
 640 03f6 0092     		str	r2, [sp]
 641 03f8 0022     		movs	r2, #0
 642 03fa 0192     		str	r2, [sp, #4]
 643 03fc 4E22     		movs	r2, #78
 644 03fe 0292     		str	r2, [sp, #8]
 645 0400 0220     		movs	r0, #2
 646 0402 2021     		movs	r1, #32
 647 0404 0246     		mov	r2, r0
 648 0406 0344     		add	r3, r3, r0
 649 0408 FFF7FEFF 		bl	WriteLCD
 650              	.LVL59:
 163:.\keyboard.c  ****                             flagPoint2=0;
 651              		.loc 1 163 0
 652 040c 2378     		ldrb	r3, [r4]	@ zero_extendqisi2
 653 040e 1E4A     		ldr	r2, .L33+4
 654 0410 1344     		add	r3, r3, r2
 655 0412 93F86430 		ldrb	r3, [r3, #100]	@ zero_extendqisi2
 656 0416 2C2B     		cmp	r3, #44
 657 0418 02D1     		bne	.L24
 164:.\keyboard.c  ****                         }
 658              		.loc 1 164 0
 659 041a 0022     		movs	r2, #0
 660 041c 1B4B     		ldr	r3, .L33+8
 661 041e 1A70     		strb	r2, [r3]
 662              	.L24:
 166:.\keyboard.c  ****                     }
 663              		.loc 1 166 0
 664 0420 184A     		ldr	r2, .L33
 665 0422 1378     		ldrb	r3, [r2]	@ zero_extendqisi2
 666 0424 013B     		subs	r3, r3, #1
 667 0426 DBB2     		uxtb	r3, r3
 668 0428 1370     		strb	r3, [r2]
 669              	.L22:
 169:.\keyboard.c  ****                     if(numberKeys2>0){
 670              		.loc 1 169 0
 671 042a 0A2D     		cmp	r5, #10
 672 042c 10D1     		bne	.L25
 170:.\keyboard.c  ****                         bufferDisplay2.valueKeys[0]=numberKeys2;
 673              		.loc 1 170 0
 674 042e 154B     		ldr	r3, .L33
 675 0430 1B78     		ldrb	r3, [r3]	@ zero_extendqisi2
 676 0432 13F0FF0F 		tst	r3, #255
 677 0436 0BD0     		beq	.L25
 171:.\keyboard.c  ****                         CyDelay(20);         
 678              		.loc 1 171 0
 679 0438 124B     		ldr	r3, .L33
 680 043a 1A78     		ldrb	r2, [r3]	@ zero_extendqisi2
 681 043c 124B     		ldr	r3, .L33+4
 682 043e 83F86420 		strb	r2, [r3, #100]
 172:.\keyboard.c  ****                         Display2_ClearRxBuffer();
 683              		.loc 1 172 0
ARM GAS  C:\Users\RECEPC~1\AppData\Local\Temp\cc26jA3l.s 			page 17


 684 0442 1420     		movs	r0, #20
 685 0444 FFF7FEFF 		bl	CyDelay
 686              	.LVL60:
 173:.\keyboard.c  ****                         return 1;
 687              		.loc 1 173 0
 688 0448 FFF7FEFF 		bl	Display2_ClearRxBuffer
 689              	.LVL61:
 174:.\keyboard.c  ****                     }
 690              		.loc 1 174 0
 691 044c 0124     		movs	r4, #1
 692 044e 15E0     		b	.L3
 693              	.L25:
 177:.\keyboard.c  ****                     CyDelay(20);         
 694              		.loc 1 177 0
 695 0450 0F4B     		ldr	r3, .L33+12
 696 0452 DB78     		ldrb	r3, [r3, #3]	@ zero_extendqisi2
 697 0454 DBB2     		uxtb	r3, r3
 698 0456 942B     		cmp	r3, #148
 699 0458 06D1     		bne	.L15
 178:.\keyboard.c  ****                     Display2_ClearRxBuffer();
 700              		.loc 1 178 0
 701 045a 1420     		movs	r0, #20
 702 045c FFF7FEFF 		bl	CyDelay
 703              	.LVL62:
 179:.\keyboard.c  ****                     return 0;
 704              		.loc 1 179 0
 705 0460 FFF7FEFF 		bl	Display2_ClearRxBuffer
 706              	.LVL63:
 180:.\keyboard.c  ****                 }
 707              		.loc 1 180 0
 708 0464 0024     		movs	r4, #0
 709 0466 09E0     		b	.L3
 710              	.LVL64:
 711              	.L15:
 183:.\keyboard.c  ****             Display2_ClearRxBuffer();
 712              		.loc 1 183 0
 713 0468 1420     		movs	r0, #20
 714 046a FFF7FEFF 		bl	CyDelay
 715              	.LVL65:
 184:.\keyboard.c  ****         }
 716              		.loc 1 184 0
 717 046e FFF7FEFF 		bl	Display2_ClearRxBuffer
 718              	.LVL66:
 719              		.loc 1 187 0
 720 0472 0224     		movs	r4, #2
 721 0474 02E0     		b	.L3
 722              	.LVL67:
 723              	.L26:
 724 0476 0224     		movs	r4, #2
 725 0478 00E0     		b	.L3
 726              	.L28:
 727 047a 0224     		movs	r4, #2
 728              	.LVL68:
 729              	.L3:
 188:.\keyboard.c  **** }...
 730              		.loc 1 188 0
 731 047c 2046     		mov	r0, r4
ARM GAS  C:\Users\RECEPC~1\AppData\Local\Temp\cc26jA3l.s 			page 18


 732 047e 05B0     		add	sp, sp, #20
 733              		.cfi_def_cfa_offset 12
 734              		@ sp needed
 735 0480 30BD     		pop	{r4, r5, pc}
 736              	.L34:
 737 0482 00BF     		.align	2
 738              	.L33:
 739 0484 00000000 		.word	numberKeys2
 740 0488 00000000 		.word	bufferDisplay2
 741 048c 00000000 		.word	flagPoint2
 742 0490 00000000 		.word	Display2_rxBuffer
 743              		.cfi_endproc
 744              	.LFE63:
 745              		.size	alphanumeric_keyboard, .-alphanumeric_keyboard
 746              		.comm	side,1032,4
 747              		.comm	bufferDisplay4,661,4
 748              		.comm	bufferDisplay3,661,4
 749              		.comm	bufferDisplay2,661,4
 750              		.comm	bufferDisplay1,661,4
 751              		.comm	NumPositions,1,1
 752              		.comm	statePump,4,4
 753              		.comm	DDMode,1,1
 754              		.comm	PPUDec,1,1
 755              		.comm	VolDec,1,1
 756              		.comm	MoneyDec,1,1
 757              		.comm	ConversionFactor,1,1
 758              		.comm	UnitType,1,1
 759              		.comm	PlateRequest,1,1
 760              		.comm	PrevStatePump,4,4
 761              		.comm	stateBeagleSoft,1,1
 762              		.comm	flagResetMux,1,1
 763              		.comm	passwordSeller,8,4
 764              		.comm	typeIdSeller,1,1
 765              		.comm	idSeller,25,4
 766              		.comm	lockTurn,1,1
 767              		.comm	turn,1,1
 768              		.comm	temporal,30,4
 769              		.comm	residue,14,4
 770              		.comm	screen,2,4
 771              		.comm	date,3,4
 772              		.comm	time,3,4
 773              		.comm	symbols,2,4
 774              		.comm	decimalVolume,1,1
 775              		.comm	decimalMoney,1,1
 776              		.comm	ppux10,1,1
 777              		.comm	delayPicture2,4,4
 778              		.comm	delayPicture1,4,4
 779              		.comm	presetFast,30,4
 780              		.comm	productNumber,1,1
 781              		.comm	button,960,4
 782              		.comm	flagPoint2,1,1
 783              		.comm	flagPoint1,1,1
 784              		.comm	numberKeys2,1,1
 785              		.comm	numberKeys1,1,1
 786              		.comm	ipAdress,12,4
 787              		.comm	digits,1,1
 788              		.comm	flowDisplay4,4,4
ARM GAS  C:\Users\RECEPC~1\AppData\Local\Temp\cc26jA3l.s 			page 19


 789              		.comm	flowDisplay3,4,4
 790              		.comm	flowDisplay2,4,4
 791              		.comm	flowDisplay1,4,4
 792              		.comm	countPump,8,8
 793              		.comm	countBeagleTX,8,8
 794              		.comm	countAnimation2,8,8
 795              		.comm	countAnimation1,8,8
 796              		.text
 797              	.Letext0:
 798              		.file 2 "c:\\program files (x86)\\cypress\\psoc creator\\3.3\\psoc creator\\import\\gnu\\arm\\4.9.
 799              		.file 3 "c:\\program files (x86)\\cypress\\psoc creator\\3.3\\psoc creator\\import\\gnu\\arm\\4.9.
 800              		.file 4 "Generated_Source\\PSoC5/cytypes.h"
 801              		.file 5 ".\\variables.h"
 802              		.file 6 "Generated_Source\\PSoC5/Display1.h"
 803              		.file 7 "Generated_Source\\PSoC5/Display2.h"
 804              		.file 8 "Generated_Source\\PSoC5/core_cm3.h"
 805              		.file 9 "./LCD.h"
 806              		.file 10 "Generated_Source\\PSoC5/CyLib.h"
 807              		.section	.debug_info,"",%progbits
 808              	.Ldebug_info0:
 809 0000 EA0D0000 		.4byte	0xdea
 810 0004 0400     		.2byte	0x4
 811 0006 00000000 		.4byte	.Ldebug_abbrev0
 812 000a 04       		.byte	0x4
 813 000b 01       		.uleb128 0x1
 814 000c D5050000 		.4byte	.LASF145
 815 0010 01       		.byte	0x1
 816 0011 D3010000 		.4byte	.LASF146
 817 0015 AD060000 		.4byte	.LASF147
 818 0019 00000000 		.4byte	.Ldebug_ranges0+0
 819 001d 00000000 		.4byte	0
 820 0021 00000000 		.4byte	.Ldebug_line0
 821 0025 02       		.uleb128 0x2
 822 0026 01       		.byte	0x1
 823 0027 06       		.byte	0x6
 824 0028 36070000 		.4byte	.LASF0
 825 002c 03       		.uleb128 0x3
 826 002d FC040000 		.4byte	.LASF3
 827 0031 02       		.byte	0x2
 828 0032 1D       		.byte	0x1d
 829 0033 37000000 		.4byte	0x37
 830 0037 02       		.uleb128 0x2
 831 0038 01       		.byte	0x1
 832 0039 08       		.byte	0x8
 833 003a C7050000 		.4byte	.LASF1
 834 003e 02       		.uleb128 0x2
 835 003f 02       		.byte	0x2
 836 0040 05       		.byte	0x5
 837 0041 74040000 		.4byte	.LASF2
 838 0045 03       		.uleb128 0x3
 839 0046 7F010000 		.4byte	.LASF4
 840 004a 02       		.byte	0x2
 841 004b 2B       		.byte	0x2b
 842 004c 50000000 		.4byte	0x50
 843 0050 02       		.uleb128 0x2
 844 0051 02       		.byte	0x2
 845 0052 07       		.byte	0x7
ARM GAS  C:\Users\RECEPC~1\AppData\Local\Temp\cc26jA3l.s 			page 20


 846 0053 42070000 		.4byte	.LASF5
 847 0057 03       		.uleb128 0x3
 848 0058 A0000000 		.4byte	.LASF6
 849 005c 02       		.byte	0x2
 850 005d 3F       		.byte	0x3f
 851 005e 62000000 		.4byte	0x62
 852 0062 02       		.uleb128 0x2
 853 0063 04       		.byte	0x4
 854 0064 05       		.byte	0x5
 855 0065 7E040000 		.4byte	.LASF7
 856 0069 02       		.uleb128 0x2
 857 006a 04       		.byte	0x4
 858 006b 07       		.byte	0x7
 859 006c 64050000 		.4byte	.LASF8
 860 0070 02       		.uleb128 0x2
 861 0071 08       		.byte	0x8
 862 0072 05       		.byte	0x5
 863 0073 31030000 		.4byte	.LASF9
 864 0077 02       		.uleb128 0x2
 865 0078 08       		.byte	0x8
 866 0079 07       		.byte	0x7
 867 007a 4B010000 		.4byte	.LASF10
 868 007e 04       		.uleb128 0x4
 869 007f 04       		.byte	0x4
 870 0080 05       		.byte	0x5
 871 0081 696E7400 		.ascii	"int\000"
 872 0085 02       		.uleb128 0x2
 873 0086 04       		.byte	0x4
 874 0087 07       		.byte	0x7
 875 0088 85000000 		.4byte	.LASF11
 876 008c 03       		.uleb128 0x3
 877 008d C9020000 		.4byte	.LASF12
 878 0091 03       		.byte	0x3
 879 0092 15       		.byte	0x15
 880 0093 2C000000 		.4byte	0x2c
 881 0097 03       		.uleb128 0x3
 882 0098 F9030000 		.4byte	.LASF13
 883 009c 03       		.byte	0x3
 884 009d 21       		.byte	0x21
 885 009e 45000000 		.4byte	0x45
 886 00a2 03       		.uleb128 0x3
 887 00a3 9A050000 		.4byte	.LASF14
 888 00a7 03       		.byte	0x3
 889 00a8 2C       		.byte	0x2c
 890 00a9 57000000 		.4byte	0x57
 891 00ad 05       		.uleb128 0x5
 892 00ae 7D070000 		.4byte	.LASF15
 893 00b2 04       		.byte	0x4
 894 00b3 3801     		.2byte	0x138
 895 00b5 37000000 		.4byte	0x37
 896 00b9 05       		.uleb128 0x5
 897 00ba C9030000 		.4byte	.LASF16
 898 00be 04       		.byte	0x4
 899 00bf 3A01     		.2byte	0x13a
 900 00c1 69000000 		.4byte	0x69
 901 00c5 02       		.uleb128 0x2
 902 00c6 04       		.byte	0x4
ARM GAS  C:\Users\RECEPC~1\AppData\Local\Temp\cc26jA3l.s 			page 21


 903 00c7 04       		.byte	0x4
 904 00c8 37010000 		.4byte	.LASF17
 905 00cc 02       		.uleb128 0x2
 906 00cd 08       		.byte	0x8
 907 00ce 04       		.byte	0x4
 908 00cf 83070000 		.4byte	.LASF18
 909 00d3 05       		.uleb128 0x5
 910 00d4 2F050000 		.4byte	.LASF19
 911 00d8 04       		.byte	0x4
 912 00d9 4401     		.2byte	0x144
 913 00db 77000000 		.4byte	0x77
 914 00df 05       		.uleb128 0x5
 915 00e0 DD020000 		.4byte	.LASF20
 916 00e4 04       		.byte	0x4
 917 00e5 4901     		.2byte	0x149
 918 00e7 EB000000 		.4byte	0xeb
 919 00eb 02       		.uleb128 0x2
 920 00ec 01       		.byte	0x1
 921 00ed 08       		.byte	0x8
 922 00ee 88020000 		.4byte	.LASF21
 923 00f2 06       		.uleb128 0x6
 924 00f3 AD000000 		.4byte	0xad
 925 00f7 06       		.uleb128 0x6
 926 00f8 B9000000 		.4byte	0xb9
 927 00fc 02       		.uleb128 0x2
 928 00fd 04       		.byte	0x4
 929 00fe 07       		.byte	0x7
 930 00ff 5B050000 		.4byte	.LASF22
 931 0103 07       		.uleb128 0x7
 932 0104 AD000000 		.4byte	0xad
 933 0108 13010000 		.4byte	0x113
 934 010c 08       		.uleb128 0x8
 935 010d FC000000 		.4byte	0xfc
 936 0111 03       		.byte	0x3
 937 0112 00       		.byte	0
 938 0113 09       		.uleb128 0x9
 939 0114 4F000000 		.4byte	.LASF73
 940 0118 9502     		.2byte	0x295
 941 011a 05       		.byte	0x5
 942 011b 5E       		.byte	0x5e
 943 011c 8F030000 		.4byte	0x38f
 944 0120 0A       		.uleb128 0xa
 945 0121 C1000000 		.4byte	.LASF23
 946 0125 05       		.byte	0x5
 947 0126 5F       		.byte	0x5f
 948 0127 AD000000 		.4byte	0xad
 949 012b 00       		.byte	0
 950 012c 0A       		.uleb128 0xa
 951 012d BF010000 		.4byte	.LASF24
 952 0131 05       		.byte	0x5
 953 0132 60       		.byte	0x60
 954 0133 8F030000 		.4byte	0x38f
 955 0137 01       		.byte	0x1
 956 0138 0A       		.uleb128 0xa
 957 0139 E3020000 		.4byte	.LASF25
 958 013d 05       		.byte	0x5
 959 013e 61       		.byte	0x61
ARM GAS  C:\Users\RECEPC~1\AppData\Local\Temp\cc26jA3l.s 			page 22


 960 013f 8F030000 		.4byte	0x38f
 961 0143 1A       		.byte	0x1a
 962 0144 0A       		.uleb128 0xa
 963 0145 8A070000 		.4byte	.LASF26
 964 0149 05       		.byte	0x5
 965 014a 62       		.byte	0x62
 966 014b AD000000 		.4byte	0xad
 967 014f 33       		.byte	0x33
 968 0150 0A       		.uleb128 0xa
 969 0151 B5050000 		.4byte	.LASF27
 970 0155 05       		.byte	0x5
 971 0156 63       		.byte	0x63
 972 0157 AD000000 		.4byte	0xad
 973 015b 34       		.byte	0x34
 974 015c 0A       		.uleb128 0xa
 975 015d D4000000 		.4byte	.LASF28
 976 0161 05       		.byte	0x5
 977 0162 64       		.byte	0x64
 978 0163 9F030000 		.4byte	0x39f
 979 0167 35       		.byte	0x35
 980 0168 0A       		.uleb128 0xa
 981 0169 41040000 		.4byte	.LASF29
 982 016d 05       		.byte	0x5
 983 016e 65       		.byte	0x65
 984 016f 9F030000 		.4byte	0x39f
 985 0173 3F       		.byte	0x3f
 986 0174 0A       		.uleb128 0xa
 987 0175 C7070000 		.4byte	.LASF30
 988 0179 05       		.byte	0x5
 989 017a 66       		.byte	0x66
 990 017b 8F030000 		.4byte	0x38f
 991 017f 49       		.byte	0x49
 992 0180 0A       		.uleb128 0xa
 993 0181 0B040000 		.4byte	.LASF31
 994 0185 05       		.byte	0x5
 995 0186 67       		.byte	0x67
 996 0187 AD000000 		.4byte	0xad
 997 018b 62       		.byte	0x62
 998 018c 0A       		.uleb128 0xa
 999 018d 7C060000 		.4byte	.LASF32
 1000 0191 05       		.byte	0x5
 1001 0192 68       		.byte	0x68
 1002 0193 AD000000 		.4byte	0xad
 1003 0197 63       		.byte	0x63
 1004 0198 0A       		.uleb128 0xa
 1005 0199 7E020000 		.4byte	.LASF33
 1006 019d 05       		.byte	0x5
 1007 019e 69       		.byte	0x69
 1008 019f AF030000 		.4byte	0x3af
 1009 01a3 64       		.byte	0x64
 1010 01a4 0A       		.uleb128 0xa
 1011 01a5 B0030000 		.4byte	.LASF34
 1012 01a9 05       		.byte	0x5
 1013 01aa 6A       		.byte	0x6a
 1014 01ab AD000000 		.4byte	0xad
 1015 01af 79       		.byte	0x79
 1016 01b0 0A       		.uleb128 0xa
ARM GAS  C:\Users\RECEPC~1\AppData\Local\Temp\cc26jA3l.s 			page 23


 1017 01b1 75020000 		.4byte	.LASF35
 1018 01b5 05       		.byte	0x5
 1019 01b6 6B       		.byte	0x6b
 1020 01b7 AD000000 		.4byte	0xad
 1021 01bb 7A       		.byte	0x7a
 1022 01bc 0A       		.uleb128 0xa
 1023 01bd 79000000 		.4byte	.LASF36
 1024 01c1 05       		.byte	0x5
 1025 01c2 6C       		.byte	0x6c
 1026 01c3 AD000000 		.4byte	0xad
 1027 01c7 7B       		.byte	0x7b
 1028 01c8 0A       		.uleb128 0xa
 1029 01c9 03070000 		.4byte	.LASF37
 1030 01cd 05       		.byte	0x5
 1031 01ce 6D       		.byte	0x6d
 1032 01cf BF030000 		.4byte	0x3bf
 1033 01d3 7C       		.byte	0x7c
 1034 01d4 0A       		.uleb128 0xa
 1035 01d5 59020000 		.4byte	.LASF38
 1036 01d9 05       		.byte	0x5
 1037 01da 6E       		.byte	0x6e
 1038 01db CF030000 		.4byte	0x3cf
 1039 01df 7E       		.byte	0x7e
 1040 01e0 0A       		.uleb128 0xa
 1041 01e1 96010000 		.4byte	.LASF39
 1042 01e5 05       		.byte	0x5
 1043 01e6 6F       		.byte	0x6f
 1044 01e7 AD000000 		.4byte	0xad
 1045 01eb 92       		.byte	0x92
 1046 01ec 0A       		.uleb128 0xa
 1047 01ed 52050000 		.4byte	.LASF40
 1048 01f1 05       		.byte	0x5
 1049 01f2 70       		.byte	0x70
 1050 01f3 E5030000 		.4byte	0x3e5
 1051 01f7 93       		.byte	0x93
 1052 01f8 0A       		.uleb128 0xa
 1053 01f9 C0040000 		.4byte	.LASF41
 1054 01fd 05       		.byte	0x5
 1055 01fe 71       		.byte	0x71
 1056 01ff F5030000 		.4byte	0x3f5
 1057 0203 98       		.byte	0x98
 1058 0204 0A       		.uleb128 0xa
 1059 0205 B0010000 		.4byte	.LASF42
 1060 0209 05       		.byte	0x5
 1061 020a 72       		.byte	0x72
 1062 020b F5030000 		.4byte	0x3f5
 1063 020f 9E       		.byte	0x9e
 1064 0210 0A       		.uleb128 0xa
 1065 0211 AA070000 		.4byte	.LASF43
 1066 0215 05       		.byte	0x5
 1067 0216 73       		.byte	0x73
 1068 0217 F5030000 		.4byte	0x3f5
 1069 021b A4       		.byte	0xa4
 1070 021c 0A       		.uleb128 0xa
 1071 021d A1030000 		.4byte	.LASF44
 1072 0221 05       		.byte	0x5
 1073 0222 74       		.byte	0x74
ARM GAS  C:\Users\RECEPC~1\AppData\Local\Temp\cc26jA3l.s 			page 24


 1074 0223 F5030000 		.4byte	0x3f5
 1075 0227 AA       		.byte	0xaa
 1076 0228 0A       		.uleb128 0xa
 1077 0229 23040000 		.4byte	.LASF45
 1078 022d 05       		.byte	0x5
 1079 022e 75       		.byte	0x75
 1080 022f 05040000 		.4byte	0x405
 1081 0233 B0       		.byte	0xb0
 1082 0234 0A       		.uleb128 0xa
 1083 0235 6B010000 		.4byte	.LASF46
 1084 0239 05       		.byte	0x5
 1085 023a 76       		.byte	0x76
 1086 023b 05040000 		.4byte	0x405
 1087 023f BE       		.byte	0xbe
 1088 0240 0A       		.uleb128 0xa
 1089 0241 74030000 		.4byte	.LASF47
 1090 0245 05       		.byte	0x5
 1091 0246 77       		.byte	0x77
 1092 0247 05040000 		.4byte	0x405
 1093 024b CC       		.byte	0xcc
 1094 024c 0A       		.uleb128 0xa
 1095 024d F8020000 		.4byte	.LASF48
 1096 0251 05       		.byte	0x5
 1097 0252 78       		.byte	0x78
 1098 0253 05040000 		.4byte	0x405
 1099 0257 DA       		.byte	0xda
 1100 0258 0A       		.uleb128 0xa
 1101 0259 15050000 		.4byte	.LASF49
 1102 025d 05       		.byte	0x5
 1103 025e 79       		.byte	0x79
 1104 025f 05040000 		.4byte	0x405
 1105 0263 E8       		.byte	0xe8
 1106 0264 0A       		.uleb128 0xa
 1107 0265 EB030000 		.4byte	.LASF50
 1108 0269 05       		.byte	0x5
 1109 026a 7A       		.byte	0x7a
 1110 026b 05040000 		.4byte	0x405
 1111 026f F6       		.byte	0xf6
 1112 0270 0B       		.uleb128 0xb
 1113 0271 5B040000 		.4byte	.LASF51
 1114 0275 05       		.byte	0x5
 1115 0276 7B       		.byte	0x7b
 1116 0277 15040000 		.4byte	0x415
 1117 027b 0401     		.2byte	0x104
 1118 027d 0B       		.uleb128 0xb
 1119 027e E0010000 		.4byte	.LASF52
 1120 0282 05       		.byte	0x5
 1121 0283 7C       		.byte	0x7c
 1122 0284 15040000 		.4byte	0x415
 1123 0288 0F01     		.2byte	0x10f
 1124 028a 0B       		.uleb128 0xb
 1125 028b 6A020000 		.4byte	.LASF53
 1126 028f 05       		.byte	0x5
 1127 0290 7D       		.byte	0x7d
 1128 0291 15040000 		.4byte	0x415
 1129 0295 1A01     		.2byte	0x11a
 1130 0297 0B       		.uleb128 0xb
ARM GAS  C:\Users\RECEPC~1\AppData\Local\Temp\cc26jA3l.s 			page 25


 1131 0298 BC030000 		.4byte	.LASF54
 1132 029c 05       		.byte	0x5
 1133 029d 7E       		.byte	0x7e
 1134 029e AD000000 		.4byte	0xad
 1135 02a2 2501     		.2byte	0x125
 1136 02a4 0B       		.uleb128 0xb
 1137 02a5 D1020000 		.4byte	.LASF55
 1138 02a9 05       		.byte	0x5
 1139 02aa 7F       		.byte	0x7f
 1140 02ab AD000000 		.4byte	0xad
 1141 02af 2601     		.2byte	0x126
 1142 02b1 0B       		.uleb128 0xb
 1143 02b2 AA000000 		.4byte	.LASF56
 1144 02b6 05       		.byte	0x5
 1145 02b7 80       		.byte	0x80
 1146 02b8 AD000000 		.4byte	0xad
 1147 02bc 2701     		.2byte	0x127
 1148 02be 0B       		.uleb128 0xb
 1149 02bf B4040000 		.4byte	.LASF57
 1150 02c3 05       		.byte	0x5
 1151 02c4 81       		.byte	0x81
 1152 02c5 AD000000 		.4byte	0xad
 1153 02c9 2801     		.2byte	0x128
 1154 02cb 0B       		.uleb128 0xb
 1155 02cc 3D000000 		.4byte	.LASF58
 1156 02d0 05       		.byte	0x5
 1157 02d1 82       		.byte	0x82
 1158 02d2 25040000 		.4byte	0x425
 1159 02d6 2901     		.2byte	0x129
 1160 02d8 0B       		.uleb128 0xb
 1161 02d9 08030000 		.4byte	.LASF59
 1162 02dd 05       		.byte	0x5
 1163 02de 83       		.byte	0x83
 1164 02df 9F030000 		.4byte	0x39f
 1165 02e3 6A01     		.2byte	0x16a
 1166 02e5 0B       		.uleb128 0xb
 1167 02e6 1E010000 		.4byte	.LASF60
 1168 02ea 05       		.byte	0x5
 1169 02eb 84       		.byte	0x84
 1170 02ec 9F030000 		.4byte	0x39f
 1171 02f0 7401     		.2byte	0x174
 1172 02f2 0B       		.uleb128 0xb
 1173 02f3 EF020000 		.4byte	.LASF61
 1174 02f7 05       		.byte	0x5
 1175 02f8 85       		.byte	0x85
 1176 02f9 9F030000 		.4byte	0x39f
 1177 02fd 7E01     		.2byte	0x17e
 1178 02ff 0B       		.uleb128 0xb
 1179 0300 3F020000 		.4byte	.LASF62
 1180 0304 05       		.byte	0x5
 1181 0305 86       		.byte	0x86
 1182 0306 35040000 		.4byte	0x435
 1183 030a 8801     		.2byte	0x188
 1184 030c 0B       		.uleb128 0xb
 1185 030d 92000000 		.4byte	.LASF63
 1186 0311 05       		.byte	0x5
 1187 0312 87       		.byte	0x87
ARM GAS  C:\Users\RECEPC~1\AppData\Local\Temp\cc26jA3l.s 			page 26


 1188 0313 35040000 		.4byte	0x435
 1189 0317 D301     		.2byte	0x1d3
 1190 0319 0B       		.uleb128 0xb
 1191 031a E1000000 		.4byte	.LASF64
 1192 031e 05       		.byte	0x5
 1193 031f 88       		.byte	0x88
 1194 0320 4B040000 		.4byte	0x44b
 1195 0324 1E02     		.2byte	0x21e
 1196 0326 0B       		.uleb128 0xb
 1197 0327 A2050000 		.4byte	.LASF65
 1198 032b 05       		.byte	0x5
 1199 032c 89       		.byte	0x89
 1200 032d 4B040000 		.4byte	0x44b
 1201 0331 2D02     		.2byte	0x22d
 1202 0333 0B       		.uleb128 0xb
 1203 0334 8E060000 		.4byte	.LASF66
 1204 0338 05       		.byte	0x5
 1205 0339 8A       		.byte	0x8a
 1206 033a 61040000 		.4byte	0x461
 1207 033e 3C02     		.2byte	0x23c
 1208 0340 0B       		.uleb128 0xb
 1209 0341 0E070000 		.4byte	.LASF67
 1210 0345 05       		.byte	0x5
 1211 0346 8B       		.byte	0x8b
 1212 0347 61040000 		.4byte	0x461
 1213 034b 5A02     		.2byte	0x25a
 1214 034d 0B       		.uleb128 0xb
 1215 034e 95030000 		.4byte	.LASF68
 1216 0352 05       		.byte	0x5
 1217 0353 8C       		.byte	0x8c
 1218 0354 9F030000 		.4byte	0x39f
 1219 0358 7802     		.2byte	0x278
 1220 035a 0B       		.uleb128 0xb
 1221 035b 88050000 		.4byte	.LASF69
 1222 035f 05       		.byte	0x5
 1223 0360 8D       		.byte	0x8d
 1224 0361 AD000000 		.4byte	0xad
 1225 0365 8202     		.2byte	0x282
 1226 0367 0B       		.uleb128 0xb
 1227 0368 67040000 		.4byte	.LASF70
 1228 036c 05       		.byte	0x5
 1229 036d 8E       		.byte	0x8e
 1230 036e 77040000 		.4byte	0x477
 1231 0372 8302     		.2byte	0x283
 1232 0374 0B       		.uleb128 0xb
 1233 0375 13030000 		.4byte	.LASF71
 1234 0379 05       		.byte	0x5
 1235 037a 8F       		.byte	0x8f
 1236 037b BF030000 		.4byte	0x3bf
 1237 037f 9202     		.2byte	0x292
 1238 0381 0B       		.uleb128 0xb
 1239 0382 EC010000 		.4byte	.LASF72
 1240 0386 05       		.byte	0x5
 1241 0387 90       		.byte	0x90
 1242 0388 AD000000 		.4byte	0xad
 1243 038c 9402     		.2byte	0x294
 1244 038e 00       		.byte	0
ARM GAS  C:\Users\RECEPC~1\AppData\Local\Temp\cc26jA3l.s 			page 27


 1245 038f 07       		.uleb128 0x7
 1246 0390 AD000000 		.4byte	0xad
 1247 0394 9F030000 		.4byte	0x39f
 1248 0398 08       		.uleb128 0x8
 1249 0399 FC000000 		.4byte	0xfc
 1250 039d 18       		.byte	0x18
 1251 039e 00       		.byte	0
 1252 039f 07       		.uleb128 0x7
 1253 03a0 AD000000 		.4byte	0xad
 1254 03a4 AF030000 		.4byte	0x3af
 1255 03a8 08       		.uleb128 0x8
 1256 03a9 FC000000 		.4byte	0xfc
 1257 03ad 09       		.byte	0x9
 1258 03ae 00       		.byte	0
 1259 03af 07       		.uleb128 0x7
 1260 03b0 AD000000 		.4byte	0xad
 1261 03b4 BF030000 		.4byte	0x3bf
 1262 03b8 08       		.uleb128 0x8
 1263 03b9 FC000000 		.4byte	0xfc
 1264 03bd 14       		.byte	0x14
 1265 03be 00       		.byte	0
 1266 03bf 07       		.uleb128 0x7
 1267 03c0 AD000000 		.4byte	0xad
 1268 03c4 CF030000 		.4byte	0x3cf
 1269 03c8 08       		.uleb128 0x8
 1270 03c9 FC000000 		.4byte	0xfc
 1271 03cd 01       		.byte	0x1
 1272 03ce 00       		.byte	0
 1273 03cf 07       		.uleb128 0x7
 1274 03d0 AD000000 		.4byte	0xad
 1275 03d4 E5030000 		.4byte	0x3e5
 1276 03d8 08       		.uleb128 0x8
 1277 03d9 FC000000 		.4byte	0xfc
 1278 03dd 01       		.byte	0x1
 1279 03de 08       		.uleb128 0x8
 1280 03df FC000000 		.4byte	0xfc
 1281 03e3 09       		.byte	0x9
 1282 03e4 00       		.byte	0
 1283 03e5 07       		.uleb128 0x7
 1284 03e6 AD000000 		.4byte	0xad
 1285 03ea F5030000 		.4byte	0x3f5
 1286 03ee 08       		.uleb128 0x8
 1287 03ef FC000000 		.4byte	0xfc
 1288 03f3 04       		.byte	0x4
 1289 03f4 00       		.byte	0
 1290 03f5 07       		.uleb128 0x7
 1291 03f6 AD000000 		.4byte	0xad
 1292 03fa 05040000 		.4byte	0x405
 1293 03fe 08       		.uleb128 0x8
 1294 03ff FC000000 		.4byte	0xfc
 1295 0403 05       		.byte	0x5
 1296 0404 00       		.byte	0
 1297 0405 07       		.uleb128 0x7
 1298 0406 AD000000 		.4byte	0xad
 1299 040a 15040000 		.4byte	0x415
 1300 040e 08       		.uleb128 0x8
 1301 040f FC000000 		.4byte	0xfc
ARM GAS  C:\Users\RECEPC~1\AppData\Local\Temp\cc26jA3l.s 			page 28


 1302 0413 0D       		.byte	0xd
 1303 0414 00       		.byte	0
 1304 0415 07       		.uleb128 0x7
 1305 0416 AD000000 		.4byte	0xad
 1306 041a 25040000 		.4byte	0x425
 1307 041e 08       		.uleb128 0x8
 1308 041f FC000000 		.4byte	0xfc
 1309 0423 0A       		.byte	0xa
 1310 0424 00       		.byte	0
 1311 0425 07       		.uleb128 0x7
 1312 0426 AD000000 		.4byte	0xad
 1313 042a 35040000 		.4byte	0x435
 1314 042e 08       		.uleb128 0x8
 1315 042f FC000000 		.4byte	0xfc
 1316 0433 40       		.byte	0x40
 1317 0434 00       		.byte	0
 1318 0435 07       		.uleb128 0x7
 1319 0436 AD000000 		.4byte	0xad
 1320 043a 4B040000 		.4byte	0x44b
 1321 043e 08       		.uleb128 0x8
 1322 043f FC000000 		.4byte	0xfc
 1323 0443 02       		.byte	0x2
 1324 0444 08       		.uleb128 0x8
 1325 0445 FC000000 		.4byte	0xfc
 1326 0449 18       		.byte	0x18
 1327 044a 00       		.byte	0
 1328 044b 07       		.uleb128 0x7
 1329 044c AD000000 		.4byte	0xad
 1330 0450 61040000 		.4byte	0x461
 1331 0454 08       		.uleb128 0x8
 1332 0455 FC000000 		.4byte	0xfc
 1333 0459 02       		.byte	0x2
 1334 045a 08       		.uleb128 0x8
 1335 045b FC000000 		.4byte	0xfc
 1336 045f 04       		.byte	0x4
 1337 0460 00       		.byte	0
 1338 0461 07       		.uleb128 0x7
 1339 0462 AD000000 		.4byte	0xad
 1340 0466 77040000 		.4byte	0x477
 1341 046a 08       		.uleb128 0x8
 1342 046b FC000000 		.4byte	0xfc
 1343 046f 02       		.byte	0x2
 1344 0470 08       		.uleb128 0x8
 1345 0471 FC000000 		.4byte	0xfc
 1346 0475 09       		.byte	0x9
 1347 0476 00       		.byte	0
 1348 0477 07       		.uleb128 0x7
 1349 0478 AD000000 		.4byte	0xad
 1350 047c 87040000 		.4byte	0x487
 1351 0480 08       		.uleb128 0x8
 1352 0481 FC000000 		.4byte	0xfc
 1353 0485 0E       		.byte	0xe
 1354 0486 00       		.byte	0
 1355 0487 09       		.uleb128 0x9
 1356 0488 DA070000 		.4byte	.LASF74
 1357 048c 0201     		.2byte	0x102
 1358 048e 05       		.byte	0x5
ARM GAS  C:\Users\RECEPC~1\AppData\Local\Temp\cc26jA3l.s 			page 29


 1359 048f A1       		.byte	0xa1
 1360 0490 03050000 		.4byte	0x503
 1361 0494 0C       		.uleb128 0xc
 1362 0495 64697200 		.ascii	"dir\000"
 1363 0499 05       		.byte	0x5
 1364 049a A2       		.byte	0xa2
 1365 049b AD000000 		.4byte	0xad
 1366 049f 00       		.byte	0
 1367 04a0 0A       		.uleb128 0xa
 1368 04a1 4C020000 		.4byte	.LASF75
 1369 04a5 05       		.byte	0x5
 1370 04a6 A3       		.byte	0xa3
 1371 04a7 03050000 		.4byte	0x503
 1372 04ab 01       		.byte	0x1
 1373 04ac 0A       		.uleb128 0xa
 1374 04ad B9070000 		.4byte	.LASF76
 1375 04b1 05       		.byte	0x5
 1376 04b2 A4       		.byte	0xa4
 1377 04b3 1F050000 		.4byte	0x51f
 1378 04b7 B5       		.byte	0xb5
 1379 04b8 0A       		.uleb128 0xa
 1380 04b9 27030000 		.4byte	.LASF77
 1381 04bd 05       		.byte	0x5
 1382 04be A5       		.byte	0xa5
 1383 04bf 05040000 		.4byte	0x405
 1384 04c3 D5       		.byte	0xd5
 1385 04c4 0A       		.uleb128 0xa
 1386 04c5 2B070000 		.4byte	.LASF78
 1387 04c9 05       		.byte	0x5
 1388 04ca A6       		.byte	0xa6
 1389 04cb 05040000 		.4byte	0x405
 1390 04cf E3       		.byte	0xe3
 1391 04d0 0A       		.uleb128 0xa
 1392 04d1 3F030000 		.4byte	.LASF79
 1393 04d5 05       		.byte	0x5
 1394 04d6 A7       		.byte	0xa7
 1395 04d7 05040000 		.4byte	0x405
 1396 04db F1       		.byte	0xf1
 1397 04dc 0A       		.uleb128 0xa
 1398 04dd 71070000 		.4byte	.LASF80
 1399 04e1 05       		.byte	0x5
 1400 04e2 A8       		.byte	0xa8
 1401 04e3 AD000000 		.4byte	0xad
 1402 04e7 FF       		.byte	0xff
 1403 04e8 0B       		.uleb128 0xb
 1404 04e9 7D050000 		.4byte	.LASF81
 1405 04ed 05       		.byte	0x5
 1406 04ee A9       		.byte	0xa9
 1407 04ef AD000000 		.4byte	0xad
 1408 04f3 0001     		.2byte	0x100
 1409 04f5 0B       		.uleb128 0xb
 1410 04f6 46010000 		.4byte	.LASF82
 1411 04fa 05       		.byte	0x5
 1412 04fb AA       		.byte	0xaa
 1413 04fc AD000000 		.4byte	0xad
 1414 0500 0101     		.2byte	0x101
 1415 0502 00       		.byte	0
ARM GAS  C:\Users\RECEPC~1\AppData\Local\Temp\cc26jA3l.s 			page 30


 1416 0503 07       		.uleb128 0x7
 1417 0504 AD000000 		.4byte	0xad
 1418 0508 1F050000 		.4byte	0x51f
 1419 050c 08       		.uleb128 0x8
 1420 050d FC000000 		.4byte	0xfc
 1421 0511 03       		.byte	0x3
 1422 0512 08       		.uleb128 0x8
 1423 0513 FC000000 		.4byte	0xfc
 1424 0517 02       		.byte	0x2
 1425 0518 08       		.uleb128 0x8
 1426 0519 FC000000 		.4byte	0xfc
 1427 051d 0E       		.byte	0xe
 1428 051e 00       		.byte	0
 1429 051f 07       		.uleb128 0x7
 1430 0520 AD000000 		.4byte	0xad
 1431 0524 35050000 		.4byte	0x535
 1432 0528 08       		.uleb128 0x8
 1433 0529 FC000000 		.4byte	0xfc
 1434 052d 03       		.byte	0x3
 1435 052e 08       		.uleb128 0x8
 1436 052f FC000000 		.4byte	0xfc
 1437 0533 07       		.byte	0x7
 1438 0534 00       		.byte	0
 1439 0535 09       		.uleb128 0x9
 1440 0536 A8060000 		.4byte	.LASF83
 1441 053a 0804     		.2byte	0x408
 1442 053c 05       		.byte	0x5
 1443 053d AD       		.byte	0xad
 1444 053e 6E050000 		.4byte	0x56e
 1445 0542 0C       		.uleb128 0xc
 1446 0543 6100     		.ascii	"a\000"
 1447 0545 05       		.byte	0x5
 1448 0546 AE       		.byte	0xae
 1449 0547 87040000 		.4byte	0x487
 1450 054b 00       		.byte	0
 1451 054c 0D       		.uleb128 0xd
 1452 054d 6200     		.ascii	"b\000"
 1453 054f 05       		.byte	0x5
 1454 0550 AF       		.byte	0xaf
 1455 0551 87040000 		.4byte	0x487
 1456 0555 0201     		.2byte	0x102
 1457 0557 0D       		.uleb128 0xd
 1458 0558 6300     		.ascii	"c\000"
 1459 055a 05       		.byte	0x5
 1460 055b B0       		.byte	0xb0
 1461 055c 87040000 		.4byte	0x487
 1462 0560 0402     		.2byte	0x204
 1463 0562 0D       		.uleb128 0xd
 1464 0563 6400     		.ascii	"d\000"
 1465 0565 05       		.byte	0x5
 1466 0566 B1       		.byte	0xb1
 1467 0567 87040000 		.4byte	0x487
 1468 056b 0603     		.2byte	0x306
 1469 056d 00       		.byte	0
 1470 056e 0E       		.uleb128 0xe
 1471 056f 56000000 		.4byte	.LASF148
 1472 0573 01       		.byte	0x1
ARM GAS  C:\Users\RECEPC~1\AppData\Local\Temp\cc26jA3l.s 			page 31


 1473 0574 3A       		.byte	0x3a
 1474 0575 AD000000 		.4byte	0xad
 1475 0579 00000000 		.4byte	.LFB63
 1476 057d 94040000 		.4byte	.LFE63-.LFB63
 1477 0581 01       		.uleb128 0x1
 1478 0582 9C       		.byte	0x9c
 1479 0583 52090000 		.4byte	0x952
 1480 0587 0F       		.uleb128 0xf
 1481 0588 6C636400 		.ascii	"lcd\000"
 1482 058c 01       		.byte	0x1
 1483 058d 3A       		.byte	0x3a
 1484 058e AD000000 		.4byte	0xad
 1485 0592 00000000 		.4byte	.LLST0
 1486 0596 10       		.uleb128 0x10
 1487 0597 DD030000 		.4byte	.LASF84
 1488 059b 01       		.byte	0x1
 1489 059c 3A       		.byte	0x3a
 1490 059d AD000000 		.4byte	0xad
 1491 05a1 3A000000 		.4byte	.LLST1
 1492 05a5 10       		.uleb128 0x10
 1493 05a6 FA010000 		.4byte	.LASF85
 1494 05aa 01       		.byte	0x1
 1495 05ab 3A       		.byte	0x3a
 1496 05ac AD000000 		.4byte	0xad
 1497 05b0 74000000 		.4byte	.LLST2
 1498 05b4 11       		.uleb128 0x11
 1499 05b5 C8010000 		.4byte	.LASF149
 1500 05b9 01       		.byte	0x1
 1501 05ba 3B       		.byte	0x3b
 1502 05bb DF000000 		.4byte	0xdf
 1503 05bf AE000000 		.4byte	.LLST3
 1504 05c3 12       		.uleb128 0x12
 1505 05c4 12000000 		.4byte	.LVL2
 1506 05c8 740D0000 		.4byte	0xd74
 1507 05cc 12       		.uleb128 0x12
 1508 05cd 52000000 		.4byte	.LVL3
 1509 05d1 7F0D0000 		.4byte	0xd7f
 1510 05d5 13       		.uleb128 0x13
 1511 05d6 96000000 		.4byte	.LVL6
 1512 05da 940D0000 		.4byte	0xd94
 1513 05de 00060000 		.4byte	0x600
 1514 05e2 14       		.uleb128 0x14
 1515 05e3 01       		.uleb128 0x1
 1516 05e4 52       		.byte	0x52
 1517 05e5 01       		.uleb128 0x1
 1518 05e6 33       		.byte	0x33
 1519 05e7 14       		.uleb128 0x14
 1520 05e8 01       		.uleb128 0x1
 1521 05e9 50       		.byte	0x50
 1522 05ea 01       		.uleb128 0x1
 1523 05eb 31       		.byte	0x31
 1524 05ec 14       		.uleb128 0x14
 1525 05ed 02       		.uleb128 0x2
 1526 05ee 7D       		.byte	0x7d
 1527 05ef 08       		.sleb128 8
 1528 05f0 02       		.uleb128 0x2
 1529 05f1 08       		.byte	0x8
ARM GAS  C:\Users\RECEPC~1\AppData\Local\Temp\cc26jA3l.s 			page 32


 1530 05f2 4E       		.byte	0x4e
 1531 05f3 14       		.uleb128 0x14
 1532 05f4 02       		.uleb128 0x2
 1533 05f5 7D       		.byte	0x7d
 1534 05f6 04       		.sleb128 4
 1535 05f7 01       		.uleb128 0x1
 1536 05f8 30       		.byte	0x30
 1537 05f9 14       		.uleb128 0x14
 1538 05fa 02       		.uleb128 0x2
 1539 05fb 7D       		.byte	0x7d
 1540 05fc 00       		.sleb128 0
 1541 05fd 01       		.uleb128 0x1
 1542 05fe 31       		.byte	0x31
 1543 05ff 00       		.byte	0
 1544 0600 13       		.uleb128 0x13
 1545 0601 B2000000 		.4byte	.LVL9
 1546 0605 940D0000 		.4byte	0xd94
 1547 0609 31060000 		.4byte	0x631
 1548 060d 14       		.uleb128 0x14
 1549 060e 01       		.uleb128 0x1
 1550 060f 52       		.byte	0x52
 1551 0610 01       		.uleb128 0x1
 1552 0611 32       		.byte	0x32
 1553 0612 14       		.uleb128 0x14
 1554 0613 01       		.uleb128 0x1
 1555 0614 51       		.byte	0x51
 1556 0615 02       		.uleb128 0x2
 1557 0616 74       		.byte	0x74
 1558 0617 00       		.sleb128 0
 1559 0618 14       		.uleb128 0x14
 1560 0619 01       		.uleb128 0x1
 1561 061a 50       		.byte	0x50
 1562 061b 01       		.uleb128 0x1
 1563 061c 31       		.byte	0x31
 1564 061d 14       		.uleb128 0x14
 1565 061e 02       		.uleb128 0x2
 1566 061f 7D       		.byte	0x7d
 1567 0620 08       		.sleb128 8
 1568 0621 02       		.uleb128 0x2
 1569 0622 08       		.byte	0x8
 1570 0623 4E       		.byte	0x4e
 1571 0624 14       		.uleb128 0x14
 1572 0625 02       		.uleb128 0x2
 1573 0626 7D       		.byte	0x7d
 1574 0627 04       		.sleb128 4
 1575 0628 01       		.uleb128 0x1
 1576 0629 30       		.byte	0x30
 1577 062a 14       		.uleb128 0x14
 1578 062b 02       		.uleb128 0x2
 1579 062c 7D       		.byte	0x7d
 1580 062d 00       		.sleb128 0
 1581 062e 01       		.uleb128 0x1
 1582 062f 31       		.byte	0x31
 1583 0630 00       		.byte	0
 1584 0631 13       		.uleb128 0x13
 1585 0632 F6000000 		.4byte	.LVL12
 1586 0636 940D0000 		.4byte	0xd94
ARM GAS  C:\Users\RECEPC~1\AppData\Local\Temp\cc26jA3l.s 			page 33


 1587 063a 5C060000 		.4byte	0x65c
 1588 063e 14       		.uleb128 0x14
 1589 063f 01       		.uleb128 0x1
 1590 0640 52       		.byte	0x52
 1591 0641 01       		.uleb128 0x1
 1592 0642 33       		.byte	0x33
 1593 0643 14       		.uleb128 0x14
 1594 0644 01       		.uleb128 0x1
 1595 0645 50       		.byte	0x50
 1596 0646 01       		.uleb128 0x1
 1597 0647 31       		.byte	0x31
 1598 0648 14       		.uleb128 0x14
 1599 0649 02       		.uleb128 0x2
 1600 064a 7D       		.byte	0x7d
 1601 064b 08       		.sleb128 8
 1602 064c 02       		.uleb128 0x2
 1603 064d 08       		.byte	0x8
 1604 064e 4E       		.byte	0x4e
 1605 064f 14       		.uleb128 0x14
 1606 0650 02       		.uleb128 0x2
 1607 0651 7D       		.byte	0x7d
 1608 0652 04       		.sleb128 4
 1609 0653 01       		.uleb128 0x1
 1610 0654 30       		.byte	0x30
 1611 0655 14       		.uleb128 0x14
 1612 0656 02       		.uleb128 0x2
 1613 0657 7D       		.byte	0x7d
 1614 0658 00       		.sleb128 0
 1615 0659 01       		.uleb128 0x1
 1616 065a 31       		.byte	0x31
 1617 065b 00       		.byte	0
 1618 065c 13       		.uleb128 0x13
 1619 065d 12010000 		.4byte	.LVL15
 1620 0661 940D0000 		.4byte	0xd94
 1621 0665 8D060000 		.4byte	0x68d
 1622 0669 14       		.uleb128 0x14
 1623 066a 01       		.uleb128 0x1
 1624 066b 52       		.byte	0x52
 1625 066c 01       		.uleb128 0x1
 1626 066d 32       		.byte	0x32
 1627 066e 14       		.uleb128 0x14
 1628 066f 01       		.uleb128 0x1
 1629 0670 51       		.byte	0x51
 1630 0671 02       		.uleb128 0x2
 1631 0672 74       		.byte	0x74
 1632 0673 00       		.sleb128 0
 1633 0674 14       		.uleb128 0x14
 1634 0675 01       		.uleb128 0x1
 1635 0676 50       		.byte	0x50
 1636 0677 01       		.uleb128 0x1
 1637 0678 31       		.byte	0x31
 1638 0679 14       		.uleb128 0x14
 1639 067a 02       		.uleb128 0x2
 1640 067b 7D       		.byte	0x7d
 1641 067c 08       		.sleb128 8
 1642 067d 02       		.uleb128 0x2
 1643 067e 08       		.byte	0x8
ARM GAS  C:\Users\RECEPC~1\AppData\Local\Temp\cc26jA3l.s 			page 34


 1644 067f 4E       		.byte	0x4e
 1645 0680 14       		.uleb128 0x14
 1646 0681 02       		.uleb128 0x2
 1647 0682 7D       		.byte	0x7d
 1648 0683 04       		.sleb128 4
 1649 0684 01       		.uleb128 0x1
 1650 0685 30       		.byte	0x30
 1651 0686 14       		.uleb128 0x14
 1652 0687 02       		.uleb128 0x2
 1653 0688 7D       		.byte	0x7d
 1654 0689 00       		.sleb128 0
 1655 068a 01       		.uleb128 0x1
 1656 068b 31       		.byte	0x31
 1657 068c 00       		.byte	0
 1658 068d 13       		.uleb128 0x13
 1659 068e 6A010000 		.4byte	.LVL18
 1660 0692 940D0000 		.4byte	0xd94
 1661 0696 B8060000 		.4byte	0x6b8
 1662 069a 14       		.uleb128 0x14
 1663 069b 01       		.uleb128 0x1
 1664 069c 52       		.byte	0x52
 1665 069d 01       		.uleb128 0x1
 1666 069e 33       		.byte	0x33
 1667 069f 14       		.uleb128 0x14
 1668 06a0 01       		.uleb128 0x1
 1669 06a1 50       		.byte	0x50
 1670 06a2 01       		.uleb128 0x1
 1671 06a3 31       		.byte	0x31
 1672 06a4 14       		.uleb128 0x14
 1673 06a5 02       		.uleb128 0x2
 1674 06a6 7D       		.byte	0x7d
 1675 06a7 08       		.sleb128 8
 1676 06a8 02       		.uleb128 0x2
 1677 06a9 08       		.byte	0x8
 1678 06aa 4E       		.byte	0x4e
 1679 06ab 14       		.uleb128 0x14
 1680 06ac 02       		.uleb128 0x2
 1681 06ad 7D       		.byte	0x7d
 1682 06ae 04       		.sleb128 4
 1683 06af 01       		.uleb128 0x1
 1684 06b0 30       		.byte	0x30
 1685 06b1 14       		.uleb128 0x14
 1686 06b2 02       		.uleb128 0x2
 1687 06b3 7D       		.byte	0x7d
 1688 06b4 00       		.sleb128 0
 1689 06b5 01       		.uleb128 0x1
 1690 06b6 31       		.byte	0x31
 1691 06b7 00       		.byte	0
 1692 06b8 13       		.uleb128 0x13
 1693 06b9 86010000 		.4byte	.LVL21
 1694 06bd 940D0000 		.4byte	0xd94
 1695 06c1 E9060000 		.4byte	0x6e9
 1696 06c5 14       		.uleb128 0x14
 1697 06c6 01       		.uleb128 0x1
 1698 06c7 52       		.byte	0x52
 1699 06c8 01       		.uleb128 0x1
 1700 06c9 32       		.byte	0x32
ARM GAS  C:\Users\RECEPC~1\AppData\Local\Temp\cc26jA3l.s 			page 35


 1701 06ca 14       		.uleb128 0x14
 1702 06cb 01       		.uleb128 0x1
 1703 06cc 51       		.byte	0x51
 1704 06cd 02       		.uleb128 0x2
 1705 06ce 74       		.byte	0x74
 1706 06cf 00       		.sleb128 0
 1707 06d0 14       		.uleb128 0x14
 1708 06d1 01       		.uleb128 0x1
 1709 06d2 50       		.byte	0x50
 1710 06d3 01       		.uleb128 0x1
 1711 06d4 31       		.byte	0x31
 1712 06d5 14       		.uleb128 0x14
 1713 06d6 02       		.uleb128 0x2
 1714 06d7 7D       		.byte	0x7d
 1715 06d8 08       		.sleb128 8
 1716 06d9 02       		.uleb128 0x2
 1717 06da 08       		.byte	0x8
 1718 06db 4E       		.byte	0x4e
 1719 06dc 14       		.uleb128 0x14
 1720 06dd 02       		.uleb128 0x2
 1721 06de 7D       		.byte	0x7d
 1722 06df 04       		.sleb128 4
 1723 06e0 01       		.uleb128 0x1
 1724 06e1 30       		.byte	0x30
 1725 06e2 14       		.uleb128 0x14
 1726 06e3 02       		.uleb128 0x2
 1727 06e4 7D       		.byte	0x7d
 1728 06e5 00       		.sleb128 0
 1729 06e6 01       		.uleb128 0x1
 1730 06e7 31       		.byte	0x31
 1731 06e8 00       		.byte	0
 1732 06e9 13       		.uleb128 0x13
 1733 06ea A4010000 		.4byte	.LVL24
 1734 06ee C30D0000 		.4byte	0xdc3
 1735 06f2 FC060000 		.4byte	0x6fc
 1736 06f6 14       		.uleb128 0x14
 1737 06f7 01       		.uleb128 0x1
 1738 06f8 50       		.byte	0x50
 1739 06f9 01       		.uleb128 0x1
 1740 06fa 44       		.byte	0x44
 1741 06fb 00       		.byte	0
 1742 06fc 12       		.uleb128 0x12
 1743 06fd A8010000 		.4byte	.LVL25
 1744 0701 D40D0000 		.4byte	0xdd4
 1745 0705 13       		.uleb128 0x13
 1746 0706 C4010000 		.4byte	.LVL26
 1747 070a 940D0000 		.4byte	0xd94
 1748 070e 36070000 		.4byte	0x736
 1749 0712 14       		.uleb128 0x14
 1750 0713 01       		.uleb128 0x1
 1751 0714 52       		.byte	0x52
 1752 0715 01       		.uleb128 0x1
 1753 0716 33       		.byte	0x33
 1754 0717 14       		.uleb128 0x14
 1755 0718 01       		.uleb128 0x1
 1756 0719 51       		.byte	0x51
 1757 071a 02       		.uleb128 0x2
ARM GAS  C:\Users\RECEPC~1\AppData\Local\Temp\cc26jA3l.s 			page 36


 1758 071b 08       		.byte	0x8
 1759 071c 20       		.byte	0x20
 1760 071d 14       		.uleb128 0x14
 1761 071e 01       		.uleb128 0x1
 1762 071f 50       		.byte	0x50
 1763 0720 01       		.uleb128 0x1
 1764 0721 31       		.byte	0x31
 1765 0722 14       		.uleb128 0x14
 1766 0723 02       		.uleb128 0x2
 1767 0724 7D       		.byte	0x7d
 1768 0725 08       		.sleb128 8
 1769 0726 02       		.uleb128 0x2
 1770 0727 08       		.byte	0x8
 1771 0728 4E       		.byte	0x4e
 1772 0729 14       		.uleb128 0x14
 1773 072a 02       		.uleb128 0x2
 1774 072b 7D       		.byte	0x7d
 1775 072c 04       		.sleb128 4
 1776 072d 01       		.uleb128 0x1
 1777 072e 30       		.byte	0x30
 1778 072f 14       		.uleb128 0x14
 1779 0730 02       		.uleb128 0x2
 1780 0731 7D       		.byte	0x7d
 1781 0732 00       		.sleb128 0
 1782 0733 01       		.uleb128 0x1
 1783 0734 31       		.byte	0x31
 1784 0735 00       		.byte	0
 1785 0736 13       		.uleb128 0x13
 1786 0737 00020000 		.4byte	.LVL27
 1787 073b C30D0000 		.4byte	0xdc3
 1788 073f 49070000 		.4byte	0x749
 1789 0743 14       		.uleb128 0x14
 1790 0744 01       		.uleb128 0x1
 1791 0745 50       		.byte	0x50
 1792 0746 01       		.uleb128 0x1
 1793 0747 44       		.byte	0x44
 1794 0748 00       		.byte	0
 1795 0749 12       		.uleb128 0x12
 1796 074a 04020000 		.4byte	.LVL28
 1797 074e D40D0000 		.4byte	0xdd4
 1798 0752 13       		.uleb128 0x13
 1799 0753 18020000 		.4byte	.LVL29
 1800 0757 C30D0000 		.4byte	0xdc3
 1801 075b 65070000 		.4byte	0x765
 1802 075f 14       		.uleb128 0x14
 1803 0760 01       		.uleb128 0x1
 1804 0761 50       		.byte	0x50
 1805 0762 01       		.uleb128 0x1
 1806 0763 44       		.byte	0x44
 1807 0764 00       		.byte	0
 1808 0765 12       		.uleb128 0x12
 1809 0766 1C020000 		.4byte	.LVL30
 1810 076a D40D0000 		.4byte	0xdd4
 1811 076e 13       		.uleb128 0x13
 1812 076f 26020000 		.4byte	.LVL32
 1813 0773 C30D0000 		.4byte	0xdc3
 1814 0777 81070000 		.4byte	0x781
ARM GAS  C:\Users\RECEPC~1\AppData\Local\Temp\cc26jA3l.s 			page 37


 1815 077b 14       		.uleb128 0x14
 1816 077c 01       		.uleb128 0x1
 1817 077d 50       		.byte	0x50
 1818 077e 01       		.uleb128 0x1
 1819 077f 44       		.byte	0x44
 1820 0780 00       		.byte	0
 1821 0781 12       		.uleb128 0x12
 1822 0782 2A020000 		.4byte	.LVL33
 1823 0786 D40D0000 		.4byte	0xdd4
 1824 078a 12       		.uleb128 0x12
 1825 078b 32020000 		.4byte	.LVL35
 1826 078f DB0D0000 		.4byte	0xddb
 1827 0793 12       		.uleb128 0x12
 1828 0794 72020000 		.4byte	.LVL36
 1829 0798 7F0D0000 		.4byte	0xd7f
 1830 079c 13       		.uleb128 0x13
 1831 079d B8020000 		.4byte	.LVL39
 1832 07a1 940D0000 		.4byte	0xd94
 1833 07a5 C7070000 		.4byte	0x7c7
 1834 07a9 14       		.uleb128 0x14
 1835 07aa 01       		.uleb128 0x1
 1836 07ab 52       		.byte	0x52
 1837 07ac 01       		.uleb128 0x1
 1838 07ad 33       		.byte	0x33
 1839 07ae 14       		.uleb128 0x14
 1840 07af 01       		.uleb128 0x1
 1841 07b0 50       		.byte	0x50
 1842 07b1 01       		.uleb128 0x1
 1843 07b2 32       		.byte	0x32
 1844 07b3 14       		.uleb128 0x14
 1845 07b4 02       		.uleb128 0x2
 1846 07b5 7D       		.byte	0x7d
 1847 07b6 08       		.sleb128 8
 1848 07b7 02       		.uleb128 0x2
 1849 07b8 08       		.byte	0x8
 1850 07b9 4E       		.byte	0x4e
 1851 07ba 14       		.uleb128 0x14
 1852 07bb 02       		.uleb128 0x2
 1853 07bc 7D       		.byte	0x7d
 1854 07bd 04       		.sleb128 4
 1855 07be 01       		.uleb128 0x1
 1856 07bf 30       		.byte	0x30
 1857 07c0 14       		.uleb128 0x14
 1858 07c1 02       		.uleb128 0x2
 1859 07c2 7D       		.byte	0x7d
 1860 07c3 00       		.sleb128 0
 1861 07c4 01       		.uleb128 0x1
 1862 07c5 31       		.byte	0x31
 1863 07c6 00       		.byte	0
 1864 07c7 13       		.uleb128 0x13
 1865 07c8 F4020000 		.4byte	.LVL42
 1866 07cc 940D0000 		.4byte	0xd94
 1867 07d0 F8070000 		.4byte	0x7f8
 1868 07d4 14       		.uleb128 0x14
 1869 07d5 01       		.uleb128 0x1
 1870 07d6 52       		.byte	0x52
 1871 07d7 01       		.uleb128 0x1
ARM GAS  C:\Users\RECEPC~1\AppData\Local\Temp\cc26jA3l.s 			page 38


 1872 07d8 32       		.byte	0x32
 1873 07d9 14       		.uleb128 0x14
 1874 07da 01       		.uleb128 0x1
 1875 07db 51       		.byte	0x51
 1876 07dc 02       		.uleb128 0x2
 1877 07dd 74       		.byte	0x74
 1878 07de 00       		.sleb128 0
 1879 07df 14       		.uleb128 0x14
 1880 07e0 01       		.uleb128 0x1
 1881 07e1 50       		.byte	0x50
 1882 07e2 01       		.uleb128 0x1
 1883 07e3 32       		.byte	0x32
 1884 07e4 14       		.uleb128 0x14
 1885 07e5 02       		.uleb128 0x2
 1886 07e6 7D       		.byte	0x7d
 1887 07e7 08       		.sleb128 8
 1888 07e8 02       		.uleb128 0x2
 1889 07e9 08       		.byte	0x8
 1890 07ea 4E       		.byte	0x4e
 1891 07eb 14       		.uleb128 0x14
 1892 07ec 02       		.uleb128 0x2
 1893 07ed 7D       		.byte	0x7d
 1894 07ee 04       		.sleb128 4
 1895 07ef 01       		.uleb128 0x1
 1896 07f0 30       		.byte	0x30
 1897 07f1 14       		.uleb128 0x14
 1898 07f2 02       		.uleb128 0x2
 1899 07f3 7D       		.byte	0x7d
 1900 07f4 00       		.sleb128 0
 1901 07f5 01       		.uleb128 0x1
 1902 07f6 31       		.byte	0x31
 1903 07f7 00       		.byte	0
 1904 07f8 13       		.uleb128 0x13
 1905 07f9 3A030000 		.4byte	.LVL45
 1906 07fd 940D0000 		.4byte	0xd94
 1907 0801 23080000 		.4byte	0x823
 1908 0805 14       		.uleb128 0x14
 1909 0806 01       		.uleb128 0x1
 1910 0807 52       		.byte	0x52
 1911 0808 01       		.uleb128 0x1
 1912 0809 33       		.byte	0x33
 1913 080a 14       		.uleb128 0x14
 1914 080b 01       		.uleb128 0x1
 1915 080c 50       		.byte	0x50
 1916 080d 01       		.uleb128 0x1
 1917 080e 32       		.byte	0x32
 1918 080f 14       		.uleb128 0x14
 1919 0810 02       		.uleb128 0x2
 1920 0811 7D       		.byte	0x7d
 1921 0812 08       		.sleb128 8
 1922 0813 02       		.uleb128 0x2
 1923 0814 08       		.byte	0x8
 1924 0815 4E       		.byte	0x4e
 1925 0816 14       		.uleb128 0x14
 1926 0817 02       		.uleb128 0x2
 1927 0818 7D       		.byte	0x7d
 1928 0819 04       		.sleb128 4
ARM GAS  C:\Users\RECEPC~1\AppData\Local\Temp\cc26jA3l.s 			page 39


 1929 081a 01       		.uleb128 0x1
 1930 081b 30       		.byte	0x30
 1931 081c 14       		.uleb128 0x14
 1932 081d 02       		.uleb128 0x2
 1933 081e 7D       		.byte	0x7d
 1934 081f 00       		.sleb128 0
 1935 0820 01       		.uleb128 0x1
 1936 0821 31       		.byte	0x31
 1937 0822 00       		.byte	0
 1938 0823 13       		.uleb128 0x13
 1939 0824 58030000 		.4byte	.LVL48
 1940 0828 940D0000 		.4byte	0xd94
 1941 082c 54080000 		.4byte	0x854
 1942 0830 14       		.uleb128 0x14
 1943 0831 01       		.uleb128 0x1
 1944 0832 52       		.byte	0x52
 1945 0833 01       		.uleb128 0x1
 1946 0834 32       		.byte	0x32
 1947 0835 14       		.uleb128 0x14
 1948 0836 01       		.uleb128 0x1
 1949 0837 51       		.byte	0x51
 1950 0838 02       		.uleb128 0x2
 1951 0839 74       		.byte	0x74
 1952 083a 00       		.sleb128 0
 1953 083b 14       		.uleb128 0x14
 1954 083c 01       		.uleb128 0x1
 1955 083d 50       		.byte	0x50
 1956 083e 01       		.uleb128 0x1
 1957 083f 32       		.byte	0x32
 1958 0840 14       		.uleb128 0x14
 1959 0841 02       		.uleb128 0x2
 1960 0842 7D       		.byte	0x7d
 1961 0843 08       		.sleb128 8
 1962 0844 02       		.uleb128 0x2
 1963 0845 08       		.byte	0x8
 1964 0846 4E       		.byte	0x4e
 1965 0847 14       		.uleb128 0x14
 1966 0848 02       		.uleb128 0x2
 1967 0849 7D       		.byte	0x7d
 1968 084a 04       		.sleb128 4
 1969 084b 01       		.uleb128 0x1
 1970 084c 30       		.byte	0x30
 1971 084d 14       		.uleb128 0x14
 1972 084e 02       		.uleb128 0x2
 1973 084f 7D       		.byte	0x7d
 1974 0850 00       		.sleb128 0
 1975 0851 01       		.uleb128 0x1
 1976 0852 31       		.byte	0x31
 1977 0853 00       		.byte	0
 1978 0854 13       		.uleb128 0x13
 1979 0855 B4030000 		.4byte	.LVL51
 1980 0859 940D0000 		.4byte	0xd94
 1981 085d 7F080000 		.4byte	0x87f
 1982 0861 14       		.uleb128 0x14
 1983 0862 01       		.uleb128 0x1
 1984 0863 52       		.byte	0x52
 1985 0864 01       		.uleb128 0x1
ARM GAS  C:\Users\RECEPC~1\AppData\Local\Temp\cc26jA3l.s 			page 40


 1986 0865 33       		.byte	0x33
 1987 0866 14       		.uleb128 0x14
 1988 0867 01       		.uleb128 0x1
 1989 0868 50       		.byte	0x50
 1990 0869 01       		.uleb128 0x1
 1991 086a 32       		.byte	0x32
 1992 086b 14       		.uleb128 0x14
 1993 086c 02       		.uleb128 0x2
 1994 086d 7D       		.byte	0x7d
 1995 086e 08       		.sleb128 8
 1996 086f 02       		.uleb128 0x2
 1997 0870 08       		.byte	0x8
 1998 0871 4E       		.byte	0x4e
 1999 0872 14       		.uleb128 0x14
 2000 0873 02       		.uleb128 0x2
 2001 0874 7D       		.byte	0x7d
 2002 0875 04       		.sleb128 4
 2003 0876 01       		.uleb128 0x1
 2004 0877 30       		.byte	0x30
 2005 0878 14       		.uleb128 0x14
 2006 0879 02       		.uleb128 0x2
 2007 087a 7D       		.byte	0x7d
 2008 087b 00       		.sleb128 0
 2009 087c 01       		.uleb128 0x1
 2010 087d 31       		.byte	0x31
 2011 087e 00       		.byte	0
 2012 087f 13       		.uleb128 0x13
 2013 0880 D2030000 		.4byte	.LVL54
 2014 0884 940D0000 		.4byte	0xd94
 2015 0888 B0080000 		.4byte	0x8b0
 2016 088c 14       		.uleb128 0x14
 2017 088d 01       		.uleb128 0x1
 2018 088e 52       		.byte	0x52
 2019 088f 01       		.uleb128 0x1
 2020 0890 32       		.byte	0x32
 2021 0891 14       		.uleb128 0x14
 2022 0892 01       		.uleb128 0x1
 2023 0893 51       		.byte	0x51
 2024 0894 02       		.uleb128 0x2
 2025 0895 74       		.byte	0x74
 2026 0896 00       		.sleb128 0
 2027 0897 14       		.uleb128 0x14
 2028 0898 01       		.uleb128 0x1
 2029 0899 50       		.byte	0x50
 2030 089a 01       		.uleb128 0x1
 2031 089b 32       		.byte	0x32
 2032 089c 14       		.uleb128 0x14
 2033 089d 02       		.uleb128 0x2
 2034 089e 7D       		.byte	0x7d
 2035 089f 08       		.sleb128 8
 2036 08a0 02       		.uleb128 0x2
 2037 08a1 08       		.byte	0x8
 2038 08a2 4E       		.byte	0x4e
 2039 08a3 14       		.uleb128 0x14
 2040 08a4 02       		.uleb128 0x2
 2041 08a5 7D       		.byte	0x7d
 2042 08a6 04       		.sleb128 4
ARM GAS  C:\Users\RECEPC~1\AppData\Local\Temp\cc26jA3l.s 			page 41


 2043 08a7 01       		.uleb128 0x1
 2044 08a8 30       		.byte	0x30
 2045 08a9 14       		.uleb128 0x14
 2046 08aa 02       		.uleb128 0x2
 2047 08ab 7D       		.byte	0x7d
 2048 08ac 00       		.sleb128 0
 2049 08ad 01       		.uleb128 0x1
 2050 08ae 31       		.byte	0x31
 2051 08af 00       		.byte	0
 2052 08b0 13       		.uleb128 0x13
 2053 08b1 EA030000 		.4byte	.LVL57
 2054 08b5 C30D0000 		.4byte	0xdc3
 2055 08b9 C3080000 		.4byte	0x8c3
 2056 08bd 14       		.uleb128 0x14
 2057 08be 01       		.uleb128 0x1
 2058 08bf 50       		.byte	0x50
 2059 08c0 01       		.uleb128 0x1
 2060 08c1 44       		.byte	0x44
 2061 08c2 00       		.byte	0
 2062 08c3 12       		.uleb128 0x12
 2063 08c4 EE030000 		.4byte	.LVL58
 2064 08c8 E60D0000 		.4byte	0xde6
 2065 08cc 13       		.uleb128 0x13
 2066 08cd 0C040000 		.4byte	.LVL59
 2067 08d1 940D0000 		.4byte	0xd94
 2068 08d5 FD080000 		.4byte	0x8fd
 2069 08d9 14       		.uleb128 0x14
 2070 08da 01       		.uleb128 0x1
 2071 08db 52       		.byte	0x52
 2072 08dc 01       		.uleb128 0x1
 2073 08dd 32       		.byte	0x32
 2074 08de 14       		.uleb128 0x14
 2075 08df 01       		.uleb128 0x1
 2076 08e0 51       		.byte	0x51
 2077 08e1 02       		.uleb128 0x2
 2078 08e2 08       		.byte	0x8
 2079 08e3 20       		.byte	0x20
 2080 08e4 14       		.uleb128 0x14
 2081 08e5 01       		.uleb128 0x1
 2082 08e6 50       		.byte	0x50
 2083 08e7 01       		.uleb128 0x1
 2084 08e8 32       		.byte	0x32
 2085 08e9 14       		.uleb128 0x14
 2086 08ea 02       		.uleb128 0x2
 2087 08eb 7D       		.byte	0x7d
 2088 08ec 08       		.sleb128 8
 2089 08ed 02       		.uleb128 0x2
 2090 08ee 08       		.byte	0x8
 2091 08ef 4E       		.byte	0x4e
 2092 08f0 14       		.uleb128 0x14
 2093 08f1 02       		.uleb128 0x2
 2094 08f2 7D       		.byte	0x7d
 2095 08f3 04       		.sleb128 4
 2096 08f4 01       		.uleb128 0x1
 2097 08f5 30       		.byte	0x30
 2098 08f6 14       		.uleb128 0x14
 2099 08f7 02       		.uleb128 0x2
ARM GAS  C:\Users\RECEPC~1\AppData\Local\Temp\cc26jA3l.s 			page 42


 2100 08f8 7D       		.byte	0x7d
 2101 08f9 00       		.sleb128 0
 2102 08fa 01       		.uleb128 0x1
 2103 08fb 31       		.byte	0x31
 2104 08fc 00       		.byte	0
 2105 08fd 13       		.uleb128 0x13
 2106 08fe 48040000 		.4byte	.LVL60
 2107 0902 C30D0000 		.4byte	0xdc3
 2108 0906 10090000 		.4byte	0x910
 2109 090a 14       		.uleb128 0x14
 2110 090b 01       		.uleb128 0x1
 2111 090c 50       		.byte	0x50
 2112 090d 01       		.uleb128 0x1
 2113 090e 44       		.byte	0x44
 2114 090f 00       		.byte	0
 2115 0910 12       		.uleb128 0x12
 2116 0911 4C040000 		.4byte	.LVL61
 2117 0915 E60D0000 		.4byte	0xde6
 2118 0919 13       		.uleb128 0x13
 2119 091a 60040000 		.4byte	.LVL62
 2120 091e C30D0000 		.4byte	0xdc3
 2121 0922 2C090000 		.4byte	0x92c
 2122 0926 14       		.uleb128 0x14
 2123 0927 01       		.uleb128 0x1
 2124 0928 50       		.byte	0x50
 2125 0929 01       		.uleb128 0x1
 2126 092a 44       		.byte	0x44
 2127 092b 00       		.byte	0
 2128 092c 12       		.uleb128 0x12
 2129 092d 64040000 		.4byte	.LVL63
 2130 0931 E60D0000 		.4byte	0xde6
 2131 0935 13       		.uleb128 0x13
 2132 0936 6E040000 		.4byte	.LVL65
 2133 093a C30D0000 		.4byte	0xdc3
 2134 093e 48090000 		.4byte	0x948
 2135 0942 14       		.uleb128 0x14
 2136 0943 01       		.uleb128 0x1
 2137 0944 50       		.byte	0x50
 2138 0945 01       		.uleb128 0x1
 2139 0946 44       		.byte	0x44
 2140 0947 00       		.byte	0
 2141 0948 12       		.uleb128 0x12
 2142 0949 72040000 		.4byte	.LVL66
 2143 094d E60D0000 		.4byte	0xde6
 2144 0951 00       		.byte	0
 2145 0952 07       		.uleb128 0x7
 2146 0953 AD000000 		.4byte	0xad
 2147 0957 62090000 		.4byte	0x962
 2148 095b 08       		.uleb128 0x8
 2149 095c FC000000 		.4byte	0xfc
 2150 0960 1F       		.byte	0x1f
 2151 0961 00       		.byte	0
 2152 0962 15       		.uleb128 0x15
 2153 0963 5F070000 		.4byte	.LASF86
 2154 0967 06       		.byte	0x6
 2155 0968 3E01     		.2byte	0x13e
 2156 096a 6E090000 		.4byte	0x96e
ARM GAS  C:\Users\RECEPC~1\AppData\Local\Temp\cc26jA3l.s 			page 43


 2157 096e 06       		.uleb128 0x6
 2158 096f 52090000 		.4byte	0x952
 2159 0973 15       		.uleb128 0x15
 2160 0974 F0000000 		.4byte	.LASF87
 2161 0978 07       		.byte	0x7
 2162 0979 3E01     		.2byte	0x13e
 2163 097b 7F090000 		.4byte	0x97f
 2164 097f 06       		.uleb128 0x6
 2165 0980 52090000 		.4byte	0x952
 2166 0984 15       		.uleb128 0x15
 2167 0985 87040000 		.4byte	.LASF88
 2168 0989 08       		.byte	0x8
 2169 098a 5506     		.2byte	0x655
 2170 098c 90090000 		.4byte	0x990
 2171 0990 06       		.uleb128 0x6
 2172 0991 A2000000 		.4byte	0xa2
 2173 0995 16       		.uleb128 0x16
 2174 0996 47030000 		.4byte	.LASF89
 2175 099a 05       		.byte	0x5
 2176 099b 2C       		.byte	0x2c
 2177 099c A6090000 		.4byte	0x9a6
 2178 09a0 05       		.uleb128 0x5
 2179 09a1 03       		.byte	0x3
 2180 09a2 00000000 		.4byte	countAnimation1
 2181 09a6 06       		.uleb128 0x6
 2182 09a7 D3000000 		.4byte	0xd3
 2183 09ab 16       		.uleb128 0x16
 2184 09ac 85030000 		.4byte	.LASF90
 2185 09b0 05       		.byte	0x5
 2186 09b1 2D       		.byte	0x2d
 2187 09b2 A6090000 		.4byte	0x9a6
 2188 09b6 05       		.uleb128 0x5
 2189 09b7 03       		.byte	0x3
 2190 09b8 00000000 		.4byte	countAnimation2
 2191 09bc 16       		.uleb128 0x16
 2192 09bd B6020000 		.4byte	.LASF91
 2193 09c1 05       		.byte	0x5
 2194 09c2 2E       		.byte	0x2e
 2195 09c3 A6090000 		.4byte	0x9a6
 2196 09c7 05       		.uleb128 0x5
 2197 09c8 03       		.byte	0x3
 2198 09c9 00000000 		.4byte	countBeagleTX
 2199 09cd 16       		.uleb128 0x16
 2200 09ce 55070000 		.4byte	.LASF92
 2201 09d2 05       		.byte	0x5
 2202 09d3 2F       		.byte	0x2f
 2203 09d4 A6090000 		.4byte	0x9a6
 2204 09d8 05       		.uleb128 0x5
 2205 09d9 03       		.byte	0x3
 2206 09da 00000000 		.4byte	countPump
 2207 09de 16       		.uleb128 0x16
 2208 09df 0B020000 		.4byte	.LASF93
 2209 09e3 05       		.byte	0x5
 2210 09e4 30       		.byte	0x30
 2211 09e5 F7000000 		.4byte	0xf7
 2212 09e9 05       		.uleb128 0x5
 2213 09ea 03       		.byte	0x3
ARM GAS  C:\Users\RECEPC~1\AppData\Local\Temp\cc26jA3l.s 			page 44


 2214 09eb 00000000 		.4byte	flowDisplay1
 2215 09ef 16       		.uleb128 0x16
 2216 09f0 18020000 		.4byte	.LASF94
 2217 09f4 05       		.byte	0x5
 2218 09f5 31       		.byte	0x31
 2219 09f6 F7000000 		.4byte	0xf7
 2220 09fa 05       		.uleb128 0x5
 2221 09fb 03       		.byte	0x3
 2222 09fc 00000000 		.4byte	flowDisplay2
 2223 0a00 16       		.uleb128 0x16
 2224 0a01 25020000 		.4byte	.LASF95
 2225 0a05 05       		.byte	0x5
 2226 0a06 32       		.byte	0x32
 2227 0a07 F7000000 		.4byte	0xf7
 2228 0a0b 05       		.uleb128 0x5
 2229 0a0c 03       		.byte	0x3
 2230 0a0d 00000000 		.4byte	flowDisplay3
 2231 0a11 16       		.uleb128 0x16
 2232 0a12 32020000 		.4byte	.LASF96
 2233 0a16 05       		.byte	0x5
 2234 0a17 33       		.byte	0x33
 2235 0a18 F7000000 		.4byte	0xf7
 2236 0a1c 05       		.uleb128 0x5
 2237 0a1d 03       		.byte	0x3
 2238 0a1e 00000000 		.4byte	flowDisplay4
 2239 0a22 16       		.uleb128 0x16
 2240 0a23 8A010000 		.4byte	.LASF97
 2241 0a27 05       		.byte	0x5
 2242 0a28 34       		.byte	0x34
 2243 0a29 F2000000 		.4byte	0xf2
 2244 0a2d 05       		.uleb128 0x5
 2245 0a2e 03       		.byte	0x3
 2246 0a2f 00000000 		.4byte	digits
 2247 0a33 07       		.uleb128 0x7
 2248 0a34 AD000000 		.4byte	0xad
 2249 0a38 430A0000 		.4byte	0xa43
 2250 0a3c 08       		.uleb128 0x8
 2251 0a3d FC000000 		.4byte	0xfc
 2252 0a41 0B       		.byte	0xb
 2253 0a42 00       		.byte	0
 2254 0a43 16       		.uleb128 0x16
 2255 0a44 02040000 		.4byte	.LASF98
 2256 0a48 05       		.byte	0x5
 2257 0a49 35       		.byte	0x35
 2258 0a4a 540A0000 		.4byte	0xa54
 2259 0a4e 05       		.uleb128 0x5
 2260 0a4f 03       		.byte	0x3
 2261 0a50 00000000 		.4byte	ipAdress
 2262 0a54 06       		.uleb128 0x6
 2263 0a55 330A0000 		.4byte	0xa33
 2264 0a59 16       		.uleb128 0x16
 2265 0a5a 9E020000 		.4byte	.LASF99
 2266 0a5e 05       		.byte	0x5
 2267 0a5f 36       		.byte	0x36
 2268 0a60 F2000000 		.4byte	0xf2
 2269 0a64 05       		.uleb128 0x5
 2270 0a65 03       		.byte	0x3
ARM GAS  C:\Users\RECEPC~1\AppData\Local\Temp\cc26jA3l.s 			page 45


 2271 0a66 00000000 		.4byte	numberKeys1
 2272 0a6a 16       		.uleb128 0x16
 2273 0a6b AA020000 		.4byte	.LASF100
 2274 0a6f 05       		.byte	0x5
 2275 0a70 37       		.byte	0x37
 2276 0a71 F2000000 		.4byte	0xf2
 2277 0a75 05       		.uleb128 0x5
 2278 0a76 03       		.byte	0x3
 2279 0a77 00000000 		.4byte	numberKeys2
 2280 0a7b 16       		.uleb128 0x16
 2281 0a7c 36040000 		.4byte	.LASF101
 2282 0a80 05       		.byte	0x5
 2283 0a81 38       		.byte	0x38
 2284 0a82 F2000000 		.4byte	0xf2
 2285 0a86 05       		.uleb128 0x5
 2286 0a87 03       		.byte	0x3
 2287 0a88 00000000 		.4byte	flagPoint1
 2288 0a8c 16       		.uleb128 0x16
 2289 0a8d 0C010000 		.4byte	.LASF102
 2290 0a91 05       		.byte	0x5
 2291 0a92 39       		.byte	0x39
 2292 0a93 F2000000 		.4byte	0xf2
 2293 0a97 05       		.uleb128 0x5
 2294 0a98 03       		.byte	0x3
 2295 0a99 00000000 		.4byte	flagPoint2
 2296 0a9d 07       		.uleb128 0x7
 2297 0a9e AD000000 		.4byte	0xad
 2298 0aa2 B30A0000 		.4byte	0xab3
 2299 0aa6 08       		.uleb128 0x8
 2300 0aa7 FC000000 		.4byte	0xfc
 2301 0aab 77       		.byte	0x77
 2302 0aac 08       		.uleb128 0x8
 2303 0aad FC000000 		.4byte	0xfc
 2304 0ab1 07       		.byte	0x7
 2305 0ab2 00       		.byte	0
 2306 0ab3 16       		.uleb128 0x16
 2307 0ab4 04020000 		.4byte	.LASF103
 2308 0ab8 05       		.byte	0x5
 2309 0ab9 3A       		.byte	0x3a
 2310 0aba C40A0000 		.4byte	0xac4
 2311 0abe 05       		.uleb128 0x5
 2312 0abf 03       		.byte	0x3
 2313 0ac0 00000000 		.4byte	button
 2314 0ac4 06       		.uleb128 0x6
 2315 0ac5 9D0A0000 		.4byte	0xa9d
 2316 0ac9 16       		.uleb128 0x16
 2317 0aca A2010000 		.4byte	.LASF104
 2318 0ace 05       		.byte	0x5
 2319 0acf 3B       		.byte	0x3b
 2320 0ad0 F2000000 		.4byte	0xf2
 2321 0ad4 05       		.uleb128 0x5
 2322 0ad5 03       		.byte	0x3
 2323 0ad6 00000000 		.4byte	productNumber
 2324 0ada 16       		.uleb128 0x16
 2325 0adb 1C030000 		.4byte	.LASF105
 2326 0adf 05       		.byte	0x5
 2327 0ae0 3C       		.byte	0x3c
ARM GAS  C:\Users\RECEPC~1\AppData\Local\Temp\cc26jA3l.s 			page 46


 2328 0ae1 61040000 		.4byte	0x461
 2329 0ae5 05       		.uleb128 0x5
 2330 0ae6 03       		.byte	0x3
 2331 0ae7 00000000 		.4byte	presetFast
 2332 0aeb 16       		.uleb128 0x16
 2333 0aec 36050000 		.4byte	.LASF106
 2334 0af0 05       		.byte	0x5
 2335 0af1 3D       		.byte	0x3d
 2336 0af2 F7000000 		.4byte	0xf7
 2337 0af6 05       		.uleb128 0x5
 2338 0af7 03       		.byte	0x3
 2339 0af8 00000000 		.4byte	delayPicture1
 2340 0afc 16       		.uleb128 0x16
 2341 0afd 44050000 		.4byte	.LASF107
 2342 0b01 05       		.byte	0x5
 2343 0b02 3E       		.byte	0x3e
 2344 0b03 F7000000 		.4byte	0xf7
 2345 0b07 05       		.uleb128 0x5
 2346 0b08 03       		.byte	0x3
 2347 0b09 00000000 		.4byte	delayPicture2
 2348 0b0d 16       		.uleb128 0x16
 2349 0b0e 1C040000 		.4byte	.LASF108
 2350 0b12 05       		.byte	0x5
 2351 0b13 3F       		.byte	0x3f
 2352 0b14 F2000000 		.4byte	0xf2
 2353 0b18 05       		.uleb128 0x5
 2354 0b19 03       		.byte	0x3
 2355 0b1a 00000000 		.4byte	ppux10
 2356 0b1e 16       		.uleb128 0x16
 2357 0b1f 6C000000 		.4byte	.LASF109
 2358 0b23 05       		.byte	0x5
 2359 0b24 40       		.byte	0x40
 2360 0b25 F2000000 		.4byte	0xf2
 2361 0b29 05       		.uleb128 0x5
 2362 0b2a 03       		.byte	0x3
 2363 0b2b 00000000 		.4byte	decimalMoney
 2364 0b2f 16       		.uleb128 0x16
 2365 0b30 08000000 		.4byte	.LASF110
 2366 0b34 05       		.byte	0x5
 2367 0b35 41       		.byte	0x41
 2368 0b36 F2000000 		.4byte	0xf2
 2369 0b3a 05       		.uleb128 0x5
 2370 0b3b 03       		.byte	0x3
 2371 0b3c 00000000 		.4byte	decimalVolume
 2372 0b40 16       		.uleb128 0x16
 2373 0b41 53040000 		.4byte	.LASF111
 2374 0b45 05       		.byte	0x5
 2375 0b46 42       		.byte	0x42
 2376 0b47 510B0000 		.4byte	0xb51
 2377 0b4b 05       		.uleb128 0x5
 2378 0b4c 03       		.byte	0x3
 2379 0b4d 00000000 		.4byte	symbols
 2380 0b51 06       		.uleb128 0x6
 2381 0b52 BF030000 		.4byte	0x3bf
 2382 0b56 07       		.uleb128 0x7
 2383 0b57 AD000000 		.4byte	0xad
 2384 0b5b 660B0000 		.4byte	0xb66
ARM GAS  C:\Users\RECEPC~1\AppData\Local\Temp\cc26jA3l.s 			page 47


 2385 0b5f 08       		.uleb128 0x8
 2386 0b60 FC000000 		.4byte	0xfc
 2387 0b64 02       		.byte	0x2
 2388 0b65 00       		.byte	0
 2389 0b66 16       		.uleb128 0x16
 2390 0b67 91010000 		.4byte	.LASF112
 2391 0b6b 05       		.byte	0x5
 2392 0b6c 43       		.byte	0x43
 2393 0b6d 770B0000 		.4byte	0xb77
 2394 0b71 05       		.uleb128 0x5
 2395 0b72 03       		.byte	0x3
 2396 0b73 00000000 		.4byte	time
 2397 0b77 06       		.uleb128 0x6
 2398 0b78 560B0000 		.4byte	0xb56
 2399 0b7c 16       		.uleb128 0x16
 2400 0b7d C4020000 		.4byte	.LASF113
 2401 0b81 05       		.byte	0x5
 2402 0b82 44       		.byte	0x44
 2403 0b83 8D0B0000 		.4byte	0xb8d
 2404 0b87 05       		.uleb128 0x5
 2405 0b88 03       		.byte	0x3
 2406 0b89 00000000 		.4byte	date
 2407 0b8d 06       		.uleb128 0x6
 2408 0b8e 560B0000 		.4byte	0xb56
 2409 0b92 16       		.uleb128 0x16
 2410 0b93 17010000 		.4byte	.LASF114
 2411 0b97 05       		.byte	0x5
 2412 0b98 45       		.byte	0x45
 2413 0b99 A30B0000 		.4byte	0xba3
 2414 0b9d 05       		.uleb128 0x5
 2415 0b9e 03       		.byte	0x3
 2416 0b9f 00000000 		.4byte	screen
 2417 0ba3 06       		.uleb128 0x6
 2418 0ba4 BF030000 		.4byte	0x3bf
 2419 0ba8 16       		.uleb128 0x16
 2420 0ba9 B9000000 		.4byte	.LASF115
 2421 0bad 05       		.byte	0x5
 2422 0bae 46       		.byte	0x46
 2423 0baf B90B0000 		.4byte	0xbb9
 2424 0bb3 05       		.uleb128 0x5
 2425 0bb4 03       		.byte	0x3
 2426 0bb5 00000000 		.4byte	residue
 2427 0bb9 06       		.uleb128 0x6
 2428 0bba 05040000 		.4byte	0x405
 2429 0bbe 07       		.uleb128 0x7
 2430 0bbf AD000000 		.4byte	0xad
 2431 0bc3 CE0B0000 		.4byte	0xbce
 2432 0bc7 08       		.uleb128 0x8
 2433 0bc8 FC000000 		.4byte	0xfc
 2434 0bcc 1D       		.byte	0x1d
 2435 0bcd 00       		.byte	0
 2436 0bce 16       		.uleb128 0x16
 2437 0bcf F3060000 		.4byte	.LASF116
 2438 0bd3 05       		.byte	0x5
 2439 0bd4 47       		.byte	0x47
 2440 0bd5 BE0B0000 		.4byte	0xbbe
 2441 0bd9 05       		.uleb128 0x5
ARM GAS  C:\Users\RECEPC~1\AppData\Local\Temp\cc26jA3l.s 			page 48


 2442 0bda 03       		.byte	0x3
 2443 0bdb 00000000 		.4byte	temporal
 2444 0bdf 16       		.uleb128 0x16
 2445 0be0 65020000 		.4byte	.LASF117
 2446 0be4 05       		.byte	0x5
 2447 0be5 48       		.byte	0x48
 2448 0be6 F2000000 		.4byte	0xf2
 2449 0bea 05       		.uleb128 0x5
 2450 0beb 03       		.byte	0x3
 2451 0bec 00000000 		.4byte	turn
 2452 0bf0 16       		.uleb128 0x16
 2453 0bf1 94040000 		.4byte	.LASF118
 2454 0bf5 05       		.byte	0x5
 2455 0bf6 49       		.byte	0x49
 2456 0bf7 F2000000 		.4byte	0xf2
 2457 0bfb 05       		.uleb128 0x5
 2458 0bfc 03       		.byte	0x3
 2459 0bfd 00000000 		.4byte	lockTurn
 2460 0c01 16       		.uleb128 0x16
 2461 0c02 9F060000 		.4byte	.LASF119
 2462 0c06 05       		.byte	0x5
 2463 0c07 4A       		.byte	0x4a
 2464 0c08 120C0000 		.4byte	0xc12
 2465 0c0c 05       		.uleb128 0x5
 2466 0c0d 03       		.byte	0x3
 2467 0c0e 00000000 		.4byte	idSeller
 2468 0c12 06       		.uleb128 0x6
 2469 0c13 8F030000 		.4byte	0x38f
 2470 0c17 16       		.uleb128 0x16
 2471 0c18 1E070000 		.4byte	.LASF120
 2472 0c1c 05       		.byte	0x5
 2473 0c1d 4B       		.byte	0x4b
 2474 0c1e F2000000 		.4byte	0xf2
 2475 0c22 05       		.uleb128 0x5
 2476 0c23 03       		.byte	0x3
 2477 0c24 00000000 		.4byte	typeIdSeller
 2478 0c28 07       		.uleb128 0x7
 2479 0c29 AD000000 		.4byte	0xad
 2480 0c2d 380C0000 		.4byte	0xc38
 2481 0c31 08       		.uleb128 0x8
 2482 0c32 FC000000 		.4byte	0xfc
 2483 0c36 07       		.byte	0x7
 2484 0c37 00       		.byte	0
 2485 0c38 16       		.uleb128 0x16
 2486 0c39 06050000 		.4byte	.LASF121
 2487 0c3d 05       		.byte	0x5
 2488 0c3e 4C       		.byte	0x4c
 2489 0c3f 490C0000 		.4byte	0xc49
 2490 0c43 05       		.uleb128 0x5
 2491 0c44 03       		.byte	0x3
 2492 0c45 00000000 		.4byte	passwordSeller
 2493 0c49 06       		.uleb128 0x6
 2494 0c4a 280C0000 		.4byte	0xc28
 2495 0c4e 16       		.uleb128 0x16
 2496 0c4f D0030000 		.4byte	.LASF122
 2497 0c53 05       		.byte	0x5
 2498 0c54 4D       		.byte	0x4d
ARM GAS  C:\Users\RECEPC~1\AppData\Local\Temp\cc26jA3l.s 			page 49


 2499 0c55 F2000000 		.4byte	0xf2
 2500 0c59 05       		.uleb128 0x5
 2501 0c5a 03       		.byte	0x3
 2502 0c5b 00000000 		.4byte	flagResetMux
 2503 0c5f 16       		.uleb128 0x16
 2504 0c60 64030000 		.4byte	.LASF123
 2505 0c64 05       		.byte	0x5
 2506 0c65 4E       		.byte	0x4e
 2507 0c66 F2000000 		.4byte	0xf2
 2508 0c6a 05       		.uleb128 0x5
 2509 0c6b 03       		.byte	0x3
 2510 0c6c 00000000 		.4byte	stateBeagleSoft
 2511 0c70 16       		.uleb128 0x16
 2512 0c71 16000000 		.4byte	.LASF124
 2513 0c75 05       		.byte	0x5
 2514 0c76 4F       		.byte	0x4f
 2515 0c77 810C0000 		.4byte	0xc81
 2516 0c7b 05       		.uleb128 0x5
 2517 0c7c 03       		.byte	0x3
 2518 0c7d 00000000 		.4byte	PrevStatePump
 2519 0c81 06       		.uleb128 0x6
 2520 0c82 03010000 		.4byte	0x103
 2521 0c86 16       		.uleb128 0x16
 2522 0c87 2A010000 		.4byte	.LASF125
 2523 0c8b 05       		.byte	0x5
 2524 0c8c 50       		.byte	0x50
 2525 0c8d F2000000 		.4byte	0xf2
 2526 0c91 05       		.uleb128 0x5
 2527 0c92 03       		.byte	0x3
 2528 0c93 00000000 		.4byte	PlateRequest
 2529 0c97 16       		.uleb128 0x16
 2530 0c98 26050000 		.4byte	.LASF126
 2531 0c9c 05       		.byte	0x5
 2532 0c9d 52       		.byte	0x52
 2533 0c9e AD000000 		.4byte	0xad
 2534 0ca2 05       		.uleb128 0x5
 2535 0ca3 03       		.byte	0x3
 2536 0ca4 00000000 		.4byte	UnitType
 2537 0ca8 16       		.uleb128 0x16
 2538 0ca9 8D020000 		.4byte	.LASF127
 2539 0cad 05       		.byte	0x5
 2540 0cae 52       		.byte	0x52
 2541 0caf AD000000 		.4byte	0xad
 2542 0cb3 05       		.uleb128 0x5
 2543 0cb4 03       		.byte	0x3
 2544 0cb5 00000000 		.4byte	ConversionFactor
 2545 0cb9 16       		.uleb128 0x16
 2546 0cba 3D010000 		.4byte	.LASF128
 2547 0cbe 05       		.byte	0x5
 2548 0cbf 52       		.byte	0x52
 2549 0cc0 AD000000 		.4byte	0xad
 2550 0cc4 05       		.uleb128 0x5
 2551 0cc5 03       		.byte	0x3
 2552 0cc6 00000000 		.4byte	MoneyDec
 2553 0cca 16       		.uleb128 0x16
 2554 0ccb FC060000 		.4byte	.LASF129
 2555 0ccf 05       		.byte	0x5
ARM GAS  C:\Users\RECEPC~1\AppData\Local\Temp\cc26jA3l.s 			page 50


 2556 0cd0 52       		.byte	0x52
 2557 0cd1 AD000000 		.4byte	0xad
 2558 0cd5 05       		.uleb128 0x5
 2559 0cd6 03       		.byte	0x3
 2560 0cd7 00000000 		.4byte	VolDec
 2561 0cdb 16       		.uleb128 0x16
 2562 0cdc 76050000 		.4byte	.LASF130
 2563 0ce0 05       		.byte	0x5
 2564 0ce1 52       		.byte	0x52
 2565 0ce2 AD000000 		.4byte	0xad
 2566 0ce6 05       		.uleb128 0x5
 2567 0ce7 03       		.byte	0x3
 2568 0ce8 00000000 		.4byte	PPUDec
 2569 0cec 16       		.uleb128 0x16
 2570 0ced C8000000 		.4byte	.LASF131
 2571 0cf1 05       		.byte	0x5
 2572 0cf2 52       		.byte	0x52
 2573 0cf3 AD000000 		.4byte	0xad
 2574 0cf7 05       		.uleb128 0x5
 2575 0cf8 03       		.byte	0x3
 2576 0cf9 00000000 		.4byte	DDMode
 2577 0cfd 16       		.uleb128 0x16
 2578 0cfe 45000000 		.4byte	.LASF132
 2579 0d02 05       		.byte	0x5
 2580 0d03 53       		.byte	0x53
 2581 0d04 03010000 		.4byte	0x103
 2582 0d08 05       		.uleb128 0x5
 2583 0d09 03       		.byte	0x3
 2584 0d0a 00000000 		.4byte	statePump
 2585 0d0e 16       		.uleb128 0x16
 2586 0d0f 57030000 		.4byte	.LASF133
 2587 0d13 05       		.byte	0x5
 2588 0d14 54       		.byte	0x54
 2589 0d15 AD000000 		.4byte	0xad
 2590 0d19 05       		.uleb128 0x5
 2591 0d1a 03       		.byte	0x3
 2592 0d1b 00000000 		.4byte	NumPositions
 2593 0d1f 16       		.uleb128 0x16
 2594 0d20 E3070000 		.4byte	.LASF134
 2595 0d24 05       		.byte	0x5
 2596 0d25 93       		.byte	0x93
 2597 0d26 13010000 		.4byte	0x113
 2598 0d2a 05       		.uleb128 0x5
 2599 0d2b 03       		.byte	0x3
 2600 0d2c 00000000 		.4byte	bufferDisplay1
 2601 0d30 16       		.uleb128 0x16
 2602 0d31 CF040000 		.4byte	.LASF135
 2603 0d35 05       		.byte	0x5
 2604 0d36 94       		.byte	0x94
 2605 0d37 13010000 		.4byte	0x113
 2606 0d3b 05       		.uleb128 0x5
 2607 0d3c 03       		.byte	0x3
 2608 0d3d 00000000 		.4byte	bufferDisplay2
 2609 0d41 16       		.uleb128 0x16
 2610 0d42 DE040000 		.4byte	.LASF136
 2611 0d46 05       		.byte	0x5
 2612 0d47 95       		.byte	0x95
ARM GAS  C:\Users\RECEPC~1\AppData\Local\Temp\cc26jA3l.s 			page 51


 2613 0d48 13010000 		.4byte	0x113
 2614 0d4c 05       		.uleb128 0x5
 2615 0d4d 03       		.byte	0x3
 2616 0d4e 00000000 		.4byte	bufferDisplay3
 2617 0d52 16       		.uleb128 0x16
 2618 0d53 ED040000 		.4byte	.LASF137
 2619 0d57 05       		.byte	0x5
 2620 0d58 96       		.byte	0x96
 2621 0d59 13010000 		.4byte	0x113
 2622 0d5d 05       		.uleb128 0x5
 2623 0d5e 03       		.byte	0x3
 2624 0d5f 00000000 		.4byte	bufferDisplay4
 2625 0d63 16       		.uleb128 0x16
 2626 0d64 CF000000 		.4byte	.LASF138
 2627 0d68 05       		.byte	0x5
 2628 0d69 B4       		.byte	0xb4
 2629 0d6a 35050000 		.4byte	0x535
 2630 0d6e 05       		.uleb128 0x5
 2631 0d6f 03       		.byte	0x3
 2632 0d70 00000000 		.4byte	side
 2633 0d74 17       		.uleb128 0x17
 2634 0d75 63060000 		.4byte	.LASF141
 2635 0d79 06       		.byte	0x6
 2636 0d7a 73       		.byte	0x73
 2637 0d7b AD000000 		.4byte	0xad
 2638 0d7f 18       		.uleb128 0x18
 2639 0d80 02010000 		.4byte	.LASF150
 2640 0d84 09       		.byte	0x9
 2641 0d85 2B       		.byte	0x2b
 2642 0d86 DF000000 		.4byte	0xdf
 2643 0d8a 940D0000 		.4byte	0xd94
 2644 0d8e 19       		.uleb128 0x19
 2645 0d8f AD000000 		.4byte	0xad
 2646 0d93 00       		.byte	0
 2647 0d94 1A       		.uleb128 0x1a
 2648 0d95 62010000 		.4byte	.LASF139
 2649 0d99 09       		.byte	0x9
 2650 0d9a 24       		.byte	0x24
 2651 0d9b C30D0000 		.4byte	0xdc3
 2652 0d9f 19       		.uleb128 0x19
 2653 0da0 8C000000 		.4byte	0x8c
 2654 0da4 19       		.uleb128 0x19
 2655 0da5 8C000000 		.4byte	0x8c
 2656 0da9 19       		.uleb128 0x19
 2657 0daa 97000000 		.4byte	0x97
 2658 0dae 19       		.uleb128 0x19
 2659 0daf 97000000 		.4byte	0x97
 2660 0db3 19       		.uleb128 0x19
 2661 0db4 8C000000 		.4byte	0x8c
 2662 0db8 19       		.uleb128 0x19
 2663 0db9 97000000 		.4byte	0x97
 2664 0dbd 19       		.uleb128 0x19
 2665 0dbe 8C000000 		.4byte	0x8c
 2666 0dc2 00       		.byte	0
 2667 0dc3 1A       		.uleb128 0x1a
 2668 0dc4 00000000 		.4byte	.LASF140
 2669 0dc8 0A       		.byte	0xa
ARM GAS  C:\Users\RECEPC~1\AppData\Local\Temp\cc26jA3l.s 			page 52


 2670 0dc9 77       		.byte	0x77
 2671 0dca D40D0000 		.4byte	0xdd4
 2672 0dce 19       		.uleb128 0x19
 2673 0dcf B9000000 		.4byte	0xb9
 2674 0dd3 00       		.byte	0
 2675 0dd4 1B       		.uleb128 0x1b
 2676 0dd5 93070000 		.4byte	.LASF143
 2677 0dd9 06       		.byte	0x6
 2678 0dda 75       		.byte	0x75
 2679 0ddb 17       		.uleb128 0x17
 2680 0ddc 24000000 		.4byte	.LASF142
 2681 0de0 07       		.byte	0x7
 2682 0de1 73       		.byte	0x73
 2683 0de2 AD000000 		.4byte	0xad
 2684 0de6 1B       		.uleb128 0x1b
 2685 0de7 9D040000 		.4byte	.LASF144
 2686 0deb 07       		.byte	0x7
 2687 0dec 75       		.byte	0x75
 2688 0ded 00       		.byte	0
 2689              		.section	.debug_abbrev,"",%progbits
 2690              	.Ldebug_abbrev0:
 2691 0000 01       		.uleb128 0x1
 2692 0001 11       		.uleb128 0x11
 2693 0002 01       		.byte	0x1
 2694 0003 25       		.uleb128 0x25
 2695 0004 0E       		.uleb128 0xe
 2696 0005 13       		.uleb128 0x13
 2697 0006 0B       		.uleb128 0xb
 2698 0007 03       		.uleb128 0x3
 2699 0008 0E       		.uleb128 0xe
 2700 0009 1B       		.uleb128 0x1b
 2701 000a 0E       		.uleb128 0xe
 2702 000b 55       		.uleb128 0x55
 2703 000c 17       		.uleb128 0x17
 2704 000d 11       		.uleb128 0x11
 2705 000e 01       		.uleb128 0x1
 2706 000f 10       		.uleb128 0x10
 2707 0010 17       		.uleb128 0x17
 2708 0011 00       		.byte	0
 2709 0012 00       		.byte	0
 2710 0013 02       		.uleb128 0x2
 2711 0014 24       		.uleb128 0x24
 2712 0015 00       		.byte	0
 2713 0016 0B       		.uleb128 0xb
 2714 0017 0B       		.uleb128 0xb
 2715 0018 3E       		.uleb128 0x3e
 2716 0019 0B       		.uleb128 0xb
 2717 001a 03       		.uleb128 0x3
 2718 001b 0E       		.uleb128 0xe
 2719 001c 00       		.byte	0
 2720 001d 00       		.byte	0
 2721 001e 03       		.uleb128 0x3
 2722 001f 16       		.uleb128 0x16
 2723 0020 00       		.byte	0
 2724 0021 03       		.uleb128 0x3
 2725 0022 0E       		.uleb128 0xe
 2726 0023 3A       		.uleb128 0x3a
ARM GAS  C:\Users\RECEPC~1\AppData\Local\Temp\cc26jA3l.s 			page 53


 2727 0024 0B       		.uleb128 0xb
 2728 0025 3B       		.uleb128 0x3b
 2729 0026 0B       		.uleb128 0xb
 2730 0027 49       		.uleb128 0x49
 2731 0028 13       		.uleb128 0x13
 2732 0029 00       		.byte	0
 2733 002a 00       		.byte	0
 2734 002b 04       		.uleb128 0x4
 2735 002c 24       		.uleb128 0x24
 2736 002d 00       		.byte	0
 2737 002e 0B       		.uleb128 0xb
 2738 002f 0B       		.uleb128 0xb
 2739 0030 3E       		.uleb128 0x3e
 2740 0031 0B       		.uleb128 0xb
 2741 0032 03       		.uleb128 0x3
 2742 0033 08       		.uleb128 0x8
 2743 0034 00       		.byte	0
 2744 0035 00       		.byte	0
 2745 0036 05       		.uleb128 0x5
 2746 0037 16       		.uleb128 0x16
 2747 0038 00       		.byte	0
 2748 0039 03       		.uleb128 0x3
 2749 003a 0E       		.uleb128 0xe
 2750 003b 3A       		.uleb128 0x3a
 2751 003c 0B       		.uleb128 0xb
 2752 003d 3B       		.uleb128 0x3b
 2753 003e 05       		.uleb128 0x5
 2754 003f 49       		.uleb128 0x49
 2755 0040 13       		.uleb128 0x13
 2756 0041 00       		.byte	0
 2757 0042 00       		.byte	0
 2758 0043 06       		.uleb128 0x6
 2759 0044 35       		.uleb128 0x35
 2760 0045 00       		.byte	0
 2761 0046 49       		.uleb128 0x49
 2762 0047 13       		.uleb128 0x13
 2763 0048 00       		.byte	0
 2764 0049 00       		.byte	0
 2765 004a 07       		.uleb128 0x7
 2766 004b 01       		.uleb128 0x1
 2767 004c 01       		.byte	0x1
 2768 004d 49       		.uleb128 0x49
 2769 004e 13       		.uleb128 0x13
 2770 004f 01       		.uleb128 0x1
 2771 0050 13       		.uleb128 0x13
 2772 0051 00       		.byte	0
 2773 0052 00       		.byte	0
 2774 0053 08       		.uleb128 0x8
 2775 0054 21       		.uleb128 0x21
 2776 0055 00       		.byte	0
 2777 0056 49       		.uleb128 0x49
 2778 0057 13       		.uleb128 0x13
 2779 0058 2F       		.uleb128 0x2f
 2780 0059 0B       		.uleb128 0xb
 2781 005a 00       		.byte	0
 2782 005b 00       		.byte	0
 2783 005c 09       		.uleb128 0x9
ARM GAS  C:\Users\RECEPC~1\AppData\Local\Temp\cc26jA3l.s 			page 54


 2784 005d 13       		.uleb128 0x13
 2785 005e 01       		.byte	0x1
 2786 005f 03       		.uleb128 0x3
 2787 0060 0E       		.uleb128 0xe
 2788 0061 0B       		.uleb128 0xb
 2789 0062 05       		.uleb128 0x5
 2790 0063 3A       		.uleb128 0x3a
 2791 0064 0B       		.uleb128 0xb
 2792 0065 3B       		.uleb128 0x3b
 2793 0066 0B       		.uleb128 0xb
 2794 0067 01       		.uleb128 0x1
 2795 0068 13       		.uleb128 0x13
 2796 0069 00       		.byte	0
 2797 006a 00       		.byte	0
 2798 006b 0A       		.uleb128 0xa
 2799 006c 0D       		.uleb128 0xd
 2800 006d 00       		.byte	0
 2801 006e 03       		.uleb128 0x3
 2802 006f 0E       		.uleb128 0xe
 2803 0070 3A       		.uleb128 0x3a
 2804 0071 0B       		.uleb128 0xb
 2805 0072 3B       		.uleb128 0x3b
 2806 0073 0B       		.uleb128 0xb
 2807 0074 49       		.uleb128 0x49
 2808 0075 13       		.uleb128 0x13
 2809 0076 38       		.uleb128 0x38
 2810 0077 0B       		.uleb128 0xb
 2811 0078 00       		.byte	0
 2812 0079 00       		.byte	0
 2813 007a 0B       		.uleb128 0xb
 2814 007b 0D       		.uleb128 0xd
 2815 007c 00       		.byte	0
 2816 007d 03       		.uleb128 0x3
 2817 007e 0E       		.uleb128 0xe
 2818 007f 3A       		.uleb128 0x3a
 2819 0080 0B       		.uleb128 0xb
 2820 0081 3B       		.uleb128 0x3b
 2821 0082 0B       		.uleb128 0xb
 2822 0083 49       		.uleb128 0x49
 2823 0084 13       		.uleb128 0x13
 2824 0085 38       		.uleb128 0x38
 2825 0086 05       		.uleb128 0x5
 2826 0087 00       		.byte	0
 2827 0088 00       		.byte	0
 2828 0089 0C       		.uleb128 0xc
 2829 008a 0D       		.uleb128 0xd
 2830 008b 00       		.byte	0
 2831 008c 03       		.uleb128 0x3
 2832 008d 08       		.uleb128 0x8
 2833 008e 3A       		.uleb128 0x3a
 2834 008f 0B       		.uleb128 0xb
 2835 0090 3B       		.uleb128 0x3b
 2836 0091 0B       		.uleb128 0xb
 2837 0092 49       		.uleb128 0x49
 2838 0093 13       		.uleb128 0x13
 2839 0094 38       		.uleb128 0x38
 2840 0095 0B       		.uleb128 0xb
ARM GAS  C:\Users\RECEPC~1\AppData\Local\Temp\cc26jA3l.s 			page 55


 2841 0096 00       		.byte	0
 2842 0097 00       		.byte	0
 2843 0098 0D       		.uleb128 0xd
 2844 0099 0D       		.uleb128 0xd
 2845 009a 00       		.byte	0
 2846 009b 03       		.uleb128 0x3
 2847 009c 08       		.uleb128 0x8
 2848 009d 3A       		.uleb128 0x3a
 2849 009e 0B       		.uleb128 0xb
 2850 009f 3B       		.uleb128 0x3b
 2851 00a0 0B       		.uleb128 0xb
 2852 00a1 49       		.uleb128 0x49
 2853 00a2 13       		.uleb128 0x13
 2854 00a3 38       		.uleb128 0x38
 2855 00a4 05       		.uleb128 0x5
 2856 00a5 00       		.byte	0
 2857 00a6 00       		.byte	0
 2858 00a7 0E       		.uleb128 0xe
 2859 00a8 2E       		.uleb128 0x2e
 2860 00a9 01       		.byte	0x1
 2861 00aa 3F       		.uleb128 0x3f
 2862 00ab 19       		.uleb128 0x19
 2863 00ac 03       		.uleb128 0x3
 2864 00ad 0E       		.uleb128 0xe
 2865 00ae 3A       		.uleb128 0x3a
 2866 00af 0B       		.uleb128 0xb
 2867 00b0 3B       		.uleb128 0x3b
 2868 00b1 0B       		.uleb128 0xb
 2869 00b2 27       		.uleb128 0x27
 2870 00b3 19       		.uleb128 0x19
 2871 00b4 49       		.uleb128 0x49
 2872 00b5 13       		.uleb128 0x13
 2873 00b6 11       		.uleb128 0x11
 2874 00b7 01       		.uleb128 0x1
 2875 00b8 12       		.uleb128 0x12
 2876 00b9 06       		.uleb128 0x6
 2877 00ba 40       		.uleb128 0x40
 2878 00bb 18       		.uleb128 0x18
 2879 00bc 9742     		.uleb128 0x2117
 2880 00be 19       		.uleb128 0x19
 2881 00bf 01       		.uleb128 0x1
 2882 00c0 13       		.uleb128 0x13
 2883 00c1 00       		.byte	0
 2884 00c2 00       		.byte	0
 2885 00c3 0F       		.uleb128 0xf
 2886 00c4 05       		.uleb128 0x5
 2887 00c5 00       		.byte	0
 2888 00c6 03       		.uleb128 0x3
 2889 00c7 08       		.uleb128 0x8
 2890 00c8 3A       		.uleb128 0x3a
 2891 00c9 0B       		.uleb128 0xb
 2892 00ca 3B       		.uleb128 0x3b
 2893 00cb 0B       		.uleb128 0xb
 2894 00cc 49       		.uleb128 0x49
 2895 00cd 13       		.uleb128 0x13
 2896 00ce 02       		.uleb128 0x2
 2897 00cf 17       		.uleb128 0x17
ARM GAS  C:\Users\RECEPC~1\AppData\Local\Temp\cc26jA3l.s 			page 56


 2898 00d0 00       		.byte	0
 2899 00d1 00       		.byte	0
 2900 00d2 10       		.uleb128 0x10
 2901 00d3 05       		.uleb128 0x5
 2902 00d4 00       		.byte	0
 2903 00d5 03       		.uleb128 0x3
 2904 00d6 0E       		.uleb128 0xe
 2905 00d7 3A       		.uleb128 0x3a
 2906 00d8 0B       		.uleb128 0xb
 2907 00d9 3B       		.uleb128 0x3b
 2908 00da 0B       		.uleb128 0xb
 2909 00db 49       		.uleb128 0x49
 2910 00dc 13       		.uleb128 0x13
 2911 00dd 02       		.uleb128 0x2
 2912 00de 17       		.uleb128 0x17
 2913 00df 00       		.byte	0
 2914 00e0 00       		.byte	0
 2915 00e1 11       		.uleb128 0x11
 2916 00e2 34       		.uleb128 0x34
 2917 00e3 00       		.byte	0
 2918 00e4 03       		.uleb128 0x3
 2919 00e5 0E       		.uleb128 0xe
 2920 00e6 3A       		.uleb128 0x3a
 2921 00e7 0B       		.uleb128 0xb
 2922 00e8 3B       		.uleb128 0x3b
 2923 00e9 0B       		.uleb128 0xb
 2924 00ea 49       		.uleb128 0x49
 2925 00eb 13       		.uleb128 0x13
 2926 00ec 02       		.uleb128 0x2
 2927 00ed 17       		.uleb128 0x17
 2928 00ee 00       		.byte	0
 2929 00ef 00       		.byte	0
 2930 00f0 12       		.uleb128 0x12
 2931 00f1 898201   		.uleb128 0x4109
 2932 00f4 00       		.byte	0
 2933 00f5 11       		.uleb128 0x11
 2934 00f6 01       		.uleb128 0x1
 2935 00f7 31       		.uleb128 0x31
 2936 00f8 13       		.uleb128 0x13
 2937 00f9 00       		.byte	0
 2938 00fa 00       		.byte	0
 2939 00fb 13       		.uleb128 0x13
 2940 00fc 898201   		.uleb128 0x4109
 2941 00ff 01       		.byte	0x1
 2942 0100 11       		.uleb128 0x11
 2943 0101 01       		.uleb128 0x1
 2944 0102 31       		.uleb128 0x31
 2945 0103 13       		.uleb128 0x13
 2946 0104 01       		.uleb128 0x1
 2947 0105 13       		.uleb128 0x13
 2948 0106 00       		.byte	0
 2949 0107 00       		.byte	0
 2950 0108 14       		.uleb128 0x14
 2951 0109 8A8201   		.uleb128 0x410a
 2952 010c 00       		.byte	0
 2953 010d 02       		.uleb128 0x2
 2954 010e 18       		.uleb128 0x18
ARM GAS  C:\Users\RECEPC~1\AppData\Local\Temp\cc26jA3l.s 			page 57


 2955 010f 9142     		.uleb128 0x2111
 2956 0111 18       		.uleb128 0x18
 2957 0112 00       		.byte	0
 2958 0113 00       		.byte	0
 2959 0114 15       		.uleb128 0x15
 2960 0115 34       		.uleb128 0x34
 2961 0116 00       		.byte	0
 2962 0117 03       		.uleb128 0x3
 2963 0118 0E       		.uleb128 0xe
 2964 0119 3A       		.uleb128 0x3a
 2965 011a 0B       		.uleb128 0xb
 2966 011b 3B       		.uleb128 0x3b
 2967 011c 05       		.uleb128 0x5
 2968 011d 49       		.uleb128 0x49
 2969 011e 13       		.uleb128 0x13
 2970 011f 3F       		.uleb128 0x3f
 2971 0120 19       		.uleb128 0x19
 2972 0121 3C       		.uleb128 0x3c
 2973 0122 19       		.uleb128 0x19
 2974 0123 00       		.byte	0
 2975 0124 00       		.byte	0
 2976 0125 16       		.uleb128 0x16
 2977 0126 34       		.uleb128 0x34
 2978 0127 00       		.byte	0
 2979 0128 03       		.uleb128 0x3
 2980 0129 0E       		.uleb128 0xe
 2981 012a 3A       		.uleb128 0x3a
 2982 012b 0B       		.uleb128 0xb
 2983 012c 3B       		.uleb128 0x3b
 2984 012d 0B       		.uleb128 0xb
 2985 012e 49       		.uleb128 0x49
 2986 012f 13       		.uleb128 0x13
 2987 0130 3F       		.uleb128 0x3f
 2988 0131 19       		.uleb128 0x19
 2989 0132 02       		.uleb128 0x2
 2990 0133 18       		.uleb128 0x18
 2991 0134 00       		.byte	0
 2992 0135 00       		.byte	0
 2993 0136 17       		.uleb128 0x17
 2994 0137 2E       		.uleb128 0x2e
 2995 0138 00       		.byte	0
 2996 0139 3F       		.uleb128 0x3f
 2997 013a 19       		.uleb128 0x19
 2998 013b 03       		.uleb128 0x3
 2999 013c 0E       		.uleb128 0xe
 3000 013d 3A       		.uleb128 0x3a
 3001 013e 0B       		.uleb128 0xb
 3002 013f 3B       		.uleb128 0x3b
 3003 0140 0B       		.uleb128 0xb
 3004 0141 27       		.uleb128 0x27
 3005 0142 19       		.uleb128 0x19
 3006 0143 49       		.uleb128 0x49
 3007 0144 13       		.uleb128 0x13
 3008 0145 3C       		.uleb128 0x3c
 3009 0146 19       		.uleb128 0x19
 3010 0147 00       		.byte	0
 3011 0148 00       		.byte	0
ARM GAS  C:\Users\RECEPC~1\AppData\Local\Temp\cc26jA3l.s 			page 58


 3012 0149 18       		.uleb128 0x18
 3013 014a 2E       		.uleb128 0x2e
 3014 014b 01       		.byte	0x1
 3015 014c 3F       		.uleb128 0x3f
 3016 014d 19       		.uleb128 0x19
 3017 014e 03       		.uleb128 0x3
 3018 014f 0E       		.uleb128 0xe
 3019 0150 3A       		.uleb128 0x3a
 3020 0151 0B       		.uleb128 0xb
 3021 0152 3B       		.uleb128 0x3b
 3022 0153 0B       		.uleb128 0xb
 3023 0154 27       		.uleb128 0x27
 3024 0155 19       		.uleb128 0x19
 3025 0156 49       		.uleb128 0x49
 3026 0157 13       		.uleb128 0x13
 3027 0158 3C       		.uleb128 0x3c
 3028 0159 19       		.uleb128 0x19
 3029 015a 01       		.uleb128 0x1
 3030 015b 13       		.uleb128 0x13
 3031 015c 00       		.byte	0
 3032 015d 00       		.byte	0
 3033 015e 19       		.uleb128 0x19
 3034 015f 05       		.uleb128 0x5
 3035 0160 00       		.byte	0
 3036 0161 49       		.uleb128 0x49
 3037 0162 13       		.uleb128 0x13
 3038 0163 00       		.byte	0
 3039 0164 00       		.byte	0
 3040 0165 1A       		.uleb128 0x1a
 3041 0166 2E       		.uleb128 0x2e
 3042 0167 01       		.byte	0x1
 3043 0168 3F       		.uleb128 0x3f
 3044 0169 19       		.uleb128 0x19
 3045 016a 03       		.uleb128 0x3
 3046 016b 0E       		.uleb128 0xe
 3047 016c 3A       		.uleb128 0x3a
 3048 016d 0B       		.uleb128 0xb
 3049 016e 3B       		.uleb128 0x3b
 3050 016f 0B       		.uleb128 0xb
 3051 0170 27       		.uleb128 0x27
 3052 0171 19       		.uleb128 0x19
 3053 0172 3C       		.uleb128 0x3c
 3054 0173 19       		.uleb128 0x19
 3055 0174 01       		.uleb128 0x1
 3056 0175 13       		.uleb128 0x13
 3057 0176 00       		.byte	0
 3058 0177 00       		.byte	0
 3059 0178 1B       		.uleb128 0x1b
 3060 0179 2E       		.uleb128 0x2e
 3061 017a 00       		.byte	0
 3062 017b 3F       		.uleb128 0x3f
 3063 017c 19       		.uleb128 0x19
 3064 017d 03       		.uleb128 0x3
 3065 017e 0E       		.uleb128 0xe
 3066 017f 3A       		.uleb128 0x3a
 3067 0180 0B       		.uleb128 0xb
 3068 0181 3B       		.uleb128 0x3b
ARM GAS  C:\Users\RECEPC~1\AppData\Local\Temp\cc26jA3l.s 			page 59


 3069 0182 0B       		.uleb128 0xb
 3070 0183 27       		.uleb128 0x27
 3071 0184 19       		.uleb128 0x19
 3072 0185 3C       		.uleb128 0x3c
 3073 0186 19       		.uleb128 0x19
 3074 0187 00       		.byte	0
 3075 0188 00       		.byte	0
 3076 0189 00       		.byte	0
 3077              		.section	.debug_loc,"",%progbits
 3078              	.Ldebug_loc0:
 3079              	.LLST0:
 3080 0000 00000000 		.4byte	.LVL0
 3081 0004 11000000 		.4byte	.LVL2-1
 3082 0008 0100     		.2byte	0x1
 3083 000a 50       		.byte	0x50
 3084 000b 11000000 		.4byte	.LVL2-1
 3085 000f 2E020000 		.4byte	.LVL34
 3086 0013 0400     		.2byte	0x4
 3087 0015 F3       		.byte	0xf3
 3088 0016 01       		.uleb128 0x1
 3089 0017 50       		.byte	0x50
 3090 0018 9F       		.byte	0x9f
 3091 0019 2E020000 		.4byte	.LVL34
 3092 001d 31020000 		.4byte	.LVL35-1
 3093 0021 0100     		.2byte	0x1
 3094 0023 50       		.byte	0x50
 3095 0024 31020000 		.4byte	.LVL35-1
 3096 0028 94040000 		.4byte	.LFE63
 3097 002c 0400     		.2byte	0x4
 3098 002e F3       		.byte	0xf3
 3099 002f 01       		.uleb128 0x1
 3100 0030 50       		.byte	0x50
 3101 0031 9F       		.byte	0x9f
 3102 0032 00000000 		.4byte	0
 3103 0036 00000000 		.4byte	0
 3104              	.LLST1:
 3105 003a 00000000 		.4byte	.LVL0
 3106 003e 11000000 		.4byte	.LVL2-1
 3107 0042 0100     		.2byte	0x1
 3108 0044 51       		.byte	0x51
 3109 0045 11000000 		.4byte	.LVL2-1
 3110 0049 2E020000 		.4byte	.LVL34
 3111 004d 0400     		.2byte	0x4
 3112 004f F3       		.byte	0xf3
 3113 0050 01       		.uleb128 0x1
 3114 0051 51       		.byte	0x51
 3115 0052 9F       		.byte	0x9f
 3116 0053 2E020000 		.4byte	.LVL34
 3117 0057 31020000 		.4byte	.LVL35-1
 3118 005b 0100     		.2byte	0x1
 3119 005d 51       		.byte	0x51
 3120 005e 31020000 		.4byte	.LVL35-1
 3121 0062 94040000 		.4byte	.LFE63
 3122 0066 0400     		.2byte	0x4
 3123 0068 F3       		.byte	0xf3
 3124 0069 01       		.uleb128 0x1
 3125 006a 51       		.byte	0x51
ARM GAS  C:\Users\RECEPC~1\AppData\Local\Temp\cc26jA3l.s 			page 60


 3126 006b 9F       		.byte	0x9f
 3127 006c 00000000 		.4byte	0
 3128 0070 00000000 		.4byte	0
 3129              	.LLST2:
 3130 0074 00000000 		.4byte	.LVL0
 3131 0078 11000000 		.4byte	.LVL2-1
 3132 007c 0100     		.2byte	0x1
 3133 007e 52       		.byte	0x52
 3134 007f 11000000 		.4byte	.LVL2-1
 3135 0083 2E020000 		.4byte	.LVL34
 3136 0087 0400     		.2byte	0x4
 3137 0089 F3       		.byte	0xf3
 3138 008a 01       		.uleb128 0x1
 3139 008b 52       		.byte	0x52
 3140 008c 9F       		.byte	0x9f
 3141 008d 2E020000 		.4byte	.LVL34
 3142 0091 31020000 		.4byte	.LVL35-1
 3143 0095 0100     		.2byte	0x1
 3144 0097 52       		.byte	0x52
 3145 0098 31020000 		.4byte	.LVL35-1
 3146 009c 94040000 		.4byte	.LFE63
 3147 00a0 0400     		.2byte	0x4
 3148 00a2 F3       		.byte	0xf3
 3149 00a3 01       		.uleb128 0x1
 3150 00a4 52       		.byte	0x52
 3151 00a5 9F       		.byte	0x9f
 3152 00a6 00000000 		.4byte	0
 3153 00aa 00000000 		.4byte	0
 3154              	.LLST3:
 3155 00ae 08000000 		.4byte	.LVL1
 3156 00b2 54000000 		.4byte	.LVL4
 3157 00b6 0200     		.2byte	0x2
 3158 00b8 30       		.byte	0x30
 3159 00b9 9F       		.byte	0x9f
 3160 00ba 54000000 		.4byte	.LVL4
 3161 00be 84000000 		.4byte	.LVL5
 3162 00c2 0100     		.2byte	0x1
 3163 00c4 50       		.byte	0x50
 3164 00c5 98000000 		.4byte	.LVL7
 3165 00c9 9E000000 		.4byte	.LVL8
 3166 00cd 0100     		.2byte	0x1
 3167 00cf 50       		.byte	0x50
 3168 00d0 B4000000 		.4byte	.LVL10
 3169 00d4 E4000000 		.4byte	.LVL11
 3170 00d8 0100     		.2byte	0x1
 3171 00da 50       		.byte	0x50
 3172 00db E4000000 		.4byte	.LVL11
 3173 00df F8000000 		.4byte	.LVL13
 3174 00e3 0100     		.2byte	0x1
 3175 00e5 55       		.byte	0x55
 3176 00e6 F8000000 		.4byte	.LVL13
 3177 00ea FE000000 		.4byte	.LVL14
 3178 00ee 0100     		.2byte	0x1
 3179 00f0 50       		.byte	0x50
 3180 00f1 FE000000 		.4byte	.LVL14
 3181 00f5 14010000 		.4byte	.LVL16
 3182 00f9 0100     		.2byte	0x1
ARM GAS  C:\Users\RECEPC~1\AppData\Local\Temp\cc26jA3l.s 			page 61


 3183 00fb 55       		.byte	0x55
 3184 00fc 14010000 		.4byte	.LVL16
 3185 0100 58010000 		.4byte	.LVL17
 3186 0104 0100     		.2byte	0x1
 3187 0106 50       		.byte	0x50
 3188 0107 6C010000 		.4byte	.LVL19
 3189 010b 72010000 		.4byte	.LVL20
 3190 010f 0100     		.2byte	0x1
 3191 0111 50       		.byte	0x50
 3192 0112 88010000 		.4byte	.LVL22
 3193 0116 8A010000 		.4byte	.LVL23
 3194 011a 0200     		.2byte	0x2
 3195 011c 30       		.byte	0x30
 3196 011d 9F       		.byte	0x9f
 3197 011e 8A010000 		.4byte	.LVL23
 3198 0122 20020000 		.4byte	.LVL31
 3199 0126 0100     		.2byte	0x1
 3200 0128 55       		.byte	0x55
 3201 0129 2E020000 		.4byte	.LVL34
 3202 012d 74020000 		.4byte	.LVL37
 3203 0131 0200     		.2byte	0x2
 3204 0133 30       		.byte	0x30
 3205 0134 9F       		.byte	0x9f
 3206 0135 74020000 		.4byte	.LVL37
 3207 0139 B0020000 		.4byte	.LVL38
 3208 013d 0100     		.2byte	0x1
 3209 013f 50       		.byte	0x50
 3210 0140 D8020000 		.4byte	.LVL40
 3211 0144 EA020000 		.4byte	.LVL41
 3212 0148 0100     		.2byte	0x1
 3213 014a 50       		.byte	0x50
 3214 014b F6020000 		.4byte	.LVL43
 3215 014f 32030000 		.4byte	.LVL44
 3216 0153 0100     		.2byte	0x1
 3217 0155 50       		.byte	0x50
 3218 0156 32030000 		.4byte	.LVL44
 3219 015a 3C030000 		.4byte	.LVL46
 3220 015e 0100     		.2byte	0x1
 3221 0160 55       		.byte	0x55
 3222 0161 3C030000 		.4byte	.LVL46
 3223 0165 4E030000 		.4byte	.LVL47
 3224 0169 0100     		.2byte	0x1
 3225 016b 50       		.byte	0x50
 3226 016c 4E030000 		.4byte	.LVL47
 3227 0170 5A030000 		.4byte	.LVL49
 3228 0174 0100     		.2byte	0x1
 3229 0176 55       		.byte	0x55
 3230 0177 5A030000 		.4byte	.LVL49
 3231 017b AC030000 		.4byte	.LVL50
 3232 017f 0100     		.2byte	0x1
 3233 0181 50       		.byte	0x50
 3234 0182 B6030000 		.4byte	.LVL52
 3235 0186 C8030000 		.4byte	.LVL53
 3236 018a 0100     		.2byte	0x1
 3237 018c 50       		.byte	0x50
 3238 018d D4030000 		.4byte	.LVL55
 3239 0191 D6030000 		.4byte	.LVL56
ARM GAS  C:\Users\RECEPC~1\AppData\Local\Temp\cc26jA3l.s 			page 62


 3240 0195 0200     		.2byte	0x2
 3241 0197 30       		.byte	0x30
 3242 0198 9F       		.byte	0x9f
 3243 0199 D6030000 		.4byte	.LVL56
 3244 019d 68040000 		.4byte	.LVL64
 3245 01a1 0100     		.2byte	0x1
 3246 01a3 55       		.byte	0x55
 3247 01a4 76040000 		.4byte	.LVL67
 3248 01a8 7C040000 		.4byte	.LVL68
 3249 01ac 0200     		.2byte	0x2
 3250 01ae 30       		.byte	0x30
 3251 01af 9F       		.byte	0x9f
 3252 01b0 00000000 		.4byte	0
 3253 01b4 00000000 		.4byte	0
 3254              		.section	.debug_aranges,"",%progbits
 3255 0000 1C000000 		.4byte	0x1c
 3256 0004 0200     		.2byte	0x2
 3257 0006 00000000 		.4byte	.Ldebug_info0
 3258 000a 04       		.byte	0x4
 3259 000b 00       		.byte	0
 3260 000c 0000     		.2byte	0
 3261 000e 0000     		.2byte	0
 3262 0010 00000000 		.4byte	.LFB63
 3263 0014 94040000 		.4byte	.LFE63-.LFB63
 3264 0018 00000000 		.4byte	0
 3265 001c 00000000 		.4byte	0
 3266              		.section	.debug_ranges,"",%progbits
 3267              	.Ldebug_ranges0:
 3268 0000 00000000 		.4byte	.LFB63
 3269 0004 94040000 		.4byte	.LFE63
 3270 0008 00000000 		.4byte	0
 3271 000c 00000000 		.4byte	0
 3272              		.section	.debug_line,"",%progbits
 3273              	.Ldebug_line0:
 3274 0000 49020000 		.section	.debug_str,"MS",%progbits,1
 3274      02009001 
 3274      00000201 
 3274      FB0E0D00 
 3274      01010101 
 3275              	.LASF140:
 3276 0000 43794465 		.ascii	"CyDelay\000"
 3276      6C617900 
 3277              	.LASF110:
 3278 0008 64656369 		.ascii	"decimalVolume\000"
 3278      6D616C56 
 3278      6F6C756D 
 3278      6500
 3279              	.LASF124:
 3280 0016 50726576 		.ascii	"PrevStatePump\000"
 3280      53746174 
 3280      6550756D 
 3280      7000
 3281              	.LASF142:
 3282 0024 44697370 		.ascii	"Display2_GetRxBufferSize\000"
 3282      6C617932 
 3282      5F476574 
 3282      52784275 
ARM GAS  C:\Users\RECEPC~1\AppData\Local\Temp\cc26jA3l.s 			page 63


 3282      66666572 
 3283              	.LASF58:
 3284 003d 6D657373 		.ascii	"message\000"
 3284      61676500 
 3285              	.LASF132:
 3286 0045 73746174 		.ascii	"statePump\000"
 3286      6550756D 
 3286      7000
 3287              	.LASF73:
 3288 004f 62756666 		.ascii	"buffer\000"
 3288      657200
 3289              	.LASF148:
 3290 0056 616C7068 		.ascii	"alphanumeric_keyboard\000"
 3290      616E756D 
 3290      65726963 
 3290      5F6B6579 
 3290      626F6172 
 3291              	.LASF109:
 3292 006c 64656369 		.ascii	"decimalMoney\000"
 3292      6D616C4D 
 3292      6F6E6579 
 3292      00
 3293              	.LASF36:
 3294 0079 73616C65 		.ascii	"salePerform\000"
 3294      50657266 
 3294      6F726D00 
 3295              	.LASF11:
 3296 0085 756E7369 		.ascii	"unsigned int\000"
 3296      676E6564 
 3296      20696E74 
 3296      00
 3297              	.LASF63:
 3298 0092 70726F64 		.ascii	"productMarket\000"
 3298      7563744D 
 3298      61726B65 
 3298      7400
 3299              	.LASF6:
 3300 00a0 5F5F696E 		.ascii	"__int32_t\000"
 3300      7433325F 
 3300      7400
 3301              	.LASF56:
 3302 00aa 666C6167 		.ascii	"flagLiftHandle\000"
 3302      4C696674 
 3302      48616E64 
 3302      6C6500
 3303              	.LASF115:
 3304 00b9 72657369 		.ascii	"residue\000"
 3304      64756500 
 3305              	.LASF23:
 3306 00c1 69645479 		.ascii	"idType\000"
 3306      706500
 3307              	.LASF131:
 3308 00c8 44444D6F 		.ascii	"DDMode\000"
 3308      646500
 3309              	.LASF138:
 3310 00cf 73696465 		.ascii	"side\000"
 3310      00
ARM GAS  C:\Users\RECEPC~1\AppData\Local\Temp\cc26jA3l.s 			page 64


 3311              	.LASF28:
 3312 00d4 73656C65 		.ascii	"selectedSale\000"
 3312      63746564 
 3312      53616C65 
 3312      00
 3313              	.LASF64:
 3314 00e1 7175616E 		.ascii	"quantityMarket\000"
 3314      74697479 
 3314      4D61726B 
 3314      657400
 3315              	.LASF87:
 3316 00f0 44697370 		.ascii	"Display2_rxBuffer\000"
 3316      6C617932 
 3316      5F727842 
 3316      75666665 
 3316      7200
 3317              	.LASF150:
 3318 0102 556E6D61 		.ascii	"UnmapCode\000"
 3318      70436F64 
 3318      6500
 3319              	.LASF102:
 3320 010c 666C6167 		.ascii	"flagPoint2\000"
 3320      506F696E 
 3320      743200
 3321              	.LASF114:
 3322 0117 73637265 		.ascii	"screen\000"
 3322      656E00
 3323              	.LASF60:
 3324 011e 766F6C75 		.ascii	"volumeQuota\000"
 3324      6D655175 
 3324      6F746100 
 3325              	.LASF125:
 3326 012a 506C6174 		.ascii	"PlateRequest\000"
 3326      65526571 
 3326      75657374 
 3326      00
 3327              	.LASF17:
 3328 0137 666C6F61 		.ascii	"float\000"
 3328      7400
 3329              	.LASF128:
 3330 013d 4D6F6E65 		.ascii	"MoneyDec\000"
 3330      79446563 
 3330      00
 3331              	.LASF82:
 3332 0146 686F7365 		.ascii	"hose\000"
 3332      00
 3333              	.LASF10:
 3334 014b 6C6F6E67 		.ascii	"long long unsigned int\000"
 3334      206C6F6E 
 3334      6720756E 
 3334      7369676E 
 3334      65642069 
 3335              	.LASF139:
 3336 0162 57726974 		.ascii	"WriteLCD\000"
 3336      654C4344 
 3336      00
 3337              	.LASF46:
ARM GAS  C:\Users\RECEPC~1\AppData\Local\Temp\cc26jA3l.s 			page 65


 3338 016b 746F7461 		.ascii	"totalVolumePrevious\000"
 3338      6C566F6C 
 3338      756D6550 
 3338      72657669 
 3338      6F757300 
 3339              	.LASF4:
 3340 017f 5F5F7569 		.ascii	"__uint16_t\000"
 3340      6E743136 
 3340      5F7400
 3341              	.LASF97:
 3342 018a 64696769 		.ascii	"digits\000"
 3342      747300
 3343              	.LASF112:
 3344 0191 74696D65 		.ascii	"time\000"
 3344      00
 3345              	.LASF39:
 3346 0196 70726F64 		.ascii	"productType\000"
 3346      75637454 
 3346      79706500 
 3347              	.LASF104:
 3348 01a2 70726F64 		.ascii	"productNumber\000"
 3348      7563744E 
 3348      756D6265 
 3348      7200
 3349              	.LASF42:
 3350 01b0 64617465 		.ascii	"dateDownHandle\000"
 3350      446F776E 
 3350      48616E64 
 3350      6C6500
 3351              	.LASF24:
 3352 01bf 69645365 		.ascii	"idSerial\000"
 3352      7269616C 
 3352      00
 3353              	.LASF149:
 3354 01c8 50726573 		.ascii	"PressedKey\000"
 3354      7365644B 
 3354      657900
 3355              	.LASF146:
 3356 01d3 2E5C6B65 		.ascii	".\\keyboard.c\000"
 3356      79626F61 
 3356      72642E63 
 3356      00
 3357              	.LASF52:
 3358 01e0 6D696C65 		.ascii	"mileageSale\000"
 3358      61676553 
 3358      616C6500 
 3359              	.LASF72:
 3360 01ec 666C6167 		.ascii	"flagChangePPU\000"
 3360      4368616E 
 3360      67655050 
 3360      5500
 3361              	.LASF85:
 3362 01fa 63686172 		.ascii	"character\000"
 3362      61637465 
 3362      7200
 3363              	.LASF103:
 3364 0204 62757474 		.ascii	"button\000"
ARM GAS  C:\Users\RECEPC~1\AppData\Local\Temp\cc26jA3l.s 			page 66


 3364      6F6E00
 3365              	.LASF93:
 3366 020b 666C6F77 		.ascii	"flowDisplay1\000"
 3366      44697370 
 3366      6C617931 
 3366      00
 3367              	.LASF94:
 3368 0218 666C6F77 		.ascii	"flowDisplay2\000"
 3368      44697370 
 3368      6C617932 
 3368      00
 3369              	.LASF95:
 3370 0225 666C6F77 		.ascii	"flowDisplay3\000"
 3370      44697370 
 3370      6C617933 
 3370      00
 3371              	.LASF96:
 3372 0232 666C6F77 		.ascii	"flowDisplay4\000"
 3372      44697370 
 3372      6C617934 
 3372      00
 3373              	.LASF62:
 3374 023f 73657269 		.ascii	"serialMarket\000"
 3374      616C4D61 
 3374      726B6574 
 3374      00
 3375              	.LASF75:
 3376 024c 746F7461 		.ascii	"totalsHandle\000"
 3376      6C734861 
 3376      6E646C65 
 3376      00
 3377              	.LASF38:
 3378 0259 70726573 		.ascii	"presetValue\000"
 3378      65745661 
 3378      6C756500 
 3379              	.LASF117:
 3380 0265 7475726E 		.ascii	"turn\000"
 3380      00
 3381              	.LASF53:
 3382 026a 6964656E 		.ascii	"identySale\000"
 3382      74795361 
 3382      6C6500
 3383              	.LASF35:
 3384 0275 73616C65 		.ascii	"saleType\000"
 3384      54797065 
 3384      00
 3385              	.LASF33:
 3386 027e 76616C75 		.ascii	"valueKeys\000"
 3386      654B6579 
 3386      7300
 3387              	.LASF21:
 3388 0288 63686172 		.ascii	"char\000"
 3388      00
 3389              	.LASF127:
 3390 028d 436F6E76 		.ascii	"ConversionFactor\000"
 3390      65727369 
 3390      6F6E4661 
ARM GAS  C:\Users\RECEPC~1\AppData\Local\Temp\cc26jA3l.s 			page 67


 3390      63746F72 
 3390      00
 3391              	.LASF99:
 3392 029e 6E756D62 		.ascii	"numberKeys1\000"
 3392      65724B65 
 3392      79733100 
 3393              	.LASF100:
 3394 02aa 6E756D62 		.ascii	"numberKeys2\000"
 3394      65724B65 
 3394      79733200 
 3395              	.LASF91:
 3396 02b6 636F756E 		.ascii	"countBeagleTX\000"
 3396      74426561 
 3396      676C6554 
 3396      5800
 3397              	.LASF113:
 3398 02c4 64617465 		.ascii	"date\000"
 3398      00
 3399              	.LASF12:
 3400 02c9 75696E74 		.ascii	"uint8_t\000"
 3400      385F7400 
 3401              	.LASF55:
 3402 02d1 666C6167 		.ascii	"flagPayment\000"
 3402      5061796D 
 3402      656E7400 
 3403              	.LASF20:
 3404 02dd 63686172 		.ascii	"char8\000"
 3404      3800
 3405              	.LASF25:
 3406 02e3 69645365 		.ascii	"idSerialCom\000"
 3406      7269616C 
 3406      436F6D00 
 3407              	.LASF61:
 3408 02ef 70707551 		.ascii	"ppuQuota\000"
 3408      756F7461 
 3408      00
 3409              	.LASF48:
 3410 02f8 746F7461 		.ascii	"totalMoneyAfter\000"
 3410      6C4D6F6E 
 3410      65794166 
 3410      74657200 
 3411              	.LASF59:
 3412 0308 6D6F6E65 		.ascii	"moneyQuota\000"
 3412      7951756F 
 3412      746100
 3413              	.LASF71:
 3414 0313 7072696E 		.ascii	"printers\000"
 3414      74657273 
 3414      00
 3415              	.LASF105:
 3416 031c 70726573 		.ascii	"presetFast\000"
 3416      65744661 
 3416      737400
 3417              	.LASF77:
 3418 0327 6D6F6E65 		.ascii	"moneySale\000"
 3418      7953616C 
 3418      6500
ARM GAS  C:\Users\RECEPC~1\AppData\Local\Temp\cc26jA3l.s 			page 68


 3419              	.LASF9:
 3420 0331 6C6F6E67 		.ascii	"long long int\000"
 3420      206C6F6E 
 3420      6720696E 
 3420      7400
 3421              	.LASF79:
 3422 033f 70707553 		.ascii	"ppuSale\000"
 3422      616C6500 
 3423              	.LASF89:
 3424 0347 636F756E 		.ascii	"countAnimation1\000"
 3424      74416E69 
 3424      6D617469 
 3424      6F6E3100 
 3425              	.LASF133:
 3426 0357 4E756D50 		.ascii	"NumPositions\000"
 3426      6F736974 
 3426      696F6E73 
 3426      00
 3427              	.LASF123:
 3428 0364 73746174 		.ascii	"stateBeagleSoft\000"
 3428      65426561 
 3428      676C6553 
 3428      6F667400 
 3429              	.LASF47:
 3430 0374 746F7461 		.ascii	"totalPPUPrevious\000"
 3430      6C505055 
 3430      50726576 
 3430      696F7573 
 3430      00
 3431              	.LASF90:
 3432 0385 636F756E 		.ascii	"countAnimation2\000"
 3432      74416E69 
 3432      6D617469 
 3432      6F6E3200 
 3433              	.LASF68:
 3434 0395 746F7461 		.ascii	"totalMarket\000"
 3434      6C4D6172 
 3434      6B657400 
 3435              	.LASF44:
 3436 03a1 74696D65 		.ascii	"timeDownHandle\000"
 3436      446F776E 
 3436      48616E64 
 3436      6C6500
 3437              	.LASF34:
 3438 03b0 76656869 		.ascii	"vehicleType\000"
 3438      636C6554 
 3438      79706500 
 3439              	.LASF54:
 3440 03bc 666C6167 		.ascii	"flagKeyboard\000"
 3440      4B657962 
 3440      6F617264 
 3440      00
 3441              	.LASF16:
 3442 03c9 75696E74 		.ascii	"uint32\000"
 3442      333200
 3443              	.LASF122:
 3444 03d0 666C6167 		.ascii	"flagResetMux\000"
ARM GAS  C:\Users\RECEPC~1\AppData\Local\Temp\cc26jA3l.s 			page 69


 3444      52657365 
 3444      744D7578 
 3444      00
 3445              	.LASF84:
 3446 03dd 6D61784E 		.ascii	"maxNumberKeys\000"
 3446      756D6265 
 3446      724B6579 
 3446      7300
 3447              	.LASF50:
 3448 03eb 746F7461 		.ascii	"totalPPUAfter\000"
 3448      6C505055 
 3448      41667465 
 3448      7200
 3449              	.LASF13:
 3450 03f9 75696E74 		.ascii	"uint16_t\000"
 3450      31365F74 
 3450      00
 3451              	.LASF98:
 3452 0402 69704164 		.ascii	"ipAdress\000"
 3452      72657373 
 3452      00
 3453              	.LASF31:
 3454 040b 6B657962 		.ascii	"keyboardWayToPay\000"
 3454      6F617264 
 3454      57617954 
 3454      6F506179 
 3454      00
 3455              	.LASF108:
 3456 041c 70707578 		.ascii	"ppux10\000"
 3456      313000
 3457              	.LASF45:
 3458 0423 746F7461 		.ascii	"totalMoneyPrevious\000"
 3458      6C4D6F6E 
 3458      65795072 
 3458      6576696F 
 3458      757300
 3459              	.LASF101:
 3460 0436 666C6167 		.ascii	"flagPoint1\000"
 3460      506F696E 
 3460      743100
 3461              	.LASF29:
 3462 0441 6D6F6E65 		.ascii	"moneySelectedSale\000"
 3462      7953656C 
 3462      65637465 
 3462      6453616C 
 3462      6500
 3463              	.LASF111:
 3464 0453 73796D62 		.ascii	"symbols\000"
 3464      6F6C7300 
 3465              	.LASF51:
 3466 045b 6C696365 		.ascii	"licenceSale\000"
 3466      6E636553 
 3466      616C6500 
 3467              	.LASF70:
 3468 0467 70726963 		.ascii	"priceConsign\000"
 3468      65436F6E 
 3468      7369676E 
ARM GAS  C:\Users\RECEPC~1\AppData\Local\Temp\cc26jA3l.s 			page 70


 3468      00
 3469              	.LASF2:
 3470 0474 73686F72 		.ascii	"short int\000"
 3470      7420696E 
 3470      7400
 3471              	.LASF7:
 3472 047e 6C6F6E67 		.ascii	"long int\000"
 3472      20696E74 
 3472      00
 3473              	.LASF88:
 3474 0487 49544D5F 		.ascii	"ITM_RxBuffer\000"
 3474      52784275 
 3474      66666572 
 3474      00
 3475              	.LASF118:
 3476 0494 6C6F636B 		.ascii	"lockTurn\000"
 3476      5475726E 
 3476      00
 3477              	.LASF144:
 3478 049d 44697370 		.ascii	"Display2_ClearRxBuffer\000"
 3478      6C617932 
 3478      5F436C65 
 3478      61725278 
 3478      42756666 
 3479              	.LASF57:
 3480 04b4 666C6167 		.ascii	"flagEndSale\000"
 3480      456E6453 
 3480      616C6500 
 3481              	.LASF41:
 3482 04c0 64617465 		.ascii	"dateLiftHandle\000"
 3482      4C696674 
 3482      48616E64 
 3482      6C6500
 3483              	.LASF135:
 3484 04cf 62756666 		.ascii	"bufferDisplay2\000"
 3484      65724469 
 3484      73706C61 
 3484      793200
 3485              	.LASF136:
 3486 04de 62756666 		.ascii	"bufferDisplay3\000"
 3486      65724469 
 3486      73706C61 
 3486      793300
 3487              	.LASF137:
 3488 04ed 62756666 		.ascii	"bufferDisplay4\000"
 3488      65724469 
 3488      73706C61 
 3488      793400
 3489              	.LASF3:
 3490 04fc 5F5F7569 		.ascii	"__uint8_t\000"
 3490      6E74385F 
 3490      7400
 3491              	.LASF121:
 3492 0506 70617373 		.ascii	"passwordSeller\000"
 3492      776F7264 
 3492      53656C6C 
 3492      657200
ARM GAS  C:\Users\RECEPC~1\AppData\Local\Temp\cc26jA3l.s 			page 71


 3493              	.LASF49:
 3494 0515 746F7461 		.ascii	"totalVolumeAfter\000"
 3494      6C566F6C 
 3494      756D6541 
 3494      66746572 
 3494      00
 3495              	.LASF126:
 3496 0526 556E6974 		.ascii	"UnitType\000"
 3496      54797065 
 3496      00
 3497              	.LASF19:
 3498 052f 75696E74 		.ascii	"uint64\000"
 3498      363400
 3499              	.LASF106:
 3500 0536 64656C61 		.ascii	"delayPicture1\000"
 3500      79506963 
 3500      74757265 
 3500      3100
 3501              	.LASF107:
 3502 0544 64656C61 		.ascii	"delayPicture2\000"
 3502      79506963 
 3502      74757265 
 3502      3200
 3503              	.LASF40:
 3504 0552 73746174 		.ascii	"stateMux\000"
 3504      654D7578 
 3504      00
 3505              	.LASF22:
 3506 055b 73697A65 		.ascii	"sizetype\000"
 3506      74797065 
 3506      00
 3507              	.LASF8:
 3508 0564 6C6F6E67 		.ascii	"long unsigned int\000"
 3508      20756E73 
 3508      69676E65 
 3508      6420696E 
 3508      7400
 3509              	.LASF130:
 3510 0576 50505544 		.ascii	"PPUDec\000"
 3510      656300
 3511              	.LASF81:
 3512 057d 61637469 		.ascii	"activeHose\000"
 3512      7665486F 
 3512      736500
 3513              	.LASF69:
 3514 0588 666C6167 		.ascii	"flagProductmarket\000"
 3514      50726F64 
 3514      7563746D 
 3514      61726B65 
 3514      7400
 3515              	.LASF14:
 3516 059a 696E7433 		.ascii	"int32_t\000"
 3516      325F7400 
 3517              	.LASF65:
 3518 05a2 7175616E 		.ascii	"quantAvailableMark\000"
 3518      74417661 
 3518      696C6162 
ARM GAS  C:\Users\RECEPC~1\AppData\Local\Temp\cc26jA3l.s 			page 72


 3518      6C654D61 
 3518      726B00
 3519              	.LASF27:
 3520 05b5 666C6167 		.ascii	"flagWayToPayMixed\000"
 3520      57617954 
 3520      6F506179 
 3520      4D697865 
 3520      6400
 3521              	.LASF1:
 3522 05c7 756E7369 		.ascii	"unsigned char\000"
 3522      676E6564 
 3522      20636861 
 3522      7200
 3523              	.LASF145:
 3524 05d5 474E5520 		.ascii	"GNU C 4.9.3 20150303 (release) [ARM/embedded-4_9-br"
 3524      4320342E 
 3524      392E3320 
 3524      32303135 
 3524      30333033 
 3525 0608 616E6368 		.ascii	"anch revision 221220] -mcpu=cortex-m3 -mthumb -g -O"
 3525      20726576 
 3525      6973696F 
 3525      6E203232 
 3525      31323230 
 3526 063b 67202D66 		.ascii	"g -ffunction-sections -ffat-lto-objects\000"
 3526      66756E63 
 3526      74696F6E 
 3526      2D736563 
 3526      74696F6E 
 3527              	.LASF141:
 3528 0663 44697370 		.ascii	"Display1_GetRxBufferSize\000"
 3528      6C617931 
 3528      5F476574 
 3528      52784275 
 3528      66666572 
 3529              	.LASF32:
 3530 067c 61757468 		.ascii	"authorizationFlag\000"
 3530      6F72697A 
 3530      6174696F 
 3530      6E466C61 
 3530      6700
 3531              	.LASF66:
 3532 068e 70726963 		.ascii	"priceTotalMarket\000"
 3532      65546F74 
 3532      616C4D61 
 3532      726B6574 
 3532      00
 3533              	.LASF119:
 3534 069f 69645365 		.ascii	"idSeller\000"
 3534      6C6C6572 
 3534      00
 3535              	.LASF83:
 3536 06a8 70756D70 		.ascii	"pump\000"
 3536      00
 3537              	.LASF147:
 3538 06ad 433A5C55 		.ascii	"C:\\Users\\Recepcion\\Documents\\GitHub\\NSY-DH\\Wo"
 3538      73657273 
ARM GAS  C:\Users\RECEPC~1\AppData\Local\Temp\cc26jA3l.s 			page 73


 3538      5C526563 
 3538      65706369 
 3538      6F6E5C44 
 3539 06da 726B7370 		.ascii	"rkspace01\\Design01.cydsn\000"
 3539      61636530 
 3539      315C4465 
 3539      7369676E 
 3539      30312E63 
 3540              	.LASF116:
 3541 06f3 74656D70 		.ascii	"temporal\000"
 3541      6F72616C 
 3541      00
 3542              	.LASF129:
 3543 06fc 566F6C44 		.ascii	"VolDec\000"
 3543      656300
 3544              	.LASF37:
 3545 0703 70726573 		.ascii	"presetType\000"
 3545      65745479 
 3545      706500
 3546              	.LASF67:
 3547 070e 70726963 		.ascii	"priceUnitMarket\000"
 3547      65556E69 
 3547      744D6172 
 3547      6B657400 
 3548              	.LASF120:
 3549 071e 74797065 		.ascii	"typeIdSeller\000"
 3549      49645365 
 3549      6C6C6572 
 3549      00
 3550              	.LASF78:
 3551 072b 766F6C75 		.ascii	"volumeSale\000"
 3551      6D655361 
 3551      6C6500
 3552              	.LASF0:
 3553 0736 7369676E 		.ascii	"signed char\000"
 3553      65642063 
 3553      68617200 
 3554              	.LASF5:
 3555 0742 73686F72 		.ascii	"short unsigned int\000"
 3555      7420756E 
 3555      7369676E 
 3555      65642069 
 3555      6E7400
 3556              	.LASF92:
 3557 0755 636F756E 		.ascii	"countPump\000"
 3557      7450756D 
 3557      7000
 3558              	.LASF86:
 3559 075f 44697370 		.ascii	"Display1_rxBuffer\000"
 3559      6C617931 
 3559      5F727842 
 3559      75666665 
 3559      7200
 3560              	.LASF80:
 3561 0771 70726F64 		.ascii	"productSale\000"
 3561      75637453 
 3561      616C6500 
ARM GAS  C:\Users\RECEPC~1\AppData\Local\Temp\cc26jA3l.s 			page 74


 3562              	.LASF15:
 3563 077d 75696E74 		.ascii	"uint8\000"
 3563      3800
 3564              	.LASF18:
 3565 0783 646F7562 		.ascii	"double\000"
 3565      6C6500
 3566              	.LASF26:
 3567 078a 77617954 		.ascii	"wayToPay\000"
 3567      6F506179 
 3567      00
 3568              	.LASF143:
 3569 0793 44697370 		.ascii	"Display1_ClearRxBuffer\000"
 3569      6C617931 
 3569      5F436C65 
 3569      61725278 
 3569      42756666 
 3570              	.LASF43:
 3571 07aa 74696D65 		.ascii	"timeLiftHandle\000"
 3571      4C696674 
 3571      48616E64 
 3571      6C6500
 3572              	.LASF76:
 3573 07b9 70707541 		.ascii	"ppuAuthorized\000"
 3573      7574686F 
 3573      72697A65 
 3573      6400
 3574              	.LASF30:
 3575 07c7 73657269 		.ascii	"serialSelectedSale\000"
 3575      616C5365 
 3575      6C656374 
 3575      65645361 
 3575      6C6500
 3576              	.LASF74:
 3577 07da 706F7369 		.ascii	"position\000"
 3577      74696F6E 
 3577      00
 3578              	.LASF134:
 3579 07e3 62756666 		.ascii	"bufferDisplay1\000"
 3579      65724469 
 3579      73706C61 
 3579      793100
 3580              		.ident	"GCC: (GNU Tools for ARM Embedded Processors) 4.9.3 20150303 (release) [ARM/embedded-4_9-br
