ARM GAS  C:\Users\RECEPC~1\AppData\Local\Temp\cc2rtZR1.s 			page 1


   1              		.syntax unified
   2              		.cpu cortex-m3
   3              		.fpu softvfp
   4              		.eabi_attribute 20, 1
   5              		.eabi_attribute 21, 1
   6              		.eabi_attribute 23, 3
   7              		.eabi_attribute 24, 1
   8              		.eabi_attribute 25, 1
   9              		.eabi_attribute 26, 1
  10              		.eabi_attribute 30, 1
  11              		.eabi_attribute 34, 1
  12              		.eabi_attribute 18, 4
  13              		.thumb
  14              		.file	"keyboard.c"
  15              		.text
  16              	.Ltext0:
  17              		.cfi_sections	.debug_frame
  18              		.section	.text.alphanumeric_keyboard,"ax",%progbits
  19              		.align	2
  20              		.global	alphanumeric_keyboard
  21              		.thumb
  22              		.thumb_func
  23              		.type	alphanumeric_keyboard, %function
  24              	alphanumeric_keyboard:
  25              	.LFB63:
  26              		.file 1 ".\\keyboard.c"
   1:.\keyboard.c  **** /*
   2:.\keyboard.c  **** ***************************************************************************************************
   3:.\keyboard.c  **** *                                         MUX ADVANCE CODE
   4:.\keyboard.c  **** *
   5:.\keyboard.c  **** *                             (c) Copyright 2016; Sistemas Insepet LTDA
   6:.\keyboard.c  **** *
   7:.\keyboard.c  **** *               All rights reserved.  Protected by international copyright laws.
   8:.\keyboard.c  **** *               Knowledge of the source code may NOT be used to develop a similar product.
   9:.\keyboard.c  **** *               Please help us continue to provide the Embedded community with the finest
  10:.\keyboard.c  **** *               software available.  Your honesty is greatly appreciated.
  11:.\keyboard.c  **** ***************************************************************************************************
  12:.\keyboard.c  **** */
  13:.\keyboard.c  **** 
  14:.\keyboard.c  **** /*
  15:.\keyboard.c  **** ***************************************************************************************************
  16:.\keyboard.c  **** *
  17:.\keyboard.c  **** *                                            MUX ADVANCE CODE
  18:.\keyboard.c  **** *
  19:.\keyboard.c  **** *                                             CYPRESS PSoC5LP
  20:.\keyboard.c  **** *                                                with the
  21:.\keyboard.c  **** *                                            CY8C5969AXI-LP035
  22:.\keyboard.c  **** *
  23:.\keyboard.c  **** * Filename      : keyboard.c
  24:.\keyboard.c  **** * Version       : V1.00
  25:.\keyboard.c  **** * Programmer(s) : 
  26:.\keyboard.c  ****                   
  27:.\keyboard.c  **** ***************************************************************************************************
  28:.\keyboard.c  **** */
  29:.\keyboard.c  **** 
  30:.\keyboard.c  **** /*
  31:.\keyboard.c  **** ***************************************************************************************************
ARM GAS  C:\Users\RECEPC~1\AppData\Local\Temp\cc2rtZR1.s 			page 2


  32:.\keyboard.c  **** *                                             INCLUDE FILES
  33:.\keyboard.c  **** ***************************************************************************************************
  34:.\keyboard.c  **** */
  35:.\keyboard.c  **** 
  36:.\keyboard.c  **** #include <device.h>
  37:.\keyboard.c  **** #include "variables.h"
  38:.\keyboard.c  **** #include <LCD.h>
  39:.\keyboard.c  **** #include "LCD.h"
  40:.\keyboard.c  **** 
  41:.\keyboard.c  **** /*
  42:.\keyboard.c  **** ***************************************************************************************************
  43:.\keyboard.c  **** *               uint8 alphanumeric_keyboard(uint8 lcd, uint8 maxNumberKeys, uint8 character)
  44:.\keyboard.c  **** *
  45:.\keyboard.c  **** * Description : 
  46:.\keyboard.c  **** *               
  47:.\keyboard.c  **** *
  48:.\keyboard.c  **** * Argument(s) : none
  49:.\keyboard.c  **** *
  50:.\keyboard.c  **** * Return(s)   : none
  51:.\keyboard.c  **** *
  52:.\keyboard.c  **** * Caller(s)   :  
  53:.\keyboard.c  **** *
  54:.\keyboard.c  **** * Note(s)     : none.
  55:.\keyboard.c  **** ***************************************************************************************************
  56:.\keyboard.c  **** */
  57:.\keyboard.c  **** 
  58:.\keyboard.c  **** uint8 alphanumeric_keyboard(uint8 lcd, uint8 maxNumberKeys, uint8 character){
  27              		.loc 1 58 0
  28              		.cfi_startproc
  29              		@ args = 0, pretend = 0, frame = 0
  30              		@ frame_needed = 0, uses_anonymous_args = 0
  31              	.LVL0:
  32 0000 30B5     		push	{r4, r5, lr}
  33              		.cfi_def_cfa_offset 12
  34              		.cfi_offset 4, -12
  35              		.cfi_offset 5, -8
  36              		.cfi_offset 14, -4
  37 0002 85B0     		sub	sp, sp, #20
  38              		.cfi_def_cfa_offset 32
  39 0004 0D46     		mov	r5, r1
  40 0006 1446     		mov	r4, r2
  41              	.LVL1:
  59:.\keyboard.c  ****     char8 PressedKey = 0;
  60:.\keyboard.c  ****     if(lcd==1){
  42              		.loc 1 60 0
  43 0008 0128     		cmp	r0, #1
  44 000a 40F01081 		bne	.L2
  61:.\keyboard.c  ****         if(Display1_GetRxBufferSize()==8){
  45              		.loc 1 61 0
  46 000e FFF7FEFF 		bl	Display1_GetRxBufferSize
  47              	.LVL2:
  48 0012 0828     		cmp	r0, #8
  49 0014 40F02F82 		bne	.L26
  62:.\keyboard.c  ****             if((Display1_rxBuffer[0]==0xAA) && (Display1_rxBuffer[6]==0xC3) && (Display1_rxBuffer[7
  50              		.loc 1 62 0
  51 0018 A84B     		ldr	r3, .L31
  52 001a 1B78     		ldrb	r3, [r3]	@ zero_extendqisi2
ARM GAS  C:\Users\RECEPC~1\AppData\Local\Temp\cc2rtZR1.s 			page 3


  53 001c DBB2     		uxtb	r3, r3
  54 001e AA2B     		cmp	r3, #170
  55 0020 40F0FE80 		bne	.L4
  56              		.loc 1 62 0 is_stmt 0 discriminator 1
  57 0024 A54B     		ldr	r3, .L31
  58 0026 9B79     		ldrb	r3, [r3, #6]	@ zero_extendqisi2
  59 0028 DBB2     		uxtb	r3, r3
  60 002a C32B     		cmp	r3, #195
  61 002c 40F0F880 		bne	.L4
  62              		.loc 1 62 0 discriminator 2
  63 0030 A24B     		ldr	r3, .L31
  64 0032 DB79     		ldrb	r3, [r3, #7]	@ zero_extendqisi2
  65 0034 DBB2     		uxtb	r3, r3
  66 0036 3C2B     		cmp	r3, #60
  67 0038 40F0F280 		bne	.L4
  63:.\keyboard.c  ****                 if(numberKeys1<=(maxNumberKeys-1)){
  68              		.loc 1 63 0 is_stmt 1
  69 003c A04B     		ldr	r3, .L31+4
  70 003e 1B78     		ldrb	r3, [r3]	@ zero_extendqisi2
  71 0040 DBB2     		uxtb	r3, r3
  72 0042 013D     		subs	r5, r5, #1
  73 0044 AB42     		cmp	r3, r5
  74 0046 00F39F80 		bgt	.L27
  64:.\keyboard.c  ****                     PressedKey =UnmapCode(Display1_rxBuffer[3]);
  75              		.loc 1 64 0
  76 004a 9C4B     		ldr	r3, .L31
  77 004c D878     		ldrb	r0, [r3, #3]	@ zero_extendqisi2
  78 004e FFF7FEFF 		bl	UnmapCode
  79              	.LVL3:
  80 0052 0546     		mov	r5, r0
  81              	.LVL4:
  65:.\keyboard.c  ****                     if(PressedKey>=0x20 && PressedKey<=0x2B){ //Comandos ascii sin incluir coma (,)
  82              		.loc 1 65 0
  83 0054 A0F12003 		sub	r3, r0, #32
  84 0058 DBB2     		uxtb	r3, r3
  85 005a 0B2B     		cmp	r3, #11
  86 005c 2AD8     		bhi	.L6
  66:.\keyboard.c  ****                         numberKeys1++;  
  87              		.loc 1 66 0
  88 005e 984A     		ldr	r2, .L31+4
  89 0060 1378     		ldrb	r3, [r2]	@ zero_extendqisi2
  90 0062 0133     		adds	r3, r3, #1
  91 0064 DBB2     		uxtb	r3, r3
  92 0066 1370     		strb	r3, [r2]
  67:.\keyboard.c  ****                         bufferDisplay1.valueKeys[numberKeys1]=PressedKey;                        
  93              		.loc 1 67 0
  94 0068 1378     		ldrb	r3, [r2]	@ zero_extendqisi2
  95 006a 964A     		ldr	r2, .L31+8
  96 006c 1344     		add	r3, r3, r2
  97 006e 83F84B00 		strb	r0, [r3, #75]
  68:.\keyboard.c  ****                         if(character==0){
  98              		.loc 1 68 0
  99 0072 8CB9     		cbnz	r4, .L7
  69:.\keyboard.c  ****                             WriteLCD(1,bufferDisplay1.valueKeys[numberKeys1],3,numberKeys1+2,1,0x00
 100              		.loc 1 69 0
 101 0074 924B     		ldr	r3, .L31+4
 102 0076 1A78     		ldrb	r2, [r3]	@ zero_extendqisi2
ARM GAS  C:\Users\RECEPC~1\AppData\Local\Temp\cc2rtZR1.s 			page 4


 103 0078 1B78     		ldrb	r3, [r3]	@ zero_extendqisi2
 104 007a 9249     		ldr	r1, .L31+8
 105 007c 0A44     		add	r2, r2, r1
 106 007e 92F84B10 		ldrb	r1, [r2, #75]	@ zero_extendqisi2
 107 0082 0120     		movs	r0, #1
 108              	.LVL5:
 109 0084 0090     		str	r0, [sp]
 110 0086 0022     		movs	r2, #0
 111 0088 0192     		str	r2, [sp, #4]
 112 008a 4E22     		movs	r2, #78
 113 008c 0292     		str	r2, [sp, #8]
 114 008e 0322     		movs	r2, #3
 115 0090 0233     		adds	r3, r3, #2
 116 0092 FFF7FEFF 		bl	WriteLCD
 117              	.LVL6:
 118 0096 78E0     		b	.L5
 119              	.LVL7:
 120              	.L7:
  70:.\keyboard.c  ****                         }else{
  71:.\keyboard.c  ****                             WriteLCD(1,character,3,numberKeys1+2,1,0x0000,'N');
 121              		.loc 1 71 0
 122 0098 894B     		ldr	r3, .L31+4
 123 009a 1B78     		ldrb	r3, [r3]	@ zero_extendqisi2
 124 009c 0120     		movs	r0, #1
 125              	.LVL8:
 126 009e 0090     		str	r0, [sp]
 127 00a0 0022     		movs	r2, #0
 128 00a2 0192     		str	r2, [sp, #4]
 129 00a4 4E22     		movs	r2, #78
 130 00a6 0292     		str	r2, [sp, #8]
 131 00a8 2146     		mov	r1, r4
 132 00aa 0322     		movs	r2, #3
 133 00ac 0233     		adds	r3, r3, #2
 134 00ae FFF7FEFF 		bl	WriteLCD
 135              	.LVL9:
 136 00b2 6AE0     		b	.L5
 137              	.LVL10:
 138              	.L6:
  72:.\keyboard.c  ****                         }
  73:.\keyboard.c  ****                     }else if(PressedKey>=0x2D && PressedKey<=0x7E){ //Comandos ascii sin incluir co
 139              		.loc 1 73 0
 140 00b4 A0F12D03 		sub	r3, r0, #45
 141 00b8 DBB2     		uxtb	r3, r3
 142 00ba 512B     		cmp	r3, #81
 143 00bc 2AD8     		bhi	.L8
  74:.\keyboard.c  ****                         numberKeys1++;  
 144              		.loc 1 74 0
 145 00be 804A     		ldr	r2, .L31+4
 146 00c0 1378     		ldrb	r3, [r2]	@ zero_extendqisi2
 147 00c2 0133     		adds	r3, r3, #1
 148 00c4 DBB2     		uxtb	r3, r3
 149 00c6 1370     		strb	r3, [r2]
  75:.\keyboard.c  ****                         bufferDisplay1.valueKeys[numberKeys1]=PressedKey;
 150              		.loc 1 75 0
 151 00c8 1378     		ldrb	r3, [r2]	@ zero_extendqisi2
 152 00ca 7E4A     		ldr	r2, .L31+8
 153 00cc 1344     		add	r3, r3, r2
ARM GAS  C:\Users\RECEPC~1\AppData\Local\Temp\cc2rtZR1.s 			page 5


 154 00ce 83F84B00 		strb	r0, [r3, #75]
  76:.\keyboard.c  ****                         if(character==0){
 155              		.loc 1 76 0
 156 00d2 8CB9     		cbnz	r4, .L9
  77:.\keyboard.c  ****                             WriteLCD(1,bufferDisplay1.valueKeys[numberKeys1],3,numberKeys1+2,1,0x00
 157              		.loc 1 77 0
 158 00d4 7A4B     		ldr	r3, .L31+4
 159 00d6 1A78     		ldrb	r2, [r3]	@ zero_extendqisi2
 160 00d8 1B78     		ldrb	r3, [r3]	@ zero_extendqisi2
 161 00da 7A49     		ldr	r1, .L31+8
 162 00dc 0A44     		add	r2, r2, r1
 163 00de 92F84B10 		ldrb	r1, [r2, #75]	@ zero_extendqisi2
 164 00e2 0120     		movs	r0, #1
 165              	.LVL11:
 166 00e4 0090     		str	r0, [sp]
 167 00e6 0022     		movs	r2, #0
 168 00e8 0192     		str	r2, [sp, #4]
 169 00ea 4E22     		movs	r2, #78
 170 00ec 0292     		str	r2, [sp, #8]
 171 00ee 0322     		movs	r2, #3
 172 00f0 0233     		adds	r3, r3, #2
 173 00f2 FFF7FEFF 		bl	WriteLCD
 174              	.LVL12:
 175 00f6 48E0     		b	.L5
 176              	.LVL13:
 177              	.L9:
  78:.\keyboard.c  ****                         }else{
  79:.\keyboard.c  ****                             WriteLCD(1,character,3,numberKeys1+2,1,0x0000,'N');
 178              		.loc 1 79 0
 179 00f8 714B     		ldr	r3, .L31+4
 180 00fa 1B78     		ldrb	r3, [r3]	@ zero_extendqisi2
 181 00fc 0120     		movs	r0, #1
 182              	.LVL14:
 183 00fe 0090     		str	r0, [sp]
 184 0100 0022     		movs	r2, #0
 185 0102 0192     		str	r2, [sp, #4]
 186 0104 4E22     		movs	r2, #78
 187 0106 0292     		str	r2, [sp, #8]
 188 0108 2146     		mov	r1, r4
 189 010a 0322     		movs	r2, #3
 190 010c 0233     		adds	r3, r3, #2
 191 010e FFF7FEFF 		bl	WriteLCD
 192              	.LVL15:
 193 0112 3AE0     		b	.L5
 194              	.LVL16:
 195              	.L8:
  80:.\keyboard.c  ****                         }
  81:.\keyboard.c  ****                     }else if(PressedKey==',' && numberKeys1>=1 && flagPoint1==0){  //Coma (,)
 196              		.loc 1 81 0
 197 0114 2C28     		cmp	r0, #44
 198 0116 38D1     		bne	.L5
 199              		.loc 1 81 0 is_stmt 0 discriminator 1
 200 0118 694B     		ldr	r3, .L31+4
 201 011a 1B78     		ldrb	r3, [r3]	@ zero_extendqisi2
 202 011c 13F0FF0F 		tst	r3, #255
 203 0120 33D0     		beq	.L5
 204              		.loc 1 81 0 discriminator 2
ARM GAS  C:\Users\RECEPC~1\AppData\Local\Temp\cc2rtZR1.s 			page 6


 205 0122 694B     		ldr	r3, .L31+12
 206 0124 1B78     		ldrb	r3, [r3]	@ zero_extendqisi2
 207 0126 13F0FF0F 		tst	r3, #255
 208 012a 2ED1     		bne	.L5
  82:.\keyboard.c  ****                         numberKeys1++;  
 209              		.loc 1 82 0 is_stmt 1
 210 012c 644A     		ldr	r2, .L31+4
 211 012e 1378     		ldrb	r3, [r2]	@ zero_extendqisi2
 212 0130 0133     		adds	r3, r3, #1
 213 0132 DBB2     		uxtb	r3, r3
 214 0134 1370     		strb	r3, [r2]
  83:.\keyboard.c  ****                         flagPoint1=1;
 215              		.loc 1 83 0
 216 0136 0121     		movs	r1, #1
 217 0138 634B     		ldr	r3, .L31+12
 218 013a 1970     		strb	r1, [r3]
  84:.\keyboard.c  ****                         bufferDisplay1.valueKeys[numberKeys1]=PressedKey;
 219              		.loc 1 84 0
 220 013c 1378     		ldrb	r3, [r2]	@ zero_extendqisi2
 221 013e 614A     		ldr	r2, .L31+8
 222 0140 1344     		add	r3, r3, r2
 223 0142 83F84B00 		strb	r0, [r3, #75]
  85:.\keyboard.c  ****                         if(character==0){
 224              		.loc 1 85 0
 225 0146 8CB9     		cbnz	r4, .L10
  86:.\keyboard.c  ****                             WriteLCD(1,bufferDisplay1.valueKeys[numberKeys1],3,numberKeys1+2,1,0x00
 226              		.loc 1 86 0
 227 0148 5D4B     		ldr	r3, .L31+4
 228 014a 1A78     		ldrb	r2, [r3]	@ zero_extendqisi2
 229 014c 1B78     		ldrb	r3, [r3]	@ zero_extendqisi2
 230 014e 5D49     		ldr	r1, .L31+8
 231 0150 0A44     		add	r2, r2, r1
 232 0152 92F84B10 		ldrb	r1, [r2, #75]	@ zero_extendqisi2
 233 0156 0120     		movs	r0, #1
 234              	.LVL17:
 235 0158 0090     		str	r0, [sp]
 236 015a 0022     		movs	r2, #0
 237 015c 0192     		str	r2, [sp, #4]
 238 015e 4E22     		movs	r2, #78
 239 0160 0292     		str	r2, [sp, #8]
 240 0162 0322     		movs	r2, #3
 241 0164 0233     		adds	r3, r3, #2
 242 0166 FFF7FEFF 		bl	WriteLCD
 243              	.LVL18:
 244 016a 0EE0     		b	.L5
 245              	.LVL19:
 246              	.L10:
  87:.\keyboard.c  ****                         }else{
  88:.\keyboard.c  ****                             WriteLCD(1,character,3,numberKeys1+2,1,0x0000,'N');
 247              		.loc 1 88 0
 248 016c 544B     		ldr	r3, .L31+4
 249 016e 1B78     		ldrb	r3, [r3]	@ zero_extendqisi2
 250 0170 0120     		movs	r0, #1
 251              	.LVL20:
 252 0172 0090     		str	r0, [sp]
 253 0174 0022     		movs	r2, #0
 254 0176 0192     		str	r2, [sp, #4]
ARM GAS  C:\Users\RECEPC~1\AppData\Local\Temp\cc2rtZR1.s 			page 7


 255 0178 4E22     		movs	r2, #78
 256 017a 0292     		str	r2, [sp, #8]
 257 017c 2146     		mov	r1, r4
 258 017e 0322     		movs	r2, #3
 259 0180 0233     		adds	r3, r3, #2
 260 0182 FFF7FEFF 		bl	WriteLCD
 261              	.LVL21:
 262 0186 00E0     		b	.L5
 263              	.LVL22:
 264              	.L27:
  59:.\keyboard.c  ****     if(lcd==1){
 265              		.loc 1 59 0
 266 0188 0025     		movs	r5, #0
 267              	.LVL23:
 268              	.L5:
  89:.\keyboard.c  ****                         }
  90:.\keyboard.c  ****                     }
  91:.\keyboard.c  ****                 }  
  92:.\keyboard.c  ****                 if(Display1_rxBuffer[3]==0x0B){ //Borrar
 269              		.loc 1 92 0
 270 018a 4C4B     		ldr	r3, .L31
 271 018c DB78     		ldrb	r3, [r3, #3]	@ zero_extendqisi2
 272 018e DBB2     		uxtb	r3, r3
 273 0190 0B2B     		cmp	r3, #11
 274 0192 26D1     		bne	.L11
  93:.\keyboard.c  ****                     if(numberKeys1==0){		//Si no ha presionado nada regresa al menu anterior
 275              		.loc 1 93 0
 276 0194 4A4B     		ldr	r3, .L31+4
 277 0196 1B78     		ldrb	r3, [r3]	@ zero_extendqisi2
 278 0198 03F0FF04 		and	r4, r3, #255
 279 019c 2BB9     		cbnz	r3, .L12
  94:.\keyboard.c  ****                         CyDelay(20);         
 280              		.loc 1 94 0
 281 019e 1420     		movs	r0, #20
 282 01a0 FFF7FEFF 		bl	CyDelay
 283              	.LVL24:
  95:.\keyboard.c  ****                         Display1_ClearRxBuffer();
 284              		.loc 1 95 0
 285 01a4 FFF7FEFF 		bl	Display1_ClearRxBuffer
 286              	.LVL25:
  96:.\keyboard.c  ****                         return 0;
 287              		.loc 1 96 0
 288 01a8 68E1     		b	.L3
 289              	.L12:
  97:.\keyboard.c  ****                     }
  98:.\keyboard.c  ****                     else{
  99:.\keyboard.c  ****                         WriteLCD(1,' ',3,numberKeys1+2,1,0x0000,'N');	//Si ya presiono borra el dat
 290              		.loc 1 99 0
 291 01aa 454C     		ldr	r4, .L31+4
 292 01ac 2378     		ldrb	r3, [r4]	@ zero_extendqisi2
 293 01ae 0120     		movs	r0, #1
 294 01b0 0090     		str	r0, [sp]
 295 01b2 0022     		movs	r2, #0
 296 01b4 0192     		str	r2, [sp, #4]
 297 01b6 4E22     		movs	r2, #78
 298 01b8 0292     		str	r2, [sp, #8]
 299 01ba 2021     		movs	r1, #32
ARM GAS  C:\Users\RECEPC~1\AppData\Local\Temp\cc2rtZR1.s 			page 8


 300 01bc 0322     		movs	r2, #3
 301 01be 0233     		adds	r3, r3, #2
 302 01c0 FFF7FEFF 		bl	WriteLCD
 303              	.LVL26:
 100:.\keyboard.c  ****                         if(bufferDisplay1.valueKeys[numberKeys1]==0x2C){
 304              		.loc 1 100 0
 305 01c4 2378     		ldrb	r3, [r4]	@ zero_extendqisi2
 306 01c6 3F4A     		ldr	r2, .L31+8
 307 01c8 1344     		add	r3, r3, r2
 308 01ca 93F84B30 		ldrb	r3, [r3, #75]	@ zero_extendqisi2
 309 01ce 2C2B     		cmp	r3, #44
 310 01d0 02D1     		bne	.L13
 101:.\keyboard.c  ****                             flagPoint1=0;
 311              		.loc 1 101 0
 312 01d2 0022     		movs	r2, #0
 313 01d4 3C4B     		ldr	r3, .L31+12
 314 01d6 1A70     		strb	r2, [r3]
 315              	.L13:
 102:.\keyboard.c  ****                         }
 103:.\keyboard.c  ****                         numberKeys1--;
 316              		.loc 1 103 0
 317 01d8 394A     		ldr	r2, .L31+4
 318 01da 1378     		ldrb	r3, [r2]	@ zero_extendqisi2
 319 01dc 013B     		subs	r3, r3, #1
 320 01de DBB2     		uxtb	r3, r3
 321 01e0 1370     		strb	r3, [r2]
 322              	.L11:
 104:.\keyboard.c  ****                     }
 105:.\keyboard.c  ****                 }
 106:.\keyboard.c  ****                 if(PressedKey==0x0A){ //Enter
 323              		.loc 1 106 0
 324 01e2 0A2D     		cmp	r5, #10
 325 01e4 10D1     		bne	.L14
 107:.\keyboard.c  ****                     if(numberKeys1>0){
 326              		.loc 1 107 0
 327 01e6 364B     		ldr	r3, .L31+4
 328 01e8 1B78     		ldrb	r3, [r3]	@ zero_extendqisi2
 329 01ea 13F0FF0F 		tst	r3, #255
 330 01ee 0BD0     		beq	.L14
 108:.\keyboard.c  ****                         bufferDisplay1.valueKeys[0]=numberKeys1;
 331              		.loc 1 108 0
 332 01f0 334B     		ldr	r3, .L31+4
 333 01f2 1A78     		ldrb	r2, [r3]	@ zero_extendqisi2
 334 01f4 334B     		ldr	r3, .L31+8
 335 01f6 83F84B20 		strb	r2, [r3, #75]
 109:.\keyboard.c  ****                         CyDelay(20);         
 336              		.loc 1 109 0
 337 01fa 1420     		movs	r0, #20
 338 01fc FFF7FEFF 		bl	CyDelay
 339              	.LVL27:
 110:.\keyboard.c  ****                         Display1_ClearRxBuffer();
 340              		.loc 1 110 0
 341 0200 FFF7FEFF 		bl	Display1_ClearRxBuffer
 342              	.LVL28:
 111:.\keyboard.c  ****                         return 1;
 343              		.loc 1 111 0
 344 0204 0124     		movs	r4, #1
ARM GAS  C:\Users\RECEPC~1\AppData\Local\Temp\cc2rtZR1.s 			page 9


 345 0206 39E1     		b	.L3
 346              	.L14:
 112:.\keyboard.c  ****                     }
 113:.\keyboard.c  ****                 }
 114:.\keyboard.c  ****                 if(Display1_rxBuffer[3]==0x94){ //Atras
 347              		.loc 1 114 0
 348 0208 2C4B     		ldr	r3, .L31
 349 020a DB78     		ldrb	r3, [r3, #3]	@ zero_extendqisi2
 350 020c DBB2     		uxtb	r3, r3
 351 020e 942B     		cmp	r3, #148
 352 0210 06D1     		bne	.L4
 115:.\keyboard.c  ****                     CyDelay(20);         
 353              		.loc 1 115 0
 354 0212 1420     		movs	r0, #20
 355 0214 FFF7FEFF 		bl	CyDelay
 356              	.LVL29:
 116:.\keyboard.c  ****                     Display1_ClearRxBuffer();
 357              		.loc 1 116 0
 358 0218 FFF7FEFF 		bl	Display1_ClearRxBuffer
 359              	.LVL30:
 117:.\keyboard.c  ****                     return 0;
 360              		.loc 1 117 0
 361 021c 0024     		movs	r4, #0
 362 021e 2DE1     		b	.L3
 363              	.LVL31:
 364              	.L4:
 118:.\keyboard.c  ****                 }
 119:.\keyboard.c  ****             } 
 120:.\keyboard.c  ****             CyDelay(20);         
 365              		.loc 1 120 0
 366 0220 1420     		movs	r0, #20
 367 0222 FFF7FEFF 		bl	CyDelay
 368              	.LVL32:
 121:.\keyboard.c  ****             Display1_ClearRxBuffer();
 369              		.loc 1 121 0
 370 0226 FFF7FEFF 		bl	Display1_ClearRxBuffer
 371              	.LVL33:
 122:.\keyboard.c  ****         }
 123:.\keyboard.c  ****     }else{
 124:.\keyboard.c  ****         if(Display2_GetRxBufferSize()==8){
 125:.\keyboard.c  ****             if((Display2_rxBuffer[0]==0xAA) && (Display2_rxBuffer[6]==0xC3) && (Display2_rxBuffer[7
 126:.\keyboard.c  ****                 if(numberKeys2<=(maxNumberKeys-1)){
 127:.\keyboard.c  ****                     PressedKey =UnmapCode(Display2_rxBuffer[3]);
 128:.\keyboard.c  ****                     if(PressedKey>=0x20 && PressedKey<=0x2B){ //Comandos ascii sin incluir coma (,)
 129:.\keyboard.c  ****                         numberKeys2++;  
 130:.\keyboard.c  ****                         bufferDisplay2.valueKeys[numberKeys2]=PressedKey;
 131:.\keyboard.c  ****                         if(character==0){
 132:.\keyboard.c  ****                             WriteLCD(2,bufferDisplay2.valueKeys[numberKeys2],3,numberKeys2+2,1,0x00
 133:.\keyboard.c  ****                         }else{
 134:.\keyboard.c  ****                             WriteLCD(2,character,2,numberKeys2+2,1,0x0000,'N');
 135:.\keyboard.c  ****                         }
 136:.\keyboard.c  ****                     }else if(PressedKey>=0x2D && PressedKey<=0x7E){ //Comandos ascii sin incluir co
 137:.\keyboard.c  ****                         numberKeys2++;  
 138:.\keyboard.c  ****                         bufferDisplay2.valueKeys[numberKeys2]=PressedKey;
 139:.\keyboard.c  ****                         if(character==0){
 140:.\keyboard.c  ****                             WriteLCD(2,bufferDisplay2.valueKeys[numberKeys2],3,numberKeys2+2,1,0x00
 141:.\keyboard.c  ****                         }else{
ARM GAS  C:\Users\RECEPC~1\AppData\Local\Temp\cc2rtZR1.s 			page 10


 142:.\keyboard.c  ****                             WriteLCD(2,character,2,numberKeys2+2,1,0x0000,'N');
 143:.\keyboard.c  ****                         }
 144:.\keyboard.c  ****                     }else if(PressedKey==',' && numberKeys2>=1 && flagPoint2==0){  //Coma (,)
 145:.\keyboard.c  ****                         numberKeys2++;  
 146:.\keyboard.c  ****                         flagPoint2=1;
 147:.\keyboard.c  ****                         bufferDisplay2.valueKeys[numberKeys2]=Display2_rxBuffer[3];
 148:.\keyboard.c  ****                         if(character==0){
 149:.\keyboard.c  ****                             WriteLCD(2,bufferDisplay2.valueKeys[numberKeys2],3,numberKeys2+2,1,0x00
 150:.\keyboard.c  ****                         }else{
 151:.\keyboard.c  ****                             WriteLCD(2,character,2,numberKeys2+2,1,0x0000,'N');
 152:.\keyboard.c  ****                         }
 153:.\keyboard.c  ****                     }
 154:.\keyboard.c  ****                 }
 155:.\keyboard.c  ****                 if(PressedKey==0x0B){ //Borrar
 156:.\keyboard.c  ****                     if(numberKeys2==0){		//Si no ha presionado nada regresa al menu anterior
 157:.\keyboard.c  ****                         CyDelay(20);         
 158:.\keyboard.c  ****                         Display2_ClearRxBuffer();
 159:.\keyboard.c  ****                         return 0;
 160:.\keyboard.c  ****                     }
 161:.\keyboard.c  ****                     else{
 162:.\keyboard.c  ****                         WriteLCD(2,' ',2,numberKeys2+2,1,0x0000,'N');	//Si ya presiono borra el dat
 163:.\keyboard.c  ****                         if(bufferDisplay2.valueKeys[numberKeys2]==0x2C){
 164:.\keyboard.c  ****                             flagPoint2=0;
 165:.\keyboard.c  ****                         }
 166:.\keyboard.c  ****                         numberKeys2--;
 167:.\keyboard.c  ****                     }
 168:.\keyboard.c  ****                 }
 169:.\keyboard.c  ****                 if(PressedKey==0x0A){ //Enter
 170:.\keyboard.c  ****                     if(numberKeys2>0){
 171:.\keyboard.c  ****                         bufferDisplay2.valueKeys[0]=numberKeys2;
 172:.\keyboard.c  ****                         CyDelay(20);         
 173:.\keyboard.c  ****                         Display2_ClearRxBuffer();
 174:.\keyboard.c  ****                         return 1;
 175:.\keyboard.c  ****                     }
 176:.\keyboard.c  ****                 }
 177:.\keyboard.c  ****                 if(Display2_rxBuffer[3]==0x94){ //Atras
 178:.\keyboard.c  ****                     CyDelay(20);         
 179:.\keyboard.c  ****                     Display2_ClearRxBuffer();
 180:.\keyboard.c  ****                     return 0;
 181:.\keyboard.c  ****                 }
 182:.\keyboard.c  ****             } 
 183:.\keyboard.c  ****             CyDelay(20);         
 184:.\keyboard.c  ****             Display2_ClearRxBuffer();
 185:.\keyboard.c  ****         }
 186:.\keyboard.c  ****     }
 187:.\keyboard.c  ****     return 2;
 372              		.loc 1 187 0
 373 022a 0224     		movs	r4, #2
 374 022c 26E1     		b	.L3
 375              	.LVL34:
 376              	.L2:
 124:.\keyboard.c  ****             if((Display2_rxBuffer[0]==0xAA) && (Display2_rxBuffer[6]==0xC3) && (Display2_rxBuffer[7
 377              		.loc 1 124 0
 378 022e FFF7FEFF 		bl	Display2_GetRxBufferSize
 379              	.LVL35:
 380 0232 0828     		cmp	r0, #8
 381 0234 40F02181 		bne	.L28
ARM GAS  C:\Users\RECEPC~1\AppData\Local\Temp\cc2rtZR1.s 			page 11


 125:.\keyboard.c  ****                 if(numberKeys2<=(maxNumberKeys-1)){
 382              		.loc 1 125 0
 383 0238 244B     		ldr	r3, .L31+16
 384 023a 1B78     		ldrb	r3, [r3]	@ zero_extendqisi2
 385 023c DBB2     		uxtb	r3, r3
 386 023e AA2B     		cmp	r3, #170
 387 0240 40F01281 		bne	.L15
 125:.\keyboard.c  ****                 if(numberKeys2<=(maxNumberKeys-1)){
 388              		.loc 1 125 0 is_stmt 0 discriminator 1
 389 0244 214B     		ldr	r3, .L31+16
 390 0246 9B79     		ldrb	r3, [r3, #6]	@ zero_extendqisi2
 391 0248 DBB2     		uxtb	r3, r3
 392 024a C32B     		cmp	r3, #195
 393 024c 40F00C81 		bne	.L15
 125:.\keyboard.c  ****                 if(numberKeys2<=(maxNumberKeys-1)){
 394              		.loc 1 125 0 discriminator 2
 395 0250 1E4B     		ldr	r3, .L31+16
 396 0252 DB79     		ldrb	r3, [r3, #7]	@ zero_extendqisi2
 397 0254 DBB2     		uxtb	r3, r3
 398 0256 3C2B     		cmp	r3, #60
 399 0258 40F00681 		bne	.L15
 126:.\keyboard.c  ****                     PressedKey =UnmapCode(Display2_rxBuffer[3]);
 400              		.loc 1 126 0 is_stmt 1
 401 025c 1C4B     		ldr	r3, .L31+20
 402 025e 1B78     		ldrb	r3, [r3]	@ zero_extendqisi2
 403 0260 DBB2     		uxtb	r3, r3
 404 0262 013D     		subs	r5, r5, #1
 405 0264 AB42     		cmp	r3, r5
 406 0266 00F3B580 		bgt	.L29
 127:.\keyboard.c  ****                     if(PressedKey>=0x20 && PressedKey<=0x2B){ //Comandos ascii sin incluir coma (,)
 407              		.loc 1 127 0
 408 026a 184B     		ldr	r3, .L31+16
 409 026c D878     		ldrb	r0, [r3, #3]	@ zero_extendqisi2
 410 026e FFF7FEFF 		bl	UnmapCode
 411              	.LVL36:
 412 0272 0546     		mov	r5, r0
 413              	.LVL37:
 128:.\keyboard.c  ****                         numberKeys2++;  
 414              		.loc 1 128 0
 415 0274 A0F12003 		sub	r3, r0, #32
 416 0278 DBB2     		uxtb	r3, r3
 417 027a 0B2B     		cmp	r3, #11
 418 027c 3BD8     		bhi	.L17
 129:.\keyboard.c  ****                         bufferDisplay2.valueKeys[numberKeys2]=PressedKey;
 419              		.loc 1 129 0
 420 027e 144A     		ldr	r2, .L31+20
 421 0280 1378     		ldrb	r3, [r2]	@ zero_extendqisi2
 422 0282 0133     		adds	r3, r3, #1
 423 0284 DBB2     		uxtb	r3, r3
 424 0286 1370     		strb	r3, [r2]
 130:.\keyboard.c  ****                         if(character==0){
 425              		.loc 1 130 0
 426 0288 1378     		ldrb	r3, [r2]	@ zero_extendqisi2
 427 028a 124A     		ldr	r2, .L31+24
 428 028c 1344     		add	r3, r3, r2
 429 028e 83F84B00 		strb	r0, [r3, #75]
 131:.\keyboard.c  ****                             WriteLCD(2,bufferDisplay2.valueKeys[numberKeys2],3,numberKeys2+2,1,0x00
ARM GAS  C:\Users\RECEPC~1\AppData\Local\Temp\cc2rtZR1.s 			page 12


 430              		.loc 1 131 0
 431 0292 0CBB     		cbnz	r4, .L18
 132:.\keyboard.c  ****                         }else{
 432              		.loc 1 132 0
 433 0294 0E4B     		ldr	r3, .L31+20
 434 0296 1A78     		ldrb	r2, [r3]	@ zero_extendqisi2
 435 0298 1B78     		ldrb	r3, [r3]	@ zero_extendqisi2
 436 029a 0E49     		ldr	r1, .L31+24
 437 029c 0A44     		add	r2, r2, r1
 438 029e 92F84B10 		ldrb	r1, [r2, #75]	@ zero_extendqisi2
 439 02a2 0122     		movs	r2, #1
 440 02a4 0092     		str	r2, [sp]
 441 02a6 0022     		movs	r2, #0
 442 02a8 0192     		str	r2, [sp, #4]
 443 02aa 4E22     		movs	r2, #78
 444 02ac 0292     		str	r2, [sp, #8]
 445 02ae 0220     		movs	r0, #2
 446              	.LVL38:
 447 02b0 0322     		movs	r2, #3
 448 02b2 0344     		add	r3, r3, r0
 449 02b4 FFF7FEFF 		bl	WriteLCD
 450              	.LVL39:
 451 02b8 8DE0     		b	.L16
 452              	.L32:
 453 02ba 00BF     		.align	2
 454              	.L31:
 455 02bc 00000000 		.word	Display1_rxBuffer
 456 02c0 00000000 		.word	numberKeys1
 457 02c4 00000000 		.word	bufferDisplay1
 458 02c8 00000000 		.word	flagPoint1
 459 02cc 00000000 		.word	Display2_rxBuffer
 460 02d0 00000000 		.word	numberKeys2
 461 02d4 00000000 		.word	bufferDisplay2
 462              	.LVL40:
 463              	.L18:
 134:.\keyboard.c  ****                         }
 464              		.loc 1 134 0
 465 02d8 6A4B     		ldr	r3, .L33
 466 02da 1B78     		ldrb	r3, [r3]	@ zero_extendqisi2
 467 02dc 0122     		movs	r2, #1
 468 02de 0092     		str	r2, [sp]
 469 02e0 0022     		movs	r2, #0
 470 02e2 0192     		str	r2, [sp, #4]
 471 02e4 4E22     		movs	r2, #78
 472 02e6 0292     		str	r2, [sp, #8]
 473 02e8 0220     		movs	r0, #2
 474              	.LVL41:
 475 02ea 2146     		mov	r1, r4
 476 02ec 0246     		mov	r2, r0
 477 02ee 0344     		add	r3, r3, r0
 478 02f0 FFF7FEFF 		bl	WriteLCD
 479              	.LVL42:
 480 02f4 6FE0     		b	.L16
 481              	.LVL43:
 482              	.L17:
 136:.\keyboard.c  ****                         numberKeys2++;  
 483              		.loc 1 136 0
ARM GAS  C:\Users\RECEPC~1\AppData\Local\Temp\cc2rtZR1.s 			page 13


 484 02f6 A0F12D03 		sub	r3, r0, #45
 485 02fa DBB2     		uxtb	r3, r3
 486 02fc 512B     		cmp	r3, #81
 487 02fe 2CD8     		bhi	.L19
 137:.\keyboard.c  ****                         bufferDisplay2.valueKeys[numberKeys2]=PressedKey;
 488              		.loc 1 137 0
 489 0300 604A     		ldr	r2, .L33
 490 0302 1378     		ldrb	r3, [r2]	@ zero_extendqisi2
 491 0304 0133     		adds	r3, r3, #1
 492 0306 DBB2     		uxtb	r3, r3
 493 0308 1370     		strb	r3, [r2]
 138:.\keyboard.c  ****                         if(character==0){
 494              		.loc 1 138 0
 495 030a 1378     		ldrb	r3, [r2]	@ zero_extendqisi2
 496 030c 5E4A     		ldr	r2, .L33+4
 497 030e 1344     		add	r3, r3, r2
 498 0310 83F84B00 		strb	r0, [r3, #75]
 139:.\keyboard.c  ****                             WriteLCD(2,bufferDisplay2.valueKeys[numberKeys2],3,numberKeys2+2,1,0x00
 499              		.loc 1 139 0
 500 0314 94B9     		cbnz	r4, .L20
 140:.\keyboard.c  ****                         }else{
 501              		.loc 1 140 0
 502 0316 5B4B     		ldr	r3, .L33
 503 0318 1A78     		ldrb	r2, [r3]	@ zero_extendqisi2
 504 031a 1B78     		ldrb	r3, [r3]	@ zero_extendqisi2
 505 031c 5A49     		ldr	r1, .L33+4
 506 031e 0A44     		add	r2, r2, r1
 507 0320 92F84B10 		ldrb	r1, [r2, #75]	@ zero_extendqisi2
 508 0324 0122     		movs	r2, #1
 509 0326 0092     		str	r2, [sp]
 510 0328 0022     		movs	r2, #0
 511 032a 0192     		str	r2, [sp, #4]
 512 032c 4E22     		movs	r2, #78
 513 032e 0292     		str	r2, [sp, #8]
 514 0330 0220     		movs	r0, #2
 515              	.LVL44:
 516 0332 0322     		movs	r2, #3
 517 0334 0344     		add	r3, r3, r0
 518 0336 FFF7FEFF 		bl	WriteLCD
 519              	.LVL45:
 520 033a 4CE0     		b	.L16
 521              	.LVL46:
 522              	.L20:
 142:.\keyboard.c  ****                         }
 523              		.loc 1 142 0
 524 033c 514B     		ldr	r3, .L33
 525 033e 1B78     		ldrb	r3, [r3]	@ zero_extendqisi2
 526 0340 0122     		movs	r2, #1
 527 0342 0092     		str	r2, [sp]
 528 0344 0022     		movs	r2, #0
 529 0346 0192     		str	r2, [sp, #4]
 530 0348 4E22     		movs	r2, #78
 531 034a 0292     		str	r2, [sp, #8]
 532 034c 0220     		movs	r0, #2
 533              	.LVL47:
 534 034e 2146     		mov	r1, r4
 535 0350 0246     		mov	r2, r0
ARM GAS  C:\Users\RECEPC~1\AppData\Local\Temp\cc2rtZR1.s 			page 14


 536 0352 0344     		add	r3, r3, r0
 537 0354 FFF7FEFF 		bl	WriteLCD
 538              	.LVL48:
 539 0358 3DE0     		b	.L16
 540              	.LVL49:
 541              	.L19:
 144:.\keyboard.c  ****                         numberKeys2++;  
 542              		.loc 1 144 0
 543 035a 2C28     		cmp	r0, #44
 544 035c 3BD1     		bne	.L16
 144:.\keyboard.c  ****                         numberKeys2++;  
 545              		.loc 1 144 0 is_stmt 0 discriminator 1
 546 035e 494B     		ldr	r3, .L33
 547 0360 1B78     		ldrb	r3, [r3]	@ zero_extendqisi2
 548 0362 13F0FF0F 		tst	r3, #255
 549 0366 36D0     		beq	.L16
 144:.\keyboard.c  ****                         numberKeys2++;  
 550              		.loc 1 144 0 discriminator 2
 551 0368 484B     		ldr	r3, .L33+8
 552 036a 1B78     		ldrb	r3, [r3]	@ zero_extendqisi2
 553 036c 13F0FF0F 		tst	r3, #255
 554 0370 31D1     		bne	.L16
 145:.\keyboard.c  ****                         flagPoint2=1;
 555              		.loc 1 145 0 is_stmt 1
 556 0372 444A     		ldr	r2, .L33
 557 0374 1378     		ldrb	r3, [r2]	@ zero_extendqisi2
 558 0376 0133     		adds	r3, r3, #1
 559 0378 DBB2     		uxtb	r3, r3
 560 037a 1370     		strb	r3, [r2]
 146:.\keyboard.c  ****                         bufferDisplay2.valueKeys[numberKeys2]=Display2_rxBuffer[3];
 561              		.loc 1 146 0
 562 037c 0121     		movs	r1, #1
 563 037e 434B     		ldr	r3, .L33+8
 564 0380 1970     		strb	r1, [r3]
 147:.\keyboard.c  ****                         if(character==0){
 565              		.loc 1 147 0
 566 0382 1378     		ldrb	r3, [r2]	@ zero_extendqisi2
 567 0384 424A     		ldr	r2, .L33+12
 568 0386 D278     		ldrb	r2, [r2, #3]	@ zero_extendqisi2
 569 0388 3F49     		ldr	r1, .L33+4
 570 038a 0B44     		add	r3, r3, r1
 571 038c 83F84B20 		strb	r2, [r3, #75]
 148:.\keyboard.c  ****                             WriteLCD(2,bufferDisplay2.valueKeys[numberKeys2],3,numberKeys2+2,1,0x00
 572              		.loc 1 148 0
 573 0390 8CB9     		cbnz	r4, .L21
 149:.\keyboard.c  ****                         }else{
 574              		.loc 1 149 0
 575 0392 3C4B     		ldr	r3, .L33
 576 0394 1A78     		ldrb	r2, [r3]	@ zero_extendqisi2
 577 0396 1B78     		ldrb	r3, [r3]	@ zero_extendqisi2
 578 0398 0A44     		add	r2, r2, r1
 579 039a 92F84B10 		ldrb	r1, [r2, #75]	@ zero_extendqisi2
 580 039e 0122     		movs	r2, #1
 581 03a0 0092     		str	r2, [sp]
 582 03a2 0022     		movs	r2, #0
 583 03a4 0192     		str	r2, [sp, #4]
 584 03a6 4E22     		movs	r2, #78
ARM GAS  C:\Users\RECEPC~1\AppData\Local\Temp\cc2rtZR1.s 			page 15


 585 03a8 0292     		str	r2, [sp, #8]
 586 03aa 0220     		movs	r0, #2
 587              	.LVL50:
 588 03ac 0322     		movs	r2, #3
 589 03ae 0344     		add	r3, r3, r0
 590 03b0 FFF7FEFF 		bl	WriteLCD
 591              	.LVL51:
 592 03b4 0FE0     		b	.L16
 593              	.LVL52:
 594              	.L21:
 151:.\keyboard.c  ****                         }
 595              		.loc 1 151 0
 596 03b6 334B     		ldr	r3, .L33
 597 03b8 1B78     		ldrb	r3, [r3]	@ zero_extendqisi2
 598 03ba 0122     		movs	r2, #1
 599 03bc 0092     		str	r2, [sp]
 600 03be 0022     		movs	r2, #0
 601 03c0 0192     		str	r2, [sp, #4]
 602 03c2 4E22     		movs	r2, #78
 603 03c4 0292     		str	r2, [sp, #8]
 604 03c6 0220     		movs	r0, #2
 605              	.LVL53:
 606 03c8 2146     		mov	r1, r4
 607 03ca 0246     		mov	r2, r0
 608 03cc 0344     		add	r3, r3, r0
 609 03ce FFF7FEFF 		bl	WriteLCD
 610              	.LVL54:
 611 03d2 00E0     		b	.L16
 612              	.LVL55:
 613              	.L29:
  59:.\keyboard.c  ****     if(lcd==1){
 614              		.loc 1 59 0
 615 03d4 0025     		movs	r5, #0
 616              	.LVL56:
 617              	.L16:
 155:.\keyboard.c  ****                     if(numberKeys2==0){		//Si no ha presionado nada regresa al menu anterior
 618              		.loc 1 155 0
 619 03d6 0B2D     		cmp	r5, #11
 620 03d8 27D1     		bne	.L22
 156:.\keyboard.c  ****                         CyDelay(20);         
 621              		.loc 1 156 0
 622 03da 2A4B     		ldr	r3, .L33
 623 03dc 1B78     		ldrb	r3, [r3]	@ zero_extendqisi2
 624 03de 03F0FF04 		and	r4, r3, #255
 625 03e2 2BB9     		cbnz	r3, .L23
 157:.\keyboard.c  ****                         Display2_ClearRxBuffer();
 626              		.loc 1 157 0
 627 03e4 1420     		movs	r0, #20
 628 03e6 FFF7FEFF 		bl	CyDelay
 629              	.LVL57:
 158:.\keyboard.c  ****                         return 0;
 630              		.loc 1 158 0
 631 03ea FFF7FEFF 		bl	Display2_ClearRxBuffer
 632              	.LVL58:
 159:.\keyboard.c  ****                     }
 633              		.loc 1 159 0
 634 03ee 45E0     		b	.L3
ARM GAS  C:\Users\RECEPC~1\AppData\Local\Temp\cc2rtZR1.s 			page 16


 635              	.L23:
 162:.\keyboard.c  ****                         if(bufferDisplay2.valueKeys[numberKeys2]==0x2C){
 636              		.loc 1 162 0
 637 03f0 244C     		ldr	r4, .L33
 638 03f2 2378     		ldrb	r3, [r4]	@ zero_extendqisi2
 639 03f4 0122     		movs	r2, #1
 640 03f6 0092     		str	r2, [sp]
 641 03f8 0022     		movs	r2, #0
 642 03fa 0192     		str	r2, [sp, #4]
 643 03fc 4E22     		movs	r2, #78
 644 03fe 0292     		str	r2, [sp, #8]
 645 0400 0220     		movs	r0, #2
 646 0402 2021     		movs	r1, #32
 647 0404 0246     		mov	r2, r0
 648 0406 0344     		add	r3, r3, r0
 649 0408 FFF7FEFF 		bl	WriteLCD
 650              	.LVL59:
 163:.\keyboard.c  ****                             flagPoint2=0;
 651              		.loc 1 163 0
 652 040c 2378     		ldrb	r3, [r4]	@ zero_extendqisi2
 653 040e 1E4A     		ldr	r2, .L33+4
 654 0410 1344     		add	r3, r3, r2
 655 0412 93F84B30 		ldrb	r3, [r3, #75]	@ zero_extendqisi2
 656 0416 2C2B     		cmp	r3, #44
 657 0418 02D1     		bne	.L24
 164:.\keyboard.c  ****                         }
 658              		.loc 1 164 0
 659 041a 0022     		movs	r2, #0
 660 041c 1B4B     		ldr	r3, .L33+8
 661 041e 1A70     		strb	r2, [r3]
 662              	.L24:
 166:.\keyboard.c  ****                     }
 663              		.loc 1 166 0
 664 0420 184A     		ldr	r2, .L33
 665 0422 1378     		ldrb	r3, [r2]	@ zero_extendqisi2
 666 0424 013B     		subs	r3, r3, #1
 667 0426 DBB2     		uxtb	r3, r3
 668 0428 1370     		strb	r3, [r2]
 669              	.L22:
 169:.\keyboard.c  ****                     if(numberKeys2>0){
 670              		.loc 1 169 0
 671 042a 0A2D     		cmp	r5, #10
 672 042c 10D1     		bne	.L25
 170:.\keyboard.c  ****                         bufferDisplay2.valueKeys[0]=numberKeys2;
 673              		.loc 1 170 0
 674 042e 154B     		ldr	r3, .L33
 675 0430 1B78     		ldrb	r3, [r3]	@ zero_extendqisi2
 676 0432 13F0FF0F 		tst	r3, #255
 677 0436 0BD0     		beq	.L25
 171:.\keyboard.c  ****                         CyDelay(20);         
 678              		.loc 1 171 0
 679 0438 124B     		ldr	r3, .L33
 680 043a 1A78     		ldrb	r2, [r3]	@ zero_extendqisi2
 681 043c 124B     		ldr	r3, .L33+4
 682 043e 83F84B20 		strb	r2, [r3, #75]
 172:.\keyboard.c  ****                         Display2_ClearRxBuffer();
 683              		.loc 1 172 0
ARM GAS  C:\Users\RECEPC~1\AppData\Local\Temp\cc2rtZR1.s 			page 17


 684 0442 1420     		movs	r0, #20
 685 0444 FFF7FEFF 		bl	CyDelay
 686              	.LVL60:
 173:.\keyboard.c  ****                         return 1;
 687              		.loc 1 173 0
 688 0448 FFF7FEFF 		bl	Display2_ClearRxBuffer
 689              	.LVL61:
 174:.\keyboard.c  ****                     }
 690              		.loc 1 174 0
 691 044c 0124     		movs	r4, #1
 692 044e 15E0     		b	.L3
 693              	.L25:
 177:.\keyboard.c  ****                     CyDelay(20);         
 694              		.loc 1 177 0
 695 0450 0F4B     		ldr	r3, .L33+12
 696 0452 DB78     		ldrb	r3, [r3, #3]	@ zero_extendqisi2
 697 0454 DBB2     		uxtb	r3, r3
 698 0456 942B     		cmp	r3, #148
 699 0458 06D1     		bne	.L15
 178:.\keyboard.c  ****                     Display2_ClearRxBuffer();
 700              		.loc 1 178 0
 701 045a 1420     		movs	r0, #20
 702 045c FFF7FEFF 		bl	CyDelay
 703              	.LVL62:
 179:.\keyboard.c  ****                     return 0;
 704              		.loc 1 179 0
 705 0460 FFF7FEFF 		bl	Display2_ClearRxBuffer
 706              	.LVL63:
 180:.\keyboard.c  ****                 }
 707              		.loc 1 180 0
 708 0464 0024     		movs	r4, #0
 709 0466 09E0     		b	.L3
 710              	.LVL64:
 711              	.L15:
 183:.\keyboard.c  ****             Display2_ClearRxBuffer();
 712              		.loc 1 183 0
 713 0468 1420     		movs	r0, #20
 714 046a FFF7FEFF 		bl	CyDelay
 715              	.LVL65:
 184:.\keyboard.c  ****         }
 716              		.loc 1 184 0
 717 046e FFF7FEFF 		bl	Display2_ClearRxBuffer
 718              	.LVL66:
 719              		.loc 1 187 0
 720 0472 0224     		movs	r4, #2
 721 0474 02E0     		b	.L3
 722              	.LVL67:
 723              	.L26:
 724 0476 0224     		movs	r4, #2
 725 0478 00E0     		b	.L3
 726              	.L28:
 727 047a 0224     		movs	r4, #2
 728              	.LVL68:
 729              	.L3:
 188:.\keyboard.c  **** }...
 730              		.loc 1 188 0
 731 047c 2046     		mov	r0, r4
ARM GAS  C:\Users\RECEPC~1\AppData\Local\Temp\cc2rtZR1.s 			page 18


 732 047e 05B0     		add	sp, sp, #20
 733              		.cfi_def_cfa_offset 12
 734              		@ sp needed
 735 0480 30BD     		pop	{r4, r5, pc}
 736              	.L34:
 737 0482 00BF     		.align	2
 738              	.L33:
 739 0484 00000000 		.word	numberKeys2
 740 0488 00000000 		.word	bufferDisplay2
 741 048c 00000000 		.word	flagPoint2
 742 0490 00000000 		.word	Display2_rxBuffer
 743              		.cfi_endproc
 744              	.LFE63:
 745              		.size	alphanumeric_keyboard, .-alphanumeric_keyboard
 746              		.comm	side,1056,4
 747              		.comm	bufferDisplay4,332,4
 748              		.comm	bufferDisplay3,332,4
 749              		.comm	bufferDisplay2,332,4
 750              		.comm	bufferDisplay1,332,4
 751              		.comm	GradesHose,5,4
 752              		.comm	CopiasCredito,1,1
 753              		.comm	Encabezado4,30,4
 754              		.comm	Encabezado3,30,4
 755              		.comm	Encabezado2,30,4
 756              		.comm	Encabezado1,30,4
 757              		.comm	intIDStation,2,2
 758              		.comm	buffer_txDisplay,512,4
 759              		.comm	buffer_tx,512,4
 760              		.comm	buffer_rf,512,4
 761              		.comm	printPortB,1,1
 762              		.comm	printPortA,1,1
 763              		.comm	pumpGap,3,4
 764              		.comm	idStation,5,4
 765              		.comm	controlChar,1,1
 766              		.comm	configAccess,5,4
 767              		.comm	count_protector2,1,1
 768              		.comm	count_protector,1,1
 769              		.comm	timeDownHandle,2,4
 770              		.comm	dateDownHandle,3,4
 771              		.comm	VolUnit,6,4
 772              		.comm	PrinterType,1,1
 773              		.comm	hiddenKeys,1,1
 774              		.comm	digits,1,1
 775              		.comm	lockTurn,1,1
 776              		.comm	NumPositions,1,1
 777              		.comm	statePump,4,4
 778              		.comm	DDMode,1,1
 779              		.comm	PPUDec,1,1
 780              		.comm	VolDec,1,1
 781              		.comm	MoneyDec,1,1
 782              		.comm	ConversionFactor,1,1
 783              		.comm	UnitType,1,1
 784              		.comm	ShiftState,1,1
 785              		.comm	CGrade,1,1
 786              		.comm	tempPPU,5,4
 787              		.comm	tempPreset,8,4
 788              		.comm	temporal,30,4
ARM GAS  C:\Users\RECEPC~1\AppData\Local\Temp\cc2rtZR1.s 			page 19


 789              		.comm	counterRF,1,1
 790              		.comm	ActiveRF,1,1
 791              		.comm	IDCast,2,4
 792              		.comm	PlateRequest,1,1
 793              		.comm	PrevStatePump,4,4
 794              		.comm	stateBeagleSoft,1,1
 795              		.comm	flagResetMux,1,1
 796              		.comm	passwordSeller,8,4
 797              		.comm	typeIdSeller,1,1
 798              		.comm	idSeller,25,4
 799              		.comm	residue,14,4
 800              		.comm	screen,2,4
 801              		.comm	date,3,4
 802              		.comm	time,3,4
 803              		.comm	symbols,2,4
 804              		.comm	decimalVolume,1,1
 805              		.comm	decimalMoney,1,1
 806              		.comm	ppux10,1,1
 807              		.comm	delayPicture2,4,4
 808              		.comm	delayPicture1,4,4
 809              		.comm	productNumber,1,1
 810              		.comm	flagPoint2,1,1
 811              		.comm	flagPoint1,1,1
 812              		.comm	numberKeys2,1,1
 813              		.comm	numberKeys1,1,1
 814              		.comm	flowDisplay4,4,4
 815              		.comm	flowDisplay3,4,4
 816              		.comm	flowDisplay2,4,4
 817              		.comm	flowDisplay1,4,4
 818              		.comm	countLCD,8,8
 819              		.comm	countPump,8,8
 820              		.comm	countTX,8,8
 821              		.comm	countRX,8,8
 822              		.comm	countAnimation2,8,8
 823              		.comm	countAnimation1,8,8
 824              		.text
 825              	.Letext0:
 826              		.file 2 "c:\\program files (x86)\\cypress\\psoc creator\\3.3\\psoc creator\\import\\gnu\\arm\\4.9.
 827              		.file 3 "c:\\program files (x86)\\cypress\\psoc creator\\3.3\\psoc creator\\import\\gnu\\arm\\4.9.
 828              		.file 4 "Generated_Source\\PSoC5/cytypes.h"
 829              		.file 5 ".\\variables.h"
 830              		.file 6 "Generated_Source\\PSoC5/Display1.h"
 831              		.file 7 "Generated_Source\\PSoC5/Display2.h"
 832              		.file 8 "Generated_Source\\PSoC5/core_cm3.h"
 833              		.file 9 "./LCD.h"
 834              		.file 10 "Generated_Source\\PSoC5/CyLib.h"
 835              		.section	.debug_info,"",%progbits
 836              	.Ldebug_info0:
 837 0000 7B0F0000 		.4byte	0xf7b
 838 0004 0400     		.2byte	0x4
 839 0006 00000000 		.4byte	.Ldebug_abbrev0
 840 000a 04       		.byte	0x4
 841 000b 01       		.uleb128 0x1
 842 000c E6060000 		.4byte	.LASF172
 843 0010 01       		.byte	0x1
 844 0011 8D020000 		.4byte	.LASF173
 845 0015 A4070000 		.4byte	.LASF174
ARM GAS  C:\Users\RECEPC~1\AppData\Local\Temp\cc2rtZR1.s 			page 20


 846 0019 00000000 		.4byte	.Ldebug_ranges0+0
 847 001d 00000000 		.4byte	0
 848 0021 00000000 		.4byte	.Ldebug_line0
 849 0025 02       		.uleb128 0x2
 850 0026 01       		.byte	0x1
 851 0027 06       		.byte	0x6
 852 0028 1E080000 		.4byte	.LASF0
 853 002c 03       		.uleb128 0x3
 854 002d F8050000 		.4byte	.LASF3
 855 0031 02       		.byte	0x2
 856 0032 1D       		.byte	0x1d
 857 0033 37000000 		.4byte	0x37
 858 0037 02       		.uleb128 0x2
 859 0038 01       		.byte	0x1
 860 0039 08       		.byte	0x8
 861 003a D8060000 		.4byte	.LASF1
 862 003e 02       		.uleb128 0x2
 863 003f 02       		.byte	0x2
 864 0040 05       		.byte	0x5
 865 0041 33050000 		.4byte	.LASF2
 866 0045 03       		.uleb128 0x3
 867 0046 17020000 		.4byte	.LASF4
 868 004a 02       		.byte	0x2
 869 004b 2B       		.byte	0x2b
 870 004c 50000000 		.4byte	0x50
 871 0050 02       		.uleb128 0x2
 872 0051 02       		.byte	0x2
 873 0052 07       		.byte	0x7
 874 0053 3A080000 		.4byte	.LASF5
 875 0057 03       		.uleb128 0x3
 876 0058 CF000000 		.4byte	.LASF6
 877 005c 02       		.byte	0x2
 878 005d 3F       		.byte	0x3f
 879 005e 62000000 		.4byte	0x62
 880 0062 02       		.uleb128 0x2
 881 0063 04       		.byte	0x4
 882 0064 05       		.byte	0x5
 883 0065 3D050000 		.4byte	.LASF7
 884 0069 02       		.uleb128 0x2
 885 006a 04       		.byte	0x4
 886 006b 07       		.byte	0x7
 887 006c 90060000 		.4byte	.LASF8
 888 0070 02       		.uleb128 0x2
 889 0071 08       		.byte	0x8
 890 0072 05       		.byte	0x5
 891 0073 CC030000 		.4byte	.LASF9
 892 0077 02       		.uleb128 0x2
 893 0078 08       		.byte	0x8
 894 0079 07       		.byte	0x7
 895 007a D6010000 		.4byte	.LASF10
 896 007e 04       		.uleb128 0x4
 897 007f 04       		.byte	0x4
 898 0080 05       		.byte	0x5
 899 0081 696E7400 		.ascii	"int\000"
 900 0085 02       		.uleb128 0x2
 901 0086 04       		.byte	0x4
 902 0087 07       		.byte	0x7
ARM GAS  C:\Users\RECEPC~1\AppData\Local\Temp\cc2rtZR1.s 			page 21


 903 0088 B6000000 		.4byte	.LASF11
 904 008c 03       		.uleb128 0x3
 905 008d 72030000 		.4byte	.LASF12
 906 0091 03       		.byte	0x3
 907 0092 15       		.byte	0x15
 908 0093 2C000000 		.4byte	0x2c
 909 0097 03       		.uleb128 0x3
 910 0098 B2040000 		.4byte	.LASF13
 911 009c 03       		.byte	0x3
 912 009d 21       		.byte	0x21
 913 009e 45000000 		.4byte	0x45
 914 00a2 03       		.uleb128 0x3
 915 00a3 BE060000 		.4byte	.LASF14
 916 00a7 03       		.byte	0x3
 917 00a8 2C       		.byte	0x2c
 918 00a9 57000000 		.4byte	0x57
 919 00ad 05       		.uleb128 0x5
 920 00ae 75080000 		.4byte	.LASF15
 921 00b2 04       		.byte	0x4
 922 00b3 3801     		.2byte	0x138
 923 00b5 37000000 		.4byte	0x37
 924 00b9 05       		.uleb128 0x5
 925 00ba 66030000 		.4byte	.LASF16
 926 00be 04       		.byte	0x4
 927 00bf 3901     		.2byte	0x139
 928 00c1 50000000 		.4byte	0x50
 929 00c5 05       		.uleb128 0x5
 930 00c6 71040000 		.4byte	.LASF17
 931 00ca 04       		.byte	0x4
 932 00cb 3A01     		.2byte	0x13a
 933 00cd 69000000 		.4byte	0x69
 934 00d1 02       		.uleb128 0x2
 935 00d2 04       		.byte	0x4
 936 00d3 04       		.byte	0x4
 937 00d4 92010000 		.4byte	.LASF18
 938 00d8 02       		.uleb128 0x2
 939 00d9 08       		.byte	0x8
 940 00da 04       		.byte	0x4
 941 00db 7B080000 		.4byte	.LASF19
 942 00df 05       		.uleb128 0x5
 943 00e0 2B060000 		.4byte	.LASF20
 944 00e4 04       		.byte	0x4
 945 00e5 4401     		.2byte	0x144
 946 00e7 77000000 		.4byte	0x77
 947 00eb 05       		.uleb128 0x5
 948 00ec 86030000 		.4byte	.LASF21
 949 00f0 04       		.byte	0x4
 950 00f1 4901     		.2byte	0x149
 951 00f3 F7000000 		.4byte	0xf7
 952 00f7 02       		.uleb128 0x2
 953 00f8 01       		.byte	0x1
 954 00f9 08       		.byte	0x8
 955 00fa 38030000 		.4byte	.LASF22
 956 00fe 06       		.uleb128 0x6
 957 00ff AD000000 		.4byte	0xad
 958 0103 06       		.uleb128 0x6
 959 0104 C5000000 		.4byte	0xc5
ARM GAS  C:\Users\RECEPC~1\AppData\Local\Temp\cc2rtZR1.s 			page 22


 960 0108 02       		.uleb128 0x2
 961 0109 04       		.byte	0x4
 962 010a 07       		.byte	0x7
 963 010b 87060000 		.4byte	.LASF23
 964 010f 07       		.uleb128 0x7
 965 0110 AD000000 		.4byte	0xad
 966 0114 1F010000 		.4byte	0x11f
 967 0118 08       		.uleb128 0x8
 968 0119 08010000 		.4byte	0x108
 969 011d 03       		.byte	0x3
 970 011e 00       		.byte	0
 971 011f 09       		.uleb128 0x9
 972 0120 76000000 		.4byte	.LASF66
 973 0124 4C01     		.2byte	0x14c
 974 0126 05       		.byte	0x5
 975 0127 7B       		.byte	0x7b
 976 0128 33030000 		.4byte	0x333
 977 012c 0A       		.uleb128 0xa
 978 012d FB000000 		.4byte	.LASF24
 979 0131 05       		.byte	0x5
 980 0132 7C       		.byte	0x7c
 981 0133 AD000000 		.4byte	0xad
 982 0137 00       		.byte	0
 983 0138 0A       		.uleb128 0xa
 984 0139 67020000 		.4byte	.LASF25
 985 013d 05       		.byte	0x5
 986 013e 7D       		.byte	0x7d
 987 013f 33030000 		.4byte	0x333
 988 0143 01       		.byte	0x1
 989 0144 0A       		.uleb128 0xa
 990 0145 82080000 		.4byte	.LASF26
 991 0149 05       		.byte	0x5
 992 014a 7E       		.byte	0x7e
 993 014b AD000000 		.4byte	0xad
 994 014f 1A       		.byte	0x1a
 995 0150 0A       		.uleb128 0xa
 996 0151 C6060000 		.4byte	.LASF27
 997 0155 05       		.byte	0x5
 998 0156 7F       		.byte	0x7f
 999 0157 AD000000 		.4byte	0xad
 1000 015b 1B       		.byte	0x1b
 1001 015c 0A       		.uleb128 0xa
 1002 015d 18010000 		.4byte	.LASF28
 1003 0161 05       		.byte	0x5
 1004 0162 80       		.byte	0x80
 1005 0163 43030000 		.4byte	0x343
 1006 0167 1C       		.byte	0x1c
 1007 0168 0A       		.uleb128 0xa
 1008 0169 F1040000 		.4byte	.LASF29
 1009 016d 05       		.byte	0x5
 1010 016e 81       		.byte	0x81
 1011 016f 43030000 		.4byte	0x343
 1012 0173 26       		.byte	0x26
 1013 0174 0A       		.uleb128 0xa
 1014 0175 C5080000 		.4byte	.LASF30
 1015 0179 05       		.byte	0x5
 1016 017a 82       		.byte	0x82
ARM GAS  C:\Users\RECEPC~1\AppData\Local\Temp\cc2rtZR1.s 			page 23


 1017 017b 33030000 		.4byte	0x333
 1018 017f 30       		.byte	0x30
 1019 0180 0A       		.uleb128 0xa
 1020 0181 BB040000 		.4byte	.LASF31
 1021 0185 05       		.byte	0x5
 1022 0186 83       		.byte	0x83
 1023 0187 AD000000 		.4byte	0xad
 1024 018b 49       		.byte	0x49
 1025 018c 0A       		.uleb128 0xa
 1026 018d 8D070000 		.4byte	.LASF32
 1027 0191 05       		.byte	0x5
 1028 0192 84       		.byte	0x84
 1029 0193 AD000000 		.4byte	0xad
 1030 0197 4A       		.byte	0x4a
 1031 0198 0A       		.uleb128 0xa
 1032 0199 2E030000 		.4byte	.LASF33
 1033 019d 05       		.byte	0x5
 1034 019e 85       		.byte	0x85
 1035 019f 53030000 		.4byte	0x353
 1036 01a3 4B       		.byte	0x4b
 1037 01a4 0A       		.uleb128 0xa
 1038 01a5 58040000 		.4byte	.LASF34
 1039 01a9 05       		.byte	0x5
 1040 01aa 86       		.byte	0x86
 1041 01ab AD000000 		.4byte	0xad
 1042 01af 60       		.byte	0x60
 1043 01b0 0A       		.uleb128 0xa
 1044 01b1 25030000 		.4byte	.LASF35
 1045 01b5 05       		.byte	0x5
 1046 01b6 87       		.byte	0x87
 1047 01b7 AD000000 		.4byte	0xad
 1048 01bb 61       		.byte	0x61
 1049 01bc 0A       		.uleb128 0xa
 1050 01bd AA000000 		.4byte	.LASF36
 1051 01c1 05       		.byte	0x5
 1052 01c2 88       		.byte	0x88
 1053 01c3 AD000000 		.4byte	0xad
 1054 01c7 62       		.byte	0x62
 1055 01c8 0A       		.uleb128 0xa
 1056 01c9 FA070000 		.4byte	.LASF37
 1057 01cd 05       		.byte	0x5
 1058 01ce 89       		.byte	0x89
 1059 01cf 63030000 		.4byte	0x363
 1060 01d3 63       		.byte	0x63
 1061 01d4 0A       		.uleb128 0xa
 1062 01d5 0E030000 		.4byte	.LASF38
 1063 01d9 05       		.byte	0x5
 1064 01da 8A       		.byte	0x8a
 1065 01db 73030000 		.4byte	0x373
 1066 01df 65       		.byte	0x65
 1067 01e0 0A       		.uleb128 0xa
 1068 01e1 44020000 		.4byte	.LASF39
 1069 01e5 05       		.byte	0x5
 1070 01e6 8B       		.byte	0x8b
 1071 01e7 AD000000 		.4byte	0xad
 1072 01eb 79       		.byte	0x79
 1073 01ec 0A       		.uleb128 0xa
ARM GAS  C:\Users\RECEPC~1\AppData\Local\Temp\cc2rtZR1.s 			page 24


 1074 01ed 4E060000 		.4byte	.LASF40
 1075 01f1 05       		.byte	0x5
 1076 01f2 8C       		.byte	0x8c
 1077 01f3 89030000 		.4byte	0x389
 1078 01f7 7A       		.byte	0x7a
 1079 01f8 0A       		.uleb128 0xa
 1080 01f9 B3050000 		.4byte	.LASF41
 1081 01fd 05       		.byte	0x5
 1082 01fe 8D       		.byte	0x8d
 1083 01ff 99030000 		.4byte	0x399
 1084 0203 7F       		.byte	0x7f
 1085 0204 0A       		.uleb128 0xa
 1086 0205 A8080000 		.4byte	.LASF42
 1087 0209 05       		.byte	0x5
 1088 020a 8E       		.byte	0x8e
 1089 020b 99030000 		.4byte	0x399
 1090 020f 85       		.byte	0x85
 1091 0210 0A       		.uleb128 0xa
 1092 0211 D3040000 		.4byte	.LASF43
 1093 0215 05       		.byte	0x5
 1094 0216 8F       		.byte	0x8f
 1095 0217 A9030000 		.4byte	0x3a9
 1096 021b 8B       		.byte	0x8b
 1097 021c 0A       		.uleb128 0xa
 1098 021d F6010000 		.4byte	.LASF44
 1099 0221 05       		.byte	0x5
 1100 0222 90       		.byte	0x90
 1101 0223 A9030000 		.4byte	0x3a9
 1102 0227 99       		.byte	0x99
 1103 0228 0A       		.uleb128 0xa
 1104 0229 28040000 		.4byte	.LASF45
 1105 022d 05       		.byte	0x5
 1106 022e 91       		.byte	0x91
 1107 022f A9030000 		.4byte	0x3a9
 1108 0233 A7       		.byte	0xa7
 1109 0234 0A       		.uleb128 0xa
 1110 0235 95030000 		.4byte	.LASF46
 1111 0239 05       		.byte	0x5
 1112 023a 92       		.byte	0x92
 1113 023b A9030000 		.4byte	0x3a9
 1114 023f B5       		.byte	0xb5
 1115 0240 0A       		.uleb128 0xa
 1116 0241 11060000 		.4byte	.LASF47
 1117 0245 05       		.byte	0x5
 1118 0246 93       		.byte	0x93
 1119 0247 A9030000 		.4byte	0x3a9
 1120 024b C3       		.byte	0xc3
 1121 024c 0A       		.uleb128 0xa
 1122 024d A4040000 		.4byte	.LASF48
 1123 0251 05       		.byte	0x5
 1124 0252 94       		.byte	0x94
 1125 0253 A9030000 		.4byte	0x3a9
 1126 0257 D1       		.byte	0xd1
 1127 0258 0A       		.uleb128 0xa
 1128 0259 1A050000 		.4byte	.LASF49
 1129 025d 05       		.byte	0x5
 1130 025e 95       		.byte	0x95
ARM GAS  C:\Users\RECEPC~1\AppData\Local\Temp\cc2rtZR1.s 			page 25


 1131 025f B9030000 		.4byte	0x3b9
 1132 0263 DF       		.byte	0xdf
 1133 0264 0A       		.uleb128 0xa
 1134 0265 9A020000 		.4byte	.LASF50
 1135 0269 05       		.byte	0x5
 1136 026a 96       		.byte	0x96
 1137 026b B9030000 		.4byte	0x3b9
 1138 026f EA       		.byte	0xea
 1139 0270 0A       		.uleb128 0xa
 1140 0271 1A030000 		.4byte	.LASF51
 1141 0275 05       		.byte	0x5
 1142 0276 97       		.byte	0x97
 1143 0277 B9030000 		.4byte	0x3b9
 1144 027b F5       		.byte	0xf5
 1145 027c 0B       		.uleb128 0xb
 1146 027d 64040000 		.4byte	.LASF52
 1147 0281 05       		.byte	0x5
 1148 0282 98       		.byte	0x98
 1149 0283 AD000000 		.4byte	0xad
 1150 0287 0001     		.2byte	0x100
 1151 0289 0B       		.uleb128 0xb
 1152 028a 7A030000 		.4byte	.LASF53
 1153 028e 05       		.byte	0x5
 1154 028f 99       		.byte	0x99
 1155 0290 AD000000 		.4byte	0xad
 1156 0294 0101     		.2byte	0x101
 1157 0296 0B       		.uleb128 0xb
 1158 0297 D9000000 		.4byte	.LASF54
 1159 029b 05       		.byte	0x5
 1160 029c 9A       		.byte	0x9a
 1161 029d AD000000 		.4byte	0xad
 1162 02a1 0201     		.2byte	0x102
 1163 02a3 0B       		.uleb128 0xb
 1164 02a4 A7050000 		.4byte	.LASF55
 1165 02a8 05       		.byte	0x5
 1166 02a9 9B       		.byte	0x9b
 1167 02aa AD000000 		.4byte	0xad
 1168 02ae 0301     		.2byte	0x103
 1169 02b0 0B       		.uleb128 0xb
 1170 02b1 A5030000 		.4byte	.LASF56
 1171 02b5 05       		.byte	0x5
 1172 02b6 9C       		.byte	0x9c
 1173 02b7 43030000 		.4byte	0x343
 1174 02bb 0401     		.2byte	0x104
 1175 02bd 0B       		.uleb128 0xb
 1176 02be 60000000 		.4byte	.LASF57
 1177 02c2 05       		.byte	0x5
 1178 02c3 9D       		.byte	0x9d
 1179 02c4 43030000 		.4byte	0x343
 1180 02c8 0E01     		.2byte	0x10e
 1181 02ca 0B       		.uleb128 0xb
 1182 02cb 8C030000 		.4byte	.LASF58
 1183 02cf 05       		.byte	0x5
 1184 02d0 9E       		.byte	0x9e
 1185 02d1 43030000 		.4byte	0x343
 1186 02d5 1801     		.2byte	0x118
 1187 02d7 0B       		.uleb128 0xb
ARM GAS  C:\Users\RECEPC~1\AppData\Local\Temp\cc2rtZR1.s 			page 26


 1188 02d8 26050000 		.4byte	.LASF59
 1189 02dc 05       		.byte	0x5
 1190 02dd 9F       		.byte	0x9f
 1191 02de C9030000 		.4byte	0x3c9
 1192 02e2 2201     		.2byte	0x122
 1193 02e4 0B       		.uleb128 0xb
 1194 02e5 B0030000 		.4byte	.LASF60
 1195 02e9 05       		.byte	0x5
 1196 02ea A0       		.byte	0xa0
 1197 02eb 63030000 		.4byte	0x363
 1198 02ef 3101     		.2byte	0x131
 1199 02f1 0B       		.uleb128 0xb
 1200 02f2 A6020000 		.4byte	.LASF61
 1201 02f6 05       		.byte	0x5
 1202 02f7 A1       		.byte	0xa1
 1203 02f8 AD000000 		.4byte	0xad
 1204 02fc 3301     		.2byte	0x133
 1205 02fe 0B       		.uleb128 0xb
 1206 02ff B4060000 		.4byte	.LASF62
 1207 0303 05       		.byte	0x5
 1208 0304 A2       		.byte	0xa2
 1209 0305 AD000000 		.4byte	0xad
 1210 0309 3401     		.2byte	0x134
 1211 030b 0B       		.uleb128 0xb
 1212 030c BE020000 		.4byte	.LASF63
 1213 0310 05       		.byte	0x5
 1214 0311 A3       		.byte	0xa3
 1215 0312 AD000000 		.4byte	0xad
 1216 0316 3501     		.2byte	0x135
 1217 0318 0B       		.uleb128 0xb
 1218 0319 7B050000 		.4byte	.LASF64
 1219 031d 05       		.byte	0x5
 1220 031e A4       		.byte	0xa4
 1221 031f B9030000 		.4byte	0x3b9
 1222 0323 3601     		.2byte	0x136
 1223 0325 0B       		.uleb128 0xb
 1224 0326 10080000 		.4byte	.LASF65
 1225 032a 05       		.byte	0x5
 1226 032b A5       		.byte	0xa5
 1227 032c B9030000 		.4byte	0x3b9
 1228 0330 4101     		.2byte	0x141
 1229 0332 00       		.byte	0
 1230 0333 07       		.uleb128 0x7
 1231 0334 AD000000 		.4byte	0xad
 1232 0338 43030000 		.4byte	0x343
 1233 033c 08       		.uleb128 0x8
 1234 033d 08010000 		.4byte	0x108
 1235 0341 18       		.byte	0x18
 1236 0342 00       		.byte	0
 1237 0343 07       		.uleb128 0x7
 1238 0344 AD000000 		.4byte	0xad
 1239 0348 53030000 		.4byte	0x353
 1240 034c 08       		.uleb128 0x8
 1241 034d 08010000 		.4byte	0x108
 1242 0351 09       		.byte	0x9
 1243 0352 00       		.byte	0
 1244 0353 07       		.uleb128 0x7
ARM GAS  C:\Users\RECEPC~1\AppData\Local\Temp\cc2rtZR1.s 			page 27


 1245 0354 AD000000 		.4byte	0xad
 1246 0358 63030000 		.4byte	0x363
 1247 035c 08       		.uleb128 0x8
 1248 035d 08010000 		.4byte	0x108
 1249 0361 14       		.byte	0x14
 1250 0362 00       		.byte	0
 1251 0363 07       		.uleb128 0x7
 1252 0364 AD000000 		.4byte	0xad
 1253 0368 73030000 		.4byte	0x373
 1254 036c 08       		.uleb128 0x8
 1255 036d 08010000 		.4byte	0x108
 1256 0371 01       		.byte	0x1
 1257 0372 00       		.byte	0
 1258 0373 07       		.uleb128 0x7
 1259 0374 AD000000 		.4byte	0xad
 1260 0378 89030000 		.4byte	0x389
 1261 037c 08       		.uleb128 0x8
 1262 037d 08010000 		.4byte	0x108
 1263 0381 01       		.byte	0x1
 1264 0382 08       		.uleb128 0x8
 1265 0383 08010000 		.4byte	0x108
 1266 0387 09       		.byte	0x9
 1267 0388 00       		.byte	0
 1268 0389 07       		.uleb128 0x7
 1269 038a AD000000 		.4byte	0xad
 1270 038e 99030000 		.4byte	0x399
 1271 0392 08       		.uleb128 0x8
 1272 0393 08010000 		.4byte	0x108
 1273 0397 04       		.byte	0x4
 1274 0398 00       		.byte	0
 1275 0399 07       		.uleb128 0x7
 1276 039a AD000000 		.4byte	0xad
 1277 039e A9030000 		.4byte	0x3a9
 1278 03a2 08       		.uleb128 0x8
 1279 03a3 08010000 		.4byte	0x108
 1280 03a7 05       		.byte	0x5
 1281 03a8 00       		.byte	0
 1282 03a9 07       		.uleb128 0x7
 1283 03aa AD000000 		.4byte	0xad
 1284 03ae B9030000 		.4byte	0x3b9
 1285 03b2 08       		.uleb128 0x8
 1286 03b3 08010000 		.4byte	0x108
 1287 03b7 0D       		.byte	0xd
 1288 03b8 00       		.byte	0
 1289 03b9 07       		.uleb128 0x7
 1290 03ba AD000000 		.4byte	0xad
 1291 03be C9030000 		.4byte	0x3c9
 1292 03c2 08       		.uleb128 0x8
 1293 03c3 08010000 		.4byte	0x108
 1294 03c7 0A       		.byte	0xa
 1295 03c8 00       		.byte	0
 1296 03c9 07       		.uleb128 0x7
 1297 03ca AD000000 		.4byte	0xad
 1298 03ce D9030000 		.4byte	0x3d9
 1299 03d2 08       		.uleb128 0x8
 1300 03d3 08010000 		.4byte	0x108
 1301 03d7 0E       		.byte	0xe
ARM GAS  C:\Users\RECEPC~1\AppData\Local\Temp\cc2rtZR1.s 			page 28


 1302 03d8 00       		.byte	0
 1303 03d9 09       		.uleb128 0x9
 1304 03da D8080000 		.4byte	.LASF67
 1305 03de 0801     		.2byte	0x108
 1306 03e0 05       		.byte	0x5
 1307 03e1 B6       		.byte	0xb6
 1308 03e2 A3040000 		.4byte	0x4a3
 1309 03e6 0C       		.uleb128 0xc
 1310 03e7 64697200 		.ascii	"dir\000"
 1311 03eb 05       		.byte	0x5
 1312 03ec B7       		.byte	0xb7
 1313 03ed AD000000 		.4byte	0xad
 1314 03f1 00       		.byte	0
 1315 03f2 0A       		.uleb128 0xa
 1316 03f3 01030000 		.4byte	.LASF68
 1317 03f7 05       		.byte	0x5
 1318 03f8 B8       		.byte	0xb8
 1319 03f9 A3040000 		.4byte	0x4a3
 1320 03fd 01       		.byte	0x1
 1321 03fe 0A       		.uleb128 0xa
 1322 03ff B7080000 		.4byte	.LASF69
 1323 0403 05       		.byte	0x5
 1324 0404 B9       		.byte	0xb9
 1325 0405 BF040000 		.4byte	0x4bf
 1326 0409 B5       		.byte	0xb5
 1327 040a 0A       		.uleb128 0xa
 1328 040b C2030000 		.4byte	.LASF70
 1329 040f 05       		.byte	0x5
 1330 0410 BA       		.byte	0xba
 1331 0411 A9030000 		.4byte	0x3a9
 1332 0415 D5       		.byte	0xd5
 1333 0416 0A       		.uleb128 0xa
 1334 0417 05080000 		.4byte	.LASF71
 1335 041b 05       		.byte	0x5
 1336 041c BB       		.byte	0xbb
 1337 041d A9030000 		.4byte	0x3a9
 1338 0421 E3       		.byte	0xe3
 1339 0422 0A       		.uleb128 0xa
 1340 0423 DA030000 		.4byte	.LASF72
 1341 0427 05       		.byte	0x5
 1342 0428 BC       		.byte	0xbc
 1343 0429 A9030000 		.4byte	0x3a9
 1344 042d F1       		.byte	0xf1
 1345 042e 0A       		.uleb128 0xa
 1346 042f 69080000 		.4byte	.LASF73
 1347 0433 05       		.byte	0x5
 1348 0434 BD       		.byte	0xbd
 1349 0435 AD000000 		.4byte	0xad
 1350 0439 FF       		.byte	0xff
 1351 043a 0B       		.uleb128 0xb
 1352 043b A9060000 		.4byte	.LASF74
 1353 043f 05       		.byte	0x5
 1354 0440 BE       		.byte	0xbe
 1355 0441 AD000000 		.4byte	0xad
 1356 0445 0001     		.2byte	0x100
 1357 0447 0B       		.uleb128 0xb
 1358 0448 C2010000 		.4byte	.LASF75
ARM GAS  C:\Users\RECEPC~1\AppData\Local\Temp\cc2rtZR1.s 			page 29


 1359 044c 05       		.byte	0x5
 1360 044d BF       		.byte	0xbf
 1361 044e AD000000 		.4byte	0xad
 1362 0452 0101     		.2byte	0x101
 1363 0454 0B       		.uleb128 0xb
 1364 0455 C2050000 		.4byte	.LASF76
 1365 0459 05       		.byte	0x5
 1366 045a C0       		.byte	0xc0
 1367 045b AD000000 		.4byte	0xad
 1368 045f 0201     		.2byte	0x102
 1369 0461 0B       		.uleb128 0xb
 1370 0462 F1080000 		.4byte	.LASF77
 1371 0466 05       		.byte	0x5
 1372 0467 C1       		.byte	0xc1
 1373 0468 AD000000 		.4byte	0xad
 1374 046c 0301     		.2byte	0x103
 1375 046e 0B       		.uleb128 0xb
 1376 046f 40000000 		.4byte	.LASF78
 1377 0473 05       		.byte	0x5
 1378 0474 C2       		.byte	0xc2
 1379 0475 AD000000 		.4byte	0xad
 1380 0479 0401     		.2byte	0x104
 1381 047b 0B       		.uleb128 0xb
 1382 047c 54010000 		.4byte	.LASF79
 1383 0480 05       		.byte	0x5
 1384 0481 C3       		.byte	0xc3
 1385 0482 AD000000 		.4byte	0xad
 1386 0486 0501     		.2byte	0x105
 1387 0488 0B       		.uleb128 0xb
 1388 0489 A2080000 		.4byte	.LASF80
 1389 048d 05       		.byte	0x5
 1390 048e C4       		.byte	0xc4
 1391 048f AD000000 		.4byte	0xad
 1392 0493 0601     		.2byte	0x106
 1393 0495 0B       		.uleb128 0xb
 1394 0496 52000000 		.4byte	.LASF81
 1395 049a 05       		.byte	0x5
 1396 049b C5       		.byte	0xc5
 1397 049c AD000000 		.4byte	0xad
 1398 04a0 0701     		.2byte	0x107
 1399 04a2 00       		.byte	0
 1400 04a3 07       		.uleb128 0x7
 1401 04a4 AD000000 		.4byte	0xad
 1402 04a8 BF040000 		.4byte	0x4bf
 1403 04ac 08       		.uleb128 0x8
 1404 04ad 08010000 		.4byte	0x108
 1405 04b1 03       		.byte	0x3
 1406 04b2 08       		.uleb128 0x8
 1407 04b3 08010000 		.4byte	0x108
 1408 04b7 02       		.byte	0x2
 1409 04b8 08       		.uleb128 0x8
 1410 04b9 08010000 		.4byte	0x108
 1411 04bd 0E       		.byte	0xe
 1412 04be 00       		.byte	0
 1413 04bf 07       		.uleb128 0x7
 1414 04c0 AD000000 		.4byte	0xad
 1415 04c4 D5040000 		.4byte	0x4d5
ARM GAS  C:\Users\RECEPC~1\AppData\Local\Temp\cc2rtZR1.s 			page 30


 1416 04c8 08       		.uleb128 0x8
 1417 04c9 08010000 		.4byte	0x108
 1418 04cd 03       		.byte	0x3
 1419 04ce 08       		.uleb128 0x8
 1420 04cf 08010000 		.4byte	0x108
 1421 04d3 07       		.byte	0x7
 1422 04d4 00       		.byte	0
 1423 04d5 09       		.uleb128 0x9
 1424 04d6 9F070000 		.4byte	.LASF82
 1425 04da 2004     		.2byte	0x420
 1426 04dc 05       		.byte	0x5
 1427 04dd C8       		.byte	0xc8
 1428 04de 0E050000 		.4byte	0x50e
 1429 04e2 0C       		.uleb128 0xc
 1430 04e3 6100     		.ascii	"a\000"
 1431 04e5 05       		.byte	0x5
 1432 04e6 C9       		.byte	0xc9
 1433 04e7 D9030000 		.4byte	0x3d9
 1434 04eb 00       		.byte	0
 1435 04ec 0D       		.uleb128 0xd
 1436 04ed 6200     		.ascii	"b\000"
 1437 04ef 05       		.byte	0x5
 1438 04f0 CA       		.byte	0xca
 1439 04f1 D9030000 		.4byte	0x3d9
 1440 04f5 0801     		.2byte	0x108
 1441 04f7 0D       		.uleb128 0xd
 1442 04f8 6300     		.ascii	"c\000"
 1443 04fa 05       		.byte	0x5
 1444 04fb CB       		.byte	0xcb
 1445 04fc D9030000 		.4byte	0x3d9
 1446 0500 1002     		.2byte	0x210
 1447 0502 0D       		.uleb128 0xd
 1448 0503 6400     		.ascii	"d\000"
 1449 0505 05       		.byte	0x5
 1450 0506 CC       		.byte	0xcc
 1451 0507 D9030000 		.4byte	0x3d9
 1452 050b 1803     		.2byte	0x318
 1453 050d 00       		.byte	0
 1454 050e 0E       		.uleb128 0xe
 1455 050f 7D000000 		.4byte	.LASF175
 1456 0513 01       		.byte	0x1
 1457 0514 3A       		.byte	0x3a
 1458 0515 AD000000 		.4byte	0xad
 1459 0519 00000000 		.4byte	.LFB63
 1460 051d 94040000 		.4byte	.LFE63-.LFB63
 1461 0521 01       		.uleb128 0x1
 1462 0522 9C       		.byte	0x9c
 1463 0523 F2080000 		.4byte	0x8f2
 1464 0527 0F       		.uleb128 0xf
 1465 0528 6C636400 		.ascii	"lcd\000"
 1466 052c 01       		.byte	0x1
 1467 052d 3A       		.byte	0x3a
 1468 052e AD000000 		.4byte	0xad
 1469 0532 00000000 		.4byte	.LLST0
 1470 0536 10       		.uleb128 0x10
 1471 0537 85040000 		.4byte	.LASF83
 1472 053b 01       		.byte	0x1
ARM GAS  C:\Users\RECEPC~1\AppData\Local\Temp\cc2rtZR1.s 			page 31


 1473 053c 3A       		.byte	0x3a
 1474 053d AD000000 		.4byte	0xad
 1475 0541 3A000000 		.4byte	.LLST1
 1476 0545 10       		.uleb128 0x10
 1477 0546 B4020000 		.4byte	.LASF84
 1478 054a 01       		.byte	0x1
 1479 054b 3A       		.byte	0x3a
 1480 054c AD000000 		.4byte	0xad
 1481 0550 74000000 		.4byte	.LLST2
 1482 0554 11       		.uleb128 0x11
 1483 0555 79020000 		.4byte	.LASF176
 1484 0559 01       		.byte	0x1
 1485 055a 3B       		.byte	0x3b
 1486 055b EB000000 		.4byte	0xeb
 1487 055f AE000000 		.4byte	.LLST3
 1488 0563 12       		.uleb128 0x12
 1489 0564 12000000 		.4byte	.LVL2
 1490 0568 050F0000 		.4byte	0xf05
 1491 056c 12       		.uleb128 0x12
 1492 056d 52000000 		.4byte	.LVL3
 1493 0571 100F0000 		.4byte	0xf10
 1494 0575 13       		.uleb128 0x13
 1495 0576 96000000 		.4byte	.LVL6
 1496 057a 250F0000 		.4byte	0xf25
 1497 057e A0050000 		.4byte	0x5a0
 1498 0582 14       		.uleb128 0x14
 1499 0583 01       		.uleb128 0x1
 1500 0584 52       		.byte	0x52
 1501 0585 01       		.uleb128 0x1
 1502 0586 33       		.byte	0x33
 1503 0587 14       		.uleb128 0x14
 1504 0588 01       		.uleb128 0x1
 1505 0589 50       		.byte	0x50
 1506 058a 01       		.uleb128 0x1
 1507 058b 31       		.byte	0x31
 1508 058c 14       		.uleb128 0x14
 1509 058d 02       		.uleb128 0x2
 1510 058e 7D       		.byte	0x7d
 1511 058f 08       		.sleb128 8
 1512 0590 02       		.uleb128 0x2
 1513 0591 08       		.byte	0x8
 1514 0592 4E       		.byte	0x4e
 1515 0593 14       		.uleb128 0x14
 1516 0594 02       		.uleb128 0x2
 1517 0595 7D       		.byte	0x7d
 1518 0596 04       		.sleb128 4
 1519 0597 01       		.uleb128 0x1
 1520 0598 30       		.byte	0x30
 1521 0599 14       		.uleb128 0x14
 1522 059a 02       		.uleb128 0x2
 1523 059b 7D       		.byte	0x7d
 1524 059c 00       		.sleb128 0
 1525 059d 01       		.uleb128 0x1
 1526 059e 31       		.byte	0x31
 1527 059f 00       		.byte	0
 1528 05a0 13       		.uleb128 0x13
 1529 05a1 B2000000 		.4byte	.LVL9
ARM GAS  C:\Users\RECEPC~1\AppData\Local\Temp\cc2rtZR1.s 			page 32


 1530 05a5 250F0000 		.4byte	0xf25
 1531 05a9 D1050000 		.4byte	0x5d1
 1532 05ad 14       		.uleb128 0x14
 1533 05ae 01       		.uleb128 0x1
 1534 05af 52       		.byte	0x52
 1535 05b0 01       		.uleb128 0x1
 1536 05b1 33       		.byte	0x33
 1537 05b2 14       		.uleb128 0x14
 1538 05b3 01       		.uleb128 0x1
 1539 05b4 51       		.byte	0x51
 1540 05b5 02       		.uleb128 0x2
 1541 05b6 74       		.byte	0x74
 1542 05b7 00       		.sleb128 0
 1543 05b8 14       		.uleb128 0x14
 1544 05b9 01       		.uleb128 0x1
 1545 05ba 50       		.byte	0x50
 1546 05bb 01       		.uleb128 0x1
 1547 05bc 31       		.byte	0x31
 1548 05bd 14       		.uleb128 0x14
 1549 05be 02       		.uleb128 0x2
 1550 05bf 7D       		.byte	0x7d
 1551 05c0 08       		.sleb128 8
 1552 05c1 02       		.uleb128 0x2
 1553 05c2 08       		.byte	0x8
 1554 05c3 4E       		.byte	0x4e
 1555 05c4 14       		.uleb128 0x14
 1556 05c5 02       		.uleb128 0x2
 1557 05c6 7D       		.byte	0x7d
 1558 05c7 04       		.sleb128 4
 1559 05c8 01       		.uleb128 0x1
 1560 05c9 30       		.byte	0x30
 1561 05ca 14       		.uleb128 0x14
 1562 05cb 02       		.uleb128 0x2
 1563 05cc 7D       		.byte	0x7d
 1564 05cd 00       		.sleb128 0
 1565 05ce 01       		.uleb128 0x1
 1566 05cf 31       		.byte	0x31
 1567 05d0 00       		.byte	0
 1568 05d1 13       		.uleb128 0x13
 1569 05d2 F6000000 		.4byte	.LVL12
 1570 05d6 250F0000 		.4byte	0xf25
 1571 05da FC050000 		.4byte	0x5fc
 1572 05de 14       		.uleb128 0x14
 1573 05df 01       		.uleb128 0x1
 1574 05e0 52       		.byte	0x52
 1575 05e1 01       		.uleb128 0x1
 1576 05e2 33       		.byte	0x33
 1577 05e3 14       		.uleb128 0x14
 1578 05e4 01       		.uleb128 0x1
 1579 05e5 50       		.byte	0x50
 1580 05e6 01       		.uleb128 0x1
 1581 05e7 31       		.byte	0x31
 1582 05e8 14       		.uleb128 0x14
 1583 05e9 02       		.uleb128 0x2
 1584 05ea 7D       		.byte	0x7d
 1585 05eb 08       		.sleb128 8
 1586 05ec 02       		.uleb128 0x2
ARM GAS  C:\Users\RECEPC~1\AppData\Local\Temp\cc2rtZR1.s 			page 33


 1587 05ed 08       		.byte	0x8
 1588 05ee 4E       		.byte	0x4e
 1589 05ef 14       		.uleb128 0x14
 1590 05f0 02       		.uleb128 0x2
 1591 05f1 7D       		.byte	0x7d
 1592 05f2 04       		.sleb128 4
 1593 05f3 01       		.uleb128 0x1
 1594 05f4 30       		.byte	0x30
 1595 05f5 14       		.uleb128 0x14
 1596 05f6 02       		.uleb128 0x2
 1597 05f7 7D       		.byte	0x7d
 1598 05f8 00       		.sleb128 0
 1599 05f9 01       		.uleb128 0x1
 1600 05fa 31       		.byte	0x31
 1601 05fb 00       		.byte	0
 1602 05fc 13       		.uleb128 0x13
 1603 05fd 12010000 		.4byte	.LVL15
 1604 0601 250F0000 		.4byte	0xf25
 1605 0605 2D060000 		.4byte	0x62d
 1606 0609 14       		.uleb128 0x14
 1607 060a 01       		.uleb128 0x1
 1608 060b 52       		.byte	0x52
 1609 060c 01       		.uleb128 0x1
 1610 060d 33       		.byte	0x33
 1611 060e 14       		.uleb128 0x14
 1612 060f 01       		.uleb128 0x1
 1613 0610 51       		.byte	0x51
 1614 0611 02       		.uleb128 0x2
 1615 0612 74       		.byte	0x74
 1616 0613 00       		.sleb128 0
 1617 0614 14       		.uleb128 0x14
 1618 0615 01       		.uleb128 0x1
 1619 0616 50       		.byte	0x50
 1620 0617 01       		.uleb128 0x1
 1621 0618 31       		.byte	0x31
 1622 0619 14       		.uleb128 0x14
 1623 061a 02       		.uleb128 0x2
 1624 061b 7D       		.byte	0x7d
 1625 061c 08       		.sleb128 8
 1626 061d 02       		.uleb128 0x2
 1627 061e 08       		.byte	0x8
 1628 061f 4E       		.byte	0x4e
 1629 0620 14       		.uleb128 0x14
 1630 0621 02       		.uleb128 0x2
 1631 0622 7D       		.byte	0x7d
 1632 0623 04       		.sleb128 4
 1633 0624 01       		.uleb128 0x1
 1634 0625 30       		.byte	0x30
 1635 0626 14       		.uleb128 0x14
 1636 0627 02       		.uleb128 0x2
 1637 0628 7D       		.byte	0x7d
 1638 0629 00       		.sleb128 0
 1639 062a 01       		.uleb128 0x1
 1640 062b 31       		.byte	0x31
 1641 062c 00       		.byte	0
 1642 062d 13       		.uleb128 0x13
 1643 062e 6A010000 		.4byte	.LVL18
ARM GAS  C:\Users\RECEPC~1\AppData\Local\Temp\cc2rtZR1.s 			page 34


 1644 0632 250F0000 		.4byte	0xf25
 1645 0636 58060000 		.4byte	0x658
 1646 063a 14       		.uleb128 0x14
 1647 063b 01       		.uleb128 0x1
 1648 063c 52       		.byte	0x52
 1649 063d 01       		.uleb128 0x1
 1650 063e 33       		.byte	0x33
 1651 063f 14       		.uleb128 0x14
 1652 0640 01       		.uleb128 0x1
 1653 0641 50       		.byte	0x50
 1654 0642 01       		.uleb128 0x1
 1655 0643 31       		.byte	0x31
 1656 0644 14       		.uleb128 0x14
 1657 0645 02       		.uleb128 0x2
 1658 0646 7D       		.byte	0x7d
 1659 0647 08       		.sleb128 8
 1660 0648 02       		.uleb128 0x2
 1661 0649 08       		.byte	0x8
 1662 064a 4E       		.byte	0x4e
 1663 064b 14       		.uleb128 0x14
 1664 064c 02       		.uleb128 0x2
 1665 064d 7D       		.byte	0x7d
 1666 064e 04       		.sleb128 4
 1667 064f 01       		.uleb128 0x1
 1668 0650 30       		.byte	0x30
 1669 0651 14       		.uleb128 0x14
 1670 0652 02       		.uleb128 0x2
 1671 0653 7D       		.byte	0x7d
 1672 0654 00       		.sleb128 0
 1673 0655 01       		.uleb128 0x1
 1674 0656 31       		.byte	0x31
 1675 0657 00       		.byte	0
 1676 0658 13       		.uleb128 0x13
 1677 0659 86010000 		.4byte	.LVL21
 1678 065d 250F0000 		.4byte	0xf25
 1679 0661 89060000 		.4byte	0x689
 1680 0665 14       		.uleb128 0x14
 1681 0666 01       		.uleb128 0x1
 1682 0667 52       		.byte	0x52
 1683 0668 01       		.uleb128 0x1
 1684 0669 33       		.byte	0x33
 1685 066a 14       		.uleb128 0x14
 1686 066b 01       		.uleb128 0x1
 1687 066c 51       		.byte	0x51
 1688 066d 02       		.uleb128 0x2
 1689 066e 74       		.byte	0x74
 1690 066f 00       		.sleb128 0
 1691 0670 14       		.uleb128 0x14
 1692 0671 01       		.uleb128 0x1
 1693 0672 50       		.byte	0x50
 1694 0673 01       		.uleb128 0x1
 1695 0674 31       		.byte	0x31
 1696 0675 14       		.uleb128 0x14
 1697 0676 02       		.uleb128 0x2
 1698 0677 7D       		.byte	0x7d
 1699 0678 08       		.sleb128 8
 1700 0679 02       		.uleb128 0x2
ARM GAS  C:\Users\RECEPC~1\AppData\Local\Temp\cc2rtZR1.s 			page 35


 1701 067a 08       		.byte	0x8
 1702 067b 4E       		.byte	0x4e
 1703 067c 14       		.uleb128 0x14
 1704 067d 02       		.uleb128 0x2
 1705 067e 7D       		.byte	0x7d
 1706 067f 04       		.sleb128 4
 1707 0680 01       		.uleb128 0x1
 1708 0681 30       		.byte	0x30
 1709 0682 14       		.uleb128 0x14
 1710 0683 02       		.uleb128 0x2
 1711 0684 7D       		.byte	0x7d
 1712 0685 00       		.sleb128 0
 1713 0686 01       		.uleb128 0x1
 1714 0687 31       		.byte	0x31
 1715 0688 00       		.byte	0
 1716 0689 13       		.uleb128 0x13
 1717 068a A4010000 		.4byte	.LVL24
 1718 068e 540F0000 		.4byte	0xf54
 1719 0692 9C060000 		.4byte	0x69c
 1720 0696 14       		.uleb128 0x14
 1721 0697 01       		.uleb128 0x1
 1722 0698 50       		.byte	0x50
 1723 0699 01       		.uleb128 0x1
 1724 069a 44       		.byte	0x44
 1725 069b 00       		.byte	0
 1726 069c 12       		.uleb128 0x12
 1727 069d A8010000 		.4byte	.LVL25
 1728 06a1 650F0000 		.4byte	0xf65
 1729 06a5 13       		.uleb128 0x13
 1730 06a6 C4010000 		.4byte	.LVL26
 1731 06aa 250F0000 		.4byte	0xf25
 1732 06ae D6060000 		.4byte	0x6d6
 1733 06b2 14       		.uleb128 0x14
 1734 06b3 01       		.uleb128 0x1
 1735 06b4 52       		.byte	0x52
 1736 06b5 01       		.uleb128 0x1
 1737 06b6 33       		.byte	0x33
 1738 06b7 14       		.uleb128 0x14
 1739 06b8 01       		.uleb128 0x1
 1740 06b9 51       		.byte	0x51
 1741 06ba 02       		.uleb128 0x2
 1742 06bb 08       		.byte	0x8
 1743 06bc 20       		.byte	0x20
 1744 06bd 14       		.uleb128 0x14
 1745 06be 01       		.uleb128 0x1
 1746 06bf 50       		.byte	0x50
 1747 06c0 01       		.uleb128 0x1
 1748 06c1 31       		.byte	0x31
 1749 06c2 14       		.uleb128 0x14
 1750 06c3 02       		.uleb128 0x2
 1751 06c4 7D       		.byte	0x7d
 1752 06c5 08       		.sleb128 8
 1753 06c6 02       		.uleb128 0x2
 1754 06c7 08       		.byte	0x8
 1755 06c8 4E       		.byte	0x4e
 1756 06c9 14       		.uleb128 0x14
 1757 06ca 02       		.uleb128 0x2
ARM GAS  C:\Users\RECEPC~1\AppData\Local\Temp\cc2rtZR1.s 			page 36


 1758 06cb 7D       		.byte	0x7d
 1759 06cc 04       		.sleb128 4
 1760 06cd 01       		.uleb128 0x1
 1761 06ce 30       		.byte	0x30
 1762 06cf 14       		.uleb128 0x14
 1763 06d0 02       		.uleb128 0x2
 1764 06d1 7D       		.byte	0x7d
 1765 06d2 00       		.sleb128 0
 1766 06d3 01       		.uleb128 0x1
 1767 06d4 31       		.byte	0x31
 1768 06d5 00       		.byte	0
 1769 06d6 13       		.uleb128 0x13
 1770 06d7 00020000 		.4byte	.LVL27
 1771 06db 540F0000 		.4byte	0xf54
 1772 06df E9060000 		.4byte	0x6e9
 1773 06e3 14       		.uleb128 0x14
 1774 06e4 01       		.uleb128 0x1
 1775 06e5 50       		.byte	0x50
 1776 06e6 01       		.uleb128 0x1
 1777 06e7 44       		.byte	0x44
 1778 06e8 00       		.byte	0
 1779 06e9 12       		.uleb128 0x12
 1780 06ea 04020000 		.4byte	.LVL28
 1781 06ee 650F0000 		.4byte	0xf65
 1782 06f2 13       		.uleb128 0x13
 1783 06f3 18020000 		.4byte	.LVL29
 1784 06f7 540F0000 		.4byte	0xf54
 1785 06fb 05070000 		.4byte	0x705
 1786 06ff 14       		.uleb128 0x14
 1787 0700 01       		.uleb128 0x1
 1788 0701 50       		.byte	0x50
 1789 0702 01       		.uleb128 0x1
 1790 0703 44       		.byte	0x44
 1791 0704 00       		.byte	0
 1792 0705 12       		.uleb128 0x12
 1793 0706 1C020000 		.4byte	.LVL30
 1794 070a 650F0000 		.4byte	0xf65
 1795 070e 13       		.uleb128 0x13
 1796 070f 26020000 		.4byte	.LVL32
 1797 0713 540F0000 		.4byte	0xf54
 1798 0717 21070000 		.4byte	0x721
 1799 071b 14       		.uleb128 0x14
 1800 071c 01       		.uleb128 0x1
 1801 071d 50       		.byte	0x50
 1802 071e 01       		.uleb128 0x1
 1803 071f 44       		.byte	0x44
 1804 0720 00       		.byte	0
 1805 0721 12       		.uleb128 0x12
 1806 0722 2A020000 		.4byte	.LVL33
 1807 0726 650F0000 		.4byte	0xf65
 1808 072a 12       		.uleb128 0x12
 1809 072b 32020000 		.4byte	.LVL35
 1810 072f 6C0F0000 		.4byte	0xf6c
 1811 0733 12       		.uleb128 0x12
 1812 0734 72020000 		.4byte	.LVL36
 1813 0738 100F0000 		.4byte	0xf10
 1814 073c 13       		.uleb128 0x13
ARM GAS  C:\Users\RECEPC~1\AppData\Local\Temp\cc2rtZR1.s 			page 37


 1815 073d B8020000 		.4byte	.LVL39
 1816 0741 250F0000 		.4byte	0xf25
 1817 0745 67070000 		.4byte	0x767
 1818 0749 14       		.uleb128 0x14
 1819 074a 01       		.uleb128 0x1
 1820 074b 52       		.byte	0x52
 1821 074c 01       		.uleb128 0x1
 1822 074d 33       		.byte	0x33
 1823 074e 14       		.uleb128 0x14
 1824 074f 01       		.uleb128 0x1
 1825 0750 50       		.byte	0x50
 1826 0751 01       		.uleb128 0x1
 1827 0752 32       		.byte	0x32
 1828 0753 14       		.uleb128 0x14
 1829 0754 02       		.uleb128 0x2
 1830 0755 7D       		.byte	0x7d
 1831 0756 08       		.sleb128 8
 1832 0757 02       		.uleb128 0x2
 1833 0758 08       		.byte	0x8
 1834 0759 4E       		.byte	0x4e
 1835 075a 14       		.uleb128 0x14
 1836 075b 02       		.uleb128 0x2
 1837 075c 7D       		.byte	0x7d
 1838 075d 04       		.sleb128 4
 1839 075e 01       		.uleb128 0x1
 1840 075f 30       		.byte	0x30
 1841 0760 14       		.uleb128 0x14
 1842 0761 02       		.uleb128 0x2
 1843 0762 7D       		.byte	0x7d
 1844 0763 00       		.sleb128 0
 1845 0764 01       		.uleb128 0x1
 1846 0765 31       		.byte	0x31
 1847 0766 00       		.byte	0
 1848 0767 13       		.uleb128 0x13
 1849 0768 F4020000 		.4byte	.LVL42
 1850 076c 250F0000 		.4byte	0xf25
 1851 0770 98070000 		.4byte	0x798
 1852 0774 14       		.uleb128 0x14
 1853 0775 01       		.uleb128 0x1
 1854 0776 52       		.byte	0x52
 1855 0777 01       		.uleb128 0x1
 1856 0778 32       		.byte	0x32
 1857 0779 14       		.uleb128 0x14
 1858 077a 01       		.uleb128 0x1
 1859 077b 51       		.byte	0x51
 1860 077c 02       		.uleb128 0x2
 1861 077d 74       		.byte	0x74
 1862 077e 00       		.sleb128 0
 1863 077f 14       		.uleb128 0x14
 1864 0780 01       		.uleb128 0x1
 1865 0781 50       		.byte	0x50
 1866 0782 01       		.uleb128 0x1
 1867 0783 32       		.byte	0x32
 1868 0784 14       		.uleb128 0x14
 1869 0785 02       		.uleb128 0x2
 1870 0786 7D       		.byte	0x7d
 1871 0787 08       		.sleb128 8
ARM GAS  C:\Users\RECEPC~1\AppData\Local\Temp\cc2rtZR1.s 			page 38


 1872 0788 02       		.uleb128 0x2
 1873 0789 08       		.byte	0x8
 1874 078a 4E       		.byte	0x4e
 1875 078b 14       		.uleb128 0x14
 1876 078c 02       		.uleb128 0x2
 1877 078d 7D       		.byte	0x7d
 1878 078e 04       		.sleb128 4
 1879 078f 01       		.uleb128 0x1
 1880 0790 30       		.byte	0x30
 1881 0791 14       		.uleb128 0x14
 1882 0792 02       		.uleb128 0x2
 1883 0793 7D       		.byte	0x7d
 1884 0794 00       		.sleb128 0
 1885 0795 01       		.uleb128 0x1
 1886 0796 31       		.byte	0x31
 1887 0797 00       		.byte	0
 1888 0798 13       		.uleb128 0x13
 1889 0799 3A030000 		.4byte	.LVL45
 1890 079d 250F0000 		.4byte	0xf25
 1891 07a1 C3070000 		.4byte	0x7c3
 1892 07a5 14       		.uleb128 0x14
 1893 07a6 01       		.uleb128 0x1
 1894 07a7 52       		.byte	0x52
 1895 07a8 01       		.uleb128 0x1
 1896 07a9 33       		.byte	0x33
 1897 07aa 14       		.uleb128 0x14
 1898 07ab 01       		.uleb128 0x1
 1899 07ac 50       		.byte	0x50
 1900 07ad 01       		.uleb128 0x1
 1901 07ae 32       		.byte	0x32
 1902 07af 14       		.uleb128 0x14
 1903 07b0 02       		.uleb128 0x2
 1904 07b1 7D       		.byte	0x7d
 1905 07b2 08       		.sleb128 8
 1906 07b3 02       		.uleb128 0x2
 1907 07b4 08       		.byte	0x8
 1908 07b5 4E       		.byte	0x4e
 1909 07b6 14       		.uleb128 0x14
 1910 07b7 02       		.uleb128 0x2
 1911 07b8 7D       		.byte	0x7d
 1912 07b9 04       		.sleb128 4
 1913 07ba 01       		.uleb128 0x1
 1914 07bb 30       		.byte	0x30
 1915 07bc 14       		.uleb128 0x14
 1916 07bd 02       		.uleb128 0x2
 1917 07be 7D       		.byte	0x7d
 1918 07bf 00       		.sleb128 0
 1919 07c0 01       		.uleb128 0x1
 1920 07c1 31       		.byte	0x31
 1921 07c2 00       		.byte	0
 1922 07c3 13       		.uleb128 0x13
 1923 07c4 58030000 		.4byte	.LVL48
 1924 07c8 250F0000 		.4byte	0xf25
 1925 07cc F4070000 		.4byte	0x7f4
 1926 07d0 14       		.uleb128 0x14
 1927 07d1 01       		.uleb128 0x1
 1928 07d2 52       		.byte	0x52
ARM GAS  C:\Users\RECEPC~1\AppData\Local\Temp\cc2rtZR1.s 			page 39


 1929 07d3 01       		.uleb128 0x1
 1930 07d4 32       		.byte	0x32
 1931 07d5 14       		.uleb128 0x14
 1932 07d6 01       		.uleb128 0x1
 1933 07d7 51       		.byte	0x51
 1934 07d8 02       		.uleb128 0x2
 1935 07d9 74       		.byte	0x74
 1936 07da 00       		.sleb128 0
 1937 07db 14       		.uleb128 0x14
 1938 07dc 01       		.uleb128 0x1
 1939 07dd 50       		.byte	0x50
 1940 07de 01       		.uleb128 0x1
 1941 07df 32       		.byte	0x32
 1942 07e0 14       		.uleb128 0x14
 1943 07e1 02       		.uleb128 0x2
 1944 07e2 7D       		.byte	0x7d
 1945 07e3 08       		.sleb128 8
 1946 07e4 02       		.uleb128 0x2
 1947 07e5 08       		.byte	0x8
 1948 07e6 4E       		.byte	0x4e
 1949 07e7 14       		.uleb128 0x14
 1950 07e8 02       		.uleb128 0x2
 1951 07e9 7D       		.byte	0x7d
 1952 07ea 04       		.sleb128 4
 1953 07eb 01       		.uleb128 0x1
 1954 07ec 30       		.byte	0x30
 1955 07ed 14       		.uleb128 0x14
 1956 07ee 02       		.uleb128 0x2
 1957 07ef 7D       		.byte	0x7d
 1958 07f0 00       		.sleb128 0
 1959 07f1 01       		.uleb128 0x1
 1960 07f2 31       		.byte	0x31
 1961 07f3 00       		.byte	0
 1962 07f4 13       		.uleb128 0x13
 1963 07f5 B4030000 		.4byte	.LVL51
 1964 07f9 250F0000 		.4byte	0xf25
 1965 07fd 1F080000 		.4byte	0x81f
 1966 0801 14       		.uleb128 0x14
 1967 0802 01       		.uleb128 0x1
 1968 0803 52       		.byte	0x52
 1969 0804 01       		.uleb128 0x1
 1970 0805 33       		.byte	0x33
 1971 0806 14       		.uleb128 0x14
 1972 0807 01       		.uleb128 0x1
 1973 0808 50       		.byte	0x50
 1974 0809 01       		.uleb128 0x1
 1975 080a 32       		.byte	0x32
 1976 080b 14       		.uleb128 0x14
 1977 080c 02       		.uleb128 0x2
 1978 080d 7D       		.byte	0x7d
 1979 080e 08       		.sleb128 8
 1980 080f 02       		.uleb128 0x2
 1981 0810 08       		.byte	0x8
 1982 0811 4E       		.byte	0x4e
 1983 0812 14       		.uleb128 0x14
 1984 0813 02       		.uleb128 0x2
 1985 0814 7D       		.byte	0x7d
ARM GAS  C:\Users\RECEPC~1\AppData\Local\Temp\cc2rtZR1.s 			page 40


 1986 0815 04       		.sleb128 4
 1987 0816 01       		.uleb128 0x1
 1988 0817 30       		.byte	0x30
 1989 0818 14       		.uleb128 0x14
 1990 0819 02       		.uleb128 0x2
 1991 081a 7D       		.byte	0x7d
 1992 081b 00       		.sleb128 0
 1993 081c 01       		.uleb128 0x1
 1994 081d 31       		.byte	0x31
 1995 081e 00       		.byte	0
 1996 081f 13       		.uleb128 0x13
 1997 0820 D2030000 		.4byte	.LVL54
 1998 0824 250F0000 		.4byte	0xf25
 1999 0828 50080000 		.4byte	0x850
 2000 082c 14       		.uleb128 0x14
 2001 082d 01       		.uleb128 0x1
 2002 082e 52       		.byte	0x52
 2003 082f 01       		.uleb128 0x1
 2004 0830 32       		.byte	0x32
 2005 0831 14       		.uleb128 0x14
 2006 0832 01       		.uleb128 0x1
 2007 0833 51       		.byte	0x51
 2008 0834 02       		.uleb128 0x2
 2009 0835 74       		.byte	0x74
 2010 0836 00       		.sleb128 0
 2011 0837 14       		.uleb128 0x14
 2012 0838 01       		.uleb128 0x1
 2013 0839 50       		.byte	0x50
 2014 083a 01       		.uleb128 0x1
 2015 083b 32       		.byte	0x32
 2016 083c 14       		.uleb128 0x14
 2017 083d 02       		.uleb128 0x2
 2018 083e 7D       		.byte	0x7d
 2019 083f 08       		.sleb128 8
 2020 0840 02       		.uleb128 0x2
 2021 0841 08       		.byte	0x8
 2022 0842 4E       		.byte	0x4e
 2023 0843 14       		.uleb128 0x14
 2024 0844 02       		.uleb128 0x2
 2025 0845 7D       		.byte	0x7d
 2026 0846 04       		.sleb128 4
 2027 0847 01       		.uleb128 0x1
 2028 0848 30       		.byte	0x30
 2029 0849 14       		.uleb128 0x14
 2030 084a 02       		.uleb128 0x2
 2031 084b 7D       		.byte	0x7d
 2032 084c 00       		.sleb128 0
 2033 084d 01       		.uleb128 0x1
 2034 084e 31       		.byte	0x31
 2035 084f 00       		.byte	0
 2036 0850 13       		.uleb128 0x13
 2037 0851 EA030000 		.4byte	.LVL57
 2038 0855 540F0000 		.4byte	0xf54
 2039 0859 63080000 		.4byte	0x863
 2040 085d 14       		.uleb128 0x14
 2041 085e 01       		.uleb128 0x1
 2042 085f 50       		.byte	0x50
ARM GAS  C:\Users\RECEPC~1\AppData\Local\Temp\cc2rtZR1.s 			page 41


 2043 0860 01       		.uleb128 0x1
 2044 0861 44       		.byte	0x44
 2045 0862 00       		.byte	0
 2046 0863 12       		.uleb128 0x12
 2047 0864 EE030000 		.4byte	.LVL58
 2048 0868 770F0000 		.4byte	0xf77
 2049 086c 13       		.uleb128 0x13
 2050 086d 0C040000 		.4byte	.LVL59
 2051 0871 250F0000 		.4byte	0xf25
 2052 0875 9D080000 		.4byte	0x89d
 2053 0879 14       		.uleb128 0x14
 2054 087a 01       		.uleb128 0x1
 2055 087b 52       		.byte	0x52
 2056 087c 01       		.uleb128 0x1
 2057 087d 32       		.byte	0x32
 2058 087e 14       		.uleb128 0x14
 2059 087f 01       		.uleb128 0x1
 2060 0880 51       		.byte	0x51
 2061 0881 02       		.uleb128 0x2
 2062 0882 08       		.byte	0x8
 2063 0883 20       		.byte	0x20
 2064 0884 14       		.uleb128 0x14
 2065 0885 01       		.uleb128 0x1
 2066 0886 50       		.byte	0x50
 2067 0887 01       		.uleb128 0x1
 2068 0888 32       		.byte	0x32
 2069 0889 14       		.uleb128 0x14
 2070 088a 02       		.uleb128 0x2
 2071 088b 7D       		.byte	0x7d
 2072 088c 08       		.sleb128 8
 2073 088d 02       		.uleb128 0x2
 2074 088e 08       		.byte	0x8
 2075 088f 4E       		.byte	0x4e
 2076 0890 14       		.uleb128 0x14
 2077 0891 02       		.uleb128 0x2
 2078 0892 7D       		.byte	0x7d
 2079 0893 04       		.sleb128 4
 2080 0894 01       		.uleb128 0x1
 2081 0895 30       		.byte	0x30
 2082 0896 14       		.uleb128 0x14
 2083 0897 02       		.uleb128 0x2
 2084 0898 7D       		.byte	0x7d
 2085 0899 00       		.sleb128 0
 2086 089a 01       		.uleb128 0x1
 2087 089b 31       		.byte	0x31
 2088 089c 00       		.byte	0
 2089 089d 13       		.uleb128 0x13
 2090 089e 48040000 		.4byte	.LVL60
 2091 08a2 540F0000 		.4byte	0xf54
 2092 08a6 B0080000 		.4byte	0x8b0
 2093 08aa 14       		.uleb128 0x14
 2094 08ab 01       		.uleb128 0x1
 2095 08ac 50       		.byte	0x50
 2096 08ad 01       		.uleb128 0x1
 2097 08ae 44       		.byte	0x44
 2098 08af 00       		.byte	0
 2099 08b0 12       		.uleb128 0x12
ARM GAS  C:\Users\RECEPC~1\AppData\Local\Temp\cc2rtZR1.s 			page 42


 2100 08b1 4C040000 		.4byte	.LVL61
 2101 08b5 770F0000 		.4byte	0xf77
 2102 08b9 13       		.uleb128 0x13
 2103 08ba 60040000 		.4byte	.LVL62
 2104 08be 540F0000 		.4byte	0xf54
 2105 08c2 CC080000 		.4byte	0x8cc
 2106 08c6 14       		.uleb128 0x14
 2107 08c7 01       		.uleb128 0x1
 2108 08c8 50       		.byte	0x50
 2109 08c9 01       		.uleb128 0x1
 2110 08ca 44       		.byte	0x44
 2111 08cb 00       		.byte	0
 2112 08cc 12       		.uleb128 0x12
 2113 08cd 64040000 		.4byte	.LVL63
 2114 08d1 770F0000 		.4byte	0xf77
 2115 08d5 13       		.uleb128 0x13
 2116 08d6 6E040000 		.4byte	.LVL65
 2117 08da 540F0000 		.4byte	0xf54
 2118 08de E8080000 		.4byte	0x8e8
 2119 08e2 14       		.uleb128 0x14
 2120 08e3 01       		.uleb128 0x1
 2121 08e4 50       		.byte	0x50
 2122 08e5 01       		.uleb128 0x1
 2123 08e6 44       		.byte	0x44
 2124 08e7 00       		.byte	0
 2125 08e8 12       		.uleb128 0x12
 2126 08e9 72040000 		.4byte	.LVL66
 2127 08ed 770F0000 		.4byte	0xf77
 2128 08f1 00       		.byte	0
 2129 08f2 07       		.uleb128 0x7
 2130 08f3 AD000000 		.4byte	0xad
 2131 08f7 02090000 		.4byte	0x902
 2132 08fb 08       		.uleb128 0x8
 2133 08fc 08010000 		.4byte	0x108
 2134 0900 1F       		.byte	0x1f
 2135 0901 00       		.byte	0
 2136 0902 15       		.uleb128 0x15
 2137 0903 57080000 		.4byte	.LASF85
 2138 0907 06       		.byte	0x6
 2139 0908 3E01     		.2byte	0x13e
 2140 090a 0E090000 		.4byte	0x90e
 2141 090e 06       		.uleb128 0x6
 2142 090f F2080000 		.4byte	0x8f2
 2143 0913 15       		.uleb128 0x15
 2144 0914 25010000 		.4byte	.LASF86
 2145 0918 07       		.byte	0x7
 2146 0919 3E01     		.2byte	0x13e
 2147 091b 1F090000 		.4byte	0x91f
 2148 091f 06       		.uleb128 0x6
 2149 0920 F2080000 		.4byte	0x8f2
 2150 0924 15       		.uleb128 0x15
 2151 0925 63050000 		.4byte	.LASF87
 2152 0929 08       		.byte	0x8
 2153 092a 5506     		.2byte	0x655
 2154 092c 30090000 		.4byte	0x930
 2155 0930 06       		.uleb128 0x6
 2156 0931 A2000000 		.4byte	0xa2
ARM GAS  C:\Users\RECEPC~1\AppData\Local\Temp\cc2rtZR1.s 			page 43


 2157 0935 16       		.uleb128 0x16
 2158 0936 E2030000 		.4byte	.LASF88
 2159 093a 05       		.byte	0x5
 2160 093b 2C       		.byte	0x2c
 2161 093c 46090000 		.4byte	0x946
 2162 0940 05       		.uleb128 0x5
 2163 0941 03       		.byte	0x3
 2164 0942 00000000 		.4byte	countAnimation1
 2165 0946 06       		.uleb128 0x6
 2166 0947 DF000000 		.4byte	0xdf
 2167 094b 16       		.uleb128 0x16
 2168 094c 39040000 		.4byte	.LASF89
 2169 0950 05       		.byte	0x5
 2170 0951 2D       		.byte	0x2d
 2171 0952 46090000 		.4byte	0x946
 2172 0956 05       		.uleb128 0x5
 2173 0957 03       		.byte	0x3
 2174 0958 00000000 		.4byte	countAnimation2
 2175 095c 16       		.uleb128 0x16
 2176 095d 4A000000 		.4byte	.LASF90
 2177 0961 05       		.byte	0x5
 2178 0962 2E       		.byte	0x2e
 2179 0963 46090000 		.4byte	0x946
 2180 0967 05       		.uleb128 0x5
 2181 0968 03       		.byte	0x3
 2182 0969 00000000 		.4byte	countRX
 2183 096d 16       		.uleb128 0x16
 2184 096e 4C010000 		.4byte	.LASF91
 2185 0972 05       		.byte	0x5
 2186 0973 2F       		.byte	0x2f
 2187 0974 46090000 		.4byte	0x946
 2188 0978 05       		.uleb128 0x5
 2189 0979 03       		.byte	0x3
 2190 097a 00000000 		.4byte	countTX
 2191 097e 16       		.uleb128 0x16
 2192 097f 4D080000 		.4byte	.LASF92
 2193 0983 05       		.byte	0x5
 2194 0984 30       		.byte	0x30
 2195 0985 46090000 		.4byte	0x946
 2196 0989 05       		.uleb128 0x5
 2197 098a 03       		.byte	0x3
 2198 098b 00000000 		.4byte	countPump
 2199 098f 16       		.uleb128 0x16
 2200 0990 84020000 		.4byte	.LASF93
 2201 0994 05       		.byte	0x5
 2202 0995 31       		.byte	0x31
 2203 0996 46090000 		.4byte	0x946
 2204 099a 05       		.uleb128 0x5
 2205 099b 03       		.byte	0x3
 2206 099c 00000000 		.4byte	countLCD
 2207 09a0 16       		.uleb128 0x16
 2208 09a1 CD020000 		.4byte	.LASF94
 2209 09a5 05       		.byte	0x5
 2210 09a6 32       		.byte	0x32
 2211 09a7 03010000 		.4byte	0x103
 2212 09ab 05       		.uleb128 0x5
 2213 09ac 03       		.byte	0x3
ARM GAS  C:\Users\RECEPC~1\AppData\Local\Temp\cc2rtZR1.s 			page 44


 2214 09ad 00000000 		.4byte	flowDisplay1
 2215 09b1 16       		.uleb128 0x16
 2216 09b2 DA020000 		.4byte	.LASF95
 2217 09b6 05       		.byte	0x5
 2218 09b7 33       		.byte	0x33
 2219 09b8 03010000 		.4byte	0x103
 2220 09bc 05       		.uleb128 0x5
 2221 09bd 03       		.byte	0x3
 2222 09be 00000000 		.4byte	flowDisplay2
 2223 09c2 16       		.uleb128 0x16
 2224 09c3 E7020000 		.4byte	.LASF96
 2225 09c7 05       		.byte	0x5
 2226 09c8 34       		.byte	0x34
 2227 09c9 03010000 		.4byte	0x103
 2228 09cd 05       		.uleb128 0x5
 2229 09ce 03       		.byte	0x3
 2230 09cf 00000000 		.4byte	flowDisplay3
 2231 09d3 16       		.uleb128 0x16
 2232 09d4 F4020000 		.4byte	.LASF97
 2233 09d8 05       		.byte	0x5
 2234 09d9 35       		.byte	0x35
 2235 09da 03010000 		.4byte	0x103
 2236 09de 05       		.uleb128 0x5
 2237 09df 03       		.byte	0x3
 2238 09e0 00000000 		.4byte	flowDisplay4
 2239 09e4 16       		.uleb128 0x16
 2240 09e5 4E030000 		.4byte	.LASF98
 2241 09e9 05       		.byte	0x5
 2242 09ea 36       		.byte	0x36
 2243 09eb FE000000 		.4byte	0xfe
 2244 09ef 05       		.uleb128 0x5
 2245 09f0 03       		.byte	0x3
 2246 09f1 00000000 		.4byte	numberKeys1
 2247 09f5 16       		.uleb128 0x16
 2248 09f6 5A030000 		.4byte	.LASF99
 2249 09fa 05       		.byte	0x5
 2250 09fb 37       		.byte	0x37
 2251 09fc FE000000 		.4byte	0xfe
 2252 0a00 05       		.uleb128 0x5
 2253 0a01 03       		.byte	0x3
 2254 0a02 00000000 		.4byte	numberKeys2
 2255 0a06 16       		.uleb128 0x16
 2256 0a07 E6040000 		.4byte	.LASF100
 2257 0a0b 05       		.byte	0x5
 2258 0a0c 38       		.byte	0x38
 2259 0a0d FE000000 		.4byte	0xfe
 2260 0a11 05       		.uleb128 0x5
 2261 0a12 03       		.byte	0x3
 2262 0a13 00000000 		.4byte	flagPoint1
 2263 0a17 16       		.uleb128 0x16
 2264 0a18 41010000 		.4byte	.LASF101
 2265 0a1c 05       		.byte	0x5
 2266 0a1d 39       		.byte	0x39
 2267 0a1e FE000000 		.4byte	0xfe
 2268 0a22 05       		.uleb128 0x5
 2269 0a23 03       		.byte	0x3
 2270 0a24 00000000 		.4byte	flagPoint2
ARM GAS  C:\Users\RECEPC~1\AppData\Local\Temp\cc2rtZR1.s 			page 45


 2271 0a28 16       		.uleb128 0x16
 2272 0a29 50020000 		.4byte	.LASF102
 2273 0a2d 05       		.byte	0x5
 2274 0a2e 3A       		.byte	0x3a
 2275 0a2f FE000000 		.4byte	0xfe
 2276 0a33 05       		.uleb128 0x5
 2277 0a34 03       		.byte	0x3
 2278 0a35 00000000 		.4byte	productNumber
 2279 0a39 16       		.uleb128 0x16
 2280 0a3a 32060000 		.4byte	.LASF103
 2281 0a3e 05       		.byte	0x5
 2282 0a3f 3B       		.byte	0x3b
 2283 0a40 03010000 		.4byte	0x103
 2284 0a44 05       		.uleb128 0x5
 2285 0a45 03       		.byte	0x3
 2286 0a46 00000000 		.4byte	delayPicture1
 2287 0a4a 16       		.uleb128 0x16
 2288 0a4b 40060000 		.4byte	.LASF104
 2289 0a4f 05       		.byte	0x5
 2290 0a50 3C       		.byte	0x3c
 2291 0a51 03010000 		.4byte	0x103
 2292 0a55 05       		.uleb128 0x5
 2293 0a56 03       		.byte	0x3
 2294 0a57 00000000 		.4byte	delayPicture2
 2295 0a5b 16       		.uleb128 0x16
 2296 0a5c CC040000 		.4byte	.LASF105
 2297 0a60 05       		.byte	0x5
 2298 0a61 3D       		.byte	0x3d
 2299 0a62 FE000000 		.4byte	0xfe
 2300 0a66 05       		.uleb128 0x5
 2301 0a67 03       		.byte	0x3
 2302 0a68 00000000 		.4byte	ppux10
 2303 0a6c 16       		.uleb128 0x16
 2304 0a6d 9D000000 		.4byte	.LASF106
 2305 0a71 05       		.byte	0x5
 2306 0a72 3E       		.byte	0x3e
 2307 0a73 FE000000 		.4byte	0xfe
 2308 0a77 05       		.uleb128 0x5
 2309 0a78 03       		.byte	0x3
 2310 0a79 00000000 		.4byte	decimalMoney
 2311 0a7d 16       		.uleb128 0x16
 2312 0a7e 24000000 		.4byte	.LASF107
 2313 0a82 05       		.byte	0x5
 2314 0a83 3F       		.byte	0x3f
 2315 0a84 FE000000 		.4byte	0xfe
 2316 0a88 05       		.uleb128 0x5
 2317 0a89 03       		.byte	0x3
 2318 0a8a 00000000 		.4byte	decimalVolume
 2319 0a8e 16       		.uleb128 0x16
 2320 0a8f 03050000 		.4byte	.LASF108
 2321 0a93 05       		.byte	0x5
 2322 0a94 40       		.byte	0x40
 2323 0a95 9F0A0000 		.4byte	0xa9f
 2324 0a99 05       		.uleb128 0x5
 2325 0a9a 03       		.byte	0x3
 2326 0a9b 00000000 		.4byte	symbols
 2327 0a9f 06       		.uleb128 0x6
ARM GAS  C:\Users\RECEPC~1\AppData\Local\Temp\cc2rtZR1.s 			page 46


 2328 0aa0 63030000 		.4byte	0x363
 2329 0aa4 07       		.uleb128 0x7
 2330 0aa5 AD000000 		.4byte	0xad
 2331 0aa9 B40A0000 		.4byte	0xab4
 2332 0aad 08       		.uleb128 0x8
 2333 0aae 08010000 		.4byte	0x108
 2334 0ab2 02       		.byte	0x2
 2335 0ab3 00       		.byte	0
 2336 0ab4 16       		.uleb128 0x16
 2337 0ab5 29020000 		.4byte	.LASF109
 2338 0ab9 05       		.byte	0x5
 2339 0aba 41       		.byte	0x41
 2340 0abb C50A0000 		.4byte	0xac5
 2341 0abf 05       		.uleb128 0x5
 2342 0ac0 03       		.byte	0x3
 2343 0ac1 00000000 		.4byte	time
 2344 0ac5 06       		.uleb128 0x6
 2345 0ac6 A40A0000 		.4byte	0xaa4
 2346 0aca 16       		.uleb128 0x16
 2347 0acb 6D030000 		.4byte	.LASF110
 2348 0acf 05       		.byte	0x5
 2349 0ad0 42       		.byte	0x42
 2350 0ad1 DB0A0000 		.4byte	0xadb
 2351 0ad5 05       		.uleb128 0x5
 2352 0ad6 03       		.byte	0x3
 2353 0ad7 00000000 		.4byte	date
 2354 0adb 06       		.uleb128 0x6
 2355 0adc A40A0000 		.4byte	0xaa4
 2356 0ae0 16       		.uleb128 0x16
 2357 0ae1 5E010000 		.4byte	.LASF111
 2358 0ae5 05       		.byte	0x5
 2359 0ae6 43       		.byte	0x43
 2360 0ae7 F10A0000 		.4byte	0xaf1
 2361 0aeb 05       		.uleb128 0x5
 2362 0aec 03       		.byte	0x3
 2363 0aed 00000000 		.4byte	screen
 2364 0af1 06       		.uleb128 0x6
 2365 0af2 63030000 		.4byte	0x363
 2366 0af6 16       		.uleb128 0x16
 2367 0af7 E8000000 		.4byte	.LASF112
 2368 0afb 05       		.byte	0x5
 2369 0afc 44       		.byte	0x44
 2370 0afd 070B0000 		.4byte	0xb07
 2371 0b01 05       		.uleb128 0x5
 2372 0b02 03       		.byte	0x3
 2373 0b03 00000000 		.4byte	residue
 2374 0b07 06       		.uleb128 0x6
 2375 0b08 A9030000 		.4byte	0x3a9
 2376 0b0c 16       		.uleb128 0x16
 2377 0b0d 5E020000 		.4byte	.LASF113
 2378 0b11 05       		.byte	0x5
 2379 0b12 45       		.byte	0x45
 2380 0b13 1D0B0000 		.4byte	0xb1d
 2381 0b17 05       		.uleb128 0x5
 2382 0b18 03       		.byte	0x3
 2383 0b19 00000000 		.4byte	idSeller
 2384 0b1d 06       		.uleb128 0x6
ARM GAS  C:\Users\RECEPC~1\AppData\Local\Temp\cc2rtZR1.s 			page 47


 2385 0b1e 33030000 		.4byte	0x333
 2386 0b22 16       		.uleb128 0x16
 2387 0b23 83050000 		.4byte	.LASF114
 2388 0b27 05       		.byte	0x5
 2389 0b28 46       		.byte	0x46
 2390 0b29 FE000000 		.4byte	0xfe
 2391 0b2d 05       		.uleb128 0x5
 2392 0b2e 03       		.byte	0x3
 2393 0b2f 00000000 		.4byte	typeIdSeller
 2394 0b33 07       		.uleb128 0x7
 2395 0b34 AD000000 		.4byte	0xad
 2396 0b38 430B0000 		.4byte	0xb43
 2397 0b3c 08       		.uleb128 0x8
 2398 0b3d 08010000 		.4byte	0x108
 2399 0b41 07       		.byte	0x7
 2400 0b42 00       		.byte	0
 2401 0b43 16       		.uleb128 0x16
 2402 0b44 02060000 		.4byte	.LASF115
 2403 0b48 05       		.byte	0x5
 2404 0b49 47       		.byte	0x47
 2405 0b4a 540B0000 		.4byte	0xb54
 2406 0b4e 05       		.uleb128 0x5
 2407 0b4f 03       		.byte	0x3
 2408 0b50 00000000 		.4byte	passwordSeller
 2409 0b54 06       		.uleb128 0x6
 2410 0b55 330B0000 		.4byte	0xb33
 2411 0b59 16       		.uleb128 0x16
 2412 0b5a 78040000 		.4byte	.LASF116
 2413 0b5e 05       		.byte	0x5
 2414 0b5f 48       		.byte	0x48
 2415 0b60 FE000000 		.4byte	0xfe
 2416 0b64 05       		.uleb128 0x5
 2417 0b65 03       		.byte	0x3
 2418 0b66 00000000 		.4byte	flagResetMux
 2419 0b6a 16       		.uleb128 0x16
 2420 0b6b FF030000 		.4byte	.LASF117
 2421 0b6f 05       		.byte	0x5
 2422 0b70 49       		.byte	0x49
 2423 0b71 FE000000 		.4byte	0xfe
 2424 0b75 05       		.uleb128 0x5
 2425 0b76 03       		.byte	0x3
 2426 0b77 00000000 		.4byte	stateBeagleSoft
 2427 0b7b 16       		.uleb128 0x16
 2428 0b7c 32000000 		.4byte	.LASF118
 2429 0b80 05       		.byte	0x5
 2430 0b81 4A       		.byte	0x4a
 2431 0b82 8C0B0000 		.4byte	0xb8c
 2432 0b86 05       		.uleb128 0x5
 2433 0b87 03       		.byte	0x3
 2434 0b88 00000000 		.4byte	PrevStatePump
 2435 0b8c 06       		.uleb128 0x6
 2436 0b8d 0F010000 		.4byte	0x10f
 2437 0b91 16       		.uleb128 0x16
 2438 0b92 7B010000 		.4byte	.LASF119
 2439 0b96 05       		.byte	0x5
 2440 0b97 4B       		.byte	0x4b
 2441 0b98 FE000000 		.4byte	0xfe
ARM GAS  C:\Users\RECEPC~1\AppData\Local\Temp\cc2rtZR1.s 			page 48


 2442 0b9c 05       		.uleb128 0x5
 2443 0b9d 03       		.byte	0x3
 2444 0b9e 00000000 		.4byte	PlateRequest
 2445 0ba2 16       		.uleb128 0x16
 2446 0ba3 5C050000 		.4byte	.LASF120
 2447 0ba7 05       		.byte	0x5
 2448 0ba8 4C       		.byte	0x4c
 2449 0ba9 B30B0000 		.4byte	0xbb3
 2450 0bad 05       		.uleb128 0x5
 2451 0bae 03       		.byte	0x3
 2452 0baf 00000000 		.4byte	IDCast
 2453 0bb3 06       		.uleb128 0x6
 2454 0bb4 63030000 		.4byte	0x363
 2455 0bb8 16       		.uleb128 0x16
 2456 0bb9 B9030000 		.4byte	.LASF121
 2457 0bbd 05       		.byte	0x5
 2458 0bbe 4D       		.byte	0x4d
 2459 0bbf FE000000 		.4byte	0xfe
 2460 0bc3 05       		.uleb128 0x5
 2461 0bc4 03       		.byte	0x3
 2462 0bc5 00000000 		.4byte	ActiveRF
 2463 0bc9 16       		.uleb128 0x16
 2464 0bca 71010000 		.4byte	.LASF122
 2465 0bce 05       		.byte	0x5
 2466 0bcf 4E       		.byte	0x4e
 2467 0bd0 FE000000 		.4byte	0xfe
 2468 0bd4 05       		.uleb128 0x5
 2469 0bd5 03       		.byte	0x3
 2470 0bd6 00000000 		.4byte	counterRF
 2471 0bda 07       		.uleb128 0x7
 2472 0bdb AD000000 		.4byte	0xad
 2473 0bdf EA0B0000 		.4byte	0xbea
 2474 0be3 08       		.uleb128 0x8
 2475 0be4 08010000 		.4byte	0x108
 2476 0be8 1D       		.byte	0x1d
 2477 0be9 00       		.byte	0
 2478 0bea 16       		.uleb128 0x16
 2479 0beb EA070000 		.4byte	.LASF123
 2480 0bef 05       		.byte	0x5
 2481 0bf0 4F       		.byte	0x4f
 2482 0bf1 FB0B0000 		.4byte	0xbfb
 2483 0bf5 05       		.uleb128 0x5
 2484 0bf6 03       		.byte	0x3
 2485 0bf7 00000000 		.4byte	temporal
 2486 0bfb 06       		.uleb128 0x6
 2487 0bfc DA0B0000 		.4byte	0xbda
 2488 0c00 16       		.uleb128 0x16
 2489 0c01 F0000000 		.4byte	.LASF124
 2490 0c05 05       		.byte	0x5
 2491 0c06 50       		.byte	0x50
 2492 0c07 110C0000 		.4byte	0xc11
 2493 0c0b 05       		.uleb128 0x5
 2494 0c0c 03       		.byte	0x3
 2495 0c0d 00000000 		.4byte	tempPreset
 2496 0c11 06       		.uleb128 0x6
 2497 0c12 330B0000 		.4byte	0xb33
 2498 0c16 16       		.uleb128 0x16
ARM GAS  C:\Users\RECEPC~1\AppData\Local\Temp\cc2rtZR1.s 			page 49


 2499 0c17 E1080000 		.4byte	.LASF125
 2500 0c1b 05       		.byte	0x5
 2501 0c1c 51       		.byte	0x51
 2502 0c1d 270C0000 		.4byte	0xc27
 2503 0c21 05       		.uleb128 0x5
 2504 0c22 03       		.byte	0x3
 2505 0c23 00000000 		.4byte	tempPPU
 2506 0c27 06       		.uleb128 0x6
 2507 0c28 89030000 		.4byte	0x389
 2508 0c2c 16       		.uleb128 0x16
 2509 0c2d 98010000 		.4byte	.LASF126
 2510 0c31 05       		.byte	0x5
 2511 0c32 52       		.byte	0x52
 2512 0c33 FE000000 		.4byte	0xfe
 2513 0c37 05       		.uleb128 0x5
 2514 0c38 03       		.byte	0x3
 2515 0c39 00000000 		.4byte	CGrade
 2516 0c3d 16       		.uleb128 0x16
 2517 0c3e 9F010000 		.4byte	.LASF127
 2518 0c42 05       		.byte	0x5
 2519 0c43 53       		.byte	0x53
 2520 0c44 FE000000 		.4byte	0xfe
 2521 0c48 05       		.uleb128 0x5
 2522 0c49 03       		.byte	0x3
 2523 0c4a 00000000 		.4byte	ShiftState
 2524 0c4e 16       		.uleb128 0x16
 2525 0c4f 22060000 		.4byte	.LASF128
 2526 0c53 05       		.byte	0x5
 2527 0c54 55       		.byte	0x55
 2528 0c55 AD000000 		.4byte	0xad
 2529 0c59 05       		.uleb128 0x5
 2530 0c5a 03       		.byte	0x3
 2531 0c5b 00000000 		.4byte	UnitType
 2532 0c5f 16       		.uleb128 0x16
 2533 0c60 3D030000 		.4byte	.LASF129
 2534 0c64 05       		.byte	0x5
 2535 0c65 55       		.byte	0x55
 2536 0c66 AD000000 		.4byte	0xad
 2537 0c6a 05       		.uleb128 0x5
 2538 0c6b 03       		.byte	0x3
 2539 0c6c 00000000 		.4byte	ConversionFactor
 2540 0c70 16       		.uleb128 0x16
 2541 0c71 AA010000 		.4byte	.LASF130
 2542 0c75 05       		.byte	0x5
 2543 0c76 55       		.byte	0x55
 2544 0c77 AD000000 		.4byte	0xad
 2545 0c7b 05       		.uleb128 0x5
 2546 0c7c 03       		.byte	0x3
 2547 0c7d 00000000 		.4byte	MoneyDec
 2548 0c81 16       		.uleb128 0x16
 2549 0c82 F3070000 		.4byte	.LASF131
 2550 0c86 05       		.byte	0x5
 2551 0c87 55       		.byte	0x55
 2552 0c88 AD000000 		.4byte	0xad
 2553 0c8c 05       		.uleb128 0x5
 2554 0c8d 03       		.byte	0x3
 2555 0c8e 00000000 		.4byte	VolDec
ARM GAS  C:\Users\RECEPC~1\AppData\Local\Temp\cc2rtZR1.s 			page 50


 2556 0c92 16       		.uleb128 0x16
 2557 0c93 A2060000 		.4byte	.LASF132
 2558 0c97 05       		.byte	0x5
 2559 0c98 55       		.byte	0x55
 2560 0c99 AD000000 		.4byte	0xad
 2561 0c9d 05       		.uleb128 0x5
 2562 0c9e 03       		.byte	0x3
 2563 0c9f 00000000 		.4byte	PPUDec
 2564 0ca3 16       		.uleb128 0x16
 2565 0ca4 02010000 		.4byte	.LASF133
 2566 0ca8 05       		.byte	0x5
 2567 0ca9 55       		.byte	0x55
 2568 0caa AD000000 		.4byte	0xad
 2569 0cae 05       		.uleb128 0x5
 2570 0caf 03       		.byte	0x3
 2571 0cb0 00000000 		.4byte	DDMode
 2572 0cb4 16       		.uleb128 0x16
 2573 0cb5 6C000000 		.4byte	.LASF134
 2574 0cb9 05       		.byte	0x5
 2575 0cba 56       		.byte	0x56
 2576 0cbb 0F010000 		.4byte	0x10f
 2577 0cbf 05       		.uleb128 0x5
 2578 0cc0 03       		.byte	0x3
 2579 0cc1 00000000 		.4byte	statePump
 2580 0cc5 16       		.uleb128 0x16
 2581 0cc6 F2030000 		.4byte	.LASF135
 2582 0cca 05       		.byte	0x5
 2583 0ccb 57       		.byte	0x57
 2584 0ccc AD000000 		.4byte	0xad
 2585 0cd0 05       		.uleb128 0x5
 2586 0cd1 03       		.byte	0x3
 2587 0cd2 00000000 		.4byte	NumPositions
 2588 0cd6 16       		.uleb128 0x16
 2589 0cd7 70020000 		.4byte	.LASF136
 2590 0cdb 05       		.byte	0x5
 2591 0cdc 58       		.byte	0x58
 2592 0cdd AD000000 		.4byte	0xad
 2593 0ce1 05       		.uleb128 0x5
 2594 0ce2 03       		.byte	0x3
 2595 0ce3 00000000 		.4byte	lockTurn
 2596 0ce7 16       		.uleb128 0x16
 2597 0ce8 22020000 		.4byte	.LASF137
 2598 0cec 05       		.byte	0x5
 2599 0ced 59       		.byte	0x59
 2600 0cee AD000000 		.4byte	0xad
 2601 0cf2 05       		.uleb128 0x5
 2602 0cf3 03       		.byte	0x3
 2603 0cf4 00000000 		.4byte	digits
 2604 0cf8 16       		.uleb128 0x16
 2605 0cf9 70050000 		.4byte	.LASF138
 2606 0cfd 05       		.byte	0x5
 2607 0cfe 5A       		.byte	0x5a
 2608 0cff AD000000 		.4byte	0xad
 2609 0d03 05       		.uleb128 0x5
 2610 0d04 03       		.byte	0x3
 2611 0d05 00000000 		.4byte	hiddenKeys
 2612 0d09 16       		.uleb128 0x16
ARM GAS  C:\Users\RECEPC~1\AppData\Local\Temp\cc2rtZR1.s 			page 51


 2613 0d0a C3000000 		.4byte	.LASF139
 2614 0d0e 05       		.byte	0x5
 2615 0d0f 5B       		.byte	0x5b
 2616 0d10 AD000000 		.4byte	0xad
 2617 0d14 05       		.uleb128 0x5
 2618 0d15 03       		.byte	0x3
 2619 0d16 00000000 		.4byte	PrinterType
 2620 0d1a 07       		.uleb128 0x7
 2621 0d1b EB000000 		.4byte	0xeb
 2622 0d1f 2A0D0000 		.4byte	0xd2a
 2623 0d23 08       		.uleb128 0x8
 2624 0d24 08010000 		.4byte	0x108
 2625 0d28 05       		.byte	0x5
 2626 0d29 00       		.byte	0
 2627 0d2a 16       		.uleb128 0x16
 2628 0d2b 54050000 		.4byte	.LASF140
 2629 0d2f 05       		.byte	0x5
 2630 0d30 5C       		.byte	0x5c
 2631 0d31 1A0D0000 		.4byte	0xd1a
 2632 0d35 05       		.uleb128 0x5
 2633 0d36 03       		.byte	0x3
 2634 0d37 00000000 		.4byte	VolUnit
 2635 0d3b 16       		.uleb128 0x16
 2636 0d3c 0B050000 		.4byte	.LASF141
 2637 0d40 05       		.byte	0x5
 2638 0d41 5D       		.byte	0x5d
 2639 0d42 A40A0000 		.4byte	0xaa4
 2640 0d46 05       		.uleb128 0x5
 2641 0d47 03       		.byte	0x3
 2642 0d48 00000000 		.4byte	dateDownHandle
 2643 0d4c 16       		.uleb128 0x16
 2644 0d4d 49040000 		.4byte	.LASF142
 2645 0d51 05       		.byte	0x5
 2646 0d52 5E       		.byte	0x5e
 2647 0d53 63030000 		.4byte	0x363
 2648 0d57 05       		.uleb128 0x5
 2649 0d58 03       		.byte	0x3
 2650 0d59 00000000 		.4byte	timeDownHandle
 2651 0d5d 16       		.uleb128 0x16
 2652 0d5e 2A080000 		.4byte	.LASF143
 2653 0d62 05       		.byte	0x5
 2654 0d63 5F       		.byte	0x5f
 2655 0d64 AD000000 		.4byte	0xad
 2656 0d68 05       		.uleb128 0x5
 2657 0d69 03       		.byte	0x3
 2658 0d6a 00000000 		.4byte	count_protector
 2659 0d6e 16       		.uleb128 0x16
 2660 0d6f 08000000 		.4byte	.LASF144
 2661 0d73 05       		.byte	0x5
 2662 0d74 5F       		.byte	0x5f
 2663 0d75 AD000000 		.4byte	0xad
 2664 0d79 05       		.uleb128 0x5
 2665 0d7a 03       		.byte	0x3
 2666 0d7b 00000000 		.4byte	count_protector2
 2667 0d7f 16       		.uleb128 0x16
 2668 0d80 0A020000 		.4byte	.LASF145
 2669 0d84 05       		.byte	0x5
ARM GAS  C:\Users\RECEPC~1\AppData\Local\Temp\cc2rtZR1.s 			page 52


 2670 0d85 60       		.byte	0x60
 2671 0d86 89030000 		.4byte	0x389
 2672 0d8a 05       		.uleb128 0x5
 2673 0d8b 03       		.byte	0x3
 2674 0d8c 00000000 		.4byte	configAccess
 2675 0d90 16       		.uleb128 0x16
 2676 0d91 65010000 		.4byte	.LASF146
 2677 0d95 05       		.byte	0x5
 2678 0d96 61       		.byte	0x61
 2679 0d97 AD000000 		.4byte	0xad
 2680 0d9b 05       		.uleb128 0x5
 2681 0d9c 03       		.byte	0x3
 2682 0d9d 00000000 		.4byte	controlChar
 2683 0da1 07       		.uleb128 0x7
 2684 0da2 EB000000 		.4byte	0xeb
 2685 0da6 B10D0000 		.4byte	0xdb1
 2686 0daa 08       		.uleb128 0x8
 2687 0dab 08010000 		.4byte	0x108
 2688 0daf 04       		.byte	0x4
 2689 0db0 00       		.byte	0
 2690 0db1 16       		.uleb128 0x16
 2691 0db2 0E010000 		.4byte	.LASF147
 2692 0db6 05       		.byte	0x5
 2693 0db7 62       		.byte	0x62
 2694 0db8 A10D0000 		.4byte	0xda1
 2695 0dbc 05       		.uleb128 0x5
 2696 0dbd 03       		.byte	0x3
 2697 0dbe 00000000 		.4byte	idStation
 2698 0dc2 16       		.uleb128 0x16
 2699 0dc3 E9080000 		.4byte	.LASF148
 2700 0dc7 05       		.byte	0x5
 2701 0dc8 63       		.byte	0x63
 2702 0dc9 A40A0000 		.4byte	0xaa4
 2703 0dcd 05       		.uleb128 0x5
 2704 0dce 03       		.byte	0x3
 2705 0dcf 00000000 		.4byte	pumpGap
 2706 0dd3 16       		.uleb128 0x16
 2707 0dd4 2E020000 		.4byte	.LASF149
 2708 0dd8 05       		.byte	0x5
 2709 0dd9 64       		.byte	0x64
 2710 0dda AD000000 		.4byte	0xad
 2711 0dde 05       		.uleb128 0x5
 2712 0ddf 03       		.byte	0x3
 2713 0de0 00000000 		.4byte	printPortA
 2714 0de4 16       		.uleb128 0x16
 2715 0de5 39020000 		.4byte	.LASF150
 2716 0de9 05       		.byte	0x5
 2717 0dea 65       		.byte	0x65
 2718 0deb AD000000 		.4byte	0xad
 2719 0def 05       		.uleb128 0x5
 2720 0df0 03       		.byte	0x3
 2721 0df1 00000000 		.4byte	printPortB
 2722 0df5 07       		.uleb128 0x7
 2723 0df6 AD000000 		.4byte	0xad
 2724 0dfa 060E0000 		.4byte	0xe06
 2725 0dfe 17       		.uleb128 0x17
 2726 0dff 08010000 		.4byte	0x108
ARM GAS  C:\Users\RECEPC~1\AppData\Local\Temp\cc2rtZR1.s 			page 53


 2727 0e03 FF01     		.2byte	0x1ff
 2728 0e05 00       		.byte	0
 2729 0e06 16       		.uleb128 0x16
 2730 0e07 93000000 		.4byte	.LASF151
 2731 0e0b 05       		.byte	0x5
 2732 0e0c 66       		.byte	0x66
 2733 0e0d F50D0000 		.4byte	0xdf5
 2734 0e11 05       		.uleb128 0x5
 2735 0e12 03       		.byte	0x3
 2736 0e13 00000000 		.4byte	buffer_rf
 2737 0e17 16       		.uleb128 0x16
 2738 0e18 88010000 		.4byte	.LASF152
 2739 0e1c 05       		.byte	0x5
 2740 0e1d 67       		.byte	0x67
 2741 0e1e F50D0000 		.4byte	0xdf5
 2742 0e22 05       		.uleb128 0x5
 2743 0e23 03       		.byte	0x3
 2744 0e24 00000000 		.4byte	buffer_tx
 2745 0e28 16       		.uleb128 0x16
 2746 0e29 93040000 		.4byte	.LASF153
 2747 0e2d 05       		.byte	0x5
 2748 0e2e 68       		.byte	0x68
 2749 0e2f F50D0000 		.4byte	0xdf5
 2750 0e33 05       		.uleb128 0x5
 2751 0e34 03       		.byte	0x3
 2752 0e35 00000000 		.4byte	buffer_txDisplay
 2753 0e39 16       		.uleb128 0x16
 2754 0e3a DC050000 		.4byte	.LASF154
 2755 0e3e 05       		.byte	0x5
 2756 0e3f 69       		.byte	0x69
 2757 0e40 B9000000 		.4byte	0xb9
 2758 0e44 05       		.uleb128 0x5
 2759 0e45 03       		.byte	0x3
 2760 0e46 00000000 		.4byte	intIDStation
 2761 0e4a 16       		.uleb128 0x16
 2762 0e4b 57060000 		.4byte	.LASF155
 2763 0e4f 05       		.byte	0x5
 2764 0e50 6A       		.byte	0x6a
 2765 0e51 DA0B0000 		.4byte	0xbda
 2766 0e55 05       		.uleb128 0x5
 2767 0e56 03       		.byte	0x3
 2768 0e57 00000000 		.4byte	Encabezado1
 2769 0e5b 16       		.uleb128 0x16
 2770 0e5c 63060000 		.4byte	.LASF156
 2771 0e60 05       		.byte	0x5
 2772 0e61 6B       		.byte	0x6b
 2773 0e62 DA0B0000 		.4byte	0xbda
 2774 0e66 05       		.uleb128 0x5
 2775 0e67 03       		.byte	0x3
 2776 0e68 00000000 		.4byte	Encabezado2
 2777 0e6c 16       		.uleb128 0x16
 2778 0e6d 6F060000 		.4byte	.LASF157
 2779 0e71 05       		.byte	0x5
 2780 0e72 6C       		.byte	0x6c
 2781 0e73 DA0B0000 		.4byte	0xbda
 2782 0e77 05       		.uleb128 0x5
 2783 0e78 03       		.byte	0x3
ARM GAS  C:\Users\RECEPC~1\AppData\Local\Temp\cc2rtZR1.s 			page 54


 2784 0e79 00000000 		.4byte	Encabezado3
 2785 0e7d 16       		.uleb128 0x16
 2786 0e7e 7B060000 		.4byte	.LASF158
 2787 0e82 05       		.byte	0x5
 2788 0e83 6D       		.byte	0x6d
 2789 0e84 DA0B0000 		.4byte	0xbda
 2790 0e88 05       		.uleb128 0x5
 2791 0e89 03       		.byte	0x3
 2792 0e8a 00000000 		.4byte	Encabezado4
 2793 0e8e 16       		.uleb128 0x16
 2794 0e8f 46050000 		.4byte	.LASF159
 2795 0e93 05       		.byte	0x5
 2796 0e94 6E       		.byte	0x6e
 2797 0e95 AD000000 		.4byte	0xad
 2798 0e99 05       		.uleb128 0x5
 2799 0e9a 03       		.byte	0x3
 2800 0e9b 00000000 		.4byte	CopiasCredito
 2801 0e9f 16       		.uleb128 0x16
 2802 0ea0 19000000 		.4byte	.LASF160
 2803 0ea4 05       		.byte	0x5
 2804 0ea5 6F       		.byte	0x6f
 2805 0ea6 89030000 		.4byte	0x389
 2806 0eaa 05       		.uleb128 0x5
 2807 0eab 03       		.byte	0x3
 2808 0eac 00000000 		.4byte	GradesHose
 2809 0eb0 16       		.uleb128 0x16
 2810 0eb1 B3010000 		.4byte	.LASF161
 2811 0eb5 05       		.byte	0x5
 2812 0eb6 A8       		.byte	0xa8
 2813 0eb7 1F010000 		.4byte	0x11f
 2814 0ebb 05       		.uleb128 0x5
 2815 0ebc 03       		.byte	0x3
 2816 0ebd 00000000 		.4byte	bufferDisplay1
 2817 0ec1 16       		.uleb128 0x16
 2818 0ec2 CD050000 		.4byte	.LASF162
 2819 0ec6 05       		.byte	0x5
 2820 0ec7 A9       		.byte	0xa9
 2821 0ec8 1F010000 		.4byte	0x11f
 2822 0ecc 05       		.uleb128 0x5
 2823 0ecd 03       		.byte	0x3
 2824 0ece 00000000 		.4byte	bufferDisplay2
 2825 0ed2 16       		.uleb128 0x16
 2826 0ed3 C7010000 		.4byte	.LASF163
 2827 0ed7 05       		.byte	0x5
 2828 0ed8 AA       		.byte	0xaa
 2829 0ed9 1F010000 		.4byte	0x11f
 2830 0edd 05       		.uleb128 0x5
 2831 0ede 03       		.byte	0x3
 2832 0edf 00000000 		.4byte	bufferDisplay3
 2833 0ee3 16       		.uleb128 0x16
 2834 0ee4 E9050000 		.4byte	.LASF164
 2835 0ee8 05       		.byte	0x5
 2836 0ee9 AB       		.byte	0xab
 2837 0eea 1F010000 		.4byte	0x11f
 2838 0eee 05       		.uleb128 0x5
 2839 0eef 03       		.byte	0x3
 2840 0ef0 00000000 		.4byte	bufferDisplay4
ARM GAS  C:\Users\RECEPC~1\AppData\Local\Temp\cc2rtZR1.s 			page 55


 2841 0ef4 16       		.uleb128 0x16
 2842 0ef5 09010000 		.4byte	.LASF165
 2843 0ef9 05       		.byte	0x5
 2844 0efa CF       		.byte	0xcf
 2845 0efb D5040000 		.4byte	0x4d5
 2846 0eff 05       		.uleb128 0x5
 2847 0f00 03       		.byte	0x3
 2848 0f01 00000000 		.4byte	side
 2849 0f05 18       		.uleb128 0x18
 2850 0f06 74070000 		.4byte	.LASF168
 2851 0f0a 06       		.byte	0x6
 2852 0f0b 73       		.byte	0x73
 2853 0f0c AD000000 		.4byte	0xad
 2854 0f10 19       		.uleb128 0x19
 2855 0f11 37010000 		.4byte	.LASF177
 2856 0f15 09       		.byte	0x9
 2857 0f16 2B       		.byte	0x2b
 2858 0f17 EB000000 		.4byte	0xeb
 2859 0f1b 250F0000 		.4byte	0xf25
 2860 0f1f 1A       		.uleb128 0x1a
 2861 0f20 AD000000 		.4byte	0xad
 2862 0f24 00       		.byte	0
 2863 0f25 1B       		.uleb128 0x1b
 2864 0f26 ED010000 		.4byte	.LASF166
 2865 0f2a 09       		.byte	0x9
 2866 0f2b 24       		.byte	0x24
 2867 0f2c 540F0000 		.4byte	0xf54
 2868 0f30 1A       		.uleb128 0x1a
 2869 0f31 8C000000 		.4byte	0x8c
 2870 0f35 1A       		.uleb128 0x1a
 2871 0f36 8C000000 		.4byte	0x8c
 2872 0f3a 1A       		.uleb128 0x1a
 2873 0f3b 97000000 		.4byte	0x97
 2874 0f3f 1A       		.uleb128 0x1a
 2875 0f40 97000000 		.4byte	0x97
 2876 0f44 1A       		.uleb128 0x1a
 2877 0f45 8C000000 		.4byte	0x8c
 2878 0f49 1A       		.uleb128 0x1a
 2879 0f4a 97000000 		.4byte	0x97
 2880 0f4e 1A       		.uleb128 0x1a
 2881 0f4f 8C000000 		.4byte	0x8c
 2882 0f53 00       		.byte	0
 2883 0f54 1B       		.uleb128 0x1b
 2884 0f55 00000000 		.4byte	.LASF167
 2885 0f59 0A       		.byte	0xa
 2886 0f5a 77       		.byte	0x77
 2887 0f5b 650F0000 		.4byte	0xf65
 2888 0f5f 1A       		.uleb128 0x1a
 2889 0f60 C5000000 		.4byte	0xc5
 2890 0f64 00       		.byte	0
 2891 0f65 1C       		.uleb128 0x1c
 2892 0f66 8B080000 		.4byte	.LASF170
 2893 0f6a 06       		.byte	0x6
 2894 0f6b 75       		.byte	0x75
 2895 0f6c 18       		.uleb128 0x18
 2896 0f6d 0F040000 		.4byte	.LASF169
 2897 0f71 07       		.byte	0x7
ARM GAS  C:\Users\RECEPC~1\AppData\Local\Temp\cc2rtZR1.s 			page 56


 2898 0f72 73       		.byte	0x73
 2899 0f73 AD000000 		.4byte	0xad
 2900 0f77 1C       		.uleb128 0x1c
 2901 0f78 90050000 		.4byte	.LASF171
 2902 0f7c 07       		.byte	0x7
 2903 0f7d 75       		.byte	0x75
 2904 0f7e 00       		.byte	0
 2905              		.section	.debug_abbrev,"",%progbits
 2906              	.Ldebug_abbrev0:
 2907 0000 01       		.uleb128 0x1
 2908 0001 11       		.uleb128 0x11
 2909 0002 01       		.byte	0x1
 2910 0003 25       		.uleb128 0x25
 2911 0004 0E       		.uleb128 0xe
 2912 0005 13       		.uleb128 0x13
 2913 0006 0B       		.uleb128 0xb
 2914 0007 03       		.uleb128 0x3
 2915 0008 0E       		.uleb128 0xe
 2916 0009 1B       		.uleb128 0x1b
 2917 000a 0E       		.uleb128 0xe
 2918 000b 55       		.uleb128 0x55
 2919 000c 17       		.uleb128 0x17
 2920 000d 11       		.uleb128 0x11
 2921 000e 01       		.uleb128 0x1
 2922 000f 10       		.uleb128 0x10
 2923 0010 17       		.uleb128 0x17
 2924 0011 00       		.byte	0
 2925 0012 00       		.byte	0
 2926 0013 02       		.uleb128 0x2
 2927 0014 24       		.uleb128 0x24
 2928 0015 00       		.byte	0
 2929 0016 0B       		.uleb128 0xb
 2930 0017 0B       		.uleb128 0xb
 2931 0018 3E       		.uleb128 0x3e
 2932 0019 0B       		.uleb128 0xb
 2933 001a 03       		.uleb128 0x3
 2934 001b 0E       		.uleb128 0xe
 2935 001c 00       		.byte	0
 2936 001d 00       		.byte	0
 2937 001e 03       		.uleb128 0x3
 2938 001f 16       		.uleb128 0x16
 2939 0020 00       		.byte	0
 2940 0021 03       		.uleb128 0x3
 2941 0022 0E       		.uleb128 0xe
 2942 0023 3A       		.uleb128 0x3a
 2943 0024 0B       		.uleb128 0xb
 2944 0025 3B       		.uleb128 0x3b
 2945 0026 0B       		.uleb128 0xb
 2946 0027 49       		.uleb128 0x49
 2947 0028 13       		.uleb128 0x13
 2948 0029 00       		.byte	0
 2949 002a 00       		.byte	0
 2950 002b 04       		.uleb128 0x4
 2951 002c 24       		.uleb128 0x24
 2952 002d 00       		.byte	0
 2953 002e 0B       		.uleb128 0xb
 2954 002f 0B       		.uleb128 0xb
ARM GAS  C:\Users\RECEPC~1\AppData\Local\Temp\cc2rtZR1.s 			page 57


 2955 0030 3E       		.uleb128 0x3e
 2956 0031 0B       		.uleb128 0xb
 2957 0032 03       		.uleb128 0x3
 2958 0033 08       		.uleb128 0x8
 2959 0034 00       		.byte	0
 2960 0035 00       		.byte	0
 2961 0036 05       		.uleb128 0x5
 2962 0037 16       		.uleb128 0x16
 2963 0038 00       		.byte	0
 2964 0039 03       		.uleb128 0x3
 2965 003a 0E       		.uleb128 0xe
 2966 003b 3A       		.uleb128 0x3a
 2967 003c 0B       		.uleb128 0xb
 2968 003d 3B       		.uleb128 0x3b
 2969 003e 05       		.uleb128 0x5
 2970 003f 49       		.uleb128 0x49
 2971 0040 13       		.uleb128 0x13
 2972 0041 00       		.byte	0
 2973 0042 00       		.byte	0
 2974 0043 06       		.uleb128 0x6
 2975 0044 35       		.uleb128 0x35
 2976 0045 00       		.byte	0
 2977 0046 49       		.uleb128 0x49
 2978 0047 13       		.uleb128 0x13
 2979 0048 00       		.byte	0
 2980 0049 00       		.byte	0
 2981 004a 07       		.uleb128 0x7
 2982 004b 01       		.uleb128 0x1
 2983 004c 01       		.byte	0x1
 2984 004d 49       		.uleb128 0x49
 2985 004e 13       		.uleb128 0x13
 2986 004f 01       		.uleb128 0x1
 2987 0050 13       		.uleb128 0x13
 2988 0051 00       		.byte	0
 2989 0052 00       		.byte	0
 2990 0053 08       		.uleb128 0x8
 2991 0054 21       		.uleb128 0x21
 2992 0055 00       		.byte	0
 2993 0056 49       		.uleb128 0x49
 2994 0057 13       		.uleb128 0x13
 2995 0058 2F       		.uleb128 0x2f
 2996 0059 0B       		.uleb128 0xb
 2997 005a 00       		.byte	0
 2998 005b 00       		.byte	0
 2999 005c 09       		.uleb128 0x9
 3000 005d 13       		.uleb128 0x13
 3001 005e 01       		.byte	0x1
 3002 005f 03       		.uleb128 0x3
 3003 0060 0E       		.uleb128 0xe
 3004 0061 0B       		.uleb128 0xb
 3005 0062 05       		.uleb128 0x5
 3006 0063 3A       		.uleb128 0x3a
 3007 0064 0B       		.uleb128 0xb
 3008 0065 3B       		.uleb128 0x3b
 3009 0066 0B       		.uleb128 0xb
 3010 0067 01       		.uleb128 0x1
 3011 0068 13       		.uleb128 0x13
ARM GAS  C:\Users\RECEPC~1\AppData\Local\Temp\cc2rtZR1.s 			page 58


 3012 0069 00       		.byte	0
 3013 006a 00       		.byte	0
 3014 006b 0A       		.uleb128 0xa
 3015 006c 0D       		.uleb128 0xd
 3016 006d 00       		.byte	0
 3017 006e 03       		.uleb128 0x3
 3018 006f 0E       		.uleb128 0xe
 3019 0070 3A       		.uleb128 0x3a
 3020 0071 0B       		.uleb128 0xb
 3021 0072 3B       		.uleb128 0x3b
 3022 0073 0B       		.uleb128 0xb
 3023 0074 49       		.uleb128 0x49
 3024 0075 13       		.uleb128 0x13
 3025 0076 38       		.uleb128 0x38
 3026 0077 0B       		.uleb128 0xb
 3027 0078 00       		.byte	0
 3028 0079 00       		.byte	0
 3029 007a 0B       		.uleb128 0xb
 3030 007b 0D       		.uleb128 0xd
 3031 007c 00       		.byte	0
 3032 007d 03       		.uleb128 0x3
 3033 007e 0E       		.uleb128 0xe
 3034 007f 3A       		.uleb128 0x3a
 3035 0080 0B       		.uleb128 0xb
 3036 0081 3B       		.uleb128 0x3b
 3037 0082 0B       		.uleb128 0xb
 3038 0083 49       		.uleb128 0x49
 3039 0084 13       		.uleb128 0x13
 3040 0085 38       		.uleb128 0x38
 3041 0086 05       		.uleb128 0x5
 3042 0087 00       		.byte	0
 3043 0088 00       		.byte	0
 3044 0089 0C       		.uleb128 0xc
 3045 008a 0D       		.uleb128 0xd
 3046 008b 00       		.byte	0
 3047 008c 03       		.uleb128 0x3
 3048 008d 08       		.uleb128 0x8
 3049 008e 3A       		.uleb128 0x3a
 3050 008f 0B       		.uleb128 0xb
 3051 0090 3B       		.uleb128 0x3b
 3052 0091 0B       		.uleb128 0xb
 3053 0092 49       		.uleb128 0x49
 3054 0093 13       		.uleb128 0x13
 3055 0094 38       		.uleb128 0x38
 3056 0095 0B       		.uleb128 0xb
 3057 0096 00       		.byte	0
 3058 0097 00       		.byte	0
 3059 0098 0D       		.uleb128 0xd
 3060 0099 0D       		.uleb128 0xd
 3061 009a 00       		.byte	0
 3062 009b 03       		.uleb128 0x3
 3063 009c 08       		.uleb128 0x8
 3064 009d 3A       		.uleb128 0x3a
 3065 009e 0B       		.uleb128 0xb
 3066 009f 3B       		.uleb128 0x3b
 3067 00a0 0B       		.uleb128 0xb
 3068 00a1 49       		.uleb128 0x49
ARM GAS  C:\Users\RECEPC~1\AppData\Local\Temp\cc2rtZR1.s 			page 59


 3069 00a2 13       		.uleb128 0x13
 3070 00a3 38       		.uleb128 0x38
 3071 00a4 05       		.uleb128 0x5
 3072 00a5 00       		.byte	0
 3073 00a6 00       		.byte	0
 3074 00a7 0E       		.uleb128 0xe
 3075 00a8 2E       		.uleb128 0x2e
 3076 00a9 01       		.byte	0x1
 3077 00aa 3F       		.uleb128 0x3f
 3078 00ab 19       		.uleb128 0x19
 3079 00ac 03       		.uleb128 0x3
 3080 00ad 0E       		.uleb128 0xe
 3081 00ae 3A       		.uleb128 0x3a
 3082 00af 0B       		.uleb128 0xb
 3083 00b0 3B       		.uleb128 0x3b
 3084 00b1 0B       		.uleb128 0xb
 3085 00b2 27       		.uleb128 0x27
 3086 00b3 19       		.uleb128 0x19
 3087 00b4 49       		.uleb128 0x49
 3088 00b5 13       		.uleb128 0x13
 3089 00b6 11       		.uleb128 0x11
 3090 00b7 01       		.uleb128 0x1
 3091 00b8 12       		.uleb128 0x12
 3092 00b9 06       		.uleb128 0x6
 3093 00ba 40       		.uleb128 0x40
 3094 00bb 18       		.uleb128 0x18
 3095 00bc 9742     		.uleb128 0x2117
 3096 00be 19       		.uleb128 0x19
 3097 00bf 01       		.uleb128 0x1
 3098 00c0 13       		.uleb128 0x13
 3099 00c1 00       		.byte	0
 3100 00c2 00       		.byte	0
 3101 00c3 0F       		.uleb128 0xf
 3102 00c4 05       		.uleb128 0x5
 3103 00c5 00       		.byte	0
 3104 00c6 03       		.uleb128 0x3
 3105 00c7 08       		.uleb128 0x8
 3106 00c8 3A       		.uleb128 0x3a
 3107 00c9 0B       		.uleb128 0xb
 3108 00ca 3B       		.uleb128 0x3b
 3109 00cb 0B       		.uleb128 0xb
 3110 00cc 49       		.uleb128 0x49
 3111 00cd 13       		.uleb128 0x13
 3112 00ce 02       		.uleb128 0x2
 3113 00cf 17       		.uleb128 0x17
 3114 00d0 00       		.byte	0
 3115 00d1 00       		.byte	0
 3116 00d2 10       		.uleb128 0x10
 3117 00d3 05       		.uleb128 0x5
 3118 00d4 00       		.byte	0
 3119 00d5 03       		.uleb128 0x3
 3120 00d6 0E       		.uleb128 0xe
 3121 00d7 3A       		.uleb128 0x3a
 3122 00d8 0B       		.uleb128 0xb
 3123 00d9 3B       		.uleb128 0x3b
 3124 00da 0B       		.uleb128 0xb
 3125 00db 49       		.uleb128 0x49
ARM GAS  C:\Users\RECEPC~1\AppData\Local\Temp\cc2rtZR1.s 			page 60


 3126 00dc 13       		.uleb128 0x13
 3127 00dd 02       		.uleb128 0x2
 3128 00de 17       		.uleb128 0x17
 3129 00df 00       		.byte	0
 3130 00e0 00       		.byte	0
 3131 00e1 11       		.uleb128 0x11
 3132 00e2 34       		.uleb128 0x34
 3133 00e3 00       		.byte	0
 3134 00e4 03       		.uleb128 0x3
 3135 00e5 0E       		.uleb128 0xe
 3136 00e6 3A       		.uleb128 0x3a
 3137 00e7 0B       		.uleb128 0xb
 3138 00e8 3B       		.uleb128 0x3b
 3139 00e9 0B       		.uleb128 0xb
 3140 00ea 49       		.uleb128 0x49
 3141 00eb 13       		.uleb128 0x13
 3142 00ec 02       		.uleb128 0x2
 3143 00ed 17       		.uleb128 0x17
 3144 00ee 00       		.byte	0
 3145 00ef 00       		.byte	0
 3146 00f0 12       		.uleb128 0x12
 3147 00f1 898201   		.uleb128 0x4109
 3148 00f4 00       		.byte	0
 3149 00f5 11       		.uleb128 0x11
 3150 00f6 01       		.uleb128 0x1
 3151 00f7 31       		.uleb128 0x31
 3152 00f8 13       		.uleb128 0x13
 3153 00f9 00       		.byte	0
 3154 00fa 00       		.byte	0
 3155 00fb 13       		.uleb128 0x13
 3156 00fc 898201   		.uleb128 0x4109
 3157 00ff 01       		.byte	0x1
 3158 0100 11       		.uleb128 0x11
 3159 0101 01       		.uleb128 0x1
 3160 0102 31       		.uleb128 0x31
 3161 0103 13       		.uleb128 0x13
 3162 0104 01       		.uleb128 0x1
 3163 0105 13       		.uleb128 0x13
 3164 0106 00       		.byte	0
 3165 0107 00       		.byte	0
 3166 0108 14       		.uleb128 0x14
 3167 0109 8A8201   		.uleb128 0x410a
 3168 010c 00       		.byte	0
 3169 010d 02       		.uleb128 0x2
 3170 010e 18       		.uleb128 0x18
 3171 010f 9142     		.uleb128 0x2111
 3172 0111 18       		.uleb128 0x18
 3173 0112 00       		.byte	0
 3174 0113 00       		.byte	0
 3175 0114 15       		.uleb128 0x15
 3176 0115 34       		.uleb128 0x34
 3177 0116 00       		.byte	0
 3178 0117 03       		.uleb128 0x3
 3179 0118 0E       		.uleb128 0xe
 3180 0119 3A       		.uleb128 0x3a
 3181 011a 0B       		.uleb128 0xb
 3182 011b 3B       		.uleb128 0x3b
ARM GAS  C:\Users\RECEPC~1\AppData\Local\Temp\cc2rtZR1.s 			page 61


 3183 011c 05       		.uleb128 0x5
 3184 011d 49       		.uleb128 0x49
 3185 011e 13       		.uleb128 0x13
 3186 011f 3F       		.uleb128 0x3f
 3187 0120 19       		.uleb128 0x19
 3188 0121 3C       		.uleb128 0x3c
 3189 0122 19       		.uleb128 0x19
 3190 0123 00       		.byte	0
 3191 0124 00       		.byte	0
 3192 0125 16       		.uleb128 0x16
 3193 0126 34       		.uleb128 0x34
 3194 0127 00       		.byte	0
 3195 0128 03       		.uleb128 0x3
 3196 0129 0E       		.uleb128 0xe
 3197 012a 3A       		.uleb128 0x3a
 3198 012b 0B       		.uleb128 0xb
 3199 012c 3B       		.uleb128 0x3b
 3200 012d 0B       		.uleb128 0xb
 3201 012e 49       		.uleb128 0x49
 3202 012f 13       		.uleb128 0x13
 3203 0130 3F       		.uleb128 0x3f
 3204 0131 19       		.uleb128 0x19
 3205 0132 02       		.uleb128 0x2
 3206 0133 18       		.uleb128 0x18
 3207 0134 00       		.byte	0
 3208 0135 00       		.byte	0
 3209 0136 17       		.uleb128 0x17
 3210 0137 21       		.uleb128 0x21
 3211 0138 00       		.byte	0
 3212 0139 49       		.uleb128 0x49
 3213 013a 13       		.uleb128 0x13
 3214 013b 2F       		.uleb128 0x2f
 3215 013c 05       		.uleb128 0x5
 3216 013d 00       		.byte	0
 3217 013e 00       		.byte	0
 3218 013f 18       		.uleb128 0x18
 3219 0140 2E       		.uleb128 0x2e
 3220 0141 00       		.byte	0
 3221 0142 3F       		.uleb128 0x3f
 3222 0143 19       		.uleb128 0x19
 3223 0144 03       		.uleb128 0x3
 3224 0145 0E       		.uleb128 0xe
 3225 0146 3A       		.uleb128 0x3a
 3226 0147 0B       		.uleb128 0xb
 3227 0148 3B       		.uleb128 0x3b
 3228 0149 0B       		.uleb128 0xb
 3229 014a 27       		.uleb128 0x27
 3230 014b 19       		.uleb128 0x19
 3231 014c 49       		.uleb128 0x49
 3232 014d 13       		.uleb128 0x13
 3233 014e 3C       		.uleb128 0x3c
 3234 014f 19       		.uleb128 0x19
 3235 0150 00       		.byte	0
 3236 0151 00       		.byte	0
 3237 0152 19       		.uleb128 0x19
 3238 0153 2E       		.uleb128 0x2e
 3239 0154 01       		.byte	0x1
ARM GAS  C:\Users\RECEPC~1\AppData\Local\Temp\cc2rtZR1.s 			page 62


 3240 0155 3F       		.uleb128 0x3f
 3241 0156 19       		.uleb128 0x19
 3242 0157 03       		.uleb128 0x3
 3243 0158 0E       		.uleb128 0xe
 3244 0159 3A       		.uleb128 0x3a
 3245 015a 0B       		.uleb128 0xb
 3246 015b 3B       		.uleb128 0x3b
 3247 015c 0B       		.uleb128 0xb
 3248 015d 27       		.uleb128 0x27
 3249 015e 19       		.uleb128 0x19
 3250 015f 49       		.uleb128 0x49
 3251 0160 13       		.uleb128 0x13
 3252 0161 3C       		.uleb128 0x3c
 3253 0162 19       		.uleb128 0x19
 3254 0163 01       		.uleb128 0x1
 3255 0164 13       		.uleb128 0x13
 3256 0165 00       		.byte	0
 3257 0166 00       		.byte	0
 3258 0167 1A       		.uleb128 0x1a
 3259 0168 05       		.uleb128 0x5
 3260 0169 00       		.byte	0
 3261 016a 49       		.uleb128 0x49
 3262 016b 13       		.uleb128 0x13
 3263 016c 00       		.byte	0
 3264 016d 00       		.byte	0
 3265 016e 1B       		.uleb128 0x1b
 3266 016f 2E       		.uleb128 0x2e
 3267 0170 01       		.byte	0x1
 3268 0171 3F       		.uleb128 0x3f
 3269 0172 19       		.uleb128 0x19
 3270 0173 03       		.uleb128 0x3
 3271 0174 0E       		.uleb128 0xe
 3272 0175 3A       		.uleb128 0x3a
 3273 0176 0B       		.uleb128 0xb
 3274 0177 3B       		.uleb128 0x3b
 3275 0178 0B       		.uleb128 0xb
 3276 0179 27       		.uleb128 0x27
 3277 017a 19       		.uleb128 0x19
 3278 017b 3C       		.uleb128 0x3c
 3279 017c 19       		.uleb128 0x19
 3280 017d 01       		.uleb128 0x1
 3281 017e 13       		.uleb128 0x13
 3282 017f 00       		.byte	0
 3283 0180 00       		.byte	0
 3284 0181 1C       		.uleb128 0x1c
 3285 0182 2E       		.uleb128 0x2e
 3286 0183 00       		.byte	0
 3287 0184 3F       		.uleb128 0x3f
 3288 0185 19       		.uleb128 0x19
 3289 0186 03       		.uleb128 0x3
 3290 0187 0E       		.uleb128 0xe
 3291 0188 3A       		.uleb128 0x3a
 3292 0189 0B       		.uleb128 0xb
 3293 018a 3B       		.uleb128 0x3b
 3294 018b 0B       		.uleb128 0xb
 3295 018c 27       		.uleb128 0x27
 3296 018d 19       		.uleb128 0x19
ARM GAS  C:\Users\RECEPC~1\AppData\Local\Temp\cc2rtZR1.s 			page 63


 3297 018e 3C       		.uleb128 0x3c
 3298 018f 19       		.uleb128 0x19
 3299 0190 00       		.byte	0
 3300 0191 00       		.byte	0
 3301 0192 00       		.byte	0
 3302              		.section	.debug_loc,"",%progbits
 3303              	.Ldebug_loc0:
 3304              	.LLST0:
 3305 0000 00000000 		.4byte	.LVL0
 3306 0004 11000000 		.4byte	.LVL2-1
 3307 0008 0100     		.2byte	0x1
 3308 000a 50       		.byte	0x50
 3309 000b 11000000 		.4byte	.LVL2-1
 3310 000f 2E020000 		.4byte	.LVL34
 3311 0013 0400     		.2byte	0x4
 3312 0015 F3       		.byte	0xf3
 3313 0016 01       		.uleb128 0x1
 3314 0017 50       		.byte	0x50
 3315 0018 9F       		.byte	0x9f
 3316 0019 2E020000 		.4byte	.LVL34
 3317 001d 31020000 		.4byte	.LVL35-1
 3318 0021 0100     		.2byte	0x1
 3319 0023 50       		.byte	0x50
 3320 0024 31020000 		.4byte	.LVL35-1
 3321 0028 94040000 		.4byte	.LFE63
 3322 002c 0400     		.2byte	0x4
 3323 002e F3       		.byte	0xf3
 3324 002f 01       		.uleb128 0x1
 3325 0030 50       		.byte	0x50
 3326 0031 9F       		.byte	0x9f
 3327 0032 00000000 		.4byte	0
 3328 0036 00000000 		.4byte	0
 3329              	.LLST1:
 3330 003a 00000000 		.4byte	.LVL0
 3331 003e 11000000 		.4byte	.LVL2-1
 3332 0042 0100     		.2byte	0x1
 3333 0044 51       		.byte	0x51
 3334 0045 11000000 		.4byte	.LVL2-1
 3335 0049 2E020000 		.4byte	.LVL34
 3336 004d 0400     		.2byte	0x4
 3337 004f F3       		.byte	0xf3
 3338 0050 01       		.uleb128 0x1
 3339 0051 51       		.byte	0x51
 3340 0052 9F       		.byte	0x9f
 3341 0053 2E020000 		.4byte	.LVL34
 3342 0057 31020000 		.4byte	.LVL35-1
 3343 005b 0100     		.2byte	0x1
 3344 005d 51       		.byte	0x51
 3345 005e 31020000 		.4byte	.LVL35-1
 3346 0062 94040000 		.4byte	.LFE63
 3347 0066 0400     		.2byte	0x4
 3348 0068 F3       		.byte	0xf3
 3349 0069 01       		.uleb128 0x1
 3350 006a 51       		.byte	0x51
 3351 006b 9F       		.byte	0x9f
 3352 006c 00000000 		.4byte	0
 3353 0070 00000000 		.4byte	0
ARM GAS  C:\Users\RECEPC~1\AppData\Local\Temp\cc2rtZR1.s 			page 64


 3354              	.LLST2:
 3355 0074 00000000 		.4byte	.LVL0
 3356 0078 11000000 		.4byte	.LVL2-1
 3357 007c 0100     		.2byte	0x1
 3358 007e 52       		.byte	0x52
 3359 007f 11000000 		.4byte	.LVL2-1
 3360 0083 2E020000 		.4byte	.LVL34
 3361 0087 0400     		.2byte	0x4
 3362 0089 F3       		.byte	0xf3
 3363 008a 01       		.uleb128 0x1
 3364 008b 52       		.byte	0x52
 3365 008c 9F       		.byte	0x9f
 3366 008d 2E020000 		.4byte	.LVL34
 3367 0091 31020000 		.4byte	.LVL35-1
 3368 0095 0100     		.2byte	0x1
 3369 0097 52       		.byte	0x52
 3370 0098 31020000 		.4byte	.LVL35-1
 3371 009c 94040000 		.4byte	.LFE63
 3372 00a0 0400     		.2byte	0x4
 3373 00a2 F3       		.byte	0xf3
 3374 00a3 01       		.uleb128 0x1
 3375 00a4 52       		.byte	0x52
 3376 00a5 9F       		.byte	0x9f
 3377 00a6 00000000 		.4byte	0
 3378 00aa 00000000 		.4byte	0
 3379              	.LLST3:
 3380 00ae 08000000 		.4byte	.LVL1
 3381 00b2 54000000 		.4byte	.LVL4
 3382 00b6 0200     		.2byte	0x2
 3383 00b8 30       		.byte	0x30
 3384 00b9 9F       		.byte	0x9f
 3385 00ba 54000000 		.4byte	.LVL4
 3386 00be 84000000 		.4byte	.LVL5
 3387 00c2 0100     		.2byte	0x1
 3388 00c4 50       		.byte	0x50
 3389 00c5 98000000 		.4byte	.LVL7
 3390 00c9 9E000000 		.4byte	.LVL8
 3391 00cd 0100     		.2byte	0x1
 3392 00cf 50       		.byte	0x50
 3393 00d0 B4000000 		.4byte	.LVL10
 3394 00d4 E4000000 		.4byte	.LVL11
 3395 00d8 0100     		.2byte	0x1
 3396 00da 50       		.byte	0x50
 3397 00db E4000000 		.4byte	.LVL11
 3398 00df F8000000 		.4byte	.LVL13
 3399 00e3 0100     		.2byte	0x1
 3400 00e5 55       		.byte	0x55
 3401 00e6 F8000000 		.4byte	.LVL13
 3402 00ea FE000000 		.4byte	.LVL14
 3403 00ee 0100     		.2byte	0x1
 3404 00f0 50       		.byte	0x50
 3405 00f1 FE000000 		.4byte	.LVL14
 3406 00f5 14010000 		.4byte	.LVL16
 3407 00f9 0100     		.2byte	0x1
 3408 00fb 55       		.byte	0x55
 3409 00fc 14010000 		.4byte	.LVL16
 3410 0100 58010000 		.4byte	.LVL17
ARM GAS  C:\Users\RECEPC~1\AppData\Local\Temp\cc2rtZR1.s 			page 65


 3411 0104 0100     		.2byte	0x1
 3412 0106 50       		.byte	0x50
 3413 0107 6C010000 		.4byte	.LVL19
 3414 010b 72010000 		.4byte	.LVL20
 3415 010f 0100     		.2byte	0x1
 3416 0111 50       		.byte	0x50
 3417 0112 88010000 		.4byte	.LVL22
 3418 0116 8A010000 		.4byte	.LVL23
 3419 011a 0200     		.2byte	0x2
 3420 011c 30       		.byte	0x30
 3421 011d 9F       		.byte	0x9f
 3422 011e 8A010000 		.4byte	.LVL23
 3423 0122 20020000 		.4byte	.LVL31
 3424 0126 0100     		.2byte	0x1
 3425 0128 55       		.byte	0x55
 3426 0129 2E020000 		.4byte	.LVL34
 3427 012d 74020000 		.4byte	.LVL37
 3428 0131 0200     		.2byte	0x2
 3429 0133 30       		.byte	0x30
 3430 0134 9F       		.byte	0x9f
 3431 0135 74020000 		.4byte	.LVL37
 3432 0139 B0020000 		.4byte	.LVL38
 3433 013d 0100     		.2byte	0x1
 3434 013f 50       		.byte	0x50
 3435 0140 D8020000 		.4byte	.LVL40
 3436 0144 EA020000 		.4byte	.LVL41
 3437 0148 0100     		.2byte	0x1
 3438 014a 50       		.byte	0x50
 3439 014b F6020000 		.4byte	.LVL43
 3440 014f 32030000 		.4byte	.LVL44
 3441 0153 0100     		.2byte	0x1
 3442 0155 50       		.byte	0x50
 3443 0156 32030000 		.4byte	.LVL44
 3444 015a 3C030000 		.4byte	.LVL46
 3445 015e 0100     		.2byte	0x1
 3446 0160 55       		.byte	0x55
 3447 0161 3C030000 		.4byte	.LVL46
 3448 0165 4E030000 		.4byte	.LVL47
 3449 0169 0100     		.2byte	0x1
 3450 016b 50       		.byte	0x50
 3451 016c 4E030000 		.4byte	.LVL47
 3452 0170 5A030000 		.4byte	.LVL49
 3453 0174 0100     		.2byte	0x1
 3454 0176 55       		.byte	0x55
 3455 0177 5A030000 		.4byte	.LVL49
 3456 017b AC030000 		.4byte	.LVL50
 3457 017f 0100     		.2byte	0x1
 3458 0181 50       		.byte	0x50
 3459 0182 B6030000 		.4byte	.LVL52
 3460 0186 C8030000 		.4byte	.LVL53
 3461 018a 0100     		.2byte	0x1
 3462 018c 50       		.byte	0x50
 3463 018d D4030000 		.4byte	.LVL55
 3464 0191 D6030000 		.4byte	.LVL56
 3465 0195 0200     		.2byte	0x2
 3466 0197 30       		.byte	0x30
 3467 0198 9F       		.byte	0x9f
ARM GAS  C:\Users\RECEPC~1\AppData\Local\Temp\cc2rtZR1.s 			page 66


 3468 0199 D6030000 		.4byte	.LVL56
 3469 019d 68040000 		.4byte	.LVL64
 3470 01a1 0100     		.2byte	0x1
 3471 01a3 55       		.byte	0x55
 3472 01a4 76040000 		.4byte	.LVL67
 3473 01a8 7C040000 		.4byte	.LVL68
 3474 01ac 0200     		.2byte	0x2
 3475 01ae 30       		.byte	0x30
 3476 01af 9F       		.byte	0x9f
 3477 01b0 00000000 		.4byte	0
 3478 01b4 00000000 		.4byte	0
 3479              		.section	.debug_aranges,"",%progbits
 3480 0000 1C000000 		.4byte	0x1c
 3481 0004 0200     		.2byte	0x2
 3482 0006 00000000 		.4byte	.Ldebug_info0
 3483 000a 04       		.byte	0x4
 3484 000b 00       		.byte	0
 3485 000c 0000     		.2byte	0
 3486 000e 0000     		.2byte	0
 3487 0010 00000000 		.4byte	.LFB63
 3488 0014 94040000 		.4byte	.LFE63-.LFB63
 3489 0018 00000000 		.4byte	0
 3490 001c 00000000 		.4byte	0
 3491              		.section	.debug_ranges,"",%progbits
 3492              	.Ldebug_ranges0:
 3493 0000 00000000 		.4byte	.LFB63
 3494 0004 94040000 		.4byte	.LFE63
 3495 0008 00000000 		.4byte	0
 3496 000c 00000000 		.4byte	0
 3497              		.section	.debug_line,"",%progbits
 3498              	.Ldebug_line0:
 3499 0000 49020000 		.section	.debug_str,"MS",%progbits,1
 3499      02009001 
 3499      00000201 
 3499      FB0E0D00 
 3499      01010101 
 3500              	.LASF167:
 3501 0000 43794465 		.ascii	"CyDelay\000"
 3501      6C617900 
 3502              	.LASF144:
 3503 0008 636F756E 		.ascii	"count_protector2\000"
 3503      745F7072 
 3503      6F746563 
 3503      746F7232 
 3503      00
 3504              	.LASF160:
 3505 0019 47726164 		.ascii	"GradesHose\000"
 3505      6573486F 
 3505      736500
 3506              	.LASF107:
 3507 0024 64656369 		.ascii	"decimalVolume\000"
 3507      6D616C56 
 3507      6F6C756D 
 3507      6500
 3508              	.LASF118:
 3509 0032 50726576 		.ascii	"PrevStatePump\000"
 3509      53746174 
ARM GAS  C:\Users\RECEPC~1\AppData\Local\Temp\cc2rtZR1.s 			page 67


 3509      6550756D 
 3509      7000
 3510              	.LASF78:
 3511 0040 70756D70 		.ascii	"pumpState\000"
 3511      53746174 
 3511      6500
 3512              	.LASF90:
 3513 004a 636F756E 		.ascii	"countRX\000"
 3513      74525800 
 3514              	.LASF81:
 3515 0052 52467374 		.ascii	"RFstateReport\000"
 3515      61746552 
 3515      65706F72 
 3515      7400
 3516              	.LASF57:
 3517 0060 766F6C75 		.ascii	"volumeQuota\000"
 3517      6D655175 
 3517      6F746100 
 3518              	.LASF134:
 3519 006c 73746174 		.ascii	"statePump\000"
 3519      6550756D 
 3519      7000
 3520              	.LASF66:
 3521 0076 62756666 		.ascii	"buffer\000"
 3521      657200
 3522              	.LASF175:
 3523 007d 616C7068 		.ascii	"alphanumeric_keyboard\000"
 3523      616E756D 
 3523      65726963 
 3523      5F6B6579 
 3523      626F6172 
 3524              	.LASF151:
 3525 0093 62756666 		.ascii	"buffer_rf\000"
 3525      65725F72 
 3525      6600
 3526              	.LASF106:
 3527 009d 64656369 		.ascii	"decimalMoney\000"
 3527      6D616C4D 
 3527      6F6E6579 
 3527      00
 3528              	.LASF36:
 3529 00aa 73616C65 		.ascii	"salePerform\000"
 3529      50657266 
 3529      6F726D00 
 3530              	.LASF11:
 3531 00b6 756E7369 		.ascii	"unsigned int\000"
 3531      676E6564 
 3531      20696E74 
 3531      00
 3532              	.LASF139:
 3533 00c3 5072696E 		.ascii	"PrinterType\000"
 3533      74657254 
 3533      79706500 
 3534              	.LASF6:
 3535 00cf 5F5F696E 		.ascii	"__int32_t\000"
 3535      7433325F 
 3535      7400
ARM GAS  C:\Users\RECEPC~1\AppData\Local\Temp\cc2rtZR1.s 			page 68


 3536              	.LASF54:
 3537 00d9 666C6167 		.ascii	"flagLiftHandle\000"
 3537      4C696674 
 3537      48616E64 
 3537      6C6500
 3538              	.LASF112:
 3539 00e8 72657369 		.ascii	"residue\000"
 3539      64756500 
 3540              	.LASF124:
 3541 00f0 74656D70 		.ascii	"tempPreset\000"
 3541      50726573 
 3541      657400
 3542              	.LASF24:
 3543 00fb 69645479 		.ascii	"idType\000"
 3543      706500
 3544              	.LASF133:
 3545 0102 44444D6F 		.ascii	"DDMode\000"
 3545      646500
 3546              	.LASF165:
 3547 0109 73696465 		.ascii	"side\000"
 3547      00
 3548              	.LASF147:
 3549 010e 69645374 		.ascii	"idStation\000"
 3549      6174696F 
 3549      6E00
 3550              	.LASF28:
 3551 0118 73656C65 		.ascii	"selectedSale\000"
 3551      63746564 
 3551      53616C65 
 3551      00
 3552              	.LASF86:
 3553 0125 44697370 		.ascii	"Display2_rxBuffer\000"
 3553      6C617932 
 3553      5F727842 
 3553      75666665 
 3553      7200
 3554              	.LASF177:
 3555 0137 556E6D61 		.ascii	"UnmapCode\000"
 3555      70436F64 
 3555      6500
 3556              	.LASF101:
 3557 0141 666C6167 		.ascii	"flagPoint2\000"
 3557      506F696E 
 3557      743200
 3558              	.LASF91:
 3559 014c 636F756E 		.ascii	"countTX\000"
 3559      74545800 
 3560              	.LASF79:
 3561 0154 6368616E 		.ascii	"changePPU\000"
 3561      67655050 
 3561      5500
 3562              	.LASF111:
 3563 015e 73637265 		.ascii	"screen\000"
 3563      656E00
 3564              	.LASF146:
 3565 0165 636F6E74 		.ascii	"controlChar\000"
 3565      726F6C43 
ARM GAS  C:\Users\RECEPC~1\AppData\Local\Temp\cc2rtZR1.s 			page 69


 3565      68617200 
 3566              	.LASF122:
 3567 0171 636F756E 		.ascii	"counterRF\000"
 3567      74657252 
 3567      4600
 3568              	.LASF119:
 3569 017b 506C6174 		.ascii	"PlateRequest\000"
 3569      65526571 
 3569      75657374 
 3569      00
 3570              	.LASF152:
 3571 0188 62756666 		.ascii	"buffer_tx\000"
 3571      65725F74 
 3571      7800
 3572              	.LASF18:
 3573 0192 666C6F61 		.ascii	"float\000"
 3573      7400
 3574              	.LASF126:
 3575 0198 43477261 		.ascii	"CGrade\000"
 3575      646500
 3576              	.LASF127:
 3577 019f 53686966 		.ascii	"ShiftState\000"
 3577      74537461 
 3577      746500
 3578              	.LASF130:
 3579 01aa 4D6F6E65 		.ascii	"MoneyDec\000"
 3579      79446563 
 3579      00
 3580              	.LASF161:
 3581 01b3 62756666 		.ascii	"bufferDisplay1\000"
 3581      65724469 
 3581      73706C61 
 3581      793100
 3582              	.LASF75:
 3583 01c2 686F7365 		.ascii	"hose\000"
 3583      00
 3584              	.LASF163:
 3585 01c7 62756666 		.ascii	"bufferDisplay3\000"
 3585      65724469 
 3585      73706C61 
 3585      793300
 3586              	.LASF10:
 3587 01d6 6C6F6E67 		.ascii	"long long unsigned int\000"
 3587      206C6F6E 
 3587      6720756E 
 3587      7369676E 
 3587      65642069 
 3588              	.LASF166:
 3589 01ed 57726974 		.ascii	"WriteLCD\000"
 3589      654C4344 
 3589      00
 3590              	.LASF44:
 3591 01f6 746F7461 		.ascii	"totalVolumePrevious\000"
 3591      6C566F6C 
 3591      756D6550 
 3591      72657669 
 3591      6F757300 
ARM GAS  C:\Users\RECEPC~1\AppData\Local\Temp\cc2rtZR1.s 			page 70


 3592              	.LASF145:
 3593 020a 636F6E66 		.ascii	"configAccess\000"
 3593      69674163 
 3593      63657373 
 3593      00
 3594              	.LASF4:
 3595 0217 5F5F7569 		.ascii	"__uint16_t\000"
 3595      6E743136 
 3595      5F7400
 3596              	.LASF137:
 3597 0222 64696769 		.ascii	"digits\000"
 3597      747300
 3598              	.LASF109:
 3599 0229 74696D65 		.ascii	"time\000"
 3599      00
 3600              	.LASF149:
 3601 022e 7072696E 		.ascii	"printPortA\000"
 3601      74506F72 
 3601      744100
 3602              	.LASF150:
 3603 0239 7072696E 		.ascii	"printPortB\000"
 3603      74506F72 
 3603      744200
 3604              	.LASF39:
 3605 0244 70726F64 		.ascii	"productType\000"
 3605      75637454 
 3605      79706500 
 3606              	.LASF102:
 3607 0250 70726F64 		.ascii	"productNumber\000"
 3607      7563744E 
 3607      756D6265 
 3607      7200
 3608              	.LASF113:
 3609 025e 69645365 		.ascii	"idSeller\000"
 3609      6C6C6572 
 3609      00
 3610              	.LASF25:
 3611 0267 69645365 		.ascii	"idSerial\000"
 3611      7269616C 
 3611      00
 3612              	.LASF136:
 3613 0270 6C6F636B 		.ascii	"lockTurn\000"
 3613      5475726E 
 3613      00
 3614              	.LASF176:
 3615 0279 50726573 		.ascii	"PressedKey\000"
 3615      7365644B 
 3615      657900
 3616              	.LASF93:
 3617 0284 636F756E 		.ascii	"countLCD\000"
 3617      744C4344 
 3617      00
 3618              	.LASF173:
 3619 028d 2E5C6B65 		.ascii	".\\keyboard.c\000"
 3619      79626F61 
 3619      72642E63 
 3619      00
ARM GAS  C:\Users\RECEPC~1\AppData\Local\Temp\cc2rtZR1.s 			page 71


 3620              	.LASF50:
 3621 029a 6D696C65 		.ascii	"mileageSale\000"
 3621      61676553 
 3621      616C6500 
 3622              	.LASF61:
 3623 02a6 666C6167 		.ascii	"flagChangePPU\000"
 3623      4368616E 
 3623      67655050 
 3623      5500
 3624              	.LASF84:
 3625 02b4 63686172 		.ascii	"character\000"
 3625      61637465 
 3625      7200
 3626              	.LASF63:
 3627 02be 666C6167 		.ascii	"flagActiveSale\000"
 3627      41637469 
 3627      76655361 
 3627      6C6500
 3628              	.LASF94:
 3629 02cd 666C6F77 		.ascii	"flowDisplay1\000"
 3629      44697370 
 3629      6C617931 
 3629      00
 3630              	.LASF95:
 3631 02da 666C6F77 		.ascii	"flowDisplay2\000"
 3631      44697370 
 3631      6C617932 
 3631      00
 3632              	.LASF96:
 3633 02e7 666C6F77 		.ascii	"flowDisplay3\000"
 3633      44697370 
 3633      6C617933 
 3633      00
 3634              	.LASF97:
 3635 02f4 666C6F77 		.ascii	"flowDisplay4\000"
 3635      44697370 
 3635      6C617934 
 3635      00
 3636              	.LASF68:
 3637 0301 746F7461 		.ascii	"totalsHandle\000"
 3637      6C734861 
 3637      6E646C65 
 3637      00
 3638              	.LASF38:
 3639 030e 70726573 		.ascii	"presetValue\000"
 3639      65745661 
 3639      6C756500 
 3640              	.LASF51:
 3641 031a 6964656E 		.ascii	"identySale\000"
 3641      74795361 
 3641      6C6500
 3642              	.LASF35:
 3643 0325 73616C65 		.ascii	"saleType\000"
 3643      54797065 
 3643      00
 3644              	.LASF33:
 3645 032e 76616C75 		.ascii	"valueKeys\000"
ARM GAS  C:\Users\RECEPC~1\AppData\Local\Temp\cc2rtZR1.s 			page 72


 3645      654B6579 
 3645      7300
 3646              	.LASF22:
 3647 0338 63686172 		.ascii	"char\000"
 3647      00
 3648              	.LASF129:
 3649 033d 436F6E76 		.ascii	"ConversionFactor\000"
 3649      65727369 
 3649      6F6E4661 
 3649      63746F72 
 3649      00
 3650              	.LASF98:
 3651 034e 6E756D62 		.ascii	"numberKeys1\000"
 3651      65724B65 
 3651      79733100 
 3652              	.LASF99:
 3653 035a 6E756D62 		.ascii	"numberKeys2\000"
 3653      65724B65 
 3653      79733200 
 3654              	.LASF16:
 3655 0366 75696E74 		.ascii	"uint16\000"
 3655      313600
 3656              	.LASF110:
 3657 036d 64617465 		.ascii	"date\000"
 3657      00
 3658              	.LASF12:
 3659 0372 75696E74 		.ascii	"uint8_t\000"
 3659      385F7400 
 3660              	.LASF53:
 3661 037a 666C6167 		.ascii	"flagPayment\000"
 3661      5061796D 
 3661      656E7400 
 3662              	.LASF21:
 3663 0386 63686172 		.ascii	"char8\000"
 3663      3800
 3664              	.LASF58:
 3665 038c 70707551 		.ascii	"ppuQuota\000"
 3665      756F7461 
 3665      00
 3666              	.LASF46:
 3667 0395 746F7461 		.ascii	"totalMoneyAfter\000"
 3667      6C4D6F6E 
 3667      65794166 
 3667      74657200 
 3668              	.LASF56:
 3669 03a5 6D6F6E65 		.ascii	"moneyQuota\000"
 3669      7951756F 
 3669      746100
 3670              	.LASF60:
 3671 03b0 7072696E 		.ascii	"printers\000"
 3671      74657273 
 3671      00
 3672              	.LASF121:
 3673 03b9 41637469 		.ascii	"ActiveRF\000"
 3673      76655246 
 3673      00
 3674              	.LASF70:
ARM GAS  C:\Users\RECEPC~1\AppData\Local\Temp\cc2rtZR1.s 			page 73


 3675 03c2 6D6F6E65 		.ascii	"moneySale\000"
 3675      7953616C 
 3675      6500
 3676              	.LASF9:
 3677 03cc 6C6F6E67 		.ascii	"long long int\000"
 3677      206C6F6E 
 3677      6720696E 
 3677      7400
 3678              	.LASF72:
 3679 03da 70707553 		.ascii	"ppuSale\000"
 3679      616C6500 
 3680              	.LASF88:
 3681 03e2 636F756E 		.ascii	"countAnimation1\000"
 3681      74416E69 
 3681      6D617469 
 3681      6F6E3100 
 3682              	.LASF135:
 3683 03f2 4E756D50 		.ascii	"NumPositions\000"
 3683      6F736974 
 3683      696F6E73 
 3683      00
 3684              	.LASF117:
 3685 03ff 73746174 		.ascii	"stateBeagleSoft\000"
 3685      65426561 
 3685      676C6553 
 3685      6F667400 
 3686              	.LASF169:
 3687 040f 44697370 		.ascii	"Display2_GetRxBufferSize\000"
 3687      6C617932 
 3687      5F476574 
 3687      52784275 
 3687      66666572 
 3688              	.LASF45:
 3689 0428 746F7461 		.ascii	"totalPPUPrevious\000"
 3689      6C505055 
 3689      50726576 
 3689      696F7573 
 3689      00
 3690              	.LASF89:
 3691 0439 636F756E 		.ascii	"countAnimation2\000"
 3691      74416E69 
 3691      6D617469 
 3691      6F6E3200 
 3692              	.LASF142:
 3693 0449 74696D65 		.ascii	"timeDownHandle\000"
 3693      446F776E 
 3693      48616E64 
 3693      6C6500
 3694              	.LASF34:
 3695 0458 76656869 		.ascii	"vehicleType\000"
 3695      636C6554 
 3695      79706500 
 3696              	.LASF52:
 3697 0464 666C6167 		.ascii	"flagKeyboard\000"
 3697      4B657962 
 3697      6F617264 
 3697      00
ARM GAS  C:\Users\RECEPC~1\AppData\Local\Temp\cc2rtZR1.s 			page 74


 3698              	.LASF17:
 3699 0471 75696E74 		.ascii	"uint32\000"
 3699      333200
 3700              	.LASF116:
 3701 0478 666C6167 		.ascii	"flagResetMux\000"
 3701      52657365 
 3701      744D7578 
 3701      00
 3702              	.LASF83:
 3703 0485 6D61784E 		.ascii	"maxNumberKeys\000"
 3703      756D6265 
 3703      724B6579 
 3703      7300
 3704              	.LASF153:
 3705 0493 62756666 		.ascii	"buffer_txDisplay\000"
 3705      65725F74 
 3705      78446973 
 3705      706C6179 
 3705      00
 3706              	.LASF48:
 3707 04a4 746F7461 		.ascii	"totalPPUAfter\000"
 3707      6C505055 
 3707      41667465 
 3707      7200
 3708              	.LASF13:
 3709 04b2 75696E74 		.ascii	"uint16_t\000"
 3709      31365F74 
 3709      00
 3710              	.LASF31:
 3711 04bb 6B657962 		.ascii	"keyboardWayToPay\000"
 3711      6F617264 
 3711      57617954 
 3711      6F506179 
 3711      00
 3712              	.LASF105:
 3713 04cc 70707578 		.ascii	"ppux10\000"
 3713      313000
 3714              	.LASF43:
 3715 04d3 746F7461 		.ascii	"totalMoneyPrevious\000"
 3715      6C4D6F6E 
 3715      65795072 
 3715      6576696F 
 3715      757300
 3716              	.LASF100:
 3717 04e6 666C6167 		.ascii	"flagPoint1\000"
 3717      506F696E 
 3717      743100
 3718              	.LASF29:
 3719 04f1 6D6F6E65 		.ascii	"moneySelectedSale\000"
 3719      7953656C 
 3719      65637465 
 3719      6453616C 
 3719      6500
 3720              	.LASF108:
 3721 0503 73796D62 		.ascii	"symbols\000"
 3721      6F6C7300 
 3722              	.LASF141:
ARM GAS  C:\Users\RECEPC~1\AppData\Local\Temp\cc2rtZR1.s 			page 75


 3723 050b 64617465 		.ascii	"dateDownHandle\000"
 3723      446F776E 
 3723      48616E64 
 3723      6C6500
 3724              	.LASF49:
 3725 051a 6C696365 		.ascii	"licenceSale\000"
 3725      6E636553 
 3725      616C6500 
 3726              	.LASF59:
 3727 0526 70726963 		.ascii	"priceConsign\000"
 3727      65436F6E 
 3727      7369676E 
 3727      00
 3728              	.LASF2:
 3729 0533 73686F72 		.ascii	"short int\000"
 3729      7420696E 
 3729      7400
 3730              	.LASF7:
 3731 053d 6C6F6E67 		.ascii	"long int\000"
 3731      20696E74 
 3731      00
 3732              	.LASF159:
 3733 0546 436F7069 		.ascii	"CopiasCredito\000"
 3733      61734372 
 3733      65646974 
 3733      6F00
 3734              	.LASF140:
 3735 0554 566F6C55 		.ascii	"VolUnit\000"
 3735      6E697400 
 3736              	.LASF120:
 3737 055c 49444361 		.ascii	"IDCast\000"
 3737      737400
 3738              	.LASF87:
 3739 0563 49544D5F 		.ascii	"ITM_RxBuffer\000"
 3739      52784275 
 3739      66666572 
 3739      00
 3740              	.LASF138:
 3741 0570 68696464 		.ascii	"hiddenKeys\000"
 3741      656E4B65 
 3741      797300
 3742              	.LASF64:
 3743 057b 73686966 		.ascii	"shiftId\000"
 3743      74496400 
 3744              	.LASF114:
 3745 0583 74797065 		.ascii	"typeIdSeller\000"
 3745      49645365 
 3745      6C6C6572 
 3745      00
 3746              	.LASF171:
 3747 0590 44697370 		.ascii	"Display2_ClearRxBuffer\000"
 3747      6C617932 
 3747      5F436C65 
 3747      61725278 
 3747      42756666 
 3748              	.LASF55:
 3749 05a7 666C6167 		.ascii	"flagEndSale\000"
ARM GAS  C:\Users\RECEPC~1\AppData\Local\Temp\cc2rtZR1.s 			page 76


 3749      456E6453 
 3749      616C6500 
 3750              	.LASF41:
 3751 05b3 64617465 		.ascii	"dateLiftHandle\000"
 3751      4C696674 
 3751      48616E64 
 3751      6C6500
 3752              	.LASF76:
 3753 05c2 686F7365 		.ascii	"hoseNumber\000"
 3753      4E756D62 
 3753      657200
 3754              	.LASF162:
 3755 05cd 62756666 		.ascii	"bufferDisplay2\000"
 3755      65724469 
 3755      73706C61 
 3755      793200
 3756              	.LASF154:
 3757 05dc 696E7449 		.ascii	"intIDStation\000"
 3757      44537461 
 3757      74696F6E 
 3757      00
 3758              	.LASF164:
 3759 05e9 62756666 		.ascii	"bufferDisplay4\000"
 3759      65724469 
 3759      73706C61 
 3759      793400
 3760              	.LASF3:
 3761 05f8 5F5F7569 		.ascii	"__uint8_t\000"
 3761      6E74385F 
 3761      7400
 3762              	.LASF115:
 3763 0602 70617373 		.ascii	"passwordSeller\000"
 3763      776F7264 
 3763      53656C6C 
 3763      657200
 3764              	.LASF47:
 3765 0611 746F7461 		.ascii	"totalVolumeAfter\000"
 3765      6C566F6C 
 3765      756D6541 
 3765      66746572 
 3765      00
 3766              	.LASF128:
 3767 0622 556E6974 		.ascii	"UnitType\000"
 3767      54797065 
 3767      00
 3768              	.LASF20:
 3769 062b 75696E74 		.ascii	"uint64\000"
 3769      363400
 3770              	.LASF103:
 3771 0632 64656C61 		.ascii	"delayPicture1\000"
 3771      79506963 
 3771      74757265 
 3771      3100
 3772              	.LASF104:
 3773 0640 64656C61 		.ascii	"delayPicture2\000"
 3773      79506963 
 3773      74757265 
ARM GAS  C:\Users\RECEPC~1\AppData\Local\Temp\cc2rtZR1.s 			page 77


 3773      3200
 3774              	.LASF40:
 3775 064e 73746174 		.ascii	"stateMux\000"
 3775      654D7578 
 3775      00
 3776              	.LASF155:
 3777 0657 456E6361 		.ascii	"Encabezado1\000"
 3777      62657A61 
 3777      646F3100 
 3778              	.LASF156:
 3779 0663 456E6361 		.ascii	"Encabezado2\000"
 3779      62657A61 
 3779      646F3200 
 3780              	.LASF157:
 3781 066f 456E6361 		.ascii	"Encabezado3\000"
 3781      62657A61 
 3781      646F3300 
 3782              	.LASF158:
 3783 067b 456E6361 		.ascii	"Encabezado4\000"
 3783      62657A61 
 3783      646F3400 
 3784              	.LASF23:
 3785 0687 73697A65 		.ascii	"sizetype\000"
 3785      74797065 
 3785      00
 3786              	.LASF8:
 3787 0690 6C6F6E67 		.ascii	"long unsigned int\000"
 3787      20756E73 
 3787      69676E65 
 3787      6420696E 
 3787      7400
 3788              	.LASF132:
 3789 06a2 50505544 		.ascii	"PPUDec\000"
 3789      656300
 3790              	.LASF74:
 3791 06a9 61637469 		.ascii	"activeHose\000"
 3791      7665486F 
 3791      736500
 3792              	.LASF62:
 3793 06b4 666C6167 		.ascii	"flagPrint\000"
 3793      5072696E 
 3793      7400
 3794              	.LASF14:
 3795 06be 696E7433 		.ascii	"int32_t\000"
 3795      325F7400 
 3796              	.LASF27:
 3797 06c6 666C6167 		.ascii	"flagWayToPayMixed\000"
 3797      57617954 
 3797      6F506179 
 3797      4D697865 
 3797      6400
 3798              	.LASF1:
 3799 06d8 756E7369 		.ascii	"unsigned char\000"
 3799      676E6564 
 3799      20636861 
 3799      7200
 3800              	.LASF172:
ARM GAS  C:\Users\RECEPC~1\AppData\Local\Temp\cc2rtZR1.s 			page 78


 3801 06e6 474E5520 		.ascii	"GNU C 4.9.3 20150303 (release) [ARM/embedded-4_9-br"
 3801      4320342E 
 3801      392E3320 
 3801      32303135 
 3801      30333033 
 3802 0719 616E6368 		.ascii	"anch revision 221220] -mcpu=cortex-m3 -mthumb -g -O"
 3802      20726576 
 3802      6973696F 
 3802      6E203232 
 3802      31323230 
 3803 074c 67202D66 		.ascii	"g -ffunction-sections -ffat-lto-objects\000"
 3803      66756E63 
 3803      74696F6E 
 3803      2D736563 
 3803      74696F6E 
 3804              	.LASF168:
 3805 0774 44697370 		.ascii	"Display1_GetRxBufferSize\000"
 3805      6C617931 
 3805      5F476574 
 3805      52784275 
 3805      66666572 
 3806              	.LASF32:
 3807 078d 61757468 		.ascii	"authorizationFlag\000"
 3807      6F72697A 
 3807      6174696F 
 3807      6E466C61 
 3807      6700
 3808              	.LASF82:
 3809 079f 70756D70 		.ascii	"pump\000"
 3809      00
 3810              	.LASF174:
 3811 07a4 433A5C55 		.ascii	"C:\\Users\\Recepcion\\Documents\\GitHub\\NSY-DH\\Wo"
 3811      73657273 
 3811      5C526563 
 3811      65706369 
 3811      6F6E5C44 
 3812 07d1 726B7370 		.ascii	"rkspace01\\Design01.cydsn\000"
 3812      61636530 
 3812      315C4465 
 3812      7369676E 
 3812      30312E63 
 3813              	.LASF123:
 3814 07ea 74656D70 		.ascii	"temporal\000"
 3814      6F72616C 
 3814      00
 3815              	.LASF131:
 3816 07f3 566F6C44 		.ascii	"VolDec\000"
 3816      656300
 3817              	.LASF37:
 3818 07fa 70726573 		.ascii	"presetType\000"
 3818      65745479 
 3818      706500
 3819              	.LASF71:
 3820 0805 766F6C75 		.ascii	"volumeSale\000"
 3820      6D655361 
 3820      6C6500
 3821              	.LASF65:
ARM GAS  C:\Users\RECEPC~1\AppData\Local\Temp\cc2rtZR1.s 			page 79


 3822 0810 73686966 		.ascii	"shiftPassword\000"
 3822      74506173 
 3822      73776F72 
 3822      6400
 3823              	.LASF0:
 3824 081e 7369676E 		.ascii	"signed char\000"
 3824      65642063 
 3824      68617200 
 3825              	.LASF143:
 3826 082a 636F756E 		.ascii	"count_protector\000"
 3826      745F7072 
 3826      6F746563 
 3826      746F7200 
 3827              	.LASF5:
 3828 083a 73686F72 		.ascii	"short unsigned int\000"
 3828      7420756E 
 3828      7369676E 
 3828      65642069 
 3828      6E7400
 3829              	.LASF92:
 3830 084d 636F756E 		.ascii	"countPump\000"
 3830      7450756D 
 3830      7000
 3831              	.LASF85:
 3832 0857 44697370 		.ascii	"Display1_rxBuffer\000"
 3832      6C617931 
 3832      5F727842 
 3832      75666665 
 3832      7200
 3833              	.LASF73:
 3834 0869 70726F64 		.ascii	"productSale\000"
 3834      75637453 
 3834      616C6500 
 3835              	.LASF15:
 3836 0875 75696E74 		.ascii	"uint8\000"
 3836      3800
 3837              	.LASF19:
 3838 087b 646F7562 		.ascii	"double\000"
 3838      6C6500
 3839              	.LASF26:
 3840 0882 77617954 		.ascii	"wayToPay\000"
 3840      6F506179 
 3840      00
 3841              	.LASF170:
 3842 088b 44697370 		.ascii	"Display1_ClearRxBuffer\000"
 3842      6C617931 
 3842      5F436C65 
 3842      61725278 
 3842      42756666 
 3843              	.LASF80:
 3844 08a2 67726164 		.ascii	"grade\000"
 3844      6500
 3845              	.LASF42:
 3846 08a8 74696D65 		.ascii	"timeLiftHandle\000"
 3846      4C696674 
 3846      48616E64 
 3846      6C6500
ARM GAS  C:\Users\RECEPC~1\AppData\Local\Temp\cc2rtZR1.s 			page 80


 3847              	.LASF69:
 3848 08b7 70707541 		.ascii	"ppuAuthorized\000"
 3848      7574686F 
 3848      72697A65 
 3848      6400
 3849              	.LASF30:
 3850 08c5 73657269 		.ascii	"serialSelectedSale\000"
 3850      616C5365 
 3850      6C656374 
 3850      65645361 
 3850      6C6500
 3851              	.LASF67:
 3852 08d8 706F7369 		.ascii	"position\000"
 3852      74696F6E 
 3852      00
 3853              	.LASF125:
 3854 08e1 74656D70 		.ascii	"tempPPU\000"
 3854      50505500 
 3855              	.LASF148:
 3856 08e9 70756D70 		.ascii	"pumpGap\000"
 3856      47617000 
 3857              	.LASF77:
 3858 08f1 72665374 		.ascii	"rfState\000"
 3858      61746500 
 3859              		.ident	"GCC: (GNU Tools for ARM Embedded Processors) 4.9.3 20150303 (release) [ARM/embedded-4_9-br
