ARM GAS  C:\Users\RECEPC~1\AppData\Local\Temp\ccFNC6Qx.s 			page 1


   1              		.syntax unified
   2              		.cpu cortex-m3
   3              		.fpu softvfp
   4              		.eabi_attribute 20, 1
   5              		.eabi_attribute 21, 1
   6              		.eabi_attribute 23, 3
   7              		.eabi_attribute 24, 1
   8              		.eabi_attribute 25, 1
   9              		.eabi_attribute 26, 1
  10              		.eabi_attribute 30, 1
  11              		.eabi_attribute 34, 1
  12              		.eabi_attribute 18, 4
  13              		.thumb
  14              		.file	"LCD.c"
  15              		.text
  16              	.Ltext0:
  17              		.cfi_sections	.debug_frame
  18              		.section	.text.SetPicture,"ax",%progbits
  19              		.align	2
  20              		.global	SetPicture
  21              		.thumb
  22              		.thumb_func
  23              		.type	SetPicture, %function
  24              	SetPicture:
  25              	.LFB63:
  26              		.file 1 ".\\LCD.c"
   1:.\LCD.c       **** /*
   2:.\LCD.c       **** ***************************************************************************************************
   3:.\LCD.c       **** *                                         MUX ADVANCE CODE
   4:.\LCD.c       **** *
   5:.\LCD.c       **** *                             (c) Copyright 2016; Sistemas Insepet LTDA
   6:.\LCD.c       **** *
   7:.\LCD.c       **** *               All rights reserved.  Protected by international copyright laws.
   8:.\LCD.c       **** *               Knowledge of the source code may NOT be used to develop a similar product.
   9:.\LCD.c       **** *               Please help us continue to provide the Embedded community with the finest
  10:.\LCD.c       **** *               software available.  Your honesty is greatly appreciated.
  11:.\LCD.c       **** ***************************************************************************************************
  12:.\LCD.c       **** */
  13:.\LCD.c       **** 
  14:.\LCD.c       **** /*
  15:.\LCD.c       **** ***************************************************************************************************
  16:.\LCD.c       **** *
  17:.\LCD.c       **** *                                            MUX ADVANCE CODE
  18:.\LCD.c       **** *
  19:.\LCD.c       **** *                                             CYPRESS PSoC5LP
  20:.\LCD.c       **** *                                                with the
  21:.\LCD.c       **** *                                            CY8C5969AXI-LP035
  22:.\LCD.c       **** *
  23:.\LCD.c       **** * Filename      : LCD.c
  24:.\LCD.c       **** * Version       : V1.00
  25:.\LCD.c       **** * Programmer(s) : 
  26:.\LCD.c       ****                   
  27:.\LCD.c       **** ***************************************************************************************************
  28:.\LCD.c       **** */
  29:.\LCD.c       **** 
  30:.\LCD.c       **** /*
  31:.\LCD.c       **** ***************************************************************************************************
ARM GAS  C:\Users\RECEPC~1\AppData\Local\Temp\ccFNC6Qx.s 			page 2


  32:.\LCD.c       **** *                                             INCLUDE FILES
  33:.\LCD.c       **** ***************************************************************************************************
  34:.\LCD.c       **** */
  35:.\LCD.c       **** 
  36:.\LCD.c       **** #include <device.h>
  37:.\LCD.c       **** #include "variables.h"
  38:.\LCD.c       **** //#include "operations.h"
  39:.\LCD.c       **** //#include "I2C.h"
  40:.\LCD.c       **** #include "LCD.h"
  41:.\LCD.c       **** 
  42:.\LCD.c       **** 
  43:.\LCD.c       **** /*
  44:.\LCD.c       **** ***************************************************************************************************
  45:.\LCD.c       **** *                                        void SetPicture(uint8 lcd, uint16 picture)
  46:.\LCD.c       **** *
  47:.\LCD.c       **** * Description : 
  48:.\LCD.c       **** *               
  49:.\LCD.c       **** *
  50:.\LCD.c       **** * Argument(s) : none
  51:.\LCD.c       **** *
  52:.\LCD.c       **** * Return(s)   : none
  53:.\LCD.c       **** *
  54:.\LCD.c       **** * Caller(s)   :  
  55:.\LCD.c       **** *
  56:.\LCD.c       **** * Note(s)     : none.
  57:.\LCD.c       **** ***************************************************************************************************
  58:.\LCD.c       **** */
  59:.\LCD.c       **** 
  60:.\LCD.c       **** void SetPicture(uint8 lcd, uint16 picture){
  27              		.loc 1 60 0
  28              		.cfi_startproc
  29              		@ args = 0, pretend = 0, frame = 8
  30              		@ frame_needed = 0, uses_anonymous_args = 0
  31              	.LVL0:
  32 0000 30B5     		push	{r4, r5, lr}
  33              		.cfi_def_cfa_offset 12
  34              		.cfi_offset 4, -12
  35              		.cfi_offset 5, -8
  36              		.cfi_offset 14, -4
  37 0002 83B0     		sub	sp, sp, #12
  38              		.cfi_def_cfa_offset 24
  39 0004 0546     		mov	r5, r0
  40 0006 0A46     		mov	r2, r1
  61:.\LCD.c       ****     uint8 buffer[8]={0xAA,0x70,0x00,0x00,0xCC,0x33,0xC3,0x3C},x;
  41              		.loc 1 61 0
  42 0008 1049     		ldr	r1, .L7
  43              	.LVL1:
  44 000a 6B46     		mov	r3, sp
  45 000c 0868     		ldr	r0, [r1]	@ unaligned
  46              	.LVL2:
  47 000e 4968     		ldr	r1, [r1, #4]	@ unaligned
  48 0010 03C3     		stmia	r3!, {r0, r1}
  62:.\LCD.c       ****     buffer[2]=(picture>>8)&0xFF;
  49              		.loc 1 62 0
  50 0012 130A     		lsrs	r3, r2, #8
  51 0014 8DF80230 		strb	r3, [sp, #2]
  63:.\LCD.c       ****     buffer[3]=picture&0xFF;
ARM GAS  C:\Users\RECEPC~1\AppData\Local\Temp\ccFNC6Qx.s 			page 3


  52              		.loc 1 63 0
  53 0018 8DF80320 		strb	r2, [sp, #3]
  54              	.LVL3:
  64:.\LCD.c       ****     for(x=0;x<8;x++){
  55              		.loc 1 64 0
  56 001c 0024     		movs	r4, #0
  57 001e 10E0     		b	.L2
  58              	.LVL4:
  59              	.L5:
  65:.\LCD.c       ****         if(lcd==1){
  60              		.loc 1 65 0
  61 0020 012D     		cmp	r5, #1
  62 0022 06D1     		bne	.L3
  66:.\LCD.c       ****             Display1_PutChar(buffer[x]);
  63              		.loc 1 66 0
  64 0024 02AB     		add	r3, sp, #8
  65 0026 2344     		add	r3, r3, r4
  66 0028 13F8080C 		ldrb	r0, [r3, #-8]	@ zero_extendqisi2
  67 002c FFF7FEFF 		bl	Display1_PutChar
  68              	.LVL5:
  69 0030 05E0     		b	.L4
  70              	.L3:
  67:.\LCD.c       ****         }else{
  68:.\LCD.c       ****             Display2_PutChar(buffer[x]);
  71              		.loc 1 68 0
  72 0032 02AB     		add	r3, sp, #8
  73 0034 2344     		add	r3, r3, r4
  74 0036 13F8080C 		ldrb	r0, [r3, #-8]	@ zero_extendqisi2
  75 003a FFF7FEFF 		bl	Display2_PutChar
  76              	.LVL6:
  77              	.L4:
  64:.\LCD.c       ****         if(lcd==1){
  78              		.loc 1 64 0 discriminator 2
  79 003e 0134     		adds	r4, r4, #1
  80              	.LVL7:
  81 0040 E4B2     		uxtb	r4, r4
  82              	.LVL8:
  83              	.L2:
  64:.\LCD.c       ****         if(lcd==1){
  84              		.loc 1 64 0 is_stmt 0 discriminator 1
  85 0042 072C     		cmp	r4, #7
  86 0044 ECD9     		bls	.L5
  69:.\LCD.c       ****         }
  70:.\LCD.c       ****     }
  71:.\LCD.c       **** }
  87              		.loc 1 71 0 is_stmt 1
  88 0046 03B0     		add	sp, sp, #12
  89              		.cfi_def_cfa_offset 12
  90              		@ sp needed
  91 0048 30BD     		pop	{r4, r5, pc}
  92              	.LVL9:
  93              	.L8:
  94 004a 00BF     		.align	2
  95              	.L7:
  96 004c 00000000 		.word	.LANCHOR0
  97              		.cfi_endproc
  98              	.LFE63:
ARM GAS  C:\Users\RECEPC~1\AppData\Local\Temp\ccFNC6Qx.s 			page 4


  99              		.size	SetPicture, .-SetPicture
 100              		.section	.text.WriteMessage,"ax",%progbits
 101              		.align	2
 102              		.global	WriteMessage
 103              		.thumb
 104              		.thumb_func
 105              		.type	WriteMessage, %function
 106              	WriteMessage:
 107              	.LFB64:
  72:.\LCD.c       **** 
  73:.\LCD.c       **** /*
  74:.\LCD.c       **** ***************************************************************************************************
  75:.\LCD.c       **** * void WriteLCD(uint8_t lcd,uint8_t data, uint16_t posy, uint16_t posx,uint8_t size, uint16_t fgcol
  76:.\LCD.c       **** *
  77:.\LCD.c       **** * Description : 
  78:.\LCD.c       **** *               
  79:.\LCD.c       **** *
  80:.\LCD.c       **** * Argument(s) : none
  81:.\LCD.c       **** *
  82:.\LCD.c       **** * Return(s)   : none
  83:.\LCD.c       **** *
  84:.\LCD.c       **** * Caller(s)   :  
  85:.\LCD.c       **** *
  86:.\LCD.c       **** * Note(s)     : none.
  87:.\LCD.c       **** ***************************************************************************************************
  88:.\LCD.c       **** */
  89:.\LCD.c       **** 
  90:.\LCD.c       **** void WriteMessage(uint8_t lcd,uint8_t data, uint16_t posy, uint16_t posx,uint8_t size, uint16_t fgc
 108              		.loc 1 90 0
 109              		.cfi_startproc
 110              		@ args = 12, pretend = 0, frame = 24
 111              		@ frame_needed = 0, uses_anonymous_args = 0
 112              	.LVL10:
 113 0000 2DE9F043 		push	{r4, r5, r6, r7, r8, r9, lr}
 114              		.cfi_def_cfa_offset 28
 115              		.cfi_offset 4, -28
 116              		.cfi_offset 5, -24
 117              		.cfi_offset 6, -20
 118              		.cfi_offset 7, -16
 119              		.cfi_offset 8, -12
 120              		.cfi_offset 9, -8
 121              		.cfi_offset 14, -4
 122 0004 87B0     		sub	sp, sp, #28
 123              		.cfi_def_cfa_offset 56
 124 0006 0546     		mov	r5, r0
 125 0008 8C46     		mov	ip, r1
 126 000a 1646     		mov	r6, r2
 127 000c 1C46     		mov	r4, r3
 128 000e 9DF83870 		ldrb	r7, [sp, #56]	@ zero_extendqisi2
 129 0012 BDF83CE0 		ldrh	lr, [sp, #60]
  91:.\LCD.c       **** uint8_t buffer[18]={0xAA,0x98,0,0,0x01,0x39,0x22,0xC5,0x03,0x00,0x00,0xFF,0xFF,0,0xCC,0x33,0xC3,0x3
 130              		.loc 1 91 0
 131 0016 0DF10408 		add	r8, sp, #4
 132 001a DFF8A890 		ldr	r9, .L16
 133 001e 59F8080F 		ldr	r0, [r9, #8]!	@ unaligned
 134              	.LVL11:
 135 0022 D9F80410 		ldr	r1, [r9, #4]	@ unaligned
ARM GAS  C:\Users\RECEPC~1\AppData\Local\Temp\ccFNC6Qx.s 			page 5


 136              	.LVL12:
 137 0026 D9F80820 		ldr	r2, [r9, #8]	@ unaligned
 138              	.LVL13:
 139 002a D9F80C30 		ldr	r3, [r9, #12]	@ unaligned
 140              	.LVL14:
 141 002e A8E80F00 		stmia	r8!, {r0, r1, r2, r3}
 142 0032 B9F81030 		ldrh	r3, [r9, #16]	@ unaligned
 143 0036 A8F80030 		strh	r3, [r8]	@ unaligned
  92:.\LCD.c       **** 	buffer[2] =(0x0C*(posx*(size+1)))>>8;
 144              		.loc 1 92 0
 145 003a 7A1C     		adds	r2, r7, #1
 146 003c 02FB04F3 		mul	r3, r2, r4
 147 0040 03EB4303 		add	r3, r3, r3, lsl #1
 148 0044 9B00     		lsls	r3, r3, #2
 149 0046 1B12     		asrs	r3, r3, #8
 150 0048 8DF80630 		strb	r3, [sp, #6]
  93:.\LCD.c       **** 	buffer[3] =(0x0C*(posx*(size+1)))&0xFF;
 151              		.loc 1 93 0
 152 004c 04FB02F4 		mul	r4, r4, r2
 153 0050 04EB4404 		add	r4, r4, r4, lsl #1
 154 0054 A300     		lsls	r3, r4, #2
 155 0056 8DF80730 		strb	r3, [sp, #7]
  94:.\LCD.c       **** 	buffer[4] =(0x0E*posy)>>8;
 156              		.loc 1 94 0
 157 005a C6EBC603 		rsb	r3, r6, r6, lsl #3
 158 005e 5B00     		lsls	r3, r3, #1
 159 0060 1B12     		asrs	r3, r3, #8
 160 0062 8DF80830 		strb	r3, [sp, #8]
  95:.\LCD.c       **** 	buffer[5] =(0x0E*posy)&0xFF;
 161              		.loc 1 95 0
 162 0066 C6EBC606 		rsb	r6, r6, r6, lsl #3
 163 006a 7300     		lsls	r3, r6, #1
 164 006c 8DF80930 		strb	r3, [sp, #9]
  96:.\LCD.c       **** 	buffer[6] =0x20+size;
 165              		.loc 1 96 0
 166 0070 2037     		adds	r7, r7, #32
 167 0072 8DF80A70 		strb	r7, [sp, #10]
  97:.\LCD.c       ****     if(bottomless=='Y'){
 168              		.loc 1 97 0
 169 0076 9DF84030 		ldrb	r3, [sp, #64]	@ zero_extendqisi2
 170 007a 592B     		cmp	r3, #89
 171 007c 02D1     		bne	.L10
  98:.\LCD.c       ****          buffer[7]=0x85;
 172              		.loc 1 98 0
 173 007e 8523     		movs	r3, #133
 174 0080 8DF80B30 		strb	r3, [sp, #11]
 175              	.L10:
  99:.\LCD.c       ****     }
 100:.\LCD.c       ****     buffer[9] =(fgcolor&0xFF00)>>8;
 176              		.loc 1 100 0
 177 0084 4FEA1E23 		lsr	r3, lr, #8
 178 0088 8DF80D30 		strb	r3, [sp, #13]
 101:.\LCD.c       ****     buffer[10]=(fgcolor&0x00FF);
 179              		.loc 1 101 0
 180 008c 8DF80EE0 		strb	lr, [sp, #14]
 102:.\LCD.c       **** 	buffer[13]=data;
 181              		.loc 1 102 0
ARM GAS  C:\Users\RECEPC~1\AppData\Local\Temp\ccFNC6Qx.s 			page 6


 182 0090 8DF811C0 		strb	ip, [sp, #17]
 183              	.LVL15:
 103:.\LCD.c       **** 	for(x=0;x<=17;x++){
 184              		.loc 1 103 0
 185 0094 0024     		movs	r4, #0
 186 0096 10E0     		b	.L11
 187              	.LVL16:
 188              	.L14:
 104:.\LCD.c       **** 		if(lcd==1){
 189              		.loc 1 104 0
 190 0098 012D     		cmp	r5, #1
 191 009a 06D1     		bne	.L12
 105:.\LCD.c       **** 			Display1_PutChar(buffer[x]);
 192              		.loc 1 105 0
 193 009c 06AB     		add	r3, sp, #24
 194 009e 2344     		add	r3, r3, r4
 195 00a0 13F8140C 		ldrb	r0, [r3, #-20]	@ zero_extendqisi2
 196 00a4 FFF7FEFF 		bl	Display1_PutChar
 197              	.LVL17:
 198 00a8 05E0     		b	.L13
 199              	.L12:
 106:.\LCD.c       **** 		}
 107:.\LCD.c       **** 		else{
 108:.\LCD.c       **** 			Display2_PutChar(buffer[x]);
 200              		.loc 1 108 0
 201 00aa 06AB     		add	r3, sp, #24
 202 00ac 2344     		add	r3, r3, r4
 203 00ae 13F8140C 		ldrb	r0, [r3, #-20]	@ zero_extendqisi2
 204 00b2 FFF7FEFF 		bl	Display2_PutChar
 205              	.LVL18:
 206              	.L13:
 103:.\LCD.c       **** 		if(lcd==1){
 207              		.loc 1 103 0 discriminator 2
 208 00b6 0134     		adds	r4, r4, #1
 209              	.LVL19:
 210 00b8 E4B2     		uxtb	r4, r4
 211              	.LVL20:
 212              	.L11:
 103:.\LCD.c       **** 		if(lcd==1){
 213              		.loc 1 103 0 is_stmt 0 discriminator 1
 214 00ba 112C     		cmp	r4, #17
 215 00bc ECD9     		bls	.L14
 109:.\LCD.c       **** 		}	
 110:.\LCD.c       **** 	}	
 111:.\LCD.c       **** }
 216              		.loc 1 111 0 is_stmt 1
 217 00be 07B0     		add	sp, sp, #28
 218              		.cfi_def_cfa_offset 28
 219              		@ sp needed
 220 00c0 BDE8F083 		pop	{r4, r5, r6, r7, r8, r9, pc}
 221              	.LVL21:
 222              	.L17:
 223              		.align	2
 224              	.L16:
 225 00c4 00000000 		.word	.LANCHOR0
 226              		.cfi_endproc
 227              	.LFE64:
ARM GAS  C:\Users\RECEPC~1\AppData\Local\Temp\ccFNC6Qx.s 			page 7


 228              		.size	WriteMessage, .-WriteMessage
 229              		.section	.text.ShowRectangle,"ax",%progbits
 230              		.align	2
 231              		.global	ShowRectangle
 232              		.thumb
 233              		.thumb_func
 234              		.type	ShowRectangle, %function
 235              	ShowRectangle:
 236              	.LFB65:
 112:.\LCD.c       **** 
 113:.\LCD.c       **** 
 114:.\LCD.c       **** /*
 115:.\LCD.c       **** ***************************************************************************************************
 116:.\LCD.c       **** *                                    void ShowRectangle(uint8 lcd)
 117:.\LCD.c       **** *
 118:.\LCD.c       **** * Description : 
 119:.\LCD.c       **** *               
 120:.\LCD.c       **** *
 121:.\LCD.c       **** * Argument(s) : none
 122:.\LCD.c       **** *
 123:.\LCD.c       **** * Return(s)   : none
 124:.\LCD.c       **** *
 125:.\LCD.c       **** * Caller(s)   :  
 126:.\LCD.c       **** *
 127:.\LCD.c       **** * Note(s)     : none.
 128:.\LCD.c       **** ***************************************************************************************************
 129:.\LCD.c       **** */
 130:.\LCD.c       **** 
 131:.\LCD.c       **** void ShowRectangle(uint8 lcd, uint8 coordinate){
 237              		.loc 1 131 0
 238              		.cfi_startproc
 239              		@ args = 0, pretend = 0, frame = 16
 240              		@ frame_needed = 0, uses_anonymous_args = 0
 241              	.LVL22:
 242 0000 70B5     		push	{r4, r5, r6, lr}
 243              		.cfi_def_cfa_offset 16
 244              		.cfi_offset 4, -16
 245              		.cfi_offset 5, -12
 246              		.cfi_offset 6, -8
 247              		.cfi_offset 14, -4
 248 0002 84B0     		sub	sp, sp, #16
 249              		.cfi_def_cfa_offset 32
 250 0004 0546     		mov	r5, r0
 251 0006 0E46     		mov	r6, r1
 132:.\LCD.c       ****     uint8_t buffer[14]={0xAA, 0x5C, 0x00,0x18,0x00,0x18,0x00, 0x30,0x00, 0x30, 0xCC, 0x33, 0xC3, 0x
 252              		.loc 1 132 0
 253 0008 6B46     		mov	r3, sp
 254 000a 134C     		ldr	r4, .L24
 255 000c 54F81C0F 		ldr	r0, [r4, #28]!	@ unaligned
 256              	.LVL23:
 257 0010 6168     		ldr	r1, [r4, #4]	@ unaligned
 258              	.LVL24:
 259 0012 A268     		ldr	r2, [r4, #8]	@ unaligned
 260 0014 07C3     		stmia	r3!, {r0, r1, r2}
 261 0016 A289     		ldrh	r2, [r4, #12]	@ unaligned
 262 0018 1A80     		strh	r2, [r3]	@ unaligned
 133:.\LCD.c       ****     buffer[7]=coordinate;
ARM GAS  C:\Users\RECEPC~1\AppData\Local\Temp\ccFNC6Qx.s 			page 8


 263              		.loc 1 133 0
 264 001a 8DF80760 		strb	r6, [sp, #7]
 134:.\LCD.c       ****     buffer[9]=coordinate;
 265              		.loc 1 134 0
 266 001e 8DF80960 		strb	r6, [sp, #9]
 267              	.LVL25:
 135:.\LCD.c       ****     for(x=0;x <=13;x++){
 268              		.loc 1 135 0
 269 0022 0024     		movs	r4, #0
 270 0024 10E0     		b	.L19
 271              	.LVL26:
 272              	.L22:
 136:.\LCD.c       **** 		if(lcd==1){            
 273              		.loc 1 136 0
 274 0026 012D     		cmp	r5, #1
 275 0028 06D1     		bne	.L20
 137:.\LCD.c       **** 			Display1_PutChar(buffer[x]);
 276              		.loc 1 137 0
 277 002a 04AB     		add	r3, sp, #16
 278 002c 2344     		add	r3, r3, r4
 279 002e 13F8100C 		ldrb	r0, [r3, #-16]	@ zero_extendqisi2
 280 0032 FFF7FEFF 		bl	Display1_PutChar
 281              	.LVL27:
 282 0036 05E0     		b	.L21
 283              	.L20:
 138:.\LCD.c       **** 		}
 139:.\LCD.c       **** 		else{
 140:.\LCD.c       **** 			Display2_PutChar(buffer[x]);
 284              		.loc 1 140 0
 285 0038 04AB     		add	r3, sp, #16
 286 003a 2344     		add	r3, r3, r4
 287 003c 13F8100C 		ldrb	r0, [r3, #-16]	@ zero_extendqisi2
 288 0040 FFF7FEFF 		bl	Display2_PutChar
 289              	.LVL28:
 290              	.L21:
 135:.\LCD.c       **** 		if(lcd==1){            
 291              		.loc 1 135 0 discriminator 2
 292 0044 0134     		adds	r4, r4, #1
 293              	.LVL29:
 294 0046 E4B2     		uxtb	r4, r4
 295              	.LVL30:
 296              	.L19:
 135:.\LCD.c       **** 		if(lcd==1){            
 297              		.loc 1 135 0 is_stmt 0 discriminator 1
 298 0048 0D2C     		cmp	r4, #13
 299 004a ECD9     		bls	.L22
 141:.\LCD.c       **** 		}	
 142:.\LCD.c       **** 	}	
 143:.\LCD.c       ****     CyDelay(100);
 300              		.loc 1 143 0 is_stmt 1
 301 004c 6420     		movs	r0, #100
 302 004e FFF7FEFF 		bl	CyDelay
 303              	.LVL31:
 144:.\LCD.c       ****     
 145:.\LCD.c       **** }
 304              		.loc 1 145 0
 305 0052 04B0     		add	sp, sp, #16
ARM GAS  C:\Users\RECEPC~1\AppData\Local\Temp\ccFNC6Qx.s 			page 9


 306              		.cfi_def_cfa_offset 16
 307              		@ sp needed
 308 0054 70BD     		pop	{r4, r5, r6, pc}
 309              	.LVL32:
 310              	.L25:
 311 0056 00BF     		.align	2
 312              	.L24:
 313 0058 00000000 		.word	.LANCHOR0
 314              		.cfi_endproc
 315              	.LFE65:
 316              		.size	ShowRectangle, .-ShowRectangle
 317              		.section	.text.ShowMessage,"ax",%progbits
 318              		.align	2
 319              		.global	ShowMessage
 320              		.thumb
 321              		.thumb_func
 322              		.type	ShowMessage, %function
 323              	ShowMessage:
 324              	.LFB66:
 146:.\LCD.c       **** 
 147:.\LCD.c       **** 
 148:.\LCD.c       **** 
 149:.\LCD.c       **** /*
 150:.\LCD.c       **** ***************************************************************************************************
 151:.\LCD.c       **** *                             void ShowMessage(uint8 lcd,uint8 *msg)
 152:.\LCD.c       **** *
 153:.\LCD.c       **** * Description : 
 154:.\LCD.c       **** *               
 155:.\LCD.c       **** *
 156:.\LCD.c       **** * Argument(s) : none
 157:.\LCD.c       **** *
 158:.\LCD.c       **** * Return(s)   : none
 159:.\LCD.c       **** *
 160:.\LCD.c       **** * Caller(s)   :  
 161:.\LCD.c       **** *
 162:.\LCD.c       **** * Note(s)     : none.
 163:.\LCD.c       **** ***************************************************************************************************
 164:.\LCD.c       **** */
 165:.\LCD.c       **** 
 166:.\LCD.c       **** void ShowMessage(uint8 lcd,uint8 *msg,uint8 posx){
 325              		.loc 1 166 0
 326              		.cfi_startproc
 327              		@ args = 0, pretend = 0, frame = 0
 328              		@ frame_needed = 0, uses_anonymous_args = 0
 329              	.LVL33:
 330 0000 F0B5     		push	{r4, r5, r6, r7, lr}
 331              		.cfi_def_cfa_offset 20
 332              		.cfi_offset 4, -20
 333              		.cfi_offset 5, -16
 334              		.cfi_offset 6, -12
 335              		.cfi_offset 7, -8
 336              		.cfi_offset 14, -4
 337 0002 85B0     		sub	sp, sp, #20
 338              		.cfi_def_cfa_offset 40
 339 0004 0746     		mov	r7, r0
 340 0006 0E46     		mov	r6, r1
 341 0008 1546     		mov	r5, r2
ARM GAS  C:\Users\RECEPC~1\AppData\Local\Temp\ccFNC6Qx.s 			page 10


 342              	.LVL34:
 167:.\LCD.c       ****     uint8 x;
 168:.\LCD.c       ****     for(x=0;x<10;x++){
 343              		.loc 1 168 0
 344 000a 0024     		movs	r4, #0
 345 000c 0DE0     		b	.L27
 346              	.LVL35:
 347              	.L28:
 169:.\LCD.c       ****         WriteMessage(lcd,msg[x],31,posx + x,1,0x0000,'N');
 348              		.loc 1 169 0 discriminator 3
 349 000e 315D     		ldrb	r1, [r6, r4]	@ zero_extendqisi2
 350 0010 0123     		movs	r3, #1
 351 0012 0093     		str	r3, [sp]
 352 0014 0023     		movs	r3, #0
 353 0016 0193     		str	r3, [sp, #4]
 354 0018 4E23     		movs	r3, #78
 355 001a 0293     		str	r3, [sp, #8]
 356 001c 3846     		mov	r0, r7
 357 001e 1F22     		movs	r2, #31
 358 0020 2B19     		adds	r3, r5, r4
 359 0022 FFF7FEFF 		bl	WriteMessage
 360              	.LVL36:
 168:.\LCD.c       ****         WriteMessage(lcd,msg[x],31,posx + x,1,0x0000,'N');
 361              		.loc 1 168 0 discriminator 3
 362 0026 0134     		adds	r4, r4, #1
 363              	.LVL37:
 364 0028 E4B2     		uxtb	r4, r4
 365              	.LVL38:
 366              	.L27:
 168:.\LCD.c       ****         WriteMessage(lcd,msg[x],31,posx + x,1,0x0000,'N');
 367              		.loc 1 168 0 is_stmt 0 discriminator 1
 368 002a 092C     		cmp	r4, #9
 369 002c EFD9     		bls	.L28
 170:.\LCD.c       ****     }
 171:.\LCD.c       **** }
 370              		.loc 1 171 0 is_stmt 1
 371 002e 05B0     		add	sp, sp, #20
 372              		.cfi_def_cfa_offset 20
 373              		@ sp needed
 374 0030 F0BD     		pop	{r4, r5, r6, r7, pc}
 375              		.cfi_endproc
 376              	.LFE66:
 377              		.size	ShowMessage, .-ShowMessage
 378 0032 00BF     		.section	.text.UnmapCode,"ax",%progbits
 379              		.align	2
 380              		.global	UnmapCode
 381              		.thumb
 382              		.thumb_func
 383              		.type	UnmapCode, %function
 384              	UnmapCode:
 385              	.LFB67:
 172:.\LCD.c       **** 
 173:.\LCD.c       **** 
 174:.\LCD.c       **** 
 175:.\LCD.c       **** DisplayCharacterMap _g_charmaplut[] =
 176:.\LCD.c       **** {
 177:.\LCD.c       ****     { 0x01, 0x31 }, { 0x02, 0x32 }, { 0x03, 0x33 }, { 0x04, 0x34 }, { 0x05, 0x35 }, { 0x06, 0x36 },
ARM GAS  C:\Users\RECEPC~1\AppData\Local\Temp\ccFNC6Qx.s 			page 11


 178:.\LCD.c       ****     { 0x1B, (char8)'Q' }, { 0x1C, (char8)'W'}, { 0x1D, (char8)'E'}, { 0x1E, (char8)'R'}, { 0x1F, (c
 179:.\LCD.c       ****     { 0x25, (char8)'A'}, { 0x26, (char8)'S'}, { 0x27, (char8)'D'}, { 0x28, (char8)'F'}, { 0x29, (ch
 180:.\LCD.c       ****     { 0x2F, (char8)'Z'}, { 0x30, (char8)'X'}, { 0x31, (char8)'C'}, { 0x32, (char8)'V'}, { 0x42, (ch
 181:.\LCD.c       ****     { 0x6A, (char8)'-'}, { 0x68, (char8)' '}, { 0x51, (char8)','}, { 0x00, 0x00 }
 182:.\LCD.c       **** };
 183:.\LCD.c       **** 
 184:.\LCD.c       **** //@Created By: HIJH
 185:.\LCD.c       **** //@Septembre de 2016
 186:.\LCD.c       **** char8 UnmapCode(uint8 code)
 187:.\LCD.c       **** {
 386              		.loc 1 187 0
 387              		.cfi_startproc
 388              		@ args = 0, pretend = 0, frame = 0
 389              		@ frame_needed = 0, uses_anonymous_args = 0
 390              		@ link register save eliminated.
 391              	.LVL39:
 188:.\LCD.c       ****     char8 retval = 0x00;
 189:.\LCD.c       ****     DisplayCharacterMap *pcharmap = _g_charmaplut;
 392              		.loc 1 189 0
 393 0000 054B     		ldr	r3, .L35
 190:.\LCD.c       ****     while(pcharmap->_refchar != 0x00)
 394              		.loc 1 190 0
 395 0002 04E0     		b	.L31
 396              	.LVL40:
 397              	.L34:
 191:.\LCD.c       ****     {
 192:.\LCD.c       ****         if(pcharmap->_refchar == code)
 398              		.loc 1 192 0
 399 0004 8242     		cmp	r2, r0
 400 0006 01D1     		bne	.L32
 193:.\LCD.c       ****         {
 194:.\LCD.c       ****             retval = pcharmap->_mappedto;
 401              		.loc 1 194 0
 402 0008 5878     		ldrb	r0, [r3, #1]	@ zero_extendqisi2
 403              	.LVL41:
 195:.\LCD.c       ****             break;
 404              		.loc 1 195 0
 405 000a 7047     		bx	lr
 406              	.LVL42:
 407              	.L32:
 196:.\LCD.c       ****         }
 197:.\LCD.c       ****         pcharmap++;
 408              		.loc 1 197 0
 409 000c 0233     		adds	r3, r3, #2
 410              	.LVL43:
 411              	.L31:
 190:.\LCD.c       ****     {
 412              		.loc 1 190 0
 413 000e 1A78     		ldrb	r2, [r3]	@ zero_extendqisi2
 414 0010 002A     		cmp	r2, #0
 415 0012 F7D1     		bne	.L34
 188:.\LCD.c       ****     DisplayCharacterMap *pcharmap = _g_charmaplut;
 416              		.loc 1 188 0
 417 0014 0020     		movs	r0, #0
 418              	.LVL44:
 198:.\LCD.c       ****     }
 199:.\LCD.c       ****     return retval;
ARM GAS  C:\Users\RECEPC~1\AppData\Local\Temp\ccFNC6Qx.s 			page 12


 200:.\LCD.c       **** }
 419              		.loc 1 200 0
 420 0016 7047     		bx	lr
 421              	.L36:
 422              		.align	2
 423              	.L35:
 424 0018 00000000 		.word	.LANCHOR1
 425              		.cfi_endproc
 426              	.LFE67:
 427              		.size	UnmapCode, .-UnmapCode
 428              		.section	.text.WriteLCD,"ax",%progbits
 429              		.align	2
 430              		.global	WriteLCD
 431              		.thumb
 432              		.thumb_func
 433              		.type	WriteLCD, %function
 434              	WriteLCD:
 435              	.LFB68:
 201:.\LCD.c       **** /*
 202:.\LCD.c       **** ***************************************************************************************************
 203:.\LCD.c       **** *          void write_LCD(uint8_t lcd, uint8_t data, uint16_t posy, uint16_t posx,uint8_t size)
 204:.\LCD.c       **** *
 205:.\LCD.c       **** * Description : 
 206:.\LCD.c       **** *               
 207:.\LCD.c       **** *
 208:.\LCD.c       **** * Argument(s) : none
 209:.\LCD.c       **** *
 210:.\LCD.c       **** * Return(s)   : none
 211:.\LCD.c       **** *
 212:.\LCD.c       **** * Caller(s)   :  
 213:.\LCD.c       **** *
 214:.\LCD.c       **** * Note(s)     : none.
 215:.\LCD.c       **** ***************************************************************************************************
 216:.\LCD.c       **** */
 217:.\LCD.c       **** 
 218:.\LCD.c       **** void WriteLCD(uint8_t lcd,uint8_t data, uint16_t posy, uint16_t posx,uint8_t size, uint16_t fgcolor
 436              		.loc 1 218 0
 437              		.cfi_startproc
 438              		@ args = 12, pretend = 0, frame = 24
 439              		@ frame_needed = 0, uses_anonymous_args = 0
 440              	.LVL45:
 441 0000 2DE9F043 		push	{r4, r5, r6, r7, r8, r9, lr}
 442              		.cfi_def_cfa_offset 28
 443              		.cfi_offset 4, -28
 444              		.cfi_offset 5, -24
 445              		.cfi_offset 6, -20
 446              		.cfi_offset 7, -16
 447              		.cfi_offset 8, -12
 448              		.cfi_offset 9, -8
 449              		.cfi_offset 14, -4
 450 0004 87B0     		sub	sp, sp, #28
 451              		.cfi_def_cfa_offset 56
 452 0006 0546     		mov	r5, r0
 453 0008 8C46     		mov	ip, r1
 454 000a 1646     		mov	r6, r2
 455 000c 1C46     		mov	r4, r3
 456 000e 9DF83870 		ldrb	r7, [sp, #56]	@ zero_extendqisi2
ARM GAS  C:\Users\RECEPC~1\AppData\Local\Temp\ccFNC6Qx.s 			page 13


 457 0012 BDF83CE0 		ldrh	lr, [sp, #60]
 219:.\LCD.c       **** uint8_t buffer[18]={0xAA,0x98,0,0,0x01,0x39,0x23,0xC5,0x02,0x00,0x00,0xFF,0xFF,0,0xCC,0x33,0xC3,0x3
 458              		.loc 1 219 0
 459 0016 0DF10408 		add	r8, sp, #4
 460 001a DFF8A890 		ldr	r9, .L44
 461 001e 59F82C0F 		ldr	r0, [r9, #44]!	@ unaligned
 462              	.LVL46:
 463 0022 D9F80410 		ldr	r1, [r9, #4]	@ unaligned
 464              	.LVL47:
 465 0026 D9F80820 		ldr	r2, [r9, #8]	@ unaligned
 466              	.LVL48:
 467 002a D9F80C30 		ldr	r3, [r9, #12]	@ unaligned
 468              	.LVL49:
 469 002e A8E80F00 		stmia	r8!, {r0, r1, r2, r3}
 470 0032 B9F81030 		ldrh	r3, [r9, #16]	@ unaligned
 471 0036 A8F80030 		strh	r3, [r8]	@ unaligned
 220:.\LCD.c       **** 	buffer[2] =(0x0C*(posx*(size+1)))>>8;
 472              		.loc 1 220 0
 473 003a 7A1C     		adds	r2, r7, #1
 474 003c 02FB04F3 		mul	r3, r2, r4
 475 0040 03EB4303 		add	r3, r3, r3, lsl #1
 476 0044 9B00     		lsls	r3, r3, #2
 477 0046 1B12     		asrs	r3, r3, #8
 478 0048 8DF80630 		strb	r3, [sp, #6]
 221:.\LCD.c       **** 	buffer[3] =(0x0C*(posx*(size+1)))&0xFF;
 479              		.loc 1 221 0
 480 004c 04FB02F4 		mul	r4, r4, r2
 481 0050 04EB4404 		add	r4, r4, r4, lsl #1
 482 0054 A300     		lsls	r3, r4, #2
 483 0056 8DF80730 		strb	r3, [sp, #7]
 222:.\LCD.c       **** 	buffer[4] =(0x0E*posy)>>8;
 484              		.loc 1 222 0
 485 005a C6EBC603 		rsb	r3, r6, r6, lsl #3
 486 005e 5B00     		lsls	r3, r3, #1
 487 0060 1B12     		asrs	r3, r3, #8
 488 0062 8DF80830 		strb	r3, [sp, #8]
 223:.\LCD.c       **** 	buffer[5] =(0x0E*posy)&0xFF;
 489              		.loc 1 223 0
 490 0066 C6EBC606 		rsb	r6, r6, r6, lsl #3
 491 006a 7300     		lsls	r3, r6, #1
 492 006c 8DF80930 		strb	r3, [sp, #9]
 224:.\LCD.c       **** 	buffer[6] =0x23+size;
 493              		.loc 1 224 0
 494 0070 2337     		adds	r7, r7, #35
 495 0072 8DF80A70 		strb	r7, [sp, #10]
 225:.\LCD.c       ****     if(bottomless=='Y'){
 496              		.loc 1 225 0
 497 0076 9DF84030 		ldrb	r3, [sp, #64]	@ zero_extendqisi2
 498 007a 592B     		cmp	r3, #89
 499 007c 02D1     		bne	.L38
 226:.\LCD.c       ****          buffer[7]=0x85;
 500              		.loc 1 226 0
 501 007e 8523     		movs	r3, #133
 502 0080 8DF80B30 		strb	r3, [sp, #11]
 503              	.L38:
 227:.\LCD.c       ****     }
 228:.\LCD.c       ****     buffer[9] =(fgcolor&0xFF00)>>8;
ARM GAS  C:\Users\RECEPC~1\AppData\Local\Temp\ccFNC6Qx.s 			page 14


 504              		.loc 1 228 0
 505 0084 4FEA1E23 		lsr	r3, lr, #8
 506 0088 8DF80D30 		strb	r3, [sp, #13]
 229:.\LCD.c       ****     buffer[10]=(fgcolor&0x00FF);
 507              		.loc 1 229 0
 508 008c 8DF80EE0 		strb	lr, [sp, #14]
 230:.\LCD.c       **** 	buffer[13]=data;
 509              		.loc 1 230 0
 510 0090 8DF811C0 		strb	ip, [sp, #17]
 511              	.LVL50:
 231:.\LCD.c       **** 	for(x=0;x<=17;x++){
 512              		.loc 1 231 0
 513 0094 0024     		movs	r4, #0
 514 0096 10E0     		b	.L39
 515              	.LVL51:
 516              	.L42:
 232:.\LCD.c       **** 		if(lcd==1){
 517              		.loc 1 232 0
 518 0098 012D     		cmp	r5, #1
 519 009a 06D1     		bne	.L40
 233:.\LCD.c       **** 			Display1_PutChar(buffer[x]);
 520              		.loc 1 233 0
 521 009c 06AB     		add	r3, sp, #24
 522 009e 2344     		add	r3, r3, r4
 523 00a0 13F8140C 		ldrb	r0, [r3, #-20]	@ zero_extendqisi2
 524 00a4 FFF7FEFF 		bl	Display1_PutChar
 525              	.LVL52:
 526 00a8 05E0     		b	.L41
 527              	.L40:
 234:.\LCD.c       **** 		}
 235:.\LCD.c       **** 		else{
 236:.\LCD.c       **** 			Display2_PutChar(buffer[x]);
 528              		.loc 1 236 0
 529 00aa 06AB     		add	r3, sp, #24
 530 00ac 2344     		add	r3, r3, r4
 531 00ae 13F8140C 		ldrb	r0, [r3, #-20]	@ zero_extendqisi2
 532 00b2 FFF7FEFF 		bl	Display2_PutChar
 533              	.LVL53:
 534              	.L41:
 231:.\LCD.c       **** 		if(lcd==1){
 535              		.loc 1 231 0 discriminator 2
 536 00b6 0134     		adds	r4, r4, #1
 537              	.LVL54:
 538 00b8 E4B2     		uxtb	r4, r4
 539              	.LVL55:
 540              	.L39:
 231:.\LCD.c       **** 		if(lcd==1){
 541              		.loc 1 231 0 is_stmt 0 discriminator 1
 542 00ba 112C     		cmp	r4, #17
 543 00bc ECD9     		bls	.L42
 237:.\LCD.c       **** 		}	
 238:.\LCD.c       **** 	}	
 239:.\LCD.c       **** }
 544              		.loc 1 239 0 is_stmt 1
 545 00be 07B0     		add	sp, sp, #28
 546              		.cfi_def_cfa_offset 28
 547              		@ sp needed
ARM GAS  C:\Users\RECEPC~1\AppData\Local\Temp\ccFNC6Qx.s 			page 15


 548 00c0 BDE8F083 		pop	{r4, r5, r6, r7, r8, r9, pc}
 549              	.LVL56:
 550              	.L45:
 551              		.align	2
 552              	.L44:
 553 00c4 00000000 		.word	.LANCHOR0
 554              		.cfi_endproc
 555              	.LFE68:
 556              		.size	WriteLCD, .-WriteLCD
 557              		.global	_g_charmaplut
 558              		.comm	side,1096,4
 559              		.comm	bufferDisplay4,332,4
 560              		.comm	bufferDisplay3,332,4
 561              		.comm	bufferDisplay2,332,4
 562              		.comm	bufferDisplay1,332,4
 563              		.comm	GradesHose,5,4
 564              		.comm	CopiasCredito,1,1
 565              		.comm	Encabezado4,30,4
 566              		.comm	Encabezado3,30,4
 567              		.comm	Encabezado2,30,4
 568              		.comm	Encabezado1,30,4
 569              		.comm	intIDStation,2,2
 570              		.comm	buffer_txDisplay,60,4
 571              		.comm	buffer_txEOT,60,4
 572              		.comm	buffer_txPreset,60,4
 573              		.comm	buffer_print,250,4
 574              		.comm	buffer_A,255,4
 575              		.comm	buffer_txTotals,512,4
 576              		.comm	buffer_tx,512,4
 577              		.comm	buffer_rf,512,4
 578              		.comm	printPortB,1,1
 579              		.comm	printPortA,1,1
 580              		.comm	pumpGap,3,4
 581              		.comm	idStation,5,4
 582              		.comm	controlChar,1,1
 583              		.comm	configAccess,5,4
 584              		.comm	count_protector2,1,1
 585              		.comm	count_protector,1,1
 586              		.comm	timeDownHandle,2,4
 587              		.comm	dateDownHandle,3,4
 588              		.comm	VolUnit,6,4
 589              		.comm	PrinterType,1,1
 590              		.comm	hiddenKeys,1,1
 591              		.comm	digits,1,1
 592              		.comm	lockTurn,1,1
 593              		.comm	NumPositions,1,1
 594              		.comm	statePump,4,4
 595              		.comm	DDMode,1,1
 596              		.comm	PPUDec,1,1
 597              		.comm	VolDec,1,1
 598              		.comm	MoneyDec,1,1
 599              		.comm	ConversionFactor,1,1
 600              		.comm	UnitType,1,1
 601              		.comm	bufferAready,1,1
 602              		.comm	sizeSendB,1,1
 603              		.comm	pollTotals,1,1
 604              		.comm	ShiftState,1,1
ARM GAS  C:\Users\RECEPC~1\AppData\Local\Temp\ccFNC6Qx.s 			page 16


 605              		.comm	CGrade,1,1
 606              		.comm	tempPPU,5,4
 607              		.comm	tempPreset,8,4
 608              		.comm	temporal,30,4
 609              		.comm	counterRF,1,1
 610              		.comm	ActiveRF,1,1
 611              		.comm	IDCast,2,4
 612              		.comm	PlateRequest,1,1
 613              		.comm	PrevStatePump,4,4
 614              		.comm	stateBeagleSoft,1,1
 615              		.comm	flagResetMux,1,1
 616              		.comm	passwordSeller,8,4
 617              		.comm	typeIdSeller,1,1
 618              		.comm	idSeller,25,4
 619              		.comm	residue,14,4
 620              		.comm	screen,2,4
 621              		.comm	date,3,4
 622              		.comm	time,3,4
 623              		.comm	symbols,2,4
 624              		.comm	ppux10,1,1
 625              		.comm	delayPicture2,4,4
 626              		.comm	delayPicture1,4,4
 627              		.comm	productNumber,1,1
 628              		.comm	flagPoint2,1,1
 629              		.comm	flagPoint1,1,1
 630              		.comm	numberKeys2,1,1
 631              		.comm	numberKeys1,1,1
 632              		.comm	flowDisplay4,4,4
 633              		.comm	flowDisplay3,4,4
 634              		.comm	flowDisplay2,4,4
 635              		.comm	flowDisplay1,4,4
 636              		.comm	countLCD,8,8
 637              		.comm	countPump,8,8
 638              		.comm	countTX,8,8
 639              		.comm	countRX,8,8
 640              		.comm	countAnimation2,8,8
 641              		.comm	countAnimation1,8,8
 642              		.section	.rodata
 643              		.align	2
 644              		.set	.LANCHOR0,. + 0
 645              	.LC0:
 646 0000 AA       		.byte	-86
 647 0001 70       		.byte	112
 648 0002 00       		.byte	0
 649 0003 00       		.byte	0
 650 0004 CC       		.byte	-52
 651 0005 33       		.byte	51
 652 0006 C3       		.byte	-61
 653 0007 3C       		.byte	60
 654              	.LC1:
 655 0008 AA       		.byte	-86
 656 0009 98       		.byte	-104
 657 000a 00       		.byte	0
 658 000b 00       		.byte	0
 659 000c 01       		.byte	1
 660 000d 39       		.byte	57
 661 000e 22       		.byte	34
ARM GAS  C:\Users\RECEPC~1\AppData\Local\Temp\ccFNC6Qx.s 			page 17


 662 000f C5       		.byte	-59
 663 0010 03       		.byte	3
 664 0011 00       		.byte	0
 665 0012 00       		.byte	0
 666 0013 FF       		.byte	-1
 667 0014 FF       		.byte	-1
 668 0015 00       		.byte	0
 669 0016 CC       		.byte	-52
 670 0017 33       		.byte	51
 671 0018 C3       		.byte	-61
 672 0019 3C       		.byte	60
 673 001a 0000     		.space	2
 674              	.LC2:
 675 001c AA       		.byte	-86
 676 001d 5C       		.byte	92
 677 001e 00       		.byte	0
 678 001f 18       		.byte	24
 679 0020 00       		.byte	0
 680 0021 18       		.byte	24
 681 0022 00       		.byte	0
 682 0023 30       		.byte	48
 683 0024 00       		.byte	0
 684 0025 30       		.byte	48
 685 0026 CC       		.byte	-52
 686 0027 33       		.byte	51
 687 0028 C3       		.byte	-61
 688 0029 3C       		.byte	60
 689 002a 0000     		.space	2
 690              	.LC3:
 691 002c AA       		.byte	-86
 692 002d 98       		.byte	-104
 693 002e 00       		.byte	0
 694 002f 00       		.byte	0
 695 0030 01       		.byte	1
 696 0031 39       		.byte	57
 697 0032 23       		.byte	35
 698 0033 C5       		.byte	-59
 699 0034 02       		.byte	2
 700 0035 00       		.byte	0
 701 0036 00       		.byte	0
 702 0037 FF       		.byte	-1
 703 0038 FF       		.byte	-1
 704 0039 00       		.byte	0
 705 003a CC       		.byte	-52
 706 003b 33       		.byte	51
 707 003c C3       		.byte	-61
 708 003d 3C       		.byte	60
 709 003e 0000     		.data
 710              		.align	2
 711              		.set	.LANCHOR1,. + 0
 712              		.type	_g_charmaplut, %object
 713              		.size	_g_charmaplut, 82
 714              	_g_charmaplut:
 715 0000 01       		.byte	1
 716 0001 31       		.byte	49
 717 0002 02       		.byte	2
 718 0003 32       		.byte	50
ARM GAS  C:\Users\RECEPC~1\AppData\Local\Temp\ccFNC6Qx.s 			page 18


 719 0004 03       		.byte	3
 720 0005 33       		.byte	51
 721 0006 04       		.byte	4
 722 0007 34       		.byte	52
 723 0008 05       		.byte	5
 724 0009 35       		.byte	53
 725 000a 06       		.byte	6
 726 000b 36       		.byte	54
 727 000c 07       		.byte	7
 728 000d 37       		.byte	55
 729 000e 08       		.byte	8
 730 000f 38       		.byte	56
 731 0010 09       		.byte	9
 732 0011 39       		.byte	57
 733 0012 0A       		.byte	10
 734 0013 30       		.byte	48
 735 0014 0C       		.byte	12
 736 0015 0A       		.byte	10
 737 0016 1B       		.byte	27
 738 0017 51       		.byte	81
 739 0018 1C       		.byte	28
 740 0019 57       		.byte	87
 741 001a 1D       		.byte	29
 742 001b 45       		.byte	69
 743 001c 1E       		.byte	30
 744 001d 52       		.byte	82
 745 001e 1F       		.byte	31
 746 001f 54       		.byte	84
 747 0020 20       		.byte	32
 748 0021 59       		.byte	89
 749 0022 21       		.byte	33
 750 0023 55       		.byte	85
 751 0024 22       		.byte	34
 752 0025 49       		.byte	73
 753 0026 23       		.byte	35
 754 0027 4F       		.byte	79
 755 0028 24       		.byte	36
 756 0029 50       		.byte	80
 757 002a 25       		.byte	37
 758 002b 41       		.byte	65
 759 002c 26       		.byte	38
 760 002d 53       		.byte	83
 761 002e 27       		.byte	39
 762 002f 44       		.byte	68
 763 0030 28       		.byte	40
 764 0031 46       		.byte	70
 765 0032 29       		.byte	41
 766 0033 47       		.byte	71
 767 0034 2A       		.byte	42
 768 0035 48       		.byte	72
 769 0036 2B       		.byte	43
 770 0037 4A       		.byte	74
 771 0038 2C       		.byte	44
 772 0039 4B       		.byte	75
 773 003a 2D       		.byte	45
 774 003b 4C       		.byte	76
 775 003c 2F       		.byte	47
ARM GAS  C:\Users\RECEPC~1\AppData\Local\Temp\ccFNC6Qx.s 			page 19


 776 003d 5A       		.byte	90
 777 003e 30       		.byte	48
 778 003f 58       		.byte	88
 779 0040 31       		.byte	49
 780 0041 43       		.byte	67
 781 0042 32       		.byte	50
 782 0043 56       		.byte	86
 783 0044 42       		.byte	66
 784 0045 42       		.byte	66
 785 0046 34       		.byte	52
 786 0047 4E       		.byte	78
 787 0048 35       		.byte	53
 788 0049 4D       		.byte	77
 789 004a 6A       		.byte	106
 790 004b 2D       		.byte	45
 791 004c 68       		.byte	104
 792 004d 20       		.byte	32
 793 004e 51       		.byte	81
 794 004f 2C       		.byte	44
 795 0050 00       		.byte	0
 796 0051 00       		.byte	0
 797 0052 0000     		.text
 798              	.Letext0:
 799              		.file 2 "c:\\program files (x86)\\cypress\\psoc creator\\3.3\\psoc creator\\import\\gnu\\arm\\4.9.
 800              		.file 3 "c:\\program files (x86)\\cypress\\psoc creator\\3.3\\psoc creator\\import\\gnu\\arm\\4.9.
 801              		.file 4 "Generated_Source\\PSoC5/cytypes.h"
 802              		.file 5 ".\\variables.h"
 803              		.file 6 ".\\LCD.h"
 804              		.file 7 "Generated_Source\\PSoC5/core_cm3.h"
 805              		.file 8 "Generated_Source\\PSoC5/Display1.h"
 806              		.file 9 "Generated_Source\\PSoC5/Display2.h"
 807              		.file 10 "Generated_Source\\PSoC5/CyLib.h"
 808              		.section	.debug_info,"",%progbits
 809              	.Ldebug_info0:
 810 0000 B30F0000 		.4byte	0xfb3
 811 0004 0400     		.2byte	0x4
 812 0006 00000000 		.4byte	.Ldebug_abbrev0
 813 000a 04       		.byte	0x4
 814 000b 01       		.uleb128 0x1
 815 000c 3F070000 		.4byte	.LASF191
 816 0010 01       		.byte	0x1
 817 0011 68000000 		.4byte	.LASF192
 818 0015 E4070000 		.4byte	.LASF193
 819 0019 00000000 		.4byte	.Ldebug_ranges0+0
 820 001d 00000000 		.4byte	0
 821 0021 00000000 		.4byte	.Ldebug_line0
 822 0025 02       		.uleb128 0x2
 823 0026 01       		.byte	0x1
 824 0027 06       		.byte	0x6
 825 0028 85080000 		.4byte	.LASF0
 826 002c 03       		.uleb128 0x3
 827 002d 22060000 		.4byte	.LASF3
 828 0031 02       		.byte	0x2
 829 0032 1D       		.byte	0x1d
 830 0033 37000000 		.4byte	0x37
 831 0037 02       		.uleb128 0x2
 832 0038 01       		.byte	0x1
ARM GAS  C:\Users\RECEPC~1\AppData\Local\Temp\ccFNC6Qx.s 			page 20


 833 0039 08       		.byte	0x8
 834 003a 24070000 		.4byte	.LASF1
 835 003e 02       		.uleb128 0x2
 836 003f 02       		.byte	0x2
 837 0040 05       		.byte	0x5
 838 0041 67050000 		.4byte	.LASF2
 839 0045 03       		.uleb128 0x3
 840 0046 FC010000 		.4byte	.LASF4
 841 004a 02       		.byte	0x2
 842 004b 2B       		.byte	0x2b
 843 004c 50000000 		.4byte	0x50
 844 0050 02       		.uleb128 0x2
 845 0051 02       		.byte	0x2
 846 0052 07       		.byte	0x7
 847 0053 A1080000 		.4byte	.LASF5
 848 0057 03       		.uleb128 0x3
 849 0058 B1000000 		.4byte	.LASF6
 850 005c 02       		.byte	0x2
 851 005d 3F       		.byte	0x3f
 852 005e 62000000 		.4byte	0x62
 853 0062 02       		.uleb128 0x2
 854 0063 04       		.byte	0x4
 855 0064 05       		.byte	0x5
 856 0065 71050000 		.4byte	.LASF7
 857 0069 02       		.uleb128 0x2
 858 006a 04       		.byte	0x4
 859 006b 07       		.byte	0x7
 860 006c BA060000 		.4byte	.LASF8
 861 0070 02       		.uleb128 0x2
 862 0071 08       		.byte	0x8
 863 0072 05       		.byte	0x5
 864 0073 E4030000 		.4byte	.LASF9
 865 0077 02       		.uleb128 0x2
 866 0078 08       		.byte	0x8
 867 0079 07       		.byte	0x7
 868 007a BB010000 		.4byte	.LASF10
 869 007e 04       		.uleb128 0x4
 870 007f 04       		.byte	0x4
 871 0080 05       		.byte	0x5
 872 0081 696E7400 		.ascii	"int\000"
 873 0085 02       		.uleb128 0x2
 874 0086 04       		.byte	0x4
 875 0087 07       		.byte	0x7
 876 0088 8D000000 		.4byte	.LASF11
 877 008c 03       		.uleb128 0x3
 878 008d 8A030000 		.4byte	.LASF12
 879 0091 03       		.byte	0x3
 880 0092 15       		.byte	0x15
 881 0093 2C000000 		.4byte	0x2c
 882 0097 03       		.uleb128 0x3
 883 0098 E6040000 		.4byte	.LASF13
 884 009c 03       		.byte	0x3
 885 009d 21       		.byte	0x21
 886 009e 45000000 		.4byte	0x45
 887 00a2 03       		.uleb128 0x3
 888 00a3 F3060000 		.4byte	.LASF14
 889 00a7 03       		.byte	0x3
ARM GAS  C:\Users\RECEPC~1\AppData\Local\Temp\ccFNC6Qx.s 			page 21


 890 00a8 2C       		.byte	0x2c
 891 00a9 57000000 		.4byte	0x57
 892 00ad 05       		.uleb128 0x5
 893 00ae DC080000 		.4byte	.LASF15
 894 00b2 04       		.byte	0x4
 895 00b3 3801     		.2byte	0x138
 896 00b5 37000000 		.4byte	0x37
 897 00b9 05       		.uleb128 0x5
 898 00ba 67030000 		.4byte	.LASF16
 899 00be 04       		.byte	0x4
 900 00bf 3901     		.2byte	0x139
 901 00c1 50000000 		.4byte	0x50
 902 00c5 05       		.uleb128 0x5
 903 00c6 A0040000 		.4byte	.LASF17
 904 00ca 04       		.byte	0x4
 905 00cb 3A01     		.2byte	0x13a
 906 00cd 69000000 		.4byte	0x69
 907 00d1 02       		.uleb128 0x2
 908 00d2 04       		.byte	0x4
 909 00d3 04       		.byte	0x4
 910 00d4 58010000 		.4byte	.LASF18
 911 00d8 02       		.uleb128 0x2
 912 00d9 08       		.byte	0x8
 913 00da 04       		.byte	0x4
 914 00db E2080000 		.4byte	.LASF19
 915 00df 05       		.uleb128 0x5
 916 00e0 55060000 		.4byte	.LASF20
 917 00e4 04       		.byte	0x4
 918 00e5 4401     		.2byte	0x144
 919 00e7 77000000 		.4byte	0x77
 920 00eb 05       		.uleb128 0x5
 921 00ec 9E030000 		.4byte	.LASF21
 922 00f0 04       		.byte	0x4
 923 00f1 4901     		.2byte	0x149
 924 00f3 F7000000 		.4byte	0xf7
 925 00f7 02       		.uleb128 0x2
 926 00f8 01       		.byte	0x1
 927 00f9 08       		.byte	0x8
 928 00fa 39030000 		.4byte	.LASF22
 929 00fe 06       		.uleb128 0x6
 930 00ff AD000000 		.4byte	0xad
 931 0103 06       		.uleb128 0x6
 932 0104 C5000000 		.4byte	0xc5
 933 0108 02       		.uleb128 0x2
 934 0109 04       		.byte	0x4
 935 010a 07       		.byte	0x7
 936 010b B1060000 		.4byte	.LASF23
 937 010f 07       		.uleb128 0x7
 938 0110 AD000000 		.4byte	0xad
 939 0114 1F010000 		.4byte	0x11f
 940 0118 08       		.uleb128 0x8
 941 0119 08010000 		.4byte	0x108
 942 011d 03       		.byte	0x3
 943 011e 00       		.byte	0
 944 011f 09       		.uleb128 0x9
 945 0120 70000000 		.4byte	.LASF66
 946 0124 4C01     		.2byte	0x14c
ARM GAS  C:\Users\RECEPC~1\AppData\Local\Temp\ccFNC6Qx.s 			page 22


 947 0126 05       		.byte	0x5
 948 0127 81       		.byte	0x81
 949 0128 33030000 		.4byte	0x333
 950 012c 0A       		.uleb128 0xa
 951 012d DD000000 		.4byte	.LASF24
 952 0131 05       		.byte	0x5
 953 0132 82       		.byte	0x82
 954 0133 AD000000 		.4byte	0xad
 955 0137 00       		.byte	0
 956 0138 0A       		.uleb128 0xa
 957 0139 60020000 		.4byte	.LASF25
 958 013d 05       		.byte	0x5
 959 013e 83       		.byte	0x83
 960 013f 33030000 		.4byte	0x333
 961 0143 01       		.byte	0x1
 962 0144 0A       		.uleb128 0xa
 963 0145 FA080000 		.4byte	.LASF26
 964 0149 05       		.byte	0x5
 965 014a 84       		.byte	0x84
 966 014b AD000000 		.4byte	0xad
 967 014f 1A       		.byte	0x1a
 968 0150 0A       		.uleb128 0xa
 969 0151 12070000 		.4byte	.LASF27
 970 0155 05       		.byte	0x5
 971 0156 85       		.byte	0x85
 972 0157 AD000000 		.4byte	0xad
 973 015b 1B       		.byte	0x1b
 974 015c 0A       		.uleb128 0xa
 975 015d FA000000 		.4byte	.LASF28
 976 0161 05       		.byte	0x5
 977 0162 86       		.byte	0x86
 978 0163 43030000 		.4byte	0x343
 979 0167 1C       		.byte	0x1c
 980 0168 0A       		.uleb128 0xa
 981 0169 25050000 		.4byte	.LASF29
 982 016d 05       		.byte	0x5
 983 016e 87       		.byte	0x87
 984 016f 43030000 		.4byte	0x343
 985 0173 26       		.byte	0x26
 986 0174 0A       		.uleb128 0xa
 987 0175 30090000 		.4byte	.LASF30
 988 0179 05       		.byte	0x5
 989 017a 88       		.byte	0x88
 990 017b 33030000 		.4byte	0x333
 991 017f 30       		.byte	0x30
 992 0180 0A       		.uleb128 0xa
 993 0181 EF040000 		.4byte	.LASF31
 994 0185 05       		.byte	0x5
 995 0186 89       		.byte	0x89
 996 0187 AD000000 		.4byte	0xad
 997 018b 49       		.byte	0x49
 998 018c 0A       		.uleb128 0xa
 999 018d CD070000 		.4byte	.LASF32
 1000 0191 05       		.byte	0x5
 1001 0192 8A       		.byte	0x8a
 1002 0193 AD000000 		.4byte	0xad
 1003 0197 4A       		.byte	0x4a
ARM GAS  C:\Users\RECEPC~1\AppData\Local\Temp\ccFNC6Qx.s 			page 23


 1004 0198 0A       		.uleb128 0xa
 1005 0199 2F030000 		.4byte	.LASF33
 1006 019d 05       		.byte	0x5
 1007 019e 8B       		.byte	0x8b
 1008 019f 53030000 		.4byte	0x353
 1009 01a3 4B       		.byte	0x4b
 1010 01a4 0A       		.uleb128 0xa
 1011 01a5 72040000 		.4byte	.LASF34
 1012 01a9 05       		.byte	0x5
 1013 01aa 8C       		.byte	0x8c
 1014 01ab AD000000 		.4byte	0xad
 1015 01af 60       		.byte	0x60
 1016 01b0 0A       		.uleb128 0xa
 1017 01b1 26030000 		.4byte	.LASF35
 1018 01b5 05       		.byte	0x5
 1019 01b6 8D       		.byte	0x8d
 1020 01b7 AD000000 		.4byte	0xad
 1021 01bb 61       		.byte	0x61
 1022 01bc 0A       		.uleb128 0xa
 1023 01bd 81000000 		.4byte	.LASF36
 1024 01c1 05       		.byte	0x5
 1025 01c2 8E       		.byte	0x8e
 1026 01c3 AD000000 		.4byte	0xad
 1027 01c7 62       		.byte	0x62
 1028 01c8 0A       		.uleb128 0xa
 1029 01c9 3A080000 		.4byte	.LASF37
 1030 01cd 05       		.byte	0x5
 1031 01ce 8F       		.byte	0x8f
 1032 01cf 63030000 		.4byte	0x363
 1033 01d3 63       		.byte	0x63
 1034 01d4 0A       		.uleb128 0xa
 1035 01d5 0F030000 		.4byte	.LASF38
 1036 01d9 05       		.byte	0x5
 1037 01da 90       		.byte	0x90
 1038 01db 73030000 		.4byte	0x373
 1039 01df 65       		.byte	0x65
 1040 01e0 0A       		.uleb128 0xa
 1041 01e1 30020000 		.4byte	.LASF39
 1042 01e5 05       		.byte	0x5
 1043 01e6 91       		.byte	0x91
 1044 01e7 AD000000 		.4byte	0xad
 1045 01eb 79       		.byte	0x79
 1046 01ec 0A       		.uleb128 0xa
 1047 01ed 78060000 		.4byte	.LASF40
 1048 01f1 05       		.byte	0x5
 1049 01f2 92       		.byte	0x92
 1050 01f3 89030000 		.4byte	0x389
 1051 01f7 7A       		.byte	0x7a
 1052 01f8 0A       		.uleb128 0xa
 1053 01f9 DD050000 		.4byte	.LASF41
 1054 01fd 05       		.byte	0x5
 1055 01fe 93       		.byte	0x93
 1056 01ff 99030000 		.4byte	0x399
 1057 0203 7F       		.byte	0x7f
 1058 0204 0A       		.uleb128 0xa
 1059 0205 09090000 		.4byte	.LASF42
 1060 0209 05       		.byte	0x5
ARM GAS  C:\Users\RECEPC~1\AppData\Local\Temp\ccFNC6Qx.s 			page 24


 1061 020a 94       		.byte	0x94
 1062 020b 99030000 		.4byte	0x399
 1063 020f 85       		.byte	0x85
 1064 0210 0A       		.uleb128 0xa
 1065 0211 07050000 		.4byte	.LASF43
 1066 0215 05       		.byte	0x5
 1067 0216 95       		.byte	0x95
 1068 0217 A9030000 		.4byte	0x3a9
 1069 021b 8B       		.byte	0x8b
 1070 021c 0A       		.uleb128 0xa
 1071 021d DB010000 		.4byte	.LASF44
 1072 0221 05       		.byte	0x5
 1073 0222 96       		.byte	0x96
 1074 0223 A9030000 		.4byte	0x3a9
 1075 0227 99       		.byte	0x99
 1076 0228 0A       		.uleb128 0xa
 1077 0229 42040000 		.4byte	.LASF45
 1078 022d 05       		.byte	0x5
 1079 022e 97       		.byte	0x97
 1080 022f A9030000 		.4byte	0x3a9
 1081 0233 A7       		.byte	0xa7
 1082 0234 0A       		.uleb128 0xa
 1083 0235 AD030000 		.4byte	.LASF46
 1084 0239 05       		.byte	0x5
 1085 023a 98       		.byte	0x98
 1086 023b A9030000 		.4byte	0x3a9
 1087 023f B5       		.byte	0xb5
 1088 0240 0A       		.uleb128 0xa
 1089 0241 3B060000 		.4byte	.LASF47
 1090 0245 05       		.byte	0x5
 1091 0246 99       		.byte	0x99
 1092 0247 A9030000 		.4byte	0x3a9
 1093 024b C3       		.byte	0xc3
 1094 024c 0A       		.uleb128 0xa
 1095 024d D8040000 		.4byte	.LASF48
 1096 0251 05       		.byte	0x5
 1097 0252 9A       		.byte	0x9a
 1098 0253 A9030000 		.4byte	0x3a9
 1099 0257 D1       		.byte	0xd1
 1100 0258 0A       		.uleb128 0xa
 1101 0259 4E050000 		.4byte	.LASF49
 1102 025d 05       		.byte	0x5
 1103 025e 9B       		.byte	0x9b
 1104 025f B9030000 		.4byte	0x3b9
 1105 0263 DF       		.byte	0xdf
 1106 0264 0A       		.uleb128 0xa
 1107 0265 84020000 		.4byte	.LASF50
 1108 0269 05       		.byte	0x5
 1109 026a 9C       		.byte	0x9c
 1110 026b B9030000 		.4byte	0x3b9
 1111 026f EA       		.byte	0xea
 1112 0270 0A       		.uleb128 0xa
 1113 0271 1B030000 		.4byte	.LASF51
 1114 0275 05       		.byte	0x5
 1115 0276 9D       		.byte	0x9d
 1116 0277 B9030000 		.4byte	0x3b9
 1117 027b F5       		.byte	0xf5
ARM GAS  C:\Users\RECEPC~1\AppData\Local\Temp\ccFNC6Qx.s 			page 25


 1118 027c 0B       		.uleb128 0xb
 1119 027d 8E040000 		.4byte	.LASF52
 1120 0281 05       		.byte	0x5
 1121 0282 9E       		.byte	0x9e
 1122 0283 AD000000 		.4byte	0xad
 1123 0287 0001     		.2byte	0x100
 1124 0289 0B       		.uleb128 0xb
 1125 028a 92030000 		.4byte	.LASF53
 1126 028e 05       		.byte	0x5
 1127 028f 9F       		.byte	0x9f
 1128 0290 AD000000 		.4byte	0xad
 1129 0294 0101     		.2byte	0x101
 1130 0296 0B       		.uleb128 0xb
 1131 0297 BB000000 		.4byte	.LASF54
 1132 029b 05       		.byte	0x5
 1133 029c A0       		.byte	0xa0
 1134 029d AD000000 		.4byte	0xad
 1135 02a1 0201     		.2byte	0x102
 1136 02a3 0B       		.uleb128 0xb
 1137 02a4 D1050000 		.4byte	.LASF55
 1138 02a8 05       		.byte	0x5
 1139 02a9 A1       		.byte	0xa1
 1140 02aa AD000000 		.4byte	0xad
 1141 02ae 0301     		.2byte	0x103
 1142 02b0 0B       		.uleb128 0xb
 1143 02b1 BD030000 		.4byte	.LASF56
 1144 02b5 05       		.byte	0x5
 1145 02b6 A2       		.byte	0xa2
 1146 02b7 43030000 		.4byte	0x343
 1147 02bb 0401     		.2byte	0x104
 1148 02bd 0B       		.uleb128 0xb
 1149 02be 5C000000 		.4byte	.LASF57
 1150 02c2 05       		.byte	0x5
 1151 02c3 A3       		.byte	0xa3
 1152 02c4 43030000 		.4byte	0x343
 1153 02c8 0E01     		.2byte	0x10e
 1154 02ca 0B       		.uleb128 0xb
 1155 02cb A4030000 		.4byte	.LASF58
 1156 02cf 05       		.byte	0x5
 1157 02d0 A4       		.byte	0xa4
 1158 02d1 43030000 		.4byte	0x343
 1159 02d5 1801     		.2byte	0x118
 1160 02d7 0B       		.uleb128 0xb
 1161 02d8 5A050000 		.4byte	.LASF59
 1162 02dc 05       		.byte	0x5
 1163 02dd A5       		.byte	0xa5
 1164 02de C9030000 		.4byte	0x3c9
 1165 02e2 2201     		.2byte	0x122
 1166 02e4 0B       		.uleb128 0xb
 1167 02e5 C8030000 		.4byte	.LASF60
 1168 02e9 05       		.byte	0x5
 1169 02ea A6       		.byte	0xa6
 1170 02eb 63030000 		.4byte	0x363
 1171 02ef 3101     		.2byte	0x131
 1172 02f1 0B       		.uleb128 0xb
 1173 02f2 90020000 		.4byte	.LASF61
 1174 02f6 05       		.byte	0x5
ARM GAS  C:\Users\RECEPC~1\AppData\Local\Temp\ccFNC6Qx.s 			page 26


 1175 02f7 A7       		.byte	0xa7
 1176 02f8 AD000000 		.4byte	0xad
 1177 02fc 3301     		.2byte	0x133
 1178 02fe 0B       		.uleb128 0xb
 1179 02ff E9060000 		.4byte	.LASF62
 1180 0303 05       		.byte	0x5
 1181 0304 A8       		.byte	0xa8
 1182 0305 AD000000 		.4byte	0xad
 1183 0309 3401     		.2byte	0x134
 1184 030b 0B       		.uleb128 0xb
 1185 030c A9020000 		.4byte	.LASF63
 1186 0310 05       		.byte	0x5
 1187 0311 A9       		.byte	0xa9
 1188 0312 AD000000 		.4byte	0xad
 1189 0316 3501     		.2byte	0x135
 1190 0318 0B       		.uleb128 0xb
 1191 0319 AF050000 		.4byte	.LASF64
 1192 031d 05       		.byte	0x5
 1193 031e AA       		.byte	0xaa
 1194 031f B9030000 		.4byte	0x3b9
 1195 0323 3601     		.2byte	0x136
 1196 0325 0B       		.uleb128 0xb
 1197 0326 77080000 		.4byte	.LASF65
 1198 032a 05       		.byte	0x5
 1199 032b AB       		.byte	0xab
 1200 032c B9030000 		.4byte	0x3b9
 1201 0330 4101     		.2byte	0x141
 1202 0332 00       		.byte	0
 1203 0333 07       		.uleb128 0x7
 1204 0334 AD000000 		.4byte	0xad
 1205 0338 43030000 		.4byte	0x343
 1206 033c 08       		.uleb128 0x8
 1207 033d 08010000 		.4byte	0x108
 1208 0341 18       		.byte	0x18
 1209 0342 00       		.byte	0
 1210 0343 07       		.uleb128 0x7
 1211 0344 AD000000 		.4byte	0xad
 1212 0348 53030000 		.4byte	0x353
 1213 034c 08       		.uleb128 0x8
 1214 034d 08010000 		.4byte	0x108
 1215 0351 09       		.byte	0x9
 1216 0352 00       		.byte	0
 1217 0353 07       		.uleb128 0x7
 1218 0354 AD000000 		.4byte	0xad
 1219 0358 63030000 		.4byte	0x363
 1220 035c 08       		.uleb128 0x8
 1221 035d 08010000 		.4byte	0x108
 1222 0361 14       		.byte	0x14
 1223 0362 00       		.byte	0
 1224 0363 07       		.uleb128 0x7
 1225 0364 AD000000 		.4byte	0xad
 1226 0368 73030000 		.4byte	0x373
 1227 036c 08       		.uleb128 0x8
 1228 036d 08010000 		.4byte	0x108
 1229 0371 01       		.byte	0x1
 1230 0372 00       		.byte	0
 1231 0373 07       		.uleb128 0x7
ARM GAS  C:\Users\RECEPC~1\AppData\Local\Temp\ccFNC6Qx.s 			page 27


 1232 0374 AD000000 		.4byte	0xad
 1233 0378 89030000 		.4byte	0x389
 1234 037c 08       		.uleb128 0x8
 1235 037d 08010000 		.4byte	0x108
 1236 0381 01       		.byte	0x1
 1237 0382 08       		.uleb128 0x8
 1238 0383 08010000 		.4byte	0x108
 1239 0387 09       		.byte	0x9
 1240 0388 00       		.byte	0
 1241 0389 07       		.uleb128 0x7
 1242 038a AD000000 		.4byte	0xad
 1243 038e 99030000 		.4byte	0x399
 1244 0392 08       		.uleb128 0x8
 1245 0393 08010000 		.4byte	0x108
 1246 0397 04       		.byte	0x4
 1247 0398 00       		.byte	0
 1248 0399 07       		.uleb128 0x7
 1249 039a AD000000 		.4byte	0xad
 1250 039e A9030000 		.4byte	0x3a9
 1251 03a2 08       		.uleb128 0x8
 1252 03a3 08010000 		.4byte	0x108
 1253 03a7 05       		.byte	0x5
 1254 03a8 00       		.byte	0
 1255 03a9 07       		.uleb128 0x7
 1256 03aa AD000000 		.4byte	0xad
 1257 03ae B9030000 		.4byte	0x3b9
 1258 03b2 08       		.uleb128 0x8
 1259 03b3 08010000 		.4byte	0x108
 1260 03b7 0D       		.byte	0xd
 1261 03b8 00       		.byte	0
 1262 03b9 07       		.uleb128 0x7
 1263 03ba AD000000 		.4byte	0xad
 1264 03be C9030000 		.4byte	0x3c9
 1265 03c2 08       		.uleb128 0x8
 1266 03c3 08010000 		.4byte	0x108
 1267 03c7 0A       		.byte	0xa
 1268 03c8 00       		.byte	0
 1269 03c9 07       		.uleb128 0x7
 1270 03ca AD000000 		.4byte	0xad
 1271 03ce D9030000 		.4byte	0x3d9
 1272 03d2 08       		.uleb128 0x8
 1273 03d3 08010000 		.4byte	0x108
 1274 03d7 0E       		.byte	0xe
 1275 03d8 00       		.byte	0
 1276 03d9 09       		.uleb128 0x9
 1277 03da 43090000 		.4byte	.LASF67
 1278 03de 1201     		.2byte	0x112
 1279 03e0 05       		.byte	0x5
 1280 03e1 BC       		.byte	0xbc
 1281 03e2 B0040000 		.4byte	0x4b0
 1282 03e6 0C       		.uleb128 0xc
 1283 03e7 64697200 		.ascii	"dir\000"
 1284 03eb 05       		.byte	0x5
 1285 03ec BD       		.byte	0xbd
 1286 03ed AD000000 		.4byte	0xad
 1287 03f1 00       		.byte	0
 1288 03f2 0A       		.uleb128 0xa
ARM GAS  C:\Users\RECEPC~1\AppData\Local\Temp\ccFNC6Qx.s 			page 28


 1289 03f3 E9020000 		.4byte	.LASF68
 1290 03f7 05       		.byte	0x5
 1291 03f8 BE       		.byte	0xbe
 1292 03f9 B0040000 		.4byte	0x4b0
 1293 03fd 01       		.byte	0x1
 1294 03fe 0A       		.uleb128 0xa
 1295 03ff 22090000 		.4byte	.LASF69
 1296 0403 05       		.byte	0x5
 1297 0404 BF       		.byte	0xbf
 1298 0405 CC040000 		.4byte	0x4cc
 1299 0409 B5       		.byte	0xb5
 1300 040a 0A       		.uleb128 0xa
 1301 040b DA030000 		.4byte	.LASF70
 1302 040f 05       		.byte	0x5
 1303 0410 C0       		.byte	0xc0
 1304 0411 A9030000 		.4byte	0x3a9
 1305 0415 D5       		.byte	0xd5
 1306 0416 0A       		.uleb128 0xa
 1307 0417 5F080000 		.4byte	.LASF71
 1308 041b 05       		.byte	0x5
 1309 041c C1       		.byte	0xc1
 1310 041d A9030000 		.4byte	0x3a9
 1311 0421 E3       		.byte	0xe3
 1312 0422 0A       		.uleb128 0xa
 1313 0423 00040000 		.4byte	.LASF72
 1314 0427 05       		.byte	0x5
 1315 0428 C2       		.byte	0xc2
 1316 0429 A9030000 		.4byte	0x3a9
 1317 042d F1       		.byte	0xf1
 1318 042e 0A       		.uleb128 0xa
 1319 042f D0080000 		.4byte	.LASF73
 1320 0433 05       		.byte	0x5
 1321 0434 C3       		.byte	0xc3
 1322 0435 AD000000 		.4byte	0xad
 1323 0439 FF       		.byte	0xff
 1324 043a 0B       		.uleb128 0xb
 1325 043b DE060000 		.4byte	.LASF74
 1326 043f 05       		.byte	0x5
 1327 0440 C4       		.byte	0xc4
 1328 0441 AD000000 		.4byte	0xad
 1329 0445 0001     		.2byte	0x100
 1330 0447 0B       		.uleb128 0xb
 1331 0448 A7010000 		.4byte	.LASF75
 1332 044c 05       		.byte	0x5
 1333 044d C5       		.byte	0xc5
 1334 044e AD000000 		.4byte	0xad
 1335 0452 0101     		.2byte	0x101
 1336 0454 0B       		.uleb128 0xb
 1337 0455 EC050000 		.4byte	.LASF76
 1338 0459 05       		.byte	0x5
 1339 045a C6       		.byte	0xc6
 1340 045b AD000000 		.4byte	0xad
 1341 045f 0201     		.2byte	0x102
 1342 0461 0B       		.uleb128 0xb
 1343 0462 5C090000 		.4byte	.LASF77
 1344 0466 05       		.byte	0x5
 1345 0467 C7       		.byte	0xc7
ARM GAS  C:\Users\RECEPC~1\AppData\Local\Temp\ccFNC6Qx.s 			page 29


 1346 0468 AD000000 		.4byte	0xad
 1347 046c 0301     		.2byte	0x103
 1348 046e 0B       		.uleb128 0xb
 1349 046f 3C000000 		.4byte	.LASF78
 1350 0473 05       		.byte	0x5
 1351 0474 C8       		.byte	0xc8
 1352 0475 AD000000 		.4byte	0xad
 1353 0479 0401     		.2byte	0x104
 1354 047b 0B       		.uleb128 0xb
 1355 047c 24010000 		.4byte	.LASF79
 1356 0480 05       		.byte	0x5
 1357 0481 C9       		.byte	0xc9
 1358 0482 AD000000 		.4byte	0xad
 1359 0486 0501     		.2byte	0x105
 1360 0488 0B       		.uleb128 0xb
 1361 0489 03090000 		.4byte	.LASF80
 1362 048d 05       		.byte	0x5
 1363 048e CA       		.byte	0xca
 1364 048f AD000000 		.4byte	0xad
 1365 0493 0601     		.2byte	0x106
 1366 0495 0B       		.uleb128 0xb
 1367 0496 4E000000 		.4byte	.LASF81
 1368 049a 05       		.byte	0x5
 1369 049b CB       		.byte	0xcb
 1370 049c AD000000 		.4byte	0xad
 1371 04a0 0701     		.2byte	0x107
 1372 04a2 0B       		.uleb128 0xb
 1373 04a3 FB060000 		.4byte	.LASF82
 1374 04a7 05       		.byte	0x5
 1375 04a8 CC       		.byte	0xcc
 1376 04a9 43030000 		.4byte	0x343
 1377 04ad 0801     		.2byte	0x108
 1378 04af 00       		.byte	0
 1379 04b0 07       		.uleb128 0x7
 1380 04b1 AD000000 		.4byte	0xad
 1381 04b5 CC040000 		.4byte	0x4cc
 1382 04b9 08       		.uleb128 0x8
 1383 04ba 08010000 		.4byte	0x108
 1384 04be 03       		.byte	0x3
 1385 04bf 08       		.uleb128 0x8
 1386 04c0 08010000 		.4byte	0x108
 1387 04c4 02       		.byte	0x2
 1388 04c5 08       		.uleb128 0x8
 1389 04c6 08010000 		.4byte	0x108
 1390 04ca 0E       		.byte	0xe
 1391 04cb 00       		.byte	0
 1392 04cc 07       		.uleb128 0x7
 1393 04cd AD000000 		.4byte	0xad
 1394 04d1 E2040000 		.4byte	0x4e2
 1395 04d5 08       		.uleb128 0x8
 1396 04d6 08010000 		.4byte	0x108
 1397 04da 03       		.byte	0x3
 1398 04db 08       		.uleb128 0x8
 1399 04dc 08010000 		.4byte	0x108
 1400 04e0 07       		.byte	0x7
 1401 04e1 00       		.byte	0
 1402 04e2 09       		.uleb128 0x9
ARM GAS  C:\Users\RECEPC~1\AppData\Local\Temp\ccFNC6Qx.s 			page 30


 1403 04e3 DF070000 		.4byte	.LASF83
 1404 04e7 4804     		.2byte	0x448
 1405 04e9 05       		.byte	0x5
 1406 04ea CF       		.byte	0xcf
 1407 04eb 1B050000 		.4byte	0x51b
 1408 04ef 0C       		.uleb128 0xc
 1409 04f0 6100     		.ascii	"a\000"
 1410 04f2 05       		.byte	0x5
 1411 04f3 D0       		.byte	0xd0
 1412 04f4 D9030000 		.4byte	0x3d9
 1413 04f8 00       		.byte	0
 1414 04f9 0D       		.uleb128 0xd
 1415 04fa 6200     		.ascii	"b\000"
 1416 04fc 05       		.byte	0x5
 1417 04fd D1       		.byte	0xd1
 1418 04fe D9030000 		.4byte	0x3d9
 1419 0502 1201     		.2byte	0x112
 1420 0504 0D       		.uleb128 0xd
 1421 0505 6300     		.ascii	"c\000"
 1422 0507 05       		.byte	0x5
 1423 0508 D2       		.byte	0xd2
 1424 0509 D9030000 		.4byte	0x3d9
 1425 050d 2402     		.2byte	0x224
 1426 050f 0D       		.uleb128 0xd
 1427 0510 6400     		.ascii	"d\000"
 1428 0512 05       		.byte	0x5
 1429 0513 D3       		.byte	0xd3
 1430 0514 D9030000 		.4byte	0x3d9
 1431 0518 3603     		.2byte	0x336
 1432 051a 00       		.byte	0
 1433 051b 0E       		.uleb128 0xe
 1434 051c 02       		.byte	0x2
 1435 051d 06       		.byte	0x6
 1436 051e 2C       		.byte	0x2c
 1437 051f 3C050000 		.4byte	0x53c
 1438 0523 0A       		.uleb128 0xa
 1439 0524 C7080000 		.4byte	.LASF84
 1440 0528 06       		.byte	0x6
 1441 0529 2E       		.byte	0x2e
 1442 052a AD000000 		.4byte	0xad
 1443 052e 00       		.byte	0
 1444 052f 0A       		.uleb128 0xa
 1445 0530 B8020000 		.4byte	.LASF85
 1446 0534 06       		.byte	0x6
 1447 0535 2F       		.byte	0x2f
 1448 0536 AD000000 		.4byte	0xad
 1449 053a 01       		.byte	0x1
 1450 053b 00       		.byte	0
 1451 053c 03       		.uleb128 0x3
 1452 053d F6020000 		.4byte	.LASF86
 1453 0541 06       		.byte	0x6
 1454 0542 30       		.byte	0x30
 1455 0543 1B050000 		.4byte	0x51b
 1456 0547 0F       		.uleb128 0xf
 1457 0548 CD040000 		.4byte	.LASF88
 1458 054c 01       		.byte	0x1
 1459 054d 3C       		.byte	0x3c
ARM GAS  C:\Users\RECEPC~1\AppData\Local\Temp\ccFNC6Qx.s 			page 31


 1460 054e 00000000 		.4byte	.LFB63
 1461 0552 50000000 		.4byte	.LFE63-.LFB63
 1462 0556 01       		.uleb128 0x1
 1463 0557 9C       		.byte	0x9c
 1464 0558 C8050000 		.4byte	0x5c8
 1465 055c 10       		.uleb128 0x10
 1466 055d 6C636400 		.ascii	"lcd\000"
 1467 0561 01       		.byte	0x1
 1468 0562 3C       		.byte	0x3c
 1469 0563 AD000000 		.4byte	0xad
 1470 0567 00000000 		.4byte	.LLST0
 1471 056b 11       		.uleb128 0x11
 1472 056c B4040000 		.4byte	.LASF87
 1473 0570 01       		.byte	0x1
 1474 0571 3C       		.byte	0x3c
 1475 0572 B9000000 		.4byte	0xb9
 1476 0576 21000000 		.4byte	.LLST1
 1477 057a 12       		.uleb128 0x12
 1478 057b 70000000 		.4byte	.LASF66
 1479 057f 01       		.byte	0x1
 1480 0580 3D       		.byte	0x3d
 1481 0581 C8050000 		.4byte	0x5c8
 1482 0585 02       		.uleb128 0x2
 1483 0586 91       		.byte	0x91
 1484 0587 68       		.sleb128 -24
 1485 0588 13       		.uleb128 0x13
 1486 0589 7800     		.ascii	"x\000"
 1487 058b 01       		.byte	0x1
 1488 058c 3D       		.byte	0x3d
 1489 058d AD000000 		.4byte	0xad
 1490 0591 42000000 		.4byte	.LLST2
 1491 0595 14       		.uleb128 0x14
 1492 0596 30000000 		.4byte	.LVL5
 1493 059a 870F0000 		.4byte	0xf87
 1494 059e B0050000 		.4byte	0x5b0
 1495 05a2 15       		.uleb128 0x15
 1496 05a3 01       		.uleb128 0x1
 1497 05a4 50       		.byte	0x50
 1498 05a5 09       		.uleb128 0x9
 1499 05a6 91       		.byte	0x91
 1500 05a7 00       		.sleb128 0
 1501 05a8 74       		.byte	0x74
 1502 05a9 00       		.sleb128 0
 1503 05aa 22       		.byte	0x22
 1504 05ab 48       		.byte	0x48
 1505 05ac 1C       		.byte	0x1c
 1506 05ad 94       		.byte	0x94
 1507 05ae 01       		.byte	0x1
 1508 05af 00       		.byte	0
 1509 05b0 16       		.uleb128 0x16
 1510 05b1 3E000000 		.4byte	.LVL6
 1511 05b5 980F0000 		.4byte	0xf98
 1512 05b9 15       		.uleb128 0x15
 1513 05ba 01       		.uleb128 0x1
 1514 05bb 50       		.byte	0x50
 1515 05bc 09       		.uleb128 0x9
 1516 05bd 91       		.byte	0x91
ARM GAS  C:\Users\RECEPC~1\AppData\Local\Temp\ccFNC6Qx.s 			page 32


 1517 05be 00       		.sleb128 0
 1518 05bf 74       		.byte	0x74
 1519 05c0 00       		.sleb128 0
 1520 05c1 22       		.byte	0x22
 1521 05c2 48       		.byte	0x48
 1522 05c3 1C       		.byte	0x1c
 1523 05c4 94       		.byte	0x94
 1524 05c5 01       		.byte	0x1
 1525 05c6 00       		.byte	0
 1526 05c7 00       		.byte	0
 1527 05c8 07       		.uleb128 0x7
 1528 05c9 AD000000 		.4byte	0xad
 1529 05cd D8050000 		.4byte	0x5d8
 1530 05d1 08       		.uleb128 0x8
 1531 05d2 08010000 		.4byte	0x108
 1532 05d6 07       		.byte	0x7
 1533 05d7 00       		.byte	0
 1534 05d8 0F       		.uleb128 0xf
 1535 05d9 25040000 		.4byte	.LASF89
 1536 05dd 01       		.byte	0x1
 1537 05de 5A       		.byte	0x5a
 1538 05df 00000000 		.4byte	.LFB64
 1539 05e3 C8000000 		.4byte	.LFE64-.LFB64
 1540 05e7 01       		.uleb128 0x1
 1541 05e8 9C       		.byte	0x9c
 1542 05e9 A6060000 		.4byte	0x6a6
 1543 05ed 10       		.uleb128 0x10
 1544 05ee 6C636400 		.ascii	"lcd\000"
 1545 05f2 01       		.byte	0x1
 1546 05f3 5A       		.byte	0x5a
 1547 05f4 8C000000 		.4byte	0x8c
 1548 05f8 6C000000 		.4byte	.LLST3
 1549 05fc 11       		.uleb128 0x11
 1550 05fd 6E030000 		.4byte	.LASF90
 1551 0601 01       		.byte	0x1
 1552 0602 5A       		.byte	0x5a
 1553 0603 8C000000 		.4byte	0x8c
 1554 0607 8D000000 		.4byte	.LLST4
 1555 060b 11       		.uleb128 0x11
 1556 060c 4A080000 		.4byte	.LASF91
 1557 0610 01       		.byte	0x1
 1558 0611 5A       		.byte	0x5a
 1559 0612 97000000 		.4byte	0x97
 1560 0616 AE000000 		.4byte	.LLST5
 1561 061a 11       		.uleb128 0x11
 1562 061b 45080000 		.4byte	.LASF92
 1563 061f 01       		.byte	0x1
 1564 0620 5A       		.byte	0x5a
 1565 0621 97000000 		.4byte	0x97
 1566 0625 CF000000 		.4byte	.LLST6
 1567 0629 11       		.uleb128 0x11
 1568 062a 9B040000 		.4byte	.LASF93
 1569 062e 01       		.byte	0x1
 1570 062f 5A       		.byte	0x5a
 1571 0630 8C000000 		.4byte	0x8c
 1572 0634 F0000000 		.4byte	.LLST7
 1573 0638 11       		.uleb128 0x11
ARM GAS  C:\Users\RECEPC~1\AppData\Local\Temp\ccFNC6Qx.s 			page 33


 1574 0639 78030000 		.4byte	.LASF94
 1575 063d 01       		.byte	0x1
 1576 063e 5A       		.byte	0x5a
 1577 063f 97000000 		.4byte	0x97
 1578 0643 10010000 		.4byte	.LLST8
 1579 0647 11       		.uleb128 0x11
 1580 0648 9E020000 		.4byte	.LASF95
 1581 064c 01       		.byte	0x1
 1582 064d 5A       		.byte	0x5a
 1583 064e 8C000000 		.4byte	0x8c
 1584 0652 30010000 		.4byte	.LLST9
 1585 0656 12       		.uleb128 0x12
 1586 0657 70000000 		.4byte	.LASF66
 1587 065b 01       		.byte	0x1
 1588 065c 5B       		.byte	0x5b
 1589 065d A6060000 		.4byte	0x6a6
 1590 0661 02       		.uleb128 0x2
 1591 0662 91       		.byte	0x91
 1592 0663 4C       		.sleb128 -52
 1593 0664 13       		.uleb128 0x13
 1594 0665 7800     		.ascii	"x\000"
 1595 0667 01       		.byte	0x1
 1596 0668 5B       		.byte	0x5b
 1597 0669 8C000000 		.4byte	0x8c
 1598 066d 50010000 		.4byte	.LLST10
 1599 0671 14       		.uleb128 0x14
 1600 0672 A8000000 		.4byte	.LVL17
 1601 0676 870F0000 		.4byte	0xf87
 1602 067a 8D060000 		.4byte	0x68d
 1603 067e 15       		.uleb128 0x15
 1604 067f 01       		.uleb128 0x1
 1605 0680 50       		.byte	0x50
 1606 0681 0A       		.uleb128 0xa
 1607 0682 91       		.byte	0x91
 1608 0683 00       		.sleb128 0
 1609 0684 74       		.byte	0x74
 1610 0685 00       		.sleb128 0
 1611 0686 22       		.byte	0x22
 1612 0687 08       		.byte	0x8
 1613 0688 34       		.byte	0x34
 1614 0689 1C       		.byte	0x1c
 1615 068a 94       		.byte	0x94
 1616 068b 01       		.byte	0x1
 1617 068c 00       		.byte	0
 1618 068d 16       		.uleb128 0x16
 1619 068e B6000000 		.4byte	.LVL18
 1620 0692 980F0000 		.4byte	0xf98
 1621 0696 15       		.uleb128 0x15
 1622 0697 01       		.uleb128 0x1
 1623 0698 50       		.byte	0x50
 1624 0699 0A       		.uleb128 0xa
 1625 069a 91       		.byte	0x91
 1626 069b 00       		.sleb128 0
 1627 069c 74       		.byte	0x74
 1628 069d 00       		.sleb128 0
 1629 069e 22       		.byte	0x22
 1630 069f 08       		.byte	0x8
ARM GAS  C:\Users\RECEPC~1\AppData\Local\Temp\ccFNC6Qx.s 			page 34


 1631 06a0 34       		.byte	0x34
 1632 06a1 1C       		.byte	0x1c
 1633 06a2 94       		.byte	0x94
 1634 06a3 01       		.byte	0x1
 1635 06a4 00       		.byte	0
 1636 06a5 00       		.byte	0
 1637 06a6 07       		.uleb128 0x7
 1638 06a7 8C000000 		.4byte	0x8c
 1639 06ab B6060000 		.4byte	0x6b6
 1640 06af 08       		.uleb128 0x8
 1641 06b0 08010000 		.4byte	0x108
 1642 06b4 11       		.byte	0x11
 1643 06b5 00       		.byte	0
 1644 06b6 0F       		.uleb128 0xf
 1645 06b7 5E010000 		.4byte	.LASF96
 1646 06bb 01       		.byte	0x1
 1647 06bc 83       		.byte	0x83
 1648 06bd 00000000 		.4byte	.LFB65
 1649 06c1 5C000000 		.4byte	.LFE65-.LFB65
 1650 06c5 01       		.uleb128 0x1
 1651 06c6 9C       		.byte	0x9c
 1652 06c7 4D070000 		.4byte	0x74d
 1653 06cb 10       		.uleb128 0x10
 1654 06cc 6C636400 		.ascii	"lcd\000"
 1655 06d0 01       		.byte	0x1
 1656 06d1 83       		.byte	0x83
 1657 06d2 AD000000 		.4byte	0xad
 1658 06d6 7A010000 		.4byte	.LLST11
 1659 06da 11       		.uleb128 0x11
 1660 06db 9A000000 		.4byte	.LASF97
 1661 06df 01       		.byte	0x1
 1662 06e0 83       		.byte	0x83
 1663 06e1 AD000000 		.4byte	0xad
 1664 06e5 9B010000 		.4byte	.LLST12
 1665 06e9 12       		.uleb128 0x12
 1666 06ea 70000000 		.4byte	.LASF66
 1667 06ee 01       		.byte	0x1
 1668 06ef 84       		.byte	0x84
 1669 06f0 4D070000 		.4byte	0x74d
 1670 06f4 02       		.uleb128 0x2
 1671 06f5 91       		.byte	0x91
 1672 06f6 60       		.sleb128 -32
 1673 06f7 13       		.uleb128 0x13
 1674 06f8 7800     		.ascii	"x\000"
 1675 06fa 01       		.byte	0x1
 1676 06fb 84       		.byte	0x84
 1677 06fc 8C000000 		.4byte	0x8c
 1678 0700 BC010000 		.4byte	.LLST13
 1679 0704 14       		.uleb128 0x14
 1680 0705 36000000 		.4byte	.LVL27
 1681 0709 870F0000 		.4byte	0xf87
 1682 070d 20070000 		.4byte	0x720
 1683 0711 15       		.uleb128 0x15
 1684 0712 01       		.uleb128 0x1
 1685 0713 50       		.byte	0x50
 1686 0714 0A       		.uleb128 0xa
 1687 0715 91       		.byte	0x91
ARM GAS  C:\Users\RECEPC~1\AppData\Local\Temp\ccFNC6Qx.s 			page 35


 1688 0716 00       		.sleb128 0
 1689 0717 74       		.byte	0x74
 1690 0718 00       		.sleb128 0
 1691 0719 22       		.byte	0x22
 1692 071a 08       		.byte	0x8
 1693 071b 20       		.byte	0x20
 1694 071c 1C       		.byte	0x1c
 1695 071d 94       		.byte	0x94
 1696 071e 01       		.byte	0x1
 1697 071f 00       		.byte	0
 1698 0720 14       		.uleb128 0x14
 1699 0721 44000000 		.4byte	.LVL28
 1700 0725 980F0000 		.4byte	0xf98
 1701 0729 3C070000 		.4byte	0x73c
 1702 072d 15       		.uleb128 0x15
 1703 072e 01       		.uleb128 0x1
 1704 072f 50       		.byte	0x50
 1705 0730 0A       		.uleb128 0xa
 1706 0731 91       		.byte	0x91
 1707 0732 00       		.sleb128 0
 1708 0733 74       		.byte	0x74
 1709 0734 00       		.sleb128 0
 1710 0735 22       		.byte	0x22
 1711 0736 08       		.byte	0x8
 1712 0737 20       		.byte	0x20
 1713 0738 1C       		.byte	0x1c
 1714 0739 94       		.byte	0x94
 1715 073a 01       		.byte	0x1
 1716 073b 00       		.byte	0
 1717 073c 16       		.uleb128 0x16
 1718 073d 52000000 		.4byte	.LVL31
 1719 0741 A90F0000 		.4byte	0xfa9
 1720 0745 15       		.uleb128 0x15
 1721 0746 01       		.uleb128 0x1
 1722 0747 50       		.byte	0x50
 1723 0748 02       		.uleb128 0x2
 1724 0749 08       		.byte	0x8
 1725 074a 64       		.byte	0x64
 1726 074b 00       		.byte	0
 1727 074c 00       		.byte	0
 1728 074d 07       		.uleb128 0x7
 1729 074e 8C000000 		.4byte	0x8c
 1730 0752 5D070000 		.4byte	0x75d
 1731 0756 08       		.uleb128 0x8
 1732 0757 08010000 		.4byte	0x108
 1733 075b 0D       		.byte	0xd
 1734 075c 00       		.byte	0
 1735 075d 0F       		.uleb128 0xf
 1736 075e 06070000 		.4byte	.LASF98
 1737 0762 01       		.byte	0x1
 1738 0763 A6       		.byte	0xa6
 1739 0764 00000000 		.4byte	.LFB66
 1740 0768 32000000 		.4byte	.LFE66-.LFB66
 1741 076c 01       		.uleb128 0x1
 1742 076d 9C       		.byte	0x9c
 1743 076e DE070000 		.4byte	0x7de
 1744 0772 10       		.uleb128 0x10
ARM GAS  C:\Users\RECEPC~1\AppData\Local\Temp\ccFNC6Qx.s 			page 36


 1745 0773 6C636400 		.ascii	"lcd\000"
 1746 0777 01       		.byte	0x1
 1747 0778 A6       		.byte	0xa6
 1748 0779 AD000000 		.4byte	0xad
 1749 077d E6010000 		.4byte	.LLST14
 1750 0781 10       		.uleb128 0x10
 1751 0782 6D736700 		.ascii	"msg\000"
 1752 0786 01       		.byte	0x1
 1753 0787 A6       		.byte	0xa6
 1754 0788 DE070000 		.4byte	0x7de
 1755 078c 07020000 		.4byte	.LLST15
 1756 0790 11       		.uleb128 0x11
 1757 0791 45080000 		.4byte	.LASF92
 1758 0795 01       		.byte	0x1
 1759 0796 A6       		.byte	0xa6
 1760 0797 AD000000 		.4byte	0xad
 1761 079b 25020000 		.4byte	.LLST16
 1762 079f 13       		.uleb128 0x13
 1763 07a0 7800     		.ascii	"x\000"
 1764 07a2 01       		.byte	0x1
 1765 07a3 A7       		.byte	0xa7
 1766 07a4 AD000000 		.4byte	0xad
 1767 07a8 46020000 		.4byte	.LLST17
 1768 07ac 16       		.uleb128 0x16
 1769 07ad 26000000 		.4byte	.LVL36
 1770 07b1 D8050000 		.4byte	0x5d8
 1771 07b5 15       		.uleb128 0x15
 1772 07b6 01       		.uleb128 0x1
 1773 07b7 53       		.byte	0x53
 1774 07b8 05       		.uleb128 0x5
 1775 07b9 75       		.byte	0x75
 1776 07ba 00       		.sleb128 0
 1777 07bb 74       		.byte	0x74
 1778 07bc 00       		.sleb128 0
 1779 07bd 22       		.byte	0x22
 1780 07be 15       		.uleb128 0x15
 1781 07bf 01       		.uleb128 0x1
 1782 07c0 52       		.byte	0x52
 1783 07c1 01       		.uleb128 0x1
 1784 07c2 4F       		.byte	0x4f
 1785 07c3 15       		.uleb128 0x15
 1786 07c4 01       		.uleb128 0x1
 1787 07c5 50       		.byte	0x50
 1788 07c6 02       		.uleb128 0x2
 1789 07c7 77       		.byte	0x77
 1790 07c8 00       		.sleb128 0
 1791 07c9 15       		.uleb128 0x15
 1792 07ca 02       		.uleb128 0x2
 1793 07cb 7D       		.byte	0x7d
 1794 07cc 08       		.sleb128 8
 1795 07cd 02       		.uleb128 0x2
 1796 07ce 08       		.byte	0x8
 1797 07cf 4E       		.byte	0x4e
 1798 07d0 15       		.uleb128 0x15
 1799 07d1 02       		.uleb128 0x2
 1800 07d2 7D       		.byte	0x7d
 1801 07d3 04       		.sleb128 4
ARM GAS  C:\Users\RECEPC~1\AppData\Local\Temp\ccFNC6Qx.s 			page 37


 1802 07d4 01       		.uleb128 0x1
 1803 07d5 30       		.byte	0x30
 1804 07d6 15       		.uleb128 0x15
 1805 07d7 02       		.uleb128 0x2
 1806 07d8 7D       		.byte	0x7d
 1807 07d9 00       		.sleb128 0
 1808 07da 01       		.uleb128 0x1
 1809 07db 31       		.byte	0x31
 1810 07dc 00       		.byte	0
 1811 07dd 00       		.byte	0
 1812 07de 17       		.uleb128 0x17
 1813 07df 04       		.byte	0x4
 1814 07e0 AD000000 		.4byte	0xad
 1815 07e4 18       		.uleb128 0x18
 1816 07e5 07010000 		.4byte	.LASF194
 1817 07e9 01       		.byte	0x1
 1818 07ea BA       		.byte	0xba
 1819 07eb EB000000 		.4byte	0xeb
 1820 07ef 00000000 		.4byte	.LFB67
 1821 07f3 1C000000 		.4byte	.LFE67-.LFB67
 1822 07f7 01       		.uleb128 0x1
 1823 07f8 9C       		.byte	0x9c
 1824 07f9 2B080000 		.4byte	0x82b
 1825 07fd 11       		.uleb128 0x11
 1826 07fe 0A030000 		.4byte	.LASF99
 1827 0802 01       		.byte	0x1
 1828 0803 BA       		.byte	0xba
 1829 0804 AD000000 		.4byte	0xad
 1830 0808 70020000 		.4byte	.LLST18
 1831 080c 19       		.uleb128 0x19
 1832 080d 29020000 		.4byte	.LASF100
 1833 0811 01       		.byte	0x1
 1834 0812 BC       		.byte	0xbc
 1835 0813 EB000000 		.4byte	0xeb
 1836 0817 AA020000 		.4byte	.LLST19
 1837 081b 19       		.uleb128 0x19
 1838 081c BE080000 		.4byte	.LASF101
 1839 0820 01       		.byte	0x1
 1840 0821 BD       		.byte	0xbd
 1841 0822 2B080000 		.4byte	0x82b
 1842 0826 E0020000 		.4byte	.LLST20
 1843 082a 00       		.byte	0
 1844 082b 17       		.uleb128 0x17
 1845 082c 04       		.byte	0x4
 1846 082d 3C050000 		.4byte	0x53c
 1847 0831 0F       		.uleb128 0xf
 1848 0832 D2010000 		.4byte	.LASF102
 1849 0836 01       		.byte	0x1
 1850 0837 DA       		.byte	0xda
 1851 0838 00000000 		.4byte	.LFB68
 1852 083c C8000000 		.4byte	.LFE68-.LFB68
 1853 0840 01       		.uleb128 0x1
 1854 0841 9C       		.byte	0x9c
 1855 0842 FF080000 		.4byte	0x8ff
 1856 0846 10       		.uleb128 0x10
 1857 0847 6C636400 		.ascii	"lcd\000"
 1858 084b 01       		.byte	0x1
ARM GAS  C:\Users\RECEPC~1\AppData\Local\Temp\ccFNC6Qx.s 			page 38


 1859 084c DA       		.byte	0xda
 1860 084d 8C000000 		.4byte	0x8c
 1861 0851 03030000 		.4byte	.LLST21
 1862 0855 11       		.uleb128 0x11
 1863 0856 6E030000 		.4byte	.LASF90
 1864 085a 01       		.byte	0x1
 1865 085b DA       		.byte	0xda
 1866 085c 8C000000 		.4byte	0x8c
 1867 0860 24030000 		.4byte	.LLST22
 1868 0864 11       		.uleb128 0x11
 1869 0865 4A080000 		.4byte	.LASF91
 1870 0869 01       		.byte	0x1
 1871 086a DA       		.byte	0xda
 1872 086b 97000000 		.4byte	0x97
 1873 086f 45030000 		.4byte	.LLST23
 1874 0873 11       		.uleb128 0x11
 1875 0874 45080000 		.4byte	.LASF92
 1876 0878 01       		.byte	0x1
 1877 0879 DA       		.byte	0xda
 1878 087a 97000000 		.4byte	0x97
 1879 087e 66030000 		.4byte	.LLST24
 1880 0882 11       		.uleb128 0x11
 1881 0883 9B040000 		.4byte	.LASF93
 1882 0887 01       		.byte	0x1
 1883 0888 DA       		.byte	0xda
 1884 0889 8C000000 		.4byte	0x8c
 1885 088d 87030000 		.4byte	.LLST25
 1886 0891 11       		.uleb128 0x11
 1887 0892 78030000 		.4byte	.LASF94
 1888 0896 01       		.byte	0x1
 1889 0897 DA       		.byte	0xda
 1890 0898 97000000 		.4byte	0x97
 1891 089c A7030000 		.4byte	.LLST26
 1892 08a0 11       		.uleb128 0x11
 1893 08a1 9E020000 		.4byte	.LASF95
 1894 08a5 01       		.byte	0x1
 1895 08a6 DA       		.byte	0xda
 1896 08a7 8C000000 		.4byte	0x8c
 1897 08ab C7030000 		.4byte	.LLST27
 1898 08af 12       		.uleb128 0x12
 1899 08b0 70000000 		.4byte	.LASF66
 1900 08b4 01       		.byte	0x1
 1901 08b5 DB       		.byte	0xdb
 1902 08b6 A6060000 		.4byte	0x6a6
 1903 08ba 02       		.uleb128 0x2
 1904 08bb 91       		.byte	0x91
 1905 08bc 4C       		.sleb128 -52
 1906 08bd 13       		.uleb128 0x13
 1907 08be 7800     		.ascii	"x\000"
 1908 08c0 01       		.byte	0x1
 1909 08c1 DB       		.byte	0xdb
 1910 08c2 8C000000 		.4byte	0x8c
 1911 08c6 E7030000 		.4byte	.LLST28
 1912 08ca 14       		.uleb128 0x14
 1913 08cb A8000000 		.4byte	.LVL52
 1914 08cf 870F0000 		.4byte	0xf87
 1915 08d3 E6080000 		.4byte	0x8e6
ARM GAS  C:\Users\RECEPC~1\AppData\Local\Temp\ccFNC6Qx.s 			page 39


 1916 08d7 15       		.uleb128 0x15
 1917 08d8 01       		.uleb128 0x1
 1918 08d9 50       		.byte	0x50
 1919 08da 0A       		.uleb128 0xa
 1920 08db 91       		.byte	0x91
 1921 08dc 00       		.sleb128 0
 1922 08dd 74       		.byte	0x74
 1923 08de 00       		.sleb128 0
 1924 08df 22       		.byte	0x22
 1925 08e0 08       		.byte	0x8
 1926 08e1 34       		.byte	0x34
 1927 08e2 1C       		.byte	0x1c
 1928 08e3 94       		.byte	0x94
 1929 08e4 01       		.byte	0x1
 1930 08e5 00       		.byte	0
 1931 08e6 16       		.uleb128 0x16
 1932 08e7 B6000000 		.4byte	.LVL53
 1933 08eb 980F0000 		.4byte	0xf98
 1934 08ef 15       		.uleb128 0x15
 1935 08f0 01       		.uleb128 0x1
 1936 08f1 50       		.byte	0x50
 1937 08f2 0A       		.uleb128 0xa
 1938 08f3 91       		.byte	0x91
 1939 08f4 00       		.sleb128 0
 1940 08f5 74       		.byte	0x74
 1941 08f6 00       		.sleb128 0
 1942 08f7 22       		.byte	0x22
 1943 08f8 08       		.byte	0x8
 1944 08f9 34       		.byte	0x34
 1945 08fa 1C       		.byte	0x1c
 1946 08fb 94       		.byte	0x94
 1947 08fc 01       		.byte	0x1
 1948 08fd 00       		.byte	0
 1949 08fe 00       		.byte	0
 1950 08ff 1A       		.uleb128 0x1a
 1951 0900 97050000 		.4byte	.LASF103
 1952 0904 07       		.byte	0x7
 1953 0905 5506     		.2byte	0x655
 1954 0907 0B090000 		.4byte	0x90b
 1955 090b 06       		.uleb128 0x6
 1956 090c A2000000 		.4byte	0xa2
 1957 0910 1B       		.uleb128 0x1b
 1958 0911 08040000 		.4byte	.LASF104
 1959 0915 05       		.byte	0x5
 1960 0916 2C       		.byte	0x2c
 1961 0917 21090000 		.4byte	0x921
 1962 091b 05       		.uleb128 0x5
 1963 091c 03       		.byte	0x3
 1964 091d 00000000 		.4byte	countAnimation1
 1965 0921 06       		.uleb128 0x6
 1966 0922 DF000000 		.4byte	0xdf
 1967 0926 1B       		.uleb128 0x1b
 1968 0927 53040000 		.4byte	.LASF105
 1969 092b 05       		.byte	0x5
 1970 092c 2D       		.byte	0x2d
 1971 092d 21090000 		.4byte	0x921
 1972 0931 05       		.uleb128 0x5
ARM GAS  C:\Users\RECEPC~1\AppData\Local\Temp\ccFNC6Qx.s 			page 40


 1973 0932 03       		.byte	0x3
 1974 0933 00000000 		.4byte	countAnimation2
 1975 0937 1B       		.uleb128 0x1b
 1976 0938 46000000 		.4byte	.LASF106
 1977 093c 05       		.byte	0x5
 1978 093d 2E       		.byte	0x2e
 1979 093e 21090000 		.4byte	0x921
 1980 0942 05       		.uleb128 0x5
 1981 0943 03       		.byte	0x3
 1982 0944 00000000 		.4byte	countRX
 1983 0948 1B       		.uleb128 0x1b
 1984 0949 1C010000 		.4byte	.LASF107
 1985 094d 05       		.byte	0x5
 1986 094e 2F       		.byte	0x2f
 1987 094f 21090000 		.4byte	0x921
 1988 0953 05       		.uleb128 0x5
 1989 0954 03       		.byte	0x3
 1990 0955 00000000 		.4byte	countTX
 1991 0959 1B       		.uleb128 0x1b
 1992 095a B4080000 		.4byte	.LASF108
 1993 095e 05       		.byte	0x5
 1994 095f 30       		.byte	0x30
 1995 0960 21090000 		.4byte	0x921
 1996 0964 05       		.uleb128 0x5
 1997 0965 03       		.byte	0x3
 1998 0966 00000000 		.4byte	countPump
 1999 096a 1B       		.uleb128 0x1b
 2000 096b 72020000 		.4byte	.LASF109
 2001 096f 05       		.byte	0x5
 2002 0970 31       		.byte	0x31
 2003 0971 21090000 		.4byte	0x921
 2004 0975 05       		.uleb128 0x5
 2005 0976 03       		.byte	0x3
 2006 0977 00000000 		.4byte	countLCD
 2007 097b 1B       		.uleb128 0x1b
 2008 097c C4050000 		.4byte	.LASF110
 2009 0980 05       		.byte	0x5
 2010 0981 32       		.byte	0x32
 2011 0982 03010000 		.4byte	0x103
 2012 0986 05       		.uleb128 0x5
 2013 0987 03       		.byte	0x3
 2014 0988 00000000 		.4byte	flowDisplay1
 2015 098c 1B       		.uleb128 0x1b
 2016 098d C2020000 		.4byte	.LASF111
 2017 0991 05       		.byte	0x5
 2018 0992 33       		.byte	0x33
 2019 0993 03010000 		.4byte	0x103
 2020 0997 05       		.uleb128 0x5
 2021 0998 03       		.byte	0x3
 2022 0999 00000000 		.4byte	flowDisplay2
 2023 099d 1B       		.uleb128 0x1b
 2024 099e CF020000 		.4byte	.LASF112
 2025 09a2 05       		.byte	0x5
 2026 09a3 34       		.byte	0x34
 2027 09a4 03010000 		.4byte	0x103
 2028 09a8 05       		.uleb128 0x5
 2029 09a9 03       		.byte	0x3
ARM GAS  C:\Users\RECEPC~1\AppData\Local\Temp\ccFNC6Qx.s 			page 41


 2030 09aa 00000000 		.4byte	flowDisplay3
 2031 09ae 1B       		.uleb128 0x1b
 2032 09af DC020000 		.4byte	.LASF113
 2033 09b3 05       		.byte	0x5
 2034 09b4 35       		.byte	0x35
 2035 09b5 03010000 		.4byte	0x103
 2036 09b9 05       		.uleb128 0x5
 2037 09ba 03       		.byte	0x3
 2038 09bb 00000000 		.4byte	flowDisplay4
 2039 09bf 1B       		.uleb128 0x1b
 2040 09c0 4F030000 		.4byte	.LASF114
 2041 09c4 05       		.byte	0x5
 2042 09c5 36       		.byte	0x36
 2043 09c6 FE000000 		.4byte	0xfe
 2044 09ca 05       		.uleb128 0x5
 2045 09cb 03       		.byte	0x3
 2046 09cc 00000000 		.4byte	numberKeys1
 2047 09d0 1B       		.uleb128 0x1b
 2048 09d1 5B030000 		.4byte	.LASF115
 2049 09d5 05       		.byte	0x5
 2050 09d6 37       		.byte	0x37
 2051 09d7 FE000000 		.4byte	0xfe
 2052 09db 05       		.uleb128 0x5
 2053 09dc 03       		.byte	0x3
 2054 09dd 00000000 		.4byte	numberKeys2
 2055 09e1 1B       		.uleb128 0x1b
 2056 09e2 1A050000 		.4byte	.LASF116
 2057 09e6 05       		.byte	0x5
 2058 09e7 38       		.byte	0x38
 2059 09e8 FE000000 		.4byte	0xfe
 2060 09ec 05       		.uleb128 0x5
 2061 09ed 03       		.byte	0x3
 2062 09ee 00000000 		.4byte	flagPoint1
 2063 09f2 1B       		.uleb128 0x1b
 2064 09f3 11010000 		.4byte	.LASF117
 2065 09f7 05       		.byte	0x5
 2066 09f8 39       		.byte	0x39
 2067 09f9 FE000000 		.4byte	0xfe
 2068 09fd 05       		.uleb128 0x5
 2069 09fe 03       		.byte	0x3
 2070 09ff 00000000 		.4byte	flagPoint2
 2071 0a03 1B       		.uleb128 0x1b
 2072 0a04 49020000 		.4byte	.LASF118
 2073 0a08 05       		.byte	0x5
 2074 0a09 3A       		.byte	0x3a
 2075 0a0a FE000000 		.4byte	0xfe
 2076 0a0e 05       		.uleb128 0x5
 2077 0a0f 03       		.byte	0x3
 2078 0a10 00000000 		.4byte	productNumber
 2079 0a14 1B       		.uleb128 0x1b
 2080 0a15 5C060000 		.4byte	.LASF119
 2081 0a19 05       		.byte	0x5
 2082 0a1a 3B       		.byte	0x3b
 2083 0a1b 03010000 		.4byte	0x103
 2084 0a1f 05       		.uleb128 0x5
 2085 0a20 03       		.byte	0x3
 2086 0a21 00000000 		.4byte	delayPicture1
ARM GAS  C:\Users\RECEPC~1\AppData\Local\Temp\ccFNC6Qx.s 			page 42


 2087 0a25 1B       		.uleb128 0x1b
 2088 0a26 6A060000 		.4byte	.LASF120
 2089 0a2a 05       		.byte	0x5
 2090 0a2b 3C       		.byte	0x3c
 2091 0a2c 03010000 		.4byte	0x103
 2092 0a30 05       		.uleb128 0x5
 2093 0a31 03       		.byte	0x3
 2094 0a32 00000000 		.4byte	delayPicture2
 2095 0a36 1B       		.uleb128 0x1b
 2096 0a37 00050000 		.4byte	.LASF121
 2097 0a3b 05       		.byte	0x5
 2098 0a3c 3D       		.byte	0x3d
 2099 0a3d FE000000 		.4byte	0xfe
 2100 0a41 05       		.uleb128 0x5
 2101 0a42 03       		.byte	0x3
 2102 0a43 00000000 		.4byte	ppux10
 2103 0a47 1B       		.uleb128 0x1b
 2104 0a48 37050000 		.4byte	.LASF122
 2105 0a4c 05       		.byte	0x5
 2106 0a4d 3E       		.byte	0x3e
 2107 0a4e 580A0000 		.4byte	0xa58
 2108 0a52 05       		.uleb128 0x5
 2109 0a53 03       		.byte	0x3
 2110 0a54 00000000 		.4byte	symbols
 2111 0a58 06       		.uleb128 0x6
 2112 0a59 63030000 		.4byte	0x363
 2113 0a5d 07       		.uleb128 0x7
 2114 0a5e AD000000 		.4byte	0xad
 2115 0a62 6D0A0000 		.4byte	0xa6d
 2116 0a66 08       		.uleb128 0x8
 2117 0a67 08010000 		.4byte	0x108
 2118 0a6b 02       		.byte	0x2
 2119 0a6c 00       		.byte	0
 2120 0a6d 1B       		.uleb128 0x1b
 2121 0a6e 0E020000 		.4byte	.LASF123
 2122 0a72 05       		.byte	0x5
 2123 0a73 3F       		.byte	0x3f
 2124 0a74 7E0A0000 		.4byte	0xa7e
 2125 0a78 05       		.uleb128 0x5
 2126 0a79 03       		.byte	0x3
 2127 0a7a 00000000 		.4byte	time
 2128 0a7e 06       		.uleb128 0x6
 2129 0a7f 5D0A0000 		.4byte	0xa5d
 2130 0a83 1B       		.uleb128 0x1b
 2131 0a84 73030000 		.4byte	.LASF124
 2132 0a88 05       		.byte	0x5
 2133 0a89 40       		.byte	0x40
 2134 0a8a 940A0000 		.4byte	0xa94
 2135 0a8e 05       		.uleb128 0x5
 2136 0a8f 03       		.byte	0x3
 2137 0a90 00000000 		.4byte	date
 2138 0a94 06       		.uleb128 0x6
 2139 0a95 5D0A0000 		.4byte	0xa5d
 2140 0a99 1B       		.uleb128 0x1b
 2141 0a9a 2E010000 		.4byte	.LASF125
 2142 0a9e 05       		.byte	0x5
 2143 0a9f 41       		.byte	0x41
ARM GAS  C:\Users\RECEPC~1\AppData\Local\Temp\ccFNC6Qx.s 			page 43


 2144 0aa0 AA0A0000 		.4byte	0xaaa
 2145 0aa4 05       		.uleb128 0x5
 2146 0aa5 03       		.byte	0x3
 2147 0aa6 00000000 		.4byte	screen
 2148 0aaa 06       		.uleb128 0x6
 2149 0aab 63030000 		.4byte	0x363
 2150 0aaf 1B       		.uleb128 0x1b
 2151 0ab0 CA000000 		.4byte	.LASF126
 2152 0ab4 05       		.byte	0x5
 2153 0ab5 42       		.byte	0x42
 2154 0ab6 C00A0000 		.4byte	0xac0
 2155 0aba 05       		.uleb128 0x5
 2156 0abb 03       		.byte	0x3
 2157 0abc 00000000 		.4byte	residue
 2158 0ac0 06       		.uleb128 0x6
 2159 0ac1 A9030000 		.4byte	0x3a9
 2160 0ac5 1B       		.uleb128 0x1b
 2161 0ac6 57020000 		.4byte	.LASF127
 2162 0aca 05       		.byte	0x5
 2163 0acb 43       		.byte	0x43
 2164 0acc D60A0000 		.4byte	0xad6
 2165 0ad0 05       		.uleb128 0x5
 2166 0ad1 03       		.byte	0x3
 2167 0ad2 00000000 		.4byte	idSeller
 2168 0ad6 06       		.uleb128 0x6
 2169 0ad7 33030000 		.4byte	0x333
 2170 0adb 1B       		.uleb128 0x1b
 2171 0adc B7050000 		.4byte	.LASF128
 2172 0ae0 05       		.byte	0x5
 2173 0ae1 44       		.byte	0x44
 2174 0ae2 FE000000 		.4byte	0xfe
 2175 0ae6 05       		.uleb128 0x5
 2176 0ae7 03       		.byte	0x3
 2177 0ae8 00000000 		.4byte	typeIdSeller
 2178 0aec 1B       		.uleb128 0x1b
 2179 0aed 2C060000 		.4byte	.LASF129
 2180 0af1 05       		.byte	0x5
 2181 0af2 45       		.byte	0x45
 2182 0af3 FD0A0000 		.4byte	0xafd
 2183 0af7 05       		.uleb128 0x5
 2184 0af8 03       		.byte	0x3
 2185 0af9 00000000 		.4byte	passwordSeller
 2186 0afd 06       		.uleb128 0x6
 2187 0afe C8050000 		.4byte	0x5c8
 2188 0b02 1B       		.uleb128 0x1b
 2189 0b03 A7040000 		.4byte	.LASF130
 2190 0b07 05       		.byte	0x5
 2191 0b08 46       		.byte	0x46
 2192 0b09 FE000000 		.4byte	0xfe
 2193 0b0d 05       		.uleb128 0x5
 2194 0b0e 03       		.byte	0x3
 2195 0b0f 00000000 		.4byte	flagResetMux
 2196 0b13 1B       		.uleb128 0x1b
 2197 0b14 32040000 		.4byte	.LASF131
 2198 0b18 05       		.byte	0x5
 2199 0b19 47       		.byte	0x47
 2200 0b1a FE000000 		.4byte	0xfe
ARM GAS  C:\Users\RECEPC~1\AppData\Local\Temp\ccFNC6Qx.s 			page 44


 2201 0b1e 05       		.uleb128 0x5
 2202 0b1f 03       		.byte	0x3
 2203 0b20 00000000 		.4byte	stateBeagleSoft
 2204 0b24 1B       		.uleb128 0x1b
 2205 0b25 2E000000 		.4byte	.LASF132
 2206 0b29 05       		.byte	0x5
 2207 0b2a 48       		.byte	0x48
 2208 0b2b 350B0000 		.4byte	0xb35
 2209 0b2f 05       		.uleb128 0x5
 2210 0b30 03       		.byte	0x3
 2211 0b31 00000000 		.4byte	PrevStatePump
 2212 0b35 06       		.uleb128 0x6
 2213 0b36 0F010000 		.4byte	0x10f
 2214 0b3a 1B       		.uleb128 0x1b
 2215 0b3b 41010000 		.4byte	.LASF133
 2216 0b3f 05       		.byte	0x5
 2217 0b40 49       		.byte	0x49
 2218 0b41 FE000000 		.4byte	0xfe
 2219 0b45 05       		.uleb128 0x5
 2220 0b46 03       		.byte	0x3
 2221 0b47 00000000 		.4byte	PlateRequest
 2222 0b4b 1B       		.uleb128 0x1b
 2223 0b4c 90050000 		.4byte	.LASF134
 2224 0b50 05       		.byte	0x5
 2225 0b51 4A       		.byte	0x4a
 2226 0b52 5C0B0000 		.4byte	0xb5c
 2227 0b56 05       		.uleb128 0x5
 2228 0b57 03       		.byte	0x3
 2229 0b58 00000000 		.4byte	IDCast
 2230 0b5c 06       		.uleb128 0x6
 2231 0b5d 63030000 		.4byte	0x363
 2232 0b61 1B       		.uleb128 0x1b
 2233 0b62 D1030000 		.4byte	.LASF135
 2234 0b66 05       		.byte	0x5
 2235 0b67 4B       		.byte	0x4b
 2236 0b68 FE000000 		.4byte	0xfe
 2237 0b6c 05       		.uleb128 0x5
 2238 0b6d 03       		.byte	0x3
 2239 0b6e 00000000 		.4byte	ActiveRF
 2240 0b72 1B       		.uleb128 0x1b
 2241 0b73 24000000 		.4byte	.LASF136
 2242 0b77 05       		.byte	0x5
 2243 0b78 4C       		.byte	0x4c
 2244 0b79 FE000000 		.4byte	0xfe
 2245 0b7d 05       		.uleb128 0x5
 2246 0b7e 03       		.byte	0x3
 2247 0b7f 00000000 		.4byte	counterRF
 2248 0b83 07       		.uleb128 0x7
 2249 0b84 AD000000 		.4byte	0xad
 2250 0b88 930B0000 		.4byte	0xb93
 2251 0b8c 08       		.uleb128 0x8
 2252 0b8d 08010000 		.4byte	0x108
 2253 0b91 1D       		.byte	0x1d
 2254 0b92 00       		.byte	0
 2255 0b93 1B       		.uleb128 0x1b
 2256 0b94 2A080000 		.4byte	.LASF137
 2257 0b98 05       		.byte	0x5
ARM GAS  C:\Users\RECEPC~1\AppData\Local\Temp\ccFNC6Qx.s 			page 45


 2258 0b99 4D       		.byte	0x4d
 2259 0b9a A40B0000 		.4byte	0xba4
 2260 0b9e 05       		.uleb128 0x5
 2261 0b9f 03       		.byte	0x3
 2262 0ba0 00000000 		.4byte	temporal
 2263 0ba4 06       		.uleb128 0x6
 2264 0ba5 830B0000 		.4byte	0xb83
 2265 0ba9 1B       		.uleb128 0x1b
 2266 0baa D2000000 		.4byte	.LASF138
 2267 0bae 05       		.byte	0x5
 2268 0baf 4E       		.byte	0x4e
 2269 0bb0 BA0B0000 		.4byte	0xbba
 2270 0bb4 05       		.uleb128 0x5
 2271 0bb5 03       		.byte	0x3
 2272 0bb6 00000000 		.4byte	tempPreset
 2273 0bba 06       		.uleb128 0x6
 2274 0bbb C8050000 		.4byte	0x5c8
 2275 0bbf 1B       		.uleb128 0x1b
 2276 0bc0 4C090000 		.4byte	.LASF139
 2277 0bc4 05       		.byte	0x5
 2278 0bc5 4F       		.byte	0x4f
 2279 0bc6 D00B0000 		.4byte	0xbd0
 2280 0bca 05       		.uleb128 0x5
 2281 0bcb 03       		.byte	0x3
 2282 0bcc 00000000 		.4byte	tempPPU
 2283 0bd0 06       		.uleb128 0x6
 2284 0bd1 89030000 		.4byte	0x389
 2285 0bd5 1B       		.uleb128 0x1b
 2286 0bd6 6C010000 		.4byte	.LASF140
 2287 0bda 05       		.byte	0x5
 2288 0bdb 50       		.byte	0x50
 2289 0bdc FE000000 		.4byte	0xfe
 2290 0be0 05       		.uleb128 0x5
 2291 0be1 03       		.byte	0x3
 2292 0be2 00000000 		.4byte	CGrade
 2293 0be6 1B       		.uleb128 0x1b
 2294 0be7 84010000 		.4byte	.LASF141
 2295 0beb 05       		.byte	0x5
 2296 0bec 51       		.byte	0x51
 2297 0bed FE000000 		.4byte	0xfe
 2298 0bf1 05       		.uleb128 0x5
 2299 0bf2 03       		.byte	0x3
 2300 0bf3 00000000 		.4byte	ShiftState
 2301 0bf7 1B       		.uleb128 0x1b
 2302 0bf8 D3060000 		.4byte	.LASF142
 2303 0bfc 05       		.byte	0x5
 2304 0bfd 52       		.byte	0x52
 2305 0bfe FE000000 		.4byte	0xfe
 2306 0c02 05       		.uleb128 0x5
 2307 0c03 03       		.byte	0x3
 2308 0c04 00000000 		.4byte	pollTotals
 2309 0c08 1B       		.uleb128 0x1b
 2310 0c09 18090000 		.4byte	.LASF143
 2311 0c0d 05       		.byte	0x5
 2312 0c0e 53       		.byte	0x53
 2313 0c0f FE000000 		.4byte	0xfe
 2314 0c13 05       		.uleb128 0x5
ARM GAS  C:\Users\RECEPC~1\AppData\Local\Temp\ccFNC6Qx.s 			page 46


 2315 0c14 03       		.byte	0x3
 2316 0c15 00000000 		.4byte	sizeSendB
 2317 0c19 1B       		.uleb128 0x1b
 2318 0c1a 32070000 		.4byte	.LASF144
 2319 0c1e 05       		.byte	0x5
 2320 0c1f 54       		.byte	0x54
 2321 0c20 FE000000 		.4byte	0xfe
 2322 0c24 05       		.uleb128 0x5
 2323 0c25 03       		.byte	0x3
 2324 0c26 00000000 		.4byte	bufferAready
 2325 0c2a 1B       		.uleb128 0x1b
 2326 0c2b 4C060000 		.4byte	.LASF145
 2327 0c2f 05       		.byte	0x5
 2328 0c30 56       		.byte	0x56
 2329 0c31 AD000000 		.4byte	0xad
 2330 0c35 05       		.uleb128 0x5
 2331 0c36 03       		.byte	0x3
 2332 0c37 00000000 		.4byte	UnitType
 2333 0c3b 1B       		.uleb128 0x1b
 2334 0c3c 3E030000 		.4byte	.LASF146
 2335 0c40 05       		.byte	0x5
 2336 0c41 56       		.byte	0x56
 2337 0c42 AD000000 		.4byte	0xad
 2338 0c46 05       		.uleb128 0x5
 2339 0c47 03       		.byte	0x3
 2340 0c48 00000000 		.4byte	ConversionFactor
 2341 0c4c 1B       		.uleb128 0x1b
 2342 0c4d 8F010000 		.4byte	.LASF147
 2343 0c51 05       		.byte	0x5
 2344 0c52 56       		.byte	0x56
 2345 0c53 AD000000 		.4byte	0xad
 2346 0c57 05       		.uleb128 0x5
 2347 0c58 03       		.byte	0x3
 2348 0c59 00000000 		.4byte	MoneyDec
 2349 0c5d 1B       		.uleb128 0x1b
 2350 0c5e 33080000 		.4byte	.LASF148
 2351 0c62 05       		.byte	0x5
 2352 0c63 56       		.byte	0x56
 2353 0c64 AD000000 		.4byte	0xad
 2354 0c68 05       		.uleb128 0x5
 2355 0c69 03       		.byte	0x3
 2356 0c6a 00000000 		.4byte	VolDec
 2357 0c6e 1B       		.uleb128 0x1b
 2358 0c6f CC060000 		.4byte	.LASF149
 2359 0c73 05       		.byte	0x5
 2360 0c74 56       		.byte	0x56
 2361 0c75 AD000000 		.4byte	0xad
 2362 0c79 05       		.uleb128 0x5
 2363 0c7a 03       		.byte	0x3
 2364 0c7b 00000000 		.4byte	PPUDec
 2365 0c7f 1B       		.uleb128 0x1b
 2366 0c80 E4000000 		.4byte	.LASF150
 2367 0c84 05       		.byte	0x5
 2368 0c85 56       		.byte	0x56
 2369 0c86 AD000000 		.4byte	0xad
 2370 0c8a 05       		.uleb128 0x5
 2371 0c8b 03       		.byte	0x3
ARM GAS  C:\Users\RECEPC~1\AppData\Local\Temp\ccFNC6Qx.s 			page 47


 2372 0c8c 00000000 		.4byte	DDMode
 2373 0c90 1B       		.uleb128 0x1b
 2374 0c91 80030000 		.4byte	.LASF151
 2375 0c95 05       		.byte	0x5
 2376 0c96 57       		.byte	0x57
 2377 0c97 0F010000 		.4byte	0x10f
 2378 0c9b 05       		.uleb128 0x5
 2379 0c9c 03       		.byte	0x3
 2380 0c9d 00000000 		.4byte	statePump
 2381 0ca1 1B       		.uleb128 0x1b
 2382 0ca2 18040000 		.4byte	.LASF152
 2383 0ca6 05       		.byte	0x5
 2384 0ca7 58       		.byte	0x58
 2385 0ca8 AD000000 		.4byte	0xad
 2386 0cac 05       		.uleb128 0x5
 2387 0cad 03       		.byte	0x3
 2388 0cae 00000000 		.4byte	NumPositions
 2389 0cb2 1B       		.uleb128 0x1b
 2390 0cb3 69020000 		.4byte	.LASF153
 2391 0cb7 05       		.byte	0x5
 2392 0cb8 59       		.byte	0x59
 2393 0cb9 AD000000 		.4byte	0xad
 2394 0cbd 05       		.uleb128 0x5
 2395 0cbe 03       		.byte	0x3
 2396 0cbf 00000000 		.4byte	lockTurn
 2397 0cc3 1B       		.uleb128 0x1b
 2398 0cc4 07020000 		.4byte	.LASF154
 2399 0cc8 05       		.byte	0x5
 2400 0cc9 5A       		.byte	0x5a
 2401 0cca AD000000 		.4byte	0xad
 2402 0cce 05       		.uleb128 0x5
 2403 0ccf 03       		.byte	0x3
 2404 0cd0 00000000 		.4byte	digits
 2405 0cd4 1B       		.uleb128 0x1b
 2406 0cd5 A4050000 		.4byte	.LASF155
 2407 0cd9 05       		.byte	0x5
 2408 0cda 5B       		.byte	0x5b
 2409 0cdb AD000000 		.4byte	0xad
 2410 0cdf 05       		.uleb128 0x5
 2411 0ce0 03       		.byte	0x3
 2412 0ce1 00000000 		.4byte	hiddenKeys
 2413 0ce5 1B       		.uleb128 0x1b
 2414 0ce6 A5000000 		.4byte	.LASF156
 2415 0cea 05       		.byte	0x5
 2416 0ceb 5C       		.byte	0x5c
 2417 0cec AD000000 		.4byte	0xad
 2418 0cf0 05       		.uleb128 0x5
 2419 0cf1 03       		.byte	0x3
 2420 0cf2 00000000 		.4byte	PrinterType
 2421 0cf6 07       		.uleb128 0x7
 2422 0cf7 EB000000 		.4byte	0xeb
 2423 0cfb 060D0000 		.4byte	0xd06
 2424 0cff 08       		.uleb128 0x8
 2425 0d00 08010000 		.4byte	0x108
 2426 0d04 05       		.byte	0x5
 2427 0d05 00       		.byte	0
 2428 0d06 1B       		.uleb128 0x1b
ARM GAS  C:\Users\RECEPC~1\AppData\Local\Temp\ccFNC6Qx.s 			page 48


 2429 0d07 88050000 		.4byte	.LASF157
 2430 0d0b 05       		.byte	0x5
 2431 0d0c 5D       		.byte	0x5d
 2432 0d0d F60C0000 		.4byte	0xcf6
 2433 0d11 05       		.uleb128 0x5
 2434 0d12 03       		.byte	0x3
 2435 0d13 00000000 		.4byte	VolUnit
 2436 0d17 1B       		.uleb128 0x1b
 2437 0d18 3F050000 		.4byte	.LASF158
 2438 0d1c 05       		.byte	0x5
 2439 0d1d 5E       		.byte	0x5e
 2440 0d1e 5D0A0000 		.4byte	0xa5d
 2441 0d22 05       		.uleb128 0x5
 2442 0d23 03       		.byte	0x3
 2443 0d24 00000000 		.4byte	dateDownHandle
 2444 0d28 1B       		.uleb128 0x1b
 2445 0d29 63040000 		.4byte	.LASF159
 2446 0d2d 05       		.byte	0x5
 2447 0d2e 5F       		.byte	0x5f
 2448 0d2f 63030000 		.4byte	0x363
 2449 0d33 05       		.uleb128 0x5
 2450 0d34 03       		.byte	0x3
 2451 0d35 00000000 		.4byte	timeDownHandle
 2452 0d39 1B       		.uleb128 0x1b
 2453 0d3a 91080000 		.4byte	.LASF160
 2454 0d3e 05       		.byte	0x5
 2455 0d3f 60       		.byte	0x60
 2456 0d40 AD000000 		.4byte	0xad
 2457 0d44 05       		.uleb128 0x5
 2458 0d45 03       		.byte	0x3
 2459 0d46 00000000 		.4byte	count_protector
 2460 0d4a 1B       		.uleb128 0x1b
 2461 0d4b 08000000 		.4byte	.LASF161
 2462 0d4f 05       		.byte	0x5
 2463 0d50 60       		.byte	0x60
 2464 0d51 AD000000 		.4byte	0xad
 2465 0d55 05       		.uleb128 0x5
 2466 0d56 03       		.byte	0x3
 2467 0d57 00000000 		.4byte	count_protector2
 2468 0d5b 1B       		.uleb128 0x1b
 2469 0d5c EF010000 		.4byte	.LASF162
 2470 0d60 05       		.byte	0x5
 2471 0d61 61       		.byte	0x61
 2472 0d62 89030000 		.4byte	0x389
 2473 0d66 05       		.uleb128 0x5
 2474 0d67 03       		.byte	0x3
 2475 0d68 00000000 		.4byte	configAccess
 2476 0d6c 1B       		.uleb128 0x1b
 2477 0d6d 35010000 		.4byte	.LASF163
 2478 0d71 05       		.byte	0x5
 2479 0d72 62       		.byte	0x62
 2480 0d73 AD000000 		.4byte	0xad
 2481 0d77 05       		.uleb128 0x5
 2482 0d78 03       		.byte	0x3
 2483 0d79 00000000 		.4byte	controlChar
 2484 0d7d 07       		.uleb128 0x7
 2485 0d7e EB000000 		.4byte	0xeb
ARM GAS  C:\Users\RECEPC~1\AppData\Local\Temp\ccFNC6Qx.s 			page 49


 2486 0d82 8D0D0000 		.4byte	0xd8d
 2487 0d86 08       		.uleb128 0x8
 2488 0d87 08010000 		.4byte	0x108
 2489 0d8b 04       		.byte	0x4
 2490 0d8c 00       		.byte	0
 2491 0d8d 1B       		.uleb128 0x1b
 2492 0d8e F0000000 		.4byte	.LASF164
 2493 0d92 05       		.byte	0x5
 2494 0d93 63       		.byte	0x63
 2495 0d94 7D0D0000 		.4byte	0xd7d
 2496 0d98 05       		.uleb128 0x5
 2497 0d99 03       		.byte	0x3
 2498 0d9a 00000000 		.4byte	idStation
 2499 0d9e 1B       		.uleb128 0x1b
 2500 0d9f 54090000 		.4byte	.LASF165
 2501 0da3 05       		.byte	0x5
 2502 0da4 64       		.byte	0x64
 2503 0da5 5D0A0000 		.4byte	0xa5d
 2504 0da9 05       		.uleb128 0x5
 2505 0daa 03       		.byte	0x3
 2506 0dab 00000000 		.4byte	pumpGap
 2507 0daf 1B       		.uleb128 0x1b
 2508 0db0 13020000 		.4byte	.LASF166
 2509 0db4 05       		.byte	0x5
 2510 0db5 65       		.byte	0x65
 2511 0db6 AD000000 		.4byte	0xad
 2512 0dba 05       		.uleb128 0x5
 2513 0dbb 03       		.byte	0x3
 2514 0dbc 00000000 		.4byte	printPortA
 2515 0dc0 1B       		.uleb128 0x1b
 2516 0dc1 1E020000 		.4byte	.LASF167
 2517 0dc5 05       		.byte	0x5
 2518 0dc6 66       		.byte	0x66
 2519 0dc7 AD000000 		.4byte	0xad
 2520 0dcb 05       		.uleb128 0x5
 2521 0dcc 03       		.byte	0x3
 2522 0dcd 00000000 		.4byte	printPortB
 2523 0dd1 07       		.uleb128 0x7
 2524 0dd2 AD000000 		.4byte	0xad
 2525 0dd6 E20D0000 		.4byte	0xde2
 2526 0dda 1C       		.uleb128 0x1c
 2527 0ddb 08010000 		.4byte	0x108
 2528 0ddf FF01     		.2byte	0x1ff
 2529 0de1 00       		.byte	0
 2530 0de2 1B       		.uleb128 0x1b
 2531 0de3 77000000 		.4byte	.LASF168
 2532 0de7 05       		.byte	0x5
 2533 0de8 67       		.byte	0x67
 2534 0de9 D10D0000 		.4byte	0xdd1
 2535 0ded 05       		.uleb128 0x5
 2536 0dee 03       		.byte	0x3
 2537 0def 00000000 		.4byte	buffer_rf
 2538 0df3 1B       		.uleb128 0x1b
 2539 0df4 4E010000 		.4byte	.LASF169
 2540 0df8 05       		.byte	0x5
 2541 0df9 68       		.byte	0x68
 2542 0dfa D10D0000 		.4byte	0xdd1
ARM GAS  C:\Users\RECEPC~1\AppData\Local\Temp\ccFNC6Qx.s 			page 50


 2543 0dfe 05       		.uleb128 0x5
 2544 0dff 03       		.byte	0x3
 2545 0e00 00000000 		.4byte	buffer_tx
 2546 0e04 1B       		.uleb128 0x1b
 2547 0e05 4F080000 		.4byte	.LASF170
 2548 0e09 05       		.byte	0x5
 2549 0e0a 69       		.byte	0x69
 2550 0e0b D10D0000 		.4byte	0xdd1
 2551 0e0f 05       		.uleb128 0x5
 2552 0e10 03       		.byte	0x3
 2553 0e11 00000000 		.4byte	buffer_txTotals
 2554 0e15 07       		.uleb128 0x7
 2555 0e16 AD000000 		.4byte	0xad
 2556 0e1a 250E0000 		.4byte	0xe25
 2557 0e1e 08       		.uleb128 0x8
 2558 0e1f 08010000 		.4byte	0x108
 2559 0e23 FE       		.byte	0xfe
 2560 0e24 00       		.byte	0
 2561 0e25 1B       		.uleb128 0x1b
 2562 0e26 7B020000 		.4byte	.LASF171
 2563 0e2a 05       		.byte	0x5
 2564 0e2b 6A       		.byte	0x6a
 2565 0e2c 150E0000 		.4byte	0xe15
 2566 0e30 05       		.uleb128 0x5
 2567 0e31 03       		.byte	0x3
 2568 0e32 00000000 		.4byte	buffer_A
 2569 0e36 07       		.uleb128 0x7
 2570 0e37 EB000000 		.4byte	0xeb
 2571 0e3b 460E0000 		.4byte	0xe46
 2572 0e3f 08       		.uleb128 0x8
 2573 0e40 08010000 		.4byte	0x108
 2574 0e44 F9       		.byte	0xf9
 2575 0e45 00       		.byte	0
 2576 0e46 1B       		.uleb128 0x1b
 2577 0e47 3C020000 		.4byte	.LASF172
 2578 0e4b 05       		.byte	0x5
 2579 0e4c 6B       		.byte	0x6b
 2580 0e4d 360E0000 		.4byte	0xe36
 2581 0e51 05       		.uleb128 0x5
 2582 0e52 03       		.byte	0x3
 2583 0e53 00000000 		.4byte	buffer_print
 2584 0e57 07       		.uleb128 0x7
 2585 0e58 AD000000 		.4byte	0xad
 2586 0e5c 670E0000 		.4byte	0xe67
 2587 0e60 08       		.uleb128 0x8
 2588 0e61 08010000 		.4byte	0x108
 2589 0e65 3B       		.byte	0x3b
 2590 0e66 00       		.byte	0
 2591 0e67 1B       		.uleb128 0x1b
 2592 0e68 7E040000 		.4byte	.LASF173
 2593 0e6c 05       		.byte	0x5
 2594 0e6d 6C       		.byte	0x6c
 2595 0e6e 570E0000 		.4byte	0xe57
 2596 0e72 05       		.uleb128 0x5
 2597 0e73 03       		.byte	0x3
 2598 0e74 00000000 		.4byte	buffer_txPreset
 2599 0e78 1B       		.uleb128 0x1b
ARM GAS  C:\Users\RECEPC~1\AppData\Local\Temp\ccFNC6Qx.s 			page 51


 2600 0e79 6A080000 		.4byte	.LASF174
 2601 0e7d 05       		.byte	0x5
 2602 0e7e 6D       		.byte	0x6d
 2603 0e7f 570E0000 		.4byte	0xe57
 2604 0e83 05       		.uleb128 0x5
 2605 0e84 03       		.byte	0x3
 2606 0e85 00000000 		.4byte	buffer_txEOT
 2607 0e89 1B       		.uleb128 0x1b
 2608 0e8a BC040000 		.4byte	.LASF175
 2609 0e8e 05       		.byte	0x5
 2610 0e8f 6E       		.byte	0x6e
 2611 0e90 570E0000 		.4byte	0xe57
 2612 0e94 05       		.uleb128 0x5
 2613 0e95 03       		.byte	0x3
 2614 0e96 00000000 		.4byte	buffer_txDisplay
 2615 0e9a 1B       		.uleb128 0x1b
 2616 0e9b 06060000 		.4byte	.LASF176
 2617 0e9f 05       		.byte	0x5
 2618 0ea0 6F       		.byte	0x6f
 2619 0ea1 B9000000 		.4byte	0xb9
 2620 0ea5 05       		.uleb128 0x5
 2621 0ea6 03       		.byte	0x3
 2622 0ea7 00000000 		.4byte	intIDStation
 2623 0eab 1B       		.uleb128 0x1b
 2624 0eac 81060000 		.4byte	.LASF177
 2625 0eb0 05       		.byte	0x5
 2626 0eb1 70       		.byte	0x70
 2627 0eb2 830B0000 		.4byte	0xb83
 2628 0eb6 05       		.uleb128 0x5
 2629 0eb7 03       		.byte	0x3
 2630 0eb8 00000000 		.4byte	Encabezado1
 2631 0ebc 1B       		.uleb128 0x1b
 2632 0ebd 8D060000 		.4byte	.LASF178
 2633 0ec1 05       		.byte	0x5
 2634 0ec2 71       		.byte	0x71
 2635 0ec3 830B0000 		.4byte	0xb83
 2636 0ec7 05       		.uleb128 0x5
 2637 0ec8 03       		.byte	0x3
 2638 0ec9 00000000 		.4byte	Encabezado2
 2639 0ecd 1B       		.uleb128 0x1b
 2640 0ece 99060000 		.4byte	.LASF179
 2641 0ed2 05       		.byte	0x5
 2642 0ed3 72       		.byte	0x72
 2643 0ed4 830B0000 		.4byte	0xb83
 2644 0ed8 05       		.uleb128 0x5
 2645 0ed9 03       		.byte	0x3
 2646 0eda 00000000 		.4byte	Encabezado3
 2647 0ede 1B       		.uleb128 0x1b
 2648 0edf A5060000 		.4byte	.LASF180
 2649 0ee3 05       		.byte	0x5
 2650 0ee4 73       		.byte	0x73
 2651 0ee5 830B0000 		.4byte	0xb83
 2652 0ee9 05       		.uleb128 0x5
 2653 0eea 03       		.byte	0x3
 2654 0eeb 00000000 		.4byte	Encabezado4
 2655 0eef 1B       		.uleb128 0x1b
 2656 0ef0 7A050000 		.4byte	.LASF181
ARM GAS  C:\Users\RECEPC~1\AppData\Local\Temp\ccFNC6Qx.s 			page 52


 2657 0ef4 05       		.byte	0x5
 2658 0ef5 74       		.byte	0x74
 2659 0ef6 AD000000 		.4byte	0xad
 2660 0efa 05       		.uleb128 0x5
 2661 0efb 03       		.byte	0x3
 2662 0efc 00000000 		.4byte	CopiasCredito
 2663 0f00 1B       		.uleb128 0x1b
 2664 0f01 19000000 		.4byte	.LASF182
 2665 0f05 05       		.byte	0x5
 2666 0f06 75       		.byte	0x75
 2667 0f07 89030000 		.4byte	0x389
 2668 0f0b 05       		.uleb128 0x5
 2669 0f0c 03       		.byte	0x3
 2670 0f0d 00000000 		.4byte	GradesHose
 2671 0f11 1B       		.uleb128 0x1b
 2672 0f12 98010000 		.4byte	.LASF183
 2673 0f16 05       		.byte	0x5
 2674 0f17 AE       		.byte	0xae
 2675 0f18 1F010000 		.4byte	0x11f
 2676 0f1c 05       		.uleb128 0x5
 2677 0f1d 03       		.byte	0x3
 2678 0f1e 00000000 		.4byte	bufferDisplay1
 2679 0f22 1B       		.uleb128 0x1b
 2680 0f23 F7050000 		.4byte	.LASF184
 2681 0f27 05       		.byte	0x5
 2682 0f28 AF       		.byte	0xaf
 2683 0f29 1F010000 		.4byte	0x11f
 2684 0f2d 05       		.uleb128 0x5
 2685 0f2e 03       		.byte	0x3
 2686 0f2f 00000000 		.4byte	bufferDisplay2
 2687 0f33 1B       		.uleb128 0x1b
 2688 0f34 AC010000 		.4byte	.LASF185
 2689 0f38 05       		.byte	0x5
 2690 0f39 B0       		.byte	0xb0
 2691 0f3a 1F010000 		.4byte	0x11f
 2692 0f3e 05       		.uleb128 0x5
 2693 0f3f 03       		.byte	0x3
 2694 0f40 00000000 		.4byte	bufferDisplay3
 2695 0f44 1B       		.uleb128 0x1b
 2696 0f45 13060000 		.4byte	.LASF186
 2697 0f49 05       		.byte	0x5
 2698 0f4a B1       		.byte	0xb1
 2699 0f4b 1F010000 		.4byte	0x11f
 2700 0f4f 05       		.uleb128 0x5
 2701 0f50 03       		.byte	0x3
 2702 0f51 00000000 		.4byte	bufferDisplay4
 2703 0f55 1B       		.uleb128 0x1b
 2704 0f56 EB000000 		.4byte	.LASF187
 2705 0f5a 05       		.byte	0x5
 2706 0f5b D6       		.byte	0xd6
 2707 0f5c E2040000 		.4byte	0x4e2
 2708 0f60 05       		.uleb128 0x5
 2709 0f61 03       		.byte	0x3
 2710 0f62 00000000 		.4byte	side
 2711 0f66 07       		.uleb128 0x7
 2712 0f67 3C050000 		.4byte	0x53c
 2713 0f6b 760F0000 		.4byte	0xf76
ARM GAS  C:\Users\RECEPC~1\AppData\Local\Temp\ccFNC6Qx.s 			page 53


 2714 0f6f 08       		.uleb128 0x8
 2715 0f70 08010000 		.4byte	0x108
 2716 0f74 28       		.byte	0x28
 2717 0f75 00       		.byte	0
 2718 0f76 1B       		.uleb128 0x1b
 2719 0f77 F2030000 		.4byte	.LASF188
 2720 0f7b 01       		.byte	0x1
 2721 0f7c AF       		.byte	0xaf
 2722 0f7d 660F0000 		.4byte	0xf66
 2723 0f81 05       		.uleb128 0x5
 2724 0f82 03       		.byte	0x3
 2725 0f83 00000000 		.4byte	_g_charmaplut
 2726 0f87 1D       		.uleb128 0x1d
 2727 0f88 E9080000 		.4byte	.LASF189
 2728 0f8c 08       		.byte	0x8
 2729 0f8d 8A       		.byte	0x8a
 2730 0f8e 980F0000 		.4byte	0xf98
 2731 0f92 1E       		.uleb128 0x1e
 2732 0f93 AD000000 		.4byte	0xad
 2733 0f97 00       		.byte	0
 2734 0f98 1D       		.uleb128 0x1d
 2735 0f99 73010000 		.4byte	.LASF190
 2736 0f9d 09       		.byte	0x9
 2737 0f9e 8A       		.byte	0x8a
 2738 0f9f A90F0000 		.4byte	0xfa9
 2739 0fa3 1E       		.uleb128 0x1e
 2740 0fa4 AD000000 		.4byte	0xad
 2741 0fa8 00       		.byte	0
 2742 0fa9 1F       		.uleb128 0x1f
 2743 0faa 00000000 		.4byte	.LASF195
 2744 0fae 0A       		.byte	0xa
 2745 0faf 77       		.byte	0x77
 2746 0fb0 1E       		.uleb128 0x1e
 2747 0fb1 C5000000 		.4byte	0xc5
 2748 0fb5 00       		.byte	0
 2749 0fb6 00       		.byte	0
 2750              		.section	.debug_abbrev,"",%progbits
 2751              	.Ldebug_abbrev0:
 2752 0000 01       		.uleb128 0x1
 2753 0001 11       		.uleb128 0x11
 2754 0002 01       		.byte	0x1
 2755 0003 25       		.uleb128 0x25
 2756 0004 0E       		.uleb128 0xe
 2757 0005 13       		.uleb128 0x13
 2758 0006 0B       		.uleb128 0xb
 2759 0007 03       		.uleb128 0x3
 2760 0008 0E       		.uleb128 0xe
 2761 0009 1B       		.uleb128 0x1b
 2762 000a 0E       		.uleb128 0xe
 2763 000b 55       		.uleb128 0x55
 2764 000c 17       		.uleb128 0x17
 2765 000d 11       		.uleb128 0x11
 2766 000e 01       		.uleb128 0x1
 2767 000f 10       		.uleb128 0x10
 2768 0010 17       		.uleb128 0x17
 2769 0011 00       		.byte	0
 2770 0012 00       		.byte	0
ARM GAS  C:\Users\RECEPC~1\AppData\Local\Temp\ccFNC6Qx.s 			page 54


 2771 0013 02       		.uleb128 0x2
 2772 0014 24       		.uleb128 0x24
 2773 0015 00       		.byte	0
 2774 0016 0B       		.uleb128 0xb
 2775 0017 0B       		.uleb128 0xb
 2776 0018 3E       		.uleb128 0x3e
 2777 0019 0B       		.uleb128 0xb
 2778 001a 03       		.uleb128 0x3
 2779 001b 0E       		.uleb128 0xe
 2780 001c 00       		.byte	0
 2781 001d 00       		.byte	0
 2782 001e 03       		.uleb128 0x3
 2783 001f 16       		.uleb128 0x16
 2784 0020 00       		.byte	0
 2785 0021 03       		.uleb128 0x3
 2786 0022 0E       		.uleb128 0xe
 2787 0023 3A       		.uleb128 0x3a
 2788 0024 0B       		.uleb128 0xb
 2789 0025 3B       		.uleb128 0x3b
 2790 0026 0B       		.uleb128 0xb
 2791 0027 49       		.uleb128 0x49
 2792 0028 13       		.uleb128 0x13
 2793 0029 00       		.byte	0
 2794 002a 00       		.byte	0
 2795 002b 04       		.uleb128 0x4
 2796 002c 24       		.uleb128 0x24
 2797 002d 00       		.byte	0
 2798 002e 0B       		.uleb128 0xb
 2799 002f 0B       		.uleb128 0xb
 2800 0030 3E       		.uleb128 0x3e
 2801 0031 0B       		.uleb128 0xb
 2802 0032 03       		.uleb128 0x3
 2803 0033 08       		.uleb128 0x8
 2804 0034 00       		.byte	0
 2805 0035 00       		.byte	0
 2806 0036 05       		.uleb128 0x5
 2807 0037 16       		.uleb128 0x16
 2808 0038 00       		.byte	0
 2809 0039 03       		.uleb128 0x3
 2810 003a 0E       		.uleb128 0xe
 2811 003b 3A       		.uleb128 0x3a
 2812 003c 0B       		.uleb128 0xb
 2813 003d 3B       		.uleb128 0x3b
 2814 003e 05       		.uleb128 0x5
 2815 003f 49       		.uleb128 0x49
 2816 0040 13       		.uleb128 0x13
 2817 0041 00       		.byte	0
 2818 0042 00       		.byte	0
 2819 0043 06       		.uleb128 0x6
 2820 0044 35       		.uleb128 0x35
 2821 0045 00       		.byte	0
 2822 0046 49       		.uleb128 0x49
 2823 0047 13       		.uleb128 0x13
 2824 0048 00       		.byte	0
 2825 0049 00       		.byte	0
 2826 004a 07       		.uleb128 0x7
 2827 004b 01       		.uleb128 0x1
ARM GAS  C:\Users\RECEPC~1\AppData\Local\Temp\ccFNC6Qx.s 			page 55


 2828 004c 01       		.byte	0x1
 2829 004d 49       		.uleb128 0x49
 2830 004e 13       		.uleb128 0x13
 2831 004f 01       		.uleb128 0x1
 2832 0050 13       		.uleb128 0x13
 2833 0051 00       		.byte	0
 2834 0052 00       		.byte	0
 2835 0053 08       		.uleb128 0x8
 2836 0054 21       		.uleb128 0x21
 2837 0055 00       		.byte	0
 2838 0056 49       		.uleb128 0x49
 2839 0057 13       		.uleb128 0x13
 2840 0058 2F       		.uleb128 0x2f
 2841 0059 0B       		.uleb128 0xb
 2842 005a 00       		.byte	0
 2843 005b 00       		.byte	0
 2844 005c 09       		.uleb128 0x9
 2845 005d 13       		.uleb128 0x13
 2846 005e 01       		.byte	0x1
 2847 005f 03       		.uleb128 0x3
 2848 0060 0E       		.uleb128 0xe
 2849 0061 0B       		.uleb128 0xb
 2850 0062 05       		.uleb128 0x5
 2851 0063 3A       		.uleb128 0x3a
 2852 0064 0B       		.uleb128 0xb
 2853 0065 3B       		.uleb128 0x3b
 2854 0066 0B       		.uleb128 0xb
 2855 0067 01       		.uleb128 0x1
 2856 0068 13       		.uleb128 0x13
 2857 0069 00       		.byte	0
 2858 006a 00       		.byte	0
 2859 006b 0A       		.uleb128 0xa
 2860 006c 0D       		.uleb128 0xd
 2861 006d 00       		.byte	0
 2862 006e 03       		.uleb128 0x3
 2863 006f 0E       		.uleb128 0xe
 2864 0070 3A       		.uleb128 0x3a
 2865 0071 0B       		.uleb128 0xb
 2866 0072 3B       		.uleb128 0x3b
 2867 0073 0B       		.uleb128 0xb
 2868 0074 49       		.uleb128 0x49
 2869 0075 13       		.uleb128 0x13
 2870 0076 38       		.uleb128 0x38
 2871 0077 0B       		.uleb128 0xb
 2872 0078 00       		.byte	0
 2873 0079 00       		.byte	0
 2874 007a 0B       		.uleb128 0xb
 2875 007b 0D       		.uleb128 0xd
 2876 007c 00       		.byte	0
 2877 007d 03       		.uleb128 0x3
 2878 007e 0E       		.uleb128 0xe
 2879 007f 3A       		.uleb128 0x3a
 2880 0080 0B       		.uleb128 0xb
 2881 0081 3B       		.uleb128 0x3b
 2882 0082 0B       		.uleb128 0xb
 2883 0083 49       		.uleb128 0x49
 2884 0084 13       		.uleb128 0x13
ARM GAS  C:\Users\RECEPC~1\AppData\Local\Temp\ccFNC6Qx.s 			page 56


 2885 0085 38       		.uleb128 0x38
 2886 0086 05       		.uleb128 0x5
 2887 0087 00       		.byte	0
 2888 0088 00       		.byte	0
 2889 0089 0C       		.uleb128 0xc
 2890 008a 0D       		.uleb128 0xd
 2891 008b 00       		.byte	0
 2892 008c 03       		.uleb128 0x3
 2893 008d 08       		.uleb128 0x8
 2894 008e 3A       		.uleb128 0x3a
 2895 008f 0B       		.uleb128 0xb
 2896 0090 3B       		.uleb128 0x3b
 2897 0091 0B       		.uleb128 0xb
 2898 0092 49       		.uleb128 0x49
 2899 0093 13       		.uleb128 0x13
 2900 0094 38       		.uleb128 0x38
 2901 0095 0B       		.uleb128 0xb
 2902 0096 00       		.byte	0
 2903 0097 00       		.byte	0
 2904 0098 0D       		.uleb128 0xd
 2905 0099 0D       		.uleb128 0xd
 2906 009a 00       		.byte	0
 2907 009b 03       		.uleb128 0x3
 2908 009c 08       		.uleb128 0x8
 2909 009d 3A       		.uleb128 0x3a
 2910 009e 0B       		.uleb128 0xb
 2911 009f 3B       		.uleb128 0x3b
 2912 00a0 0B       		.uleb128 0xb
 2913 00a1 49       		.uleb128 0x49
 2914 00a2 13       		.uleb128 0x13
 2915 00a3 38       		.uleb128 0x38
 2916 00a4 05       		.uleb128 0x5
 2917 00a5 00       		.byte	0
 2918 00a6 00       		.byte	0
 2919 00a7 0E       		.uleb128 0xe
 2920 00a8 13       		.uleb128 0x13
 2921 00a9 01       		.byte	0x1
 2922 00aa 0B       		.uleb128 0xb
 2923 00ab 0B       		.uleb128 0xb
 2924 00ac 3A       		.uleb128 0x3a
 2925 00ad 0B       		.uleb128 0xb
 2926 00ae 3B       		.uleb128 0x3b
 2927 00af 0B       		.uleb128 0xb
 2928 00b0 01       		.uleb128 0x1
 2929 00b1 13       		.uleb128 0x13
 2930 00b2 00       		.byte	0
 2931 00b3 00       		.byte	0
 2932 00b4 0F       		.uleb128 0xf
 2933 00b5 2E       		.uleb128 0x2e
 2934 00b6 01       		.byte	0x1
 2935 00b7 3F       		.uleb128 0x3f
 2936 00b8 19       		.uleb128 0x19
 2937 00b9 03       		.uleb128 0x3
 2938 00ba 0E       		.uleb128 0xe
 2939 00bb 3A       		.uleb128 0x3a
 2940 00bc 0B       		.uleb128 0xb
 2941 00bd 3B       		.uleb128 0x3b
ARM GAS  C:\Users\RECEPC~1\AppData\Local\Temp\ccFNC6Qx.s 			page 57


 2942 00be 0B       		.uleb128 0xb
 2943 00bf 27       		.uleb128 0x27
 2944 00c0 19       		.uleb128 0x19
 2945 00c1 11       		.uleb128 0x11
 2946 00c2 01       		.uleb128 0x1
 2947 00c3 12       		.uleb128 0x12
 2948 00c4 06       		.uleb128 0x6
 2949 00c5 40       		.uleb128 0x40
 2950 00c6 18       		.uleb128 0x18
 2951 00c7 9742     		.uleb128 0x2117
 2952 00c9 19       		.uleb128 0x19
 2953 00ca 01       		.uleb128 0x1
 2954 00cb 13       		.uleb128 0x13
 2955 00cc 00       		.byte	0
 2956 00cd 00       		.byte	0
 2957 00ce 10       		.uleb128 0x10
 2958 00cf 05       		.uleb128 0x5
 2959 00d0 00       		.byte	0
 2960 00d1 03       		.uleb128 0x3
 2961 00d2 08       		.uleb128 0x8
 2962 00d3 3A       		.uleb128 0x3a
 2963 00d4 0B       		.uleb128 0xb
 2964 00d5 3B       		.uleb128 0x3b
 2965 00d6 0B       		.uleb128 0xb
 2966 00d7 49       		.uleb128 0x49
 2967 00d8 13       		.uleb128 0x13
 2968 00d9 02       		.uleb128 0x2
 2969 00da 17       		.uleb128 0x17
 2970 00db 00       		.byte	0
 2971 00dc 00       		.byte	0
 2972 00dd 11       		.uleb128 0x11
 2973 00de 05       		.uleb128 0x5
 2974 00df 00       		.byte	0
 2975 00e0 03       		.uleb128 0x3
 2976 00e1 0E       		.uleb128 0xe
 2977 00e2 3A       		.uleb128 0x3a
 2978 00e3 0B       		.uleb128 0xb
 2979 00e4 3B       		.uleb128 0x3b
 2980 00e5 0B       		.uleb128 0xb
 2981 00e6 49       		.uleb128 0x49
 2982 00e7 13       		.uleb128 0x13
 2983 00e8 02       		.uleb128 0x2
 2984 00e9 17       		.uleb128 0x17
 2985 00ea 00       		.byte	0
 2986 00eb 00       		.byte	0
 2987 00ec 12       		.uleb128 0x12
 2988 00ed 34       		.uleb128 0x34
 2989 00ee 00       		.byte	0
 2990 00ef 03       		.uleb128 0x3
 2991 00f0 0E       		.uleb128 0xe
 2992 00f1 3A       		.uleb128 0x3a
 2993 00f2 0B       		.uleb128 0xb
 2994 00f3 3B       		.uleb128 0x3b
 2995 00f4 0B       		.uleb128 0xb
 2996 00f5 49       		.uleb128 0x49
 2997 00f6 13       		.uleb128 0x13
 2998 00f7 02       		.uleb128 0x2
ARM GAS  C:\Users\RECEPC~1\AppData\Local\Temp\ccFNC6Qx.s 			page 58


 2999 00f8 18       		.uleb128 0x18
 3000 00f9 00       		.byte	0
 3001 00fa 00       		.byte	0
 3002 00fb 13       		.uleb128 0x13
 3003 00fc 34       		.uleb128 0x34
 3004 00fd 00       		.byte	0
 3005 00fe 03       		.uleb128 0x3
 3006 00ff 08       		.uleb128 0x8
 3007 0100 3A       		.uleb128 0x3a
 3008 0101 0B       		.uleb128 0xb
 3009 0102 3B       		.uleb128 0x3b
 3010 0103 0B       		.uleb128 0xb
 3011 0104 49       		.uleb128 0x49
 3012 0105 13       		.uleb128 0x13
 3013 0106 02       		.uleb128 0x2
 3014 0107 17       		.uleb128 0x17
 3015 0108 00       		.byte	0
 3016 0109 00       		.byte	0
 3017 010a 14       		.uleb128 0x14
 3018 010b 898201   		.uleb128 0x4109
 3019 010e 01       		.byte	0x1
 3020 010f 11       		.uleb128 0x11
 3021 0110 01       		.uleb128 0x1
 3022 0111 31       		.uleb128 0x31
 3023 0112 13       		.uleb128 0x13
 3024 0113 01       		.uleb128 0x1
 3025 0114 13       		.uleb128 0x13
 3026 0115 00       		.byte	0
 3027 0116 00       		.byte	0
 3028 0117 15       		.uleb128 0x15
 3029 0118 8A8201   		.uleb128 0x410a
 3030 011b 00       		.byte	0
 3031 011c 02       		.uleb128 0x2
 3032 011d 18       		.uleb128 0x18
 3033 011e 9142     		.uleb128 0x2111
 3034 0120 18       		.uleb128 0x18
 3035 0121 00       		.byte	0
 3036 0122 00       		.byte	0
 3037 0123 16       		.uleb128 0x16
 3038 0124 898201   		.uleb128 0x4109
 3039 0127 01       		.byte	0x1
 3040 0128 11       		.uleb128 0x11
 3041 0129 01       		.uleb128 0x1
 3042 012a 31       		.uleb128 0x31
 3043 012b 13       		.uleb128 0x13
 3044 012c 00       		.byte	0
 3045 012d 00       		.byte	0
 3046 012e 17       		.uleb128 0x17
 3047 012f 0F       		.uleb128 0xf
 3048 0130 00       		.byte	0
 3049 0131 0B       		.uleb128 0xb
 3050 0132 0B       		.uleb128 0xb
 3051 0133 49       		.uleb128 0x49
 3052 0134 13       		.uleb128 0x13
 3053 0135 00       		.byte	0
 3054 0136 00       		.byte	0
 3055 0137 18       		.uleb128 0x18
ARM GAS  C:\Users\RECEPC~1\AppData\Local\Temp\ccFNC6Qx.s 			page 59


 3056 0138 2E       		.uleb128 0x2e
 3057 0139 01       		.byte	0x1
 3058 013a 3F       		.uleb128 0x3f
 3059 013b 19       		.uleb128 0x19
 3060 013c 03       		.uleb128 0x3
 3061 013d 0E       		.uleb128 0xe
 3062 013e 3A       		.uleb128 0x3a
 3063 013f 0B       		.uleb128 0xb
 3064 0140 3B       		.uleb128 0x3b
 3065 0141 0B       		.uleb128 0xb
 3066 0142 27       		.uleb128 0x27
 3067 0143 19       		.uleb128 0x19
 3068 0144 49       		.uleb128 0x49
 3069 0145 13       		.uleb128 0x13
 3070 0146 11       		.uleb128 0x11
 3071 0147 01       		.uleb128 0x1
 3072 0148 12       		.uleb128 0x12
 3073 0149 06       		.uleb128 0x6
 3074 014a 40       		.uleb128 0x40
 3075 014b 18       		.uleb128 0x18
 3076 014c 9742     		.uleb128 0x2117
 3077 014e 19       		.uleb128 0x19
 3078 014f 01       		.uleb128 0x1
 3079 0150 13       		.uleb128 0x13
 3080 0151 00       		.byte	0
 3081 0152 00       		.byte	0
 3082 0153 19       		.uleb128 0x19
 3083 0154 34       		.uleb128 0x34
 3084 0155 00       		.byte	0
 3085 0156 03       		.uleb128 0x3
 3086 0157 0E       		.uleb128 0xe
 3087 0158 3A       		.uleb128 0x3a
 3088 0159 0B       		.uleb128 0xb
 3089 015a 3B       		.uleb128 0x3b
 3090 015b 0B       		.uleb128 0xb
 3091 015c 49       		.uleb128 0x49
 3092 015d 13       		.uleb128 0x13
 3093 015e 02       		.uleb128 0x2
 3094 015f 17       		.uleb128 0x17
 3095 0160 00       		.byte	0
 3096 0161 00       		.byte	0
 3097 0162 1A       		.uleb128 0x1a
 3098 0163 34       		.uleb128 0x34
 3099 0164 00       		.byte	0
 3100 0165 03       		.uleb128 0x3
 3101 0166 0E       		.uleb128 0xe
 3102 0167 3A       		.uleb128 0x3a
 3103 0168 0B       		.uleb128 0xb
 3104 0169 3B       		.uleb128 0x3b
 3105 016a 05       		.uleb128 0x5
 3106 016b 49       		.uleb128 0x49
 3107 016c 13       		.uleb128 0x13
 3108 016d 3F       		.uleb128 0x3f
 3109 016e 19       		.uleb128 0x19
 3110 016f 3C       		.uleb128 0x3c
 3111 0170 19       		.uleb128 0x19
 3112 0171 00       		.byte	0
ARM GAS  C:\Users\RECEPC~1\AppData\Local\Temp\ccFNC6Qx.s 			page 60


 3113 0172 00       		.byte	0
 3114 0173 1B       		.uleb128 0x1b
 3115 0174 34       		.uleb128 0x34
 3116 0175 00       		.byte	0
 3117 0176 03       		.uleb128 0x3
 3118 0177 0E       		.uleb128 0xe
 3119 0178 3A       		.uleb128 0x3a
 3120 0179 0B       		.uleb128 0xb
 3121 017a 3B       		.uleb128 0x3b
 3122 017b 0B       		.uleb128 0xb
 3123 017c 49       		.uleb128 0x49
 3124 017d 13       		.uleb128 0x13
 3125 017e 3F       		.uleb128 0x3f
 3126 017f 19       		.uleb128 0x19
 3127 0180 02       		.uleb128 0x2
 3128 0181 18       		.uleb128 0x18
 3129 0182 00       		.byte	0
 3130 0183 00       		.byte	0
 3131 0184 1C       		.uleb128 0x1c
 3132 0185 21       		.uleb128 0x21
 3133 0186 00       		.byte	0
 3134 0187 49       		.uleb128 0x49
 3135 0188 13       		.uleb128 0x13
 3136 0189 2F       		.uleb128 0x2f
 3137 018a 05       		.uleb128 0x5
 3138 018b 00       		.byte	0
 3139 018c 00       		.byte	0
 3140 018d 1D       		.uleb128 0x1d
 3141 018e 2E       		.uleb128 0x2e
 3142 018f 01       		.byte	0x1
 3143 0190 3F       		.uleb128 0x3f
 3144 0191 19       		.uleb128 0x19
 3145 0192 03       		.uleb128 0x3
 3146 0193 0E       		.uleb128 0xe
 3147 0194 3A       		.uleb128 0x3a
 3148 0195 0B       		.uleb128 0xb
 3149 0196 3B       		.uleb128 0x3b
 3150 0197 0B       		.uleb128 0xb
 3151 0198 27       		.uleb128 0x27
 3152 0199 19       		.uleb128 0x19
 3153 019a 3C       		.uleb128 0x3c
 3154 019b 19       		.uleb128 0x19
 3155 019c 01       		.uleb128 0x1
 3156 019d 13       		.uleb128 0x13
 3157 019e 00       		.byte	0
 3158 019f 00       		.byte	0
 3159 01a0 1E       		.uleb128 0x1e
 3160 01a1 05       		.uleb128 0x5
 3161 01a2 00       		.byte	0
 3162 01a3 49       		.uleb128 0x49
 3163 01a4 13       		.uleb128 0x13
 3164 01a5 00       		.byte	0
 3165 01a6 00       		.byte	0
 3166 01a7 1F       		.uleb128 0x1f
 3167 01a8 2E       		.uleb128 0x2e
 3168 01a9 01       		.byte	0x1
 3169 01aa 3F       		.uleb128 0x3f
ARM GAS  C:\Users\RECEPC~1\AppData\Local\Temp\ccFNC6Qx.s 			page 61


 3170 01ab 19       		.uleb128 0x19
 3171 01ac 03       		.uleb128 0x3
 3172 01ad 0E       		.uleb128 0xe
 3173 01ae 3A       		.uleb128 0x3a
 3174 01af 0B       		.uleb128 0xb
 3175 01b0 3B       		.uleb128 0x3b
 3176 01b1 0B       		.uleb128 0xb
 3177 01b2 27       		.uleb128 0x27
 3178 01b3 19       		.uleb128 0x19
 3179 01b4 3C       		.uleb128 0x3c
 3180 01b5 19       		.uleb128 0x19
 3181 01b6 00       		.byte	0
 3182 01b7 00       		.byte	0
 3183 01b8 00       		.byte	0
 3184              		.section	.debug_loc,"",%progbits
 3185              	.Ldebug_loc0:
 3186              	.LLST0:
 3187 0000 00000000 		.4byte	.LVL0
 3188 0004 0E000000 		.4byte	.LVL2
 3189 0008 0100     		.2byte	0x1
 3190 000a 50       		.byte	0x50
 3191 000b 0E000000 		.4byte	.LVL2
 3192 000f 50000000 		.4byte	.LFE63
 3193 0013 0400     		.2byte	0x4
 3194 0015 F3       		.byte	0xf3
 3195 0016 01       		.uleb128 0x1
 3196 0017 50       		.byte	0x50
 3197 0018 9F       		.byte	0x9f
 3198 0019 00000000 		.4byte	0
 3199 001d 00000000 		.4byte	0
 3200              	.LLST1:
 3201 0021 00000000 		.4byte	.LVL0
 3202 0025 0A000000 		.4byte	.LVL1
 3203 0029 0100     		.2byte	0x1
 3204 002b 51       		.byte	0x51
 3205 002c 0A000000 		.4byte	.LVL1
 3206 0030 50000000 		.4byte	.LFE63
 3207 0034 0400     		.2byte	0x4
 3208 0036 F3       		.byte	0xf3
 3209 0037 01       		.uleb128 0x1
 3210 0038 51       		.byte	0x51
 3211 0039 9F       		.byte	0x9f
 3212 003a 00000000 		.4byte	0
 3213 003e 00000000 		.4byte	0
 3214              	.LLST2:
 3215 0042 1C000000 		.4byte	.LVL3
 3216 0046 20000000 		.4byte	.LVL4
 3217 004a 0200     		.2byte	0x2
 3218 004c 30       		.byte	0x30
 3219 004d 9F       		.byte	0x9f
 3220 004e 20000000 		.4byte	.LVL4
 3221 0052 40000000 		.4byte	.LVL7
 3222 0056 0100     		.2byte	0x1
 3223 0058 54       		.byte	0x54
 3224 0059 42000000 		.4byte	.LVL8
 3225 005d 4A000000 		.4byte	.LVL9
 3226 0061 0100     		.2byte	0x1
ARM GAS  C:\Users\RECEPC~1\AppData\Local\Temp\ccFNC6Qx.s 			page 62


 3227 0063 54       		.byte	0x54
 3228 0064 00000000 		.4byte	0
 3229 0068 00000000 		.4byte	0
 3230              	.LLST3:
 3231 006c 00000000 		.4byte	.LVL10
 3232 0070 22000000 		.4byte	.LVL11
 3233 0074 0100     		.2byte	0x1
 3234 0076 50       		.byte	0x50
 3235 0077 22000000 		.4byte	.LVL11
 3236 007b C8000000 		.4byte	.LFE64
 3237 007f 0400     		.2byte	0x4
 3238 0081 F3       		.byte	0xf3
 3239 0082 01       		.uleb128 0x1
 3240 0083 50       		.byte	0x50
 3241 0084 9F       		.byte	0x9f
 3242 0085 00000000 		.4byte	0
 3243 0089 00000000 		.4byte	0
 3244              	.LLST4:
 3245 008d 00000000 		.4byte	.LVL10
 3246 0091 26000000 		.4byte	.LVL12
 3247 0095 0100     		.2byte	0x1
 3248 0097 51       		.byte	0x51
 3249 0098 26000000 		.4byte	.LVL12
 3250 009c C8000000 		.4byte	.LFE64
 3251 00a0 0400     		.2byte	0x4
 3252 00a2 F3       		.byte	0xf3
 3253 00a3 01       		.uleb128 0x1
 3254 00a4 51       		.byte	0x51
 3255 00a5 9F       		.byte	0x9f
 3256 00a6 00000000 		.4byte	0
 3257 00aa 00000000 		.4byte	0
 3258              	.LLST5:
 3259 00ae 00000000 		.4byte	.LVL10
 3260 00b2 2A000000 		.4byte	.LVL13
 3261 00b6 0100     		.2byte	0x1
 3262 00b8 52       		.byte	0x52
 3263 00b9 2A000000 		.4byte	.LVL13
 3264 00bd C8000000 		.4byte	.LFE64
 3265 00c1 0400     		.2byte	0x4
 3266 00c3 F3       		.byte	0xf3
 3267 00c4 01       		.uleb128 0x1
 3268 00c5 52       		.byte	0x52
 3269 00c6 9F       		.byte	0x9f
 3270 00c7 00000000 		.4byte	0
 3271 00cb 00000000 		.4byte	0
 3272              	.LLST6:
 3273 00cf 00000000 		.4byte	.LVL10
 3274 00d3 2E000000 		.4byte	.LVL14
 3275 00d7 0100     		.2byte	0x1
 3276 00d9 53       		.byte	0x53
 3277 00da 2E000000 		.4byte	.LVL14
 3278 00de C8000000 		.4byte	.LFE64
 3279 00e2 0400     		.2byte	0x4
 3280 00e4 F3       		.byte	0xf3
 3281 00e5 01       		.uleb128 0x1
 3282 00e6 53       		.byte	0x53
 3283 00e7 9F       		.byte	0x9f
ARM GAS  C:\Users\RECEPC~1\AppData\Local\Temp\ccFNC6Qx.s 			page 63


 3284 00e8 00000000 		.4byte	0
 3285 00ec 00000000 		.4byte	0
 3286              	.LLST7:
 3287 00f0 00000000 		.4byte	.LVL10
 3288 00f4 C4000000 		.4byte	.LVL21
 3289 00f8 0200     		.2byte	0x2
 3290 00fa 91       		.byte	0x91
 3291 00fb 00       		.sleb128 0
 3292 00fc C4000000 		.4byte	.LVL21
 3293 0100 C8000000 		.4byte	.LFE64
 3294 0104 0200     		.2byte	0x2
 3295 0106 7D       		.byte	0x7d
 3296 0107 00       		.sleb128 0
 3297 0108 00000000 		.4byte	0
 3298 010c 00000000 		.4byte	0
 3299              	.LLST8:
 3300 0110 00000000 		.4byte	.LVL10
 3301 0114 C4000000 		.4byte	.LVL21
 3302 0118 0200     		.2byte	0x2
 3303 011a 91       		.byte	0x91
 3304 011b 04       		.sleb128 4
 3305 011c C4000000 		.4byte	.LVL21
 3306 0120 C8000000 		.4byte	.LFE64
 3307 0124 0200     		.2byte	0x2
 3308 0126 7D       		.byte	0x7d
 3309 0127 04       		.sleb128 4
 3310 0128 00000000 		.4byte	0
 3311 012c 00000000 		.4byte	0
 3312              	.LLST9:
 3313 0130 00000000 		.4byte	.LVL10
 3314 0134 C4000000 		.4byte	.LVL21
 3315 0138 0200     		.2byte	0x2
 3316 013a 91       		.byte	0x91
 3317 013b 08       		.sleb128 8
 3318 013c C4000000 		.4byte	.LVL21
 3319 0140 C8000000 		.4byte	.LFE64
 3320 0144 0200     		.2byte	0x2
 3321 0146 7D       		.byte	0x7d
 3322 0147 08       		.sleb128 8
 3323 0148 00000000 		.4byte	0
 3324 014c 00000000 		.4byte	0
 3325              	.LLST10:
 3326 0150 94000000 		.4byte	.LVL15
 3327 0154 98000000 		.4byte	.LVL16
 3328 0158 0200     		.2byte	0x2
 3329 015a 30       		.byte	0x30
 3330 015b 9F       		.byte	0x9f
 3331 015c 98000000 		.4byte	.LVL16
 3332 0160 B8000000 		.4byte	.LVL19
 3333 0164 0100     		.2byte	0x1
 3334 0166 54       		.byte	0x54
 3335 0167 BA000000 		.4byte	.LVL20
 3336 016b C4000000 		.4byte	.LVL21
 3337 016f 0100     		.2byte	0x1
 3338 0171 54       		.byte	0x54
 3339 0172 00000000 		.4byte	0
 3340 0176 00000000 		.4byte	0
ARM GAS  C:\Users\RECEPC~1\AppData\Local\Temp\ccFNC6Qx.s 			page 64


 3341              	.LLST11:
 3342 017a 00000000 		.4byte	.LVL22
 3343 017e 10000000 		.4byte	.LVL23
 3344 0182 0100     		.2byte	0x1
 3345 0184 50       		.byte	0x50
 3346 0185 10000000 		.4byte	.LVL23
 3347 0189 5C000000 		.4byte	.LFE65
 3348 018d 0400     		.2byte	0x4
 3349 018f F3       		.byte	0xf3
 3350 0190 01       		.uleb128 0x1
 3351 0191 50       		.byte	0x50
 3352 0192 9F       		.byte	0x9f
 3353 0193 00000000 		.4byte	0
 3354 0197 00000000 		.4byte	0
 3355              	.LLST12:
 3356 019b 00000000 		.4byte	.LVL22
 3357 019f 12000000 		.4byte	.LVL24
 3358 01a3 0100     		.2byte	0x1
 3359 01a5 51       		.byte	0x51
 3360 01a6 12000000 		.4byte	.LVL24
 3361 01aa 5C000000 		.4byte	.LFE65
 3362 01ae 0400     		.2byte	0x4
 3363 01b0 F3       		.byte	0xf3
 3364 01b1 01       		.uleb128 0x1
 3365 01b2 51       		.byte	0x51
 3366 01b3 9F       		.byte	0x9f
 3367 01b4 00000000 		.4byte	0
 3368 01b8 00000000 		.4byte	0
 3369              	.LLST13:
 3370 01bc 22000000 		.4byte	.LVL25
 3371 01c0 26000000 		.4byte	.LVL26
 3372 01c4 0200     		.2byte	0x2
 3373 01c6 30       		.byte	0x30
 3374 01c7 9F       		.byte	0x9f
 3375 01c8 26000000 		.4byte	.LVL26
 3376 01cc 46000000 		.4byte	.LVL29
 3377 01d0 0100     		.2byte	0x1
 3378 01d2 54       		.byte	0x54
 3379 01d3 48000000 		.4byte	.LVL30
 3380 01d7 56000000 		.4byte	.LVL32
 3381 01db 0100     		.2byte	0x1
 3382 01dd 54       		.byte	0x54
 3383 01de 00000000 		.4byte	0
 3384 01e2 00000000 		.4byte	0
 3385              	.LLST14:
 3386 01e6 00000000 		.4byte	.LVL33
 3387 01ea 0E000000 		.4byte	.LVL35
 3388 01ee 0100     		.2byte	0x1
 3389 01f0 50       		.byte	0x50
 3390 01f1 0E000000 		.4byte	.LVL35
 3391 01f5 32000000 		.4byte	.LFE66
 3392 01f9 0400     		.2byte	0x4
 3393 01fb F3       		.byte	0xf3
 3394 01fc 01       		.uleb128 0x1
 3395 01fd 50       		.byte	0x50
 3396 01fe 9F       		.byte	0x9f
 3397 01ff 00000000 		.4byte	0
ARM GAS  C:\Users\RECEPC~1\AppData\Local\Temp\ccFNC6Qx.s 			page 65


 3398 0203 00000000 		.4byte	0
 3399              	.LLST15:
 3400 0207 00000000 		.4byte	.LVL33
 3401 020b 0E000000 		.4byte	.LVL35
 3402 020f 0100     		.2byte	0x1
 3403 0211 51       		.byte	0x51
 3404 0212 0E000000 		.4byte	.LVL35
 3405 0216 32000000 		.4byte	.LFE66
 3406 021a 0100     		.2byte	0x1
 3407 021c 56       		.byte	0x56
 3408 021d 00000000 		.4byte	0
 3409 0221 00000000 		.4byte	0
 3410              	.LLST16:
 3411 0225 00000000 		.4byte	.LVL33
 3412 0229 0E000000 		.4byte	.LVL35
 3413 022d 0100     		.2byte	0x1
 3414 022f 52       		.byte	0x52
 3415 0230 0E000000 		.4byte	.LVL35
 3416 0234 32000000 		.4byte	.LFE66
 3417 0238 0400     		.2byte	0x4
 3418 023a F3       		.byte	0xf3
 3419 023b 01       		.uleb128 0x1
 3420 023c 52       		.byte	0x52
 3421 023d 9F       		.byte	0x9f
 3422 023e 00000000 		.4byte	0
 3423 0242 00000000 		.4byte	0
 3424              	.LLST17:
 3425 0246 0A000000 		.4byte	.LVL34
 3426 024a 0E000000 		.4byte	.LVL35
 3427 024e 0200     		.2byte	0x2
 3428 0250 30       		.byte	0x30
 3429 0251 9F       		.byte	0x9f
 3430 0252 0E000000 		.4byte	.LVL35
 3431 0256 28000000 		.4byte	.LVL37
 3432 025a 0100     		.2byte	0x1
 3433 025c 54       		.byte	0x54
 3434 025d 2A000000 		.4byte	.LVL38
 3435 0261 32000000 		.4byte	.LFE66
 3436 0265 0100     		.2byte	0x1
 3437 0267 54       		.byte	0x54
 3438 0268 00000000 		.4byte	0
 3439 026c 00000000 		.4byte	0
 3440              	.LLST18:
 3441 0270 00000000 		.4byte	.LVL39
 3442 0274 0A000000 		.4byte	.LVL41
 3443 0278 0100     		.2byte	0x1
 3444 027a 50       		.byte	0x50
 3445 027b 0A000000 		.4byte	.LVL41
 3446 027f 0C000000 		.4byte	.LVL42
 3447 0283 0400     		.2byte	0x4
 3448 0285 F3       		.byte	0xf3
 3449 0286 01       		.uleb128 0x1
 3450 0287 50       		.byte	0x50
 3451 0288 9F       		.byte	0x9f
 3452 0289 0C000000 		.4byte	.LVL42
 3453 028d 16000000 		.4byte	.LVL44
 3454 0291 0100     		.2byte	0x1
ARM GAS  C:\Users\RECEPC~1\AppData\Local\Temp\ccFNC6Qx.s 			page 66


 3455 0293 50       		.byte	0x50
 3456 0294 16000000 		.4byte	.LVL44
 3457 0298 1C000000 		.4byte	.LFE67
 3458 029c 0400     		.2byte	0x4
 3459 029e F3       		.byte	0xf3
 3460 029f 01       		.uleb128 0x1
 3461 02a0 50       		.byte	0x50
 3462 02a1 9F       		.byte	0x9f
 3463 02a2 00000000 		.4byte	0
 3464 02a6 00000000 		.4byte	0
 3465              	.LLST19:
 3466 02aa 00000000 		.4byte	.LVL39
 3467 02ae 0A000000 		.4byte	.LVL41
 3468 02b2 0200     		.2byte	0x2
 3469 02b4 30       		.byte	0x30
 3470 02b5 9F       		.byte	0x9f
 3471 02b6 0A000000 		.4byte	.LVL41
 3472 02ba 0C000000 		.4byte	.LVL42
 3473 02be 0100     		.2byte	0x1
 3474 02c0 50       		.byte	0x50
 3475 02c1 0C000000 		.4byte	.LVL42
 3476 02c5 16000000 		.4byte	.LVL44
 3477 02c9 0200     		.2byte	0x2
 3478 02cb 30       		.byte	0x30
 3479 02cc 9F       		.byte	0x9f
 3480 02cd 16000000 		.4byte	.LVL44
 3481 02d1 1C000000 		.4byte	.LFE67
 3482 02d5 0100     		.2byte	0x1
 3483 02d7 50       		.byte	0x50
 3484 02d8 00000000 		.4byte	0
 3485 02dc 00000000 		.4byte	0
 3486              	.LLST20:
 3487 02e0 00000000 		.4byte	.LVL39
 3488 02e4 04000000 		.4byte	.LVL40
 3489 02e8 0600     		.2byte	0x6
 3490 02ea 03       		.byte	0x3
 3491 02eb 00000000 		.4byte	_g_charmaplut
 3492 02ef 9F       		.byte	0x9f
 3493 02f0 04000000 		.4byte	.LVL40
 3494 02f4 1C000000 		.4byte	.LFE67
 3495 02f8 0100     		.2byte	0x1
 3496 02fa 53       		.byte	0x53
 3497 02fb 00000000 		.4byte	0
 3498 02ff 00000000 		.4byte	0
 3499              	.LLST21:
 3500 0303 00000000 		.4byte	.LVL45
 3501 0307 22000000 		.4byte	.LVL46
 3502 030b 0100     		.2byte	0x1
 3503 030d 50       		.byte	0x50
 3504 030e 22000000 		.4byte	.LVL46
 3505 0312 C8000000 		.4byte	.LFE68
 3506 0316 0400     		.2byte	0x4
 3507 0318 F3       		.byte	0xf3
 3508 0319 01       		.uleb128 0x1
 3509 031a 50       		.byte	0x50
 3510 031b 9F       		.byte	0x9f
 3511 031c 00000000 		.4byte	0
ARM GAS  C:\Users\RECEPC~1\AppData\Local\Temp\ccFNC6Qx.s 			page 67


 3512 0320 00000000 		.4byte	0
 3513              	.LLST22:
 3514 0324 00000000 		.4byte	.LVL45
 3515 0328 26000000 		.4byte	.LVL47
 3516 032c 0100     		.2byte	0x1
 3517 032e 51       		.byte	0x51
 3518 032f 26000000 		.4byte	.LVL47
 3519 0333 C8000000 		.4byte	.LFE68
 3520 0337 0400     		.2byte	0x4
 3521 0339 F3       		.byte	0xf3
 3522 033a 01       		.uleb128 0x1
 3523 033b 51       		.byte	0x51
 3524 033c 9F       		.byte	0x9f
 3525 033d 00000000 		.4byte	0
 3526 0341 00000000 		.4byte	0
 3527              	.LLST23:
 3528 0345 00000000 		.4byte	.LVL45
 3529 0349 2A000000 		.4byte	.LVL48
 3530 034d 0100     		.2byte	0x1
 3531 034f 52       		.byte	0x52
 3532 0350 2A000000 		.4byte	.LVL48
 3533 0354 C8000000 		.4byte	.LFE68
 3534 0358 0400     		.2byte	0x4
 3535 035a F3       		.byte	0xf3
 3536 035b 01       		.uleb128 0x1
 3537 035c 52       		.byte	0x52
 3538 035d 9F       		.byte	0x9f
 3539 035e 00000000 		.4byte	0
 3540 0362 00000000 		.4byte	0
 3541              	.LLST24:
 3542 0366 00000000 		.4byte	.LVL45
 3543 036a 2E000000 		.4byte	.LVL49
 3544 036e 0100     		.2byte	0x1
 3545 0370 53       		.byte	0x53
 3546 0371 2E000000 		.4byte	.LVL49
 3547 0375 C8000000 		.4byte	.LFE68
 3548 0379 0400     		.2byte	0x4
 3549 037b F3       		.byte	0xf3
 3550 037c 01       		.uleb128 0x1
 3551 037d 53       		.byte	0x53
 3552 037e 9F       		.byte	0x9f
 3553 037f 00000000 		.4byte	0
 3554 0383 00000000 		.4byte	0
 3555              	.LLST25:
 3556 0387 00000000 		.4byte	.LVL45
 3557 038b C4000000 		.4byte	.LVL56
 3558 038f 0200     		.2byte	0x2
 3559 0391 91       		.byte	0x91
 3560 0392 00       		.sleb128 0
 3561 0393 C4000000 		.4byte	.LVL56
 3562 0397 C8000000 		.4byte	.LFE68
 3563 039b 0200     		.2byte	0x2
 3564 039d 7D       		.byte	0x7d
 3565 039e 00       		.sleb128 0
 3566 039f 00000000 		.4byte	0
 3567 03a3 00000000 		.4byte	0
 3568              	.LLST26:
ARM GAS  C:\Users\RECEPC~1\AppData\Local\Temp\ccFNC6Qx.s 			page 68


 3569 03a7 00000000 		.4byte	.LVL45
 3570 03ab C4000000 		.4byte	.LVL56
 3571 03af 0200     		.2byte	0x2
 3572 03b1 91       		.byte	0x91
 3573 03b2 04       		.sleb128 4
 3574 03b3 C4000000 		.4byte	.LVL56
 3575 03b7 C8000000 		.4byte	.LFE68
 3576 03bb 0200     		.2byte	0x2
 3577 03bd 7D       		.byte	0x7d
 3578 03be 04       		.sleb128 4
 3579 03bf 00000000 		.4byte	0
 3580 03c3 00000000 		.4byte	0
 3581              	.LLST27:
 3582 03c7 00000000 		.4byte	.LVL45
 3583 03cb C4000000 		.4byte	.LVL56
 3584 03cf 0200     		.2byte	0x2
 3585 03d1 91       		.byte	0x91
 3586 03d2 08       		.sleb128 8
 3587 03d3 C4000000 		.4byte	.LVL56
 3588 03d7 C8000000 		.4byte	.LFE68
 3589 03db 0200     		.2byte	0x2
 3590 03dd 7D       		.byte	0x7d
 3591 03de 08       		.sleb128 8
 3592 03df 00000000 		.4byte	0
 3593 03e3 00000000 		.4byte	0
 3594              	.LLST28:
 3595 03e7 94000000 		.4byte	.LVL50
 3596 03eb 98000000 		.4byte	.LVL51
 3597 03ef 0200     		.2byte	0x2
 3598 03f1 30       		.byte	0x30
 3599 03f2 9F       		.byte	0x9f
 3600 03f3 98000000 		.4byte	.LVL51
 3601 03f7 B8000000 		.4byte	.LVL54
 3602 03fb 0100     		.2byte	0x1
 3603 03fd 54       		.byte	0x54
 3604 03fe BA000000 		.4byte	.LVL55
 3605 0402 C4000000 		.4byte	.LVL56
 3606 0406 0100     		.2byte	0x1
 3607 0408 54       		.byte	0x54
 3608 0409 00000000 		.4byte	0
 3609 040d 00000000 		.4byte	0
 3610              		.section	.debug_aranges,"",%progbits
 3611 0000 44000000 		.4byte	0x44
 3612 0004 0200     		.2byte	0x2
 3613 0006 00000000 		.4byte	.Ldebug_info0
 3614 000a 04       		.byte	0x4
 3615 000b 00       		.byte	0
 3616 000c 0000     		.2byte	0
 3617 000e 0000     		.2byte	0
 3618 0010 00000000 		.4byte	.LFB63
 3619 0014 50000000 		.4byte	.LFE63-.LFB63
 3620 0018 00000000 		.4byte	.LFB64
 3621 001c C8000000 		.4byte	.LFE64-.LFB64
 3622 0020 00000000 		.4byte	.LFB65
 3623 0024 5C000000 		.4byte	.LFE65-.LFB65
 3624 0028 00000000 		.4byte	.LFB66
 3625 002c 32000000 		.4byte	.LFE66-.LFB66
ARM GAS  C:\Users\RECEPC~1\AppData\Local\Temp\ccFNC6Qx.s 			page 69


 3626 0030 00000000 		.4byte	.LFB67
 3627 0034 1C000000 		.4byte	.LFE67-.LFB67
 3628 0038 00000000 		.4byte	.LFB68
 3629 003c C8000000 		.4byte	.LFE68-.LFB68
 3630 0040 00000000 		.4byte	0
 3631 0044 00000000 		.4byte	0
 3632              		.section	.debug_ranges,"",%progbits
 3633              	.Ldebug_ranges0:
 3634 0000 00000000 		.4byte	.LFB63
 3635 0004 50000000 		.4byte	.LFE63
 3636 0008 00000000 		.4byte	.LFB64
 3637 000c C8000000 		.4byte	.LFE64
 3638 0010 00000000 		.4byte	.LFB65
 3639 0014 5C000000 		.4byte	.LFE65
 3640 0018 00000000 		.4byte	.LFB66
 3641 001c 32000000 		.4byte	.LFE66
 3642 0020 00000000 		.4byte	.LFB67
 3643 0024 1C000000 		.4byte	.LFE67
 3644 0028 00000000 		.4byte	.LFB68
 3645 002c C8000000 		.4byte	.LFE68
 3646 0030 00000000 		.4byte	0
 3647 0034 00000000 		.4byte	0
 3648              		.section	.debug_line,"",%progbits
 3649              	.Ldebug_line0:
 3650 0000 73020000 		.section	.debug_str,"MS",%progbits,1
 3650      02008B01 
 3650      00000201 
 3650      FB0E0D00 
 3650      01010101 
 3651              	.LASF195:
 3652 0000 43794465 		.ascii	"CyDelay\000"
 3652      6C617900 
 3653              	.LASF161:
 3654 0008 636F756E 		.ascii	"count_protector2\000"
 3654      745F7072 
 3654      6F746563 
 3654      746F7232 
 3654      00
 3655              	.LASF182:
 3656 0019 47726164 		.ascii	"GradesHose\000"
 3656      6573486F 
 3656      736500
 3657              	.LASF136:
 3658 0024 636F756E 		.ascii	"counterRF\000"
 3658      74657252 
 3658      4600
 3659              	.LASF132:
 3660 002e 50726576 		.ascii	"PrevStatePump\000"
 3660      53746174 
 3660      6550756D 
 3660      7000
 3661              	.LASF78:
 3662 003c 70756D70 		.ascii	"pumpState\000"
 3662      53746174 
 3662      6500
 3663              	.LASF106:
 3664 0046 636F756E 		.ascii	"countRX\000"
ARM GAS  C:\Users\RECEPC~1\AppData\Local\Temp\ccFNC6Qx.s 			page 70


 3664      74525800 
 3665              	.LASF81:
 3666 004e 52467374 		.ascii	"RFstateReport\000"
 3666      61746552 
 3666      65706F72 
 3666      7400
 3667              	.LASF57:
 3668 005c 766F6C75 		.ascii	"volumeQuota\000"
 3668      6D655175 
 3668      6F746100 
 3669              	.LASF192:
 3670 0068 2E5C4C43 		.ascii	".\\LCD.c\000"
 3670      442E6300 
 3671              	.LASF66:
 3672 0070 62756666 		.ascii	"buffer\000"
 3672      657200
 3673              	.LASF168:
 3674 0077 62756666 		.ascii	"buffer_rf\000"
 3674      65725F72 
 3674      6600
 3675              	.LASF36:
 3676 0081 73616C65 		.ascii	"salePerform\000"
 3676      50657266 
 3676      6F726D00 
 3677              	.LASF11:
 3678 008d 756E7369 		.ascii	"unsigned int\000"
 3678      676E6564 
 3678      20696E74 
 3678      00
 3679              	.LASF97:
 3680 009a 636F6F72 		.ascii	"coordinate\000"
 3680      64696E61 
 3680      746500
 3681              	.LASF156:
 3682 00a5 5072696E 		.ascii	"PrinterType\000"
 3682      74657254 
 3682      79706500 
 3683              	.LASF6:
 3684 00b1 5F5F696E 		.ascii	"__int32_t\000"
 3684      7433325F 
 3684      7400
 3685              	.LASF54:
 3686 00bb 666C6167 		.ascii	"flagLiftHandle\000"
 3686      4C696674 
 3686      48616E64 
 3686      6C6500
 3687              	.LASF126:
 3688 00ca 72657369 		.ascii	"residue\000"
 3688      64756500 
 3689              	.LASF138:
 3690 00d2 74656D70 		.ascii	"tempPreset\000"
 3690      50726573 
 3690      657400
 3691              	.LASF24:
 3692 00dd 69645479 		.ascii	"idType\000"
 3692      706500
 3693              	.LASF150:
ARM GAS  C:\Users\RECEPC~1\AppData\Local\Temp\ccFNC6Qx.s 			page 71


 3694 00e4 44444D6F 		.ascii	"DDMode\000"
 3694      646500
 3695              	.LASF187:
 3696 00eb 73696465 		.ascii	"side\000"
 3696      00
 3697              	.LASF164:
 3698 00f0 69645374 		.ascii	"idStation\000"
 3698      6174696F 
 3698      6E00
 3699              	.LASF28:
 3700 00fa 73656C65 		.ascii	"selectedSale\000"
 3700      63746564 
 3700      53616C65 
 3700      00
 3701              	.LASF194:
 3702 0107 556E6D61 		.ascii	"UnmapCode\000"
 3702      70436F64 
 3702      6500
 3703              	.LASF117:
 3704 0111 666C6167 		.ascii	"flagPoint2\000"
 3704      506F696E 
 3704      743200
 3705              	.LASF107:
 3706 011c 636F756E 		.ascii	"countTX\000"
 3706      74545800 
 3707              	.LASF79:
 3708 0124 6368616E 		.ascii	"changePPU\000"
 3708      67655050 
 3708      5500
 3709              	.LASF125:
 3710 012e 73637265 		.ascii	"screen\000"
 3710      656E00
 3711              	.LASF163:
 3712 0135 636F6E74 		.ascii	"controlChar\000"
 3712      726F6C43 
 3712      68617200 
 3713              	.LASF133:
 3714 0141 506C6174 		.ascii	"PlateRequest\000"
 3714      65526571 
 3714      75657374 
 3714      00
 3715              	.LASF169:
 3716 014e 62756666 		.ascii	"buffer_tx\000"
 3716      65725F74 
 3716      7800
 3717              	.LASF18:
 3718 0158 666C6F61 		.ascii	"float\000"
 3718      7400
 3719              	.LASF96:
 3720 015e 53686F77 		.ascii	"ShowRectangle\000"
 3720      52656374 
 3720      616E676C 
 3720      6500
 3721              	.LASF140:
 3722 016c 43477261 		.ascii	"CGrade\000"
 3722      646500
 3723              	.LASF190:
ARM GAS  C:\Users\RECEPC~1\AppData\Local\Temp\ccFNC6Qx.s 			page 72


 3724 0173 44697370 		.ascii	"Display2_PutChar\000"
 3724      6C617932 
 3724      5F507574 
 3724      43686172 
 3724      00
 3725              	.LASF141:
 3726 0184 53686966 		.ascii	"ShiftState\000"
 3726      74537461 
 3726      746500
 3727              	.LASF147:
 3728 018f 4D6F6E65 		.ascii	"MoneyDec\000"
 3728      79446563 
 3728      00
 3729              	.LASF183:
 3730 0198 62756666 		.ascii	"bufferDisplay1\000"
 3730      65724469 
 3730      73706C61 
 3730      793100
 3731              	.LASF75:
 3732 01a7 686F7365 		.ascii	"hose\000"
 3732      00
 3733              	.LASF185:
 3734 01ac 62756666 		.ascii	"bufferDisplay3\000"
 3734      65724469 
 3734      73706C61 
 3734      793300
 3735              	.LASF10:
 3736 01bb 6C6F6E67 		.ascii	"long long unsigned int\000"
 3736      206C6F6E 
 3736      6720756E 
 3736      7369676E 
 3736      65642069 
 3737              	.LASF102:
 3738 01d2 57726974 		.ascii	"WriteLCD\000"
 3738      654C4344 
 3738      00
 3739              	.LASF44:
 3740 01db 746F7461 		.ascii	"totalVolumePrevious\000"
 3740      6C566F6C 
 3740      756D6550 
 3740      72657669 
 3740      6F757300 
 3741              	.LASF162:
 3742 01ef 636F6E66 		.ascii	"configAccess\000"
 3742      69674163 
 3742      63657373 
 3742      00
 3743              	.LASF4:
 3744 01fc 5F5F7569 		.ascii	"__uint16_t\000"
 3744      6E743136 
 3744      5F7400
 3745              	.LASF154:
 3746 0207 64696769 		.ascii	"digits\000"
 3746      747300
 3747              	.LASF123:
 3748 020e 74696D65 		.ascii	"time\000"
 3748      00
ARM GAS  C:\Users\RECEPC~1\AppData\Local\Temp\ccFNC6Qx.s 			page 73


 3749              	.LASF166:
 3750 0213 7072696E 		.ascii	"printPortA\000"
 3750      74506F72 
 3750      744100
 3751              	.LASF167:
 3752 021e 7072696E 		.ascii	"printPortB\000"
 3752      74506F72 
 3752      744200
 3753              	.LASF100:
 3754 0229 72657476 		.ascii	"retval\000"
 3754      616C00
 3755              	.LASF39:
 3756 0230 70726F64 		.ascii	"productType\000"
 3756      75637454 
 3756      79706500 
 3757              	.LASF172:
 3758 023c 62756666 		.ascii	"buffer_print\000"
 3758      65725F70 
 3758      72696E74 
 3758      00
 3759              	.LASF118:
 3760 0249 70726F64 		.ascii	"productNumber\000"
 3760      7563744E 
 3760      756D6265 
 3760      7200
 3761              	.LASF127:
 3762 0257 69645365 		.ascii	"idSeller\000"
 3762      6C6C6572 
 3762      00
 3763              	.LASF25:
 3764 0260 69645365 		.ascii	"idSerial\000"
 3764      7269616C 
 3764      00
 3765              	.LASF153:
 3766 0269 6C6F636B 		.ascii	"lockTurn\000"
 3766      5475726E 
 3766      00
 3767              	.LASF109:
 3768 0272 636F756E 		.ascii	"countLCD\000"
 3768      744C4344 
 3768      00
 3769              	.LASF171:
 3770 027b 62756666 		.ascii	"buffer_A\000"
 3770      65725F41 
 3770      00
 3771              	.LASF50:
 3772 0284 6D696C65 		.ascii	"mileageSale\000"
 3772      61676553 
 3772      616C6500 
 3773              	.LASF61:
 3774 0290 666C6167 		.ascii	"flagChangePPU\000"
 3774      4368616E 
 3774      67655050 
 3774      5500
 3775              	.LASF95:
 3776 029e 626F7474 		.ascii	"bottomless\000"
 3776      6F6D6C65 
ARM GAS  C:\Users\RECEPC~1\AppData\Local\Temp\ccFNC6Qx.s 			page 74


 3776      737300
 3777              	.LASF63:
 3778 02a9 666C6167 		.ascii	"flagActiveSale\000"
 3778      41637469 
 3778      76655361 
 3778      6C6500
 3779              	.LASF85:
 3780 02b8 5F6D6170 		.ascii	"_mappedto\000"
 3780      70656474 
 3780      6F00
 3781              	.LASF111:
 3782 02c2 666C6F77 		.ascii	"flowDisplay2\000"
 3782      44697370 
 3782      6C617932 
 3782      00
 3783              	.LASF112:
 3784 02cf 666C6F77 		.ascii	"flowDisplay3\000"
 3784      44697370 
 3784      6C617933 
 3784      00
 3785              	.LASF113:
 3786 02dc 666C6F77 		.ascii	"flowDisplay4\000"
 3786      44697370 
 3786      6C617934 
 3786      00
 3787              	.LASF68:
 3788 02e9 746F7461 		.ascii	"totalsHandle\000"
 3788      6C734861 
 3788      6E646C65 
 3788      00
 3789              	.LASF86:
 3790 02f6 44697370 		.ascii	"DisplayCharacterMap\000"
 3790      6C617943 
 3790      68617261 
 3790      63746572 
 3790      4D617000 
 3791              	.LASF99:
 3792 030a 636F6465 		.ascii	"code\000"
 3792      00
 3793              	.LASF38:
 3794 030f 70726573 		.ascii	"presetValue\000"
 3794      65745661 
 3794      6C756500 
 3795              	.LASF51:
 3796 031b 6964656E 		.ascii	"identySale\000"
 3796      74795361 
 3796      6C6500
 3797              	.LASF35:
 3798 0326 73616C65 		.ascii	"saleType\000"
 3798      54797065 
 3798      00
 3799              	.LASF33:
 3800 032f 76616C75 		.ascii	"valueKeys\000"
 3800      654B6579 
 3800      7300
 3801              	.LASF22:
 3802 0339 63686172 		.ascii	"char\000"
ARM GAS  C:\Users\RECEPC~1\AppData\Local\Temp\ccFNC6Qx.s 			page 75


 3802      00
 3803              	.LASF146:
 3804 033e 436F6E76 		.ascii	"ConversionFactor\000"
 3804      65727369 
 3804      6F6E4661 
 3804      63746F72 
 3804      00
 3805              	.LASF114:
 3806 034f 6E756D62 		.ascii	"numberKeys1\000"
 3806      65724B65 
 3806      79733100 
 3807              	.LASF115:
 3808 035b 6E756D62 		.ascii	"numberKeys2\000"
 3808      65724B65 
 3808      79733200 
 3809              	.LASF16:
 3810 0367 75696E74 		.ascii	"uint16\000"
 3810      313600
 3811              	.LASF90:
 3812 036e 64617461 		.ascii	"data\000"
 3812      00
 3813              	.LASF124:
 3814 0373 64617465 		.ascii	"date\000"
 3814      00
 3815              	.LASF94:
 3816 0378 6667636F 		.ascii	"fgcolor\000"
 3816      6C6F7200 
 3817              	.LASF151:
 3818 0380 73746174 		.ascii	"statePump\000"
 3818      6550756D 
 3818      7000
 3819              	.LASF12:
 3820 038a 75696E74 		.ascii	"uint8_t\000"
 3820      385F7400 
 3821              	.LASF53:
 3822 0392 666C6167 		.ascii	"flagPayment\000"
 3822      5061796D 
 3822      656E7400 
 3823              	.LASF21:
 3824 039e 63686172 		.ascii	"char8\000"
 3824      3800
 3825              	.LASF58:
 3826 03a4 70707551 		.ascii	"ppuQuota\000"
 3826      756F7461 
 3826      00
 3827              	.LASF46:
 3828 03ad 746F7461 		.ascii	"totalMoneyAfter\000"
 3828      6C4D6F6E 
 3828      65794166 
 3828      74657200 
 3829              	.LASF56:
 3830 03bd 6D6F6E65 		.ascii	"moneyQuota\000"
 3830      7951756F 
 3830      746100
 3831              	.LASF60:
 3832 03c8 7072696E 		.ascii	"printers\000"
 3832      74657273 
ARM GAS  C:\Users\RECEPC~1\AppData\Local\Temp\ccFNC6Qx.s 			page 76


 3832      00
 3833              	.LASF135:
 3834 03d1 41637469 		.ascii	"ActiveRF\000"
 3834      76655246 
 3834      00
 3835              	.LASF70:
 3836 03da 6D6F6E65 		.ascii	"moneySale\000"
 3836      7953616C 
 3836      6500
 3837              	.LASF9:
 3838 03e4 6C6F6E67 		.ascii	"long long int\000"
 3838      206C6F6E 
 3838      6720696E 
 3838      7400
 3839              	.LASF188:
 3840 03f2 5F675F63 		.ascii	"_g_charmaplut\000"
 3840      6861726D 
 3840      61706C75 
 3840      7400
 3841              	.LASF72:
 3842 0400 70707553 		.ascii	"ppuSale\000"
 3842      616C6500 
 3843              	.LASF104:
 3844 0408 636F756E 		.ascii	"countAnimation1\000"
 3844      74416E69 
 3844      6D617469 
 3844      6F6E3100 
 3845              	.LASF152:
 3846 0418 4E756D50 		.ascii	"NumPositions\000"
 3846      6F736974 
 3846      696F6E73 
 3846      00
 3847              	.LASF89:
 3848 0425 57726974 		.ascii	"WriteMessage\000"
 3848      654D6573 
 3848      73616765 
 3848      00
 3849              	.LASF131:
 3850 0432 73746174 		.ascii	"stateBeagleSoft\000"
 3850      65426561 
 3850      676C6553 
 3850      6F667400 
 3851              	.LASF45:
 3852 0442 746F7461 		.ascii	"totalPPUPrevious\000"
 3852      6C505055 
 3852      50726576 
 3852      696F7573 
 3852      00
 3853              	.LASF105:
 3854 0453 636F756E 		.ascii	"countAnimation2\000"
 3854      74416E69 
 3854      6D617469 
 3854      6F6E3200 
 3855              	.LASF159:
 3856 0463 74696D65 		.ascii	"timeDownHandle\000"
 3856      446F776E 
 3856      48616E64 
ARM GAS  C:\Users\RECEPC~1\AppData\Local\Temp\ccFNC6Qx.s 			page 77


 3856      6C6500
 3857              	.LASF34:
 3858 0472 76656869 		.ascii	"vehicleType\000"
 3858      636C6554 
 3858      79706500 
 3859              	.LASF173:
 3860 047e 62756666 		.ascii	"buffer_txPreset\000"
 3860      65725F74 
 3860      78507265 
 3860      73657400 
 3861              	.LASF52:
 3862 048e 666C6167 		.ascii	"flagKeyboard\000"
 3862      4B657962 
 3862      6F617264 
 3862      00
 3863              	.LASF93:
 3864 049b 73697A65 		.ascii	"size\000"
 3864      00
 3865              	.LASF17:
 3866 04a0 75696E74 		.ascii	"uint32\000"
 3866      333200
 3867              	.LASF130:
 3868 04a7 666C6167 		.ascii	"flagResetMux\000"
 3868      52657365 
 3868      744D7578 
 3868      00
 3869              	.LASF87:
 3870 04b4 70696374 		.ascii	"picture\000"
 3870      75726500 
 3871              	.LASF175:
 3872 04bc 62756666 		.ascii	"buffer_txDisplay\000"
 3872      65725F74 
 3872      78446973 
 3872      706C6179 
 3872      00
 3873              	.LASF88:
 3874 04cd 53657450 		.ascii	"SetPicture\000"
 3874      69637475 
 3874      726500
 3875              	.LASF48:
 3876 04d8 746F7461 		.ascii	"totalPPUAfter\000"
 3876      6C505055 
 3876      41667465 
 3876      7200
 3877              	.LASF13:
 3878 04e6 75696E74 		.ascii	"uint16_t\000"
 3878      31365F74 
 3878      00
 3879              	.LASF31:
 3880 04ef 6B657962 		.ascii	"keyboardWayToPay\000"
 3880      6F617264 
 3880      57617954 
 3880      6F506179 
 3880      00
 3881              	.LASF121:
 3882 0500 70707578 		.ascii	"ppux10\000"
 3882      313000
ARM GAS  C:\Users\RECEPC~1\AppData\Local\Temp\ccFNC6Qx.s 			page 78


 3883              	.LASF43:
 3884 0507 746F7461 		.ascii	"totalMoneyPrevious\000"
 3884      6C4D6F6E 
 3884      65795072 
 3884      6576696F 
 3884      757300
 3885              	.LASF116:
 3886 051a 666C6167 		.ascii	"flagPoint1\000"
 3886      506F696E 
 3886      743100
 3887              	.LASF29:
 3888 0525 6D6F6E65 		.ascii	"moneySelectedSale\000"
 3888      7953656C 
 3888      65637465 
 3888      6453616C 
 3888      6500
 3889              	.LASF122:
 3890 0537 73796D62 		.ascii	"symbols\000"
 3890      6F6C7300 
 3891              	.LASF158:
 3892 053f 64617465 		.ascii	"dateDownHandle\000"
 3892      446F776E 
 3892      48616E64 
 3892      6C6500
 3893              	.LASF49:
 3894 054e 6C696365 		.ascii	"licenceSale\000"
 3894      6E636553 
 3894      616C6500 
 3895              	.LASF59:
 3896 055a 70726963 		.ascii	"priceConsign\000"
 3896      65436F6E 
 3896      7369676E 
 3896      00
 3897              	.LASF2:
 3898 0567 73686F72 		.ascii	"short int\000"
 3898      7420696E 
 3898      7400
 3899              	.LASF7:
 3900 0571 6C6F6E67 		.ascii	"long int\000"
 3900      20696E74 
 3900      00
 3901              	.LASF181:
 3902 057a 436F7069 		.ascii	"CopiasCredito\000"
 3902      61734372 
 3902      65646974 
 3902      6F00
 3903              	.LASF157:
 3904 0588 566F6C55 		.ascii	"VolUnit\000"
 3904      6E697400 
 3905              	.LASF134:
 3906 0590 49444361 		.ascii	"IDCast\000"
 3906      737400
 3907              	.LASF103:
 3908 0597 49544D5F 		.ascii	"ITM_RxBuffer\000"
 3908      52784275 
 3908      66666572 
 3908      00
ARM GAS  C:\Users\RECEPC~1\AppData\Local\Temp\ccFNC6Qx.s 			page 79


 3909              	.LASF155:
 3910 05a4 68696464 		.ascii	"hiddenKeys\000"
 3910      656E4B65 
 3910      797300
 3911              	.LASF64:
 3912 05af 73686966 		.ascii	"shiftId\000"
 3912      74496400 
 3913              	.LASF128:
 3914 05b7 74797065 		.ascii	"typeIdSeller\000"
 3914      49645365 
 3914      6C6C6572 
 3914      00
 3915              	.LASF110:
 3916 05c4 666C6F77 		.ascii	"flowDisplay1\000"
 3916      44697370 
 3916      6C617931 
 3916      00
 3917              	.LASF55:
 3918 05d1 666C6167 		.ascii	"flagEndSale\000"
 3918      456E6453 
 3918      616C6500 
 3919              	.LASF41:
 3920 05dd 64617465 		.ascii	"dateLiftHandle\000"
 3920      4C696674 
 3920      48616E64 
 3920      6C6500
 3921              	.LASF76:
 3922 05ec 686F7365 		.ascii	"hoseNumber\000"
 3922      4E756D62 
 3922      657200
 3923              	.LASF184:
 3924 05f7 62756666 		.ascii	"bufferDisplay2\000"
 3924      65724469 
 3924      73706C61 
 3924      793200
 3925              	.LASF176:
 3926 0606 696E7449 		.ascii	"intIDStation\000"
 3926      44537461 
 3926      74696F6E 
 3926      00
 3927              	.LASF186:
 3928 0613 62756666 		.ascii	"bufferDisplay4\000"
 3928      65724469 
 3928      73706C61 
 3928      793400
 3929              	.LASF3:
 3930 0622 5F5F7569 		.ascii	"__uint8_t\000"
 3930      6E74385F 
 3930      7400
 3931              	.LASF129:
 3932 062c 70617373 		.ascii	"passwordSeller\000"
 3932      776F7264 
 3932      53656C6C 
 3932      657200
 3933              	.LASF47:
 3934 063b 746F7461 		.ascii	"totalVolumeAfter\000"
 3934      6C566F6C 
ARM GAS  C:\Users\RECEPC~1\AppData\Local\Temp\ccFNC6Qx.s 			page 80


 3934      756D6541 
 3934      66746572 
 3934      00
 3935              	.LASF145:
 3936 064c 556E6974 		.ascii	"UnitType\000"
 3936      54797065 
 3936      00
 3937              	.LASF20:
 3938 0655 75696E74 		.ascii	"uint64\000"
 3938      363400
 3939              	.LASF119:
 3940 065c 64656C61 		.ascii	"delayPicture1\000"
 3940      79506963 
 3940      74757265 
 3940      3100
 3941              	.LASF120:
 3942 066a 64656C61 		.ascii	"delayPicture2\000"
 3942      79506963 
 3942      74757265 
 3942      3200
 3943              	.LASF40:
 3944 0678 73746174 		.ascii	"stateMux\000"
 3944      654D7578 
 3944      00
 3945              	.LASF177:
 3946 0681 456E6361 		.ascii	"Encabezado1\000"
 3946      62657A61 
 3946      646F3100 
 3947              	.LASF178:
 3948 068d 456E6361 		.ascii	"Encabezado2\000"
 3948      62657A61 
 3948      646F3200 
 3949              	.LASF179:
 3950 0699 456E6361 		.ascii	"Encabezado3\000"
 3950      62657A61 
 3950      646F3300 
 3951              	.LASF180:
 3952 06a5 456E6361 		.ascii	"Encabezado4\000"
 3952      62657A61 
 3952      646F3400 
 3953              	.LASF23:
 3954 06b1 73697A65 		.ascii	"sizetype\000"
 3954      74797065 
 3954      00
 3955              	.LASF8:
 3956 06ba 6C6F6E67 		.ascii	"long unsigned int\000"
 3956      20756E73 
 3956      69676E65 
 3956      6420696E 
 3956      7400
 3957              	.LASF149:
 3958 06cc 50505544 		.ascii	"PPUDec\000"
 3958      656300
 3959              	.LASF142:
 3960 06d3 706F6C6C 		.ascii	"pollTotals\000"
 3960      546F7461 
 3960      6C7300
ARM GAS  C:\Users\RECEPC~1\AppData\Local\Temp\ccFNC6Qx.s 			page 81


 3961              	.LASF74:
 3962 06de 61637469 		.ascii	"activeHose\000"
 3962      7665486F 
 3962      736500
 3963              	.LASF62:
 3964 06e9 666C6167 		.ascii	"flagPrint\000"
 3964      5072696E 
 3964      7400
 3965              	.LASF14:
 3966 06f3 696E7433 		.ascii	"int32_t\000"
 3966      325F7400 
 3967              	.LASF82:
 3968 06fb 73616C65 		.ascii	"saleNumber\000"
 3968      4E756D62 
 3968      657200
 3969              	.LASF98:
 3970 0706 53686F77 		.ascii	"ShowMessage\000"
 3970      4D657373 
 3970      61676500 
 3971              	.LASF27:
 3972 0712 666C6167 		.ascii	"flagWayToPayMixed\000"
 3972      57617954 
 3972      6F506179 
 3972      4D697865 
 3972      6400
 3973              	.LASF1:
 3974 0724 756E7369 		.ascii	"unsigned char\000"
 3974      676E6564 
 3974      20636861 
 3974      7200
 3975              	.LASF144:
 3976 0732 62756666 		.ascii	"bufferAready\000"
 3976      65724172 
 3976      65616479 
 3976      00
 3977              	.LASF191:
 3978 073f 474E5520 		.ascii	"GNU C 4.9.3 20150303 (release) [ARM/embedded-4_9-br"
 3978      4320342E 
 3978      392E3320 
 3978      32303135 
 3978      30333033 
 3979 0772 616E6368 		.ascii	"anch revision 221220] -mcpu=cortex-m3 -mthumb -g -O"
 3979      20726576 
 3979      6973696F 
 3979      6E203232 
 3979      31323230 
 3980 07a5 67202D66 		.ascii	"g -ffunction-sections -ffat-lto-objects\000"
 3980      66756E63 
 3980      74696F6E 
 3980      2D736563 
 3980      74696F6E 
 3981              	.LASF32:
 3982 07cd 61757468 		.ascii	"authorizationFlag\000"
 3982      6F72697A 
 3982      6174696F 
 3982      6E466C61 
 3982      6700
ARM GAS  C:\Users\RECEPC~1\AppData\Local\Temp\ccFNC6Qx.s 			page 82


 3983              	.LASF83:
 3984 07df 70756D70 		.ascii	"pump\000"
 3984      00
 3985              	.LASF193:
 3986 07e4 433A5C55 		.ascii	"C:\\Users\\Recepcion\\Documents\\GitHub\\NSY-DH\\Wo"
 3986      73657273 
 3986      5C526563 
 3986      65706369 
 3986      6F6E5C44 
 3987 0811 726B7370 		.ascii	"rkspace01\\Design01.cydsn\000"
 3987      61636530 
 3987      315C4465 
 3987      7369676E 
 3987      30312E63 
 3988              	.LASF137:
 3989 082a 74656D70 		.ascii	"temporal\000"
 3989      6F72616C 
 3989      00
 3990              	.LASF148:
 3991 0833 566F6C44 		.ascii	"VolDec\000"
 3991      656300
 3992              	.LASF37:
 3993 083a 70726573 		.ascii	"presetType\000"
 3993      65745479 
 3993      706500
 3994              	.LASF92:
 3995 0845 706F7378 		.ascii	"posx\000"
 3995      00
 3996              	.LASF91:
 3997 084a 706F7379 		.ascii	"posy\000"
 3997      00
 3998              	.LASF170:
 3999 084f 62756666 		.ascii	"buffer_txTotals\000"
 3999      65725F74 
 3999      78546F74 
 3999      616C7300 
 4000              	.LASF71:
 4001 085f 766F6C75 		.ascii	"volumeSale\000"
 4001      6D655361 
 4001      6C6500
 4002              	.LASF174:
 4003 086a 62756666 		.ascii	"buffer_txEOT\000"
 4003      65725F74 
 4003      78454F54 
 4003      00
 4004              	.LASF65:
 4005 0877 73686966 		.ascii	"shiftPassword\000"
 4005      74506173 
 4005      73776F72 
 4005      6400
 4006              	.LASF0:
 4007 0885 7369676E 		.ascii	"signed char\000"
 4007      65642063 
 4007      68617200 
 4008              	.LASF160:
 4009 0891 636F756E 		.ascii	"count_protector\000"
 4009      745F7072 
ARM GAS  C:\Users\RECEPC~1\AppData\Local\Temp\ccFNC6Qx.s 			page 83


 4009      6F746563 
 4009      746F7200 
 4010              	.LASF5:
 4011 08a1 73686F72 		.ascii	"short unsigned int\000"
 4011      7420756E 
 4011      7369676E 
 4011      65642069 
 4011      6E7400
 4012              	.LASF108:
 4013 08b4 636F756E 		.ascii	"countPump\000"
 4013      7450756D 
 4013      7000
 4014              	.LASF101:
 4015 08be 70636861 		.ascii	"pcharmap\000"
 4015      726D6170 
 4015      00
 4016              	.LASF84:
 4017 08c7 5F726566 		.ascii	"_refchar\000"
 4017      63686172 
 4017      00
 4018              	.LASF73:
 4019 08d0 70726F64 		.ascii	"productSale\000"
 4019      75637453 
 4019      616C6500 
 4020              	.LASF15:
 4021 08dc 75696E74 		.ascii	"uint8\000"
 4021      3800
 4022              	.LASF19:
 4023 08e2 646F7562 		.ascii	"double\000"
 4023      6C6500
 4024              	.LASF189:
 4025 08e9 44697370 		.ascii	"Display1_PutChar\000"
 4025      6C617931 
 4025      5F507574 
 4025      43686172 
 4025      00
 4026              	.LASF26:
 4027 08fa 77617954 		.ascii	"wayToPay\000"
 4027      6F506179 
 4027      00
 4028              	.LASF80:
 4029 0903 67726164 		.ascii	"grade\000"
 4029      6500
 4030              	.LASF42:
 4031 0909 74696D65 		.ascii	"timeLiftHandle\000"
 4031      4C696674 
 4031      48616E64 
 4031      6C6500
 4032              	.LASF143:
 4033 0918 73697A65 		.ascii	"sizeSendB\000"
 4033      53656E64 
 4033      4200
 4034              	.LASF69:
 4035 0922 70707541 		.ascii	"ppuAuthorized\000"
 4035      7574686F 
 4035      72697A65 
 4035      6400
ARM GAS  C:\Users\RECEPC~1\AppData\Local\Temp\ccFNC6Qx.s 			page 84


 4036              	.LASF30:
 4037 0930 73657269 		.ascii	"serialSelectedSale\000"
 4037      616C5365 
 4037      6C656374 
 4037      65645361 
 4037      6C6500
 4038              	.LASF67:
 4039 0943 706F7369 		.ascii	"position\000"
 4039      74696F6E 
 4039      00
 4040              	.LASF139:
 4041 094c 74656D70 		.ascii	"tempPPU\000"
 4041      50505500 
 4042              	.LASF165:
 4043 0954 70756D70 		.ascii	"pumpGap\000"
 4043      47617000 
 4044              	.LASF77:
 4045 095c 72665374 		.ascii	"rfState\000"
 4045      61746500 
 4046              		.ident	"GCC: (GNU Tools for ARM Embedded Processors) 4.9.3 20150303 (release) [ARM/embedded-4_9-br
