ARM GAS  C:\Users\RECEPC~1\AppData\Local\Temp\cc75V9D8.s 			page 1


   1              		.syntax unified
   2              		.cpu cortex-m3
   3              		.fpu softvfp
   4              		.eabi_attribute 20, 1
   5              		.eabi_attribute 21, 1
   6              		.eabi_attribute 23, 3
   7              		.eabi_attribute 24, 1
   8              		.eabi_attribute 25, 1
   9              		.eabi_attribute 26, 1
  10              		.eabi_attribute 30, 1
  11              		.eabi_attribute 34, 1
  12              		.eabi_attribute 18, 4
  13              		.thumb
  14              		.file	"LCD.c"
  15              		.text
  16              	.Ltext0:
  17              		.cfi_sections	.debug_frame
  18              		.section	.text.SetPicture,"ax",%progbits
  19              		.align	2
  20              		.global	SetPicture
  21              		.thumb
  22              		.thumb_func
  23              		.type	SetPicture, %function
  24              	SetPicture:
  25              	.LFB63:
  26              		.file 1 ".\\LCD.c"
   1:.\LCD.c       **** /*
   2:.\LCD.c       **** ***************************************************************************************************
   3:.\LCD.c       **** *                                         MUX ADVANCE CODE
   4:.\LCD.c       **** *
   5:.\LCD.c       **** *                             (c) Copyright 2016; Sistemas Insepet LTDA
   6:.\LCD.c       **** *
   7:.\LCD.c       **** *               All rights reserved.  Protected by international copyright laws.
   8:.\LCD.c       **** *               Knowledge of the source code may NOT be used to develop a similar product.
   9:.\LCD.c       **** *               Please help us continue to provide the Embedded community with the finest
  10:.\LCD.c       **** *               software available.  Your honesty is greatly appreciated.
  11:.\LCD.c       **** ***************************************************************************************************
  12:.\LCD.c       **** */
  13:.\LCD.c       **** 
  14:.\LCD.c       **** /*
  15:.\LCD.c       **** ***************************************************************************************************
  16:.\LCD.c       **** *
  17:.\LCD.c       **** *                                            MUX ADVANCE CODE
  18:.\LCD.c       **** *
  19:.\LCD.c       **** *                                             CYPRESS PSoC5LP
  20:.\LCD.c       **** *                                                with the
  21:.\LCD.c       **** *                                            CY8C5969AXI-LP035
  22:.\LCD.c       **** *
  23:.\LCD.c       **** * Filename      : LCD.c
  24:.\LCD.c       **** * Version       : V1.00
  25:.\LCD.c       **** * Programmer(s) : 
  26:.\LCD.c       ****                   
  27:.\LCD.c       **** ***************************************************************************************************
  28:.\LCD.c       **** */
  29:.\LCD.c       **** 
  30:.\LCD.c       **** /*
  31:.\LCD.c       **** ***************************************************************************************************
ARM GAS  C:\Users\RECEPC~1\AppData\Local\Temp\cc75V9D8.s 			page 2


  32:.\LCD.c       **** *                                             INCLUDE FILES
  33:.\LCD.c       **** ***************************************************************************************************
  34:.\LCD.c       **** */
  35:.\LCD.c       **** 
  36:.\LCD.c       **** #include <device.h>
  37:.\LCD.c       **** #include "variables.h"
  38:.\LCD.c       **** //#include "operations.h"
  39:.\LCD.c       **** //#include "I2C.h"
  40:.\LCD.c       **** #include "LCD.h"
  41:.\LCD.c       **** 
  42:.\LCD.c       **** 
  43:.\LCD.c       **** /*
  44:.\LCD.c       **** ***************************************************************************************************
  45:.\LCD.c       **** *                                        void SetPicture(uint8 lcd, uint16 picture)
  46:.\LCD.c       **** *
  47:.\LCD.c       **** * Description : 
  48:.\LCD.c       **** *               
  49:.\LCD.c       **** *
  50:.\LCD.c       **** * Argument(s) : none
  51:.\LCD.c       **** *
  52:.\LCD.c       **** * Return(s)   : none
  53:.\LCD.c       **** *
  54:.\LCD.c       **** * Caller(s)   :  
  55:.\LCD.c       **** *
  56:.\LCD.c       **** * Note(s)     : none.
  57:.\LCD.c       **** ***************************************************************************************************
  58:.\LCD.c       **** */
  59:.\LCD.c       **** 
  60:.\LCD.c       **** void SetPicture(uint8 lcd, uint16 picture){
  27              		.loc 1 60 0
  28              		.cfi_startproc
  29              		@ args = 0, pretend = 0, frame = 8
  30              		@ frame_needed = 0, uses_anonymous_args = 0
  31              	.LVL0:
  32 0000 30B5     		push	{r4, r5, lr}
  33              		.cfi_def_cfa_offset 12
  34              		.cfi_offset 4, -12
  35              		.cfi_offset 5, -8
  36              		.cfi_offset 14, -4
  37 0002 83B0     		sub	sp, sp, #12
  38              		.cfi_def_cfa_offset 24
  39 0004 0546     		mov	r5, r0
  40 0006 0A46     		mov	r2, r1
  61:.\LCD.c       ****     uint8 buffer[8]={0xAA,0x70,0x00,0x00,0xCC,0x33,0xC3,0x3C},x;
  41              		.loc 1 61 0
  42 0008 1049     		ldr	r1, .L7
  43              	.LVL1:
  44 000a 6B46     		mov	r3, sp
  45 000c 0868     		ldr	r0, [r1]	@ unaligned
  46              	.LVL2:
  47 000e 4968     		ldr	r1, [r1, #4]	@ unaligned
  48 0010 03C3     		stmia	r3!, {r0, r1}
  62:.\LCD.c       ****     buffer[2]=(picture>>8)&0xFF;
  49              		.loc 1 62 0
  50 0012 130A     		lsrs	r3, r2, #8
  51 0014 8DF80230 		strb	r3, [sp, #2]
  63:.\LCD.c       ****     buffer[3]=picture&0xFF;
ARM GAS  C:\Users\RECEPC~1\AppData\Local\Temp\cc75V9D8.s 			page 3


  52              		.loc 1 63 0
  53 0018 8DF80320 		strb	r2, [sp, #3]
  54              	.LVL3:
  64:.\LCD.c       ****     for(x=0;x<8;x++){
  55              		.loc 1 64 0
  56 001c 0024     		movs	r4, #0
  57 001e 10E0     		b	.L2
  58              	.LVL4:
  59              	.L5:
  65:.\LCD.c       ****         if(lcd==1){
  60              		.loc 1 65 0
  61 0020 012D     		cmp	r5, #1
  62 0022 06D1     		bne	.L3
  66:.\LCD.c       ****             Display1_PutChar(buffer[x]);
  63              		.loc 1 66 0
  64 0024 02AB     		add	r3, sp, #8
  65 0026 2344     		add	r3, r3, r4
  66 0028 13F8080C 		ldrb	r0, [r3, #-8]	@ zero_extendqisi2
  67 002c FFF7FEFF 		bl	Display1_PutChar
  68              	.LVL5:
  69 0030 05E0     		b	.L4
  70              	.L3:
  67:.\LCD.c       ****         }else{
  68:.\LCD.c       ****             Display2_PutChar(buffer[x]);
  71              		.loc 1 68 0
  72 0032 02AB     		add	r3, sp, #8
  73 0034 2344     		add	r3, r3, r4
  74 0036 13F8080C 		ldrb	r0, [r3, #-8]	@ zero_extendqisi2
  75 003a FFF7FEFF 		bl	Display2_PutChar
  76              	.LVL6:
  77              	.L4:
  64:.\LCD.c       ****         if(lcd==1){
  78              		.loc 1 64 0 discriminator 2
  79 003e 0134     		adds	r4, r4, #1
  80              	.LVL7:
  81 0040 E4B2     		uxtb	r4, r4
  82              	.LVL8:
  83              	.L2:
  64:.\LCD.c       ****         if(lcd==1){
  84              		.loc 1 64 0 is_stmt 0 discriminator 1
  85 0042 072C     		cmp	r4, #7
  86 0044 ECD9     		bls	.L5
  69:.\LCD.c       ****         }
  70:.\LCD.c       ****     }
  71:.\LCD.c       **** }
  87              		.loc 1 71 0 is_stmt 1
  88 0046 03B0     		add	sp, sp, #12
  89              		.cfi_def_cfa_offset 12
  90              		@ sp needed
  91 0048 30BD     		pop	{r4, r5, pc}
  92              	.LVL9:
  93              	.L8:
  94 004a 00BF     		.align	2
  95              	.L7:
  96 004c 00000000 		.word	.LANCHOR0
  97              		.cfi_endproc
  98              	.LFE63:
ARM GAS  C:\Users\RECEPC~1\AppData\Local\Temp\cc75V9D8.s 			page 4


  99              		.size	SetPicture, .-SetPicture
 100              		.section	.text.WriteLCD,"ax",%progbits
 101              		.align	2
 102              		.global	WriteLCD
 103              		.thumb
 104              		.thumb_func
 105              		.type	WriteLCD, %function
 106              	WriteLCD:
 107              	.LFB64:
  72:.\LCD.c       **** 
  73:.\LCD.c       **** /*
  74:.\LCD.c       **** ***************************************************************************************************
  75:.\LCD.c       **** * void WriteLCD(uint8_t lcd,uint8_t data, uint16_t posy, uint16_t posx,uint8_t size, uint16_t fgcol
  76:.\LCD.c       **** *
  77:.\LCD.c       **** * Description : 
  78:.\LCD.c       **** *               
  79:.\LCD.c       **** *
  80:.\LCD.c       **** * Argument(s) : none
  81:.\LCD.c       **** *
  82:.\LCD.c       **** * Return(s)   : none
  83:.\LCD.c       **** *
  84:.\LCD.c       **** * Caller(s)   :  
  85:.\LCD.c       **** *
  86:.\LCD.c       **** * Note(s)     : none.
  87:.\LCD.c       **** ***************************************************************************************************
  88:.\LCD.c       **** */
  89:.\LCD.c       **** 
  90:.\LCD.c       **** void WriteLCD(uint8_t lcd,uint8_t data, uint16_t posy, uint16_t posx,uint8_t size, uint16_t fgcolor
 108              		.loc 1 90 0
 109              		.cfi_startproc
 110              		@ args = 12, pretend = 0, frame = 24
 111              		@ frame_needed = 0, uses_anonymous_args = 0
 112              	.LVL10:
 113 0000 2DE9F043 		push	{r4, r5, r6, r7, r8, r9, lr}
 114              		.cfi_def_cfa_offset 28
 115              		.cfi_offset 4, -28
 116              		.cfi_offset 5, -24
 117              		.cfi_offset 6, -20
 118              		.cfi_offset 7, -16
 119              		.cfi_offset 8, -12
 120              		.cfi_offset 9, -8
 121              		.cfi_offset 14, -4
 122 0004 87B0     		sub	sp, sp, #28
 123              		.cfi_def_cfa_offset 56
 124 0006 0546     		mov	r5, r0
 125 0008 8C46     		mov	ip, r1
 126 000a 1646     		mov	r6, r2
 127 000c 1C46     		mov	r4, r3
 128 000e 9DF83870 		ldrb	r7, [sp, #56]	@ zero_extendqisi2
 129 0012 BDF83CE0 		ldrh	lr, [sp, #60]
  91:.\LCD.c       **** uint8_t buffer[18]={0xAA,0x98,0,0,0x01,0x39,0x22,0xC5,0x03,0x00,0x00,0xFF,0xFF,0,0xCC,0x33,0xC3,0x3
 130              		.loc 1 91 0
 131 0016 0DF10408 		add	r8, sp, #4
 132 001a DFF8A890 		ldr	r9, .L16
 133 001e 59F8080F 		ldr	r0, [r9, #8]!	@ unaligned
 134              	.LVL11:
 135 0022 D9F80410 		ldr	r1, [r9, #4]	@ unaligned
ARM GAS  C:\Users\RECEPC~1\AppData\Local\Temp\cc75V9D8.s 			page 5


 136              	.LVL12:
 137 0026 D9F80820 		ldr	r2, [r9, #8]	@ unaligned
 138              	.LVL13:
 139 002a D9F80C30 		ldr	r3, [r9, #12]	@ unaligned
 140              	.LVL14:
 141 002e A8E80F00 		stmia	r8!, {r0, r1, r2, r3}
 142 0032 B9F81030 		ldrh	r3, [r9, #16]	@ unaligned
 143 0036 A8F80030 		strh	r3, [r8]	@ unaligned
  92:.\LCD.c       **** 	buffer[2] =(0x0C*(posx*(size+1)))>>8;
 144              		.loc 1 92 0
 145 003a 7A1C     		adds	r2, r7, #1
 146 003c 02FB04F3 		mul	r3, r2, r4
 147 0040 03EB4303 		add	r3, r3, r3, lsl #1
 148 0044 9B00     		lsls	r3, r3, #2
 149 0046 1B12     		asrs	r3, r3, #8
 150 0048 8DF80630 		strb	r3, [sp, #6]
  93:.\LCD.c       **** 	buffer[3] =(0x0C*(posx*(size+1)))&0xFF;
 151              		.loc 1 93 0
 152 004c 04FB02F4 		mul	r4, r4, r2
 153 0050 04EB4404 		add	r4, r4, r4, lsl #1
 154 0054 A300     		lsls	r3, r4, #2
 155 0056 8DF80730 		strb	r3, [sp, #7]
  94:.\LCD.c       **** 	buffer[4] =(0x0E*posy)>>8;
 156              		.loc 1 94 0
 157 005a C6EBC603 		rsb	r3, r6, r6, lsl #3
 158 005e 5B00     		lsls	r3, r3, #1
 159 0060 1B12     		asrs	r3, r3, #8
 160 0062 8DF80830 		strb	r3, [sp, #8]
  95:.\LCD.c       **** 	buffer[5] =(0x0E*posy)&0xFF;
 161              		.loc 1 95 0
 162 0066 C6EBC606 		rsb	r6, r6, r6, lsl #3
 163 006a 7300     		lsls	r3, r6, #1
 164 006c 8DF80930 		strb	r3, [sp, #9]
  96:.\LCD.c       **** 	buffer[6] =0x20+size;
 165              		.loc 1 96 0
 166 0070 2037     		adds	r7, r7, #32
 167 0072 8DF80A70 		strb	r7, [sp, #10]
  97:.\LCD.c       ****     if(bottomless=='Y'){
 168              		.loc 1 97 0
 169 0076 9DF84030 		ldrb	r3, [sp, #64]	@ zero_extendqisi2
 170 007a 592B     		cmp	r3, #89
 171 007c 02D1     		bne	.L10
  98:.\LCD.c       ****          buffer[7]=0x85;
 172              		.loc 1 98 0
 173 007e 8523     		movs	r3, #133
 174 0080 8DF80B30 		strb	r3, [sp, #11]
 175              	.L10:
  99:.\LCD.c       ****     }
 100:.\LCD.c       ****     buffer[9] =(fgcolor&0xFF00)>>8;
 176              		.loc 1 100 0
 177 0084 4FEA1E23 		lsr	r3, lr, #8
 178 0088 8DF80D30 		strb	r3, [sp, #13]
 101:.\LCD.c       ****     buffer[10]=(fgcolor&0x00FF);
 179              		.loc 1 101 0
 180 008c 8DF80EE0 		strb	lr, [sp, #14]
 102:.\LCD.c       **** 	buffer[13]=data;
 181              		.loc 1 102 0
ARM GAS  C:\Users\RECEPC~1\AppData\Local\Temp\cc75V9D8.s 			page 6


 182 0090 8DF811C0 		strb	ip, [sp, #17]
 183              	.LVL15:
 103:.\LCD.c       **** 	for(x=0;x<=17;x++){
 184              		.loc 1 103 0
 185 0094 0024     		movs	r4, #0
 186 0096 10E0     		b	.L11
 187              	.LVL16:
 188              	.L14:
 104:.\LCD.c       **** 		if(lcd==1){
 189              		.loc 1 104 0
 190 0098 012D     		cmp	r5, #1
 191 009a 06D1     		bne	.L12
 105:.\LCD.c       **** 			Display1_PutChar(buffer[x]);
 192              		.loc 1 105 0
 193 009c 06AB     		add	r3, sp, #24
 194 009e 2344     		add	r3, r3, r4
 195 00a0 13F8140C 		ldrb	r0, [r3, #-20]	@ zero_extendqisi2
 196 00a4 FFF7FEFF 		bl	Display1_PutChar
 197              	.LVL17:
 198 00a8 05E0     		b	.L13
 199              	.L12:
 106:.\LCD.c       **** 		}
 107:.\LCD.c       **** 		else{
 108:.\LCD.c       **** 			Display2_PutChar(buffer[x]);
 200              		.loc 1 108 0
 201 00aa 06AB     		add	r3, sp, #24
 202 00ac 2344     		add	r3, r3, r4
 203 00ae 13F8140C 		ldrb	r0, [r3, #-20]	@ zero_extendqisi2
 204 00b2 FFF7FEFF 		bl	Display2_PutChar
 205              	.LVL18:
 206              	.L13:
 103:.\LCD.c       **** 		if(lcd==1){
 207              		.loc 1 103 0 discriminator 2
 208 00b6 0134     		adds	r4, r4, #1
 209              	.LVL19:
 210 00b8 E4B2     		uxtb	r4, r4
 211              	.LVL20:
 212              	.L11:
 103:.\LCD.c       **** 		if(lcd==1){
 213              		.loc 1 103 0 is_stmt 0 discriminator 1
 214 00ba 112C     		cmp	r4, #17
 215 00bc ECD9     		bls	.L14
 109:.\LCD.c       **** 		}	
 110:.\LCD.c       **** 	}	
 111:.\LCD.c       **** }
 216              		.loc 1 111 0 is_stmt 1
 217 00be 07B0     		add	sp, sp, #28
 218              		.cfi_def_cfa_offset 28
 219              		@ sp needed
 220 00c0 BDE8F083 		pop	{r4, r5, r6, r7, r8, r9, pc}
 221              	.LVL21:
 222              	.L17:
 223              		.align	2
 224              	.L16:
 225 00c4 00000000 		.word	.LANCHOR0
 226              		.cfi_endproc
 227              	.LFE64:
ARM GAS  C:\Users\RECEPC~1\AppData\Local\Temp\cc75V9D8.s 			page 7


 228              		.size	WriteLCD, .-WriteLCD
 229              		.section	.text.ShowRectangle,"ax",%progbits
 230              		.align	2
 231              		.global	ShowRectangle
 232              		.thumb
 233              		.thumb_func
 234              		.type	ShowRectangle, %function
 235              	ShowRectangle:
 236              	.LFB65:
 112:.\LCD.c       **** 
 113:.\LCD.c       **** 
 114:.\LCD.c       **** /*
 115:.\LCD.c       **** ***************************************************************************************************
 116:.\LCD.c       **** *                                    void ShowRectangle(uint8 lcd)
 117:.\LCD.c       **** *
 118:.\LCD.c       **** * Description : 
 119:.\LCD.c       **** *               
 120:.\LCD.c       **** *
 121:.\LCD.c       **** * Argument(s) : none
 122:.\LCD.c       **** *
 123:.\LCD.c       **** * Return(s)   : none
 124:.\LCD.c       **** *
 125:.\LCD.c       **** * Caller(s)   :  
 126:.\LCD.c       **** *
 127:.\LCD.c       **** * Note(s)     : none.
 128:.\LCD.c       **** ***************************************************************************************************
 129:.\LCD.c       **** */
 130:.\LCD.c       **** 
 131:.\LCD.c       **** void ShowRectangle(uint8 lcd, uint8 coordinate){
 237              		.loc 1 131 0
 238              		.cfi_startproc
 239              		@ args = 0, pretend = 0, frame = 16
 240              		@ frame_needed = 0, uses_anonymous_args = 0
 241              	.LVL22:
 242 0000 70B5     		push	{r4, r5, r6, lr}
 243              		.cfi_def_cfa_offset 16
 244              		.cfi_offset 4, -16
 245              		.cfi_offset 5, -12
 246              		.cfi_offset 6, -8
 247              		.cfi_offset 14, -4
 248 0002 84B0     		sub	sp, sp, #16
 249              		.cfi_def_cfa_offset 32
 250 0004 0546     		mov	r5, r0
 251 0006 0E46     		mov	r6, r1
 132:.\LCD.c       ****     uint8_t buffer[14]={0xAA, 0x5C, 0x00,0x20,0x00,0x20,0x00, 0x30,0x00, 0x30, 0xCC, 0x33, 0xC3, 0x
 252              		.loc 1 132 0
 253 0008 6B46     		mov	r3, sp
 254 000a 134C     		ldr	r4, .L24
 255 000c 54F81C0F 		ldr	r0, [r4, #28]!	@ unaligned
 256              	.LVL23:
 257 0010 6168     		ldr	r1, [r4, #4]	@ unaligned
 258              	.LVL24:
 259 0012 A268     		ldr	r2, [r4, #8]	@ unaligned
 260 0014 07C3     		stmia	r3!, {r0, r1, r2}
 261 0016 A289     		ldrh	r2, [r4, #12]	@ unaligned
 262 0018 1A80     		strh	r2, [r3]	@ unaligned
 133:.\LCD.c       ****     buffer[7]=coordinate;
ARM GAS  C:\Users\RECEPC~1\AppData\Local\Temp\cc75V9D8.s 			page 8


 263              		.loc 1 133 0
 264 001a 8DF80760 		strb	r6, [sp, #7]
 134:.\LCD.c       ****     buffer[9]=coordinate;
 265              		.loc 1 134 0
 266 001e 8DF80960 		strb	r6, [sp, #9]
 267              	.LVL25:
 135:.\LCD.c       ****     for(x=0;x <=13;x++){
 268              		.loc 1 135 0
 269 0022 0024     		movs	r4, #0
 270 0024 10E0     		b	.L19
 271              	.LVL26:
 272              	.L22:
 136:.\LCD.c       **** 		if(lcd==1){            
 273              		.loc 1 136 0
 274 0026 012D     		cmp	r5, #1
 275 0028 06D1     		bne	.L20
 137:.\LCD.c       **** 			Display1_PutChar(buffer[x]);
 276              		.loc 1 137 0
 277 002a 04AB     		add	r3, sp, #16
 278 002c 2344     		add	r3, r3, r4
 279 002e 13F8100C 		ldrb	r0, [r3, #-16]	@ zero_extendqisi2
 280 0032 FFF7FEFF 		bl	Display1_PutChar
 281              	.LVL27:
 282 0036 05E0     		b	.L21
 283              	.L20:
 138:.\LCD.c       **** 		}
 139:.\LCD.c       **** 		else{
 140:.\LCD.c       **** 			Display2_PutChar(buffer[x]);
 284              		.loc 1 140 0
 285 0038 04AB     		add	r3, sp, #16
 286 003a 2344     		add	r3, r3, r4
 287 003c 13F8100C 		ldrb	r0, [r3, #-16]	@ zero_extendqisi2
 288 0040 FFF7FEFF 		bl	Display2_PutChar
 289              	.LVL28:
 290              	.L21:
 135:.\LCD.c       **** 		if(lcd==1){            
 291              		.loc 1 135 0 discriminator 2
 292 0044 0134     		adds	r4, r4, #1
 293              	.LVL29:
 294 0046 E4B2     		uxtb	r4, r4
 295              	.LVL30:
 296              	.L19:
 135:.\LCD.c       **** 		if(lcd==1){            
 297              		.loc 1 135 0 is_stmt 0 discriminator 1
 298 0048 0D2C     		cmp	r4, #13
 299 004a ECD9     		bls	.L22
 141:.\LCD.c       **** 		}	
 142:.\LCD.c       **** 	}	
 143:.\LCD.c       ****     CyDelay(100);
 300              		.loc 1 143 0 is_stmt 1
 301 004c 6420     		movs	r0, #100
 302 004e FFF7FEFF 		bl	CyDelay
 303              	.LVL31:
 144:.\LCD.c       ****     
 145:.\LCD.c       **** }
 304              		.loc 1 145 0
 305 0052 04B0     		add	sp, sp, #16
ARM GAS  C:\Users\RECEPC~1\AppData\Local\Temp\cc75V9D8.s 			page 9


 306              		.cfi_def_cfa_offset 16
 307              		@ sp needed
 308 0054 70BD     		pop	{r4, r5, r6, pc}
 309              	.LVL32:
 310              	.L25:
 311 0056 00BF     		.align	2
 312              	.L24:
 313 0058 00000000 		.word	.LANCHOR0
 314              		.cfi_endproc
 315              	.LFE65:
 316              		.size	ShowRectangle, .-ShowRectangle
 317              		.section	.text.ShowMessage,"ax",%progbits
 318              		.align	2
 319              		.global	ShowMessage
 320              		.thumb
 321              		.thumb_func
 322              		.type	ShowMessage, %function
 323              	ShowMessage:
 324              	.LFB66:
 146:.\LCD.c       **** 
 147:.\LCD.c       **** 
 148:.\LCD.c       **** 
 149:.\LCD.c       **** /*
 150:.\LCD.c       **** ***************************************************************************************************
 151:.\LCD.c       **** *                             void ShowMessage(uint8 lcd,uint8 *msg)
 152:.\LCD.c       **** *
 153:.\LCD.c       **** * Description : 
 154:.\LCD.c       **** *               
 155:.\LCD.c       **** *
 156:.\LCD.c       **** * Argument(s) : none
 157:.\LCD.c       **** *
 158:.\LCD.c       **** * Return(s)   : none
 159:.\LCD.c       **** *
 160:.\LCD.c       **** * Caller(s)   :  
 161:.\LCD.c       **** *
 162:.\LCD.c       **** * Note(s)     : none.
 163:.\LCD.c       **** ***************************************************************************************************
 164:.\LCD.c       **** */
 165:.\LCD.c       **** 
 166:.\LCD.c       **** void ShowMessage(uint8 lcd,uint8 *msg,uint8 posx){
 325              		.loc 1 166 0
 326              		.cfi_startproc
 327              		@ args = 0, pretend = 0, frame = 0
 328              		@ frame_needed = 0, uses_anonymous_args = 0
 329              	.LVL33:
 330 0000 F0B5     		push	{r4, r5, r6, r7, lr}
 331              		.cfi_def_cfa_offset 20
 332              		.cfi_offset 4, -20
 333              		.cfi_offset 5, -16
 334              		.cfi_offset 6, -12
 335              		.cfi_offset 7, -8
 336              		.cfi_offset 14, -4
 337 0002 85B0     		sub	sp, sp, #20
 338              		.cfi_def_cfa_offset 40
 339 0004 0746     		mov	r7, r0
 340 0006 0E46     		mov	r6, r1
 341 0008 1546     		mov	r5, r2
ARM GAS  C:\Users\RECEPC~1\AppData\Local\Temp\cc75V9D8.s 			page 10


 342              	.LVL34:
 167:.\LCD.c       ****     uint8 x;
 168:.\LCD.c       ****     for(x=0;x<10;x++){
 343              		.loc 1 168 0
 344 000a 0024     		movs	r4, #0
 345 000c 0DE0     		b	.L27
 346              	.LVL35:
 347              	.L28:
 169:.\LCD.c       ****         WriteLCD(lcd,msg[x],31,posx + x,1,0x0000,'N');
 348              		.loc 1 169 0 discriminator 3
 349 000e 315D     		ldrb	r1, [r6, r4]	@ zero_extendqisi2
 350 0010 0123     		movs	r3, #1
 351 0012 0093     		str	r3, [sp]
 352 0014 0023     		movs	r3, #0
 353 0016 0193     		str	r3, [sp, #4]
 354 0018 4E23     		movs	r3, #78
 355 001a 0293     		str	r3, [sp, #8]
 356 001c 3846     		mov	r0, r7
 357 001e 1F22     		movs	r2, #31
 358 0020 2B19     		adds	r3, r5, r4
 359 0022 FFF7FEFF 		bl	WriteLCD
 360              	.LVL36:
 168:.\LCD.c       ****         WriteLCD(lcd,msg[x],31,posx + x,1,0x0000,'N');
 361              		.loc 1 168 0 discriminator 3
 362 0026 0134     		adds	r4, r4, #1
 363              	.LVL37:
 364 0028 E4B2     		uxtb	r4, r4
 365              	.LVL38:
 366              	.L27:
 168:.\LCD.c       ****         WriteLCD(lcd,msg[x],31,posx + x,1,0x0000,'N');
 367              		.loc 1 168 0 is_stmt 0 discriminator 1
 368 002a 092C     		cmp	r4, #9
 369 002c EFD9     		bls	.L28
 170:.\LCD.c       ****     }
 171:.\LCD.c       **** }
 370              		.loc 1 171 0 is_stmt 1
 371 002e 05B0     		add	sp, sp, #20
 372              		.cfi_def_cfa_offset 20
 373              		@ sp needed
 374 0030 F0BD     		pop	{r4, r5, r6, r7, pc}
 375              		.cfi_endproc
 376              	.LFE66:
 377              		.size	ShowMessage, .-ShowMessage
 378              		.comm	side,1024,4
 379              		.comm	bufferDisplay4,661,4
 380              		.comm	bufferDisplay3,661,4
 381              		.comm	bufferDisplay2,661,4
 382              		.comm	bufferDisplay1,661,4
 383              		.comm	NumPositions,1,1
 384              		.comm	statePump,4,4
 385              		.comm	DDMode,1,1
 386              		.comm	PPUDec,1,1
 387              		.comm	VolDec,1,1
 388              		.comm	MoneyDec,1,1
 389              		.comm	ConversionFactor,1,1
 390              		.comm	UnitType,1,1
 391              		.comm	PrevStatePump,4,4
ARM GAS  C:\Users\RECEPC~1\AppData\Local\Temp\cc75V9D8.s 			page 11


 392              		.comm	stateBeagleSoft,1,1
 393              		.comm	flagResetMux,1,1
 394              		.comm	passwordSeller,8,4
 395              		.comm	typeIdSeller,1,1
 396              		.comm	idSeller,25,4
 397              		.comm	lockTurn,1,1
 398              		.comm	turn,1,1
 399              		.comm	temporalCom,30,4
 400              		.comm	temporal,30,4
 401              		.comm	residue,14,4
 402              		.comm	screen,2,4
 403              		.comm	date,3,4
 404              		.comm	time,3,4
 405              		.comm	symbols,2,4
 406              		.comm	decimalVolume,1,1
 407              		.comm	decimalMoney,1,1
 408              		.comm	ppux10,1,1
 409              		.comm	delayPicture2,4,4
 410              		.comm	delayPicture1,4,4
 411              		.comm	presetFast,30,4
 412              		.comm	productNumber,1,1
 413              		.comm	button,960,4
 414              		.comm	flagPoint2,1,1
 415              		.comm	flagPoint1,1,1
 416              		.comm	numberKeys2,1,1
 417              		.comm	numberKeys1,1,1
 418              		.comm	ipAdress,12,4
 419              		.comm	digits,1,1
 420              		.comm	flowDisplay2,4,4
 421              		.comm	flowDisplay1,4,4
 422              		.comm	countPump,8,8
 423              		.comm	countBeagleTX,8,8
 424              		.comm	countAnimation2,8,8
 425              		.comm	countAnimation1,8,8
 426 0032 00BF     		.section	.rodata
 427              		.align	2
 428              		.set	.LANCHOR0,. + 0
 429              	.LC0:
 430 0000 AA       		.byte	-86
 431 0001 70       		.byte	112
 432 0002 00       		.byte	0
 433 0003 00       		.byte	0
 434 0004 CC       		.byte	-52
 435 0005 33       		.byte	51
 436 0006 C3       		.byte	-61
 437 0007 3C       		.byte	60
 438              	.LC1:
 439 0008 AA       		.byte	-86
 440 0009 98       		.byte	-104
 441 000a 00       		.byte	0
 442 000b 00       		.byte	0
 443 000c 01       		.byte	1
 444 000d 39       		.byte	57
 445 000e 22       		.byte	34
 446 000f C5       		.byte	-59
 447 0010 03       		.byte	3
 448 0011 00       		.byte	0
ARM GAS  C:\Users\RECEPC~1\AppData\Local\Temp\cc75V9D8.s 			page 12


 449 0012 00       		.byte	0
 450 0013 FF       		.byte	-1
 451 0014 FF       		.byte	-1
 452 0015 00       		.byte	0
 453 0016 CC       		.byte	-52
 454 0017 33       		.byte	51
 455 0018 C3       		.byte	-61
 456 0019 3C       		.byte	60
 457 001a 0000     		.space	2
 458              	.LC2:
 459 001c AA       		.byte	-86
 460 001d 5C       		.byte	92
 461 001e 00       		.byte	0
 462 001f 20       		.byte	32
 463 0020 00       		.byte	0
 464 0021 20       		.byte	32
 465 0022 00       		.byte	0
 466 0023 30       		.byte	48
 467 0024 00       		.byte	0
 468 0025 30       		.byte	48
 469 0026 CC       		.byte	-52
 470 0027 33       		.byte	51
 471 0028 C3       		.byte	-61
 472 0029 3C       		.byte	60
 473 002a 0000     		.text
 474              	.Letext0:
 475              		.file 2 "c:\\program files (x86)\\cypress\\psoc creator\\3.3\\psoc creator\\import\\gnu\\arm\\4.9.
 476              		.file 3 "c:\\program files (x86)\\cypress\\psoc creator\\3.3\\psoc creator\\import\\gnu\\arm\\4.9.
 477              		.file 4 "Generated_Source\\PSoC5/cytypes.h"
 478              		.file 5 ".\\variables.h"
 479              		.file 6 "Generated_Source\\PSoC5/core_cm3.h"
 480              		.file 7 "Generated_Source\\PSoC5/Display1.h"
 481              		.file 8 "Generated_Source\\PSoC5/Display2.h"
 482              		.file 9 "Generated_Source\\PSoC5/CyLib.h"
 483              		.section	.debug_info,"",%progbits
 484              	.Ldebug_info0:
 485 0000 DB0B0000 		.4byte	0xbdb
 486 0004 0400     		.2byte	0x4
 487 0006 00000000 		.4byte	.Ldebug_abbrev0
 488 000a 04       		.byte	0x4
 489 000b 01       		.uleb128 0x1
 490 000c 94050000 		.4byte	.LASF145
 491 0010 01       		.byte	0x1
 492 0011 2A000000 		.4byte	.LASF146
 493 0015 53060000 		.4byte	.LASF147
 494 0019 00000000 		.4byte	.Ldebug_ranges0+0
 495 001d 00000000 		.4byte	0
 496 0021 00000000 		.4byte	.Ldebug_line0
 497 0025 02       		.uleb128 0x2
 498 0026 01       		.byte	0x1
 499 0027 06       		.byte	0x6
 500 0028 D9060000 		.4byte	.LASF0
 501 002c 03       		.uleb128 0x3
 502 002d AD040000 		.4byte	.LASF3
 503 0031 02       		.byte	0x2
 504 0032 1D       		.byte	0x1d
 505 0033 37000000 		.4byte	0x37
ARM GAS  C:\Users\RECEPC~1\AppData\Local\Temp\cc75V9D8.s 			page 13


 506 0037 02       		.uleb128 0x2
 507 0038 01       		.byte	0x1
 508 0039 08       		.byte	0x8
 509 003a 86050000 		.4byte	.LASF1
 510 003e 02       		.uleb128 0x2
 511 003f 02       		.byte	0x2
 512 0040 05       		.byte	0x5
 513 0041 3C040000 		.4byte	.LASF2
 514 0045 03       		.uleb128 0x3
 515 0046 5F010000 		.4byte	.LASF4
 516 004a 02       		.byte	0x2
 517 004b 2B       		.byte	0x2b
 518 004c 50000000 		.4byte	0x50
 519 0050 02       		.uleb128 0x2
 520 0051 02       		.byte	0x2
 521 0052 07       		.byte	0x7
 522 0053 E5060000 		.4byte	.LASF5
 523 0057 03       		.uleb128 0x3
 524 0058 81000000 		.4byte	.LASF6
 525 005c 02       		.byte	0x2
 526 005d 3F       		.byte	0x3f
 527 005e 62000000 		.4byte	0x62
 528 0062 02       		.uleb128 0x2
 529 0063 04       		.byte	0x4
 530 0064 05       		.byte	0x5
 531 0065 46040000 		.4byte	.LASF7
 532 0069 02       		.uleb128 0x2
 533 006a 04       		.byte	0x4
 534 006b 07       		.byte	0x7
 535 006c 15050000 		.4byte	.LASF8
 536 0070 02       		.uleb128 0x2
 537 0071 08       		.byte	0x8
 538 0072 05       		.byte	0x5
 539 0073 F8020000 		.4byte	.LASF9
 540 0077 02       		.uleb128 0x2
 541 0078 08       		.byte	0x8
 542 0079 07       		.byte	0x7
 543 007a 2B010000 		.4byte	.LASF10
 544 007e 04       		.uleb128 0x4
 545 007f 04       		.byte	0x4
 546 0080 05       		.byte	0x5
 547 0081 696E7400 		.ascii	"int\000"
 548 0085 02       		.uleb128 0x2
 549 0086 04       		.byte	0x4
 550 0087 07       		.byte	0x7
 551 0088 5B000000 		.4byte	.LASF11
 552 008c 03       		.uleb128 0x3
 553 008d 96020000 		.4byte	.LASF12
 554 0091 03       		.byte	0x3
 555 0092 15       		.byte	0x15
 556 0093 2C000000 		.4byte	0x2c
 557 0097 03       		.uleb128 0x3
 558 0098 CA030000 		.4byte	.LASF13
 559 009c 03       		.byte	0x3
 560 009d 21       		.byte	0x21
 561 009e 45000000 		.4byte	0x45
 562 00a2 03       		.uleb128 0x3
ARM GAS  C:\Users\RECEPC~1\AppData\Local\Temp\cc75V9D8.s 			page 14


 563 00a3 4D050000 		.4byte	.LASF14
 564 00a7 03       		.byte	0x3
 565 00a8 2C       		.byte	0x2c
 566 00a9 57000000 		.4byte	0x57
 567 00ad 05       		.uleb128 0x5
 568 00ae 0E070000 		.4byte	.LASF15
 569 00b2 04       		.byte	0x4
 570 00b3 3801     		.2byte	0x138
 571 00b5 37000000 		.4byte	0x37
 572 00b9 05       		.uleb128 0x5
 573 00ba 73020000 		.4byte	.LASF16
 574 00be 04       		.byte	0x4
 575 00bf 3901     		.2byte	0x139
 576 00c1 50000000 		.4byte	0x50
 577 00c5 05       		.uleb128 0x5
 578 00c6 95030000 		.4byte	.LASF17
 579 00ca 04       		.byte	0x4
 580 00cb 3A01     		.2byte	0x13a
 581 00cd 69000000 		.4byte	0x69
 582 00d1 02       		.uleb128 0x2
 583 00d2 04       		.byte	0x4
 584 00d3 04       		.byte	0x4
 585 00d4 EF000000 		.4byte	.LASF18
 586 00d8 02       		.uleb128 0x2
 587 00d9 08       		.byte	0x8
 588 00da 04       		.byte	0x4
 589 00db 14070000 		.4byte	.LASF19
 590 00df 05       		.uleb128 0x5
 591 00e0 E0040000 		.4byte	.LASF20
 592 00e4 04       		.byte	0x4
 593 00e5 4401     		.2byte	0x144
 594 00e7 77000000 		.4byte	0x77
 595 00eb 02       		.uleb128 0x2
 596 00ec 01       		.byte	0x1
 597 00ed 08       		.byte	0x8
 598 00ee 37020000 		.4byte	.LASF21
 599 00f2 06       		.uleb128 0x6
 600 00f3 AD000000 		.4byte	0xad
 601 00f7 06       		.uleb128 0x6
 602 00f8 C5000000 		.4byte	0xc5
 603 00fc 02       		.uleb128 0x2
 604 00fd 04       		.byte	0x4
 605 00fe 07       		.byte	0x7
 606 00ff 0C050000 		.4byte	.LASF22
 607 0103 07       		.uleb128 0x7
 608 0104 AD000000 		.4byte	0xad
 609 0108 13010000 		.4byte	0x113
 610 010c 08       		.uleb128 0x8
 611 010d FC000000 		.4byte	0xfc
 612 0111 03       		.byte	0x3
 613 0112 00       		.byte	0
 614 0113 09       		.uleb128 0x9
 615 0114 32000000 		.4byte	.LASF73
 616 0118 9502     		.2byte	0x295
 617 011a 05       		.byte	0x5
 618 011b 5C       		.byte	0x5c
 619 011c 8F030000 		.4byte	0x38f
ARM GAS  C:\Users\RECEPC~1\AppData\Local\Temp\cc75V9D8.s 			page 15


 620 0120 0A       		.uleb128 0xa
 621 0121 A2000000 		.4byte	.LASF23
 622 0125 05       		.byte	0x5
 623 0126 5D       		.byte	0x5d
 624 0127 AD000000 		.4byte	0xad
 625 012b 00       		.byte	0
 626 012c 0A       		.uleb128 0xa
 627 012d 9F010000 		.4byte	.LASF24
 628 0131 05       		.byte	0x5
 629 0132 5E       		.byte	0x5e
 630 0133 8F030000 		.4byte	0x38f
 631 0137 01       		.byte	0x1
 632 0138 0A       		.uleb128 0xa
 633 0139 AA020000 		.4byte	.LASF25
 634 013d 05       		.byte	0x5
 635 013e 5F       		.byte	0x5f
 636 013f 8F030000 		.4byte	0x38f
 637 0143 1A       		.byte	0x1a
 638 0144 0A       		.uleb128 0xa
 639 0145 2C070000 		.4byte	.LASF26
 640 0149 05       		.byte	0x5
 641 014a 60       		.byte	0x60
 642 014b AD000000 		.4byte	0xad
 643 014f 33       		.byte	0x33
 644 0150 0A       		.uleb128 0xa
 645 0151 74050000 		.4byte	.LASF27
 646 0155 05       		.byte	0x5
 647 0156 61       		.byte	0x61
 648 0157 AD000000 		.4byte	0xad
 649 015b 34       		.byte	0x34
 650 015c 0A       		.uleb128 0xa
 651 015d B5000000 		.4byte	.LASF28
 652 0161 05       		.byte	0x5
 653 0162 62       		.byte	0x62
 654 0163 9F030000 		.4byte	0x39f
 655 0167 35       		.byte	0x35
 656 0168 0A       		.uleb128 0xa
 657 0169 09040000 		.4byte	.LASF29
 658 016d 05       		.byte	0x5
 659 016e 63       		.byte	0x63
 660 016f 9F030000 		.4byte	0x39f
 661 0173 3F       		.byte	0x3f
 662 0174 0A       		.uleb128 0xa
 663 0175 52070000 		.4byte	.LASF30
 664 0179 05       		.byte	0x5
 665 017a 64       		.byte	0x64
 666 017b 8F030000 		.4byte	0x38f
 667 017f 49       		.byte	0x49
 668 0180 0A       		.uleb128 0xa
 669 0181 D3030000 		.4byte	.LASF31
 670 0185 05       		.byte	0x5
 671 0186 65       		.byte	0x65
 672 0187 AD000000 		.4byte	0xad
 673 018b 62       		.byte	0x62
 674 018c 0A       		.uleb128 0xa
 675 018d 22060000 		.4byte	.LASF32
 676 0191 05       		.byte	0x5
ARM GAS  C:\Users\RECEPC~1\AppData\Local\Temp\cc75V9D8.s 			page 16


 677 0192 66       		.byte	0x66
 678 0193 AD000000 		.4byte	0xad
 679 0197 63       		.byte	0x63
 680 0198 0A       		.uleb128 0xa
 681 0199 2D020000 		.4byte	.LASF33
 682 019d 05       		.byte	0x5
 683 019e 67       		.byte	0x67
 684 019f AF030000 		.4byte	0x3af
 685 01a3 64       		.byte	0x64
 686 01a4 0A       		.uleb128 0xa
 687 01a5 77030000 		.4byte	.LASF34
 688 01a9 05       		.byte	0x5
 689 01aa 68       		.byte	0x68
 690 01ab AD000000 		.4byte	0xad
 691 01af 79       		.byte	0x79
 692 01b0 0A       		.uleb128 0xa
 693 01b1 24020000 		.4byte	.LASF35
 694 01b5 05       		.byte	0x5
 695 01b6 69       		.byte	0x69
 696 01b7 AD000000 		.4byte	0xad
 697 01bb 7A       		.byte	0x7a
 698 01bc 0A       		.uleb128 0xa
 699 01bd 4F000000 		.4byte	.LASF36
 700 01c1 05       		.byte	0x5
 701 01c2 6A       		.byte	0x6a
 702 01c3 AD000000 		.4byte	0xad
 703 01c7 7B       		.byte	0x7b
 704 01c8 0A       		.uleb128 0xa
 705 01c9 A9060000 		.4byte	.LASF37
 706 01cd 05       		.byte	0x5
 707 01ce 6B       		.byte	0x6b
 708 01cf BF030000 		.4byte	0x3bf
 709 01d3 7C       		.byte	0x7c
 710 01d4 0A       		.uleb128 0xa
 711 01d5 08020000 		.4byte	.LASF38
 712 01d9 05       		.byte	0x5
 713 01da 6C       		.byte	0x6c
 714 01db CF030000 		.4byte	0x3cf
 715 01df 7E       		.byte	0x7e
 716 01e0 0A       		.uleb128 0xa
 717 01e1 76010000 		.4byte	.LASF39
 718 01e5 05       		.byte	0x5
 719 01e6 6D       		.byte	0x6d
 720 01e7 AD000000 		.4byte	0xad
 721 01eb 92       		.byte	0x92
 722 01ec 0A       		.uleb128 0xa
 723 01ed 03050000 		.4byte	.LASF40
 724 01f1 05       		.byte	0x5
 725 01f2 6E       		.byte	0x6e
 726 01f3 E5030000 		.4byte	0x3e5
 727 01f7 93       		.byte	0x93
 728 01f8 0A       		.uleb128 0xa
 729 01f9 71040000 		.4byte	.LASF41
 730 01fd 05       		.byte	0x5
 731 01fe 6F       		.byte	0x6f
 732 01ff F5030000 		.4byte	0x3f5
 733 0203 98       		.byte	0x98
ARM GAS  C:\Users\RECEPC~1\AppData\Local\Temp\cc75V9D8.s 			page 17


 734 0204 0A       		.uleb128 0xa
 735 0205 90010000 		.4byte	.LASF42
 736 0209 05       		.byte	0x5
 737 020a 70       		.byte	0x70
 738 020b F5030000 		.4byte	0x3f5
 739 020f 9E       		.byte	0x9e
 740 0210 0A       		.uleb128 0xa
 741 0211 35070000 		.4byte	.LASF43
 742 0215 05       		.byte	0x5
 743 0216 71       		.byte	0x71
 744 0217 F5030000 		.4byte	0x3f5
 745 021b A4       		.byte	0xa4
 746 021c 0A       		.uleb128 0xa
 747 021d 68030000 		.4byte	.LASF44
 748 0221 05       		.byte	0x5
 749 0222 72       		.byte	0x72
 750 0223 F5030000 		.4byte	0x3f5
 751 0227 AA       		.byte	0xaa
 752 0228 0A       		.uleb128 0xa
 753 0229 EB030000 		.4byte	.LASF45
 754 022d 05       		.byte	0x5
 755 022e 73       		.byte	0x73
 756 022f 05040000 		.4byte	0x405
 757 0233 B0       		.byte	0xb0
 758 0234 0A       		.uleb128 0xa
 759 0235 4B010000 		.4byte	.LASF46
 760 0239 05       		.byte	0x5
 761 023a 74       		.byte	0x74
 762 023b 05040000 		.4byte	0x405
 763 023f BE       		.byte	0xbe
 764 0240 0A       		.uleb128 0xa
 765 0241 3B030000 		.4byte	.LASF47
 766 0245 05       		.byte	0x5
 767 0246 75       		.byte	0x75
 768 0247 05040000 		.4byte	0x405
 769 024b CC       		.byte	0xcc
 770 024c 0A       		.uleb128 0xa
 771 024d BF020000 		.4byte	.LASF48
 772 0251 05       		.byte	0x5
 773 0252 76       		.byte	0x76
 774 0253 05040000 		.4byte	0x405
 775 0257 DA       		.byte	0xda
 776 0258 0A       		.uleb128 0xa
 777 0259 C6040000 		.4byte	.LASF49
 778 025d 05       		.byte	0x5
 779 025e 77       		.byte	0x77
 780 025f 05040000 		.4byte	0x405
 781 0263 E8       		.byte	0xe8
 782 0264 0A       		.uleb128 0xa
 783 0265 BC030000 		.4byte	.LASF50
 784 0269 05       		.byte	0x5
 785 026a 78       		.byte	0x78
 786 026b 05040000 		.4byte	0x405
 787 026f F6       		.byte	0xf6
 788 0270 0B       		.uleb128 0xb
 789 0271 23040000 		.4byte	.LASF51
 790 0275 05       		.byte	0x5
ARM GAS  C:\Users\RECEPC~1\AppData\Local\Temp\cc75V9D8.s 			page 18


 791 0276 79       		.byte	0x79
 792 0277 15040000 		.4byte	0x415
 793 027b 0401     		.2byte	0x104
 794 027d 0B       		.uleb128 0xb
 795 027e A8010000 		.4byte	.LASF52
 796 0282 05       		.byte	0x5
 797 0283 7A       		.byte	0x7a
 798 0284 15040000 		.4byte	0x415
 799 0288 0F01     		.2byte	0x10f
 800 028a 0B       		.uleb128 0xb
 801 028b 19020000 		.4byte	.LASF53
 802 028f 05       		.byte	0x5
 803 0290 7B       		.byte	0x7b
 804 0291 15040000 		.4byte	0x415
 805 0295 1A01     		.2byte	0x11a
 806 0297 0B       		.uleb128 0xb
 807 0298 83030000 		.4byte	.LASF54
 808 029c 05       		.byte	0x5
 809 029d 7C       		.byte	0x7c
 810 029e AD000000 		.4byte	0xad
 811 02a2 2501     		.2byte	0x125
 812 02a4 0B       		.uleb128 0xb
 813 02a5 9E020000 		.4byte	.LASF55
 814 02a9 05       		.byte	0x5
 815 02aa 7D       		.byte	0x7d
 816 02ab AD000000 		.4byte	0xad
 817 02af 2601     		.2byte	0x126
 818 02b1 0B       		.uleb128 0xb
 819 02b2 8B000000 		.4byte	.LASF56
 820 02b6 05       		.byte	0x5
 821 02b7 7E       		.byte	0x7e
 822 02b8 AD000000 		.4byte	0xad
 823 02bc 2701     		.2byte	0x127
 824 02be 0B       		.uleb128 0xb
 825 02bf 65040000 		.4byte	.LASF57
 826 02c3 05       		.byte	0x5
 827 02c4 7F       		.byte	0x7f
 828 02c5 AD000000 		.4byte	0xad
 829 02c9 2801     		.2byte	0x128
 830 02cb 0B       		.uleb128 0xb
 831 02cc 22000000 		.4byte	.LASF58
 832 02d0 05       		.byte	0x5
 833 02d1 80       		.byte	0x80
 834 02d2 25040000 		.4byte	0x425
 835 02d6 2901     		.2byte	0x129
 836 02d8 0B       		.uleb128 0xb
 837 02d9 CF020000 		.4byte	.LASF59
 838 02dd 05       		.byte	0x5
 839 02de 81       		.byte	0x81
 840 02df 9F030000 		.4byte	0x39f
 841 02e3 6A01     		.2byte	0x16a
 842 02e5 0B       		.uleb128 0xb
 843 02e6 E3000000 		.4byte	.LASF60
 844 02ea 05       		.byte	0x5
 845 02eb 82       		.byte	0x82
 846 02ec 9F030000 		.4byte	0x39f
 847 02f0 7401     		.2byte	0x174
ARM GAS  C:\Users\RECEPC~1\AppData\Local\Temp\cc75V9D8.s 			page 19


 848 02f2 0B       		.uleb128 0xb
 849 02f3 B6020000 		.4byte	.LASF61
 850 02f7 05       		.byte	0x5
 851 02f8 83       		.byte	0x83
 852 02f9 9F030000 		.4byte	0x39f
 853 02fd 7E01     		.2byte	0x17e
 854 02ff 0B       		.uleb128 0xb
 855 0300 EE010000 		.4byte	.LASF62
 856 0304 05       		.byte	0x5
 857 0305 84       		.byte	0x84
 858 0306 35040000 		.4byte	0x435
 859 030a 8801     		.2byte	0x188
 860 030c 0B       		.uleb128 0xb
 861 030d 73000000 		.4byte	.LASF63
 862 0311 05       		.byte	0x5
 863 0312 85       		.byte	0x85
 864 0313 35040000 		.4byte	0x435
 865 0317 D301     		.2byte	0x1d3
 866 0319 0B       		.uleb128 0xb
 867 031a C2000000 		.4byte	.LASF64
 868 031e 05       		.byte	0x5
 869 031f 86       		.byte	0x86
 870 0320 4B040000 		.4byte	0x44b
 871 0324 1E02     		.2byte	0x21e
 872 0326 0B       		.uleb128 0xb
 873 0327 61050000 		.4byte	.LASF65
 874 032b 05       		.byte	0x5
 875 032c 87       		.byte	0x87
 876 032d 4B040000 		.4byte	0x44b
 877 0331 2D02     		.2byte	0x22d
 878 0333 0B       		.uleb128 0xb
 879 0334 34060000 		.4byte	.LASF66
 880 0338 05       		.byte	0x5
 881 0339 88       		.byte	0x88
 882 033a 61040000 		.4byte	0x461
 883 033e 3C02     		.2byte	0x23c
 884 0340 0B       		.uleb128 0xb
 885 0341 BE060000 		.4byte	.LASF67
 886 0345 05       		.byte	0x5
 887 0346 89       		.byte	0x89
 888 0347 61040000 		.4byte	0x461
 889 034b 5A02     		.2byte	0x25a
 890 034d 0B       		.uleb128 0xb
 891 034e 5C030000 		.4byte	.LASF68
 892 0352 05       		.byte	0x5
 893 0353 8A       		.byte	0x8a
 894 0354 9F030000 		.4byte	0x39f
 895 0358 7802     		.2byte	0x278
 896 035a 0B       		.uleb128 0xb
 897 035b 3B050000 		.4byte	.LASF69
 898 035f 05       		.byte	0x5
 899 0360 8B       		.byte	0x8b
 900 0361 AD000000 		.4byte	0xad
 901 0365 8202     		.2byte	0x282
 902 0367 0B       		.uleb128 0xb
 903 0368 2F040000 		.4byte	.LASF70
 904 036c 05       		.byte	0x5
ARM GAS  C:\Users\RECEPC~1\AppData\Local\Temp\cc75V9D8.s 			page 20


 905 036d 8C       		.byte	0x8c
 906 036e 77040000 		.4byte	0x477
 907 0372 8302     		.2byte	0x283
 908 0374 0B       		.uleb128 0xb
 909 0375 DA020000 		.4byte	.LASF71
 910 0379 05       		.byte	0x5
 911 037a 8D       		.byte	0x8d
 912 037b BF030000 		.4byte	0x3bf
 913 037f 9202     		.2byte	0x292
 914 0381 0B       		.uleb128 0xb
 915 0382 B4010000 		.4byte	.LASF72
 916 0386 05       		.byte	0x5
 917 0387 8E       		.byte	0x8e
 918 0388 AD000000 		.4byte	0xad
 919 038c 9402     		.2byte	0x294
 920 038e 00       		.byte	0
 921 038f 07       		.uleb128 0x7
 922 0390 AD000000 		.4byte	0xad
 923 0394 9F030000 		.4byte	0x39f
 924 0398 08       		.uleb128 0x8
 925 0399 FC000000 		.4byte	0xfc
 926 039d 18       		.byte	0x18
 927 039e 00       		.byte	0
 928 039f 07       		.uleb128 0x7
 929 03a0 AD000000 		.4byte	0xad
 930 03a4 AF030000 		.4byte	0x3af
 931 03a8 08       		.uleb128 0x8
 932 03a9 FC000000 		.4byte	0xfc
 933 03ad 09       		.byte	0x9
 934 03ae 00       		.byte	0
 935 03af 07       		.uleb128 0x7
 936 03b0 AD000000 		.4byte	0xad
 937 03b4 BF030000 		.4byte	0x3bf
 938 03b8 08       		.uleb128 0x8
 939 03b9 FC000000 		.4byte	0xfc
 940 03bd 14       		.byte	0x14
 941 03be 00       		.byte	0
 942 03bf 07       		.uleb128 0x7
 943 03c0 AD000000 		.4byte	0xad
 944 03c4 CF030000 		.4byte	0x3cf
 945 03c8 08       		.uleb128 0x8
 946 03c9 FC000000 		.4byte	0xfc
 947 03cd 01       		.byte	0x1
 948 03ce 00       		.byte	0
 949 03cf 07       		.uleb128 0x7
 950 03d0 AD000000 		.4byte	0xad
 951 03d4 E5030000 		.4byte	0x3e5
 952 03d8 08       		.uleb128 0x8
 953 03d9 FC000000 		.4byte	0xfc
 954 03dd 01       		.byte	0x1
 955 03de 08       		.uleb128 0x8
 956 03df FC000000 		.4byte	0xfc
 957 03e3 09       		.byte	0x9
 958 03e4 00       		.byte	0
 959 03e5 07       		.uleb128 0x7
 960 03e6 AD000000 		.4byte	0xad
 961 03ea F5030000 		.4byte	0x3f5
ARM GAS  C:\Users\RECEPC~1\AppData\Local\Temp\cc75V9D8.s 			page 21


 962 03ee 08       		.uleb128 0x8
 963 03ef FC000000 		.4byte	0xfc
 964 03f3 04       		.byte	0x4
 965 03f4 00       		.byte	0
 966 03f5 07       		.uleb128 0x7
 967 03f6 AD000000 		.4byte	0xad
 968 03fa 05040000 		.4byte	0x405
 969 03fe 08       		.uleb128 0x8
 970 03ff FC000000 		.4byte	0xfc
 971 0403 05       		.byte	0x5
 972 0404 00       		.byte	0
 973 0405 07       		.uleb128 0x7
 974 0406 AD000000 		.4byte	0xad
 975 040a 15040000 		.4byte	0x415
 976 040e 08       		.uleb128 0x8
 977 040f FC000000 		.4byte	0xfc
 978 0413 0D       		.byte	0xd
 979 0414 00       		.byte	0
 980 0415 07       		.uleb128 0x7
 981 0416 AD000000 		.4byte	0xad
 982 041a 25040000 		.4byte	0x425
 983 041e 08       		.uleb128 0x8
 984 041f FC000000 		.4byte	0xfc
 985 0423 0A       		.byte	0xa
 986 0424 00       		.byte	0
 987 0425 07       		.uleb128 0x7
 988 0426 AD000000 		.4byte	0xad
 989 042a 35040000 		.4byte	0x435
 990 042e 08       		.uleb128 0x8
 991 042f FC000000 		.4byte	0xfc
 992 0433 40       		.byte	0x40
 993 0434 00       		.byte	0
 994 0435 07       		.uleb128 0x7
 995 0436 AD000000 		.4byte	0xad
 996 043a 4B040000 		.4byte	0x44b
 997 043e 08       		.uleb128 0x8
 998 043f FC000000 		.4byte	0xfc
 999 0443 02       		.byte	0x2
 1000 0444 08       		.uleb128 0x8
 1001 0445 FC000000 		.4byte	0xfc
 1002 0449 18       		.byte	0x18
 1003 044a 00       		.byte	0
 1004 044b 07       		.uleb128 0x7
 1005 044c AD000000 		.4byte	0xad
 1006 0450 61040000 		.4byte	0x461
 1007 0454 08       		.uleb128 0x8
 1008 0455 FC000000 		.4byte	0xfc
 1009 0459 02       		.byte	0x2
 1010 045a 08       		.uleb128 0x8
 1011 045b FC000000 		.4byte	0xfc
 1012 045f 04       		.byte	0x4
 1013 0460 00       		.byte	0
 1014 0461 07       		.uleb128 0x7
 1015 0462 AD000000 		.4byte	0xad
 1016 0466 77040000 		.4byte	0x477
 1017 046a 08       		.uleb128 0x8
 1018 046b FC000000 		.4byte	0xfc
ARM GAS  C:\Users\RECEPC~1\AppData\Local\Temp\cc75V9D8.s 			page 22


 1019 046f 02       		.byte	0x2
 1020 0470 08       		.uleb128 0x8
 1021 0471 FC000000 		.4byte	0xfc
 1022 0475 09       		.byte	0x9
 1023 0476 00       		.byte	0
 1024 0477 07       		.uleb128 0x7
 1025 0478 AD000000 		.4byte	0xad
 1026 047c 87040000 		.4byte	0x487
 1027 0480 08       		.uleb128 0x8
 1028 0481 FC000000 		.4byte	0xfc
 1029 0485 0E       		.byte	0xe
 1030 0486 00       		.byte	0
 1031 0487 09       		.uleb128 0x9
 1032 0488 65070000 		.4byte	.LASF74
 1033 048c 0001     		.2byte	0x100
 1034 048e 05       		.byte	0x5
 1035 048f 9F       		.byte	0x9f
 1036 0490 E9040000 		.4byte	0x4e9
 1037 0494 0C       		.uleb128 0xc
 1038 0495 64697200 		.ascii	"dir\000"
 1039 0499 05       		.byte	0x5
 1040 049a A0       		.byte	0xa0
 1041 049b AD000000 		.4byte	0xad
 1042 049f 00       		.byte	0
 1043 04a0 0A       		.uleb128 0xa
 1044 04a1 FB010000 		.4byte	.LASF75
 1045 04a5 05       		.byte	0x5
 1046 04a6 A1       		.byte	0xa1
 1047 04a7 E9040000 		.4byte	0x4e9
 1048 04ab 01       		.byte	0x1
 1049 04ac 0A       		.uleb128 0xa
 1050 04ad 44070000 		.4byte	.LASF76
 1051 04b1 05       		.byte	0x5
 1052 04b2 A2       		.byte	0xa2
 1053 04b3 05050000 		.4byte	0x505
 1054 04b7 B5       		.byte	0xb5
 1055 04b8 0A       		.uleb128 0xa
 1056 04b9 EE020000 		.4byte	.LASF77
 1057 04bd 05       		.byte	0x5
 1058 04be A3       		.byte	0xa3
 1059 04bf 05040000 		.4byte	0x405
 1060 04c3 D5       		.byte	0xd5
 1061 04c4 0A       		.uleb128 0xa
 1062 04c5 CE060000 		.4byte	.LASF78
 1063 04c9 05       		.byte	0x5
 1064 04ca A4       		.byte	0xa4
 1065 04cb 05040000 		.4byte	0x405
 1066 04cf E3       		.byte	0xe3
 1067 04d0 0A       		.uleb128 0xa
 1068 04d1 06030000 		.4byte	.LASF79
 1069 04d5 05       		.byte	0x5
 1070 04d6 A5       		.byte	0xa5
 1071 04d7 05040000 		.4byte	0x405
 1072 04db F1       		.byte	0xf1
 1073 04dc 0A       		.uleb128 0xa
 1074 04dd 02070000 		.4byte	.LASF80
 1075 04e1 05       		.byte	0x5
ARM GAS  C:\Users\RECEPC~1\AppData\Local\Temp\cc75V9D8.s 			page 23


 1076 04e2 A6       		.byte	0xa6
 1077 04e3 AD000000 		.4byte	0xad
 1078 04e7 FF       		.byte	0xff
 1079 04e8 00       		.byte	0
 1080 04e9 07       		.uleb128 0x7
 1081 04ea AD000000 		.4byte	0xad
 1082 04ee 05050000 		.4byte	0x505
 1083 04f2 08       		.uleb128 0x8
 1084 04f3 FC000000 		.4byte	0xfc
 1085 04f7 03       		.byte	0x3
 1086 04f8 08       		.uleb128 0x8
 1087 04f9 FC000000 		.4byte	0xfc
 1088 04fd 02       		.byte	0x2
 1089 04fe 08       		.uleb128 0x8
 1090 04ff FC000000 		.4byte	0xfc
 1091 0503 0E       		.byte	0xe
 1092 0504 00       		.byte	0
 1093 0505 07       		.uleb128 0x7
 1094 0506 AD000000 		.4byte	0xad
 1095 050a 1B050000 		.4byte	0x51b
 1096 050e 08       		.uleb128 0x8
 1097 050f FC000000 		.4byte	0xfc
 1098 0513 03       		.byte	0x3
 1099 0514 08       		.uleb128 0x8
 1100 0515 FC000000 		.4byte	0xfc
 1101 0519 07       		.byte	0x7
 1102 051a 00       		.byte	0
 1103 051b 09       		.uleb128 0x9
 1104 051c 4E060000 		.4byte	.LASF81
 1105 0520 0004     		.2byte	0x400
 1106 0522 05       		.byte	0x5
 1107 0523 A9       		.byte	0xa9
 1108 0524 54050000 		.4byte	0x554
 1109 0528 0C       		.uleb128 0xc
 1110 0529 6100     		.ascii	"a\000"
 1111 052b 05       		.byte	0x5
 1112 052c AA       		.byte	0xaa
 1113 052d 87040000 		.4byte	0x487
 1114 0531 00       		.byte	0
 1115 0532 0D       		.uleb128 0xd
 1116 0533 6200     		.ascii	"b\000"
 1117 0535 05       		.byte	0x5
 1118 0536 AB       		.byte	0xab
 1119 0537 87040000 		.4byte	0x487
 1120 053b 0001     		.2byte	0x100
 1121 053d 0D       		.uleb128 0xd
 1122 053e 6300     		.ascii	"c\000"
 1123 0540 05       		.byte	0x5
 1124 0541 AC       		.byte	0xac
 1125 0542 87040000 		.4byte	0x487
 1126 0546 0002     		.2byte	0x200
 1127 0548 0D       		.uleb128 0xd
 1128 0549 6400     		.ascii	"d\000"
 1129 054b 05       		.byte	0x5
 1130 054c AD       		.byte	0xad
 1131 054d 87040000 		.4byte	0x487
 1132 0551 0003     		.2byte	0x300
ARM GAS  C:\Users\RECEPC~1\AppData\Local\Temp\cc75V9D8.s 			page 24


 1133 0553 00       		.byte	0
 1134 0554 0E       		.uleb128 0xe
 1135 0555 B1030000 		.4byte	.LASF83
 1136 0559 01       		.byte	0x1
 1137 055a 3C       		.byte	0x3c
 1138 055b 00000000 		.4byte	.LFB63
 1139 055f 50000000 		.4byte	.LFE63-.LFB63
 1140 0563 01       		.uleb128 0x1
 1141 0564 9C       		.byte	0x9c
 1142 0565 D5050000 		.4byte	0x5d5
 1143 0569 0F       		.uleb128 0xf
 1144 056a 6C636400 		.ascii	"lcd\000"
 1145 056e 01       		.byte	0x1
 1146 056f 3C       		.byte	0x3c
 1147 0570 AD000000 		.4byte	0xad
 1148 0574 00000000 		.4byte	.LLST0
 1149 0578 10       		.uleb128 0x10
 1150 0579 A9030000 		.4byte	.LASF82
 1151 057d 01       		.byte	0x1
 1152 057e 3C       		.byte	0x3c
 1153 057f B9000000 		.4byte	0xb9
 1154 0583 21000000 		.4byte	.LLST1
 1155 0587 11       		.uleb128 0x11
 1156 0588 32000000 		.4byte	.LASF73
 1157 058c 01       		.byte	0x1
 1158 058d 3D       		.byte	0x3d
 1159 058e D5050000 		.4byte	0x5d5
 1160 0592 02       		.uleb128 0x2
 1161 0593 91       		.byte	0x91
 1162 0594 68       		.sleb128 -24
 1163 0595 12       		.uleb128 0x12
 1164 0596 7800     		.ascii	"x\000"
 1165 0598 01       		.byte	0x1
 1166 0599 3D       		.byte	0x3d
 1167 059a AD000000 		.4byte	0xad
 1168 059e 42000000 		.4byte	.LLST2
 1169 05a2 13       		.uleb128 0x13
 1170 05a3 30000000 		.4byte	.LVL5
 1171 05a7 AF0B0000 		.4byte	0xbaf
 1172 05ab BD050000 		.4byte	0x5bd
 1173 05af 14       		.uleb128 0x14
 1174 05b0 01       		.uleb128 0x1
 1175 05b1 50       		.byte	0x50
 1176 05b2 09       		.uleb128 0x9
 1177 05b3 91       		.byte	0x91
 1178 05b4 00       		.sleb128 0
 1179 05b5 74       		.byte	0x74
 1180 05b6 00       		.sleb128 0
 1181 05b7 22       		.byte	0x22
 1182 05b8 48       		.byte	0x48
 1183 05b9 1C       		.byte	0x1c
 1184 05ba 94       		.byte	0x94
 1185 05bb 01       		.byte	0x1
 1186 05bc 00       		.byte	0
 1187 05bd 15       		.uleb128 0x15
 1188 05be 3E000000 		.4byte	.LVL6
 1189 05c2 C00B0000 		.4byte	0xbc0
ARM GAS  C:\Users\RECEPC~1\AppData\Local\Temp\cc75V9D8.s 			page 25


 1190 05c6 14       		.uleb128 0x14
 1191 05c7 01       		.uleb128 0x1
 1192 05c8 50       		.byte	0x50
 1193 05c9 09       		.uleb128 0x9
 1194 05ca 91       		.byte	0x91
 1195 05cb 00       		.sleb128 0
 1196 05cc 74       		.byte	0x74
 1197 05cd 00       		.sleb128 0
 1198 05ce 22       		.byte	0x22
 1199 05cf 48       		.byte	0x48
 1200 05d0 1C       		.byte	0x1c
 1201 05d1 94       		.byte	0x94
 1202 05d2 01       		.byte	0x1
 1203 05d3 00       		.byte	0
 1204 05d4 00       		.byte	0
 1205 05d5 07       		.uleb128 0x7
 1206 05d6 AD000000 		.4byte	0xad
 1207 05da E5050000 		.4byte	0x5e5
 1208 05de 08       		.uleb128 0x8
 1209 05df FC000000 		.4byte	0xfc
 1210 05e3 07       		.byte	0x7
 1211 05e4 00       		.byte	0
 1212 05e5 0E       		.uleb128 0xe
 1213 05e6 42010000 		.4byte	.LASF84
 1214 05ea 01       		.byte	0x1
 1215 05eb 5A       		.byte	0x5a
 1216 05ec 00000000 		.4byte	.LFB64
 1217 05f0 C8000000 		.4byte	.LFE64-.LFB64
 1218 05f4 01       		.uleb128 0x1
 1219 05f5 9C       		.byte	0x9c
 1220 05f6 B3060000 		.4byte	0x6b3
 1221 05fa 0F       		.uleb128 0xf
 1222 05fb 6C636400 		.ascii	"lcd\000"
 1223 05ff 01       		.byte	0x1
 1224 0600 5A       		.byte	0x5a
 1225 0601 8C000000 		.4byte	0x8c
 1226 0605 6C000000 		.4byte	.LLST3
 1227 0609 10       		.uleb128 0x10
 1228 060a 7A020000 		.4byte	.LASF85
 1229 060e 01       		.byte	0x1
 1230 060f 5A       		.byte	0x5a
 1231 0610 8C000000 		.4byte	0x8c
 1232 0614 8D000000 		.4byte	.LLST4
 1233 0618 10       		.uleb128 0x10
 1234 0619 B9060000 		.4byte	.LASF86
 1235 061d 01       		.byte	0x1
 1236 061e 5A       		.byte	0x5a
 1237 061f 97000000 		.4byte	0x97
 1238 0623 AE000000 		.4byte	.LLST5
 1239 0627 10       		.uleb128 0x10
 1240 0628 B4060000 		.4byte	.LASF87
 1241 062c 01       		.byte	0x1
 1242 062d 5A       		.byte	0x5a
 1243 062e 97000000 		.4byte	0x97
 1244 0632 CF000000 		.4byte	.LLST6
 1245 0636 10       		.uleb128 0x10
 1246 0637 90030000 		.4byte	.LASF88
ARM GAS  C:\Users\RECEPC~1\AppData\Local\Temp\cc75V9D8.s 			page 26


 1247 063b 01       		.byte	0x1
 1248 063c 5A       		.byte	0x5a
 1249 063d 8C000000 		.4byte	0x8c
 1250 0641 F0000000 		.4byte	.LLST7
 1251 0645 10       		.uleb128 0x10
 1252 0646 84020000 		.4byte	.LASF89
 1253 064a 01       		.byte	0x1
 1254 064b 5A       		.byte	0x5a
 1255 064c 97000000 		.4byte	0x97
 1256 0650 10010000 		.4byte	.LLST8
 1257 0654 10       		.uleb128 0x10
 1258 0655 C2010000 		.4byte	.LASF90
 1259 0659 01       		.byte	0x1
 1260 065a 5A       		.byte	0x5a
 1261 065b 8C000000 		.4byte	0x8c
 1262 065f 30010000 		.4byte	.LLST9
 1263 0663 11       		.uleb128 0x11
 1264 0664 32000000 		.4byte	.LASF73
 1265 0668 01       		.byte	0x1
 1266 0669 5B       		.byte	0x5b
 1267 066a B3060000 		.4byte	0x6b3
 1268 066e 02       		.uleb128 0x2
 1269 066f 91       		.byte	0x91
 1270 0670 4C       		.sleb128 -52
 1271 0671 12       		.uleb128 0x12
 1272 0672 7800     		.ascii	"x\000"
 1273 0674 01       		.byte	0x1
 1274 0675 5B       		.byte	0x5b
 1275 0676 8C000000 		.4byte	0x8c
 1276 067a 50010000 		.4byte	.LLST10
 1277 067e 13       		.uleb128 0x13
 1278 067f A8000000 		.4byte	.LVL17
 1279 0683 AF0B0000 		.4byte	0xbaf
 1280 0687 9A060000 		.4byte	0x69a
 1281 068b 14       		.uleb128 0x14
 1282 068c 01       		.uleb128 0x1
 1283 068d 50       		.byte	0x50
 1284 068e 0A       		.uleb128 0xa
 1285 068f 91       		.byte	0x91
 1286 0690 00       		.sleb128 0
 1287 0691 74       		.byte	0x74
 1288 0692 00       		.sleb128 0
 1289 0693 22       		.byte	0x22
 1290 0694 08       		.byte	0x8
 1291 0695 34       		.byte	0x34
 1292 0696 1C       		.byte	0x1c
 1293 0697 94       		.byte	0x94
 1294 0698 01       		.byte	0x1
 1295 0699 00       		.byte	0
 1296 069a 15       		.uleb128 0x15
 1297 069b B6000000 		.4byte	.LVL18
 1298 069f C00B0000 		.4byte	0xbc0
 1299 06a3 14       		.uleb128 0x14
 1300 06a4 01       		.uleb128 0x1
 1301 06a5 50       		.byte	0x50
 1302 06a6 0A       		.uleb128 0xa
 1303 06a7 91       		.byte	0x91
ARM GAS  C:\Users\RECEPC~1\AppData\Local\Temp\cc75V9D8.s 			page 27


 1304 06a8 00       		.sleb128 0
 1305 06a9 74       		.byte	0x74
 1306 06aa 00       		.sleb128 0
 1307 06ab 22       		.byte	0x22
 1308 06ac 08       		.byte	0x8
 1309 06ad 34       		.byte	0x34
 1310 06ae 1C       		.byte	0x1c
 1311 06af 94       		.byte	0x94
 1312 06b0 01       		.byte	0x1
 1313 06b1 00       		.byte	0
 1314 06b2 00       		.byte	0
 1315 06b3 07       		.uleb128 0x7
 1316 06b4 8C000000 		.4byte	0x8c
 1317 06b8 C3060000 		.4byte	0x6c3
 1318 06bc 08       		.uleb128 0x8
 1319 06bd FC000000 		.4byte	0xfc
 1320 06c1 11       		.byte	0x11
 1321 06c2 00       		.byte	0
 1322 06c3 0E       		.uleb128 0xe
 1323 06c4 F5000000 		.4byte	.LASF91
 1324 06c8 01       		.byte	0x1
 1325 06c9 83       		.byte	0x83
 1326 06ca 00000000 		.4byte	.LFB65
 1327 06ce 5C000000 		.4byte	.LFE65-.LFB65
 1328 06d2 01       		.uleb128 0x1
 1329 06d3 9C       		.byte	0x9c
 1330 06d4 5A070000 		.4byte	0x75a
 1331 06d8 0F       		.uleb128 0xf
 1332 06d9 6C636400 		.ascii	"lcd\000"
 1333 06dd 01       		.byte	0x1
 1334 06de 83       		.byte	0x83
 1335 06df AD000000 		.4byte	0xad
 1336 06e3 7A010000 		.4byte	.LLST11
 1337 06e7 10       		.uleb128 0x10
 1338 06e8 68000000 		.4byte	.LASF92
 1339 06ec 01       		.byte	0x1
 1340 06ed 83       		.byte	0x83
 1341 06ee AD000000 		.4byte	0xad
 1342 06f2 9B010000 		.4byte	.LLST12
 1343 06f6 11       		.uleb128 0x11
 1344 06f7 32000000 		.4byte	.LASF73
 1345 06fb 01       		.byte	0x1
 1346 06fc 84       		.byte	0x84
 1347 06fd 5A070000 		.4byte	0x75a
 1348 0701 02       		.uleb128 0x2
 1349 0702 91       		.byte	0x91
 1350 0703 60       		.sleb128 -32
 1351 0704 12       		.uleb128 0x12
 1352 0705 7800     		.ascii	"x\000"
 1353 0707 01       		.byte	0x1
 1354 0708 84       		.byte	0x84
 1355 0709 8C000000 		.4byte	0x8c
 1356 070d BC010000 		.4byte	.LLST13
 1357 0711 13       		.uleb128 0x13
 1358 0712 36000000 		.4byte	.LVL27
 1359 0716 AF0B0000 		.4byte	0xbaf
 1360 071a 2D070000 		.4byte	0x72d
ARM GAS  C:\Users\RECEPC~1\AppData\Local\Temp\cc75V9D8.s 			page 28


 1361 071e 14       		.uleb128 0x14
 1362 071f 01       		.uleb128 0x1
 1363 0720 50       		.byte	0x50
 1364 0721 0A       		.uleb128 0xa
 1365 0722 91       		.byte	0x91
 1366 0723 00       		.sleb128 0
 1367 0724 74       		.byte	0x74
 1368 0725 00       		.sleb128 0
 1369 0726 22       		.byte	0x22
 1370 0727 08       		.byte	0x8
 1371 0728 20       		.byte	0x20
 1372 0729 1C       		.byte	0x1c
 1373 072a 94       		.byte	0x94
 1374 072b 01       		.byte	0x1
 1375 072c 00       		.byte	0
 1376 072d 13       		.uleb128 0x13
 1377 072e 44000000 		.4byte	.LVL28
 1378 0732 C00B0000 		.4byte	0xbc0
 1379 0736 49070000 		.4byte	0x749
 1380 073a 14       		.uleb128 0x14
 1381 073b 01       		.uleb128 0x1
 1382 073c 50       		.byte	0x50
 1383 073d 0A       		.uleb128 0xa
 1384 073e 91       		.byte	0x91
 1385 073f 00       		.sleb128 0
 1386 0740 74       		.byte	0x74
 1387 0741 00       		.sleb128 0
 1388 0742 22       		.byte	0x22
 1389 0743 08       		.byte	0x8
 1390 0744 20       		.byte	0x20
 1391 0745 1C       		.byte	0x1c
 1392 0746 94       		.byte	0x94
 1393 0747 01       		.byte	0x1
 1394 0748 00       		.byte	0
 1395 0749 15       		.uleb128 0x15
 1396 074a 52000000 		.4byte	.LVL31
 1397 074e D10B0000 		.4byte	0xbd1
 1398 0752 14       		.uleb128 0x14
 1399 0753 01       		.uleb128 0x1
 1400 0754 50       		.byte	0x50
 1401 0755 02       		.uleb128 0x2
 1402 0756 08       		.byte	0x8
 1403 0757 64       		.byte	0x64
 1404 0758 00       		.byte	0
 1405 0759 00       		.byte	0
 1406 075a 07       		.uleb128 0x7
 1407 075b 8C000000 		.4byte	0x8c
 1408 075f 6A070000 		.4byte	0x76a
 1409 0763 08       		.uleb128 0x8
 1410 0764 FC000000 		.4byte	0xfc
 1411 0768 0D       		.byte	0xd
 1412 0769 00       		.byte	0
 1413 076a 0E       		.uleb128 0xe
 1414 076b 55050000 		.4byte	.LASF93
 1415 076f 01       		.byte	0x1
 1416 0770 A6       		.byte	0xa6
 1417 0771 00000000 		.4byte	.LFB66
ARM GAS  C:\Users\RECEPC~1\AppData\Local\Temp\cc75V9D8.s 			page 29


 1418 0775 32000000 		.4byte	.LFE66-.LFB66
 1419 0779 01       		.uleb128 0x1
 1420 077a 9C       		.byte	0x9c
 1421 077b EB070000 		.4byte	0x7eb
 1422 077f 0F       		.uleb128 0xf
 1423 0780 6C636400 		.ascii	"lcd\000"
 1424 0784 01       		.byte	0x1
 1425 0785 A6       		.byte	0xa6
 1426 0786 AD000000 		.4byte	0xad
 1427 078a E6010000 		.4byte	.LLST14
 1428 078e 0F       		.uleb128 0xf
 1429 078f 6D736700 		.ascii	"msg\000"
 1430 0793 01       		.byte	0x1
 1431 0794 A6       		.byte	0xa6
 1432 0795 EB070000 		.4byte	0x7eb
 1433 0799 07020000 		.4byte	.LLST15
 1434 079d 10       		.uleb128 0x10
 1435 079e B4060000 		.4byte	.LASF87
 1436 07a2 01       		.byte	0x1
 1437 07a3 A6       		.byte	0xa6
 1438 07a4 AD000000 		.4byte	0xad
 1439 07a8 25020000 		.4byte	.LLST16
 1440 07ac 12       		.uleb128 0x12
 1441 07ad 7800     		.ascii	"x\000"
 1442 07af 01       		.byte	0x1
 1443 07b0 A7       		.byte	0xa7
 1444 07b1 AD000000 		.4byte	0xad
 1445 07b5 46020000 		.4byte	.LLST17
 1446 07b9 15       		.uleb128 0x15
 1447 07ba 26000000 		.4byte	.LVL36
 1448 07be E5050000 		.4byte	0x5e5
 1449 07c2 14       		.uleb128 0x14
 1450 07c3 01       		.uleb128 0x1
 1451 07c4 53       		.byte	0x53
 1452 07c5 05       		.uleb128 0x5
 1453 07c6 75       		.byte	0x75
 1454 07c7 00       		.sleb128 0
 1455 07c8 74       		.byte	0x74
 1456 07c9 00       		.sleb128 0
 1457 07ca 22       		.byte	0x22
 1458 07cb 14       		.uleb128 0x14
 1459 07cc 01       		.uleb128 0x1
 1460 07cd 52       		.byte	0x52
 1461 07ce 01       		.uleb128 0x1
 1462 07cf 4F       		.byte	0x4f
 1463 07d0 14       		.uleb128 0x14
 1464 07d1 01       		.uleb128 0x1
 1465 07d2 50       		.byte	0x50
 1466 07d3 02       		.uleb128 0x2
 1467 07d4 77       		.byte	0x77
 1468 07d5 00       		.sleb128 0
 1469 07d6 14       		.uleb128 0x14
 1470 07d7 02       		.uleb128 0x2
 1471 07d8 7D       		.byte	0x7d
 1472 07d9 08       		.sleb128 8
 1473 07da 02       		.uleb128 0x2
 1474 07db 08       		.byte	0x8
ARM GAS  C:\Users\RECEPC~1\AppData\Local\Temp\cc75V9D8.s 			page 30


 1475 07dc 4E       		.byte	0x4e
 1476 07dd 14       		.uleb128 0x14
 1477 07de 02       		.uleb128 0x2
 1478 07df 7D       		.byte	0x7d
 1479 07e0 04       		.sleb128 4
 1480 07e1 01       		.uleb128 0x1
 1481 07e2 30       		.byte	0x30
 1482 07e3 14       		.uleb128 0x14
 1483 07e4 02       		.uleb128 0x2
 1484 07e5 7D       		.byte	0x7d
 1485 07e6 00       		.sleb128 0
 1486 07e7 01       		.uleb128 0x1
 1487 07e8 31       		.byte	0x31
 1488 07e9 00       		.byte	0
 1489 07ea 00       		.byte	0
 1490 07eb 16       		.uleb128 0x16
 1491 07ec 04       		.byte	0x4
 1492 07ed AD000000 		.4byte	0xad
 1493 07f1 17       		.uleb128 0x17
 1494 07f2 4F040000 		.4byte	.LASF94
 1495 07f6 06       		.byte	0x6
 1496 07f7 5506     		.2byte	0x655
 1497 07f9 FD070000 		.4byte	0x7fd
 1498 07fd 06       		.uleb128 0x6
 1499 07fe A2000000 		.4byte	0xa2
 1500 0802 18       		.uleb128 0x18
 1501 0803 0E030000 		.4byte	.LASF95
 1502 0807 05       		.byte	0x5
 1503 0808 2C       		.byte	0x2c
 1504 0809 13080000 		.4byte	0x813
 1505 080d 05       		.uleb128 0x5
 1506 080e 03       		.byte	0x3
 1507 080f 00000000 		.4byte	countAnimation1
 1508 0813 06       		.uleb128 0x6
 1509 0814 DF000000 		.4byte	0xdf
 1510 0818 18       		.uleb128 0x18
 1511 0819 4C030000 		.4byte	.LASF96
 1512 081d 05       		.byte	0x5
 1513 081e 2D       		.byte	0x2d
 1514 081f 13080000 		.4byte	0x813
 1515 0823 05       		.uleb128 0x5
 1516 0824 03       		.byte	0x3
 1517 0825 00000000 		.4byte	countAnimation2
 1518 0829 18       		.uleb128 0x18
 1519 082a 65020000 		.4byte	.LASF97
 1520 082e 05       		.byte	0x5
 1521 082f 2E       		.byte	0x2e
 1522 0830 13080000 		.4byte	0x813
 1523 0834 05       		.uleb128 0x5
 1524 0835 03       		.byte	0x3
 1525 0836 00000000 		.4byte	countBeagleTX
 1526 083a 18       		.uleb128 0x18
 1527 083b F8060000 		.4byte	.LASF98
 1528 083f 05       		.byte	0x5
 1529 0840 2F       		.byte	0x2f
 1530 0841 13080000 		.4byte	0x813
 1531 0845 05       		.uleb128 0x5
ARM GAS  C:\Users\RECEPC~1\AppData\Local\Temp\cc75V9D8.s 			page 31


 1532 0846 03       		.byte	0x3
 1533 0847 00000000 		.4byte	countPump
 1534 084b 18       		.uleb128 0x18
 1535 084c D4010000 		.4byte	.LASF99
 1536 0850 05       		.byte	0x5
 1537 0851 30       		.byte	0x30
 1538 0852 F7000000 		.4byte	0xf7
 1539 0856 05       		.uleb128 0x5
 1540 0857 03       		.byte	0x3
 1541 0858 00000000 		.4byte	flowDisplay1
 1542 085c 18       		.uleb128 0x18
 1543 085d E1010000 		.4byte	.LASF100
 1544 0861 05       		.byte	0x5
 1545 0862 31       		.byte	0x31
 1546 0863 F7000000 		.4byte	0xf7
 1547 0867 05       		.uleb128 0x5
 1548 0868 03       		.byte	0x3
 1549 0869 00000000 		.4byte	flowDisplay2
 1550 086d 18       		.uleb128 0x18
 1551 086e 6A010000 		.4byte	.LASF101
 1552 0872 05       		.byte	0x5
 1553 0873 32       		.byte	0x32
 1554 0874 F2000000 		.4byte	0xf2
 1555 0878 05       		.uleb128 0x5
 1556 0879 03       		.byte	0x3
 1557 087a 00000000 		.4byte	digits
 1558 087e 07       		.uleb128 0x7
 1559 087f AD000000 		.4byte	0xad
 1560 0883 8E080000 		.4byte	0x88e
 1561 0887 08       		.uleb128 0x8
 1562 0888 FC000000 		.4byte	0xfc
 1563 088c 0B       		.byte	0xb
 1564 088d 00       		.byte	0
 1565 088e 18       		.uleb128 0x18
 1566 088f 39000000 		.4byte	.LASF102
 1567 0893 05       		.byte	0x5
 1568 0894 33       		.byte	0x33
 1569 0895 9F080000 		.4byte	0x89f
 1570 0899 05       		.uleb128 0x5
 1571 089a 03       		.byte	0x3
 1572 089b 00000000 		.4byte	ipAdress
 1573 089f 06       		.uleb128 0x6
 1574 08a0 7E080000 		.4byte	0x87e
 1575 08a4 18       		.uleb128 0x18
 1576 08a5 4D020000 		.4byte	.LASF103
 1577 08a9 05       		.byte	0x5
 1578 08aa 34       		.byte	0x34
 1579 08ab F2000000 		.4byte	0xf2
 1580 08af 05       		.uleb128 0x5
 1581 08b0 03       		.byte	0x3
 1582 08b1 00000000 		.4byte	numberKeys1
 1583 08b5 18       		.uleb128 0x18
 1584 08b6 59020000 		.4byte	.LASF104
 1585 08ba 05       		.byte	0x5
 1586 08bb 35       		.byte	0x35
 1587 08bc F2000000 		.4byte	0xf2
 1588 08c0 05       		.uleb128 0x5
ARM GAS  C:\Users\RECEPC~1\AppData\Local\Temp\cc75V9D8.s 			page 32


 1589 08c1 03       		.byte	0x3
 1590 08c2 00000000 		.4byte	numberKeys2
 1591 08c6 18       		.uleb128 0x18
 1592 08c7 FE030000 		.4byte	.LASF105
 1593 08cb 05       		.byte	0x5
 1594 08cc 36       		.byte	0x36
 1595 08cd F2000000 		.4byte	0xf2
 1596 08d1 05       		.uleb128 0x5
 1597 08d2 03       		.byte	0x3
 1598 08d3 00000000 		.4byte	flagPoint1
 1599 08d7 18       		.uleb128 0x18
 1600 08d8 D1000000 		.4byte	.LASF106
 1601 08dc 05       		.byte	0x5
 1602 08dd 37       		.byte	0x37
 1603 08de F2000000 		.4byte	0xf2
 1604 08e2 05       		.uleb128 0x5
 1605 08e3 03       		.byte	0x3
 1606 08e4 00000000 		.4byte	flagPoint2
 1607 08e8 07       		.uleb128 0x7
 1608 08e9 AD000000 		.4byte	0xad
 1609 08ed FE080000 		.4byte	0x8fe
 1610 08f1 08       		.uleb128 0x8
 1611 08f2 FC000000 		.4byte	0xfc
 1612 08f6 77       		.byte	0x77
 1613 08f7 08       		.uleb128 0x8
 1614 08f8 FC000000 		.4byte	0xfc
 1615 08fc 07       		.byte	0x7
 1616 08fd 00       		.byte	0
 1617 08fe 18       		.uleb128 0x18
 1618 08ff CD010000 		.4byte	.LASF107
 1619 0903 05       		.byte	0x5
 1620 0904 38       		.byte	0x38
 1621 0905 0F090000 		.4byte	0x90f
 1622 0909 05       		.uleb128 0x5
 1623 090a 03       		.byte	0x3
 1624 090b 00000000 		.4byte	button
 1625 090f 06       		.uleb128 0x6
 1626 0910 E8080000 		.4byte	0x8e8
 1627 0914 18       		.uleb128 0x18
 1628 0915 82010000 		.4byte	.LASF108
 1629 0919 05       		.byte	0x5
 1630 091a 39       		.byte	0x39
 1631 091b F2000000 		.4byte	0xf2
 1632 091f 05       		.uleb128 0x5
 1633 0920 03       		.byte	0x3
 1634 0921 00000000 		.4byte	productNumber
 1635 0925 18       		.uleb128 0x18
 1636 0926 E3020000 		.4byte	.LASF109
 1637 092a 05       		.byte	0x5
 1638 092b 3A       		.byte	0x3a
 1639 092c 61040000 		.4byte	0x461
 1640 0930 05       		.uleb128 0x5
 1641 0931 03       		.byte	0x3
 1642 0932 00000000 		.4byte	presetFast
 1643 0936 18       		.uleb128 0x18
 1644 0937 E7040000 		.4byte	.LASF110
 1645 093b 05       		.byte	0x5
ARM GAS  C:\Users\RECEPC~1\AppData\Local\Temp\cc75V9D8.s 			page 33


 1646 093c 3B       		.byte	0x3b
 1647 093d F7000000 		.4byte	0xf7
 1648 0941 05       		.uleb128 0x5
 1649 0942 03       		.byte	0x3
 1650 0943 00000000 		.4byte	delayPicture1
 1651 0947 18       		.uleb128 0x18
 1652 0948 F5040000 		.4byte	.LASF111
 1653 094c 05       		.byte	0x5
 1654 094d 3C       		.byte	0x3c
 1655 094e F7000000 		.4byte	0xf7
 1656 0952 05       		.uleb128 0x5
 1657 0953 03       		.byte	0x3
 1658 0954 00000000 		.4byte	delayPicture2
 1659 0958 18       		.uleb128 0x18
 1660 0959 E4030000 		.4byte	.LASF112
 1661 095d 05       		.byte	0x5
 1662 095e 3D       		.byte	0x3d
 1663 095f F2000000 		.4byte	0xf2
 1664 0963 05       		.uleb128 0x5
 1665 0964 03       		.byte	0x3
 1666 0965 00000000 		.4byte	ppux10
 1667 0969 18       		.uleb128 0x18
 1668 096a 42000000 		.4byte	.LASF113
 1669 096e 05       		.byte	0x5
 1670 096f 3E       		.byte	0x3e
 1671 0970 F2000000 		.4byte	0xf2
 1672 0974 05       		.uleb128 0x5
 1673 0975 03       		.byte	0x3
 1674 0976 00000000 		.4byte	decimalMoney
 1675 097a 18       		.uleb128 0x18
 1676 097b 08000000 		.4byte	.LASF114
 1677 097f 05       		.byte	0x5
 1678 0980 3F       		.byte	0x3f
 1679 0981 F2000000 		.4byte	0xf2
 1680 0985 05       		.uleb128 0x5
 1681 0986 03       		.byte	0x3
 1682 0987 00000000 		.4byte	decimalVolume
 1683 098b 18       		.uleb128 0x18
 1684 098c 1B040000 		.4byte	.LASF115
 1685 0990 05       		.byte	0x5
 1686 0991 40       		.byte	0x40
 1687 0992 9C090000 		.4byte	0x99c
 1688 0996 05       		.uleb128 0x5
 1689 0997 03       		.byte	0x3
 1690 0998 00000000 		.4byte	symbols
 1691 099c 06       		.uleb128 0x6
 1692 099d BF030000 		.4byte	0x3bf
 1693 09a1 07       		.uleb128 0x7
 1694 09a2 AD000000 		.4byte	0xad
 1695 09a6 B1090000 		.4byte	0x9b1
 1696 09aa 08       		.uleb128 0x8
 1697 09ab FC000000 		.4byte	0xfc
 1698 09af 02       		.byte	0x2
 1699 09b0 00       		.byte	0
 1700 09b1 18       		.uleb128 0x18
 1701 09b2 71010000 		.4byte	.LASF116
 1702 09b6 05       		.byte	0x5
ARM GAS  C:\Users\RECEPC~1\AppData\Local\Temp\cc75V9D8.s 			page 34


 1703 09b7 41       		.byte	0x41
 1704 09b8 C2090000 		.4byte	0x9c2
 1705 09bc 05       		.uleb128 0x5
 1706 09bd 03       		.byte	0x3
 1707 09be 00000000 		.4byte	time
 1708 09c2 06       		.uleb128 0x6
 1709 09c3 A1090000 		.4byte	0x9a1
 1710 09c7 18       		.uleb128 0x18
 1711 09c8 7F020000 		.4byte	.LASF117
 1712 09cc 05       		.byte	0x5
 1713 09cd 42       		.byte	0x42
 1714 09ce D8090000 		.4byte	0x9d8
 1715 09d2 05       		.uleb128 0x5
 1716 09d3 03       		.byte	0x3
 1717 09d4 00000000 		.4byte	date
 1718 09d8 06       		.uleb128 0x6
 1719 09d9 A1090000 		.4byte	0x9a1
 1720 09dd 18       		.uleb128 0x18
 1721 09de DC000000 		.4byte	.LASF118
 1722 09e2 05       		.byte	0x5
 1723 09e3 43       		.byte	0x43
 1724 09e4 EE090000 		.4byte	0x9ee
 1725 09e8 05       		.uleb128 0x5
 1726 09e9 03       		.byte	0x3
 1727 09ea 00000000 		.4byte	screen
 1728 09ee 06       		.uleb128 0x6
 1729 09ef BF030000 		.4byte	0x3bf
 1730 09f3 18       		.uleb128 0x18
 1731 09f4 9A000000 		.4byte	.LASF119
 1732 09f8 05       		.byte	0x5
 1733 09f9 44       		.byte	0x44
 1734 09fa 040A0000 		.4byte	0xa04
 1735 09fe 05       		.uleb128 0x5
 1736 09ff 03       		.byte	0x3
 1737 0a00 00000000 		.4byte	residue
 1738 0a04 06       		.uleb128 0x6
 1739 0a05 05040000 		.4byte	0x405
 1740 0a09 07       		.uleb128 0x7
 1741 0a0a AD000000 		.4byte	0xad
 1742 0a0e 190A0000 		.4byte	0xa19
 1743 0a12 08       		.uleb128 0x8
 1744 0a13 FC000000 		.4byte	0xfc
 1745 0a17 1D       		.byte	0x1d
 1746 0a18 00       		.byte	0
 1747 0a19 18       		.uleb128 0x18
 1748 0a1a 99060000 		.4byte	.LASF120
 1749 0a1e 05       		.byte	0x5
 1750 0a1f 45       		.byte	0x45
 1751 0a20 090A0000 		.4byte	0xa09
 1752 0a24 05       		.uleb128 0x5
 1753 0a25 03       		.byte	0x3
 1754 0a26 00000000 		.4byte	temporal
 1755 0a2a 18       		.uleb128 0x18
 1756 0a2b 16000000 		.4byte	.LASF121
 1757 0a2f 05       		.byte	0x5
 1758 0a30 46       		.byte	0x46
 1759 0a31 090A0000 		.4byte	0xa09
ARM GAS  C:\Users\RECEPC~1\AppData\Local\Temp\cc75V9D8.s 			page 35


 1760 0a35 05       		.uleb128 0x5
 1761 0a36 03       		.byte	0x3
 1762 0a37 00000000 		.4byte	temporalCom
 1763 0a3b 18       		.uleb128 0x18
 1764 0a3c 14020000 		.4byte	.LASF122
 1765 0a40 05       		.byte	0x5
 1766 0a41 47       		.byte	0x47
 1767 0a42 F2000000 		.4byte	0xf2
 1768 0a46 05       		.uleb128 0x5
 1769 0a47 03       		.byte	0x3
 1770 0a48 00000000 		.4byte	turn
 1771 0a4c 18       		.uleb128 0x18
 1772 0a4d 5C040000 		.4byte	.LASF123
 1773 0a51 05       		.byte	0x5
 1774 0a52 48       		.byte	0x48
 1775 0a53 F2000000 		.4byte	0xf2
 1776 0a57 05       		.uleb128 0x5
 1777 0a58 03       		.byte	0x3
 1778 0a59 00000000 		.4byte	lockTurn
 1779 0a5d 18       		.uleb128 0x18
 1780 0a5e 45060000 		.4byte	.LASF124
 1781 0a62 05       		.byte	0x5
 1782 0a63 49       		.byte	0x49
 1783 0a64 6E0A0000 		.4byte	0xa6e
 1784 0a68 05       		.uleb128 0x5
 1785 0a69 03       		.byte	0x3
 1786 0a6a 00000000 		.4byte	idSeller
 1787 0a6e 06       		.uleb128 0x6
 1788 0a6f 8F030000 		.4byte	0x38f
 1789 0a73 18       		.uleb128 0x18
 1790 0a74 2E050000 		.4byte	.LASF125
 1791 0a78 05       		.byte	0x5
 1792 0a79 4A       		.byte	0x4a
 1793 0a7a F2000000 		.4byte	0xf2
 1794 0a7e 05       		.uleb128 0x5
 1795 0a7f 03       		.byte	0x3
 1796 0a80 00000000 		.4byte	typeIdSeller
 1797 0a84 18       		.uleb128 0x18
 1798 0a85 B7040000 		.4byte	.LASF126
 1799 0a89 05       		.byte	0x5
 1800 0a8a 4B       		.byte	0x4b
 1801 0a8b 950A0000 		.4byte	0xa95
 1802 0a8f 05       		.uleb128 0x5
 1803 0a90 03       		.byte	0x3
 1804 0a91 00000000 		.4byte	passwordSeller
 1805 0a95 06       		.uleb128 0x6
 1806 0a96 D5050000 		.4byte	0x5d5
 1807 0a9a 18       		.uleb128 0x18
 1808 0a9b 9C030000 		.4byte	.LASF127
 1809 0a9f 05       		.byte	0x5
 1810 0aa0 4C       		.byte	0x4c
 1811 0aa1 F2000000 		.4byte	0xf2
 1812 0aa5 05       		.uleb128 0x5
 1813 0aa6 03       		.byte	0x3
 1814 0aa7 00000000 		.4byte	flagResetMux
 1815 0aab 18       		.uleb128 0x18
 1816 0aac 2B030000 		.4byte	.LASF128
ARM GAS  C:\Users\RECEPC~1\AppData\Local\Temp\cc75V9D8.s 			page 36


 1817 0ab0 05       		.byte	0x5
 1818 0ab1 4D       		.byte	0x4d
 1819 0ab2 F2000000 		.4byte	0xf2
 1820 0ab6 05       		.uleb128 0x5
 1821 0ab7 03       		.byte	0x3
 1822 0ab8 00000000 		.4byte	stateBeagleSoft
 1823 0abc 18       		.uleb128 0x18
 1824 0abd 1D010000 		.4byte	.LASF129
 1825 0ac1 05       		.byte	0x5
 1826 0ac2 4E       		.byte	0x4e
 1827 0ac3 CD0A0000 		.4byte	0xacd
 1828 0ac7 05       		.uleb128 0x5
 1829 0ac8 03       		.byte	0x3
 1830 0ac9 00000000 		.4byte	PrevStatePump
 1831 0acd 06       		.uleb128 0x6
 1832 0ace 03010000 		.4byte	0x103
 1833 0ad2 18       		.uleb128 0x18
 1834 0ad3 D7040000 		.4byte	.LASF130
 1835 0ad7 05       		.byte	0x5
 1836 0ad8 50       		.byte	0x50
 1837 0ad9 AD000000 		.4byte	0xad
 1838 0add 05       		.uleb128 0x5
 1839 0ade 03       		.byte	0x3
 1840 0adf 00000000 		.4byte	UnitType
 1841 0ae3 18       		.uleb128 0x18
 1842 0ae4 3C020000 		.4byte	.LASF131
 1843 0ae8 05       		.byte	0x5
 1844 0ae9 50       		.byte	0x50
 1845 0aea AD000000 		.4byte	0xad
 1846 0aee 05       		.uleb128 0x5
 1847 0aef 03       		.byte	0x3
 1848 0af0 00000000 		.4byte	ConversionFactor
 1849 0af4 18       		.uleb128 0x18
 1850 0af5 14010000 		.4byte	.LASF132
 1851 0af9 05       		.byte	0x5
 1852 0afa 50       		.byte	0x50
 1853 0afb AD000000 		.4byte	0xad
 1854 0aff 05       		.uleb128 0x5
 1855 0b00 03       		.byte	0x3
 1856 0b01 00000000 		.4byte	MoneyDec
 1857 0b05 18       		.uleb128 0x18
 1858 0b06 A2060000 		.4byte	.LASF133
 1859 0b0a 05       		.byte	0x5
 1860 0b0b 50       		.byte	0x50
 1861 0b0c AD000000 		.4byte	0xad
 1862 0b10 05       		.uleb128 0x5
 1863 0b11 03       		.byte	0x3
 1864 0b12 00000000 		.4byte	VolDec
 1865 0b16 18       		.uleb128 0x18
 1866 0b17 27050000 		.4byte	.LASF134
 1867 0b1b 05       		.byte	0x5
 1868 0b1c 50       		.byte	0x50
 1869 0b1d AD000000 		.4byte	0xad
 1870 0b21 05       		.uleb128 0x5
 1871 0b22 03       		.byte	0x3
 1872 0b23 00000000 		.4byte	PPUDec
 1873 0b27 18       		.uleb128 0x18
ARM GAS  C:\Users\RECEPC~1\AppData\Local\Temp\cc75V9D8.s 			page 37


 1874 0b28 A9000000 		.4byte	.LASF135
 1875 0b2c 05       		.byte	0x5
 1876 0b2d 50       		.byte	0x50
 1877 0b2e AD000000 		.4byte	0xad
 1878 0b32 05       		.uleb128 0x5
 1879 0b33 03       		.byte	0x3
 1880 0b34 00000000 		.4byte	DDMode
 1881 0b38 18       		.uleb128 0x18
 1882 0b39 8C020000 		.4byte	.LASF136
 1883 0b3d 05       		.byte	0x5
 1884 0b3e 51       		.byte	0x51
 1885 0b3f 03010000 		.4byte	0x103
 1886 0b43 05       		.uleb128 0x5
 1887 0b44 03       		.byte	0x3
 1888 0b45 00000000 		.4byte	statePump
 1889 0b49 18       		.uleb128 0x18
 1890 0b4a 1E030000 		.4byte	.LASF137
 1891 0b4e 05       		.byte	0x5
 1892 0b4f 52       		.byte	0x52
 1893 0b50 AD000000 		.4byte	0xad
 1894 0b54 05       		.uleb128 0x5
 1895 0b55 03       		.byte	0x3
 1896 0b56 00000000 		.4byte	NumPositions
 1897 0b5a 18       		.uleb128 0x18
 1898 0b5b 6E070000 		.4byte	.LASF138
 1899 0b5f 05       		.byte	0x5
 1900 0b60 91       		.byte	0x91
 1901 0b61 13010000 		.4byte	0x113
 1902 0b65 05       		.uleb128 0x5
 1903 0b66 03       		.byte	0x3
 1904 0b67 00000000 		.4byte	bufferDisplay1
 1905 0b6b 18       		.uleb128 0x18
 1906 0b6c 80040000 		.4byte	.LASF139
 1907 0b70 05       		.byte	0x5
 1908 0b71 92       		.byte	0x92
 1909 0b72 13010000 		.4byte	0x113
 1910 0b76 05       		.uleb128 0x5
 1911 0b77 03       		.byte	0x3
 1912 0b78 00000000 		.4byte	bufferDisplay2
 1913 0b7c 18       		.uleb128 0x18
 1914 0b7d 8F040000 		.4byte	.LASF140
 1915 0b81 05       		.byte	0x5
 1916 0b82 93       		.byte	0x93
 1917 0b83 13010000 		.4byte	0x113
 1918 0b87 05       		.uleb128 0x5
 1919 0b88 03       		.byte	0x3
 1920 0b89 00000000 		.4byte	bufferDisplay3
 1921 0b8d 18       		.uleb128 0x18
 1922 0b8e 9E040000 		.4byte	.LASF141
 1923 0b92 05       		.byte	0x5
 1924 0b93 94       		.byte	0x94
 1925 0b94 13010000 		.4byte	0x113
 1926 0b98 05       		.uleb128 0x5
 1927 0b99 03       		.byte	0x3
 1928 0b9a 00000000 		.4byte	bufferDisplay4
 1929 0b9e 18       		.uleb128 0x18
 1930 0b9f B0000000 		.4byte	.LASF142
ARM GAS  C:\Users\RECEPC~1\AppData\Local\Temp\cc75V9D8.s 			page 38


 1931 0ba3 05       		.byte	0x5
 1932 0ba4 B0       		.byte	0xb0
 1933 0ba5 1B050000 		.4byte	0x51b
 1934 0ba9 05       		.uleb128 0x5
 1935 0baa 03       		.byte	0x3
 1936 0bab 00000000 		.4byte	side
 1937 0baf 19       		.uleb128 0x19
 1938 0bb0 1B070000 		.4byte	.LASF143
 1939 0bb4 07       		.byte	0x7
 1940 0bb5 8A       		.byte	0x8a
 1941 0bb6 C00B0000 		.4byte	0xbc0
 1942 0bba 1A       		.uleb128 0x1a
 1943 0bbb AD000000 		.4byte	0xad
 1944 0bbf 00       		.byte	0
 1945 0bc0 19       		.uleb128 0x19
 1946 0bc1 03010000 		.4byte	.LASF144
 1947 0bc5 08       		.byte	0x8
 1948 0bc6 8A       		.byte	0x8a
 1949 0bc7 D10B0000 		.4byte	0xbd1
 1950 0bcb 1A       		.uleb128 0x1a
 1951 0bcc AD000000 		.4byte	0xad
 1952 0bd0 00       		.byte	0
 1953 0bd1 1B       		.uleb128 0x1b
 1954 0bd2 00000000 		.4byte	.LASF148
 1955 0bd6 09       		.byte	0x9
 1956 0bd7 77       		.byte	0x77
 1957 0bd8 1A       		.uleb128 0x1a
 1958 0bd9 C5000000 		.4byte	0xc5
 1959 0bdd 00       		.byte	0
 1960 0bde 00       		.byte	0
 1961              		.section	.debug_abbrev,"",%progbits
 1962              	.Ldebug_abbrev0:
 1963 0000 01       		.uleb128 0x1
 1964 0001 11       		.uleb128 0x11
 1965 0002 01       		.byte	0x1
 1966 0003 25       		.uleb128 0x25
 1967 0004 0E       		.uleb128 0xe
 1968 0005 13       		.uleb128 0x13
 1969 0006 0B       		.uleb128 0xb
 1970 0007 03       		.uleb128 0x3
 1971 0008 0E       		.uleb128 0xe
 1972 0009 1B       		.uleb128 0x1b
 1973 000a 0E       		.uleb128 0xe
 1974 000b 55       		.uleb128 0x55
 1975 000c 17       		.uleb128 0x17
 1976 000d 11       		.uleb128 0x11
 1977 000e 01       		.uleb128 0x1
 1978 000f 10       		.uleb128 0x10
 1979 0010 17       		.uleb128 0x17
 1980 0011 00       		.byte	0
 1981 0012 00       		.byte	0
 1982 0013 02       		.uleb128 0x2
 1983 0014 24       		.uleb128 0x24
 1984 0015 00       		.byte	0
 1985 0016 0B       		.uleb128 0xb
 1986 0017 0B       		.uleb128 0xb
 1987 0018 3E       		.uleb128 0x3e
ARM GAS  C:\Users\RECEPC~1\AppData\Local\Temp\cc75V9D8.s 			page 39


 1988 0019 0B       		.uleb128 0xb
 1989 001a 03       		.uleb128 0x3
 1990 001b 0E       		.uleb128 0xe
 1991 001c 00       		.byte	0
 1992 001d 00       		.byte	0
 1993 001e 03       		.uleb128 0x3
 1994 001f 16       		.uleb128 0x16
 1995 0020 00       		.byte	0
 1996 0021 03       		.uleb128 0x3
 1997 0022 0E       		.uleb128 0xe
 1998 0023 3A       		.uleb128 0x3a
 1999 0024 0B       		.uleb128 0xb
 2000 0025 3B       		.uleb128 0x3b
 2001 0026 0B       		.uleb128 0xb
 2002 0027 49       		.uleb128 0x49
 2003 0028 13       		.uleb128 0x13
 2004 0029 00       		.byte	0
 2005 002a 00       		.byte	0
 2006 002b 04       		.uleb128 0x4
 2007 002c 24       		.uleb128 0x24
 2008 002d 00       		.byte	0
 2009 002e 0B       		.uleb128 0xb
 2010 002f 0B       		.uleb128 0xb
 2011 0030 3E       		.uleb128 0x3e
 2012 0031 0B       		.uleb128 0xb
 2013 0032 03       		.uleb128 0x3
 2014 0033 08       		.uleb128 0x8
 2015 0034 00       		.byte	0
 2016 0035 00       		.byte	0
 2017 0036 05       		.uleb128 0x5
 2018 0037 16       		.uleb128 0x16
 2019 0038 00       		.byte	0
 2020 0039 03       		.uleb128 0x3
 2021 003a 0E       		.uleb128 0xe
 2022 003b 3A       		.uleb128 0x3a
 2023 003c 0B       		.uleb128 0xb
 2024 003d 3B       		.uleb128 0x3b
 2025 003e 05       		.uleb128 0x5
 2026 003f 49       		.uleb128 0x49
 2027 0040 13       		.uleb128 0x13
 2028 0041 00       		.byte	0
 2029 0042 00       		.byte	0
 2030 0043 06       		.uleb128 0x6
 2031 0044 35       		.uleb128 0x35
 2032 0045 00       		.byte	0
 2033 0046 49       		.uleb128 0x49
 2034 0047 13       		.uleb128 0x13
 2035 0048 00       		.byte	0
 2036 0049 00       		.byte	0
 2037 004a 07       		.uleb128 0x7
 2038 004b 01       		.uleb128 0x1
 2039 004c 01       		.byte	0x1
 2040 004d 49       		.uleb128 0x49
 2041 004e 13       		.uleb128 0x13
 2042 004f 01       		.uleb128 0x1
 2043 0050 13       		.uleb128 0x13
 2044 0051 00       		.byte	0
ARM GAS  C:\Users\RECEPC~1\AppData\Local\Temp\cc75V9D8.s 			page 40


 2045 0052 00       		.byte	0
 2046 0053 08       		.uleb128 0x8
 2047 0054 21       		.uleb128 0x21
 2048 0055 00       		.byte	0
 2049 0056 49       		.uleb128 0x49
 2050 0057 13       		.uleb128 0x13
 2051 0058 2F       		.uleb128 0x2f
 2052 0059 0B       		.uleb128 0xb
 2053 005a 00       		.byte	0
 2054 005b 00       		.byte	0
 2055 005c 09       		.uleb128 0x9
 2056 005d 13       		.uleb128 0x13
 2057 005e 01       		.byte	0x1
 2058 005f 03       		.uleb128 0x3
 2059 0060 0E       		.uleb128 0xe
 2060 0061 0B       		.uleb128 0xb
 2061 0062 05       		.uleb128 0x5
 2062 0063 3A       		.uleb128 0x3a
 2063 0064 0B       		.uleb128 0xb
 2064 0065 3B       		.uleb128 0x3b
 2065 0066 0B       		.uleb128 0xb
 2066 0067 01       		.uleb128 0x1
 2067 0068 13       		.uleb128 0x13
 2068 0069 00       		.byte	0
 2069 006a 00       		.byte	0
 2070 006b 0A       		.uleb128 0xa
 2071 006c 0D       		.uleb128 0xd
 2072 006d 00       		.byte	0
 2073 006e 03       		.uleb128 0x3
 2074 006f 0E       		.uleb128 0xe
 2075 0070 3A       		.uleb128 0x3a
 2076 0071 0B       		.uleb128 0xb
 2077 0072 3B       		.uleb128 0x3b
 2078 0073 0B       		.uleb128 0xb
 2079 0074 49       		.uleb128 0x49
 2080 0075 13       		.uleb128 0x13
 2081 0076 38       		.uleb128 0x38
 2082 0077 0B       		.uleb128 0xb
 2083 0078 00       		.byte	0
 2084 0079 00       		.byte	0
 2085 007a 0B       		.uleb128 0xb
 2086 007b 0D       		.uleb128 0xd
 2087 007c 00       		.byte	0
 2088 007d 03       		.uleb128 0x3
 2089 007e 0E       		.uleb128 0xe
 2090 007f 3A       		.uleb128 0x3a
 2091 0080 0B       		.uleb128 0xb
 2092 0081 3B       		.uleb128 0x3b
 2093 0082 0B       		.uleb128 0xb
 2094 0083 49       		.uleb128 0x49
 2095 0084 13       		.uleb128 0x13
 2096 0085 38       		.uleb128 0x38
 2097 0086 05       		.uleb128 0x5
 2098 0087 00       		.byte	0
 2099 0088 00       		.byte	0
 2100 0089 0C       		.uleb128 0xc
 2101 008a 0D       		.uleb128 0xd
ARM GAS  C:\Users\RECEPC~1\AppData\Local\Temp\cc75V9D8.s 			page 41


 2102 008b 00       		.byte	0
 2103 008c 03       		.uleb128 0x3
 2104 008d 08       		.uleb128 0x8
 2105 008e 3A       		.uleb128 0x3a
 2106 008f 0B       		.uleb128 0xb
 2107 0090 3B       		.uleb128 0x3b
 2108 0091 0B       		.uleb128 0xb
 2109 0092 49       		.uleb128 0x49
 2110 0093 13       		.uleb128 0x13
 2111 0094 38       		.uleb128 0x38
 2112 0095 0B       		.uleb128 0xb
 2113 0096 00       		.byte	0
 2114 0097 00       		.byte	0
 2115 0098 0D       		.uleb128 0xd
 2116 0099 0D       		.uleb128 0xd
 2117 009a 00       		.byte	0
 2118 009b 03       		.uleb128 0x3
 2119 009c 08       		.uleb128 0x8
 2120 009d 3A       		.uleb128 0x3a
 2121 009e 0B       		.uleb128 0xb
 2122 009f 3B       		.uleb128 0x3b
 2123 00a0 0B       		.uleb128 0xb
 2124 00a1 49       		.uleb128 0x49
 2125 00a2 13       		.uleb128 0x13
 2126 00a3 38       		.uleb128 0x38
 2127 00a4 05       		.uleb128 0x5
 2128 00a5 00       		.byte	0
 2129 00a6 00       		.byte	0
 2130 00a7 0E       		.uleb128 0xe
 2131 00a8 2E       		.uleb128 0x2e
 2132 00a9 01       		.byte	0x1
 2133 00aa 3F       		.uleb128 0x3f
 2134 00ab 19       		.uleb128 0x19
 2135 00ac 03       		.uleb128 0x3
 2136 00ad 0E       		.uleb128 0xe
 2137 00ae 3A       		.uleb128 0x3a
 2138 00af 0B       		.uleb128 0xb
 2139 00b0 3B       		.uleb128 0x3b
 2140 00b1 0B       		.uleb128 0xb
 2141 00b2 27       		.uleb128 0x27
 2142 00b3 19       		.uleb128 0x19
 2143 00b4 11       		.uleb128 0x11
 2144 00b5 01       		.uleb128 0x1
 2145 00b6 12       		.uleb128 0x12
 2146 00b7 06       		.uleb128 0x6
 2147 00b8 40       		.uleb128 0x40
 2148 00b9 18       		.uleb128 0x18
 2149 00ba 9742     		.uleb128 0x2117
 2150 00bc 19       		.uleb128 0x19
 2151 00bd 01       		.uleb128 0x1
 2152 00be 13       		.uleb128 0x13
 2153 00bf 00       		.byte	0
 2154 00c0 00       		.byte	0
 2155 00c1 0F       		.uleb128 0xf
 2156 00c2 05       		.uleb128 0x5
 2157 00c3 00       		.byte	0
 2158 00c4 03       		.uleb128 0x3
ARM GAS  C:\Users\RECEPC~1\AppData\Local\Temp\cc75V9D8.s 			page 42


 2159 00c5 08       		.uleb128 0x8
 2160 00c6 3A       		.uleb128 0x3a
 2161 00c7 0B       		.uleb128 0xb
 2162 00c8 3B       		.uleb128 0x3b
 2163 00c9 0B       		.uleb128 0xb
 2164 00ca 49       		.uleb128 0x49
 2165 00cb 13       		.uleb128 0x13
 2166 00cc 02       		.uleb128 0x2
 2167 00cd 17       		.uleb128 0x17
 2168 00ce 00       		.byte	0
 2169 00cf 00       		.byte	0
 2170 00d0 10       		.uleb128 0x10
 2171 00d1 05       		.uleb128 0x5
 2172 00d2 00       		.byte	0
 2173 00d3 03       		.uleb128 0x3
 2174 00d4 0E       		.uleb128 0xe
 2175 00d5 3A       		.uleb128 0x3a
 2176 00d6 0B       		.uleb128 0xb
 2177 00d7 3B       		.uleb128 0x3b
 2178 00d8 0B       		.uleb128 0xb
 2179 00d9 49       		.uleb128 0x49
 2180 00da 13       		.uleb128 0x13
 2181 00db 02       		.uleb128 0x2
 2182 00dc 17       		.uleb128 0x17
 2183 00dd 00       		.byte	0
 2184 00de 00       		.byte	0
 2185 00df 11       		.uleb128 0x11
 2186 00e0 34       		.uleb128 0x34
 2187 00e1 00       		.byte	0
 2188 00e2 03       		.uleb128 0x3
 2189 00e3 0E       		.uleb128 0xe
 2190 00e4 3A       		.uleb128 0x3a
 2191 00e5 0B       		.uleb128 0xb
 2192 00e6 3B       		.uleb128 0x3b
 2193 00e7 0B       		.uleb128 0xb
 2194 00e8 49       		.uleb128 0x49
 2195 00e9 13       		.uleb128 0x13
 2196 00ea 02       		.uleb128 0x2
 2197 00eb 18       		.uleb128 0x18
 2198 00ec 00       		.byte	0
 2199 00ed 00       		.byte	0
 2200 00ee 12       		.uleb128 0x12
 2201 00ef 34       		.uleb128 0x34
 2202 00f0 00       		.byte	0
 2203 00f1 03       		.uleb128 0x3
 2204 00f2 08       		.uleb128 0x8
 2205 00f3 3A       		.uleb128 0x3a
 2206 00f4 0B       		.uleb128 0xb
 2207 00f5 3B       		.uleb128 0x3b
 2208 00f6 0B       		.uleb128 0xb
 2209 00f7 49       		.uleb128 0x49
 2210 00f8 13       		.uleb128 0x13
 2211 00f9 02       		.uleb128 0x2
 2212 00fa 17       		.uleb128 0x17
 2213 00fb 00       		.byte	0
 2214 00fc 00       		.byte	0
 2215 00fd 13       		.uleb128 0x13
ARM GAS  C:\Users\RECEPC~1\AppData\Local\Temp\cc75V9D8.s 			page 43


 2216 00fe 898201   		.uleb128 0x4109
 2217 0101 01       		.byte	0x1
 2218 0102 11       		.uleb128 0x11
 2219 0103 01       		.uleb128 0x1
 2220 0104 31       		.uleb128 0x31
 2221 0105 13       		.uleb128 0x13
 2222 0106 01       		.uleb128 0x1
 2223 0107 13       		.uleb128 0x13
 2224 0108 00       		.byte	0
 2225 0109 00       		.byte	0
 2226 010a 14       		.uleb128 0x14
 2227 010b 8A8201   		.uleb128 0x410a
 2228 010e 00       		.byte	0
 2229 010f 02       		.uleb128 0x2
 2230 0110 18       		.uleb128 0x18
 2231 0111 9142     		.uleb128 0x2111
 2232 0113 18       		.uleb128 0x18
 2233 0114 00       		.byte	0
 2234 0115 00       		.byte	0
 2235 0116 15       		.uleb128 0x15
 2236 0117 898201   		.uleb128 0x4109
 2237 011a 01       		.byte	0x1
 2238 011b 11       		.uleb128 0x11
 2239 011c 01       		.uleb128 0x1
 2240 011d 31       		.uleb128 0x31
 2241 011e 13       		.uleb128 0x13
 2242 011f 00       		.byte	0
 2243 0120 00       		.byte	0
 2244 0121 16       		.uleb128 0x16
 2245 0122 0F       		.uleb128 0xf
 2246 0123 00       		.byte	0
 2247 0124 0B       		.uleb128 0xb
 2248 0125 0B       		.uleb128 0xb
 2249 0126 49       		.uleb128 0x49
 2250 0127 13       		.uleb128 0x13
 2251 0128 00       		.byte	0
 2252 0129 00       		.byte	0
 2253 012a 17       		.uleb128 0x17
 2254 012b 34       		.uleb128 0x34
 2255 012c 00       		.byte	0
 2256 012d 03       		.uleb128 0x3
 2257 012e 0E       		.uleb128 0xe
 2258 012f 3A       		.uleb128 0x3a
 2259 0130 0B       		.uleb128 0xb
 2260 0131 3B       		.uleb128 0x3b
 2261 0132 05       		.uleb128 0x5
 2262 0133 49       		.uleb128 0x49
 2263 0134 13       		.uleb128 0x13
 2264 0135 3F       		.uleb128 0x3f
 2265 0136 19       		.uleb128 0x19
 2266 0137 3C       		.uleb128 0x3c
 2267 0138 19       		.uleb128 0x19
 2268 0139 00       		.byte	0
 2269 013a 00       		.byte	0
 2270 013b 18       		.uleb128 0x18
 2271 013c 34       		.uleb128 0x34
 2272 013d 00       		.byte	0
ARM GAS  C:\Users\RECEPC~1\AppData\Local\Temp\cc75V9D8.s 			page 44


 2273 013e 03       		.uleb128 0x3
 2274 013f 0E       		.uleb128 0xe
 2275 0140 3A       		.uleb128 0x3a
 2276 0141 0B       		.uleb128 0xb
 2277 0142 3B       		.uleb128 0x3b
 2278 0143 0B       		.uleb128 0xb
 2279 0144 49       		.uleb128 0x49
 2280 0145 13       		.uleb128 0x13
 2281 0146 3F       		.uleb128 0x3f
 2282 0147 19       		.uleb128 0x19
 2283 0148 02       		.uleb128 0x2
 2284 0149 18       		.uleb128 0x18
 2285 014a 00       		.byte	0
 2286 014b 00       		.byte	0
 2287 014c 19       		.uleb128 0x19
 2288 014d 2E       		.uleb128 0x2e
 2289 014e 01       		.byte	0x1
 2290 014f 3F       		.uleb128 0x3f
 2291 0150 19       		.uleb128 0x19
 2292 0151 03       		.uleb128 0x3
 2293 0152 0E       		.uleb128 0xe
 2294 0153 3A       		.uleb128 0x3a
 2295 0154 0B       		.uleb128 0xb
 2296 0155 3B       		.uleb128 0x3b
 2297 0156 0B       		.uleb128 0xb
 2298 0157 27       		.uleb128 0x27
 2299 0158 19       		.uleb128 0x19
 2300 0159 3C       		.uleb128 0x3c
 2301 015a 19       		.uleb128 0x19
 2302 015b 01       		.uleb128 0x1
 2303 015c 13       		.uleb128 0x13
 2304 015d 00       		.byte	0
 2305 015e 00       		.byte	0
 2306 015f 1A       		.uleb128 0x1a
 2307 0160 05       		.uleb128 0x5
 2308 0161 00       		.byte	0
 2309 0162 49       		.uleb128 0x49
 2310 0163 13       		.uleb128 0x13
 2311 0164 00       		.byte	0
 2312 0165 00       		.byte	0
 2313 0166 1B       		.uleb128 0x1b
 2314 0167 2E       		.uleb128 0x2e
 2315 0168 01       		.byte	0x1
 2316 0169 3F       		.uleb128 0x3f
 2317 016a 19       		.uleb128 0x19
 2318 016b 03       		.uleb128 0x3
 2319 016c 0E       		.uleb128 0xe
 2320 016d 3A       		.uleb128 0x3a
 2321 016e 0B       		.uleb128 0xb
 2322 016f 3B       		.uleb128 0x3b
 2323 0170 0B       		.uleb128 0xb
 2324 0171 27       		.uleb128 0x27
 2325 0172 19       		.uleb128 0x19
 2326 0173 3C       		.uleb128 0x3c
 2327 0174 19       		.uleb128 0x19
 2328 0175 00       		.byte	0
 2329 0176 00       		.byte	0
ARM GAS  C:\Users\RECEPC~1\AppData\Local\Temp\cc75V9D8.s 			page 45


 2330 0177 00       		.byte	0
 2331              		.section	.debug_loc,"",%progbits
 2332              	.Ldebug_loc0:
 2333              	.LLST0:
 2334 0000 00000000 		.4byte	.LVL0
 2335 0004 0E000000 		.4byte	.LVL2
 2336 0008 0100     		.2byte	0x1
 2337 000a 50       		.byte	0x50
 2338 000b 0E000000 		.4byte	.LVL2
 2339 000f 50000000 		.4byte	.LFE63
 2340 0013 0400     		.2byte	0x4
 2341 0015 F3       		.byte	0xf3
 2342 0016 01       		.uleb128 0x1
 2343 0017 50       		.byte	0x50
 2344 0018 9F       		.byte	0x9f
 2345 0019 00000000 		.4byte	0
 2346 001d 00000000 		.4byte	0
 2347              	.LLST1:
 2348 0021 00000000 		.4byte	.LVL0
 2349 0025 0A000000 		.4byte	.LVL1
 2350 0029 0100     		.2byte	0x1
 2351 002b 51       		.byte	0x51
 2352 002c 0A000000 		.4byte	.LVL1
 2353 0030 50000000 		.4byte	.LFE63
 2354 0034 0400     		.2byte	0x4
 2355 0036 F3       		.byte	0xf3
 2356 0037 01       		.uleb128 0x1
 2357 0038 51       		.byte	0x51
 2358 0039 9F       		.byte	0x9f
 2359 003a 00000000 		.4byte	0
 2360 003e 00000000 		.4byte	0
 2361              	.LLST2:
 2362 0042 1C000000 		.4byte	.LVL3
 2363 0046 20000000 		.4byte	.LVL4
 2364 004a 0200     		.2byte	0x2
 2365 004c 30       		.byte	0x30
 2366 004d 9F       		.byte	0x9f
 2367 004e 20000000 		.4byte	.LVL4
 2368 0052 40000000 		.4byte	.LVL7
 2369 0056 0100     		.2byte	0x1
 2370 0058 54       		.byte	0x54
 2371 0059 42000000 		.4byte	.LVL8
 2372 005d 4A000000 		.4byte	.LVL9
 2373 0061 0100     		.2byte	0x1
 2374 0063 54       		.byte	0x54
 2375 0064 00000000 		.4byte	0
 2376 0068 00000000 		.4byte	0
 2377              	.LLST3:
 2378 006c 00000000 		.4byte	.LVL10
 2379 0070 22000000 		.4byte	.LVL11
 2380 0074 0100     		.2byte	0x1
 2381 0076 50       		.byte	0x50
 2382 0077 22000000 		.4byte	.LVL11
 2383 007b C8000000 		.4byte	.LFE64
 2384 007f 0400     		.2byte	0x4
 2385 0081 F3       		.byte	0xf3
 2386 0082 01       		.uleb128 0x1
ARM GAS  C:\Users\RECEPC~1\AppData\Local\Temp\cc75V9D8.s 			page 46


 2387 0083 50       		.byte	0x50
 2388 0084 9F       		.byte	0x9f
 2389 0085 00000000 		.4byte	0
 2390 0089 00000000 		.4byte	0
 2391              	.LLST4:
 2392 008d 00000000 		.4byte	.LVL10
 2393 0091 26000000 		.4byte	.LVL12
 2394 0095 0100     		.2byte	0x1
 2395 0097 51       		.byte	0x51
 2396 0098 26000000 		.4byte	.LVL12
 2397 009c C8000000 		.4byte	.LFE64
 2398 00a0 0400     		.2byte	0x4
 2399 00a2 F3       		.byte	0xf3
 2400 00a3 01       		.uleb128 0x1
 2401 00a4 51       		.byte	0x51
 2402 00a5 9F       		.byte	0x9f
 2403 00a6 00000000 		.4byte	0
 2404 00aa 00000000 		.4byte	0
 2405              	.LLST5:
 2406 00ae 00000000 		.4byte	.LVL10
 2407 00b2 2A000000 		.4byte	.LVL13
 2408 00b6 0100     		.2byte	0x1
 2409 00b8 52       		.byte	0x52
 2410 00b9 2A000000 		.4byte	.LVL13
 2411 00bd C8000000 		.4byte	.LFE64
 2412 00c1 0400     		.2byte	0x4
 2413 00c3 F3       		.byte	0xf3
 2414 00c4 01       		.uleb128 0x1
 2415 00c5 52       		.byte	0x52
 2416 00c6 9F       		.byte	0x9f
 2417 00c7 00000000 		.4byte	0
 2418 00cb 00000000 		.4byte	0
 2419              	.LLST6:
 2420 00cf 00000000 		.4byte	.LVL10
 2421 00d3 2E000000 		.4byte	.LVL14
 2422 00d7 0100     		.2byte	0x1
 2423 00d9 53       		.byte	0x53
 2424 00da 2E000000 		.4byte	.LVL14
 2425 00de C8000000 		.4byte	.LFE64
 2426 00e2 0400     		.2byte	0x4
 2427 00e4 F3       		.byte	0xf3
 2428 00e5 01       		.uleb128 0x1
 2429 00e6 53       		.byte	0x53
 2430 00e7 9F       		.byte	0x9f
 2431 00e8 00000000 		.4byte	0
 2432 00ec 00000000 		.4byte	0
 2433              	.LLST7:
 2434 00f0 00000000 		.4byte	.LVL10
 2435 00f4 C4000000 		.4byte	.LVL21
 2436 00f8 0200     		.2byte	0x2
 2437 00fa 91       		.byte	0x91
 2438 00fb 00       		.sleb128 0
 2439 00fc C4000000 		.4byte	.LVL21
 2440 0100 C8000000 		.4byte	.LFE64
 2441 0104 0200     		.2byte	0x2
 2442 0106 7D       		.byte	0x7d
 2443 0107 00       		.sleb128 0
ARM GAS  C:\Users\RECEPC~1\AppData\Local\Temp\cc75V9D8.s 			page 47


 2444 0108 00000000 		.4byte	0
 2445 010c 00000000 		.4byte	0
 2446              	.LLST8:
 2447 0110 00000000 		.4byte	.LVL10
 2448 0114 C4000000 		.4byte	.LVL21
 2449 0118 0200     		.2byte	0x2
 2450 011a 91       		.byte	0x91
 2451 011b 04       		.sleb128 4
 2452 011c C4000000 		.4byte	.LVL21
 2453 0120 C8000000 		.4byte	.LFE64
 2454 0124 0200     		.2byte	0x2
 2455 0126 7D       		.byte	0x7d
 2456 0127 04       		.sleb128 4
 2457 0128 00000000 		.4byte	0
 2458 012c 00000000 		.4byte	0
 2459              	.LLST9:
 2460 0130 00000000 		.4byte	.LVL10
 2461 0134 C4000000 		.4byte	.LVL21
 2462 0138 0200     		.2byte	0x2
 2463 013a 91       		.byte	0x91
 2464 013b 08       		.sleb128 8
 2465 013c C4000000 		.4byte	.LVL21
 2466 0140 C8000000 		.4byte	.LFE64
 2467 0144 0200     		.2byte	0x2
 2468 0146 7D       		.byte	0x7d
 2469 0147 08       		.sleb128 8
 2470 0148 00000000 		.4byte	0
 2471 014c 00000000 		.4byte	0
 2472              	.LLST10:
 2473 0150 94000000 		.4byte	.LVL15
 2474 0154 98000000 		.4byte	.LVL16
 2475 0158 0200     		.2byte	0x2
 2476 015a 30       		.byte	0x30
 2477 015b 9F       		.byte	0x9f
 2478 015c 98000000 		.4byte	.LVL16
 2479 0160 B8000000 		.4byte	.LVL19
 2480 0164 0100     		.2byte	0x1
 2481 0166 54       		.byte	0x54
 2482 0167 BA000000 		.4byte	.LVL20
 2483 016b C4000000 		.4byte	.LVL21
 2484 016f 0100     		.2byte	0x1
 2485 0171 54       		.byte	0x54
 2486 0172 00000000 		.4byte	0
 2487 0176 00000000 		.4byte	0
 2488              	.LLST11:
 2489 017a 00000000 		.4byte	.LVL22
 2490 017e 10000000 		.4byte	.LVL23
 2491 0182 0100     		.2byte	0x1
 2492 0184 50       		.byte	0x50
 2493 0185 10000000 		.4byte	.LVL23
 2494 0189 5C000000 		.4byte	.LFE65
 2495 018d 0400     		.2byte	0x4
 2496 018f F3       		.byte	0xf3
 2497 0190 01       		.uleb128 0x1
 2498 0191 50       		.byte	0x50
 2499 0192 9F       		.byte	0x9f
 2500 0193 00000000 		.4byte	0
ARM GAS  C:\Users\RECEPC~1\AppData\Local\Temp\cc75V9D8.s 			page 48


 2501 0197 00000000 		.4byte	0
 2502              	.LLST12:
 2503 019b 00000000 		.4byte	.LVL22
 2504 019f 12000000 		.4byte	.LVL24
 2505 01a3 0100     		.2byte	0x1
 2506 01a5 51       		.byte	0x51
 2507 01a6 12000000 		.4byte	.LVL24
 2508 01aa 5C000000 		.4byte	.LFE65
 2509 01ae 0400     		.2byte	0x4
 2510 01b0 F3       		.byte	0xf3
 2511 01b1 01       		.uleb128 0x1
 2512 01b2 51       		.byte	0x51
 2513 01b3 9F       		.byte	0x9f
 2514 01b4 00000000 		.4byte	0
 2515 01b8 00000000 		.4byte	0
 2516              	.LLST13:
 2517 01bc 22000000 		.4byte	.LVL25
 2518 01c0 26000000 		.4byte	.LVL26
 2519 01c4 0200     		.2byte	0x2
 2520 01c6 30       		.byte	0x30
 2521 01c7 9F       		.byte	0x9f
 2522 01c8 26000000 		.4byte	.LVL26
 2523 01cc 46000000 		.4byte	.LVL29
 2524 01d0 0100     		.2byte	0x1
 2525 01d2 54       		.byte	0x54
 2526 01d3 48000000 		.4byte	.LVL30
 2527 01d7 56000000 		.4byte	.LVL32
 2528 01db 0100     		.2byte	0x1
 2529 01dd 54       		.byte	0x54
 2530 01de 00000000 		.4byte	0
 2531 01e2 00000000 		.4byte	0
 2532              	.LLST14:
 2533 01e6 00000000 		.4byte	.LVL33
 2534 01ea 0E000000 		.4byte	.LVL35
 2535 01ee 0100     		.2byte	0x1
 2536 01f0 50       		.byte	0x50
 2537 01f1 0E000000 		.4byte	.LVL35
 2538 01f5 32000000 		.4byte	.LFE66
 2539 01f9 0400     		.2byte	0x4
 2540 01fb F3       		.byte	0xf3
 2541 01fc 01       		.uleb128 0x1
 2542 01fd 50       		.byte	0x50
 2543 01fe 9F       		.byte	0x9f
 2544 01ff 00000000 		.4byte	0
 2545 0203 00000000 		.4byte	0
 2546              	.LLST15:
 2547 0207 00000000 		.4byte	.LVL33
 2548 020b 0E000000 		.4byte	.LVL35
 2549 020f 0100     		.2byte	0x1
 2550 0211 51       		.byte	0x51
 2551 0212 0E000000 		.4byte	.LVL35
 2552 0216 32000000 		.4byte	.LFE66
 2553 021a 0100     		.2byte	0x1
 2554 021c 56       		.byte	0x56
 2555 021d 00000000 		.4byte	0
 2556 0221 00000000 		.4byte	0
 2557              	.LLST16:
ARM GAS  C:\Users\RECEPC~1\AppData\Local\Temp\cc75V9D8.s 			page 49


 2558 0225 00000000 		.4byte	.LVL33
 2559 0229 0E000000 		.4byte	.LVL35
 2560 022d 0100     		.2byte	0x1
 2561 022f 52       		.byte	0x52
 2562 0230 0E000000 		.4byte	.LVL35
 2563 0234 32000000 		.4byte	.LFE66
 2564 0238 0400     		.2byte	0x4
 2565 023a F3       		.byte	0xf3
 2566 023b 01       		.uleb128 0x1
 2567 023c 52       		.byte	0x52
 2568 023d 9F       		.byte	0x9f
 2569 023e 00000000 		.4byte	0
 2570 0242 00000000 		.4byte	0
 2571              	.LLST17:
 2572 0246 0A000000 		.4byte	.LVL34
 2573 024a 0E000000 		.4byte	.LVL35
 2574 024e 0200     		.2byte	0x2
 2575 0250 30       		.byte	0x30
 2576 0251 9F       		.byte	0x9f
 2577 0252 0E000000 		.4byte	.LVL35
 2578 0256 28000000 		.4byte	.LVL37
 2579 025a 0100     		.2byte	0x1
 2580 025c 54       		.byte	0x54
 2581 025d 2A000000 		.4byte	.LVL38
 2582 0261 32000000 		.4byte	.LFE66
 2583 0265 0100     		.2byte	0x1
 2584 0267 54       		.byte	0x54
 2585 0268 00000000 		.4byte	0
 2586 026c 00000000 		.4byte	0
 2587              		.section	.debug_aranges,"",%progbits
 2588 0000 34000000 		.4byte	0x34
 2589 0004 0200     		.2byte	0x2
 2590 0006 00000000 		.4byte	.Ldebug_info0
 2591 000a 04       		.byte	0x4
 2592 000b 00       		.byte	0
 2593 000c 0000     		.2byte	0
 2594 000e 0000     		.2byte	0
 2595 0010 00000000 		.4byte	.LFB63
 2596 0014 50000000 		.4byte	.LFE63-.LFB63
 2597 0018 00000000 		.4byte	.LFB64
 2598 001c C8000000 		.4byte	.LFE64-.LFB64
 2599 0020 00000000 		.4byte	.LFB65
 2600 0024 5C000000 		.4byte	.LFE65-.LFB65
 2601 0028 00000000 		.4byte	.LFB66
 2602 002c 32000000 		.4byte	.LFE66-.LFB66
 2603 0030 00000000 		.4byte	0
 2604 0034 00000000 		.4byte	0
 2605              		.section	.debug_ranges,"",%progbits
 2606              	.Ldebug_ranges0:
 2607 0000 00000000 		.4byte	.LFB63
 2608 0004 50000000 		.4byte	.LFE63
 2609 0008 00000000 		.4byte	.LFB64
 2610 000c C8000000 		.4byte	.LFE64
 2611 0010 00000000 		.4byte	.LFB65
 2612 0014 5C000000 		.4byte	.LFE65
 2613 0018 00000000 		.4byte	.LFB66
 2614 001c 32000000 		.4byte	.LFE66
ARM GAS  C:\Users\RECEPC~1\AppData\Local\Temp\cc75V9D8.s 			page 50


 2615 0020 00000000 		.4byte	0
 2616 0024 00000000 		.4byte	0
 2617              		.section	.debug_line,"",%progbits
 2618              	.Ldebug_line0:
 2619 0000 1E020000 		.section	.debug_str,"MS",%progbits,1
 2619      02008001 
 2619      00000201 
 2619      FB0E0D00 
 2619      01010101 
 2620              	.LASF148:
 2621 0000 43794465 		.ascii	"CyDelay\000"
 2621      6C617900 
 2622              	.LASF114:
 2623 0008 64656369 		.ascii	"decimalVolume\000"
 2623      6D616C56 
 2623      6F6C756D 
 2623      6500
 2624              	.LASF121:
 2625 0016 74656D70 		.ascii	"temporalCom\000"
 2625      6F72616C 
 2625      436F6D00 
 2626              	.LASF58:
 2627 0022 6D657373 		.ascii	"message\000"
 2627      61676500 
 2628              	.LASF146:
 2629 002a 2E5C4C43 		.ascii	".\\LCD.c\000"
 2629      442E6300 
 2630              	.LASF73:
 2631 0032 62756666 		.ascii	"buffer\000"
 2631      657200
 2632              	.LASF102:
 2633 0039 69704164 		.ascii	"ipAdress\000"
 2633      72657373 
 2633      00
 2634              	.LASF113:
 2635 0042 64656369 		.ascii	"decimalMoney\000"
 2635      6D616C4D 
 2635      6F6E6579 
 2635      00
 2636              	.LASF36:
 2637 004f 73616C65 		.ascii	"salePerform\000"
 2637      50657266 
 2637      6F726D00 
 2638              	.LASF11:
 2639 005b 756E7369 		.ascii	"unsigned int\000"
 2639      676E6564 
 2639      20696E74 
 2639      00
 2640              	.LASF92:
 2641 0068 636F6F72 		.ascii	"coordinate\000"
 2641      64696E61 
 2641      746500
 2642              	.LASF63:
 2643 0073 70726F64 		.ascii	"productMarket\000"
 2643      7563744D 
 2643      61726B65 
 2643      7400
ARM GAS  C:\Users\RECEPC~1\AppData\Local\Temp\cc75V9D8.s 			page 51


 2644              	.LASF6:
 2645 0081 5F5F696E 		.ascii	"__int32_t\000"
 2645      7433325F 
 2645      7400
 2646              	.LASF56:
 2647 008b 666C6167 		.ascii	"flagLiftHandle\000"
 2647      4C696674 
 2647      48616E64 
 2647      6C6500
 2648              	.LASF119:
 2649 009a 72657369 		.ascii	"residue\000"
 2649      64756500 
 2650              	.LASF23:
 2651 00a2 69645479 		.ascii	"idType\000"
 2651      706500
 2652              	.LASF135:
 2653 00a9 44444D6F 		.ascii	"DDMode\000"
 2653      646500
 2654              	.LASF142:
 2655 00b0 73696465 		.ascii	"side\000"
 2655      00
 2656              	.LASF28:
 2657 00b5 73656C65 		.ascii	"selectedSale\000"
 2657      63746564 
 2657      53616C65 
 2657      00
 2658              	.LASF64:
 2659 00c2 7175616E 		.ascii	"quantityMarket\000"
 2659      74697479 
 2659      4D61726B 
 2659      657400
 2660              	.LASF106:
 2661 00d1 666C6167 		.ascii	"flagPoint2\000"
 2661      506F696E 
 2661      743200
 2662              	.LASF118:
 2663 00dc 73637265 		.ascii	"screen\000"
 2663      656E00
 2664              	.LASF60:
 2665 00e3 766F6C75 		.ascii	"volumeQuota\000"
 2665      6D655175 
 2665      6F746100 
 2666              	.LASF18:
 2667 00ef 666C6F61 		.ascii	"float\000"
 2667      7400
 2668              	.LASF91:
 2669 00f5 53686F77 		.ascii	"ShowRectangle\000"
 2669      52656374 
 2669      616E676C 
 2669      6500
 2670              	.LASF144:
 2671 0103 44697370 		.ascii	"Display2_PutChar\000"
 2671      6C617932 
 2671      5F507574 
 2671      43686172 
 2671      00
 2672              	.LASF132:
ARM GAS  C:\Users\RECEPC~1\AppData\Local\Temp\cc75V9D8.s 			page 52


 2673 0114 4D6F6E65 		.ascii	"MoneyDec\000"
 2673      79446563 
 2673      00
 2674              	.LASF129:
 2675 011d 50726576 		.ascii	"PrevStatePump\000"
 2675      53746174 
 2675      6550756D 
 2675      7000
 2676              	.LASF10:
 2677 012b 6C6F6E67 		.ascii	"long long unsigned int\000"
 2677      206C6F6E 
 2677      6720756E 
 2677      7369676E 
 2677      65642069 
 2678              	.LASF84:
 2679 0142 57726974 		.ascii	"WriteLCD\000"
 2679      654C4344 
 2679      00
 2680              	.LASF46:
 2681 014b 746F7461 		.ascii	"totalVolumePrevious\000"
 2681      6C566F6C 
 2681      756D6550 
 2681      72657669 
 2681      6F757300 
 2682              	.LASF4:
 2683 015f 5F5F7569 		.ascii	"__uint16_t\000"
 2683      6E743136 
 2683      5F7400
 2684              	.LASF101:
 2685 016a 64696769 		.ascii	"digits\000"
 2685      747300
 2686              	.LASF116:
 2687 0171 74696D65 		.ascii	"time\000"
 2687      00
 2688              	.LASF39:
 2689 0176 70726F64 		.ascii	"productType\000"
 2689      75637454 
 2689      79706500 
 2690              	.LASF108:
 2691 0182 70726F64 		.ascii	"productNumber\000"
 2691      7563744E 
 2691      756D6265 
 2691      7200
 2692              	.LASF42:
 2693 0190 64617465 		.ascii	"dateDownHandle\000"
 2693      446F776E 
 2693      48616E64 
 2693      6C6500
 2694              	.LASF24:
 2695 019f 69645365 		.ascii	"idSerial\000"
 2695      7269616C 
 2695      00
 2696              	.LASF52:
 2697 01a8 6D696C65 		.ascii	"mileageSale\000"
 2697      61676553 
 2697      616C6500 
 2698              	.LASF72:
ARM GAS  C:\Users\RECEPC~1\AppData\Local\Temp\cc75V9D8.s 			page 53


 2699 01b4 666C6167 		.ascii	"flagChangePPU\000"
 2699      4368616E 
 2699      67655050 
 2699      5500
 2700              	.LASF90:
 2701 01c2 626F7474 		.ascii	"bottomless\000"
 2701      6F6D6C65 
 2701      737300
 2702              	.LASF107:
 2703 01cd 62757474 		.ascii	"button\000"
 2703      6F6E00
 2704              	.LASF99:
 2705 01d4 666C6F77 		.ascii	"flowDisplay1\000"
 2705      44697370 
 2705      6C617931 
 2705      00
 2706              	.LASF100:
 2707 01e1 666C6F77 		.ascii	"flowDisplay2\000"
 2707      44697370 
 2707      6C617932 
 2707      00
 2708              	.LASF62:
 2709 01ee 73657269 		.ascii	"serialMarket\000"
 2709      616C4D61 
 2709      726B6574 
 2709      00
 2710              	.LASF75:
 2711 01fb 746F7461 		.ascii	"totalsHandle\000"
 2711      6C734861 
 2711      6E646C65 
 2711      00
 2712              	.LASF38:
 2713 0208 70726573 		.ascii	"presetValue\000"
 2713      65745661 
 2713      6C756500 
 2714              	.LASF122:
 2715 0214 7475726E 		.ascii	"turn\000"
 2715      00
 2716              	.LASF53:
 2717 0219 6964656E 		.ascii	"identySale\000"
 2717      74795361 
 2717      6C6500
 2718              	.LASF35:
 2719 0224 73616C65 		.ascii	"saleType\000"
 2719      54797065 
 2719      00
 2720              	.LASF33:
 2721 022d 76616C75 		.ascii	"valueKeys\000"
 2721      654B6579 
 2721      7300
 2722              	.LASF21:
 2723 0237 63686172 		.ascii	"char\000"
 2723      00
 2724              	.LASF131:
 2725 023c 436F6E76 		.ascii	"ConversionFactor\000"
 2725      65727369 
 2725      6F6E4661 
ARM GAS  C:\Users\RECEPC~1\AppData\Local\Temp\cc75V9D8.s 			page 54


 2725      63746F72 
 2725      00
 2726              	.LASF103:
 2727 024d 6E756D62 		.ascii	"numberKeys1\000"
 2727      65724B65 
 2727      79733100 
 2728              	.LASF104:
 2729 0259 6E756D62 		.ascii	"numberKeys2\000"
 2729      65724B65 
 2729      79733200 
 2730              	.LASF97:
 2731 0265 636F756E 		.ascii	"countBeagleTX\000"
 2731      74426561 
 2731      676C6554 
 2731      5800
 2732              	.LASF16:
 2733 0273 75696E74 		.ascii	"uint16\000"
 2733      313600
 2734              	.LASF85:
 2735 027a 64617461 		.ascii	"data\000"
 2735      00
 2736              	.LASF117:
 2737 027f 64617465 		.ascii	"date\000"
 2737      00
 2738              	.LASF89:
 2739 0284 6667636F 		.ascii	"fgcolor\000"
 2739      6C6F7200 
 2740              	.LASF136:
 2741 028c 73746174 		.ascii	"statePump\000"
 2741      6550756D 
 2741      7000
 2742              	.LASF12:
 2743 0296 75696E74 		.ascii	"uint8_t\000"
 2743      385F7400 
 2744              	.LASF55:
 2745 029e 666C6167 		.ascii	"flagPayment\000"
 2745      5061796D 
 2745      656E7400 
 2746              	.LASF25:
 2747 02aa 69645365 		.ascii	"idSerialCom\000"
 2747      7269616C 
 2747      436F6D00 
 2748              	.LASF61:
 2749 02b6 70707551 		.ascii	"ppuQuota\000"
 2749      756F7461 
 2749      00
 2750              	.LASF48:
 2751 02bf 746F7461 		.ascii	"totalMoneyAfter\000"
 2751      6C4D6F6E 
 2751      65794166 
 2751      74657200 
 2752              	.LASF59:
 2753 02cf 6D6F6E65 		.ascii	"moneyQuota\000"
 2753      7951756F 
 2753      746100
 2754              	.LASF71:
 2755 02da 7072696E 		.ascii	"printers\000"
ARM GAS  C:\Users\RECEPC~1\AppData\Local\Temp\cc75V9D8.s 			page 55


 2755      74657273 
 2755      00
 2756              	.LASF109:
 2757 02e3 70726573 		.ascii	"presetFast\000"
 2757      65744661 
 2757      737400
 2758              	.LASF77:
 2759 02ee 6D6F6E65 		.ascii	"moneySale\000"
 2759      7953616C 
 2759      6500
 2760              	.LASF9:
 2761 02f8 6C6F6E67 		.ascii	"long long int\000"
 2761      206C6F6E 
 2761      6720696E 
 2761      7400
 2762              	.LASF79:
 2763 0306 70707553 		.ascii	"ppuSale\000"
 2763      616C6500 
 2764              	.LASF95:
 2765 030e 636F756E 		.ascii	"countAnimation1\000"
 2765      74416E69 
 2765      6D617469 
 2765      6F6E3100 
 2766              	.LASF137:
 2767 031e 4E756D50 		.ascii	"NumPositions\000"
 2767      6F736974 
 2767      696F6E73 
 2767      00
 2768              	.LASF128:
 2769 032b 73746174 		.ascii	"stateBeagleSoft\000"
 2769      65426561 
 2769      676C6553 
 2769      6F667400 
 2770              	.LASF47:
 2771 033b 746F7461 		.ascii	"totalPPUPrevious\000"
 2771      6C505055 
 2771      50726576 
 2771      696F7573 
 2771      00
 2772              	.LASF96:
 2773 034c 636F756E 		.ascii	"countAnimation2\000"
 2773      74416E69 
 2773      6D617469 
 2773      6F6E3200 
 2774              	.LASF68:
 2775 035c 746F7461 		.ascii	"totalMarket\000"
 2775      6C4D6172 
 2775      6B657400 
 2776              	.LASF44:
 2777 0368 74696D65 		.ascii	"timeDownHandle\000"
 2777      446F776E 
 2777      48616E64 
 2777      6C6500
 2778              	.LASF34:
 2779 0377 76656869 		.ascii	"vehicleType\000"
 2779      636C6554 
 2779      79706500 
ARM GAS  C:\Users\RECEPC~1\AppData\Local\Temp\cc75V9D8.s 			page 56


 2780              	.LASF54:
 2781 0383 666C6167 		.ascii	"flagKeyboard\000"
 2781      4B657962 
 2781      6F617264 
 2781      00
 2782              	.LASF88:
 2783 0390 73697A65 		.ascii	"size\000"
 2783      00
 2784              	.LASF17:
 2785 0395 75696E74 		.ascii	"uint32\000"
 2785      333200
 2786              	.LASF127:
 2787 039c 666C6167 		.ascii	"flagResetMux\000"
 2787      52657365 
 2787      744D7578 
 2787      00
 2788              	.LASF82:
 2789 03a9 70696374 		.ascii	"picture\000"
 2789      75726500 
 2790              	.LASF83:
 2791 03b1 53657450 		.ascii	"SetPicture\000"
 2791      69637475 
 2791      726500
 2792              	.LASF50:
 2793 03bc 746F7461 		.ascii	"totalPPUAfter\000"
 2793      6C505055 
 2793      41667465 
 2793      7200
 2794              	.LASF13:
 2795 03ca 75696E74 		.ascii	"uint16_t\000"
 2795      31365F74 
 2795      00
 2796              	.LASF31:
 2797 03d3 6B657962 		.ascii	"keyboardWayToPay\000"
 2797      6F617264 
 2797      57617954 
 2797      6F506179 
 2797      00
 2798              	.LASF112:
 2799 03e4 70707578 		.ascii	"ppux10\000"
 2799      313000
 2800              	.LASF45:
 2801 03eb 746F7461 		.ascii	"totalMoneyPrevious\000"
 2801      6C4D6F6E 
 2801      65795072 
 2801      6576696F 
 2801      757300
 2802              	.LASF105:
 2803 03fe 666C6167 		.ascii	"flagPoint1\000"
 2803      506F696E 
 2803      743100
 2804              	.LASF29:
 2805 0409 6D6F6E65 		.ascii	"moneySelectedSale\000"
 2805      7953656C 
 2805      65637465 
 2805      6453616C 
 2805      6500
ARM GAS  C:\Users\RECEPC~1\AppData\Local\Temp\cc75V9D8.s 			page 57


 2806              	.LASF115:
 2807 041b 73796D62 		.ascii	"symbols\000"
 2807      6F6C7300 
 2808              	.LASF51:
 2809 0423 6C696365 		.ascii	"licenceSale\000"
 2809      6E636553 
 2809      616C6500 
 2810              	.LASF70:
 2811 042f 70726963 		.ascii	"priceConsign\000"
 2811      65436F6E 
 2811      7369676E 
 2811      00
 2812              	.LASF2:
 2813 043c 73686F72 		.ascii	"short int\000"
 2813      7420696E 
 2813      7400
 2814              	.LASF7:
 2815 0446 6C6F6E67 		.ascii	"long int\000"
 2815      20696E74 
 2815      00
 2816              	.LASF94:
 2817 044f 49544D5F 		.ascii	"ITM_RxBuffer\000"
 2817      52784275 
 2817      66666572 
 2817      00
 2818              	.LASF123:
 2819 045c 6C6F636B 		.ascii	"lockTurn\000"
 2819      5475726E 
 2819      00
 2820              	.LASF57:
 2821 0465 666C6167 		.ascii	"flagEndSale\000"
 2821      456E6453 
 2821      616C6500 
 2822              	.LASF41:
 2823 0471 64617465 		.ascii	"dateLiftHandle\000"
 2823      4C696674 
 2823      48616E64 
 2823      6C6500
 2824              	.LASF139:
 2825 0480 62756666 		.ascii	"bufferDisplay2\000"
 2825      65724469 
 2825      73706C61 
 2825      793200
 2826              	.LASF140:
 2827 048f 62756666 		.ascii	"bufferDisplay3\000"
 2827      65724469 
 2827      73706C61 
 2827      793300
 2828              	.LASF141:
 2829 049e 62756666 		.ascii	"bufferDisplay4\000"
 2829      65724469 
 2829      73706C61 
 2829      793400
 2830              	.LASF3:
 2831 04ad 5F5F7569 		.ascii	"__uint8_t\000"
 2831      6E74385F 
 2831      7400
ARM GAS  C:\Users\RECEPC~1\AppData\Local\Temp\cc75V9D8.s 			page 58


 2832              	.LASF126:
 2833 04b7 70617373 		.ascii	"passwordSeller\000"
 2833      776F7264 
 2833      53656C6C 
 2833      657200
 2834              	.LASF49:
 2835 04c6 746F7461 		.ascii	"totalVolumeAfter\000"
 2835      6C566F6C 
 2835      756D6541 
 2835      66746572 
 2835      00
 2836              	.LASF130:
 2837 04d7 556E6974 		.ascii	"UnitType\000"
 2837      54797065 
 2837      00
 2838              	.LASF20:
 2839 04e0 75696E74 		.ascii	"uint64\000"
 2839      363400
 2840              	.LASF110:
 2841 04e7 64656C61 		.ascii	"delayPicture1\000"
 2841      79506963 
 2841      74757265 
 2841      3100
 2842              	.LASF111:
 2843 04f5 64656C61 		.ascii	"delayPicture2\000"
 2843      79506963 
 2843      74757265 
 2843      3200
 2844              	.LASF40:
 2845 0503 73746174 		.ascii	"stateMux\000"
 2845      654D7578 
 2845      00
 2846              	.LASF22:
 2847 050c 73697A65 		.ascii	"sizetype\000"
 2847      74797065 
 2847      00
 2848              	.LASF8:
 2849 0515 6C6F6E67 		.ascii	"long unsigned int\000"
 2849      20756E73 
 2849      69676E65 
 2849      6420696E 
 2849      7400
 2850              	.LASF134:
 2851 0527 50505544 		.ascii	"PPUDec\000"
 2851      656300
 2852              	.LASF125:
 2853 052e 74797065 		.ascii	"typeIdSeller\000"
 2853      49645365 
 2853      6C6C6572 
 2853      00
 2854              	.LASF69:
 2855 053b 666C6167 		.ascii	"flagProductmarket\000"
 2855      50726F64 
 2855      7563746D 
 2855      61726B65 
 2855      7400
 2856              	.LASF14:
ARM GAS  C:\Users\RECEPC~1\AppData\Local\Temp\cc75V9D8.s 			page 59


 2857 054d 696E7433 		.ascii	"int32_t\000"
 2857      325F7400 
 2858              	.LASF93:
 2859 0555 53686F77 		.ascii	"ShowMessage\000"
 2859      4D657373 
 2859      61676500 
 2860              	.LASF65:
 2861 0561 7175616E 		.ascii	"quantAvailableMark\000"
 2861      74417661 
 2861      696C6162 
 2861      6C654D61 
 2861      726B00
 2862              	.LASF27:
 2863 0574 666C6167 		.ascii	"flagWayToPayMixed\000"
 2863      57617954 
 2863      6F506179 
 2863      4D697865 
 2863      6400
 2864              	.LASF1:
 2865 0586 756E7369 		.ascii	"unsigned char\000"
 2865      676E6564 
 2865      20636861 
 2865      7200
 2866              	.LASF145:
 2867 0594 474E5520 		.ascii	"GNU C 4.9.3 20150303 (release) [ARM/embedded-4_9-br"
 2867      4320342E 
 2867      392E3320 
 2867      32303135 
 2867      30333033 
 2868 05c7 616E6368 		.ascii	"anch revision 221220] -mcpu=cortex-m3 -mthumb -g -O"
 2868      20726576 
 2868      6973696F 
 2868      6E203232 
 2868      31323230 
 2869 05fa 67202D66 		.ascii	"g -ffunction-sections -ffat-lto-objects\000"
 2869      66756E63 
 2869      74696F6E 
 2869      2D736563 
 2869      74696F6E 
 2870              	.LASF32:
 2871 0622 61757468 		.ascii	"authorizationFlag\000"
 2871      6F72697A 
 2871      6174696F 
 2871      6E466C61 
 2871      6700
 2872              	.LASF66:
 2873 0634 70726963 		.ascii	"priceTotalMarket\000"
 2873      65546F74 
 2873      616C4D61 
 2873      726B6574 
 2873      00
 2874              	.LASF124:
 2875 0645 69645365 		.ascii	"idSeller\000"
 2875      6C6C6572 
 2875      00
 2876              	.LASF81:
 2877 064e 70756D70 		.ascii	"pump\000"
ARM GAS  C:\Users\RECEPC~1\AppData\Local\Temp\cc75V9D8.s 			page 60


 2877      00
 2878              	.LASF147:
 2879 0653 433A5C55 		.ascii	"C:\\Users\\Recepcion\\Documents\\GitHub\\NSY-DH\\Wo"
 2879      73657273 
 2879      5C526563 
 2879      65706369 
 2879      6F6E5C44 
 2880 0680 726B7370 		.ascii	"rkspace01\\Design01.cydsn\000"
 2880      61636530 
 2880      315C4465 
 2880      7369676E 
 2880      30312E63 
 2881              	.LASF120:
 2882 0699 74656D70 		.ascii	"temporal\000"
 2882      6F72616C 
 2882      00
 2883              	.LASF133:
 2884 06a2 566F6C44 		.ascii	"VolDec\000"
 2884      656300
 2885              	.LASF37:
 2886 06a9 70726573 		.ascii	"presetType\000"
 2886      65745479 
 2886      706500
 2887              	.LASF87:
 2888 06b4 706F7378 		.ascii	"posx\000"
 2888      00
 2889              	.LASF86:
 2890 06b9 706F7379 		.ascii	"posy\000"
 2890      00
 2891              	.LASF67:
 2892 06be 70726963 		.ascii	"priceUnitMarket\000"
 2892      65556E69 
 2892      744D6172 
 2892      6B657400 
 2893              	.LASF78:
 2894 06ce 766F6C75 		.ascii	"volumeSale\000"
 2894      6D655361 
 2894      6C6500
 2895              	.LASF0:
 2896 06d9 7369676E 		.ascii	"signed char\000"
 2896      65642063 
 2896      68617200 
 2897              	.LASF5:
 2898 06e5 73686F72 		.ascii	"short unsigned int\000"
 2898      7420756E 
 2898      7369676E 
 2898      65642069 
 2898      6E7400
 2899              	.LASF98:
 2900 06f8 636F756E 		.ascii	"countPump\000"
 2900      7450756D 
 2900      7000
 2901              	.LASF80:
 2902 0702 70726F64 		.ascii	"productSale\000"
 2902      75637453 
 2902      616C6500 
 2903              	.LASF15:
ARM GAS  C:\Users\RECEPC~1\AppData\Local\Temp\cc75V9D8.s 			page 61


 2904 070e 75696E74 		.ascii	"uint8\000"
 2904      3800
 2905              	.LASF19:
 2906 0714 646F7562 		.ascii	"double\000"
 2906      6C6500
 2907              	.LASF143:
 2908 071b 44697370 		.ascii	"Display1_PutChar\000"
 2908      6C617931 
 2908      5F507574 
 2908      43686172 
 2908      00
 2909              	.LASF26:
 2910 072c 77617954 		.ascii	"wayToPay\000"
 2910      6F506179 
 2910      00
 2911              	.LASF43:
 2912 0735 74696D65 		.ascii	"timeLiftHandle\000"
 2912      4C696674 
 2912      48616E64 
 2912      6C6500
 2913              	.LASF76:
 2914 0744 70707541 		.ascii	"ppuAuthorized\000"
 2914      7574686F 
 2914      72697A65 
 2914      6400
 2915              	.LASF30:
 2916 0752 73657269 		.ascii	"serialSelectedSale\000"
 2916      616C5365 
 2916      6C656374 
 2916      65645361 
 2916      6C6500
 2917              	.LASF74:
 2918 0765 706F7369 		.ascii	"position\000"
 2918      74696F6E 
 2918      00
 2919              	.LASF138:
 2920 076e 62756666 		.ascii	"bufferDisplay1\000"
 2920      65724469 
 2920      73706C61 
 2920      793100
 2921              		.ident	"GCC: (GNU Tools for ARM Embedded Processors) 4.9.3 20150303 (release) [ARM/embedded-4_9-br
