ARM GAS  C:\Users\Diego\AppData\Local\Temp\ccSbzGZB.s 			page 1


   1              		.syntax unified
   2              		.cpu cortex-m3
   3              		.fpu softvfp
   4              		.eabi_attribute 20, 1
   5              		.eabi_attribute 21, 1
   6              		.eabi_attribute 23, 3
   7              		.eabi_attribute 24, 1
   8              		.eabi_attribute 25, 1
   9              		.eabi_attribute 26, 1
  10              		.eabi_attribute 30, 1
  11              		.eabi_attribute 34, 1
  12              		.eabi_attribute 18, 4
  13              		.thumb
  14              		.file	"LCD.c"
  15              		.text
  16              	.Ltext0:
  17              		.cfi_sections	.debug_frame
  18              		.section	.text.SetPicture,"ax",%progbits
  19              		.align	2
  20              		.global	SetPicture
  21              		.thumb
  22              		.thumb_func
  23              		.type	SetPicture, %function
  24              	SetPicture:
  25              	.LFB63:
  26              		.file 1 ".\\LCD.c"
   1:.\LCD.c       **** /*
   2:.\LCD.c       **** ***************************************************************************************************
   3:.\LCD.c       **** *                                         MUX ADVANCE CODE
   4:.\LCD.c       **** *
   5:.\LCD.c       **** *                             (c) Copyright 2016; Sistemas Insepet LTDA
   6:.\LCD.c       **** *
   7:.\LCD.c       **** *               All rights reserved.  Protected by international copyright laws.
   8:.\LCD.c       **** *               Knowledge of the source code may NOT be used to develop a similar product.
   9:.\LCD.c       **** *               Please help us continue to provide the Embedded community with the finest
  10:.\LCD.c       **** *               software available.  Your honesty is greatly appreciated.
  11:.\LCD.c       **** ***************************************************************************************************
  12:.\LCD.c       **** */
  13:.\LCD.c       **** 
  14:.\LCD.c       **** /*
  15:.\LCD.c       **** ***************************************************************************************************
  16:.\LCD.c       **** *
  17:.\LCD.c       **** *                                            MUX ADVANCE CODE
  18:.\LCD.c       **** *
  19:.\LCD.c       **** *                                             CYPRESS PSoC5LP
  20:.\LCD.c       **** *                                                with the
  21:.\LCD.c       **** *                                            CY8C5969AXI-LP035
  22:.\LCD.c       **** *
  23:.\LCD.c       **** * Filename      : LCD.c
  24:.\LCD.c       **** * Version       : V1.00
  25:.\LCD.c       **** * Programmer(s) : 
  26:.\LCD.c       ****                   
  27:.\LCD.c       **** ***************************************************************************************************
  28:.\LCD.c       **** */
  29:.\LCD.c       **** 
  30:.\LCD.c       **** /*
  31:.\LCD.c       **** ***************************************************************************************************
ARM GAS  C:\Users\Diego\AppData\Local\Temp\ccSbzGZB.s 			page 2


  32:.\LCD.c       **** *                                             INCLUDE FILES
  33:.\LCD.c       **** ***************************************************************************************************
  34:.\LCD.c       **** */
  35:.\LCD.c       **** 
  36:.\LCD.c       **** #include <device.h>
  37:.\LCD.c       **** #include "variables.h"
  38:.\LCD.c       **** //#include "operations.h"
  39:.\LCD.c       **** //#include "I2C.h"
  40:.\LCD.c       **** #include "LCD.h"
  41:.\LCD.c       **** 
  42:.\LCD.c       **** 
  43:.\LCD.c       **** /*
  44:.\LCD.c       **** ***************************************************************************************************
  45:.\LCD.c       **** *                                        void SetPicture(uint8 lcd, uint16 picture)
  46:.\LCD.c       **** *
  47:.\LCD.c       **** * Description : 
  48:.\LCD.c       **** *               
  49:.\LCD.c       **** *
  50:.\LCD.c       **** * Argument(s) : none
  51:.\LCD.c       **** *
  52:.\LCD.c       **** * Return(s)   : none
  53:.\LCD.c       **** *
  54:.\LCD.c       **** * Caller(s)   :  
  55:.\LCD.c       **** *
  56:.\LCD.c       **** * Note(s)     : none.
  57:.\LCD.c       **** ***************************************************************************************************
  58:.\LCD.c       **** */
  59:.\LCD.c       **** 
  60:.\LCD.c       **** void SetPicture(uint8 lcd, uint16 picture){
  27              		.loc 1 60 0
  28              		.cfi_startproc
  29              		@ args = 0, pretend = 0, frame = 8
  30              		@ frame_needed = 0, uses_anonymous_args = 0
  31              	.LVL0:
  32 0000 30B5     		push	{r4, r5, lr}
  33              		.cfi_def_cfa_offset 12
  34              		.cfi_offset 4, -12
  35              		.cfi_offset 5, -8
  36              		.cfi_offset 14, -4
  37 0002 83B0     		sub	sp, sp, #12
  38              		.cfi_def_cfa_offset 24
  39 0004 0546     		mov	r5, r0
  40 0006 0A46     		mov	r2, r1
  61:.\LCD.c       ****     uint8 buffer[8]={0xAA,0x70,0x00,0x00,0xCC,0x33,0xC3,0x3C},x;
  41              		.loc 1 61 0
  42 0008 1049     		ldr	r1, .L7
  43              	.LVL1:
  44 000a 6B46     		mov	r3, sp
  45 000c 0868     		ldr	r0, [r1]	@ unaligned
  46              	.LVL2:
  47 000e 4968     		ldr	r1, [r1, #4]	@ unaligned
  48 0010 03C3     		stmia	r3!, {r0, r1}
  62:.\LCD.c       ****     buffer[2]=(picture>>8)&0xFF;
  49              		.loc 1 62 0
  50 0012 130A     		lsrs	r3, r2, #8
  51 0014 8DF80230 		strb	r3, [sp, #2]
  63:.\LCD.c       ****     buffer[3]=picture&0xFF;
ARM GAS  C:\Users\Diego\AppData\Local\Temp\ccSbzGZB.s 			page 3


  52              		.loc 1 63 0
  53 0018 8DF80320 		strb	r2, [sp, #3]
  54              	.LVL3:
  64:.\LCD.c       ****     for(x=0;x<8;x++){
  55              		.loc 1 64 0
  56 001c 0024     		movs	r4, #0
  57 001e 10E0     		b	.L2
  58              	.LVL4:
  59              	.L5:
  65:.\LCD.c       ****         if(lcd==1){
  60              		.loc 1 65 0
  61 0020 012D     		cmp	r5, #1
  62 0022 06D1     		bne	.L3
  66:.\LCD.c       ****             Display1_PutChar(buffer[x]);
  63              		.loc 1 66 0
  64 0024 02AB     		add	r3, sp, #8
  65 0026 2344     		add	r3, r3, r4
  66 0028 13F8080C 		ldrb	r0, [r3, #-8]	@ zero_extendqisi2
  67 002c FFF7FEFF 		bl	Display1_PutChar
  68              	.LVL5:
  69 0030 05E0     		b	.L4
  70              	.L3:
  67:.\LCD.c       ****         }else{
  68:.\LCD.c       ****             Display2_PutChar(buffer[x]);
  71              		.loc 1 68 0
  72 0032 02AB     		add	r3, sp, #8
  73 0034 2344     		add	r3, r3, r4
  74 0036 13F8080C 		ldrb	r0, [r3, #-8]	@ zero_extendqisi2
  75 003a FFF7FEFF 		bl	Display2_PutChar
  76              	.LVL6:
  77              	.L4:
  64:.\LCD.c       ****         if(lcd==1){
  78              		.loc 1 64 0 discriminator 2
  79 003e 0134     		adds	r4, r4, #1
  80              	.LVL7:
  81 0040 E4B2     		uxtb	r4, r4
  82              	.LVL8:
  83              	.L2:
  64:.\LCD.c       ****         if(lcd==1){
  84              		.loc 1 64 0 is_stmt 0 discriminator 1
  85 0042 072C     		cmp	r4, #7
  86 0044 ECD9     		bls	.L5
  69:.\LCD.c       ****         }
  70:.\LCD.c       ****     }
  71:.\LCD.c       **** }
  87              		.loc 1 71 0 is_stmt 1
  88 0046 03B0     		add	sp, sp, #12
  89              		.cfi_def_cfa_offset 12
  90              		@ sp needed
  91 0048 30BD     		pop	{r4, r5, pc}
  92              	.LVL9:
  93              	.L8:
  94 004a 00BF     		.align	2
  95              	.L7:
  96 004c 00000000 		.word	.LANCHOR0
  97              		.cfi_endproc
  98              	.LFE63:
ARM GAS  C:\Users\Diego\AppData\Local\Temp\ccSbzGZB.s 			page 4


  99              		.size	SetPicture, .-SetPicture
 100              		.section	.text.WriteMessage,"ax",%progbits
 101              		.align	2
 102              		.global	WriteMessage
 103              		.thumb
 104              		.thumb_func
 105              		.type	WriteMessage, %function
 106              	WriteMessage:
 107              	.LFB64:
  72:.\LCD.c       **** 
  73:.\LCD.c       **** /*
  74:.\LCD.c       **** ***************************************************************************************************
  75:.\LCD.c       **** * void WriteLCD(uint8_t lcd,uint8_t data, uint16_t posy, uint16_t posx,uint8_t size, uint16_t fgcol
  76:.\LCD.c       **** *
  77:.\LCD.c       **** * Description : 
  78:.\LCD.c       **** *               
  79:.\LCD.c       **** *
  80:.\LCD.c       **** * Argument(s) : none
  81:.\LCD.c       **** *
  82:.\LCD.c       **** * Return(s)   : none
  83:.\LCD.c       **** *
  84:.\LCD.c       **** * Caller(s)   :  
  85:.\LCD.c       **** *
  86:.\LCD.c       **** * Note(s)     : none.
  87:.\LCD.c       **** ***************************************************************************************************
  88:.\LCD.c       **** */
  89:.\LCD.c       **** 
  90:.\LCD.c       **** void WriteMessage(uint8_t lcd,uint8_t data, uint16_t posy, uint16_t posx,uint8_t size, uint16_t fgc
 108              		.loc 1 90 0
 109              		.cfi_startproc
 110              		@ args = 12, pretend = 0, frame = 24
 111              		@ frame_needed = 0, uses_anonymous_args = 0
 112              	.LVL10:
 113 0000 2DE9F043 		push	{r4, r5, r6, r7, r8, r9, lr}
 114              		.cfi_def_cfa_offset 28
 115              		.cfi_offset 4, -28
 116              		.cfi_offset 5, -24
 117              		.cfi_offset 6, -20
 118              		.cfi_offset 7, -16
 119              		.cfi_offset 8, -12
 120              		.cfi_offset 9, -8
 121              		.cfi_offset 14, -4
 122 0004 87B0     		sub	sp, sp, #28
 123              		.cfi_def_cfa_offset 56
 124 0006 0546     		mov	r5, r0
 125 0008 8C46     		mov	ip, r1
 126 000a 1646     		mov	r6, r2
 127 000c 1C46     		mov	r4, r3
 128 000e 9DF83870 		ldrb	r7, [sp, #56]	@ zero_extendqisi2
 129 0012 BDF83CE0 		ldrh	lr, [sp, #60]
  91:.\LCD.c       **** uint8_t buffer[18]={0xAA,0x98,0,0,0x01,0x39,0x22,0xC5,0x03,0x00,0x00,0xFF,0xFF,0,0xCC,0x33,0xC3,0x3
 130              		.loc 1 91 0
 131 0016 0DF10408 		add	r8, sp, #4
 132 001a DFF8A890 		ldr	r9, .L16
 133 001e 59F8080F 		ldr	r0, [r9, #8]!	@ unaligned
 134              	.LVL11:
 135 0022 D9F80410 		ldr	r1, [r9, #4]	@ unaligned
ARM GAS  C:\Users\Diego\AppData\Local\Temp\ccSbzGZB.s 			page 5


 136              	.LVL12:
 137 0026 D9F80820 		ldr	r2, [r9, #8]	@ unaligned
 138              	.LVL13:
 139 002a D9F80C30 		ldr	r3, [r9, #12]	@ unaligned
 140              	.LVL14:
 141 002e A8E80F00 		stmia	r8!, {r0, r1, r2, r3}
 142 0032 B9F81030 		ldrh	r3, [r9, #16]	@ unaligned
 143 0036 A8F80030 		strh	r3, [r8]	@ unaligned
  92:.\LCD.c       **** 	buffer[2] =(0x0C*(posx*(size+1)))>>8;
 144              		.loc 1 92 0
 145 003a 7A1C     		adds	r2, r7, #1
 146 003c 02FB04F3 		mul	r3, r2, r4
 147 0040 03EB4303 		add	r3, r3, r3, lsl #1
 148 0044 9B00     		lsls	r3, r3, #2
 149 0046 1B12     		asrs	r3, r3, #8
 150 0048 8DF80630 		strb	r3, [sp, #6]
  93:.\LCD.c       **** 	buffer[3] =(0x0C*(posx*(size+1)))&0xFF;
 151              		.loc 1 93 0
 152 004c 04FB02F4 		mul	r4, r4, r2
 153 0050 04EB4404 		add	r4, r4, r4, lsl #1
 154 0054 A300     		lsls	r3, r4, #2
 155 0056 8DF80730 		strb	r3, [sp, #7]
  94:.\LCD.c       **** 	buffer[4] =(0x0E*posy)>>8;
 156              		.loc 1 94 0
 157 005a C6EBC603 		rsb	r3, r6, r6, lsl #3
 158 005e 5B00     		lsls	r3, r3, #1
 159 0060 1B12     		asrs	r3, r3, #8
 160 0062 8DF80830 		strb	r3, [sp, #8]
  95:.\LCD.c       **** 	buffer[5] =(0x0E*posy)&0xFF;
 161              		.loc 1 95 0
 162 0066 C6EBC606 		rsb	r6, r6, r6, lsl #3
 163 006a 7300     		lsls	r3, r6, #1
 164 006c 8DF80930 		strb	r3, [sp, #9]
  96:.\LCD.c       **** 	buffer[6] =0x20+size;
 165              		.loc 1 96 0
 166 0070 2037     		adds	r7, r7, #32
 167 0072 8DF80A70 		strb	r7, [sp, #10]
  97:.\LCD.c       ****     if(bottomless=='Y'){
 168              		.loc 1 97 0
 169 0076 9DF84030 		ldrb	r3, [sp, #64]	@ zero_extendqisi2
 170 007a 592B     		cmp	r3, #89
 171 007c 02D1     		bne	.L10
  98:.\LCD.c       ****          buffer[7]=0x85;
 172              		.loc 1 98 0
 173 007e 8523     		movs	r3, #133
 174 0080 8DF80B30 		strb	r3, [sp, #11]
 175              	.L10:
  99:.\LCD.c       ****     }
 100:.\LCD.c       ****     buffer[9] =(fgcolor&0xFF00)>>8;
 176              		.loc 1 100 0
 177 0084 4FEA1E23 		lsr	r3, lr, #8
 178 0088 8DF80D30 		strb	r3, [sp, #13]
 101:.\LCD.c       ****     buffer[10]=(fgcolor&0x00FF);
 179              		.loc 1 101 0
 180 008c 8DF80EE0 		strb	lr, [sp, #14]
 102:.\LCD.c       **** 	buffer[13]=data;
 181              		.loc 1 102 0
ARM GAS  C:\Users\Diego\AppData\Local\Temp\ccSbzGZB.s 			page 6


 182 0090 8DF811C0 		strb	ip, [sp, #17]
 183              	.LVL15:
 103:.\LCD.c       **** 	for(x=0;x<=17;x++){
 184              		.loc 1 103 0
 185 0094 0024     		movs	r4, #0
 186 0096 10E0     		b	.L11
 187              	.LVL16:
 188              	.L14:
 104:.\LCD.c       **** 		if(lcd==1){
 189              		.loc 1 104 0
 190 0098 012D     		cmp	r5, #1
 191 009a 06D1     		bne	.L12
 105:.\LCD.c       **** 			Display1_PutChar(buffer[x]);
 192              		.loc 1 105 0
 193 009c 06AB     		add	r3, sp, #24
 194 009e 2344     		add	r3, r3, r4
 195 00a0 13F8140C 		ldrb	r0, [r3, #-20]	@ zero_extendqisi2
 196 00a4 FFF7FEFF 		bl	Display1_PutChar
 197              	.LVL17:
 198 00a8 05E0     		b	.L13
 199              	.L12:
 106:.\LCD.c       **** 		}
 107:.\LCD.c       **** 		else{
 108:.\LCD.c       **** 			Display2_PutChar(buffer[x]);
 200              		.loc 1 108 0
 201 00aa 06AB     		add	r3, sp, #24
 202 00ac 2344     		add	r3, r3, r4
 203 00ae 13F8140C 		ldrb	r0, [r3, #-20]	@ zero_extendqisi2
 204 00b2 FFF7FEFF 		bl	Display2_PutChar
 205              	.LVL18:
 206              	.L13:
 103:.\LCD.c       **** 		if(lcd==1){
 207              		.loc 1 103 0 discriminator 2
 208 00b6 0134     		adds	r4, r4, #1
 209              	.LVL19:
 210 00b8 E4B2     		uxtb	r4, r4
 211              	.LVL20:
 212              	.L11:
 103:.\LCD.c       **** 		if(lcd==1){
 213              		.loc 1 103 0 is_stmt 0 discriminator 1
 214 00ba 112C     		cmp	r4, #17
 215 00bc ECD9     		bls	.L14
 109:.\LCD.c       **** 		}	
 110:.\LCD.c       **** 	}	
 111:.\LCD.c       **** }
 216              		.loc 1 111 0 is_stmt 1
 217 00be 07B0     		add	sp, sp, #28
 218              		.cfi_def_cfa_offset 28
 219              		@ sp needed
 220 00c0 BDE8F083 		pop	{r4, r5, r6, r7, r8, r9, pc}
 221              	.LVL21:
 222              	.L17:
 223              		.align	2
 224              	.L16:
 225 00c4 00000000 		.word	.LANCHOR0
 226              		.cfi_endproc
 227              	.LFE64:
ARM GAS  C:\Users\Diego\AppData\Local\Temp\ccSbzGZB.s 			page 7


 228              		.size	WriteMessage, .-WriteMessage
 229              		.section	.text.ShowRectangle,"ax",%progbits
 230              		.align	2
 231              		.global	ShowRectangle
 232              		.thumb
 233              		.thumb_func
 234              		.type	ShowRectangle, %function
 235              	ShowRectangle:
 236              	.LFB65:
 112:.\LCD.c       **** 
 113:.\LCD.c       **** 
 114:.\LCD.c       **** /*
 115:.\LCD.c       **** ***************************************************************************************************
 116:.\LCD.c       **** *                                    void ShowRectangle(uint8 lcd)
 117:.\LCD.c       **** *
 118:.\LCD.c       **** * Description : 
 119:.\LCD.c       **** *               
 120:.\LCD.c       **** *
 121:.\LCD.c       **** * Argument(s) : none
 122:.\LCD.c       **** *
 123:.\LCD.c       **** * Return(s)   : none
 124:.\LCD.c       **** *
 125:.\LCD.c       **** * Caller(s)   :  
 126:.\LCD.c       **** *
 127:.\LCD.c       **** * Note(s)     : none.
 128:.\LCD.c       **** ***************************************************************************************************
 129:.\LCD.c       **** */
 130:.\LCD.c       **** 
 131:.\LCD.c       **** void ShowRectangle(uint8 lcd, uint8 coordinate){
 237              		.loc 1 131 0
 238              		.cfi_startproc
 239              		@ args = 0, pretend = 0, frame = 16
 240              		@ frame_needed = 0, uses_anonymous_args = 0
 241              	.LVL22:
 242 0000 70B5     		push	{r4, r5, r6, lr}
 243              		.cfi_def_cfa_offset 16
 244              		.cfi_offset 4, -16
 245              		.cfi_offset 5, -12
 246              		.cfi_offset 6, -8
 247              		.cfi_offset 14, -4
 248 0002 84B0     		sub	sp, sp, #16
 249              		.cfi_def_cfa_offset 32
 250 0004 0546     		mov	r5, r0
 251 0006 0E46     		mov	r6, r1
 132:.\LCD.c       ****     uint8_t buffer[14]={0xAA, 0x5C, 0x00,0x20,0x00,0x20,0x00, 0x30,0x00, 0x30, 0xCC, 0x33, 0xC3, 0x
 252              		.loc 1 132 0
 253 0008 6B46     		mov	r3, sp
 254 000a 134C     		ldr	r4, .L24
 255 000c 54F81C0F 		ldr	r0, [r4, #28]!	@ unaligned
 256              	.LVL23:
 257 0010 6168     		ldr	r1, [r4, #4]	@ unaligned
 258              	.LVL24:
 259 0012 A268     		ldr	r2, [r4, #8]	@ unaligned
 260 0014 07C3     		stmia	r3!, {r0, r1, r2}
 261 0016 A289     		ldrh	r2, [r4, #12]	@ unaligned
 262 0018 1A80     		strh	r2, [r3]	@ unaligned
 133:.\LCD.c       ****     buffer[7]=coordinate;
ARM GAS  C:\Users\Diego\AppData\Local\Temp\ccSbzGZB.s 			page 8


 263              		.loc 1 133 0
 264 001a 8DF80760 		strb	r6, [sp, #7]
 134:.\LCD.c       ****     buffer[9]=coordinate;
 265              		.loc 1 134 0
 266 001e 8DF80960 		strb	r6, [sp, #9]
 267              	.LVL25:
 135:.\LCD.c       ****     for(x=0;x <=13;x++){
 268              		.loc 1 135 0
 269 0022 0024     		movs	r4, #0
 270 0024 10E0     		b	.L19
 271              	.LVL26:
 272              	.L22:
 136:.\LCD.c       **** 		if(lcd==1){            
 273              		.loc 1 136 0
 274 0026 012D     		cmp	r5, #1
 275 0028 06D1     		bne	.L20
 137:.\LCD.c       **** 			Display1_PutChar(buffer[x]);
 276              		.loc 1 137 0
 277 002a 04AB     		add	r3, sp, #16
 278 002c 2344     		add	r3, r3, r4
 279 002e 13F8100C 		ldrb	r0, [r3, #-16]	@ zero_extendqisi2
 280 0032 FFF7FEFF 		bl	Display1_PutChar
 281              	.LVL27:
 282 0036 05E0     		b	.L21
 283              	.L20:
 138:.\LCD.c       **** 		}
 139:.\LCD.c       **** 		else{
 140:.\LCD.c       **** 			Display2_PutChar(buffer[x]);
 284              		.loc 1 140 0
 285 0038 04AB     		add	r3, sp, #16
 286 003a 2344     		add	r3, r3, r4
 287 003c 13F8100C 		ldrb	r0, [r3, #-16]	@ zero_extendqisi2
 288 0040 FFF7FEFF 		bl	Display2_PutChar
 289              	.LVL28:
 290              	.L21:
 135:.\LCD.c       **** 		if(lcd==1){            
 291              		.loc 1 135 0 discriminator 2
 292 0044 0134     		adds	r4, r4, #1
 293              	.LVL29:
 294 0046 E4B2     		uxtb	r4, r4
 295              	.LVL30:
 296              	.L19:
 135:.\LCD.c       **** 		if(lcd==1){            
 297              		.loc 1 135 0 is_stmt 0 discriminator 1
 298 0048 0D2C     		cmp	r4, #13
 299 004a ECD9     		bls	.L22
 141:.\LCD.c       **** 		}	
 142:.\LCD.c       **** 	}	
 143:.\LCD.c       ****     CyDelay(100);
 300              		.loc 1 143 0 is_stmt 1
 301 004c 6420     		movs	r0, #100
 302 004e FFF7FEFF 		bl	CyDelay
 303              	.LVL31:
 144:.\LCD.c       ****     
 145:.\LCD.c       **** }
 304              		.loc 1 145 0
 305 0052 04B0     		add	sp, sp, #16
ARM GAS  C:\Users\Diego\AppData\Local\Temp\ccSbzGZB.s 			page 9


 306              		.cfi_def_cfa_offset 16
 307              		@ sp needed
 308 0054 70BD     		pop	{r4, r5, r6, pc}
 309              	.LVL32:
 310              	.L25:
 311 0056 00BF     		.align	2
 312              	.L24:
 313 0058 00000000 		.word	.LANCHOR0
 314              		.cfi_endproc
 315              	.LFE65:
 316              		.size	ShowRectangle, .-ShowRectangle
 317              		.section	.text.ShowMessage,"ax",%progbits
 318              		.align	2
 319              		.global	ShowMessage
 320              		.thumb
 321              		.thumb_func
 322              		.type	ShowMessage, %function
 323              	ShowMessage:
 324              	.LFB66:
 146:.\LCD.c       **** 
 147:.\LCD.c       **** 
 148:.\LCD.c       **** 
 149:.\LCD.c       **** /*
 150:.\LCD.c       **** ***************************************************************************************************
 151:.\LCD.c       **** *                             void ShowMessage(uint8 lcd,uint8 *msg)
 152:.\LCD.c       **** *
 153:.\LCD.c       **** * Description : 
 154:.\LCD.c       **** *               
 155:.\LCD.c       **** *
 156:.\LCD.c       **** * Argument(s) : none
 157:.\LCD.c       **** *
 158:.\LCD.c       **** * Return(s)   : none
 159:.\LCD.c       **** *
 160:.\LCD.c       **** * Caller(s)   :  
 161:.\LCD.c       **** *
 162:.\LCD.c       **** * Note(s)     : none.
 163:.\LCD.c       **** ***************************************************************************************************
 164:.\LCD.c       **** */
 165:.\LCD.c       **** 
 166:.\LCD.c       **** void ShowMessage(uint8 lcd,uint8 *msg,uint8 posx){
 325              		.loc 1 166 0
 326              		.cfi_startproc
 327              		@ args = 0, pretend = 0, frame = 0
 328              		@ frame_needed = 0, uses_anonymous_args = 0
 329              	.LVL33:
 330 0000 F0B5     		push	{r4, r5, r6, r7, lr}
 331              		.cfi_def_cfa_offset 20
 332              		.cfi_offset 4, -20
 333              		.cfi_offset 5, -16
 334              		.cfi_offset 6, -12
 335              		.cfi_offset 7, -8
 336              		.cfi_offset 14, -4
 337 0002 85B0     		sub	sp, sp, #20
 338              		.cfi_def_cfa_offset 40
 339 0004 0746     		mov	r7, r0
 340 0006 0E46     		mov	r6, r1
 341 0008 1546     		mov	r5, r2
ARM GAS  C:\Users\Diego\AppData\Local\Temp\ccSbzGZB.s 			page 10


 342              	.LVL34:
 167:.\LCD.c       ****     uint8 x;
 168:.\LCD.c       ****     for(x=0;x<10;x++){
 343              		.loc 1 168 0
 344 000a 0024     		movs	r4, #0
 345 000c 0DE0     		b	.L27
 346              	.LVL35:
 347              	.L28:
 169:.\LCD.c       ****         WriteMessage(lcd,msg[x],31,posx + x,1,0x0000,'N');
 348              		.loc 1 169 0 discriminator 3
 349 000e 315D     		ldrb	r1, [r6, r4]	@ zero_extendqisi2
 350 0010 0123     		movs	r3, #1
 351 0012 0093     		str	r3, [sp]
 352 0014 0023     		movs	r3, #0
 353 0016 0193     		str	r3, [sp, #4]
 354 0018 4E23     		movs	r3, #78
 355 001a 0293     		str	r3, [sp, #8]
 356 001c 3846     		mov	r0, r7
 357 001e 1F22     		movs	r2, #31
 358 0020 2B19     		adds	r3, r5, r4
 359 0022 FFF7FEFF 		bl	WriteMessage
 360              	.LVL36:
 168:.\LCD.c       ****         WriteMessage(lcd,msg[x],31,posx + x,1,0x0000,'N');
 361              		.loc 1 168 0 discriminator 3
 362 0026 0134     		adds	r4, r4, #1
 363              	.LVL37:
 364 0028 E4B2     		uxtb	r4, r4
 365              	.LVL38:
 366              	.L27:
 168:.\LCD.c       ****         WriteMessage(lcd,msg[x],31,posx + x,1,0x0000,'N');
 367              		.loc 1 168 0 is_stmt 0 discriminator 1
 368 002a 092C     		cmp	r4, #9
 369 002c EFD9     		bls	.L28
 170:.\LCD.c       ****     }
 171:.\LCD.c       **** }
 370              		.loc 1 171 0 is_stmt 1
 371 002e 05B0     		add	sp, sp, #20
 372              		.cfi_def_cfa_offset 20
 373              		@ sp needed
 374 0030 F0BD     		pop	{r4, r5, r6, r7, pc}
 375              		.cfi_endproc
 376              	.LFE66:
 377              		.size	ShowMessage, .-ShowMessage
 378 0032 00BF     		.section	.text.UnmapCode,"ax",%progbits
 379              		.align	2
 380              		.global	UnmapCode
 381              		.thumb
 382              		.thumb_func
 383              		.type	UnmapCode, %function
 384              	UnmapCode:
 385              	.LFB67:
 172:.\LCD.c       **** 
 173:.\LCD.c       **** 
 174:.\LCD.c       **** 
 175:.\LCD.c       **** DisplayCharacterMap _g_charmaplut[] =
 176:.\LCD.c       **** {
 177:.\LCD.c       ****     { 0x01, 0x31 }, { 0x02, 0x32 }, { 0x03, 0x33 }, { 0x04, 0x34 }, { 0x05, 0x35 }, { 0x06, 0x36 },
ARM GAS  C:\Users\Diego\AppData\Local\Temp\ccSbzGZB.s 			page 11


 178:.\LCD.c       ****     { 0x1B, (char8)'Q' }, { 0x1C, (char8)'W'}, { 0x1D, (char8)'E'}, { 0x1E, (char8)'R'}, { 0x1F, (c
 179:.\LCD.c       ****     { 0x25, (char8)'A'}, { 0x26, (char8)'S'}, { 0x27, (char8)'D'}, { 0x28, (char8)'F'}, { 0x29, (ch
 180:.\LCD.c       ****     { 0x2F, (char8)'Z'}, { 0x30, (char8)'X'}, { 0x31, (char8)'C'}, { 0x32, (char8)'V'}, { 0x42, (ch
 181:.\LCD.c       ****     { 0x6A, (char8)'-'}, { 0x68, (char8)' '}, { 0x51, (char8)','}, { 0x00, 0x00 }
 182:.\LCD.c       **** };
 183:.\LCD.c       **** 
 184:.\LCD.c       **** //@Created By: HIJH
 185:.\LCD.c       **** //@Septembre de 2016
 186:.\LCD.c       **** char8 UnmapCode(uint8 code)
 187:.\LCD.c       **** {
 386              		.loc 1 187 0
 387              		.cfi_startproc
 388              		@ args = 0, pretend = 0, frame = 0
 389              		@ frame_needed = 0, uses_anonymous_args = 0
 390              		@ link register save eliminated.
 391              	.LVL39:
 188:.\LCD.c       ****     char8 retval = 0x00;
 189:.\LCD.c       ****     DisplayCharacterMap *pcharmap = _g_charmaplut;
 392              		.loc 1 189 0
 393 0000 054B     		ldr	r3, .L35
 190:.\LCD.c       ****     while(pcharmap->_refchar != 0x00)
 394              		.loc 1 190 0
 395 0002 04E0     		b	.L31
 396              	.LVL40:
 397              	.L34:
 191:.\LCD.c       ****     {
 192:.\LCD.c       ****         if(pcharmap->_refchar == code)
 398              		.loc 1 192 0
 399 0004 8242     		cmp	r2, r0
 400 0006 01D1     		bne	.L32
 193:.\LCD.c       ****         {
 194:.\LCD.c       ****             retval = pcharmap->_mappedto;
 401              		.loc 1 194 0
 402 0008 5878     		ldrb	r0, [r3, #1]	@ zero_extendqisi2
 403              	.LVL41:
 195:.\LCD.c       ****             break;
 404              		.loc 1 195 0
 405 000a 7047     		bx	lr
 406              	.LVL42:
 407              	.L32:
 196:.\LCD.c       ****         }
 197:.\LCD.c       ****         pcharmap++;
 408              		.loc 1 197 0
 409 000c 0233     		adds	r3, r3, #2
 410              	.LVL43:
 411              	.L31:
 190:.\LCD.c       ****     {
 412              		.loc 1 190 0
 413 000e 1A78     		ldrb	r2, [r3]	@ zero_extendqisi2
 414 0010 002A     		cmp	r2, #0
 415 0012 F7D1     		bne	.L34
 188:.\LCD.c       ****     DisplayCharacterMap *pcharmap = _g_charmaplut;
 416              		.loc 1 188 0
 417 0014 0020     		movs	r0, #0
 418              	.LVL44:
 198:.\LCD.c       ****     }
 199:.\LCD.c       ****     return retval;
ARM GAS  C:\Users\Diego\AppData\Local\Temp\ccSbzGZB.s 			page 12


 200:.\LCD.c       **** }
 419              		.loc 1 200 0
 420 0016 7047     		bx	lr
 421              	.L36:
 422              		.align	2
 423              	.L35:
 424 0018 00000000 		.word	.LANCHOR1
 425              		.cfi_endproc
 426              	.LFE67:
 427              		.size	UnmapCode, .-UnmapCode
 428              		.section	.text.WriteLCD,"ax",%progbits
 429              		.align	2
 430              		.global	WriteLCD
 431              		.thumb
 432              		.thumb_func
 433              		.type	WriteLCD, %function
 434              	WriteLCD:
 435              	.LFB68:
 201:.\LCD.c       **** /*
 202:.\LCD.c       **** ***************************************************************************************************
 203:.\LCD.c       **** *          void write_LCD(uint8_t lcd, uint8_t data, uint16_t posy, uint16_t posx,uint8_t size)
 204:.\LCD.c       **** *
 205:.\LCD.c       **** * Description : 
 206:.\LCD.c       **** *               
 207:.\LCD.c       **** *
 208:.\LCD.c       **** * Argument(s) : none
 209:.\LCD.c       **** *
 210:.\LCD.c       **** * Return(s)   : none
 211:.\LCD.c       **** *
 212:.\LCD.c       **** * Caller(s)   :  
 213:.\LCD.c       **** *
 214:.\LCD.c       **** * Note(s)     : none.
 215:.\LCD.c       **** ***************************************************************************************************
 216:.\LCD.c       **** */
 217:.\LCD.c       **** 
 218:.\LCD.c       **** void WriteLCD(uint8_t lcd,uint8_t data, uint16_t posy, uint16_t posx,uint8_t size, uint16_t fgcolor
 436              		.loc 1 218 0
 437              		.cfi_startproc
 438              		@ args = 12, pretend = 0, frame = 24
 439              		@ frame_needed = 0, uses_anonymous_args = 0
 440              	.LVL45:
 441 0000 2DE9F043 		push	{r4, r5, r6, r7, r8, r9, lr}
 442              		.cfi_def_cfa_offset 28
 443              		.cfi_offset 4, -28
 444              		.cfi_offset 5, -24
 445              		.cfi_offset 6, -20
 446              		.cfi_offset 7, -16
 447              		.cfi_offset 8, -12
 448              		.cfi_offset 9, -8
 449              		.cfi_offset 14, -4
 450 0004 87B0     		sub	sp, sp, #28
 451              		.cfi_def_cfa_offset 56
 452 0006 0546     		mov	r5, r0
 453 0008 8C46     		mov	ip, r1
 454 000a 1646     		mov	r6, r2
 455 000c 1C46     		mov	r4, r3
 456 000e 9DF83870 		ldrb	r7, [sp, #56]	@ zero_extendqisi2
ARM GAS  C:\Users\Diego\AppData\Local\Temp\ccSbzGZB.s 			page 13


 457 0012 BDF83CE0 		ldrh	lr, [sp, #60]
 219:.\LCD.c       **** uint8_t buffer[18]={0xAA,0x98,0,0,0x01,0x39,0x23,0xC5,0x02,0x00,0x00,0xFF,0xFF,0,0xCC,0x33,0xC3,0x3
 458              		.loc 1 219 0
 459 0016 0DF10408 		add	r8, sp, #4
 460 001a DFF8A890 		ldr	r9, .L44
 461 001e 59F82C0F 		ldr	r0, [r9, #44]!	@ unaligned
 462              	.LVL46:
 463 0022 D9F80410 		ldr	r1, [r9, #4]	@ unaligned
 464              	.LVL47:
 465 0026 D9F80820 		ldr	r2, [r9, #8]	@ unaligned
 466              	.LVL48:
 467 002a D9F80C30 		ldr	r3, [r9, #12]	@ unaligned
 468              	.LVL49:
 469 002e A8E80F00 		stmia	r8!, {r0, r1, r2, r3}
 470 0032 B9F81030 		ldrh	r3, [r9, #16]	@ unaligned
 471 0036 A8F80030 		strh	r3, [r8]	@ unaligned
 220:.\LCD.c       **** 	buffer[2] =(0x0C*(posx*(size+1)))>>8;
 472              		.loc 1 220 0
 473 003a 7A1C     		adds	r2, r7, #1
 474 003c 02FB04F3 		mul	r3, r2, r4
 475 0040 03EB4303 		add	r3, r3, r3, lsl #1
 476 0044 9B00     		lsls	r3, r3, #2
 477 0046 1B12     		asrs	r3, r3, #8
 478 0048 8DF80630 		strb	r3, [sp, #6]
 221:.\LCD.c       **** 	buffer[3] =(0x0C*(posx*(size+1)))&0xFF;
 479              		.loc 1 221 0
 480 004c 04FB02F4 		mul	r4, r4, r2
 481 0050 04EB4404 		add	r4, r4, r4, lsl #1
 482 0054 A300     		lsls	r3, r4, #2
 483 0056 8DF80730 		strb	r3, [sp, #7]
 222:.\LCD.c       **** 	buffer[4] =(0x0E*posy)>>8;
 484              		.loc 1 222 0
 485 005a C6EBC603 		rsb	r3, r6, r6, lsl #3
 486 005e 5B00     		lsls	r3, r3, #1
 487 0060 1B12     		asrs	r3, r3, #8
 488 0062 8DF80830 		strb	r3, [sp, #8]
 223:.\LCD.c       **** 	buffer[5] =(0x0E*posy)&0xFF;
 489              		.loc 1 223 0
 490 0066 C6EBC606 		rsb	r6, r6, r6, lsl #3
 491 006a 7300     		lsls	r3, r6, #1
 492 006c 8DF80930 		strb	r3, [sp, #9]
 224:.\LCD.c       **** 	buffer[6] =0x23+size;
 493              		.loc 1 224 0
 494 0070 2337     		adds	r7, r7, #35
 495 0072 8DF80A70 		strb	r7, [sp, #10]
 225:.\LCD.c       ****     if(bottomless=='Y'){
 496              		.loc 1 225 0
 497 0076 9DF84030 		ldrb	r3, [sp, #64]	@ zero_extendqisi2
 498 007a 592B     		cmp	r3, #89
 499 007c 02D1     		bne	.L38
 226:.\LCD.c       ****          buffer[7]=0x85;
 500              		.loc 1 226 0
 501 007e 8523     		movs	r3, #133
 502 0080 8DF80B30 		strb	r3, [sp, #11]
 503              	.L38:
 227:.\LCD.c       ****     }
 228:.\LCD.c       ****     buffer[9] =(fgcolor&0xFF00)>>8;
ARM GAS  C:\Users\Diego\AppData\Local\Temp\ccSbzGZB.s 			page 14


 504              		.loc 1 228 0
 505 0084 4FEA1E23 		lsr	r3, lr, #8
 506 0088 8DF80D30 		strb	r3, [sp, #13]
 229:.\LCD.c       ****     buffer[10]=(fgcolor&0x00FF);
 507              		.loc 1 229 0
 508 008c 8DF80EE0 		strb	lr, [sp, #14]
 230:.\LCD.c       **** 	buffer[13]=data;
 509              		.loc 1 230 0
 510 0090 8DF811C0 		strb	ip, [sp, #17]
 511              	.LVL50:
 231:.\LCD.c       **** 	for(x=0;x<=17;x++){
 512              		.loc 1 231 0
 513 0094 0024     		movs	r4, #0
 514 0096 10E0     		b	.L39
 515              	.LVL51:
 516              	.L42:
 232:.\LCD.c       **** 		if(lcd==1){
 517              		.loc 1 232 0
 518 0098 012D     		cmp	r5, #1
 519 009a 06D1     		bne	.L40
 233:.\LCD.c       **** 			Display1_PutChar(buffer[x]);
 520              		.loc 1 233 0
 521 009c 06AB     		add	r3, sp, #24
 522 009e 2344     		add	r3, r3, r4
 523 00a0 13F8140C 		ldrb	r0, [r3, #-20]	@ zero_extendqisi2
 524 00a4 FFF7FEFF 		bl	Display1_PutChar
 525              	.LVL52:
 526 00a8 05E0     		b	.L41
 527              	.L40:
 234:.\LCD.c       **** 		}
 235:.\LCD.c       **** 		else{
 236:.\LCD.c       **** 			Display2_PutChar(buffer[x]);
 528              		.loc 1 236 0
 529 00aa 06AB     		add	r3, sp, #24
 530 00ac 2344     		add	r3, r3, r4
 531 00ae 13F8140C 		ldrb	r0, [r3, #-20]	@ zero_extendqisi2
 532 00b2 FFF7FEFF 		bl	Display2_PutChar
 533              	.LVL53:
 534              	.L41:
 231:.\LCD.c       **** 		if(lcd==1){
 535              		.loc 1 231 0 discriminator 2
 536 00b6 0134     		adds	r4, r4, #1
 537              	.LVL54:
 538 00b8 E4B2     		uxtb	r4, r4
 539              	.LVL55:
 540              	.L39:
 231:.\LCD.c       **** 		if(lcd==1){
 541              		.loc 1 231 0 is_stmt 0 discriminator 1
 542 00ba 112C     		cmp	r4, #17
 543 00bc ECD9     		bls	.L42
 237:.\LCD.c       **** 		}	
 238:.\LCD.c       **** 	}	
 239:.\LCD.c       **** }
 544              		.loc 1 239 0 is_stmt 1
 545 00be 07B0     		add	sp, sp, #28
 546              		.cfi_def_cfa_offset 28
 547              		@ sp needed
ARM GAS  C:\Users\Diego\AppData\Local\Temp\ccSbzGZB.s 			page 15


 548 00c0 BDE8F083 		pop	{r4, r5, r6, r7, r8, r9, pc}
 549              	.LVL56:
 550              	.L45:
 551              		.align	2
 552              	.L44:
 553 00c4 00000000 		.word	.LANCHOR0
 554              		.cfi_endproc
 555              	.LFE68:
 556              		.size	WriteLCD, .-WriteLCD
 557              		.global	_g_charmaplut
 558              		.comm	side,1036,4
 559              		.comm	bufferDisplay4,332,4
 560              		.comm	bufferDisplay3,332,4
 561              		.comm	bufferDisplay2,332,4
 562              		.comm	bufferDisplay1,332,4
 563              		.comm	GradesHose,5,4
 564              		.comm	CopiasCredito,1,1
 565              		.comm	Encabezado1,30,4
 566              		.comm	intIDStation,2,2
 567              		.comm	buffer_tx,1500,4
 568              		.comm	buffer_rf,1500,4
 569              		.comm	printPortB,1,1
 570              		.comm	printPortA,1,1
 571              		.comm	pumpGap,3,4
 572              		.comm	idStation,5,4
 573              		.comm	controlChar,1,1
 574              		.comm	configAccess,5,4
 575              		.comm	count_protector2,1,1
 576              		.comm	count_protector,1,1
 577              		.comm	timeDownHandle,2,4
 578              		.comm	dateDownHandle,3,4
 579              		.comm	VolUnit,6,4
 580              		.comm	PrinterType,1,1
 581              		.comm	hiddenKeys,1,1
 582              		.comm	digits,1,1
 583              		.comm	lockTurn,1,1
 584              		.comm	NumPositions,1,1
 585              		.comm	statePump,4,4
 586              		.comm	DDMode,1,1
 587              		.comm	PPUDec,1,1
 588              		.comm	VolDec,1,1
 589              		.comm	MoneyDec,1,1
 590              		.comm	ConversionFactor,1,1
 591              		.comm	UnitType,1,1
 592              		.comm	IDCast,2,4
 593              		.comm	PlateRequest,1,1
 594              		.comm	PrevStatePump,4,4
 595              		.comm	stateBeagleSoft,1,1
 596              		.comm	flagResetMux,1,1
 597              		.comm	passwordSeller,8,4
 598              		.comm	typeIdSeller,1,1
 599              		.comm	idSeller,25,4
 600              		.comm	temporal,30,4
 601              		.comm	residue,14,4
 602              		.comm	screen,2,4
 603              		.comm	date,3,4
 604              		.comm	time,3,4
ARM GAS  C:\Users\Diego\AppData\Local\Temp\ccSbzGZB.s 			page 16


 605              		.comm	symbols,2,4
 606              		.comm	decimalVolume,1,1
 607              		.comm	decimalMoney,1,1
 608              		.comm	ppux10,1,1
 609              		.comm	delayPicture2,4,4
 610              		.comm	delayPicture1,4,4
 611              		.comm	productNumber,1,1
 612              		.comm	flagPoint2,1,1
 613              		.comm	flagPoint1,1,1
 614              		.comm	numberKeys2,1,1
 615              		.comm	numberKeys1,1,1
 616              		.comm	flowDisplay4,4,4
 617              		.comm	flowDisplay3,4,4
 618              		.comm	flowDisplay2,4,4
 619              		.comm	flowDisplay1,4,4
 620              		.comm	countPump,8,8
 621              		.comm	countBeagleTX,8,8
 622              		.comm	countAnimation2,8,8
 623              		.comm	countAnimation1,8,8
 624              		.section	.rodata
 625              		.align	2
 626              		.set	.LANCHOR0,. + 0
 627              	.LC0:
 628 0000 AA       		.byte	-86
 629 0001 70       		.byte	112
 630 0002 00       		.byte	0
 631 0003 00       		.byte	0
 632 0004 CC       		.byte	-52
 633 0005 33       		.byte	51
 634 0006 C3       		.byte	-61
 635 0007 3C       		.byte	60
 636              	.LC1:
 637 0008 AA       		.byte	-86
 638 0009 98       		.byte	-104
 639 000a 00       		.byte	0
 640 000b 00       		.byte	0
 641 000c 01       		.byte	1
 642 000d 39       		.byte	57
 643 000e 22       		.byte	34
 644 000f C5       		.byte	-59
 645 0010 03       		.byte	3
 646 0011 00       		.byte	0
 647 0012 00       		.byte	0
 648 0013 FF       		.byte	-1
 649 0014 FF       		.byte	-1
 650 0015 00       		.byte	0
 651 0016 CC       		.byte	-52
 652 0017 33       		.byte	51
 653 0018 C3       		.byte	-61
 654 0019 3C       		.byte	60
 655 001a 0000     		.space	2
 656              	.LC2:
 657 001c AA       		.byte	-86
 658 001d 5C       		.byte	92
 659 001e 00       		.byte	0
 660 001f 20       		.byte	32
 661 0020 00       		.byte	0
ARM GAS  C:\Users\Diego\AppData\Local\Temp\ccSbzGZB.s 			page 17


 662 0021 20       		.byte	32
 663 0022 00       		.byte	0
 664 0023 30       		.byte	48
 665 0024 00       		.byte	0
 666 0025 30       		.byte	48
 667 0026 CC       		.byte	-52
 668 0027 33       		.byte	51
 669 0028 C3       		.byte	-61
 670 0029 3C       		.byte	60
 671 002a 0000     		.space	2
 672              	.LC3:
 673 002c AA       		.byte	-86
 674 002d 98       		.byte	-104
 675 002e 00       		.byte	0
 676 002f 00       		.byte	0
 677 0030 01       		.byte	1
 678 0031 39       		.byte	57
 679 0032 23       		.byte	35
 680 0033 C5       		.byte	-59
 681 0034 02       		.byte	2
 682 0035 00       		.byte	0
 683 0036 00       		.byte	0
 684 0037 FF       		.byte	-1
 685 0038 FF       		.byte	-1
 686 0039 00       		.byte	0
 687 003a CC       		.byte	-52
 688 003b 33       		.byte	51
 689 003c C3       		.byte	-61
 690 003d 3C       		.byte	60
 691 003e 0000     		.data
 692              		.align	2
 693              		.set	.LANCHOR1,. + 0
 694              		.type	_g_charmaplut, %object
 695              		.size	_g_charmaplut, 82
 696              	_g_charmaplut:
 697 0000 01       		.byte	1
 698 0001 31       		.byte	49
 699 0002 02       		.byte	2
 700 0003 32       		.byte	50
 701 0004 03       		.byte	3
 702 0005 33       		.byte	51
 703 0006 04       		.byte	4
 704 0007 34       		.byte	52
 705 0008 05       		.byte	5
 706 0009 35       		.byte	53
 707 000a 06       		.byte	6
 708 000b 36       		.byte	54
 709 000c 07       		.byte	7
 710 000d 37       		.byte	55
 711 000e 08       		.byte	8
 712 000f 38       		.byte	56
 713 0010 09       		.byte	9
 714 0011 39       		.byte	57
 715 0012 0A       		.byte	10
 716 0013 30       		.byte	48
 717 0014 0C       		.byte	12
 718 0015 0A       		.byte	10
ARM GAS  C:\Users\Diego\AppData\Local\Temp\ccSbzGZB.s 			page 18


 719 0016 1B       		.byte	27
 720 0017 51       		.byte	81
 721 0018 1C       		.byte	28
 722 0019 57       		.byte	87
 723 001a 1D       		.byte	29
 724 001b 45       		.byte	69
 725 001c 1E       		.byte	30
 726 001d 52       		.byte	82
 727 001e 1F       		.byte	31
 728 001f 54       		.byte	84
 729 0020 20       		.byte	32
 730 0021 59       		.byte	89
 731 0022 21       		.byte	33
 732 0023 55       		.byte	85
 733 0024 22       		.byte	34
 734 0025 49       		.byte	73
 735 0026 23       		.byte	35
 736 0027 4F       		.byte	79
 737 0028 24       		.byte	36
 738 0029 50       		.byte	80
 739 002a 25       		.byte	37
 740 002b 41       		.byte	65
 741 002c 26       		.byte	38
 742 002d 53       		.byte	83
 743 002e 27       		.byte	39
 744 002f 44       		.byte	68
 745 0030 28       		.byte	40
 746 0031 46       		.byte	70
 747 0032 29       		.byte	41
 748 0033 47       		.byte	71
 749 0034 2A       		.byte	42
 750 0035 48       		.byte	72
 751 0036 2B       		.byte	43
 752 0037 4A       		.byte	74
 753 0038 2C       		.byte	44
 754 0039 4B       		.byte	75
 755 003a 2D       		.byte	45
 756 003b 4C       		.byte	76
 757 003c 2F       		.byte	47
 758 003d 5A       		.byte	90
 759 003e 30       		.byte	48
 760 003f 58       		.byte	88
 761 0040 31       		.byte	49
 762 0041 43       		.byte	67
 763 0042 32       		.byte	50
 764 0043 56       		.byte	86
 765 0044 42       		.byte	66
 766 0045 42       		.byte	66
 767 0046 34       		.byte	52
 768 0047 4E       		.byte	78
 769 0048 35       		.byte	53
 770 0049 4D       		.byte	77
 771 004a 6A       		.byte	106
 772 004b 2D       		.byte	45
 773 004c 68       		.byte	104
 774 004d 20       		.byte	32
 775 004e 51       		.byte	81
ARM GAS  C:\Users\Diego\AppData\Local\Temp\ccSbzGZB.s 			page 19


 776 004f 2C       		.byte	44
 777 0050 00       		.byte	0
 778 0051 00       		.byte	0
 779 0052 0000     		.text
 780              	.Letext0:
 781              		.file 2 "c:\\program files (x86)\\cypress\\psoc creator\\3.3\\psoc creator\\import\\gnu\\arm\\4.9.
 782              		.file 3 "c:\\program files (x86)\\cypress\\psoc creator\\3.3\\psoc creator\\import\\gnu\\arm\\4.9.
 783              		.file 4 "Generated_Source\\PSoC5/cytypes.h"
 784              		.file 5 ".\\variables.h"
 785              		.file 6 ".\\LCD.h"
 786              		.file 7 "Generated_Source\\PSoC5/core_cm3.h"
 787              		.file 8 "Generated_Source\\PSoC5/Display1.h"
 788              		.file 9 "Generated_Source\\PSoC5/Display2.h"
 789              		.file 10 "Generated_Source\\PSoC5/CyLib.h"