ARM GAS  C:\Users\RECEPC~1\AppData\Local\Temp\cc6Stwwd.s 			page 1


   1              		.syntax unified
   2              		.cpu cortex-m3
   3              		.fpu softvfp
   4              		.eabi_attribute 20, 1
   5              		.eabi_attribute 21, 1
   6              		.eabi_attribute 23, 3
   7              		.eabi_attribute 24, 1
   8              		.eabi_attribute 25, 1
   9              		.eabi_attribute 26, 1
  10              		.eabi_attribute 30, 1
  11              		.eabi_attribute 34, 1
  12              		.eabi_attribute 18, 4
  13              		.thumb
  14              		.file	"main.c"
  15              		.text
  16              	.Ltext0:
  17              		.cfi_sections	.debug_frame
  18              		.section	.text.animacion,"ax",%progbits
  19              		.align	2
  20              		.global	animacion
  21              		.thumb
  22              		.thumb_func
  23              		.type	animacion, %function
  24              	animacion:
  25              	.LFB73:
  26              		.file 1 ".\\main.c"
   1:.\main.c      **** /* ========================================
   2:.\main.c      ****  *
   3:.\main.c      ****  * Copyright YOUR COMPANY, THE YEAR
   4:.\main.c      ****  * All Rights Reserved
   5:.\main.c      ****  * UNPUBLISHED, LICENSED SOFTWARE.
   6:.\main.c      ****  *
   7:.\main.c      ****  * CONFIDENTIAL AND PROPRIETARY INFORMATION
   8:.\main.c      ****  * WHICH IS THE PROPERTY OF your company.
   9:.\main.c      ****  *
  10:.\main.c      ****  * ========================================
  11:.\main.c      **** */
  12:.\main.c      **** #include <project.h>
  13:.\main.c      **** #include <protocol.h>
  14:.\main.c      **** #include <variables.h>
  15:.\main.c      **** #include <keyboard.h>
  16:.\main.c      **** #include <ibutton.h>
  17:.\main.c      **** #include <RFPoll.h>
  18:.\main.c      **** #include <LCD.h>
  19:.\main.c      **** #include <I2C.h>
  20:.\main.c      **** #include <Print.h>
  21:.\main.c      **** #include <device.h>
  22:.\main.c      **** #include <string.h>
  23:.\main.c      **** #include <stdio.h>
  24:.\main.c      **** #include <stdlib.h>
  25:.\main.c      **** 
  26:.\main.c      **** /**********************************/
  27:.\main.c      **** 
  28:.\main.c      **** uint8 MuxVersion [10] = "MUX V. 1.0";
  29:.\main.c      **** uint8 passwordPump[5] = "00204";  
  30:.\main.c      **** 
  31:.\main.c      **** 
ARM GAS  C:\Users\RECEPC~1\AppData\Local\Temp\cc6Stwwd.s 			page 2


  32:.\main.c      ****       
  33:.\main.c      **** CY_ISR(animacion2);
  34:.\main.c      **** CY_ISR(animacion);
  35:.\main.c      **** CY_ISR(timerRFRX);
  36:.\main.c      **** CY_ISR(timerLCD);
  37:.\main.c      **** 
  38:.\main.c      **** void GlobalInitializer()
  39:.\main.c      **** {
  40:.\main.c      ****     EEPROM_1_Start();
  41:.\main.c      ****     Pump_Start(); 
  42:.\main.c      ****     Display1_Start();
  43:.\main.c      ****     Display2_Start();    
  44:.\main.c      ****     Printer_Start();   
  45:.\main.c      ****     I2C_Bus_Start();
  46:.\main.c      ****     RF_Connection_Start();
  47:.\main.c      ****     isr_1_StartEx(timerRFRX);
  48:.\main.c      ****     isr_2_StartEx(timerLCD);
  49:.\main.c      ****     isr_3_StartEx(animacion);
  50:.\main.c      ****     isr_4_StartEx(animacion2);
  51:.\main.c      ****     Waitable_3_Start();     
  52:.\main.c      ****     Waitable_4_Start();
  53:.\main.c      ****     
  54:.\main.c      **** }
  55:.\main.c      **** void StoreConfiguration(){
  56:.\main.c      ****     EEPROM_1_WriteByte(UnitType,0);
  57:.\main.c      ****     EEPROM_1_WriteByte(ConversionFactor,1);
  58:.\main.c      ****     EEPROM_1_WriteByte(MoneyDec,2);
  59:.\main.c      ****     EEPROM_1_WriteByte(VolDec,3);
  60:.\main.c      ****     EEPROM_1_WriteByte(PPUDec,4);
  61:.\main.c      ****     EEPROM_1_WriteByte(DDMode,5);
  62:.\main.c      ****     EEPROM_1_WriteByte(digits,6); 
  63:.\main.c      ****     EEPROM_1_WriteByte(side.a.dir,12);
  64:.\main.c      ****     EEPROM_1_WriteByte(side.b.dir,13);
  65:.\main.c      ****     EEPROM_1_WriteByte(side.c.dir,14);
  66:.\main.c      ****     EEPROM_1_WriteByte(side.d.dir,15);
  67:.\main.c      **** }
  68:.\main.c      **** void loadConfiguration(){
  69:.\main.c      ****     //uint8 x;
  70:.\main.c      ****     MoneyDec   = EEPROM_1_ReadByte(2);
  71:.\main.c      ****     VolDec     = EEPROM_1_ReadByte(3);
  72:.\main.c      ****     PPUDec     = EEPROM_1_ReadByte(4);
  73:.\main.c      ****     DDMode     = EEPROM_1_ReadByte(5);
  74:.\main.c      ****     digits     = EEPROM_1_ReadByte(6);
  75:.\main.c      ****     lockTurn   = EEPROM_1_ReadByte(7);  //Fijo turno abierto para pruebas
  76:.\main.c      ****     printPortA = EEPROM_1_ReadByte(8);  //Puertos de impresion
  77:.\main.c      ****     printPortB = EEPROM_1_ReadByte(9); //Puertos de impresion
  78:.\main.c      ****     IDCast[0]  = EEPROM_1_ReadByte(10); //ID Estacion1
  79:.\main.c      ****     IDCast[1]  = EEPROM_1_ReadByte(11); //ID Estacion2    
  80:.\main.c      ****     passwordPump[0] = 0x04;
  81:.\main.c      ****     configAccess[0] = 0x04; 
  82:.\main.c      ****     side.a.dir = EEPROM_1_ReadByte(12);
  83:.\main.c      ****     side.b.dir = EEPROM_1_ReadByte(13);
  84:.\main.c      ****     side.c.dir = EEPROM_1_ReadByte(14);
  85:.\main.c      ****     side.d.dir = EEPROM_1_ReadByte(15);
  86:.\main.c      **** //    for(x=0; x<30;x++){
  87:.\main.c      **** //        Encabezado1[x]=EEPROM_1_ReadByte(16+x);
  88:.\main.c      **** //    }
ARM GAS  C:\Users\RECEPC~1\AppData\Local\Temp\cc6Stwwd.s 			page 3


  89:.\main.c      **** //    for(x=30; x<60;x++){
  90:.\main.c      **** //        Encabezado2[x]=EEPROM_1_ReadByte(16+x);
  91:.\main.c      **** //    }
  92:.\main.c      **** //    for(x=60; x<90;x++){
  93:.\main.c      **** //        Encabezado3[x]=EEPROM_1_ReadByte(16+x);
  94:.\main.c      **** //    }
  95:.\main.c      **** //    for(x=90; x<120;x++){
  96:.\main.c      **** //        Encabezado4[x]=EEPROM_1_ReadByte(16+x);
  97:.\main.c      **** //    }
  98:.\main.c      **** }
  99:.\main.c      **** 
 100:.\main.c      **** 
 101:.\main.c      **** /*
 102:.\main.c      **** ***************************************************************************************************
 103:.\main.c      **** *                                         void InitDisplay1(void)
 104:.\main.c      **** *
 105:.\main.c      **** * Description : Pregunta configuraciones al dispensador 
 106:.\main.c      **** *               
 107:.\main.c      **** *
 108:.\main.c      **** ***************************************************************************************************
 109:.\main.c      **** */
 110:.\main.c      **** void InitDisplay1(){      
 111:.\main.c      ****     uint8_t iniText[10]="Iniciando"; 
 112:.\main.c      ****     uint8_t Unit[10] = "S/D/Dupla ";
 113:.\main.c      ****     uint8_t Unit2[10] = "Quadrupla";
 114:.\main.c      ****     uint8_t Unit3[10] = "Sextupla";
 115:.\main.c      ****     uint8_t Unit4[10] = "Octupla";
 116:.\main.c      ****     uint8_t DisplayMode0[10] = "5-5-4     ";
 117:.\main.c      ****     uint8_t DisplayMode[10] = "6-6-4     ";
 118:.\main.c      ****     uint8_t DisplayMode2[10] = "7-7-5     ";
 119:.\main.c      ****     uint8_t DisplayMode3[10] = "8-7-5     ";
 120:.\main.c      ****     if(NumPositions == 2){
 121:.\main.c      ****         SetPicture(1,DISPLAY_INICIO0);         
 122:.\main.c      ****         ShowMessage(1,iniText,0);    
 123:.\main.c      ****         CyDelay(300);
 124:.\main.c      ****         if(UnitType == 0){
 125:.\main.c      ****             side.a.hoseNumber = UnitType+1;
 126:.\main.c      ****             side.b.hoseNumber = UnitType+1;
 127:.\main.c      ****             ShowMessage(1,Unit,0);  //Mostrar tipo de dispensador      
 128:.\main.c      ****         }
 129:.\main.c      ****         if(UnitType == 1){
 130:.\main.c      ****             side.a.hoseNumber = UnitType+1;
 131:.\main.c      ****             side.b.hoseNumber = UnitType+1;
 132:.\main.c      ****             ShowMessage(1,Unit2,0);
 133:.\main.c      ****         }
 134:.\main.c      ****         if(UnitType == 2){
 135:.\main.c      ****             side.a.hoseNumber = UnitType+1;
 136:.\main.c      ****             side.b.hoseNumber = UnitType+1;
 137:.\main.c      ****             ShowMessage(1,Unit3,0);
 138:.\main.c      ****         }
 139:.\main.c      ****         if(UnitType == 3){
 140:.\main.c      ****             side.a.hoseNumber = UnitType+1;
 141:.\main.c      ****             side.b.hoseNumber = UnitType+1;
 142:.\main.c      ****             ShowMessage(1,Unit4,0);
 143:.\main.c      ****         } 
 144:.\main.c      ****         if(DDMode == 0){
 145:.\main.c      ****             ShowMessage(1,DisplayMode0,22); //Mostrar modo de display
ARM GAS  C:\Users\RECEPC~1\AppData\Local\Temp\cc6Stwwd.s 			page 4


 146:.\main.c      ****             digits = 5;
 147:.\main.c      ****         }
 148:.\main.c      ****         if(DDMode == 1){
 149:.\main.c      ****             ShowMessage(1,DisplayMode,22); //Mostrar modo de display
 150:.\main.c      ****             digits = 6;
 151:.\main.c      ****         }
 152:.\main.c      ****         if(DDMode == 2){
 153:.\main.c      ****            ShowMessage(1,DisplayMode2,22);
 154:.\main.c      ****             digits = 7;
 155:.\main.c      ****         }
 156:.\main.c      ****         if(DDMode == 3){
 157:.\main.c      ****             ShowMessage(1,DisplayMode3,22);
 158:.\main.c      ****             digits = 8;
 159:.\main.c      ****         }        
 160:.\main.c      ****     }
 161:.\main.c      ****     if(NumPositions == 4){
 162:.\main.c      ****         SetPicture(1,DISPLAY_SELECCIONE_POSICION);        
 163:.\main.c      ****         ShowMessage(1,iniText,0);    
 164:.\main.c      ****         CyDelay(300);
 165:.\main.c      ****         if(UnitType == 0){
 166:.\main.c      ****             side.a.hoseNumber = UnitType+1;
 167:.\main.c      ****             side.b.hoseNumber = UnitType+1;
 168:.\main.c      ****             side.c.hoseNumber = UnitType+1;
 169:.\main.c      ****             side.d.hoseNumber = UnitType+1;
 170:.\main.c      ****             ShowMessage(1,Unit,0);  //Mostrar tipo de dispensador      
 171:.\main.c      ****         }
 172:.\main.c      ****         if(UnitType == 1){
 173:.\main.c      ****             side.a.hoseNumber = UnitType+1;
 174:.\main.c      ****             side.b.hoseNumber = UnitType+1;
 175:.\main.c      ****             side.c.hoseNumber = UnitType+1;
 176:.\main.c      ****             side.d.hoseNumber = UnitType+1;
 177:.\main.c      ****             ShowMessage(1,Unit2,0);
 178:.\main.c      ****         }
 179:.\main.c      ****         if(UnitType == 2){
 180:.\main.c      ****             side.a.hoseNumber = UnitType+1;
 181:.\main.c      ****             side.b.hoseNumber = UnitType+1;
 182:.\main.c      ****             side.c.hoseNumber = UnitType+1;
 183:.\main.c      ****             side.d.hoseNumber = UnitType+1;
 184:.\main.c      ****            ShowMessage(1,Unit3,0);
 185:.\main.c      ****         }
 186:.\main.c      ****         if(UnitType == 3){
 187:.\main.c      ****             side.a.hoseNumber = UnitType+1;
 188:.\main.c      ****             side.b.hoseNumber = UnitType+1;
 189:.\main.c      ****             side.c.hoseNumber = UnitType+1;
 190:.\main.c      ****             side.d.hoseNumber = UnitType+1;
 191:.\main.c      ****             ShowMessage(1,Unit4,0);
 192:.\main.c      ****         }    
 193:.\main.c      ****         if(DDMode == 1){
 194:.\main.c      ****             ShowMessage(1,DisplayMode,22); //Mostrar modo de display
 195:.\main.c      ****         }
 196:.\main.c      ****         if(DDMode == 2){
 197:.\main.c      ****            ShowMessage(1,DisplayMode2,22);
 198:.\main.c      ****         }
 199:.\main.c      ****     }        
 200:.\main.c      ****     if(NumPositions < 2){
 201:.\main.c      ****         SetPicture(1,DISPLAY_ERROR);        
 202:.\main.c      ****     }         
ARM GAS  C:\Users\RECEPC~1\AppData\Local\Temp\cc6Stwwd.s 			page 5


 203:.\main.c      **** }
 204:.\main.c      **** 
 205:.\main.c      **** /*
 206:.\main.c      **** ***************************************************************************************************
 207:.\main.c      **** *                                         void InitDisplay1(void)
 208:.\main.c      **** *
 209:.\main.c      **** * Description : Pregunta configuraciones al dispensador 
 210:.\main.c      **** *               
 211:.\main.c      **** *
 212:.\main.c      **** ***************************************************************************************************
 213:.\main.c      **** */
 214:.\main.c      **** void InitDisplay2(){      
 215:.\main.c      ****     if(NumPositions == 2){        
 216:.\main.c      ****         SetPicture(2,DISPLAY_INICIO0);  
 217:.\main.c      ****         flowDisplay2 = 0;
 218:.\main.c      ****     }
 219:.\main.c      ****     if(NumPositions == 4){
 220:.\main.c      ****         SetPicture(2,DISPLAY_SELECCIONE_POSICION);         
 221:.\main.c      ****     }        
 222:.\main.c      ****     if(NumPositions < 2){        
 223:.\main.c      ****         SetPicture(2,DISPLAY_ERROR);
 224:.\main.c      ****     }     
 225:.\main.c      ****     ShowMessage(2,MuxVersion,0);
 226:.\main.c      **** }
 227:.\main.c      **** 
 228:.\main.c      **** /*
 229:.\main.c      **** ***************************************************************************************************
 230:.\main.c      **** *                                         void InitPump(void)
 231:.\main.c      **** *
 232:.\main.c      **** * Description : Pregunta configuraciones al dispensador 
 233:.\main.c      **** *               
 234:.\main.c      **** *
 235:.\main.c      **** ***************************************************************************************************
 236:.\main.c      **** */
 237:.\main.c      **** void InitPump(){        
 238:.\main.c      ****     NumPositions = get_position();
 239:.\main.c      ****     if(NumPositions > 0){
 240:.\main.c      ****         if(!PumpIsInValidState(get_state(side.a.dir))){
 241:.\main.c      ****             SetPicture(1,DISPLAY_ERROR);
 242:.\main.c      ****             SetPicture(2,DISPLAY_ERROR);
 243:.\main.c      ****             NumPositions = 0;
 244:.\main.c      ****         }
 245:.\main.c      ****         if(!PumpIsInValidState(get_state(side.b.dir))){
 246:.\main.c      ****             SetPicture(1,DISPLAY_ERROR);
 247:.\main.c      ****             SetPicture(2,DISPLAY_ERROR);
 248:.\main.c      ****             NumPositions = 0;
 249:.\main.c      ****         }
 250:.\main.c      ****         if(PumpIsInValidState(get_state(side.a.dir)) && PumpIsInValidState(get_state(side.b.dir))){
 251:.\main.c      ****             NumPositions = get_position();
 252:.\main.c      ****             if(get_state(side.a.dir) ==0x06 && get_state(side.b.dir)==0x06){
 253:.\main.c      ****                 PumpCompleteConfiguration(side.a.dir);
 254:.\main.c      ****                 StoreConfiguration();            
 255:.\main.c      ****             }else{
 256:.\main.c      ****                 SetPicture(1,DISPLAY_BAJE_MANIJA);
 257:.\main.c      ****                 SetPicture(2,DISPLAY_BAJE_MANIJA);
 258:.\main.c      ****                 InitPump();                
 259:.\main.c      ****             }
ARM GAS  C:\Users\RECEPC~1\AppData\Local\Temp\cc6Stwwd.s 			page 6


 260:.\main.c      ****         }        
 261:.\main.c      ****     }
 262:.\main.c      ****     
 263:.\main.c      **** }
 264:.\main.c      **** /*
 265:.\main.c      **** ***************************************************************************************************
 266:.\main.c      **** *                                         void PrintTest(void)
 267:.\main.c      **** *
 268:.\main.c      **** * Description : Pregunta configuraciones al dispensador 
 269:.\main.c      **** *               
 270:.\main.c      **** *
 271:.\main.c      **** ***************************************************************************************************
 272:.\main.c      **** */
 273:.\main.c      **** void PrintTest(){
 274:.\main.c      ****     uint8 datoA[26]="Test de Impresion Puerto 1";
 275:.\main.c      ****     uint8 datoB[26]="Test de Impresion Puerto 2";
 276:.\main.c      ****     uint8 x;
 277:.\main.c      ****     for(x = 0; x<26;x++){
 278:.\main.c      ****         write_psoc1(1,datoA[x]);
 279:.\main.c      ****     }
 280:.\main.c      ****     write_psoc1(1,10);
 281:.\main.c      ****     write_psoc1(1,10);
 282:.\main.c      ****     write_psoc1(1,10);
 283:.\main.c      ****     write_psoc1(1,10);
 284:.\main.c      ****     write_psoc1(1,10);
 285:.\main.c      ****     write_psoc1(1,10);
 286:.\main.c      ****     for(x = 0; x<26;x++){
 287:.\main.c      ****         write_psoc1(2,datoB[x]);
 288:.\main.c      ****     }
 289:.\main.c      ****     write_psoc1(2,10);
 290:.\main.c      ****     write_psoc1(2,10);
 291:.\main.c      ****     write_psoc1(2,10);
 292:.\main.c      ****     write_psoc1(2,10);
 293:.\main.c      ****     write_psoc1(2,10);
 294:.\main.c      ****     write_psoc1(2,10);
 295:.\main.c      **** }
 296:.\main.c      **** 
 297:.\main.c      **** /*
 298:.\main.c      **** ***************************************************************************************************
 299:.\main.c      **** *                                         void polling_Pump(void)
 300:.\main.c      **** *
 301:.\main.c      **** * Description : Pregunta estado al surtidor 
 302:.\main.c      **** *               
 303:.\main.c      **** *
 304:.\main.c      **** ***************************************************************************************************
 305:.\main.c      **** */
 306:.\main.c      **** 
 307:.\main.c      **** void PollingPump(void){
 308:.\main.c      ****     uint8 x;
 309:.\main.c      ****     if(countPump>8){
 310:.\main.c      ****         if(flowDisplay1 == 0){
 311:.\main.c      ****             if(PumpIsInValidState(get_state(side.a.dir)) && PumpIsInValidState(get_state(side.b.dir
 312:.\main.c      ****                 for(x= 0; x < 4; x++){
 313:.\main.c      ****                     PrevStatePump[x] = statePump[x];
 314:.\main.c      ****                 }
 315:.\main.c      ****             }
 316:.\main.c      ****             if (NumPositions == 2){
ARM GAS  C:\Users\RECEPC~1\AppData\Local\Temp\cc6Stwwd.s 			page 7


 317:.\main.c      ****                 statePump[0] = get_state(side.a.dir);                 
 318:.\main.c      ****                 statePump[1] = get_state(side.b.dir);          
 319:.\main.c      ****             }
 320:.\main.c      ****             if (NumPositions == 4 ){
 321:.\main.c      ****                 statePump[0] = get_state(side.a.dir);               
 322:.\main.c      ****                 statePump[1] = get_state(side.b.dir);          
 323:.\main.c      ****                 statePump[2] = get_state(side.c.dir);        
 324:.\main.c      ****                 statePump[3] = get_state(side.d.dir);        
 325:.\main.c      ****             }
 326:.\main.c      ****             if (NumPositions == 0){
 327:.\main.c      ****                 InitPump();
 328:.\main.c      ****             }
 329:.\main.c      ****             if(!PumpIsInValidState(get_state(side.a.dir))){
 330:.\main.c      ****                 SetPicture(1,DISPLAY_ERROR);
 331:.\main.c      ****                 SetPicture(2,DISPLAY_ERROR);
 332:.\main.c      ****                 NumPositions = 0;
 333:.\main.c      ****                 flowDisplay1 = 0;
 334:.\main.c      ****                 flowDisplay2 = 0;
 335:.\main.c      ****             }
 336:.\main.c      ****             if(!PumpIsInValidState(get_state(side.b.dir))){
 337:.\main.c      ****                 SetPicture(1,DISPLAY_ERROR);
 338:.\main.c      ****                 SetPicture(2,DISPLAY_ERROR);
 339:.\main.c      ****                 NumPositions = 0;
 340:.\main.c      ****                 flowDisplay1 = 0;
 341:.\main.c      ****                 flowDisplay2 = 0;
 342:.\main.c      ****             }
 343:.\main.c      ****         }
 344:.\main.c      ****         if(ActiveRF == 0 && flowDisplay1 == 0){
 345:.\main.c      ****             if(get_state(side.a.dir)== PUMP_IDLE)
 346:.\main.c      ****                 getTotals(side.a.dir);
 347:.\main.c      ****             if(get_state(side.b.dir)== PUMP_IDLE)
 348:.\main.c      ****                 getTotals(side.b.dir);
 349:.\main.c      ****         }        
 350:.\main.c      ****         countPump=0;
 351:.\main.c      ****     }
 352:.\main.c      **** }
 353:.\main.c      **** /*
 354:.\main.c      **** ***************************************************************************************************
 355:.\main.c      **** *                                         void polling_Pump(void)
 356:.\main.c      **** *
 357:.\main.c      **** * Description : Pregunta estado al surtidor 
 358:.\main.c      **** *               
 359:.\main.c      **** *
 360:.\main.c      **** ***************************************************************************************************
 361:.\main.c      **** */
 362:.\main.c      **** 
 363:.\main.c      **** void PollingDisplay1(void){    
 364:.\main.c      ****     uint8 x,y;     
 365:.\main.c      ****     switch(flowDisplay1){
 366:.\main.c      ****         case 0:
 367:.\main.c      ****             InitDisplay1();
 368:.\main.c      ****             flowDisplay1 =1;
 369:.\main.c      ****             isr_3_Stop(); 
 370:.\main.c      ****             Timer_Animacion_Stop();
 371:.\main.c      ****             count_protector = 0;
 372:.\main.c      ****             bufferDisplay1.saleType = 0;
 373:.\main.c      ****             bufferDisplay1.flagEndSale = false;  
ARM GAS  C:\Users\RECEPC~1\AppData\Local\Temp\cc6Stwwd.s 			page 8


 374:.\main.c      ****             side.a.RFstateReport = 0;            
 375:.\main.c      ****         break;
 376:.\main.c      ****         case 1: //Menu
 377:.\main.c      ****             if(countRX >700){
 378:.\main.c      ****                 if(bufferDisplay1.flagPrint)
 379:.\main.c      ****                     imprimir(printPortA,side.a.dir);
 380:.\main.c      ****                 countRX = 0;
 381:.\main.c      ****             }
 382:.\main.c      ****             side.a.rfState = RF_IDLE;
 383:.\main.c      ****             if(Display1_GetRxBufferSize()==8){
 384:.\main.c      ****                 if((Display1_rxBuffer[0]==0xAA) && (Display1_rxBuffer[6]==0xC3) && (Display1_rxBuff
 385:.\main.c      ****                     flowDisplay1 = 2;      //Pantalla forma de pago                      
 386:.\main.c      ****                     SetPicture(1,DISPLAY_FORMA_PAGO_DESEADA);                                      
 387:.\main.c      ****                 }  
 388:.\main.c      ****                 CyDelay(10);         
 389:.\main.c      ****                 Display1_ClearRxBuffer();
 390:.\main.c      ****             }
 391:.\main.c      ****         break;
 392:.\main.c      ****         case 2:
 393:.\main.c      ****             if(Display1_GetRxBufferSize()==8){
 394:.\main.c      ****                 if((Display1_rxBuffer[0]==0xAA) && (Display1_rxBuffer[6]==0xC3) && (Display1_rxBuff
 395:.\main.c      ****                     switch(Display1_rxBuffer[3]){
 396:.\main.c      ****                         case 0x0D:  //Pantalla efectivo              
 397:.\main.c      ****                             flowDisplay1 = 3; 
 398:.\main.c      ****                             bufferDisplay1.saleType = 1;
 399:.\main.c      ****                             SetPicture(1,DISPLAY_FORMA_PROGRAMACION);                            
 400:.\main.c      ****                         break;
 401:.\main.c      ****                         case 0x0E:  //Pantalla credito  
 402:.\main.c      ****                             flowDisplay1 = 10;
 403:.\main.c      ****                             bufferDisplay1.saleType = 2;
 404:.\main.c      ****                             count_protector = 0;
 405:.\main.c      ****                             SetPicture(1,DISPLAY_ID_DIGITAL);                            
 406:.\main.c      ****                         break;
 407:.\main.c      ****                         case 0x45:  //Pantalla otras opciones 
 408:.\main.c      ****                             flowDisplay1 = 12;                            
 409:.\main.c      ****                             SetPicture(1,DISPLAY_OPERACIONES);                            
 410:.\main.c      ****                         break;
 411:.\main.c      ****                             
 412:.\main.c      ****                         case 0x94:  //Pantalla Inicial    
 413:.\main.c      ****                             flowDisplay1 = 0;
 414:.\main.c      ****                             SetPicture(1,DISPLAY_INICIO0);                            
 415:.\main.c      ****                         break;
 416:.\main.c      ****                         
 417:.\main.c      ****                         case 0x7E:  //Pantalla Inicial    
 418:.\main.c      ****                             flowDisplay1 = 0;
 419:.\main.c      ****                             SetPicture(1,DISPLAY_INICIO0);                            
 420:.\main.c      ****                         break;
 421:.\main.c      ****                     }
 422:.\main.c      ****                 }  
 423:.\main.c      ****                 CyDelay(10);         
 424:.\main.c      ****                 Display1_ClearRxBuffer();
 425:.\main.c      ****             }
 426:.\main.c      ****         break;
 427:.\main.c      ****             
 428:.\main.c      ****         case 3: 
 429:.\main.c      ****             if(Display1_GetRxBufferSize()==8){
 430:.\main.c      ****                 if((Display1_rxBuffer[0]==0xAA) && (Display1_rxBuffer[6]==0xC3) && (Display1_rxBuff
ARM GAS  C:\Users\RECEPC~1\AppData\Local\Temp\cc6Stwwd.s 			page 9


 431:.\main.c      ****                     switch(Display1_rxBuffer[3]){
 432:.\main.c      ****                         case 0x0F:  //Preset dinero                
 433:.\main.c      ****                             flowDisplay1 = 4;                              
 434:.\main.c      ****                             bufferDisplay1.presetType[0]=2;
 435:.\main.c      ****                             bufferDisplay1.presetType[1]='D';
 436:.\main.c      ****                             numberKeys1=0;
 437:.\main.c      ****                             SetPicture(1,DISPLAY_INTRODUZCA_VALOR);   
 438:.\main.c      ****                             WriteLCD(1,'$',3,2,1,0x0000,'N');
 439:.\main.c      ****                             if(MoneyDec>0){
 440:.\main.c      ****                                 flagPoint1=0;
 441:.\main.c      ****                             }else{
 442:.\main.c      ****                                 flagPoint1=1;
 443:.\main.c      ****                             }
 444:.\main.c      ****                         break; 
 445:.\main.c      ****                         case 0x10:  //Preset volumen                 
 446:.\main.c      ****                             flowDisplay1 = 4;                            
 447:.\main.c      ****                             bufferDisplay1.presetType[0]=1;
 448:.\main.c      ****                             bufferDisplay1.presetType[1]='V';
 449:.\main.c      ****                             numberKeys1=0;                            
 450:.\main.c      ****                             SetPicture(1,DISPLAY_INTRODUZCA_VOLUMEN);                            
 451:.\main.c      ****                             WriteLCD(1,'V',3,2,1,0x0000,'N');     
 452:.\main.c      ****                             if(VolDec>0){
 453:.\main.c      ****                                 flagPoint1=0;
 454:.\main.c      ****                             }else{
 455:.\main.c      ****                                 flagPoint1=1;
 456:.\main.c      ****                             }
 457:.\main.c      ****                         break;
 458:.\main.c      ****                         case 0x43:  //Preset full 
 459:.\main.c      ****                             bufferDisplay1.presetType[0]=2;
 460:.\main.c      ****                             bufferDisplay1.presetType[1]='F';
 461:.\main.c      ****                             for(x=1;x<(digits-1);x++){
 462:.\main.c      ****                                 bufferDisplay1.presetValue[0][x]='9';
 463:.\main.c      ****                             }
 464:.\main.c      ****                             bufferDisplay1.presetValue[0][x]='0';
 465:.\main.c      ****                             bufferDisplay1.presetValue[0][x+1]='0';
 466:.\main.c      ****                             bufferDisplay1.presetValue[0][0]=digits;
 467:.\main.c      ****                             for(x=0;x<=bufferDisplay1.presetValue[0][0];x++){
 468:.\main.c      ****                                 bufferDisplay1.presetValue[1][x]=bufferDisplay1.presetValue[0][x];
 469:.\main.c      ****                             }
 470:.\main.c      ****                             flowDisplay1 = 5;
 471:.\main.c      ****                             SetPicture(1,DISPLAY_SELECCIONE_PRODUCTO4);                          
 472:.\main.c      ****                         break;
 473:.\main.c      ****                         case 0x94:  //Retroceso 
 474:.\main.c      ****                             flowDisplay1 = 0;
 475:.\main.c      ****                             SetPicture(1,DISPLAY_INICIO0);                                         
 476:.\main.c      ****                         break;
 477:.\main.c      ****                         case 0x3B:  //Pantalla Inicial    
 478:.\main.c      ****                             flowDisplay1 = 0;
 479:.\main.c      ****                             SetPicture(1,DISPLAY_INICIO0);                            
 480:.\main.c      ****                         break;
 481:.\main.c      ****                         case 0x7E:  //Pantalla Inicial    
 482:.\main.c      ****                             flowDisplay1 = 0;
 483:.\main.c      ****                             SetPicture(1,DISPLAY_INICIO0);                            
 484:.\main.c      ****                         break;
 485:.\main.c      ****                     }
 486:.\main.c      ****                 }  
 487:.\main.c      ****                 CyDelay(10);         
ARM GAS  C:\Users\RECEPC~1\AppData\Local\Temp\cc6Stwwd.s 			page 10


 488:.\main.c      ****                 Display1_ClearRxBuffer();
 489:.\main.c      ****             }
 490:.\main.c      ****         break;
 491:.\main.c      ****         
 492:.\main.c      ****         case 4:            
 493:.\main.c      ****             switch (alphanumeric_keyboard(1,digits,0)){
 494:.\main.c      ****                 case 0:  //Pantalla Inicial    
 495:.\main.c      ****                     flowDisplay1 = 0;
 496:.\main.c      ****                     SetPicture(1,DISPLAY_INICIO0);                            
 497:.\main.c      ****                 break;
 498:.\main.c      ****                     
 499:.\main.c      ****                 case 1: //Enter
 500:.\main.c      ****                     for(x=0;x<=bufferDisplay1.valueKeys[0];x++){
 501:.\main.c      ****                         bufferDisplay1.presetValue[0][x]=bufferDisplay1.valueKeys[x];
 502:.\main.c      ****                         bufferDisplay1.presetValue[1][x]=bufferDisplay1.valueKeys[x];
 503:.\main.c      ****                     }  
 504:.\main.c      ****                     flowDisplay1 = 5;//caso para seleccion de producto
 505:.\main.c      ****                     SetPicture(1,DISPLAY_SELECCIONE_PRODUCTO4);
 506:.\main.c      ****                 break;
 507:.\main.c      ****             }
 508:.\main.c      ****         break;
 509:.\main.c      ****             
 510:.\main.c      ****         case 5:
 511:.\main.c      ****             if(Display1_GetRxBufferSize()==8){
 512:.\main.c      ****                 if((Display1_rxBuffer[0]==0xAA) && (Display1_rxBuffer[6]==0xC3) && (Display1_rxBuff
 513:.\main.c      ****                     switch(Display1_rxBuffer[3]){
 514:.\main.c      ****                         case 0x80:  //Grado 1 
 515:.\main.c      ****                             flowDisplay1 = 6;
 516:.\main.c      ****                             side.a.hose = 1;
 517:.\main.c      ****                             SetPicture(1,DISPLAY_DESEA_IMPRIMIR_RECIBO);                           
 518:.\main.c      ****                         break;
 519:.\main.c      ****                             
 520:.\main.c      ****                         case 0x81:  //Grado 2 
 521:.\main.c      ****                             flowDisplay1 = 6;
 522:.\main.c      ****                             side.a.hose = 2;
 523:.\main.c      ****                             SetPicture(1,DISPLAY_DESEA_IMPRIMIR_RECIBO);                           
 524:.\main.c      ****                         break;
 525:.\main.c      ****                             
 526:.\main.c      ****                         case 0x7F:  //Grado 3
 527:.\main.c      ****                             flowDisplay1 = 6;
 528:.\main.c      ****                             side.a.hose = 3;
 529:.\main.c      ****                             SetPicture(1,DISPLAY_DESEA_IMPRIMIR_RECIBO);                           
 530:.\main.c      ****                         break;   
 531:.\main.c      ****                         
 532:.\main.c      ****                         case 0xB8:  //Grado 4 
 533:.\main.c      ****                             flowDisplay1 = 6;
 534:.\main.c      ****                             side.a.hose = 4;
 535:.\main.c      ****                             SetPicture(1,DISPLAY_DESEA_IMPRIMIR_RECIBO);                           
 536:.\main.c      ****                         break;
 537:.\main.c      ****                             
 538:.\main.c      ****                         case 0x94:  //Retroceso 
 539:.\main.c      ****                             flowDisplay1 = 0;
 540:.\main.c      ****                             SetPicture(1,DISPLAY_INICIO0);                                         
 541:.\main.c      ****                         break;
 542:.\main.c      ****                             
 543:.\main.c      ****                         case 0x7E:  //Pantalla Inicial                                             
 544:.\main.c      ****                             SetPicture(1,DISPLAY_INICIO0);
ARM GAS  C:\Users\RECEPC~1\AppData\Local\Temp\cc6Stwwd.s 			page 11


 545:.\main.c      ****                             flowDisplay1 = 0;
 546:.\main.c      ****                         break;
 547:.\main.c      ****                     }                    
 548:.\main.c      ****                 }
 549:.\main.c      ****                 CyDelay(10);         
 550:.\main.c      ****                 Display1_ClearRxBuffer();
 551:.\main.c      ****             }
 552:.\main.c      ****         break;
 553:.\main.c      ****                     
 554:.\main.c      ****         case 6:
 555:.\main.c      ****             isr_3_StartEx(animacion);
 556:.\main.c      ****             Timer_Animacion_Start();
 557:.\main.c      ****             if(Display1_GetRxBufferSize()==8){
 558:.\main.c      ****                 if((Display1_rxBuffer[0]==0xAA) && (Display1_rxBuffer[6]==0xC3) && (Display1_rxBuff
 559:.\main.c      ****                     switch(Display1_rxBuffer[3]){
 560:.\main.c      ****                         case 0x39:  //Si imprimir  
 561:.\main.c      ****                             flowDisplay1 = 9;
 562:.\main.c      ****                             numberKeys1 = 0;
 563:.\main.c      ****                             bufferDisplay1.flagKeyboard = 1;
 564:.\main.c      ****                             bufferDisplay1.flagPrint =  1;
 565:.\main.c      ****                             SetPicture(1,DISPLAY_DIGITE_PLACA);                            
 566:.\main.c      ****                         break; 
 567:.\main.c      ****                         case 0x38:  //No imprimir 
 568:.\main.c      ****                             if(bufferDisplay1.flagEndSale){
 569:.\main.c      ****                                 flowDisplay1 = 0;
 570:.\main.c      ****                                 SetPicture(1,DISPLAY_INICIO0);
 571:.\main.c      ****                             }else{
 572:.\main.c      ****                                 flowDisplay1 = 7;//Esperando estado del dispensador 
 573:.\main.c      ****                                 bufferDisplay1.flagPrint =  0;
 574:.\main.c      ****                                 count_protector=0;
 575:.\main.c      ****                                 SetPicture(1,DISPLAY_SUBA_MANIJA);
 576:.\main.c      ****                             }
 577:.\main.c      ****                         break;
 578:.\main.c      ****                         case 0x7E:  //Pantalla Inicial                                             
 579:.\main.c      ****                             flowDisplay1 = 0;
 580:.\main.c      ****                             SetPicture(1,DISPLAY_INICIO0);
 581:.\main.c      ****                         break;
 582:.\main.c      ****                     }                    
 583:.\main.c      ****                 }
 584:.\main.c      ****                 CyDelay(10);         
 585:.\main.c      ****                 Display1_ClearRxBuffer();
 586:.\main.c      ****             }
 587:.\main.c      ****             if(count_protector>=30){
 588:.\main.c      ****                 flowDisplay1 = 0;	
 589:.\main.c      ****     			count_protector=0;
 590:.\main.c      ****                 SetPicture(1,DISPLAY_INICIO0);
 591:.\main.c      ****     		}
 592:.\main.c      ****         break;
 593:.\main.c      ****                                         
 594:.\main.c      ****             
 595:.\main.c      ****         case 7:
 596:.\main.c      ****             //isr_3_StartEx(animacion);
 597:.\main.c      ****             //Timer_Animacion_Start();
 598:.\main.c      ****             side.a.activeHose = PumpHoseActiveState(side.a.dir);  
 599:.\main.c      ****             if (side.a.activeHose == side.a.hose){                
 600:.\main.c      ****                 if(PresetData(side.a.dir,side.a.activeHose,bufferDisplay1.presetValue[0],bufferDisp
 601:.\main.c      ****                     isr_3_Stop(); 
ARM GAS  C:\Users\RECEPC~1\AppData\Local\Temp\cc6Stwwd.s 			page 12


 602:.\main.c      ****                     Timer_Animacion_Stop();
 603:.\main.c      ****                     get_state(side.a.dir);
 604:.\main.c      ****                     //CyDelay(20);
 605:.\main.c      ****                     Pump_PutChar(0x10|side.a.dir);//Autoriza el surtidor
 606:.\main.c      ****                     //CyDelay(50);
 607:.\main.c      ****                     side.a.RFstateReport = 1;
 608:.\main.c      ****                     flowDisplay1 = 8;                    
 609:.\main.c      ****                     count_protector = 0;                    
 610:.\main.c      ****                     bufferDisplay1.flagActiveSale = true;
 611:.\main.c      ****                     SetPicture(1,DISPLAY_DESPACHANDO);   
 612:.\main.c      ****                     ShowMessage(1,(bufferDisplay1.presetValue[1]),18);
 613:.\main.c      ****                 }else{
 614:.\main.c      ****                     flowDisplay1 = 0;
 615:.\main.c      ****                     SetPicture(1,DISPLAY_ERROR);
 616:.\main.c      ****                     CyDelay(200);
 617:.\main.c      ****                     SetPicture(1,DISPLAY_INICIO0);
 618:.\main.c      ****                 }
 619:.\main.c      ****             }else{
 620:.\main.c      ****                 flowDisplay1 = 7;                
 621:.\main.c      **** //                if(count_protector>=60){
 622:.\main.c      **** //                    flowDisplay1 = 0;	
 623:.\main.c      **** //        			count_protector=0;
 624:.\main.c      **** //                    SetPicture(1,DISPLAY_INICIO0);
 625:.\main.c      **** //        		}
 626:.\main.c      ****             }
 627:.\main.c      ****             if(Display1_GetRxBufferSize()==8){
 628:.\main.c      ****                 if((Display1_rxBuffer[0]==0xAA) && (Display1_rxBuffer[6]==0xC3) && (Display1_rxBuff
 629:.\main.c      ****                     switch(Display1_rxBuffer[3]){                        
 630:.\main.c      ****                         case 0x7E:  //Pantalla Inicial                                             
 631:.\main.c      ****                             SetPicture(1,DISPLAY_INICIO0);
 632:.\main.c      ****                             flowDisplay1 = 0;
 633:.\main.c      ****                         break;
 634:.\main.c      ****                     }                    
 635:.\main.c      ****                 }
 636:.\main.c      ****                 CyDelay(10);                         
 637:.\main.c      ****             }
 638:.\main.c      ****             Display1_ClearRxBuffer();
 639:.\main.c      ****         break;
 640:.\main.c      ****             
 641:.\main.c      ****         case 8:            
 642:.\main.c      ****             side.a.pumpState = get_state(side.a.dir);
 643:.\main.c      ****             switch (side.a.pumpState){
 644:.\main.c      ****                 case PUMP_IDLE://Espera - venta cero
 645:.\main.c      ****                     flowDisplay1 = 0;
 646:.\main.c      ****                     side.a.rfState = RF_ZERO_SALE;
 647:.\main.c      ****                     bufferDisplay1.flagActiveSale = false;
 648:.\main.c      ****                     SetPicture(1,DISPLAY_INICIO0);
 649:.\main.c      ****                 break;
 650:.\main.c      ****                 case PUMP_BUSY://Surtiendo                    
 651:.\main.c      ****                     bufferDisplay1.flagActiveSale = true;
 652:.\main.c      ****                     bufferDisplay1.flagEndSale = false;
 653:.\main.c      ****                     //side.a.rfState = RF_DELIVERING;
 654:.\main.c      ****                 break;
 655:.\main.c      ****                 case PUMP_PEOT: //reporte fin venta                    
 656:.\main.c      ****                     if(getSale(side.a.dir)){
 657:.\main.c      ****                         if(bufferDisplay1.flagPrint ==1){                             
 658:.\main.c      ****                             bufferDisplay1.flagEndSale = true;
ARM GAS  C:\Users\RECEPC~1\AppData\Local\Temp\cc6Stwwd.s 			page 13


 659:.\main.c      ****                             flowDisplay1 = 0;                            
 660:.\main.c      ****                             SetPicture(1,DISPLAY_INICIO0); 
 661:.\main.c      ****                         }else{
 662:.\main.c      ****                             flowDisplay1 = 6;
 663:.\main.c      ****                             bufferDisplay1.flagEndSale = true;
 664:.\main.c      ****                             SetPicture(1,DISPLAY_DESEA_IMPRIMIR_RECIBO); 
 665:.\main.c      ****                         }                        
 666:.\main.c      ****                         bufferDisplay1.flagActiveSale = false;
 667:.\main.c      ****                         side.a.RFstateReport = 1;
 668:.\main.c      ****                     }                                         
 669:.\main.c      ****                 break;
 670:.\main.c      ****                 case PUMP_FEOT://Reporte de venta
 671:.\main.c      ****                     if(getSale(side.a.dir)){
 672:.\main.c      ****                         if(bufferDisplay1.flagPrint ==1){   
 673:.\main.c      ****                             bufferDisplay1.flagEndSale = true;
 674:.\main.c      ****                             flowDisplay1 = 0;
 675:.\main.c      ****                             SetPicture(1,DISPLAY_INICIO0); 
 676:.\main.c      ****                         }else{
 677:.\main.c      ****                             flowDisplay1 = 6;
 678:.\main.c      ****                             bufferDisplay1.flagEndSale = true;
 679:.\main.c      ****                             SetPicture(1,DISPLAY_DESEA_IMPRIMIR_RECIBO); 
 680:.\main.c      ****                         }
 681:.\main.c      ****                         bufferDisplay1.flagActiveSale = false;
 682:.\main.c      ****                         side.a.RFstateReport = 1;
 683:.\main.c      ****                     }
 684:.\main.c      ****                 break;
 685:.\main.c      ****                 
 686:.\main.c      ****             }
 687:.\main.c      ****             
 688:.\main.c      ****         break;
 689:.\main.c      ****             
 690:.\main.c      ****         case 9: //Teclado           
 691:.\main.c      ****             switch (alphanumeric_keyboard(1,10,0)){
 692:.\main.c      ****                 case 0: //Cancelar
 693:.\main.c      ****                     switch(bufferDisplay1.flagKeyboard){
 694:.\main.c      ****                         case 1://Placa
 695:.\main.c      ****                             for(x=0;x<=10;x++){
 696:.\main.c      ****                                 bufferDisplay1.licenceSale[x]=0;
 697:.\main.c      ****                             }
 698:.\main.c      ****                             flowDisplay1 = 0;//Inicio
 699:.\main.c      ****                             SetPicture(1,DISPLAY_INICIO0);
 700:.\main.c      ****                         break;
 701:.\main.c      ****                         
 702:.\main.c      ****                         case 2://Kilometraje
 703:.\main.c      ****                             for(x=0;x<=10;x++){
 704:.\main.c      ****                                 bufferDisplay1.mileageSale[x]=0;
 705:.\main.c      ****                             }
 706:.\main.c      ****                         break;
 707:.\main.c      ****                         
 708:.\main.c      ****                         case 3://CC/NIT
 709:.\main.c      ****                             for(x=0;x<=10;x++){
 710:.\main.c      ****                                 bufferDisplay1.identySale[x]=0;
 711:.\main.c      ****                             }
 712:.\main.c      ****                         break;
 713:.\main.c      ****                         case 4://ID
 714:.\main.c      ****                             for(x=0;x<=10;x++){
 715:.\main.c      ****                                 bufferDisplay1.shiftId[x]=0;
ARM GAS  C:\Users\RECEPC~1\AppData\Local\Temp\cc6Stwwd.s 			page 14


 716:.\main.c      ****                             }
 717:.\main.c      ****                         break;
 718:.\main.c      ****                     }                    
 719:.\main.c      ****                     Display1_ClearRxBuffer();
 720:.\main.c      ****                 break;
 721:.\main.c      ****                     
 722:.\main.c      ****                 case 1: //Enter
 723:.\main.c      ****                     switch(bufferDisplay1.flagKeyboard){
 724:.\main.c      ****                         case 1://Placa
 725:.\main.c      ****                             for(x=0;x<=bufferDisplay1.valueKeys[0];x++){
 726:.\main.c      ****                                 bufferDisplay1.licenceSale[x]=bufferDisplay1.valueKeys[x];
 727:.\main.c      ****                             }
 728:.\main.c      ****                             if(bufferDisplay1.flagEndSale){
 729:.\main.c      ****                                 imprimir(printPortA,side.a.dir);
 730:.\main.c      ****                                 flowDisplay1 = 0;
 731:.\main.c      ****                                 SetPicture(1,DISPLAY_INICIO0); 
 732:.\main.c      ****                             }else{
 733:.\main.c      ****                                 flowDisplay1 = 7;//Suba manija
 734:.\main.c      ****                                 SetPicture(1,DISPLAY_SUBA_MANIJA);
 735:.\main.c      ****                             }
 736:.\main.c      ****                         break;
 737:.\main.c      ****                         
 738:.\main.c      ****                         case 2://Kilometraje
 739:.\main.c      ****                             for(x=0;x<=bufferDisplay1.valueKeys[0];x++){
 740:.\main.c      ****                                 bufferDisplay1.mileageSale[x]=bufferDisplay1.valueKeys[x];
 741:.\main.c      ****                             }
 742:.\main.c      ****                             flowDisplay1 = 7;//Suba manija
 743:.\main.c      ****                             SetPicture(1,DISPLAY_SUBA_MANIJA);
 744:.\main.c      ****                         break;
 745:.\main.c      ****                         
 746:.\main.c      ****                         case 3://CC/NIT
 747:.\main.c      ****                             for(x=0;x<=bufferDisplay1.valueKeys[0];x++){
 748:.\main.c      ****                                 bufferDisplay1.identySale[x]=bufferDisplay1.valueKeys[x];
 749:.\main.c      ****                             }
 750:.\main.c      ****                         case 4://ID
 751:.\main.c      ****                             for(x=0;x<=10;x++){
 752:.\main.c      ****                                 bufferDisplay1.shiftId[x] =bufferDisplay1.valueKeys[x];
 753:.\main.c      ****                             }
 754:.\main.c      ****                             flowDisplay1 = 14;//Pide clave                            
 755:.\main.c      ****                             numberKeys1 = 0;
 756:.\main.c      ****                             hiddenKeys = 10;
 757:.\main.c      ****                             controlChar ='*';
 758:.\main.c      ****                             bufferDisplay1.flagKeyboard = 3;
 759:.\main.c      ****                             SetPicture(1,DISPLAY_INGRESE_PASSWORD);
 760:.\main.c      ****                         break;
 761:.\main.c      ****                     }                    
 762:.\main.c      ****                     Display1_ClearRxBuffer();
 763:.\main.c      ****                 break;
 764:.\main.c      ****             }            
 765:.\main.c      ****         break;    
 766:.\main.c      ****     ////////////////// CASOS PARA CRDITO  /////////////////////
 767:.\main.c      ****         case 10:
 768:.\main.c      ****             if(Display1_GetRxBufferSize()==8){
 769:.\main.c      ****                 if((Display1_rxBuffer[0]==0xAA) && (Display1_rxBuffer[6]==0xC3) && (Display1_rxBuff
 770:.\main.c      ****                     switch(Display1_rxBuffer[3]){
 771:.\main.c      ****                         case 0xB6:  //Solicitud ibutton  
 772:.\main.c      ****                             flowDisplay1 = 11;
ARM GAS  C:\Users\RECEPC~1\AppData\Local\Temp\cc6Stwwd.s 			page 15


 773:.\main.c      ****                             numberKeys1 = 0;                            
 774:.\main.c      ****                             bufferDisplay1.flagPrint =  1;
 775:.\main.c      ****                             SetPicture(1,DISPLAY_ESPERANDO_ID);                            
 776:.\main.c      ****                         break; 
 777:.\main.c      ****                         case 0xB7:  //ID por nmero
 778:.\main.c      ****                             bufferDisplay1.flagKeyboard = 0;
 779:.\main.c      ****                             flowDisplay1 = 7;//Esperando estado del dispensador  
 780:.\main.c      ****                             count_protector=0;
 781:.\main.c      ****                             SetPicture(1,DISPLAY_SUBA_MANIJA);                            
 782:.\main.c      ****                         break;
 783:.\main.c      ****                         case 0x94:  //Pantalla Inicial    
 784:.\main.c      ****                             flowDisplay1 = 0;
 785:.\main.c      ****                             SetPicture(1,DISPLAY_INICIO0);                            
 786:.\main.c      ****                         break;
 787:.\main.c      ****                         case 0x7E:  //Pantalla Inicial                                             
 788:.\main.c      ****                             SetPicture(1,DISPLAY_INICIO0);
 789:.\main.c      ****                             flowDisplay1 = 0;
 790:.\main.c      ****                         break;
 791:.\main.c      ****                     }                    
 792:.\main.c      ****                 }
 793:.\main.c      ****                 CyDelay(10);         
 794:.\main.c      ****                 Display1_ClearRxBuffer();
 795:.\main.c      ****             }                        
 796:.\main.c      ****         break;
 797:.\main.c      ****         
 798:.\main.c      ****         case 11:
 799:.\main.c      ****             isr_3_StartEx(animacion);
 800:.\main.c      ****             Timer_Animacion_Start();
 801:.\main.c      ****             if(touch_present(1)==1){
 802:.\main.c      **** 				if(touch_write(1,0x33)){
 803:.\main.c      **** 					for(x=1;x<=8;x++){
 804:.\main.c      **** 						temporal[x]=touch_read_byte(1);
 805:.\main.c      **** 					}
 806:.\main.c      **** 					y=0;
 807:.\main.c      **** 					for(x=1;x<8;x++){
 808:.\main.c      ****                         y=crc_check(y,temporal[x]);
 809:.\main.c      ****                     }
 810:.\main.c      **** 					if(y==temporal[8]){
 811:.\main.c      **** 						bufferDisplay1.idSerial[0]=16;
 812:.\main.c      **** 						y=16;
 813:.\main.c      **** 						for(x=1;x<=8;x++){
 814:.\main.c      **** 							if((temporal[x]&0x0F)>=10){
 815:.\main.c      **** 								bufferDisplay1.idSerial[y]=(temporal[x]&0x0F)+55;
 816:.\main.c      **** 							}else{
 817:.\main.c      **** 								bufferDisplay1.idSerial[y]=(temporal[x]&0x0F)+48;				
 818:.\main.c      **** 							}
 819:.\main.c      ****                             y--;
 820:.\main.c      **** 							if(((temporal[x]>>4)&0x0F)>=10){
 821:.\main.c      **** 								bufferDisplay1.idSerial[y]=((temporal[x]>>4)&0x0F)+55;
 822:.\main.c      **** 							}else{
 823:.\main.c      **** 								bufferDisplay1.idSerial[y]=((temporal[x]>>4)&0x0F)+48;				
 824:.\main.c      **** 							}
 825:.\main.c      ****                             y--;
 826:.\main.c      **** 						}                        
 827:.\main.c      ****                         SetPicture(1,DISPLAY_ID_RECONOCIDO);                                       
 828:.\main.c      ****                         Display1_ClearRxBuffer();
 829:.\main.c      ****                         CyDelay(700);
ARM GAS  C:\Users\RECEPC~1\AppData\Local\Temp\cc6Stwwd.s 			page 16


 830:.\main.c      ****                         bufferDisplay1.flagKeyboard = 2;
 831:.\main.c      ****                         flowDisplay1 = 9;
 832:.\main.c      ****                         SetPicture(1,DISPLAY_INTRODUZCA_KILOMETRAJE);
 833:.\main.c      ****                         
 834:.\main.c      **** 					}
 835:.\main.c      **** 				}
 836:.\main.c      **** 			}
 837:.\main.c      ****             if(count_protector>=60){
 838:.\main.c      ****                 flowDisplay1 = 0;	
 839:.\main.c      ****     			count_protector=0;
 840:.\main.c      ****                 SetPicture(1,DISPLAY_INICIO0);
 841:.\main.c      ****     		}
 842:.\main.c      ****                                     
 843:.\main.c      ****         break;    
 844:.\main.c      ****     ///////////////FIN CASOS PARA CRDITO  /////////////////////  
 845:.\main.c      ****     
 846:.\main.c      ****     //////////// CASOS PARA CONFIGURACIONES  ///////////////////
 847:.\main.c      ****         case 12:
 848:.\main.c      ****             if(Display1_GetRxBufferSize()==8){
 849:.\main.c      ****                 if((Display1_rxBuffer[0]==0xAA) && (Display1_rxBuffer[6]==0xC3) && (Display1_rxBuff
 850:.\main.c      ****                     switch(Display1_rxBuffer[3]){
 851:.\main.c      ****                         case 0x46:  //Turnos              
 852:.\main.c      ****                             flowDisplay1 = 13; 
 853:.\main.c      ****                             if(lockTurn ==1){
 854:.\main.c      ****                                 SetPicture(1,DISPLAY_CERRAR_TURNO);
 855:.\main.c      ****                             }else{
 856:.\main.c      ****                                 SetPicture(1,DISPLAY_ABRIR_TURNO);
 857:.\main.c      ****                             }                            
 858:.\main.c      ****                         break;
 859:.\main.c      ****                         case 0x55:  //Configurar mdulo 
 860:.\main.c      ****                             flowDisplay1 = 14;
 861:.\main.c      ****                             bufferDisplay1.flagKeyboard = 6;
 862:.\main.c      ****                             numberKeys1 = 0;
 863:.\main.c      ****                             hiddenKeys = 5;
 864:.\main.c      ****                             controlChar ='*';
 865:.\main.c      ****                             SetPicture(1,DISPLAY_INGRESE_PASSWORD);                           
 866:.\main.c      ****                         break;
 867:.\main.c      ****                         case 0xB5:  //Copia de recibo 
 868:.\main.c      ****                             flowDisplay1  = 0;
 869:.\main.c      ****                             side.a.RFstateReport = 1;
 870:.\main.c      ****                             side.a.rfState = RF_COPY_RECEIPT;
 871:.\main.c      ****                             SetPicture(1,DISPLAY_INICIO0);                            
 872:.\main.c      ****                         break;
 873:.\main.c      ****                         
 874:.\main.c      ****                         case 0x3B:  //Pantalla Inicial    
 875:.\main.c      ****                             flowDisplay1 = 0;
 876:.\main.c      ****                             SetPicture(1,DISPLAY_INICIO0);                            
 877:.\main.c      ****                         break;
 878:.\main.c      ****                             
 879:.\main.c      ****                         case 0x94:  //Pantalla Inicial    
 880:.\main.c      ****                             flowDisplay1 = 0;
 881:.\main.c      ****                             SetPicture(1,DISPLAY_INICIO0);                            
 882:.\main.c      ****                         break;
 883:.\main.c      ****                         
 884:.\main.c      ****                         case 0x7E:  //Pantalla Inicial    
 885:.\main.c      ****                             flowDisplay1 = 0;
 886:.\main.c      ****                             SetPicture(1,DISPLAY_INICIO0);                            
ARM GAS  C:\Users\RECEPC~1\AppData\Local\Temp\cc6Stwwd.s 			page 17


 887:.\main.c      ****                         break;
 888:.\main.c      ****                     }
 889:.\main.c      ****                 }  
 890:.\main.c      ****                 CyDelay(10);         
 891:.\main.c      ****                 Display1_ClearRxBuffer();
 892:.\main.c      ****             }
 893:.\main.c      ****         break;
 894:.\main.c      **** 
 895:.\main.c      ****         case 13:
 896:.\main.c      ****             if(Display1_GetRxBufferSize()==8){
 897:.\main.c      ****                 if((Display1_rxBuffer[0]==0xAA) && (Display1_rxBuffer[6]==0xC3) && (Display1_rxBuff
 898:.\main.c      ****                     switch(Display1_rxBuffer[3]){
 899:.\main.c      ****                         case 0x47:  //Cambio de turno: Abrir  
 900:.\main.c      ****                             flowDisplay1 = 9;
 901:.\main.c      ****                             numberKeys1 = 0;    
 902:.\main.c      ****                             bufferDisplay1.flagKeyboard = 4;
 903:.\main.c      ****                             SetPicture(1,DISPLAY_INTRODUZCA_CEDULA);                            
 904:.\main.c      ****                         break;
 905:.\main.c      ****                         case 0x48:  //Cambio de turno: Cerrar 
 906:.\main.c      ****                             flowDisplay1 = 9;
 907:.\main.c      ****                             numberKeys1 = 0;   
 908:.\main.c      ****                             bufferDisplay1.flagKeyboard = 4;
 909:.\main.c      ****                             SetPicture(1,DISPLAY_INTRODUZCA_CEDULA);                           
 910:.\main.c      ****                         break;                         
 911:.\main.c      ****                         case 0x7E:  //Pantalla Inicial                                             
 912:.\main.c      ****                             SetPicture(1,DISPLAY_INICIO0);
 913:.\main.c      ****                             flowDisplay1 = 0;
 914:.\main.c      ****                         break;
 915:.\main.c      ****                         case 0x94:  //Pantalla Inicial                                             
 916:.\main.c      ****                             SetPicture(1,DISPLAY_INICIO0);
 917:.\main.c      ****                             flowDisplay1 = 0;
 918:.\main.c      ****                         break;
 919:.\main.c      ****                     }                    
 920:.\main.c      ****                 }
 921:.\main.c      ****                 CyDelay(10);         
 922:.\main.c      ****                 Display1_ClearRxBuffer();
 923:.\main.c      ****             }                        
 924:.\main.c      ****         break; 
 925:.\main.c      ****             
 926:.\main.c      ****         case 14: //Teclado general      
 927:.\main.c      ****             switch (alphanumeric_keyboard(1,hiddenKeys,controlChar)){
 928:.\main.c      ****                 case 0: //Cancelar
 929:.\main.c      ****                     switch(bufferDisplay1.flagKeyboard){
 930:.\main.c      ****                         case 1://ID Estacion
 931:.\main.c      ****                             for(x=0;x<=4;x++){
 932:.\main.c      ****                                 idStation[x]=0;
 933:.\main.c      ****                             }
 934:.\main.c      ****                             flowDisplay1 = 0;
 935:.\main.c      ****                             SetPicture(1,DISPLAY_INICIO0);
 936:.\main.c      ****                         break;
 937:.\main.c      ****                         case 2://Umbral
 938:.\main.c      ****                             for(x=0;x< hiddenKeys;x++){
 939:.\main.c      ****                                 pumpGap[x]=0;
 940:.\main.c      ****                             }
 941:.\main.c      ****                             flowDisplay1 = 0;
 942:.\main.c      ****                             SetPicture(1,DISPLAY_INICIO0);
 943:.\main.c      ****                         break;
ARM GAS  C:\Users\RECEPC~1\AppData\Local\Temp\cc6Stwwd.s 			page 18


 944:.\main.c      ****                         case 3://Pass turno
 945:.\main.c      ****                             for(x=0;x< hiddenKeys;x++){
 946:.\main.c      ****                                 bufferDisplay1.shiftPassword[x]=0;
 947:.\main.c      ****                             }
 948:.\main.c      ****                             flowDisplay1 = 0;
 949:.\main.c      ****                             SetPicture(1,DISPLAY_INICIO0);
 950:.\main.c      ****                         break;
 951:.\main.c      ****                         case 5://Pass
 952:.\main.c      ****                             for(x=0;x< hiddenKeys;x++){
 953:.\main.c      ****                                 bufferDisplay1.shiftPassword[x]=0;
 954:.\main.c      ****                             }
 955:.\main.c      ****                             flowDisplay1 = 0;
 956:.\main.c      ****                             SetPicture(1,DISPLAY_INICIO0);
 957:.\main.c      ****                         break;
 958:.\main.c      ****                             
 959:.\main.c      ****                         case 6://Pass
 960:.\main.c      ****                             for(x=1;x<=configAccess[0];x++){
 961:.\main.c      ****                                 configAccess[x]=0;
 962:.\main.c      ****                             }
 963:.\main.c      ****                             flowDisplay1 = 0;
 964:.\main.c      ****                             SetPicture(1,DISPLAY_INICIO0);
 965:.\main.c      ****                         break;
 966:.\main.c      ****                     }                    
 967:.\main.c      ****                     Display1_ClearRxBuffer();
 968:.\main.c      ****                 break;
 969:.\main.c      ****                     
 970:.\main.c      ****                 case 1: //Enter
 971:.\main.c      ****                     switch(bufferDisplay1.flagKeyboard){   
 972:.\main.c      ****                         case 1://ID Estacion
 973:.\main.c      ****                             for(x=0;x <=4;x++){
 974:.\main.c      ****                                 idStation[x] =bufferDisplay1.valueKeys[x+1];                       
 975:.\main.c      ****                             }
 976:.\main.c      ****                             idStation[4] = 0x00;
 977:.\main.c      ****                             intIDStation = atoi(idStation);
 978:.\main.c      ****                             IDCast[0] = intIDStation;
 979:.\main.c      ****                             IDCast[1] = intIDStation>>8;
 980:.\main.c      ****                             EEPROM_1_WriteByte(IDCast[0],10);
 981:.\main.c      ****                             EEPROM_1_WriteByte(IDCast[1],11);
 982:.\main.c      ****                             flowDisplay1 = 15;
 983:.\main.c      ****                             SetPicture(1,DISPLAY_CONFIGURACIONES);
 984:.\main.c      ****                         break;
 985:.\main.c      ****                         case 2://Pass
 986:.\main.c      ****                             for(x=0;x < hiddenKeys;x++){
 987:.\main.c      ****                                 pumpGap[x] =bufferDisplay1.valueKeys[x];
 988:.\main.c      ****                             }
 989:.\main.c      ****                             flowDisplay1 = 15;
 990:.\main.c      ****                             SetPicture(1,DISPLAY_CONFIGURACIONES);
 991:.\main.c      ****                         break;
 992:.\main.c      ****                         case 3://Pass turno
 993:.\main.c      ****                             for(x=0;x < hiddenKeys;x++){
 994:.\main.c      ****                                 bufferDisplay1.shiftPassword[x] =bufferDisplay1.valueKeys[x];
 995:.\main.c      ****                             }
 996:.\main.c      ****                             flowDisplay1 = 19;
 997:.\main.c      ****                             SetPicture(1,DISPLAY_POR_FAVOR_ESPERE);
 998:.\main.c      ****                         break;
 999:.\main.c      ****                         case 5://Pass
1000:.\main.c      ****                             for(x=0;x < hiddenKeys;x++){
ARM GAS  C:\Users\RECEPC~1\AppData\Local\Temp\cc6Stwwd.s 			page 19


1001:.\main.c      ****                                 bufferDisplay1.shiftPassword[x] =bufferDisplay1.valueKeys[x];
1002:.\main.c      ****                             }
1003:.\main.c      ****                             flowDisplay1 = 15;
1004:.\main.c      ****                             SetPicture(1,DISPLAY_CONFIGURACIONES);
1005:.\main.c      ****                         break; 
1006:.\main.c      ****                         case 6://Pass
1007:.\main.c      ****                             for(x=1;x<=configAccess[0];x++){
1008:.\main.c      ****                                 configAccess[x] =bufferDisplay1.valueKeys[x];
1009:.\main.c      ****                             }
1010:.\main.c      ****                             if(configAccess[1] == passwordPump[1] && configAccess[2] == passwordPum
1011:.\main.c      ****                                 SetPicture(1,DISPLAY_PASSWORD_VALIDO);
1012:.\main.c      ****                                 CyDelay(700);
1013:.\main.c      ****                                 flowDisplay1 = 15;
1014:.\main.c      ****                                 SetPicture(1,DISPLAY_CONFIGURACIONES);
1015:.\main.c      ****                             }else{
1016:.\main.c      ****                                 SetPicture(1,DISPLAY_PASSWORD_INVALIDO);
1017:.\main.c      ****                                 CyDelay(700);
1018:.\main.c      ****                                 flowDisplay1 = 0;
1019:.\main.c      ****                                 SetPicture(1,DISPLAY_INICIO0);
1020:.\main.c      ****                             }
1021:.\main.c      ****                         break;
1022:.\main.c      ****                     }                    
1023:.\main.c      ****                     Display1_ClearRxBuffer();
1024:.\main.c      ****                 break;
1025:.\main.c      ****             }            
1026:.\main.c      ****         break;
1027:.\main.c      ****             
1028:.\main.c      ****         case 15:
1029:.\main.c      ****             if(Display1_GetRxBufferSize()==8){
1030:.\main.c      ****                 if((Display1_rxBuffer[0]==0xAA) && (Display1_rxBuffer[6]==0xC3) && (Display1_rxBuff
1031:.\main.c      ****                     switch(Display1_rxBuffer[3]){
1032:.\main.c      ****                         case 0x82:  //ID Estacion  
1033:.\main.c      ****                             flowDisplay1 = 14;
1034:.\main.c      ****                             numberKeys1 = 0; 
1035:.\main.c      ****                             controlChar = 0;
1036:.\main.c      ****                             hiddenKeys  = 5;
1037:.\main.c      ****                             bufferDisplay1.flagKeyboard = 1;
1038:.\main.c      ****                             SetPicture(1,DISPLAY_INTRODUZCA_VALOR);                            
1039:.\main.c      ****                         break;
1040:.\main.c      ****                         case 0x65:  //Test Impresoras 
1041:.\main.c      ****                             flowDisplay1 = 16; 
1042:.\main.c      ****                             PrintTest();
1043:.\main.c      ****                             SetPicture(1,DISPLAY_AMBAS_IMPRESORAS_FUNCIONANDO);                    
1044:.\main.c      ****                         break;
1045:.\main.c      ****                         
1046:.\main.c      ****                         case 0x5A:  //Umbral 
1047:.\main.c      ****                             flowDisplay1 = 14;
1048:.\main.c      ****                             numberKeys1 = 0;
1049:.\main.c      ****                             controlChar = 0;
1050:.\main.c      ****                             hiddenKeys  = 3;
1051:.\main.c      ****                             pumpGap[0]  = 2;
1052:.\main.c      ****                             bufferDisplay1.flagKeyboard = 2;
1053:.\main.c      ****                             SetPicture(1,DISPLAY_INTRODUZCA_VALOR);                            
1054:.\main.c      ****                         break;
1055:.\main.c      ****                         case 0x58:  //Hora y Fecha
1056:.\main.c      ****                             flowDisplay1 = 18;
1057:.\main.c      ****                             numberKeys1 = 0;   
ARM GAS  C:\Users\RECEPC~1\AppData\Local\Temp\cc6Stwwd.s 			page 20


1058:.\main.c      ****                             bufferDisplay1.flagKeyboard = 4;
1059:.\main.c      ****                             SetPicture(1,DISPLAY_CONFIGURAR_FECHA_HORA);                           
1060:.\main.c      ****                         break;
1061:.\main.c      ****                         case 0x7E:  //Pantalla Inicial                                             
1062:.\main.c      ****                             SetPicture(1,DISPLAY_INICIO0);
1063:.\main.c      ****                             flowDisplay1 = 0;
1064:.\main.c      ****                         break;
1065:.\main.c      ****                         case 0x94:  //Pantalla Inicial                                             
1066:.\main.c      ****                             SetPicture(1,DISPLAY_INICIO0);
1067:.\main.c      ****                             flowDisplay1 = 0;
1068:.\main.c      ****                         break;
1069:.\main.c      ****                     }                    
1070:.\main.c      ****                 }
1071:.\main.c      ****                 CyDelay(10);         
1072:.\main.c      ****                 Display1_ClearRxBuffer();
1073:.\main.c      ****             }                        
1074:.\main.c      ****         break; 
1075:.\main.c      ****             
1076:.\main.c      ****         case 16:
1077:.\main.c      ****             if(Display1_GetRxBufferSize()==8){
1078:.\main.c      ****                 if((Display1_rxBuffer[0]==0xAA) && (Display1_rxBuffer[6]==0xC3) && (Display1_rxBuff
1079:.\main.c      ****                     switch(Display1_rxBuffer[3]){
1080:.\main.c      ****                         case 0x38:  //No funcionan  
1081:.\main.c      ****                             flowDisplay1 = 17;
1082:.\main.c      ****                             SetPicture(1,DISPLAY_IMPRESORA_NO_FUNCIONANDO);                        
1083:.\main.c      ****                         break;
1084:.\main.c      ****                         case 0x39:  //Si funcionan
1085:.\main.c      ****                             flowDisplay1 = 15; 
1086:.\main.c      ****                             printPortA = 1;
1087:.\main.c      ****                             printPortB = 2;
1088:.\main.c      ****                             EEPROM_1_WriteByte(printPortA,8);
1089:.\main.c      ****                             EEPROM_1_WriteByte(printPortB,9);
1090:.\main.c      ****                             SetPicture(1,DISPLAY_CONFIGURACIONES);
1091:.\main.c      ****                         break;
1092:.\main.c      ****                                                
1093:.\main.c      ****                         case 0x7E:  //Pantalla Inicial                                             
1094:.\main.c      ****                             SetPicture(1,DISPLAY_INICIO0);
1095:.\main.c      ****                             flowDisplay1 = 0;
1096:.\main.c      ****                         break;
1097:.\main.c      ****                         case 0x94:  //Pantalla Inicial                                             
1098:.\main.c      ****                             SetPicture(1,DISPLAY_INICIO0);
1099:.\main.c      ****                             flowDisplay1 = 0;
1100:.\main.c      ****                         break;
1101:.\main.c      ****                     }                    
1102:.\main.c      ****                 }
1103:.\main.c      ****                 CyDelay(10);         
1104:.\main.c      ****                 Display1_ClearRxBuffer();
1105:.\main.c      ****             }                        
1106:.\main.c      ****         break;
1107:.\main.c      ****             
1108:.\main.c      ****         case 17:
1109:.\main.c      ****             if(Display1_GetRxBufferSize()==8){
1110:.\main.c      ****                 if((Display1_rxBuffer[0]==0xAA) && (Display1_rxBuffer[6]==0xC3) && (Display1_rxBuff
1111:.\main.c      ****                     switch(Display1_rxBuffer[3]){
1112:.\main.c      ****                         case 0x8C:  //1 no funciona  
1113:.\main.c      ****                             flowDisplay1 = 15; 
1114:.\main.c      ****                             printPortA = 2;
ARM GAS  C:\Users\RECEPC~1\AppData\Local\Temp\cc6Stwwd.s 			page 21


1115:.\main.c      ****                             printPortB = 2;
1116:.\main.c      ****                             EEPROM_1_WriteByte(printPortA,8);
1117:.\main.c      ****                             EEPROM_1_WriteByte(printPortB,9);
1118:.\main.c      ****                             SetPicture(1,DISPLAY_CONFIGURACIONES);                            
1119:.\main.c      ****                         break;
1120:.\main.c      ****                         case 0x8D:  //2 no funciona
1121:.\main.c      ****                             flowDisplay1 = 15; 
1122:.\main.c      ****                             printPortA = 1;
1123:.\main.c      ****                             printPortB = 1;
1124:.\main.c      ****                             EEPROM_1_WriteByte(printPortA,8);
1125:.\main.c      ****                             EEPROM_1_WriteByte(printPortB,9);
1126:.\main.c      ****                             SetPicture(1,DISPLAY_CONFIGURACIONES); 
1127:.\main.c      ****                         break;
1128:.\main.c      ****                             
1129:.\main.c      ****                         case 0x8E:  //ninguna funciona
1130:.\main.c      ****                             flowDisplay1 = 15; 
1131:.\main.c      ****                             printPortA = 0;
1132:.\main.c      ****                             printPortB = 0;
1133:.\main.c      ****                             EEPROM_1_WriteByte(printPortA,8);
1134:.\main.c      ****                             EEPROM_1_WriteByte(printPortB,9);
1135:.\main.c      ****                             SetPicture(1,DISPLAY_CONFIGURACIONES); 
1136:.\main.c      ****                         break;
1137:.\main.c      ****                                                
1138:.\main.c      ****                         case 0x7E:  //Pantalla Inicial                                             
1139:.\main.c      ****                             SetPicture(1,DISPLAY_INICIO0);
1140:.\main.c      ****                             flowDisplay1 = 0;
1141:.\main.c      ****                         break;
1142:.\main.c      ****                         case 0x94:  //Pantalla Inicial                                             
1143:.\main.c      ****                             SetPicture(1,DISPLAY_INICIO0);
1144:.\main.c      ****                             flowDisplay1 = 0;
1145:.\main.c      ****                         break;
1146:.\main.c      ****                     }                    
1147:.\main.c      ****                 }
1148:.\main.c      ****                 CyDelay(10);         
1149:.\main.c      ****                 Display1_ClearRxBuffer();
1150:.\main.c      ****             }                        
1151:.\main.c      ****         break;
1152:.\main.c      ****             
1153:.\main.c      ****         case 18:
1154:.\main.c      ****             if(leer_hora()==1){
1155:.\main.c      ****                 WriteLCD(1,(((timeDownHandle[1]&0x10)>>4)+48),13,8,1,0x0000,'N');
1156:.\main.c      ****                 WriteLCD(1,((timeDownHandle[1]&0x0F)+48),13,9,1,0x0000,'N');
1157:.\main.c      ****                 WriteLCD(1,':',13,10,1,0x0000,'N');
1158:.\main.c      ****                 WriteLCD(1,(((timeDownHandle[0]&0xF0)>>4)+48),13,11,1,0x0000,'N');
1159:.\main.c      ****                 WriteLCD(1,((timeDownHandle[0]&0x0F)+48),13,12,1,0x0000,'N');               
1160:.\main.c      ****             }
1161:.\main.c      ****             if(leer_fecha()==1){                
1162:.\main.c      ****                 WriteLCD(1,(((dateDownHandle[0]&0x30)>>4)+48),21,8,1,0x0000,'N');
1163:.\main.c      ****                 WriteLCD(1,((dateDownHandle[0]&0x0F)+48),21,9,1,0x0000,'N');
1164:.\main.c      ****                 WriteLCD(1,'/',21,10,1,0x0000,'N');
1165:.\main.c      ****                 WriteLCD(1,(((dateDownHandle[1]&0x10)>>4)+48),21,11,1,0x0000,'N');
1166:.\main.c      ****                 WriteLCD(1,((dateDownHandle[1]&0x0F)+48),21,12,1,0x0000,'N');
1167:.\main.c      ****                 WriteLCD(1,'/',21,13,1,0x0000,'N');
1168:.\main.c      ****                 WriteLCD(1,(((dateDownHandle[2]&0xF0)>>4)+48),21,14,1,0x0000,'N');
1169:.\main.c      ****                 WriteLCD(1,((dateDownHandle[2]&0x0F)+48),21,15,1,0x0000,'N');
1170:.\main.c      ****             }
1171:.\main.c      ****             if(Display1_GetRxBufferSize()==8){
ARM GAS  C:\Users\RECEPC~1\AppData\Local\Temp\cc6Stwwd.s 			page 22


1172:.\main.c      ****                 if((Display1_rxBuffer[0]==0xAA) && (Display1_rxBuffer[6]==0xC3) && (Display1_rxBuff
1173:.\main.c      ****                     switch(Display1_rxBuffer[3]){                                                  
1174:.\main.c      ****                         case 0x7E:  //Pantalla Inicial  
1175:.\main.c      ****                             flowDisplay1 = 0;
1176:.\main.c      ****                             SetPicture(1,DISPLAY_INICIO0);                            
1177:.\main.c      ****                         break;
1178:.\main.c      ****                         case 0x94:  //Pantalla Inicial    
1179:.\main.c      ****                             flowDisplay1 = 0;
1180:.\main.c      ****                             SetPicture(1,DISPLAY_INICIO0);                            
1181:.\main.c      ****                         break;
1182:.\main.c      ****                     }                    
1183:.\main.c      ****                 }
1184:.\main.c      ****                 CyDelay(10);         
1185:.\main.c      ****                 Display1_ClearRxBuffer();
1186:.\main.c      ****             }                        
1187:.\main.c      ****         break;
1188:.\main.c      ****             
1189:.\main.c      ****         case 19:            
1190:.\main.c      ****             side.a.RFstateReport = 1;
1191:.\main.c      ****             ShiftState =1;
1192:.\main.c      ****         break;
1193:.\main.c      ****     countLCD = 0;       
1194:.\main.c      ****     }    
1195:.\main.c      ****     }
1196:.\main.c      **** 
1197:.\main.c      **** 
1198:.\main.c      **** /*
1199:.\main.c      **** ***************************************************************************************************
1200:.\main.c      **** *                                         void polling_Pump(void)
1201:.\main.c      **** *
1202:.\main.c      **** * Description : Pregunta estado al surtidor 
1203:.\main.c      **** *               
1204:.\main.c      **** *
1205:.\main.c      **** ***************************************************************************************************
1206:.\main.c      **** */
1207:.\main.c      **** void PollingDisplay2(void){    
1208:.\main.c      ****     uint8 x,y;     
1209:.\main.c      ****     switch(flowDisplay2){
1210:.\main.c      ****         case 0:
1211:.\main.c      **** 			InitDisplay2();
1212:.\main.c      ****             flowDisplay2 =1;
1213:.\main.c      ****             side.b.rfState = RF_IDLE;
1214:.\main.c      ****             isr_4_Stop(); 
1215:.\main.c      ****             Timer_Animacion2_Stop();
1216:.\main.c      ****             count_protector2 = 0;
1217:.\main.c      ****             bufferDisplay2.saleType = 0;
1218:.\main.c      ****             bufferDisplay2.flagEndSale = false;  
1219:.\main.c      **** 			side.b.RFstateReport = 0;
1220:.\main.c      ****         break;
1221:.\main.c      ****         case 1: //Menu
1222:.\main.c      ****             ShowRectangle(2,35);
1223:.\main.c      **** 			if(countRX >700){
1224:.\main.c      ****                 if(bufferDisplay2.flagPrint)
1225:.\main.c      ****                     imprimir(printPortB,side.b.dir);
1226:.\main.c      ****                 countRX = 0;
1227:.\main.c      ****             }
1228:.\main.c      ****             side.b.rfState = RF_IDLE;
ARM GAS  C:\Users\RECEPC~1\AppData\Local\Temp\cc6Stwwd.s 			page 23


1229:.\main.c      ****             if(Display2_GetRxBufferSize()==8){
1230:.\main.c      ****                 if((Display2_rxBuffer[0]==0xAA) && (Display2_rxBuffer[6]==0xC3) && (Display2_rxBuff
1231:.\main.c      ****                     flowDisplay2 = 2;      //Pantalla forma de pago                      
1232:.\main.c      ****                     SetPicture(2,DISPLAY_FORMA_PAGO_DESEADA);                                      
1233:.\main.c      ****                 }  
1234:.\main.c      ****                 CyDelay(10);         
1235:.\main.c      ****                 Display2_ClearRxBuffer();
1236:.\main.c      ****             }
1237:.\main.c      ****         break;
1238:.\main.c      ****         case 2:
1239:.\main.c      ****             if(Display2_GetRxBufferSize()==8){
1240:.\main.c      ****                 if((Display2_rxBuffer[0]==0xAA) && (Display2_rxBuffer[6]==0xC3) && (Display2_rxBuff
1241:.\main.c      ****                     switch(Display2_rxBuffer[3]){
1242:.\main.c      ****                         case 0x0D:  //Pantalla efectivo              
1243:.\main.c      ****                             flowDisplay2 = 3; 
1244:.\main.c      ****                             bufferDisplay2.saleType = 1;
1245:.\main.c      ****                             SetPicture(2,DISPLAY_FORMA_PROGRAMACION);                            
1246:.\main.c      ****                         break;
1247:.\main.c      ****                         case 0x0E:  //Pantalla credito  
1248:.\main.c      ****                             flowDisplay2 = 10;
1249:.\main.c      ****                             bufferDisplay2.saleType = 2;
1250:.\main.c      ****                             count_protector = 0;
1251:.\main.c      ****                             SetPicture(2,DISPLAY_ID_DIGITAL);                            
1252:.\main.c      ****                         break;
1253:.\main.c      ****                         case 0x45:  //Pantalla otras opciones 
1254:.\main.c      ****                             flowDisplay2 = 12;                            
1255:.\main.c      ****                             SetPicture(2,DISPLAY_OPERACIONES);                            
1256:.\main.c      ****                         break;
1257:.\main.c      ****                             
1258:.\main.c      ****                         case 0x94:  //Pantalla Inicial    
1259:.\main.c      ****                             flowDisplay2 = 0;
1260:.\main.c      ****                             SetPicture(2,DISPLAY_INICIO0);                            
1261:.\main.c      ****                         break;
1262:.\main.c      ****                         
1263:.\main.c      ****                         case 0x7E:  //Pantalla Inicial    
1264:.\main.c      ****                             flowDisplay2 = 0;
1265:.\main.c      ****                             SetPicture(2,DISPLAY_INICIO0);                            
1266:.\main.c      ****                         break;
1267:.\main.c      ****                     }
1268:.\main.c      ****                 }  
1269:.\main.c      ****                 CyDelay(10);         
1270:.\main.c      ****                 Display2_ClearRxBuffer();
1271:.\main.c      ****             }
1272:.\main.c      ****         break;
1273:.\main.c      ****             
1274:.\main.c      ****         case 3: 
1275:.\main.c      ****             if(Display2_GetRxBufferSize()==8){
1276:.\main.c      ****                 if((Display2_rxBuffer[0]==0xAA) && (Display2_rxBuffer[6]==0xC3) && (Display2_rxBuff
1277:.\main.c      ****                     switch(Display2_rxBuffer[3]){
1278:.\main.c      ****                         case 0x0F:  //Preset dinero                
1279:.\main.c      ****                             flowDisplay2 = 4;                              
1280:.\main.c      ****                             bufferDisplay2.presetType[0]=2;
1281:.\main.c      ****                             bufferDisplay2.presetType[1]='D';
1282:.\main.c      ****                             numberKeys1=0;
1283:.\main.c      ****                             SetPicture(2,DISPLAY_INTRODUZCA_VALOR);   
1284:.\main.c      ****                             WriteLCD(2,'$',3,2,1,0x0000,'N');
1285:.\main.c      ****                         break; 
ARM GAS  C:\Users\RECEPC~1\AppData\Local\Temp\cc6Stwwd.s 			page 24


1286:.\main.c      ****                         case 0x10:  //Preset volumen                 
1287:.\main.c      ****                             flowDisplay2 = 4;                            
1288:.\main.c      ****                             bufferDisplay2.presetType[0]=1;
1289:.\main.c      ****                             bufferDisplay2.presetType[1]='V';
1290:.\main.c      ****                             numberKeys1=0;                            
1291:.\main.c      ****                             SetPicture(2,DISPLAY_INTRODUZCA_VOLUMEN);                            
1292:.\main.c      ****                             WriteLCD(2,'V',3,2,1,0x0000,'N');                            
1293:.\main.c      ****                         break;
1294:.\main.c      ****                         case 0x43:  //Preset full 
1295:.\main.c      ****                             bufferDisplay2.presetType[0]=2;
1296:.\main.c      ****                             bufferDisplay2.presetType[1]='F';
1297:.\main.c      ****                             for(x=1;x<(digits-1);x++){
1298:.\main.c      ****                                 bufferDisplay2.presetValue[0][x]='9';
1299:.\main.c      ****                             }
1300:.\main.c      ****                             bufferDisplay2.presetValue[0][x]='0';
1301:.\main.c      ****                             bufferDisplay2.presetValue[0][x+1]='0';
1302:.\main.c      ****                             bufferDisplay2.presetValue[0][0]=digits;
1303:.\main.c      ****                             for(x=0;x<=bufferDisplay2.presetValue[0][0];x++){
1304:.\main.c      ****                                 bufferDisplay2.presetValue[1][x]=bufferDisplay2.presetValue[0][x];
1305:.\main.c      ****                             }
1306:.\main.c      ****                             flowDisplay2 = 5;
1307:.\main.c      ****                             SetPicture(2,DISPLAY_SELECCIONE_PRODUCTO4);                          
1308:.\main.c      ****                         break;
1309:.\main.c      ****                         case 0x94:  //Retroceso 
1310:.\main.c      ****                             flowDisplay2 = 0;
1311:.\main.c      ****                             SetPicture(2,DISPLAY_INICIO0);                                         
1312:.\main.c      ****                         break;
1313:.\main.c      ****                         case 0x3B:  //Pantalla Inicial    
1314:.\main.c      ****                             flowDisplay2 = 0;
1315:.\main.c      ****                             SetPicture(2,DISPLAY_INICIO0);                            
1316:.\main.c      ****                         break;
1317:.\main.c      ****                         case 0x7E:  //Pantalla Inicial    
1318:.\main.c      ****                             flowDisplay2 = 0;
1319:.\main.c      ****                             SetPicture(2,DISPLAY_INICIO0);                            
1320:.\main.c      ****                         break;
1321:.\main.c      ****                     }
1322:.\main.c      ****                 }  
1323:.\main.c      ****                 CyDelay(10);         
1324:.\main.c      ****                 Display2_ClearRxBuffer();
1325:.\main.c      ****             }
1326:.\main.c      ****         break;
1327:.\main.c      ****         
1328:.\main.c      ****         case 4:            
1329:.\main.c      ****             switch (alphanumeric_keyboard(2,digits,0)){
1330:.\main.c      ****                 case 0:  //Pantalla Inicial    
1331:.\main.c      ****                     flowDisplay2 = 0;
1332:.\main.c      ****                     SetPicture(2,DISPLAY_INICIO0);                            
1333:.\main.c      ****                 break;
1334:.\main.c      ****                     
1335:.\main.c      ****                 case 1: //Enter
1336:.\main.c      ****                     for(x=0;x<=bufferDisplay2.valueKeys[0];x++){
1337:.\main.c      ****                         bufferDisplay2.presetValue[0][x]=bufferDisplay2.valueKeys[x];
1338:.\main.c      ****                         bufferDisplay2.presetValue[1][x]=bufferDisplay2.valueKeys[x];
1339:.\main.c      ****                     }  
1340:.\main.c      ****                     flowDisplay2 = 5;//caso para seleccion de producto
1341:.\main.c      ****                     SetPicture(2,DISPLAY_SELECCIONE_PRODUCTO4);
1342:.\main.c      ****                 break;
ARM GAS  C:\Users\RECEPC~1\AppData\Local\Temp\cc6Stwwd.s 			page 25


1343:.\main.c      ****             }
1344:.\main.c      ****         break;
1345:.\main.c      ****             
1346:.\main.c      ****         case 5:
1347:.\main.c      ****             if(Display2_GetRxBufferSize()==8){
1348:.\main.c      ****                 if((Display2_rxBuffer[0]==0xAA) && (Display2_rxBuffer[6]==0xC3) && (Display2_rxBuff
1349:.\main.c      ****                     switch(Display2_rxBuffer[3]){
1350:.\main.c      ****                         case 0x80:  //Grado 1 
1351:.\main.c      ****                             flowDisplay2 = 6;
1352:.\main.c      ****                             side.b.hose = 1;
1353:.\main.c      ****                             SetPicture(2,DISPLAY_DESEA_IMPRIMIR_RECIBO);                           
1354:.\main.c      ****                         break;
1355:.\main.c      ****                             
1356:.\main.c      ****                         case 0x81:  //Grado 2 
1357:.\main.c      ****                             flowDisplay2 = 6;
1358:.\main.c      ****                             side.b.hose = 2;
1359:.\main.c      ****                             SetPicture(2,DISPLAY_DESEA_IMPRIMIR_RECIBO);                           
1360:.\main.c      ****                         break;
1361:.\main.c      ****                             
1362:.\main.c      ****                         case 0x7F:  //Grado 3
1363:.\main.c      ****                             flowDisplay2 = 6;
1364:.\main.c      ****                             side.b.hose = 3;
1365:.\main.c      ****                             SetPicture(2,DISPLAY_DESEA_IMPRIMIR_RECIBO);                           
1366:.\main.c      ****                         break;   
1367:.\main.c      ****                         
1368:.\main.c      ****                         case 0xB8:  //Grado 4 
1369:.\main.c      ****                             flowDisplay2 = 6;
1370:.\main.c      ****                             side.b.hose = 4;
1371:.\main.c      ****                             SetPicture(2,DISPLAY_DESEA_IMPRIMIR_RECIBO);                           
1372:.\main.c      ****                         break;
1373:.\main.c      ****                             
1374:.\main.c      ****                         case 0x94:  //Retroceso 
1375:.\main.c      ****                             flowDisplay2 = 0;
1376:.\main.c      ****                             SetPicture(2,DISPLAY_INICIO0);                                         
1377:.\main.c      ****                         break;
1378:.\main.c      ****                             
1379:.\main.c      ****                         case 0x7E:  //Pantalla Inicial                                             
1380:.\main.c      ****                             SetPicture(2,DISPLAY_INICIO0);
1381:.\main.c      ****                             flowDisplay2 = 0;
1382:.\main.c      ****                         break;
1383:.\main.c      ****                     }                    
1384:.\main.c      ****                 }
1385:.\main.c      ****                 CyDelay(10);         
1386:.\main.c      ****                 Display2_ClearRxBuffer();
1387:.\main.c      ****             }
1388:.\main.c      ****         break;
1389:.\main.c      ****                     
1390:.\main.c      ****         case 6:
1391:.\main.c      ****             isr_3_StartEx(animacion);
1392:.\main.c      ****             Timer_Animacion_Start();
1393:.\main.c      ****             if(Display2_GetRxBufferSize()==8){
1394:.\main.c      ****                 if((Display2_rxBuffer[0]==0xAA) && (Display2_rxBuffer[6]==0xC3) && (Display2_rxBuff
1395:.\main.c      ****                     switch(Display2_rxBuffer[3]){
1396:.\main.c      ****                         case 0x39:  //Si imprimir  
1397:.\main.c      ****                             flowDisplay2 = 9;
1398:.\main.c      ****                             numberKeys1 = 0;
1399:.\main.c      ****                             bufferDisplay2.flagKeyboard = 1;
ARM GAS  C:\Users\RECEPC~1\AppData\Local\Temp\cc6Stwwd.s 			page 26


1400:.\main.c      ****                             bufferDisplay2.flagPrint =  1;
1401:.\main.c      ****                             SetPicture(2,DISPLAY_DIGITE_PLACA);                            
1402:.\main.c      ****                         break; 
1403:.\main.c      ****                         case 0x38:  //No imprimir 
1404:.\main.c      ****                             if(bufferDisplay2.flagEndSale){
1405:.\main.c      ****                                 flowDisplay2 = 0;
1406:.\main.c      ****                                 SetPicture(2,DISPLAY_INICIO0);
1407:.\main.c      ****                             }else{
1408:.\main.c      ****                                 flowDisplay2 = 7;//Esperando estado del dispensador 
1409:.\main.c      ****                                 bufferDisplay2.flagPrint =  0;
1410:.\main.c      ****                                 count_protector=0;
1411:.\main.c      ****                                 SetPicture(2,DISPLAY_SUBA_MANIJA);
1412:.\main.c      ****                             }
1413:.\main.c      ****                         break;
1414:.\main.c      ****                         case 0x7E:  //Pantalla Inicial                                             
1415:.\main.c      ****                             flowDisplay2 = 0;
1416:.\main.c      ****                             SetPicture(2,DISPLAY_INICIO0);
1417:.\main.c      ****                         break;
1418:.\main.c      ****                     }                    
1419:.\main.c      ****                 }
1420:.\main.c      ****                 CyDelay(10);         
1421:.\main.c      ****                 Display2_ClearRxBuffer();
1422:.\main.c      ****             }
1423:.\main.c      ****             if(count_protector>=30){
1424:.\main.c      ****                 flowDisplay2 = 0;	
1425:.\main.c      ****     			count_protector=0;
1426:.\main.c      ****                 SetPicture(2,DISPLAY_INICIO0);
1427:.\main.c      ****     		}
1428:.\main.c      ****         break;
1429:.\main.c      ****                                         
1430:.\main.c      ****             
1431:.\main.c      ****         case 7:
1432:.\main.c      ****             //isr_3_StartEx(animacion);
1433:.\main.c      ****             //Timer_Animacion_Start();
1434:.\main.c      ****             side.b.activeHose = PumpHoseActiveState(side.b.dir);  
1435:.\main.c      ****             if (side.b.activeHose == side.b.hose){                
1436:.\main.c      ****                 if(PresetData(side.b.dir,side.b.activeHose,bufferDisplay2.presetValue[0],bufferDisp
1437:.\main.c      ****                     isr_4_Stop(); 
1438:.\main.c      ****                     Timer_Animacion2_Stop();
1439:.\main.c      ****                     get_state(side.b.dir);
1440:.\main.c      ****                     //CyDelay(20);
1441:.\main.c      ****                     Pump_PutChar(0x10|side.b.dir);//Autoriza el surtidor
1442:.\main.c      ****                     //CyDelay(50);
1443:.\main.c      ****                     side.b.RFstateReport = 1;                    
1444:.\main.c      ****                     flowDisplay2 = 8;                    
1445:.\main.c      ****                     count_protector2 = 0;   
1446:.\main.c      **** 					bufferDisplay2.flagActiveSale = true;					
1447:.\main.c      ****                     SetPicture(2,DISPLAY_DESPACHANDO);   
1448:.\main.c      ****                     ShowMessage(2,(bufferDisplay2.presetValue[0]),18);
1449:.\main.c      ****                 }else{
1450:.\main.c      ****                     flowDisplay2 = 0;
1451:.\main.c      ****                     SetPicture(2,DISPLAY_ERROR);
1452:.\main.c      ****                     CyDelay(200);
1453:.\main.c      ****                     SetPicture(2,DISPLAY_INICIO0);
1454:.\main.c      ****                 }
1455:.\main.c      ****             }else{
1456:.\main.c      ****                 flowDisplay2 = 7;                
ARM GAS  C:\Users\RECEPC~1\AppData\Local\Temp\cc6Stwwd.s 			page 27


1457:.\main.c      **** //                if(count_protector>=60){
1458:.\main.c      **** //                    flowDisplay2 = 0;	
1459:.\main.c      **** //        			count_protector=0;
1460:.\main.c      **** //                    SetPicture(2,DISPLAY_INICIO0);
1461:.\main.c      **** //        		}
1462:.\main.c      ****             }
1463:.\main.c      ****             if(Display2_GetRxBufferSize()==8){
1464:.\main.c      ****                 if((Display2_rxBuffer[0]==0xAA) && (Display2_rxBuffer[6]==0xC3) && (Display2_rxBuff
1465:.\main.c      ****                     switch(Display2_rxBuffer[3]){                        
1466:.\main.c      ****                         case 0x7E:  //Pantalla Inicial                                             
1467:.\main.c      ****                             SetPicture(2,DISPLAY_INICIO0);
1468:.\main.c      ****                             flowDisplay2 = 0;
1469:.\main.c      ****                         break;
1470:.\main.c      ****                     }                    
1471:.\main.c      ****                 }
1472:.\main.c      ****                 CyDelay(10);                         
1473:.\main.c      ****             }
1474:.\main.c      ****             Display2_ClearRxBuffer();
1475:.\main.c      ****         break;
1476:.\main.c      ****             
1477:.\main.c      ****         case 8:            
1478:.\main.c      ****             side.b.pumpState = get_state(side.b.dir);
1479:.\main.c      ****             switch (side.b.pumpState){
1480:.\main.c      ****                 case PUMP_IDLE: //Espera - venta cero
1481:.\main.c      ****                     flowDisplay2 = 0;
1482:.\main.c      ****                     side.b.rfState = RF_ZERO_SALE;
1483:.\main.c      ****                     bufferDisplay2.flagActiveSale = false;
1484:.\main.c      ****                     SetPicture(2,DISPLAY_INICIO0);
1485:.\main.c      ****                 break;
1486:.\main.c      ****                 case PUMP_BUSY: //Surtiendo                    
1487:.\main.c      ****                     bufferDisplay2.flagActiveSale = true;
1488:.\main.c      ****                     bufferDisplay2.flagEndSale = false;
1489:.\main.c      ****                     //side.a.rfState = RF_DELIVERING;
1490:.\main.c      ****                 break;
1491:.\main.c      ****                 case PUMP_PEOT: //reporte fin venta                    
1492:.\main.c      ****                     if(getSale(side.b.dir)){
1493:.\main.c      ****                         if(bufferDisplay2.flagPrint ==1){
1494:.\main.c      ****                             bufferDisplay2.flagEndSale = true;
1495:.\main.c      ****                             flowDisplay2 = 0;
1496:.\main.c      ****                             SetPicture(2,DISPLAY_INICIO0); 
1497:.\main.c      ****                         }else{
1498:.\main.c      ****                             flowDisplay2 = 6;
1499:.\main.c      ****                             bufferDisplay2.flagEndSale = true;
1500:.\main.c      ****                             SetPicture(2,DISPLAY_DESEA_IMPRIMIR_RECIBO); 
1501:.\main.c      ****                         }
1502:.\main.c      ****                         bufferDisplay2.flagActiveSale = false;
1503:.\main.c      ****                         side.b.RFstateReport = 1;
1504:.\main.c      ****                     }                                         
1505:.\main.c      ****                 break;
1506:.\main.c      ****                 case PUMP_FEOT: //Reporte de venta
1507:.\main.c      ****                     if(getSale(side.b.dir)){
1508:.\main.c      ****                         if(bufferDisplay2.flagPrint ==1){
1509:.\main.c      ****                             bufferDisplay1.flagEndSale = true;
1510:.\main.c      ****                             flowDisplay2 = 0;
1511:.\main.c      ****                             SetPicture(2,DISPLAY_INICIO0); 
1512:.\main.c      ****                         }else{
1513:.\main.c      ****                             flowDisplay2 = 6;
ARM GAS  C:\Users\RECEPC~1\AppData\Local\Temp\cc6Stwwd.s 			page 28


1514:.\main.c      ****                             bufferDisplay2.flagEndSale = true;
1515:.\main.c      ****                             SetPicture(2,DISPLAY_DESEA_IMPRIMIR_RECIBO); 
1516:.\main.c      ****                         }
1517:.\main.c      ****                         bufferDisplay2.flagActiveSale = false;
1518:.\main.c      ****                         side.b.RFstateReport = 1;
1519:.\main.c      ****                     }
1520:.\main.c      ****                 break;
1521:.\main.c      ****                 
1522:.\main.c      ****             }
1523:.\main.c      ****             
1524:.\main.c      ****         break;
1525:.\main.c      ****             
1526:.\main.c      ****         case 9: //Teclado           
1527:.\main.c      ****             switch (alphanumeric_keyboard(2,10,0)){
1528:.\main.c      ****                 case 0: //Cancelar
1529:.\main.c      ****                     switch(bufferDisplay2.flagKeyboard){
1530:.\main.c      ****                         case 1://Placa
1531:.\main.c      ****                             for(x=0;x<=10;x++){
1532:.\main.c      ****                                 bufferDisplay2.licenceSale[x]=0;
1533:.\main.c      ****                             }
1534:.\main.c      ****                             flowDisplay2 = 0;//Inicio
1535:.\main.c      ****                             SetPicture(2,DISPLAY_INICIO0);
1536:.\main.c      ****                         break;
1537:.\main.c      ****                         
1538:.\main.c      ****                         case 2://Kilometraje
1539:.\main.c      ****                             for(x=0;x<=10;x++){
1540:.\main.c      ****                                 bufferDisplay2.mileageSale[x]=0;
1541:.\main.c      ****                             }
1542:.\main.c      ****                         break;
1543:.\main.c      ****                         
1544:.\main.c      ****                         case 3://CC/NIT
1545:.\main.c      ****                             for(x=0;x<=10;x++){
1546:.\main.c      ****                                 bufferDisplay2.identySale[x]=0;
1547:.\main.c      ****                             }
1548:.\main.c      ****                         break;
1549:.\main.c      ****                         case 4://ID
1550:.\main.c      ****                             for(x=0;x<=10;x++){
1551:.\main.c      ****                                 bufferDisplay2.shiftId[x]=0;
1552:.\main.c      ****                             }
1553:.\main.c      ****                         break;
1554:.\main.c      ****                     }                    
1555:.\main.c      ****                     Display2_ClearRxBuffer();
1556:.\main.c      ****                 break;
1557:.\main.c      ****                     
1558:.\main.c      ****                 case 1: //Enter
1559:.\main.c      ****                     switch(bufferDisplay2.flagKeyboard){
1560:.\main.c      ****                         case 1://Placa
1561:.\main.c      ****                             for(x=0;x<=bufferDisplay2.valueKeys[0];x++){
1562:.\main.c      ****                                 bufferDisplay2.licenceSale[x]=bufferDisplay2.valueKeys[x];
1563:.\main.c      ****                             }
1564:.\main.c      ****                             if(bufferDisplay2.flagEndSale){
1565:.\main.c      ****                                 imprimir(printPortB,side.b.dir);
1566:.\main.c      ****                                 flowDisplay2 = 0;
1567:.\main.c      ****                                 SetPicture(2,DISPLAY_INICIO0); 
1568:.\main.c      ****                             }else{
1569:.\main.c      ****                                 flowDisplay2 = 7;//Suba manija
1570:.\main.c      ****                                 SetPicture(2,DISPLAY_SUBA_MANIJA);
ARM GAS  C:\Users\RECEPC~1\AppData\Local\Temp\cc6Stwwd.s 			page 29


1571:.\main.c      ****                             }
1572:.\main.c      ****                         break;
1573:.\main.c      ****                         
1574:.\main.c      ****                         case 2://Kilometraje
1575:.\main.c      ****                             for(x=0;x<=bufferDisplay2.valueKeys[0];x++){
1576:.\main.c      ****                                 bufferDisplay2.mileageSale[x]=bufferDisplay2.valueKeys[x];
1577:.\main.c      ****                             }
1578:.\main.c      ****                             flowDisplay2 = 7;//Suba manija
1579:.\main.c      ****                             SetPicture(2,DISPLAY_SUBA_MANIJA);
1580:.\main.c      ****                         break;
1581:.\main.c      ****                         
1582:.\main.c      ****                         case 3://CC/NIT
1583:.\main.c      ****                             for(x=0;x<=bufferDisplay2.valueKeys[0];x++){
1584:.\main.c      ****                                 bufferDisplay2.identySale[x]=bufferDisplay2.valueKeys[x];
1585:.\main.c      ****                             }
1586:.\main.c      ****                         case 4://ID
1587:.\main.c      ****                             for(x=0;x<=10;x++){
1588:.\main.c      ****                                 bufferDisplay2.shiftId[x] =bufferDisplay2.valueKeys[x];
1589:.\main.c      ****                             }
1590:.\main.c      ****                             flowDisplay2 = 14;//Pide clave                            
1591:.\main.c      ****                             numberKeys1 = 0;
1592:.\main.c      ****                             hiddenKeys = 10;
1593:.\main.c      ****                             controlChar ='*';
1594:.\main.c      ****                             bufferDisplay2.flagKeyboard = 3;
1595:.\main.c      ****                             SetPicture(2,DISPLAY_INGRESE_PASSWORD);
1596:.\main.c      ****                         break;
1597:.\main.c      ****                     }                    
1598:.\main.c      ****                     Display2_ClearRxBuffer();
1599:.\main.c      ****                 break;
1600:.\main.c      ****             }            
1601:.\main.c      ****         break;    
1602:.\main.c      ****     ////////////////// CASOS PARA CRDITO  /////////////////////
1603:.\main.c      ****         case 10:
1604:.\main.c      ****             if(Display2_GetRxBufferSize()==8){
1605:.\main.c      ****                 if((Display2_rxBuffer[0]==0xAA) && (Display2_rxBuffer[6]==0xC3) && (Display2_rxBuff
1606:.\main.c      ****                     switch(Display2_rxBuffer[3]){
1607:.\main.c      ****                         case 0xB6:  //Solicitud ibutton  
1608:.\main.c      ****                             flowDisplay2 = 11;
1609:.\main.c      ****                             numberKeys1 = 0;                            
1610:.\main.c      ****                             bufferDisplay2.flagPrint =  1;
1611:.\main.c      ****                             SetPicture(2,DISPLAY_ESPERANDO_ID);                            
1612:.\main.c      ****                         break; 
1613:.\main.c      ****                         case 0xB7:  //ID por nmero
1614:.\main.c      ****                             bufferDisplay2.flagKeyboard = 0;
1615:.\main.c      ****                             flowDisplay2 = 7;//Esperando estado del dispensador  
1616:.\main.c      ****                             count_protector=0;
1617:.\main.c      ****                             SetPicture(2,DISPLAY_SUBA_MANIJA);                            
1618:.\main.c      ****                         break;
1619:.\main.c      ****                         case 0x94:  //Pantalla Inicial    
1620:.\main.c      ****                             flowDisplay2 = 0;
1621:.\main.c      ****                             SetPicture(2,DISPLAY_INICIO0);                            
1622:.\main.c      ****                         break;
1623:.\main.c      ****                         case 0x7E:  //Pantalla Inicial                                             
1624:.\main.c      ****                             SetPicture(2,DISPLAY_INICIO0);
1625:.\main.c      ****                             flowDisplay2 = 0;
1626:.\main.c      ****                         break;
1627:.\main.c      ****                     }                    
ARM GAS  C:\Users\RECEPC~1\AppData\Local\Temp\cc6Stwwd.s 			page 30


1628:.\main.c      ****                 }
1629:.\main.c      ****                 CyDelay(10);         
1630:.\main.c      ****                 Display2_ClearRxBuffer();
1631:.\main.c      ****             }                        
1632:.\main.c      ****         break;
1633:.\main.c      ****         
1634:.\main.c      ****         case 11:
1635:.\main.c      ****             isr_3_StartEx(animacion);
1636:.\main.c      ****             Timer_Animacion_Start();
1637:.\main.c      ****             if(touch_present(2)==1){
1638:.\main.c      **** 				if(touch_write(1,0x33)){
1639:.\main.c      **** 					for(x=1;x<=8;x++){
1640:.\main.c      **** 						temporal[x]=touch_read_byte(2);
1641:.\main.c      **** 					}
1642:.\main.c      **** 					y=0;
1643:.\main.c      **** 					for(x=1;x<8;x++){
1644:.\main.c      ****                         y=crc_check(y,temporal[x]);
1645:.\main.c      ****                     }
1646:.\main.c      **** 					if(y==temporal[8]){
1647:.\main.c      **** 						bufferDisplay2.idSerial[0]=16;
1648:.\main.c      **** 						y=16;
1649:.\main.c      **** 						for(x=1;x<=8;x++){
1650:.\main.c      **** 							if((temporal[x]&0x0F)>=10){
1651:.\main.c      **** 								bufferDisplay2.idSerial[y]=(temporal[x]&0x0F)+55;
1652:.\main.c      **** 							}else{
1653:.\main.c      **** 								bufferDisplay2.idSerial[y]=(temporal[x]&0x0F)+48;				
1654:.\main.c      **** 							}
1655:.\main.c      ****                             y--;
1656:.\main.c      **** 							if(((temporal[x]>>4)&0x0F)>=10){
1657:.\main.c      **** 								bufferDisplay2.idSerial[y]=((temporal[x]>>4)&0x0F)+55;
1658:.\main.c      **** 							}else{
1659:.\main.c      **** 								bufferDisplay2.idSerial[y]=((temporal[x]>>4)&0x0F)+48;				
1660:.\main.c      **** 							}
1661:.\main.c      ****                             y--;
1662:.\main.c      **** 						}                        
1663:.\main.c      ****                         SetPicture(2,DISPLAY_ID_RECONOCIDO);                                       
1664:.\main.c      ****                         Display2_ClearRxBuffer();
1665:.\main.c      ****                         CyDelay(700);
1666:.\main.c      ****                         bufferDisplay2.flagKeyboard = 2;
1667:.\main.c      ****                         flowDisplay2 = 9;
1668:.\main.c      ****                         SetPicture(2,DISPLAY_INTRODUZCA_KILOMETRAJE);
1669:.\main.c      ****                         
1670:.\main.c      **** 					}
1671:.\main.c      **** 				}
1672:.\main.c      **** 			}
1673:.\main.c      ****             if(count_protector>=60){
1674:.\main.c      ****                 flowDisplay2 = 0;	
1675:.\main.c      ****     			count_protector=0;
1676:.\main.c      ****                 SetPicture(2,DISPLAY_INICIO0);
1677:.\main.c      ****     		}
1678:.\main.c      ****                                     
1679:.\main.c      ****         break;    
1680:.\main.c      ****     ///////////////FIN CASOS PARA CRDITO  /////////////////////  
1681:.\main.c      ****     
1682:.\main.c      ****     //////////// CASOS PARA CONFIGURACIONES  ///////////////////
1683:.\main.c      ****         case 12:
1684:.\main.c      ****             if(Display2_GetRxBufferSize()==8){
ARM GAS  C:\Users\RECEPC~1\AppData\Local\Temp\cc6Stwwd.s 			page 31


1685:.\main.c      ****                 if((Display2_rxBuffer[0]==0xAA) && (Display2_rxBuffer[6]==0xC3) && (Display2_rxBuff
1686:.\main.c      ****                     switch(Display2_rxBuffer[3]){
1687:.\main.c      ****                         case 0x46:  //Turnos              
1688:.\main.c      ****                             flowDisplay2 = 13; 
1689:.\main.c      ****                             if(lockTurn ==1){
1690:.\main.c      ****                                 SetPicture(2,DISPLAY_CERRAR_TURNO);
1691:.\main.c      ****                             }else{
1692:.\main.c      ****                                 SetPicture(2,DISPLAY_ABRIR_TURNO);
1693:.\main.c      ****                             }                            
1694:.\main.c      ****                         break;
1695:.\main.c      ****                         case 0x55:  //Configurar mdulo 
1696:.\main.c      ****                             flowDisplay2 = 14;
1697:.\main.c      ****                             bufferDisplay2.flagKeyboard = 6;
1698:.\main.c      ****                             numberKeys1 = 0;
1699:.\main.c      ****                             hiddenKeys = 5;
1700:.\main.c      ****                             controlChar ='*';
1701:.\main.c      ****                             SetPicture(2,DISPLAY_INGRESE_PASSWORD);                           
1702:.\main.c      ****                         break;
1703:.\main.c      ****                         case 0xB5:  //Copia de recibo 
1704:.\main.c      ****                             flowDisplay2  = 0;
1705:.\main.c      ****                             side.b.RFstateReport = 1;
1706:.\main.c      ****                             side.b.rfState = RF_COPY_RECEIPT;
1707:.\main.c      ****                             SetPicture(2,DISPLAY_INICIO0);                            
1708:.\main.c      ****                         break;
1709:.\main.c      ****                         
1710:.\main.c      ****                         case 0x3B:  //Pantalla Inicial    
1711:.\main.c      ****                             flowDisplay2 = 0;
1712:.\main.c      ****                             SetPicture(2,DISPLAY_INICIO0);                            
1713:.\main.c      ****                         break;
1714:.\main.c      ****                             
1715:.\main.c      ****                         case 0x94:  //Pantalla Inicial    
1716:.\main.c      ****                             flowDisplay2 = 0;
1717:.\main.c      ****                             SetPicture(2,DISPLAY_INICIO0);                            
1718:.\main.c      ****                         break;
1719:.\main.c      ****                         
1720:.\main.c      ****                         case 0x7E:  //Pantalla Inicial    
1721:.\main.c      ****                             flowDisplay2 = 0;
1722:.\main.c      ****                             SetPicture(2,DISPLAY_INICIO0);                            
1723:.\main.c      ****                         break;
1724:.\main.c      ****                     }
1725:.\main.c      ****                 }  
1726:.\main.c      ****                 CyDelay(10);         
1727:.\main.c      ****                 Display2_ClearRxBuffer();
1728:.\main.c      ****             }
1729:.\main.c      ****         break;
1730:.\main.c      **** 
1731:.\main.c      ****         case 13:
1732:.\main.c      ****             if(Display2_GetRxBufferSize()==8){
1733:.\main.c      ****                 if((Display2_rxBuffer[0]==0xAA) && (Display2_rxBuffer[6]==0xC3) && (Display2_rxBuff
1734:.\main.c      ****                     switch(Display2_rxBuffer[3]){
1735:.\main.c      ****                         case 0x47:  //Cambio de turno: Abrir  
1736:.\main.c      ****                             flowDisplay2 = 9;
1737:.\main.c      ****                             numberKeys1 = 0;    
1738:.\main.c      ****                             bufferDisplay2.flagKeyboard = 4;
1739:.\main.c      ****                             SetPicture(2,DISPLAY_INTRODUZCA_CEDULA);                            
1740:.\main.c      ****                         break;
1741:.\main.c      ****                         case 0x48:  //Cambio de turno: Cerrar 
ARM GAS  C:\Users\RECEPC~1\AppData\Local\Temp\cc6Stwwd.s 			page 32


1742:.\main.c      ****                             flowDisplay2 = 9;
1743:.\main.c      ****                             numberKeys1 = 0;   
1744:.\main.c      ****                             bufferDisplay2.flagKeyboard = 4;
1745:.\main.c      ****                             SetPicture(2,DISPLAY_INTRODUZCA_CEDULA);                           
1746:.\main.c      ****                         break;                         
1747:.\main.c      ****                         case 0x7E:  //Pantalla Inicial                                             
1748:.\main.c      ****                             SetPicture(2,DISPLAY_INICIO0);
1749:.\main.c      ****                             flowDisplay2 = 0;
1750:.\main.c      ****                         break;
1751:.\main.c      ****                         case 0x94:  //Pantalla Inicial                                             
1752:.\main.c      ****                             SetPicture(2,DISPLAY_INICIO0);
1753:.\main.c      ****                             flowDisplay2 = 0;
1754:.\main.c      ****                         break;
1755:.\main.c      ****                     }                    
1756:.\main.c      ****                 }
1757:.\main.c      ****                 CyDelay(10);         
1758:.\main.c      ****                 Display2_ClearRxBuffer();
1759:.\main.c      ****             }                        
1760:.\main.c      ****         break; 
1761:.\main.c      ****             
1762:.\main.c      ****         case 14: //Teclado general      
1763:.\main.c      ****             switch (alphanumeric_keyboard(2,hiddenKeys,controlChar)){
1764:.\main.c      ****                 case 0: //Cancelar
1765:.\main.c      ****                     switch(bufferDisplay2.flagKeyboard){
1766:.\main.c      ****                         case 1://ID Estacion
1767:.\main.c      ****                             for(x=0;x<=4;x++){
1768:.\main.c      ****                                 idStation[x]=0;
1769:.\main.c      ****                             }
1770:.\main.c      ****                             flowDisplay2 = 0;
1771:.\main.c      ****                             SetPicture(2,DISPLAY_INICIO0);
1772:.\main.c      ****                         break;
1773:.\main.c      ****                         case 2://Umbral
1774:.\main.c      ****                             for(x=0;x< hiddenKeys;x++){
1775:.\main.c      ****                                 pumpGap[x]=0;
1776:.\main.c      ****                             }
1777:.\main.c      ****                             flowDisplay2 = 0;
1778:.\main.c      ****                             SetPicture(2,DISPLAY_INICIO0);
1779:.\main.c      ****                         break;
1780:.\main.c      ****                         case 3://Pass turno
1781:.\main.c      ****                             for(x=0;x< hiddenKeys;x++){
1782:.\main.c      ****                                 bufferDisplay2.shiftPassword[x]=0;
1783:.\main.c      ****                             }
1784:.\main.c      ****                             flowDisplay2 = 0;
1785:.\main.c      ****                             SetPicture(2,DISPLAY_INICIO0);
1786:.\main.c      ****                         break;
1787:.\main.c      ****                         case 5://Pass
1788:.\main.c      ****                             for(x=0;x< hiddenKeys;x++){
1789:.\main.c      ****                                 bufferDisplay2.shiftPassword[x]=0;
1790:.\main.c      ****                             }
1791:.\main.c      ****                             flowDisplay2 = 0;
1792:.\main.c      ****                             SetPicture(2,DISPLAY_INICIO0);
1793:.\main.c      ****                         break;
1794:.\main.c      ****                             
1795:.\main.c      ****                         case 6://Pass
1796:.\main.c      ****                             for(x=1;x<=configAccess[0];x++){
1797:.\main.c      ****                                 configAccess[x]=0;
1798:.\main.c      ****                             }
ARM GAS  C:\Users\RECEPC~1\AppData\Local\Temp\cc6Stwwd.s 			page 33


1799:.\main.c      ****                             flowDisplay2 = 0;
1800:.\main.c      ****                             SetPicture(2,DISPLAY_INICIO0);
1801:.\main.c      ****                         break;
1802:.\main.c      ****                     }                    
1803:.\main.c      ****                     Display2_ClearRxBuffer();
1804:.\main.c      ****                 break;
1805:.\main.c      ****                     
1806:.\main.c      ****                 case 1: //Enter
1807:.\main.c      ****                     switch(bufferDisplay2.flagKeyboard){   
1808:.\main.c      ****                         case 1://ID Estacion
1809:.\main.c      ****                             for(x=0;x <=4;x++){
1810:.\main.c      ****                                 idStation[x] =bufferDisplay2.valueKeys[x+1];                       
1811:.\main.c      ****                             }
1812:.\main.c      ****                             idStation[4] = 0x00;
1813:.\main.c      ****                             intIDStation = atoi(idStation);
1814:.\main.c      ****                             IDCast[0] = intIDStation;
1815:.\main.c      ****                             IDCast[1] = intIDStation>>8;
1816:.\main.c      ****                             EEPROM_1_WriteByte(IDCast[0],10);
1817:.\main.c      ****                             EEPROM_1_WriteByte(IDCast[1],11);
1818:.\main.c      ****                             flowDisplay2 = 15;
1819:.\main.c      ****                             SetPicture(2,DISPLAY_CONFIGURACIONES);
1820:.\main.c      ****                         break;
1821:.\main.c      ****                         case 2://Pass
1822:.\main.c      ****                             for(x=0;x < hiddenKeys;x++){
1823:.\main.c      ****                                 pumpGap[x] =bufferDisplay2.valueKeys[x];
1824:.\main.c      ****                             }
1825:.\main.c      ****                             flowDisplay2 = 15;
1826:.\main.c      ****                             SetPicture(2,DISPLAY_CONFIGURACIONES);
1827:.\main.c      ****                         break;
1828:.\main.c      ****                         case 3://Pass turno
1829:.\main.c      ****                             for(x=0;x < hiddenKeys;x++){
1830:.\main.c      ****                                 bufferDisplay2.shiftPassword[x] =bufferDisplay2.valueKeys[x];
1831:.\main.c      ****                             }
1832:.\main.c      ****                             flowDisplay2 = 19;
1833:.\main.c      ****                             SetPicture(2,DISPLAY_POR_FAVOR_ESPERE);
1834:.\main.c      ****                         break;
1835:.\main.c      ****                         case 5://Pass
1836:.\main.c      ****                             for(x=0;x < hiddenKeys;x++){
1837:.\main.c      ****                                 bufferDisplay2.shiftPassword[x] =bufferDisplay2.valueKeys[x];
1838:.\main.c      ****                             }
1839:.\main.c      ****                             flowDisplay2 = 15;
1840:.\main.c      ****                             SetPicture(2,DISPLAY_CONFIGURACIONES);
1841:.\main.c      ****                         break; 
1842:.\main.c      ****                         case 6://Pass
1843:.\main.c      ****                             for(x=1;x<=configAccess[0];x++){
1844:.\main.c      ****                                 configAccess[x] =bufferDisplay2.valueKeys[x];
1845:.\main.c      ****                             }
1846:.\main.c      ****                             if(configAccess[1] == passwordPump[1] && configAccess[2] == passwordPum
1847:.\main.c      ****                                 SetPicture(2,DISPLAY_PASSWORD_VALIDO);
1848:.\main.c      ****                                 CyDelay(700);
1849:.\main.c      ****                                 flowDisplay2 = 15;
1850:.\main.c      ****                                 SetPicture(2,DISPLAY_CONFIGURACIONES);
1851:.\main.c      ****                             }else{
1852:.\main.c      ****                                 SetPicture(2,DISPLAY_PASSWORD_INVALIDO);
1853:.\main.c      ****                                 CyDelay(700);
1854:.\main.c      ****                                 flowDisplay2 = 0;
1855:.\main.c      ****                                 SetPicture(2,DISPLAY_INICIO0);
ARM GAS  C:\Users\RECEPC~1\AppData\Local\Temp\cc6Stwwd.s 			page 34


1856:.\main.c      ****                             }
1857:.\main.c      ****                         break;
1858:.\main.c      ****                     }                    
1859:.\main.c      ****                     Display2_ClearRxBuffer();
1860:.\main.c      ****                 break;
1861:.\main.c      ****             }            
1862:.\main.c      ****         break;
1863:.\main.c      ****             
1864:.\main.c      ****         case 15:
1865:.\main.c      ****             if(Display2_GetRxBufferSize()==8){
1866:.\main.c      ****                 if((Display2_rxBuffer[0]==0xAA) && (Display2_rxBuffer[6]==0xC3) && (Display2_rxBuff
1867:.\main.c      ****                     switch(Display2_rxBuffer[3]){
1868:.\main.c      ****                         case 0x82:  //ID Estacion  
1869:.\main.c      ****                             flowDisplay2 = 14;
1870:.\main.c      ****                             numberKeys1 = 0; 
1871:.\main.c      ****                             controlChar = 0;
1872:.\main.c      ****                             hiddenKeys  = 5;
1873:.\main.c      ****                             bufferDisplay2.flagKeyboard = 1;
1874:.\main.c      ****                             SetPicture(2,DISPLAY_INTRODUZCA_VALOR);                            
1875:.\main.c      ****                         break;
1876:.\main.c      ****                         case 0x65:  //Test Impresoras 
1877:.\main.c      ****                             flowDisplay2 = 16; 
1878:.\main.c      ****                             PrintTest();
1879:.\main.c      ****                             SetPicture(2,DISPLAY_AMBAS_IMPRESORAS_FUNCIONANDO);                    
1880:.\main.c      ****                         break;
1881:.\main.c      ****                         
1882:.\main.c      ****                         case 0x5A:  //Umbral 
1883:.\main.c      ****                             flowDisplay2 = 14;
1884:.\main.c      ****                             numberKeys1 = 0;
1885:.\main.c      ****                             controlChar = 0;
1886:.\main.c      ****                             hiddenKeys  = 3;
1887:.\main.c      ****                             pumpGap[0]  = 2;
1888:.\main.c      ****                             bufferDisplay2.flagKeyboard = 2;
1889:.\main.c      ****                             SetPicture(2,DISPLAY_INTRODUZCA_VALOR);                            
1890:.\main.c      ****                         break;
1891:.\main.c      ****                         case 0x58:  //Hora y Fecha
1892:.\main.c      ****                             flowDisplay2 = 18;
1893:.\main.c      ****                             numberKeys1 = 0;   
1894:.\main.c      ****                             bufferDisplay2.flagKeyboard = 4;
1895:.\main.c      ****                             SetPicture(2,DISPLAY_CONFIGURAR_FECHA_HORA);                           
1896:.\main.c      ****                         break;
1897:.\main.c      ****                         case 0x7E:  //Pantalla Inicial                                             
1898:.\main.c      ****                             SetPicture(2,DISPLAY_INICIO0);
1899:.\main.c      ****                             flowDisplay2 = 0;
1900:.\main.c      ****                         break;
1901:.\main.c      ****                         case 0x94:  //Pantalla Inicial                                             
1902:.\main.c      ****                             SetPicture(2,DISPLAY_INICIO0);
1903:.\main.c      ****                             flowDisplay2 = 0;
1904:.\main.c      ****                         break;
1905:.\main.c      ****                     }                    
1906:.\main.c      ****                 }
1907:.\main.c      ****                 CyDelay(10);         
1908:.\main.c      ****                 Display2_ClearRxBuffer();
1909:.\main.c      ****             }                        
1910:.\main.c      ****         break; 
1911:.\main.c      ****             
1912:.\main.c      ****         case 16:
ARM GAS  C:\Users\RECEPC~1\AppData\Local\Temp\cc6Stwwd.s 			page 35


1913:.\main.c      ****             if(Display2_GetRxBufferSize()==8){
1914:.\main.c      ****                 if((Display2_rxBuffer[0]==0xAA) && (Display2_rxBuffer[6]==0xC3) && (Display2_rxBuff
1915:.\main.c      ****                     switch(Display2_rxBuffer[3]){
1916:.\main.c      ****                         case 0x38:  //No funcionan  
1917:.\main.c      ****                             flowDisplay2 = 17;
1918:.\main.c      ****                             SetPicture(2,DISPLAY_IMPRESORA_NO_FUNCIONANDO);                        
1919:.\main.c      ****                         break;
1920:.\main.c      ****                         case 0x39:  //Si funcionan
1921:.\main.c      ****                             flowDisplay2 = 15; 
1922:.\main.c      ****                             printPortA = 1;
1923:.\main.c      ****                             printPortB = 2;
1924:.\main.c      ****                             EEPROM_1_WriteByte(printPortA,8);
1925:.\main.c      ****                             EEPROM_1_WriteByte(printPortB,9);
1926:.\main.c      ****                             SetPicture(2,DISPLAY_CONFIGURACIONES);
1927:.\main.c      ****                         break;
1928:.\main.c      ****                                                
1929:.\main.c      ****                         case 0x7E:  //Pantalla Inicial                                             
1930:.\main.c      ****                             SetPicture(2,DISPLAY_INICIO0);
1931:.\main.c      ****                             flowDisplay2 = 0;
1932:.\main.c      ****                         break;
1933:.\main.c      ****                         case 0x94:  //Pantalla Inicial                                             
1934:.\main.c      ****                             SetPicture(2,DISPLAY_INICIO0);
1935:.\main.c      ****                             flowDisplay2 = 0;
1936:.\main.c      ****                         break;
1937:.\main.c      ****                     }                    
1938:.\main.c      ****                 }
1939:.\main.c      ****                 CyDelay(10);         
1940:.\main.c      ****                 Display2_ClearRxBuffer();
1941:.\main.c      ****             }                        
1942:.\main.c      ****         break;
1943:.\main.c      ****             
1944:.\main.c      ****         case 17:
1945:.\main.c      ****             if(Display2_GetRxBufferSize()==8){
1946:.\main.c      ****                 if((Display2_rxBuffer[0]==0xAA) && (Display2_rxBuffer[6]==0xC3) && (Display2_rxBuff
1947:.\main.c      ****                     switch(Display2_rxBuffer[3]){
1948:.\main.c      ****                         case 0x8C:  //1 no funciona  
1949:.\main.c      ****                             flowDisplay2 = 15; 
1950:.\main.c      ****                             printPortA = 2;
1951:.\main.c      ****                             printPortB = 2;
1952:.\main.c      ****                             EEPROM_1_WriteByte(printPortA,8);
1953:.\main.c      ****                             EEPROM_1_WriteByte(printPortB,9);
1954:.\main.c      ****                             SetPicture(2,DISPLAY_CONFIGURACIONES);                            
1955:.\main.c      ****                         break;
1956:.\main.c      ****                         case 0x8D:  //2 no funciona
1957:.\main.c      ****                             flowDisplay2 = 15; 
1958:.\main.c      ****                             printPortA = 1;
1959:.\main.c      ****                             printPortB = 1;
1960:.\main.c      ****                             EEPROM_1_WriteByte(printPortA,8);
1961:.\main.c      ****                             EEPROM_1_WriteByte(printPortB,9);
1962:.\main.c      ****                             SetPicture(2,DISPLAY_CONFIGURACIONES); 
1963:.\main.c      ****                         break;
1964:.\main.c      ****                             
1965:.\main.c      ****                         case 0x8E:  //ninguna funciona
1966:.\main.c      ****                             flowDisplay2 = 15; 
1967:.\main.c      ****                             printPortA = 0;
1968:.\main.c      ****                             printPortB = 0;
1969:.\main.c      ****                             EEPROM_1_WriteByte(printPortA,8);
ARM GAS  C:\Users\RECEPC~1\AppData\Local\Temp\cc6Stwwd.s 			page 36


1970:.\main.c      ****                             EEPROM_1_WriteByte(printPortB,9);
1971:.\main.c      ****                             SetPicture(2,DISPLAY_CONFIGURACIONES); 
1972:.\main.c      ****                         break;
1973:.\main.c      ****                                                
1974:.\main.c      ****                         case 0x7E:  //Pantalla Inicial                                             
1975:.\main.c      ****                             SetPicture(2,DISPLAY_INICIO0);
1976:.\main.c      ****                             flowDisplay2 = 0;
1977:.\main.c      ****                         break;
1978:.\main.c      ****                         case 0x94:  //Pantalla Inicial                                             
1979:.\main.c      ****                             SetPicture(2,DISPLAY_INICIO0);
1980:.\main.c      ****                             flowDisplay2 = 0;
1981:.\main.c      ****                         break;
1982:.\main.c      ****                     }                    
1983:.\main.c      ****                 }
1984:.\main.c      ****                 CyDelay(10);         
1985:.\main.c      ****                 Display2_ClearRxBuffer();
1986:.\main.c      ****             }                        
1987:.\main.c      ****         break;
1988:.\main.c      ****             
1989:.\main.c      ****         case 18:
1990:.\main.c      ****             if(leer_hora()==1){
1991:.\main.c      ****                 WriteLCD(2,(((timeDownHandle[1]&0x10)>>4)+48),13,8,1,0x0000,'N');
1992:.\main.c      ****                 WriteLCD(2,((timeDownHandle[1]&0x0F)+48),13,9,1,0x0000,'N');
1993:.\main.c      ****                 WriteLCD(2,':',13,10,1,0x0000,'N');
1994:.\main.c      ****                 WriteLCD(2,(((timeDownHandle[0]&0xF0)>>4)+48),13,11,1,0x0000,'N');
1995:.\main.c      ****                 WriteLCD(2,((timeDownHandle[0]&0x0F)+48),13,12,1,0x0000,'N');               
1996:.\main.c      ****             }
1997:.\main.c      ****             if(leer_fecha()==1){                
1998:.\main.c      ****                 WriteLCD(2,(((dateDownHandle[0]&0x30)>>4)+48),21,8,1,0x0000,'N');
1999:.\main.c      ****                 WriteLCD(2,((dateDownHandle[0]&0x0F)+48),21,9,1,0x0000,'N');
2000:.\main.c      ****                 WriteLCD(2,'/',21,10,1,0x0000,'N');
2001:.\main.c      ****                 WriteLCD(2,(((dateDownHandle[1]&0x10)>>4)+48),21,11,1,0x0000,'N');
2002:.\main.c      ****                 WriteLCD(2,((dateDownHandle[1]&0x0F)+48),21,12,1,0x0000,'N');
2003:.\main.c      ****                 WriteLCD(2,'/',21,13,1,0x0000,'N');
2004:.\main.c      ****                 WriteLCD(2,(((dateDownHandle[2]&0xF0)>>4)+48),21,14,1,0x0000,'N');
2005:.\main.c      ****                 WriteLCD(2,((dateDownHandle[2]&0x0F)+48),21,15,1,0x0000,'N');
2006:.\main.c      ****             }
2007:.\main.c      ****             if(Display2_GetRxBufferSize()==8){
2008:.\main.c      ****                 if((Display2_rxBuffer[0]==0xAA) && (Display2_rxBuffer[6]==0xC3) && (Display2_rxBuff
2009:.\main.c      ****                     switch(Display2_rxBuffer[3]){                                                  
2010:.\main.c      ****                         case 0x7E:  //Pantalla Inicial  
2011:.\main.c      ****                             flowDisplay2 = 0;
2012:.\main.c      ****                             SetPicture(2,DISPLAY_INICIO0);                            
2013:.\main.c      ****                         break;
2014:.\main.c      ****                         case 0x94:  //Pantalla Inicial    
2015:.\main.c      ****                             flowDisplay2 = 0;
2016:.\main.c      ****                             SetPicture(2,DISPLAY_INICIO0);                            
2017:.\main.c      ****                         break;
2018:.\main.c      ****                     }                    
2019:.\main.c      ****                 }
2020:.\main.c      ****                 CyDelay(10);         
2021:.\main.c      ****                 Display2_ClearRxBuffer();
2022:.\main.c      ****             }                        
2023:.\main.c      ****         break;
2024:.\main.c      ****             
2025:.\main.c      ****         case 19:            
2026:.\main.c      ****             side.b.RFstateReport = 1;
ARM GAS  C:\Users\RECEPC~1\AppData\Local\Temp\cc6Stwwd.s 			page 37


2027:.\main.c      ****             ShiftState =1;
2028:.\main.c      ****         break;
2029:.\main.c      ****          
2030:.\main.c      ****     }    
2031:.\main.c      ****     }
2032:.\main.c      **** 
2033:.\main.c      **** 
2034:.\main.c      **** /*
2035:.\main.c      **** ***************************************************************************************************
2036:.\main.c      **** *                                         CY_ISR(animacion)
2037:.\main.c      **** *
2038:.\main.c      **** * Description : Interrupcion que temporiza las imagenes informativas que aparecen en la pantalla 1
2039:.\main.c      **** *               
2040:.\main.c      **** *
2041:.\main.c      **** ***************************************************************************************************
2042:.\main.c      **** */
2043:.\main.c      **** CY_ISR(animacion){
  27              		.loc 1 2043 0
  28              		.cfi_startproc
  29              		@ args = 0, pretend = 0, frame = 0
  30              		@ frame_needed = 0, uses_anonymous_args = 0
  31 0000 08B5     		push	{r3, lr}
  32              		.cfi_def_cfa_offset 8
  33              		.cfi_offset 3, -8
  34              		.cfi_offset 14, -4
2044:.\main.c      ****     Timer_Animacion_ReadStatusRegister();    					
  35              		.loc 1 2044 0
  36 0002 FFF7FEFF 		bl	Timer_Animacion_ReadStatusRegister
  37              	.LVL0:
2045:.\main.c      ****     count_protector++; 							//Incrementa el contador 
  38              		.loc 1 2045 0
  39 0006 024A     		ldr	r2, .L3
  40 0008 1378     		ldrb	r3, [r2]	@ zero_extendqisi2
  41 000a 0133     		adds	r3, r3, #1
  42 000c 1370     		strb	r3, [r2]
  43 000e 08BD     		pop	{r3, pc}
  44              	.L4:
  45              		.align	2
  46              	.L3:
  47 0010 00000000 		.word	count_protector
  48              		.cfi_endproc
  49              	.LFE73:
  50              		.size	animacion, .-animacion
  51              		.section	.text.animacion2,"ax",%progbits
  52              		.align	2
  53              		.global	animacion2
  54              		.thumb
  55              		.thumb_func
  56              		.type	animacion2, %function
  57              	animacion2:
  58              	.LFB74:
2046:.\main.c      **** }
2047:.\main.c      **** 
2048:.\main.c      **** /*
2049:.\main.c      **** ***************************************************************************************************
2050:.\main.c      **** *                                         CY_ISR(animacion2)
2051:.\main.c      **** *
ARM GAS  C:\Users\RECEPC~1\AppData\Local\Temp\cc6Stwwd.s 			page 38


2052:.\main.c      **** * Description : Interrupcion que temporiza las imagenes informativas que aparecen en la pantalla 2
2053:.\main.c      **** *               
2054:.\main.c      **** *
2055:.\main.c      **** ***************************************************************************************************
2056:.\main.c      **** */
2057:.\main.c      **** CY_ISR(animacion2){
  59              		.loc 1 2057 0
  60              		.cfi_startproc
  61              		@ args = 0, pretend = 0, frame = 0
  62              		@ frame_needed = 0, uses_anonymous_args = 0
  63 0000 08B5     		push	{r3, lr}
  64              		.cfi_def_cfa_offset 8
  65              		.cfi_offset 3, -8
  66              		.cfi_offset 14, -4
2058:.\main.c      ****     Timer_Animacion2_ReadStatusRegister();
  67              		.loc 1 2058 0
  68 0002 FFF7FEFF 		bl	Timer_Animacion2_ReadStatusRegister
  69              	.LVL1:
2059:.\main.c      ****     count_protector2++;
  70              		.loc 1 2059 0
  71 0006 024A     		ldr	r2, .L7
  72 0008 1378     		ldrb	r3, [r2]	@ zero_extendqisi2
  73 000a 0133     		adds	r3, r3, #1
  74 000c 1370     		strb	r3, [r2]
  75 000e 08BD     		pop	{r3, pc}
  76              	.L8:
  77              		.align	2
  78              	.L7:
  79 0010 00000000 		.word	count_protector2
  80              		.cfi_endproc
  81              	.LFE74:
  82              		.size	animacion2, .-animacion2
  83              		.section	.text.timerRFRX,"ax",%progbits
  84              		.align	2
  85              		.global	timerRFRX
  86              		.thumb
  87              		.thumb_func
  88              		.type	timerRFRX, %function
  89              	timerRFRX:
  90              	.LFB75:
2060:.\main.c      **** }
2061:.\main.c      **** /*
2062:.\main.c      **** ***************************************************************************************************
2063:.\main.c      **** *                                         CY_ISR(timerBeagleTX1)
2064:.\main.c      **** *
2065:.\main.c      **** * Description : Interrupcion que temporiza tiempos de espera
2066:.\main.c      **** *               
2067:.\main.c      **** *
2068:.\main.c      **** * Argument(s) : none
2069:.\main.c      **** *
2070:.\main.c      **** * Return(s)   : none
2071:.\main.c      **** *
2072:.\main.c      **** * Caller(s)   : 
2073:.\main.c      **** *
2074:.\main.c      **** * Note(s)     : none.
2075:.\main.c      **** ***************************************************************************************************
2076:.\main.c      **** */
ARM GAS  C:\Users\RECEPC~1\AppData\Local\Temp\cc6Stwwd.s 			page 39


2077:.\main.c      **** CY_ISR(timerRFRX){
  91              		.loc 1 2077 0
  92              		.cfi_startproc
  93              		@ args = 0, pretend = 0, frame = 0
  94              		@ frame_needed = 0, uses_anonymous_args = 0
  95 0000 08B5     		push	{r3, lr}
  96              		.cfi_def_cfa_offset 8
  97              		.cfi_offset 3, -8
  98              		.cfi_offset 14, -4
2078:.\main.c      ****     Waitable_3_ReadStatusRegister();
  99              		.loc 1 2078 0
 100 0002 FFF7FEFF 		bl	Waitable_3_ReadStatusRegister
 101              	.LVL2:
2079:.\main.c      ****     countRX++;    
 102              		.loc 1 2079 0
 103 0006 0449     		ldr	r1, .L11
 104 0008 D1E90023 		ldrd	r2, [r1]
 105 000c 0132     		adds	r2, r2, #1
 106 000e 43F10003 		adc	r3, r3, #0
 107 0012 C1E90023 		strd	r2, [r1]
 108 0016 08BD     		pop	{r3, pc}
 109              	.L12:
 110              		.align	2
 111              	.L11:
 112 0018 00000000 		.word	countRX
 113              		.cfi_endproc
 114              	.LFE75:
 115              		.size	timerRFRX, .-timerRFRX
 116              		.section	.text.timerLCD,"ax",%progbits
 117              		.align	2
 118              		.global	timerLCD
 119              		.thumb
 120              		.thumb_func
 121              		.type	timerLCD, %function
 122              	timerLCD:
 123              	.LFB76:
2080:.\main.c      **** }
2081:.\main.c      **** /*
2082:.\main.c      **** ***************************************************************************************************
2083:.\main.c      **** *                                         CY_ISR(timerBeagleTX1)
2084:.\main.c      **** *
2085:.\main.c      **** * Description : Interrupcion que temporiza tiempos de espera
2086:.\main.c      **** *               
2087:.\main.c      **** *
2088:.\main.c      **** * Argument(s) : none
2089:.\main.c      **** *
2090:.\main.c      **** * Return(s)   : none
2091:.\main.c      **** *
2092:.\main.c      **** * Caller(s)   : 
2093:.\main.c      **** *
2094:.\main.c      **** * Note(s)     : none.
2095:.\main.c      **** ***************************************************************************************************
2096:.\main.c      **** */
2097:.\main.c      **** CY_ISR(timerLCD){
 124              		.loc 1 2097 0
 125              		.cfi_startproc
 126              		@ args = 0, pretend = 0, frame = 0
ARM GAS  C:\Users\RECEPC~1\AppData\Local\Temp\cc6Stwwd.s 			page 40


 127              		@ frame_needed = 0, uses_anonymous_args = 0
 128 0000 08B5     		push	{r3, lr}
 129              		.cfi_def_cfa_offset 8
 130              		.cfi_offset 3, -8
 131              		.cfi_offset 14, -4
2098:.\main.c      ****     Waitable_4_ReadStatusRegister();
 132              		.loc 1 2098 0
 133 0002 FFF7FEFF 		bl	Waitable_4_ReadStatusRegister
 134              	.LVL3:
 135 0006 08BD     		pop	{r3, pc}
 136              		.cfi_endproc
 137              	.LFE76:
 138              		.size	timerLCD, .-timerLCD
 139              		.section	.text.GlobalInitializer,"ax",%progbits
 140              		.align	2
 141              		.global	GlobalInitializer
 142              		.thumb
 143              		.thumb_func
 144              		.type	GlobalInitializer, %function
 145              	GlobalInitializer:
 146              	.LFB63:
  39:.\main.c      ****     EEPROM_1_Start();
 147              		.loc 1 39 0
 148              		.cfi_startproc
 149              		@ args = 0, pretend = 0, frame = 0
 150              		@ frame_needed = 0, uses_anonymous_args = 0
 151 0000 08B5     		push	{r3, lr}
 152              		.cfi_def_cfa_offset 8
 153              		.cfi_offset 3, -8
 154              		.cfi_offset 14, -4
  40:.\main.c      ****     Pump_Start(); 
 155              		.loc 1 40 0
 156 0002 FFF7FEFF 		bl	EEPROM_1_Start
 157              	.LVL4:
  41:.\main.c      ****     Display1_Start();
 158              		.loc 1 41 0
 159 0006 FFF7FEFF 		bl	Pump_Start
 160              	.LVL5:
  42:.\main.c      ****     Display2_Start();    
 161              		.loc 1 42 0
 162 000a FFF7FEFF 		bl	Display1_Start
 163              	.LVL6:
  43:.\main.c      ****     Printer_Start();   
 164              		.loc 1 43 0
 165 000e FFF7FEFF 		bl	Display2_Start
 166              	.LVL7:
  44:.\main.c      ****     I2C_Bus_Start();
 167              		.loc 1 44 0
 168 0012 FFF7FEFF 		bl	Printer_Start
 169              	.LVL8:
  45:.\main.c      ****     RF_Connection_Start();
 170              		.loc 1 45 0
 171 0016 FFF7FEFF 		bl	I2C_Bus_Start
 172              	.LVL9:
  46:.\main.c      ****     isr_1_StartEx(timerRFRX);
 173              		.loc 1 46 0
 174 001a FFF7FEFF 		bl	RF_Connection_Start
ARM GAS  C:\Users\RECEPC~1\AppData\Local\Temp\cc6Stwwd.s 			page 41


 175              	.LVL10:
  47:.\main.c      ****     isr_2_StartEx(timerLCD);
 176              		.loc 1 47 0
 177 001e 0848     		ldr	r0, .L17
 178 0020 FFF7FEFF 		bl	isr_1_StartEx
 179              	.LVL11:
  48:.\main.c      ****     isr_3_StartEx(animacion);
 180              		.loc 1 48 0
 181 0024 0748     		ldr	r0, .L17+4
 182 0026 FFF7FEFF 		bl	isr_2_StartEx
 183              	.LVL12:
  49:.\main.c      ****     isr_4_StartEx(animacion2);
 184              		.loc 1 49 0
 185 002a 0748     		ldr	r0, .L17+8
 186 002c FFF7FEFF 		bl	isr_3_StartEx
 187              	.LVL13:
  50:.\main.c      ****     Waitable_3_Start();     
 188              		.loc 1 50 0
 189 0030 0648     		ldr	r0, .L17+12
 190 0032 FFF7FEFF 		bl	isr_4_StartEx
 191              	.LVL14:
  51:.\main.c      ****     Waitable_4_Start();
 192              		.loc 1 51 0
 193 0036 FFF7FEFF 		bl	Waitable_3_Start
 194              	.LVL15:
  52:.\main.c      ****     
 195              		.loc 1 52 0
 196 003a FFF7FEFF 		bl	Waitable_4_Start
 197              	.LVL16:
 198 003e 08BD     		pop	{r3, pc}
 199              	.L18:
 200              		.align	2
 201              	.L17:
 202 0040 00000000 		.word	timerRFRX
 203 0044 00000000 		.word	timerLCD
 204 0048 00000000 		.word	animacion
 205 004c 00000000 		.word	animacion2
 206              		.cfi_endproc
 207              	.LFE63:
 208              		.size	GlobalInitializer, .-GlobalInitializer
 209              		.section	.text.StoreConfiguration,"ax",%progbits
 210              		.align	2
 211              		.global	StoreConfiguration
 212              		.thumb
 213              		.thumb_func
 214              		.type	StoreConfiguration, %function
 215              	StoreConfiguration:
 216              	.LFB64:
  55:.\main.c      ****     EEPROM_1_WriteByte(UnitType,0);
 217              		.loc 1 55 0
 218              		.cfi_startproc
 219              		@ args = 0, pretend = 0, frame = 0
 220              		@ frame_needed = 0, uses_anonymous_args = 0
 221 0000 10B5     		push	{r4, lr}
 222              		.cfi_def_cfa_offset 8
 223              		.cfi_offset 4, -8
 224              		.cfi_offset 14, -4
ARM GAS  C:\Users\RECEPC~1\AppData\Local\Temp\cc6Stwwd.s 			page 42


  56:.\main.c      ****     EEPROM_1_WriteByte(ConversionFactor,1);
 225              		.loc 1 56 0
 226 0002 1C4B     		ldr	r3, .L21
 227 0004 1878     		ldrb	r0, [r3]	@ zero_extendqisi2
 228 0006 0021     		movs	r1, #0
 229 0008 FFF7FEFF 		bl	EEPROM_1_WriteByte
 230              	.LVL17:
  57:.\main.c      ****     EEPROM_1_WriteByte(MoneyDec,2);
 231              		.loc 1 57 0
 232 000c 1A4B     		ldr	r3, .L21+4
 233 000e 1878     		ldrb	r0, [r3]	@ zero_extendqisi2
 234 0010 0121     		movs	r1, #1
 235 0012 FFF7FEFF 		bl	EEPROM_1_WriteByte
 236              	.LVL18:
  58:.\main.c      ****     EEPROM_1_WriteByte(VolDec,3);
 237              		.loc 1 58 0
 238 0016 194B     		ldr	r3, .L21+8
 239 0018 1878     		ldrb	r0, [r3]	@ zero_extendqisi2
 240 001a 0221     		movs	r1, #2
 241 001c FFF7FEFF 		bl	EEPROM_1_WriteByte
 242              	.LVL19:
  59:.\main.c      ****     EEPROM_1_WriteByte(PPUDec,4);
 243              		.loc 1 59 0
 244 0020 174B     		ldr	r3, .L21+12
 245 0022 1878     		ldrb	r0, [r3]	@ zero_extendqisi2
 246 0024 0321     		movs	r1, #3
 247 0026 FFF7FEFF 		bl	EEPROM_1_WriteByte
 248              	.LVL20:
  60:.\main.c      ****     EEPROM_1_WriteByte(DDMode,5);
 249              		.loc 1 60 0
 250 002a 164B     		ldr	r3, .L21+16
 251 002c 1878     		ldrb	r0, [r3]	@ zero_extendqisi2
 252 002e 0421     		movs	r1, #4
 253 0030 FFF7FEFF 		bl	EEPROM_1_WriteByte
 254              	.LVL21:
  61:.\main.c      ****     EEPROM_1_WriteByte(digits,6); 
 255              		.loc 1 61 0
 256 0034 144B     		ldr	r3, .L21+20
 257 0036 1878     		ldrb	r0, [r3]	@ zero_extendqisi2
 258 0038 0521     		movs	r1, #5
 259 003a FFF7FEFF 		bl	EEPROM_1_WriteByte
 260              	.LVL22:
  62:.\main.c      ****     EEPROM_1_WriteByte(side.a.dir,12);
 261              		.loc 1 62 0
 262 003e 134B     		ldr	r3, .L21+24
 263 0040 1878     		ldrb	r0, [r3]	@ zero_extendqisi2
 264 0042 0621     		movs	r1, #6
 265 0044 FFF7FEFF 		bl	EEPROM_1_WriteByte
 266              	.LVL23:
  63:.\main.c      ****     EEPROM_1_WriteByte(side.b.dir,13);
 267              		.loc 1 63 0
 268 0048 114C     		ldr	r4, .L21+28
 269 004a 2078     		ldrb	r0, [r4]	@ zero_extendqisi2
 270 004c 0C21     		movs	r1, #12
 271 004e FFF7FEFF 		bl	EEPROM_1_WriteByte
 272              	.LVL24:
  64:.\main.c      ****     EEPROM_1_WriteByte(side.c.dir,14);
ARM GAS  C:\Users\RECEPC~1\AppData\Local\Temp\cc6Stwwd.s 			page 43


 273              		.loc 1 64 0
 274 0052 94F81201 		ldrb	r0, [r4, #274]	@ zero_extendqisi2
 275 0056 0D21     		movs	r1, #13
 276 0058 FFF7FEFF 		bl	EEPROM_1_WriteByte
 277              	.LVL25:
  65:.\main.c      ****     EEPROM_1_WriteByte(side.d.dir,15);
 278              		.loc 1 65 0
 279 005c 94F82402 		ldrb	r0, [r4, #548]	@ zero_extendqisi2
 280 0060 0E21     		movs	r1, #14
 281 0062 FFF7FEFF 		bl	EEPROM_1_WriteByte
 282              	.LVL26:
  66:.\main.c      **** }
 283              		.loc 1 66 0
 284 0066 94F83603 		ldrb	r0, [r4, #822]	@ zero_extendqisi2
 285 006a 0F21     		movs	r1, #15
 286 006c FFF7FEFF 		bl	EEPROM_1_WriteByte
 287              	.LVL27:
 288 0070 10BD     		pop	{r4, pc}
 289              	.L22:
 290 0072 00BF     		.align	2
 291              	.L21:
 292 0074 00000000 		.word	UnitType
 293 0078 00000000 		.word	ConversionFactor
 294 007c 00000000 		.word	MoneyDec
 295 0080 00000000 		.word	VolDec
 296 0084 00000000 		.word	PPUDec
 297 0088 00000000 		.word	DDMode
 298 008c 00000000 		.word	digits
 299 0090 00000000 		.word	side
 300              		.cfi_endproc
 301              	.LFE64:
 302              		.size	StoreConfiguration, .-StoreConfiguration
 303              		.section	.text.loadConfiguration,"ax",%progbits
 304              		.align	2
 305              		.global	loadConfiguration
 306              		.thumb
 307              		.thumb_func
 308              		.type	loadConfiguration, %function
 309              	loadConfiguration:
 310              	.LFB65:
  68:.\main.c      ****     //uint8 x;
 311              		.loc 1 68 0
 312              		.cfi_startproc
 313              		@ args = 0, pretend = 0, frame = 0
 314              		@ frame_needed = 0, uses_anonymous_args = 0
 315 0000 10B5     		push	{r4, lr}
 316              		.cfi_def_cfa_offset 8
 317              		.cfi_offset 4, -8
 318              		.cfi_offset 14, -4
  70:.\main.c      ****     VolDec     = EEPROM_1_ReadByte(3);
 319              		.loc 1 70 0
 320 0002 0220     		movs	r0, #2
 321 0004 FFF7FEFF 		bl	EEPROM_1_ReadByte
 322              	.LVL28:
 323 0008 234B     		ldr	r3, .L25
 324 000a 1870     		strb	r0, [r3]
  71:.\main.c      ****     PPUDec     = EEPROM_1_ReadByte(4);
ARM GAS  C:\Users\RECEPC~1\AppData\Local\Temp\cc6Stwwd.s 			page 44


 325              		.loc 1 71 0
 326 000c 0320     		movs	r0, #3
 327 000e FFF7FEFF 		bl	EEPROM_1_ReadByte
 328              	.LVL29:
 329 0012 224B     		ldr	r3, .L25+4
 330 0014 1870     		strb	r0, [r3]
  72:.\main.c      ****     DDMode     = EEPROM_1_ReadByte(5);
 331              		.loc 1 72 0
 332 0016 0420     		movs	r0, #4
 333 0018 FFF7FEFF 		bl	EEPROM_1_ReadByte
 334              	.LVL30:
 335 001c 204B     		ldr	r3, .L25+8
 336 001e 1870     		strb	r0, [r3]
  73:.\main.c      ****     digits     = EEPROM_1_ReadByte(6);
 337              		.loc 1 73 0
 338 0020 0520     		movs	r0, #5
 339 0022 FFF7FEFF 		bl	EEPROM_1_ReadByte
 340              	.LVL31:
 341 0026 1F4B     		ldr	r3, .L25+12
 342 0028 1870     		strb	r0, [r3]
  74:.\main.c      ****     lockTurn   = EEPROM_1_ReadByte(7);  //Fijo turno abierto para pruebas
 343              		.loc 1 74 0
 344 002a 0620     		movs	r0, #6
 345 002c FFF7FEFF 		bl	EEPROM_1_ReadByte
 346              	.LVL32:
 347 0030 1D4B     		ldr	r3, .L25+16
 348 0032 1870     		strb	r0, [r3]
  75:.\main.c      ****     printPortA = EEPROM_1_ReadByte(8);  //Puertos de impresion
 349              		.loc 1 75 0
 350 0034 0720     		movs	r0, #7
 351 0036 FFF7FEFF 		bl	EEPROM_1_ReadByte
 352              	.LVL33:
 353 003a 1C4B     		ldr	r3, .L25+20
 354 003c 1870     		strb	r0, [r3]
  76:.\main.c      ****     printPortB = EEPROM_1_ReadByte(9); //Puertos de impresion
 355              		.loc 1 76 0
 356 003e 0820     		movs	r0, #8
 357 0040 FFF7FEFF 		bl	EEPROM_1_ReadByte
 358              	.LVL34:
 359 0044 1A4B     		ldr	r3, .L25+24
 360 0046 1870     		strb	r0, [r3]
  77:.\main.c      ****     IDCast[0]  = EEPROM_1_ReadByte(10); //ID Estacion1
 361              		.loc 1 77 0
 362 0048 0920     		movs	r0, #9
 363 004a FFF7FEFF 		bl	EEPROM_1_ReadByte
 364              	.LVL35:
 365 004e 194B     		ldr	r3, .L25+28
 366 0050 1870     		strb	r0, [r3]
  78:.\main.c      ****     IDCast[1]  = EEPROM_1_ReadByte(11); //ID Estacion2    
 367              		.loc 1 78 0
 368 0052 0A20     		movs	r0, #10
 369 0054 FFF7FEFF 		bl	EEPROM_1_ReadByte
 370              	.LVL36:
 371 0058 174C     		ldr	r4, .L25+32
 372 005a 2070     		strb	r0, [r4]
  79:.\main.c      ****     passwordPump[0] = 0x04;
 373              		.loc 1 79 0
ARM GAS  C:\Users\RECEPC~1\AppData\Local\Temp\cc6Stwwd.s 			page 45


 374 005c 0B20     		movs	r0, #11
 375 005e FFF7FEFF 		bl	EEPROM_1_ReadByte
 376              	.LVL37:
 377 0062 6070     		strb	r0, [r4, #1]
  80:.\main.c      ****     configAccess[0] = 0x04; 
 378              		.loc 1 80 0
 379 0064 0423     		movs	r3, #4
 380 0066 154A     		ldr	r2, .L25+36
 381 0068 1370     		strb	r3, [r2]
  81:.\main.c      ****     side.a.dir = EEPROM_1_ReadByte(12);
 382              		.loc 1 81 0
 383 006a 154A     		ldr	r2, .L25+40
 384 006c 1370     		strb	r3, [r2]
  82:.\main.c      ****     side.b.dir = EEPROM_1_ReadByte(13);
 385              		.loc 1 82 0
 386 006e 0C20     		movs	r0, #12
 387 0070 FFF7FEFF 		bl	EEPROM_1_ReadByte
 388              	.LVL38:
 389 0074 134C     		ldr	r4, .L25+44
 390 0076 2070     		strb	r0, [r4]
  83:.\main.c      ****     side.c.dir = EEPROM_1_ReadByte(14);
 391              		.loc 1 83 0
 392 0078 0D20     		movs	r0, #13
 393 007a FFF7FEFF 		bl	EEPROM_1_ReadByte
 394              	.LVL39:
 395 007e 84F81201 		strb	r0, [r4, #274]
  84:.\main.c      ****     side.d.dir = EEPROM_1_ReadByte(15);
 396              		.loc 1 84 0
 397 0082 0E20     		movs	r0, #14
 398 0084 FFF7FEFF 		bl	EEPROM_1_ReadByte
 399              	.LVL40:
 400 0088 84F82402 		strb	r0, [r4, #548]
  85:.\main.c      **** //    for(x=0; x<30;x++){
 401              		.loc 1 85 0
 402 008c 0F20     		movs	r0, #15
 403 008e FFF7FEFF 		bl	EEPROM_1_ReadByte
 404              	.LVL41:
 405 0092 84F83603 		strb	r0, [r4, #822]
 406 0096 10BD     		pop	{r4, pc}
 407              	.L26:
 408              		.align	2
 409              	.L25:
 410 0098 00000000 		.word	MoneyDec
 411 009c 00000000 		.word	VolDec
 412 00a0 00000000 		.word	PPUDec
 413 00a4 00000000 		.word	DDMode
 414 00a8 00000000 		.word	digits
 415 00ac 00000000 		.word	lockTurn
 416 00b0 00000000 		.word	printPortA
 417 00b4 00000000 		.word	printPortB
 418 00b8 00000000 		.word	IDCast
 419 00bc 00000000 		.word	.LANCHOR0
 420 00c0 00000000 		.word	configAccess
 421 00c4 00000000 		.word	side
 422              		.cfi_endproc
 423              	.LFE65:
 424              		.size	loadConfiguration, .-loadConfiguration
ARM GAS  C:\Users\RECEPC~1\AppData\Local\Temp\cc6Stwwd.s 			page 46


 425              		.section	.text.InitDisplay1,"ax",%progbits
 426              		.align	2
 427              		.global	InitDisplay1
 428              		.thumb
 429              		.thumb_func
 430              		.type	InitDisplay1, %function
 431              	InitDisplay1:
 432              	.LFB66:
 110:.\main.c      ****     uint8_t iniText[10]="Iniciando"; 
 433              		.loc 1 110 0
 434              		.cfi_startproc
 435              		@ args = 0, pretend = 0, frame = 112
 436              		@ frame_needed = 0, uses_anonymous_args = 0
 437 0000 10B5     		push	{r4, lr}
 438              		.cfi_def_cfa_offset 8
 439              		.cfi_offset 4, -8
 440              		.cfi_offset 14, -4
 441 0002 9CB0     		sub	sp, sp, #112
 442              		.cfi_def_cfa_offset 120
 111:.\main.c      ****     uint8_t Unit[10] = "S/D/Dupla ";
 443              		.loc 1 111 0
 444 0004 994A     		ldr	r2, .L44
 445 0006 19AB     		add	r3, sp, #100
 446 0008 07CA     		ldmia	r2, {r0, r1, r2}
 447 000a 03C3     		stmia	r3!, {r0, r1}
 448 000c 1A80     		strh	r2, [r3]	@ movhi
 112:.\main.c      ****     uint8_t Unit2[10] = "Quadrupla";
 449              		.loc 1 112 0
 450 000e 984B     		ldr	r3, .L44+4
 451 0010 16AC     		add	r4, sp, #88
 452 0012 93E80700 		ldmia	r3, {r0, r1, r2}
 453 0016 03C4     		stmia	r4!, {r0, r1}
 454 0018 2280     		strh	r2, [r4]	@ movhi
 113:.\main.c      ****     uint8_t Unit3[10] = "Sextupla";
 455              		.loc 1 113 0
 456 001a 964A     		ldr	r2, .L44+8
 457 001c 13AC     		add	r4, sp, #76
 458 001e 07CA     		ldmia	r2, {r0, r1, r2}
 459 0020 03C4     		stmia	r4!, {r0, r1}
 460 0022 2280     		strh	r2, [r4]	@ movhi
 114:.\main.c      ****     uint8_t Unit4[10] = "Octupla";
 461              		.loc 1 114 0
 462 0024 10AC     		add	r4, sp, #64
 463 0026 03F10C02 		add	r2, r3, #12
 464 002a 07CA     		ldmia	r2, {r0, r1, r2}
 465 002c 03C4     		stmia	r4!, {r0, r1}
 466 002e 2270     		strb	r2, [r4]
 467 0030 0022     		movs	r2, #0
 468 0032 8DF84920 		strb	r2, [sp, #73]
 115:.\main.c      ****     uint8_t DisplayMode0[10] = "5-5-4     ";
 469              		.loc 1 115 0
 470 0036 0DAC     		add	r4, sp, #52
 471 0038 03F11801 		add	r1, r3, #24
 472 003c 03C9     		ldmia	r1, {r0, r1}
 473 003e 84E80300 		stmia	r4, {r0, r1}
 474 0042 ADF83C20 		strh	r2, [sp, #60]	@ movhi
 116:.\main.c      ****     uint8_t DisplayMode[10] = "6-6-4     ";
ARM GAS  C:\Users\RECEPC~1\AppData\Local\Temp\cc6Stwwd.s 			page 47


 475              		.loc 1 116 0
 476 0046 0AAC     		add	r4, sp, #40
 477 0048 03F12402 		add	r2, r3, #36
 478 004c 07CA     		ldmia	r2, {r0, r1, r2}
 479 004e 03C4     		stmia	r4!, {r0, r1}
 480 0050 2280     		strh	r2, [r4]	@ movhi
 117:.\main.c      ****     uint8_t DisplayMode2[10] = "7-7-5     ";
 481              		.loc 1 117 0
 482 0052 07AC     		add	r4, sp, #28
 483 0054 03F13002 		add	r2, r3, #48
 484 0058 07CA     		ldmia	r2, {r0, r1, r2}
 485 005a 03C4     		stmia	r4!, {r0, r1}
 486 005c 2280     		strh	r2, [r4]	@ movhi
 118:.\main.c      ****     uint8_t DisplayMode3[10] = "8-7-5     ";
 487              		.loc 1 118 0
 488 005e 04AC     		add	r4, sp, #16
 489 0060 03F13C02 		add	r2, r3, #60
 490 0064 07CA     		ldmia	r2, {r0, r1, r2}
 491 0066 03C4     		stmia	r4!, {r0, r1}
 492 0068 2280     		strh	r2, [r4]	@ movhi
 119:.\main.c      ****     if(NumPositions == 2){
 493              		.loc 1 119 0
 494 006a 01AC     		add	r4, sp, #4
 495 006c 4833     		adds	r3, r3, #72
 496 006e 93E80700 		ldmia	r3, {r0, r1, r2}
 497 0072 03C4     		stmia	r4!, {r0, r1}
 498 0074 2280     		strh	r2, [r4]	@ movhi
 120:.\main.c      ****         SetPicture(1,DISPLAY_INICIO0);         
 499              		.loc 1 120 0
 500 0076 804B     		ldr	r3, .L44+12
 501 0078 1B78     		ldrb	r3, [r3]	@ zero_extendqisi2
 502 007a 022B     		cmp	r3, #2
 503 007c 7AD1     		bne	.L28
 121:.\main.c      ****         ShowMessage(1,iniText,0);    
 504              		.loc 1 121 0
 505 007e 0120     		movs	r0, #1
 506 0080 0146     		mov	r1, r0
 507 0082 FFF7FEFF 		bl	SetPicture
 508              	.LVL42:
 122:.\main.c      ****         CyDelay(300);
 509              		.loc 1 122 0
 510 0086 0120     		movs	r0, #1
 511 0088 19A9     		add	r1, sp, #100
 512 008a 0022     		movs	r2, #0
 513 008c FFF7FEFF 		bl	ShowMessage
 514              	.LVL43:
 123:.\main.c      ****         if(UnitType == 0){
 515              		.loc 1 123 0
 516 0090 4FF49670 		mov	r0, #300
 517 0094 FFF7FEFF 		bl	CyDelay
 518              	.LVL44:
 124:.\main.c      ****             side.a.hoseNumber = UnitType+1;
 519              		.loc 1 124 0
 520 0098 784B     		ldr	r3, .L44+16
 521 009a 1B78     		ldrb	r3, [r3]	@ zero_extendqisi2
 522 009c 5BB9     		cbnz	r3, .L29
 125:.\main.c      ****             side.b.hoseNumber = UnitType+1;
ARM GAS  C:\Users\RECEPC~1\AppData\Local\Temp\cc6Stwwd.s 			page 48


 523              		.loc 1 125 0
 524 009e 0133     		adds	r3, r3, #1
 525 00a0 DBB2     		uxtb	r3, r3
 526 00a2 774A     		ldr	r2, .L44+20
 527 00a4 82F80231 		strb	r3, [r2, #258]
 126:.\main.c      ****             ShowMessage(1,Unit,0);  //Mostrar tipo de dispensador      
 528              		.loc 1 126 0
 529 00a8 82F81432 		strb	r3, [r2, #532]
 127:.\main.c      ****         }
 530              		.loc 1 127 0
 531 00ac 0120     		movs	r0, #1
 532 00ae 16A9     		add	r1, sp, #88
 533 00b0 0022     		movs	r2, #0
 534 00b2 FFF7FEFF 		bl	ShowMessage
 535              	.LVL45:
 536              	.L29:
 129:.\main.c      ****             side.a.hoseNumber = UnitType+1;
 537              		.loc 1 129 0
 538 00b6 714B     		ldr	r3, .L44+16
 539 00b8 1B78     		ldrb	r3, [r3]	@ zero_extendqisi2
 540 00ba 012B     		cmp	r3, #1
 541 00bc 0BD1     		bne	.L30
 130:.\main.c      ****             side.b.hoseNumber = UnitType+1;
 542              		.loc 1 130 0
 543 00be 0133     		adds	r3, r3, #1
 544 00c0 DBB2     		uxtb	r3, r3
 545 00c2 6F4A     		ldr	r2, .L44+20
 546 00c4 82F80231 		strb	r3, [r2, #258]
 131:.\main.c      ****             ShowMessage(1,Unit2,0);
 547              		.loc 1 131 0
 548 00c8 82F81432 		strb	r3, [r2, #532]
 132:.\main.c      ****         }
 549              		.loc 1 132 0
 550 00cc 0120     		movs	r0, #1
 551 00ce 13A9     		add	r1, sp, #76
 552 00d0 0022     		movs	r2, #0
 553 00d2 FFF7FEFF 		bl	ShowMessage
 554              	.LVL46:
 555              	.L30:
 134:.\main.c      ****             side.a.hoseNumber = UnitType+1;
 556              		.loc 1 134 0
 557 00d6 694B     		ldr	r3, .L44+16
 558 00d8 1B78     		ldrb	r3, [r3]	@ zero_extendqisi2
 559 00da 022B     		cmp	r3, #2
 560 00dc 0BD1     		bne	.L31
 135:.\main.c      ****             side.b.hoseNumber = UnitType+1;
 561              		.loc 1 135 0
 562 00de 0133     		adds	r3, r3, #1
 563 00e0 DBB2     		uxtb	r3, r3
 564 00e2 674A     		ldr	r2, .L44+20
 565 00e4 82F80231 		strb	r3, [r2, #258]
 136:.\main.c      ****             ShowMessage(1,Unit3,0);
 566              		.loc 1 136 0
 567 00e8 82F81432 		strb	r3, [r2, #532]
 137:.\main.c      ****         }
 568              		.loc 1 137 0
 569 00ec 0120     		movs	r0, #1
ARM GAS  C:\Users\RECEPC~1\AppData\Local\Temp\cc6Stwwd.s 			page 49


 570 00ee 10A9     		add	r1, sp, #64
 571 00f0 0022     		movs	r2, #0
 572 00f2 FFF7FEFF 		bl	ShowMessage
 573              	.LVL47:
 574              	.L31:
 139:.\main.c      ****             side.a.hoseNumber = UnitType+1;
 575              		.loc 1 139 0
 576 00f6 614B     		ldr	r3, .L44+16
 577 00f8 1B78     		ldrb	r3, [r3]	@ zero_extendqisi2
 578 00fa 032B     		cmp	r3, #3
 579 00fc 0BD1     		bne	.L32
 140:.\main.c      ****             side.b.hoseNumber = UnitType+1;
 580              		.loc 1 140 0
 581 00fe 0133     		adds	r3, r3, #1
 582 0100 DBB2     		uxtb	r3, r3
 583 0102 5F4A     		ldr	r2, .L44+20
 584 0104 82F80231 		strb	r3, [r2, #258]
 141:.\main.c      ****             ShowMessage(1,Unit4,0);
 585              		.loc 1 141 0
 586 0108 82F81432 		strb	r3, [r2, #532]
 142:.\main.c      ****         } 
 587              		.loc 1 142 0
 588 010c 0120     		movs	r0, #1
 589 010e 0DA9     		add	r1, sp, #52
 590 0110 0022     		movs	r2, #0
 591 0112 FFF7FEFF 		bl	ShowMessage
 592              	.LVL48:
 593              	.L32:
 144:.\main.c      ****             ShowMessage(1,DisplayMode0,22); //Mostrar modo de display
 594              		.loc 1 144 0
 595 0116 5B4B     		ldr	r3, .L44+24
 596 0118 1B78     		ldrb	r3, [r3]	@ zero_extendqisi2
 597 011a 3BB9     		cbnz	r3, .L33
 145:.\main.c      ****             digits = 5;
 598              		.loc 1 145 0
 599 011c 0120     		movs	r0, #1
 600 011e 0AA9     		add	r1, sp, #40
 601 0120 1622     		movs	r2, #22
 602 0122 FFF7FEFF 		bl	ShowMessage
 603              	.LVL49:
 146:.\main.c      ****         }
 604              		.loc 1 146 0
 605 0126 0522     		movs	r2, #5
 606 0128 574B     		ldr	r3, .L44+28
 607 012a 1A70     		strb	r2, [r3]
 608              	.L33:
 148:.\main.c      ****             ShowMessage(1,DisplayMode,22); //Mostrar modo de display
 609              		.loc 1 148 0
 610 012c 554B     		ldr	r3, .L44+24
 611 012e 1B78     		ldrb	r3, [r3]	@ zero_extendqisi2
 612 0130 012B     		cmp	r3, #1
 613 0132 07D1     		bne	.L34
 149:.\main.c      ****             digits = 6;
 614              		.loc 1 149 0
 615 0134 0120     		movs	r0, #1
 616 0136 07A9     		add	r1, sp, #28
 617 0138 1622     		movs	r2, #22
ARM GAS  C:\Users\RECEPC~1\AppData\Local\Temp\cc6Stwwd.s 			page 50


 618 013a FFF7FEFF 		bl	ShowMessage
 619              	.LVL50:
 150:.\main.c      ****         }
 620              		.loc 1 150 0
 621 013e 0622     		movs	r2, #6
 622 0140 514B     		ldr	r3, .L44+28
 623 0142 1A70     		strb	r2, [r3]
 624              	.L34:
 152:.\main.c      ****            ShowMessage(1,DisplayMode2,22);
 625              		.loc 1 152 0
 626 0144 4F4B     		ldr	r3, .L44+24
 627 0146 1B78     		ldrb	r3, [r3]	@ zero_extendqisi2
 628 0148 022B     		cmp	r3, #2
 629 014a 07D1     		bne	.L35
 153:.\main.c      ****             digits = 7;
 630              		.loc 1 153 0
 631 014c 0120     		movs	r0, #1
 632 014e 04A9     		add	r1, sp, #16
 633 0150 1622     		movs	r2, #22
 634 0152 FFF7FEFF 		bl	ShowMessage
 635              	.LVL51:
 154:.\main.c      ****         }
 636              		.loc 1 154 0
 637 0156 0722     		movs	r2, #7
 638 0158 4B4B     		ldr	r3, .L44+28
 639 015a 1A70     		strb	r2, [r3]
 640              	.L35:
 156:.\main.c      ****             ShowMessage(1,DisplayMode3,22);
 641              		.loc 1 156 0
 642 015c 494B     		ldr	r3, .L44+24
 643 015e 1B78     		ldrb	r3, [r3]	@ zero_extendqisi2
 644 0160 032B     		cmp	r3, #3
 645 0162 07D1     		bne	.L28
 157:.\main.c      ****             digits = 8;
 646              		.loc 1 157 0
 647 0164 0120     		movs	r0, #1
 648 0166 01A9     		add	r1, sp, #4
 649 0168 1622     		movs	r2, #22
 650 016a FFF7FEFF 		bl	ShowMessage
 651              	.LVL52:
 158:.\main.c      ****         }        
 652              		.loc 1 158 0
 653 016e 0822     		movs	r2, #8
 654 0170 454B     		ldr	r3, .L44+28
 655 0172 1A70     		strb	r2, [r3]
 656              	.L28:
 161:.\main.c      ****         SetPicture(1,DISPLAY_SELECCIONE_POSICION);        
 657              		.loc 1 161 0
 658 0174 404B     		ldr	r3, .L44+12
 659 0176 1B78     		ldrb	r3, [r3]	@ zero_extendqisi2
 660 0178 042B     		cmp	r3, #4
 661 017a 6DD1     		bne	.L36
 162:.\main.c      ****         ShowMessage(1,iniText,0);    
 662              		.loc 1 162 0
 663 017c 0120     		movs	r0, #1
 664 017e 2E21     		movs	r1, #46
 665 0180 FFF7FEFF 		bl	SetPicture
ARM GAS  C:\Users\RECEPC~1\AppData\Local\Temp\cc6Stwwd.s 			page 51


 666              	.LVL53:
 163:.\main.c      ****         CyDelay(300);
 667              		.loc 1 163 0
 668 0184 0120     		movs	r0, #1
 669 0186 19A9     		add	r1, sp, #100
 670 0188 0022     		movs	r2, #0
 671 018a FFF7FEFF 		bl	ShowMessage
 672              	.LVL54:
 164:.\main.c      ****         if(UnitType == 0){
 673              		.loc 1 164 0
 674 018e 4FF49670 		mov	r0, #300
 675 0192 FFF7FEFF 		bl	CyDelay
 676              	.LVL55:
 165:.\main.c      ****             side.a.hoseNumber = UnitType+1;
 677              		.loc 1 165 0
 678 0196 394B     		ldr	r3, .L44+16
 679 0198 1B78     		ldrb	r3, [r3]	@ zero_extendqisi2
 680 019a 7BB9     		cbnz	r3, .L37
 166:.\main.c      ****             side.b.hoseNumber = UnitType+1;
 681              		.loc 1 166 0
 682 019c 0133     		adds	r3, r3, #1
 683 019e DBB2     		uxtb	r3, r3
 684 01a0 374A     		ldr	r2, .L44+20
 685 01a2 82F80231 		strb	r3, [r2, #258]
 167:.\main.c      ****             side.c.hoseNumber = UnitType+1;
 686              		.loc 1 167 0
 687 01a6 82F81432 		strb	r3, [r2, #532]
 168:.\main.c      ****             side.d.hoseNumber = UnitType+1;
 688              		.loc 1 168 0
 689 01aa 82F82633 		strb	r3, [r2, #806]
 169:.\main.c      ****             ShowMessage(1,Unit,0);  //Mostrar tipo de dispensador      
 690              		.loc 1 169 0
 691 01ae 82F83834 		strb	r3, [r2, #1080]
 170:.\main.c      ****         }
 692              		.loc 1 170 0
 693 01b2 0120     		movs	r0, #1
 694 01b4 16A9     		add	r1, sp, #88
 695 01b6 0022     		movs	r2, #0
 696 01b8 FFF7FEFF 		bl	ShowMessage
 697              	.LVL56:
 698              	.L37:
 172:.\main.c      ****             side.a.hoseNumber = UnitType+1;
 699              		.loc 1 172 0
 700 01bc 2F4B     		ldr	r3, .L44+16
 701 01be 1B78     		ldrb	r3, [r3]	@ zero_extendqisi2
 702 01c0 012B     		cmp	r3, #1
 703 01c2 0FD1     		bne	.L38
 173:.\main.c      ****             side.b.hoseNumber = UnitType+1;
 704              		.loc 1 173 0
 705 01c4 0133     		adds	r3, r3, #1
 706 01c6 DBB2     		uxtb	r3, r3
 707 01c8 2D4A     		ldr	r2, .L44+20
 708 01ca 82F80231 		strb	r3, [r2, #258]
 174:.\main.c      ****             side.c.hoseNumber = UnitType+1;
 709              		.loc 1 174 0
 710 01ce 82F81432 		strb	r3, [r2, #532]
 175:.\main.c      ****             side.d.hoseNumber = UnitType+1;
ARM GAS  C:\Users\RECEPC~1\AppData\Local\Temp\cc6Stwwd.s 			page 52


 711              		.loc 1 175 0
 712 01d2 82F82633 		strb	r3, [r2, #806]
 176:.\main.c      ****             ShowMessage(1,Unit2,0);
 713              		.loc 1 176 0
 714 01d6 82F83834 		strb	r3, [r2, #1080]
 177:.\main.c      ****         }
 715              		.loc 1 177 0
 716 01da 0120     		movs	r0, #1
 717 01dc 13A9     		add	r1, sp, #76
 718 01de 0022     		movs	r2, #0
 719 01e0 FFF7FEFF 		bl	ShowMessage
 720              	.LVL57:
 721              	.L38:
 179:.\main.c      ****             side.a.hoseNumber = UnitType+1;
 722              		.loc 1 179 0
 723 01e4 254B     		ldr	r3, .L44+16
 724 01e6 1B78     		ldrb	r3, [r3]	@ zero_extendqisi2
 725 01e8 022B     		cmp	r3, #2
 726 01ea 0FD1     		bne	.L39
 180:.\main.c      ****             side.b.hoseNumber = UnitType+1;
 727              		.loc 1 180 0
 728 01ec 0133     		adds	r3, r3, #1
 729 01ee DBB2     		uxtb	r3, r3
 730 01f0 234A     		ldr	r2, .L44+20
 731 01f2 82F80231 		strb	r3, [r2, #258]
 181:.\main.c      ****             side.c.hoseNumber = UnitType+1;
 732              		.loc 1 181 0
 733 01f6 82F81432 		strb	r3, [r2, #532]
 182:.\main.c      ****             side.d.hoseNumber = UnitType+1;
 734              		.loc 1 182 0
 735 01fa 82F82633 		strb	r3, [r2, #806]
 183:.\main.c      ****            ShowMessage(1,Unit3,0);
 736              		.loc 1 183 0
 737 01fe 82F83834 		strb	r3, [r2, #1080]
 184:.\main.c      ****         }
 738              		.loc 1 184 0
 739 0202 0120     		movs	r0, #1
 740 0204 10A9     		add	r1, sp, #64
 741 0206 0022     		movs	r2, #0
 742 0208 FFF7FEFF 		bl	ShowMessage
 743              	.LVL58:
 744              	.L39:
 186:.\main.c      ****             side.a.hoseNumber = UnitType+1;
 745              		.loc 1 186 0
 746 020c 1B4B     		ldr	r3, .L44+16
 747 020e 1B78     		ldrb	r3, [r3]	@ zero_extendqisi2
 748 0210 032B     		cmp	r3, #3
 749 0212 0FD1     		bne	.L40
 187:.\main.c      ****             side.b.hoseNumber = UnitType+1;
 750              		.loc 1 187 0
 751 0214 0133     		adds	r3, r3, #1
 752 0216 DBB2     		uxtb	r3, r3
 753 0218 194A     		ldr	r2, .L44+20
 754 021a 82F80231 		strb	r3, [r2, #258]
 188:.\main.c      ****             side.c.hoseNumber = UnitType+1;
 755              		.loc 1 188 0
 756 021e 82F81432 		strb	r3, [r2, #532]
ARM GAS  C:\Users\RECEPC~1\AppData\Local\Temp\cc6Stwwd.s 			page 53


 189:.\main.c      ****             side.d.hoseNumber = UnitType+1;
 757              		.loc 1 189 0
 758 0222 82F82633 		strb	r3, [r2, #806]
 190:.\main.c      ****             ShowMessage(1,Unit4,0);
 759              		.loc 1 190 0
 760 0226 82F83834 		strb	r3, [r2, #1080]
 191:.\main.c      ****         }    
 761              		.loc 1 191 0
 762 022a 0120     		movs	r0, #1
 763 022c 0DA9     		add	r1, sp, #52
 764 022e 0022     		movs	r2, #0
 765 0230 FFF7FEFF 		bl	ShowMessage
 766              	.LVL59:
 767              	.L40:
 193:.\main.c      ****             ShowMessage(1,DisplayMode,22); //Mostrar modo de display
 768              		.loc 1 193 0
 769 0234 134B     		ldr	r3, .L44+24
 770 0236 1B78     		ldrb	r3, [r3]	@ zero_extendqisi2
 771 0238 012B     		cmp	r3, #1
 772 023a 04D1     		bne	.L41
 194:.\main.c      ****         }
 773              		.loc 1 194 0
 774 023c 0120     		movs	r0, #1
 775 023e 07A9     		add	r1, sp, #28
 776 0240 1622     		movs	r2, #22
 777 0242 FFF7FEFF 		bl	ShowMessage
 778              	.LVL60:
 779              	.L41:
 196:.\main.c      ****            ShowMessage(1,DisplayMode2,22);
 780              		.loc 1 196 0
 781 0246 0F4B     		ldr	r3, .L44+24
 782 0248 1B78     		ldrb	r3, [r3]	@ zero_extendqisi2
 783 024a 022B     		cmp	r3, #2
 784 024c 04D1     		bne	.L36
 197:.\main.c      ****         }
 785              		.loc 1 197 0
 786 024e 0120     		movs	r0, #1
 787 0250 04A9     		add	r1, sp, #16
 788 0252 1622     		movs	r2, #22
 789 0254 FFF7FEFF 		bl	ShowMessage
 790              	.LVL61:
 791              	.L36:
 200:.\main.c      ****         SetPicture(1,DISPLAY_ERROR);        
 792              		.loc 1 200 0
 793 0258 074B     		ldr	r3, .L44+12
 794 025a 1B78     		ldrb	r3, [r3]	@ zero_extendqisi2
 795 025c 012B     		cmp	r3, #1
 796 025e 03D8     		bhi	.L27
 201:.\main.c      ****     }         
 797              		.loc 1 201 0
 798 0260 0120     		movs	r0, #1
 799 0262 0021     		movs	r1, #0
 800 0264 FFF7FEFF 		bl	SetPicture
 801              	.LVL62:
 802              	.L27:
 203:.\main.c      **** 
 803              		.loc 1 203 0
ARM GAS  C:\Users\RECEPC~1\AppData\Local\Temp\cc6Stwwd.s 			page 54


 804 0268 1CB0     		add	sp, sp, #112
 805              		.cfi_def_cfa_offset 8
 806              		@ sp needed
 807 026a 10BD     		pop	{r4, pc}
 808              	.L45:
 809              		.align	2
 810              	.L44:
 811 026c 00000000 		.word	.LC0
 812 0270 00000000 		.word	.LANCHOR1
 813 0274 0C000000 		.word	.LC2
 814 0278 00000000 		.word	NumPositions
 815 027c 00000000 		.word	UnitType
 816 0280 00000000 		.word	side
 817 0284 00000000 		.word	DDMode
 818 0288 00000000 		.word	digits
 819              		.cfi_endproc
 820              	.LFE66:
 821              		.size	InitDisplay1, .-InitDisplay1
 822              		.section	.text.InitDisplay2,"ax",%progbits
 823              		.align	2
 824              		.global	InitDisplay2
 825              		.thumb
 826              		.thumb_func
 827              		.type	InitDisplay2, %function
 828              	InitDisplay2:
 829              	.LFB67:
 214:.\main.c      ****     if(NumPositions == 2){        
 830              		.loc 1 214 0
 831              		.cfi_startproc
 832              		@ args = 0, pretend = 0, frame = 0
 833              		@ frame_needed = 0, uses_anonymous_args = 0
 834 0000 08B5     		push	{r3, lr}
 835              		.cfi_def_cfa_offset 8
 836              		.cfi_offset 3, -8
 837              		.cfi_offset 14, -4
 215:.\main.c      ****         SetPicture(2,DISPLAY_INICIO0);  
 838              		.loc 1 215 0
 839 0002 104B     		ldr	r3, .L51
 840 0004 1B78     		ldrb	r3, [r3]	@ zero_extendqisi2
 841 0006 022B     		cmp	r3, #2
 842 0008 06D1     		bne	.L47
 216:.\main.c      ****         flowDisplay2 = 0;
 843              		.loc 1 216 0
 844 000a 0220     		movs	r0, #2
 845 000c 0121     		movs	r1, #1
 846 000e FFF7FEFF 		bl	SetPicture
 847              	.LVL63:
 217:.\main.c      ****     }
 848              		.loc 1 217 0
 849 0012 0022     		movs	r2, #0
 850 0014 0C4B     		ldr	r3, .L51+4
 851 0016 1A60     		str	r2, [r3]
 852              	.L47:
 219:.\main.c      ****         SetPicture(2,DISPLAY_SELECCIONE_POSICION);         
 853              		.loc 1 219 0
 854 0018 0A4B     		ldr	r3, .L51
 855 001a 1B78     		ldrb	r3, [r3]	@ zero_extendqisi2
ARM GAS  C:\Users\RECEPC~1\AppData\Local\Temp\cc6Stwwd.s 			page 55


 856 001c 042B     		cmp	r3, #4
 857 001e 03D1     		bne	.L48
 220:.\main.c      ****     }        
 858              		.loc 1 220 0
 859 0020 0220     		movs	r0, #2
 860 0022 2E21     		movs	r1, #46
 861 0024 FFF7FEFF 		bl	SetPicture
 862              	.LVL64:
 863              	.L48:
 222:.\main.c      ****         SetPicture(2,DISPLAY_ERROR);
 864              		.loc 1 222 0
 865 0028 064B     		ldr	r3, .L51
 866 002a 1B78     		ldrb	r3, [r3]	@ zero_extendqisi2
 867 002c 012B     		cmp	r3, #1
 868 002e 03D8     		bhi	.L49
 223:.\main.c      ****     }     
 869              		.loc 1 223 0
 870 0030 0220     		movs	r0, #2
 871 0032 0021     		movs	r1, #0
 872 0034 FFF7FEFF 		bl	SetPicture
 873              	.LVL65:
 874              	.L49:
 225:.\main.c      **** }
 875              		.loc 1 225 0
 876 0038 0220     		movs	r0, #2
 877 003a 0449     		ldr	r1, .L51+8
 878 003c 0022     		movs	r2, #0
 879 003e FFF7FEFF 		bl	ShowMessage
 880              	.LVL66:
 881 0042 08BD     		pop	{r3, pc}
 882              	.L52:
 883              		.align	2
 884              	.L51:
 885 0044 00000000 		.word	NumPositions
 886 0048 00000000 		.word	flowDisplay2
 887 004c 08000000 		.word	.LANCHOR0+8
 888              		.cfi_endproc
 889              	.LFE67:
 890              		.size	InitDisplay2, .-InitDisplay2
 891              		.section	.text.InitPump,"ax",%progbits
 892              		.align	2
 893              		.global	InitPump
 894              		.thumb
 895              		.thumb_func
 896              		.type	InitPump, %function
 897              	InitPump:
 898              	.LFB68:
 237:.\main.c      ****     NumPositions = get_position();
 899              		.loc 1 237 0
 900              		.cfi_startproc
 901              		@ args = 0, pretend = 0, frame = 0
 902              		@ frame_needed = 0, uses_anonymous_args = 0
 903 0000 08B5     		push	{r3, lr}
 904              		.cfi_def_cfa_offset 8
 905              		.cfi_offset 3, -8
 906              		.cfi_offset 14, -4
 238:.\main.c      ****     if(NumPositions > 0){
ARM GAS  C:\Users\RECEPC~1\AppData\Local\Temp\cc6Stwwd.s 			page 56


 907              		.loc 1 238 0
 908 0002 FFF7FEFF 		bl	get_position
 909              	.LVL67:
 910 0006 2D4B     		ldr	r3, .L59
 911 0008 1870     		strb	r0, [r3]
 239:.\main.c      ****         if(!PumpIsInValidState(get_state(side.a.dir))){
 912              		.loc 1 239 0
 913 000a 0028     		cmp	r0, #0
 914 000c 55D0     		beq	.L53
 240:.\main.c      ****             SetPicture(1,DISPLAY_ERROR);
 915              		.loc 1 240 0
 916 000e 2C4B     		ldr	r3, .L59+4
 917 0010 1878     		ldrb	r0, [r3]	@ zero_extendqisi2
 918 0012 FFF7FEFF 		bl	get_state
 919              	.LVL68:
 920 0016 FFF7FEFF 		bl	PumpIsInValidState
 921              	.LVL69:
 922 001a 50B9     		cbnz	r0, .L55
 241:.\main.c      ****             SetPicture(2,DISPLAY_ERROR);
 923              		.loc 1 241 0
 924 001c 0120     		movs	r0, #1
 925 001e 0021     		movs	r1, #0
 926 0020 FFF7FEFF 		bl	SetPicture
 927              	.LVL70:
 242:.\main.c      ****             NumPositions = 0;
 928              		.loc 1 242 0
 929 0024 0220     		movs	r0, #2
 930 0026 0021     		movs	r1, #0
 931 0028 FFF7FEFF 		bl	SetPicture
 932              	.LVL71:
 243:.\main.c      ****         }
 933              		.loc 1 243 0
 934 002c 0022     		movs	r2, #0
 935 002e 234B     		ldr	r3, .L59
 936 0030 1A70     		strb	r2, [r3]
 937              	.L55:
 245:.\main.c      ****             SetPicture(1,DISPLAY_ERROR);
 938              		.loc 1 245 0
 939 0032 234B     		ldr	r3, .L59+4
 940 0034 93F81201 		ldrb	r0, [r3, #274]	@ zero_extendqisi2
 941 0038 FFF7FEFF 		bl	get_state
 942              	.LVL72:
 943 003c FFF7FEFF 		bl	PumpIsInValidState
 944              	.LVL73:
 945 0040 50B9     		cbnz	r0, .L56
 246:.\main.c      ****             SetPicture(2,DISPLAY_ERROR);
 946              		.loc 1 246 0
 947 0042 0120     		movs	r0, #1
 948 0044 0021     		movs	r1, #0
 949 0046 FFF7FEFF 		bl	SetPicture
 950              	.LVL74:
 247:.\main.c      ****             NumPositions = 0;
 951              		.loc 1 247 0
 952 004a 0220     		movs	r0, #2
 953 004c 0021     		movs	r1, #0
 954 004e FFF7FEFF 		bl	SetPicture
 955              	.LVL75:
ARM GAS  C:\Users\RECEPC~1\AppData\Local\Temp\cc6Stwwd.s 			page 57


 248:.\main.c      ****         }
 956              		.loc 1 248 0
 957 0052 0022     		movs	r2, #0
 958 0054 194B     		ldr	r3, .L59
 959 0056 1A70     		strb	r2, [r3]
 960              	.L56:
 250:.\main.c      ****             NumPositions = get_position();
 961              		.loc 1 250 0
 962 0058 194B     		ldr	r3, .L59+4
 963 005a 1878     		ldrb	r0, [r3]	@ zero_extendqisi2
 964 005c FFF7FEFF 		bl	get_state
 965              	.LVL76:
 966 0060 FFF7FEFF 		bl	PumpIsInValidState
 967              	.LVL77:
 968 0064 48B3     		cbz	r0, .L53
 250:.\main.c      ****             NumPositions = get_position();
 969              		.loc 1 250 0 is_stmt 0 discriminator 1
 970 0066 164B     		ldr	r3, .L59+4
 971 0068 93F81201 		ldrb	r0, [r3, #274]	@ zero_extendqisi2
 972 006c FFF7FEFF 		bl	get_state
 973              	.LVL78:
 974 0070 FFF7FEFF 		bl	PumpIsInValidState
 975              	.LVL79:
 976 0074 08B3     		cbz	r0, .L53
 251:.\main.c      ****             if(get_state(side.a.dir) ==0x06 && get_state(side.b.dir)==0x06){
 977              		.loc 1 251 0 is_stmt 1
 978 0076 FFF7FEFF 		bl	get_position
 979              	.LVL80:
 980 007a 104B     		ldr	r3, .L59
 981 007c 1870     		strb	r0, [r3]
 252:.\main.c      ****                 PumpCompleteConfiguration(side.a.dir);
 982              		.loc 1 252 0
 983 007e 104B     		ldr	r3, .L59+4
 984 0080 1878     		ldrb	r0, [r3]	@ zero_extendqisi2
 985 0082 FFF7FEFF 		bl	get_state
 986              	.LVL81:
 987 0086 0628     		cmp	r0, #6
 988 0088 0DD1     		bne	.L57
 252:.\main.c      ****                 PumpCompleteConfiguration(side.a.dir);
 989              		.loc 1 252 0 is_stmt 0 discriminator 1
 990 008a 0D4B     		ldr	r3, .L59+4
 991 008c 93F81201 		ldrb	r0, [r3, #274]	@ zero_extendqisi2
 992 0090 FFF7FEFF 		bl	get_state
 993              	.LVL82:
 994 0094 0628     		cmp	r0, #6
 995 0096 06D1     		bne	.L57
 253:.\main.c      ****                 StoreConfiguration();            
 996              		.loc 1 253 0 is_stmt 1
 997 0098 094B     		ldr	r3, .L59+4
 998 009a 1878     		ldrb	r0, [r3]	@ zero_extendqisi2
 999 009c FFF7FEFF 		bl	PumpCompleteConfiguration
 1000              	.LVL83:
 254:.\main.c      ****             }else{
 1001              		.loc 1 254 0
 1002 00a0 FFF7FEFF 		bl	StoreConfiguration
 1003              	.LVL84:
 1004 00a4 08BD     		pop	{r3, pc}
ARM GAS  C:\Users\RECEPC~1\AppData\Local\Temp\cc6Stwwd.s 			page 58


 1005              	.L57:
 256:.\main.c      ****                 SetPicture(2,DISPLAY_BAJE_MANIJA);
 1006              		.loc 1 256 0
 1007 00a6 0120     		movs	r0, #1
 1008 00a8 0921     		movs	r1, #9
 1009 00aa FFF7FEFF 		bl	SetPicture
 1010              	.LVL85:
 257:.\main.c      ****                 InitPump();                
 1011              		.loc 1 257 0
 1012 00ae 0220     		movs	r0, #2
 1013 00b0 0921     		movs	r1, #9
 1014 00b2 FFF7FEFF 		bl	SetPicture
 1015              	.LVL86:
 258:.\main.c      ****             }
 1016              		.loc 1 258 0
 1017 00b6 FFF7FEFF 		bl	InitPump
 1018              	.LVL87:
 1019              	.L53:
 1020 00ba 08BD     		pop	{r3, pc}
 1021              	.L60:
 1022              		.align	2
 1023              	.L59:
 1024 00bc 00000000 		.word	NumPositions
 1025 00c0 00000000 		.word	side
 1026              		.cfi_endproc
 1027              	.LFE68:
 1028              		.size	InitPump, .-InitPump
 1029              		.section	.text.PrintTest,"ax",%progbits
 1030              		.align	2
 1031              		.global	PrintTest
 1032              		.thumb
 1033              		.thumb_func
 1034              		.type	PrintTest, %function
 1035              	PrintTest:
 1036              	.LFB69:
 273:.\main.c      ****     uint8 datoA[26]="Test de Impresion Puerto 1";
 1037              		.loc 1 273 0
 1038              		.cfi_startproc
 1039              		@ args = 0, pretend = 0, frame = 56
 1040              		@ frame_needed = 0, uses_anonymous_args = 0
 1041 0000 70B5     		push	{r4, r5, r6, lr}
 1042              		.cfi_def_cfa_offset 16
 1043              		.cfi_offset 4, -16
 1044              		.cfi_offset 5, -12
 1045              		.cfi_offset 6, -8
 1046              		.cfi_offset 14, -4
 1047 0002 8EB0     		sub	sp, sp, #56
 1048              		.cfi_def_cfa_offset 72
 274:.\main.c      ****     uint8 datoB[26]="Test de Impresion Puerto 2";
 1049              		.loc 1 274 0
 1050 0004 2E4C     		ldr	r4, .L67
 1051 0006 07AD     		add	r5, sp, #28
 1052 0008 04F15406 		add	r6, r4, #84
 1053 000c 0FCE     		ldmia	r6!, {r0, r1, r2, r3}
 1054 000e 0FC5     		stmia	r5!, {r0, r1, r2, r3}
 1055 0010 96E80700 		ldmia	r6, {r0, r1, r2}
 1056 0014 03C5     		stmia	r5!, {r0, r1}
ARM GAS  C:\Users\RECEPC~1\AppData\Local\Temp\cc6Stwwd.s 			page 59


 1057 0016 2A80     		strh	r2, [r5]	@ movhi
 275:.\main.c      ****     uint8 x;
 1058              		.loc 1 275 0
 1059 0018 6D46     		mov	r5, sp
 1060 001a 7034     		adds	r4, r4, #112
 1061 001c 0FCC     		ldmia	r4!, {r0, r1, r2, r3}
 1062 001e 0FC5     		stmia	r5!, {r0, r1, r2, r3}
 1063 0020 94E80700 		ldmia	r4, {r0, r1, r2}
 1064 0024 03C5     		stmia	r5!, {r0, r1}
 1065 0026 2A80     		strh	r2, [r5]	@ movhi
 1066              	.LVL88:
 277:.\main.c      ****         write_psoc1(1,datoA[x]);
 1067              		.loc 1 277 0
 1068 0028 0024     		movs	r4, #0
 1069 002a 08E0     		b	.L62
 1070              	.LVL89:
 1071              	.L63:
 278:.\main.c      ****     }
 1072              		.loc 1 278 0 discriminator 3
 1073 002c 0EAB     		add	r3, sp, #56
 1074 002e 2344     		add	r3, r3, r4
 1075 0030 0120     		movs	r0, #1
 1076 0032 13F81C1C 		ldrb	r1, [r3, #-28]	@ zero_extendqisi2
 1077 0036 FFF7FEFF 		bl	write_psoc1
 1078              	.LVL90:
 277:.\main.c      ****         write_psoc1(1,datoA[x]);
 1079              		.loc 1 277 0 discriminator 3
 1080 003a 0134     		adds	r4, r4, #1
 1081              	.LVL91:
 1082 003c E4B2     		uxtb	r4, r4
 1083              	.LVL92:
 1084              	.L62:
 277:.\main.c      ****         write_psoc1(1,datoA[x]);
 1085              		.loc 1 277 0 is_stmt 0 discriminator 1
 1086 003e 192C     		cmp	r4, #25
 1087 0040 F4D9     		bls	.L63
 280:.\main.c      ****     write_psoc1(1,10);
 1088              		.loc 1 280 0 is_stmt 1
 1089 0042 0120     		movs	r0, #1
 1090 0044 0A21     		movs	r1, #10
 1091 0046 FFF7FEFF 		bl	write_psoc1
 1092              	.LVL93:
 281:.\main.c      ****     write_psoc1(1,10);
 1093              		.loc 1 281 0
 1094 004a 0120     		movs	r0, #1
 1095 004c 0A21     		movs	r1, #10
 1096 004e FFF7FEFF 		bl	write_psoc1
 1097              	.LVL94:
 282:.\main.c      ****     write_psoc1(1,10);
 1098              		.loc 1 282 0
 1099 0052 0120     		movs	r0, #1
 1100 0054 0A21     		movs	r1, #10
 1101 0056 FFF7FEFF 		bl	write_psoc1
 1102              	.LVL95:
 283:.\main.c      ****     write_psoc1(1,10);
 1103              		.loc 1 283 0
 1104 005a 0120     		movs	r0, #1
ARM GAS  C:\Users\RECEPC~1\AppData\Local\Temp\cc6Stwwd.s 			page 60


 1105 005c 0A21     		movs	r1, #10
 1106 005e FFF7FEFF 		bl	write_psoc1
 1107              	.LVL96:
 284:.\main.c      ****     write_psoc1(1,10);
 1108              		.loc 1 284 0
 1109 0062 0120     		movs	r0, #1
 1110 0064 0A21     		movs	r1, #10
 1111 0066 FFF7FEFF 		bl	write_psoc1
 1112              	.LVL97:
 285:.\main.c      ****     for(x = 0; x<26;x++){
 1113              		.loc 1 285 0
 1114 006a 0120     		movs	r0, #1
 1115 006c 0A21     		movs	r1, #10
 1116 006e FFF7FEFF 		bl	write_psoc1
 1117              	.LVL98:
 286:.\main.c      ****         write_psoc1(2,datoB[x]);
 1118              		.loc 1 286 0
 1119 0072 0024     		movs	r4, #0
 1120 0074 08E0     		b	.L64
 1121              	.LVL99:
 1122              	.L65:
 287:.\main.c      ****     }
 1123              		.loc 1 287 0 discriminator 3
 1124 0076 0EAB     		add	r3, sp, #56
 1125 0078 2344     		add	r3, r3, r4
 1126 007a 0220     		movs	r0, #2
 1127 007c 13F8381C 		ldrb	r1, [r3, #-56]	@ zero_extendqisi2
 1128 0080 FFF7FEFF 		bl	write_psoc1
 1129              	.LVL100:
 286:.\main.c      ****         write_psoc1(2,datoB[x]);
 1130              		.loc 1 286 0 discriminator 3
 1131 0084 0134     		adds	r4, r4, #1
 1132              	.LVL101:
 1133 0086 E4B2     		uxtb	r4, r4
 1134              	.LVL102:
 1135              	.L64:
 286:.\main.c      ****         write_psoc1(2,datoB[x]);
 1136              		.loc 1 286 0 is_stmt 0 discriminator 1
 1137 0088 192C     		cmp	r4, #25
 1138 008a F4D9     		bls	.L65
 289:.\main.c      ****     write_psoc1(2,10);
 1139              		.loc 1 289 0 is_stmt 1
 1140 008c 0220     		movs	r0, #2
 1141 008e 0A21     		movs	r1, #10
 1142 0090 FFF7FEFF 		bl	write_psoc1
 1143              	.LVL103:
 290:.\main.c      ****     write_psoc1(2,10);
 1144              		.loc 1 290 0
 1145 0094 0220     		movs	r0, #2
 1146 0096 0A21     		movs	r1, #10
 1147 0098 FFF7FEFF 		bl	write_psoc1
 1148              	.LVL104:
 291:.\main.c      ****     write_psoc1(2,10);
 1149              		.loc 1 291 0
 1150 009c 0220     		movs	r0, #2
 1151 009e 0A21     		movs	r1, #10
 1152 00a0 FFF7FEFF 		bl	write_psoc1
ARM GAS  C:\Users\RECEPC~1\AppData\Local\Temp\cc6Stwwd.s 			page 61


 1153              	.LVL105:
 292:.\main.c      ****     write_psoc1(2,10);
 1154              		.loc 1 292 0
 1155 00a4 0220     		movs	r0, #2
 1156 00a6 0A21     		movs	r1, #10
 1157 00a8 FFF7FEFF 		bl	write_psoc1
 1158              	.LVL106:
 293:.\main.c      ****     write_psoc1(2,10);
 1159              		.loc 1 293 0
 1160 00ac 0220     		movs	r0, #2
 1161 00ae 0A21     		movs	r1, #10
 1162 00b0 FFF7FEFF 		bl	write_psoc1
 1163              	.LVL107:
 294:.\main.c      **** }
 1164              		.loc 1 294 0
 1165 00b4 0220     		movs	r0, #2
 1166 00b6 0A21     		movs	r1, #10
 1167 00b8 FFF7FEFF 		bl	write_psoc1
 1168              	.LVL108:
 295:.\main.c      **** 
 1169              		.loc 1 295 0
 1170 00bc 0EB0     		add	sp, sp, #56
 1171              		.cfi_def_cfa_offset 16
 1172              		@ sp needed
 1173 00be 70BD     		pop	{r4, r5, r6, pc}
 1174              	.LVL109:
 1175              	.L68:
 1176              		.align	2
 1177              	.L67:
 1178 00c0 00000000 		.word	.LANCHOR1
 1179              		.cfi_endproc
 1180              	.LFE69:
 1181              		.size	PrintTest, .-PrintTest
 1182              		.section	.text.PollingPump,"ax",%progbits
 1183              		.align	2
 1184              		.global	PollingPump
 1185              		.thumb
 1186              		.thumb_func
 1187              		.type	PollingPump, %function
 1188              	PollingPump:
 1189              	.LFB70:
 307:.\main.c      ****     uint8 x;
 1190              		.loc 1 307 0
 1191              		.cfi_startproc
 1192              		@ args = 0, pretend = 0, frame = 0
 1193              		@ frame_needed = 0, uses_anonymous_args = 0
 1194 0000 38B5     		push	{r3, r4, r5, lr}
 1195              		.cfi_def_cfa_offset 16
 1196              		.cfi_offset 3, -16
 1197              		.cfi_offset 4, -12
 1198              		.cfi_offset 5, -8
 1199              		.cfi_offset 14, -4
 309:.\main.c      ****         if(flowDisplay1 == 0){
 1200              		.loc 1 309 0
 1201 0002 524B     		ldr	r3, .L83
 1202 0004 D3E90023 		ldrd	r2, [r3]
 1203 0008 002B     		cmp	r3, #0
ARM GAS  C:\Users\RECEPC~1\AppData\Local\Temp\cc6Stwwd.s 			page 62


 1204 000a 08BF     		it	eq
 1205 000c 092A     		cmpeq	r2, #9
 1206 000e C0F09B80 		bcc	.L69
 310:.\main.c      ****             if(PumpIsInValidState(get_state(side.a.dir)) && PumpIsInValidState(get_state(side.b.dir
 1207              		.loc 1 310 0
 1208 0012 4F4B     		ldr	r3, .L83+4
 1209 0014 1B68     		ldr	r3, [r3]
 1210 0016 002B     		cmp	r3, #0
 1211 0018 73D1     		bne	.L71
 311:.\main.c      ****                 for(x= 0; x < 4; x++){
 1212              		.loc 1 311 0
 1213 001a 4E4B     		ldr	r3, .L83+8
 1214 001c 1878     		ldrb	r0, [r3]	@ zero_extendqisi2
 1215 001e FFF7FEFF 		bl	get_state
 1216              	.LVL110:
 1217 0022 FFF7FEFF 		bl	PumpIsInValidState
 1218              	.LVL111:
 1219 0026 90B1     		cbz	r0, .L72
 311:.\main.c      ****                 for(x= 0; x < 4; x++){
 1220              		.loc 1 311 0 is_stmt 0 discriminator 1
 1221 0028 4A4B     		ldr	r3, .L83+8
 1222 002a 93F81201 		ldrb	r0, [r3, #274]	@ zero_extendqisi2
 1223 002e FFF7FEFF 		bl	get_state
 1224              	.LVL112:
 1225 0032 FFF7FEFF 		bl	PumpIsInValidState
 1226              	.LVL113:
 1227 0036 38B9     		cbnz	r0, .L81
 1228 0038 09E0     		b	.L72
 1229              	.LVL114:
 1230              	.L74:
 313:.\main.c      ****                 }
 1231              		.loc 1 313 0 is_stmt 1 discriminator 3
 1232 003a 474A     		ldr	r2, .L83+12
 1233 003c D15C     		ldrb	r1, [r2, r3]	@ zero_extendqisi2
 1234 003e 474A     		ldr	r2, .L83+16
 1235 0040 D154     		strb	r1, [r2, r3]
 312:.\main.c      ****                     PrevStatePump[x] = statePump[x];
 1236              		.loc 1 312 0 discriminator 3
 1237 0042 0133     		adds	r3, r3, #1
 1238              	.LVL115:
 1239 0044 DBB2     		uxtb	r3, r3
 1240              	.LVL116:
 1241 0046 00E0     		b	.L73
 1242              	.LVL117:
 1243              	.L81:
 1244 0048 0023     		movs	r3, #0
 1245              	.L73:
 1246              	.LVL118:
 312:.\main.c      ****                     PrevStatePump[x] = statePump[x];
 1247              		.loc 1 312 0 is_stmt 0 discriminator 1
 1248 004a 032B     		cmp	r3, #3
 1249 004c F5D9     		bls	.L74
 1250              	.LVL119:
 1251              	.L72:
 316:.\main.c      ****                 statePump[0] = get_state(side.a.dir);                 
 1252              		.loc 1 316 0 is_stmt 1
 1253 004e 444B     		ldr	r3, .L83+20
ARM GAS  C:\Users\RECEPC~1\AppData\Local\Temp\cc6Stwwd.s 			page 63


 1254 0050 1B78     		ldrb	r3, [r3]	@ zero_extendqisi2
 1255 0052 022B     		cmp	r3, #2
 1256 0054 0AD1     		bne	.L75
 317:.\main.c      ****                 statePump[1] = get_state(side.b.dir);          
 1257              		.loc 1 317 0
 1258 0056 3F4D     		ldr	r5, .L83+8
 1259 0058 2878     		ldrb	r0, [r5]	@ zero_extendqisi2
 1260 005a FFF7FEFF 		bl	get_state
 1261              	.LVL120:
 1262 005e 3E4C     		ldr	r4, .L83+12
 1263 0060 2070     		strb	r0, [r4]
 318:.\main.c      ****             }
 1264              		.loc 1 318 0
 1265 0062 95F81201 		ldrb	r0, [r5, #274]	@ zero_extendqisi2
 1266 0066 FFF7FEFF 		bl	get_state
 1267              	.LVL121:
 1268 006a 6070     		strb	r0, [r4, #1]
 1269              	.L75:
 320:.\main.c      ****                 statePump[0] = get_state(side.a.dir);               
 1270              		.loc 1 320 0
 1271 006c 3C4B     		ldr	r3, .L83+20
 1272 006e 1B78     		ldrb	r3, [r3]	@ zero_extendqisi2
 1273 0070 042B     		cmp	r3, #4
 1274 0072 14D1     		bne	.L76
 321:.\main.c      ****                 statePump[1] = get_state(side.b.dir);          
 1275              		.loc 1 321 0
 1276 0074 374D     		ldr	r5, .L83+8
 1277 0076 2878     		ldrb	r0, [r5]	@ zero_extendqisi2
 1278 0078 FFF7FEFF 		bl	get_state
 1279              	.LVL122:
 1280 007c 364C     		ldr	r4, .L83+12
 1281 007e 2070     		strb	r0, [r4]
 322:.\main.c      ****                 statePump[2] = get_state(side.c.dir);        
 1282              		.loc 1 322 0
 1283 0080 95F81201 		ldrb	r0, [r5, #274]	@ zero_extendqisi2
 1284 0084 FFF7FEFF 		bl	get_state
 1285              	.LVL123:
 1286 0088 6070     		strb	r0, [r4, #1]
 323:.\main.c      ****                 statePump[3] = get_state(side.d.dir);        
 1287              		.loc 1 323 0
 1288 008a 95F82402 		ldrb	r0, [r5, #548]	@ zero_extendqisi2
 1289 008e FFF7FEFF 		bl	get_state
 1290              	.LVL124:
 1291 0092 A070     		strb	r0, [r4, #2]
 324:.\main.c      ****             }
 1292              		.loc 1 324 0
 1293 0094 95F83603 		ldrb	r0, [r5, #822]	@ zero_extendqisi2
 1294 0098 FFF7FEFF 		bl	get_state
 1295              	.LVL125:
 1296 009c E070     		strb	r0, [r4, #3]
 1297              	.L76:
 326:.\main.c      ****                 InitPump();
 1298              		.loc 1 326 0
 1299 009e 304B     		ldr	r3, .L83+20
 1300 00a0 1B78     		ldrb	r3, [r3]	@ zero_extendqisi2
 1301 00a2 0BB9     		cbnz	r3, .L77
 327:.\main.c      ****             }
ARM GAS  C:\Users\RECEPC~1\AppData\Local\Temp\cc6Stwwd.s 			page 64


 1302              		.loc 1 327 0
 1303 00a4 FFF7FEFF 		bl	InitPump
 1304              	.LVL126:
 1305              	.L77:
 329:.\main.c      ****                 SetPicture(1,DISPLAY_ERROR);
 1306              		.loc 1 329 0
 1307 00a8 2A4B     		ldr	r3, .L83+8
 1308 00aa 1878     		ldrb	r0, [r3]	@ zero_extendqisi2
 1309 00ac FFF7FEFF 		bl	get_state
 1310              	.LVL127:
 1311 00b0 FFF7FEFF 		bl	PumpIsInValidState
 1312              	.LVL128:
 1313 00b4 70B9     		cbnz	r0, .L78
 330:.\main.c      ****                 SetPicture(2,DISPLAY_ERROR);
 1314              		.loc 1 330 0
 1315 00b6 0120     		movs	r0, #1
 1316 00b8 0021     		movs	r1, #0
 1317 00ba FFF7FEFF 		bl	SetPicture
 1318              	.LVL129:
 331:.\main.c      ****                 NumPositions = 0;
 1319              		.loc 1 331 0
 1320 00be 0220     		movs	r0, #2
 1321 00c0 0021     		movs	r1, #0
 1322 00c2 FFF7FEFF 		bl	SetPicture
 1323              	.LVL130:
 332:.\main.c      ****                 flowDisplay1 = 0;
 1324              		.loc 1 332 0
 1325 00c6 0023     		movs	r3, #0
 1326 00c8 254A     		ldr	r2, .L83+20
 1327 00ca 1370     		strb	r3, [r2]
 333:.\main.c      ****                 flowDisplay2 = 0;
 1328              		.loc 1 333 0
 1329 00cc 204A     		ldr	r2, .L83+4
 1330 00ce 1360     		str	r3, [r2]
 334:.\main.c      ****             }
 1331              		.loc 1 334 0
 1332 00d0 244A     		ldr	r2, .L83+24
 1333 00d2 1360     		str	r3, [r2]
 1334              	.L78:
 336:.\main.c      ****                 SetPicture(1,DISPLAY_ERROR);
 1335              		.loc 1 336 0
 1336 00d4 1F4B     		ldr	r3, .L83+8
 1337 00d6 93F81201 		ldrb	r0, [r3, #274]	@ zero_extendqisi2
 1338 00da FFF7FEFF 		bl	get_state
 1339              	.LVL131:
 1340 00de FFF7FEFF 		bl	PumpIsInValidState
 1341              	.LVL132:
 1342 00e2 70B9     		cbnz	r0, .L71
 337:.\main.c      ****                 SetPicture(2,DISPLAY_ERROR);
 1343              		.loc 1 337 0
 1344 00e4 0120     		movs	r0, #1
 1345 00e6 0021     		movs	r1, #0
 1346 00e8 FFF7FEFF 		bl	SetPicture
 1347              	.LVL133:
 338:.\main.c      ****                 NumPositions = 0;
 1348              		.loc 1 338 0
 1349 00ec 0220     		movs	r0, #2
ARM GAS  C:\Users\RECEPC~1\AppData\Local\Temp\cc6Stwwd.s 			page 65


 1350 00ee 0021     		movs	r1, #0
 1351 00f0 FFF7FEFF 		bl	SetPicture
 1352              	.LVL134:
 339:.\main.c      ****                 flowDisplay1 = 0;
 1353              		.loc 1 339 0
 1354 00f4 0023     		movs	r3, #0
 1355 00f6 1A4A     		ldr	r2, .L83+20
 1356 00f8 1370     		strb	r3, [r2]
 340:.\main.c      ****                 flowDisplay2 = 0;
 1357              		.loc 1 340 0
 1358 00fa 154A     		ldr	r2, .L83+4
 1359 00fc 1360     		str	r3, [r2]
 341:.\main.c      ****             }
 1360              		.loc 1 341 0
 1361 00fe 194A     		ldr	r2, .L83+24
 1362 0100 1360     		str	r3, [r2]
 1363              	.L71:
 344:.\main.c      ****             if(get_state(side.a.dir)== PUMP_IDLE)
 1364              		.loc 1 344 0
 1365 0102 194B     		ldr	r3, .L83+28
 1366 0104 1B78     		ldrb	r3, [r3]	@ zero_extendqisi2
 1367 0106 13F0FF0F 		tst	r3, #255
 1368 010a 18D1     		bne	.L79
 344:.\main.c      ****             if(get_state(side.a.dir)== PUMP_IDLE)
 1369              		.loc 1 344 0 is_stmt 0 discriminator 1
 1370 010c 104B     		ldr	r3, .L83+4
 1371 010e 1B68     		ldr	r3, [r3]
 1372 0110 ABB9     		cbnz	r3, .L79
 345:.\main.c      ****                 getTotals(side.a.dir);
 1373              		.loc 1 345 0 is_stmt 1
 1374 0112 104B     		ldr	r3, .L83+8
 1375 0114 1878     		ldrb	r0, [r3]	@ zero_extendqisi2
 1376 0116 FFF7FEFF 		bl	get_state
 1377              	.LVL135:
 1378 011a 0628     		cmp	r0, #6
 1379 011c 03D1     		bne	.L80
 346:.\main.c      ****             if(get_state(side.b.dir)== PUMP_IDLE)
 1380              		.loc 1 346 0
 1381 011e 0D4B     		ldr	r3, .L83+8
 1382 0120 1878     		ldrb	r0, [r3]	@ zero_extendqisi2
 1383 0122 FFF7FEFF 		bl	getTotals
 1384              	.LVL136:
 1385              	.L80:
 347:.\main.c      ****                 getTotals(side.b.dir);
 1386              		.loc 1 347 0
 1387 0126 0B4B     		ldr	r3, .L83+8
 1388 0128 93F81201 		ldrb	r0, [r3, #274]	@ zero_extendqisi2
 1389 012c FFF7FEFF 		bl	get_state
 1390              	.LVL137:
 1391 0130 0628     		cmp	r0, #6
 1392 0132 04D1     		bne	.L79
 348:.\main.c      ****         }        
 1393              		.loc 1 348 0
 1394 0134 074B     		ldr	r3, .L83+8
 1395 0136 93F81201 		ldrb	r0, [r3, #274]	@ zero_extendqisi2
 1396 013a FFF7FEFF 		bl	getTotals
 1397              	.LVL138:
ARM GAS  C:\Users\RECEPC~1\AppData\Local\Temp\cc6Stwwd.s 			page 66


 1398              	.L79:
 350:.\main.c      ****     }
 1399              		.loc 1 350 0
 1400 013e 0020     		movs	r0, #0
 1401 0140 0021     		movs	r1, #0
 1402 0142 024B     		ldr	r3, .L83
 1403 0144 C3E90001 		strd	r0, [r3]
 1404              	.L69:
 1405 0148 38BD     		pop	{r3, r4, r5, pc}
 1406              	.L84:
 1407 014a 00BF     		.align	2
 1408              	.L83:
 1409 014c 00000000 		.word	countPump
 1410 0150 00000000 		.word	flowDisplay1
 1411 0154 00000000 		.word	side
 1412 0158 00000000 		.word	statePump
 1413 015c 00000000 		.word	PrevStatePump
 1414 0160 00000000 		.word	NumPositions
 1415 0164 00000000 		.word	flowDisplay2
 1416 0168 00000000 		.word	ActiveRF
 1417              		.cfi_endproc
 1418              	.LFE70:
 1419              		.size	PollingPump, .-PollingPump
 1420              		.section	.text.PollingDisplay1,"ax",%progbits
 1421              		.align	2
 1422              		.global	PollingDisplay1
 1423              		.thumb
 1424              		.thumb_func
 1425              		.type	PollingDisplay1, %function
 1426              	PollingDisplay1:
 1427              	.LFB71:
 363:.\main.c      ****     uint8 x,y;     
 1428              		.loc 1 363 0
 1429              		.cfi_startproc
 1430              		@ args = 0, pretend = 0, frame = 0
 1431              		@ frame_needed = 0, uses_anonymous_args = 0
 1432 0000 F0B5     		push	{r4, r5, r6, r7, lr}
 1433              		.cfi_def_cfa_offset 20
 1434              		.cfi_offset 4, -20
 1435              		.cfi_offset 5, -16
 1436              		.cfi_offset 6, -12
 1437              		.cfi_offset 7, -8
 1438              		.cfi_offset 14, -4
 1439 0002 85B0     		sub	sp, sp, #20
 1440              		.cfi_def_cfa_offset 40
 365:.\main.c      ****         case 0:
 1441              		.loc 1 365 0
 1442 0004 A54B     		ldr	r3, .L293
 1443 0006 1B68     		ldr	r3, [r3]
 1444 0008 132B     		cmp	r3, #19
 1445 000a 01F2FA81 		bhi	.L85
 1446 000e DFE813F0 		tbh	[pc, r3, lsl #1]
 1447              	.L88:
 1448 0012 1400     		.2byte	(.L87-.L88)/2
 1449 0014 2A00     		.2byte	(.L89-.L88)/2
 1450 0016 6900     		.2byte	(.L90-.L88)/2
 1451 0018 C500     		.2byte	(.L91-.L88)/2
ARM GAS  C:\Users\RECEPC~1\AppData\Local\Temp\cc6Stwwd.s 			page 67


 1452 001a A301     		.2byte	(.L92-.L88)/2
 1453 001c D101     		.2byte	(.L93-.L88)/2
 1454 001e 4F02     		.2byte	(.L94-.L88)/2
 1455 0020 C402     		.2byte	(.L95-.L88)/2
 1456 0022 3403     		.2byte	(.L96-.L88)/2
 1457 0024 B503     		.2byte	(.L97-.L88)/2
 1458 0026 8804     		.2byte	(.L98-.L88)/2
 1459 0028 DB04     		.2byte	(.L99-.L88)/2
 1460 002a 7905     		.2byte	(.L100-.L88)/2
 1461 002c F105     		.2byte	(.L101-.L88)/2
 1462 002e 4606     		.2byte	(.L102-.L88)/2
 1463 0030 9807     		.2byte	(.L103-.L88)/2
 1464 0032 4508     		.2byte	(.L104-.L88)/2
 1465 0034 9A08     		.2byte	(.L105-.L88)/2
 1466 0036 1F09     		.2byte	(.L106-.L88)/2
 1467 0038 F209     		.2byte	(.L107-.L88)/2
 1468              		.p2align 1
 1469              	.L87:
 367:.\main.c      ****             flowDisplay1 =1;
 1470              		.loc 1 367 0
 1471 003a FFF7FEFF 		bl	InitDisplay1
 1472              	.LVL139:
 368:.\main.c      ****             isr_3_Stop(); 
 1473              		.loc 1 368 0
 1474 003e 0122     		movs	r2, #1
 1475 0040 964B     		ldr	r3, .L293
 1476 0042 1A60     		str	r2, [r3]
 369:.\main.c      ****             Timer_Animacion_Stop();
 1477              		.loc 1 369 0
 1478 0044 FFF7FEFF 		bl	isr_3_Stop
 1479              	.LVL140:
 370:.\main.c      ****             count_protector = 0;
 1480              		.loc 1 370 0
 1481 0048 FFF7FEFF 		bl	Timer_Animacion_Stop
 1482              	.LVL141:
 371:.\main.c      ****             bufferDisplay1.saleType = 0;
 1483              		.loc 1 371 0
 1484 004c 0023     		movs	r3, #0
 1485 004e 944A     		ldr	r2, .L293+4
 1486 0050 1370     		strb	r3, [r2]
 372:.\main.c      ****             bufferDisplay1.flagEndSale = false;  
 1487              		.loc 1 372 0
 1488 0052 944A     		ldr	r2, .L293+8
 1489 0054 82F86130 		strb	r3, [r2, #97]
 373:.\main.c      ****             side.a.RFstateReport = 0;            
 1490              		.loc 1 373 0
 1491 0058 82F80331 		strb	r3, [r2, #259]
 374:.\main.c      ****         break;
 1492              		.loc 1 374 0
 1493 005c 924A     		ldr	r2, .L293+12
 1494 005e 82F80731 		strb	r3, [r2, #263]
 375:.\main.c      ****         case 1: //Menu
 1495              		.loc 1 375 0
 1496 0062 01F0CEB9 		b	.L85
 1497              	.L89:
 377:.\main.c      ****                 if(bufferDisplay1.flagPrint)
 1498              		.loc 1 377 0
ARM GAS  C:\Users\RECEPC~1\AppData\Local\Temp\cc6Stwwd.s 			page 68


 1499 0066 914B     		ldr	r3, .L293+16
 1500 0068 D3E90023 		ldrd	r2, [r3]
 1501 006c 4FF42F70 		mov	r0, #700
 1502 0070 0021     		movs	r1, #0
 1503 0072 9942     		cmp	r1, r3
 1504 0074 08BF     		it	eq
 1505 0076 9042     		cmpeq	r0, r2
 1506 0078 0ED2     		bcs	.L108
 378:.\main.c      ****                     imprimir(printPortA,side.a.dir);
 1507              		.loc 1 378 0
 1508 007a 8A4B     		ldr	r3, .L293+8
 1509 007c 93F83431 		ldrb	r3, [r3, #308]	@ zero_extendqisi2
 1510 0080 2BB1     		cbz	r3, .L109
 379:.\main.c      ****                 countRX = 0;
 1511              		.loc 1 379 0
 1512 0082 8B4B     		ldr	r3, .L293+20
 1513 0084 1878     		ldrb	r0, [r3]	@ zero_extendqisi2
 1514 0086 884B     		ldr	r3, .L293+12
 1515 0088 1978     		ldrb	r1, [r3]	@ zero_extendqisi2
 1516 008a FFF7FEFF 		bl	imprimir
 1517              	.LVL142:
 1518              	.L109:
 380:.\main.c      ****             }
 1519              		.loc 1 380 0
 1520 008e 0020     		movs	r0, #0
 1521 0090 0021     		movs	r1, #0
 1522 0092 864B     		ldr	r3, .L293+16
 1523 0094 C3E90001 		strd	r0, [r3]
 1524              	.L108:
 382:.\main.c      ****             if(Display1_GetRxBufferSize()==8){
 1525              		.loc 1 382 0
 1526 0098 0822     		movs	r2, #8
 1527 009a 834B     		ldr	r3, .L293+12
 1528 009c 83F80321 		strb	r2, [r3, #259]
 383:.\main.c      ****                 if((Display1_rxBuffer[0]==0xAA) && (Display1_rxBuffer[6]==0xC3) && (Display1_rxBuff
 1529              		.loc 1 383 0
 1530 00a0 FFF7FEFF 		bl	Display1_GetRxBufferSize
 1531              	.LVL143:
 1532 00a4 0828     		cmp	r0, #8
 1533 00a6 41F0AC81 		bne	.L85
 384:.\main.c      ****                     flowDisplay1 = 2;      //Pantalla forma de pago                      
 1534              		.loc 1 384 0
 1535 00aa 824B     		ldr	r3, .L293+24
 1536 00ac 1B78     		ldrb	r3, [r3]	@ zero_extendqisi2
 1537 00ae DBB2     		uxtb	r3, r3
 1538 00b0 AA2B     		cmp	r3, #170
 1539 00b2 10D1     		bne	.L110
 384:.\main.c      ****                     flowDisplay1 = 2;      //Pantalla forma de pago                      
 1540              		.loc 1 384 0 is_stmt 0 discriminator 1
 1541 00b4 7F4B     		ldr	r3, .L293+24
 1542 00b6 9B79     		ldrb	r3, [r3, #6]	@ zero_extendqisi2
 1543 00b8 DBB2     		uxtb	r3, r3
 1544 00ba C32B     		cmp	r3, #195
 1545 00bc 0BD1     		bne	.L110
 384:.\main.c      ****                     flowDisplay1 = 2;      //Pantalla forma de pago                      
 1546              		.loc 1 384 0 discriminator 2
 1547 00be 7D4B     		ldr	r3, .L293+24
ARM GAS  C:\Users\RECEPC~1\AppData\Local\Temp\cc6Stwwd.s 			page 69


 1548 00c0 DB79     		ldrb	r3, [r3, #7]	@ zero_extendqisi2
 1549 00c2 DBB2     		uxtb	r3, r3
 1550 00c4 3C2B     		cmp	r3, #60
 1551 00c6 06D1     		bne	.L110
 385:.\main.c      ****                     SetPicture(1,DISPLAY_FORMA_PAGO_DESEADA);                                      
 1552              		.loc 1 385 0 is_stmt 1
 1553 00c8 0222     		movs	r2, #2
 1554 00ca 744B     		ldr	r3, .L293
 1555 00cc 1A60     		str	r2, [r3]
 386:.\main.c      ****                 }  
 1556              		.loc 1 386 0
 1557 00ce 0120     		movs	r0, #1
 1558 00d0 0421     		movs	r1, #4
 1559 00d2 FFF7FEFF 		bl	SetPicture
 1560              	.LVL144:
 1561              	.L110:
 388:.\main.c      ****                 Display1_ClearRxBuffer();
 1562              		.loc 1 388 0
 1563 00d6 0A20     		movs	r0, #10
 1564 00d8 FFF7FEFF 		bl	CyDelay
 1565              	.LVL145:
 389:.\main.c      ****             }
 1566              		.loc 1 389 0
 1567 00dc FFF7FEFF 		bl	Display1_ClearRxBuffer
 1568              	.LVL146:
 1569 00e0 01F08FB9 		b	.L85
 1570              	.L90:
 393:.\main.c      ****                 if((Display1_rxBuffer[0]==0xAA) && (Display1_rxBuffer[6]==0xC3) && (Display1_rxBuff
 1571              		.loc 1 393 0
 1572 00e4 FFF7FEFF 		bl	Display1_GetRxBufferSize
 1573              	.LVL147:
 1574 00e8 0828     		cmp	r0, #8
 1575 00ea 41F08A81 		bne	.L85
 394:.\main.c      ****                     switch(Display1_rxBuffer[3]){
 1576              		.loc 1 394 0
 1577 00ee 714B     		ldr	r3, .L293+24
 1578 00f0 1B78     		ldrb	r3, [r3]	@ zero_extendqisi2
 1579 00f2 DBB2     		uxtb	r3, r3
 1580 00f4 AA2B     		cmp	r3, #170
 1581 00f6 4AD1     		bne	.L111
 394:.\main.c      ****                     switch(Display1_rxBuffer[3]){
 1582              		.loc 1 394 0 is_stmt 0 discriminator 1
 1583 00f8 6E4B     		ldr	r3, .L293+24
 1584 00fa 9B79     		ldrb	r3, [r3, #6]	@ zero_extendqisi2
 1585 00fc DBB2     		uxtb	r3, r3
 1586 00fe C32B     		cmp	r3, #195
 1587 0100 45D1     		bne	.L111
 394:.\main.c      ****                     switch(Display1_rxBuffer[3]){
 1588              		.loc 1 394 0 discriminator 2
 1589 0102 6C4B     		ldr	r3, .L293+24
 1590 0104 DB79     		ldrb	r3, [r3, #7]	@ zero_extendqisi2
 1591 0106 DBB2     		uxtb	r3, r3
 1592 0108 3C2B     		cmp	r3, #60
 1593 010a 40D1     		bne	.L111
 395:.\main.c      ****                         case 0x0D:  //Pantalla efectivo              
 1594              		.loc 1 395 0 is_stmt 1
 1595 010c 694B     		ldr	r3, .L293+24
ARM GAS  C:\Users\RECEPC~1\AppData\Local\Temp\cc6Stwwd.s 			page 70


 1596 010e DB78     		ldrb	r3, [r3, #3]	@ zero_extendqisi2
 1597 0110 DBB2     		uxtb	r3, r3
 1598 0112 452B     		cmp	r3, #69
 1599 0114 24D0     		beq	.L112
 1600 0116 04D8     		bhi	.L113
 1601 0118 0D2B     		cmp	r3, #13
 1602 011a 07D0     		beq	.L114
 1603 011c 0E2B     		cmp	r3, #14
 1604 011e 10D0     		beq	.L115
 1605 0120 35E0     		b	.L111
 1606              	.L113:
 1607 0122 7E2B     		cmp	r3, #126
 1608 0124 2CD0     		beq	.L116
 1609 0126 942B     		cmp	r3, #148
 1610 0128 22D0     		beq	.L117
 1611 012a 30E0     		b	.L111
 1612              	.L114:
 397:.\main.c      ****                             bufferDisplay1.saleType = 1;
 1613              		.loc 1 397 0
 1614 012c 0322     		movs	r2, #3
 1615 012e 5B4B     		ldr	r3, .L293
 1616 0130 1A60     		str	r2, [r3]
 398:.\main.c      ****                             SetPicture(1,DISPLAY_FORMA_PROGRAMACION);                            
 1617              		.loc 1 398 0
 1618 0132 0120     		movs	r0, #1
 1619 0134 5B4B     		ldr	r3, .L293+8
 1620 0136 83F86100 		strb	r0, [r3, #97]
 399:.\main.c      ****                         break;
 1621              		.loc 1 399 0
 1622 013a 0521     		movs	r1, #5
 1623 013c FFF7FEFF 		bl	SetPicture
 1624              	.LVL148:
 400:.\main.c      ****                         case 0x0E:  //Pantalla credito  
 1625              		.loc 1 400 0
 1626 0140 25E0     		b	.L111
 1627              	.L115:
 402:.\main.c      ****                             bufferDisplay1.saleType = 2;
 1628              		.loc 1 402 0
 1629 0142 0A22     		movs	r2, #10
 1630 0144 554B     		ldr	r3, .L293
 1631 0146 1A60     		str	r2, [r3]
 403:.\main.c      ****                             count_protector = 0;
 1632              		.loc 1 403 0
 1633 0148 0222     		movs	r2, #2
 1634 014a 564B     		ldr	r3, .L293+8
 1635 014c 83F86120 		strb	r2, [r3, #97]
 404:.\main.c      ****                             SetPicture(1,DISPLAY_ID_DIGITAL);                            
 1636              		.loc 1 404 0
 1637 0150 0022     		movs	r2, #0
 1638 0152 534B     		ldr	r3, .L293+4
 1639 0154 1A70     		strb	r2, [r3]
 405:.\main.c      ****                         break;
 1640              		.loc 1 405 0
 1641 0156 0120     		movs	r0, #1
 1642 0158 8521     		movs	r1, #133
 1643 015a FFF7FEFF 		bl	SetPicture
 1644              	.LVL149:
ARM GAS  C:\Users\RECEPC~1\AppData\Local\Temp\cc6Stwwd.s 			page 71


 406:.\main.c      ****                         case 0x45:  //Pantalla otras opciones 
 1645              		.loc 1 406 0
 1646 015e 16E0     		b	.L111
 1647              	.L112:
 408:.\main.c      ****                             SetPicture(1,DISPLAY_OPERACIONES);                            
 1648              		.loc 1 408 0
 1649 0160 0C22     		movs	r2, #12
 1650 0162 4E4B     		ldr	r3, .L293
 1651 0164 1A60     		str	r2, [r3]
 409:.\main.c      ****                         break;
 1652              		.loc 1 409 0
 1653 0166 0120     		movs	r0, #1
 1654 0168 8321     		movs	r1, #131
 1655 016a FFF7FEFF 		bl	SetPicture
 1656              	.LVL150:
 410:.\main.c      ****                             
 1657              		.loc 1 410 0
 1658 016e 0EE0     		b	.L111
 1659              	.L117:
 413:.\main.c      ****                             SetPicture(1,DISPLAY_INICIO0);                            
 1660              		.loc 1 413 0
 1661 0170 0022     		movs	r2, #0
 1662 0172 4A4B     		ldr	r3, .L293
 1663 0174 1A60     		str	r2, [r3]
 414:.\main.c      ****                         break;
 1664              		.loc 1 414 0
 1665 0176 0120     		movs	r0, #1
 1666 0178 0146     		mov	r1, r0
 1667 017a FFF7FEFF 		bl	SetPicture
 1668              	.LVL151:
 415:.\main.c      ****                         
 1669              		.loc 1 415 0
 1670 017e 06E0     		b	.L111
 1671              	.L116:
 418:.\main.c      ****                             SetPicture(1,DISPLAY_INICIO0);                            
 1672              		.loc 1 418 0
 1673 0180 0022     		movs	r2, #0
 1674 0182 464B     		ldr	r3, .L293
 1675 0184 1A60     		str	r2, [r3]
 419:.\main.c      ****                         break;
 1676              		.loc 1 419 0
 1677 0186 0120     		movs	r0, #1
 1678 0188 0146     		mov	r1, r0
 1679 018a FFF7FEFF 		bl	SetPicture
 1680              	.LVL152:
 1681              	.L111:
 423:.\main.c      ****                 Display1_ClearRxBuffer();
 1682              		.loc 1 423 0
 1683 018e 0A20     		movs	r0, #10
 1684 0190 FFF7FEFF 		bl	CyDelay
 1685              	.LVL153:
 424:.\main.c      ****             }
 1686              		.loc 1 424 0
 1687 0194 FFF7FEFF 		bl	Display1_ClearRxBuffer
 1688              	.LVL154:
 1689 0198 01F033B9 		b	.L85
 1690              	.L91:
ARM GAS  C:\Users\RECEPC~1\AppData\Local\Temp\cc6Stwwd.s 			page 72


 429:.\main.c      ****                 if((Display1_rxBuffer[0]==0xAA) && (Display1_rxBuffer[6]==0xC3) && (Display1_rxBuff
 1691              		.loc 1 429 0
 1692 019c FFF7FEFF 		bl	Display1_GetRxBufferSize
 1693              	.LVL155:
 1694 01a0 0828     		cmp	r0, #8
 1695 01a2 41F02E81 		bne	.L85
 430:.\main.c      ****                     switch(Display1_rxBuffer[3]){
 1696              		.loc 1 430 0
 1697 01a6 434B     		ldr	r3, .L293+24
 1698 01a8 1B78     		ldrb	r3, [r3]	@ zero_extendqisi2
 1699 01aa DBB2     		uxtb	r3, r3
 1700 01ac AA2B     		cmp	r3, #170
 1701 01ae 40F0CC80 		bne	.L118
 430:.\main.c      ****                     switch(Display1_rxBuffer[3]){
 1702              		.loc 1 430 0 is_stmt 0 discriminator 1
 1703 01b2 404B     		ldr	r3, .L293+24
 1704 01b4 9B79     		ldrb	r3, [r3, #6]	@ zero_extendqisi2
 1705 01b6 DBB2     		uxtb	r3, r3
 1706 01b8 C32B     		cmp	r3, #195
 1707 01ba 40F0C680 		bne	.L118
 430:.\main.c      ****                     switch(Display1_rxBuffer[3]){
 1708              		.loc 1 430 0 discriminator 2
 1709 01be 3D4B     		ldr	r3, .L293+24
 1710 01c0 DB79     		ldrb	r3, [r3, #7]	@ zero_extendqisi2
 1711 01c2 DBB2     		uxtb	r3, r3
 1712 01c4 3C2B     		cmp	r3, #60
 1713 01c6 40F0C080 		bne	.L118
 431:.\main.c      ****                         case 0x0F:  //Preset dinero                
 1714              		.loc 1 431 0 is_stmt 1
 1715 01ca 3A4B     		ldr	r3, .L293+24
 1716 01cc DB78     		ldrb	r3, [r3, #3]	@ zero_extendqisi2
 1717 01ce DBB2     		uxtb	r3, r3
 1718 01d0 3B2B     		cmp	r3, #59
 1719 01d2 00F0AB80 		beq	.L119
 1720 01d6 04D8     		bhi	.L120
 1721 01d8 0F2B     		cmp	r3, #15
 1722 01da 0CD0     		beq	.L121
 1723 01dc 102B     		cmp	r3, #16
 1724 01de 2FD0     		beq	.L122
 1725 01e0 B3E0     		b	.L118
 1726              	.L120:
 1727 01e2 7E2B     		cmp	r3, #126
 1728 01e4 00F0AA80 		beq	.L123
 1729 01e8 942B     		cmp	r3, #148
 1730 01ea 00F09780 		beq	.L124
 1731 01ee 432B     		cmp	r3, #67
 1732 01f0 40F0AB80 		bne	.L118
 1733 01f4 49E0     		b	.L125
 1734              	.L121:
 433:.\main.c      ****                             bufferDisplay1.presetType[0]=2;
 1735              		.loc 1 433 0
 1736 01f6 0422     		movs	r2, #4
 1737 01f8 284B     		ldr	r3, .L293
 1738 01fa 1A60     		str	r2, [r3]
 434:.\main.c      ****                             bufferDisplay1.presetType[1]='D';
 1739              		.loc 1 434 0
 1740 01fc 294B     		ldr	r3, .L293+8
ARM GAS  C:\Users\RECEPC~1\AppData\Local\Temp\cc6Stwwd.s 			page 73


 1741 01fe 0224     		movs	r4, #2
 1742 0200 83F86340 		strb	r4, [r3, #99]
 435:.\main.c      ****                             numberKeys1=0;
 1743              		.loc 1 435 0
 1744 0204 4422     		movs	r2, #68
 1745 0206 83F86420 		strb	r2, [r3, #100]
 436:.\main.c      ****                             SetPicture(1,DISPLAY_INTRODUZCA_VALOR);   
 1746              		.loc 1 436 0
 1747 020a 0025     		movs	r5, #0
 1748 020c 2A4B     		ldr	r3, .L293+28
 1749 020e 1D70     		strb	r5, [r3]
 437:.\main.c      ****                             WriteLCD(1,'$',3,2,1,0x0000,'N');
 1750              		.loc 1 437 0
 1751 0210 0120     		movs	r0, #1
 1752 0212 0621     		movs	r1, #6
 1753 0214 FFF7FEFF 		bl	SetPicture
 1754              	.LVL156:
 438:.\main.c      ****                             if(MoneyDec>0){
 1755              		.loc 1 438 0
 1756 0218 0120     		movs	r0, #1
 1757 021a 0090     		str	r0, [sp]
 1758 021c 0195     		str	r5, [sp, #4]
 1759 021e 4E23     		movs	r3, #78
 1760 0220 0293     		str	r3, [sp, #8]
 1761 0222 2421     		movs	r1, #36
 1762 0224 0322     		movs	r2, #3
 1763 0226 2346     		mov	r3, r4
 1764 0228 FFF7FEFF 		bl	WriteLCD
 1765              	.LVL157:
 439:.\main.c      ****                                 flagPoint1=0;
 1766              		.loc 1 439 0
 1767 022c 234B     		ldr	r3, .L293+32
 1768 022e 1B78     		ldrb	r3, [r3]	@ zero_extendqisi2
 1769 0230 13B1     		cbz	r3, .L126
 440:.\main.c      ****                             }else{
 1770              		.loc 1 440 0
 1771 0232 234B     		ldr	r3, .L293+36
 1772 0234 1D70     		strb	r5, [r3]
 1773 0236 88E0     		b	.L118
 1774              	.L126:
 442:.\main.c      ****                             }
 1775              		.loc 1 442 0
 1776 0238 0122     		movs	r2, #1
 1777 023a 214B     		ldr	r3, .L293+36
 1778 023c 1A70     		strb	r2, [r3]
 1779 023e 84E0     		b	.L118
 1780              	.L122:
 446:.\main.c      ****                             bufferDisplay1.presetType[0]=1;
 1781              		.loc 1 446 0
 1782 0240 0422     		movs	r2, #4
 1783 0242 164B     		ldr	r3, .L293
 1784 0244 1A60     		str	r2, [r3]
 447:.\main.c      ****                             bufferDisplay1.presetType[1]='V';
 1785              		.loc 1 447 0
 1786 0246 174B     		ldr	r3, .L293+8
 1787 0248 0124     		movs	r4, #1
 1788 024a 83F86340 		strb	r4, [r3, #99]
ARM GAS  C:\Users\RECEPC~1\AppData\Local\Temp\cc6Stwwd.s 			page 74


 448:.\main.c      ****                             numberKeys1=0;                            
 1789              		.loc 1 448 0
 1790 024e 5625     		movs	r5, #86
 1791 0250 83F86450 		strb	r5, [r3, #100]
 449:.\main.c      ****                             SetPicture(1,DISPLAY_INTRODUZCA_VOLUMEN);                            
 1792              		.loc 1 449 0
 1793 0254 0026     		movs	r6, #0
 1794 0256 184B     		ldr	r3, .L293+28
 1795 0258 1E70     		strb	r6, [r3]
 450:.\main.c      ****                             WriteLCD(1,'V',3,2,1,0x0000,'N');     
 1796              		.loc 1 450 0
 1797 025a 2046     		mov	r0, r4
 1798 025c 0D21     		movs	r1, #13
 1799 025e FFF7FEFF 		bl	SetPicture
 1800              	.LVL158:
 451:.\main.c      ****                             if(VolDec>0){
 1801              		.loc 1 451 0
 1802 0262 0094     		str	r4, [sp]
 1803 0264 0196     		str	r6, [sp, #4]
 1804 0266 4E23     		movs	r3, #78
 1805 0268 0293     		str	r3, [sp, #8]
 1806 026a 2046     		mov	r0, r4
 1807 026c 2946     		mov	r1, r5
 1808 026e 0322     		movs	r2, #3
 1809 0270 0223     		movs	r3, #2
 1810 0272 FFF7FEFF 		bl	WriteLCD
 1811              	.LVL159:
 452:.\main.c      ****                                 flagPoint1=0;
 1812              		.loc 1 452 0
 1813 0276 134B     		ldr	r3, .L293+40
 1814 0278 1B78     		ldrb	r3, [r3]	@ zero_extendqisi2
 1815 027a 13B1     		cbz	r3, .L127
 453:.\main.c      ****                             }else{
 1816              		.loc 1 453 0
 1817 027c 104B     		ldr	r3, .L293+36
 1818 027e 1E70     		strb	r6, [r3]
 1819 0280 63E0     		b	.L118
 1820              	.L127:
 455:.\main.c      ****                             }
 1821              		.loc 1 455 0
 1822 0282 0122     		movs	r2, #1
 1823 0284 0E4B     		ldr	r3, .L293+36
 1824 0286 1A70     		strb	r2, [r3]
 1825 0288 5FE0     		b	.L118
 1826              	.L125:
 459:.\main.c      ****                             bufferDisplay1.presetType[1]='F';
 1827              		.loc 1 459 0
 1828 028a 064B     		ldr	r3, .L293+8
 1829 028c 0222     		movs	r2, #2
 1830 028e 83F86320 		strb	r2, [r3, #99]
 460:.\main.c      ****                             for(x=1;x<(digits-1);x++){
 1831              		.loc 1 460 0
 1832 0292 4622     		movs	r2, #70
 1833 0294 83F86420 		strb	r2, [r3, #100]
 1834              	.LVL160:
 461:.\main.c      ****                                 bufferDisplay1.presetValue[0][x]='9';
 1835              		.loc 1 461 0
ARM GAS  C:\Users\RECEPC~1\AppData\Local\Temp\cc6Stwwd.s 			page 75


 1836 0298 0123     		movs	r3, #1
 1837 029a 1CE0     		b	.L128
 1838              	.L294:
 1839              		.align	2
 1840              	.L293:
 1841 029c 00000000 		.word	flowDisplay1
 1842 02a0 00000000 		.word	count_protector
 1843 02a4 00000000 		.word	bufferDisplay1
 1844 02a8 00000000 		.word	side
 1845 02ac 00000000 		.word	countRX
 1846 02b0 00000000 		.word	printPortA
 1847 02b4 00000000 		.word	Display1_rxBuffer
 1848 02b8 00000000 		.word	numberKeys1
 1849 02bc 00000000 		.word	MoneyDec
 1850 02c0 00000000 		.word	flagPoint1
 1851 02c4 00000000 		.word	VolDec
 1852              	.LVL161:
 1853              	.L129:
 462:.\main.c      ****                             }
 1854              		.loc 1 462 0 discriminator 3
 1855 02c8 984A     		ldr	r2, .L295
 1856 02ca 1A44     		add	r2, r2, r3
 1857 02cc 3921     		movs	r1, #57
 1858 02ce 82F86510 		strb	r1, [r2, #101]
 461:.\main.c      ****                                 bufferDisplay1.presetValue[0][x]='9';
 1859              		.loc 1 461 0 discriminator 3
 1860 02d2 0133     		adds	r3, r3, #1
 1861              	.LVL162:
 1862 02d4 DBB2     		uxtb	r3, r3
 1863              	.LVL163:
 1864              	.L128:
 461:.\main.c      ****                                 bufferDisplay1.presetValue[0][x]='9';
 1865              		.loc 1 461 0 is_stmt 0 discriminator 1
 1866 02d6 1A46     		mov	r2, r3
 1867 02d8 9549     		ldr	r1, .L295+4
 1868 02da 0978     		ldrb	r1, [r1]	@ zero_extendqisi2
 1869 02dc 481E     		subs	r0, r1, #1
 1870 02de 8342     		cmp	r3, r0
 1871 02e0 F2DB     		blt	.L129
 464:.\main.c      ****                             bufferDisplay1.presetValue[0][x+1]='0';
 1872              		.loc 1 464 0 is_stmt 1
 1873 02e2 924B     		ldr	r3, .L295
 1874              	.LVL164:
 1875 02e4 9C18     		adds	r4, r3, r2
 1876 02e6 3020     		movs	r0, #48
 1877 02e8 84F86500 		strb	r0, [r4, #101]
 465:.\main.c      ****                             bufferDisplay1.presetValue[0][0]=digits;
 1878              		.loc 1 465 0
 1879 02ec 84F86600 		strb	r0, [r4, #102]
 466:.\main.c      ****                             for(x=0;x<=bufferDisplay1.presetValue[0][0];x++){
 1880              		.loc 1 466 0
 1881 02f0 83F86510 		strb	r1, [r3, #101]
 1882              	.LVL165:
 467:.\main.c      ****                                 bufferDisplay1.presetValue[1][x]=bufferDisplay1.presetValue[0][x];
 1883              		.loc 1 467 0
 1884 02f4 0023     		movs	r3, #0
 1885 02f6 07E0     		b	.L130
ARM GAS  C:\Users\RECEPC~1\AppData\Local\Temp\cc6Stwwd.s 			page 76


 1886              	.LVL166:
 1887              	.L131:
 468:.\main.c      ****                             }
 1888              		.loc 1 468 0 discriminator 3
 1889 02f8 8C4A     		ldr	r2, .L295
 1890 02fa 1A44     		add	r2, r2, r3
 1891 02fc 92F86500 		ldrb	r0, [r2, #101]	@ zero_extendqisi2
 1892 0300 82F86F00 		strb	r0, [r2, #111]
 467:.\main.c      ****                                 bufferDisplay1.presetValue[1][x]=bufferDisplay1.presetValue[0][x];
 1893              		.loc 1 467 0 discriminator 3
 1894 0304 0133     		adds	r3, r3, #1
 1895              	.LVL167:
 1896 0306 DBB2     		uxtb	r3, r3
 1897              	.LVL168:
 1898              	.L130:
 467:.\main.c      ****                                 bufferDisplay1.presetValue[1][x]=bufferDisplay1.presetValue[0][x];
 1899              		.loc 1 467 0 is_stmt 0 discriminator 1
 1900 0308 8B42     		cmp	r3, r1
 1901 030a F5D9     		bls	.L131
 470:.\main.c      ****                             SetPicture(1,DISPLAY_SELECCIONE_PRODUCTO4);                          
 1902              		.loc 1 470 0 is_stmt 1
 1903 030c 0522     		movs	r2, #5
 1904 030e 894B     		ldr	r3, .L295+8
 1905              	.LVL169:
 1906 0310 1A60     		str	r2, [r3]
 471:.\main.c      ****                         break;
 1907              		.loc 1 471 0
 1908 0312 0120     		movs	r0, #1
 1909 0314 8621     		movs	r1, #134
 1910 0316 FFF7FEFF 		bl	SetPicture
 1911              	.LVL170:
 472:.\main.c      ****                         case 0x94:  //Retroceso 
 1912              		.loc 1 472 0
 1913 031a 16E0     		b	.L118
 1914              	.L124:
 474:.\main.c      ****                             SetPicture(1,DISPLAY_INICIO0);                                         
 1915              		.loc 1 474 0
 1916 031c 0022     		movs	r2, #0
 1917 031e 854B     		ldr	r3, .L295+8
 1918 0320 1A60     		str	r2, [r3]
 475:.\main.c      ****                         break;
 1919              		.loc 1 475 0
 1920 0322 0120     		movs	r0, #1
 1921 0324 0146     		mov	r1, r0
 1922 0326 FFF7FEFF 		bl	SetPicture
 1923              	.LVL171:
 476:.\main.c      ****                         case 0x3B:  //Pantalla Inicial    
 1924              		.loc 1 476 0
 1925 032a 0EE0     		b	.L118
 1926              	.L119:
 478:.\main.c      ****                             SetPicture(1,DISPLAY_INICIO0);                            
 1927              		.loc 1 478 0
 1928 032c 0022     		movs	r2, #0
 1929 032e 814B     		ldr	r3, .L295+8
 1930 0330 1A60     		str	r2, [r3]
 479:.\main.c      ****                         break;
 1931              		.loc 1 479 0
ARM GAS  C:\Users\RECEPC~1\AppData\Local\Temp\cc6Stwwd.s 			page 77


 1932 0332 0120     		movs	r0, #1
 1933 0334 0146     		mov	r1, r0
 1934 0336 FFF7FEFF 		bl	SetPicture
 1935              	.LVL172:
 480:.\main.c      ****                         case 0x7E:  //Pantalla Inicial    
 1936              		.loc 1 480 0
 1937 033a 06E0     		b	.L118
 1938              	.L123:
 482:.\main.c      ****                             SetPicture(1,DISPLAY_INICIO0);                            
 1939              		.loc 1 482 0
 1940 033c 0022     		movs	r2, #0
 1941 033e 7D4B     		ldr	r3, .L295+8
 1942 0340 1A60     		str	r2, [r3]
 483:.\main.c      ****                         break;
 1943              		.loc 1 483 0
 1944 0342 0120     		movs	r0, #1
 1945 0344 0146     		mov	r1, r0
 1946 0346 FFF7FEFF 		bl	SetPicture
 1947              	.LVL173:
 1948              	.L118:
 487:.\main.c      ****                 Display1_ClearRxBuffer();
 1949              		.loc 1 487 0
 1950 034a 0A20     		movs	r0, #10
 1951 034c FFF7FEFF 		bl	CyDelay
 1952              	.LVL174:
 488:.\main.c      ****             }
 1953              		.loc 1 488 0
 1954 0350 FFF7FEFF 		bl	Display1_ClearRxBuffer
 1955              	.LVL175:
 1956 0354 01F055B8 		b	.L85
 1957              	.L92:
 493:.\main.c      ****                 case 0:  //Pantalla Inicial    
 1958              		.loc 1 493 0
 1959 0358 0120     		movs	r0, #1
 1960 035a 754B     		ldr	r3, .L295+4
 1961 035c 1978     		ldrb	r1, [r3]	@ zero_extendqisi2
 1962 035e 0022     		movs	r2, #0
 1963 0360 FFF7FEFF 		bl	alphanumeric_keyboard
 1964              	.LVL176:
 1965 0364 18B1     		cbz	r0, .L132
 1966 0366 0128     		cmp	r0, #1
 1967 0368 15D0     		beq	.L273
 1968 036a 01F04AB8 		b	.L85
 1969              	.L132:
 495:.\main.c      ****                     SetPicture(1,DISPLAY_INICIO0);                            
 1970              		.loc 1 495 0
 1971 036e 0022     		movs	r2, #0
 1972 0370 704B     		ldr	r3, .L295+8
 1973 0372 1A60     		str	r2, [r3]
 496:.\main.c      ****                 break;
 1974              		.loc 1 496 0
 1975 0374 0120     		movs	r0, #1
 1976 0376 0146     		mov	r1, r0
 1977 0378 FFF7FEFF 		bl	SetPicture
 1978              	.LVL177:
 497:.\main.c      ****                     
 1979              		.loc 1 497 0
ARM GAS  C:\Users\RECEPC~1\AppData\Local\Temp\cc6Stwwd.s 			page 78


 1980 037c 01F041B8 		b	.L85
 1981              	.LVL178:
 1982              	.L134:
 501:.\main.c      ****                         bufferDisplay1.presetValue[1][x]=bufferDisplay1.valueKeys[x];
 1983              		.loc 1 501 0 discriminator 3
 1984 0380 6A4A     		ldr	r2, .L295
 1985 0382 1A44     		add	r2, r2, r3
 1986 0384 92F84B10 		ldrb	r1, [r2, #75]	@ zero_extendqisi2
 1987 0388 82F86510 		strb	r1, [r2, #101]
 502:.\main.c      ****                     }  
 1988              		.loc 1 502 0 discriminator 3
 1989 038c 82F86F10 		strb	r1, [r2, #111]
 500:.\main.c      ****                         bufferDisplay1.presetValue[0][x]=bufferDisplay1.valueKeys[x];
 1990              		.loc 1 500 0 discriminator 3
 1991 0390 0133     		adds	r3, r3, #1
 1992              	.LVL179:
 1993 0392 DBB2     		uxtb	r3, r3
 1994              	.LVL180:
 1995 0394 00E0     		b	.L133
 1996              	.LVL181:
 1997              	.L273:
 493:.\main.c      ****                 case 0:  //Pantalla Inicial    
 1998              		.loc 1 493 0
 1999 0396 0023     		movs	r3, #0
 2000              	.L133:
 2001              	.LVL182:
 500:.\main.c      ****                         bufferDisplay1.presetValue[0][x]=bufferDisplay1.valueKeys[x];
 2002              		.loc 1 500 0 discriminator 1
 2003 0398 644A     		ldr	r2, .L295
 2004 039a 92F84B20 		ldrb	r2, [r2, #75]	@ zero_extendqisi2
 2005 039e 9A42     		cmp	r2, r3
 2006 03a0 EED2     		bcs	.L134
 504:.\main.c      ****                     SetPicture(1,DISPLAY_SELECCIONE_PRODUCTO4);
 2007              		.loc 1 504 0
 2008 03a2 0522     		movs	r2, #5
 2009 03a4 634B     		ldr	r3, .L295+8
 2010              	.LVL183:
 2011 03a6 1A60     		str	r2, [r3]
 505:.\main.c      ****                 break;
 2012              		.loc 1 505 0
 2013 03a8 0120     		movs	r0, #1
 2014 03aa 8621     		movs	r1, #134
 2015 03ac FFF7FEFF 		bl	SetPicture
 2016              	.LVL184:
 506:.\main.c      ****             }
 2017              		.loc 1 506 0
 2018 03b0 01F027B8 		b	.L85
 2019              	.L93:
 511:.\main.c      ****                 if((Display1_rxBuffer[0]==0xAA) && (Display1_rxBuffer[6]==0xC3) && (Display1_rxBuff
 2020              		.loc 1 511 0
 2021 03b4 FFF7FEFF 		bl	Display1_GetRxBufferSize
 2022              	.LVL185:
 2023 03b8 0828     		cmp	r0, #8
 2024 03ba 41F02280 		bne	.L85
 512:.\main.c      ****                     switch(Display1_rxBuffer[3]){
 2025              		.loc 1 512 0
 2026 03be 5E4B     		ldr	r3, .L295+12
ARM GAS  C:\Users\RECEPC~1\AppData\Local\Temp\cc6Stwwd.s 			page 79


 2027 03c0 1B78     		ldrb	r3, [r3]	@ zero_extendqisi2
 2028 03c2 DBB2     		uxtb	r3, r3
 2029 03c4 AA2B     		cmp	r3, #170
 2030 03c6 6CD1     		bne	.L135
 512:.\main.c      ****                     switch(Display1_rxBuffer[3]){
 2031              		.loc 1 512 0 is_stmt 0 discriminator 1
 2032 03c8 5B4B     		ldr	r3, .L295+12
 2033 03ca 9B79     		ldrb	r3, [r3, #6]	@ zero_extendqisi2
 2034 03cc DBB2     		uxtb	r3, r3
 2035 03ce C32B     		cmp	r3, #195
 2036 03d0 67D1     		bne	.L135
 512:.\main.c      ****                     switch(Display1_rxBuffer[3]){
 2037              		.loc 1 512 0 discriminator 2
 2038 03d2 594B     		ldr	r3, .L295+12
 2039 03d4 DB79     		ldrb	r3, [r3, #7]	@ zero_extendqisi2
 2040 03d6 DBB2     		uxtb	r3, r3
 2041 03d8 3C2B     		cmp	r3, #60
 2042 03da 62D1     		bne	.L135
 513:.\main.c      ****                         case 0x80:  //Grado 1 
 2043              		.loc 1 513 0 is_stmt 1
 2044 03dc 564B     		ldr	r3, .L295+12
 2045 03de DB78     		ldrb	r3, [r3, #3]	@ zero_extendqisi2
 2046 03e0 7E3B     		subs	r3, r3, #126
 2047 03e2 3A2B     		cmp	r3, #58
 2048 03e4 5DD8     		bhi	.L135
 2049 03e6 DFE803F0 		tbb	[pc, r3]
 2050              	.L137:
 2051 03ea 55       		.byte	(.L136-.L137)/2
 2052 03eb 35       		.byte	(.L138-.L137)/2
 2053 03ec 1E       		.byte	(.L139-.L137)/2
 2054 03ed 29       		.byte	(.L140-.L137)/2
 2055 03ee 5C       		.byte	(.L135-.L137)/2
 2056 03ef 5C       		.byte	(.L135-.L137)/2
 2057 03f0 5C       		.byte	(.L135-.L137)/2
 2058 03f1 5C       		.byte	(.L135-.L137)/2
 2059 03f2 5C       		.byte	(.L135-.L137)/2
 2060 03f3 5C       		.byte	(.L135-.L137)/2
 2061 03f4 5C       		.byte	(.L135-.L137)/2
 2062 03f5 5C       		.byte	(.L135-.L137)/2
 2063 03f6 5C       		.byte	(.L135-.L137)/2
 2064 03f7 5C       		.byte	(.L135-.L137)/2
 2065 03f8 5C       		.byte	(.L135-.L137)/2
 2066 03f9 5C       		.byte	(.L135-.L137)/2
 2067 03fa 5C       		.byte	(.L135-.L137)/2
 2068 03fb 5C       		.byte	(.L135-.L137)/2
 2069 03fc 5C       		.byte	(.L135-.L137)/2
 2070 03fd 5C       		.byte	(.L135-.L137)/2
 2071 03fe 5C       		.byte	(.L135-.L137)/2
 2072 03ff 5C       		.byte	(.L135-.L137)/2
 2073 0400 4D       		.byte	(.L141-.L137)/2
 2074 0401 5C       		.byte	(.L135-.L137)/2
 2075 0402 5C       		.byte	(.L135-.L137)/2
 2076 0403 5C       		.byte	(.L135-.L137)/2
 2077 0404 5C       		.byte	(.L135-.L137)/2
 2078 0405 5C       		.byte	(.L135-.L137)/2
 2079 0406 5C       		.byte	(.L135-.L137)/2
 2080 0407 5C       		.byte	(.L135-.L137)/2
ARM GAS  C:\Users\RECEPC~1\AppData\Local\Temp\cc6Stwwd.s 			page 80


 2081 0408 5C       		.byte	(.L135-.L137)/2
 2082 0409 5C       		.byte	(.L135-.L137)/2
 2083 040a 5C       		.byte	(.L135-.L137)/2
 2084 040b 5C       		.byte	(.L135-.L137)/2
 2085 040c 5C       		.byte	(.L135-.L137)/2
 2086 040d 5C       		.byte	(.L135-.L137)/2
 2087 040e 5C       		.byte	(.L135-.L137)/2
 2088 040f 5C       		.byte	(.L135-.L137)/2
 2089 0410 5C       		.byte	(.L135-.L137)/2
 2090 0411 5C       		.byte	(.L135-.L137)/2
 2091 0412 5C       		.byte	(.L135-.L137)/2
 2092 0413 5C       		.byte	(.L135-.L137)/2
 2093 0414 5C       		.byte	(.L135-.L137)/2
 2094 0415 5C       		.byte	(.L135-.L137)/2
 2095 0416 5C       		.byte	(.L135-.L137)/2
 2096 0417 5C       		.byte	(.L135-.L137)/2
 2097 0418 5C       		.byte	(.L135-.L137)/2
 2098 0419 5C       		.byte	(.L135-.L137)/2
 2099 041a 5C       		.byte	(.L135-.L137)/2
 2100 041b 5C       		.byte	(.L135-.L137)/2
 2101 041c 5C       		.byte	(.L135-.L137)/2
 2102 041d 5C       		.byte	(.L135-.L137)/2
 2103 041e 5C       		.byte	(.L135-.L137)/2
 2104 041f 5C       		.byte	(.L135-.L137)/2
 2105 0420 5C       		.byte	(.L135-.L137)/2
 2106 0421 5C       		.byte	(.L135-.L137)/2
 2107 0422 5C       		.byte	(.L135-.L137)/2
 2108 0423 5C       		.byte	(.L135-.L137)/2
 2109 0424 41       		.byte	(.L142-.L137)/2
 2110 0425 00       		.p2align 1
 2111              	.L139:
 515:.\main.c      ****                             side.a.hose = 1;
 2112              		.loc 1 515 0
 2113 0426 0622     		movs	r2, #6
 2114 0428 424B     		ldr	r3, .L295+8
 2115 042a 1A60     		str	r2, [r3]
 516:.\main.c      ****                             SetPicture(1,DISPLAY_DESEA_IMPRIMIR_RECIBO);                           
 2116              		.loc 1 516 0
 2117 042c 0120     		movs	r0, #1
 2118 042e 434B     		ldr	r3, .L295+16
 2119 0430 83F80101 		strb	r0, [r3, #257]
 517:.\main.c      ****                         break;
 2120              		.loc 1 517 0
 2121 0434 0B21     		movs	r1, #11
 2122 0436 FFF7FEFF 		bl	SetPicture
 2123              	.LVL186:
 518:.\main.c      ****                             
 2124              		.loc 1 518 0
 2125 043a 32E0     		b	.L135
 2126              	.L140:
 521:.\main.c      ****                             side.a.hose = 2;
 2127              		.loc 1 521 0
 2128 043c 0622     		movs	r2, #6
 2129 043e 3D4B     		ldr	r3, .L295+8
 2130 0440 1A60     		str	r2, [r3]
 522:.\main.c      ****                             SetPicture(1,DISPLAY_DESEA_IMPRIMIR_RECIBO);                           
 2131              		.loc 1 522 0
ARM GAS  C:\Users\RECEPC~1\AppData\Local\Temp\cc6Stwwd.s 			page 81


 2132 0442 0222     		movs	r2, #2
 2133 0444 3D4B     		ldr	r3, .L295+16
 2134 0446 83F80121 		strb	r2, [r3, #257]
 523:.\main.c      ****                         break;
 2135              		.loc 1 523 0
 2136 044a 0120     		movs	r0, #1
 2137 044c 0B21     		movs	r1, #11
 2138 044e FFF7FEFF 		bl	SetPicture
 2139              	.LVL187:
 524:.\main.c      ****                             
 2140              		.loc 1 524 0
 2141 0452 26E0     		b	.L135
 2142              	.L138:
 527:.\main.c      ****                             side.a.hose = 3;
 2143              		.loc 1 527 0
 2144 0454 0622     		movs	r2, #6
 2145 0456 374B     		ldr	r3, .L295+8
 2146 0458 1A60     		str	r2, [r3]
 528:.\main.c      ****                             SetPicture(1,DISPLAY_DESEA_IMPRIMIR_RECIBO);                           
 2147              		.loc 1 528 0
 2148 045a 0322     		movs	r2, #3
 2149 045c 374B     		ldr	r3, .L295+16
 2150 045e 83F80121 		strb	r2, [r3, #257]
 529:.\main.c      ****                         break;   
 2151              		.loc 1 529 0
 2152 0462 0120     		movs	r0, #1
 2153 0464 0B21     		movs	r1, #11
 2154 0466 FFF7FEFF 		bl	SetPicture
 2155              	.LVL188:
 530:.\main.c      ****                         
 2156              		.loc 1 530 0
 2157 046a 1AE0     		b	.L135
 2158              	.L142:
 533:.\main.c      ****                             side.a.hose = 4;
 2159              		.loc 1 533 0
 2160 046c 0622     		movs	r2, #6
 2161 046e 314B     		ldr	r3, .L295+8
 2162 0470 1A60     		str	r2, [r3]
 534:.\main.c      ****                             SetPicture(1,DISPLAY_DESEA_IMPRIMIR_RECIBO);                           
 2163              		.loc 1 534 0
 2164 0472 0422     		movs	r2, #4
 2165 0474 314B     		ldr	r3, .L295+16
 2166 0476 83F80121 		strb	r2, [r3, #257]
 535:.\main.c      ****                         break;
 2167              		.loc 1 535 0
 2168 047a 0120     		movs	r0, #1
 2169 047c 0B21     		movs	r1, #11
 2170 047e FFF7FEFF 		bl	SetPicture
 2171              	.LVL189:
 536:.\main.c      ****                             
 2172              		.loc 1 536 0
 2173 0482 0EE0     		b	.L135
 2174              	.L141:
 539:.\main.c      ****                             SetPicture(1,DISPLAY_INICIO0);                                         
 2175              		.loc 1 539 0
 2176 0484 0022     		movs	r2, #0
 2177 0486 2B4B     		ldr	r3, .L295+8
ARM GAS  C:\Users\RECEPC~1\AppData\Local\Temp\cc6Stwwd.s 			page 82


 2178 0488 1A60     		str	r2, [r3]
 540:.\main.c      ****                         break;
 2179              		.loc 1 540 0
 2180 048a 0120     		movs	r0, #1
 2181 048c 0146     		mov	r1, r0
 2182 048e FFF7FEFF 		bl	SetPicture
 2183              	.LVL190:
 541:.\main.c      ****                             
 2184              		.loc 1 541 0
 2185 0492 06E0     		b	.L135
 2186              	.L136:
 544:.\main.c      ****                             flowDisplay1 = 0;
 2187              		.loc 1 544 0
 2188 0494 0120     		movs	r0, #1
 2189 0496 0146     		mov	r1, r0
 2190 0498 FFF7FEFF 		bl	SetPicture
 2191              	.LVL191:
 545:.\main.c      ****                         break;
 2192              		.loc 1 545 0
 2193 049c 0022     		movs	r2, #0
 2194 049e 254B     		ldr	r3, .L295+8
 2195 04a0 1A60     		str	r2, [r3]
 2196              	.L135:
 549:.\main.c      ****                 Display1_ClearRxBuffer();
 2197              		.loc 1 549 0
 2198 04a2 0A20     		movs	r0, #10
 2199 04a4 FFF7FEFF 		bl	CyDelay
 2200              	.LVL192:
 550:.\main.c      ****             }
 2201              		.loc 1 550 0
 2202 04a8 FFF7FEFF 		bl	Display1_ClearRxBuffer
 2203              	.LVL193:
 2204 04ac 00F0A9BF 		b	.L85
 2205              	.L94:
 555:.\main.c      ****             Timer_Animacion_Start();
 2206              		.loc 1 555 0
 2207 04b0 2348     		ldr	r0, .L295+20
 2208 04b2 FFF7FEFF 		bl	isr_3_StartEx
 2209              	.LVL194:
 556:.\main.c      ****             if(Display1_GetRxBufferSize()==8){
 2210              		.loc 1 556 0
 2211 04b6 FFF7FEFF 		bl	Timer_Animacion_Start
 2212              	.LVL195:
 557:.\main.c      ****                 if((Display1_rxBuffer[0]==0xAA) && (Display1_rxBuffer[6]==0xC3) && (Display1_rxBuff
 2213              		.loc 1 557 0
 2214 04ba FFF7FEFF 		bl	Display1_GetRxBufferSize
 2215              	.LVL196:
 2216 04be 0828     		cmp	r0, #8
 2217 04c0 5BD1     		bne	.L143
 558:.\main.c      ****                     switch(Display1_rxBuffer[3]){
 2218              		.loc 1 558 0
 2219 04c2 1D4B     		ldr	r3, .L295+12
 2220 04c4 1B78     		ldrb	r3, [r3]	@ zero_extendqisi2
 2221 04c6 DBB2     		uxtb	r3, r3
 2222 04c8 AA2B     		cmp	r3, #170
 2223 04ca 51D1     		bne	.L144
 558:.\main.c      ****                     switch(Display1_rxBuffer[3]){
ARM GAS  C:\Users\RECEPC~1\AppData\Local\Temp\cc6Stwwd.s 			page 83


 2224              		.loc 1 558 0 is_stmt 0 discriminator 1
 2225 04cc 1A4B     		ldr	r3, .L295+12
 2226 04ce 9B79     		ldrb	r3, [r3, #6]	@ zero_extendqisi2
 2227 04d0 DBB2     		uxtb	r3, r3
 2228 04d2 C32B     		cmp	r3, #195
 2229 04d4 4CD1     		bne	.L144
 558:.\main.c      ****                     switch(Display1_rxBuffer[3]){
 2230              		.loc 1 558 0 discriminator 2
 2231 04d6 184B     		ldr	r3, .L295+12
 2232 04d8 DB79     		ldrb	r3, [r3, #7]	@ zero_extendqisi2
 2233 04da DBB2     		uxtb	r3, r3
 2234 04dc 3C2B     		cmp	r3, #60
 2235 04de 47D1     		bne	.L144
 559:.\main.c      ****                         case 0x39:  //Si imprimir  
 2236              		.loc 1 559 0 is_stmt 1
 2237 04e0 154B     		ldr	r3, .L295+12
 2238 04e2 DB78     		ldrb	r3, [r3, #3]	@ zero_extendqisi2
 2239 04e4 DBB2     		uxtb	r3, r3
 2240 04e6 392B     		cmp	r3, #57
 2241 04e8 04D0     		beq	.L145
 2242 04ea 7E2B     		cmp	r3, #126
 2243 04ec 39D0     		beq	.L146
 2244 04ee 382B     		cmp	r3, #56
 2245 04f0 3ED1     		bne	.L144
 2246 04f2 0FE0     		b	.L147
 2247              	.L145:
 561:.\main.c      ****                             numberKeys1 = 0;
 2248              		.loc 1 561 0
 2249 04f4 0922     		movs	r2, #9
 2250 04f6 0F4B     		ldr	r3, .L295+8
 2251 04f8 1A60     		str	r2, [r3]
 562:.\main.c      ****                             bufferDisplay1.flagKeyboard = 1;
 2252              		.loc 1 562 0
 2253 04fa 0022     		movs	r2, #0
 2254 04fc 114B     		ldr	r3, .L295+24
 2255 04fe 1A70     		strb	r2, [r3]
 563:.\main.c      ****                             bufferDisplay1.flagPrint =  1;
 2256              		.loc 1 563 0
 2257 0500 0A4B     		ldr	r3, .L295
 2258 0502 0120     		movs	r0, #1
 2259 0504 83F80001 		strb	r0, [r3, #256]
 564:.\main.c      ****                             SetPicture(1,DISPLAY_DIGITE_PLACA);                            
 2260              		.loc 1 564 0
 2261 0508 83F83401 		strb	r0, [r3, #308]
 565:.\main.c      ****                         break; 
 2262              		.loc 1 565 0
 2263 050c 0A21     		movs	r1, #10
 2264 050e FFF7FEFF 		bl	SetPicture
 2265              	.LVL197:
 566:.\main.c      ****                         case 0x38:  //No imprimir 
 2266              		.loc 1 566 0
 2267 0512 2DE0     		b	.L144
 2268              	.L147:
 568:.\main.c      ****                                 flowDisplay1 = 0;
 2269              		.loc 1 568 0
 2270 0514 054B     		ldr	r3, .L295
 2271 0516 93F80331 		ldrb	r3, [r3, #259]	@ zero_extendqisi2
ARM GAS  C:\Users\RECEPC~1\AppData\Local\Temp\cc6Stwwd.s 			page 84


 2272 051a ABB1     		cbz	r3, .L148
 569:.\main.c      ****                                 SetPicture(1,DISPLAY_INICIO0);
 2273              		.loc 1 569 0
 2274 051c 0022     		movs	r2, #0
 2275 051e 054B     		ldr	r3, .L295+8
 2276 0520 1A60     		str	r2, [r3]
 570:.\main.c      ****                             }else{
 2277              		.loc 1 570 0
 2278 0522 0120     		movs	r0, #1
 2279 0524 0146     		mov	r1, r0
 2280 0526 FFF7FEFF 		bl	SetPicture
 2281              	.LVL198:
 2282 052a 21E0     		b	.L144
 2283              	.L296:
 2284              		.align	2
 2285              	.L295:
 2286 052c 00000000 		.word	bufferDisplay1
 2287 0530 00000000 		.word	digits
 2288 0534 00000000 		.word	flowDisplay1
 2289 0538 00000000 		.word	Display1_rxBuffer
 2290 053c 00000000 		.word	side
 2291 0540 00000000 		.word	animacion
 2292 0544 00000000 		.word	numberKeys1
 2293              	.L148:
 572:.\main.c      ****                                 bufferDisplay1.flagPrint =  0;
 2294              		.loc 1 572 0
 2295 0548 0721     		movs	r1, #7
 2296 054a B34B     		ldr	r3, .L297
 2297 054c 1960     		str	r1, [r3]
 573:.\main.c      ****                                 count_protector=0;
 2298              		.loc 1 573 0
 2299 054e 0023     		movs	r3, #0
 2300 0550 B24A     		ldr	r2, .L297+4
 2301 0552 82F83431 		strb	r3, [r2, #308]
 574:.\main.c      ****                                 SetPicture(1,DISPLAY_SUBA_MANIJA);
 2302              		.loc 1 574 0
 2303 0556 B24A     		ldr	r2, .L297+8
 2304 0558 1370     		strb	r3, [r2]
 575:.\main.c      ****                             }
 2305              		.loc 1 575 0
 2306 055a 0120     		movs	r0, #1
 2307 055c FFF7FEFF 		bl	SetPicture
 2308              	.LVL199:
 2309 0560 06E0     		b	.L144
 2310              	.L146:
 579:.\main.c      ****                             SetPicture(1,DISPLAY_INICIO0);
 2311              		.loc 1 579 0
 2312 0562 0022     		movs	r2, #0
 2313 0564 AC4B     		ldr	r3, .L297
 2314 0566 1A60     		str	r2, [r3]
 580:.\main.c      ****                         break;
 2315              		.loc 1 580 0
 2316 0568 0120     		movs	r0, #1
 2317 056a 0146     		mov	r1, r0
 2318 056c FFF7FEFF 		bl	SetPicture
 2319              	.LVL200:
 2320              	.L144:
ARM GAS  C:\Users\RECEPC~1\AppData\Local\Temp\cc6Stwwd.s 			page 85


 584:.\main.c      ****                 Display1_ClearRxBuffer();
 2321              		.loc 1 584 0
 2322 0570 0A20     		movs	r0, #10
 2323 0572 FFF7FEFF 		bl	CyDelay
 2324              	.LVL201:
 585:.\main.c      ****             }
 2325              		.loc 1 585 0
 2326 0576 FFF7FEFF 		bl	Display1_ClearRxBuffer
 2327              	.LVL202:
 2328              	.L143:
 587:.\main.c      ****                 flowDisplay1 = 0;	
 2329              		.loc 1 587 0
 2330 057a A94B     		ldr	r3, .L297+8
 2331 057c 1B78     		ldrb	r3, [r3]	@ zero_extendqisi2
 2332 057e 1D2B     		cmp	r3, #29
 2333 0580 40F23F87 		bls	.L85
 588:.\main.c      ****     			count_protector=0;
 2334              		.loc 1 588 0
 2335 0584 0023     		movs	r3, #0
 2336 0586 A44A     		ldr	r2, .L297
 2337 0588 1360     		str	r3, [r2]
 589:.\main.c      ****                 SetPicture(1,DISPLAY_INICIO0);
 2338              		.loc 1 589 0
 2339 058a A54A     		ldr	r2, .L297+8
 2340 058c 1370     		strb	r3, [r2]
 590:.\main.c      ****     		}
 2341              		.loc 1 590 0
 2342 058e 0120     		movs	r0, #1
 2343 0590 0146     		mov	r1, r0
 2344 0592 FFF7FEFF 		bl	SetPicture
 2345              	.LVL203:
 2346 0596 00F034BF 		b	.L85
 2347              	.L95:
 598:.\main.c      ****             if (side.a.activeHose == side.a.hose){                
 2348              		.loc 1 598 0
 2349 059a A24C     		ldr	r4, .L297+12
 2350 059c 2078     		ldrb	r0, [r4]	@ zero_extendqisi2
 2351 059e FFF7FEFF 		bl	PumpHoseActiveState
 2352              	.LVL204:
 2353 05a2 0146     		mov	r1, r0
 2354 05a4 84F80001 		strb	r0, [r4, #256]
 599:.\main.c      ****                 if(PresetData(side.a.dir,side.a.activeHose,bufferDisplay1.presetValue[0],bufferDisp
 2355              		.loc 1 599 0
 2356 05a8 94F80131 		ldrb	r3, [r4, #257]	@ zero_extendqisi2
 2357 05ac 9842     		cmp	r0, r3
 2358 05ae 3BD1     		bne	.L149
 600:.\main.c      ****                     isr_3_Stop(); 
 2359              		.loc 1 600 0
 2360 05b0 9A4A     		ldr	r2, .L297+4
 2361 05b2 92F86330 		ldrb	r3, [r2, #99]	@ zero_extendqisi2
 2362 05b6 2078     		ldrb	r0, [r4]	@ zero_extendqisi2
 2363 05b8 6532     		adds	r2, r2, #101
 2364 05ba 03F00303 		and	r3, r3, #3
 2365 05be FFF7FEFF 		bl	PresetData
 2366              	.LVL205:
 2367 05c2 0128     		cmp	r0, #1
 2368 05c4 22D1     		bne	.L150
ARM GAS  C:\Users\RECEPC~1\AppData\Local\Temp\cc6Stwwd.s 			page 86


 601:.\main.c      ****                     Timer_Animacion_Stop();
 2369              		.loc 1 601 0
 2370 05c6 FFF7FEFF 		bl	isr_3_Stop
 2371              	.LVL206:
 602:.\main.c      ****                     get_state(side.a.dir);
 2372              		.loc 1 602 0
 2373 05ca FFF7FEFF 		bl	Timer_Animacion_Stop
 2374              	.LVL207:
 603:.\main.c      ****                     //CyDelay(20);
 2375              		.loc 1 603 0
 2376 05ce 2546     		mov	r5, r4
 2377 05d0 2078     		ldrb	r0, [r4]	@ zero_extendqisi2
 2378 05d2 FFF7FEFF 		bl	get_state
 2379              	.LVL208:
 605:.\main.c      ****                     //CyDelay(50);
 2380              		.loc 1 605 0
 2381 05d6 2078     		ldrb	r0, [r4]	@ zero_extendqisi2
 2382 05d8 40F01000 		orr	r0, r0, #16
 2383 05dc FFF7FEFF 		bl	Pump_PutChar
 2384              	.LVL209:
 607:.\main.c      ****                     flowDisplay1 = 8;                    
 2385              		.loc 1 607 0
 2386 05e0 0124     		movs	r4, #1
 2387 05e2 85F80741 		strb	r4, [r5, #263]
 608:.\main.c      ****                     count_protector = 0;                    
 2388              		.loc 1 608 0
 2389 05e6 0821     		movs	r1, #8
 2390 05e8 8B4B     		ldr	r3, .L297
 2391 05ea 1960     		str	r1, [r3]
 609:.\main.c      ****                     bufferDisplay1.flagActiveSale = true;
 2392              		.loc 1 609 0
 2393 05ec 0022     		movs	r2, #0
 2394 05ee 8C4B     		ldr	r3, .L297+8
 2395 05f0 1A70     		strb	r2, [r3]
 610:.\main.c      ****                     SetPicture(1,DISPLAY_DESPACHANDO);   
 2396              		.loc 1 610 0
 2397 05f2 8A4D     		ldr	r5, .L297+4
 2398 05f4 85F83541 		strb	r4, [r5, #309]
 611:.\main.c      ****                     ShowMessage(1,(bufferDisplay1.presetValue[1]),18);
 2399              		.loc 1 611 0
 2400 05f8 2046     		mov	r0, r4
 2401 05fa FFF7FEFF 		bl	SetPicture
 2402              	.LVL210:
 612:.\main.c      ****                 }else{
 2403              		.loc 1 612 0
 2404 05fe 2046     		mov	r0, r4
 2405 0600 05F16F01 		add	r1, r5, #111
 2406 0604 1222     		movs	r2, #18
 2407 0606 FFF7FEFF 		bl	ShowMessage
 2408              	.LVL211:
 2409 060a 10E0     		b	.L151
 2410              	.L150:
 614:.\main.c      ****                     SetPicture(1,DISPLAY_ERROR);
 2411              		.loc 1 614 0
 2412 060c 0021     		movs	r1, #0
 2413 060e 824B     		ldr	r3, .L297
 2414 0610 1960     		str	r1, [r3]
ARM GAS  C:\Users\RECEPC~1\AppData\Local\Temp\cc6Stwwd.s 			page 87


 615:.\main.c      ****                     CyDelay(200);
 2415              		.loc 1 615 0
 2416 0612 0120     		movs	r0, #1
 2417 0614 FFF7FEFF 		bl	SetPicture
 2418              	.LVL212:
 616:.\main.c      ****                     SetPicture(1,DISPLAY_INICIO0);
 2419              		.loc 1 616 0
 2420 0618 C820     		movs	r0, #200
 2421 061a FFF7FEFF 		bl	CyDelay
 2422              	.LVL213:
 617:.\main.c      ****                 }
 2423              		.loc 1 617 0
 2424 061e 0120     		movs	r0, #1
 2425 0620 0146     		mov	r1, r0
 2426 0622 FFF7FEFF 		bl	SetPicture
 2427              	.LVL214:
 2428 0626 02E0     		b	.L151
 2429              	.L149:
 620:.\main.c      **** //                if(count_protector>=60){
 2430              		.loc 1 620 0
 2431 0628 0722     		movs	r2, #7
 2432 062a 7B4B     		ldr	r3, .L297
 2433 062c 1A60     		str	r2, [r3]
 2434              	.L151:
 627:.\main.c      ****                 if((Display1_rxBuffer[0]==0xAA) && (Display1_rxBuffer[6]==0xC3) && (Display1_rxBuff
 2435              		.loc 1 627 0
 2436 062e FFF7FEFF 		bl	Display1_GetRxBufferSize
 2437              	.LVL215:
 2438 0632 0828     		cmp	r0, #8
 2439 0634 1DD1     		bne	.L152
 628:.\main.c      ****                     switch(Display1_rxBuffer[3]){                        
 2440              		.loc 1 628 0
 2441 0636 7C4B     		ldr	r3, .L297+16
 2442 0638 1B78     		ldrb	r3, [r3]	@ zero_extendqisi2
 2443 063a DBB2     		uxtb	r3, r3
 2444 063c AA2B     		cmp	r3, #170
 2445 063e 15D1     		bne	.L153
 628:.\main.c      ****                     switch(Display1_rxBuffer[3]){                        
 2446              		.loc 1 628 0 is_stmt 0 discriminator 1
 2447 0640 794B     		ldr	r3, .L297+16
 2448 0642 9B79     		ldrb	r3, [r3, #6]	@ zero_extendqisi2
 2449 0644 DBB2     		uxtb	r3, r3
 2450 0646 C32B     		cmp	r3, #195
 2451 0648 10D1     		bne	.L153
 628:.\main.c      ****                     switch(Display1_rxBuffer[3]){                        
 2452              		.loc 1 628 0 discriminator 2
 2453 064a 774B     		ldr	r3, .L297+16
 2454 064c DB79     		ldrb	r3, [r3, #7]	@ zero_extendqisi2
 2455 064e DBB2     		uxtb	r3, r3
 2456 0650 3C2B     		cmp	r3, #60
 2457 0652 0BD1     		bne	.L153
 629:.\main.c      ****                         case 0x7E:  //Pantalla Inicial                                             
 2458              		.loc 1 629 0 is_stmt 1
 2459 0654 744B     		ldr	r3, .L297+16
 2460 0656 DB78     		ldrb	r3, [r3, #3]	@ zero_extendqisi2
 2461 0658 DBB2     		uxtb	r3, r3
 2462 065a 7E2B     		cmp	r3, #126
ARM GAS  C:\Users\RECEPC~1\AppData\Local\Temp\cc6Stwwd.s 			page 88


 2463 065c 06D1     		bne	.L153
 631:.\main.c      ****                             flowDisplay1 = 0;
 2464              		.loc 1 631 0
 2465 065e 0120     		movs	r0, #1
 2466 0660 0146     		mov	r1, r0
 2467 0662 FFF7FEFF 		bl	SetPicture
 2468              	.LVL216:
 632:.\main.c      ****                         break;
 2469              		.loc 1 632 0
 2470 0666 0022     		movs	r2, #0
 2471 0668 6B4B     		ldr	r3, .L297
 2472 066a 1A60     		str	r2, [r3]
 2473              	.L153:
 636:.\main.c      ****             }
 2474              		.loc 1 636 0
 2475 066c 0A20     		movs	r0, #10
 2476 066e FFF7FEFF 		bl	CyDelay
 2477              	.LVL217:
 2478              	.L152:
 638:.\main.c      ****         break;
 2479              		.loc 1 638 0
 2480 0672 FFF7FEFF 		bl	Display1_ClearRxBuffer
 2481              	.LVL218:
 639:.\main.c      ****             
 2482              		.loc 1 639 0
 2483 0676 00F0C4BE 		b	.L85
 2484              	.L96:
 642:.\main.c      ****             switch (side.a.pumpState){
 2485              		.loc 1 642 0
 2486 067a 6A4C     		ldr	r4, .L297+12
 2487 067c 2078     		ldrb	r0, [r4]	@ zero_extendqisi2
 2488 067e FFF7FEFF 		bl	get_state
 2489              	.LVL219:
 2490 0682 84F80401 		strb	r0, [r4, #260]
 643:.\main.c      ****                 case PUMP_IDLE://Espera - venta cero
 2491              		.loc 1 643 0
 2492 0686 0638     		subs	r0, r0, #6
 2493 0688 0528     		cmp	r0, #5
 2494 068a 00F2BA86 		bhi	.L85
 2495 068e DFE810F0 		tbh	[pc, r0, lsl #1]
 2496              	.L156:
 2497 0692 0600     		.2byte	(.L155-.L156)/2
 2498 0694 B806     		.2byte	(.L85-.L156)/2
 2499 0696 B806     		.2byte	(.L85-.L156)/2
 2500 0698 1600     		.2byte	(.L157-.L156)/2
 2501 069a 1F00     		.2byte	(.L158-.L156)/2
 2502 069c 4A00     		.2byte	(.L159-.L156)/2
 2503              		.p2align 1
 2504              	.L155:
 645:.\main.c      ****                     side.a.rfState = RF_ZERO_SALE;
 2505              		.loc 1 645 0
 2506 069e 0023     		movs	r3, #0
 2507 06a0 5D4A     		ldr	r2, .L297
 2508 06a2 1360     		str	r3, [r2]
 646:.\main.c      ****                     bufferDisplay1.flagActiveSale = false;
 2509              		.loc 1 646 0
 2510 06a4 0C21     		movs	r1, #12
ARM GAS  C:\Users\RECEPC~1\AppData\Local\Temp\cc6Stwwd.s 			page 89


 2511 06a6 5F4A     		ldr	r2, .L297+12
 2512 06a8 82F80311 		strb	r1, [r2, #259]
 647:.\main.c      ****                     SetPicture(1,DISPLAY_INICIO0);
 2513              		.loc 1 647 0
 2514 06ac 5B4A     		ldr	r2, .L297+4
 2515 06ae 82F83531 		strb	r3, [r2, #309]
 648:.\main.c      ****                 break;
 2516              		.loc 1 648 0
 2517 06b2 0120     		movs	r0, #1
 2518 06b4 0146     		mov	r1, r0
 2519 06b6 FFF7FEFF 		bl	SetPicture
 2520              	.LVL220:
 649:.\main.c      ****                 case PUMP_BUSY://Surtiendo                    
 2521              		.loc 1 649 0
 2522 06ba 00F0A2BE 		b	.L85
 2523              	.L157:
 651:.\main.c      ****                     bufferDisplay1.flagEndSale = false;
 2524              		.loc 1 651 0
 2525 06be 574B     		ldr	r3, .L297+4
 2526 06c0 0122     		movs	r2, #1
 2527 06c2 83F83521 		strb	r2, [r3, #309]
 652:.\main.c      ****                     //side.a.rfState = RF_DELIVERING;
 2528              		.loc 1 652 0
 2529 06c6 0022     		movs	r2, #0
 2530 06c8 83F80321 		strb	r2, [r3, #259]
 654:.\main.c      ****                 case PUMP_PEOT: //reporte fin venta                    
 2531              		.loc 1 654 0
 2532 06cc 00F099BE 		b	.L85
 2533              	.L158:
 656:.\main.c      ****                         if(bufferDisplay1.flagPrint ==1){                             
 2534              		.loc 1 656 0
 2535 06d0 544B     		ldr	r3, .L297+12
 2536 06d2 1878     		ldrb	r0, [r3]	@ zero_extendqisi2
 2537 06d4 FFF7FEFF 		bl	getSale
 2538              	.LVL221:
 2539 06d8 0028     		cmp	r0, #0
 2540 06da 00F09286 		beq	.L85
 657:.\main.c      ****                             bufferDisplay1.flagEndSale = true;
 2541              		.loc 1 657 0
 2542 06de 4F4B     		ldr	r3, .L297+4
 2543 06e0 93F83431 		ldrb	r3, [r3, #308]	@ zero_extendqisi2
 2544 06e4 012B     		cmp	r3, #1
 2545 06e6 0AD1     		bne	.L160
 658:.\main.c      ****                             flowDisplay1 = 0;                            
 2546              		.loc 1 658 0
 2547 06e8 0121     		movs	r1, #1
 2548 06ea 4C4B     		ldr	r3, .L297+4
 2549 06ec 83F80311 		strb	r1, [r3, #259]
 659:.\main.c      ****                             SetPicture(1,DISPLAY_INICIO0); 
 2550              		.loc 1 659 0
 2551 06f0 0022     		movs	r2, #0
 2552 06f2 494B     		ldr	r3, .L297
 2553 06f4 1A60     		str	r2, [r3]
 660:.\main.c      ****                         }else{
 2554              		.loc 1 660 0
 2555 06f6 0846     		mov	r0, r1
 2556 06f8 FFF7FEFF 		bl	SetPicture
ARM GAS  C:\Users\RECEPC~1\AppData\Local\Temp\cc6Stwwd.s 			page 90


 2557              	.LVL222:
 2558 06fc 09E0     		b	.L161
 2559              	.L160:
 662:.\main.c      ****                             bufferDisplay1.flagEndSale = true;
 2560              		.loc 1 662 0
 2561 06fe 0622     		movs	r2, #6
 2562 0700 454B     		ldr	r3, .L297
 2563 0702 1A60     		str	r2, [r3]
 663:.\main.c      ****                             SetPicture(1,DISPLAY_DESEA_IMPRIMIR_RECIBO); 
 2564              		.loc 1 663 0
 2565 0704 0120     		movs	r0, #1
 2566 0706 454B     		ldr	r3, .L297+4
 2567 0708 83F80301 		strb	r0, [r3, #259]
 664:.\main.c      ****                         }                        
 2568              		.loc 1 664 0
 2569 070c 0B21     		movs	r1, #11
 2570 070e FFF7FEFF 		bl	SetPicture
 2571              	.LVL223:
 2572              	.L161:
 666:.\main.c      ****                         side.a.RFstateReport = 1;
 2573              		.loc 1 666 0
 2574 0712 0022     		movs	r2, #0
 2575 0714 414B     		ldr	r3, .L297+4
 2576 0716 83F83521 		strb	r2, [r3, #309]
 667:.\main.c      ****                     }                                         
 2577              		.loc 1 667 0
 2578 071a 0122     		movs	r2, #1
 2579 071c 414B     		ldr	r3, .L297+12
 2580 071e 83F80721 		strb	r2, [r3, #263]
 2581 0722 00F06EBE 		b	.L85
 2582              	.L159:
 671:.\main.c      ****                         if(bufferDisplay1.flagPrint ==1){   
 2583              		.loc 1 671 0
 2584 0726 3F4B     		ldr	r3, .L297+12
 2585 0728 1878     		ldrb	r0, [r3]	@ zero_extendqisi2
 2586 072a FFF7FEFF 		bl	getSale
 2587              	.LVL224:
 2588 072e 0028     		cmp	r0, #0
 2589 0730 00F06786 		beq	.L85
 672:.\main.c      ****                             bufferDisplay1.flagEndSale = true;
 2590              		.loc 1 672 0
 2591 0734 394B     		ldr	r3, .L297+4
 2592 0736 93F83431 		ldrb	r3, [r3, #308]	@ zero_extendqisi2
 2593 073a 012B     		cmp	r3, #1
 2594 073c 0AD1     		bne	.L162
 673:.\main.c      ****                             flowDisplay1 = 0;
 2595              		.loc 1 673 0
 2596 073e 0121     		movs	r1, #1
 2597 0740 364B     		ldr	r3, .L297+4
 2598 0742 83F80311 		strb	r1, [r3, #259]
 674:.\main.c      ****                             SetPicture(1,DISPLAY_INICIO0); 
 2599              		.loc 1 674 0
 2600 0746 0022     		movs	r2, #0
 2601 0748 334B     		ldr	r3, .L297
 2602 074a 1A60     		str	r2, [r3]
 675:.\main.c      ****                         }else{
 2603              		.loc 1 675 0
ARM GAS  C:\Users\RECEPC~1\AppData\Local\Temp\cc6Stwwd.s 			page 91


 2604 074c 0846     		mov	r0, r1
 2605 074e FFF7FEFF 		bl	SetPicture
 2606              	.LVL225:
 2607 0752 09E0     		b	.L163
 2608              	.L162:
 677:.\main.c      ****                             bufferDisplay1.flagEndSale = true;
 2609              		.loc 1 677 0
 2610 0754 0622     		movs	r2, #6
 2611 0756 304B     		ldr	r3, .L297
 2612 0758 1A60     		str	r2, [r3]
 678:.\main.c      ****                             SetPicture(1,DISPLAY_DESEA_IMPRIMIR_RECIBO); 
 2613              		.loc 1 678 0
 2614 075a 0120     		movs	r0, #1
 2615 075c 2F4B     		ldr	r3, .L297+4
 2616 075e 83F80301 		strb	r0, [r3, #259]
 679:.\main.c      ****                         }
 2617              		.loc 1 679 0
 2618 0762 0B21     		movs	r1, #11
 2619 0764 FFF7FEFF 		bl	SetPicture
 2620              	.LVL226:
 2621              	.L163:
 681:.\main.c      ****                         side.a.RFstateReport = 1;
 2622              		.loc 1 681 0
 2623 0768 0022     		movs	r2, #0
 2624 076a 2C4B     		ldr	r3, .L297+4
 2625 076c 83F83521 		strb	r2, [r3, #309]
 682:.\main.c      ****                     }
 2626              		.loc 1 682 0
 2627 0770 0122     		movs	r2, #1
 2628 0772 2C4B     		ldr	r3, .L297+12
 2629 0774 83F80721 		strb	r2, [r3, #263]
 2630 0778 00F043BE 		b	.L85
 2631              	.L97:
 691:.\main.c      ****                 case 0: //Cancelar
 2632              		.loc 1 691 0
 2633 077c 0120     		movs	r0, #1
 2634 077e 0A21     		movs	r1, #10
 2635 0780 0022     		movs	r2, #0
 2636 0782 FFF7FEFF 		bl	alphanumeric_keyboard
 2637              	.LVL227:
 2638 0786 18B1     		cbz	r0, .L164
 2639 0788 0128     		cmp	r0, #1
 2640 078a 4FD0     		beq	.L165
 2641 078c 00F039BE 		b	.L85
 2642              	.L164:
 693:.\main.c      ****                         case 1://Placa
 2643              		.loc 1 693 0
 2644 0790 224B     		ldr	r3, .L297+4
 2645 0792 93F80031 		ldrb	r3, [r3, #256]	@ zero_extendqisi2
 2646 0796 013B     		subs	r3, r3, #1
 2647 0798 032B     		cmp	r3, #3
 2648 079a 39D8     		bhi	.L166
 2649 079c DFE803F0 		tbb	[pc, r3]
 2650              	.L168:
 2651 07a0 0A       		.byte	(.L274-.L168)/2
 2652 07a1 1D       		.byte	(.L275-.L168)/2
 2653 07a2 29       		.byte	(.L276-.L168)/2
ARM GAS  C:\Users\RECEPC~1\AppData\Local\Temp\cc6Stwwd.s 			page 92


 2654 07a3 35       		.byte	(.L277-.L168)/2
 2655              	.LVL228:
 2656              		.p2align 1
 2657              	.L172:
 696:.\main.c      ****                             }
 2658              		.loc 1 696 0 discriminator 3
 2659 07a4 1D4A     		ldr	r2, .L297+4
 2660 07a6 1A44     		add	r2, r2, r3
 2661 07a8 0021     		movs	r1, #0
 2662 07aa 82F8DF10 		strb	r1, [r2, #223]
 695:.\main.c      ****                                 bufferDisplay1.licenceSale[x]=0;
 2663              		.loc 1 695 0 discriminator 3
 2664 07ae 0133     		adds	r3, r3, #1
 2665              	.LVL229:
 2666 07b0 DBB2     		uxtb	r3, r3
 2667              	.LVL230:
 2668 07b2 00E0     		b	.L167
 2669              	.LVL231:
 2670              	.L274:
 693:.\main.c      ****                         case 1://Placa
 2671              		.loc 1 693 0
 2672 07b4 0023     		movs	r3, #0
 2673              	.L167:
 2674              	.LVL232:
 695:.\main.c      ****                                 bufferDisplay1.licenceSale[x]=0;
 2675              		.loc 1 695 0 discriminator 1
 2676 07b6 0A2B     		cmp	r3, #10
 2677 07b8 F4D9     		bls	.L172
 698:.\main.c      ****                             SetPicture(1,DISPLAY_INICIO0);
 2678              		.loc 1 698 0
 2679 07ba 0022     		movs	r2, #0
 2680 07bc 164B     		ldr	r3, .L297
 2681              	.LVL233:
 2682 07be 1A60     		str	r2, [r3]
 699:.\main.c      ****                         break;
 2683              		.loc 1 699 0
 2684 07c0 0120     		movs	r0, #1
 2685 07c2 0146     		mov	r1, r0
 2686 07c4 FFF7FEFF 		bl	SetPicture
 2687              	.LVL234:
 700:.\main.c      ****                         
 2688              		.loc 1 700 0
 2689 07c8 22E0     		b	.L166
 2690              	.LVL235:
 2691              	.L173:
 704:.\main.c      ****                             }
 2692              		.loc 1 704 0 discriminator 3
 2693 07ca 144A     		ldr	r2, .L297+4
 2694 07cc 1A44     		add	r2, r2, r3
 2695 07ce 0021     		movs	r1, #0
 2696 07d0 82F8EA10 		strb	r1, [r2, #234]
 703:.\main.c      ****                                 bufferDisplay1.mileageSale[x]=0;
 2697              		.loc 1 703 0 discriminator 3
 2698 07d4 0133     		adds	r3, r3, #1
 2699              	.LVL236:
 2700 07d6 DBB2     		uxtb	r3, r3
 2701              	.LVL237:
ARM GAS  C:\Users\RECEPC~1\AppData\Local\Temp\cc6Stwwd.s 			page 93


 2702 07d8 00E0     		b	.L169
 2703              	.LVL238:
 2704              	.L275:
 693:.\main.c      ****                         case 1://Placa
 2705              		.loc 1 693 0
 2706 07da 0023     		movs	r3, #0
 2707              	.L169:
 2708              	.LVL239:
 703:.\main.c      ****                                 bufferDisplay1.mileageSale[x]=0;
 2709              		.loc 1 703 0 discriminator 1
 2710 07dc 0A2B     		cmp	r3, #10
 2711 07de F4D9     		bls	.L173
 2712 07e0 16E0     		b	.L166
 2713              	.L174:
 710:.\main.c      ****                             }
 2714              		.loc 1 710 0 discriminator 3
 2715 07e2 0E4A     		ldr	r2, .L297+4
 2716 07e4 1A44     		add	r2, r2, r3
 2717 07e6 0021     		movs	r1, #0
 2718 07e8 82F8F510 		strb	r1, [r2, #245]
 709:.\main.c      ****                                 bufferDisplay1.identySale[x]=0;
 2719              		.loc 1 709 0 discriminator 3
 2720 07ec 0133     		adds	r3, r3, #1
 2721              	.LVL240:
 2722 07ee DBB2     		uxtb	r3, r3
 2723              	.LVL241:
 2724 07f0 00E0     		b	.L170
 2725              	.LVL242:
 2726              	.L276:
 693:.\main.c      ****                         case 1://Placa
 2727              		.loc 1 693 0
 2728 07f2 0023     		movs	r3, #0
 2729              	.L170:
 2730              	.LVL243:
 709:.\main.c      ****                                 bufferDisplay1.identySale[x]=0;
 2731              		.loc 1 709 0 discriminator 1
 2732 07f4 0A2B     		cmp	r3, #10
 2733 07f6 F4D9     		bls	.L174
 2734 07f8 0AE0     		b	.L166
 2735              	.L175:
 715:.\main.c      ****                             }
 2736              		.loc 1 715 0 discriminator 3
 2737 07fa 084A     		ldr	r2, .L297+4
 2738 07fc 1A44     		add	r2, r2, r3
 2739 07fe 0021     		movs	r1, #0
 2740 0800 82F83611 		strb	r1, [r2, #310]
 714:.\main.c      ****                                 bufferDisplay1.shiftId[x]=0;
 2741              		.loc 1 714 0 discriminator 3
 2742 0804 0133     		adds	r3, r3, #1
 2743              	.LVL244:
 2744 0806 DBB2     		uxtb	r3, r3
 2745              	.LVL245:
 2746 0808 00E0     		b	.L171
 2747              	.LVL246:
 2748              	.L277:
 693:.\main.c      ****                         case 1://Placa
 2749              		.loc 1 693 0
ARM GAS  C:\Users\RECEPC~1\AppData\Local\Temp\cc6Stwwd.s 			page 94


 2750 080a 0023     		movs	r3, #0
 2751              	.L171:
 2752              	.LVL247:
 714:.\main.c      ****                                 bufferDisplay1.shiftId[x]=0;
 2753              		.loc 1 714 0 discriminator 1
 2754 080c 0A2B     		cmp	r3, #10
 2755 080e F4D9     		bls	.L175
 2756              	.LVL248:
 2757              	.L166:
 719:.\main.c      ****                 break;
 2758              		.loc 1 719 0
 2759 0810 FFF7FEFF 		bl	Display1_ClearRxBuffer
 2760              	.LVL249:
 720:.\main.c      ****                     
 2761              		.loc 1 720 0
 2762 0814 00F0F5BD 		b	.L85
 2763              	.L298:
 2764              		.align	2
 2765              	.L297:
 2766 0818 00000000 		.word	flowDisplay1
 2767 081c 00000000 		.word	bufferDisplay1
 2768 0820 00000000 		.word	count_protector
 2769 0824 00000000 		.word	side
 2770 0828 00000000 		.word	Display1_rxBuffer
 2771              	.L165:
 723:.\main.c      ****                         case 1://Placa
 2772              		.loc 1 723 0
 2773 082c AA4B     		ldr	r3, .L299
 2774 082e 93F80031 		ldrb	r3, [r3, #256]	@ zero_extendqisi2
 2775 0832 013B     		subs	r3, r3, #1
 2776 0834 032B     		cmp	r3, #3
 2777 0836 70D8     		bhi	.L176
 2778 0838 DFE803F0 		tbb	[pc, r3]
 2779              	.L178:
 2780 083c 0B       		.byte	(.L278-.L178)/2
 2781 083d 33       		.byte	(.L279-.L178)/2
 2782 083e 49       		.byte	(.L280-.L178)/2
 2783 083f 4F       		.byte	(.L181-.L178)/2
 2784              	.LVL250:
 2785              		.p2align 1
 2786              	.L182:
 726:.\main.c      ****                             }
 2787              		.loc 1 726 0 discriminator 3
 2788 0840 A54A     		ldr	r2, .L299
 2789 0842 1A44     		add	r2, r2, r3
 2790 0844 92F84B10 		ldrb	r1, [r2, #75]	@ zero_extendqisi2
 2791 0848 82F8DF10 		strb	r1, [r2, #223]
 725:.\main.c      ****                                 bufferDisplay1.licenceSale[x]=bufferDisplay1.valueKeys[x];
 2792              		.loc 1 725 0 discriminator 3
 2793 084c 0133     		adds	r3, r3, #1
 2794              	.LVL251:
 2795 084e DBB2     		uxtb	r3, r3
 2796              	.LVL252:
 2797 0850 00E0     		b	.L177
 2798              	.LVL253:
 2799              	.L278:
 723:.\main.c      ****                         case 1://Placa
ARM GAS  C:\Users\RECEPC~1\AppData\Local\Temp\cc6Stwwd.s 			page 95


 2800              		.loc 1 723 0
 2801 0852 0023     		movs	r3, #0
 2802              	.L177:
 2803              	.LVL254:
 725:.\main.c      ****                                 bufferDisplay1.licenceSale[x]=bufferDisplay1.valueKeys[x];
 2804              		.loc 1 725 0 discriminator 1
 2805 0854 A04A     		ldr	r2, .L299
 2806 0856 92F84B20 		ldrb	r2, [r2, #75]	@ zero_extendqisi2
 2807 085a 9A42     		cmp	r2, r3
 2808 085c F0D2     		bcs	.L182
 728:.\main.c      ****                                 imprimir(printPortA,side.a.dir);
 2809              		.loc 1 728 0
 2810 085e 9E4B     		ldr	r3, .L299
 2811              	.LVL255:
 2812 0860 93F80331 		ldrb	r3, [r3, #259]	@ zero_extendqisi2
 2813 0864 6BB1     		cbz	r3, .L183
 729:.\main.c      ****                                 flowDisplay1 = 0;
 2814              		.loc 1 729 0
 2815 0866 9D4B     		ldr	r3, .L299+4
 2816 0868 1878     		ldrb	r0, [r3]	@ zero_extendqisi2
 2817 086a 9D4B     		ldr	r3, .L299+8
 2818 086c 1978     		ldrb	r1, [r3]	@ zero_extendqisi2
 2819 086e FFF7FEFF 		bl	imprimir
 2820              	.LVL256:
 730:.\main.c      ****                                 SetPicture(1,DISPLAY_INICIO0); 
 2821              		.loc 1 730 0
 2822 0872 0022     		movs	r2, #0
 2823 0874 9B4B     		ldr	r3, .L299+12
 2824 0876 1A60     		str	r2, [r3]
 731:.\main.c      ****                             }else{
 2825              		.loc 1 731 0
 2826 0878 0120     		movs	r0, #1
 2827 087a 0146     		mov	r1, r0
 2828 087c FFF7FEFF 		bl	SetPicture
 2829              	.LVL257:
 2830 0880 4BE0     		b	.L176
 2831              	.L183:
 733:.\main.c      ****                                 SetPicture(1,DISPLAY_SUBA_MANIJA);
 2832              		.loc 1 733 0
 2833 0882 0721     		movs	r1, #7
 2834 0884 974B     		ldr	r3, .L299+12
 2835 0886 1960     		str	r1, [r3]
 734:.\main.c      ****                             }
 2836              		.loc 1 734 0
 2837 0888 0120     		movs	r0, #1
 2838 088a FFF7FEFF 		bl	SetPicture
 2839              	.LVL258:
 2840 088e 44E0     		b	.L176
 2841              	.LVL259:
 2842              	.L184:
 740:.\main.c      ****                             }
 2843              		.loc 1 740 0 discriminator 3
 2844 0890 914A     		ldr	r2, .L299
 2845 0892 1A44     		add	r2, r2, r3
 2846 0894 92F84B10 		ldrb	r1, [r2, #75]	@ zero_extendqisi2
 2847 0898 82F8EA10 		strb	r1, [r2, #234]
 739:.\main.c      ****                                 bufferDisplay1.mileageSale[x]=bufferDisplay1.valueKeys[x];
ARM GAS  C:\Users\RECEPC~1\AppData\Local\Temp\cc6Stwwd.s 			page 96


 2848              		.loc 1 739 0 discriminator 3
 2849 089c 0133     		adds	r3, r3, #1
 2850              	.LVL260:
 2851 089e DBB2     		uxtb	r3, r3
 2852              	.LVL261:
 2853 08a0 00E0     		b	.L179
 2854              	.LVL262:
 2855              	.L279:
 723:.\main.c      ****                         case 1://Placa
 2856              		.loc 1 723 0
 2857 08a2 0023     		movs	r3, #0
 2858              	.L179:
 2859              	.LVL263:
 739:.\main.c      ****                                 bufferDisplay1.mileageSale[x]=bufferDisplay1.valueKeys[x];
 2860              		.loc 1 739 0 discriminator 1
 2861 08a4 8C4A     		ldr	r2, .L299
 2862 08a6 92F84B20 		ldrb	r2, [r2, #75]	@ zero_extendqisi2
 2863 08aa 9A42     		cmp	r2, r3
 2864 08ac F0D2     		bcs	.L184
 742:.\main.c      ****                             SetPicture(1,DISPLAY_SUBA_MANIJA);
 2865              		.loc 1 742 0
 2866 08ae 0721     		movs	r1, #7
 2867 08b0 8C4B     		ldr	r3, .L299+12
 2868              	.LVL264:
 2869 08b2 1960     		str	r1, [r3]
 743:.\main.c      ****                         break;
 2870              		.loc 1 743 0
 2871 08b4 0120     		movs	r0, #1
 2872 08b6 FFF7FEFF 		bl	SetPicture
 2873              	.LVL265:
 744:.\main.c      ****                         
 2874              		.loc 1 744 0
 2875 08ba 2EE0     		b	.L176
 2876              	.LVL266:
 2877              	.L185:
 748:.\main.c      ****                             }
 2878              		.loc 1 748 0 discriminator 3
 2879 08bc 864A     		ldr	r2, .L299
 2880 08be 1A44     		add	r2, r2, r3
 2881 08c0 92F84B10 		ldrb	r1, [r2, #75]	@ zero_extendqisi2
 2882 08c4 82F8F510 		strb	r1, [r2, #245]
 747:.\main.c      ****                                 bufferDisplay1.identySale[x]=bufferDisplay1.valueKeys[x];
 2883              		.loc 1 747 0 discriminator 3
 2884 08c8 0133     		adds	r3, r3, #1
 2885              	.LVL267:
 2886 08ca DBB2     		uxtb	r3, r3
 2887              	.LVL268:
 2888 08cc 00E0     		b	.L180
 2889              	.LVL269:
 2890              	.L280:
 723:.\main.c      ****                         case 1://Placa
 2891              		.loc 1 723 0
 2892 08ce 0023     		movs	r3, #0
 2893              	.L180:
 2894              	.LVL270:
 747:.\main.c      ****                                 bufferDisplay1.identySale[x]=bufferDisplay1.valueKeys[x];
 2895              		.loc 1 747 0 discriminator 1
ARM GAS  C:\Users\RECEPC~1\AppData\Local\Temp\cc6Stwwd.s 			page 97


 2896 08d0 814A     		ldr	r2, .L299
 2897 08d2 92F84B20 		ldrb	r2, [r2, #75]	@ zero_extendqisi2
 2898 08d6 9A42     		cmp	r2, r3
 2899 08d8 F0D2     		bcs	.L185
 2900              	.LVL271:
 2901              	.L181:
 723:.\main.c      ****                         case 1://Placa
 2902              		.loc 1 723 0 discriminator 1
 2903 08da 0023     		movs	r3, #0
 2904 08dc 07E0     		b	.L186
 2905              	.LVL272:
 2906              	.L187:
 752:.\main.c      ****                             }
 2907              		.loc 1 752 0 discriminator 3
 2908 08de 7E4A     		ldr	r2, .L299
 2909 08e0 1A44     		add	r2, r2, r3
 2910 08e2 92F84B10 		ldrb	r1, [r2, #75]	@ zero_extendqisi2
 2911 08e6 82F83611 		strb	r1, [r2, #310]
 751:.\main.c      ****                                 bufferDisplay1.shiftId[x] =bufferDisplay1.valueKeys[x];
 2912              		.loc 1 751 0 discriminator 3
 2913 08ea 0133     		adds	r3, r3, #1
 2914              	.LVL273:
 2915 08ec DBB2     		uxtb	r3, r3
 2916              	.LVL274:
 2917              	.L186:
 751:.\main.c      ****                                 bufferDisplay1.shiftId[x] =bufferDisplay1.valueKeys[x];
 2918              		.loc 1 751 0 is_stmt 0 discriminator 1
 2919 08ee 0A2B     		cmp	r3, #10
 2920 08f0 F5D9     		bls	.L187
 754:.\main.c      ****                             numberKeys1 = 0;
 2921              		.loc 1 754 0 is_stmt 1
 2922 08f2 0E22     		movs	r2, #14
 2923 08f4 7B4B     		ldr	r3, .L299+12
 2924              	.LVL275:
 2925 08f6 1A60     		str	r2, [r3]
 755:.\main.c      ****                             hiddenKeys = 10;
 2926              		.loc 1 755 0
 2927 08f8 0022     		movs	r2, #0
 2928 08fa 7B4B     		ldr	r3, .L299+16
 2929 08fc 1A70     		strb	r2, [r3]
 756:.\main.c      ****                             controlChar ='*';
 2930              		.loc 1 756 0
 2931 08fe 0A22     		movs	r2, #10
 2932 0900 7A4B     		ldr	r3, .L299+20
 2933 0902 1A70     		strb	r2, [r3]
 757:.\main.c      ****                             bufferDisplay1.flagKeyboard = 3;
 2934              		.loc 1 757 0
 2935 0904 2A22     		movs	r2, #42
 2936 0906 7A4B     		ldr	r3, .L299+24
 2937 0908 1A70     		strb	r2, [r3]
 758:.\main.c      ****                             SetPicture(1,DISPLAY_INGRESE_PASSWORD);
 2938              		.loc 1 758 0
 2939 090a 0322     		movs	r2, #3
 2940 090c 724B     		ldr	r3, .L299
 2941 090e 83F80021 		strb	r2, [r3, #256]
 759:.\main.c      ****                         break;
 2942              		.loc 1 759 0
ARM GAS  C:\Users\RECEPC~1\AppData\Local\Temp\cc6Stwwd.s 			page 98


 2943 0912 0120     		movs	r0, #1
 2944 0914 2521     		movs	r1, #37
 2945 0916 FFF7FEFF 		bl	SetPicture
 2946              	.LVL276:
 2947              	.L176:
 762:.\main.c      ****                 break;
 2948              		.loc 1 762 0
 2949 091a FFF7FEFF 		bl	Display1_ClearRxBuffer
 2950              	.LVL277:
 763:.\main.c      ****             }            
 2951              		.loc 1 763 0
 2952 091e 00F070BD 		b	.L85
 2953              	.L98:
 768:.\main.c      ****                 if((Display1_rxBuffer[0]==0xAA) && (Display1_rxBuffer[6]==0xC3) && (Display1_rxBuff
 2954              		.loc 1 768 0
 2955 0922 FFF7FEFF 		bl	Display1_GetRxBufferSize
 2956              	.LVL278:
 2957 0926 0828     		cmp	r0, #8
 2958 0928 40F06B85 		bne	.L85
 769:.\main.c      ****                     switch(Display1_rxBuffer[3]){
 2959              		.loc 1 769 0
 2960 092c 714B     		ldr	r3, .L299+28
 2961 092e 1B78     		ldrb	r3, [r3]	@ zero_extendqisi2
 2962 0930 DBB2     		uxtb	r3, r3
 2963 0932 AA2B     		cmp	r3, #170
 2964 0934 41D1     		bne	.L188
 769:.\main.c      ****                     switch(Display1_rxBuffer[3]){
 2965              		.loc 1 769 0 is_stmt 0 discriminator 1
 2966 0936 6F4B     		ldr	r3, .L299+28
 2967 0938 9B79     		ldrb	r3, [r3, #6]	@ zero_extendqisi2
 2968 093a DBB2     		uxtb	r3, r3
 2969 093c C32B     		cmp	r3, #195
 2970 093e 3CD1     		bne	.L188
 769:.\main.c      ****                     switch(Display1_rxBuffer[3]){
 2971              		.loc 1 769 0 discriminator 2
 2972 0940 6C4B     		ldr	r3, .L299+28
 2973 0942 DB79     		ldrb	r3, [r3, #7]	@ zero_extendqisi2
 2974 0944 DBB2     		uxtb	r3, r3
 2975 0946 3C2B     		cmp	r3, #60
 2976 0948 37D1     		bne	.L188
 770:.\main.c      ****                         case 0xB6:  //Solicitud ibutton  
 2977              		.loc 1 770 0 is_stmt 1
 2978 094a 6A4B     		ldr	r3, .L299+28
 2979 094c DB78     		ldrb	r3, [r3, #3]	@ zero_extendqisi2
 2980 094e DBB2     		uxtb	r3, r3
 2981 0950 942B     		cmp	r3, #148
 2982 0952 23D0     		beq	.L189
 2983 0954 02D8     		bhi	.L190
 2984 0956 7E2B     		cmp	r3, #126
 2985 0958 28D0     		beq	.L191
 2986 095a 2EE0     		b	.L188
 2987              	.L190:
 2988 095c B62B     		cmp	r3, #182
 2989 095e 02D0     		beq	.L192
 2990 0960 B72B     		cmp	r3, #183
 2991 0962 0ED0     		beq	.L193
 2992 0964 29E0     		b	.L188
ARM GAS  C:\Users\RECEPC~1\AppData\Local\Temp\cc6Stwwd.s 			page 99


 2993              	.L192:
 772:.\main.c      ****                             numberKeys1 = 0;                            
 2994              		.loc 1 772 0
 2995 0966 0B22     		movs	r2, #11
 2996 0968 5E4B     		ldr	r3, .L299+12
 2997 096a 1A60     		str	r2, [r3]
 773:.\main.c      ****                             bufferDisplay1.flagPrint =  1;
 2998              		.loc 1 773 0
 2999 096c 0022     		movs	r2, #0
 3000 096e 5E4B     		ldr	r3, .L299+16
 3001 0970 1A70     		strb	r2, [r3]
 774:.\main.c      ****                             SetPicture(1,DISPLAY_ESPERANDO_ID);                            
 3002              		.loc 1 774 0
 3003 0972 0120     		movs	r0, #1
 3004 0974 584B     		ldr	r3, .L299
 3005 0976 83F83401 		strb	r0, [r3, #308]
 775:.\main.c      ****                         break; 
 3006              		.loc 1 775 0
 3007 097a 1221     		movs	r1, #18
 3008 097c FFF7FEFF 		bl	SetPicture
 3009              	.LVL279:
 776:.\main.c      ****                         case 0xB7:  //ID por nmero
 3010              		.loc 1 776 0
 3011 0980 1BE0     		b	.L188
 3012              	.L193:
 778:.\main.c      ****                             flowDisplay1 = 7;//Esperando estado del dispensador  
 3013              		.loc 1 778 0
 3014 0982 0023     		movs	r3, #0
 3015 0984 544A     		ldr	r2, .L299
 3016 0986 82F80031 		strb	r3, [r2, #256]
 779:.\main.c      ****                             count_protector=0;
 3017              		.loc 1 779 0
 3018 098a 0721     		movs	r1, #7
 3019 098c 554A     		ldr	r2, .L299+12
 3020 098e 1160     		str	r1, [r2]
 780:.\main.c      ****                             SetPicture(1,DISPLAY_SUBA_MANIJA);                            
 3021              		.loc 1 780 0
 3022 0990 594A     		ldr	r2, .L299+32
 3023 0992 1370     		strb	r3, [r2]
 781:.\main.c      ****                         break;
 3024              		.loc 1 781 0
 3025 0994 0120     		movs	r0, #1
 3026 0996 FFF7FEFF 		bl	SetPicture
 3027              	.LVL280:
 782:.\main.c      ****                         case 0x94:  //Pantalla Inicial    
 3028              		.loc 1 782 0
 3029 099a 0EE0     		b	.L188
 3030              	.L189:
 784:.\main.c      ****                             SetPicture(1,DISPLAY_INICIO0);                            
 3031              		.loc 1 784 0
 3032 099c 0022     		movs	r2, #0
 3033 099e 514B     		ldr	r3, .L299+12
 3034 09a0 1A60     		str	r2, [r3]
 785:.\main.c      ****                         break;
 3035              		.loc 1 785 0
 3036 09a2 0120     		movs	r0, #1
 3037 09a4 0146     		mov	r1, r0
ARM GAS  C:\Users\RECEPC~1\AppData\Local\Temp\cc6Stwwd.s 			page 100


 3038 09a6 FFF7FEFF 		bl	SetPicture
 3039              	.LVL281:
 786:.\main.c      ****                         case 0x7E:  //Pantalla Inicial                                             
 3040              		.loc 1 786 0
 3041 09aa 06E0     		b	.L188
 3042              	.L191:
 788:.\main.c      ****                             flowDisplay1 = 0;
 3043              		.loc 1 788 0
 3044 09ac 0120     		movs	r0, #1
 3045 09ae 0146     		mov	r1, r0
 3046 09b0 FFF7FEFF 		bl	SetPicture
 3047              	.LVL282:
 789:.\main.c      ****                         break;
 3048              		.loc 1 789 0
 3049 09b4 0022     		movs	r2, #0
 3050 09b6 4B4B     		ldr	r3, .L299+12
 3051 09b8 1A60     		str	r2, [r3]
 3052              	.L188:
 793:.\main.c      ****                 Display1_ClearRxBuffer();
 3053              		.loc 1 793 0
 3054 09ba 0A20     		movs	r0, #10
 3055 09bc FFF7FEFF 		bl	CyDelay
 3056              	.LVL283:
 794:.\main.c      ****             }                        
 3057              		.loc 1 794 0
 3058 09c0 FFF7FEFF 		bl	Display1_ClearRxBuffer
 3059              	.LVL284:
 3060 09c4 00F01DBD 		b	.L85
 3061              	.L99:
 799:.\main.c      ****             Timer_Animacion_Start();
 3062              		.loc 1 799 0
 3063 09c8 4C48     		ldr	r0, .L299+36
 3064 09ca FFF7FEFF 		bl	isr_3_StartEx
 3065              	.LVL285:
 800:.\main.c      ****             if(touch_present(1)==1){
 3066              		.loc 1 800 0
 3067 09ce FFF7FEFF 		bl	Timer_Animacion_Start
 3068              	.LVL286:
 801:.\main.c      **** 				if(touch_write(1,0x33)){
 3069              		.loc 1 801 0
 3070 09d2 0120     		movs	r0, #1
 3071 09d4 FFF7FEFF 		bl	touch_present
 3072              	.LVL287:
 3073 09d8 0128     		cmp	r0, #1
 3074 09da 6CD1     		bne	.L194
 802:.\main.c      **** 					for(x=1;x<=8;x++){
 3075              		.loc 1 802 0
 3076 09dc 3321     		movs	r1, #51
 3077 09de FFF7FEFF 		bl	touch_write
 3078              	.LVL288:
 3079 09e2 40B9     		cbnz	r0, .L281
 3080 09e4 67E0     		b	.L194
 3081              	.LVL289:
 3082              	.L196:
 804:.\main.c      **** 					}
 3083              		.loc 1 804 0 discriminator 3
 3084 09e6 0120     		movs	r0, #1
ARM GAS  C:\Users\RECEPC~1\AppData\Local\Temp\cc6Stwwd.s 			page 101


 3085 09e8 FFF7FEFF 		bl	touch_read_byte
 3086              	.LVL290:
 3087 09ec 444B     		ldr	r3, .L299+40
 3088 09ee 1855     		strb	r0, [r3, r4]
 803:.\main.c      **** 						temporal[x]=touch_read_byte(1);
 3089              		.loc 1 803 0 discriminator 3
 3090 09f0 0134     		adds	r4, r4, #1
 3091              	.LVL291:
 3092 09f2 E4B2     		uxtb	r4, r4
 3093              	.LVL292:
 3094 09f4 00E0     		b	.L195
 3095              	.LVL293:
 3096              	.L281:
 3097 09f6 0124     		movs	r4, #1
 3098              	.L195:
 3099              	.LVL294:
 803:.\main.c      **** 						temporal[x]=touch_read_byte(1);
 3100              		.loc 1 803 0 is_stmt 0 discriminator 1
 3101 09f8 082C     		cmp	r4, #8
 3102 09fa F4D9     		bls	.L196
 3103 09fc 0020     		movs	r0, #0
 3104 09fe 0124     		movs	r4, #1
 3105              	.LVL295:
 3106 0a00 05E0     		b	.L197
 3107              	.LVL296:
 3108              	.L198:
 808:.\main.c      ****                     }
 3109              		.loc 1 808 0 is_stmt 1 discriminator 3
 3110 0a02 3F4B     		ldr	r3, .L299+40
 3111 0a04 195D     		ldrb	r1, [r3, r4]	@ zero_extendqisi2
 3112 0a06 FFF7FEFF 		bl	crc_check
 3113              	.LVL297:
 807:.\main.c      ****                         y=crc_check(y,temporal[x]);
 3114              		.loc 1 807 0 discriminator 3
 3115 0a0a 0134     		adds	r4, r4, #1
 3116              	.LVL298:
 3117 0a0c E4B2     		uxtb	r4, r4
 3118              	.LVL299:
 3119              	.L197:
 807:.\main.c      ****                         y=crc_check(y,temporal[x]);
 3120              		.loc 1 807 0 is_stmt 0 discriminator 1
 3121 0a0e 072C     		cmp	r4, #7
 3122 0a10 F7D9     		bls	.L198
 810:.\main.c      **** 						bufferDisplay1.idSerial[0]=16;
 3123              		.loc 1 810 0 is_stmt 1
 3124 0a12 3B4B     		ldr	r3, .L299+40
 3125 0a14 1B7A     		ldrb	r3, [r3, #8]	@ zero_extendqisi2
 3126 0a16 DBB2     		uxtb	r3, r3
 3127 0a18 8342     		cmp	r3, r0
 3128 0a1a 4CD1     		bne	.L194
 811:.\main.c      **** 						y=16;
 3129              		.loc 1 811 0
 3130 0a1c 1023     		movs	r3, #16
 3131 0a1e 2E4A     		ldr	r2, .L299
 3132 0a20 5370     		strb	r3, [r2, #1]
 3133              	.LVL300:
 813:.\main.c      **** 							if((temporal[x]&0x0F)>=10){
ARM GAS  C:\Users\RECEPC~1\AppData\Local\Temp\cc6Stwwd.s 			page 102


 3134              		.loc 1 813 0
 3135 0a22 0122     		movs	r2, #1
 3136 0a24 30E0     		b	.L199
 3137              	.LVL301:
 3138              	.L204:
 814:.\main.c      **** 								bufferDisplay1.idSerial[y]=(temporal[x]&0x0F)+55;
 3139              		.loc 1 814 0
 3140 0a26 1046     		mov	r0, r2
 3141 0a28 3549     		ldr	r1, .L299+40
 3142 0a2a 895C     		ldrb	r1, [r1, r2]	@ zero_extendqisi2
 3143 0a2c 01F00F01 		and	r1, r1, #15
 3144 0a30 0929     		cmp	r1, #9
 3145 0a32 08DD     		ble	.L200
 815:.\main.c      **** 							}else{
 3146              		.loc 1 815 0
 3147 0a34 3249     		ldr	r1, .L299+40
 3148 0a36 895C     		ldrb	r1, [r1, r2]	@ zero_extendqisi2
 3149 0a38 274C     		ldr	r4, .L299
 3150 0a3a 1C44     		add	r4, r4, r3
 3151 0a3c 01F00F01 		and	r1, r1, #15
 3152 0a40 3731     		adds	r1, r1, #55
 3153 0a42 6170     		strb	r1, [r4, #1]
 3154 0a44 07E0     		b	.L201
 3155              	.L200:
 817:.\main.c      **** 							}
 3156              		.loc 1 817 0
 3157 0a46 2E49     		ldr	r1, .L299+40
 3158 0a48 895C     		ldrb	r1, [r1, r2]	@ zero_extendqisi2
 3159 0a4a 234C     		ldr	r4, .L299
 3160 0a4c 1C44     		add	r4, r4, r3
 3161 0a4e 01F00F01 		and	r1, r1, #15
 3162 0a52 3031     		adds	r1, r1, #48
 3163 0a54 6170     		strb	r1, [r4, #1]
 3164              	.L201:
 819:.\main.c      **** 							if(((temporal[x]>>4)&0x0F)>=10){
 3165              		.loc 1 819 0
 3166 0a56 013B     		subs	r3, r3, #1
 3167              	.LVL302:
 3168 0a58 DBB2     		uxtb	r3, r3
 3169              	.LVL303:
 820:.\main.c      **** 								bufferDisplay1.idSerial[y]=((temporal[x]>>4)&0x0F)+55;
 3170              		.loc 1 820 0
 3171 0a5a 2949     		ldr	r1, .L299+40
 3172 0a5c 095C     		ldrb	r1, [r1, r0]	@ zero_extendqisi2
 3173 0a5e 9F29     		cmp	r1, #159
 3174 0a60 07D9     		bls	.L202
 821:.\main.c      **** 							}else{
 3175              		.loc 1 821 0
 3176 0a62 2749     		ldr	r1, .L299+40
 3177 0a64 095C     		ldrb	r1, [r1, r0]	@ zero_extendqisi2
 3178 0a66 1C48     		ldr	r0, .L299
 3179 0a68 1844     		add	r0, r0, r3
 3180 0a6a 0909     		lsrs	r1, r1, #4
 3181 0a6c 3731     		adds	r1, r1, #55
 3182 0a6e 4170     		strb	r1, [r0, #1]
 3183 0a70 06E0     		b	.L203
 3184              	.L202:
ARM GAS  C:\Users\RECEPC~1\AppData\Local\Temp\cc6Stwwd.s 			page 103


 823:.\main.c      **** 							}
 3185              		.loc 1 823 0
 3186 0a72 2349     		ldr	r1, .L299+40
 3187 0a74 095C     		ldrb	r1, [r1, r0]	@ zero_extendqisi2
 3188 0a76 1848     		ldr	r0, .L299
 3189 0a78 1844     		add	r0, r0, r3
 3190 0a7a 0909     		lsrs	r1, r1, #4
 3191 0a7c 3031     		adds	r1, r1, #48
 3192 0a7e 4170     		strb	r1, [r0, #1]
 3193              	.L203:
 825:.\main.c      **** 						}                        
 3194              		.loc 1 825 0 discriminator 2
 3195 0a80 013B     		subs	r3, r3, #1
 3196              	.LVL304:
 3197 0a82 DBB2     		uxtb	r3, r3
 3198              	.LVL305:
 813:.\main.c      **** 							if((temporal[x]&0x0F)>=10){
 3199              		.loc 1 813 0 discriminator 2
 3200 0a84 0132     		adds	r2, r2, #1
 3201              	.LVL306:
 3202 0a86 D2B2     		uxtb	r2, r2
 3203              	.LVL307:
 3204              	.L199:
 813:.\main.c      **** 							if((temporal[x]&0x0F)>=10){
 3205              		.loc 1 813 0 is_stmt 0 discriminator 1
 3206 0a88 082A     		cmp	r2, #8
 3207 0a8a CCD9     		bls	.L204
 827:.\main.c      ****                         Display1_ClearRxBuffer();
 3208              		.loc 1 827 0 is_stmt 1
 3209 0a8c 0120     		movs	r0, #1
 3210 0a8e 1321     		movs	r1, #19
 3211 0a90 FFF7FEFF 		bl	SetPicture
 3212              	.LVL308:
 828:.\main.c      ****                         CyDelay(700);
 3213              		.loc 1 828 0
 3214 0a94 FFF7FEFF 		bl	Display1_ClearRxBuffer
 3215              	.LVL309:
 829:.\main.c      ****                         bufferDisplay1.flagKeyboard = 2;
 3216              		.loc 1 829 0
 3217 0a98 4FF42F70 		mov	r0, #700
 3218 0a9c FFF7FEFF 		bl	CyDelay
 3219              	.LVL310:
 830:.\main.c      ****                         flowDisplay1 = 9;
 3220              		.loc 1 830 0
 3221 0aa0 0222     		movs	r2, #2
 3222 0aa2 0D4B     		ldr	r3, .L299
 3223 0aa4 83F80021 		strb	r2, [r3, #256]
 831:.\main.c      ****                         SetPicture(1,DISPLAY_INTRODUZCA_KILOMETRAJE);
 3224              		.loc 1 831 0
 3225 0aa8 0922     		movs	r2, #9
 3226 0aaa 0E4B     		ldr	r3, .L299+12
 3227 0aac 1A60     		str	r2, [r3]
 832:.\main.c      ****                         
 3228              		.loc 1 832 0
 3229 0aae 0120     		movs	r0, #1
 3230 0ab0 0E21     		movs	r1, #14
 3231 0ab2 FFF7FEFF 		bl	SetPicture
ARM GAS  C:\Users\RECEPC~1\AppData\Local\Temp\cc6Stwwd.s 			page 104


 3232              	.LVL311:
 3233              	.L194:
 837:.\main.c      ****                 flowDisplay1 = 0;	
 3234              		.loc 1 837 0
 3235 0ab6 104B     		ldr	r3, .L299+32
 3236 0ab8 1B78     		ldrb	r3, [r3]	@ zero_extendqisi2
 3237 0aba 3B2B     		cmp	r3, #59
 3238 0abc 40F2A184 		bls	.L85
 838:.\main.c      ****     			count_protector=0;
 3239              		.loc 1 838 0
 3240 0ac0 0023     		movs	r3, #0
 3241 0ac2 084A     		ldr	r2, .L299+12
 3242 0ac4 1360     		str	r3, [r2]
 839:.\main.c      ****                 SetPicture(1,DISPLAY_INICIO0);
 3243              		.loc 1 839 0
 3244 0ac6 0C4A     		ldr	r2, .L299+32
 3245 0ac8 1370     		strb	r3, [r2]
 840:.\main.c      ****     		}
 3246              		.loc 1 840 0
 3247 0aca 0120     		movs	r0, #1
 3248 0acc 0146     		mov	r1, r0
 3249 0ace FFF7FEFF 		bl	SetPicture
 3250              	.LVL312:
 3251 0ad2 00F096BC 		b	.L85
 3252              	.L300:
 3253 0ad6 00BF     		.align	2
 3254              	.L299:
 3255 0ad8 00000000 		.word	bufferDisplay1
 3256 0adc 00000000 		.word	printPortA
 3257 0ae0 00000000 		.word	side
 3258 0ae4 00000000 		.word	flowDisplay1
 3259 0ae8 00000000 		.word	numberKeys1
 3260 0aec 00000000 		.word	hiddenKeys
 3261 0af0 00000000 		.word	controlChar
 3262 0af4 00000000 		.word	Display1_rxBuffer
 3263 0af8 00000000 		.word	count_protector
 3264 0afc 00000000 		.word	animacion
 3265 0b00 00000000 		.word	temporal
 3266              	.L100:
 848:.\main.c      ****                 if((Display1_rxBuffer[0]==0xAA) && (Display1_rxBuffer[6]==0xC3) && (Display1_rxBuff
 3267              		.loc 1 848 0
 3268 0b04 FFF7FEFF 		bl	Display1_GetRxBufferSize
 3269              	.LVL313:
 3270 0b08 0828     		cmp	r0, #8
 3271 0b0a 40F07A84 		bne	.L85
 849:.\main.c      ****                     switch(Display1_rxBuffer[3]){
 3272              		.loc 1 849 0
 3273 0b0e A84B     		ldr	r3, .L301
 3274 0b10 1B78     		ldrb	r3, [r3]	@ zero_extendqisi2
 3275 0b12 DBB2     		uxtb	r3, r3
 3276 0b14 AA2B     		cmp	r3, #170
 3277 0b16 66D1     		bne	.L205
 849:.\main.c      ****                     switch(Display1_rxBuffer[3]){
 3278              		.loc 1 849 0 is_stmt 0 discriminator 1
 3279 0b18 A54B     		ldr	r3, .L301
 3280 0b1a 9B79     		ldrb	r3, [r3, #6]	@ zero_extendqisi2
 3281 0b1c DBB2     		uxtb	r3, r3
ARM GAS  C:\Users\RECEPC~1\AppData\Local\Temp\cc6Stwwd.s 			page 105


 3282 0b1e C32B     		cmp	r3, #195
 3283 0b20 61D1     		bne	.L205
 849:.\main.c      ****                     switch(Display1_rxBuffer[3]){
 3284              		.loc 1 849 0 discriminator 2
 3285 0b22 A34B     		ldr	r3, .L301
 3286 0b24 DB79     		ldrb	r3, [r3, #7]	@ zero_extendqisi2
 3287 0b26 DBB2     		uxtb	r3, r3
 3288 0b28 3C2B     		cmp	r3, #60
 3289 0b2a 5CD1     		bne	.L205
 850:.\main.c      ****                         case 0x46:  //Turnos              
 3290              		.loc 1 850 0 is_stmt 1
 3291 0b2c A04B     		ldr	r3, .L301
 3292 0b2e DB78     		ldrb	r3, [r3, #3]	@ zero_extendqisi2
 3293 0b30 DBB2     		uxtb	r3, r3
 3294 0b32 552B     		cmp	r3, #85
 3295 0b34 1DD0     		beq	.L206
 3296 0b36 04D8     		bhi	.L207
 3297 0b38 3B2B     		cmp	r3, #59
 3298 0b3a 3DD0     		beq	.L208
 3299 0b3c 462B     		cmp	r3, #70
 3300 0b3e 07D0     		beq	.L209
 3301 0b40 51E0     		b	.L205
 3302              	.L207:
 3303 0b42 942B     		cmp	r3, #148
 3304 0b44 40D0     		beq	.L210
 3305 0b46 B52B     		cmp	r3, #181
 3306 0b48 28D0     		beq	.L211
 3307 0b4a 7E2B     		cmp	r3, #126
 3308 0b4c 4BD1     		bne	.L205
 3309 0b4e 43E0     		b	.L212
 3310              	.L209:
 852:.\main.c      ****                             if(lockTurn ==1){
 3311              		.loc 1 852 0
 3312 0b50 0D22     		movs	r2, #13
 3313 0b52 984B     		ldr	r3, .L301+4
 3314 0b54 1A60     		str	r2, [r3]
 853:.\main.c      ****                                 SetPicture(1,DISPLAY_CERRAR_TURNO);
 3315              		.loc 1 853 0
 3316 0b56 984B     		ldr	r3, .L301+8
 3317 0b58 1B78     		ldrb	r3, [r3]	@ zero_extendqisi2
 3318 0b5a 012B     		cmp	r3, #1
 3319 0b5c 04D1     		bne	.L213
 854:.\main.c      ****                             }else{
 3320              		.loc 1 854 0
 3321 0b5e 0120     		movs	r0, #1
 3322 0b60 2A21     		movs	r1, #42
 3323 0b62 FFF7FEFF 		bl	SetPicture
 3324              	.LVL314:
 3325 0b66 3EE0     		b	.L205
 3326              	.L213:
 856:.\main.c      ****                             }                            
 3327              		.loc 1 856 0
 3328 0b68 0120     		movs	r0, #1
 3329 0b6a 2321     		movs	r1, #35
 3330 0b6c FFF7FEFF 		bl	SetPicture
 3331              	.LVL315:
 3332 0b70 39E0     		b	.L205
ARM GAS  C:\Users\RECEPC~1\AppData\Local\Temp\cc6Stwwd.s 			page 106


 3333              	.L206:
 860:.\main.c      ****                             bufferDisplay1.flagKeyboard = 6;
 3334              		.loc 1 860 0
 3335 0b72 0E22     		movs	r2, #14
 3336 0b74 8F4B     		ldr	r3, .L301+4
 3337 0b76 1A60     		str	r2, [r3]
 861:.\main.c      ****                             numberKeys1 = 0;
 3338              		.loc 1 861 0
 3339 0b78 0622     		movs	r2, #6
 3340 0b7a 904B     		ldr	r3, .L301+12
 3341 0b7c 83F80021 		strb	r2, [r3, #256]
 862:.\main.c      ****                             hiddenKeys = 5;
 3342              		.loc 1 862 0
 3343 0b80 0022     		movs	r2, #0
 3344 0b82 8F4B     		ldr	r3, .L301+16
 3345 0b84 1A70     		strb	r2, [r3]
 863:.\main.c      ****                             controlChar ='*';
 3346              		.loc 1 863 0
 3347 0b86 0522     		movs	r2, #5
 3348 0b88 8E4B     		ldr	r3, .L301+20
 3349 0b8a 1A70     		strb	r2, [r3]
 864:.\main.c      ****                             SetPicture(1,DISPLAY_INGRESE_PASSWORD);                           
 3350              		.loc 1 864 0
 3351 0b8c 2A22     		movs	r2, #42
 3352 0b8e 8E4B     		ldr	r3, .L301+24
 3353 0b90 1A70     		strb	r2, [r3]
 865:.\main.c      ****                         break;
 3354              		.loc 1 865 0
 3355 0b92 0120     		movs	r0, #1
 3356 0b94 2521     		movs	r1, #37
 3357 0b96 FFF7FEFF 		bl	SetPicture
 3358              	.LVL316:
 866:.\main.c      ****                         case 0xB5:  //Copia de recibo 
 3359              		.loc 1 866 0
 3360 0b9a 24E0     		b	.L205
 3361              	.L211:
 868:.\main.c      ****                             side.a.RFstateReport = 1;
 3362              		.loc 1 868 0
 3363 0b9c 0022     		movs	r2, #0
 3364 0b9e 854B     		ldr	r3, .L301+4
 3365 0ba0 1A60     		str	r2, [r3]
 869:.\main.c      ****                             side.a.rfState = RF_COPY_RECEIPT;
 3366              		.loc 1 869 0
 3367 0ba2 8A4B     		ldr	r3, .L301+28
 3368 0ba4 0121     		movs	r1, #1
 3369 0ba6 83F80711 		strb	r1, [r3, #263]
 870:.\main.c      ****                             SetPicture(1,DISPLAY_INICIO0);                            
 3370              		.loc 1 870 0
 3371 0baa 0B22     		movs	r2, #11
 3372 0bac 83F80321 		strb	r2, [r3, #259]
 871:.\main.c      ****                         break;
 3373              		.loc 1 871 0
 3374 0bb0 0846     		mov	r0, r1
 3375 0bb2 FFF7FEFF 		bl	SetPicture
 3376              	.LVL317:
 872:.\main.c      ****                         
 3377              		.loc 1 872 0
ARM GAS  C:\Users\RECEPC~1\AppData\Local\Temp\cc6Stwwd.s 			page 107


 3378 0bb6 16E0     		b	.L205
 3379              	.L208:
 875:.\main.c      ****                             SetPicture(1,DISPLAY_INICIO0);                            
 3380              		.loc 1 875 0
 3381 0bb8 0022     		movs	r2, #0
 3382 0bba 7E4B     		ldr	r3, .L301+4
 3383 0bbc 1A60     		str	r2, [r3]
 876:.\main.c      ****                         break;
 3384              		.loc 1 876 0
 3385 0bbe 0120     		movs	r0, #1
 3386 0bc0 0146     		mov	r1, r0
 3387 0bc2 FFF7FEFF 		bl	SetPicture
 3388              	.LVL318:
 877:.\main.c      ****                             
 3389              		.loc 1 877 0
 3390 0bc6 0EE0     		b	.L205
 3391              	.L210:
 880:.\main.c      ****                             SetPicture(1,DISPLAY_INICIO0);                            
 3392              		.loc 1 880 0
 3393 0bc8 0022     		movs	r2, #0
 3394 0bca 7A4B     		ldr	r3, .L301+4
 3395 0bcc 1A60     		str	r2, [r3]
 881:.\main.c      ****                         break;
 3396              		.loc 1 881 0
 3397 0bce 0120     		movs	r0, #1
 3398 0bd0 0146     		mov	r1, r0
 3399 0bd2 FFF7FEFF 		bl	SetPicture
 3400              	.LVL319:
 882:.\main.c      ****                         
 3401              		.loc 1 882 0
 3402 0bd6 06E0     		b	.L205
 3403              	.L212:
 885:.\main.c      ****                             SetPicture(1,DISPLAY_INICIO0);                            
 3404              		.loc 1 885 0
 3405 0bd8 0022     		movs	r2, #0
 3406 0bda 764B     		ldr	r3, .L301+4
 3407 0bdc 1A60     		str	r2, [r3]
 886:.\main.c      ****                         break;
 3408              		.loc 1 886 0
 3409 0bde 0120     		movs	r0, #1
 3410 0be0 0146     		mov	r1, r0
 3411 0be2 FFF7FEFF 		bl	SetPicture
 3412              	.LVL320:
 3413              	.L205:
 890:.\main.c      ****                 Display1_ClearRxBuffer();
 3414              		.loc 1 890 0
 3415 0be6 0A20     		movs	r0, #10
 3416 0be8 FFF7FEFF 		bl	CyDelay
 3417              	.LVL321:
 891:.\main.c      ****             }
 3418              		.loc 1 891 0
 3419 0bec FFF7FEFF 		bl	Display1_ClearRxBuffer
 3420              	.LVL322:
 3421 0bf0 00F007BC 		b	.L85
 3422              	.L101:
 896:.\main.c      ****                 if((Display1_rxBuffer[0]==0xAA) && (Display1_rxBuffer[6]==0xC3) && (Display1_rxBuff
 3423              		.loc 1 896 0
ARM GAS  C:\Users\RECEPC~1\AppData\Local\Temp\cc6Stwwd.s 			page 108


 3424 0bf4 FFF7FEFF 		bl	Display1_GetRxBufferSize
 3425              	.LVL323:
 3426 0bf8 0828     		cmp	r0, #8
 3427 0bfa 40F00284 		bne	.L85
 897:.\main.c      ****                     switch(Display1_rxBuffer[3]){
 3428              		.loc 1 897 0
 3429 0bfe 6C4B     		ldr	r3, .L301
 3430 0c00 1B78     		ldrb	r3, [r3]	@ zero_extendqisi2
 3431 0c02 DBB2     		uxtb	r3, r3
 3432 0c04 AA2B     		cmp	r3, #170
 3433 0c06 44D1     		bne	.L214
 897:.\main.c      ****                     switch(Display1_rxBuffer[3]){
 3434              		.loc 1 897 0 is_stmt 0 discriminator 1
 3435 0c08 694B     		ldr	r3, .L301
 3436 0c0a 9B79     		ldrb	r3, [r3, #6]	@ zero_extendqisi2
 3437 0c0c DBB2     		uxtb	r3, r3
 3438 0c0e C32B     		cmp	r3, #195
 3439 0c10 3FD1     		bne	.L214
 897:.\main.c      ****                     switch(Display1_rxBuffer[3]){
 3440              		.loc 1 897 0 discriminator 2
 3441 0c12 674B     		ldr	r3, .L301
 3442 0c14 DB79     		ldrb	r3, [r3, #7]	@ zero_extendqisi2
 3443 0c16 DBB2     		uxtb	r3, r3
 3444 0c18 3C2B     		cmp	r3, #60
 3445 0c1a 3AD1     		bne	.L214
 898:.\main.c      ****                         case 0x47:  //Cambio de turno: Abrir  
 3446              		.loc 1 898 0 is_stmt 1
 3447 0c1c 644B     		ldr	r3, .L301
 3448 0c1e DB78     		ldrb	r3, [r3, #3]	@ zero_extendqisi2
 3449 0c20 DBB2     		uxtb	r3, r3
 3450 0c22 482B     		cmp	r3, #72
 3451 0c24 17D0     		beq	.L215
 3452 0c26 02D8     		bhi	.L216
 3453 0c28 472B     		cmp	r3, #71
 3454 0c2a 05D0     		beq	.L217
 3455 0c2c 31E0     		b	.L214
 3456              	.L216:
 3457 0c2e 7E2B     		cmp	r3, #126
 3458 0c30 20D0     		beq	.L218
 3459 0c32 942B     		cmp	r3, #148
 3460 0c34 26D0     		beq	.L219
 3461 0c36 2CE0     		b	.L214
 3462              	.L217:
 900:.\main.c      ****                             numberKeys1 = 0;    
 3463              		.loc 1 900 0
 3464 0c38 0922     		movs	r2, #9
 3465 0c3a 5E4B     		ldr	r3, .L301+4
 3466 0c3c 1A60     		str	r2, [r3]
 901:.\main.c      ****                             bufferDisplay1.flagKeyboard = 4;
 3467              		.loc 1 901 0
 3468 0c3e 0022     		movs	r2, #0
 3469 0c40 5F4B     		ldr	r3, .L301+16
 3470 0c42 1A70     		strb	r2, [r3]
 902:.\main.c      ****                             SetPicture(1,DISPLAY_INTRODUZCA_CEDULA);                            
 3471              		.loc 1 902 0
 3472 0c44 0422     		movs	r2, #4
 3473 0c46 5D4B     		ldr	r3, .L301+12
ARM GAS  C:\Users\RECEPC~1\AppData\Local\Temp\cc6Stwwd.s 			page 109


 3474 0c48 83F80021 		strb	r2, [r3, #256]
 903:.\main.c      ****                         break;
 3475              		.loc 1 903 0
 3476 0c4c 0120     		movs	r0, #1
 3477 0c4e 2421     		movs	r1, #36
 3478 0c50 FFF7FEFF 		bl	SetPicture
 3479              	.LVL324:
 904:.\main.c      ****                         case 0x48:  //Cambio de turno: Cerrar 
 3480              		.loc 1 904 0
 3481 0c54 1DE0     		b	.L214
 3482              	.L215:
 906:.\main.c      ****                             numberKeys1 = 0;   
 3483              		.loc 1 906 0
 3484 0c56 0922     		movs	r2, #9
 3485 0c58 564B     		ldr	r3, .L301+4
 3486 0c5a 1A60     		str	r2, [r3]
 907:.\main.c      ****                             bufferDisplay1.flagKeyboard = 4;
 3487              		.loc 1 907 0
 3488 0c5c 0022     		movs	r2, #0
 3489 0c5e 584B     		ldr	r3, .L301+16
 3490 0c60 1A70     		strb	r2, [r3]
 908:.\main.c      ****                             SetPicture(1,DISPLAY_INTRODUZCA_CEDULA);                           
 3491              		.loc 1 908 0
 3492 0c62 0422     		movs	r2, #4
 3493 0c64 554B     		ldr	r3, .L301+12
 3494 0c66 83F80021 		strb	r2, [r3, #256]
 909:.\main.c      ****                         break;                         
 3495              		.loc 1 909 0
 3496 0c6a 0120     		movs	r0, #1
 3497 0c6c 2421     		movs	r1, #36
 3498 0c6e FFF7FEFF 		bl	SetPicture
 3499              	.LVL325:
 910:.\main.c      ****                         case 0x7E:  //Pantalla Inicial                                             
 3500              		.loc 1 910 0
 3501 0c72 0EE0     		b	.L214
 3502              	.L218:
 912:.\main.c      ****                             flowDisplay1 = 0;
 3503              		.loc 1 912 0
 3504 0c74 0120     		movs	r0, #1
 3505 0c76 0146     		mov	r1, r0
 3506 0c78 FFF7FEFF 		bl	SetPicture
 3507              	.LVL326:
 913:.\main.c      ****                         break;
 3508              		.loc 1 913 0
 3509 0c7c 0022     		movs	r2, #0
 3510 0c7e 4D4B     		ldr	r3, .L301+4
 3511 0c80 1A60     		str	r2, [r3]
 914:.\main.c      ****                         case 0x94:  //Pantalla Inicial                                             
 3512              		.loc 1 914 0
 3513 0c82 06E0     		b	.L214
 3514              	.L219:
 916:.\main.c      ****                             flowDisplay1 = 0;
 3515              		.loc 1 916 0
 3516 0c84 0120     		movs	r0, #1
 3517 0c86 0146     		mov	r1, r0
 3518 0c88 FFF7FEFF 		bl	SetPicture
 3519              	.LVL327:
ARM GAS  C:\Users\RECEPC~1\AppData\Local\Temp\cc6Stwwd.s 			page 110


 917:.\main.c      ****                         break;
 3520              		.loc 1 917 0
 3521 0c8c 0022     		movs	r2, #0
 3522 0c8e 494B     		ldr	r3, .L301+4
 3523 0c90 1A60     		str	r2, [r3]
 3524              	.L214:
 921:.\main.c      ****                 Display1_ClearRxBuffer();
 3525              		.loc 1 921 0
 3526 0c92 0A20     		movs	r0, #10
 3527 0c94 FFF7FEFF 		bl	CyDelay
 3528              	.LVL328:
 922:.\main.c      ****             }                        
 3529              		.loc 1 922 0
 3530 0c98 FFF7FEFF 		bl	Display1_ClearRxBuffer
 3531              	.LVL329:
 3532 0c9c B1E3     		b	.L85
 3533              	.L102:
 927:.\main.c      ****                 case 0: //Cancelar
 3534              		.loc 1 927 0
 3535 0c9e 0120     		movs	r0, #1
 3536 0ca0 484B     		ldr	r3, .L301+20
 3537 0ca2 1978     		ldrb	r1, [r3]	@ zero_extendqisi2
 3538 0ca4 484B     		ldr	r3, .L301+24
 3539 0ca6 1A78     		ldrb	r2, [r3]	@ zero_extendqisi2
 3540 0ca8 FFF7FEFF 		bl	alphanumeric_keyboard
 3541              	.LVL330:
 3542 0cac 10B1     		cbz	r0, .L220
 3543 0cae 0128     		cmp	r0, #1
 3544 0cb0 6ED0     		beq	.L221
 3545 0cb2 A6E3     		b	.L85
 3546              	.L220:
 929:.\main.c      ****                         case 1://ID Estacion
 3547              		.loc 1 929 0
 3548 0cb4 414B     		ldr	r3, .L301+12
 3549 0cb6 93F80031 		ldrb	r3, [r3, #256]	@ zero_extendqisi2
 3550 0cba 013B     		subs	r3, r3, #1
 3551 0cbc 052B     		cmp	r3, #5
 3552 0cbe 64D8     		bhi	.L222
 3553 0cc0 DFE803F0 		tbb	[pc, r3]
 3554              	.L224:
 3555 0cc4 09       		.byte	(.L282-.L224)/2
 3556 0cc5 1A       		.byte	(.L283-.L224)/2
 3557 0cc6 2F       		.byte	(.L284-.L224)/2
 3558 0cc7 63       		.byte	(.L222-.L224)/2
 3559 0cc8 44       		.byte	(.L285-.L224)/2
 3560 0cc9 57       		.byte	(.L286-.L224)/2
 3561              	.LVL331:
 3562              		.p2align 1
 3563              	.L229:
 932:.\main.c      ****                             }
 3564              		.loc 1 932 0 discriminator 3
 3565 0cca 0021     		movs	r1, #0
 3566 0ccc 404A     		ldr	r2, .L301+32
 3567 0cce D154     		strb	r1, [r2, r3]
 931:.\main.c      ****                                 idStation[x]=0;
 3568              		.loc 1 931 0 discriminator 3
 3569 0cd0 0133     		adds	r3, r3, #1
ARM GAS  C:\Users\RECEPC~1\AppData\Local\Temp\cc6Stwwd.s 			page 111


 3570              	.LVL332:
 3571 0cd2 DBB2     		uxtb	r3, r3
 3572              	.LVL333:
 3573 0cd4 00E0     		b	.L223
 3574              	.LVL334:
 3575              	.L282:
 929:.\main.c      ****                         case 1://ID Estacion
 3576              		.loc 1 929 0
 3577 0cd6 0023     		movs	r3, #0
 3578              	.L223:
 3579              	.LVL335:
 931:.\main.c      ****                                 idStation[x]=0;
 3580              		.loc 1 931 0 discriminator 1
 3581 0cd8 042B     		cmp	r3, #4
 3582 0cda F6D9     		bls	.L229
 934:.\main.c      ****                             SetPicture(1,DISPLAY_INICIO0);
 3583              		.loc 1 934 0
 3584 0cdc 0022     		movs	r2, #0
 3585 0cde 354B     		ldr	r3, .L301+4
 3586              	.LVL336:
 3587 0ce0 1A60     		str	r2, [r3]
 935:.\main.c      ****                         break;
 3588              		.loc 1 935 0
 3589 0ce2 0120     		movs	r0, #1
 3590 0ce4 0146     		mov	r1, r0
 3591 0ce6 FFF7FEFF 		bl	SetPicture
 3592              	.LVL337:
 936:.\main.c      ****                         case 2://Umbral
 3593              		.loc 1 936 0
 3594 0cea 4EE0     		b	.L222
 3595              	.LVL338:
 3596              	.L230:
 939:.\main.c      ****                             }
 3597              		.loc 1 939 0 discriminator 3
 3598 0cec 0021     		movs	r1, #0
 3599 0cee 394A     		ldr	r2, .L301+36
 3600 0cf0 D154     		strb	r1, [r2, r3]
 938:.\main.c      ****                                 pumpGap[x]=0;
 3601              		.loc 1 938 0 discriminator 3
 3602 0cf2 0133     		adds	r3, r3, #1
 3603              	.LVL339:
 3604 0cf4 DBB2     		uxtb	r3, r3
 3605              	.LVL340:
 3606 0cf6 00E0     		b	.L225
 3607              	.LVL341:
 3608              	.L283:
 929:.\main.c      ****                         case 1://ID Estacion
 3609              		.loc 1 929 0
 3610 0cf8 0023     		movs	r3, #0
 3611              	.L225:
 3612              	.LVL342:
 938:.\main.c      ****                                 pumpGap[x]=0;
 3613              		.loc 1 938 0 discriminator 1
 3614 0cfa 324A     		ldr	r2, .L301+20
 3615 0cfc 1278     		ldrb	r2, [r2]	@ zero_extendqisi2
 3616 0cfe 9342     		cmp	r3, r2
 3617 0d00 F4D3     		bcc	.L230
ARM GAS  C:\Users\RECEPC~1\AppData\Local\Temp\cc6Stwwd.s 			page 112


 941:.\main.c      ****                             SetPicture(1,DISPLAY_INICIO0);
 3618              		.loc 1 941 0
 3619 0d02 0022     		movs	r2, #0
 3620 0d04 2B4B     		ldr	r3, .L301+4
 3621              	.LVL343:
 3622 0d06 1A60     		str	r2, [r3]
 942:.\main.c      ****                         break;
 3623              		.loc 1 942 0
 3624 0d08 0120     		movs	r0, #1
 3625 0d0a 0146     		mov	r1, r0
 3626 0d0c FFF7FEFF 		bl	SetPicture
 3627              	.LVL344:
 943:.\main.c      ****                         case 3://Pass turno
 3628              		.loc 1 943 0
 3629 0d10 3BE0     		b	.L222
 3630              	.LVL345:
 3631              	.L231:
 946:.\main.c      ****                             }
 3632              		.loc 1 946 0 discriminator 3
 3633 0d12 2A4A     		ldr	r2, .L301+12
 3634 0d14 1A44     		add	r2, r2, r3
 3635 0d16 0021     		movs	r1, #0
 3636 0d18 82F84111 		strb	r1, [r2, #321]
 945:.\main.c      ****                                 bufferDisplay1.shiftPassword[x]=0;
 3637              		.loc 1 945 0 discriminator 3
 3638 0d1c 0133     		adds	r3, r3, #1
 3639              	.LVL346:
 3640 0d1e DBB2     		uxtb	r3, r3
 3641              	.LVL347:
 3642 0d20 00E0     		b	.L226
 3643              	.LVL348:
 3644              	.L284:
 929:.\main.c      ****                         case 1://ID Estacion
 3645              		.loc 1 929 0
 3646 0d22 0023     		movs	r3, #0
 3647              	.L226:
 3648              	.LVL349:
 945:.\main.c      ****                                 bufferDisplay1.shiftPassword[x]=0;
 3649              		.loc 1 945 0 discriminator 1
 3650 0d24 274A     		ldr	r2, .L301+20
 3651 0d26 1278     		ldrb	r2, [r2]	@ zero_extendqisi2
 3652 0d28 9342     		cmp	r3, r2
 3653 0d2a F2D3     		bcc	.L231
 948:.\main.c      ****                             SetPicture(1,DISPLAY_INICIO0);
 3654              		.loc 1 948 0
 3655 0d2c 0022     		movs	r2, #0
 3656 0d2e 214B     		ldr	r3, .L301+4
 3657              	.LVL350:
 3658 0d30 1A60     		str	r2, [r3]
 949:.\main.c      ****                         break;
 3659              		.loc 1 949 0
 3660 0d32 0120     		movs	r0, #1
 3661 0d34 0146     		mov	r1, r0
 3662 0d36 FFF7FEFF 		bl	SetPicture
 3663              	.LVL351:
 950:.\main.c      ****                         case 5://Pass
 3664              		.loc 1 950 0
ARM GAS  C:\Users\RECEPC~1\AppData\Local\Temp\cc6Stwwd.s 			page 113


 3665 0d3a 26E0     		b	.L222
 3666              	.LVL352:
 3667              	.L232:
 953:.\main.c      ****                             }
 3668              		.loc 1 953 0 discriminator 3
 3669 0d3c 1F4A     		ldr	r2, .L301+12
 3670 0d3e 1A44     		add	r2, r2, r3
 3671 0d40 0021     		movs	r1, #0
 3672 0d42 82F84111 		strb	r1, [r2, #321]
 952:.\main.c      ****                                 bufferDisplay1.shiftPassword[x]=0;
 3673              		.loc 1 952 0 discriminator 3
 3674 0d46 0133     		adds	r3, r3, #1
 3675              	.LVL353:
 3676 0d48 DBB2     		uxtb	r3, r3
 3677              	.LVL354:
 3678 0d4a 00E0     		b	.L227
 3679              	.LVL355:
 3680              	.L285:
 929:.\main.c      ****                         case 1://ID Estacion
 3681              		.loc 1 929 0
 3682 0d4c 0023     		movs	r3, #0
 3683              	.L227:
 3684              	.LVL356:
 952:.\main.c      ****                                 bufferDisplay1.shiftPassword[x]=0;
 3685              		.loc 1 952 0 discriminator 1
 3686 0d4e 1D4A     		ldr	r2, .L301+20
 3687 0d50 1278     		ldrb	r2, [r2]	@ zero_extendqisi2
 3688 0d52 9342     		cmp	r3, r2
 3689 0d54 F2D3     		bcc	.L232
 955:.\main.c      ****                             SetPicture(1,DISPLAY_INICIO0);
 3690              		.loc 1 955 0
 3691 0d56 0022     		movs	r2, #0
 3692 0d58 164B     		ldr	r3, .L301+4
 3693              	.LVL357:
 3694 0d5a 1A60     		str	r2, [r3]
 956:.\main.c      ****                         break;
 3695              		.loc 1 956 0
 3696 0d5c 0120     		movs	r0, #1
 3697 0d5e 0146     		mov	r1, r0
 3698 0d60 FFF7FEFF 		bl	SetPicture
 3699              	.LVL358:
 957:.\main.c      ****                             
 3700              		.loc 1 957 0
 3701 0d64 11E0     		b	.L222
 3702              	.LVL359:
 3703              	.L233:
 961:.\main.c      ****                             }
 3704              		.loc 1 961 0 discriminator 3
 3705 0d66 0021     		movs	r1, #0
 3706 0d68 1B4A     		ldr	r2, .L301+40
 3707 0d6a D154     		strb	r1, [r2, r3]
 960:.\main.c      ****                                 configAccess[x]=0;
 3708              		.loc 1 960 0 discriminator 3
 3709 0d6c 0133     		adds	r3, r3, #1
 3710              	.LVL360:
 3711 0d6e DBB2     		uxtb	r3, r3
 3712              	.LVL361:
ARM GAS  C:\Users\RECEPC~1\AppData\Local\Temp\cc6Stwwd.s 			page 114


 3713 0d70 00E0     		b	.L228
 3714              	.LVL362:
 3715              	.L286:
 929:.\main.c      ****                         case 1://ID Estacion
 3716              		.loc 1 929 0
 3717 0d72 0123     		movs	r3, #1
 3718              	.L228:
 3719              	.LVL363:
 960:.\main.c      ****                                 configAccess[x]=0;
 3720              		.loc 1 960 0 discriminator 1
 3721 0d74 184A     		ldr	r2, .L301+40
 3722 0d76 1278     		ldrb	r2, [r2]	@ zero_extendqisi2
 3723 0d78 9A42     		cmp	r2, r3
 3724 0d7a F4D2     		bcs	.L233
 963:.\main.c      ****                             SetPicture(1,DISPLAY_INICIO0);
 3725              		.loc 1 963 0
 3726 0d7c 0022     		movs	r2, #0
 3727 0d7e 0D4B     		ldr	r3, .L301+4
 3728              	.LVL364:
 3729 0d80 1A60     		str	r2, [r3]
 964:.\main.c      ****                         break;
 3730              		.loc 1 964 0
 3731 0d82 0120     		movs	r0, #1
 3732 0d84 0146     		mov	r1, r0
 3733 0d86 FFF7FEFF 		bl	SetPicture
 3734              	.LVL365:
 3735              	.L222:
 967:.\main.c      ****                 break;
 3736              		.loc 1 967 0
 3737 0d8a FFF7FEFF 		bl	Display1_ClearRxBuffer
 3738              	.LVL366:
 968:.\main.c      ****                     
 3739              		.loc 1 968 0
 3740 0d8e 38E3     		b	.L85
 3741              	.L221:
 971:.\main.c      ****                         case 1://ID Estacion
 3742              		.loc 1 971 0
 3743 0d90 0A4B     		ldr	r3, .L301+12
 3744 0d92 93F80031 		ldrb	r3, [r3, #256]	@ zero_extendqisi2
 3745 0d96 013B     		subs	r3, r3, #1
 3746 0d98 052B     		cmp	r3, #5
 3747 0d9a 00F2CF80 		bhi	.L234
 3748 0d9e DFE813F0 		tbh	[pc, r3, lsl #1]
 3749              	.L236:
 3750 0da2 2600     		.2byte	(.L287-.L236)/2
 3751 0da4 4F00     		.2byte	(.L288-.L236)/2
 3752 0da6 6500     		.2byte	(.L289-.L236)/2
 3753 0da8 CD00     		.2byte	(.L234-.L236)/2
 3754 0daa 7B00     		.2byte	(.L290-.L236)/2
 3755 0dac 9100     		.2byte	(.L291-.L236)/2
 3756              		.p2align 1
 3757              	.L302:
 3758 0dae 00BF     		.align	2
 3759              	.L301:
 3760 0db0 00000000 		.word	Display1_rxBuffer
 3761 0db4 00000000 		.word	flowDisplay1
 3762 0db8 00000000 		.word	lockTurn
ARM GAS  C:\Users\RECEPC~1\AppData\Local\Temp\cc6Stwwd.s 			page 115


 3763 0dbc 00000000 		.word	bufferDisplay1
 3764 0dc0 00000000 		.word	numberKeys1
 3765 0dc4 00000000 		.word	hiddenKeys
 3766 0dc8 00000000 		.word	controlChar
 3767 0dcc 00000000 		.word	side
 3768 0dd0 00000000 		.word	idStation
 3769 0dd4 00000000 		.word	pumpGap
 3770 0dd8 00000000 		.word	configAccess
 3771              	.LVL367:
 3772              	.L241:
 974:.\main.c      ****                             }
 3773              		.loc 1 974 0 discriminator 3
 3774 0ddc 591C     		adds	r1, r3, #1
 3775 0dde 914A     		ldr	r2, .L303
 3776 0de0 0A44     		add	r2, r2, r1
 3777 0de2 92F84B00 		ldrb	r0, [r2, #75]	@ zero_extendqisi2
 3778 0de6 904A     		ldr	r2, .L303+4
 3779 0de8 D054     		strb	r0, [r2, r3]
 973:.\main.c      ****                                 idStation[x] =bufferDisplay1.valueKeys[x+1];                       
 3780              		.loc 1 973 0 discriminator 3
 3781 0dea CBB2     		uxtb	r3, r1
 3782              	.LVL368:
 3783 0dec 00E0     		b	.L235
 3784              	.LVL369:
 3785              	.L287:
 971:.\main.c      ****                         case 1://ID Estacion
 3786              		.loc 1 971 0
 3787 0dee 0023     		movs	r3, #0
 3788              	.L235:
 3789              	.LVL370:
 973:.\main.c      ****                                 idStation[x] =bufferDisplay1.valueKeys[x+1];                       
 3790              		.loc 1 973 0 discriminator 1
 3791 0df0 042B     		cmp	r3, #4
 3792 0df2 F3D9     		bls	.L241
 976:.\main.c      ****                             intIDStation = atoi(idStation);
 3793              		.loc 1 976 0
 3794 0df4 8C48     		ldr	r0, .L303+4
 3795 0df6 0023     		movs	r3, #0
 3796              	.LVL371:
 3797 0df8 0371     		strb	r3, [r0, #4]
 977:.\main.c      ****                             IDCast[0] = intIDStation;
 3798              		.loc 1 977 0
 3799 0dfa FFF7FEFF 		bl	atoi
 3800              	.LVL372:
 3801 0dfe 80B2     		uxth	r0, r0
 3802 0e00 8A4B     		ldr	r3, .L303+8
 3803 0e02 1880     		strh	r0, [r3]	@ movhi
 978:.\main.c      ****                             IDCast[1] = intIDStation>>8;
 3804              		.loc 1 978 0
 3805 0e04 C3B2     		uxtb	r3, r0
 3806 0e06 8A4C     		ldr	r4, .L303+12
 3807 0e08 2370     		strb	r3, [r4]
 979:.\main.c      ****                             EEPROM_1_WriteByte(IDCast[0],10);
 3808              		.loc 1 979 0
 3809 0e0a 000A     		lsrs	r0, r0, #8
 3810 0e0c 6070     		strb	r0, [r4, #1]
 980:.\main.c      ****                             EEPROM_1_WriteByte(IDCast[1],11);
ARM GAS  C:\Users\RECEPC~1\AppData\Local\Temp\cc6Stwwd.s 			page 116


 3811              		.loc 1 980 0
 3812 0e0e 2078     		ldrb	r0, [r4]	@ zero_extendqisi2
 3813 0e10 0A21     		movs	r1, #10
 3814 0e12 FFF7FEFF 		bl	EEPROM_1_WriteByte
 3815              	.LVL373:
 981:.\main.c      ****                             flowDisplay1 = 15;
 3816              		.loc 1 981 0
 3817 0e16 6078     		ldrb	r0, [r4, #1]	@ zero_extendqisi2
 3818 0e18 0B21     		movs	r1, #11
 3819 0e1a FFF7FEFF 		bl	EEPROM_1_WriteByte
 3820              	.LVL374:
 982:.\main.c      ****                             SetPicture(1,DISPLAY_CONFIGURACIONES);
 3821              		.loc 1 982 0
 3822 0e1e 0F22     		movs	r2, #15
 3823 0e20 844B     		ldr	r3, .L303+16
 3824 0e22 1A60     		str	r2, [r3]
 983:.\main.c      ****                         break;
 3825              		.loc 1 983 0
 3826 0e24 0120     		movs	r0, #1
 3827 0e26 5A21     		movs	r1, #90
 3828 0e28 FFF7FEFF 		bl	SetPicture
 3829              	.LVL375:
 984:.\main.c      ****                         case 2://Pass
 3830              		.loc 1 984 0
 3831 0e2c 86E0     		b	.L234
 3832              	.LVL376:
 3833              	.L242:
 987:.\main.c      ****                             }
 3834              		.loc 1 987 0 discriminator 3
 3835 0e2e 7D4A     		ldr	r2, .L303
 3836 0e30 1A44     		add	r2, r2, r3
 3837 0e32 92F84B10 		ldrb	r1, [r2, #75]	@ zero_extendqisi2
 3838 0e36 804A     		ldr	r2, .L303+20
 3839 0e38 D154     		strb	r1, [r2, r3]
 986:.\main.c      ****                                 pumpGap[x] =bufferDisplay1.valueKeys[x];
 3840              		.loc 1 986 0 discriminator 3
 3841 0e3a 0133     		adds	r3, r3, #1
 3842              	.LVL377:
 3843 0e3c DBB2     		uxtb	r3, r3
 3844              	.LVL378:
 3845 0e3e 00E0     		b	.L237
 3846              	.LVL379:
 3847              	.L288:
 971:.\main.c      ****                         case 1://ID Estacion
 3848              		.loc 1 971 0
 3849 0e40 0023     		movs	r3, #0
 3850              	.L237:
 3851              	.LVL380:
 986:.\main.c      ****                                 pumpGap[x] =bufferDisplay1.valueKeys[x];
 3852              		.loc 1 986 0 discriminator 1
 3853 0e42 7E4A     		ldr	r2, .L303+24
 3854 0e44 1278     		ldrb	r2, [r2]	@ zero_extendqisi2
 3855 0e46 9342     		cmp	r3, r2
 3856 0e48 F1D3     		bcc	.L242
 989:.\main.c      ****                             SetPicture(1,DISPLAY_CONFIGURACIONES);
 3857              		.loc 1 989 0
 3858 0e4a 0F22     		movs	r2, #15
ARM GAS  C:\Users\RECEPC~1\AppData\Local\Temp\cc6Stwwd.s 			page 117


 3859 0e4c 794B     		ldr	r3, .L303+16
 3860              	.LVL381:
 3861 0e4e 1A60     		str	r2, [r3]
 990:.\main.c      ****                         break;
 3862              		.loc 1 990 0
 3863 0e50 0120     		movs	r0, #1
 3864 0e52 5A21     		movs	r1, #90
 3865 0e54 FFF7FEFF 		bl	SetPicture
 3866              	.LVL382:
 991:.\main.c      ****                         case 3://Pass turno
 3867              		.loc 1 991 0
 3868 0e58 70E0     		b	.L234
 3869              	.LVL383:
 3870              	.L243:
 994:.\main.c      ****                             }
 3871              		.loc 1 994 0 discriminator 3
 3872 0e5a 724A     		ldr	r2, .L303
 3873 0e5c 1A44     		add	r2, r2, r3
 3874 0e5e 92F84B10 		ldrb	r1, [r2, #75]	@ zero_extendqisi2
 3875 0e62 82F84111 		strb	r1, [r2, #321]
 993:.\main.c      ****                                 bufferDisplay1.shiftPassword[x] =bufferDisplay1.valueKeys[x];
 3876              		.loc 1 993 0 discriminator 3
 3877 0e66 0133     		adds	r3, r3, #1
 3878              	.LVL384:
 3879 0e68 DBB2     		uxtb	r3, r3
 3880              	.LVL385:
 3881 0e6a 00E0     		b	.L238
 3882              	.LVL386:
 3883              	.L289:
 971:.\main.c      ****                         case 1://ID Estacion
 3884              		.loc 1 971 0
 3885 0e6c 0023     		movs	r3, #0
 3886              	.L238:
 3887              	.LVL387:
 993:.\main.c      ****                                 bufferDisplay1.shiftPassword[x] =bufferDisplay1.valueKeys[x];
 3888              		.loc 1 993 0 discriminator 1
 3889 0e6e 734A     		ldr	r2, .L303+24
 3890 0e70 1278     		ldrb	r2, [r2]	@ zero_extendqisi2
 3891 0e72 9342     		cmp	r3, r2
 3892 0e74 F1D3     		bcc	.L243
 996:.\main.c      ****                             SetPicture(1,DISPLAY_POR_FAVOR_ESPERE);
 3893              		.loc 1 996 0
 3894 0e76 1322     		movs	r2, #19
 3895 0e78 6E4B     		ldr	r3, .L303+16
 3896              	.LVL388:
 3897 0e7a 1A60     		str	r2, [r3]
 997:.\main.c      ****                         break;
 3898              		.loc 1 997 0
 3899 0e7c 0120     		movs	r0, #1
 3900 0e7e 3921     		movs	r1, #57
 3901 0e80 FFF7FEFF 		bl	SetPicture
 3902              	.LVL389:
 998:.\main.c      ****                         case 5://Pass
 3903              		.loc 1 998 0
 3904 0e84 5AE0     		b	.L234
 3905              	.LVL390:
 3906              	.L244:
ARM GAS  C:\Users\RECEPC~1\AppData\Local\Temp\cc6Stwwd.s 			page 118


1001:.\main.c      ****                             }
 3907              		.loc 1 1001 0 discriminator 3
 3908 0e86 674A     		ldr	r2, .L303
 3909 0e88 1A44     		add	r2, r2, r3
 3910 0e8a 92F84B10 		ldrb	r1, [r2, #75]	@ zero_extendqisi2
 3911 0e8e 82F84111 		strb	r1, [r2, #321]
1000:.\main.c      ****                                 bufferDisplay1.shiftPassword[x] =bufferDisplay1.valueKeys[x];
 3912              		.loc 1 1000 0 discriminator 3
 3913 0e92 0133     		adds	r3, r3, #1
 3914              	.LVL391:
 3915 0e94 DBB2     		uxtb	r3, r3
 3916              	.LVL392:
 3917 0e96 00E0     		b	.L239
 3918              	.LVL393:
 3919              	.L290:
 971:.\main.c      ****                         case 1://ID Estacion
 3920              		.loc 1 971 0
 3921 0e98 0023     		movs	r3, #0
 3922              	.L239:
 3923              	.LVL394:
1000:.\main.c      ****                                 bufferDisplay1.shiftPassword[x] =bufferDisplay1.valueKeys[x];
 3924              		.loc 1 1000 0 discriminator 1
 3925 0e9a 684A     		ldr	r2, .L303+24
 3926 0e9c 1278     		ldrb	r2, [r2]	@ zero_extendqisi2
 3927 0e9e 9342     		cmp	r3, r2
 3928 0ea0 F1D3     		bcc	.L244
1003:.\main.c      ****                             SetPicture(1,DISPLAY_CONFIGURACIONES);
 3929              		.loc 1 1003 0
 3930 0ea2 0F22     		movs	r2, #15
 3931 0ea4 634B     		ldr	r3, .L303+16
 3932              	.LVL395:
 3933 0ea6 1A60     		str	r2, [r3]
1004:.\main.c      ****                         break; 
 3934              		.loc 1 1004 0
 3935 0ea8 0120     		movs	r0, #1
 3936 0eaa 5A21     		movs	r1, #90
 3937 0eac FFF7FEFF 		bl	SetPicture
 3938              	.LVL396:
1005:.\main.c      ****                         case 6://Pass
 3939              		.loc 1 1005 0
 3940 0eb0 44E0     		b	.L234
 3941              	.LVL397:
 3942              	.L245:
1008:.\main.c      ****                             }
 3943              		.loc 1 1008 0 discriminator 3
 3944 0eb2 5C4A     		ldr	r2, .L303
 3945 0eb4 1A44     		add	r2, r2, r3
 3946 0eb6 92F84B10 		ldrb	r1, [r2, #75]	@ zero_extendqisi2
 3947 0eba 614A     		ldr	r2, .L303+28
 3948 0ebc D154     		strb	r1, [r2, r3]
1007:.\main.c      ****                                 configAccess[x] =bufferDisplay1.valueKeys[x];
 3949              		.loc 1 1007 0 discriminator 3
 3950 0ebe 0133     		adds	r3, r3, #1
 3951              	.LVL398:
 3952 0ec0 DBB2     		uxtb	r3, r3
 3953              	.LVL399:
 3954 0ec2 00E0     		b	.L240
ARM GAS  C:\Users\RECEPC~1\AppData\Local\Temp\cc6Stwwd.s 			page 119


 3955              	.LVL400:
 3956              	.L291:
 971:.\main.c      ****                         case 1://ID Estacion
 3957              		.loc 1 971 0
 3958 0ec4 0123     		movs	r3, #1
 3959              	.L240:
 3960              	.LVL401:
1007:.\main.c      ****                                 configAccess[x] =bufferDisplay1.valueKeys[x];
 3961              		.loc 1 1007 0 discriminator 1
 3962 0ec6 5E4A     		ldr	r2, .L303+28
 3963 0ec8 1278     		ldrb	r2, [r2]	@ zero_extendqisi2
 3964 0eca 9A42     		cmp	r2, r3
 3965 0ecc F1D2     		bcs	.L245
1010:.\main.c      ****                                 SetPicture(1,DISPLAY_PASSWORD_VALIDO);
 3966              		.loc 1 1010 0
 3967 0ece 5C4B     		ldr	r3, .L303+28
 3968              	.LVL402:
 3969 0ed0 5A78     		ldrb	r2, [r3, #1]	@ zero_extendqisi2
 3970 0ed2 5C4B     		ldr	r3, .L303+32
 3971 0ed4 5B78     		ldrb	r3, [r3, #1]	@ zero_extendqisi2
 3972 0ed6 9A42     		cmp	r2, r3
 3973 0ed8 21D1     		bne	.L246
1010:.\main.c      ****                                 SetPicture(1,DISPLAY_PASSWORD_VALIDO);
 3974              		.loc 1 1010 0 is_stmt 0 discriminator 1
 3975 0eda 594B     		ldr	r3, .L303+28
 3976 0edc 9A78     		ldrb	r2, [r3, #2]	@ zero_extendqisi2
 3977 0ede 594B     		ldr	r3, .L303+32
 3978 0ee0 9B78     		ldrb	r3, [r3, #2]	@ zero_extendqisi2
 3979 0ee2 9A42     		cmp	r2, r3
 3980 0ee4 1BD1     		bne	.L246
1010:.\main.c      ****                                 SetPicture(1,DISPLAY_PASSWORD_VALIDO);
 3981              		.loc 1 1010 0 discriminator 2
 3982 0ee6 564B     		ldr	r3, .L303+28
 3983 0ee8 DA78     		ldrb	r2, [r3, #3]	@ zero_extendqisi2
 3984 0eea 564B     		ldr	r3, .L303+32
 3985 0eec DB78     		ldrb	r3, [r3, #3]	@ zero_extendqisi2
 3986 0eee 9A42     		cmp	r2, r3
 3987 0ef0 15D1     		bne	.L246
1010:.\main.c      ****                                 SetPicture(1,DISPLAY_PASSWORD_VALIDO);
 3988              		.loc 1 1010 0 discriminator 3
 3989 0ef2 534B     		ldr	r3, .L303+28
 3990 0ef4 1A79     		ldrb	r2, [r3, #4]	@ zero_extendqisi2
 3991 0ef6 534B     		ldr	r3, .L303+32
 3992 0ef8 1B79     		ldrb	r3, [r3, #4]	@ zero_extendqisi2
 3993 0efa 9A42     		cmp	r2, r3
 3994 0efc 0FD1     		bne	.L246
1011:.\main.c      ****                                 CyDelay(700);
 3995              		.loc 1 1011 0 is_stmt 1
 3996 0efe 0120     		movs	r0, #1
 3997 0f00 2621     		movs	r1, #38
 3998 0f02 FFF7FEFF 		bl	SetPicture
 3999              	.LVL403:
1012:.\main.c      ****                                 flowDisplay1 = 15;
 4000              		.loc 1 1012 0
 4001 0f06 4FF42F70 		mov	r0, #700
 4002 0f0a FFF7FEFF 		bl	CyDelay
 4003              	.LVL404:
ARM GAS  C:\Users\RECEPC~1\AppData\Local\Temp\cc6Stwwd.s 			page 120


1013:.\main.c      ****                                 SetPicture(1,DISPLAY_CONFIGURACIONES);
 4004              		.loc 1 1013 0
 4005 0f0e 0F22     		movs	r2, #15
 4006 0f10 484B     		ldr	r3, .L303+16
 4007 0f12 1A60     		str	r2, [r3]
1014:.\main.c      ****                             }else{
 4008              		.loc 1 1014 0
 4009 0f14 0120     		movs	r0, #1
 4010 0f16 5A21     		movs	r1, #90
 4011 0f18 FFF7FEFF 		bl	SetPicture
 4012              	.LVL405:
 4013 0f1c 0EE0     		b	.L234
 4014              	.L246:
1016:.\main.c      ****                                 CyDelay(700);
 4015              		.loc 1 1016 0
 4016 0f1e 0120     		movs	r0, #1
 4017 0f20 2721     		movs	r1, #39
 4018 0f22 FFF7FEFF 		bl	SetPicture
 4019              	.LVL406:
1017:.\main.c      ****                                 flowDisplay1 = 0;
 4020              		.loc 1 1017 0
 4021 0f26 4FF42F70 		mov	r0, #700
 4022 0f2a FFF7FEFF 		bl	CyDelay
 4023              	.LVL407:
1018:.\main.c      ****                                 SetPicture(1,DISPLAY_INICIO0);
 4024              		.loc 1 1018 0
 4025 0f2e 0022     		movs	r2, #0
 4026 0f30 404B     		ldr	r3, .L303+16
 4027 0f32 1A60     		str	r2, [r3]
1019:.\main.c      ****                             }
 4028              		.loc 1 1019 0
 4029 0f34 0120     		movs	r0, #1
 4030 0f36 0146     		mov	r1, r0
 4031 0f38 FFF7FEFF 		bl	SetPicture
 4032              	.LVL408:
 4033              	.L234:
1023:.\main.c      ****                 break;
 4034              		.loc 1 1023 0
 4035 0f3c FFF7FEFF 		bl	Display1_ClearRxBuffer
 4036              	.LVL409:
1024:.\main.c      ****             }            
 4037              		.loc 1 1024 0
 4038 0f40 5FE2     		b	.L85
 4039              	.L103:
1029:.\main.c      ****                 if((Display1_rxBuffer[0]==0xAA) && (Display1_rxBuffer[6]==0xC3) && (Display1_rxBuff
 4040              		.loc 1 1029 0
 4041 0f42 FFF7FEFF 		bl	Display1_GetRxBufferSize
 4042              	.LVL410:
 4043 0f46 0828     		cmp	r0, #8
 4044 0f48 40F05B82 		bne	.L85
1030:.\main.c      ****                     switch(Display1_rxBuffer[3]){
 4045              		.loc 1 1030 0
 4046 0f4c 3E4B     		ldr	r3, .L303+36
 4047 0f4e 1B78     		ldrb	r3, [r3]	@ zero_extendqisi2
 4048 0f50 DBB2     		uxtb	r3, r3
 4049 0f52 AA2B     		cmp	r3, #170
 4050 0f54 40F09C80 		bne	.L247
ARM GAS  C:\Users\RECEPC~1\AppData\Local\Temp\cc6Stwwd.s 			page 121


1030:.\main.c      ****                     switch(Display1_rxBuffer[3]){
 4051              		.loc 1 1030 0 is_stmt 0 discriminator 1
 4052 0f58 3B4B     		ldr	r3, .L303+36
 4053 0f5a 9B79     		ldrb	r3, [r3, #6]	@ zero_extendqisi2
 4054 0f5c DBB2     		uxtb	r3, r3
 4055 0f5e C32B     		cmp	r3, #195
 4056 0f60 40F09680 		bne	.L247
1030:.\main.c      ****                     switch(Display1_rxBuffer[3]){
 4057              		.loc 1 1030 0 discriminator 2
 4058 0f64 384B     		ldr	r3, .L303+36
 4059 0f66 DB79     		ldrb	r3, [r3, #7]	@ zero_extendqisi2
 4060 0f68 DBB2     		uxtb	r3, r3
 4061 0f6a 3C2B     		cmp	r3, #60
 4062 0f6c 40F09080 		bne	.L247
1031:.\main.c      ****                         case 0x82:  //ID Estacion  
 4063              		.loc 1 1031 0 is_stmt 1
 4064 0f70 354B     		ldr	r3, .L303+36
 4065 0f72 DB78     		ldrb	r3, [r3, #3]	@ zero_extendqisi2
 4066 0f74 583B     		subs	r3, r3, #88
 4067 0f76 3C2B     		cmp	r3, #60
 4068 0f78 00F28A80 		bhi	.L247
 4069 0f7c DFE803F0 		tbb	[pc, r3]
 4070              	.L249:
 4071 0f80 6A       		.byte	(.L248-.L249)/2
 4072 0f81 88       		.byte	(.L247-.L249)/2
 4073 0f82 3C       		.byte	(.L250-.L249)/2
 4074 0f83 88       		.byte	(.L247-.L249)/2
 4075 0f84 88       		.byte	(.L247-.L249)/2
 4076 0f85 88       		.byte	(.L247-.L249)/2
 4077 0f86 88       		.byte	(.L247-.L249)/2
 4078 0f87 88       		.byte	(.L247-.L249)/2
 4079 0f88 88       		.byte	(.L247-.L249)/2
 4080 0f89 88       		.byte	(.L247-.L249)/2
 4081 0f8a 88       		.byte	(.L247-.L249)/2
 4082 0f8b 88       		.byte	(.L247-.L249)/2
 4083 0f8c 88       		.byte	(.L247-.L249)/2
 4084 0f8d 32       		.byte	(.L251-.L249)/2
 4085 0f8e 88       		.byte	(.L247-.L249)/2
 4086 0f8f 88       		.byte	(.L247-.L249)/2
 4087 0f90 88       		.byte	(.L247-.L249)/2
 4088 0f91 88       		.byte	(.L247-.L249)/2
 4089 0f92 88       		.byte	(.L247-.L249)/2
 4090 0f93 88       		.byte	(.L247-.L249)/2
 4091 0f94 88       		.byte	(.L247-.L249)/2
 4092 0f95 88       		.byte	(.L247-.L249)/2
 4093 0f96 88       		.byte	(.L247-.L249)/2
 4094 0f97 88       		.byte	(.L247-.L249)/2
 4095 0f98 88       		.byte	(.L247-.L249)/2
 4096 0f99 88       		.byte	(.L247-.L249)/2
 4097 0f9a 88       		.byte	(.L247-.L249)/2
 4098 0f9b 88       		.byte	(.L247-.L249)/2
 4099 0f9c 88       		.byte	(.L247-.L249)/2
 4100 0f9d 88       		.byte	(.L247-.L249)/2
 4101 0f9e 88       		.byte	(.L247-.L249)/2
 4102 0f9f 88       		.byte	(.L247-.L249)/2
 4103 0fa0 88       		.byte	(.L247-.L249)/2
 4104 0fa1 88       		.byte	(.L247-.L249)/2
ARM GAS  C:\Users\RECEPC~1\AppData\Local\Temp\cc6Stwwd.s 			page 122


 4105 0fa2 88       		.byte	(.L247-.L249)/2
 4106 0fa3 88       		.byte	(.L247-.L249)/2
 4107 0fa4 88       		.byte	(.L247-.L249)/2
 4108 0fa5 88       		.byte	(.L247-.L249)/2
 4109 0fa6 79       		.byte	(.L252-.L249)/2
 4110 0fa7 88       		.byte	(.L247-.L249)/2
 4111 0fa8 88       		.byte	(.L247-.L249)/2
 4112 0fa9 88       		.byte	(.L247-.L249)/2
 4113 0faa 1F       		.byte	(.L253-.L249)/2
 4114 0fab 88       		.byte	(.L247-.L249)/2
 4115 0fac 88       		.byte	(.L247-.L249)/2
 4116 0fad 88       		.byte	(.L247-.L249)/2
 4117 0fae 88       		.byte	(.L247-.L249)/2
 4118 0faf 88       		.byte	(.L247-.L249)/2
 4119 0fb0 88       		.byte	(.L247-.L249)/2
 4120 0fb1 88       		.byte	(.L247-.L249)/2
 4121 0fb2 88       		.byte	(.L247-.L249)/2
 4122 0fb3 88       		.byte	(.L247-.L249)/2
 4123 0fb4 88       		.byte	(.L247-.L249)/2
 4124 0fb5 88       		.byte	(.L247-.L249)/2
 4125 0fb6 88       		.byte	(.L247-.L249)/2
 4126 0fb7 88       		.byte	(.L247-.L249)/2
 4127 0fb8 88       		.byte	(.L247-.L249)/2
 4128 0fb9 88       		.byte	(.L247-.L249)/2
 4129 0fba 88       		.byte	(.L247-.L249)/2
 4130 0fbb 88       		.byte	(.L247-.L249)/2
 4131 0fbc 81       		.byte	(.L254-.L249)/2
 4132 0fbd 00       		.p2align 1
 4133              	.L253:
1033:.\main.c      ****                             numberKeys1 = 0; 
 4134              		.loc 1 1033 0
 4135 0fbe 0E22     		movs	r2, #14
 4136 0fc0 1C4B     		ldr	r3, .L303+16
 4137 0fc2 1A60     		str	r2, [r3]
1034:.\main.c      ****                             controlChar = 0;
 4138              		.loc 1 1034 0
 4139 0fc4 0023     		movs	r3, #0
 4140 0fc6 214A     		ldr	r2, .L303+40
 4141 0fc8 1370     		strb	r3, [r2]
1035:.\main.c      ****                             hiddenKeys  = 5;
 4142              		.loc 1 1035 0
 4143 0fca 214A     		ldr	r2, .L303+44
 4144 0fcc 1370     		strb	r3, [r2]
1036:.\main.c      ****                             bufferDisplay1.flagKeyboard = 1;
 4145              		.loc 1 1036 0
 4146 0fce 0522     		movs	r2, #5
 4147 0fd0 1A4B     		ldr	r3, .L303+24
 4148 0fd2 1A70     		strb	r2, [r3]
1037:.\main.c      ****                             SetPicture(1,DISPLAY_INTRODUZCA_VALOR);                            
 4149              		.loc 1 1037 0
 4150 0fd4 0120     		movs	r0, #1
 4151 0fd6 134B     		ldr	r3, .L303
 4152 0fd8 83F80001 		strb	r0, [r3, #256]
1038:.\main.c      ****                         break;
 4153              		.loc 1 1038 0
 4154 0fdc 0621     		movs	r1, #6
 4155 0fde FFF7FEFF 		bl	SetPicture
ARM GAS  C:\Users\RECEPC~1\AppData\Local\Temp\cc6Stwwd.s 			page 123


 4156              	.LVL411:
1039:.\main.c      ****                         case 0x65:  //Test Impresoras 
 4157              		.loc 1 1039 0
 4158 0fe2 55E0     		b	.L247
 4159              	.L251:
1041:.\main.c      ****                             PrintTest();
 4160              		.loc 1 1041 0
 4161 0fe4 1022     		movs	r2, #16
 4162 0fe6 134B     		ldr	r3, .L303+16
 4163 0fe8 1A60     		str	r2, [r3]
1042:.\main.c      ****                             SetPicture(1,DISPLAY_AMBAS_IMPRESORAS_FUNCIONANDO);                    
 4164              		.loc 1 1042 0
 4165 0fea FFF7FEFF 		bl	PrintTest
 4166              	.LVL412:
1043:.\main.c      ****                         break;
 4167              		.loc 1 1043 0
 4168 0fee 0120     		movs	r0, #1
 4169 0ff0 6B21     		movs	r1, #107
 4170 0ff2 FFF7FEFF 		bl	SetPicture
 4171              	.LVL413:
1044:.\main.c      ****                         
 4172              		.loc 1 1044 0
 4173 0ff6 4BE0     		b	.L247
 4174              	.L250:
1047:.\main.c      ****                             numberKeys1 = 0;
 4175              		.loc 1 1047 0
 4176 0ff8 0E22     		movs	r2, #14
 4177 0ffa 0E4B     		ldr	r3, .L303+16
 4178 0ffc 1A60     		str	r2, [r3]
1048:.\main.c      ****                             controlChar = 0;
 4179              		.loc 1 1048 0
 4180 0ffe 0023     		movs	r3, #0
 4181 1000 124A     		ldr	r2, .L303+40
 4182 1002 1370     		strb	r3, [r2]
1049:.\main.c      ****                             hiddenKeys  = 3;
 4183              		.loc 1 1049 0
 4184 1004 124A     		ldr	r2, .L303+44
 4185 1006 1370     		strb	r3, [r2]
1050:.\main.c      ****                             pumpGap[0]  = 2;
 4186              		.loc 1 1050 0
 4187 1008 0322     		movs	r2, #3
 4188 100a 0C4B     		ldr	r3, .L303+24
 4189 100c 1A70     		strb	r2, [r3]
1051:.\main.c      ****                             bufferDisplay1.flagKeyboard = 2;
 4190              		.loc 1 1051 0
 4191 100e 0223     		movs	r3, #2
 4192 1010 094A     		ldr	r2, .L303+20
 4193 1012 1370     		strb	r3, [r2]
1052:.\main.c      ****                             SetPicture(1,DISPLAY_INTRODUZCA_VALOR);                            
 4194              		.loc 1 1052 0
 4195 1014 034A     		ldr	r2, .L303
 4196 1016 82F80031 		strb	r3, [r2, #256]
1053:.\main.c      ****                         break;
 4197              		.loc 1 1053 0
 4198 101a 0120     		movs	r0, #1
 4199 101c 0621     		movs	r1, #6
 4200 101e FFF7FEFF 		bl	SetPicture
ARM GAS  C:\Users\RECEPC~1\AppData\Local\Temp\cc6Stwwd.s 			page 124


 4201              	.LVL414:
1054:.\main.c      ****                         case 0x58:  //Hora y Fecha
 4202              		.loc 1 1054 0
 4203 1022 35E0     		b	.L247
 4204              	.L304:
 4205              		.align	2
 4206              	.L303:
 4207 1024 00000000 		.word	bufferDisplay1
 4208 1028 00000000 		.word	idStation
 4209 102c 00000000 		.word	intIDStation
 4210 1030 00000000 		.word	IDCast
 4211 1034 00000000 		.word	flowDisplay1
 4212 1038 00000000 		.word	pumpGap
 4213 103c 00000000 		.word	hiddenKeys
 4214 1040 00000000 		.word	configAccess
 4215 1044 00000000 		.word	.LANCHOR0
 4216 1048 00000000 		.word	Display1_rxBuffer
 4217 104c 00000000 		.word	numberKeys1
 4218 1050 00000000 		.word	controlChar
 4219              	.L248:
1056:.\main.c      ****                             numberKeys1 = 0;   
 4220              		.loc 1 1056 0
 4221 1054 1222     		movs	r2, #18
 4222 1056 784B     		ldr	r3, .L305
 4223 1058 1A60     		str	r2, [r3]
1057:.\main.c      ****                             bufferDisplay1.flagKeyboard = 4;
 4224              		.loc 1 1057 0
 4225 105a 0022     		movs	r2, #0
 4226 105c 774B     		ldr	r3, .L305+4
 4227 105e 1A70     		strb	r2, [r3]
1058:.\main.c      ****                             SetPicture(1,DISPLAY_CONFIGURAR_FECHA_HORA);                           
 4228              		.loc 1 1058 0
 4229 1060 0422     		movs	r2, #4
 4230 1062 774B     		ldr	r3, .L305+8
 4231 1064 83F80021 		strb	r2, [r3, #256]
1059:.\main.c      ****                         break;
 4232              		.loc 1 1059 0
 4233 1068 0120     		movs	r0, #1
 4234 106a 3E21     		movs	r1, #62
 4235 106c FFF7FEFF 		bl	SetPicture
 4236              	.LVL415:
1060:.\main.c      ****                         case 0x7E:  //Pantalla Inicial                                             
 4237              		.loc 1 1060 0
 4238 1070 0EE0     		b	.L247
 4239              	.L252:
1062:.\main.c      ****                             flowDisplay1 = 0;
 4240              		.loc 1 1062 0
 4241 1072 0120     		movs	r0, #1
 4242 1074 0146     		mov	r1, r0
 4243 1076 FFF7FEFF 		bl	SetPicture
 4244              	.LVL416:
1063:.\main.c      ****                         break;
 4245              		.loc 1 1063 0
 4246 107a 0022     		movs	r2, #0
 4247 107c 6E4B     		ldr	r3, .L305
 4248 107e 1A60     		str	r2, [r3]
1064:.\main.c      ****                         case 0x94:  //Pantalla Inicial                                             
ARM GAS  C:\Users\RECEPC~1\AppData\Local\Temp\cc6Stwwd.s 			page 125


 4249              		.loc 1 1064 0
 4250 1080 06E0     		b	.L247
 4251              	.L254:
1066:.\main.c      ****                             flowDisplay1 = 0;
 4252              		.loc 1 1066 0
 4253 1082 0120     		movs	r0, #1
 4254 1084 0146     		mov	r1, r0
 4255 1086 FFF7FEFF 		bl	SetPicture
 4256              	.LVL417:
1067:.\main.c      ****                         break;
 4257              		.loc 1 1067 0
 4258 108a 0022     		movs	r2, #0
 4259 108c 6A4B     		ldr	r3, .L305
 4260 108e 1A60     		str	r2, [r3]
 4261              	.L247:
1071:.\main.c      ****                 Display1_ClearRxBuffer();
 4262              		.loc 1 1071 0
 4263 1090 0A20     		movs	r0, #10
 4264 1092 FFF7FEFF 		bl	CyDelay
 4265              	.LVL418:
1072:.\main.c      ****             }                        
 4266              		.loc 1 1072 0
 4267 1096 FFF7FEFF 		bl	Display1_ClearRxBuffer
 4268              	.LVL419:
 4269 109a B2E1     		b	.L85
 4270              	.L104:
1077:.\main.c      ****                 if((Display1_rxBuffer[0]==0xAA) && (Display1_rxBuffer[6]==0xC3) && (Display1_rxBuff
 4271              		.loc 1 1077 0
 4272 109c FFF7FEFF 		bl	Display1_GetRxBufferSize
 4273              	.LVL420:
 4274 10a0 0828     		cmp	r0, #8
 4275 10a2 40F0AE81 		bne	.L85
1078:.\main.c      ****                     switch(Display1_rxBuffer[3]){
 4276              		.loc 1 1078 0
 4277 10a6 674B     		ldr	r3, .L305+12
 4278 10a8 1B78     		ldrb	r3, [r3]	@ zero_extendqisi2
 4279 10aa DBB2     		uxtb	r3, r3
 4280 10ac AA2B     		cmp	r3, #170
 4281 10ae 44D1     		bne	.L255
1078:.\main.c      ****                     switch(Display1_rxBuffer[3]){
 4282              		.loc 1 1078 0 is_stmt 0 discriminator 1
 4283 10b0 644B     		ldr	r3, .L305+12
 4284 10b2 9B79     		ldrb	r3, [r3, #6]	@ zero_extendqisi2
 4285 10b4 DBB2     		uxtb	r3, r3
 4286 10b6 C32B     		cmp	r3, #195
 4287 10b8 3FD1     		bne	.L255
1078:.\main.c      ****                     switch(Display1_rxBuffer[3]){
 4288              		.loc 1 1078 0 discriminator 2
 4289 10ba 624B     		ldr	r3, .L305+12
 4290 10bc DB79     		ldrb	r3, [r3, #7]	@ zero_extendqisi2
 4291 10be DBB2     		uxtb	r3, r3
 4292 10c0 3C2B     		cmp	r3, #60
 4293 10c2 3AD1     		bne	.L255
1079:.\main.c      ****                         case 0x38:  //No funcionan  
 4294              		.loc 1 1079 0 is_stmt 1
 4295 10c4 5F4B     		ldr	r3, .L305+12
 4296 10c6 DB78     		ldrb	r3, [r3, #3]	@ zero_extendqisi2
ARM GAS  C:\Users\RECEPC~1\AppData\Local\Temp\cc6Stwwd.s 			page 126


 4297 10c8 DBB2     		uxtb	r3, r3
 4298 10ca 392B     		cmp	r3, #57
 4299 10cc 10D0     		beq	.L256
 4300 10ce 02D8     		bhi	.L257
 4301 10d0 382B     		cmp	r3, #56
 4302 10d2 05D0     		beq	.L258
 4303 10d4 31E0     		b	.L255
 4304              	.L257:
 4305 10d6 7E2B     		cmp	r3, #126
 4306 10d8 20D0     		beq	.L259
 4307 10da 942B     		cmp	r3, #148
 4308 10dc 26D0     		beq	.L260
 4309 10de 2CE0     		b	.L255
 4310              	.L258:
1081:.\main.c      ****                             SetPicture(1,DISPLAY_IMPRESORA_NO_FUNCIONANDO);                        
 4311              		.loc 1 1081 0
 4312 10e0 1122     		movs	r2, #17
 4313 10e2 554B     		ldr	r3, .L305
 4314 10e4 1A60     		str	r2, [r3]
1082:.\main.c      ****                         break;
 4315              		.loc 1 1082 0
 4316 10e6 0120     		movs	r0, #1
 4317 10e8 6721     		movs	r1, #103
 4318 10ea FFF7FEFF 		bl	SetPicture
 4319              	.LVL421:
1083:.\main.c      ****                         case 0x39:  //Si funcionan
 4320              		.loc 1 1083 0
 4321 10ee 24E0     		b	.L255
 4322              	.L256:
1085:.\main.c      ****                             printPortA = 1;
 4323              		.loc 1 1085 0
 4324 10f0 0F22     		movs	r2, #15
 4325 10f2 514B     		ldr	r3, .L305
 4326 10f4 1A60     		str	r2, [r3]
1086:.\main.c      ****                             printPortB = 2;
 4327              		.loc 1 1086 0
 4328 10f6 0124     		movs	r4, #1
 4329 10f8 534B     		ldr	r3, .L305+16
 4330 10fa 1C70     		strb	r4, [r3]
1087:.\main.c      ****                             EEPROM_1_WriteByte(printPortA,8);
 4331              		.loc 1 1087 0
 4332 10fc 534D     		ldr	r5, .L305+20
 4333 10fe 0223     		movs	r3, #2
 4334 1100 2B70     		strb	r3, [r5]
1088:.\main.c      ****                             EEPROM_1_WriteByte(printPortB,9);
 4335              		.loc 1 1088 0
 4336 1102 2046     		mov	r0, r4
 4337 1104 0821     		movs	r1, #8
 4338 1106 FFF7FEFF 		bl	EEPROM_1_WriteByte
 4339              	.LVL422:
1089:.\main.c      ****                             SetPicture(1,DISPLAY_CONFIGURACIONES);
 4340              		.loc 1 1089 0
 4341 110a 2878     		ldrb	r0, [r5]	@ zero_extendqisi2
 4342 110c 0921     		movs	r1, #9
 4343 110e FFF7FEFF 		bl	EEPROM_1_WriteByte
 4344              	.LVL423:
1090:.\main.c      ****                         break;
ARM GAS  C:\Users\RECEPC~1\AppData\Local\Temp\cc6Stwwd.s 			page 127


 4345              		.loc 1 1090 0
 4346 1112 2046     		mov	r0, r4
 4347 1114 5A21     		movs	r1, #90
 4348 1116 FFF7FEFF 		bl	SetPicture
 4349              	.LVL424:
1091:.\main.c      ****                                                
 4350              		.loc 1 1091 0
 4351 111a 0EE0     		b	.L255
 4352              	.L259:
1094:.\main.c      ****                             flowDisplay1 = 0;
 4353              		.loc 1 1094 0
 4354 111c 0120     		movs	r0, #1
 4355 111e 0146     		mov	r1, r0
 4356 1120 FFF7FEFF 		bl	SetPicture
 4357              	.LVL425:
1095:.\main.c      ****                         break;
 4358              		.loc 1 1095 0
 4359 1124 0022     		movs	r2, #0
 4360 1126 444B     		ldr	r3, .L305
 4361 1128 1A60     		str	r2, [r3]
1096:.\main.c      ****                         case 0x94:  //Pantalla Inicial                                             
 4362              		.loc 1 1096 0
 4363 112a 06E0     		b	.L255
 4364              	.L260:
1098:.\main.c      ****                             flowDisplay1 = 0;
 4365              		.loc 1 1098 0
 4366 112c 0120     		movs	r0, #1
 4367 112e 0146     		mov	r1, r0
 4368 1130 FFF7FEFF 		bl	SetPicture
 4369              	.LVL426:
1099:.\main.c      ****                         break;
 4370              		.loc 1 1099 0
 4371 1134 0022     		movs	r2, #0
 4372 1136 404B     		ldr	r3, .L305
 4373 1138 1A60     		str	r2, [r3]
 4374              	.L255:
1103:.\main.c      ****                 Display1_ClearRxBuffer();
 4375              		.loc 1 1103 0
 4376 113a 0A20     		movs	r0, #10
 4377 113c FFF7FEFF 		bl	CyDelay
 4378              	.LVL427:
1104:.\main.c      ****             }                        
 4379              		.loc 1 1104 0
 4380 1140 FFF7FEFF 		bl	Display1_ClearRxBuffer
 4381              	.LVL428:
 4382 1144 5DE1     		b	.L85
 4383              	.L105:
1109:.\main.c      ****                 if((Display1_rxBuffer[0]==0xAA) && (Display1_rxBuffer[6]==0xC3) && (Display1_rxBuff
 4384              		.loc 1 1109 0
 4385 1146 FFF7FEFF 		bl	Display1_GetRxBufferSize
 4386              	.LVL429:
 4387 114a 0828     		cmp	r0, #8
 4388 114c 40F05981 		bne	.L85
1110:.\main.c      ****                     switch(Display1_rxBuffer[3]){
 4389              		.loc 1 1110 0
 4390 1150 3C4B     		ldr	r3, .L305+12
 4391 1152 1B78     		ldrb	r3, [r3]	@ zero_extendqisi2
ARM GAS  C:\Users\RECEPC~1\AppData\Local\Temp\cc6Stwwd.s 			page 128


 4392 1154 DBB2     		uxtb	r3, r3
 4393 1156 AA2B     		cmp	r3, #170
 4394 1158 68D1     		bne	.L261
1110:.\main.c      ****                     switch(Display1_rxBuffer[3]){
 4395              		.loc 1 1110 0 is_stmt 0 discriminator 1
 4396 115a 3A4B     		ldr	r3, .L305+12
 4397 115c 9B79     		ldrb	r3, [r3, #6]	@ zero_extendqisi2
 4398 115e DBB2     		uxtb	r3, r3
 4399 1160 C32B     		cmp	r3, #195
 4400 1162 63D1     		bne	.L261
1110:.\main.c      ****                     switch(Display1_rxBuffer[3]){
 4401              		.loc 1 1110 0 discriminator 2
 4402 1164 374B     		ldr	r3, .L305+12
 4403 1166 DB79     		ldrb	r3, [r3, #7]	@ zero_extendqisi2
 4404 1168 DBB2     		uxtb	r3, r3
 4405 116a 3C2B     		cmp	r3, #60
 4406 116c 5ED1     		bne	.L261
1111:.\main.c      ****                         case 0x8C:  //1 no funciona  
 4407              		.loc 1 1111 0 is_stmt 1
 4408 116e 354B     		ldr	r3, .L305+12
 4409 1170 DB78     		ldrb	r3, [r3, #3]	@ zero_extendqisi2
 4410 1172 7E3B     		subs	r3, r3, #126
 4411 1174 162B     		cmp	r3, #22
 4412 1176 59D8     		bhi	.L261
 4413 1178 DFE803F0 		tbb	[pc, r3]
 4414              	.L263:
 4415 117c 49       		.byte	(.L262-.L263)/2
 4416 117d 58       		.byte	(.L261-.L263)/2
 4417 117e 58       		.byte	(.L261-.L263)/2
 4418 117f 58       		.byte	(.L261-.L263)/2
 4419 1180 58       		.byte	(.L261-.L263)/2
 4420 1181 58       		.byte	(.L261-.L263)/2
 4421 1182 58       		.byte	(.L261-.L263)/2
 4422 1183 58       		.byte	(.L261-.L263)/2
 4423 1184 58       		.byte	(.L261-.L263)/2
 4424 1185 58       		.byte	(.L261-.L263)/2
 4425 1186 58       		.byte	(.L261-.L263)/2
 4426 1187 58       		.byte	(.L261-.L263)/2
 4427 1188 58       		.byte	(.L261-.L263)/2
 4428 1189 58       		.byte	(.L261-.L263)/2
 4429 118a 0C       		.byte	(.L264-.L263)/2
 4430 118b 20       		.byte	(.L265-.L263)/2
 4431 118c 35       		.byte	(.L266-.L263)/2
 4432 118d 58       		.byte	(.L261-.L263)/2
 4433 118e 58       		.byte	(.L261-.L263)/2
 4434 118f 58       		.byte	(.L261-.L263)/2
 4435 1190 58       		.byte	(.L261-.L263)/2
 4436 1191 58       		.byte	(.L261-.L263)/2
 4437 1192 51       		.byte	(.L267-.L263)/2
 4438 1193 00       		.p2align 1
 4439              	.L264:
1113:.\main.c      ****                             printPortA = 2;
 4440              		.loc 1 1113 0
 4441 1194 0F22     		movs	r2, #15
 4442 1196 284B     		ldr	r3, .L305
 4443 1198 1A60     		str	r2, [r3]
1114:.\main.c      ****                             printPortB = 2;
ARM GAS  C:\Users\RECEPC~1\AppData\Local\Temp\cc6Stwwd.s 			page 129


 4444              		.loc 1 1114 0
 4445 119a 0220     		movs	r0, #2
 4446 119c 2A4B     		ldr	r3, .L305+16
 4447 119e 1870     		strb	r0, [r3]
1115:.\main.c      ****                             EEPROM_1_WriteByte(printPortA,8);
 4448              		.loc 1 1115 0
 4449 11a0 2A4C     		ldr	r4, .L305+20
 4450 11a2 2070     		strb	r0, [r4]
1116:.\main.c      ****                             EEPROM_1_WriteByte(printPortB,9);
 4451              		.loc 1 1116 0
 4452 11a4 0821     		movs	r1, #8
 4453 11a6 FFF7FEFF 		bl	EEPROM_1_WriteByte
 4454              	.LVL430:
1117:.\main.c      ****                             SetPicture(1,DISPLAY_CONFIGURACIONES);                            
 4455              		.loc 1 1117 0
 4456 11aa 2078     		ldrb	r0, [r4]	@ zero_extendqisi2
 4457 11ac 0921     		movs	r1, #9
 4458 11ae FFF7FEFF 		bl	EEPROM_1_WriteByte
 4459              	.LVL431:
1118:.\main.c      ****                         break;
 4460              		.loc 1 1118 0
 4461 11b2 0120     		movs	r0, #1
 4462 11b4 5A21     		movs	r1, #90
 4463 11b6 FFF7FEFF 		bl	SetPicture
 4464              	.LVL432:
1119:.\main.c      ****                         case 0x8D:  //2 no funciona
 4465              		.loc 1 1119 0
 4466 11ba 37E0     		b	.L261
 4467              	.L265:
1121:.\main.c      ****                             printPortA = 1;
 4468              		.loc 1 1121 0
 4469 11bc 0F22     		movs	r2, #15
 4470 11be 1E4B     		ldr	r3, .L305
 4471 11c0 1A60     		str	r2, [r3]
1122:.\main.c      ****                             printPortB = 1;
 4472              		.loc 1 1122 0
 4473 11c2 0124     		movs	r4, #1
 4474 11c4 204B     		ldr	r3, .L305+16
 4475 11c6 1C70     		strb	r4, [r3]
1123:.\main.c      ****                             EEPROM_1_WriteByte(printPortA,8);
 4476              		.loc 1 1123 0
 4477 11c8 204D     		ldr	r5, .L305+20
 4478 11ca 2C70     		strb	r4, [r5]
1124:.\main.c      ****                             EEPROM_1_WriteByte(printPortB,9);
 4479              		.loc 1 1124 0
 4480 11cc 2046     		mov	r0, r4
 4481 11ce 0821     		movs	r1, #8
 4482 11d0 FFF7FEFF 		bl	EEPROM_1_WriteByte
 4483              	.LVL433:
1125:.\main.c      ****                             SetPicture(1,DISPLAY_CONFIGURACIONES); 
 4484              		.loc 1 1125 0
 4485 11d4 2878     		ldrb	r0, [r5]	@ zero_extendqisi2
 4486 11d6 0921     		movs	r1, #9
 4487 11d8 FFF7FEFF 		bl	EEPROM_1_WriteByte
 4488              	.LVL434:
1126:.\main.c      ****                         break;
 4489              		.loc 1 1126 0
ARM GAS  C:\Users\RECEPC~1\AppData\Local\Temp\cc6Stwwd.s 			page 130


 4490 11dc 2046     		mov	r0, r4
 4491 11de 5A21     		movs	r1, #90
 4492 11e0 FFF7FEFF 		bl	SetPicture
 4493              	.LVL435:
1127:.\main.c      ****                             
 4494              		.loc 1 1127 0
 4495 11e4 22E0     		b	.L261
 4496              	.L266:
1130:.\main.c      ****                             printPortA = 0;
 4497              		.loc 1 1130 0
 4498 11e6 0F22     		movs	r2, #15
 4499 11e8 134B     		ldr	r3, .L305
 4500 11ea 1A60     		str	r2, [r3]
1131:.\main.c      ****                             printPortB = 0;
 4501              		.loc 1 1131 0
 4502 11ec 0020     		movs	r0, #0
 4503 11ee 164B     		ldr	r3, .L305+16
 4504 11f0 1870     		strb	r0, [r3]
1132:.\main.c      ****                             EEPROM_1_WriteByte(printPortA,8);
 4505              		.loc 1 1132 0
 4506 11f2 164C     		ldr	r4, .L305+20
 4507 11f4 2070     		strb	r0, [r4]
1133:.\main.c      ****                             EEPROM_1_WriteByte(printPortB,9);
 4508              		.loc 1 1133 0
 4509 11f6 0821     		movs	r1, #8
 4510 11f8 FFF7FEFF 		bl	EEPROM_1_WriteByte
 4511              	.LVL436:
1134:.\main.c      ****                             SetPicture(1,DISPLAY_CONFIGURACIONES); 
 4512              		.loc 1 1134 0
 4513 11fc 2078     		ldrb	r0, [r4]	@ zero_extendqisi2
 4514 11fe 0921     		movs	r1, #9
 4515 1200 FFF7FEFF 		bl	EEPROM_1_WriteByte
 4516              	.LVL437:
1135:.\main.c      ****                         break;
 4517              		.loc 1 1135 0
 4518 1204 0120     		movs	r0, #1
 4519 1206 5A21     		movs	r1, #90
 4520 1208 FFF7FEFF 		bl	SetPicture
 4521              	.LVL438:
1136:.\main.c      ****                                                
 4522              		.loc 1 1136 0
 4523 120c 0EE0     		b	.L261
 4524              	.L262:
1139:.\main.c      ****                             flowDisplay1 = 0;
 4525              		.loc 1 1139 0
 4526 120e 0120     		movs	r0, #1
 4527 1210 0146     		mov	r1, r0
 4528 1212 FFF7FEFF 		bl	SetPicture
 4529              	.LVL439:
1140:.\main.c      ****                         break;
 4530              		.loc 1 1140 0
 4531 1216 0022     		movs	r2, #0
 4532 1218 074B     		ldr	r3, .L305
 4533 121a 1A60     		str	r2, [r3]
1141:.\main.c      ****                         case 0x94:  //Pantalla Inicial                                             
 4534              		.loc 1 1141 0
 4535 121c 06E0     		b	.L261
ARM GAS  C:\Users\RECEPC~1\AppData\Local\Temp\cc6Stwwd.s 			page 131


 4536              	.L267:
1143:.\main.c      ****                             flowDisplay1 = 0;
 4537              		.loc 1 1143 0
 4538 121e 0120     		movs	r0, #1
 4539 1220 0146     		mov	r1, r0
 4540 1222 FFF7FEFF 		bl	SetPicture
 4541              	.LVL440:
1144:.\main.c      ****                         break;
 4542              		.loc 1 1144 0
 4543 1226 0022     		movs	r2, #0
 4544 1228 034B     		ldr	r3, .L305
 4545 122a 1A60     		str	r2, [r3]
 4546              	.L261:
1148:.\main.c      ****                 Display1_ClearRxBuffer();
 4547              		.loc 1 1148 0
 4548 122c 0A20     		movs	r0, #10
 4549 122e FFF7FEFF 		bl	CyDelay
 4550              	.LVL441:
1149:.\main.c      ****             }                        
 4551              		.loc 1 1149 0
 4552 1232 FFF7FEFF 		bl	Display1_ClearRxBuffer
 4553              	.LVL442:
 4554 1236 E4E0     		b	.L85
 4555              	.L306:
 4556              		.align	2
 4557              	.L305:
 4558 1238 00000000 		.word	flowDisplay1
 4559 123c 00000000 		.word	numberKeys1
 4560 1240 00000000 		.word	bufferDisplay1
 4561 1244 00000000 		.word	Display1_rxBuffer
 4562 1248 00000000 		.word	printPortA
 4563 124c 00000000 		.word	printPortB
 4564              	.L106:
1154:.\main.c      ****                 WriteLCD(1,(((timeDownHandle[1]&0x10)>>4)+48),13,8,1,0x0000,'N');
 4565              		.loc 1 1154 0
 4566 1250 FFF7FEFF 		bl	leer_hora
 4567              	.LVL443:
 4568 1254 0128     		cmp	r0, #1
 4569 1256 3CD1     		bne	.L268
1155:.\main.c      ****                 WriteLCD(1,((timeDownHandle[1]&0x0F)+48),13,9,1,0x0000,'N');
 4570              		.loc 1 1155 0
 4571 1258 6B4F     		ldr	r7, .L307
 4572 125a 7978     		ldrb	r1, [r7, #1]	@ zero_extendqisi2
 4573 125c C1F30011 		ubfx	r1, r1, #4, #1
 4574 1260 3031     		adds	r1, r1, #48
 4575 1262 0124     		movs	r4, #1
 4576 1264 0094     		str	r4, [sp]
 4577 1266 0026     		movs	r6, #0
 4578 1268 0196     		str	r6, [sp, #4]
 4579 126a 4E25     		movs	r5, #78
 4580 126c 0295     		str	r5, [sp, #8]
 4581 126e 2046     		mov	r0, r4
 4582 1270 C9B2     		uxtb	r1, r1
 4583 1272 0D22     		movs	r2, #13
 4584 1274 0823     		movs	r3, #8
 4585 1276 FFF7FEFF 		bl	WriteLCD
 4586              	.LVL444:
ARM GAS  C:\Users\RECEPC~1\AppData\Local\Temp\cc6Stwwd.s 			page 132


1156:.\main.c      ****                 WriteLCD(1,':',13,10,1,0x0000,'N');
 4587              		.loc 1 1156 0
 4588 127a 7978     		ldrb	r1, [r7, #1]	@ zero_extendqisi2
 4589 127c 01F00F01 		and	r1, r1, #15
 4590 1280 0094     		str	r4, [sp]
 4591 1282 0196     		str	r6, [sp, #4]
 4592 1284 0295     		str	r5, [sp, #8]
 4593 1286 2046     		mov	r0, r4
 4594 1288 3031     		adds	r1, r1, #48
 4595 128a 0D22     		movs	r2, #13
 4596 128c 0923     		movs	r3, #9
 4597 128e FFF7FEFF 		bl	WriteLCD
 4598              	.LVL445:
1157:.\main.c      ****                 WriteLCD(1,(((timeDownHandle[0]&0xF0)>>4)+48),13,11,1,0x0000,'N');
 4599              		.loc 1 1157 0
 4600 1292 0094     		str	r4, [sp]
 4601 1294 0196     		str	r6, [sp, #4]
 4602 1296 0295     		str	r5, [sp, #8]
 4603 1298 2046     		mov	r0, r4
 4604 129a 3A21     		movs	r1, #58
 4605 129c 0D22     		movs	r2, #13
 4606 129e 0A23     		movs	r3, #10
 4607 12a0 FFF7FEFF 		bl	WriteLCD
 4608              	.LVL446:
1158:.\main.c      ****                 WriteLCD(1,((timeDownHandle[0]&0x0F)+48),13,12,1,0x0000,'N');               
 4609              		.loc 1 1158 0
 4610 12a4 3978     		ldrb	r1, [r7]	@ zero_extendqisi2
 4611 12a6 0909     		lsrs	r1, r1, #4
 4612 12a8 0094     		str	r4, [sp]
 4613 12aa 0196     		str	r6, [sp, #4]
 4614 12ac 0295     		str	r5, [sp, #8]
 4615 12ae 2046     		mov	r0, r4
 4616 12b0 3031     		adds	r1, r1, #48
 4617 12b2 0D22     		movs	r2, #13
 4618 12b4 0B23     		movs	r3, #11
 4619 12b6 FFF7FEFF 		bl	WriteLCD
 4620              	.LVL447:
1159:.\main.c      ****             }
 4621              		.loc 1 1159 0
 4622 12ba 3978     		ldrb	r1, [r7]	@ zero_extendqisi2
 4623 12bc 01F00F01 		and	r1, r1, #15
 4624 12c0 0094     		str	r4, [sp]
 4625 12c2 0196     		str	r6, [sp, #4]
 4626 12c4 0295     		str	r5, [sp, #8]
 4627 12c6 2046     		mov	r0, r4
 4628 12c8 3031     		adds	r1, r1, #48
 4629 12ca 0D22     		movs	r2, #13
 4630 12cc 0C23     		movs	r3, #12
 4631 12ce FFF7FEFF 		bl	WriteLCD
 4632              	.LVL448:
 4633              	.L268:
1161:.\main.c      ****                 WriteLCD(1,(((dateDownHandle[0]&0x30)>>4)+48),21,8,1,0x0000,'N');
 4634              		.loc 1 1161 0
 4635 12d2 FFF7FEFF 		bl	leer_fecha
 4636              	.LVL449:
 4637 12d6 0128     		cmp	r0, #1
 4638 12d8 5DD1     		bne	.L269
ARM GAS  C:\Users\RECEPC~1\AppData\Local\Temp\cc6Stwwd.s 			page 133


1162:.\main.c      ****                 WriteLCD(1,((dateDownHandle[0]&0x0F)+48),21,9,1,0x0000,'N');
 4639              		.loc 1 1162 0
 4640 12da 4C4F     		ldr	r7, .L307+4
 4641 12dc 3978     		ldrb	r1, [r7]	@ zero_extendqisi2
 4642 12de C1F30111 		ubfx	r1, r1, #4, #2
 4643 12e2 0124     		movs	r4, #1
 4644 12e4 0094     		str	r4, [sp]
 4645 12e6 0026     		movs	r6, #0
 4646 12e8 0196     		str	r6, [sp, #4]
 4647 12ea 4E25     		movs	r5, #78
 4648 12ec 0295     		str	r5, [sp, #8]
 4649 12ee 2046     		mov	r0, r4
 4650 12f0 3031     		adds	r1, r1, #48
 4651 12f2 1522     		movs	r2, #21
 4652 12f4 0823     		movs	r3, #8
 4653 12f6 FFF7FEFF 		bl	WriteLCD
 4654              	.LVL450:
1163:.\main.c      ****                 WriteLCD(1,'/',21,10,1,0x0000,'N');
 4655              		.loc 1 1163 0
 4656 12fa 3978     		ldrb	r1, [r7]	@ zero_extendqisi2
 4657 12fc 01F00F01 		and	r1, r1, #15
 4658 1300 0094     		str	r4, [sp]
 4659 1302 0196     		str	r6, [sp, #4]
 4660 1304 0295     		str	r5, [sp, #8]
 4661 1306 2046     		mov	r0, r4
 4662 1308 3031     		adds	r1, r1, #48
 4663 130a 1522     		movs	r2, #21
 4664 130c 0923     		movs	r3, #9
 4665 130e FFF7FEFF 		bl	WriteLCD
 4666              	.LVL451:
1164:.\main.c      ****                 WriteLCD(1,(((dateDownHandle[1]&0x10)>>4)+48),21,11,1,0x0000,'N');
 4667              		.loc 1 1164 0
 4668 1312 0094     		str	r4, [sp]
 4669 1314 0196     		str	r6, [sp, #4]
 4670 1316 0295     		str	r5, [sp, #8]
 4671 1318 2046     		mov	r0, r4
 4672 131a 2F21     		movs	r1, #47
 4673 131c 1522     		movs	r2, #21
 4674 131e 0A23     		movs	r3, #10
 4675 1320 FFF7FEFF 		bl	WriteLCD
 4676              	.LVL452:
1165:.\main.c      ****                 WriteLCD(1,((dateDownHandle[1]&0x0F)+48),21,12,1,0x0000,'N');
 4677              		.loc 1 1165 0
 4678 1324 7978     		ldrb	r1, [r7, #1]	@ zero_extendqisi2
 4679 1326 C1F30011 		ubfx	r1, r1, #4, #1
 4680 132a 3031     		adds	r1, r1, #48
 4681 132c 0094     		str	r4, [sp]
 4682 132e 0196     		str	r6, [sp, #4]
 4683 1330 0295     		str	r5, [sp, #8]
 4684 1332 2046     		mov	r0, r4
 4685 1334 C9B2     		uxtb	r1, r1
 4686 1336 1522     		movs	r2, #21
 4687 1338 0B23     		movs	r3, #11
 4688 133a FFF7FEFF 		bl	WriteLCD
 4689              	.LVL453:
1166:.\main.c      ****                 WriteLCD(1,'/',21,13,1,0x0000,'N');
 4690              		.loc 1 1166 0
ARM GAS  C:\Users\RECEPC~1\AppData\Local\Temp\cc6Stwwd.s 			page 134


 4691 133e 7978     		ldrb	r1, [r7, #1]	@ zero_extendqisi2
 4692 1340 01F00F01 		and	r1, r1, #15
 4693 1344 0094     		str	r4, [sp]
 4694 1346 0196     		str	r6, [sp, #4]
 4695 1348 0295     		str	r5, [sp, #8]
 4696 134a 2046     		mov	r0, r4
 4697 134c 3031     		adds	r1, r1, #48
 4698 134e 1522     		movs	r2, #21
 4699 1350 0C23     		movs	r3, #12
 4700 1352 FFF7FEFF 		bl	WriteLCD
 4701              	.LVL454:
1167:.\main.c      ****                 WriteLCD(1,(((dateDownHandle[2]&0xF0)>>4)+48),21,14,1,0x0000,'N');
 4702              		.loc 1 1167 0
 4703 1356 0094     		str	r4, [sp]
 4704 1358 0196     		str	r6, [sp, #4]
 4705 135a 0295     		str	r5, [sp, #8]
 4706 135c 2046     		mov	r0, r4
 4707 135e 2F21     		movs	r1, #47
 4708 1360 1522     		movs	r2, #21
 4709 1362 0D23     		movs	r3, #13
 4710 1364 FFF7FEFF 		bl	WriteLCD
 4711              	.LVL455:
1168:.\main.c      ****                 WriteLCD(1,((dateDownHandle[2]&0x0F)+48),21,15,1,0x0000,'N');
 4712              		.loc 1 1168 0
 4713 1368 B978     		ldrb	r1, [r7, #2]	@ zero_extendqisi2
 4714 136a 0909     		lsrs	r1, r1, #4
 4715 136c 0094     		str	r4, [sp]
 4716 136e 0196     		str	r6, [sp, #4]
 4717 1370 0295     		str	r5, [sp, #8]
 4718 1372 2046     		mov	r0, r4
 4719 1374 3031     		adds	r1, r1, #48
 4720 1376 1522     		movs	r2, #21
 4721 1378 0E23     		movs	r3, #14
 4722 137a FFF7FEFF 		bl	WriteLCD
 4723              	.LVL456:
1169:.\main.c      ****             }
 4724              		.loc 1 1169 0
 4725 137e B978     		ldrb	r1, [r7, #2]	@ zero_extendqisi2
 4726 1380 01F00F01 		and	r1, r1, #15
 4727 1384 0094     		str	r4, [sp]
 4728 1386 0196     		str	r6, [sp, #4]
 4729 1388 0295     		str	r5, [sp, #8]
 4730 138a 2046     		mov	r0, r4
 4731 138c 3031     		adds	r1, r1, #48
 4732 138e 1522     		movs	r2, #21
 4733 1390 0F23     		movs	r3, #15
 4734 1392 FFF7FEFF 		bl	WriteLCD
 4735              	.LVL457:
 4736              	.L269:
1171:.\main.c      ****                 if((Display1_rxBuffer[0]==0xAA) && (Display1_rxBuffer[6]==0xC3) && (Display1_rxBuff
 4737              		.loc 1 1171 0
 4738 1396 FFF7FEFF 		bl	Display1_GetRxBufferSize
 4739              	.LVL458:
 4740 139a 0828     		cmp	r0, #8
 4741 139c 31D1     		bne	.L85
1172:.\main.c      ****                     switch(Display1_rxBuffer[3]){                                                  
 4742              		.loc 1 1172 0
ARM GAS  C:\Users\RECEPC~1\AppData\Local\Temp\cc6Stwwd.s 			page 135


 4743 139e 1C4B     		ldr	r3, .L307+8
 4744 13a0 1B78     		ldrb	r3, [r3]	@ zero_extendqisi2
 4745 13a2 DBB2     		uxtb	r3, r3
 4746 13a4 AA2B     		cmp	r3, #170
 4747 13a6 20D1     		bne	.L270
1172:.\main.c      ****                     switch(Display1_rxBuffer[3]){                                                  
 4748              		.loc 1 1172 0 is_stmt 0 discriminator 1
 4749 13a8 194B     		ldr	r3, .L307+8
 4750 13aa 9B79     		ldrb	r3, [r3, #6]	@ zero_extendqisi2
 4751 13ac DBB2     		uxtb	r3, r3
 4752 13ae C32B     		cmp	r3, #195
 4753 13b0 1BD1     		bne	.L270
1172:.\main.c      ****                     switch(Display1_rxBuffer[3]){                                                  
 4754              		.loc 1 1172 0 discriminator 2
 4755 13b2 174B     		ldr	r3, .L307+8
 4756 13b4 DB79     		ldrb	r3, [r3, #7]	@ zero_extendqisi2
 4757 13b6 DBB2     		uxtb	r3, r3
 4758 13b8 3C2B     		cmp	r3, #60
 4759 13ba 16D1     		bne	.L270
1173:.\main.c      ****                         case 0x7E:  //Pantalla Inicial  
 4760              		.loc 1 1173 0 is_stmt 1
 4761 13bc 144B     		ldr	r3, .L307+8
 4762 13be DB78     		ldrb	r3, [r3, #3]	@ zero_extendqisi2
 4763 13c0 DBB2     		uxtb	r3, r3
 4764 13c2 7E2B     		cmp	r3, #126
 4765 13c4 02D0     		beq	.L271
 4766 13c6 942B     		cmp	r3, #148
 4767 13c8 08D0     		beq	.L272
 4768 13ca 0EE0     		b	.L270
 4769              	.L271:
1175:.\main.c      ****                             SetPicture(1,DISPLAY_INICIO0);                            
 4770              		.loc 1 1175 0
 4771 13cc 0022     		movs	r2, #0
 4772 13ce 114B     		ldr	r3, .L307+12
 4773 13d0 1A60     		str	r2, [r3]
1176:.\main.c      ****                         break;
 4774              		.loc 1 1176 0
 4775 13d2 0120     		movs	r0, #1
 4776 13d4 0146     		mov	r1, r0
 4777 13d6 FFF7FEFF 		bl	SetPicture
 4778              	.LVL459:
1177:.\main.c      ****                         case 0x94:  //Pantalla Inicial    
 4779              		.loc 1 1177 0
 4780 13da 06E0     		b	.L270
 4781              	.L272:
1179:.\main.c      ****                             SetPicture(1,DISPLAY_INICIO0);                            
 4782              		.loc 1 1179 0
 4783 13dc 0022     		movs	r2, #0
 4784 13de 0D4B     		ldr	r3, .L307+12
 4785 13e0 1A60     		str	r2, [r3]
1180:.\main.c      ****                         break;
 4786              		.loc 1 1180 0
 4787 13e2 0120     		movs	r0, #1
 4788 13e4 0146     		mov	r1, r0
 4789 13e6 FFF7FEFF 		bl	SetPicture
 4790              	.LVL460:
 4791              	.L270:
ARM GAS  C:\Users\RECEPC~1\AppData\Local\Temp\cc6Stwwd.s 			page 136


1184:.\main.c      ****                 Display1_ClearRxBuffer();
 4792              		.loc 1 1184 0
 4793 13ea 0A20     		movs	r0, #10
 4794 13ec FFF7FEFF 		bl	CyDelay
 4795              	.LVL461:
1185:.\main.c      ****             }                        
 4796              		.loc 1 1185 0
 4797 13f0 FFF7FEFF 		bl	Display1_ClearRxBuffer
 4798              	.LVL462:
 4799 13f4 05E0     		b	.L85
 4800              	.L107:
1190:.\main.c      ****             ShiftState =1;
 4801              		.loc 1 1190 0
 4802 13f6 0123     		movs	r3, #1
 4803 13f8 074A     		ldr	r2, .L307+16
 4804 13fa 82F80731 		strb	r3, [r2, #263]
1191:.\main.c      ****         break;
 4805              		.loc 1 1191 0
 4806 13fe 074A     		ldr	r2, .L307+20
 4807 1400 1370     		strb	r3, [r2]
 4808              	.L85:
1195:.\main.c      **** 
 4809              		.loc 1 1195 0
 4810 1402 05B0     		add	sp, sp, #20
 4811              		.cfi_def_cfa_offset 20
 4812              		@ sp needed
 4813 1404 F0BD     		pop	{r4, r5, r6, r7, pc}
 4814              	.L308:
 4815 1406 00BF     		.align	2
 4816              	.L307:
 4817 1408 00000000 		.word	timeDownHandle
 4818 140c 00000000 		.word	dateDownHandle
 4819 1410 00000000 		.word	Display1_rxBuffer
 4820 1414 00000000 		.word	flowDisplay1
 4821 1418 00000000 		.word	side
 4822 141c 00000000 		.word	ShiftState
 4823              		.cfi_endproc
 4824              	.LFE71:
 4825              		.size	PollingDisplay1, .-PollingDisplay1
 4826              		.section	.text.PollingDisplay2,"ax",%progbits
 4827              		.align	2
 4828              		.global	PollingDisplay2
 4829              		.thumb
 4830              		.thumb_func
 4831              		.type	PollingDisplay2, %function
 4832              	PollingDisplay2:
 4833              	.LFB72:
1207:.\main.c      ****     uint8 x,y;     
 4834              		.loc 1 1207 0
 4835              		.cfi_startproc
 4836              		@ args = 0, pretend = 0, frame = 0
 4837              		@ frame_needed = 0, uses_anonymous_args = 0
 4838 0000 F0B5     		push	{r4, r5, r6, r7, lr}
 4839              		.cfi_def_cfa_offset 20
 4840              		.cfi_offset 4, -20
 4841              		.cfi_offset 5, -16
 4842              		.cfi_offset 6, -12
ARM GAS  C:\Users\RECEPC~1\AppData\Local\Temp\cc6Stwwd.s 			page 137


 4843              		.cfi_offset 7, -8
 4844              		.cfi_offset 14, -4
 4845 0002 85B0     		sub	sp, sp, #20
 4846              		.cfi_def_cfa_offset 40
1209:.\main.c      ****         case 0:
 4847              		.loc 1 1209 0
 4848 0004 AC4B     		ldr	r3, .L515
 4849 0006 1B68     		ldr	r3, [r3]
 4850 0008 132B     		cmp	r3, #19
 4851 000a 01F2F281 		bhi	.L309
 4852 000e DFE813F0 		tbh	[pc, r3, lsl #1]
 4853              	.L312:
 4854 0012 1400     		.2byte	(.L311-.L312)/2
 4855 0014 2D00     		.2byte	(.L313-.L312)/2
 4856 0016 7000     		.2byte	(.L314-.L312)/2
 4857 0018 CC00     		.2byte	(.L315-.L312)/2
 4858 001a 9701     		.2byte	(.L316-.L312)/2
 4859 001c C501     		.2byte	(.L317-.L312)/2
 4860 001e 4302     		.2byte	(.L318-.L312)/2
 4861 0020 BB02     		.2byte	(.L319-.L312)/2
 4862 0022 2E03     		.2byte	(.L320-.L312)/2
 4863 0024 B403     		.2byte	(.L321-.L312)/2
 4864 0026 8C04     		.2byte	(.L322-.L312)/2
 4865 0028 E004     		.2byte	(.L323-.L312)/2
 4866 002a 6605     		.2byte	(.L324-.L312)/2
 4867 002c F305     		.2byte	(.L325-.L312)/2
 4868 002e 4806     		.2byte	(.L326-.L312)/2
 4869 0030 9D07     		.2byte	(.L327-.L312)/2
 4870 0032 4108     		.2byte	(.L328-.L312)/2
 4871 0034 9508     		.2byte	(.L329-.L312)/2
 4872 0036 1709     		.2byte	(.L330-.L312)/2
 4873 0038 EA09     		.2byte	(.L331-.L312)/2
 4874              		.p2align 1
 4875              	.L311:
1211:.\main.c      ****             flowDisplay2 =1;
 4876              		.loc 1 1211 0
 4877 003a FFF7FEFF 		bl	InitDisplay2
 4878              	.LVL463:
1212:.\main.c      ****             side.b.rfState = RF_IDLE;
 4879              		.loc 1 1212 0
 4880 003e 0122     		movs	r2, #1
 4881 0040 9D4B     		ldr	r3, .L515
 4882 0042 1A60     		str	r2, [r3]
1213:.\main.c      ****             isr_4_Stop(); 
 4883              		.loc 1 1213 0
 4884 0044 9D4C     		ldr	r4, .L515+4
 4885 0046 0823     		movs	r3, #8
 4886 0048 84F81532 		strb	r3, [r4, #533]
1214:.\main.c      ****             Timer_Animacion2_Stop();
 4887              		.loc 1 1214 0
 4888 004c FFF7FEFF 		bl	isr_4_Stop
 4889              	.LVL464:
1215:.\main.c      ****             count_protector2 = 0;
 4890              		.loc 1 1215 0
 4891 0050 FFF7FEFF 		bl	Timer_Animacion2_Stop
 4892              	.LVL465:
1216:.\main.c      ****             bufferDisplay2.saleType = 0;
ARM GAS  C:\Users\RECEPC~1\AppData\Local\Temp\cc6Stwwd.s 			page 138


 4893              		.loc 1 1216 0
 4894 0054 0023     		movs	r3, #0
 4895 0056 9A4A     		ldr	r2, .L515+8
 4896 0058 1370     		strb	r3, [r2]
1217:.\main.c      ****             bufferDisplay2.flagEndSale = false;  
 4897              		.loc 1 1217 0
 4898 005a 9A4A     		ldr	r2, .L515+12
 4899 005c 82F86130 		strb	r3, [r2, #97]
1218:.\main.c      **** 			side.b.RFstateReport = 0;
 4900              		.loc 1 1218 0
 4901 0060 82F80331 		strb	r3, [r2, #259]
1219:.\main.c      ****         break;
 4902              		.loc 1 1219 0
 4903 0064 84F81932 		strb	r3, [r4, #537]
1220:.\main.c      ****         case 1: //Menu
 4904              		.loc 1 1220 0
 4905 0068 01F0C3B9 		b	.L309
 4906              	.L313:
1222:.\main.c      **** 			if(countRX >700){
 4907              		.loc 1 1222 0
 4908 006c 0220     		movs	r0, #2
 4909 006e 2321     		movs	r1, #35
 4910 0070 FFF7FEFF 		bl	ShowRectangle
 4911              	.LVL466:
1223:.\main.c      ****                 if(bufferDisplay2.flagPrint)
 4912              		.loc 1 1223 0
 4913 0074 944B     		ldr	r3, .L515+16
 4914 0076 D3E90023 		ldrd	r2, [r3]
 4915 007a 4FF42F70 		mov	r0, #700
 4916 007e 0021     		movs	r1, #0
 4917 0080 9942     		cmp	r1, r3
 4918 0082 08BF     		it	eq
 4919 0084 9042     		cmpeq	r0, r2
 4920 0086 0FD2     		bcs	.L332
1224:.\main.c      ****                     imprimir(printPortB,side.b.dir);
 4921              		.loc 1 1224 0
 4922 0088 8E4B     		ldr	r3, .L515+12
 4923 008a 93F83431 		ldrb	r3, [r3, #308]	@ zero_extendqisi2
 4924 008e 33B1     		cbz	r3, .L333
1225:.\main.c      ****                 countRX = 0;
 4925              		.loc 1 1225 0
 4926 0090 8E4B     		ldr	r3, .L515+20
 4927 0092 1878     		ldrb	r0, [r3]	@ zero_extendqisi2
 4928 0094 894B     		ldr	r3, .L515+4
 4929 0096 93F81211 		ldrb	r1, [r3, #274]	@ zero_extendqisi2
 4930 009a FFF7FEFF 		bl	imprimir
 4931              	.LVL467:
 4932              	.L333:
1226:.\main.c      ****             }
 4933              		.loc 1 1226 0
 4934 009e 0020     		movs	r0, #0
 4935 00a0 0021     		movs	r1, #0
 4936 00a2 894B     		ldr	r3, .L515+16
 4937 00a4 C3E90001 		strd	r0, [r3]
 4938              	.L332:
1228:.\main.c      ****             if(Display2_GetRxBufferSize()==8){
 4939              		.loc 1 1228 0
ARM GAS  C:\Users\RECEPC~1\AppData\Local\Temp\cc6Stwwd.s 			page 139


 4940 00a8 0822     		movs	r2, #8
 4941 00aa 844B     		ldr	r3, .L515+4
 4942 00ac 83F81522 		strb	r2, [r3, #533]
1229:.\main.c      ****                 if((Display2_rxBuffer[0]==0xAA) && (Display2_rxBuffer[6]==0xC3) && (Display2_rxBuff
 4943              		.loc 1 1229 0
 4944 00b0 FFF7FEFF 		bl	Display2_GetRxBufferSize
 4945              	.LVL468:
 4946 00b4 0828     		cmp	r0, #8
 4947 00b6 41F09C81 		bne	.L309
1230:.\main.c      ****                     flowDisplay2 = 2;      //Pantalla forma de pago                      
 4948              		.loc 1 1230 0
 4949 00ba 854B     		ldr	r3, .L515+24
 4950 00bc 1B78     		ldrb	r3, [r3]	@ zero_extendqisi2
 4951 00be DBB2     		uxtb	r3, r3
 4952 00c0 AA2B     		cmp	r3, #170
 4953 00c2 0FD1     		bne	.L334
1230:.\main.c      ****                     flowDisplay2 = 2;      //Pantalla forma de pago                      
 4954              		.loc 1 1230 0 is_stmt 0 discriminator 1
 4955 00c4 824B     		ldr	r3, .L515+24
 4956 00c6 9B79     		ldrb	r3, [r3, #6]	@ zero_extendqisi2
 4957 00c8 DBB2     		uxtb	r3, r3
 4958 00ca C32B     		cmp	r3, #195
 4959 00cc 0AD1     		bne	.L334
1230:.\main.c      ****                     flowDisplay2 = 2;      //Pantalla forma de pago                      
 4960              		.loc 1 1230 0 discriminator 2
 4961 00ce 804B     		ldr	r3, .L515+24
 4962 00d0 DB79     		ldrb	r3, [r3, #7]	@ zero_extendqisi2
 4963 00d2 DBB2     		uxtb	r3, r3
 4964 00d4 3C2B     		cmp	r3, #60
 4965 00d6 05D1     		bne	.L334
1231:.\main.c      ****                     SetPicture(2,DISPLAY_FORMA_PAGO_DESEADA);                                      
 4966              		.loc 1 1231 0 is_stmt 1
 4967 00d8 0220     		movs	r0, #2
 4968 00da 774B     		ldr	r3, .L515
 4969 00dc 1860     		str	r0, [r3]
1232:.\main.c      ****                 }  
 4970              		.loc 1 1232 0
 4971 00de 0421     		movs	r1, #4
 4972 00e0 FFF7FEFF 		bl	SetPicture
 4973              	.LVL469:
 4974              	.L334:
1234:.\main.c      ****                 Display2_ClearRxBuffer();
 4975              		.loc 1 1234 0
 4976 00e4 0A20     		movs	r0, #10
 4977 00e6 FFF7FEFF 		bl	CyDelay
 4978              	.LVL470:
1235:.\main.c      ****             }
 4979              		.loc 1 1235 0
 4980 00ea FFF7FEFF 		bl	Display2_ClearRxBuffer
 4981              	.LVL471:
 4982 00ee 01F080B9 		b	.L309
 4983              	.L314:
1239:.\main.c      ****                 if((Display2_rxBuffer[0]==0xAA) && (Display2_rxBuffer[6]==0xC3) && (Display2_rxBuff
 4984              		.loc 1 1239 0
 4985 00f2 FFF7FEFF 		bl	Display2_GetRxBufferSize
 4986              	.LVL472:
 4987 00f6 0828     		cmp	r0, #8
ARM GAS  C:\Users\RECEPC~1\AppData\Local\Temp\cc6Stwwd.s 			page 140


 4988 00f8 41F07B81 		bne	.L309
1240:.\main.c      ****                     switch(Display2_rxBuffer[3]){
 4989              		.loc 1 1240 0
 4990 00fc 744B     		ldr	r3, .L515+24
 4991 00fe 1B78     		ldrb	r3, [r3]	@ zero_extendqisi2
 4992 0100 DBB2     		uxtb	r3, r3
 4993 0102 AA2B     		cmp	r3, #170
 4994 0104 4AD1     		bne	.L335
1240:.\main.c      ****                     switch(Display2_rxBuffer[3]){
 4995              		.loc 1 1240 0 is_stmt 0 discriminator 1
 4996 0106 724B     		ldr	r3, .L515+24
 4997 0108 9B79     		ldrb	r3, [r3, #6]	@ zero_extendqisi2
 4998 010a DBB2     		uxtb	r3, r3
 4999 010c C32B     		cmp	r3, #195
 5000 010e 45D1     		bne	.L335
1240:.\main.c      ****                     switch(Display2_rxBuffer[3]){
 5001              		.loc 1 1240 0 discriminator 2
 5002 0110 6F4B     		ldr	r3, .L515+24
 5003 0112 DB79     		ldrb	r3, [r3, #7]	@ zero_extendqisi2
 5004 0114 DBB2     		uxtb	r3, r3
 5005 0116 3C2B     		cmp	r3, #60
 5006 0118 40D1     		bne	.L335
1241:.\main.c      ****                         case 0x0D:  //Pantalla efectivo              
 5007              		.loc 1 1241 0 is_stmt 1
 5008 011a 6D4B     		ldr	r3, .L515+24
 5009 011c DB78     		ldrb	r3, [r3, #3]	@ zero_extendqisi2
 5010 011e DBB2     		uxtb	r3, r3
 5011 0120 452B     		cmp	r3, #69
 5012 0122 24D0     		beq	.L336
 5013 0124 04D8     		bhi	.L337
 5014 0126 0D2B     		cmp	r3, #13
 5015 0128 07D0     		beq	.L338
 5016 012a 0E2B     		cmp	r3, #14
 5017 012c 11D0     		beq	.L339
 5018 012e 35E0     		b	.L335
 5019              	.L337:
 5020 0130 7E2B     		cmp	r3, #126
 5021 0132 2CD0     		beq	.L340
 5022 0134 942B     		cmp	r3, #148
 5023 0136 22D0     		beq	.L341
 5024 0138 30E0     		b	.L335
 5025              	.L338:
1243:.\main.c      ****                             bufferDisplay2.saleType = 1;
 5026              		.loc 1 1243 0
 5027 013a 0322     		movs	r2, #3
 5028 013c 5E4B     		ldr	r3, .L515
 5029 013e 1A60     		str	r2, [r3]
1244:.\main.c      ****                             SetPicture(2,DISPLAY_FORMA_PROGRAMACION);                            
 5030              		.loc 1 1244 0
 5031 0140 0122     		movs	r2, #1
 5032 0142 604B     		ldr	r3, .L515+12
 5033 0144 83F86120 		strb	r2, [r3, #97]
1245:.\main.c      ****                         break;
 5034              		.loc 1 1245 0
 5035 0148 0220     		movs	r0, #2
 5036 014a 0521     		movs	r1, #5
 5037 014c FFF7FEFF 		bl	SetPicture
ARM GAS  C:\Users\RECEPC~1\AppData\Local\Temp\cc6Stwwd.s 			page 141


 5038              	.LVL473:
1246:.\main.c      ****                         case 0x0E:  //Pantalla credito  
 5039              		.loc 1 1246 0
 5040 0150 24E0     		b	.L335
 5041              	.L339:
1248:.\main.c      ****                             bufferDisplay2.saleType = 2;
 5042              		.loc 1 1248 0
 5043 0152 0A22     		movs	r2, #10
 5044 0154 584B     		ldr	r3, .L515
 5045 0156 1A60     		str	r2, [r3]
1249:.\main.c      ****                             count_protector = 0;
 5046              		.loc 1 1249 0
 5047 0158 0220     		movs	r0, #2
 5048 015a 5A4B     		ldr	r3, .L515+12
 5049 015c 83F86100 		strb	r0, [r3, #97]
1250:.\main.c      ****                             SetPicture(2,DISPLAY_ID_DIGITAL);                            
 5050              		.loc 1 1250 0
 5051 0160 0022     		movs	r2, #0
 5052 0162 5C4B     		ldr	r3, .L515+28
 5053 0164 1A70     		strb	r2, [r3]
1251:.\main.c      ****                         break;
 5054              		.loc 1 1251 0
 5055 0166 8521     		movs	r1, #133
 5056 0168 FFF7FEFF 		bl	SetPicture
 5057              	.LVL474:
1252:.\main.c      ****                         case 0x45:  //Pantalla otras opciones 
 5058              		.loc 1 1252 0
 5059 016c 16E0     		b	.L335
 5060              	.L336:
1254:.\main.c      ****                             SetPicture(2,DISPLAY_OPERACIONES);                            
 5061              		.loc 1 1254 0
 5062 016e 0C22     		movs	r2, #12
 5063 0170 514B     		ldr	r3, .L515
 5064 0172 1A60     		str	r2, [r3]
1255:.\main.c      ****                         break;
 5065              		.loc 1 1255 0
 5066 0174 0220     		movs	r0, #2
 5067 0176 8321     		movs	r1, #131
 5068 0178 FFF7FEFF 		bl	SetPicture
 5069              	.LVL475:
1256:.\main.c      ****                             
 5070              		.loc 1 1256 0
 5071 017c 0EE0     		b	.L335
 5072              	.L341:
1259:.\main.c      ****                             SetPicture(2,DISPLAY_INICIO0);                            
 5073              		.loc 1 1259 0
 5074 017e 0022     		movs	r2, #0
 5075 0180 4D4B     		ldr	r3, .L515
 5076 0182 1A60     		str	r2, [r3]
1260:.\main.c      ****                         break;
 5077              		.loc 1 1260 0
 5078 0184 0220     		movs	r0, #2
 5079 0186 0121     		movs	r1, #1
 5080 0188 FFF7FEFF 		bl	SetPicture
 5081              	.LVL476:
1261:.\main.c      ****                         
 5082              		.loc 1 1261 0
ARM GAS  C:\Users\RECEPC~1\AppData\Local\Temp\cc6Stwwd.s 			page 142


 5083 018c 06E0     		b	.L335
 5084              	.L340:
1264:.\main.c      ****                             SetPicture(2,DISPLAY_INICIO0);                            
 5085              		.loc 1 1264 0
 5086 018e 0022     		movs	r2, #0
 5087 0190 494B     		ldr	r3, .L515
 5088 0192 1A60     		str	r2, [r3]
1265:.\main.c      ****                         break;
 5089              		.loc 1 1265 0
 5090 0194 0220     		movs	r0, #2
 5091 0196 0121     		movs	r1, #1
 5092 0198 FFF7FEFF 		bl	SetPicture
 5093              	.LVL477:
 5094              	.L335:
1269:.\main.c      ****                 Display2_ClearRxBuffer();
 5095              		.loc 1 1269 0
 5096 019c 0A20     		movs	r0, #10
 5097 019e FFF7FEFF 		bl	CyDelay
 5098              	.LVL478:
1270:.\main.c      ****             }
 5099              		.loc 1 1270 0
 5100 01a2 FFF7FEFF 		bl	Display2_ClearRxBuffer
 5101              	.LVL479:
 5102 01a6 01F024B9 		b	.L309
 5103              	.L315:
1275:.\main.c      ****                 if((Display2_rxBuffer[0]==0xAA) && (Display2_rxBuffer[6]==0xC3) && (Display2_rxBuff
 5104              		.loc 1 1275 0
 5105 01aa FFF7FEFF 		bl	Display2_GetRxBufferSize
 5106              	.LVL480:
 5107 01ae 0828     		cmp	r0, #8
 5108 01b0 41F01F81 		bne	.L309
1276:.\main.c      ****                     switch(Display2_rxBuffer[3]){
 5109              		.loc 1 1276 0
 5110 01b4 464B     		ldr	r3, .L515+24
 5111 01b6 1B78     		ldrb	r3, [r3]	@ zero_extendqisi2
 5112 01b8 DBB2     		uxtb	r3, r3
 5113 01ba AA2B     		cmp	r3, #170
 5114 01bc 40F0B980 		bne	.L342
1276:.\main.c      ****                     switch(Display2_rxBuffer[3]){
 5115              		.loc 1 1276 0 is_stmt 0 discriminator 1
 5116 01c0 434B     		ldr	r3, .L515+24
 5117 01c2 9B79     		ldrb	r3, [r3, #6]	@ zero_extendqisi2
 5118 01c4 DBB2     		uxtb	r3, r3
 5119 01c6 C32B     		cmp	r3, #195
 5120 01c8 40F0B380 		bne	.L342
1276:.\main.c      ****                     switch(Display2_rxBuffer[3]){
 5121              		.loc 1 1276 0 discriminator 2
 5122 01cc 404B     		ldr	r3, .L515+24
 5123 01ce DB79     		ldrb	r3, [r3, #7]	@ zero_extendqisi2
 5124 01d0 DBB2     		uxtb	r3, r3
 5125 01d2 3C2B     		cmp	r3, #60
 5126 01d4 40F0AD80 		bne	.L342
1277:.\main.c      ****                         case 0x0F:  //Preset dinero                
 5127              		.loc 1 1277 0 is_stmt 1
 5128 01d8 3D4B     		ldr	r3, .L515+24
 5129 01da DB78     		ldrb	r3, [r3, #3]	@ zero_extendqisi2
 5130 01dc DBB2     		uxtb	r3, r3
ARM GAS  C:\Users\RECEPC~1\AppData\Local\Temp\cc6Stwwd.s 			page 143


 5131 01de 3B2B     		cmp	r3, #59
 5132 01e0 00F09880 		beq	.L343
 5133 01e4 04D8     		bhi	.L344
 5134 01e6 0F2B     		cmp	r3, #15
 5135 01e8 0CD0     		beq	.L345
 5136 01ea 102B     		cmp	r3, #16
 5137 01ec 27D0     		beq	.L346
 5138 01ee A0E0     		b	.L342
 5139              	.L344:
 5140 01f0 7E2B     		cmp	r3, #126
 5141 01f2 00F09780 		beq	.L347
 5142 01f6 942B     		cmp	r3, #148
 5143 01f8 00F08480 		beq	.L348
 5144 01fc 432B     		cmp	r3, #67
 5145 01fe 40F09880 		bne	.L342
 5146 0202 38E0     		b	.L349
 5147              	.L345:
1279:.\main.c      ****                             bufferDisplay2.presetType[0]=2;
 5148              		.loc 1 1279 0
 5149 0204 0422     		movs	r2, #4
 5150 0206 2C4B     		ldr	r3, .L515
 5151 0208 1A60     		str	r2, [r3]
1280:.\main.c      ****                             bufferDisplay2.presetType[1]='D';
 5152              		.loc 1 1280 0
 5153 020a 2E4B     		ldr	r3, .L515+12
 5154 020c 0224     		movs	r4, #2
 5155 020e 83F86340 		strb	r4, [r3, #99]
1281:.\main.c      ****                             numberKeys1=0;
 5156              		.loc 1 1281 0
 5157 0212 4422     		movs	r2, #68
 5158 0214 83F86420 		strb	r2, [r3, #100]
1282:.\main.c      ****                             SetPicture(2,DISPLAY_INTRODUZCA_VALOR);   
 5159              		.loc 1 1282 0
 5160 0218 0025     		movs	r5, #0
 5161 021a 2F4B     		ldr	r3, .L515+32
 5162 021c 1D70     		strb	r5, [r3]
1283:.\main.c      ****                             WriteLCD(2,'$',3,2,1,0x0000,'N');
 5163              		.loc 1 1283 0
 5164 021e 2046     		mov	r0, r4
 5165 0220 0621     		movs	r1, #6
 5166 0222 FFF7FEFF 		bl	SetPicture
 5167              	.LVL481:
1284:.\main.c      ****                         break; 
 5168              		.loc 1 1284 0
 5169 0226 0123     		movs	r3, #1
 5170 0228 0093     		str	r3, [sp]
 5171 022a 0195     		str	r5, [sp, #4]
 5172 022c 4E23     		movs	r3, #78
 5173 022e 0293     		str	r3, [sp, #8]
 5174 0230 2046     		mov	r0, r4
 5175 0232 2421     		movs	r1, #36
 5176 0234 0322     		movs	r2, #3
 5177 0236 2346     		mov	r3, r4
 5178 0238 FFF7FEFF 		bl	WriteLCD
 5179              	.LVL482:
1285:.\main.c      ****                         case 0x10:  //Preset volumen                 
 5180              		.loc 1 1285 0
ARM GAS  C:\Users\RECEPC~1\AppData\Local\Temp\cc6Stwwd.s 			page 144


 5181 023c 79E0     		b	.L342
 5182              	.L346:
1287:.\main.c      ****                             bufferDisplay2.presetType[0]=1;
 5183              		.loc 1 1287 0
 5184 023e 0422     		movs	r2, #4
 5185 0240 1D4B     		ldr	r3, .L515
 5186 0242 1A60     		str	r2, [r3]
1288:.\main.c      ****                             bufferDisplay2.presetType[1]='V';
 5187              		.loc 1 1288 0
 5188 0244 1F4B     		ldr	r3, .L515+12
 5189 0246 0126     		movs	r6, #1
 5190 0248 83F86360 		strb	r6, [r3, #99]
1289:.\main.c      ****                             numberKeys1=0;                            
 5191              		.loc 1 1289 0
 5192 024c 5624     		movs	r4, #86
 5193 024e 83F86440 		strb	r4, [r3, #100]
1290:.\main.c      ****                             SetPicture(2,DISPLAY_INTRODUZCA_VOLUMEN);                            
 5194              		.loc 1 1290 0
 5195 0252 0025     		movs	r5, #0
 5196 0254 204B     		ldr	r3, .L515+32
 5197 0256 1D70     		strb	r5, [r3]
1291:.\main.c      ****                             WriteLCD(2,'V',3,2,1,0x0000,'N');                            
 5198              		.loc 1 1291 0
 5199 0258 0220     		movs	r0, #2
 5200 025a 0D21     		movs	r1, #13
 5201 025c FFF7FEFF 		bl	SetPicture
 5202              	.LVL483:
1292:.\main.c      ****                         break;
 5203              		.loc 1 1292 0
 5204 0260 0096     		str	r6, [sp]
 5205 0262 0195     		str	r5, [sp, #4]
 5206 0264 4E23     		movs	r3, #78
 5207 0266 0293     		str	r3, [sp, #8]
 5208 0268 0220     		movs	r0, #2
 5209 026a 2146     		mov	r1, r4
 5210 026c 0322     		movs	r2, #3
 5211 026e 0346     		mov	r3, r0
 5212 0270 FFF7FEFF 		bl	WriteLCD
 5213              	.LVL484:
1293:.\main.c      ****                         case 0x43:  //Preset full 
 5214              		.loc 1 1293 0
 5215 0274 5DE0     		b	.L342
 5216              	.L349:
1295:.\main.c      ****                             bufferDisplay2.presetType[1]='F';
 5217              		.loc 1 1295 0
 5218 0276 134B     		ldr	r3, .L515+12
 5219 0278 0222     		movs	r2, #2
 5220 027a 83F86320 		strb	r2, [r3, #99]
1296:.\main.c      ****                             for(x=1;x<(digits-1);x++){
 5221              		.loc 1 1296 0
 5222 027e 4622     		movs	r2, #70
 5223 0280 83F86420 		strb	r2, [r3, #100]
 5224              	.LVL485:
1297:.\main.c      ****                                 bufferDisplay2.presetValue[0][x]='9';
 5225              		.loc 1 1297 0
 5226 0284 0123     		movs	r3, #1
 5227 0286 06E0     		b	.L350
ARM GAS  C:\Users\RECEPC~1\AppData\Local\Temp\cc6Stwwd.s 			page 145


 5228              	.LVL486:
 5229              	.L351:
1298:.\main.c      ****                             }
 5230              		.loc 1 1298 0 discriminator 3
 5231 0288 0E4A     		ldr	r2, .L515+12
 5232 028a 1A44     		add	r2, r2, r3
 5233 028c 3921     		movs	r1, #57
 5234 028e 82F86510 		strb	r1, [r2, #101]
1297:.\main.c      ****                                 bufferDisplay2.presetValue[0][x]='9';
 5235              		.loc 1 1297 0 discriminator 3
 5236 0292 0133     		adds	r3, r3, #1
 5237              	.LVL487:
 5238 0294 DBB2     		uxtb	r3, r3
 5239              	.LVL488:
 5240              	.L350:
1297:.\main.c      ****                                 bufferDisplay2.presetValue[0][x]='9';
 5241              		.loc 1 1297 0 is_stmt 0 discriminator 1
 5242 0296 1A46     		mov	r2, r3
 5243 0298 1049     		ldr	r1, .L515+36
 5244 029a 0978     		ldrb	r1, [r1]	@ zero_extendqisi2
 5245 029c 481E     		subs	r0, r1, #1
 5246 029e 8342     		cmp	r3, r0
 5247 02a0 F2DB     		blt	.L351
1300:.\main.c      ****                             bufferDisplay2.presetValue[0][x+1]='0';
 5248              		.loc 1 1300 0 is_stmt 1
 5249 02a2 084B     		ldr	r3, .L515+12
 5250              	.LVL489:
 5251 02a4 9C18     		adds	r4, r3, r2
 5252 02a6 3020     		movs	r0, #48
 5253 02a8 84F86500 		strb	r0, [r4, #101]
1301:.\main.c      ****                             bufferDisplay2.presetValue[0][0]=digits;
 5254              		.loc 1 1301 0
 5255 02ac 84F86600 		strb	r0, [r4, #102]
1302:.\main.c      ****                             for(x=0;x<=bufferDisplay2.presetValue[0][0];x++){
 5256              		.loc 1 1302 0
 5257 02b0 83F86510 		strb	r1, [r3, #101]
 5258              	.LVL490:
1303:.\main.c      ****                                 bufferDisplay2.presetValue[1][x]=bufferDisplay2.presetValue[0][x];
 5259              		.loc 1 1303 0
 5260 02b4 0023     		movs	r3, #0
 5261 02b6 1BE0     		b	.L352
 5262              	.L516:
 5263              		.align	2
 5264              	.L515:
 5265 02b8 00000000 		.word	flowDisplay2
 5266 02bc 00000000 		.word	side
 5267 02c0 00000000 		.word	count_protector2
 5268 02c4 00000000 		.word	bufferDisplay2
 5269 02c8 00000000 		.word	countRX
 5270 02cc 00000000 		.word	printPortB
 5271 02d0 00000000 		.word	Display2_rxBuffer
 5272 02d4 00000000 		.word	count_protector
 5273 02d8 00000000 		.word	numberKeys1
 5274 02dc 00000000 		.word	digits
 5275              	.LVL491:
 5276              	.L353:
1304:.\main.c      ****                             }
ARM GAS  C:\Users\RECEPC~1\AppData\Local\Temp\cc6Stwwd.s 			page 146


 5277              		.loc 1 1304 0 discriminator 3
 5278 02e0 934A     		ldr	r2, .L517
 5279 02e2 1A44     		add	r2, r2, r3
 5280 02e4 92F86500 		ldrb	r0, [r2, #101]	@ zero_extendqisi2
 5281 02e8 82F86F00 		strb	r0, [r2, #111]
1303:.\main.c      ****                                 bufferDisplay2.presetValue[1][x]=bufferDisplay2.presetValue[0][x];
 5282              		.loc 1 1303 0 discriminator 3
 5283 02ec 0133     		adds	r3, r3, #1
 5284              	.LVL492:
 5285 02ee DBB2     		uxtb	r3, r3
 5286              	.LVL493:
 5287              	.L352:
1303:.\main.c      ****                                 bufferDisplay2.presetValue[1][x]=bufferDisplay2.presetValue[0][x];
 5288              		.loc 1 1303 0 is_stmt 0 discriminator 1
 5289 02f0 8B42     		cmp	r3, r1
 5290 02f2 F5D9     		bls	.L353
1306:.\main.c      ****                             SetPicture(2,DISPLAY_SELECCIONE_PRODUCTO4);                          
 5291              		.loc 1 1306 0 is_stmt 1
 5292 02f4 0522     		movs	r2, #5
 5293 02f6 8F4B     		ldr	r3, .L517+4
 5294              	.LVL494:
 5295 02f8 1A60     		str	r2, [r3]
1307:.\main.c      ****                         break;
 5296              		.loc 1 1307 0
 5297 02fa 0220     		movs	r0, #2
 5298 02fc 8621     		movs	r1, #134
 5299 02fe FFF7FEFF 		bl	SetPicture
 5300              	.LVL495:
1308:.\main.c      ****                         case 0x94:  //Retroceso 
 5301              		.loc 1 1308 0
 5302 0302 16E0     		b	.L342
 5303              	.L348:
1310:.\main.c      ****                             SetPicture(2,DISPLAY_INICIO0);                                         
 5304              		.loc 1 1310 0
 5305 0304 0022     		movs	r2, #0
 5306 0306 8B4B     		ldr	r3, .L517+4
 5307 0308 1A60     		str	r2, [r3]
1311:.\main.c      ****                         break;
 5308              		.loc 1 1311 0
 5309 030a 0220     		movs	r0, #2
 5310 030c 0121     		movs	r1, #1
 5311 030e FFF7FEFF 		bl	SetPicture
 5312              	.LVL496:
1312:.\main.c      ****                         case 0x3B:  //Pantalla Inicial    
 5313              		.loc 1 1312 0
 5314 0312 0EE0     		b	.L342
 5315              	.L343:
1314:.\main.c      ****                             SetPicture(2,DISPLAY_INICIO0);                            
 5316              		.loc 1 1314 0
 5317 0314 0022     		movs	r2, #0
 5318 0316 874B     		ldr	r3, .L517+4
 5319 0318 1A60     		str	r2, [r3]
1315:.\main.c      ****                         break;
 5320              		.loc 1 1315 0
 5321 031a 0220     		movs	r0, #2
 5322 031c 0121     		movs	r1, #1
 5323 031e FFF7FEFF 		bl	SetPicture
ARM GAS  C:\Users\RECEPC~1\AppData\Local\Temp\cc6Stwwd.s 			page 147


 5324              	.LVL497:
1316:.\main.c      ****                         case 0x7E:  //Pantalla Inicial    
 5325              		.loc 1 1316 0
 5326 0322 06E0     		b	.L342
 5327              	.L347:
1318:.\main.c      ****                             SetPicture(2,DISPLAY_INICIO0);                            
 5328              		.loc 1 1318 0
 5329 0324 0022     		movs	r2, #0
 5330 0326 834B     		ldr	r3, .L517+4
 5331 0328 1A60     		str	r2, [r3]
1319:.\main.c      ****                         break;
 5332              		.loc 1 1319 0
 5333 032a 0220     		movs	r0, #2
 5334 032c 0121     		movs	r1, #1
 5335 032e FFF7FEFF 		bl	SetPicture
 5336              	.LVL498:
 5337              	.L342:
1323:.\main.c      ****                 Display2_ClearRxBuffer();
 5338              		.loc 1 1323 0
 5339 0332 0A20     		movs	r0, #10
 5340 0334 FFF7FEFF 		bl	CyDelay
 5341              	.LVL499:
1324:.\main.c      ****             }
 5342              		.loc 1 1324 0
 5343 0338 FFF7FEFF 		bl	Display2_ClearRxBuffer
 5344              	.LVL500:
 5345 033c 01F059B8 		b	.L309
 5346              	.L316:
1329:.\main.c      ****                 case 0:  //Pantalla Inicial    
 5347              		.loc 1 1329 0
 5348 0340 0220     		movs	r0, #2
 5349 0342 7D4B     		ldr	r3, .L517+8
 5350 0344 1978     		ldrb	r1, [r3]	@ zero_extendqisi2
 5351 0346 0022     		movs	r2, #0
 5352 0348 FFF7FEFF 		bl	alphanumeric_keyboard
 5353              	.LVL501:
 5354 034c 18B1     		cbz	r0, .L354
 5355 034e 0128     		cmp	r0, #1
 5356 0350 15D0     		beq	.L495
 5357 0352 01F04EB8 		b	.L309
 5358              	.L354:
1331:.\main.c      ****                     SetPicture(2,DISPLAY_INICIO0);                            
 5359              		.loc 1 1331 0
 5360 0356 0022     		movs	r2, #0
 5361 0358 764B     		ldr	r3, .L517+4
 5362 035a 1A60     		str	r2, [r3]
1332:.\main.c      ****                 break;
 5363              		.loc 1 1332 0
 5364 035c 0220     		movs	r0, #2
 5365 035e 0121     		movs	r1, #1
 5366 0360 FFF7FEFF 		bl	SetPicture
 5367              	.LVL502:
1333:.\main.c      ****                     
 5368              		.loc 1 1333 0
 5369 0364 01F045B8 		b	.L309
 5370              	.LVL503:
 5371              	.L356:
ARM GAS  C:\Users\RECEPC~1\AppData\Local\Temp\cc6Stwwd.s 			page 148


1337:.\main.c      ****                         bufferDisplay2.presetValue[1][x]=bufferDisplay2.valueKeys[x];
 5372              		.loc 1 1337 0 discriminator 3
 5373 0368 714A     		ldr	r2, .L517
 5374 036a 1A44     		add	r2, r2, r3
 5375 036c 92F84B10 		ldrb	r1, [r2, #75]	@ zero_extendqisi2
 5376 0370 82F86510 		strb	r1, [r2, #101]
1338:.\main.c      ****                     }  
 5377              		.loc 1 1338 0 discriminator 3
 5378 0374 82F86F10 		strb	r1, [r2, #111]
1336:.\main.c      ****                         bufferDisplay2.presetValue[0][x]=bufferDisplay2.valueKeys[x];
 5379              		.loc 1 1336 0 discriminator 3
 5380 0378 0133     		adds	r3, r3, #1
 5381              	.LVL504:
 5382 037a DBB2     		uxtb	r3, r3
 5383              	.LVL505:
 5384 037c 00E0     		b	.L355
 5385              	.LVL506:
 5386              	.L495:
1329:.\main.c      ****                 case 0:  //Pantalla Inicial    
 5387              		.loc 1 1329 0
 5388 037e 0023     		movs	r3, #0
 5389              	.L355:
 5390              	.LVL507:
1336:.\main.c      ****                         bufferDisplay2.presetValue[0][x]=bufferDisplay2.valueKeys[x];
 5391              		.loc 1 1336 0 discriminator 1
 5392 0380 6B4A     		ldr	r2, .L517
 5393 0382 92F84B20 		ldrb	r2, [r2, #75]	@ zero_extendqisi2
 5394 0386 9A42     		cmp	r2, r3
 5395 0388 EED2     		bcs	.L356
1340:.\main.c      ****                     SetPicture(2,DISPLAY_SELECCIONE_PRODUCTO4);
 5396              		.loc 1 1340 0
 5397 038a 0522     		movs	r2, #5
 5398 038c 694B     		ldr	r3, .L517+4
 5399              	.LVL508:
 5400 038e 1A60     		str	r2, [r3]
1341:.\main.c      ****                 break;
 5401              		.loc 1 1341 0
 5402 0390 0220     		movs	r0, #2
 5403 0392 8621     		movs	r1, #134
 5404 0394 FFF7FEFF 		bl	SetPicture
 5405              	.LVL509:
1342:.\main.c      ****             }
 5406              		.loc 1 1342 0
 5407 0398 01F02BB8 		b	.L309
 5408              	.L317:
1347:.\main.c      ****                 if((Display2_rxBuffer[0]==0xAA) && (Display2_rxBuffer[6]==0xC3) && (Display2_rxBuff
 5409              		.loc 1 1347 0
 5410 039c FFF7FEFF 		bl	Display2_GetRxBufferSize
 5411              	.LVL510:
 5412 03a0 0828     		cmp	r0, #8
 5413 03a2 41F02680 		bne	.L309
1348:.\main.c      ****                     switch(Display2_rxBuffer[3]){
 5414              		.loc 1 1348 0
 5415 03a6 654B     		ldr	r3, .L517+12
 5416 03a8 1B78     		ldrb	r3, [r3]	@ zero_extendqisi2
 5417 03aa DBB2     		uxtb	r3, r3
 5418 03ac AA2B     		cmp	r3, #170
ARM GAS  C:\Users\RECEPC~1\AppData\Local\Temp\cc6Stwwd.s 			page 149


 5419 03ae 6CD1     		bne	.L357
1348:.\main.c      ****                     switch(Display2_rxBuffer[3]){
 5420              		.loc 1 1348 0 is_stmt 0 discriminator 1
 5421 03b0 624B     		ldr	r3, .L517+12
 5422 03b2 9B79     		ldrb	r3, [r3, #6]	@ zero_extendqisi2
 5423 03b4 DBB2     		uxtb	r3, r3
 5424 03b6 C32B     		cmp	r3, #195
 5425 03b8 67D1     		bne	.L357
1348:.\main.c      ****                     switch(Display2_rxBuffer[3]){
 5426              		.loc 1 1348 0 discriminator 2
 5427 03ba 604B     		ldr	r3, .L517+12
 5428 03bc DB79     		ldrb	r3, [r3, #7]	@ zero_extendqisi2
 5429 03be DBB2     		uxtb	r3, r3
 5430 03c0 3C2B     		cmp	r3, #60
 5431 03c2 62D1     		bne	.L357
1349:.\main.c      ****                         case 0x80:  //Grado 1 
 5432              		.loc 1 1349 0 is_stmt 1
 5433 03c4 5D4B     		ldr	r3, .L517+12
 5434 03c6 DB78     		ldrb	r3, [r3, #3]	@ zero_extendqisi2
 5435 03c8 7E3B     		subs	r3, r3, #126
 5436 03ca 3A2B     		cmp	r3, #58
 5437 03cc 5DD8     		bhi	.L357
 5438 03ce DFE803F0 		tbb	[pc, r3]
 5439              	.L359:
 5440 03d2 55       		.byte	(.L358-.L359)/2
 5441 03d3 35       		.byte	(.L360-.L359)/2
 5442 03d4 1E       		.byte	(.L361-.L359)/2
 5443 03d5 2A       		.byte	(.L362-.L359)/2
 5444 03d6 5C       		.byte	(.L357-.L359)/2
 5445 03d7 5C       		.byte	(.L357-.L359)/2
 5446 03d8 5C       		.byte	(.L357-.L359)/2
 5447 03d9 5C       		.byte	(.L357-.L359)/2
 5448 03da 5C       		.byte	(.L357-.L359)/2
 5449 03db 5C       		.byte	(.L357-.L359)/2
 5450 03dc 5C       		.byte	(.L357-.L359)/2
 5451 03dd 5C       		.byte	(.L357-.L359)/2
 5452 03de 5C       		.byte	(.L357-.L359)/2
 5453 03df 5C       		.byte	(.L357-.L359)/2
 5454 03e0 5C       		.byte	(.L357-.L359)/2
 5455 03e1 5C       		.byte	(.L357-.L359)/2
 5456 03e2 5C       		.byte	(.L357-.L359)/2
 5457 03e3 5C       		.byte	(.L357-.L359)/2
 5458 03e4 5C       		.byte	(.L357-.L359)/2
 5459 03e5 5C       		.byte	(.L357-.L359)/2
 5460 03e6 5C       		.byte	(.L357-.L359)/2
 5461 03e7 5C       		.byte	(.L357-.L359)/2
 5462 03e8 4D       		.byte	(.L363-.L359)/2
 5463 03e9 5C       		.byte	(.L357-.L359)/2
 5464 03ea 5C       		.byte	(.L357-.L359)/2
 5465 03eb 5C       		.byte	(.L357-.L359)/2
 5466 03ec 5C       		.byte	(.L357-.L359)/2
 5467 03ed 5C       		.byte	(.L357-.L359)/2
 5468 03ee 5C       		.byte	(.L357-.L359)/2
 5469 03ef 5C       		.byte	(.L357-.L359)/2
 5470 03f0 5C       		.byte	(.L357-.L359)/2
 5471 03f1 5C       		.byte	(.L357-.L359)/2
 5472 03f2 5C       		.byte	(.L357-.L359)/2
ARM GAS  C:\Users\RECEPC~1\AppData\Local\Temp\cc6Stwwd.s 			page 150


 5473 03f3 5C       		.byte	(.L357-.L359)/2
 5474 03f4 5C       		.byte	(.L357-.L359)/2
 5475 03f5 5C       		.byte	(.L357-.L359)/2
 5476 03f6 5C       		.byte	(.L357-.L359)/2
 5477 03f7 5C       		.byte	(.L357-.L359)/2
 5478 03f8 5C       		.byte	(.L357-.L359)/2
 5479 03f9 5C       		.byte	(.L357-.L359)/2
 5480 03fa 5C       		.byte	(.L357-.L359)/2
 5481 03fb 5C       		.byte	(.L357-.L359)/2
 5482 03fc 5C       		.byte	(.L357-.L359)/2
 5483 03fd 5C       		.byte	(.L357-.L359)/2
 5484 03fe 5C       		.byte	(.L357-.L359)/2
 5485 03ff 5C       		.byte	(.L357-.L359)/2
 5486 0400 5C       		.byte	(.L357-.L359)/2
 5487 0401 5C       		.byte	(.L357-.L359)/2
 5488 0402 5C       		.byte	(.L357-.L359)/2
 5489 0403 5C       		.byte	(.L357-.L359)/2
 5490 0404 5C       		.byte	(.L357-.L359)/2
 5491 0405 5C       		.byte	(.L357-.L359)/2
 5492 0406 5C       		.byte	(.L357-.L359)/2
 5493 0407 5C       		.byte	(.L357-.L359)/2
 5494 0408 5C       		.byte	(.L357-.L359)/2
 5495 0409 5C       		.byte	(.L357-.L359)/2
 5496 040a 5C       		.byte	(.L357-.L359)/2
 5497 040b 5C       		.byte	(.L357-.L359)/2
 5498 040c 41       		.byte	(.L364-.L359)/2
 5499 040d 00       		.p2align 1
 5500              	.L361:
1351:.\main.c      ****                             side.b.hose = 1;
 5501              		.loc 1 1351 0
 5502 040e 0622     		movs	r2, #6
 5503 0410 484B     		ldr	r3, .L517+4
 5504 0412 1A60     		str	r2, [r3]
1352:.\main.c      ****                             SetPicture(2,DISPLAY_DESEA_IMPRIMIR_RECIBO);                           
 5505              		.loc 1 1352 0
 5506 0414 0122     		movs	r2, #1
 5507 0416 4A4B     		ldr	r3, .L517+16
 5508 0418 83F81322 		strb	r2, [r3, #531]
1353:.\main.c      ****                         break;
 5509              		.loc 1 1353 0
 5510 041c 0220     		movs	r0, #2
 5511 041e 0B21     		movs	r1, #11
 5512 0420 FFF7FEFF 		bl	SetPicture
 5513              	.LVL511:
1354:.\main.c      ****                             
 5514              		.loc 1 1354 0
 5515 0424 31E0     		b	.L357
 5516              	.L362:
1357:.\main.c      ****                             side.b.hose = 2;
 5517              		.loc 1 1357 0
 5518 0426 0622     		movs	r2, #6
 5519 0428 424B     		ldr	r3, .L517+4
 5520 042a 1A60     		str	r2, [r3]
1358:.\main.c      ****                             SetPicture(2,DISPLAY_DESEA_IMPRIMIR_RECIBO);                           
 5521              		.loc 1 1358 0
 5522 042c 0220     		movs	r0, #2
 5523 042e 444B     		ldr	r3, .L517+16
ARM GAS  C:\Users\RECEPC~1\AppData\Local\Temp\cc6Stwwd.s 			page 151


 5524 0430 83F81302 		strb	r0, [r3, #531]
1359:.\main.c      ****                         break;
 5525              		.loc 1 1359 0
 5526 0434 0B21     		movs	r1, #11
 5527 0436 FFF7FEFF 		bl	SetPicture
 5528              	.LVL512:
1360:.\main.c      ****                             
 5529              		.loc 1 1360 0
 5530 043a 26E0     		b	.L357
 5531              	.L360:
1363:.\main.c      ****                             side.b.hose = 3;
 5532              		.loc 1 1363 0
 5533 043c 0622     		movs	r2, #6
 5534 043e 3D4B     		ldr	r3, .L517+4
 5535 0440 1A60     		str	r2, [r3]
1364:.\main.c      ****                             SetPicture(2,DISPLAY_DESEA_IMPRIMIR_RECIBO);                           
 5536              		.loc 1 1364 0
 5537 0442 0322     		movs	r2, #3
 5538 0444 3E4B     		ldr	r3, .L517+16
 5539 0446 83F81322 		strb	r2, [r3, #531]
1365:.\main.c      ****                         break;   
 5540              		.loc 1 1365 0
 5541 044a 0220     		movs	r0, #2
 5542 044c 0B21     		movs	r1, #11
 5543 044e FFF7FEFF 		bl	SetPicture
 5544              	.LVL513:
1366:.\main.c      ****                         
 5545              		.loc 1 1366 0
 5546 0452 1AE0     		b	.L357
 5547              	.L364:
1369:.\main.c      ****                             side.b.hose = 4;
 5548              		.loc 1 1369 0
 5549 0454 0622     		movs	r2, #6
 5550 0456 374B     		ldr	r3, .L517+4
 5551 0458 1A60     		str	r2, [r3]
1370:.\main.c      ****                             SetPicture(2,DISPLAY_DESEA_IMPRIMIR_RECIBO);                           
 5552              		.loc 1 1370 0
 5553 045a 0422     		movs	r2, #4
 5554 045c 384B     		ldr	r3, .L517+16
 5555 045e 83F81322 		strb	r2, [r3, #531]
1371:.\main.c      ****                         break;
 5556              		.loc 1 1371 0
 5557 0462 0220     		movs	r0, #2
 5558 0464 0B21     		movs	r1, #11
 5559 0466 FFF7FEFF 		bl	SetPicture
 5560              	.LVL514:
1372:.\main.c      ****                             
 5561              		.loc 1 1372 0
 5562 046a 0EE0     		b	.L357
 5563              	.L363:
1375:.\main.c      ****                             SetPicture(2,DISPLAY_INICIO0);                                         
 5564              		.loc 1 1375 0
 5565 046c 0022     		movs	r2, #0
 5566 046e 314B     		ldr	r3, .L517+4
 5567 0470 1A60     		str	r2, [r3]
1376:.\main.c      ****                         break;
 5568              		.loc 1 1376 0
ARM GAS  C:\Users\RECEPC~1\AppData\Local\Temp\cc6Stwwd.s 			page 152


 5569 0472 0220     		movs	r0, #2
 5570 0474 0121     		movs	r1, #1
 5571 0476 FFF7FEFF 		bl	SetPicture
 5572              	.LVL515:
1377:.\main.c      ****                             
 5573              		.loc 1 1377 0
 5574 047a 06E0     		b	.L357
 5575              	.L358:
1380:.\main.c      ****                             flowDisplay2 = 0;
 5576              		.loc 1 1380 0
 5577 047c 0220     		movs	r0, #2
 5578 047e 0121     		movs	r1, #1
 5579 0480 FFF7FEFF 		bl	SetPicture
 5580              	.LVL516:
1381:.\main.c      ****                         break;
 5581              		.loc 1 1381 0
 5582 0484 0022     		movs	r2, #0
 5583 0486 2B4B     		ldr	r3, .L517+4
 5584 0488 1A60     		str	r2, [r3]
 5585              	.L357:
1385:.\main.c      ****                 Display2_ClearRxBuffer();
 5586              		.loc 1 1385 0
 5587 048a 0A20     		movs	r0, #10
 5588 048c FFF7FEFF 		bl	CyDelay
 5589              	.LVL517:
1386:.\main.c      ****             }
 5590              		.loc 1 1386 0
 5591 0490 FFF7FEFF 		bl	Display2_ClearRxBuffer
 5592              	.LVL518:
 5593 0494 00F0ADBF 		b	.L309
 5594              	.L318:
1391:.\main.c      ****             Timer_Animacion_Start();
 5595              		.loc 1 1391 0
 5596 0498 2A48     		ldr	r0, .L517+20
 5597 049a FFF7FEFF 		bl	isr_3_StartEx
 5598              	.LVL519:
1392:.\main.c      ****             if(Display2_GetRxBufferSize()==8){
 5599              		.loc 1 1392 0
 5600 049e FFF7FEFF 		bl	Timer_Animacion_Start
 5601              	.LVL520:
1393:.\main.c      ****                 if((Display2_rxBuffer[0]==0xAA) && (Display2_rxBuffer[6]==0xC3) && (Display2_rxBuff
 5602              		.loc 1 1393 0
 5603 04a2 FFF7FEFF 		bl	Display2_GetRxBufferSize
 5604              	.LVL521:
 5605 04a6 0828     		cmp	r0, #8
 5606 04a8 5ED1     		bne	.L365
1394:.\main.c      ****                     switch(Display2_rxBuffer[3]){
 5607              		.loc 1 1394 0
 5608 04aa 244B     		ldr	r3, .L517+12
 5609 04ac 1B78     		ldrb	r3, [r3]	@ zero_extendqisi2
 5610 04ae DBB2     		uxtb	r3, r3
 5611 04b0 AA2B     		cmp	r3, #170
 5612 04b2 54D1     		bne	.L366
1394:.\main.c      ****                     switch(Display2_rxBuffer[3]){
 5613              		.loc 1 1394 0 is_stmt 0 discriminator 1
 5614 04b4 214B     		ldr	r3, .L517+12
 5615 04b6 9B79     		ldrb	r3, [r3, #6]	@ zero_extendqisi2
ARM GAS  C:\Users\RECEPC~1\AppData\Local\Temp\cc6Stwwd.s 			page 153


 5616 04b8 DBB2     		uxtb	r3, r3
 5617 04ba C32B     		cmp	r3, #195
 5618 04bc 4FD1     		bne	.L366
1394:.\main.c      ****                     switch(Display2_rxBuffer[3]){
 5619              		.loc 1 1394 0 discriminator 2
 5620 04be 1F4B     		ldr	r3, .L517+12
 5621 04c0 DB79     		ldrb	r3, [r3, #7]	@ zero_extendqisi2
 5622 04c2 DBB2     		uxtb	r3, r3
 5623 04c4 3C2B     		cmp	r3, #60
 5624 04c6 4AD1     		bne	.L366
1395:.\main.c      ****                         case 0x39:  //Si imprimir  
 5625              		.loc 1 1395 0 is_stmt 1
 5626 04c8 1C4B     		ldr	r3, .L517+12
 5627 04ca DB78     		ldrb	r3, [r3, #3]	@ zero_extendqisi2
 5628 04cc DBB2     		uxtb	r3, r3
 5629 04ce 392B     		cmp	r3, #57
 5630 04d0 04D0     		beq	.L367
 5631 04d2 7E2B     		cmp	r3, #126
 5632 04d4 3CD0     		beq	.L368
 5633 04d6 382B     		cmp	r3, #56
 5634 04d8 41D1     		bne	.L366
 5635 04da 10E0     		b	.L369
 5636              	.L367:
1397:.\main.c      ****                             numberKeys1 = 0;
 5637              		.loc 1 1397 0
 5638 04dc 0922     		movs	r2, #9
 5639 04de 154B     		ldr	r3, .L517+4
 5640 04e0 1A60     		str	r2, [r3]
1398:.\main.c      ****                             bufferDisplay2.flagKeyboard = 1;
 5641              		.loc 1 1398 0
 5642 04e2 0022     		movs	r2, #0
 5643 04e4 184B     		ldr	r3, .L517+24
 5644 04e6 1A70     		strb	r2, [r3]
1399:.\main.c      ****                             bufferDisplay2.flagPrint =  1;
 5645              		.loc 1 1399 0
 5646 04e8 114B     		ldr	r3, .L517
 5647 04ea 0122     		movs	r2, #1
 5648 04ec 83F80021 		strb	r2, [r3, #256]
1400:.\main.c      ****                             SetPicture(2,DISPLAY_DIGITE_PLACA);                            
 5649              		.loc 1 1400 0
 5650 04f0 83F83421 		strb	r2, [r3, #308]
1401:.\main.c      ****                         break; 
 5651              		.loc 1 1401 0
 5652 04f4 0220     		movs	r0, #2
 5653 04f6 0A21     		movs	r1, #10
 5654 04f8 FFF7FEFF 		bl	SetPicture
 5655              	.LVL522:
1402:.\main.c      ****                         case 0x38:  //No imprimir 
 5656              		.loc 1 1402 0
 5657 04fc 2FE0     		b	.L366
 5658              	.L369:
1404:.\main.c      ****                                 flowDisplay2 = 0;
 5659              		.loc 1 1404 0
 5660 04fe 0C4B     		ldr	r3, .L517
 5661 0500 93F80331 		ldrb	r3, [r3, #259]	@ zero_extendqisi2
 5662 0504 3BB1     		cbz	r3, .L370
1405:.\main.c      ****                                 SetPicture(2,DISPLAY_INICIO0);
ARM GAS  C:\Users\RECEPC~1\AppData\Local\Temp\cc6Stwwd.s 			page 154


 5663              		.loc 1 1405 0
 5664 0506 0022     		movs	r2, #0
 5665 0508 0A4B     		ldr	r3, .L517+4
 5666 050a 1A60     		str	r2, [r3]
1406:.\main.c      ****                             }else{
 5667              		.loc 1 1406 0
 5668 050c 0220     		movs	r0, #2
 5669 050e 0121     		movs	r1, #1
 5670 0510 FFF7FEFF 		bl	SetPicture
 5671              	.LVL523:
 5672 0514 23E0     		b	.L366
 5673              	.L370:
1408:.\main.c      ****                                 bufferDisplay2.flagPrint =  0;
 5674              		.loc 1 1408 0
 5675 0516 0721     		movs	r1, #7
 5676 0518 064B     		ldr	r3, .L517+4
 5677 051a 1960     		str	r1, [r3]
1409:.\main.c      ****                                 count_protector=0;
 5678              		.loc 1 1409 0
 5679 051c 0023     		movs	r3, #0
 5680 051e 044A     		ldr	r2, .L517
 5681 0520 82F83431 		strb	r3, [r2, #308]
1410:.\main.c      ****                                 SetPicture(2,DISPLAY_SUBA_MANIJA);
 5682              		.loc 1 1410 0
 5683 0524 094A     		ldr	r2, .L517+28
 5684 0526 1370     		strb	r3, [r2]
1411:.\main.c      ****                             }
 5685              		.loc 1 1411 0
 5686 0528 0220     		movs	r0, #2
 5687 052a FFF7FEFF 		bl	SetPicture
 5688              	.LVL524:
 5689 052e 16E0     		b	.L366
 5690              	.L518:
 5691              		.align	2
 5692              	.L517:
 5693 0530 00000000 		.word	bufferDisplay2
 5694 0534 00000000 		.word	flowDisplay2
 5695 0538 00000000 		.word	digits
 5696 053c 00000000 		.word	Display2_rxBuffer
 5697 0540 00000000 		.word	side
 5698 0544 00000000 		.word	animacion
 5699 0548 00000000 		.word	numberKeys1
 5700 054c 00000000 		.word	count_protector
 5701              	.L368:
1415:.\main.c      ****                             SetPicture(2,DISPLAY_INICIO0);
 5702              		.loc 1 1415 0
 5703 0550 0022     		movs	r2, #0
 5704 0552 BA4B     		ldr	r3, .L519
 5705 0554 1A60     		str	r2, [r3]
1416:.\main.c      ****                         break;
 5706              		.loc 1 1416 0
 5707 0556 0220     		movs	r0, #2
 5708 0558 0121     		movs	r1, #1
 5709 055a FFF7FEFF 		bl	SetPicture
 5710              	.LVL525:
 5711              	.L366:
1420:.\main.c      ****                 Display2_ClearRxBuffer();
ARM GAS  C:\Users\RECEPC~1\AppData\Local\Temp\cc6Stwwd.s 			page 155


 5712              		.loc 1 1420 0
 5713 055e 0A20     		movs	r0, #10
 5714 0560 FFF7FEFF 		bl	CyDelay
 5715              	.LVL526:
1421:.\main.c      ****             }
 5716              		.loc 1 1421 0
 5717 0564 FFF7FEFF 		bl	Display2_ClearRxBuffer
 5718              	.LVL527:
 5719              	.L365:
1423:.\main.c      ****                 flowDisplay2 = 0;	
 5720              		.loc 1 1423 0
 5721 0568 B54B     		ldr	r3, .L519+4
 5722 056a 1B78     		ldrb	r3, [r3]	@ zero_extendqisi2
 5723 056c 1D2B     		cmp	r3, #29
 5724 056e 40F24087 		bls	.L309
1424:.\main.c      ****     			count_protector=0;
 5725              		.loc 1 1424 0
 5726 0572 0023     		movs	r3, #0
 5727 0574 B14A     		ldr	r2, .L519
 5728 0576 1360     		str	r3, [r2]
1425:.\main.c      ****                 SetPicture(2,DISPLAY_INICIO0);
 5729              		.loc 1 1425 0
 5730 0578 B14A     		ldr	r2, .L519+4
 5731 057a 1370     		strb	r3, [r2]
1426:.\main.c      ****     		}
 5732              		.loc 1 1426 0
 5733 057c 0220     		movs	r0, #2
 5734 057e 0121     		movs	r1, #1
 5735 0580 FFF7FEFF 		bl	SetPicture
 5736              	.LVL528:
 5737 0584 00F035BF 		b	.L309
 5738              	.L319:
1434:.\main.c      ****             if (side.b.activeHose == side.b.hose){                
 5739              		.loc 1 1434 0
 5740 0588 AE4C     		ldr	r4, .L519+8
 5741 058a 94F81201 		ldrb	r0, [r4, #274]	@ zero_extendqisi2
 5742 058e FFF7FEFF 		bl	PumpHoseActiveState
 5743              	.LVL529:
 5744 0592 0146     		mov	r1, r0
 5745 0594 84F81202 		strb	r0, [r4, #530]
1435:.\main.c      ****                 if(PresetData(side.b.dir,side.b.activeHose,bufferDisplay2.presetValue[0],bufferDisp
 5746              		.loc 1 1435 0
 5747 0598 94F81332 		ldrb	r3, [r4, #531]	@ zero_extendqisi2
 5748 059c 9842     		cmp	r0, r3
 5749 059e 3DD1     		bne	.L371
1436:.\main.c      ****                     isr_4_Stop(); 
 5750              		.loc 1 1436 0
 5751 05a0 A94A     		ldr	r2, .L519+12
 5752 05a2 92F86330 		ldrb	r3, [r2, #99]	@ zero_extendqisi2
 5753 05a6 94F81201 		ldrb	r0, [r4, #274]	@ zero_extendqisi2
 5754 05aa 6532     		adds	r2, r2, #101
 5755 05ac 03F00303 		and	r3, r3, #3
 5756 05b0 FFF7FEFF 		bl	PresetData
 5757              	.LVL530:
 5758 05b4 0128     		cmp	r0, #1
 5759 05b6 23D1     		bne	.L372
1437:.\main.c      ****                     Timer_Animacion2_Stop();
ARM GAS  C:\Users\RECEPC~1\AppData\Local\Temp\cc6Stwwd.s 			page 156


 5760              		.loc 1 1437 0
 5761 05b8 FFF7FEFF 		bl	isr_4_Stop
 5762              	.LVL531:
1438:.\main.c      ****                     get_state(side.b.dir);
 5763              		.loc 1 1438 0
 5764 05bc FFF7FEFF 		bl	Timer_Animacion2_Stop
 5765              	.LVL532:
1439:.\main.c      ****                     //CyDelay(20);
 5766              		.loc 1 1439 0
 5767 05c0 94F81201 		ldrb	r0, [r4, #274]	@ zero_extendqisi2
 5768 05c4 FFF7FEFF 		bl	get_state
 5769              	.LVL533:
1441:.\main.c      ****                     //CyDelay(50);
 5770              		.loc 1 1441 0
 5771 05c8 94F81201 		ldrb	r0, [r4, #274]	@ zero_extendqisi2
 5772 05cc 40F01000 		orr	r0, r0, #16
 5773 05d0 FFF7FEFF 		bl	Pump_PutChar
 5774              	.LVL534:
1443:.\main.c      ****                     flowDisplay2 = 8;                    
 5775              		.loc 1 1443 0
 5776 05d4 0123     		movs	r3, #1
 5777 05d6 84F81932 		strb	r3, [r4, #537]
1444:.\main.c      ****                     count_protector2 = 0;   
 5778              		.loc 1 1444 0
 5779 05da 0821     		movs	r1, #8
 5780 05dc 974A     		ldr	r2, .L519
 5781 05de 1160     		str	r1, [r2]
1445:.\main.c      **** 					bufferDisplay2.flagActiveSale = true;					
 5782              		.loc 1 1445 0
 5783 05e0 0020     		movs	r0, #0
 5784 05e2 9A4A     		ldr	r2, .L519+16
 5785 05e4 1070     		strb	r0, [r2]
1446:.\main.c      ****                     SetPicture(2,DISPLAY_DESPACHANDO);   
 5786              		.loc 1 1446 0
 5787 05e6 984C     		ldr	r4, .L519+12
 5788 05e8 84F83531 		strb	r3, [r4, #309]
1447:.\main.c      ****                     ShowMessage(2,(bufferDisplay2.presetValue[0]),18);
 5789              		.loc 1 1447 0
 5790 05ec 0220     		movs	r0, #2
 5791 05ee FFF7FEFF 		bl	SetPicture
 5792              	.LVL535:
1448:.\main.c      ****                 }else{
 5793              		.loc 1 1448 0
 5794 05f2 0220     		movs	r0, #2
 5795 05f4 04F16501 		add	r1, r4, #101
 5796 05f8 1222     		movs	r2, #18
 5797 05fa FFF7FEFF 		bl	ShowMessage
 5798              	.LVL536:
 5799 05fe 10E0     		b	.L373
 5800              	.L372:
1450:.\main.c      ****                     SetPicture(2,DISPLAY_ERROR);
 5801              		.loc 1 1450 0
 5802 0600 0021     		movs	r1, #0
 5803 0602 8E4B     		ldr	r3, .L519
 5804 0604 1960     		str	r1, [r3]
1451:.\main.c      ****                     CyDelay(200);
 5805              		.loc 1 1451 0
ARM GAS  C:\Users\RECEPC~1\AppData\Local\Temp\cc6Stwwd.s 			page 157


 5806 0606 0220     		movs	r0, #2
 5807 0608 FFF7FEFF 		bl	SetPicture
 5808              	.LVL537:
1452:.\main.c      ****                     SetPicture(2,DISPLAY_INICIO0);
 5809              		.loc 1 1452 0
 5810 060c C820     		movs	r0, #200
 5811 060e FFF7FEFF 		bl	CyDelay
 5812              	.LVL538:
1453:.\main.c      ****                 }
 5813              		.loc 1 1453 0
 5814 0612 0220     		movs	r0, #2
 5815 0614 0121     		movs	r1, #1
 5816 0616 FFF7FEFF 		bl	SetPicture
 5817              	.LVL539:
 5818 061a 02E0     		b	.L373
 5819              	.L371:
1456:.\main.c      **** //                if(count_protector>=60){
 5820              		.loc 1 1456 0
 5821 061c 0722     		movs	r2, #7
 5822 061e 874B     		ldr	r3, .L519
 5823 0620 1A60     		str	r2, [r3]
 5824              	.L373:
1463:.\main.c      ****                 if((Display2_rxBuffer[0]==0xAA) && (Display2_rxBuffer[6]==0xC3) && (Display2_rxBuff
 5825              		.loc 1 1463 0
 5826 0622 FFF7FEFF 		bl	Display2_GetRxBufferSize
 5827              	.LVL540:
 5828 0626 0828     		cmp	r0, #8
 5829 0628 1DD1     		bne	.L374
1464:.\main.c      ****                     switch(Display2_rxBuffer[3]){                        
 5830              		.loc 1 1464 0
 5831 062a 894B     		ldr	r3, .L519+20
 5832 062c 1B78     		ldrb	r3, [r3]	@ zero_extendqisi2
 5833 062e DBB2     		uxtb	r3, r3
 5834 0630 AA2B     		cmp	r3, #170
 5835 0632 15D1     		bne	.L375
1464:.\main.c      ****                     switch(Display2_rxBuffer[3]){                        
 5836              		.loc 1 1464 0 is_stmt 0 discriminator 1
 5837 0634 864B     		ldr	r3, .L519+20
 5838 0636 9B79     		ldrb	r3, [r3, #6]	@ zero_extendqisi2
 5839 0638 DBB2     		uxtb	r3, r3
 5840 063a C32B     		cmp	r3, #195
 5841 063c 10D1     		bne	.L375
1464:.\main.c      ****                     switch(Display2_rxBuffer[3]){                        
 5842              		.loc 1 1464 0 discriminator 2
 5843 063e 844B     		ldr	r3, .L519+20
 5844 0640 DB79     		ldrb	r3, [r3, #7]	@ zero_extendqisi2
 5845 0642 DBB2     		uxtb	r3, r3
 5846 0644 3C2B     		cmp	r3, #60
 5847 0646 0BD1     		bne	.L375
1465:.\main.c      ****                         case 0x7E:  //Pantalla Inicial                                             
 5848              		.loc 1 1465 0 is_stmt 1
 5849 0648 814B     		ldr	r3, .L519+20
 5850 064a DB78     		ldrb	r3, [r3, #3]	@ zero_extendqisi2
 5851 064c DBB2     		uxtb	r3, r3
 5852 064e 7E2B     		cmp	r3, #126
 5853 0650 06D1     		bne	.L375
1467:.\main.c      ****                             flowDisplay2 = 0;
ARM GAS  C:\Users\RECEPC~1\AppData\Local\Temp\cc6Stwwd.s 			page 158


 5854              		.loc 1 1467 0
 5855 0652 0220     		movs	r0, #2
 5856 0654 0121     		movs	r1, #1
 5857 0656 FFF7FEFF 		bl	SetPicture
 5858              	.LVL541:
1468:.\main.c      ****                         break;
 5859              		.loc 1 1468 0
 5860 065a 0022     		movs	r2, #0
 5861 065c 774B     		ldr	r3, .L519
 5862 065e 1A60     		str	r2, [r3]
 5863              	.L375:
1472:.\main.c      ****             }
 5864              		.loc 1 1472 0
 5865 0660 0A20     		movs	r0, #10
 5866 0662 FFF7FEFF 		bl	CyDelay
 5867              	.LVL542:
 5868              	.L374:
1474:.\main.c      ****         break;
 5869              		.loc 1 1474 0
 5870 0666 FFF7FEFF 		bl	Display2_ClearRxBuffer
 5871              	.LVL543:
1475:.\main.c      ****             
 5872              		.loc 1 1475 0
 5873 066a 00F0C2BE 		b	.L309
 5874              	.L320:
1478:.\main.c      ****             switch (side.b.pumpState){
 5875              		.loc 1 1478 0
 5876 066e 754C     		ldr	r4, .L519+8
 5877 0670 94F81201 		ldrb	r0, [r4, #274]	@ zero_extendqisi2
 5878 0674 FFF7FEFF 		bl	get_state
 5879              	.LVL544:
 5880 0678 84F81602 		strb	r0, [r4, #534]
1479:.\main.c      ****                 case PUMP_IDLE: //Espera - venta cero
 5881              		.loc 1 1479 0
 5882 067c 0638     		subs	r0, r0, #6
 5883 067e 0528     		cmp	r0, #5
 5884 0680 00F2B786 		bhi	.L309
 5885 0684 DFE810F0 		tbh	[pc, r0, lsl #1]
 5886              	.L378:
 5887 0688 0600     		.2byte	(.L377-.L378)/2
 5888 068a B506     		.2byte	(.L309-.L378)/2
 5889 068c B506     		.2byte	(.L309-.L378)/2
 5890 068e 1600     		.2byte	(.L379-.L378)/2
 5891 0690 1F00     		.2byte	(.L380-.L378)/2
 5892 0692 4C00     		.2byte	(.L381-.L378)/2
 5893              		.p2align 1
 5894              	.L377:
1481:.\main.c      ****                     side.b.rfState = RF_ZERO_SALE;
 5895              		.loc 1 1481 0
 5896 0694 0023     		movs	r3, #0
 5897 0696 694A     		ldr	r2, .L519
 5898 0698 1360     		str	r3, [r2]
1482:.\main.c      ****                     bufferDisplay2.flagActiveSale = false;
 5899              		.loc 1 1482 0
 5900 069a 0C21     		movs	r1, #12
 5901 069c 694A     		ldr	r2, .L519+8
 5902 069e 82F81512 		strb	r1, [r2, #533]
ARM GAS  C:\Users\RECEPC~1\AppData\Local\Temp\cc6Stwwd.s 			page 159


1483:.\main.c      ****                     SetPicture(2,DISPLAY_INICIO0);
 5903              		.loc 1 1483 0
 5904 06a2 694A     		ldr	r2, .L519+12
 5905 06a4 82F83531 		strb	r3, [r2, #309]
1484:.\main.c      ****                 break;
 5906              		.loc 1 1484 0
 5907 06a8 0220     		movs	r0, #2
 5908 06aa 0121     		movs	r1, #1
 5909 06ac FFF7FEFF 		bl	SetPicture
 5910              	.LVL545:
1485:.\main.c      ****                 case PUMP_BUSY: //Surtiendo                    
 5911              		.loc 1 1485 0
 5912 06b0 00F09FBE 		b	.L309
 5913              	.L379:
1487:.\main.c      ****                     bufferDisplay2.flagEndSale = false;
 5914              		.loc 1 1487 0
 5915 06b4 644B     		ldr	r3, .L519+12
 5916 06b6 0122     		movs	r2, #1
 5917 06b8 83F83521 		strb	r2, [r3, #309]
1488:.\main.c      ****                     //side.a.rfState = RF_DELIVERING;
 5918              		.loc 1 1488 0
 5919 06bc 0022     		movs	r2, #0
 5920 06be 83F80321 		strb	r2, [r3, #259]
1490:.\main.c      ****                 case PUMP_PEOT: //reporte fin venta                    
 5921              		.loc 1 1490 0
 5922 06c2 00F096BE 		b	.L309
 5923              	.L380:
1492:.\main.c      ****                         if(bufferDisplay2.flagPrint ==1){
 5924              		.loc 1 1492 0
 5925 06c6 5F4B     		ldr	r3, .L519+8
 5926 06c8 93F81201 		ldrb	r0, [r3, #274]	@ zero_extendqisi2
 5927 06cc FFF7FEFF 		bl	getSale
 5928              	.LVL546:
 5929 06d0 0028     		cmp	r0, #0
 5930 06d2 00F08E86 		beq	.L309
1493:.\main.c      ****                             bufferDisplay2.flagEndSale = true;
 5931              		.loc 1 1493 0
 5932 06d6 5C4B     		ldr	r3, .L519+12
 5933 06d8 93F83431 		ldrb	r3, [r3, #308]	@ zero_extendqisi2
 5934 06dc 012B     		cmp	r3, #1
 5935 06de 0AD1     		bne	.L382
1494:.\main.c      ****                             flowDisplay2 = 0;
 5936              		.loc 1 1494 0
 5937 06e0 0121     		movs	r1, #1
 5938 06e2 594B     		ldr	r3, .L519+12
 5939 06e4 83F80311 		strb	r1, [r3, #259]
1495:.\main.c      ****                             SetPicture(2,DISPLAY_INICIO0); 
 5940              		.loc 1 1495 0
 5941 06e8 0022     		movs	r2, #0
 5942 06ea 544B     		ldr	r3, .L519
 5943 06ec 1A60     		str	r2, [r3]
1496:.\main.c      ****                         }else{
 5944              		.loc 1 1496 0
 5945 06ee 0220     		movs	r0, #2
 5946 06f0 FFF7FEFF 		bl	SetPicture
 5947              	.LVL547:
 5948 06f4 0AE0     		b	.L383
ARM GAS  C:\Users\RECEPC~1\AppData\Local\Temp\cc6Stwwd.s 			page 160


 5949              	.L382:
1498:.\main.c      ****                             bufferDisplay2.flagEndSale = true;
 5950              		.loc 1 1498 0
 5951 06f6 0622     		movs	r2, #6
 5952 06f8 504B     		ldr	r3, .L519
 5953 06fa 1A60     		str	r2, [r3]
1499:.\main.c      ****                             SetPicture(2,DISPLAY_DESEA_IMPRIMIR_RECIBO); 
 5954              		.loc 1 1499 0
 5955 06fc 0122     		movs	r2, #1
 5956 06fe 524B     		ldr	r3, .L519+12
 5957 0700 83F80321 		strb	r2, [r3, #259]
1500:.\main.c      ****                         }
 5958              		.loc 1 1500 0
 5959 0704 0220     		movs	r0, #2
 5960 0706 0B21     		movs	r1, #11
 5961 0708 FFF7FEFF 		bl	SetPicture
 5962              	.LVL548:
 5963              	.L383:
1502:.\main.c      ****                         side.b.RFstateReport = 1;
 5964              		.loc 1 1502 0
 5965 070c 0022     		movs	r2, #0
 5966 070e 4E4B     		ldr	r3, .L519+12
 5967 0710 83F83521 		strb	r2, [r3, #309]
1503:.\main.c      ****                     }                                         
 5968              		.loc 1 1503 0
 5969 0714 0122     		movs	r2, #1
 5970 0716 4B4B     		ldr	r3, .L519+8
 5971 0718 83F81922 		strb	r2, [r3, #537]
 5972 071c 00F069BE 		b	.L309
 5973              	.L381:
1507:.\main.c      ****                         if(bufferDisplay2.flagPrint ==1){
 5974              		.loc 1 1507 0
 5975 0720 484B     		ldr	r3, .L519+8
 5976 0722 93F81201 		ldrb	r0, [r3, #274]	@ zero_extendqisi2
 5977 0726 FFF7FEFF 		bl	getSale
 5978              	.LVL549:
 5979 072a 0028     		cmp	r0, #0
 5980 072c 00F06186 		beq	.L309
1508:.\main.c      ****                             bufferDisplay1.flagEndSale = true;
 5981              		.loc 1 1508 0
 5982 0730 454B     		ldr	r3, .L519+12
 5983 0732 93F83431 		ldrb	r3, [r3, #308]	@ zero_extendqisi2
 5984 0736 012B     		cmp	r3, #1
 5985 0738 0AD1     		bne	.L384
1509:.\main.c      ****                             flowDisplay2 = 0;
 5986              		.loc 1 1509 0
 5987 073a 0121     		movs	r1, #1
 5988 073c 454B     		ldr	r3, .L519+24
 5989 073e 83F80311 		strb	r1, [r3, #259]
1510:.\main.c      ****                             SetPicture(2,DISPLAY_INICIO0); 
 5990              		.loc 1 1510 0
 5991 0742 0022     		movs	r2, #0
 5992 0744 3D4B     		ldr	r3, .L519
 5993 0746 1A60     		str	r2, [r3]
1511:.\main.c      ****                         }else{
 5994              		.loc 1 1511 0
 5995 0748 0220     		movs	r0, #2
ARM GAS  C:\Users\RECEPC~1\AppData\Local\Temp\cc6Stwwd.s 			page 161


 5996 074a FFF7FEFF 		bl	SetPicture
 5997              	.LVL550:
 5998 074e 0AE0     		b	.L385
 5999              	.L384:
1513:.\main.c      ****                             bufferDisplay2.flagEndSale = true;
 6000              		.loc 1 1513 0
 6001 0750 0622     		movs	r2, #6
 6002 0752 3A4B     		ldr	r3, .L519
 6003 0754 1A60     		str	r2, [r3]
1514:.\main.c      ****                             SetPicture(2,DISPLAY_DESEA_IMPRIMIR_RECIBO); 
 6004              		.loc 1 1514 0
 6005 0756 0122     		movs	r2, #1
 6006 0758 3B4B     		ldr	r3, .L519+12
 6007 075a 83F80321 		strb	r2, [r3, #259]
1515:.\main.c      ****                         }
 6008              		.loc 1 1515 0
 6009 075e 0220     		movs	r0, #2
 6010 0760 0B21     		movs	r1, #11
 6011 0762 FFF7FEFF 		bl	SetPicture
 6012              	.LVL551:
 6013              	.L385:
1517:.\main.c      ****                         side.b.RFstateReport = 1;
 6014              		.loc 1 1517 0
 6015 0766 0022     		movs	r2, #0
 6016 0768 374B     		ldr	r3, .L519+12
 6017 076a 83F83521 		strb	r2, [r3, #309]
1518:.\main.c      ****                     }
 6018              		.loc 1 1518 0
 6019 076e 0122     		movs	r2, #1
 6020 0770 344B     		ldr	r3, .L519+8
 6021 0772 83F81922 		strb	r2, [r3, #537]
 6022 0776 00F03CBE 		b	.L309
 6023              	.L321:
1527:.\main.c      ****                 case 0: //Cancelar
 6024              		.loc 1 1527 0
 6025 077a 0220     		movs	r0, #2
 6026 077c 0A21     		movs	r1, #10
 6027 077e 0022     		movs	r2, #0
 6028 0780 FFF7FEFF 		bl	alphanumeric_keyboard
 6029              	.LVL552:
 6030 0784 18B1     		cbz	r0, .L386
 6031 0786 0128     		cmp	r0, #1
 6032 0788 45D0     		beq	.L387
 6033 078a 00F032BE 		b	.L309
 6034              	.L386:
1529:.\main.c      ****                         case 1://Placa
 6035              		.loc 1 1529 0
 6036 078e 2E4B     		ldr	r3, .L519+12
 6037 0790 93F80031 		ldrb	r3, [r3, #256]	@ zero_extendqisi2
 6038 0794 013B     		subs	r3, r3, #1
 6039 0796 032B     		cmp	r3, #3
 6040 0798 39D8     		bhi	.L388
 6041 079a DFE803F0 		tbb	[pc, r3]
 6042              	.L390:
 6043 079e 0A       		.byte	(.L496-.L390)/2
 6044 079f 1D       		.byte	(.L497-.L390)/2
 6045 07a0 29       		.byte	(.L498-.L390)/2
ARM GAS  C:\Users\RECEPC~1\AppData\Local\Temp\cc6Stwwd.s 			page 162


 6046 07a1 35       		.byte	(.L499-.L390)/2
 6047              	.LVL553:
 6048              		.p2align 1
 6049              	.L394:
1532:.\main.c      ****                             }
 6050              		.loc 1 1532 0 discriminator 3
 6051 07a2 294A     		ldr	r2, .L519+12
 6052 07a4 1A44     		add	r2, r2, r3
 6053 07a6 0021     		movs	r1, #0
 6054 07a8 82F8DF10 		strb	r1, [r2, #223]
1531:.\main.c      ****                                 bufferDisplay2.licenceSale[x]=0;
 6055              		.loc 1 1531 0 discriminator 3
 6056 07ac 0133     		adds	r3, r3, #1
 6057              	.LVL554:
 6058 07ae DBB2     		uxtb	r3, r3
 6059              	.LVL555:
 6060 07b0 00E0     		b	.L389
 6061              	.LVL556:
 6062              	.L496:
1529:.\main.c      ****                         case 1://Placa
 6063              		.loc 1 1529 0
 6064 07b2 0023     		movs	r3, #0
 6065              	.L389:
 6066              	.LVL557:
1531:.\main.c      ****                                 bufferDisplay2.licenceSale[x]=0;
 6067              		.loc 1 1531 0 discriminator 1
 6068 07b4 0A2B     		cmp	r3, #10
 6069 07b6 F4D9     		bls	.L394
1534:.\main.c      ****                             SetPicture(2,DISPLAY_INICIO0);
 6070              		.loc 1 1534 0
 6071 07b8 0022     		movs	r2, #0
 6072 07ba 204B     		ldr	r3, .L519
 6073              	.LVL558:
 6074 07bc 1A60     		str	r2, [r3]
1535:.\main.c      ****                         break;
 6075              		.loc 1 1535 0
 6076 07be 0220     		movs	r0, #2
 6077 07c0 0121     		movs	r1, #1
 6078 07c2 FFF7FEFF 		bl	SetPicture
 6079              	.LVL559:
1536:.\main.c      ****                         
 6080              		.loc 1 1536 0
 6081 07c6 22E0     		b	.L388
 6082              	.LVL560:
 6083              	.L395:
1540:.\main.c      ****                             }
 6084              		.loc 1 1540 0 discriminator 3
 6085 07c8 1F4A     		ldr	r2, .L519+12
 6086 07ca 1A44     		add	r2, r2, r3
 6087 07cc 0021     		movs	r1, #0
 6088 07ce 82F8EA10 		strb	r1, [r2, #234]
1539:.\main.c      ****                                 bufferDisplay2.mileageSale[x]=0;
 6089              		.loc 1 1539 0 discriminator 3
 6090 07d2 0133     		adds	r3, r3, #1
 6091              	.LVL561:
 6092 07d4 DBB2     		uxtb	r3, r3
 6093              	.LVL562:
ARM GAS  C:\Users\RECEPC~1\AppData\Local\Temp\cc6Stwwd.s 			page 163


 6094 07d6 00E0     		b	.L391
 6095              	.LVL563:
 6096              	.L497:
1529:.\main.c      ****                         case 1://Placa
 6097              		.loc 1 1529 0
 6098 07d8 0023     		movs	r3, #0
 6099              	.L391:
 6100              	.LVL564:
1539:.\main.c      ****                                 bufferDisplay2.mileageSale[x]=0;
 6101              		.loc 1 1539 0 discriminator 1
 6102 07da 0A2B     		cmp	r3, #10
 6103 07dc F4D9     		bls	.L395
 6104 07de 16E0     		b	.L388
 6105              	.L396:
1546:.\main.c      ****                             }
 6106              		.loc 1 1546 0 discriminator 3
 6107 07e0 194A     		ldr	r2, .L519+12
 6108 07e2 1A44     		add	r2, r2, r3
 6109 07e4 0021     		movs	r1, #0
 6110 07e6 82F8F510 		strb	r1, [r2, #245]
1545:.\main.c      ****                                 bufferDisplay2.identySale[x]=0;
 6111              		.loc 1 1545 0 discriminator 3
 6112 07ea 0133     		adds	r3, r3, #1
 6113              	.LVL565:
 6114 07ec DBB2     		uxtb	r3, r3
 6115              	.LVL566:
 6116 07ee 00E0     		b	.L392
 6117              	.LVL567:
 6118              	.L498:
1529:.\main.c      ****                         case 1://Placa
 6119              		.loc 1 1529 0
 6120 07f0 0023     		movs	r3, #0
 6121              	.L392:
 6122              	.LVL568:
1545:.\main.c      ****                                 bufferDisplay2.identySale[x]=0;
 6123              		.loc 1 1545 0 discriminator 1
 6124 07f2 0A2B     		cmp	r3, #10
 6125 07f4 F4D9     		bls	.L396
 6126 07f6 0AE0     		b	.L388
 6127              	.L397:
1551:.\main.c      ****                             }
 6128              		.loc 1 1551 0 discriminator 3
 6129 07f8 134A     		ldr	r2, .L519+12
 6130 07fa 1A44     		add	r2, r2, r3
 6131 07fc 0021     		movs	r1, #0
 6132 07fe 82F83611 		strb	r1, [r2, #310]
1550:.\main.c      ****                                 bufferDisplay2.shiftId[x]=0;
 6133              		.loc 1 1550 0 discriminator 3
 6134 0802 0133     		adds	r3, r3, #1
 6135              	.LVL569:
 6136 0804 DBB2     		uxtb	r3, r3
 6137              	.LVL570:
 6138 0806 00E0     		b	.L393
 6139              	.LVL571:
 6140              	.L499:
1529:.\main.c      ****                         case 1://Placa
 6141              		.loc 1 1529 0
ARM GAS  C:\Users\RECEPC~1\AppData\Local\Temp\cc6Stwwd.s 			page 164


 6142 0808 0023     		movs	r3, #0
 6143              	.L393:
 6144              	.LVL572:
1550:.\main.c      ****                                 bufferDisplay2.shiftId[x]=0;
 6145              		.loc 1 1550 0 discriminator 1
 6146 080a 0A2B     		cmp	r3, #10
 6147 080c F4D9     		bls	.L397
 6148              	.LVL573:
 6149              	.L388:
1555:.\main.c      ****                 break;
 6150              		.loc 1 1555 0
 6151 080e FFF7FEFF 		bl	Display2_ClearRxBuffer
 6152              	.LVL574:
1556:.\main.c      ****                     
 6153              		.loc 1 1556 0
 6154 0812 00F0EEBD 		b	.L309
 6155              	.L387:
1559:.\main.c      ****                         case 1://Placa
 6156              		.loc 1 1559 0
 6157 0816 0C4B     		ldr	r3, .L519+12
 6158 0818 93F80031 		ldrb	r3, [r3, #256]	@ zero_extendqisi2
 6159 081c 013B     		subs	r3, r3, #1
 6160 081e 032B     		cmp	r3, #3
 6161 0820 7FD8     		bhi	.L398
 6162 0822 DFE803F0 		tbb	[pc, r3]
 6163              	.L400:
 6164 0826 19       		.byte	(.L500-.L400)/2
 6165 0827 42       		.byte	(.L501-.L400)/2
 6166 0828 58       		.byte	(.L502-.L400)/2
 6167 0829 5E       		.byte	(.L403-.L400)/2
 6168              	.LVL575:
 6169              		.p2align 1
 6170              	.L404:
1562:.\main.c      ****                             }
 6171              		.loc 1 1562 0 discriminator 3
 6172 082a 074A     		ldr	r2, .L519+12
 6173 082c 1A44     		add	r2, r2, r3
 6174 082e 92F84B10 		ldrb	r1, [r2, #75]	@ zero_extendqisi2
 6175 0832 82F8DF10 		strb	r1, [r2, #223]
1561:.\main.c      ****                                 bufferDisplay2.licenceSale[x]=bufferDisplay2.valueKeys[x];
 6176              		.loc 1 1561 0 discriminator 3
 6177 0836 0133     		adds	r3, r3, #1
 6178              	.LVL576:
 6179 0838 DBB2     		uxtb	r3, r3
 6180              	.LVL577:
 6181 083a 0EE0     		b	.L399
 6182              	.L520:
 6183              		.align	2
 6184              	.L519:
 6185 083c 00000000 		.word	flowDisplay2
 6186 0840 00000000 		.word	count_protector
 6187 0844 00000000 		.word	side
 6188 0848 00000000 		.word	bufferDisplay2
 6189 084c 00000000 		.word	count_protector2
 6190 0850 00000000 		.word	Display2_rxBuffer
 6191 0854 00000000 		.word	bufferDisplay1
 6192              	.LVL578:
ARM GAS  C:\Users\RECEPC~1\AppData\Local\Temp\cc6Stwwd.s 			page 165


 6193              	.L500:
1559:.\main.c      ****                         case 1://Placa
 6194              		.loc 1 1559 0
 6195 0858 0023     		movs	r3, #0
 6196              	.L399:
 6197              	.LVL579:
1561:.\main.c      ****                                 bufferDisplay2.licenceSale[x]=bufferDisplay2.valueKeys[x];
 6198              		.loc 1 1561 0 discriminator 1
 6199 085a B04A     		ldr	r2, .L521
 6200 085c 92F84B20 		ldrb	r2, [r2, #75]	@ zero_extendqisi2
 6201 0860 9A42     		cmp	r2, r3
 6202 0862 E2D2     		bcs	.L404
1564:.\main.c      ****                                 imprimir(printPortB,side.b.dir);
 6203              		.loc 1 1564 0
 6204 0864 AD4B     		ldr	r3, .L521
 6205              	.LVL580:
 6206 0866 93F80331 		ldrb	r3, [r3, #259]	@ zero_extendqisi2
 6207 086a 73B1     		cbz	r3, .L405
1565:.\main.c      ****                                 flowDisplay2 = 0;
 6208              		.loc 1 1565 0
 6209 086c AC4B     		ldr	r3, .L521+4
 6210 086e 1878     		ldrb	r0, [r3]	@ zero_extendqisi2
 6211 0870 AC4B     		ldr	r3, .L521+8
 6212 0872 93F81211 		ldrb	r1, [r3, #274]	@ zero_extendqisi2
 6213 0876 FFF7FEFF 		bl	imprimir
 6214              	.LVL581:
1566:.\main.c      ****                                 SetPicture(2,DISPLAY_INICIO0); 
 6215              		.loc 1 1566 0
 6216 087a 0022     		movs	r2, #0
 6217 087c AA4B     		ldr	r3, .L521+12
 6218 087e 1A60     		str	r2, [r3]
1567:.\main.c      ****                             }else{
 6219              		.loc 1 1567 0
 6220 0880 0220     		movs	r0, #2
 6221 0882 0121     		movs	r1, #1
 6222 0884 FFF7FEFF 		bl	SetPicture
 6223              	.LVL582:
 6224 0888 4BE0     		b	.L398
 6225              	.L405:
1569:.\main.c      ****                                 SetPicture(2,DISPLAY_SUBA_MANIJA);
 6226              		.loc 1 1569 0
 6227 088a 0721     		movs	r1, #7
 6228 088c A64B     		ldr	r3, .L521+12
 6229 088e 1960     		str	r1, [r3]
1570:.\main.c      ****                             }
 6230              		.loc 1 1570 0
 6231 0890 0220     		movs	r0, #2
 6232 0892 FFF7FEFF 		bl	SetPicture
 6233              	.LVL583:
 6234 0896 44E0     		b	.L398
 6235              	.LVL584:
 6236              	.L406:
1576:.\main.c      ****                             }
 6237              		.loc 1 1576 0 discriminator 3
 6238 0898 A04A     		ldr	r2, .L521
 6239 089a 1A44     		add	r2, r2, r3
 6240 089c 92F84B10 		ldrb	r1, [r2, #75]	@ zero_extendqisi2
ARM GAS  C:\Users\RECEPC~1\AppData\Local\Temp\cc6Stwwd.s 			page 166


 6241 08a0 82F8EA10 		strb	r1, [r2, #234]
1575:.\main.c      ****                                 bufferDisplay2.mileageSale[x]=bufferDisplay2.valueKeys[x];
 6242              		.loc 1 1575 0 discriminator 3
 6243 08a4 0133     		adds	r3, r3, #1
 6244              	.LVL585:
 6245 08a6 DBB2     		uxtb	r3, r3
 6246              	.LVL586:
 6247 08a8 00E0     		b	.L401
 6248              	.LVL587:
 6249              	.L501:
1559:.\main.c      ****                         case 1://Placa
 6250              		.loc 1 1559 0
 6251 08aa 0023     		movs	r3, #0
 6252              	.L401:
 6253              	.LVL588:
1575:.\main.c      ****                                 bufferDisplay2.mileageSale[x]=bufferDisplay2.valueKeys[x];
 6254              		.loc 1 1575 0 discriminator 1
 6255 08ac 9B4A     		ldr	r2, .L521
 6256 08ae 92F84B20 		ldrb	r2, [r2, #75]	@ zero_extendqisi2
 6257 08b2 9A42     		cmp	r2, r3
 6258 08b4 F0D2     		bcs	.L406
1578:.\main.c      ****                             SetPicture(2,DISPLAY_SUBA_MANIJA);
 6259              		.loc 1 1578 0
 6260 08b6 0721     		movs	r1, #7
 6261 08b8 9B4B     		ldr	r3, .L521+12
 6262              	.LVL589:
 6263 08ba 1960     		str	r1, [r3]
1579:.\main.c      ****                         break;
 6264              		.loc 1 1579 0
 6265 08bc 0220     		movs	r0, #2
 6266 08be FFF7FEFF 		bl	SetPicture
 6267              	.LVL590:
1580:.\main.c      ****                         
 6268              		.loc 1 1580 0
 6269 08c2 2EE0     		b	.L398
 6270              	.LVL591:
 6271              	.L407:
1584:.\main.c      ****                             }
 6272              		.loc 1 1584 0 discriminator 3
 6273 08c4 954A     		ldr	r2, .L521
 6274 08c6 1A44     		add	r2, r2, r3
 6275 08c8 92F84B10 		ldrb	r1, [r2, #75]	@ zero_extendqisi2
 6276 08cc 82F8F510 		strb	r1, [r2, #245]
1583:.\main.c      ****                                 bufferDisplay2.identySale[x]=bufferDisplay2.valueKeys[x];
 6277              		.loc 1 1583 0 discriminator 3
 6278 08d0 0133     		adds	r3, r3, #1
 6279              	.LVL592:
 6280 08d2 DBB2     		uxtb	r3, r3
 6281              	.LVL593:
 6282 08d4 00E0     		b	.L402
 6283              	.LVL594:
 6284              	.L502:
1559:.\main.c      ****                         case 1://Placa
 6285              		.loc 1 1559 0
 6286 08d6 0023     		movs	r3, #0
 6287              	.L402:
 6288              	.LVL595:
ARM GAS  C:\Users\RECEPC~1\AppData\Local\Temp\cc6Stwwd.s 			page 167


1583:.\main.c      ****                                 bufferDisplay2.identySale[x]=bufferDisplay2.valueKeys[x];
 6289              		.loc 1 1583 0 discriminator 1
 6290 08d8 904A     		ldr	r2, .L521
 6291 08da 92F84B20 		ldrb	r2, [r2, #75]	@ zero_extendqisi2
 6292 08de 9A42     		cmp	r2, r3
 6293 08e0 F0D2     		bcs	.L407
 6294              	.LVL596:
 6295              	.L403:
1559:.\main.c      ****                         case 1://Placa
 6296              		.loc 1 1559 0 discriminator 1
 6297 08e2 0023     		movs	r3, #0
 6298 08e4 07E0     		b	.L408
 6299              	.LVL597:
 6300              	.L409:
1588:.\main.c      ****                             }
 6301              		.loc 1 1588 0 discriminator 3
 6302 08e6 8D4A     		ldr	r2, .L521
 6303 08e8 1A44     		add	r2, r2, r3
 6304 08ea 92F84B10 		ldrb	r1, [r2, #75]	@ zero_extendqisi2
 6305 08ee 82F83611 		strb	r1, [r2, #310]
1587:.\main.c      ****                                 bufferDisplay2.shiftId[x] =bufferDisplay2.valueKeys[x];
 6306              		.loc 1 1587 0 discriminator 3
 6307 08f2 0133     		adds	r3, r3, #1
 6308              	.LVL598:
 6309 08f4 DBB2     		uxtb	r3, r3
 6310              	.LVL599:
 6311              	.L408:
1587:.\main.c      ****                                 bufferDisplay2.shiftId[x] =bufferDisplay2.valueKeys[x];
 6312              		.loc 1 1587 0 is_stmt 0 discriminator 1
 6313 08f6 0A2B     		cmp	r3, #10
 6314 08f8 F5D9     		bls	.L409
1590:.\main.c      ****                             numberKeys1 = 0;
 6315              		.loc 1 1590 0 is_stmt 1
 6316 08fa 0E22     		movs	r2, #14
 6317 08fc 8A4B     		ldr	r3, .L521+12
 6318              	.LVL600:
 6319 08fe 1A60     		str	r2, [r3]
1591:.\main.c      ****                             hiddenKeys = 10;
 6320              		.loc 1 1591 0
 6321 0900 0022     		movs	r2, #0
 6322 0902 8A4B     		ldr	r3, .L521+16
 6323 0904 1A70     		strb	r2, [r3]
1592:.\main.c      ****                             controlChar ='*';
 6324              		.loc 1 1592 0
 6325 0906 0A22     		movs	r2, #10
 6326 0908 894B     		ldr	r3, .L521+20
 6327 090a 1A70     		strb	r2, [r3]
1593:.\main.c      ****                             bufferDisplay2.flagKeyboard = 3;
 6328              		.loc 1 1593 0
 6329 090c 2A22     		movs	r2, #42
 6330 090e 894B     		ldr	r3, .L521+24
 6331 0910 1A70     		strb	r2, [r3]
1594:.\main.c      ****                             SetPicture(2,DISPLAY_INGRESE_PASSWORD);
 6332              		.loc 1 1594 0
 6333 0912 0322     		movs	r2, #3
 6334 0914 814B     		ldr	r3, .L521
 6335 0916 83F80021 		strb	r2, [r3, #256]
ARM GAS  C:\Users\RECEPC~1\AppData\Local\Temp\cc6Stwwd.s 			page 168


1595:.\main.c      ****                         break;
 6336              		.loc 1 1595 0
 6337 091a 0220     		movs	r0, #2
 6338 091c 2521     		movs	r1, #37
 6339 091e FFF7FEFF 		bl	SetPicture
 6340              	.LVL601:
 6341              	.L398:
1598:.\main.c      ****                 break;
 6342              		.loc 1 1598 0
 6343 0922 FFF7FEFF 		bl	Display2_ClearRxBuffer
 6344              	.LVL602:
1599:.\main.c      ****             }            
 6345              		.loc 1 1599 0
 6346 0926 00F064BD 		b	.L309
 6347              	.L322:
1604:.\main.c      ****                 if((Display2_rxBuffer[0]==0xAA) && (Display2_rxBuffer[6]==0xC3) && (Display2_rxBuff
 6348              		.loc 1 1604 0
 6349 092a FFF7FEFF 		bl	Display2_GetRxBufferSize
 6350              	.LVL603:
 6351 092e 0828     		cmp	r0, #8
 6352 0930 40F05F85 		bne	.L309
1605:.\main.c      ****                     switch(Display2_rxBuffer[3]){
 6353              		.loc 1 1605 0
 6354 0934 804B     		ldr	r3, .L521+28
 6355 0936 1B78     		ldrb	r3, [r3]	@ zero_extendqisi2
 6356 0938 DBB2     		uxtb	r3, r3
 6357 093a AA2B     		cmp	r3, #170
 6358 093c 42D1     		bne	.L410
1605:.\main.c      ****                     switch(Display2_rxBuffer[3]){
 6359              		.loc 1 1605 0 is_stmt 0 discriminator 1
 6360 093e 7E4B     		ldr	r3, .L521+28
 6361 0940 9B79     		ldrb	r3, [r3, #6]	@ zero_extendqisi2
 6362 0942 DBB2     		uxtb	r3, r3
 6363 0944 C32B     		cmp	r3, #195
 6364 0946 3DD1     		bne	.L410
1605:.\main.c      ****                     switch(Display2_rxBuffer[3]){
 6365              		.loc 1 1605 0 discriminator 2
 6366 0948 7B4B     		ldr	r3, .L521+28
 6367 094a DB79     		ldrb	r3, [r3, #7]	@ zero_extendqisi2
 6368 094c DBB2     		uxtb	r3, r3
 6369 094e 3C2B     		cmp	r3, #60
 6370 0950 38D1     		bne	.L410
1606:.\main.c      ****                         case 0xB6:  //Solicitud ibutton  
 6371              		.loc 1 1606 0 is_stmt 1
 6372 0952 794B     		ldr	r3, .L521+28
 6373 0954 DB78     		ldrb	r3, [r3, #3]	@ zero_extendqisi2
 6374 0956 DBB2     		uxtb	r3, r3
 6375 0958 942B     		cmp	r3, #148
 6376 095a 24D0     		beq	.L411
 6377 095c 02D8     		bhi	.L412
 6378 095e 7E2B     		cmp	r3, #126
 6379 0960 29D0     		beq	.L413
 6380 0962 2FE0     		b	.L410
 6381              	.L412:
 6382 0964 B62B     		cmp	r3, #182
 6383 0966 02D0     		beq	.L414
 6384 0968 B72B     		cmp	r3, #183
ARM GAS  C:\Users\RECEPC~1\AppData\Local\Temp\cc6Stwwd.s 			page 169


 6385 096a 0FD0     		beq	.L415
 6386 096c 2AE0     		b	.L410
 6387              	.L414:
1608:.\main.c      ****                             numberKeys1 = 0;                            
 6388              		.loc 1 1608 0
 6389 096e 0B22     		movs	r2, #11
 6390 0970 6D4B     		ldr	r3, .L521+12
 6391 0972 1A60     		str	r2, [r3]
1609:.\main.c      ****                             bufferDisplay2.flagPrint =  1;
 6392              		.loc 1 1609 0
 6393 0974 0022     		movs	r2, #0
 6394 0976 6D4B     		ldr	r3, .L521+16
 6395 0978 1A70     		strb	r2, [r3]
1610:.\main.c      ****                             SetPicture(2,DISPLAY_ESPERANDO_ID);                            
 6396              		.loc 1 1610 0
 6397 097a 0122     		movs	r2, #1
 6398 097c 674B     		ldr	r3, .L521
 6399 097e 83F83421 		strb	r2, [r3, #308]
1611:.\main.c      ****                         break; 
 6400              		.loc 1 1611 0
 6401 0982 0220     		movs	r0, #2
 6402 0984 1221     		movs	r1, #18
 6403 0986 FFF7FEFF 		bl	SetPicture
 6404              	.LVL604:
1612:.\main.c      ****                         case 0xB7:  //ID por nmero
 6405              		.loc 1 1612 0
 6406 098a 1BE0     		b	.L410
 6407              	.L415:
1614:.\main.c      ****                             flowDisplay2 = 7;//Esperando estado del dispensador  
 6408              		.loc 1 1614 0
 6409 098c 0023     		movs	r3, #0
 6410 098e 634A     		ldr	r2, .L521
 6411 0990 82F80031 		strb	r3, [r2, #256]
1615:.\main.c      ****                             count_protector=0;
 6412              		.loc 1 1615 0
 6413 0994 0721     		movs	r1, #7
 6414 0996 644A     		ldr	r2, .L521+12
 6415 0998 1160     		str	r1, [r2]
1616:.\main.c      ****                             SetPicture(2,DISPLAY_SUBA_MANIJA);                            
 6416              		.loc 1 1616 0
 6417 099a 684A     		ldr	r2, .L521+32
 6418 099c 1370     		strb	r3, [r2]
1617:.\main.c      ****                         break;
 6419              		.loc 1 1617 0
 6420 099e 0220     		movs	r0, #2
 6421 09a0 FFF7FEFF 		bl	SetPicture
 6422              	.LVL605:
1618:.\main.c      ****                         case 0x94:  //Pantalla Inicial    
 6423              		.loc 1 1618 0
 6424 09a4 0EE0     		b	.L410
 6425              	.L411:
1620:.\main.c      ****                             SetPicture(2,DISPLAY_INICIO0);                            
 6426              		.loc 1 1620 0
 6427 09a6 0022     		movs	r2, #0
 6428 09a8 5F4B     		ldr	r3, .L521+12
 6429 09aa 1A60     		str	r2, [r3]
1621:.\main.c      ****                         break;
ARM GAS  C:\Users\RECEPC~1\AppData\Local\Temp\cc6Stwwd.s 			page 170


 6430              		.loc 1 1621 0
 6431 09ac 0220     		movs	r0, #2
 6432 09ae 0121     		movs	r1, #1
 6433 09b0 FFF7FEFF 		bl	SetPicture
 6434              	.LVL606:
1622:.\main.c      ****                         case 0x7E:  //Pantalla Inicial                                             
 6435              		.loc 1 1622 0
 6436 09b4 06E0     		b	.L410
 6437              	.L413:
1624:.\main.c      ****                             flowDisplay2 = 0;
 6438              		.loc 1 1624 0
 6439 09b6 0220     		movs	r0, #2
 6440 09b8 0121     		movs	r1, #1
 6441 09ba FFF7FEFF 		bl	SetPicture
 6442              	.LVL607:
1625:.\main.c      ****                         break;
 6443              		.loc 1 1625 0
 6444 09be 0022     		movs	r2, #0
 6445 09c0 594B     		ldr	r3, .L521+12
 6446 09c2 1A60     		str	r2, [r3]
 6447              	.L410:
1629:.\main.c      ****                 Display2_ClearRxBuffer();
 6448              		.loc 1 1629 0
 6449 09c4 0A20     		movs	r0, #10
 6450 09c6 FFF7FEFF 		bl	CyDelay
 6451              	.LVL608:
1630:.\main.c      ****             }                        
 6452              		.loc 1 1630 0
 6453 09ca FFF7FEFF 		bl	Display2_ClearRxBuffer
 6454              	.LVL609:
 6455 09ce 00F010BD 		b	.L309
 6456              	.L323:
1635:.\main.c      ****             Timer_Animacion_Start();
 6457              		.loc 1 1635 0
 6458 09d2 5B48     		ldr	r0, .L521+36
 6459 09d4 FFF7FEFF 		bl	isr_3_StartEx
 6460              	.LVL610:
1636:.\main.c      ****             if(touch_present(2)==1){
 6461              		.loc 1 1636 0
 6462 09d8 FFF7FEFF 		bl	Timer_Animacion_Start
 6463              	.LVL611:
1637:.\main.c      **** 				if(touch_write(1,0x33)){
 6464              		.loc 1 1637 0
 6465 09dc 0220     		movs	r0, #2
 6466 09de FFF7FEFF 		bl	touch_present
 6467              	.LVL612:
 6468 09e2 0128     		cmp	r0, #1
 6469 09e4 6BD1     		bne	.L416
1638:.\main.c      **** 					for(x=1;x<=8;x++){
 6470              		.loc 1 1638 0
 6471 09e6 3321     		movs	r1, #51
 6472 09e8 FFF7FEFF 		bl	touch_write
 6473              	.LVL613:
 6474 09ec 40B9     		cbnz	r0, .L503
 6475 09ee 66E0     		b	.L416
 6476              	.LVL614:
 6477              	.L418:
ARM GAS  C:\Users\RECEPC~1\AppData\Local\Temp\cc6Stwwd.s 			page 171


1640:.\main.c      **** 					}
 6478              		.loc 1 1640 0 discriminator 3
 6479 09f0 0220     		movs	r0, #2
 6480 09f2 FFF7FEFF 		bl	touch_read_byte
 6481              	.LVL615:
 6482 09f6 534B     		ldr	r3, .L521+40
 6483 09f8 1855     		strb	r0, [r3, r4]
1639:.\main.c      **** 						temporal[x]=touch_read_byte(2);
 6484              		.loc 1 1639 0 discriminator 3
 6485 09fa 0134     		adds	r4, r4, #1
 6486              	.LVL616:
 6487 09fc E4B2     		uxtb	r4, r4
 6488              	.LVL617:
 6489 09fe 00E0     		b	.L417
 6490              	.LVL618:
 6491              	.L503:
 6492 0a00 0124     		movs	r4, #1
 6493              	.L417:
 6494              	.LVL619:
1639:.\main.c      **** 						temporal[x]=touch_read_byte(2);
 6495              		.loc 1 1639 0 is_stmt 0 discriminator 1
 6496 0a02 082C     		cmp	r4, #8
 6497 0a04 F4D9     		bls	.L418
 6498 0a06 0020     		movs	r0, #0
 6499 0a08 0124     		movs	r4, #1
 6500              	.LVL620:
 6501 0a0a 05E0     		b	.L419
 6502              	.LVL621:
 6503              	.L420:
1644:.\main.c      ****                     }
 6504              		.loc 1 1644 0 is_stmt 1 discriminator 3
 6505 0a0c 4D4B     		ldr	r3, .L521+40
 6506 0a0e 195D     		ldrb	r1, [r3, r4]	@ zero_extendqisi2
 6507 0a10 FFF7FEFF 		bl	crc_check
 6508              	.LVL622:
1643:.\main.c      ****                         y=crc_check(y,temporal[x]);
 6509              		.loc 1 1643 0 discriminator 3
 6510 0a14 0134     		adds	r4, r4, #1
 6511              	.LVL623:
 6512 0a16 E4B2     		uxtb	r4, r4
 6513              	.LVL624:
 6514              	.L419:
1643:.\main.c      ****                         y=crc_check(y,temporal[x]);
 6515              		.loc 1 1643 0 is_stmt 0 discriminator 1
 6516 0a18 072C     		cmp	r4, #7
 6517 0a1a F7D9     		bls	.L420
1646:.\main.c      **** 						bufferDisplay2.idSerial[0]=16;
 6518              		.loc 1 1646 0 is_stmt 1
 6519 0a1c 494B     		ldr	r3, .L521+40
 6520 0a1e 1B7A     		ldrb	r3, [r3, #8]	@ zero_extendqisi2
 6521 0a20 DBB2     		uxtb	r3, r3
 6522 0a22 8342     		cmp	r3, r0
 6523 0a24 4BD1     		bne	.L416
1647:.\main.c      **** 						y=16;
 6524              		.loc 1 1647 0
 6525 0a26 1023     		movs	r3, #16
 6526 0a28 3C4A     		ldr	r2, .L521
ARM GAS  C:\Users\RECEPC~1\AppData\Local\Temp\cc6Stwwd.s 			page 172


 6527 0a2a 5370     		strb	r3, [r2, #1]
 6528              	.LVL625:
1649:.\main.c      **** 							if((temporal[x]&0x0F)>=10){
 6529              		.loc 1 1649 0
 6530 0a2c 0122     		movs	r2, #1
 6531 0a2e 30E0     		b	.L421
 6532              	.LVL626:
 6533              	.L426:
1650:.\main.c      **** 								bufferDisplay2.idSerial[y]=(temporal[x]&0x0F)+55;
 6534              		.loc 1 1650 0
 6535 0a30 1046     		mov	r0, r2
 6536 0a32 4449     		ldr	r1, .L521+40
 6537 0a34 895C     		ldrb	r1, [r1, r2]	@ zero_extendqisi2
 6538 0a36 01F00F01 		and	r1, r1, #15
 6539 0a3a 0929     		cmp	r1, #9
 6540 0a3c 08DD     		ble	.L422
1651:.\main.c      **** 							}else{
 6541              		.loc 1 1651 0
 6542 0a3e 4149     		ldr	r1, .L521+40
 6543 0a40 895C     		ldrb	r1, [r1, r2]	@ zero_extendqisi2
 6544 0a42 364C     		ldr	r4, .L521
 6545 0a44 1C44     		add	r4, r4, r3
 6546 0a46 01F00F01 		and	r1, r1, #15
 6547 0a4a 3731     		adds	r1, r1, #55
 6548 0a4c 6170     		strb	r1, [r4, #1]
 6549 0a4e 07E0     		b	.L423
 6550              	.L422:
1653:.\main.c      **** 							}
 6551              		.loc 1 1653 0
 6552 0a50 3C49     		ldr	r1, .L521+40
 6553 0a52 895C     		ldrb	r1, [r1, r2]	@ zero_extendqisi2
 6554 0a54 314C     		ldr	r4, .L521
 6555 0a56 1C44     		add	r4, r4, r3
 6556 0a58 01F00F01 		and	r1, r1, #15
 6557 0a5c 3031     		adds	r1, r1, #48
 6558 0a5e 6170     		strb	r1, [r4, #1]
 6559              	.L423:
1655:.\main.c      **** 							if(((temporal[x]>>4)&0x0F)>=10){
 6560              		.loc 1 1655 0
 6561 0a60 013B     		subs	r3, r3, #1
 6562              	.LVL627:
 6563 0a62 DBB2     		uxtb	r3, r3
 6564              	.LVL628:
1656:.\main.c      **** 								bufferDisplay2.idSerial[y]=((temporal[x]>>4)&0x0F)+55;
 6565              		.loc 1 1656 0
 6566 0a64 3749     		ldr	r1, .L521+40
 6567 0a66 095C     		ldrb	r1, [r1, r0]	@ zero_extendqisi2
 6568 0a68 9F29     		cmp	r1, #159
 6569 0a6a 07D9     		bls	.L424
1657:.\main.c      **** 							}else{
 6570              		.loc 1 1657 0
 6571 0a6c 3549     		ldr	r1, .L521+40
 6572 0a6e 095C     		ldrb	r1, [r1, r0]	@ zero_extendqisi2
 6573 0a70 2A48     		ldr	r0, .L521
 6574 0a72 1844     		add	r0, r0, r3
 6575 0a74 0909     		lsrs	r1, r1, #4
 6576 0a76 3731     		adds	r1, r1, #55
ARM GAS  C:\Users\RECEPC~1\AppData\Local\Temp\cc6Stwwd.s 			page 173


 6577 0a78 4170     		strb	r1, [r0, #1]
 6578 0a7a 06E0     		b	.L425
 6579              	.L424:
1659:.\main.c      **** 							}
 6580              		.loc 1 1659 0
 6581 0a7c 3149     		ldr	r1, .L521+40
 6582 0a7e 095C     		ldrb	r1, [r1, r0]	@ zero_extendqisi2
 6583 0a80 2648     		ldr	r0, .L521
 6584 0a82 1844     		add	r0, r0, r3
 6585 0a84 0909     		lsrs	r1, r1, #4
 6586 0a86 3031     		adds	r1, r1, #48
 6587 0a88 4170     		strb	r1, [r0, #1]
 6588              	.L425:
1661:.\main.c      **** 						}                        
 6589              		.loc 1 1661 0 discriminator 2
 6590 0a8a 013B     		subs	r3, r3, #1
 6591              	.LVL629:
 6592 0a8c DBB2     		uxtb	r3, r3
 6593              	.LVL630:
1649:.\main.c      **** 							if((temporal[x]&0x0F)>=10){
 6594              		.loc 1 1649 0 discriminator 2
 6595 0a8e 0132     		adds	r2, r2, #1
 6596              	.LVL631:
 6597 0a90 D2B2     		uxtb	r2, r2
 6598              	.LVL632:
 6599              	.L421:
1649:.\main.c      **** 							if((temporal[x]&0x0F)>=10){
 6600              		.loc 1 1649 0 is_stmt 0 discriminator 1
 6601 0a92 082A     		cmp	r2, #8
 6602 0a94 CCD9     		bls	.L426
1663:.\main.c      ****                         Display2_ClearRxBuffer();
 6603              		.loc 1 1663 0 is_stmt 1
 6604 0a96 0220     		movs	r0, #2
 6605 0a98 1321     		movs	r1, #19
 6606 0a9a FFF7FEFF 		bl	SetPicture
 6607              	.LVL633:
1664:.\main.c      ****                         CyDelay(700);
 6608              		.loc 1 1664 0
 6609 0a9e FFF7FEFF 		bl	Display2_ClearRxBuffer
 6610              	.LVL634:
1665:.\main.c      ****                         bufferDisplay2.flagKeyboard = 2;
 6611              		.loc 1 1665 0
 6612 0aa2 4FF42F70 		mov	r0, #700
 6613 0aa6 FFF7FEFF 		bl	CyDelay
 6614              	.LVL635:
1666:.\main.c      ****                         flowDisplay2 = 9;
 6615              		.loc 1 1666 0
 6616 0aaa 0220     		movs	r0, #2
 6617 0aac 1B4B     		ldr	r3, .L521
 6618 0aae 83F80001 		strb	r0, [r3, #256]
1667:.\main.c      ****                         SetPicture(2,DISPLAY_INTRODUZCA_KILOMETRAJE);
 6619              		.loc 1 1667 0
 6620 0ab2 0922     		movs	r2, #9
 6621 0ab4 1C4B     		ldr	r3, .L521+12
 6622 0ab6 1A60     		str	r2, [r3]
1668:.\main.c      ****                         
 6623              		.loc 1 1668 0
ARM GAS  C:\Users\RECEPC~1\AppData\Local\Temp\cc6Stwwd.s 			page 174


 6624 0ab8 0E21     		movs	r1, #14
 6625 0aba FFF7FEFF 		bl	SetPicture
 6626              	.LVL636:
 6627              	.L416:
1673:.\main.c      ****                 flowDisplay2 = 0;	
 6628              		.loc 1 1673 0
 6629 0abe 1F4B     		ldr	r3, .L521+32
 6630 0ac0 1B78     		ldrb	r3, [r3]	@ zero_extendqisi2
 6631 0ac2 3B2B     		cmp	r3, #59
 6632 0ac4 40F29584 		bls	.L309
1674:.\main.c      ****     			count_protector=0;
 6633              		.loc 1 1674 0
 6634 0ac8 0023     		movs	r3, #0
 6635 0aca 174A     		ldr	r2, .L521+12
 6636 0acc 1360     		str	r3, [r2]
1675:.\main.c      ****                 SetPicture(2,DISPLAY_INICIO0);
 6637              		.loc 1 1675 0
 6638 0ace 1B4A     		ldr	r2, .L521+32
 6639 0ad0 1370     		strb	r3, [r2]
1676:.\main.c      ****     		}
 6640              		.loc 1 1676 0
 6641 0ad2 0220     		movs	r0, #2
 6642 0ad4 0121     		movs	r1, #1
 6643 0ad6 FFF7FEFF 		bl	SetPicture
 6644              	.LVL637:
 6645 0ada 00F08ABC 		b	.L309
 6646              	.L324:
1684:.\main.c      ****                 if((Display2_rxBuffer[0]==0xAA) && (Display2_rxBuffer[6]==0xC3) && (Display2_rxBuff
 6647              		.loc 1 1684 0
 6648 0ade FFF7FEFF 		bl	Display2_GetRxBufferSize
 6649              	.LVL638:
 6650 0ae2 0828     		cmp	r0, #8
 6651 0ae4 40F08584 		bne	.L309
1685:.\main.c      ****                     switch(Display2_rxBuffer[3]){
 6652              		.loc 1 1685 0
 6653 0ae8 134B     		ldr	r3, .L521+28
 6654 0aea 1B78     		ldrb	r3, [r3]	@ zero_extendqisi2
 6655 0aec DBB2     		uxtb	r3, r3
 6656 0aee AA2B     		cmp	r3, #170
 6657 0af0 7CD1     		bne	.L427
1685:.\main.c      ****                     switch(Display2_rxBuffer[3]){
 6658              		.loc 1 1685 0 is_stmt 0 discriminator 1
 6659 0af2 114B     		ldr	r3, .L521+28
 6660 0af4 9B79     		ldrb	r3, [r3, #6]	@ zero_extendqisi2
 6661 0af6 DBB2     		uxtb	r3, r3
 6662 0af8 C32B     		cmp	r3, #195
 6663 0afa 77D1     		bne	.L427
1685:.\main.c      ****                     switch(Display2_rxBuffer[3]){
 6664              		.loc 1 1685 0 discriminator 2
 6665 0afc 0E4B     		ldr	r3, .L521+28
 6666 0afe DB79     		ldrb	r3, [r3, #7]	@ zero_extendqisi2
 6667 0b00 DBB2     		uxtb	r3, r3
 6668 0b02 3C2B     		cmp	r3, #60
 6669 0b04 72D1     		bne	.L427
1686:.\main.c      ****                         case 0x46:  //Turnos              
 6670              		.loc 1 1686 0 is_stmt 1
 6671 0b06 0C4B     		ldr	r3, .L521+28
ARM GAS  C:\Users\RECEPC~1\AppData\Local\Temp\cc6Stwwd.s 			page 175


 6672 0b08 DB78     		ldrb	r3, [r3, #3]	@ zero_extendqisi2
 6673 0b0a DBB2     		uxtb	r3, r3
 6674 0b0c 552B     		cmp	r3, #85
 6675 0b0e 33D0     		beq	.L428
 6676 0b10 1AD8     		bhi	.L429
 6677 0b12 3B2B     		cmp	r3, #59
 6678 0b14 53D0     		beq	.L430
 6679 0b16 462B     		cmp	r3, #70
 6680 0b18 1DD0     		beq	.L431
 6681 0b1a 67E0     		b	.L427
 6682              	.L522:
 6683              		.align	2
 6684              	.L521:
 6685 0b1c 00000000 		.word	bufferDisplay2
 6686 0b20 00000000 		.word	printPortB
 6687 0b24 00000000 		.word	side
 6688 0b28 00000000 		.word	flowDisplay2
 6689 0b2c 00000000 		.word	numberKeys1
 6690 0b30 00000000 		.word	hiddenKeys
 6691 0b34 00000000 		.word	controlChar
 6692 0b38 00000000 		.word	Display2_rxBuffer
 6693 0b3c 00000000 		.word	count_protector
 6694 0b40 00000000 		.word	animacion
 6695 0b44 00000000 		.word	temporal
 6696              	.L429:
 6697 0b48 942B     		cmp	r3, #148
 6698 0b4a 40D0     		beq	.L432
 6699 0b4c B52B     		cmp	r3, #181
 6700 0b4e 28D0     		beq	.L433
 6701 0b50 7E2B     		cmp	r3, #126
 6702 0b52 4BD1     		bne	.L427
 6703 0b54 43E0     		b	.L434
 6704              	.L431:
1688:.\main.c      ****                             if(lockTurn ==1){
 6705              		.loc 1 1688 0
 6706 0b56 0D22     		movs	r2, #13
 6707 0b58 AA4B     		ldr	r3, .L523
 6708 0b5a 1A60     		str	r2, [r3]
1689:.\main.c      ****                                 SetPicture(2,DISPLAY_CERRAR_TURNO);
 6709              		.loc 1 1689 0
 6710 0b5c AA4B     		ldr	r3, .L523+4
 6711 0b5e 1B78     		ldrb	r3, [r3]	@ zero_extendqisi2
 6712 0b60 012B     		cmp	r3, #1
 6713 0b62 04D1     		bne	.L435
1690:.\main.c      ****                             }else{
 6714              		.loc 1 1690 0
 6715 0b64 0220     		movs	r0, #2
 6716 0b66 2A21     		movs	r1, #42
 6717 0b68 FFF7FEFF 		bl	SetPicture
 6718              	.LVL639:
 6719 0b6c 3EE0     		b	.L427
 6720              	.L435:
1692:.\main.c      ****                             }                            
 6721              		.loc 1 1692 0
 6722 0b6e 0220     		movs	r0, #2
 6723 0b70 2321     		movs	r1, #35
 6724 0b72 FFF7FEFF 		bl	SetPicture
ARM GAS  C:\Users\RECEPC~1\AppData\Local\Temp\cc6Stwwd.s 			page 176


 6725              	.LVL640:
 6726 0b76 39E0     		b	.L427
 6727              	.L428:
1696:.\main.c      ****                             bufferDisplay2.flagKeyboard = 6;
 6728              		.loc 1 1696 0
 6729 0b78 0E22     		movs	r2, #14
 6730 0b7a A24B     		ldr	r3, .L523
 6731 0b7c 1A60     		str	r2, [r3]
1697:.\main.c      ****                             numberKeys1 = 0;
 6732              		.loc 1 1697 0
 6733 0b7e 0622     		movs	r2, #6
 6734 0b80 A24B     		ldr	r3, .L523+8
 6735 0b82 83F80021 		strb	r2, [r3, #256]
1698:.\main.c      ****                             hiddenKeys = 5;
 6736              		.loc 1 1698 0
 6737 0b86 0022     		movs	r2, #0
 6738 0b88 A14B     		ldr	r3, .L523+12
 6739 0b8a 1A70     		strb	r2, [r3]
1699:.\main.c      ****                             controlChar ='*';
 6740              		.loc 1 1699 0
 6741 0b8c 0522     		movs	r2, #5
 6742 0b8e A14B     		ldr	r3, .L523+16
 6743 0b90 1A70     		strb	r2, [r3]
1700:.\main.c      ****                             SetPicture(2,DISPLAY_INGRESE_PASSWORD);                           
 6744              		.loc 1 1700 0
 6745 0b92 2A22     		movs	r2, #42
 6746 0b94 A04B     		ldr	r3, .L523+20
 6747 0b96 1A70     		strb	r2, [r3]
1701:.\main.c      ****                         break;
 6748              		.loc 1 1701 0
 6749 0b98 0220     		movs	r0, #2
 6750 0b9a 2521     		movs	r1, #37
 6751 0b9c FFF7FEFF 		bl	SetPicture
 6752              	.LVL641:
1702:.\main.c      ****                         case 0xB5:  //Copia de recibo 
 6753              		.loc 1 1702 0
 6754 0ba0 24E0     		b	.L427
 6755              	.L433:
1704:.\main.c      ****                             side.b.RFstateReport = 1;
 6756              		.loc 1 1704 0
 6757 0ba2 0022     		movs	r2, #0
 6758 0ba4 974B     		ldr	r3, .L523
 6759 0ba6 1A60     		str	r2, [r3]
1705:.\main.c      ****                             side.b.rfState = RF_COPY_RECEIPT;
 6760              		.loc 1 1705 0
 6761 0ba8 9C4B     		ldr	r3, .L523+24
 6762 0baa 0121     		movs	r1, #1
 6763 0bac 83F81912 		strb	r1, [r3, #537]
1706:.\main.c      ****                             SetPicture(2,DISPLAY_INICIO0);                            
 6764              		.loc 1 1706 0
 6765 0bb0 0B22     		movs	r2, #11
 6766 0bb2 83F81522 		strb	r2, [r3, #533]
1707:.\main.c      ****                         break;
 6767              		.loc 1 1707 0
 6768 0bb6 0220     		movs	r0, #2
 6769 0bb8 FFF7FEFF 		bl	SetPicture
 6770              	.LVL642:
ARM GAS  C:\Users\RECEPC~1\AppData\Local\Temp\cc6Stwwd.s 			page 177


1708:.\main.c      ****                         
 6771              		.loc 1 1708 0
 6772 0bbc 16E0     		b	.L427
 6773              	.L430:
1711:.\main.c      ****                             SetPicture(2,DISPLAY_INICIO0);                            
 6774              		.loc 1 1711 0
 6775 0bbe 0022     		movs	r2, #0
 6776 0bc0 904B     		ldr	r3, .L523
 6777 0bc2 1A60     		str	r2, [r3]
1712:.\main.c      ****                         break;
 6778              		.loc 1 1712 0
 6779 0bc4 0220     		movs	r0, #2
 6780 0bc6 0121     		movs	r1, #1
 6781 0bc8 FFF7FEFF 		bl	SetPicture
 6782              	.LVL643:
1713:.\main.c      ****                             
 6783              		.loc 1 1713 0
 6784 0bcc 0EE0     		b	.L427
 6785              	.L432:
1716:.\main.c      ****                             SetPicture(2,DISPLAY_INICIO0);                            
 6786              		.loc 1 1716 0
 6787 0bce 0022     		movs	r2, #0
 6788 0bd0 8C4B     		ldr	r3, .L523
 6789 0bd2 1A60     		str	r2, [r3]
1717:.\main.c      ****                         break;
 6790              		.loc 1 1717 0
 6791 0bd4 0220     		movs	r0, #2
 6792 0bd6 0121     		movs	r1, #1
 6793 0bd8 FFF7FEFF 		bl	SetPicture
 6794              	.LVL644:
1718:.\main.c      ****                         
 6795              		.loc 1 1718 0
 6796 0bdc 06E0     		b	.L427
 6797              	.L434:
1721:.\main.c      ****                             SetPicture(2,DISPLAY_INICIO0);                            
 6798              		.loc 1 1721 0
 6799 0bde 0022     		movs	r2, #0
 6800 0be0 884B     		ldr	r3, .L523
 6801 0be2 1A60     		str	r2, [r3]
1722:.\main.c      ****                         break;
 6802              		.loc 1 1722 0
 6803 0be4 0220     		movs	r0, #2
 6804 0be6 0121     		movs	r1, #1
 6805 0be8 FFF7FEFF 		bl	SetPicture
 6806              	.LVL645:
 6807              	.L427:
1726:.\main.c      ****                 Display2_ClearRxBuffer();
 6808              		.loc 1 1726 0
 6809 0bec 0A20     		movs	r0, #10
 6810 0bee FFF7FEFF 		bl	CyDelay
 6811              	.LVL646:
1727:.\main.c      ****             }
 6812              		.loc 1 1727 0
 6813 0bf2 FFF7FEFF 		bl	Display2_ClearRxBuffer
 6814              	.LVL647:
 6815 0bf6 FCE3     		b	.L309
 6816              	.L325:
ARM GAS  C:\Users\RECEPC~1\AppData\Local\Temp\cc6Stwwd.s 			page 178


1732:.\main.c      ****                 if((Display2_rxBuffer[0]==0xAA) && (Display2_rxBuffer[6]==0xC3) && (Display2_rxBuff
 6817              		.loc 1 1732 0
 6818 0bf8 FFF7FEFF 		bl	Display2_GetRxBufferSize
 6819              	.LVL648:
 6820 0bfc 0828     		cmp	r0, #8
 6821 0bfe 40F0F883 		bne	.L309
1733:.\main.c      ****                     switch(Display2_rxBuffer[3]){
 6822              		.loc 1 1733 0
 6823 0c02 874B     		ldr	r3, .L523+28
 6824 0c04 1B78     		ldrb	r3, [r3]	@ zero_extendqisi2
 6825 0c06 DBB2     		uxtb	r3, r3
 6826 0c08 AA2B     		cmp	r3, #170
 6827 0c0a 44D1     		bne	.L436
1733:.\main.c      ****                     switch(Display2_rxBuffer[3]){
 6828              		.loc 1 1733 0 is_stmt 0 discriminator 1
 6829 0c0c 844B     		ldr	r3, .L523+28
 6830 0c0e 9B79     		ldrb	r3, [r3, #6]	@ zero_extendqisi2
 6831 0c10 DBB2     		uxtb	r3, r3
 6832 0c12 C32B     		cmp	r3, #195
 6833 0c14 3FD1     		bne	.L436
1733:.\main.c      ****                     switch(Display2_rxBuffer[3]){
 6834              		.loc 1 1733 0 discriminator 2
 6835 0c16 824B     		ldr	r3, .L523+28
 6836 0c18 DB79     		ldrb	r3, [r3, #7]	@ zero_extendqisi2
 6837 0c1a DBB2     		uxtb	r3, r3
 6838 0c1c 3C2B     		cmp	r3, #60
 6839 0c1e 3AD1     		bne	.L436
1734:.\main.c      ****                         case 0x47:  //Cambio de turno: Abrir  
 6840              		.loc 1 1734 0 is_stmt 1
 6841 0c20 7F4B     		ldr	r3, .L523+28
 6842 0c22 DB78     		ldrb	r3, [r3, #3]	@ zero_extendqisi2
 6843 0c24 DBB2     		uxtb	r3, r3
 6844 0c26 482B     		cmp	r3, #72
 6845 0c28 17D0     		beq	.L437
 6846 0c2a 02D8     		bhi	.L438
 6847 0c2c 472B     		cmp	r3, #71
 6848 0c2e 05D0     		beq	.L439
 6849 0c30 31E0     		b	.L436
 6850              	.L438:
 6851 0c32 7E2B     		cmp	r3, #126
 6852 0c34 20D0     		beq	.L440
 6853 0c36 942B     		cmp	r3, #148
 6854 0c38 26D0     		beq	.L441
 6855 0c3a 2CE0     		b	.L436
 6856              	.L439:
1736:.\main.c      ****                             numberKeys1 = 0;    
 6857              		.loc 1 1736 0
 6858 0c3c 0922     		movs	r2, #9
 6859 0c3e 714B     		ldr	r3, .L523
 6860 0c40 1A60     		str	r2, [r3]
1737:.\main.c      ****                             bufferDisplay2.flagKeyboard = 4;
 6861              		.loc 1 1737 0
 6862 0c42 0022     		movs	r2, #0
 6863 0c44 724B     		ldr	r3, .L523+12
 6864 0c46 1A70     		strb	r2, [r3]
1738:.\main.c      ****                             SetPicture(2,DISPLAY_INTRODUZCA_CEDULA);                            
 6865              		.loc 1 1738 0
ARM GAS  C:\Users\RECEPC~1\AppData\Local\Temp\cc6Stwwd.s 			page 179


 6866 0c48 0422     		movs	r2, #4
 6867 0c4a 704B     		ldr	r3, .L523+8
 6868 0c4c 83F80021 		strb	r2, [r3, #256]
1739:.\main.c      ****                         break;
 6869              		.loc 1 1739 0
 6870 0c50 0220     		movs	r0, #2
 6871 0c52 2421     		movs	r1, #36
 6872 0c54 FFF7FEFF 		bl	SetPicture
 6873              	.LVL649:
1740:.\main.c      ****                         case 0x48:  //Cambio de turno: Cerrar 
 6874              		.loc 1 1740 0
 6875 0c58 1DE0     		b	.L436
 6876              	.L437:
1742:.\main.c      ****                             numberKeys1 = 0;   
 6877              		.loc 1 1742 0
 6878 0c5a 0922     		movs	r2, #9
 6879 0c5c 694B     		ldr	r3, .L523
 6880 0c5e 1A60     		str	r2, [r3]
1743:.\main.c      ****                             bufferDisplay2.flagKeyboard = 4;
 6881              		.loc 1 1743 0
 6882 0c60 0022     		movs	r2, #0
 6883 0c62 6B4B     		ldr	r3, .L523+12
 6884 0c64 1A70     		strb	r2, [r3]
1744:.\main.c      ****                             SetPicture(2,DISPLAY_INTRODUZCA_CEDULA);                           
 6885              		.loc 1 1744 0
 6886 0c66 0422     		movs	r2, #4
 6887 0c68 684B     		ldr	r3, .L523+8
 6888 0c6a 83F80021 		strb	r2, [r3, #256]
1745:.\main.c      ****                         break;                         
 6889              		.loc 1 1745 0
 6890 0c6e 0220     		movs	r0, #2
 6891 0c70 2421     		movs	r1, #36
 6892 0c72 FFF7FEFF 		bl	SetPicture
 6893              	.LVL650:
1746:.\main.c      ****                         case 0x7E:  //Pantalla Inicial                                             
 6894              		.loc 1 1746 0
 6895 0c76 0EE0     		b	.L436
 6896              	.L440:
1748:.\main.c      ****                             flowDisplay2 = 0;
 6897              		.loc 1 1748 0
 6898 0c78 0220     		movs	r0, #2
 6899 0c7a 0121     		movs	r1, #1
 6900 0c7c FFF7FEFF 		bl	SetPicture
 6901              	.LVL651:
1749:.\main.c      ****                         break;
 6902              		.loc 1 1749 0
 6903 0c80 0022     		movs	r2, #0
 6904 0c82 604B     		ldr	r3, .L523
 6905 0c84 1A60     		str	r2, [r3]
1750:.\main.c      ****                         case 0x94:  //Pantalla Inicial                                             
 6906              		.loc 1 1750 0
 6907 0c86 06E0     		b	.L436
 6908              	.L441:
1752:.\main.c      ****                             flowDisplay2 = 0;
 6909              		.loc 1 1752 0
 6910 0c88 0220     		movs	r0, #2
 6911 0c8a 0121     		movs	r1, #1
ARM GAS  C:\Users\RECEPC~1\AppData\Local\Temp\cc6Stwwd.s 			page 180


 6912 0c8c FFF7FEFF 		bl	SetPicture
 6913              	.LVL652:
1753:.\main.c      ****                         break;
 6914              		.loc 1 1753 0
 6915 0c90 0022     		movs	r2, #0
 6916 0c92 5C4B     		ldr	r3, .L523
 6917 0c94 1A60     		str	r2, [r3]
 6918              	.L436:
1757:.\main.c      ****                 Display2_ClearRxBuffer();
 6919              		.loc 1 1757 0
 6920 0c96 0A20     		movs	r0, #10
 6921 0c98 FFF7FEFF 		bl	CyDelay
 6922              	.LVL653:
1758:.\main.c      ****             }                        
 6923              		.loc 1 1758 0
 6924 0c9c FFF7FEFF 		bl	Display2_ClearRxBuffer
 6925              	.LVL654:
 6926 0ca0 A7E3     		b	.L309
 6927              	.L326:
1763:.\main.c      ****                 case 0: //Cancelar
 6928              		.loc 1 1763 0
 6929 0ca2 0220     		movs	r0, #2
 6930 0ca4 5B4B     		ldr	r3, .L523+16
 6931 0ca6 1978     		ldrb	r1, [r3]	@ zero_extendqisi2
 6932 0ca8 5B4B     		ldr	r3, .L523+20
 6933 0caa 1A78     		ldrb	r2, [r3]	@ zero_extendqisi2
 6934 0cac FFF7FEFF 		bl	alphanumeric_keyboard
 6935              	.LVL655:
 6936 0cb0 10B1     		cbz	r0, .L442
 6937 0cb2 0128     		cmp	r0, #1
 6938 0cb4 6ED0     		beq	.L443
 6939 0cb6 9CE3     		b	.L309
 6940              	.L442:
1765:.\main.c      ****                         case 1://ID Estacion
 6941              		.loc 1 1765 0
 6942 0cb8 544B     		ldr	r3, .L523+8
 6943 0cba 93F80031 		ldrb	r3, [r3, #256]	@ zero_extendqisi2
 6944 0cbe 013B     		subs	r3, r3, #1
 6945 0cc0 052B     		cmp	r3, #5
 6946 0cc2 64D8     		bhi	.L444
 6947 0cc4 DFE803F0 		tbb	[pc, r3]
 6948              	.L446:
 6949 0cc8 09       		.byte	(.L504-.L446)/2
 6950 0cc9 1A       		.byte	(.L505-.L446)/2
 6951 0cca 2F       		.byte	(.L506-.L446)/2
 6952 0ccb 63       		.byte	(.L444-.L446)/2
 6953 0ccc 44       		.byte	(.L507-.L446)/2
 6954 0ccd 57       		.byte	(.L508-.L446)/2
 6955              	.LVL656:
 6956              		.p2align 1
 6957              	.L451:
1768:.\main.c      ****                             }
 6958              		.loc 1 1768 0 discriminator 3
 6959 0cce 0021     		movs	r1, #0
 6960 0cd0 544A     		ldr	r2, .L523+32
 6961 0cd2 D154     		strb	r1, [r2, r3]
1767:.\main.c      ****                                 idStation[x]=0;
ARM GAS  C:\Users\RECEPC~1\AppData\Local\Temp\cc6Stwwd.s 			page 181


 6962              		.loc 1 1767 0 discriminator 3
 6963 0cd4 0133     		adds	r3, r3, #1
 6964              	.LVL657:
 6965 0cd6 DBB2     		uxtb	r3, r3
 6966              	.LVL658:
 6967 0cd8 00E0     		b	.L445
 6968              	.LVL659:
 6969              	.L504:
1765:.\main.c      ****                         case 1://ID Estacion
 6970              		.loc 1 1765 0
 6971 0cda 0023     		movs	r3, #0
 6972              	.L445:
 6973              	.LVL660:
1767:.\main.c      ****                                 idStation[x]=0;
 6974              		.loc 1 1767 0 discriminator 1
 6975 0cdc 042B     		cmp	r3, #4
 6976 0cde F6D9     		bls	.L451
1770:.\main.c      ****                             SetPicture(2,DISPLAY_INICIO0);
 6977              		.loc 1 1770 0
 6978 0ce0 0022     		movs	r2, #0
 6979 0ce2 484B     		ldr	r3, .L523
 6980              	.LVL661:
 6981 0ce4 1A60     		str	r2, [r3]
1771:.\main.c      ****                         break;
 6982              		.loc 1 1771 0
 6983 0ce6 0220     		movs	r0, #2
 6984 0ce8 0121     		movs	r1, #1
 6985 0cea FFF7FEFF 		bl	SetPicture
 6986              	.LVL662:
1772:.\main.c      ****                         case 2://Umbral
 6987              		.loc 1 1772 0
 6988 0cee 4EE0     		b	.L444
 6989              	.LVL663:
 6990              	.L452:
1775:.\main.c      ****                             }
 6991              		.loc 1 1775 0 discriminator 3
 6992 0cf0 0021     		movs	r1, #0
 6993 0cf2 4D4A     		ldr	r2, .L523+36
 6994 0cf4 D154     		strb	r1, [r2, r3]
1774:.\main.c      ****                                 pumpGap[x]=0;
 6995              		.loc 1 1774 0 discriminator 3
 6996 0cf6 0133     		adds	r3, r3, #1
 6997              	.LVL664:
 6998 0cf8 DBB2     		uxtb	r3, r3
 6999              	.LVL665:
 7000 0cfa 00E0     		b	.L447
 7001              	.LVL666:
 7002              	.L505:
1765:.\main.c      ****                         case 1://ID Estacion
 7003              		.loc 1 1765 0
 7004 0cfc 0023     		movs	r3, #0
 7005              	.L447:
 7006              	.LVL667:
1774:.\main.c      ****                                 pumpGap[x]=0;
 7007              		.loc 1 1774 0 discriminator 1
 7008 0cfe 454A     		ldr	r2, .L523+16
 7009 0d00 1278     		ldrb	r2, [r2]	@ zero_extendqisi2
ARM GAS  C:\Users\RECEPC~1\AppData\Local\Temp\cc6Stwwd.s 			page 182


 7010 0d02 9342     		cmp	r3, r2
 7011 0d04 F4D3     		bcc	.L452
1777:.\main.c      ****                             SetPicture(2,DISPLAY_INICIO0);
 7012              		.loc 1 1777 0
 7013 0d06 0022     		movs	r2, #0
 7014 0d08 3E4B     		ldr	r3, .L523
 7015              	.LVL668:
 7016 0d0a 1A60     		str	r2, [r3]
1778:.\main.c      ****                         break;
 7017              		.loc 1 1778 0
 7018 0d0c 0220     		movs	r0, #2
 7019 0d0e 0121     		movs	r1, #1
 7020 0d10 FFF7FEFF 		bl	SetPicture
 7021              	.LVL669:
1779:.\main.c      ****                         case 3://Pass turno
 7022              		.loc 1 1779 0
 7023 0d14 3BE0     		b	.L444
 7024              	.LVL670:
 7025              	.L453:
1782:.\main.c      ****                             }
 7026              		.loc 1 1782 0 discriminator 3
 7027 0d16 3D4A     		ldr	r2, .L523+8
 7028 0d18 1A44     		add	r2, r2, r3
 7029 0d1a 0021     		movs	r1, #0
 7030 0d1c 82F84111 		strb	r1, [r2, #321]
1781:.\main.c      ****                                 bufferDisplay2.shiftPassword[x]=0;
 7031              		.loc 1 1781 0 discriminator 3
 7032 0d20 0133     		adds	r3, r3, #1
 7033              	.LVL671:
 7034 0d22 DBB2     		uxtb	r3, r3
 7035              	.LVL672:
 7036 0d24 00E0     		b	.L448
 7037              	.LVL673:
 7038              	.L506:
1765:.\main.c      ****                         case 1://ID Estacion
 7039              		.loc 1 1765 0
 7040 0d26 0023     		movs	r3, #0
 7041              	.L448:
 7042              	.LVL674:
1781:.\main.c      ****                                 bufferDisplay2.shiftPassword[x]=0;
 7043              		.loc 1 1781 0 discriminator 1
 7044 0d28 3A4A     		ldr	r2, .L523+16
 7045 0d2a 1278     		ldrb	r2, [r2]	@ zero_extendqisi2
 7046 0d2c 9342     		cmp	r3, r2
 7047 0d2e F2D3     		bcc	.L453
1784:.\main.c      ****                             SetPicture(2,DISPLAY_INICIO0);
 7048              		.loc 1 1784 0
 7049 0d30 0022     		movs	r2, #0
 7050 0d32 344B     		ldr	r3, .L523
 7051              	.LVL675:
 7052 0d34 1A60     		str	r2, [r3]
1785:.\main.c      ****                         break;
 7053              		.loc 1 1785 0
 7054 0d36 0220     		movs	r0, #2
 7055 0d38 0121     		movs	r1, #1
 7056 0d3a FFF7FEFF 		bl	SetPicture
 7057              	.LVL676:
ARM GAS  C:\Users\RECEPC~1\AppData\Local\Temp\cc6Stwwd.s 			page 183


1786:.\main.c      ****                         case 5://Pass
 7058              		.loc 1 1786 0
 7059 0d3e 26E0     		b	.L444
 7060              	.LVL677:
 7061              	.L454:
1789:.\main.c      ****                             }
 7062              		.loc 1 1789 0 discriminator 3
 7063 0d40 324A     		ldr	r2, .L523+8
 7064 0d42 1A44     		add	r2, r2, r3
 7065 0d44 0021     		movs	r1, #0
 7066 0d46 82F84111 		strb	r1, [r2, #321]
1788:.\main.c      ****                                 bufferDisplay2.shiftPassword[x]=0;
 7067              		.loc 1 1788 0 discriminator 3
 7068 0d4a 0133     		adds	r3, r3, #1
 7069              	.LVL678:
 7070 0d4c DBB2     		uxtb	r3, r3
 7071              	.LVL679:
 7072 0d4e 00E0     		b	.L449
 7073              	.LVL680:
 7074              	.L507:
1765:.\main.c      ****                         case 1://ID Estacion
 7075              		.loc 1 1765 0
 7076 0d50 0023     		movs	r3, #0
 7077              	.L449:
 7078              	.LVL681:
1788:.\main.c      ****                                 bufferDisplay2.shiftPassword[x]=0;
 7079              		.loc 1 1788 0 discriminator 1
 7080 0d52 304A     		ldr	r2, .L523+16
 7081 0d54 1278     		ldrb	r2, [r2]	@ zero_extendqisi2
 7082 0d56 9342     		cmp	r3, r2
 7083 0d58 F2D3     		bcc	.L454
1791:.\main.c      ****                             SetPicture(2,DISPLAY_INICIO0);
 7084              		.loc 1 1791 0
 7085 0d5a 0022     		movs	r2, #0
 7086 0d5c 294B     		ldr	r3, .L523
 7087              	.LVL682:
 7088 0d5e 1A60     		str	r2, [r3]
1792:.\main.c      ****                         break;
 7089              		.loc 1 1792 0
 7090 0d60 0220     		movs	r0, #2
 7091 0d62 0121     		movs	r1, #1
 7092 0d64 FFF7FEFF 		bl	SetPicture
 7093              	.LVL683:
1793:.\main.c      ****                             
 7094              		.loc 1 1793 0
 7095 0d68 11E0     		b	.L444
 7096              	.LVL684:
 7097              	.L455:
1797:.\main.c      ****                             }
 7098              		.loc 1 1797 0 discriminator 3
 7099 0d6a 0021     		movs	r1, #0
 7100 0d6c 2F4A     		ldr	r2, .L523+40
 7101 0d6e D154     		strb	r1, [r2, r3]
1796:.\main.c      ****                                 configAccess[x]=0;
 7102              		.loc 1 1796 0 discriminator 3
 7103 0d70 0133     		adds	r3, r3, #1
 7104              	.LVL685:
ARM GAS  C:\Users\RECEPC~1\AppData\Local\Temp\cc6Stwwd.s 			page 184


 7105 0d72 DBB2     		uxtb	r3, r3
 7106              	.LVL686:
 7107 0d74 00E0     		b	.L450
 7108              	.LVL687:
 7109              	.L508:
1765:.\main.c      ****                         case 1://ID Estacion
 7110              		.loc 1 1765 0
 7111 0d76 0123     		movs	r3, #1
 7112              	.L450:
 7113              	.LVL688:
1796:.\main.c      ****                                 configAccess[x]=0;
 7114              		.loc 1 1796 0 discriminator 1
 7115 0d78 2C4A     		ldr	r2, .L523+40
 7116 0d7a 1278     		ldrb	r2, [r2]	@ zero_extendqisi2
 7117 0d7c 9A42     		cmp	r2, r3
 7118 0d7e F4D2     		bcs	.L455
1799:.\main.c      ****                             SetPicture(2,DISPLAY_INICIO0);
 7119              		.loc 1 1799 0
 7120 0d80 0022     		movs	r2, #0
 7121 0d82 204B     		ldr	r3, .L523
 7122              	.LVL689:
 7123 0d84 1A60     		str	r2, [r3]
1800:.\main.c      ****                         break;
 7124              		.loc 1 1800 0
 7125 0d86 0220     		movs	r0, #2
 7126 0d88 0121     		movs	r1, #1
 7127 0d8a FFF7FEFF 		bl	SetPicture
 7128              	.LVL690:
 7129              	.L444:
1803:.\main.c      ****                 break;
 7130              		.loc 1 1803 0
 7131 0d8e FFF7FEFF 		bl	Display2_ClearRxBuffer
 7132              	.LVL691:
1804:.\main.c      ****                     
 7133              		.loc 1 1804 0
 7134 0d92 2EE3     		b	.L309
 7135              	.L443:
1807:.\main.c      ****                         case 1://ID Estacion
 7136              		.loc 1 1807 0
 7137 0d94 1D4B     		ldr	r3, .L523+8
 7138 0d96 93F80031 		ldrb	r3, [r3, #256]	@ zero_extendqisi2
 7139 0d9a 013B     		subs	r3, r3, #1
 7140 0d9c 052B     		cmp	r3, #5
 7141 0d9e 00F2D280 		bhi	.L456
 7142 0da2 DFE813F0 		tbh	[pc, r3, lsl #1]
 7143              	.L458:
 7144 0da6 0F00     		.2byte	(.L509-.L458)/2
 7145 0da8 5200     		.2byte	(.L510-.L458)/2
 7146 0daa 6800     		.2byte	(.L511-.L458)/2
 7147 0dac D000     		.2byte	(.L456-.L458)/2
 7148 0dae 7E00     		.2byte	(.L512-.L458)/2
 7149 0db0 9400     		.2byte	(.L513-.L458)/2
 7150              	.LVL692:
 7151              		.p2align 1
 7152              	.L463:
1810:.\main.c      ****                             }
 7153              		.loc 1 1810 0 discriminator 3
ARM GAS  C:\Users\RECEPC~1\AppData\Local\Temp\cc6Stwwd.s 			page 185


 7154 0db2 591C     		adds	r1, r3, #1
 7155 0db4 154A     		ldr	r2, .L523+8
 7156 0db6 0A44     		add	r2, r2, r1
 7157 0db8 92F84B00 		ldrb	r0, [r2, #75]	@ zero_extendqisi2
 7158 0dbc 194A     		ldr	r2, .L523+32
 7159 0dbe D054     		strb	r0, [r2, r3]
1809:.\main.c      ****                                 idStation[x] =bufferDisplay2.valueKeys[x+1];                       
 7160              		.loc 1 1809 0 discriminator 3
 7161 0dc0 CBB2     		uxtb	r3, r1
 7162              	.LVL693:
 7163 0dc2 00E0     		b	.L457
 7164              	.LVL694:
 7165              	.L509:
1807:.\main.c      ****                         case 1://ID Estacion
 7166              		.loc 1 1807 0
 7167 0dc4 0023     		movs	r3, #0
 7168              	.L457:
 7169              	.LVL695:
1809:.\main.c      ****                                 idStation[x] =bufferDisplay2.valueKeys[x+1];                       
 7170              		.loc 1 1809 0 discriminator 1
 7171 0dc6 042B     		cmp	r3, #4
 7172 0dc8 F3D9     		bls	.L463
1812:.\main.c      ****                             intIDStation = atoi(idStation);
 7173              		.loc 1 1812 0
 7174 0dca 1648     		ldr	r0, .L523+32
 7175 0dcc 0023     		movs	r3, #0
 7176              	.LVL696:
 7177 0dce 0371     		strb	r3, [r0, #4]
1813:.\main.c      ****                             IDCast[0] = intIDStation;
 7178              		.loc 1 1813 0
 7179 0dd0 FFF7FEFF 		bl	atoi
 7180              	.LVL697:
 7181 0dd4 80B2     		uxth	r0, r0
 7182 0dd6 164B     		ldr	r3, .L523+44
 7183 0dd8 1880     		strh	r0, [r3]	@ movhi
1814:.\main.c      ****                             IDCast[1] = intIDStation>>8;
 7184              		.loc 1 1814 0
 7185 0dda C3B2     		uxtb	r3, r0
 7186 0ddc 154C     		ldr	r4, .L523+48
 7187 0dde 2370     		strb	r3, [r4]
1815:.\main.c      ****                             EEPROM_1_WriteByte(IDCast[0],10);
 7188              		.loc 1 1815 0
 7189 0de0 000A     		lsrs	r0, r0, #8
 7190 0de2 6070     		strb	r0, [r4, #1]
1816:.\main.c      ****                             EEPROM_1_WriteByte(IDCast[1],11);
 7191              		.loc 1 1816 0
 7192 0de4 2078     		ldrb	r0, [r4]	@ zero_extendqisi2
 7193 0de6 0A21     		movs	r1, #10
 7194 0de8 FFF7FEFF 		bl	EEPROM_1_WriteByte
 7195              	.LVL698:
1817:.\main.c      ****                             flowDisplay2 = 15;
 7196              		.loc 1 1817 0
 7197 0dec 6078     		ldrb	r0, [r4, #1]	@ zero_extendqisi2
 7198 0dee 0B21     		movs	r1, #11
 7199 0df0 FFF7FEFF 		bl	EEPROM_1_WriteByte
 7200              	.LVL699:
1818:.\main.c      ****                             SetPicture(2,DISPLAY_CONFIGURACIONES);
ARM GAS  C:\Users\RECEPC~1\AppData\Local\Temp\cc6Stwwd.s 			page 186


 7201              		.loc 1 1818 0
 7202 0df4 0F22     		movs	r2, #15
 7203 0df6 034B     		ldr	r3, .L523
 7204 0df8 1A60     		str	r2, [r3]
1819:.\main.c      ****                         break;
 7205              		.loc 1 1819 0
 7206 0dfa 0220     		movs	r0, #2
 7207 0dfc 5A21     		movs	r1, #90
 7208 0dfe FFF7FEFF 		bl	SetPicture
 7209              	.LVL700:
1820:.\main.c      ****                         case 2://Pass
 7210              		.loc 1 1820 0
 7211 0e02 A0E0     		b	.L456
 7212              	.L524:
 7213              		.align	2
 7214              	.L523:
 7215 0e04 00000000 		.word	flowDisplay2
 7216 0e08 00000000 		.word	lockTurn
 7217 0e0c 00000000 		.word	bufferDisplay2
 7218 0e10 00000000 		.word	numberKeys1
 7219 0e14 00000000 		.word	hiddenKeys
 7220 0e18 00000000 		.word	controlChar
 7221 0e1c 00000000 		.word	side
 7222 0e20 00000000 		.word	Display2_rxBuffer
 7223 0e24 00000000 		.word	idStation
 7224 0e28 00000000 		.word	pumpGap
 7225 0e2c 00000000 		.word	configAccess
 7226 0e30 00000000 		.word	intIDStation
 7227 0e34 00000000 		.word	IDCast
 7228              	.LVL701:
 7229              	.L464:
1823:.\main.c      ****                             }
 7230              		.loc 1 1823 0 discriminator 3
 7231 0e38 8D4A     		ldr	r2, .L525
 7232 0e3a 1A44     		add	r2, r2, r3
 7233 0e3c 92F84B10 		ldrb	r1, [r2, #75]	@ zero_extendqisi2
 7234 0e40 8C4A     		ldr	r2, .L525+4
 7235 0e42 D154     		strb	r1, [r2, r3]
1822:.\main.c      ****                                 pumpGap[x] =bufferDisplay2.valueKeys[x];
 7236              		.loc 1 1822 0 discriminator 3
 7237 0e44 0133     		adds	r3, r3, #1
 7238              	.LVL702:
 7239 0e46 DBB2     		uxtb	r3, r3
 7240              	.LVL703:
 7241 0e48 00E0     		b	.L459
 7242              	.LVL704:
 7243              	.L510:
1807:.\main.c      ****                         case 1://ID Estacion
 7244              		.loc 1 1807 0
 7245 0e4a 0023     		movs	r3, #0
 7246              	.L459:
 7247              	.LVL705:
1822:.\main.c      ****                                 pumpGap[x] =bufferDisplay2.valueKeys[x];
 7248              		.loc 1 1822 0 discriminator 1
 7249 0e4c 8A4A     		ldr	r2, .L525+8
 7250 0e4e 1278     		ldrb	r2, [r2]	@ zero_extendqisi2
 7251 0e50 9342     		cmp	r3, r2
ARM GAS  C:\Users\RECEPC~1\AppData\Local\Temp\cc6Stwwd.s 			page 187


 7252 0e52 F1D3     		bcc	.L464
1825:.\main.c      ****                             SetPicture(2,DISPLAY_CONFIGURACIONES);
 7253              		.loc 1 1825 0
 7254 0e54 0F22     		movs	r2, #15
 7255 0e56 894B     		ldr	r3, .L525+12
 7256              	.LVL706:
 7257 0e58 1A60     		str	r2, [r3]
1826:.\main.c      ****                         break;
 7258              		.loc 1 1826 0
 7259 0e5a 0220     		movs	r0, #2
 7260 0e5c 5A21     		movs	r1, #90
 7261 0e5e FFF7FEFF 		bl	SetPicture
 7262              	.LVL707:
1827:.\main.c      ****                         case 3://Pass turno
 7263              		.loc 1 1827 0
 7264 0e62 70E0     		b	.L456
 7265              	.LVL708:
 7266              	.L465:
1830:.\main.c      ****                             }
 7267              		.loc 1 1830 0 discriminator 3
 7268 0e64 824A     		ldr	r2, .L525
 7269 0e66 1A44     		add	r2, r2, r3
 7270 0e68 92F84B10 		ldrb	r1, [r2, #75]	@ zero_extendqisi2
 7271 0e6c 82F84111 		strb	r1, [r2, #321]
1829:.\main.c      ****                                 bufferDisplay2.shiftPassword[x] =bufferDisplay2.valueKeys[x];
 7272              		.loc 1 1829 0 discriminator 3
 7273 0e70 0133     		adds	r3, r3, #1
 7274              	.LVL709:
 7275 0e72 DBB2     		uxtb	r3, r3
 7276              	.LVL710:
 7277 0e74 00E0     		b	.L460
 7278              	.LVL711:
 7279              	.L511:
1807:.\main.c      ****                         case 1://ID Estacion
 7280              		.loc 1 1807 0
 7281 0e76 0023     		movs	r3, #0
 7282              	.L460:
 7283              	.LVL712:
1829:.\main.c      ****                                 bufferDisplay2.shiftPassword[x] =bufferDisplay2.valueKeys[x];
 7284              		.loc 1 1829 0 discriminator 1
 7285 0e78 7F4A     		ldr	r2, .L525+8
 7286 0e7a 1278     		ldrb	r2, [r2]	@ zero_extendqisi2
 7287 0e7c 9342     		cmp	r3, r2
 7288 0e7e F1D3     		bcc	.L465
1832:.\main.c      ****                             SetPicture(2,DISPLAY_POR_FAVOR_ESPERE);
 7289              		.loc 1 1832 0
 7290 0e80 1322     		movs	r2, #19
 7291 0e82 7E4B     		ldr	r3, .L525+12
 7292              	.LVL713:
 7293 0e84 1A60     		str	r2, [r3]
1833:.\main.c      ****                         break;
 7294              		.loc 1 1833 0
 7295 0e86 0220     		movs	r0, #2
 7296 0e88 3921     		movs	r1, #57
 7297 0e8a FFF7FEFF 		bl	SetPicture
 7298              	.LVL714:
1834:.\main.c      ****                         case 5://Pass
ARM GAS  C:\Users\RECEPC~1\AppData\Local\Temp\cc6Stwwd.s 			page 188


 7299              		.loc 1 1834 0
 7300 0e8e 5AE0     		b	.L456
 7301              	.LVL715:
 7302              	.L466:
1837:.\main.c      ****                             }
 7303              		.loc 1 1837 0 discriminator 3
 7304 0e90 774A     		ldr	r2, .L525
 7305 0e92 1A44     		add	r2, r2, r3
 7306 0e94 92F84B10 		ldrb	r1, [r2, #75]	@ zero_extendqisi2
 7307 0e98 82F84111 		strb	r1, [r2, #321]
1836:.\main.c      ****                                 bufferDisplay2.shiftPassword[x] =bufferDisplay2.valueKeys[x];
 7308              		.loc 1 1836 0 discriminator 3
 7309 0e9c 0133     		adds	r3, r3, #1
 7310              	.LVL716:
 7311 0e9e DBB2     		uxtb	r3, r3
 7312              	.LVL717:
 7313 0ea0 00E0     		b	.L461
 7314              	.LVL718:
 7315              	.L512:
1807:.\main.c      ****                         case 1://ID Estacion
 7316              		.loc 1 1807 0
 7317 0ea2 0023     		movs	r3, #0
 7318              	.L461:
 7319              	.LVL719:
1836:.\main.c      ****                                 bufferDisplay2.shiftPassword[x] =bufferDisplay2.valueKeys[x];
 7320              		.loc 1 1836 0 discriminator 1
 7321 0ea4 744A     		ldr	r2, .L525+8
 7322 0ea6 1278     		ldrb	r2, [r2]	@ zero_extendqisi2
 7323 0ea8 9342     		cmp	r3, r2
 7324 0eaa F1D3     		bcc	.L466
1839:.\main.c      ****                             SetPicture(2,DISPLAY_CONFIGURACIONES);
 7325              		.loc 1 1839 0
 7326 0eac 0F22     		movs	r2, #15
 7327 0eae 734B     		ldr	r3, .L525+12
 7328              	.LVL720:
 7329 0eb0 1A60     		str	r2, [r3]
1840:.\main.c      ****                         break; 
 7330              		.loc 1 1840 0
 7331 0eb2 0220     		movs	r0, #2
 7332 0eb4 5A21     		movs	r1, #90
 7333 0eb6 FFF7FEFF 		bl	SetPicture
 7334              	.LVL721:
1841:.\main.c      ****                         case 6://Pass
 7335              		.loc 1 1841 0
 7336 0eba 44E0     		b	.L456
 7337              	.LVL722:
 7338              	.L467:
1844:.\main.c      ****                             }
 7339              		.loc 1 1844 0 discriminator 3
 7340 0ebc 6C4A     		ldr	r2, .L525
 7341 0ebe 1A44     		add	r2, r2, r3
 7342 0ec0 92F84B10 		ldrb	r1, [r2, #75]	@ zero_extendqisi2
 7343 0ec4 6E4A     		ldr	r2, .L525+16
 7344 0ec6 D154     		strb	r1, [r2, r3]
1843:.\main.c      ****                                 configAccess[x] =bufferDisplay2.valueKeys[x];
 7345              		.loc 1 1843 0 discriminator 3
 7346 0ec8 0133     		adds	r3, r3, #1
ARM GAS  C:\Users\RECEPC~1\AppData\Local\Temp\cc6Stwwd.s 			page 189


 7347              	.LVL723:
 7348 0eca DBB2     		uxtb	r3, r3
 7349              	.LVL724:
 7350 0ecc 00E0     		b	.L462
 7351              	.LVL725:
 7352              	.L513:
1807:.\main.c      ****                         case 1://ID Estacion
 7353              		.loc 1 1807 0
 7354 0ece 0123     		movs	r3, #1
 7355              	.L462:
 7356              	.LVL726:
1843:.\main.c      ****                                 configAccess[x] =bufferDisplay2.valueKeys[x];
 7357              		.loc 1 1843 0 discriminator 1
 7358 0ed0 6B4A     		ldr	r2, .L525+16
 7359 0ed2 1278     		ldrb	r2, [r2]	@ zero_extendqisi2
 7360 0ed4 9A42     		cmp	r2, r3
 7361 0ed6 F1D2     		bcs	.L467
1846:.\main.c      ****                                 SetPicture(2,DISPLAY_PASSWORD_VALIDO);
 7362              		.loc 1 1846 0
 7363 0ed8 694B     		ldr	r3, .L525+16
 7364              	.LVL727:
 7365 0eda 5A78     		ldrb	r2, [r3, #1]	@ zero_extendqisi2
 7366 0edc 694B     		ldr	r3, .L525+20
 7367 0ede 5B78     		ldrb	r3, [r3, #1]	@ zero_extendqisi2
 7368 0ee0 9A42     		cmp	r2, r3
 7369 0ee2 21D1     		bne	.L468
1846:.\main.c      ****                                 SetPicture(2,DISPLAY_PASSWORD_VALIDO);
 7370              		.loc 1 1846 0 is_stmt 0 discriminator 1
 7371 0ee4 664B     		ldr	r3, .L525+16
 7372 0ee6 9A78     		ldrb	r2, [r3, #2]	@ zero_extendqisi2
 7373 0ee8 664B     		ldr	r3, .L525+20
 7374 0eea 9B78     		ldrb	r3, [r3, #2]	@ zero_extendqisi2
 7375 0eec 9A42     		cmp	r2, r3
 7376 0eee 1BD1     		bne	.L468
1846:.\main.c      ****                                 SetPicture(2,DISPLAY_PASSWORD_VALIDO);
 7377              		.loc 1 1846 0 discriminator 2
 7378 0ef0 634B     		ldr	r3, .L525+16
 7379 0ef2 DA78     		ldrb	r2, [r3, #3]	@ zero_extendqisi2
 7380 0ef4 634B     		ldr	r3, .L525+20
 7381 0ef6 DB78     		ldrb	r3, [r3, #3]	@ zero_extendqisi2
 7382 0ef8 9A42     		cmp	r2, r3
 7383 0efa 15D1     		bne	.L468
1846:.\main.c      ****                                 SetPicture(2,DISPLAY_PASSWORD_VALIDO);
 7384              		.loc 1 1846 0 discriminator 3
 7385 0efc 604B     		ldr	r3, .L525+16
 7386 0efe 1A79     		ldrb	r2, [r3, #4]	@ zero_extendqisi2
 7387 0f00 604B     		ldr	r3, .L525+20
 7388 0f02 1B79     		ldrb	r3, [r3, #4]	@ zero_extendqisi2
 7389 0f04 9A42     		cmp	r2, r3
 7390 0f06 0FD1     		bne	.L468
1847:.\main.c      ****                                 CyDelay(700);
 7391              		.loc 1 1847 0 is_stmt 1
 7392 0f08 0220     		movs	r0, #2
 7393 0f0a 2621     		movs	r1, #38
 7394 0f0c FFF7FEFF 		bl	SetPicture
 7395              	.LVL728:
1848:.\main.c      ****                                 flowDisplay2 = 15;
ARM GAS  C:\Users\RECEPC~1\AppData\Local\Temp\cc6Stwwd.s 			page 190


 7396              		.loc 1 1848 0
 7397 0f10 4FF42F70 		mov	r0, #700
 7398 0f14 FFF7FEFF 		bl	CyDelay
 7399              	.LVL729:
1849:.\main.c      ****                                 SetPicture(2,DISPLAY_CONFIGURACIONES);
 7400              		.loc 1 1849 0
 7401 0f18 0F22     		movs	r2, #15
 7402 0f1a 584B     		ldr	r3, .L525+12
 7403 0f1c 1A60     		str	r2, [r3]
1850:.\main.c      ****                             }else{
 7404              		.loc 1 1850 0
 7405 0f1e 0220     		movs	r0, #2
 7406 0f20 5A21     		movs	r1, #90
 7407 0f22 FFF7FEFF 		bl	SetPicture
 7408              	.LVL730:
 7409 0f26 0EE0     		b	.L456
 7410              	.L468:
1852:.\main.c      ****                                 CyDelay(700);
 7411              		.loc 1 1852 0
 7412 0f28 0220     		movs	r0, #2
 7413 0f2a 2721     		movs	r1, #39
 7414 0f2c FFF7FEFF 		bl	SetPicture
 7415              	.LVL731:
1853:.\main.c      ****                                 flowDisplay2 = 0;
 7416              		.loc 1 1853 0
 7417 0f30 4FF42F70 		mov	r0, #700
 7418 0f34 FFF7FEFF 		bl	CyDelay
 7419              	.LVL732:
1854:.\main.c      ****                                 SetPicture(2,DISPLAY_INICIO0);
 7420              		.loc 1 1854 0
 7421 0f38 0022     		movs	r2, #0
 7422 0f3a 504B     		ldr	r3, .L525+12
 7423 0f3c 1A60     		str	r2, [r3]
1855:.\main.c      ****                             }
 7424              		.loc 1 1855 0
 7425 0f3e 0220     		movs	r0, #2
 7426 0f40 0121     		movs	r1, #1
 7427 0f42 FFF7FEFF 		bl	SetPicture
 7428              	.LVL733:
 7429              	.L456:
1859:.\main.c      ****                 break;
 7430              		.loc 1 1859 0
 7431 0f46 FFF7FEFF 		bl	Display2_ClearRxBuffer
 7432              	.LVL734:
1860:.\main.c      ****             }            
 7433              		.loc 1 1860 0
 7434 0f4a 52E2     		b	.L309
 7435              	.L327:
1865:.\main.c      ****                 if((Display2_rxBuffer[0]==0xAA) && (Display2_rxBuffer[6]==0xC3) && (Display2_rxBuff
 7436              		.loc 1 1865 0
 7437 0f4c FFF7FEFF 		bl	Display2_GetRxBufferSize
 7438              	.LVL735:
 7439 0f50 0828     		cmp	r0, #8
 7440 0f52 40F04E82 		bne	.L309
1866:.\main.c      ****                     switch(Display2_rxBuffer[3]){
 7441              		.loc 1 1866 0
 7442 0f56 4C4B     		ldr	r3, .L525+24
ARM GAS  C:\Users\RECEPC~1\AppData\Local\Temp\cc6Stwwd.s 			page 191


 7443 0f58 1B78     		ldrb	r3, [r3]	@ zero_extendqisi2
 7444 0f5a DBB2     		uxtb	r3, r3
 7445 0f5c AA2B     		cmp	r3, #170
 7446 0f5e 40F08180 		bne	.L469
1866:.\main.c      ****                     switch(Display2_rxBuffer[3]){
 7447              		.loc 1 1866 0 is_stmt 0 discriminator 1
 7448 0f62 494B     		ldr	r3, .L525+24
 7449 0f64 9B79     		ldrb	r3, [r3, #6]	@ zero_extendqisi2
 7450 0f66 DBB2     		uxtb	r3, r3
 7451 0f68 C32B     		cmp	r3, #195
 7452 0f6a 7BD1     		bne	.L469
1866:.\main.c      ****                     switch(Display2_rxBuffer[3]){
 7453              		.loc 1 1866 0 discriminator 2
 7454 0f6c 464B     		ldr	r3, .L525+24
 7455 0f6e DB79     		ldrb	r3, [r3, #7]	@ zero_extendqisi2
 7456 0f70 DBB2     		uxtb	r3, r3
 7457 0f72 3C2B     		cmp	r3, #60
 7458 0f74 76D1     		bne	.L469
1867:.\main.c      ****                         case 0x82:  //ID Estacion  
 7459              		.loc 1 1867 0 is_stmt 1
 7460 0f76 444B     		ldr	r3, .L525+24
 7461 0f78 DB78     		ldrb	r3, [r3, #3]	@ zero_extendqisi2
 7462 0f7a 583B     		subs	r3, r3, #88
 7463 0f7c 3C2B     		cmp	r3, #60
 7464 0f7e 71D8     		bhi	.L469
 7465 0f80 DFE803F0 		tbb	[pc, r3]
 7466              	.L471:
 7467 0f84 52       		.byte	(.L470-.L471)/2
 7468 0f85 70       		.byte	(.L469-.L471)/2
 7469 0f86 3D       		.byte	(.L472-.L471)/2
 7470 0f87 70       		.byte	(.L469-.L471)/2
 7471 0f88 70       		.byte	(.L469-.L471)/2
 7472 0f89 70       		.byte	(.L469-.L471)/2
 7473 0f8a 70       		.byte	(.L469-.L471)/2
 7474 0f8b 70       		.byte	(.L469-.L471)/2
 7475 0f8c 70       		.byte	(.L469-.L471)/2
 7476 0f8d 70       		.byte	(.L469-.L471)/2
 7477 0f8e 70       		.byte	(.L469-.L471)/2
 7478 0f8f 70       		.byte	(.L469-.L471)/2
 7479 0f90 70       		.byte	(.L469-.L471)/2
 7480 0f91 33       		.byte	(.L473-.L471)/2
 7481 0f92 70       		.byte	(.L469-.L471)/2
 7482 0f93 70       		.byte	(.L469-.L471)/2
 7483 0f94 70       		.byte	(.L469-.L471)/2
 7484 0f95 70       		.byte	(.L469-.L471)/2
 7485 0f96 70       		.byte	(.L469-.L471)/2
 7486 0f97 70       		.byte	(.L469-.L471)/2
 7487 0f98 70       		.byte	(.L469-.L471)/2
 7488 0f99 70       		.byte	(.L469-.L471)/2
 7489 0f9a 70       		.byte	(.L469-.L471)/2
 7490 0f9b 70       		.byte	(.L469-.L471)/2
 7491 0f9c 70       		.byte	(.L469-.L471)/2
 7492 0f9d 70       		.byte	(.L469-.L471)/2
 7493 0f9e 70       		.byte	(.L469-.L471)/2
 7494 0f9f 70       		.byte	(.L469-.L471)/2
 7495 0fa0 70       		.byte	(.L469-.L471)/2
 7496 0fa1 70       		.byte	(.L469-.L471)/2
ARM GAS  C:\Users\RECEPC~1\AppData\Local\Temp\cc6Stwwd.s 			page 192


 7497 0fa2 70       		.byte	(.L469-.L471)/2
 7498 0fa3 70       		.byte	(.L469-.L471)/2
 7499 0fa4 70       		.byte	(.L469-.L471)/2
 7500 0fa5 70       		.byte	(.L469-.L471)/2
 7501 0fa6 70       		.byte	(.L469-.L471)/2
 7502 0fa7 70       		.byte	(.L469-.L471)/2
 7503 0fa8 70       		.byte	(.L469-.L471)/2
 7504 0fa9 70       		.byte	(.L469-.L471)/2
 7505 0faa 61       		.byte	(.L474-.L471)/2
 7506 0fab 70       		.byte	(.L469-.L471)/2
 7507 0fac 70       		.byte	(.L469-.L471)/2
 7508 0fad 70       		.byte	(.L469-.L471)/2
 7509 0fae 1F       		.byte	(.L475-.L471)/2
 7510 0faf 70       		.byte	(.L469-.L471)/2
 7511 0fb0 70       		.byte	(.L469-.L471)/2
 7512 0fb1 70       		.byte	(.L469-.L471)/2
 7513 0fb2 70       		.byte	(.L469-.L471)/2
 7514 0fb3 70       		.byte	(.L469-.L471)/2
 7515 0fb4 70       		.byte	(.L469-.L471)/2
 7516 0fb5 70       		.byte	(.L469-.L471)/2
 7517 0fb6 70       		.byte	(.L469-.L471)/2
 7518 0fb7 70       		.byte	(.L469-.L471)/2
 7519 0fb8 70       		.byte	(.L469-.L471)/2
 7520 0fb9 70       		.byte	(.L469-.L471)/2
 7521 0fba 70       		.byte	(.L469-.L471)/2
 7522 0fbb 70       		.byte	(.L469-.L471)/2
 7523 0fbc 70       		.byte	(.L469-.L471)/2
 7524 0fbd 70       		.byte	(.L469-.L471)/2
 7525 0fbe 70       		.byte	(.L469-.L471)/2
 7526 0fbf 70       		.byte	(.L469-.L471)/2
 7527 0fc0 69       		.byte	(.L476-.L471)/2
 7528 0fc1 00       		.p2align 1
 7529              	.L475:
1869:.\main.c      ****                             numberKeys1 = 0; 
 7530              		.loc 1 1869 0
 7531 0fc2 0E22     		movs	r2, #14
 7532 0fc4 2D4B     		ldr	r3, .L525+12
 7533 0fc6 1A60     		str	r2, [r3]
1870:.\main.c      ****                             controlChar = 0;
 7534              		.loc 1 1870 0
 7535 0fc8 0023     		movs	r3, #0
 7536 0fca 304A     		ldr	r2, .L525+28
 7537 0fcc 1370     		strb	r3, [r2]
1871:.\main.c      ****                             hiddenKeys  = 5;
 7538              		.loc 1 1871 0
 7539 0fce 304A     		ldr	r2, .L525+32
 7540 0fd0 1370     		strb	r3, [r2]
1872:.\main.c      ****                             bufferDisplay2.flagKeyboard = 1;
 7541              		.loc 1 1872 0
 7542 0fd2 0522     		movs	r2, #5
 7543 0fd4 284B     		ldr	r3, .L525+8
 7544 0fd6 1A70     		strb	r2, [r3]
1873:.\main.c      ****                             SetPicture(2,DISPLAY_INTRODUZCA_VALOR);                            
 7545              		.loc 1 1873 0
 7546 0fd8 0122     		movs	r2, #1
 7547 0fda 254B     		ldr	r3, .L525
 7548 0fdc 83F80021 		strb	r2, [r3, #256]
ARM GAS  C:\Users\RECEPC~1\AppData\Local\Temp\cc6Stwwd.s 			page 193


1874:.\main.c      ****                         break;
 7549              		.loc 1 1874 0
 7550 0fe0 0220     		movs	r0, #2
 7551 0fe2 0621     		movs	r1, #6
 7552 0fe4 FFF7FEFF 		bl	SetPicture
 7553              	.LVL736:
1875:.\main.c      ****                         case 0x65:  //Test Impresoras 
 7554              		.loc 1 1875 0
 7555 0fe8 3CE0     		b	.L469
 7556              	.L473:
1877:.\main.c      ****                             PrintTest();
 7557              		.loc 1 1877 0
 7558 0fea 1022     		movs	r2, #16
 7559 0fec 234B     		ldr	r3, .L525+12
 7560 0fee 1A60     		str	r2, [r3]
1878:.\main.c      ****                             SetPicture(2,DISPLAY_AMBAS_IMPRESORAS_FUNCIONANDO);                    
 7561              		.loc 1 1878 0
 7562 0ff0 FFF7FEFF 		bl	PrintTest
 7563              	.LVL737:
1879:.\main.c      ****                         break;
 7564              		.loc 1 1879 0
 7565 0ff4 0220     		movs	r0, #2
 7566 0ff6 6B21     		movs	r1, #107
 7567 0ff8 FFF7FEFF 		bl	SetPicture
 7568              	.LVL738:
1880:.\main.c      ****                         
 7569              		.loc 1 1880 0
 7570 0ffc 32E0     		b	.L469
 7571              	.L472:
1883:.\main.c      ****                             numberKeys1 = 0;
 7572              		.loc 1 1883 0
 7573 0ffe 0E22     		movs	r2, #14
 7574 1000 1E4B     		ldr	r3, .L525+12
 7575 1002 1A60     		str	r2, [r3]
1884:.\main.c      ****                             controlChar = 0;
 7576              		.loc 1 1884 0
 7577 1004 0023     		movs	r3, #0
 7578 1006 214A     		ldr	r2, .L525+28
 7579 1008 1370     		strb	r3, [r2]
1885:.\main.c      ****                             hiddenKeys  = 3;
 7580              		.loc 1 1885 0
 7581 100a 214A     		ldr	r2, .L525+32
 7582 100c 1370     		strb	r3, [r2]
1886:.\main.c      ****                             pumpGap[0]  = 2;
 7583              		.loc 1 1886 0
 7584 100e 0322     		movs	r2, #3
 7585 1010 194B     		ldr	r3, .L525+8
 7586 1012 1A70     		strb	r2, [r3]
1887:.\main.c      ****                             bufferDisplay2.flagKeyboard = 2;
 7587              		.loc 1 1887 0
 7588 1014 0220     		movs	r0, #2
 7589 1016 174B     		ldr	r3, .L525+4
 7590 1018 1870     		strb	r0, [r3]
1888:.\main.c      ****                             SetPicture(2,DISPLAY_INTRODUZCA_VALOR);                            
 7591              		.loc 1 1888 0
 7592 101a 154B     		ldr	r3, .L525
 7593 101c 83F80001 		strb	r0, [r3, #256]
ARM GAS  C:\Users\RECEPC~1\AppData\Local\Temp\cc6Stwwd.s 			page 194


1889:.\main.c      ****                         break;
 7594              		.loc 1 1889 0
 7595 1020 0621     		movs	r1, #6
 7596 1022 FFF7FEFF 		bl	SetPicture
 7597              	.LVL739:
1890:.\main.c      ****                         case 0x58:  //Hora y Fecha
 7598              		.loc 1 1890 0
 7599 1026 1DE0     		b	.L469
 7600              	.L470:
1892:.\main.c      ****                             numberKeys1 = 0;   
 7601              		.loc 1 1892 0
 7602 1028 1222     		movs	r2, #18
 7603 102a 144B     		ldr	r3, .L525+12
 7604 102c 1A60     		str	r2, [r3]
1893:.\main.c      ****                             bufferDisplay2.flagKeyboard = 4;
 7605              		.loc 1 1893 0
 7606 102e 0022     		movs	r2, #0
 7607 1030 164B     		ldr	r3, .L525+28
 7608 1032 1A70     		strb	r2, [r3]
1894:.\main.c      ****                             SetPicture(2,DISPLAY_CONFIGURAR_FECHA_HORA);                           
 7609              		.loc 1 1894 0
 7610 1034 0422     		movs	r2, #4
 7611 1036 0E4B     		ldr	r3, .L525
 7612 1038 83F80021 		strb	r2, [r3, #256]
1895:.\main.c      ****                         break;
 7613              		.loc 1 1895 0
 7614 103c 0220     		movs	r0, #2
 7615 103e 3E21     		movs	r1, #62
 7616 1040 FFF7FEFF 		bl	SetPicture
 7617              	.LVL740:
1896:.\main.c      ****                         case 0x7E:  //Pantalla Inicial                                             
 7618              		.loc 1 1896 0
 7619 1044 0EE0     		b	.L469
 7620              	.L474:
1898:.\main.c      ****                             flowDisplay2 = 0;
 7621              		.loc 1 1898 0
 7622 1046 0220     		movs	r0, #2
 7623 1048 0121     		movs	r1, #1
 7624 104a FFF7FEFF 		bl	SetPicture
 7625              	.LVL741:
1899:.\main.c      ****                         break;
 7626              		.loc 1 1899 0
 7627 104e 0022     		movs	r2, #0
 7628 1050 0A4B     		ldr	r3, .L525+12
 7629 1052 1A60     		str	r2, [r3]
1900:.\main.c      ****                         case 0x94:  //Pantalla Inicial                                             
 7630              		.loc 1 1900 0
 7631 1054 06E0     		b	.L469
 7632              	.L476:
1902:.\main.c      ****                             flowDisplay2 = 0;
 7633              		.loc 1 1902 0
 7634 1056 0220     		movs	r0, #2
 7635 1058 0121     		movs	r1, #1
 7636 105a FFF7FEFF 		bl	SetPicture
 7637              	.LVL742:
1903:.\main.c      ****                         break;
 7638              		.loc 1 1903 0
ARM GAS  C:\Users\RECEPC~1\AppData\Local\Temp\cc6Stwwd.s 			page 195


 7639 105e 0022     		movs	r2, #0
 7640 1060 064B     		ldr	r3, .L525+12
 7641 1062 1A60     		str	r2, [r3]
 7642              	.L469:
1907:.\main.c      ****                 Display2_ClearRxBuffer();
 7643              		.loc 1 1907 0
 7644 1064 0A20     		movs	r0, #10
 7645 1066 FFF7FEFF 		bl	CyDelay
 7646              	.LVL743:
1908:.\main.c      ****             }                        
 7647              		.loc 1 1908 0
 7648 106a FFF7FEFF 		bl	Display2_ClearRxBuffer
 7649              	.LVL744:
 7650 106e C0E1     		b	.L309
 7651              	.L526:
 7652              		.align	2
 7653              	.L525:
 7654 1070 00000000 		.word	bufferDisplay2
 7655 1074 00000000 		.word	pumpGap
 7656 1078 00000000 		.word	hiddenKeys
 7657 107c 00000000 		.word	flowDisplay2
 7658 1080 00000000 		.word	configAccess
 7659 1084 00000000 		.word	.LANCHOR0
 7660 1088 00000000 		.word	Display2_rxBuffer
 7661 108c 00000000 		.word	numberKeys1
 7662 1090 00000000 		.word	controlChar
 7663              	.L328:
1913:.\main.c      ****                 if((Display2_rxBuffer[0]==0xAA) && (Display2_rxBuffer[6]==0xC3) && (Display2_rxBuff
 7664              		.loc 1 1913 0
 7665 1094 FFF7FEFF 		bl	Display2_GetRxBufferSize
 7666              	.LVL745:
 7667 1098 0828     		cmp	r0, #8
 7668 109a 40F0AA81 		bne	.L309
1914:.\main.c      ****                     switch(Display2_rxBuffer[3]){
 7669              		.loc 1 1914 0
 7670 109e 644B     		ldr	r3, .L527
 7671 10a0 1B78     		ldrb	r3, [r3]	@ zero_extendqisi2
 7672 10a2 DBB2     		uxtb	r3, r3
 7673 10a4 AA2B     		cmp	r3, #170
 7674 10a6 43D1     		bne	.L477
1914:.\main.c      ****                     switch(Display2_rxBuffer[3]){
 7675              		.loc 1 1914 0 is_stmt 0 discriminator 1
 7676 10a8 614B     		ldr	r3, .L527
 7677 10aa 9B79     		ldrb	r3, [r3, #6]	@ zero_extendqisi2
 7678 10ac DBB2     		uxtb	r3, r3
 7679 10ae C32B     		cmp	r3, #195
 7680 10b0 3ED1     		bne	.L477
1914:.\main.c      ****                     switch(Display2_rxBuffer[3]){
 7681              		.loc 1 1914 0 discriminator 2
 7682 10b2 5F4B     		ldr	r3, .L527
 7683 10b4 DB79     		ldrb	r3, [r3, #7]	@ zero_extendqisi2
 7684 10b6 DBB2     		uxtb	r3, r3
 7685 10b8 3C2B     		cmp	r3, #60
 7686 10ba 39D1     		bne	.L477
1915:.\main.c      ****                         case 0x38:  //No funcionan  
 7687              		.loc 1 1915 0 is_stmt 1
 7688 10bc 5C4B     		ldr	r3, .L527
ARM GAS  C:\Users\RECEPC~1\AppData\Local\Temp\cc6Stwwd.s 			page 196


 7689 10be DB78     		ldrb	r3, [r3, #3]	@ zero_extendqisi2
 7690 10c0 DBB2     		uxtb	r3, r3
 7691 10c2 392B     		cmp	r3, #57
 7692 10c4 10D0     		beq	.L478
 7693 10c6 02D8     		bhi	.L479
 7694 10c8 382B     		cmp	r3, #56
 7695 10ca 05D0     		beq	.L480
 7696 10cc 30E0     		b	.L477
 7697              	.L479:
 7698 10ce 7E2B     		cmp	r3, #126
 7699 10d0 1FD0     		beq	.L481
 7700 10d2 942B     		cmp	r3, #148
 7701 10d4 25D0     		beq	.L482
 7702 10d6 2BE0     		b	.L477
 7703              	.L480:
1917:.\main.c      ****                             SetPicture(2,DISPLAY_IMPRESORA_NO_FUNCIONANDO);                        
 7704              		.loc 1 1917 0
 7705 10d8 1122     		movs	r2, #17
 7706 10da 564B     		ldr	r3, .L527+4
 7707 10dc 1A60     		str	r2, [r3]
1918:.\main.c      ****                         break;
 7708              		.loc 1 1918 0
 7709 10de 0220     		movs	r0, #2
 7710 10e0 6721     		movs	r1, #103
 7711 10e2 FFF7FEFF 		bl	SetPicture
 7712              	.LVL746:
1919:.\main.c      ****                         case 0x39:  //Si funcionan
 7713              		.loc 1 1919 0
 7714 10e6 23E0     		b	.L477
 7715              	.L478:
1921:.\main.c      ****                             printPortA = 1;
 7716              		.loc 1 1921 0
 7717 10e8 0F22     		movs	r2, #15
 7718 10ea 524B     		ldr	r3, .L527+4
 7719 10ec 1A60     		str	r2, [r3]
1922:.\main.c      ****                             printPortB = 2;
 7720              		.loc 1 1922 0
 7721 10ee 0120     		movs	r0, #1
 7722 10f0 514B     		ldr	r3, .L527+8
 7723 10f2 1870     		strb	r0, [r3]
1923:.\main.c      ****                             EEPROM_1_WriteByte(printPortA,8);
 7724              		.loc 1 1923 0
 7725 10f4 514D     		ldr	r5, .L527+12
 7726 10f6 0224     		movs	r4, #2
 7727 10f8 2C70     		strb	r4, [r5]
1924:.\main.c      ****                             EEPROM_1_WriteByte(printPortB,9);
 7728              		.loc 1 1924 0
 7729 10fa 0821     		movs	r1, #8
 7730 10fc FFF7FEFF 		bl	EEPROM_1_WriteByte
 7731              	.LVL747:
1925:.\main.c      ****                             SetPicture(2,DISPLAY_CONFIGURACIONES);
 7732              		.loc 1 1925 0
 7733 1100 2878     		ldrb	r0, [r5]	@ zero_extendqisi2
 7734 1102 0921     		movs	r1, #9
 7735 1104 FFF7FEFF 		bl	EEPROM_1_WriteByte
 7736              	.LVL748:
1926:.\main.c      ****                         break;
ARM GAS  C:\Users\RECEPC~1\AppData\Local\Temp\cc6Stwwd.s 			page 197


 7737              		.loc 1 1926 0
 7738 1108 2046     		mov	r0, r4
 7739 110a 5A21     		movs	r1, #90
 7740 110c FFF7FEFF 		bl	SetPicture
 7741              	.LVL749:
1927:.\main.c      ****                                                
 7742              		.loc 1 1927 0
 7743 1110 0EE0     		b	.L477
 7744              	.L481:
1930:.\main.c      ****                             flowDisplay2 = 0;
 7745              		.loc 1 1930 0
 7746 1112 0220     		movs	r0, #2
 7747 1114 0121     		movs	r1, #1
 7748 1116 FFF7FEFF 		bl	SetPicture
 7749              	.LVL750:
1931:.\main.c      ****                         break;
 7750              		.loc 1 1931 0
 7751 111a 0022     		movs	r2, #0
 7752 111c 454B     		ldr	r3, .L527+4
 7753 111e 1A60     		str	r2, [r3]
1932:.\main.c      ****                         case 0x94:  //Pantalla Inicial                                             
 7754              		.loc 1 1932 0
 7755 1120 06E0     		b	.L477
 7756              	.L482:
1934:.\main.c      ****                             flowDisplay2 = 0;
 7757              		.loc 1 1934 0
 7758 1122 0220     		movs	r0, #2
 7759 1124 0121     		movs	r1, #1
 7760 1126 FFF7FEFF 		bl	SetPicture
 7761              	.LVL751:
1935:.\main.c      ****                         break;
 7762              		.loc 1 1935 0
 7763 112a 0022     		movs	r2, #0
 7764 112c 414B     		ldr	r3, .L527+4
 7765 112e 1A60     		str	r2, [r3]
 7766              	.L477:
1939:.\main.c      ****                 Display2_ClearRxBuffer();
 7767              		.loc 1 1939 0
 7768 1130 0A20     		movs	r0, #10
 7769 1132 FFF7FEFF 		bl	CyDelay
 7770              	.LVL752:
1940:.\main.c      ****             }                        
 7771              		.loc 1 1940 0
 7772 1136 FFF7FEFF 		bl	Display2_ClearRxBuffer
 7773              	.LVL753:
 7774 113a 5AE1     		b	.L309
 7775              	.L329:
1945:.\main.c      ****                 if((Display2_rxBuffer[0]==0xAA) && (Display2_rxBuffer[6]==0xC3) && (Display2_rxBuff
 7776              		.loc 1 1945 0
 7777 113c FFF7FEFF 		bl	Display2_GetRxBufferSize
 7778              	.LVL754:
 7779 1140 0828     		cmp	r0, #8
 7780 1142 40F05681 		bne	.L309
1946:.\main.c      ****                     switch(Display2_rxBuffer[3]){
 7781              		.loc 1 1946 0
 7782 1146 3A4B     		ldr	r3, .L527
 7783 1148 1B78     		ldrb	r3, [r3]	@ zero_extendqisi2
ARM GAS  C:\Users\RECEPC~1\AppData\Local\Temp\cc6Stwwd.s 			page 198


 7784 114a DBB2     		uxtb	r3, r3
 7785 114c AA2B     		cmp	r3, #170
 7786 114e 68D1     		bne	.L483
1946:.\main.c      ****                     switch(Display2_rxBuffer[3]){
 7787              		.loc 1 1946 0 is_stmt 0 discriminator 1
 7788 1150 374B     		ldr	r3, .L527
 7789 1152 9B79     		ldrb	r3, [r3, #6]	@ zero_extendqisi2
 7790 1154 DBB2     		uxtb	r3, r3
 7791 1156 C32B     		cmp	r3, #195
 7792 1158 63D1     		bne	.L483
1946:.\main.c      ****                     switch(Display2_rxBuffer[3]){
 7793              		.loc 1 1946 0 discriminator 2
 7794 115a 354B     		ldr	r3, .L527
 7795 115c DB79     		ldrb	r3, [r3, #7]	@ zero_extendqisi2
 7796 115e DBB2     		uxtb	r3, r3
 7797 1160 3C2B     		cmp	r3, #60
 7798 1162 5ED1     		bne	.L483
1947:.\main.c      ****                         case 0x8C:  //1 no funciona  
 7799              		.loc 1 1947 0 is_stmt 1
 7800 1164 324B     		ldr	r3, .L527
 7801 1166 DB78     		ldrb	r3, [r3, #3]	@ zero_extendqisi2
 7802 1168 7E3B     		subs	r3, r3, #126
 7803 116a 162B     		cmp	r3, #22
 7804 116c 59D8     		bhi	.L483
 7805 116e DFE803F0 		tbb	[pc, r3]
 7806              	.L485:
 7807 1172 49       		.byte	(.L484-.L485)/2
 7808 1173 58       		.byte	(.L483-.L485)/2
 7809 1174 58       		.byte	(.L483-.L485)/2
 7810 1175 58       		.byte	(.L483-.L485)/2
 7811 1176 58       		.byte	(.L483-.L485)/2
 7812 1177 58       		.byte	(.L483-.L485)/2
 7813 1178 58       		.byte	(.L483-.L485)/2
 7814 1179 58       		.byte	(.L483-.L485)/2
 7815 117a 58       		.byte	(.L483-.L485)/2
 7816 117b 58       		.byte	(.L483-.L485)/2
 7817 117c 58       		.byte	(.L483-.L485)/2
 7818 117d 58       		.byte	(.L483-.L485)/2
 7819 117e 58       		.byte	(.L483-.L485)/2
 7820 117f 58       		.byte	(.L483-.L485)/2
 7821 1180 0C       		.byte	(.L486-.L485)/2
 7822 1181 21       		.byte	(.L487-.L485)/2
 7823 1182 35       		.byte	(.L488-.L485)/2
 7824 1183 58       		.byte	(.L483-.L485)/2
 7825 1184 58       		.byte	(.L483-.L485)/2
 7826 1185 58       		.byte	(.L483-.L485)/2
 7827 1186 58       		.byte	(.L483-.L485)/2
 7828 1187 58       		.byte	(.L483-.L485)/2
 7829 1188 51       		.byte	(.L489-.L485)/2
 7830 1189 00       		.p2align 1
 7831              	.L486:
1949:.\main.c      ****                             printPortA = 2;
 7832              		.loc 1 1949 0
 7833 118a 0F22     		movs	r2, #15
 7834 118c 294B     		ldr	r3, .L527+4
 7835 118e 1A60     		str	r2, [r3]
1950:.\main.c      ****                             printPortB = 2;
ARM GAS  C:\Users\RECEPC~1\AppData\Local\Temp\cc6Stwwd.s 			page 199


 7836              		.loc 1 1950 0
 7837 1190 0224     		movs	r4, #2
 7838 1192 294B     		ldr	r3, .L527+8
 7839 1194 1C70     		strb	r4, [r3]
1951:.\main.c      ****                             EEPROM_1_WriteByte(printPortA,8);
 7840              		.loc 1 1951 0
 7841 1196 294D     		ldr	r5, .L527+12
 7842 1198 2C70     		strb	r4, [r5]
1952:.\main.c      ****                             EEPROM_1_WriteByte(printPortB,9);
 7843              		.loc 1 1952 0
 7844 119a 2046     		mov	r0, r4
 7845 119c 0821     		movs	r1, #8
 7846 119e FFF7FEFF 		bl	EEPROM_1_WriteByte
 7847              	.LVL755:
1953:.\main.c      ****                             SetPicture(2,DISPLAY_CONFIGURACIONES);                            
 7848              		.loc 1 1953 0
 7849 11a2 2878     		ldrb	r0, [r5]	@ zero_extendqisi2
 7850 11a4 0921     		movs	r1, #9
 7851 11a6 FFF7FEFF 		bl	EEPROM_1_WriteByte
 7852              	.LVL756:
1954:.\main.c      ****                         break;
 7853              		.loc 1 1954 0
 7854 11aa 2046     		mov	r0, r4
 7855 11ac 5A21     		movs	r1, #90
 7856 11ae FFF7FEFF 		bl	SetPicture
 7857              	.LVL757:
1955:.\main.c      ****                         case 0x8D:  //2 no funciona
 7858              		.loc 1 1955 0
 7859 11b2 36E0     		b	.L483
 7860              	.L487:
1957:.\main.c      ****                             printPortA = 1;
 7861              		.loc 1 1957 0
 7862 11b4 0F22     		movs	r2, #15
 7863 11b6 1F4B     		ldr	r3, .L527+4
 7864 11b8 1A60     		str	r2, [r3]
1958:.\main.c      ****                             printPortB = 1;
 7865              		.loc 1 1958 0
 7866 11ba 0120     		movs	r0, #1
 7867 11bc 1E4B     		ldr	r3, .L527+8
 7868 11be 1870     		strb	r0, [r3]
1959:.\main.c      ****                             EEPROM_1_WriteByte(printPortA,8);
 7869              		.loc 1 1959 0
 7870 11c0 1E4C     		ldr	r4, .L527+12
 7871 11c2 2070     		strb	r0, [r4]
1960:.\main.c      ****                             EEPROM_1_WriteByte(printPortB,9);
 7872              		.loc 1 1960 0
 7873 11c4 0821     		movs	r1, #8
 7874 11c6 FFF7FEFF 		bl	EEPROM_1_WriteByte
 7875              	.LVL758:
1961:.\main.c      ****                             SetPicture(2,DISPLAY_CONFIGURACIONES); 
 7876              		.loc 1 1961 0
 7877 11ca 2078     		ldrb	r0, [r4]	@ zero_extendqisi2
 7878 11cc 0921     		movs	r1, #9
 7879 11ce FFF7FEFF 		bl	EEPROM_1_WriteByte
 7880              	.LVL759:
1962:.\main.c      ****                         break;
 7881              		.loc 1 1962 0
ARM GAS  C:\Users\RECEPC~1\AppData\Local\Temp\cc6Stwwd.s 			page 200


 7882 11d2 0220     		movs	r0, #2
 7883 11d4 5A21     		movs	r1, #90
 7884 11d6 FFF7FEFF 		bl	SetPicture
 7885              	.LVL760:
1963:.\main.c      ****                             
 7886              		.loc 1 1963 0
 7887 11da 22E0     		b	.L483
 7888              	.L488:
1966:.\main.c      ****                             printPortA = 0;
 7889              		.loc 1 1966 0
 7890 11dc 0F22     		movs	r2, #15
 7891 11de 154B     		ldr	r3, .L527+4
 7892 11e0 1A60     		str	r2, [r3]
1967:.\main.c      ****                             printPortB = 0;
 7893              		.loc 1 1967 0
 7894 11e2 0020     		movs	r0, #0
 7895 11e4 144B     		ldr	r3, .L527+8
 7896 11e6 1870     		strb	r0, [r3]
1968:.\main.c      ****                             EEPROM_1_WriteByte(printPortA,8);
 7897              		.loc 1 1968 0
 7898 11e8 144C     		ldr	r4, .L527+12
 7899 11ea 2070     		strb	r0, [r4]
1969:.\main.c      ****                             EEPROM_1_WriteByte(printPortB,9);
 7900              		.loc 1 1969 0
 7901 11ec 0821     		movs	r1, #8
 7902 11ee FFF7FEFF 		bl	EEPROM_1_WriteByte
 7903              	.LVL761:
1970:.\main.c      ****                             SetPicture(2,DISPLAY_CONFIGURACIONES); 
 7904              		.loc 1 1970 0
 7905 11f2 2078     		ldrb	r0, [r4]	@ zero_extendqisi2
 7906 11f4 0921     		movs	r1, #9
 7907 11f6 FFF7FEFF 		bl	EEPROM_1_WriteByte
 7908              	.LVL762:
1971:.\main.c      ****                         break;
 7909              		.loc 1 1971 0
 7910 11fa 0220     		movs	r0, #2
 7911 11fc 5A21     		movs	r1, #90
 7912 11fe FFF7FEFF 		bl	SetPicture
 7913              	.LVL763:
1972:.\main.c      ****                                                
 7914              		.loc 1 1972 0
 7915 1202 0EE0     		b	.L483
 7916              	.L484:
1975:.\main.c      ****                             flowDisplay2 = 0;
 7917              		.loc 1 1975 0
 7918 1204 0220     		movs	r0, #2
 7919 1206 0121     		movs	r1, #1
 7920 1208 FFF7FEFF 		bl	SetPicture
 7921              	.LVL764:
1976:.\main.c      ****                         break;
 7922              		.loc 1 1976 0
 7923 120c 0022     		movs	r2, #0
 7924 120e 094B     		ldr	r3, .L527+4
 7925 1210 1A60     		str	r2, [r3]
1977:.\main.c      ****                         case 0x94:  //Pantalla Inicial                                             
 7926              		.loc 1 1977 0
 7927 1212 06E0     		b	.L483
ARM GAS  C:\Users\RECEPC~1\AppData\Local\Temp\cc6Stwwd.s 			page 201


 7928              	.L489:
1979:.\main.c      ****                             flowDisplay2 = 0;
 7929              		.loc 1 1979 0
 7930 1214 0220     		movs	r0, #2
 7931 1216 0121     		movs	r1, #1
 7932 1218 FFF7FEFF 		bl	SetPicture
 7933              	.LVL765:
1980:.\main.c      ****                         break;
 7934              		.loc 1 1980 0
 7935 121c 0022     		movs	r2, #0
 7936 121e 054B     		ldr	r3, .L527+4
 7937 1220 1A60     		str	r2, [r3]
 7938              	.L483:
1984:.\main.c      ****                 Display2_ClearRxBuffer();
 7939              		.loc 1 1984 0
 7940 1222 0A20     		movs	r0, #10
 7941 1224 FFF7FEFF 		bl	CyDelay
 7942              	.LVL766:
1985:.\main.c      ****             }                        
 7943              		.loc 1 1985 0
 7944 1228 FFF7FEFF 		bl	Display2_ClearRxBuffer
 7945              	.LVL767:
 7946 122c E1E0     		b	.L309
 7947              	.L528:
 7948 122e 00BF     		.align	2
 7949              	.L527:
 7950 1230 00000000 		.word	Display2_rxBuffer
 7951 1234 00000000 		.word	flowDisplay2
 7952 1238 00000000 		.word	printPortA
 7953 123c 00000000 		.word	printPortB
 7954              	.L330:
1990:.\main.c      ****                 WriteLCD(2,(((timeDownHandle[1]&0x10)>>4)+48),13,8,1,0x0000,'N');
 7955              		.loc 1 1990 0
 7956 1240 FFF7FEFF 		bl	leer_hora
 7957              	.LVL768:
 7958 1244 0128     		cmp	r0, #1
 7959 1246 3CD1     		bne	.L490
1991:.\main.c      ****                 WriteLCD(2,((timeDownHandle[1]&0x0F)+48),13,9,1,0x0000,'N');
 7960              		.loc 1 1991 0
 7961 1248 6B4F     		ldr	r7, .L529
 7962 124a 7978     		ldrb	r1, [r7, #1]	@ zero_extendqisi2
 7963 124c C1F30011 		ubfx	r1, r1, #4, #1
 7964 1250 3031     		adds	r1, r1, #48
 7965 1252 0126     		movs	r6, #1
 7966 1254 0096     		str	r6, [sp]
 7967 1256 0025     		movs	r5, #0
 7968 1258 0195     		str	r5, [sp, #4]
 7969 125a 4E24     		movs	r4, #78
 7970 125c 0294     		str	r4, [sp, #8]
 7971 125e 0220     		movs	r0, #2
 7972 1260 C9B2     		uxtb	r1, r1
 7973 1262 0D22     		movs	r2, #13
 7974 1264 0823     		movs	r3, #8
 7975 1266 FFF7FEFF 		bl	WriteLCD
 7976              	.LVL769:
1992:.\main.c      ****                 WriteLCD(2,':',13,10,1,0x0000,'N');
 7977              		.loc 1 1992 0
ARM GAS  C:\Users\RECEPC~1\AppData\Local\Temp\cc6Stwwd.s 			page 202


 7978 126a 7978     		ldrb	r1, [r7, #1]	@ zero_extendqisi2
 7979 126c 01F00F01 		and	r1, r1, #15
 7980 1270 0096     		str	r6, [sp]
 7981 1272 0195     		str	r5, [sp, #4]
 7982 1274 0294     		str	r4, [sp, #8]
 7983 1276 0220     		movs	r0, #2
 7984 1278 3031     		adds	r1, r1, #48
 7985 127a 0D22     		movs	r2, #13
 7986 127c 0923     		movs	r3, #9
 7987 127e FFF7FEFF 		bl	WriteLCD
 7988              	.LVL770:
1993:.\main.c      ****                 WriteLCD(2,(((timeDownHandle[0]&0xF0)>>4)+48),13,11,1,0x0000,'N');
 7989              		.loc 1 1993 0
 7990 1282 0096     		str	r6, [sp]
 7991 1284 0195     		str	r5, [sp, #4]
 7992 1286 0294     		str	r4, [sp, #8]
 7993 1288 0220     		movs	r0, #2
 7994 128a 3A21     		movs	r1, #58
 7995 128c 0D22     		movs	r2, #13
 7996 128e 0A23     		movs	r3, #10
 7997 1290 FFF7FEFF 		bl	WriteLCD
 7998              	.LVL771:
1994:.\main.c      ****                 WriteLCD(2,((timeDownHandle[0]&0x0F)+48),13,12,1,0x0000,'N');               
 7999              		.loc 1 1994 0
 8000 1294 3978     		ldrb	r1, [r7]	@ zero_extendqisi2
 8001 1296 0909     		lsrs	r1, r1, #4
 8002 1298 0096     		str	r6, [sp]
 8003 129a 0195     		str	r5, [sp, #4]
 8004 129c 0294     		str	r4, [sp, #8]
 8005 129e 0220     		movs	r0, #2
 8006 12a0 3031     		adds	r1, r1, #48
 8007 12a2 0D22     		movs	r2, #13
 8008 12a4 0B23     		movs	r3, #11
 8009 12a6 FFF7FEFF 		bl	WriteLCD
 8010              	.LVL772:
1995:.\main.c      ****             }
 8011              		.loc 1 1995 0
 8012 12aa 3978     		ldrb	r1, [r7]	@ zero_extendqisi2
 8013 12ac 01F00F01 		and	r1, r1, #15
 8014 12b0 0096     		str	r6, [sp]
 8015 12b2 0195     		str	r5, [sp, #4]
 8016 12b4 0294     		str	r4, [sp, #8]
 8017 12b6 0220     		movs	r0, #2
 8018 12b8 3031     		adds	r1, r1, #48
 8019 12ba 0D22     		movs	r2, #13
 8020 12bc 0C23     		movs	r3, #12
 8021 12be FFF7FEFF 		bl	WriteLCD
 8022              	.LVL773:
 8023              	.L490:
1997:.\main.c      ****                 WriteLCD(2,(((dateDownHandle[0]&0x30)>>4)+48),21,8,1,0x0000,'N');
 8024              		.loc 1 1997 0
 8025 12c2 FFF7FEFF 		bl	leer_fecha
 8026              	.LVL774:
 8027 12c6 0128     		cmp	r0, #1
 8028 12c8 5DD1     		bne	.L491
1998:.\main.c      ****                 WriteLCD(2,((dateDownHandle[0]&0x0F)+48),21,9,1,0x0000,'N');
 8029              		.loc 1 1998 0
ARM GAS  C:\Users\RECEPC~1\AppData\Local\Temp\cc6Stwwd.s 			page 203


 8030 12ca 4C4F     		ldr	r7, .L529+4
 8031 12cc 3978     		ldrb	r1, [r7]	@ zero_extendqisi2
 8032 12ce C1F30111 		ubfx	r1, r1, #4, #2
 8033 12d2 0126     		movs	r6, #1
 8034 12d4 0096     		str	r6, [sp]
 8035 12d6 0025     		movs	r5, #0
 8036 12d8 0195     		str	r5, [sp, #4]
 8037 12da 4E24     		movs	r4, #78
 8038 12dc 0294     		str	r4, [sp, #8]
 8039 12de 0220     		movs	r0, #2
 8040 12e0 3031     		adds	r1, r1, #48
 8041 12e2 1522     		movs	r2, #21
 8042 12e4 0823     		movs	r3, #8
 8043 12e6 FFF7FEFF 		bl	WriteLCD
 8044              	.LVL775:
1999:.\main.c      ****                 WriteLCD(2,'/',21,10,1,0x0000,'N');
 8045              		.loc 1 1999 0
 8046 12ea 3978     		ldrb	r1, [r7]	@ zero_extendqisi2
 8047 12ec 01F00F01 		and	r1, r1, #15
 8048 12f0 0096     		str	r6, [sp]
 8049 12f2 0195     		str	r5, [sp, #4]
 8050 12f4 0294     		str	r4, [sp, #8]
 8051 12f6 0220     		movs	r0, #2
 8052 12f8 3031     		adds	r1, r1, #48
 8053 12fa 1522     		movs	r2, #21
 8054 12fc 0923     		movs	r3, #9
 8055 12fe FFF7FEFF 		bl	WriteLCD
 8056              	.LVL776:
2000:.\main.c      ****                 WriteLCD(2,(((dateDownHandle[1]&0x10)>>4)+48),21,11,1,0x0000,'N');
 8057              		.loc 1 2000 0
 8058 1302 0096     		str	r6, [sp]
 8059 1304 0195     		str	r5, [sp, #4]
 8060 1306 0294     		str	r4, [sp, #8]
 8061 1308 0220     		movs	r0, #2
 8062 130a 2F21     		movs	r1, #47
 8063 130c 1522     		movs	r2, #21
 8064 130e 0A23     		movs	r3, #10
 8065 1310 FFF7FEFF 		bl	WriteLCD
 8066              	.LVL777:
2001:.\main.c      ****                 WriteLCD(2,((dateDownHandle[1]&0x0F)+48),21,12,1,0x0000,'N');
 8067              		.loc 1 2001 0
 8068 1314 7978     		ldrb	r1, [r7, #1]	@ zero_extendqisi2
 8069 1316 C1F30011 		ubfx	r1, r1, #4, #1
 8070 131a 3031     		adds	r1, r1, #48
 8071 131c 0096     		str	r6, [sp]
 8072 131e 0195     		str	r5, [sp, #4]
 8073 1320 0294     		str	r4, [sp, #8]
 8074 1322 0220     		movs	r0, #2
 8075 1324 C9B2     		uxtb	r1, r1
 8076 1326 1522     		movs	r2, #21
 8077 1328 0B23     		movs	r3, #11
 8078 132a FFF7FEFF 		bl	WriteLCD
 8079              	.LVL778:
2002:.\main.c      ****                 WriteLCD(2,'/',21,13,1,0x0000,'N');
 8080              		.loc 1 2002 0
 8081 132e 7978     		ldrb	r1, [r7, #1]	@ zero_extendqisi2
 8082 1330 01F00F01 		and	r1, r1, #15
ARM GAS  C:\Users\RECEPC~1\AppData\Local\Temp\cc6Stwwd.s 			page 204


 8083 1334 0096     		str	r6, [sp]
 8084 1336 0195     		str	r5, [sp, #4]
 8085 1338 0294     		str	r4, [sp, #8]
 8086 133a 0220     		movs	r0, #2
 8087 133c 3031     		adds	r1, r1, #48
 8088 133e 1522     		movs	r2, #21
 8089 1340 0C23     		movs	r3, #12
 8090 1342 FFF7FEFF 		bl	WriteLCD
 8091              	.LVL779:
2003:.\main.c      ****                 WriteLCD(2,(((dateDownHandle[2]&0xF0)>>4)+48),21,14,1,0x0000,'N');
 8092              		.loc 1 2003 0
 8093 1346 0096     		str	r6, [sp]
 8094 1348 0195     		str	r5, [sp, #4]
 8095 134a 0294     		str	r4, [sp, #8]
 8096 134c 0220     		movs	r0, #2
 8097 134e 2F21     		movs	r1, #47
 8098 1350 1522     		movs	r2, #21
 8099 1352 0D23     		movs	r3, #13
 8100 1354 FFF7FEFF 		bl	WriteLCD
 8101              	.LVL780:
2004:.\main.c      ****                 WriteLCD(2,((dateDownHandle[2]&0x0F)+48),21,15,1,0x0000,'N');
 8102              		.loc 1 2004 0
 8103 1358 B978     		ldrb	r1, [r7, #2]	@ zero_extendqisi2
 8104 135a 0909     		lsrs	r1, r1, #4
 8105 135c 0096     		str	r6, [sp]
 8106 135e 0195     		str	r5, [sp, #4]
 8107 1360 0294     		str	r4, [sp, #8]
 8108 1362 0220     		movs	r0, #2
 8109 1364 3031     		adds	r1, r1, #48
 8110 1366 1522     		movs	r2, #21
 8111 1368 0E23     		movs	r3, #14
 8112 136a FFF7FEFF 		bl	WriteLCD
 8113              	.LVL781:
2005:.\main.c      ****             }
 8114              		.loc 1 2005 0
 8115 136e B978     		ldrb	r1, [r7, #2]	@ zero_extendqisi2
 8116 1370 01F00F01 		and	r1, r1, #15
 8117 1374 0096     		str	r6, [sp]
 8118 1376 0195     		str	r5, [sp, #4]
 8119 1378 0294     		str	r4, [sp, #8]
 8120 137a 0220     		movs	r0, #2
 8121 137c 3031     		adds	r1, r1, #48
 8122 137e 1522     		movs	r2, #21
 8123 1380 0F23     		movs	r3, #15
 8124 1382 FFF7FEFF 		bl	WriteLCD
 8125              	.LVL782:
 8126              	.L491:
2007:.\main.c      ****                 if((Display2_rxBuffer[0]==0xAA) && (Display2_rxBuffer[6]==0xC3) && (Display2_rxBuff
 8127              		.loc 1 2007 0
 8128 1386 FFF7FEFF 		bl	Display2_GetRxBufferSize
 8129              	.LVL783:
 8130 138a 0828     		cmp	r0, #8
 8131 138c 31D1     		bne	.L309
2008:.\main.c      ****                     switch(Display2_rxBuffer[3]){                                                  
 8132              		.loc 1 2008 0
 8133 138e 1C4B     		ldr	r3, .L529+8
 8134 1390 1B78     		ldrb	r3, [r3]	@ zero_extendqisi2
ARM GAS  C:\Users\RECEPC~1\AppData\Local\Temp\cc6Stwwd.s 			page 205


 8135 1392 DBB2     		uxtb	r3, r3
 8136 1394 AA2B     		cmp	r3, #170
 8137 1396 20D1     		bne	.L492
2008:.\main.c      ****                     switch(Display2_rxBuffer[3]){                                                  
 8138              		.loc 1 2008 0 is_stmt 0 discriminator 1
 8139 1398 194B     		ldr	r3, .L529+8
 8140 139a 9B79     		ldrb	r3, [r3, #6]	@ zero_extendqisi2
 8141 139c DBB2     		uxtb	r3, r3
 8142 139e C32B     		cmp	r3, #195
 8143 13a0 1BD1     		bne	.L492
2008:.\main.c      ****                     switch(Display2_rxBuffer[3]){                                                  
 8144              		.loc 1 2008 0 discriminator 2
 8145 13a2 174B     		ldr	r3, .L529+8
 8146 13a4 DB79     		ldrb	r3, [r3, #7]	@ zero_extendqisi2
 8147 13a6 DBB2     		uxtb	r3, r3
 8148 13a8 3C2B     		cmp	r3, #60
 8149 13aa 16D1     		bne	.L492
2009:.\main.c      ****                         case 0x7E:  //Pantalla Inicial  
 8150              		.loc 1 2009 0 is_stmt 1
 8151 13ac 144B     		ldr	r3, .L529+8
 8152 13ae DB78     		ldrb	r3, [r3, #3]	@ zero_extendqisi2
 8153 13b0 DBB2     		uxtb	r3, r3
 8154 13b2 7E2B     		cmp	r3, #126
 8155 13b4 02D0     		beq	.L493
 8156 13b6 942B     		cmp	r3, #148
 8157 13b8 08D0     		beq	.L494
 8158 13ba 0EE0     		b	.L492
 8159              	.L493:
2011:.\main.c      ****                             SetPicture(2,DISPLAY_INICIO0);                            
 8160              		.loc 1 2011 0
 8161 13bc 0022     		movs	r2, #0
 8162 13be 114B     		ldr	r3, .L529+12
 8163 13c0 1A60     		str	r2, [r3]
2012:.\main.c      ****                         break;
 8164              		.loc 1 2012 0
 8165 13c2 0220     		movs	r0, #2
 8166 13c4 0121     		movs	r1, #1
 8167 13c6 FFF7FEFF 		bl	SetPicture
 8168              	.LVL784:
2013:.\main.c      ****                         case 0x94:  //Pantalla Inicial    
 8169              		.loc 1 2013 0
 8170 13ca 06E0     		b	.L492
 8171              	.L494:
2015:.\main.c      ****                             SetPicture(2,DISPLAY_INICIO0);                            
 8172              		.loc 1 2015 0
 8173 13cc 0022     		movs	r2, #0
 8174 13ce 0D4B     		ldr	r3, .L529+12
 8175 13d0 1A60     		str	r2, [r3]
2016:.\main.c      ****                         break;
 8176              		.loc 1 2016 0
 8177 13d2 0220     		movs	r0, #2
 8178 13d4 0121     		movs	r1, #1
 8179 13d6 FFF7FEFF 		bl	SetPicture
 8180              	.LVL785:
 8181              	.L492:
2020:.\main.c      ****                 Display2_ClearRxBuffer();
 8182              		.loc 1 2020 0
ARM GAS  C:\Users\RECEPC~1\AppData\Local\Temp\cc6Stwwd.s 			page 206


 8183 13da 0A20     		movs	r0, #10
 8184 13dc FFF7FEFF 		bl	CyDelay
 8185              	.LVL786:
2021:.\main.c      ****             }                        
 8186              		.loc 1 2021 0
 8187 13e0 FFF7FEFF 		bl	Display2_ClearRxBuffer
 8188              	.LVL787:
 8189 13e4 05E0     		b	.L309
 8190              	.L331:
2026:.\main.c      ****             ShiftState =1;
 8191              		.loc 1 2026 0
 8192 13e6 0123     		movs	r3, #1
 8193 13e8 074A     		ldr	r2, .L529+16
 8194 13ea 82F81932 		strb	r3, [r2, #537]
2027:.\main.c      ****         break;
 8195              		.loc 1 2027 0
 8196 13ee 074A     		ldr	r2, .L529+20
 8197 13f0 1370     		strb	r3, [r2]
 8198              	.L309:
2031:.\main.c      **** 
 8199              		.loc 1 2031 0
 8200 13f2 05B0     		add	sp, sp, #20
 8201              		.cfi_def_cfa_offset 20
 8202              		@ sp needed
 8203 13f4 F0BD     		pop	{r4, r5, r6, r7, pc}
 8204              	.L530:
 8205 13f6 00BF     		.align	2
 8206              	.L529:
 8207 13f8 00000000 		.word	timeDownHandle
 8208 13fc 00000000 		.word	dateDownHandle
 8209 1400 00000000 		.word	Display2_rxBuffer
 8210 1404 00000000 		.word	flowDisplay2
 8211 1408 00000000 		.word	side
 8212 140c 00000000 		.word	ShiftState
 8213              		.cfi_endproc
 8214              	.LFE72:
 8215              		.size	PollingDisplay2, .-PollingDisplay2
 8216              		.section	.text.main,"ax",%progbits
 8217              		.align	2
 8218              		.global	main
 8219              		.thumb
 8220              		.thumb_func
 8221              		.type	main, %function
 8222              	main:
 8223              	.LFB77:
2099:.\main.c      ****    // if(ActiveRF)
2100:.\main.c      ****         //
2101:.\main.c      **** }
2102:.\main.c      **** 
2103:.\main.c      **** 
2104:.\main.c      **** int main()
2105:.\main.c      **** {    
 8224              		.loc 1 2105 0
 8225              		.cfi_startproc
 8226              		@ Volatile: function does not return.
 8227              		@ args = 0, pretend = 0, frame = 0
 8228              		@ frame_needed = 0, uses_anonymous_args = 0
ARM GAS  C:\Users\RECEPC~1\AppData\Local\Temp\cc6Stwwd.s 			page 207


 8229 0000 08B5     		push	{r3, lr}
 8230              		.cfi_def_cfa_offset 8
 8231              		.cfi_offset 3, -8
 8232              		.cfi_offset 14, -4
2106:.\main.c      ****     CyGlobalIntEnable; /* Enable global interrupts. */
 8233              		.loc 1 2106 0
 8234              	@ 2106 ".\main.c" 1
 8235 0002 62B6     		CPSIE   i
 8236              	@ 0 "" 2
2107:.\main.c      ****     GlobalInitializer();
 8237              		.loc 1 2107 0
 8238              		.thumb
 8239 0004 FFF7FEFF 		bl	GlobalInitializer
 8240              	.LVL788:
2108:.\main.c      ****     /* Place your initialization/startup code here (e.g. MyInst_Start()) */       
2109:.\main.c      ****     InitPump(); 
 8241              		.loc 1 2109 0
 8242 0008 FFF7FEFF 		bl	InitPump
 8243              	.LVL789:
2110:.\main.c      ****     loadConfiguration();
 8244              		.loc 1 2110 0
 8245 000c FFF7FEFF 		bl	loadConfiguration
 8246              	.LVL790:
2111:.\main.c      ****     CyWdtStart(CYWDT_1024_TICKS,CYWDT_LPMODE_NOCHANGE);
 8247              		.loc 1 2111 0
 8248 0010 0320     		movs	r0, #3
 8249 0012 0021     		movs	r1, #0
 8250 0014 FFF7FEFF 		bl	CyWdtStart
 8251              	.LVL791:
 8252              	.L536:
2112:.\main.c      ****     for(;;)
2113:.\main.c      ****     {  
2114:.\main.c      ****         PollingDisplay1();
 8253              		.loc 1 2114 0
 8254 0018 FFF7FEFF 		bl	PollingDisplay1
 8255              	.LVL792:
2115:.\main.c      ****         CyWdtClear();
 8256              		.loc 1 2115 0
 8257 001c FFF7FEFF 		bl	CyWdtClear
 8258              	.LVL793:
2116:.\main.c      ****         PollingDisplay2();         
 8259              		.loc 1 2116 0
 8260 0020 FFF7FEFF 		bl	PollingDisplay2
 8261              	.LVL794:
2117:.\main.c      ****         CyWdtClear();        
 8262              		.loc 1 2117 0
 8263 0024 FFF7FEFF 		bl	CyWdtClear
 8264              	.LVL795:
2118:.\main.c      ****         pollingRF_Rx();
 8265              		.loc 1 2118 0
 8266 0028 FFF7FEFF 		bl	pollingRF_Rx
 8267              	.LVL796:
2119:.\main.c      ****         CyWdtClear();
 8268              		.loc 1 2119 0
 8269 002c FFF7FEFF 		bl	CyWdtClear
 8270              	.LVL797:
2120:.\main.c      ****         if(pollTotals ==1){
ARM GAS  C:\Users\RECEPC~1\AppData\Local\Temp\cc6Stwwd.s 			page 208


 8271              		.loc 1 2120 0
 8272 0030 154B     		ldr	r3, .L538
 8273 0032 1B78     		ldrb	r3, [r3]	@ zero_extendqisi2
 8274 0034 DBB2     		uxtb	r3, r3
 8275 0036 012B     		cmp	r3, #1
 8276 0038 0DD1     		bne	.L532
2121:.\main.c      ****             if(getTotals(side.a.dir)!=0){
 8277              		.loc 1 2121 0
 8278 003a 144B     		ldr	r3, .L538+4
 8279 003c 1878     		ldrb	r0, [r3]	@ zero_extendqisi2
 8280 003e FFF7FEFF 		bl	getTotals
 8281              	.LVL798:
 8282 0042 30B1     		cbz	r0, .L533
2122:.\main.c      ****                 side.a.RFstateReport = 1;
 8283              		.loc 1 2122 0
 8284 0044 114B     		ldr	r3, .L538+4
 8285 0046 0122     		movs	r2, #1
 8286 0048 83F80721 		strb	r2, [r3, #263]
2123:.\main.c      ****                 side.b.RFstateReport = 0;
 8287              		.loc 1 2123 0
 8288 004c 0022     		movs	r2, #0
 8289 004e 83F81922 		strb	r2, [r3, #537]
 8290              	.L533:
2124:.\main.c      ****             }
2125:.\main.c      ****         CyWdtClear();
 8291              		.loc 1 2125 0
 8292 0052 FFF7FEFF 		bl	CyWdtClear
 8293              	.LVL799:
 8294              	.L532:
2126:.\main.c      ****         }
2127:.\main.c      ****         if(pollTotals ==2){
 8295              		.loc 1 2127 0
 8296 0056 0C4B     		ldr	r3, .L538
 8297 0058 1B78     		ldrb	r3, [r3]	@ zero_extendqisi2
 8298 005a DBB2     		uxtb	r3, r3
 8299 005c 022B     		cmp	r3, #2
 8300 005e 0ED1     		bne	.L534
2128:.\main.c      ****             if(getTotals(side.b.dir)!=0){
 8301              		.loc 1 2128 0
 8302 0060 0A4B     		ldr	r3, .L538+4
 8303 0062 93F81201 		ldrb	r0, [r3, #274]	@ zero_extendqisi2
 8304 0066 FFF7FEFF 		bl	getTotals
 8305              	.LVL800:
 8306 006a 30B1     		cbz	r0, .L535
2129:.\main.c      ****                 side.b.RFstateReport = 1;
 8307              		.loc 1 2129 0
 8308 006c 074B     		ldr	r3, .L538+4
 8309 006e 0122     		movs	r2, #1
 8310 0070 83F81922 		strb	r2, [r3, #537]
2130:.\main.c      ****                 side.a.RFstateReport = 0;
 8311              		.loc 1 2130 0
 8312 0074 0022     		movs	r2, #0
 8313 0076 83F80721 		strb	r2, [r3, #263]
 8314              	.L535:
2131:.\main.c      ****             }
2132:.\main.c      ****         CyWdtClear();
 8315              		.loc 1 2132 0
ARM GAS  C:\Users\RECEPC~1\AppData\Local\Temp\cc6Stwwd.s 			page 209


 8316 007a FFF7FEFF 		bl	CyWdtClear
 8317              	.LVL801:
 8318              	.L534:
2133:.\main.c      ****         }
2134:.\main.c      ****         CyWdtClear();
 8319              		.loc 1 2134 0
 8320 007e FFF7FEFF 		bl	CyWdtClear
 8321              	.LVL802:
2135:.\main.c      ****         pollingRFA_Tx();                        
 8322              		.loc 1 2135 0
 8323 0082 FFF7FEFF 		bl	pollingRFA_Tx
 8324              	.LVL803:
2136:.\main.c      ****     }
 8325              		.loc 1 2136 0
 8326 0086 C7E7     		b	.L536
 8327              	.L539:
 8328              		.align	2
 8329              	.L538:
 8330 0088 00000000 		.word	pollTotals
 8331 008c 00000000 		.word	side
 8332              		.cfi_endproc
 8333              	.LFE77:
 8334              		.size	main, .-main
 8335              		.global	passwordPump
 8336              		.global	MuxVersion
 8337              		.comm	side,1096,4
 8338              		.comm	bufferDisplay4,332,4
 8339              		.comm	bufferDisplay3,332,4
 8340              		.comm	bufferDisplay2,332,4
 8341              		.comm	bufferDisplay1,332,4
 8342              		.comm	GradesHose,5,4
 8343              		.comm	CopiasCredito,1,1
 8344              		.comm	Encabezado4,30,4
 8345              		.comm	Encabezado3,30,4
 8346              		.comm	Encabezado2,30,4
 8347              		.comm	Encabezado1,30,4
 8348              		.comm	intIDStation,2,2
 8349              		.comm	buffer_txDisplay,60,4
 8350              		.comm	buffer_txEOT,60,4
 8351              		.comm	buffer_txPreset,60,4
 8352              		.comm	buffer_print,250,4
 8353              		.comm	buffer_A,255,4
 8354              		.comm	buffer_txTotals,512,4
 8355              		.comm	buffer_tx,512,4
 8356              		.comm	buffer_rf,512,4
 8357              		.comm	printPortB,1,1
 8358              		.comm	printPortA,1,1
 8359              		.comm	pumpGap,3,4
 8360              		.comm	idStation,5,4
 8361              		.comm	controlChar,1,1
 8362              		.comm	configAccess,5,4
 8363              		.comm	count_protector2,1,1
 8364              		.comm	count_protector,1,1
 8365              		.comm	timeDownHandle,2,4
 8366              		.comm	dateDownHandle,3,4
 8367              		.comm	VolUnit,6,4
 8368              		.comm	PrinterType,1,1
ARM GAS  C:\Users\RECEPC~1\AppData\Local\Temp\cc6Stwwd.s 			page 210


 8369              		.comm	hiddenKeys,1,1
 8370              		.comm	digits,1,1
 8371              		.comm	lockTurn,1,1
 8372              		.comm	NumPositions,1,1
 8373              		.comm	statePump,4,4
 8374              		.comm	DDMode,1,1
 8375              		.comm	PPUDec,1,1
 8376              		.comm	VolDec,1,1
 8377              		.comm	MoneyDec,1,1
 8378              		.comm	ConversionFactor,1,1
 8379              		.comm	UnitType,1,1
 8380              		.comm	bufferAready,1,1
 8381              		.comm	sizeSendB,1,1
 8382              		.comm	pollTotals,1,1
 8383              		.comm	ShiftState,1,1
 8384              		.comm	CGrade,1,1
 8385              		.comm	tempPPU,5,4
 8386              		.comm	tempPreset,8,4
 8387              		.comm	temporal,30,4
 8388              		.comm	counterRF,1,1
 8389              		.comm	ActiveRF,1,1
 8390              		.comm	IDCast,2,4
 8391              		.comm	PlateRequest,1,1
 8392              		.comm	PrevStatePump,4,4
 8393              		.comm	stateBeagleSoft,1,1
 8394              		.comm	flagResetMux,1,1
 8395              		.comm	passwordSeller,8,4
 8396              		.comm	typeIdSeller,1,1
 8397              		.comm	idSeller,25,4
 8398              		.comm	residue,14,4
 8399              		.comm	screen,2,4
 8400              		.comm	date,3,4
 8401              		.comm	time,3,4
 8402              		.comm	symbols,2,4
 8403              		.comm	ppux10,1,1
 8404              		.comm	delayPicture2,4,4
 8405              		.comm	delayPicture1,4,4
 8406              		.comm	productNumber,1,1
 8407              		.comm	flagPoint2,1,1
 8408              		.comm	flagPoint1,1,1
 8409              		.comm	numberKeys2,1,1
 8410              		.comm	numberKeys1,1,1
 8411              		.comm	flowDisplay4,4,4
 8412              		.comm	flowDisplay3,4,4
 8413              		.comm	flowDisplay2,4,4
 8414              		.comm	flowDisplay1,4,4
 8415              		.comm	countLCD,8,8
 8416              		.comm	countPump,8,8
 8417              		.comm	countTX,8,8
 8418              		.comm	countRX,8,8
 8419              		.comm	countAnimation2,8,8
 8420              		.comm	countAnimation1,8,8
 8421              		.section	.rodata
 8422              		.align	2
 8423              		.set	.LANCHOR1,. + 0
 8424              	.LC1:
 8425 0000 532F442F 		.ascii	"S/D/Dupla \000"
ARM GAS  C:\Users\RECEPC~1\AppData\Local\Temp\cc6Stwwd.s 			page 211


 8425      4475706C 
 8425      612000
 8426 000b 00       		.space	1
 8427              	.LC3:
 8428 000c 53657874 		.ascii	"Sextupla\000"
 8428      75706C61 
 8428      00
 8429 0015 00       		.space	1
 8430 0016 0000     		.space	2
 8431              	.LC4:
 8432 0018 4F637475 		.ascii	"Octupla\000"
 8432      706C6100 
 8433 0020 0000     		.space	2
 8434 0022 0000     		.space	2
 8435              	.LC5:
 8436 0024 352D352D 		.ascii	"5-5-4     \000"
 8436      34202020 
 8436      202000
 8437 002f 00       		.space	1
 8438              	.LC6:
 8439 0030 362D362D 		.ascii	"6-6-4     \000"
 8439      34202020 
 8439      202000
 8440 003b 00       		.space	1
 8441              	.LC7:
 8442 003c 372D372D 		.ascii	"7-7-5     \000"
 8442      35202020 
 8442      202000
 8443 0047 00       		.space	1
 8444              	.LC8:
 8445 0048 382D372D 		.ascii	"8-7-5     \000"
 8445      35202020 
 8445      202000
 8446 0053 00       		.space	1
 8447              	.LC9:
 8448 0054 54657374 		.ascii	"Test de Impresion Puerto 1\000"
 8448      20646520 
 8448      496D7072 
 8448      6573696F 
 8448      6E205075 
 8449 006f 00       		.space	1
 8450              	.LC10:
 8451 0070 54657374 		.ascii	"Test de Impresion Puerto 2\000"
 8451      20646520 
 8451      496D7072 
 8451      6573696F 
 8451      6E205075 
 8452 008b 00       		.data
 8453              		.align	2
 8454              		.set	.LANCHOR0,. + 0
 8455              		.type	passwordPump, %object
 8456              		.size	passwordPump, 5
 8457              	passwordPump:
 8458 0000 30303230 		.ascii	"00204"
 8458      34
 8459 0005 000000   		.space	3
 8460              		.type	MuxVersion, %object
ARM GAS  C:\Users\RECEPC~1\AppData\Local\Temp\cc6Stwwd.s 			page 212


 8461              		.size	MuxVersion, 10
 8462              	MuxVersion:
 8463 0008 4D555820 		.ascii	"MUX V. 1.0"
 8463      562E2031 
 8463      2E30
 8464 0012 0000     		.section	.rodata.str1.4,"aMS",%progbits,1
 8465              		.align	2
 8466              	.LC0:
 8467 0000 496E6963 		.ascii	"Iniciando\000"
 8467      69616E64 
 8467      6F00
 8468 000a 0000     		.space	2
 8469              	.LC2:
 8470 000c 51756164 		.ascii	"Quadrupla\000"
 8470      7275706C 
 8470      6100
 8471 0016 0000     		.text
 8472              	.Letext0:
 8473              		.file 2 "c:\\program files (x86)\\cypress\\psoc creator\\3.3\\psoc creator\\import\\gnu\\arm\\4.9.
 8474              		.file 3 "c:\\program files (x86)\\cypress\\psoc creator\\3.3\\psoc creator\\import\\gnu\\arm\\4.9.
 8475              		.file 4 "Generated_Source\\PSoC5/cytypes.h"
 8476              		.file 5 "./variables.h"
 8477              		.file 6 "Generated_Source\\PSoC5/Display1.h"
 8478              		.file 7 "Generated_Source\\PSoC5/Display2.h"
 8479              		.file 8 "Generated_Source\\PSoC5/core_cm3.h"
 8480              		.file 9 "Generated_Source\\PSoC5/Timer_Animacion.h"
 8481              		.file 10 "Generated_Source\\PSoC5/Timer_Animacion2.h"
 8482              		.file 11 "Generated_Source\\PSoC5/Waitable_3.h"
 8483              		.file 12 "Generated_Source\\PSoC5/Waitable_4.h"
 8484              		.file 13 "Generated_Source\\PSoC5/EEPROM_1.h"
 8485              		.file 14 "Generated_Source\\PSoC5/Pump.h"
 8486              		.file 15 "Generated_Source\\PSoC5/Printer.h"
 8487              		.file 16 "Generated_Source\\PSoC5/I2C_Bus.h"
 8488              		.file 17 "Generated_Source\\PSoC5/RF_Connection.h"
 8489              		.file 18 "Generated_Source\\PSoC5/isr_1.h"
 8490              		.file 19 "Generated_Source\\PSoC5/isr_2.h"
 8491              		.file 20 "Generated_Source\\PSoC5/isr_3.h"
 8492              		.file 21 "Generated_Source\\PSoC5/isr_4.h"
 8493              		.file 22 "./LCD.h"
 8494              		.file 23 "Generated_Source\\PSoC5/CyLib.h"
 8495              		.file 24 "./protocol.h"
 8496              		.file 25 "./I2C.h"
 8497              		.file 26 "./Print.h"
 8498              		.file 27 "./keyboard.h"
 8499              		.file 28 "./ibutton.h"
 8500              		.file 29 "c:\\program files (x86)\\cypress\\psoc creator\\3.3\\psoc creator\\import\\gnu\\arm\\4.9
 8501              		.file 30 "./RFPoll.h"
 8502              		.section	.debug_info,"",%progbits
 8503              	.Ldebug_info0:
 8504 0000 FB3D0000 		.4byte	0x3dfb
 8505 0004 0400     		.2byte	0x4
 8506 0006 00000000 		.4byte	.Ldebug_abbrev0
 8507 000a 04       		.byte	0x4
 8508 000b 01       		.uleb128 0x1
 8509 000c 94040000 		.4byte	.LASF335
 8510 0010 01       		.byte	0x1
 8511 0011 7D120000 		.4byte	.LASF336
ARM GAS  C:\Users\RECEPC~1\AppData\Local\Temp\cc6Stwwd.s 			page 213


 8512 0015 330F0000 		.4byte	.LASF337
 8513 0019 00000000 		.4byte	.Ldebug_ranges0+0
 8514 001d 00000000 		.4byte	0
 8515 0021 00000000 		.4byte	.Ldebug_line0
 8516 0025 02       		.uleb128 0x2
 8517 0026 01       		.byte	0x1
 8518 0027 06       		.byte	0x6
 8519 0028 EC030000 		.4byte	.LASF0
 8520 002c 03       		.uleb128 0x3
 8521 002d 4C020000 		.4byte	.LASF3
 8522 0031 02       		.byte	0x2
 8523 0032 1D       		.byte	0x1d
 8524 0033 37000000 		.4byte	0x37
 8525 0037 02       		.uleb128 0x2
 8526 0038 01       		.byte	0x1
 8527 0039 08       		.byte	0x8
 8528 003a 40050000 		.4byte	.LASF1
 8529 003e 02       		.uleb128 0x2
 8530 003f 02       		.byte	0x2
 8531 0040 05       		.byte	0x5
 8532 0041 85100000 		.4byte	.LASF2
 8533 0045 03       		.uleb128 0x3
 8534 0046 66060000 		.4byte	.LASF4
 8535 004a 02       		.byte	0x2
 8536 004b 2B       		.byte	0x2b
 8537 004c 50000000 		.4byte	0x50
 8538 0050 02       		.uleb128 0x2
 8539 0051 02       		.byte	0x2
 8540 0052 07       		.byte	0x7
 8541 0053 A7120000 		.4byte	.LASF5
 8542 0057 03       		.uleb128 0x3
 8543 0058 D3120000 		.4byte	.LASF6
 8544 005c 02       		.byte	0x2
 8545 005d 3F       		.byte	0x3f
 8546 005e 62000000 		.4byte	0x62
 8547 0062 02       		.uleb128 0x2
 8548 0063 04       		.byte	0x4
 8549 0064 05       		.byte	0x5
 8550 0065 DB020000 		.4byte	.LASF7
 8551 0069 02       		.uleb128 0x2
 8552 006a 04       		.byte	0x4
 8553 006b 07       		.byte	0x7
 8554 006c F4080000 		.4byte	.LASF8
 8555 0070 02       		.uleb128 0x2
 8556 0071 08       		.byte	0x8
 8557 0072 05       		.byte	0x5
 8558 0073 880A0000 		.4byte	.LASF9
 8559 0077 02       		.uleb128 0x2
 8560 0078 08       		.byte	0x8
 8561 0079 07       		.byte	0x7
 8562 007a 860E0000 		.4byte	.LASF10
 8563 007e 04       		.uleb128 0x4
 8564 007f 04       		.byte	0x4
 8565 0080 05       		.byte	0x5
 8566 0081 696E7400 		.ascii	"int\000"
 8567 0085 02       		.uleb128 0x2
 8568 0086 04       		.byte	0x4
ARM GAS  C:\Users\RECEPC~1\AppData\Local\Temp\cc6Stwwd.s 			page 214


 8569 0087 07       		.byte	0x7
 8570 0088 E80B0000 		.4byte	.LASF11
 8571 008c 03       		.uleb128 0x3
 8572 008d F8030000 		.4byte	.LASF12
 8573 0091 03       		.byte	0x3
 8574 0092 15       		.byte	0x15
 8575 0093 2C000000 		.4byte	0x2c
 8576 0097 03       		.uleb128 0x3
 8577 0098 B70E0000 		.4byte	.LASF13
 8578 009c 03       		.byte	0x3
 8579 009d 21       		.byte	0x21
 8580 009e 45000000 		.4byte	0x45
 8581 00a2 03       		.uleb128 0x3
 8582 00a3 B6000000 		.4byte	.LASF14
 8583 00a7 03       		.byte	0x3
 8584 00a8 2C       		.byte	0x2c
 8585 00a9 57000000 		.4byte	0x57
 8586 00ad 05       		.uleb128 0x5
 8587 00ae 67100000 		.4byte	.LASF15
 8588 00b2 04       		.byte	0x4
 8589 00b3 3801     		.2byte	0x138
 8590 00b5 37000000 		.4byte	0x37
 8591 00b9 05       		.uleb128 0x5
 8592 00ba 71130000 		.4byte	.LASF16
 8593 00be 04       		.byte	0x4
 8594 00bf 3901     		.2byte	0x139
 8595 00c1 50000000 		.4byte	0x50
 8596 00c5 05       		.uleb128 0x5
 8597 00c6 D1000000 		.4byte	.LASF17
 8598 00ca 04       		.byte	0x4
 8599 00cb 3A01     		.2byte	0x13a
 8600 00cd 69000000 		.4byte	0x69
 8601 00d1 02       		.uleb128 0x2
 8602 00d2 04       		.byte	0x4
 8603 00d3 04       		.byte	0x4
 8604 00d4 C60B0000 		.4byte	.LASF18
 8605 00d8 02       		.uleb128 0x2
 8606 00d9 08       		.byte	0x8
 8607 00da 04       		.byte	0x4
 8608 00db 180B0000 		.4byte	.LASF19
 8609 00df 05       		.uleb128 0x5
 8610 00e0 D4020000 		.4byte	.LASF20
 8611 00e4 04       		.byte	0x4
 8612 00e5 4401     		.2byte	0x144
 8613 00e7 77000000 		.4byte	0x77
 8614 00eb 05       		.uleb128 0x5
 8615 00ec 98010000 		.4byte	.LASF21
 8616 00f0 04       		.byte	0x4
 8617 00f1 4901     		.2byte	0x149
 8618 00f3 F7000000 		.4byte	0xf7
 8619 00f7 02       		.uleb128 0x2
 8620 00f8 01       		.byte	0x1
 8621 00f9 08       		.byte	0x8
 8622 00fa 12060000 		.4byte	.LASF22
 8623 00fe 05       		.uleb128 0x5
 8624 00ff 620C0000 		.4byte	.LASF23
 8625 0103 04       		.byte	0x4
ARM GAS  C:\Users\RECEPC~1\AppData\Local\Temp\cc6Stwwd.s 			page 215


 8626 0104 DA01     		.2byte	0x1da
 8627 0106 69000000 		.4byte	0x69
 8628 010a 06       		.uleb128 0x6
 8629 010b AD000000 		.4byte	0xad
 8630 010f 06       		.uleb128 0x6
 8631 0110 C5000000 		.4byte	0xc5
 8632 0114 05       		.uleb128 0x5
 8633 0115 1C0E0000 		.4byte	.LASF24
 8634 0119 04       		.byte	0x4
 8635 011a F401     		.2byte	0x1f4
 8636 011c 20010000 		.4byte	0x120
 8637 0120 07       		.uleb128 0x7
 8638 0121 04       		.byte	0x4
 8639 0122 26010000 		.4byte	0x126
 8640 0126 08       		.uleb128 0x8
 8641 0127 02       		.uleb128 0x2
 8642 0128 04       		.byte	0x4
 8643 0129 07       		.byte	0x7
 8644 012a 0A000000 		.4byte	.LASF25
 8645 012e 07       		.uleb128 0x7
 8646 012f 04       		.byte	0x4
 8647 0130 34010000 		.4byte	0x134
 8648 0134 09       		.uleb128 0x9
 8649 0135 F7000000 		.4byte	0xf7
 8650 0139 0A       		.uleb128 0xa
 8651 013a AD000000 		.4byte	0xad
 8652 013e 49010000 		.4byte	0x149
 8653 0142 0B       		.uleb128 0xb
 8654 0143 27010000 		.4byte	0x127
 8655 0147 03       		.byte	0x3
 8656 0148 00       		.byte	0
 8657 0149 0C       		.uleb128 0xc
 8658 014a 51080000 		.4byte	.LASF68
 8659 014e 4C01     		.2byte	0x14c
 8660 0150 05       		.byte	0x5
 8661 0151 81       		.byte	0x81
 8662 0152 5D030000 		.4byte	0x35d
 8663 0156 0D       		.uleb128 0xd
 8664 0157 CA000000 		.4byte	.LASF26
 8665 015b 05       		.byte	0x5
 8666 015c 82       		.byte	0x82
 8667 015d AD000000 		.4byte	0xad
 8668 0161 00       		.byte	0
 8669 0162 0D       		.uleb128 0xd
 8670 0163 AC020000 		.4byte	.LASF27
 8671 0167 05       		.byte	0x5
 8672 0168 83       		.byte	0x83
 8673 0169 5D030000 		.4byte	0x35d
 8674 016d 01       		.byte	0x1
 8675 016e 0D       		.uleb128 0xd
 8676 016f 3E120000 		.4byte	.LASF28
 8677 0173 05       		.byte	0x5
 8678 0174 84       		.byte	0x84
 8679 0175 AD000000 		.4byte	0xad
 8680 0179 1A       		.byte	0x1a
 8681 017a 0D       		.uleb128 0xd
 8682 017b 45060000 		.4byte	.LASF29
ARM GAS  C:\Users\RECEPC~1\AppData\Local\Temp\cc6Stwwd.s 			page 216


 8683 017f 05       		.byte	0x5
 8684 0180 85       		.byte	0x85
 8685 0181 AD000000 		.4byte	0xad
 8686 0185 1B       		.byte	0x1b
 8687 0186 0D       		.uleb128 0xd
 8688 0187 80090000 		.4byte	.LASF30
 8689 018b 05       		.byte	0x5
 8690 018c 86       		.byte	0x86
 8691 018d 6D030000 		.4byte	0x36d
 8692 0191 1C       		.byte	0x1c
 8693 0192 0D       		.uleb128 0xd
 8694 0193 A4000000 		.4byte	.LASF31
 8695 0197 05       		.byte	0x5
 8696 0198 87       		.byte	0x87
 8697 0199 6D030000 		.4byte	0x36d
 8698 019d 26       		.byte	0x26
 8699 019e 0D       		.uleb128 0xd
 8700 019f 98090000 		.4byte	.LASF32
 8701 01a3 05       		.byte	0x5
 8702 01a4 88       		.byte	0x88
 8703 01a5 5D030000 		.4byte	0x35d
 8704 01a9 30       		.byte	0x30
 8705 01aa 0D       		.uleb128 0xd
 8706 01ab A10C0000 		.4byte	.LASF33
 8707 01af 05       		.byte	0x5
 8708 01b0 89       		.byte	0x89
 8709 01b1 AD000000 		.4byte	0xad
 8710 01b5 49       		.byte	0x49
 8711 01b6 0D       		.uleb128 0xd
 8712 01b7 0A100000 		.4byte	.LASF34
 8713 01bb 05       		.byte	0x5
 8714 01bc 8A       		.byte	0x8a
 8715 01bd AD000000 		.4byte	0xad
 8716 01c1 4A       		.byte	0x4a
 8717 01c2 0D       		.uleb128 0xd
 8718 01c3 00000000 		.4byte	.LASF35
 8719 01c7 05       		.byte	0x5
 8720 01c8 8B       		.byte	0x8b
 8721 01c9 7D030000 		.4byte	0x37d
 8722 01cd 4B       		.byte	0x4b
 8723 01ce 0D       		.uleb128 0xd
 8724 01cf FB0D0000 		.4byte	.LASF36
 8725 01d3 05       		.byte	0x5
 8726 01d4 8C       		.byte	0x8c
 8727 01d5 AD000000 		.4byte	0xad
 8728 01d9 60       		.byte	0x60
 8729 01da 0D       		.uleb128 0xd
 8730 01db 5F040000 		.4byte	.LASF37
 8731 01df 05       		.byte	0x5
 8732 01e0 8D       		.byte	0x8d
 8733 01e1 AD000000 		.4byte	0xad
 8734 01e5 61       		.byte	0x61
 8735 01e6 0D       		.uleb128 0xd
 8736 01e7 480C0000 		.4byte	.LASF38
 8737 01eb 05       		.byte	0x5
 8738 01ec 8E       		.byte	0x8e
 8739 01ed AD000000 		.4byte	0xad
ARM GAS  C:\Users\RECEPC~1\AppData\Local\Temp\cc6Stwwd.s 			page 217


 8740 01f1 62       		.byte	0x62
 8741 01f2 0D       		.uleb128 0xd
 8742 01f3 37070000 		.4byte	.LASF39
 8743 01f7 05       		.byte	0x5
 8744 01f8 8F       		.byte	0x8f
 8745 01f9 8D030000 		.4byte	0x38d
 8746 01fd 63       		.byte	0x63
 8747 01fe 0D       		.uleb128 0xd
 8748 01ff 950C0000 		.4byte	.LASF40
 8749 0203 05       		.byte	0x5
 8750 0204 90       		.byte	0x90
 8751 0205 9D030000 		.4byte	0x39d
 8752 0209 65       		.byte	0x65
 8753 020a 0D       		.uleb128 0xd
 8754 020b 32120000 		.4byte	.LASF41
 8755 020f 05       		.byte	0x5
 8756 0210 91       		.byte	0x91
 8757 0211 AD000000 		.4byte	0xad
 8758 0215 79       		.byte	0x79
 8759 0216 0D       		.uleb128 0xd
 8760 0217 A2060000 		.4byte	.LASF42
 8761 021b 05       		.byte	0x5
 8762 021c 92       		.byte	0x92
 8763 021d B3030000 		.4byte	0x3b3
 8764 0221 7A       		.byte	0x7a
 8765 0222 0D       		.uleb128 0xd
 8766 0223 870D0000 		.4byte	.LASF43
 8767 0227 05       		.byte	0x5
 8768 0228 93       		.byte	0x93
 8769 0229 C3030000 		.4byte	0x3c3
 8770 022d 7F       		.byte	0x7f
 8771 022e 0D       		.uleb128 0xd
 8772 022f 780D0000 		.4byte	.LASF44
 8773 0233 05       		.byte	0x5
 8774 0234 94       		.byte	0x94
 8775 0235 C3030000 		.4byte	0x3c3
 8776 0239 85       		.byte	0x85
 8777 023a 0D       		.uleb128 0xd
 8778 023b 2E030000 		.4byte	.LASF45
 8779 023f 05       		.byte	0x5
 8780 0240 95       		.byte	0x95
 8781 0241 D3030000 		.4byte	0x3d3
 8782 0245 8B       		.byte	0x8b
 8783 0246 0D       		.uleb128 0xd
 8784 0247 85070000 		.4byte	.LASF46
 8785 024b 05       		.byte	0x5
 8786 024c 96       		.byte	0x96
 8787 024d D3030000 		.4byte	0x3d3
 8788 0251 99       		.byte	0x99
 8789 0252 0D       		.uleb128 0xd
 8790 0253 F3110000 		.4byte	.LASF47
 8791 0257 05       		.byte	0x5
 8792 0258 97       		.byte	0x97
 8793 0259 D3030000 		.4byte	0x3d3
 8794 025d A7       		.byte	0xa7
 8795 025e 0D       		.uleb128 0xd
 8796 025f C40C0000 		.4byte	.LASF48
ARM GAS  C:\Users\RECEPC~1\AppData\Local\Temp\cc6Stwwd.s 			page 218


 8797 0263 05       		.byte	0x5
 8798 0264 98       		.byte	0x98
 8799 0265 D3030000 		.4byte	0x3d3
 8800 0269 B5       		.byte	0xb5
 8801 026a 0D       		.uleb128 0xd
 8802 026b C00E0000 		.4byte	.LASF49
 8803 026f 05       		.byte	0x5
 8804 0270 99       		.byte	0x99
 8805 0271 D3030000 		.4byte	0x3d3
 8806 0275 C3       		.byte	0xc3
 8807 0276 0D       		.uleb128 0xd
 8808 0277 72090000 		.4byte	.LASF50
 8809 027b 05       		.byte	0x5
 8810 027c 9A       		.byte	0x9a
 8811 027d D3030000 		.4byte	0x3d3
 8812 0281 D1       		.byte	0xd1
 8813 0282 0D       		.uleb128 0xd
 8814 0283 AC010000 		.4byte	.LASF51
 8815 0287 05       		.byte	0x5
 8816 0288 9B       		.byte	0x9b
 8817 0289 E3030000 		.4byte	0x3e3
 8818 028d DF       		.byte	0xdf
 8819 028e 0D       		.uleb128 0xd
 8820 028f BA110000 		.4byte	.LASF52
 8821 0293 05       		.byte	0x5
 8822 0294 9C       		.byte	0x9c
 8823 0295 E3030000 		.4byte	0x3e3
 8824 0299 EA       		.byte	0xea
 8825 029a 0D       		.uleb128 0xd
 8826 029b 0B110000 		.4byte	.LASF53
 8827 029f 05       		.byte	0x5
 8828 02a0 9D       		.byte	0x9d
 8829 02a1 E3030000 		.4byte	0x3e3
 8830 02a5 F5       		.byte	0xf5
 8831 02a6 0E       		.uleb128 0xe
 8832 02a7 FF120000 		.4byte	.LASF54
 8833 02ab 05       		.byte	0x5
 8834 02ac 9E       		.byte	0x9e
 8835 02ad AD000000 		.4byte	0xad
 8836 02b1 0001     		.2byte	0x100
 8837 02b3 0E       		.uleb128 0xe
 8838 02b4 24010000 		.4byte	.LASF55
 8839 02b8 05       		.byte	0x5
 8840 02b9 9F       		.byte	0x9f
 8841 02ba AD000000 		.4byte	0xad
 8842 02be 0101     		.2byte	0x101
 8843 02c0 0E       		.uleb128 0xe
 8844 02c1 98020000 		.4byte	.LASF56
 8845 02c5 05       		.byte	0x5
 8846 02c6 A0       		.byte	0xa0
 8847 02c7 AD000000 		.4byte	0xad
 8848 02cb 0201     		.2byte	0x102
 8849 02cd 0E       		.uleb128 0xe
 8850 02ce 0C010000 		.4byte	.LASF57
 8851 02d2 05       		.byte	0x5
 8852 02d3 A1       		.byte	0xa1
 8853 02d4 AD000000 		.4byte	0xad
ARM GAS  C:\Users\RECEPC~1\AppData\Local\Temp\cc6Stwwd.s 			page 219


 8854 02d8 0301     		.2byte	0x103
 8855 02da 0E       		.uleb128 0xe
 8856 02db 8D090000 		.4byte	.LASF58
 8857 02df 05       		.byte	0x5
 8858 02e0 A2       		.byte	0xa2
 8859 02e1 6D030000 		.4byte	0x36d
 8860 02e5 0401     		.2byte	0x104
 8861 02e7 0E       		.uleb128 0xe
 8862 02e8 8C020000 		.4byte	.LASF59
 8863 02ec 05       		.byte	0x5
 8864 02ed A3       		.byte	0xa3
 8865 02ee 6D030000 		.4byte	0x36d
 8866 02f2 0E01     		.2byte	0x10e
 8867 02f4 0E       		.uleb128 0xe
 8868 02f5 AB090000 		.4byte	.LASF60
 8869 02f9 05       		.byte	0x5
 8870 02fa A4       		.byte	0xa4
 8871 02fb 6D030000 		.4byte	0x36d
 8872 02ff 1801     		.2byte	0x118
 8873 0301 0E       		.uleb128 0xe
 8874 0302 2F130000 		.4byte	.LASF61
 8875 0306 05       		.byte	0x5
 8876 0307 A5       		.byte	0xa5
 8877 0308 F3030000 		.4byte	0x3f3
 8878 030c 2201     		.2byte	0x122
 8879 030e 0E       		.uleb128 0xe
 8880 030f 2D020000 		.4byte	.LASF62
 8881 0313 05       		.byte	0x5
 8882 0314 A6       		.byte	0xa6
 8883 0315 8D030000 		.4byte	0x38d
 8884 0319 3101     		.2byte	0x131
 8885 031b 0E       		.uleb128 0xe
 8886 031c 60070000 		.4byte	.LASF63
 8887 0320 05       		.byte	0x5
 8888 0321 A7       		.byte	0xa7
 8889 0322 AD000000 		.4byte	0xad
 8890 0326 3301     		.2byte	0x133
 8891 0328 0E       		.uleb128 0xe
 8892 0329 130F0000 		.4byte	.LASF64
 8893 032d 05       		.byte	0x5
 8894 032e A8       		.byte	0xa8
 8895 032f AD000000 		.4byte	0xad
 8896 0333 3401     		.2byte	0x134
 8897 0335 0E       		.uleb128 0xe
 8898 0336 F7010000 		.4byte	.LASF65
 8899 033a 05       		.byte	0x5
 8900 033b A9       		.byte	0xa9
 8901 033c AD000000 		.4byte	0xad
 8902 0340 3501     		.2byte	0x135
 8903 0342 0E       		.uleb128 0xe
 8904 0343 E00B0000 		.4byte	.LASF66
 8905 0347 05       		.byte	0x5
 8906 0348 AA       		.byte	0xaa
 8907 0349 E3030000 		.4byte	0x3e3
 8908 034d 3601     		.2byte	0x136
 8909 034f 0E       		.uleb128 0xe
 8910 0350 B9050000 		.4byte	.LASF67
ARM GAS  C:\Users\RECEPC~1\AppData\Local\Temp\cc6Stwwd.s 			page 220


 8911 0354 05       		.byte	0x5
 8912 0355 AB       		.byte	0xab
 8913 0356 E3030000 		.4byte	0x3e3
 8914 035a 4101     		.2byte	0x141
 8915 035c 00       		.byte	0
 8916 035d 0A       		.uleb128 0xa
 8917 035e AD000000 		.4byte	0xad
 8918 0362 6D030000 		.4byte	0x36d
 8919 0366 0B       		.uleb128 0xb
 8920 0367 27010000 		.4byte	0x127
 8921 036b 18       		.byte	0x18
 8922 036c 00       		.byte	0
 8923 036d 0A       		.uleb128 0xa
 8924 036e AD000000 		.4byte	0xad
 8925 0372 7D030000 		.4byte	0x37d
 8926 0376 0B       		.uleb128 0xb
 8927 0377 27010000 		.4byte	0x127
 8928 037b 09       		.byte	0x9
 8929 037c 00       		.byte	0
 8930 037d 0A       		.uleb128 0xa
 8931 037e AD000000 		.4byte	0xad
 8932 0382 8D030000 		.4byte	0x38d
 8933 0386 0B       		.uleb128 0xb
 8934 0387 27010000 		.4byte	0x127
 8935 038b 14       		.byte	0x14
 8936 038c 00       		.byte	0
 8937 038d 0A       		.uleb128 0xa
 8938 038e AD000000 		.4byte	0xad
 8939 0392 9D030000 		.4byte	0x39d
 8940 0396 0B       		.uleb128 0xb
 8941 0397 27010000 		.4byte	0x127
 8942 039b 01       		.byte	0x1
 8943 039c 00       		.byte	0
 8944 039d 0A       		.uleb128 0xa
 8945 039e AD000000 		.4byte	0xad
 8946 03a2 B3030000 		.4byte	0x3b3
 8947 03a6 0B       		.uleb128 0xb
 8948 03a7 27010000 		.4byte	0x127
 8949 03ab 01       		.byte	0x1
 8950 03ac 0B       		.uleb128 0xb
 8951 03ad 27010000 		.4byte	0x127
 8952 03b1 09       		.byte	0x9
 8953 03b2 00       		.byte	0
 8954 03b3 0A       		.uleb128 0xa
 8955 03b4 AD000000 		.4byte	0xad
 8956 03b8 C3030000 		.4byte	0x3c3
 8957 03bc 0B       		.uleb128 0xb
 8958 03bd 27010000 		.4byte	0x127
 8959 03c1 04       		.byte	0x4
 8960 03c2 00       		.byte	0
 8961 03c3 0A       		.uleb128 0xa
 8962 03c4 AD000000 		.4byte	0xad
 8963 03c8 D3030000 		.4byte	0x3d3
 8964 03cc 0B       		.uleb128 0xb
 8965 03cd 27010000 		.4byte	0x127
 8966 03d1 05       		.byte	0x5
 8967 03d2 00       		.byte	0
ARM GAS  C:\Users\RECEPC~1\AppData\Local\Temp\cc6Stwwd.s 			page 221


 8968 03d3 0A       		.uleb128 0xa
 8969 03d4 AD000000 		.4byte	0xad
 8970 03d8 E3030000 		.4byte	0x3e3
 8971 03dc 0B       		.uleb128 0xb
 8972 03dd 27010000 		.4byte	0x127
 8973 03e1 0D       		.byte	0xd
 8974 03e2 00       		.byte	0
 8975 03e3 0A       		.uleb128 0xa
 8976 03e4 AD000000 		.4byte	0xad
 8977 03e8 F3030000 		.4byte	0x3f3
 8978 03ec 0B       		.uleb128 0xb
 8979 03ed 27010000 		.4byte	0x127
 8980 03f1 0A       		.byte	0xa
 8981 03f2 00       		.byte	0
 8982 03f3 0A       		.uleb128 0xa
 8983 03f4 AD000000 		.4byte	0xad
 8984 03f8 03040000 		.4byte	0x403
 8985 03fc 0B       		.uleb128 0xb
 8986 03fd 27010000 		.4byte	0x127
 8987 0401 0E       		.byte	0xe
 8988 0402 00       		.byte	0
 8989 0403 0C       		.uleb128 0xc
 8990 0404 2A0C0000 		.4byte	.LASF69
 8991 0408 1201     		.2byte	0x112
 8992 040a 05       		.byte	0x5
 8993 040b BC       		.byte	0xbc
 8994 040c DA040000 		.4byte	0x4da
 8995 0410 0F       		.uleb128 0xf
 8996 0411 64697200 		.ascii	"dir\000"
 8997 0415 05       		.byte	0x5
 8998 0416 BD       		.byte	0xbd
 8999 0417 AD000000 		.4byte	0xad
 9000 041b 00       		.byte	0
 9001 041c 0D       		.uleb128 0xd
 9002 041d C7050000 		.4byte	.LASF70
 9003 0421 05       		.byte	0x5
 9004 0422 BE       		.byte	0xbe
 9005 0423 DA040000 		.4byte	0x4da
 9006 0427 01       		.byte	0x1
 9007 0428 0D       		.uleb128 0xd
 9008 0429 F1070000 		.4byte	.LASF71
 9009 042d 05       		.byte	0x5
 9010 042e BF       		.byte	0xbf
 9011 042f F6040000 		.4byte	0x4f6
 9012 0433 B5       		.byte	0xb5
 9013 0434 0D       		.uleb128 0xd
 9014 0435 19120000 		.4byte	.LASF72
 9015 0439 05       		.byte	0x5
 9016 043a C0       		.byte	0xc0
 9017 043b D3030000 		.4byte	0x3d3
 9018 043f D5       		.byte	0xd5
 9019 0440 0D       		.uleb128 0xd
 9020 0441 CC0B0000 		.4byte	.LASF73
 9021 0445 05       		.byte	0x5
 9022 0446 C1       		.byte	0xc1
 9023 0447 D3030000 		.4byte	0x3d3
 9024 044b E3       		.byte	0xe3
ARM GAS  C:\Users\RECEPC~1\AppData\Local\Temp\cc6Stwwd.s 			page 222


 9025 044c 0D       		.uleb128 0xd
 9026 044d 31110000 		.4byte	.LASF74
 9027 0451 05       		.byte	0x5
 9028 0452 C2       		.byte	0xc2
 9029 0453 D3030000 		.4byte	0x3d3
 9030 0457 F1       		.byte	0xf1
 9031 0458 0D       		.uleb128 0xd
 9032 0459 66090000 		.4byte	.LASF75
 9033 045d 05       		.byte	0x5
 9034 045e C3       		.byte	0xc3
 9035 045f AD000000 		.4byte	0xad
 9036 0463 FF       		.byte	0xff
 9037 0464 0E       		.uleb128 0xe
 9038 0465 E2100000 		.4byte	.LASF76
 9039 0469 05       		.byte	0x5
 9040 046a C4       		.byte	0xc4
 9041 046b AD000000 		.4byte	0xad
 9042 046f 0001     		.2byte	0x100
 9043 0471 0E       		.uleb128 0xe
 9044 0472 40100000 		.4byte	.LASF77
 9045 0476 05       		.byte	0x5
 9046 0477 C5       		.byte	0xc5
 9047 0478 AD000000 		.4byte	0xad
 9048 047c 0101     		.2byte	0x101
 9049 047e 0E       		.uleb128 0xe
 9050 047f 4F0E0000 		.4byte	.LASF78
 9051 0483 05       		.byte	0x5
 9052 0484 C6       		.byte	0xc6
 9053 0485 AD000000 		.4byte	0xad
 9054 0489 0201     		.2byte	0x102
 9055 048b 0E       		.uleb128 0xe
 9056 048c 31000000 		.4byte	.LASF79
 9057 0490 05       		.byte	0x5
 9058 0491 C7       		.byte	0xc7
 9059 0492 AD000000 		.4byte	0xad
 9060 0496 0301     		.2byte	0x103
 9061 0498 0E       		.uleb128 0xe
 9062 0499 36050000 		.4byte	.LASF80
 9063 049d 05       		.byte	0x5
 9064 049e C8       		.byte	0xc8
 9065 049f AD000000 		.4byte	0xad
 9066 04a3 0401     		.2byte	0x104
 9067 04a5 0E       		.uleb128 0xe
 9068 04a6 52130000 		.4byte	.LASF81
 9069 04aa 05       		.byte	0x5
 9070 04ab C9       		.byte	0xc9
 9071 04ac AD000000 		.4byte	0xad
 9072 04b0 0501     		.2byte	0x105
 9073 04b2 0E       		.uleb128 0xe
 9074 04b3 72010000 		.4byte	.LASF82
 9075 04b7 05       		.byte	0x5
 9076 04b8 CA       		.byte	0xca
 9077 04b9 AD000000 		.4byte	0xad
 9078 04bd 0601     		.2byte	0x106
 9079 04bf 0E       		.uleb128 0xe
 9080 04c0 E3070000 		.4byte	.LASF83
 9081 04c4 05       		.byte	0x5
ARM GAS  C:\Users\RECEPC~1\AppData\Local\Temp\cc6Stwwd.s 			page 223


 9082 04c5 CB       		.byte	0xcb
 9083 04c6 AD000000 		.4byte	0xad
 9084 04ca 0701     		.2byte	0x107
 9085 04cc 0E       		.uleb128 0xe
 9086 04cd FE0A0000 		.4byte	.LASF84
 9087 04d1 05       		.byte	0x5
 9088 04d2 CC       		.byte	0xcc
 9089 04d3 6D030000 		.4byte	0x36d
 9090 04d7 0801     		.2byte	0x108
 9091 04d9 00       		.byte	0
 9092 04da 0A       		.uleb128 0xa
 9093 04db AD000000 		.4byte	0xad
 9094 04df F6040000 		.4byte	0x4f6
 9095 04e3 0B       		.uleb128 0xb
 9096 04e4 27010000 		.4byte	0x127
 9097 04e8 03       		.byte	0x3
 9098 04e9 0B       		.uleb128 0xb
 9099 04ea 27010000 		.4byte	0x127
 9100 04ee 02       		.byte	0x2
 9101 04ef 0B       		.uleb128 0xb
 9102 04f0 27010000 		.4byte	0x127
 9103 04f4 0E       		.byte	0xe
 9104 04f5 00       		.byte	0
 9105 04f6 0A       		.uleb128 0xa
 9106 04f7 AD000000 		.4byte	0xad
 9107 04fb 0C050000 		.4byte	0x50c
 9108 04ff 0B       		.uleb128 0xb
 9109 0500 27010000 		.4byte	0x127
 9110 0504 03       		.byte	0x3
 9111 0505 0B       		.uleb128 0xb
 9112 0506 27010000 		.4byte	0x127
 9113 050a 07       		.byte	0x7
 9114 050b 00       		.byte	0
 9115 050c 0C       		.uleb128 0xc
 9116 050d 53110000 		.4byte	.LASF85
 9117 0511 4804     		.2byte	0x448
 9118 0513 05       		.byte	0x5
 9119 0514 CF       		.byte	0xcf
 9120 0515 45050000 		.4byte	0x545
 9121 0519 0F       		.uleb128 0xf
 9122 051a 6100     		.ascii	"a\000"
 9123 051c 05       		.byte	0x5
 9124 051d D0       		.byte	0xd0
 9125 051e 03040000 		.4byte	0x403
 9126 0522 00       		.byte	0
 9127 0523 10       		.uleb128 0x10
 9128 0524 6200     		.ascii	"b\000"
 9129 0526 05       		.byte	0x5
 9130 0527 D1       		.byte	0xd1
 9131 0528 03040000 		.4byte	0x403
 9132 052c 1201     		.2byte	0x112
 9133 052e 10       		.uleb128 0x10
 9134 052f 6300     		.ascii	"c\000"
 9135 0531 05       		.byte	0x5
 9136 0532 D2       		.byte	0xd2
 9137 0533 03040000 		.4byte	0x403
 9138 0537 2402     		.2byte	0x224
ARM GAS  C:\Users\RECEPC~1\AppData\Local\Temp\cc6Stwwd.s 			page 224


 9139 0539 10       		.uleb128 0x10
 9140 053a 6400     		.ascii	"d\000"
 9141 053c 05       		.byte	0x5
 9142 053d D3       		.byte	0xd3
 9143 053e 03040000 		.4byte	0x403
 9144 0542 3603     		.2byte	0x336
 9145 0544 00       		.byte	0
 9146 0545 11       		.uleb128 0x11
 9147 0546 09030000 		.4byte	.LASF143
 9148 054a 01       		.byte	0x1
 9149 054b 05       		.byte	0x5
 9150 054c E9       		.byte	0xe9
 9151 054d BE060000 		.4byte	0x6be
 9152 0551 12       		.uleb128 0x12
 9153 0552 8B030000 		.4byte	.LASF86
 9154 0556 00       		.sleb128 0
 9155 0557 12       		.uleb128 0x12
 9156 0558 0C0E0000 		.4byte	.LASF87
 9157 055c 01       		.sleb128 1
 9158 055d 12       		.uleb128 0x12
 9159 055e 58080000 		.4byte	.LASF88
 9160 0562 02       		.sleb128 2
 9161 0563 12       		.uleb128 0x12
 9162 0564 68080000 		.4byte	.LASF89
 9163 0568 03       		.sleb128 3
 9164 0569 12       		.uleb128 0x12
 9165 056a 6B0E0000 		.4byte	.LASF90
 9166 056e 04       		.sleb128 4
 9167 056f 12       		.uleb128 0x12
 9168 0570 B5070000 		.4byte	.LASF91
 9169 0574 05       		.sleb128 5
 9170 0575 12       		.uleb128 0x12
 9171 0576 4E050000 		.4byte	.LASF92
 9172 057a 06       		.sleb128 6
 9173 057b 12       		.uleb128 0x12
 9174 057c 72020000 		.4byte	.LASF93
 9175 0580 0F       		.sleb128 15
 9176 0581 12       		.uleb128 0x12
 9177 0582 3F0B0000 		.4byte	.LASF94
 9178 0586 FE00     		.sleb128 126
 9179 0588 12       		.uleb128 0x12
 9180 0589 5C0B0000 		.4byte	.LASF95
 9181 058d 8601     		.sleb128 134
 9182 058f 12       		.uleb128 0x12
 9183 0590 86000000 		.4byte	.LASF96
 9184 0594 07       		.sleb128 7
 9185 0595 12       		.uleb128 0x12
 9186 0596 AE0F0000 		.4byte	.LASF97
 9187 059a 08       		.sleb128 8
 9188 059b 12       		.uleb128 0x12
 9189 059c 42070000 		.4byte	.LASF98
 9190 05a0 09       		.sleb128 9
 9191 05a1 12       		.uleb128 0x12
 9192 05a2 330C0000 		.4byte	.LASF99
 9193 05a6 0A       		.sleb128 10
 9194 05a7 12       		.uleb128 0x12
 9195 05a8 B40A0000 		.4byte	.LASF100
ARM GAS  C:\Users\RECEPC~1\AppData\Local\Temp\cc6Stwwd.s 			page 225


 9196 05ac 0B       		.sleb128 11
 9197 05ad 12       		.uleb128 0x12
 9198 05ae AB060000 		.4byte	.LASF101
 9199 05b2 25       		.sleb128 37
 9200 05b3 12       		.uleb128 0x12
 9201 05b4 1F0B0000 		.4byte	.LASF102
 9202 05b8 26       		.sleb128 38
 9203 05b9 12       		.uleb128 0x12
 9204 05ba 790B0000 		.4byte	.LASF103
 9205 05be 27       		.sleb128 39
 9206 05bf 12       		.uleb128 0x12
 9207 05c0 0E0A0000 		.4byte	.LASF104
 9208 05c4 2F       		.sleb128 47
 9209 05c5 12       		.uleb128 0x12
 9210 05c6 13040000 		.4byte	.LASF105
 9211 05ca 2C       		.sleb128 44
 9212 05cb 12       		.uleb128 0x12
 9213 05cc D20A0000 		.4byte	.LASF106
 9214 05d0 0C       		.sleb128 12
 9215 05d1 12       		.uleb128 0x12
 9216 05d2 00040000 		.4byte	.LASF107
 9217 05d6 8501     		.sleb128 133
 9218 05d8 12       		.uleb128 0x12
 9219 05d9 F50B0000 		.4byte	.LASF108
 9220 05dd 1C       		.sleb128 28
 9221 05de 12       		.uleb128 0x12
 9222 05df 3A0E0000 		.4byte	.LASF109
 9223 05e3 12       		.sleb128 18
 9224 05e4 12       		.uleb128 0x12
 9225 05e5 250A0000 		.4byte	.LASF110
 9226 05e9 13       		.sleb128 19
 9227 05ea 12       		.uleb128 0x12
 9228 05eb 39110000 		.4byte	.LASF111
 9229 05ef 24       		.sleb128 36
 9230 05f0 12       		.uleb128 0x12
 9231 05f1 EF0F0000 		.4byte	.LASF112
 9232 05f5 0D       		.sleb128 13
 9233 05f6 12       		.uleb128 0x12
 9234 05f7 65030000 		.4byte	.LASF113
 9235 05fb 0E       		.sleb128 14
 9236 05fc 12       		.uleb128 0x12
 9237 05fd DD0D0000 		.4byte	.LASF114
 9238 0601 8301     		.sleb128 131
 9239 0603 12       		.uleb128 0x12
 9240 0604 80010000 		.4byte	.LASF115
 9241 0608 DA00     		.sleb128 90
 9242 060a 12       		.uleb128 0x12
 9243 060b D8000000 		.4byte	.LASF116
 9244 060f 31       		.sleb128 49
 9245 0610 12       		.uleb128 0x12
 9246 0611 42090000 		.4byte	.LASF117
 9247 0615 35       		.sleb128 53
 9248 0616 12       		.uleb128 0x12
 9249 0617 99070000 		.4byte	.LASF118
 9250 061b 2E       		.sleb128 46
 9251 061c 12       		.uleb128 0x12
 9252 061d C10D0000 		.4byte	.LASF119
ARM GAS  C:\Users\RECEPC~1\AppData\Local\Temp\cc6Stwwd.s 			page 226


 9253 0621 8C01     		.sleb128 140
 9254 0623 12       		.uleb128 0x12
 9255 0624 71050000 		.4byte	.LASF120
 9256 0628 9601     		.sleb128 150
 9257 062a 12       		.uleb128 0x12
 9258 062b AD030000 		.4byte	.LASF121
 9259 062f 39       		.sleb128 57
 9260 0630 12       		.uleb128 0x12
 9261 0631 960A0000 		.4byte	.LASF122
 9262 0635 9701     		.sleb128 151
 9263 0637 12       		.uleb128 0x12
 9264 0638 95130000 		.4byte	.LASF123
 9265 063c 9801     		.sleb128 152
 9266 063e 12       		.uleb128 0x12
 9267 063f 370D0000 		.4byte	.LASF124
 9268 0643 3E       		.sleb128 62
 9269 0644 12       		.uleb128 0x12
 9270 0645 C20F0000 		.4byte	.LASF125
 9271 0649 3F       		.sleb128 63
 9272 064a 12       		.uleb128 0x12
 9273 064b D4030000 		.4byte	.LASF126
 9274 064f C000     		.sleb128 64
 9275 0651 12       		.uleb128 0x12
 9276 0652 04120000 		.4byte	.LASF127
 9277 0656 8D01     		.sleb128 141
 9278 0658 12       		.uleb128 0x12
 9279 0659 3B010000 		.4byte	.LASF128
 9280 065d 23       		.sleb128 35
 9281 065e 12       		.uleb128 0x12
 9282 065f 7F040000 		.4byte	.LASF129
 9283 0663 2A       		.sleb128 42
 9284 0664 12       		.uleb128 0x12
 9285 0665 45100000 		.4byte	.LASF130
 9286 0669 2B       		.sleb128 43
 9287 066a 12       		.uleb128 0x12
 9288 066b 68040000 		.4byte	.LASF131
 9289 066f 3C       		.sleb128 60
 9290 0670 12       		.uleb128 0x12
 9291 0671 9C080000 		.4byte	.LASF132
 9292 0675 C100     		.sleb128 65
 9293 0677 12       		.uleb128 0x12
 9294 0678 17060000 		.4byte	.LASF133
 9295 067c EB00     		.sleb128 107
 9296 067e 12       		.uleb128 0x12
 9297 067f 480A0000 		.4byte	.LASF134
 9298 0683 E700     		.sleb128 103
 9299 0685 12       		.uleb128 0x12
 9300 0686 B5020000 		.4byte	.LASF135
 9301 068a E400     		.sleb128 100
 9302 068c 12       		.uleb128 0x12
 9303 068d 8F100000 		.4byte	.LASF136
 9304 0691 E500     		.sleb128 101
 9305 0693 12       		.uleb128 0x12
 9306 0694 06090000 		.4byte	.LASF137
 9307 0698 9901     		.sleb128 153
 9308 069a 12       		.uleb128 0x12
 9309 069b 15090000 		.4byte	.LASF138
ARM GAS  C:\Users\RECEPC~1\AppData\Local\Temp\cc6Stwwd.s 			page 227


 9310 069f 9A01     		.sleb128 154
 9311 06a1 12       		.uleb128 0x12
 9312 06a2 24090000 		.4byte	.LASF139
 9313 06a6 9B01     		.sleb128 155
 9314 06a8 12       		.uleb128 0x12
 9315 06a9 33090000 		.4byte	.LASF140
 9316 06ad 9C01     		.sleb128 156
 9317 06af 12       		.uleb128 0x12
 9318 06b0 0E0D0000 		.4byte	.LASF141
 9319 06b4 FA01     		.sleb128 250
 9320 06b6 12       		.uleb128 0x12
 9321 06b7 C0100000 		.4byte	.LASF142
 9322 06bb FF01     		.sleb128 255
 9323 06bd 00       		.byte	0
 9324 06be 13       		.uleb128 0x13
 9325 06bf C5120000 		.4byte	.LASF144
 9326 06c3 01       		.byte	0x1
 9327 06c4 05       		.byte	0x5
 9328 06c5 3401     		.2byte	0x134
 9329 06c7 FC060000 		.4byte	0x6fc
 9330 06cb 12       		.uleb128 0x12
 9331 06cc A10D0000 		.4byte	.LASF145
 9332 06d0 00       		.sleb128 0
 9333 06d1 12       		.uleb128 0x12
 9334 06d2 A3110000 		.4byte	.LASF146
 9335 06d6 06       		.sleb128 6
 9336 06d7 12       		.uleb128 0x12
 9337 06d8 B90B0000 		.4byte	.LASF147
 9338 06dc 07       		.sleb128 7
 9339 06dd 12       		.uleb128 0x12
 9340 06de DD120000 		.4byte	.LASF148
 9341 06e2 08       		.sleb128 8
 9342 06e3 12       		.uleb128 0x12
 9343 06e4 550D0000 		.4byte	.LASF149
 9344 06e8 09       		.sleb128 9
 9345 06e9 12       		.uleb128 0x12
 9346 06ea F10E0000 		.4byte	.LASF150
 9347 06ee 0A       		.sleb128 10
 9348 06ef 12       		.uleb128 0x12
 9349 06f0 F10D0000 		.4byte	.LASF151
 9350 06f4 0B       		.sleb128 11
 9351 06f5 12       		.uleb128 0x12
 9352 06f6 3C130000 		.4byte	.LASF152
 9353 06fa 0C       		.sleb128 12
 9354 06fb 00       		.byte	0
 9355 06fc 13       		.uleb128 0x13
 9356 06fd 18010000 		.4byte	.LASF153
 9357 0701 01       		.byte	0x1
 9358 0702 05       		.byte	0x5
 9359 0703 4001     		.2byte	0x140
 9360 0705 40070000 		.4byte	0x740
 9361 0709 12       		.uleb128 0x12
 9362 070a 78010000 		.4byte	.LASF154
 9363 070e 08       		.sleb128 8
 9364 070f 12       		.uleb128 0x12
 9365 0710 F00A0000 		.4byte	.LASF155
 9366 0714 01       		.sleb128 1
ARM GAS  C:\Users\RECEPC~1\AppData\Local\Temp\cc6Stwwd.s 			page 228


 9367 0715 12       		.uleb128 0x12
 9368 0716 FC0C0000 		.4byte	.LASF156
 9369 071a 02       		.sleb128 2
 9370 071b 12       		.uleb128 0x12
 9371 071c B20C0000 		.4byte	.LASF157
 9372 0720 03       		.sleb128 3
 9373 0721 12       		.uleb128 0x12
 9374 0722 A9050000 		.4byte	.LASF158
 9375 0726 05       		.sleb128 5
 9376 0727 12       		.uleb128 0x12
 9377 0728 62000000 		.4byte	.LASF159
 9378 072c 06       		.sleb128 6
 9379 072d 12       		.uleb128 0x12
 9380 072e D40C0000 		.4byte	.LASF160
 9381 0732 04       		.sleb128 4
 9382 0733 12       		.uleb128 0x12
 9383 0734 DF0F0000 		.4byte	.LASF161
 9384 0738 0B       		.sleb128 11
 9385 0739 12       		.uleb128 0x12
 9386 073a 36020000 		.4byte	.LASF162
 9387 073e 0C       		.sleb128 12
 9388 073f 00       		.byte	0
 9389 0740 14       		.uleb128 0x14
 9390 0741 B4090000 		.4byte	.LASF163
 9391 0745 01       		.byte	0x1
 9392 0746 FB07     		.2byte	0x7fb
 9393 0748 00000000 		.4byte	.LFB73
 9394 074c 14000000 		.4byte	.LFE73-.LFB73
 9395 0750 01       		.uleb128 0x1
 9396 0751 9C       		.byte	0x9c
 9397 0752 60070000 		.4byte	0x760
 9398 0756 15       		.uleb128 0x15
 9399 0757 06000000 		.4byte	.LVL0
 9400 075b 783A0000 		.4byte	0x3a78
 9401 075f 00       		.byte	0
 9402 0760 14       		.uleb128 0x14
 9403 0761 01010000 		.4byte	.LASF164
 9404 0765 01       		.byte	0x1
 9405 0766 0908     		.2byte	0x809
 9406 0768 00000000 		.4byte	.LFB74
 9407 076c 14000000 		.4byte	.LFE74-.LFB74
 9408 0770 01       		.uleb128 0x1
 9409 0771 9C       		.byte	0x9c
 9410 0772 80070000 		.4byte	0x780
 9411 0776 15       		.uleb128 0x15
 9412 0777 06000000 		.4byte	.LVL1
 9413 077b 833A0000 		.4byte	0x3a83
 9414 077f 00       		.byte	0
 9415 0780 14       		.uleb128 0x14
 9416 0781 79110000 		.4byte	.LASF165
 9417 0785 01       		.byte	0x1
 9418 0786 1D08     		.2byte	0x81d
 9419 0788 00000000 		.4byte	.LFB75
 9420 078c 1C000000 		.4byte	.LFE75-.LFB75
 9421 0790 01       		.uleb128 0x1
 9422 0791 9C       		.byte	0x9c
 9423 0792 A0070000 		.4byte	0x7a0
ARM GAS  C:\Users\RECEPC~1\AppData\Local\Temp\cc6Stwwd.s 			page 229


 9424 0796 15       		.uleb128 0x15
 9425 0797 06000000 		.4byte	.LVL2
 9426 079b 8E3A0000 		.4byte	0x3a8e
 9427 079f 00       		.byte	0
 9428 07a0 14       		.uleb128 0x14
 9429 07a1 CF0F0000 		.4byte	.LASF166
 9430 07a5 01       		.byte	0x1
 9431 07a6 3108     		.2byte	0x831
 9432 07a8 00000000 		.4byte	.LFB76
 9433 07ac 08000000 		.4byte	.LFE76-.LFB76
 9434 07b0 01       		.uleb128 0x1
 9435 07b1 9C       		.byte	0x9c
 9436 07b2 C0070000 		.4byte	0x7c0
 9437 07b6 15       		.uleb128 0x15
 9438 07b7 06000000 		.4byte	.LVL3
 9439 07bb 993A0000 		.4byte	0x3a99
 9440 07bf 00       		.byte	0
 9441 07c0 16       		.uleb128 0x16
 9442 07c1 87060000 		.4byte	.LASF167
 9443 07c5 01       		.byte	0x1
 9444 07c6 26       		.byte	0x26
 9445 07c7 00000000 		.4byte	.LFB63
 9446 07cb 50000000 		.4byte	.LFE63-.LFB63
 9447 07cf 01       		.uleb128 0x1
 9448 07d0 9C       		.byte	0x9c
 9449 07d1 83080000 		.4byte	0x883
 9450 07d5 15       		.uleb128 0x15
 9451 07d6 06000000 		.4byte	.LVL4
 9452 07da A43A0000 		.4byte	0x3aa4
 9453 07de 15       		.uleb128 0x15
 9454 07df 0A000000 		.4byte	.LVL5
 9455 07e3 AB3A0000 		.4byte	0x3aab
 9456 07e7 15       		.uleb128 0x15
 9457 07e8 0E000000 		.4byte	.LVL6
 9458 07ec B23A0000 		.4byte	0x3ab2
 9459 07f0 15       		.uleb128 0x15
 9460 07f1 12000000 		.4byte	.LVL7
 9461 07f5 B93A0000 		.4byte	0x3ab9
 9462 07f9 15       		.uleb128 0x15
 9463 07fa 16000000 		.4byte	.LVL8
 9464 07fe C03A0000 		.4byte	0x3ac0
 9465 0802 15       		.uleb128 0x15
 9466 0803 1A000000 		.4byte	.LVL9
 9467 0807 C73A0000 		.4byte	0x3ac7
 9468 080b 15       		.uleb128 0x15
 9469 080c 1E000000 		.4byte	.LVL10
 9470 0810 CE3A0000 		.4byte	0x3ace
 9471 0814 17       		.uleb128 0x17
 9472 0815 24000000 		.4byte	.LVL11
 9473 0819 D53A0000 		.4byte	0x3ad5
 9474 081d 2B080000 		.4byte	0x82b
 9475 0821 18       		.uleb128 0x18
 9476 0822 01       		.uleb128 0x1
 9477 0823 50       		.byte	0x50
 9478 0824 05       		.uleb128 0x5
 9479 0825 03       		.byte	0x3
 9480 0826 00000000 		.4byte	timerRFRX
ARM GAS  C:\Users\RECEPC~1\AppData\Local\Temp\cc6Stwwd.s 			page 230


 9481 082a 00       		.byte	0
 9482 082b 17       		.uleb128 0x17
 9483 082c 2A000000 		.4byte	.LVL12
 9484 0830 E63A0000 		.4byte	0x3ae6
 9485 0834 42080000 		.4byte	0x842
 9486 0838 18       		.uleb128 0x18
 9487 0839 01       		.uleb128 0x1
 9488 083a 50       		.byte	0x50
 9489 083b 05       		.uleb128 0x5
 9490 083c 03       		.byte	0x3
 9491 083d 00000000 		.4byte	timerLCD
 9492 0841 00       		.byte	0
 9493 0842 17       		.uleb128 0x17
 9494 0843 30000000 		.4byte	.LVL13
 9495 0847 F73A0000 		.4byte	0x3af7
 9496 084b 59080000 		.4byte	0x859
 9497 084f 18       		.uleb128 0x18
 9498 0850 01       		.uleb128 0x1
 9499 0851 50       		.byte	0x50
 9500 0852 05       		.uleb128 0x5
 9501 0853 03       		.byte	0x3
 9502 0854 00000000 		.4byte	animacion
 9503 0858 00       		.byte	0
 9504 0859 17       		.uleb128 0x17
 9505 085a 36000000 		.4byte	.LVL14
 9506 085e 083B0000 		.4byte	0x3b08
 9507 0862 70080000 		.4byte	0x870
 9508 0866 18       		.uleb128 0x18
 9509 0867 01       		.uleb128 0x1
 9510 0868 50       		.byte	0x50
 9511 0869 05       		.uleb128 0x5
 9512 086a 03       		.byte	0x3
 9513 086b 00000000 		.4byte	animacion2
 9514 086f 00       		.byte	0
 9515 0870 15       		.uleb128 0x15
 9516 0871 3A000000 		.4byte	.LVL15
 9517 0875 193B0000 		.4byte	0x3b19
 9518 0879 15       		.uleb128 0x15
 9519 087a 3E000000 		.4byte	.LVL16
 9520 087e 203B0000 		.4byte	0x3b20
 9521 0882 00       		.byte	0
 9522 0883 16       		.uleb128 0x16
 9523 0884 D0070000 		.4byte	.LASF168
 9524 0888 01       		.byte	0x1
 9525 0889 37       		.byte	0x37
 9526 088a 00000000 		.4byte	.LFB64
 9527 088e 94000000 		.4byte	.LFE64-.LFB64
 9528 0892 01       		.uleb128 0x1
 9529 0893 9C       		.byte	0x9c
 9530 0894 66090000 		.4byte	0x966
 9531 0898 17       		.uleb128 0x17
 9532 0899 0C000000 		.4byte	.LVL17
 9533 089d 273B0000 		.4byte	0x3b27
 9534 08a1 AB080000 		.4byte	0x8ab
 9535 08a5 18       		.uleb128 0x18
 9536 08a6 01       		.uleb128 0x1
 9537 08a7 51       		.byte	0x51
ARM GAS  C:\Users\RECEPC~1\AppData\Local\Temp\cc6Stwwd.s 			page 231


 9538 08a8 01       		.uleb128 0x1
 9539 08a9 30       		.byte	0x30
 9540 08aa 00       		.byte	0
 9541 08ab 17       		.uleb128 0x17
 9542 08ac 16000000 		.4byte	.LVL18
 9543 08b0 273B0000 		.4byte	0x3b27
 9544 08b4 BE080000 		.4byte	0x8be
 9545 08b8 18       		.uleb128 0x18
 9546 08b9 01       		.uleb128 0x1
 9547 08ba 51       		.byte	0x51
 9548 08bb 01       		.uleb128 0x1
 9549 08bc 31       		.byte	0x31
 9550 08bd 00       		.byte	0
 9551 08be 17       		.uleb128 0x17
 9552 08bf 20000000 		.4byte	.LVL19
 9553 08c3 273B0000 		.4byte	0x3b27
 9554 08c7 D1080000 		.4byte	0x8d1
 9555 08cb 18       		.uleb128 0x18
 9556 08cc 01       		.uleb128 0x1
 9557 08cd 51       		.byte	0x51
 9558 08ce 01       		.uleb128 0x1
 9559 08cf 32       		.byte	0x32
 9560 08d0 00       		.byte	0
 9561 08d1 17       		.uleb128 0x17
 9562 08d2 2A000000 		.4byte	.LVL20
 9563 08d6 273B0000 		.4byte	0x3b27
 9564 08da E4080000 		.4byte	0x8e4
 9565 08de 18       		.uleb128 0x18
 9566 08df 01       		.uleb128 0x1
 9567 08e0 51       		.byte	0x51
 9568 08e1 01       		.uleb128 0x1
 9569 08e2 33       		.byte	0x33
 9570 08e3 00       		.byte	0
 9571 08e4 17       		.uleb128 0x17
 9572 08e5 34000000 		.4byte	.LVL21
 9573 08e9 273B0000 		.4byte	0x3b27
 9574 08ed F7080000 		.4byte	0x8f7
 9575 08f1 18       		.uleb128 0x18
 9576 08f2 01       		.uleb128 0x1
 9577 08f3 51       		.byte	0x51
 9578 08f4 01       		.uleb128 0x1
 9579 08f5 34       		.byte	0x34
 9580 08f6 00       		.byte	0
 9581 08f7 17       		.uleb128 0x17
 9582 08f8 3E000000 		.4byte	.LVL22
 9583 08fc 273B0000 		.4byte	0x3b27
 9584 0900 0A090000 		.4byte	0x90a
 9585 0904 18       		.uleb128 0x18
 9586 0905 01       		.uleb128 0x1
 9587 0906 51       		.byte	0x51
 9588 0907 01       		.uleb128 0x1
 9589 0908 35       		.byte	0x35
 9590 0909 00       		.byte	0
 9591 090a 17       		.uleb128 0x17
 9592 090b 48000000 		.4byte	.LVL23
 9593 090f 273B0000 		.4byte	0x3b27
 9594 0913 1D090000 		.4byte	0x91d
ARM GAS  C:\Users\RECEPC~1\AppData\Local\Temp\cc6Stwwd.s 			page 232


 9595 0917 18       		.uleb128 0x18
 9596 0918 01       		.uleb128 0x1
 9597 0919 51       		.byte	0x51
 9598 091a 01       		.uleb128 0x1
 9599 091b 36       		.byte	0x36
 9600 091c 00       		.byte	0
 9601 091d 17       		.uleb128 0x17
 9602 091e 52000000 		.4byte	.LVL24
 9603 0922 273B0000 		.4byte	0x3b27
 9604 0926 30090000 		.4byte	0x930
 9605 092a 18       		.uleb128 0x18
 9606 092b 01       		.uleb128 0x1
 9607 092c 51       		.byte	0x51
 9608 092d 01       		.uleb128 0x1
 9609 092e 3C       		.byte	0x3c
 9610 092f 00       		.byte	0
 9611 0930 17       		.uleb128 0x17
 9612 0931 5C000000 		.4byte	.LVL25
 9613 0935 273B0000 		.4byte	0x3b27
 9614 0939 43090000 		.4byte	0x943
 9615 093d 18       		.uleb128 0x18
 9616 093e 01       		.uleb128 0x1
 9617 093f 51       		.byte	0x51
 9618 0940 01       		.uleb128 0x1
 9619 0941 3D       		.byte	0x3d
 9620 0942 00       		.byte	0
 9621 0943 17       		.uleb128 0x17
 9622 0944 66000000 		.4byte	.LVL26
 9623 0948 273B0000 		.4byte	0x3b27
 9624 094c 56090000 		.4byte	0x956
 9625 0950 18       		.uleb128 0x18
 9626 0951 01       		.uleb128 0x1
 9627 0952 51       		.byte	0x51
 9628 0953 01       		.uleb128 0x1
 9629 0954 3E       		.byte	0x3e
 9630 0955 00       		.byte	0
 9631 0956 19       		.uleb128 0x19
 9632 0957 70000000 		.4byte	.LVL27
 9633 095b 273B0000 		.4byte	0x3b27
 9634 095f 18       		.uleb128 0x18
 9635 0960 01       		.uleb128 0x1
 9636 0961 51       		.byte	0x51
 9637 0962 01       		.uleb128 0x1
 9638 0963 3F       		.byte	0x3f
 9639 0964 00       		.byte	0
 9640 0965 00       		.byte	0
 9641 0966 16       		.uleb128 0x16
 9642 0967 F7020000 		.4byte	.LASF169
 9643 096b 01       		.byte	0x1
 9644 096c 44       		.byte	0x44
 9645 096d 00000000 		.4byte	.LFB65
 9646 0971 C8000000 		.4byte	.LFE65-.LFB65
 9647 0975 01       		.uleb128 0x1
 9648 0976 9C       		.byte	0x9c
 9649 0977 820A0000 		.4byte	0xa82
 9650 097b 17       		.uleb128 0x17
 9651 097c 08000000 		.4byte	.LVL28
ARM GAS  C:\Users\RECEPC~1\AppData\Local\Temp\cc6Stwwd.s 			page 233


 9652 0980 413B0000 		.4byte	0x3b41
 9653 0984 8E090000 		.4byte	0x98e
 9654 0988 18       		.uleb128 0x18
 9655 0989 01       		.uleb128 0x1
 9656 098a 50       		.byte	0x50
 9657 098b 01       		.uleb128 0x1
 9658 098c 32       		.byte	0x32
 9659 098d 00       		.byte	0
 9660 098e 17       		.uleb128 0x17
 9661 098f 12000000 		.4byte	.LVL29
 9662 0993 413B0000 		.4byte	0x3b41
 9663 0997 A1090000 		.4byte	0x9a1
 9664 099b 18       		.uleb128 0x18
 9665 099c 01       		.uleb128 0x1
 9666 099d 50       		.byte	0x50
 9667 099e 01       		.uleb128 0x1
 9668 099f 33       		.byte	0x33
 9669 09a0 00       		.byte	0
 9670 09a1 17       		.uleb128 0x17
 9671 09a2 1C000000 		.4byte	.LVL30
 9672 09a6 413B0000 		.4byte	0x3b41
 9673 09aa B4090000 		.4byte	0x9b4
 9674 09ae 18       		.uleb128 0x18
 9675 09af 01       		.uleb128 0x1
 9676 09b0 50       		.byte	0x50
 9677 09b1 01       		.uleb128 0x1
 9678 09b2 34       		.byte	0x34
 9679 09b3 00       		.byte	0
 9680 09b4 17       		.uleb128 0x17
 9681 09b5 26000000 		.4byte	.LVL31
 9682 09b9 413B0000 		.4byte	0x3b41
 9683 09bd C7090000 		.4byte	0x9c7
 9684 09c1 18       		.uleb128 0x18
 9685 09c2 01       		.uleb128 0x1
 9686 09c3 50       		.byte	0x50
 9687 09c4 01       		.uleb128 0x1
 9688 09c5 35       		.byte	0x35
 9689 09c6 00       		.byte	0
 9690 09c7 17       		.uleb128 0x17
 9691 09c8 30000000 		.4byte	.LVL32
 9692 09cc 413B0000 		.4byte	0x3b41
 9693 09d0 DA090000 		.4byte	0x9da
 9694 09d4 18       		.uleb128 0x18
 9695 09d5 01       		.uleb128 0x1
 9696 09d6 50       		.byte	0x50
 9697 09d7 01       		.uleb128 0x1
 9698 09d8 36       		.byte	0x36
 9699 09d9 00       		.byte	0
 9700 09da 17       		.uleb128 0x17
 9701 09db 3A000000 		.4byte	.LVL33
 9702 09df 413B0000 		.4byte	0x3b41
 9703 09e3 ED090000 		.4byte	0x9ed
 9704 09e7 18       		.uleb128 0x18
 9705 09e8 01       		.uleb128 0x1
 9706 09e9 50       		.byte	0x50
 9707 09ea 01       		.uleb128 0x1
 9708 09eb 37       		.byte	0x37
ARM GAS  C:\Users\RECEPC~1\AppData\Local\Temp\cc6Stwwd.s 			page 234


 9709 09ec 00       		.byte	0
 9710 09ed 17       		.uleb128 0x17
 9711 09ee 44000000 		.4byte	.LVL34
 9712 09f2 413B0000 		.4byte	0x3b41
 9713 09f6 000A0000 		.4byte	0xa00
 9714 09fa 18       		.uleb128 0x18
 9715 09fb 01       		.uleb128 0x1
 9716 09fc 50       		.byte	0x50
 9717 09fd 01       		.uleb128 0x1
 9718 09fe 38       		.byte	0x38
 9719 09ff 00       		.byte	0
 9720 0a00 17       		.uleb128 0x17
 9721 0a01 4E000000 		.4byte	.LVL35
 9722 0a05 413B0000 		.4byte	0x3b41
 9723 0a09 130A0000 		.4byte	0xa13
 9724 0a0d 18       		.uleb128 0x18
 9725 0a0e 01       		.uleb128 0x1
 9726 0a0f 50       		.byte	0x50
 9727 0a10 01       		.uleb128 0x1
 9728 0a11 39       		.byte	0x39
 9729 0a12 00       		.byte	0
 9730 0a13 17       		.uleb128 0x17
 9731 0a14 58000000 		.4byte	.LVL36
 9732 0a18 413B0000 		.4byte	0x3b41
 9733 0a1c 260A0000 		.4byte	0xa26
 9734 0a20 18       		.uleb128 0x18
 9735 0a21 01       		.uleb128 0x1
 9736 0a22 50       		.byte	0x50
 9737 0a23 01       		.uleb128 0x1
 9738 0a24 3A       		.byte	0x3a
 9739 0a25 00       		.byte	0
 9740 0a26 17       		.uleb128 0x17
 9741 0a27 62000000 		.4byte	.LVL37
 9742 0a2b 413B0000 		.4byte	0x3b41
 9743 0a2f 390A0000 		.4byte	0xa39
 9744 0a33 18       		.uleb128 0x18
 9745 0a34 01       		.uleb128 0x1
 9746 0a35 50       		.byte	0x50
 9747 0a36 01       		.uleb128 0x1
 9748 0a37 3B       		.byte	0x3b
 9749 0a38 00       		.byte	0
 9750 0a39 17       		.uleb128 0x17
 9751 0a3a 74000000 		.4byte	.LVL38
 9752 0a3e 413B0000 		.4byte	0x3b41
 9753 0a42 4C0A0000 		.4byte	0xa4c
 9754 0a46 18       		.uleb128 0x18
 9755 0a47 01       		.uleb128 0x1
 9756 0a48 50       		.byte	0x50
 9757 0a49 01       		.uleb128 0x1
 9758 0a4a 3C       		.byte	0x3c
 9759 0a4b 00       		.byte	0
 9760 0a4c 17       		.uleb128 0x17
 9761 0a4d 7E000000 		.4byte	.LVL39
 9762 0a51 413B0000 		.4byte	0x3b41
 9763 0a55 5F0A0000 		.4byte	0xa5f
 9764 0a59 18       		.uleb128 0x18
 9765 0a5a 01       		.uleb128 0x1
ARM GAS  C:\Users\RECEPC~1\AppData\Local\Temp\cc6Stwwd.s 			page 235


 9766 0a5b 50       		.byte	0x50
 9767 0a5c 01       		.uleb128 0x1
 9768 0a5d 3D       		.byte	0x3d
 9769 0a5e 00       		.byte	0
 9770 0a5f 17       		.uleb128 0x17
 9771 0a60 88000000 		.4byte	.LVL40
 9772 0a64 413B0000 		.4byte	0x3b41
 9773 0a68 720A0000 		.4byte	0xa72
 9774 0a6c 18       		.uleb128 0x18
 9775 0a6d 01       		.uleb128 0x1
 9776 0a6e 50       		.byte	0x50
 9777 0a6f 01       		.uleb128 0x1
 9778 0a70 3E       		.byte	0x3e
 9779 0a71 00       		.byte	0
 9780 0a72 19       		.uleb128 0x19
 9781 0a73 92000000 		.4byte	.LVL41
 9782 0a77 413B0000 		.4byte	0x3b41
 9783 0a7b 18       		.uleb128 0x18
 9784 0a7c 01       		.uleb128 0x1
 9785 0a7d 50       		.byte	0x50
 9786 0a7e 01       		.uleb128 0x1
 9787 0a7f 3F       		.byte	0x3f
 9788 0a80 00       		.byte	0
 9789 0a81 00       		.byte	0
 9790 0a82 16       		.uleb128 0x16
 9791 0a83 78080000 		.4byte	.LASF170
 9792 0a87 01       		.byte	0x1
 9793 0a88 6E       		.byte	0x6e
 9794 0a89 00000000 		.4byte	.LFB66
 9795 0a8d 8C020000 		.4byte	.LFE66-.LFB66
 9796 0a91 01       		.uleb128 0x1
 9797 0a92 9C       		.byte	0x9c
 9798 0a93 710D0000 		.4byte	0xd71
 9799 0a97 1A       		.uleb128 0x1a
 9800 0a98 090B0000 		.4byte	.LASF171
 9801 0a9c 01       		.byte	0x1
 9802 0a9d 6F       		.byte	0x6f
 9803 0a9e 710D0000 		.4byte	0xd71
 9804 0aa2 02       		.uleb128 0x2
 9805 0aa3 91       		.byte	0x91
 9806 0aa4 6C       		.sleb128 -20
 9807 0aa5 1A       		.uleb128 0x1a
 9808 0aa6 070E0000 		.4byte	.LASF172
 9809 0aaa 01       		.byte	0x1
 9810 0aab 70       		.byte	0x70
 9811 0aac 710D0000 		.4byte	0xd71
 9812 0ab0 02       		.uleb128 0x2
 9813 0ab1 91       		.byte	0x91
 9814 0ab2 60       		.sleb128 -32
 9815 0ab3 1A       		.uleb128 0x1a
 9816 0ab4 ED120000 		.4byte	.LASF173
 9817 0ab8 01       		.byte	0x1
 9818 0ab9 71       		.byte	0x71
 9819 0aba 710D0000 		.4byte	0xd71
 9820 0abe 02       		.uleb128 0x2
 9821 0abf 91       		.byte	0x91
 9822 0ac0 54       		.sleb128 -44
ARM GAS  C:\Users\RECEPC~1\AppData\Local\Temp\cc6Stwwd.s 			page 236


 9823 0ac1 1A       		.uleb128 0x1a
 9824 0ac2 F3120000 		.4byte	.LASF174
 9825 0ac6 01       		.byte	0x1
 9826 0ac7 72       		.byte	0x72
 9827 0ac8 710D0000 		.4byte	0xd71
 9828 0acc 02       		.uleb128 0x2
 9829 0acd 91       		.byte	0x91
 9830 0ace 48       		.sleb128 -56
 9831 0acf 1A       		.uleb128 0x1a
 9832 0ad0 F9120000 		.4byte	.LASF175
 9833 0ad4 01       		.byte	0x1
 9834 0ad5 73       		.byte	0x73
 9835 0ad6 710D0000 		.4byte	0xd71
 9836 0ada 03       		.uleb128 0x3
 9837 0adb 91       		.byte	0x91
 9838 0adc BC7F     		.sleb128 -68
 9839 0ade 1A       		.uleb128 0x1a
 9840 0adf AD110000 		.4byte	.LASF176
 9841 0ae3 01       		.byte	0x1
 9842 0ae4 74       		.byte	0x74
 9843 0ae5 710D0000 		.4byte	0xd71
 9844 0ae9 03       		.uleb128 0x3
 9845 0aea 91       		.byte	0x91
 9846 0aeb B07F     		.sleb128 -80
 9847 0aed 1A       		.uleb128 0x1a
 9848 0aee AB0D0000 		.4byte	.LASF177
 9849 0af2 01       		.byte	0x1
 9850 0af3 75       		.byte	0x75
 9851 0af4 710D0000 		.4byte	0xd71
 9852 0af8 03       		.uleb128 0x3
 9853 0af9 91       		.byte	0x91
 9854 0afa A47F     		.sleb128 -92
 9855 0afc 1A       		.uleb128 0x1a
 9856 0afd C6110000 		.4byte	.LASF178
 9857 0b01 01       		.byte	0x1
 9858 0b02 76       		.byte	0x76
 9859 0b03 710D0000 		.4byte	0xd71
 9860 0b07 03       		.uleb128 0x3
 9861 0b08 91       		.byte	0x91
 9862 0b09 987F     		.sleb128 -104
 9863 0b0b 1A       		.uleb128 0x1a
 9864 0b0c D3110000 		.4byte	.LASF179
 9865 0b10 01       		.byte	0x1
 9866 0b11 77       		.byte	0x77
 9867 0b12 710D0000 		.4byte	0xd71
 9868 0b16 03       		.uleb128 0x3
 9869 0b17 91       		.byte	0x91
 9870 0b18 8C7F     		.sleb128 -116
 9871 0b1a 17       		.uleb128 0x17
 9872 0b1b 86000000 		.4byte	.LVL42
 9873 0b1f 563B0000 		.4byte	0x3b56
 9874 0b23 320B0000 		.4byte	0xb32
 9875 0b27 18       		.uleb128 0x18
 9876 0b28 01       		.uleb128 0x1
 9877 0b29 51       		.byte	0x51
 9878 0b2a 01       		.uleb128 0x1
 9879 0b2b 31       		.byte	0x31
ARM GAS  C:\Users\RECEPC~1\AppData\Local\Temp\cc6Stwwd.s 			page 237


 9880 0b2c 18       		.uleb128 0x18
 9881 0b2d 01       		.uleb128 0x1
 9882 0b2e 50       		.byte	0x50
 9883 0b2f 01       		.uleb128 0x1
 9884 0b30 31       		.byte	0x31
 9885 0b31 00       		.byte	0
 9886 0b32 17       		.uleb128 0x17
 9887 0b33 90000000 		.4byte	.LVL43
 9888 0b37 6C3B0000 		.4byte	0x3b6c
 9889 0b3b 500B0000 		.4byte	0xb50
 9890 0b3f 18       		.uleb128 0x18
 9891 0b40 01       		.uleb128 0x1
 9892 0b41 52       		.byte	0x52
 9893 0b42 01       		.uleb128 0x1
 9894 0b43 30       		.byte	0x30
 9895 0b44 18       		.uleb128 0x18
 9896 0b45 01       		.uleb128 0x1
 9897 0b46 51       		.byte	0x51
 9898 0b47 02       		.uleb128 0x2
 9899 0b48 91       		.byte	0x91
 9900 0b49 6C       		.sleb128 -20
 9901 0b4a 18       		.uleb128 0x18
 9902 0b4b 01       		.uleb128 0x1
 9903 0b4c 50       		.byte	0x50
 9904 0b4d 01       		.uleb128 0x1
 9905 0b4e 31       		.byte	0x31
 9906 0b4f 00       		.byte	0
 9907 0b50 17       		.uleb128 0x17
 9908 0b51 98000000 		.4byte	.LVL44
 9909 0b55 8D3B0000 		.4byte	0x3b8d
 9910 0b59 650B0000 		.4byte	0xb65
 9911 0b5d 18       		.uleb128 0x18
 9912 0b5e 01       		.uleb128 0x1
 9913 0b5f 50       		.byte	0x50
 9914 0b60 03       		.uleb128 0x3
 9915 0b61 0A       		.byte	0xa
 9916 0b62 2C01     		.2byte	0x12c
 9917 0b64 00       		.byte	0
 9918 0b65 17       		.uleb128 0x17
 9919 0b66 B6000000 		.4byte	.LVL45
 9920 0b6a 6C3B0000 		.4byte	0x3b6c
 9921 0b6e 830B0000 		.4byte	0xb83
 9922 0b72 18       		.uleb128 0x18
 9923 0b73 01       		.uleb128 0x1
 9924 0b74 52       		.byte	0x52
 9925 0b75 01       		.uleb128 0x1
 9926 0b76 30       		.byte	0x30
 9927 0b77 18       		.uleb128 0x18
 9928 0b78 01       		.uleb128 0x1
 9929 0b79 51       		.byte	0x51
 9930 0b7a 02       		.uleb128 0x2
 9931 0b7b 91       		.byte	0x91
 9932 0b7c 60       		.sleb128 -32
 9933 0b7d 18       		.uleb128 0x18
 9934 0b7e 01       		.uleb128 0x1
 9935 0b7f 50       		.byte	0x50
 9936 0b80 01       		.uleb128 0x1
ARM GAS  C:\Users\RECEPC~1\AppData\Local\Temp\cc6Stwwd.s 			page 238


 9937 0b81 31       		.byte	0x31
 9938 0b82 00       		.byte	0
 9939 0b83 17       		.uleb128 0x17
 9940 0b84 D6000000 		.4byte	.LVL46
 9941 0b88 6C3B0000 		.4byte	0x3b6c
 9942 0b8c A10B0000 		.4byte	0xba1
 9943 0b90 18       		.uleb128 0x18
 9944 0b91 01       		.uleb128 0x1
 9945 0b92 52       		.byte	0x52
 9946 0b93 01       		.uleb128 0x1
 9947 0b94 30       		.byte	0x30
 9948 0b95 18       		.uleb128 0x18
 9949 0b96 01       		.uleb128 0x1
 9950 0b97 51       		.byte	0x51
 9951 0b98 02       		.uleb128 0x2
 9952 0b99 91       		.byte	0x91
 9953 0b9a 54       		.sleb128 -44
 9954 0b9b 18       		.uleb128 0x18
 9955 0b9c 01       		.uleb128 0x1
 9956 0b9d 50       		.byte	0x50
 9957 0b9e 01       		.uleb128 0x1
 9958 0b9f 31       		.byte	0x31
 9959 0ba0 00       		.byte	0
 9960 0ba1 17       		.uleb128 0x17
 9961 0ba2 F6000000 		.4byte	.LVL47
 9962 0ba6 6C3B0000 		.4byte	0x3b6c
 9963 0baa BF0B0000 		.4byte	0xbbf
 9964 0bae 18       		.uleb128 0x18
 9965 0baf 01       		.uleb128 0x1
 9966 0bb0 52       		.byte	0x52
 9967 0bb1 01       		.uleb128 0x1
 9968 0bb2 30       		.byte	0x30
 9969 0bb3 18       		.uleb128 0x18
 9970 0bb4 01       		.uleb128 0x1
 9971 0bb5 51       		.byte	0x51
 9972 0bb6 02       		.uleb128 0x2
 9973 0bb7 91       		.byte	0x91
 9974 0bb8 48       		.sleb128 -56
 9975 0bb9 18       		.uleb128 0x18
 9976 0bba 01       		.uleb128 0x1
 9977 0bbb 50       		.byte	0x50
 9978 0bbc 01       		.uleb128 0x1
 9979 0bbd 31       		.byte	0x31
 9980 0bbe 00       		.byte	0
 9981 0bbf 17       		.uleb128 0x17
 9982 0bc0 16010000 		.4byte	.LVL48
 9983 0bc4 6C3B0000 		.4byte	0x3b6c
 9984 0bc8 DE0B0000 		.4byte	0xbde
 9985 0bcc 18       		.uleb128 0x18
 9986 0bcd 01       		.uleb128 0x1
 9987 0bce 52       		.byte	0x52
 9988 0bcf 01       		.uleb128 0x1
 9989 0bd0 30       		.byte	0x30
 9990 0bd1 18       		.uleb128 0x18
 9991 0bd2 01       		.uleb128 0x1
 9992 0bd3 51       		.byte	0x51
 9993 0bd4 03       		.uleb128 0x3
ARM GAS  C:\Users\RECEPC~1\AppData\Local\Temp\cc6Stwwd.s 			page 239


 9994 0bd5 91       		.byte	0x91
 9995 0bd6 BC7F     		.sleb128 -68
 9996 0bd8 18       		.uleb128 0x18
 9997 0bd9 01       		.uleb128 0x1
 9998 0bda 50       		.byte	0x50
 9999 0bdb 01       		.uleb128 0x1
 10000 0bdc 31       		.byte	0x31
 10001 0bdd 00       		.byte	0
 10002 0bde 17       		.uleb128 0x17
 10003 0bdf 26010000 		.4byte	.LVL49
 10004 0be3 6C3B0000 		.4byte	0x3b6c
 10005 0be7 FD0B0000 		.4byte	0xbfd
 10006 0beb 18       		.uleb128 0x18
 10007 0bec 01       		.uleb128 0x1
 10008 0bed 52       		.byte	0x52
 10009 0bee 01       		.uleb128 0x1
 10010 0bef 46       		.byte	0x46
 10011 0bf0 18       		.uleb128 0x18
 10012 0bf1 01       		.uleb128 0x1
 10013 0bf2 51       		.byte	0x51
 10014 0bf3 03       		.uleb128 0x3
 10015 0bf4 91       		.byte	0x91
 10016 0bf5 B07F     		.sleb128 -80
 10017 0bf7 18       		.uleb128 0x18
 10018 0bf8 01       		.uleb128 0x1
 10019 0bf9 50       		.byte	0x50
 10020 0bfa 01       		.uleb128 0x1
 10021 0bfb 31       		.byte	0x31
 10022 0bfc 00       		.byte	0
 10023 0bfd 17       		.uleb128 0x17
 10024 0bfe 3E010000 		.4byte	.LVL50
 10025 0c02 6C3B0000 		.4byte	0x3b6c
 10026 0c06 1C0C0000 		.4byte	0xc1c
 10027 0c0a 18       		.uleb128 0x18
 10028 0c0b 01       		.uleb128 0x1
 10029 0c0c 52       		.byte	0x52
 10030 0c0d 01       		.uleb128 0x1
 10031 0c0e 46       		.byte	0x46
 10032 0c0f 18       		.uleb128 0x18
 10033 0c10 01       		.uleb128 0x1
 10034 0c11 51       		.byte	0x51
 10035 0c12 03       		.uleb128 0x3
 10036 0c13 91       		.byte	0x91
 10037 0c14 A47F     		.sleb128 -92
 10038 0c16 18       		.uleb128 0x18
 10039 0c17 01       		.uleb128 0x1
 10040 0c18 50       		.byte	0x50
 10041 0c19 01       		.uleb128 0x1
 10042 0c1a 31       		.byte	0x31
 10043 0c1b 00       		.byte	0
 10044 0c1c 17       		.uleb128 0x17
 10045 0c1d 56010000 		.4byte	.LVL51
 10046 0c21 6C3B0000 		.4byte	0x3b6c
 10047 0c25 3B0C0000 		.4byte	0xc3b
 10048 0c29 18       		.uleb128 0x18
 10049 0c2a 01       		.uleb128 0x1
 10050 0c2b 52       		.byte	0x52
ARM GAS  C:\Users\RECEPC~1\AppData\Local\Temp\cc6Stwwd.s 			page 240


 10051 0c2c 01       		.uleb128 0x1
 10052 0c2d 46       		.byte	0x46
 10053 0c2e 18       		.uleb128 0x18
 10054 0c2f 01       		.uleb128 0x1
 10055 0c30 51       		.byte	0x51
 10056 0c31 03       		.uleb128 0x3
 10057 0c32 91       		.byte	0x91
 10058 0c33 987F     		.sleb128 -104
 10059 0c35 18       		.uleb128 0x18
 10060 0c36 01       		.uleb128 0x1
 10061 0c37 50       		.byte	0x50
 10062 0c38 01       		.uleb128 0x1
 10063 0c39 31       		.byte	0x31
 10064 0c3a 00       		.byte	0
 10065 0c3b 17       		.uleb128 0x17
 10066 0c3c 6E010000 		.4byte	.LVL52
 10067 0c40 6C3B0000 		.4byte	0x3b6c
 10068 0c44 590C0000 		.4byte	0xc59
 10069 0c48 18       		.uleb128 0x18
 10070 0c49 01       		.uleb128 0x1
 10071 0c4a 52       		.byte	0x52
 10072 0c4b 01       		.uleb128 0x1
 10073 0c4c 46       		.byte	0x46
 10074 0c4d 18       		.uleb128 0x18
 10075 0c4e 01       		.uleb128 0x1
 10076 0c4f 51       		.byte	0x51
 10077 0c50 02       		.uleb128 0x2
 10078 0c51 74       		.byte	0x74
 10079 0c52 78       		.sleb128 -8
 10080 0c53 18       		.uleb128 0x18
 10081 0c54 01       		.uleb128 0x1
 10082 0c55 50       		.byte	0x50
 10083 0c56 01       		.uleb128 0x1
 10084 0c57 31       		.byte	0x31
 10085 0c58 00       		.byte	0
 10086 0c59 17       		.uleb128 0x17
 10087 0c5a 84010000 		.4byte	.LVL53
 10088 0c5e 563B0000 		.4byte	0x3b56
 10089 0c62 720C0000 		.4byte	0xc72
 10090 0c66 18       		.uleb128 0x18
 10091 0c67 01       		.uleb128 0x1
 10092 0c68 51       		.byte	0x51
 10093 0c69 02       		.uleb128 0x2
 10094 0c6a 08       		.byte	0x8
 10095 0c6b 2E       		.byte	0x2e
 10096 0c6c 18       		.uleb128 0x18
 10097 0c6d 01       		.uleb128 0x1
 10098 0c6e 50       		.byte	0x50
 10099 0c6f 01       		.uleb128 0x1
 10100 0c70 31       		.byte	0x31
 10101 0c71 00       		.byte	0
 10102 0c72 17       		.uleb128 0x17
 10103 0c73 8E010000 		.4byte	.LVL54
 10104 0c77 6C3B0000 		.4byte	0x3b6c
 10105 0c7b 900C0000 		.4byte	0xc90
 10106 0c7f 18       		.uleb128 0x18
 10107 0c80 01       		.uleb128 0x1
ARM GAS  C:\Users\RECEPC~1\AppData\Local\Temp\cc6Stwwd.s 			page 241


 10108 0c81 52       		.byte	0x52
 10109 0c82 01       		.uleb128 0x1
 10110 0c83 30       		.byte	0x30
 10111 0c84 18       		.uleb128 0x18
 10112 0c85 01       		.uleb128 0x1
 10113 0c86 51       		.byte	0x51
 10114 0c87 02       		.uleb128 0x2
 10115 0c88 91       		.byte	0x91
 10116 0c89 6C       		.sleb128 -20
 10117 0c8a 18       		.uleb128 0x18
 10118 0c8b 01       		.uleb128 0x1
 10119 0c8c 50       		.byte	0x50
 10120 0c8d 01       		.uleb128 0x1
 10121 0c8e 31       		.byte	0x31
 10122 0c8f 00       		.byte	0
 10123 0c90 17       		.uleb128 0x17
 10124 0c91 96010000 		.4byte	.LVL55
 10125 0c95 8D3B0000 		.4byte	0x3b8d
 10126 0c99 A50C0000 		.4byte	0xca5
 10127 0c9d 18       		.uleb128 0x18
 10128 0c9e 01       		.uleb128 0x1
 10129 0c9f 50       		.byte	0x50
 10130 0ca0 03       		.uleb128 0x3
 10131 0ca1 0A       		.byte	0xa
 10132 0ca2 2C01     		.2byte	0x12c
 10133 0ca4 00       		.byte	0
 10134 0ca5 17       		.uleb128 0x17
 10135 0ca6 BC010000 		.4byte	.LVL56
 10136 0caa 6C3B0000 		.4byte	0x3b6c
 10137 0cae C30C0000 		.4byte	0xcc3
 10138 0cb2 18       		.uleb128 0x18
 10139 0cb3 01       		.uleb128 0x1
 10140 0cb4 52       		.byte	0x52
 10141 0cb5 01       		.uleb128 0x1
 10142 0cb6 30       		.byte	0x30
 10143 0cb7 18       		.uleb128 0x18
 10144 0cb8 01       		.uleb128 0x1
 10145 0cb9 51       		.byte	0x51
 10146 0cba 02       		.uleb128 0x2
 10147 0cbb 91       		.byte	0x91
 10148 0cbc 60       		.sleb128 -32
 10149 0cbd 18       		.uleb128 0x18
 10150 0cbe 01       		.uleb128 0x1
 10151 0cbf 50       		.byte	0x50
 10152 0cc0 01       		.uleb128 0x1
 10153 0cc1 31       		.byte	0x31
 10154 0cc2 00       		.byte	0
 10155 0cc3 17       		.uleb128 0x17
 10156 0cc4 E4010000 		.4byte	.LVL57
 10157 0cc8 6C3B0000 		.4byte	0x3b6c
 10158 0ccc E10C0000 		.4byte	0xce1
 10159 0cd0 18       		.uleb128 0x18
 10160 0cd1 01       		.uleb128 0x1
 10161 0cd2 52       		.byte	0x52
 10162 0cd3 01       		.uleb128 0x1
 10163 0cd4 30       		.byte	0x30
 10164 0cd5 18       		.uleb128 0x18
ARM GAS  C:\Users\RECEPC~1\AppData\Local\Temp\cc6Stwwd.s 			page 242


 10165 0cd6 01       		.uleb128 0x1
 10166 0cd7 51       		.byte	0x51
 10167 0cd8 02       		.uleb128 0x2
 10168 0cd9 91       		.byte	0x91
 10169 0cda 54       		.sleb128 -44
 10170 0cdb 18       		.uleb128 0x18
 10171 0cdc 01       		.uleb128 0x1
 10172 0cdd 50       		.byte	0x50
 10173 0cde 01       		.uleb128 0x1
 10174 0cdf 31       		.byte	0x31
 10175 0ce0 00       		.byte	0
 10176 0ce1 17       		.uleb128 0x17
 10177 0ce2 0C020000 		.4byte	.LVL58
 10178 0ce6 6C3B0000 		.4byte	0x3b6c
 10179 0cea FF0C0000 		.4byte	0xcff
 10180 0cee 18       		.uleb128 0x18
 10181 0cef 01       		.uleb128 0x1
 10182 0cf0 52       		.byte	0x52
 10183 0cf1 01       		.uleb128 0x1
 10184 0cf2 30       		.byte	0x30
 10185 0cf3 18       		.uleb128 0x18
 10186 0cf4 01       		.uleb128 0x1
 10187 0cf5 51       		.byte	0x51
 10188 0cf6 02       		.uleb128 0x2
 10189 0cf7 91       		.byte	0x91
 10190 0cf8 48       		.sleb128 -56
 10191 0cf9 18       		.uleb128 0x18
 10192 0cfa 01       		.uleb128 0x1
 10193 0cfb 50       		.byte	0x50
 10194 0cfc 01       		.uleb128 0x1
 10195 0cfd 31       		.byte	0x31
 10196 0cfe 00       		.byte	0
 10197 0cff 17       		.uleb128 0x17
 10198 0d00 34020000 		.4byte	.LVL59
 10199 0d04 6C3B0000 		.4byte	0x3b6c
 10200 0d08 1E0D0000 		.4byte	0xd1e
 10201 0d0c 18       		.uleb128 0x18
 10202 0d0d 01       		.uleb128 0x1
 10203 0d0e 52       		.byte	0x52
 10204 0d0f 01       		.uleb128 0x1
 10205 0d10 30       		.byte	0x30
 10206 0d11 18       		.uleb128 0x18
 10207 0d12 01       		.uleb128 0x1
 10208 0d13 51       		.byte	0x51
 10209 0d14 03       		.uleb128 0x3
 10210 0d15 91       		.byte	0x91
 10211 0d16 BC7F     		.sleb128 -68
 10212 0d18 18       		.uleb128 0x18
 10213 0d19 01       		.uleb128 0x1
 10214 0d1a 50       		.byte	0x50
 10215 0d1b 01       		.uleb128 0x1
 10216 0d1c 31       		.byte	0x31
 10217 0d1d 00       		.byte	0
 10218 0d1e 17       		.uleb128 0x17
 10219 0d1f 46020000 		.4byte	.LVL60
 10220 0d23 6C3B0000 		.4byte	0x3b6c
 10221 0d27 3D0D0000 		.4byte	0xd3d
ARM GAS  C:\Users\RECEPC~1\AppData\Local\Temp\cc6Stwwd.s 			page 243


 10222 0d2b 18       		.uleb128 0x18
 10223 0d2c 01       		.uleb128 0x1
 10224 0d2d 52       		.byte	0x52
 10225 0d2e 01       		.uleb128 0x1
 10226 0d2f 46       		.byte	0x46
 10227 0d30 18       		.uleb128 0x18
 10228 0d31 01       		.uleb128 0x1
 10229 0d32 51       		.byte	0x51
 10230 0d33 03       		.uleb128 0x3
 10231 0d34 91       		.byte	0x91
 10232 0d35 A47F     		.sleb128 -92
 10233 0d37 18       		.uleb128 0x18
 10234 0d38 01       		.uleb128 0x1
 10235 0d39 50       		.byte	0x50
 10236 0d3a 01       		.uleb128 0x1
 10237 0d3b 31       		.byte	0x31
 10238 0d3c 00       		.byte	0
 10239 0d3d 17       		.uleb128 0x17
 10240 0d3e 58020000 		.4byte	.LVL61
 10241 0d42 6C3B0000 		.4byte	0x3b6c
 10242 0d46 5C0D0000 		.4byte	0xd5c
 10243 0d4a 18       		.uleb128 0x18
 10244 0d4b 01       		.uleb128 0x1
 10245 0d4c 52       		.byte	0x52
 10246 0d4d 01       		.uleb128 0x1
 10247 0d4e 46       		.byte	0x46
 10248 0d4f 18       		.uleb128 0x18
 10249 0d50 01       		.uleb128 0x1
 10250 0d51 51       		.byte	0x51
 10251 0d52 03       		.uleb128 0x3
 10252 0d53 91       		.byte	0x91
 10253 0d54 987F     		.sleb128 -104
 10254 0d56 18       		.uleb128 0x18
 10255 0d57 01       		.uleb128 0x1
 10256 0d58 50       		.byte	0x50
 10257 0d59 01       		.uleb128 0x1
 10258 0d5a 31       		.byte	0x31
 10259 0d5b 00       		.byte	0
 10260 0d5c 19       		.uleb128 0x19
 10261 0d5d 68020000 		.4byte	.LVL62
 10262 0d61 563B0000 		.4byte	0x3b56
 10263 0d65 18       		.uleb128 0x18
 10264 0d66 01       		.uleb128 0x1
 10265 0d67 51       		.byte	0x51
 10266 0d68 01       		.uleb128 0x1
 10267 0d69 30       		.byte	0x30
 10268 0d6a 18       		.uleb128 0x18
 10269 0d6b 01       		.uleb128 0x1
 10270 0d6c 50       		.byte	0x50
 10271 0d6d 01       		.uleb128 0x1
 10272 0d6e 31       		.byte	0x31
 10273 0d6f 00       		.byte	0
 10274 0d70 00       		.byte	0
 10275 0d71 0A       		.uleb128 0xa
 10276 0d72 8C000000 		.4byte	0x8c
 10277 0d76 810D0000 		.4byte	0xd81
 10278 0d7a 0B       		.uleb128 0xb
ARM GAS  C:\Users\RECEPC~1\AppData\Local\Temp\cc6Stwwd.s 			page 244


 10279 0d7b 27010000 		.4byte	0x127
 10280 0d7f 09       		.byte	0x9
 10281 0d80 00       		.byte	0
 10282 0d81 16       		.uleb128 0x16
 10283 0d82 85080000 		.4byte	.LASF180
 10284 0d86 01       		.byte	0x1
 10285 0d87 D6       		.byte	0xd6
 10286 0d88 00000000 		.4byte	.LFB67
 10287 0d8c 50000000 		.4byte	.LFE67-.LFB67
 10288 0d90 01       		.uleb128 0x1
 10289 0d91 9C       		.byte	0x9c
 10290 0d92 FD0D0000 		.4byte	0xdfd
 10291 0d96 17       		.uleb128 0x17
 10292 0d97 12000000 		.4byte	.LVL63
 10293 0d9b 563B0000 		.4byte	0x3b56
 10294 0d9f AE0D0000 		.4byte	0xdae
 10295 0da3 18       		.uleb128 0x18
 10296 0da4 01       		.uleb128 0x1
 10297 0da5 51       		.byte	0x51
 10298 0da6 01       		.uleb128 0x1
 10299 0da7 31       		.byte	0x31
 10300 0da8 18       		.uleb128 0x18
 10301 0da9 01       		.uleb128 0x1
 10302 0daa 50       		.byte	0x50
 10303 0dab 01       		.uleb128 0x1
 10304 0dac 32       		.byte	0x32
 10305 0dad 00       		.byte	0
 10306 0dae 17       		.uleb128 0x17
 10307 0daf 28000000 		.4byte	.LVL64
 10308 0db3 563B0000 		.4byte	0x3b56
 10309 0db7 C70D0000 		.4byte	0xdc7
 10310 0dbb 18       		.uleb128 0x18
 10311 0dbc 01       		.uleb128 0x1
 10312 0dbd 51       		.byte	0x51
 10313 0dbe 02       		.uleb128 0x2
 10314 0dbf 08       		.byte	0x8
 10315 0dc0 2E       		.byte	0x2e
 10316 0dc1 18       		.uleb128 0x18
 10317 0dc2 01       		.uleb128 0x1
 10318 0dc3 50       		.byte	0x50
 10319 0dc4 01       		.uleb128 0x1
 10320 0dc5 32       		.byte	0x32
 10321 0dc6 00       		.byte	0
 10322 0dc7 17       		.uleb128 0x17
 10323 0dc8 38000000 		.4byte	.LVL65
 10324 0dcc 563B0000 		.4byte	0x3b56
 10325 0dd0 DF0D0000 		.4byte	0xddf
 10326 0dd4 18       		.uleb128 0x18
 10327 0dd5 01       		.uleb128 0x1
 10328 0dd6 51       		.byte	0x51
 10329 0dd7 01       		.uleb128 0x1
 10330 0dd8 30       		.byte	0x30
 10331 0dd9 18       		.uleb128 0x18
 10332 0dda 01       		.uleb128 0x1
 10333 0ddb 50       		.byte	0x50
 10334 0ddc 01       		.uleb128 0x1
 10335 0ddd 32       		.byte	0x32
ARM GAS  C:\Users\RECEPC~1\AppData\Local\Temp\cc6Stwwd.s 			page 245


 10336 0dde 00       		.byte	0
 10337 0ddf 19       		.uleb128 0x19
 10338 0de0 42000000 		.4byte	.LVL66
 10339 0de4 6C3B0000 		.4byte	0x3b6c
 10340 0de8 18       		.uleb128 0x18
 10341 0de9 01       		.uleb128 0x1
 10342 0dea 52       		.byte	0x52
 10343 0deb 01       		.uleb128 0x1
 10344 0dec 30       		.byte	0x30
 10345 0ded 18       		.uleb128 0x18
 10346 0dee 01       		.uleb128 0x1
 10347 0def 51       		.byte	0x51
 10348 0df0 05       		.uleb128 0x5
 10349 0df1 03       		.byte	0x3
 10350 0df2 08000000 		.4byte	.LANCHOR0+8
 10351 0df6 18       		.uleb128 0x18
 10352 0df7 01       		.uleb128 0x1
 10353 0df8 50       		.byte	0x50
 10354 0df9 01       		.uleb128 0x1
 10355 0dfa 32       		.byte	0x32
 10356 0dfb 00       		.byte	0
 10357 0dfc 00       		.byte	0
 10358 0dfd 16       		.uleb128 0x16
 10359 0dfe 5D090000 		.4byte	.LASF181
 10360 0e02 01       		.byte	0x1
 10361 0e03 ED       		.byte	0xed
 10362 0e04 00000000 		.4byte	.LFB68
 10363 0e08 C4000000 		.4byte	.LFE68-.LFB68
 10364 0e0c 01       		.uleb128 0x1
 10365 0e0d 9C       		.byte	0x9c
 10366 0e0e 2A0F0000 		.4byte	0xf2a
 10367 0e12 15       		.uleb128 0x15
 10368 0e13 06000000 		.4byte	.LVL67
 10369 0e17 9E3B0000 		.4byte	0x3b9e
 10370 0e1b 15       		.uleb128 0x15
 10371 0e1c 16000000 		.4byte	.LVL68
 10372 0e20 A93B0000 		.4byte	0x3ba9
 10373 0e24 15       		.uleb128 0x15
 10374 0e25 1A000000 		.4byte	.LVL69
 10375 0e29 BE3B0000 		.4byte	0x3bbe
 10376 0e2d 17       		.uleb128 0x17
 10377 0e2e 24000000 		.4byte	.LVL70
 10378 0e32 563B0000 		.4byte	0x3b56
 10379 0e36 450E0000 		.4byte	0xe45
 10380 0e3a 18       		.uleb128 0x18
 10381 0e3b 01       		.uleb128 0x1
 10382 0e3c 51       		.byte	0x51
 10383 0e3d 01       		.uleb128 0x1
 10384 0e3e 30       		.byte	0x30
 10385 0e3f 18       		.uleb128 0x18
 10386 0e40 01       		.uleb128 0x1
 10387 0e41 50       		.byte	0x50
 10388 0e42 01       		.uleb128 0x1
 10389 0e43 31       		.byte	0x31
 10390 0e44 00       		.byte	0
 10391 0e45 17       		.uleb128 0x17
 10392 0e46 2C000000 		.4byte	.LVL71
ARM GAS  C:\Users\RECEPC~1\AppData\Local\Temp\cc6Stwwd.s 			page 246


 10393 0e4a 563B0000 		.4byte	0x3b56
 10394 0e4e 5D0E0000 		.4byte	0xe5d
 10395 0e52 18       		.uleb128 0x18
 10396 0e53 01       		.uleb128 0x1
 10397 0e54 51       		.byte	0x51
 10398 0e55 01       		.uleb128 0x1
 10399 0e56 30       		.byte	0x30
 10400 0e57 18       		.uleb128 0x18
 10401 0e58 01       		.uleb128 0x1
 10402 0e59 50       		.byte	0x50
 10403 0e5a 01       		.uleb128 0x1
 10404 0e5b 32       		.byte	0x32
 10405 0e5c 00       		.byte	0
 10406 0e5d 15       		.uleb128 0x15
 10407 0e5e 3C000000 		.4byte	.LVL72
 10408 0e62 A93B0000 		.4byte	0x3ba9
 10409 0e66 15       		.uleb128 0x15
 10410 0e67 40000000 		.4byte	.LVL73
 10411 0e6b BE3B0000 		.4byte	0x3bbe
 10412 0e6f 17       		.uleb128 0x17
 10413 0e70 4A000000 		.4byte	.LVL74
 10414 0e74 563B0000 		.4byte	0x3b56
 10415 0e78 870E0000 		.4byte	0xe87
 10416 0e7c 18       		.uleb128 0x18
 10417 0e7d 01       		.uleb128 0x1
 10418 0e7e 51       		.byte	0x51
 10419 0e7f 01       		.uleb128 0x1
 10420 0e80 30       		.byte	0x30
 10421 0e81 18       		.uleb128 0x18
 10422 0e82 01       		.uleb128 0x1
 10423 0e83 50       		.byte	0x50
 10424 0e84 01       		.uleb128 0x1
 10425 0e85 31       		.byte	0x31
 10426 0e86 00       		.byte	0
 10427 0e87 17       		.uleb128 0x17
 10428 0e88 52000000 		.4byte	.LVL75
 10429 0e8c 563B0000 		.4byte	0x3b56
 10430 0e90 9F0E0000 		.4byte	0xe9f
 10431 0e94 18       		.uleb128 0x18
 10432 0e95 01       		.uleb128 0x1
 10433 0e96 51       		.byte	0x51
 10434 0e97 01       		.uleb128 0x1
 10435 0e98 30       		.byte	0x30
 10436 0e99 18       		.uleb128 0x18
 10437 0e9a 01       		.uleb128 0x1
 10438 0e9b 50       		.byte	0x50
 10439 0e9c 01       		.uleb128 0x1
 10440 0e9d 32       		.byte	0x32
 10441 0e9e 00       		.byte	0
 10442 0e9f 15       		.uleb128 0x15
 10443 0ea0 60000000 		.4byte	.LVL76
 10444 0ea4 A93B0000 		.4byte	0x3ba9
 10445 0ea8 15       		.uleb128 0x15
 10446 0ea9 64000000 		.4byte	.LVL77
 10447 0ead BE3B0000 		.4byte	0x3bbe
 10448 0eb1 15       		.uleb128 0x15
 10449 0eb2 70000000 		.4byte	.LVL78
ARM GAS  C:\Users\RECEPC~1\AppData\Local\Temp\cc6Stwwd.s 			page 247


 10450 0eb6 A93B0000 		.4byte	0x3ba9
 10451 0eba 15       		.uleb128 0x15
 10452 0ebb 74000000 		.4byte	.LVL79
 10453 0ebf BE3B0000 		.4byte	0x3bbe
 10454 0ec3 15       		.uleb128 0x15
 10455 0ec4 7A000000 		.4byte	.LVL80
 10456 0ec8 9E3B0000 		.4byte	0x3b9e
 10457 0ecc 15       		.uleb128 0x15
 10458 0ecd 86000000 		.4byte	.LVL81
 10459 0ed1 A93B0000 		.4byte	0x3ba9
 10460 0ed5 15       		.uleb128 0x15
 10461 0ed6 94000000 		.4byte	.LVL82
 10462 0eda A93B0000 		.4byte	0x3ba9
 10463 0ede 15       		.uleb128 0x15
 10464 0edf A0000000 		.4byte	.LVL83
 10465 0ee3 DA3B0000 		.4byte	0x3bda
 10466 0ee7 15       		.uleb128 0x15
 10467 0ee8 A4000000 		.4byte	.LVL84
 10468 0eec 83080000 		.4byte	0x883
 10469 0ef0 17       		.uleb128 0x17
 10470 0ef1 AE000000 		.4byte	.LVL85
 10471 0ef5 563B0000 		.4byte	0x3b56
 10472 0ef9 080F0000 		.4byte	0xf08
 10473 0efd 18       		.uleb128 0x18
 10474 0efe 01       		.uleb128 0x1
 10475 0eff 51       		.byte	0x51
 10476 0f00 01       		.uleb128 0x1
 10477 0f01 39       		.byte	0x39
 10478 0f02 18       		.uleb128 0x18
 10479 0f03 01       		.uleb128 0x1
 10480 0f04 50       		.byte	0x50
 10481 0f05 01       		.uleb128 0x1
 10482 0f06 31       		.byte	0x31
 10483 0f07 00       		.byte	0
 10484 0f08 17       		.uleb128 0x17
 10485 0f09 B6000000 		.4byte	.LVL86
 10486 0f0d 563B0000 		.4byte	0x3b56
 10487 0f11 200F0000 		.4byte	0xf20
 10488 0f15 18       		.uleb128 0x18
 10489 0f16 01       		.uleb128 0x1
 10490 0f17 51       		.byte	0x51
 10491 0f18 01       		.uleb128 0x1
 10492 0f19 39       		.byte	0x39
 10493 0f1a 18       		.uleb128 0x18
 10494 0f1b 01       		.uleb128 0x1
 10495 0f1c 50       		.byte	0x50
 10496 0f1d 01       		.uleb128 0x1
 10497 0f1e 32       		.byte	0x32
 10498 0f1f 00       		.byte	0
 10499 0f20 15       		.uleb128 0x15
 10500 0f21 BA000000 		.4byte	.LVL87
 10501 0f25 FD0D0000 		.4byte	0xdfd
 10502 0f29 00       		.byte	0
 10503 0f2a 1B       		.uleb128 0x1b
 10504 0f2b 5C130000 		.4byte	.LASF182
 10505 0f2f 01       		.byte	0x1
 10506 0f30 1101     		.2byte	0x111
ARM GAS  C:\Users\RECEPC~1\AppData\Local\Temp\cc6Stwwd.s 			page 248


 10507 0f32 00000000 		.4byte	.LFB69
 10508 0f36 C4000000 		.4byte	.LFE69-.LFB69
 10509 0f3a 01       		.uleb128 0x1
 10510 0f3b 9C       		.byte	0x9c
 10511 0f3c CC100000 		.4byte	0x10cc
 10512 0f40 1C       		.uleb128 0x1c
 10513 0f41 56020000 		.4byte	.LASF183
 10514 0f45 01       		.byte	0x1
 10515 0f46 1201     		.2byte	0x112
 10516 0f48 CC100000 		.4byte	0x10cc
 10517 0f4c 02       		.uleb128 0x2
 10518 0f4d 91       		.byte	0x91
 10519 0f4e 54       		.sleb128 -44
 10520 0f4f 1C       		.uleb128 0x1c
 10521 0f50 5C020000 		.4byte	.LASF184
 10522 0f54 01       		.byte	0x1
 10523 0f55 1301     		.2byte	0x113
 10524 0f57 CC100000 		.4byte	0x10cc
 10525 0f5b 03       		.uleb128 0x3
 10526 0f5c 91       		.byte	0x91
 10527 0f5d B87F     		.sleb128 -72
 10528 0f5f 1D       		.uleb128 0x1d
 10529 0f60 7800     		.ascii	"x\000"
 10530 0f62 01       		.byte	0x1
 10531 0f63 1401     		.2byte	0x114
 10532 0f65 AD000000 		.4byte	0xad
 10533 0f69 00000000 		.4byte	.LLST0
 10534 0f6d 17       		.uleb128 0x17
 10535 0f6e 3A000000 		.4byte	.LVL90
 10536 0f72 EF3B0000 		.4byte	0x3bef
 10537 0f76 8E0F0000 		.4byte	0xf8e
 10538 0f7a 18       		.uleb128 0x18
 10539 0f7b 01       		.uleb128 0x1
 10540 0f7c 51       		.byte	0x51
 10541 0f7d 0A       		.uleb128 0xa
 10542 0f7e 91       		.byte	0x91
 10543 0f7f 00       		.sleb128 0
 10544 0f80 74       		.byte	0x74
 10545 0f81 00       		.sleb128 0
 10546 0f82 22       		.byte	0x22
 10547 0f83 08       		.byte	0x8
 10548 0f84 2C       		.byte	0x2c
 10549 0f85 1C       		.byte	0x1c
 10550 0f86 94       		.byte	0x94
 10551 0f87 01       		.byte	0x1
 10552 0f88 18       		.uleb128 0x18
 10553 0f89 01       		.uleb128 0x1
 10554 0f8a 50       		.byte	0x50
 10555 0f8b 01       		.uleb128 0x1
 10556 0f8c 31       		.byte	0x31
 10557 0f8d 00       		.byte	0
 10558 0f8e 17       		.uleb128 0x17
 10559 0f8f 4A000000 		.4byte	.LVL93
 10560 0f93 EF3B0000 		.4byte	0x3bef
 10561 0f97 A60F0000 		.4byte	0xfa6
 10562 0f9b 18       		.uleb128 0x18
 10563 0f9c 01       		.uleb128 0x1
ARM GAS  C:\Users\RECEPC~1\AppData\Local\Temp\cc6Stwwd.s 			page 249


 10564 0f9d 51       		.byte	0x51
 10565 0f9e 01       		.uleb128 0x1
 10566 0f9f 3A       		.byte	0x3a
 10567 0fa0 18       		.uleb128 0x18
 10568 0fa1 01       		.uleb128 0x1
 10569 0fa2 50       		.byte	0x50
 10570 0fa3 01       		.uleb128 0x1
 10571 0fa4 31       		.byte	0x31
 10572 0fa5 00       		.byte	0
 10573 0fa6 17       		.uleb128 0x17
 10574 0fa7 52000000 		.4byte	.LVL94
 10575 0fab EF3B0000 		.4byte	0x3bef
 10576 0faf BE0F0000 		.4byte	0xfbe
 10577 0fb3 18       		.uleb128 0x18
 10578 0fb4 01       		.uleb128 0x1
 10579 0fb5 51       		.byte	0x51
 10580 0fb6 01       		.uleb128 0x1
 10581 0fb7 3A       		.byte	0x3a
 10582 0fb8 18       		.uleb128 0x18
 10583 0fb9 01       		.uleb128 0x1
 10584 0fba 50       		.byte	0x50
 10585 0fbb 01       		.uleb128 0x1
 10586 0fbc 31       		.byte	0x31
 10587 0fbd 00       		.byte	0
 10588 0fbe 17       		.uleb128 0x17
 10589 0fbf 5A000000 		.4byte	.LVL95
 10590 0fc3 EF3B0000 		.4byte	0x3bef
 10591 0fc7 D60F0000 		.4byte	0xfd6
 10592 0fcb 18       		.uleb128 0x18
 10593 0fcc 01       		.uleb128 0x1
 10594 0fcd 51       		.byte	0x51
 10595 0fce 01       		.uleb128 0x1
 10596 0fcf 3A       		.byte	0x3a
 10597 0fd0 18       		.uleb128 0x18
 10598 0fd1 01       		.uleb128 0x1
 10599 0fd2 50       		.byte	0x50
 10600 0fd3 01       		.uleb128 0x1
 10601 0fd4 31       		.byte	0x31
 10602 0fd5 00       		.byte	0
 10603 0fd6 17       		.uleb128 0x17
 10604 0fd7 62000000 		.4byte	.LVL96
 10605 0fdb EF3B0000 		.4byte	0x3bef
 10606 0fdf EE0F0000 		.4byte	0xfee
 10607 0fe3 18       		.uleb128 0x18
 10608 0fe4 01       		.uleb128 0x1
 10609 0fe5 51       		.byte	0x51
 10610 0fe6 01       		.uleb128 0x1
 10611 0fe7 3A       		.byte	0x3a
 10612 0fe8 18       		.uleb128 0x18
 10613 0fe9 01       		.uleb128 0x1
 10614 0fea 50       		.byte	0x50
 10615 0feb 01       		.uleb128 0x1
 10616 0fec 31       		.byte	0x31
 10617 0fed 00       		.byte	0
 10618 0fee 17       		.uleb128 0x17
 10619 0fef 6A000000 		.4byte	.LVL97
 10620 0ff3 EF3B0000 		.4byte	0x3bef
ARM GAS  C:\Users\RECEPC~1\AppData\Local\Temp\cc6Stwwd.s 			page 250


 10621 0ff7 06100000 		.4byte	0x1006
 10622 0ffb 18       		.uleb128 0x18
 10623 0ffc 01       		.uleb128 0x1
 10624 0ffd 51       		.byte	0x51
 10625 0ffe 01       		.uleb128 0x1
 10626 0fff 3A       		.byte	0x3a
 10627 1000 18       		.uleb128 0x18
 10628 1001 01       		.uleb128 0x1
 10629 1002 50       		.byte	0x50
 10630 1003 01       		.uleb128 0x1
 10631 1004 31       		.byte	0x31
 10632 1005 00       		.byte	0
 10633 1006 17       		.uleb128 0x17
 10634 1007 72000000 		.4byte	.LVL98
 10635 100b EF3B0000 		.4byte	0x3bef
 10636 100f 1E100000 		.4byte	0x101e
 10637 1013 18       		.uleb128 0x18
 10638 1014 01       		.uleb128 0x1
 10639 1015 51       		.byte	0x51
 10640 1016 01       		.uleb128 0x1
 10641 1017 3A       		.byte	0x3a
 10642 1018 18       		.uleb128 0x18
 10643 1019 01       		.uleb128 0x1
 10644 101a 50       		.byte	0x50
 10645 101b 01       		.uleb128 0x1
 10646 101c 31       		.byte	0x31
 10647 101d 00       		.byte	0
 10648 101e 17       		.uleb128 0x17
 10649 101f 84000000 		.4byte	.LVL100
 10650 1023 EF3B0000 		.4byte	0x3bef
 10651 1027 3F100000 		.4byte	0x103f
 10652 102b 18       		.uleb128 0x18
 10653 102c 01       		.uleb128 0x1
 10654 102d 51       		.byte	0x51
 10655 102e 0A       		.uleb128 0xa
 10656 102f 91       		.byte	0x91
 10657 1030 00       		.sleb128 0
 10658 1031 74       		.byte	0x74
 10659 1032 00       		.sleb128 0
 10660 1033 22       		.byte	0x22
 10661 1034 08       		.byte	0x8
 10662 1035 48       		.byte	0x48
 10663 1036 1C       		.byte	0x1c
 10664 1037 94       		.byte	0x94
 10665 1038 01       		.byte	0x1
 10666 1039 18       		.uleb128 0x18
 10667 103a 01       		.uleb128 0x1
 10668 103b 50       		.byte	0x50
 10669 103c 01       		.uleb128 0x1
 10670 103d 32       		.byte	0x32
 10671 103e 00       		.byte	0
 10672 103f 17       		.uleb128 0x17
 10673 1040 94000000 		.4byte	.LVL103
 10674 1044 EF3B0000 		.4byte	0x3bef
 10675 1048 57100000 		.4byte	0x1057
 10676 104c 18       		.uleb128 0x18
 10677 104d 01       		.uleb128 0x1
ARM GAS  C:\Users\RECEPC~1\AppData\Local\Temp\cc6Stwwd.s 			page 251


 10678 104e 51       		.byte	0x51
 10679 104f 01       		.uleb128 0x1
 10680 1050 3A       		.byte	0x3a
 10681 1051 18       		.uleb128 0x18
 10682 1052 01       		.uleb128 0x1
 10683 1053 50       		.byte	0x50
 10684 1054 01       		.uleb128 0x1
 10685 1055 32       		.byte	0x32
 10686 1056 00       		.byte	0
 10687 1057 17       		.uleb128 0x17
 10688 1058 9C000000 		.4byte	.LVL104
 10689 105c EF3B0000 		.4byte	0x3bef
 10690 1060 6F100000 		.4byte	0x106f
 10691 1064 18       		.uleb128 0x18
 10692 1065 01       		.uleb128 0x1
 10693 1066 51       		.byte	0x51
 10694 1067 01       		.uleb128 0x1
 10695 1068 3A       		.byte	0x3a
 10696 1069 18       		.uleb128 0x18
 10697 106a 01       		.uleb128 0x1
 10698 106b 50       		.byte	0x50
 10699 106c 01       		.uleb128 0x1
 10700 106d 32       		.byte	0x32
 10701 106e 00       		.byte	0
 10702 106f 17       		.uleb128 0x17
 10703 1070 A4000000 		.4byte	.LVL105
 10704 1074 EF3B0000 		.4byte	0x3bef
 10705 1078 87100000 		.4byte	0x1087
 10706 107c 18       		.uleb128 0x18
 10707 107d 01       		.uleb128 0x1
 10708 107e 51       		.byte	0x51
 10709 107f 01       		.uleb128 0x1
 10710 1080 3A       		.byte	0x3a
 10711 1081 18       		.uleb128 0x18
 10712 1082 01       		.uleb128 0x1
 10713 1083 50       		.byte	0x50
 10714 1084 01       		.uleb128 0x1
 10715 1085 32       		.byte	0x32
 10716 1086 00       		.byte	0
 10717 1087 17       		.uleb128 0x17
 10718 1088 AC000000 		.4byte	.LVL106
 10719 108c EF3B0000 		.4byte	0x3bef
 10720 1090 9F100000 		.4byte	0x109f
 10721 1094 18       		.uleb128 0x18
 10722 1095 01       		.uleb128 0x1
 10723 1096 51       		.byte	0x51
 10724 1097 01       		.uleb128 0x1
 10725 1098 3A       		.byte	0x3a
 10726 1099 18       		.uleb128 0x18
 10727 109a 01       		.uleb128 0x1
 10728 109b 50       		.byte	0x50
 10729 109c 01       		.uleb128 0x1
 10730 109d 32       		.byte	0x32
 10731 109e 00       		.byte	0
 10732 109f 17       		.uleb128 0x17
 10733 10a0 B4000000 		.4byte	.LVL107
 10734 10a4 EF3B0000 		.4byte	0x3bef
ARM GAS  C:\Users\RECEPC~1\AppData\Local\Temp\cc6Stwwd.s 			page 252


 10735 10a8 B7100000 		.4byte	0x10b7
 10736 10ac 18       		.uleb128 0x18
 10737 10ad 01       		.uleb128 0x1
 10738 10ae 51       		.byte	0x51
 10739 10af 01       		.uleb128 0x1
 10740 10b0 3A       		.byte	0x3a
 10741 10b1 18       		.uleb128 0x18
 10742 10b2 01       		.uleb128 0x1
 10743 10b3 50       		.byte	0x50
 10744 10b4 01       		.uleb128 0x1
 10745 10b5 32       		.byte	0x32
 10746 10b6 00       		.byte	0
 10747 10b7 19       		.uleb128 0x19
 10748 10b8 BC000000 		.4byte	.LVL108
 10749 10bc EF3B0000 		.4byte	0x3bef
 10750 10c0 18       		.uleb128 0x18
 10751 10c1 01       		.uleb128 0x1
 10752 10c2 51       		.byte	0x51
 10753 10c3 01       		.uleb128 0x1
 10754 10c4 3A       		.byte	0x3a
 10755 10c5 18       		.uleb128 0x18
 10756 10c6 01       		.uleb128 0x1
 10757 10c7 50       		.byte	0x50
 10758 10c8 01       		.uleb128 0x1
 10759 10c9 32       		.byte	0x32
 10760 10ca 00       		.byte	0
 10761 10cb 00       		.byte	0
 10762 10cc 0A       		.uleb128 0xa
 10763 10cd AD000000 		.4byte	0xad
 10764 10d1 DC100000 		.4byte	0x10dc
 10765 10d5 0B       		.uleb128 0xb
 10766 10d6 27010000 		.4byte	0x127
 10767 10da 19       		.byte	0x19
 10768 10db 00       		.byte	0
 10769 10dc 14       		.uleb128 0x14
 10770 10dd BE000000 		.4byte	.LASF185
 10771 10e1 01       		.byte	0x1
 10772 10e2 3301     		.2byte	0x133
 10773 10e4 00000000 		.4byte	.LFB70
 10774 10e8 6C010000 		.4byte	.LFE70-.LFB70
 10775 10ec 01       		.uleb128 0x1
 10776 10ed 9C       		.byte	0x9c
 10777 10ee 0C120000 		.4byte	0x120c
 10778 10f2 1D       		.uleb128 0x1d
 10779 10f3 7800     		.ascii	"x\000"
 10780 10f5 01       		.byte	0x1
 10781 10f6 3401     		.2byte	0x134
 10782 10f8 AD000000 		.4byte	0xad
 10783 10fc 4C000000 		.4byte	.LLST1
 10784 1100 15       		.uleb128 0x15
 10785 1101 22000000 		.4byte	.LVL110
 10786 1105 A93B0000 		.4byte	0x3ba9
 10787 1109 15       		.uleb128 0x15
 10788 110a 26000000 		.4byte	.LVL111
 10789 110e BE3B0000 		.4byte	0x3bbe
 10790 1112 15       		.uleb128 0x15
 10791 1113 32000000 		.4byte	.LVL112
ARM GAS  C:\Users\RECEPC~1\AppData\Local\Temp\cc6Stwwd.s 			page 253


 10792 1117 A93B0000 		.4byte	0x3ba9
 10793 111b 15       		.uleb128 0x15
 10794 111c 36000000 		.4byte	.LVL113
 10795 1120 BE3B0000 		.4byte	0x3bbe
 10796 1124 15       		.uleb128 0x15
 10797 1125 5E000000 		.4byte	.LVL120
 10798 1129 A93B0000 		.4byte	0x3ba9
 10799 112d 15       		.uleb128 0x15
 10800 112e 6A000000 		.4byte	.LVL121
 10801 1132 A93B0000 		.4byte	0x3ba9
 10802 1136 15       		.uleb128 0x15
 10803 1137 7C000000 		.4byte	.LVL122
 10804 113b A93B0000 		.4byte	0x3ba9
 10805 113f 15       		.uleb128 0x15
 10806 1140 88000000 		.4byte	.LVL123
 10807 1144 A93B0000 		.4byte	0x3ba9
 10808 1148 15       		.uleb128 0x15
 10809 1149 92000000 		.4byte	.LVL124
 10810 114d A93B0000 		.4byte	0x3ba9
 10811 1151 15       		.uleb128 0x15
 10812 1152 9C000000 		.4byte	.LVL125
 10813 1156 A93B0000 		.4byte	0x3ba9
 10814 115a 15       		.uleb128 0x15
 10815 115b A8000000 		.4byte	.LVL126
 10816 115f FD0D0000 		.4byte	0xdfd
 10817 1163 15       		.uleb128 0x15
 10818 1164 B0000000 		.4byte	.LVL127
 10819 1168 A93B0000 		.4byte	0x3ba9
 10820 116c 15       		.uleb128 0x15
 10821 116d B4000000 		.4byte	.LVL128
 10822 1171 BE3B0000 		.4byte	0x3bbe
 10823 1175 17       		.uleb128 0x17
 10824 1176 BE000000 		.4byte	.LVL129
 10825 117a 563B0000 		.4byte	0x3b56
 10826 117e 8D110000 		.4byte	0x118d
 10827 1182 18       		.uleb128 0x18
 10828 1183 01       		.uleb128 0x1
 10829 1184 51       		.byte	0x51
 10830 1185 01       		.uleb128 0x1
 10831 1186 30       		.byte	0x30
 10832 1187 18       		.uleb128 0x18
 10833 1188 01       		.uleb128 0x1
 10834 1189 50       		.byte	0x50
 10835 118a 01       		.uleb128 0x1
 10836 118b 31       		.byte	0x31
 10837 118c 00       		.byte	0
 10838 118d 17       		.uleb128 0x17
 10839 118e C6000000 		.4byte	.LVL130
 10840 1192 563B0000 		.4byte	0x3b56
 10841 1196 A5110000 		.4byte	0x11a5
 10842 119a 18       		.uleb128 0x18
 10843 119b 01       		.uleb128 0x1
 10844 119c 51       		.byte	0x51
 10845 119d 01       		.uleb128 0x1
 10846 119e 30       		.byte	0x30
 10847 119f 18       		.uleb128 0x18
 10848 11a0 01       		.uleb128 0x1
ARM GAS  C:\Users\RECEPC~1\AppData\Local\Temp\cc6Stwwd.s 			page 254


 10849 11a1 50       		.byte	0x50
 10850 11a2 01       		.uleb128 0x1
 10851 11a3 32       		.byte	0x32
 10852 11a4 00       		.byte	0
 10853 11a5 15       		.uleb128 0x15
 10854 11a6 DE000000 		.4byte	.LVL131
 10855 11aa A93B0000 		.4byte	0x3ba9
 10856 11ae 15       		.uleb128 0x15
 10857 11af E2000000 		.4byte	.LVL132
 10858 11b3 BE3B0000 		.4byte	0x3bbe
 10859 11b7 17       		.uleb128 0x17
 10860 11b8 EC000000 		.4byte	.LVL133
 10861 11bc 563B0000 		.4byte	0x3b56
 10862 11c0 CF110000 		.4byte	0x11cf
 10863 11c4 18       		.uleb128 0x18
 10864 11c5 01       		.uleb128 0x1
 10865 11c6 51       		.byte	0x51
 10866 11c7 01       		.uleb128 0x1
 10867 11c8 30       		.byte	0x30
 10868 11c9 18       		.uleb128 0x18
 10869 11ca 01       		.uleb128 0x1
 10870 11cb 50       		.byte	0x50
 10871 11cc 01       		.uleb128 0x1
 10872 11cd 31       		.byte	0x31
 10873 11ce 00       		.byte	0
 10874 11cf 17       		.uleb128 0x17
 10875 11d0 F4000000 		.4byte	.LVL134
 10876 11d4 563B0000 		.4byte	0x3b56
 10877 11d8 E7110000 		.4byte	0x11e7
 10878 11dc 18       		.uleb128 0x18
 10879 11dd 01       		.uleb128 0x1
 10880 11de 51       		.byte	0x51
 10881 11df 01       		.uleb128 0x1
 10882 11e0 30       		.byte	0x30
 10883 11e1 18       		.uleb128 0x18
 10884 11e2 01       		.uleb128 0x1
 10885 11e3 50       		.byte	0x50
 10886 11e4 01       		.uleb128 0x1
 10887 11e5 32       		.byte	0x32
 10888 11e6 00       		.byte	0
 10889 11e7 15       		.uleb128 0x15
 10890 11e8 1A010000 		.4byte	.LVL135
 10891 11ec A93B0000 		.4byte	0x3ba9
 10892 11f0 15       		.uleb128 0x15
 10893 11f1 26010000 		.4byte	.LVL136
 10894 11f5 093C0000 		.4byte	0x3c09
 10895 11f9 15       		.uleb128 0x15
 10896 11fa 30010000 		.4byte	.LVL137
 10897 11fe A93B0000 		.4byte	0x3ba9
 10898 1202 15       		.uleb128 0x15
 10899 1203 3E010000 		.4byte	.LVL138
 10900 1207 093C0000 		.4byte	0x3c09
 10901 120b 00       		.byte	0
 10902 120c 14       		.uleb128 0x14
 10903 120d 1E030000 		.4byte	.LASF186
 10904 1211 01       		.byte	0x1
 10905 1212 6B01     		.2byte	0x16b
ARM GAS  C:\Users\RECEPC~1\AppData\Local\Temp\cc6Stwwd.s 			page 255


 10906 1214 00000000 		.4byte	.LFB71
 10907 1218 20140000 		.4byte	.LFE71-.LFB71
 10908 121c 01       		.uleb128 0x1
 10909 121d 9C       		.byte	0x9c
 10910 121e 7B220000 		.4byte	0x227b
 10911 1222 1D       		.uleb128 0x1d
 10912 1223 7800     		.ascii	"x\000"
 10913 1225 01       		.byte	0x1
 10914 1226 6C01     		.2byte	0x16c
 10915 1228 AD000000 		.4byte	0xad
 10916 122c 75000000 		.4byte	.LLST2
 10917 1230 1D       		.uleb128 0x1d
 10918 1231 7900     		.ascii	"y\000"
 10919 1233 01       		.byte	0x1
 10920 1234 6C01     		.2byte	0x16c
 10921 1236 AD000000 		.4byte	0xad
 10922 123a 61030000 		.4byte	.LLST3
 10923 123e 15       		.uleb128 0x15
 10924 123f 3E000000 		.4byte	.LVL139
 10925 1243 820A0000 		.4byte	0xa82
 10926 1247 15       		.uleb128 0x15
 10927 1248 48000000 		.4byte	.LVL140
 10928 124c 1E3C0000 		.4byte	0x3c1e
 10929 1250 15       		.uleb128 0x15
 10930 1251 4C000000 		.4byte	.LVL141
 10931 1255 253C0000 		.4byte	0x3c25
 10932 1259 15       		.uleb128 0x15
 10933 125a 8E000000 		.4byte	.LVL142
 10934 125e 2C3C0000 		.4byte	0x3c2c
 10935 1262 15       		.uleb128 0x15
 10936 1263 A4000000 		.4byte	.LVL143
 10937 1267 423C0000 		.4byte	0x3c42
 10938 126b 17       		.uleb128 0x17
 10939 126c D6000000 		.4byte	.LVL144
 10940 1270 563B0000 		.4byte	0x3b56
 10941 1274 83120000 		.4byte	0x1283
 10942 1278 18       		.uleb128 0x18
 10943 1279 01       		.uleb128 0x1
 10944 127a 51       		.byte	0x51
 10945 127b 01       		.uleb128 0x1
 10946 127c 34       		.byte	0x34
 10947 127d 18       		.uleb128 0x18
 10948 127e 01       		.uleb128 0x1
 10949 127f 50       		.byte	0x50
 10950 1280 01       		.uleb128 0x1
 10951 1281 31       		.byte	0x31
 10952 1282 00       		.byte	0
 10953 1283 17       		.uleb128 0x17
 10954 1284 DC000000 		.4byte	.LVL145
 10955 1288 8D3B0000 		.4byte	0x3b8d
 10956 128c 96120000 		.4byte	0x1296
 10957 1290 18       		.uleb128 0x18
 10958 1291 01       		.uleb128 0x1
 10959 1292 50       		.byte	0x50
 10960 1293 01       		.uleb128 0x1
 10961 1294 3A       		.byte	0x3a
 10962 1295 00       		.byte	0
ARM GAS  C:\Users\RECEPC~1\AppData\Local\Temp\cc6Stwwd.s 			page 256


 10963 1296 15       		.uleb128 0x15
 10964 1297 E0000000 		.4byte	.LVL146
 10965 129b 4D3C0000 		.4byte	0x3c4d
 10966 129f 15       		.uleb128 0x15
 10967 12a0 E8000000 		.4byte	.LVL147
 10968 12a4 423C0000 		.4byte	0x3c42
 10969 12a8 17       		.uleb128 0x17
 10970 12a9 40010000 		.4byte	.LVL148
 10971 12ad 563B0000 		.4byte	0x3b56
 10972 12b1 C0120000 		.4byte	0x12c0
 10973 12b5 18       		.uleb128 0x18
 10974 12b6 01       		.uleb128 0x1
 10975 12b7 51       		.byte	0x51
 10976 12b8 01       		.uleb128 0x1
 10977 12b9 35       		.byte	0x35
 10978 12ba 18       		.uleb128 0x18
 10979 12bb 01       		.uleb128 0x1
 10980 12bc 50       		.byte	0x50
 10981 12bd 01       		.uleb128 0x1
 10982 12be 31       		.byte	0x31
 10983 12bf 00       		.byte	0
 10984 12c0 17       		.uleb128 0x17
 10985 12c1 5E010000 		.4byte	.LVL149
 10986 12c5 563B0000 		.4byte	0x3b56
 10987 12c9 D9120000 		.4byte	0x12d9
 10988 12cd 18       		.uleb128 0x18
 10989 12ce 01       		.uleb128 0x1
 10990 12cf 51       		.byte	0x51
 10991 12d0 02       		.uleb128 0x2
 10992 12d1 08       		.byte	0x8
 10993 12d2 85       		.byte	0x85
 10994 12d3 18       		.uleb128 0x18
 10995 12d4 01       		.uleb128 0x1
 10996 12d5 50       		.byte	0x50
 10997 12d6 01       		.uleb128 0x1
 10998 12d7 31       		.byte	0x31
 10999 12d8 00       		.byte	0
 11000 12d9 17       		.uleb128 0x17
 11001 12da 6E010000 		.4byte	.LVL150
 11002 12de 563B0000 		.4byte	0x3b56
 11003 12e2 F2120000 		.4byte	0x12f2
 11004 12e6 18       		.uleb128 0x18
 11005 12e7 01       		.uleb128 0x1
 11006 12e8 51       		.byte	0x51
 11007 12e9 02       		.uleb128 0x2
 11008 12ea 08       		.byte	0x8
 11009 12eb 83       		.byte	0x83
 11010 12ec 18       		.uleb128 0x18
 11011 12ed 01       		.uleb128 0x1
 11012 12ee 50       		.byte	0x50
 11013 12ef 01       		.uleb128 0x1
 11014 12f0 31       		.byte	0x31
 11015 12f1 00       		.byte	0
 11016 12f2 17       		.uleb128 0x17
 11017 12f3 7E010000 		.4byte	.LVL151
 11018 12f7 563B0000 		.4byte	0x3b56
 11019 12fb 0A130000 		.4byte	0x130a
ARM GAS  C:\Users\RECEPC~1\AppData\Local\Temp\cc6Stwwd.s 			page 257


 11020 12ff 18       		.uleb128 0x18
 11021 1300 01       		.uleb128 0x1
 11022 1301 51       		.byte	0x51
 11023 1302 01       		.uleb128 0x1
 11024 1303 31       		.byte	0x31
 11025 1304 18       		.uleb128 0x18
 11026 1305 01       		.uleb128 0x1
 11027 1306 50       		.byte	0x50
 11028 1307 01       		.uleb128 0x1
 11029 1308 31       		.byte	0x31
 11030 1309 00       		.byte	0
 11031 130a 17       		.uleb128 0x17
 11032 130b 8E010000 		.4byte	.LVL152
 11033 130f 563B0000 		.4byte	0x3b56
 11034 1313 22130000 		.4byte	0x1322
 11035 1317 18       		.uleb128 0x18
 11036 1318 01       		.uleb128 0x1
 11037 1319 51       		.byte	0x51
 11038 131a 01       		.uleb128 0x1
 11039 131b 31       		.byte	0x31
 11040 131c 18       		.uleb128 0x18
 11041 131d 01       		.uleb128 0x1
 11042 131e 50       		.byte	0x50
 11043 131f 01       		.uleb128 0x1
 11044 1320 31       		.byte	0x31
 11045 1321 00       		.byte	0
 11046 1322 17       		.uleb128 0x17
 11047 1323 94010000 		.4byte	.LVL153
 11048 1327 8D3B0000 		.4byte	0x3b8d
 11049 132b 35130000 		.4byte	0x1335
 11050 132f 18       		.uleb128 0x18
 11051 1330 01       		.uleb128 0x1
 11052 1331 50       		.byte	0x50
 11053 1332 01       		.uleb128 0x1
 11054 1333 3A       		.byte	0x3a
 11055 1334 00       		.byte	0
 11056 1335 15       		.uleb128 0x15
 11057 1336 98010000 		.4byte	.LVL154
 11058 133a 4D3C0000 		.4byte	0x3c4d
 11059 133e 15       		.uleb128 0x15
 11060 133f A0010000 		.4byte	.LVL155
 11061 1343 423C0000 		.4byte	0x3c42
 11062 1347 17       		.uleb128 0x17
 11063 1348 18020000 		.4byte	.LVL156
 11064 134c 563B0000 		.4byte	0x3b56
 11065 1350 5F130000 		.4byte	0x135f
 11066 1354 18       		.uleb128 0x18
 11067 1355 01       		.uleb128 0x1
 11068 1356 51       		.byte	0x51
 11069 1357 01       		.uleb128 0x1
 11070 1358 36       		.byte	0x36
 11071 1359 18       		.uleb128 0x18
 11072 135a 01       		.uleb128 0x1
 11073 135b 50       		.byte	0x50
 11074 135c 01       		.uleb128 0x1
 11075 135d 31       		.byte	0x31
 11076 135e 00       		.byte	0
ARM GAS  C:\Users\RECEPC~1\AppData\Local\Temp\cc6Stwwd.s 			page 258


 11077 135f 17       		.uleb128 0x17
 11078 1360 2C020000 		.4byte	.LVL157
 11079 1364 543C0000 		.4byte	0x3c54
 11080 1368 97130000 		.4byte	0x1397
 11081 136c 18       		.uleb128 0x18
 11082 136d 01       		.uleb128 0x1
 11083 136e 53       		.byte	0x53
 11084 136f 02       		.uleb128 0x2
 11085 1370 74       		.byte	0x74
 11086 1371 00       		.sleb128 0
 11087 1372 18       		.uleb128 0x18
 11088 1373 01       		.uleb128 0x1
 11089 1374 52       		.byte	0x52
 11090 1375 01       		.uleb128 0x1
 11091 1376 33       		.byte	0x33
 11092 1377 18       		.uleb128 0x18
 11093 1378 01       		.uleb128 0x1
 11094 1379 51       		.byte	0x51
 11095 137a 02       		.uleb128 0x2
 11096 137b 08       		.byte	0x8
 11097 137c 24       		.byte	0x24
 11098 137d 18       		.uleb128 0x18
 11099 137e 01       		.uleb128 0x1
 11100 137f 50       		.byte	0x50
 11101 1380 01       		.uleb128 0x1
 11102 1381 31       		.byte	0x31
 11103 1382 18       		.uleb128 0x18
 11104 1383 02       		.uleb128 0x2
 11105 1384 7D       		.byte	0x7d
 11106 1385 08       		.sleb128 8
 11107 1386 02       		.uleb128 0x2
 11108 1387 08       		.byte	0x8
 11109 1388 4E       		.byte	0x4e
 11110 1389 18       		.uleb128 0x18
 11111 138a 02       		.uleb128 0x2
 11112 138b 7D       		.byte	0x7d
 11113 138c 04       		.sleb128 4
 11114 138d 02       		.uleb128 0x2
 11115 138e 75       		.byte	0x75
 11116 138f 00       		.sleb128 0
 11117 1390 18       		.uleb128 0x18
 11118 1391 02       		.uleb128 0x2
 11119 1392 7D       		.byte	0x7d
 11120 1393 00       		.sleb128 0
 11121 1394 01       		.uleb128 0x1
 11122 1395 31       		.byte	0x31
 11123 1396 00       		.byte	0
 11124 1397 17       		.uleb128 0x17
 11125 1398 62020000 		.4byte	.LVL158
 11126 139c 563B0000 		.4byte	0x3b56
 11127 13a0 B0130000 		.4byte	0x13b0
 11128 13a4 18       		.uleb128 0x18
 11129 13a5 01       		.uleb128 0x1
 11130 13a6 51       		.byte	0x51
 11131 13a7 01       		.uleb128 0x1
 11132 13a8 3D       		.byte	0x3d
 11133 13a9 18       		.uleb128 0x18
ARM GAS  C:\Users\RECEPC~1\AppData\Local\Temp\cc6Stwwd.s 			page 259


 11134 13aa 01       		.uleb128 0x1
 11135 13ab 50       		.byte	0x50
 11136 13ac 02       		.uleb128 0x2
 11137 13ad 74       		.byte	0x74
 11138 13ae 00       		.sleb128 0
 11139 13af 00       		.byte	0
 11140 13b0 17       		.uleb128 0x17
 11141 13b1 76020000 		.4byte	.LVL159
 11142 13b5 543C0000 		.4byte	0x3c54
 11143 13b9 E9130000 		.4byte	0x13e9
 11144 13bd 18       		.uleb128 0x18
 11145 13be 01       		.uleb128 0x1
 11146 13bf 53       		.byte	0x53
 11147 13c0 01       		.uleb128 0x1
 11148 13c1 32       		.byte	0x32
 11149 13c2 18       		.uleb128 0x18
 11150 13c3 01       		.uleb128 0x1
 11151 13c4 52       		.byte	0x52
 11152 13c5 01       		.uleb128 0x1
 11153 13c6 33       		.byte	0x33
 11154 13c7 18       		.uleb128 0x18
 11155 13c8 01       		.uleb128 0x1
 11156 13c9 51       		.byte	0x51
 11157 13ca 02       		.uleb128 0x2
 11158 13cb 75       		.byte	0x75
 11159 13cc 00       		.sleb128 0
 11160 13cd 18       		.uleb128 0x18
 11161 13ce 01       		.uleb128 0x1
 11162 13cf 50       		.byte	0x50
 11163 13d0 02       		.uleb128 0x2
 11164 13d1 74       		.byte	0x74
 11165 13d2 00       		.sleb128 0
 11166 13d3 18       		.uleb128 0x18
 11167 13d4 02       		.uleb128 0x2
 11168 13d5 7D       		.byte	0x7d
 11169 13d6 08       		.sleb128 8
 11170 13d7 02       		.uleb128 0x2
 11171 13d8 08       		.byte	0x8
 11172 13d9 4E       		.byte	0x4e
 11173 13da 18       		.uleb128 0x18
 11174 13db 02       		.uleb128 0x2
 11175 13dc 7D       		.byte	0x7d
 11176 13dd 04       		.sleb128 4
 11177 13de 02       		.uleb128 0x2
 11178 13df 76       		.byte	0x76
 11179 13e0 00       		.sleb128 0
 11180 13e1 18       		.uleb128 0x18
 11181 13e2 02       		.uleb128 0x2
 11182 13e3 7D       		.byte	0x7d
 11183 13e4 00       		.sleb128 0
 11184 13e5 02       		.uleb128 0x2
 11185 13e6 74       		.byte	0x74
 11186 13e7 00       		.sleb128 0
 11187 13e8 00       		.byte	0
 11188 13e9 17       		.uleb128 0x17
 11189 13ea 1A030000 		.4byte	.LVL170
 11190 13ee 563B0000 		.4byte	0x3b56
ARM GAS  C:\Users\RECEPC~1\AppData\Local\Temp\cc6Stwwd.s 			page 260


 11191 13f2 02140000 		.4byte	0x1402
 11192 13f6 18       		.uleb128 0x18
 11193 13f7 01       		.uleb128 0x1
 11194 13f8 51       		.byte	0x51
 11195 13f9 02       		.uleb128 0x2
 11196 13fa 08       		.byte	0x8
 11197 13fb 86       		.byte	0x86
 11198 13fc 18       		.uleb128 0x18
 11199 13fd 01       		.uleb128 0x1
 11200 13fe 50       		.byte	0x50
 11201 13ff 01       		.uleb128 0x1
 11202 1400 31       		.byte	0x31
 11203 1401 00       		.byte	0
 11204 1402 17       		.uleb128 0x17
 11205 1403 2A030000 		.4byte	.LVL171
 11206 1407 563B0000 		.4byte	0x3b56
 11207 140b 1A140000 		.4byte	0x141a
 11208 140f 18       		.uleb128 0x18
 11209 1410 01       		.uleb128 0x1
 11210 1411 51       		.byte	0x51
 11211 1412 01       		.uleb128 0x1
 11212 1413 31       		.byte	0x31
 11213 1414 18       		.uleb128 0x18
 11214 1415 01       		.uleb128 0x1
 11215 1416 50       		.byte	0x50
 11216 1417 01       		.uleb128 0x1
 11217 1418 31       		.byte	0x31
 11218 1419 00       		.byte	0
 11219 141a 17       		.uleb128 0x17
 11220 141b 3A030000 		.4byte	.LVL172
 11221 141f 563B0000 		.4byte	0x3b56
 11222 1423 32140000 		.4byte	0x1432
 11223 1427 18       		.uleb128 0x18
 11224 1428 01       		.uleb128 0x1
 11225 1429 51       		.byte	0x51
 11226 142a 01       		.uleb128 0x1
 11227 142b 31       		.byte	0x31
 11228 142c 18       		.uleb128 0x18
 11229 142d 01       		.uleb128 0x1
 11230 142e 50       		.byte	0x50
 11231 142f 01       		.uleb128 0x1
 11232 1430 31       		.byte	0x31
 11233 1431 00       		.byte	0
 11234 1432 17       		.uleb128 0x17
 11235 1433 4A030000 		.4byte	.LVL173
 11236 1437 563B0000 		.4byte	0x3b56
 11237 143b 4A140000 		.4byte	0x144a
 11238 143f 18       		.uleb128 0x18
 11239 1440 01       		.uleb128 0x1
 11240 1441 51       		.byte	0x51
 11241 1442 01       		.uleb128 0x1
 11242 1443 31       		.byte	0x31
 11243 1444 18       		.uleb128 0x18
 11244 1445 01       		.uleb128 0x1
 11245 1446 50       		.byte	0x50
 11246 1447 01       		.uleb128 0x1
 11247 1448 31       		.byte	0x31
ARM GAS  C:\Users\RECEPC~1\AppData\Local\Temp\cc6Stwwd.s 			page 261


 11248 1449 00       		.byte	0
 11249 144a 17       		.uleb128 0x17
 11250 144b 50030000 		.4byte	.LVL174
 11251 144f 8D3B0000 		.4byte	0x3b8d
 11252 1453 5D140000 		.4byte	0x145d
 11253 1457 18       		.uleb128 0x18
 11254 1458 01       		.uleb128 0x1
 11255 1459 50       		.byte	0x50
 11256 145a 01       		.uleb128 0x1
 11257 145b 3A       		.byte	0x3a
 11258 145c 00       		.byte	0
 11259 145d 15       		.uleb128 0x15
 11260 145e 54030000 		.4byte	.LVL175
 11261 1462 4D3C0000 		.4byte	0x3c4d
 11262 1466 17       		.uleb128 0x17
 11263 1467 64030000 		.4byte	.LVL176
 11264 146b 833C0000 		.4byte	0x3c83
 11265 146f 7E140000 		.4byte	0x147e
 11266 1473 18       		.uleb128 0x18
 11267 1474 01       		.uleb128 0x1
 11268 1475 52       		.byte	0x52
 11269 1476 01       		.uleb128 0x1
 11270 1477 30       		.byte	0x30
 11271 1478 18       		.uleb128 0x18
 11272 1479 01       		.uleb128 0x1
 11273 147a 50       		.byte	0x50
 11274 147b 01       		.uleb128 0x1
 11275 147c 31       		.byte	0x31
 11276 147d 00       		.byte	0
 11277 147e 17       		.uleb128 0x17
 11278 147f 7C030000 		.4byte	.LVL177
 11279 1483 563B0000 		.4byte	0x3b56
 11280 1487 96140000 		.4byte	0x1496
 11281 148b 18       		.uleb128 0x18
 11282 148c 01       		.uleb128 0x1
 11283 148d 51       		.byte	0x51
 11284 148e 01       		.uleb128 0x1
 11285 148f 31       		.byte	0x31
 11286 1490 18       		.uleb128 0x18
 11287 1491 01       		.uleb128 0x1
 11288 1492 50       		.byte	0x50
 11289 1493 01       		.uleb128 0x1
 11290 1494 31       		.byte	0x31
 11291 1495 00       		.byte	0
 11292 1496 17       		.uleb128 0x17
 11293 1497 B0030000 		.4byte	.LVL184
 11294 149b 563B0000 		.4byte	0x3b56
 11295 149f AF140000 		.4byte	0x14af
 11296 14a3 18       		.uleb128 0x18
 11297 14a4 01       		.uleb128 0x1
 11298 14a5 51       		.byte	0x51
 11299 14a6 02       		.uleb128 0x2
 11300 14a7 08       		.byte	0x8
 11301 14a8 86       		.byte	0x86
 11302 14a9 18       		.uleb128 0x18
 11303 14aa 01       		.uleb128 0x1
 11304 14ab 50       		.byte	0x50
ARM GAS  C:\Users\RECEPC~1\AppData\Local\Temp\cc6Stwwd.s 			page 262


 11305 14ac 01       		.uleb128 0x1
 11306 14ad 31       		.byte	0x31
 11307 14ae 00       		.byte	0
 11308 14af 15       		.uleb128 0x15
 11309 14b0 B8030000 		.4byte	.LVL185
 11310 14b4 423C0000 		.4byte	0x3c42
 11311 14b8 17       		.uleb128 0x17
 11312 14b9 3A040000 		.4byte	.LVL186
 11313 14bd 563B0000 		.4byte	0x3b56
 11314 14c1 D0140000 		.4byte	0x14d0
 11315 14c5 18       		.uleb128 0x18
 11316 14c6 01       		.uleb128 0x1
 11317 14c7 51       		.byte	0x51
 11318 14c8 01       		.uleb128 0x1
 11319 14c9 3B       		.byte	0x3b
 11320 14ca 18       		.uleb128 0x18
 11321 14cb 01       		.uleb128 0x1
 11322 14cc 50       		.byte	0x50
 11323 14cd 01       		.uleb128 0x1
 11324 14ce 31       		.byte	0x31
 11325 14cf 00       		.byte	0
 11326 14d0 17       		.uleb128 0x17
 11327 14d1 52040000 		.4byte	.LVL187
 11328 14d5 563B0000 		.4byte	0x3b56
 11329 14d9 E8140000 		.4byte	0x14e8
 11330 14dd 18       		.uleb128 0x18
 11331 14de 01       		.uleb128 0x1
 11332 14df 51       		.byte	0x51
 11333 14e0 01       		.uleb128 0x1
 11334 14e1 3B       		.byte	0x3b
 11335 14e2 18       		.uleb128 0x18
 11336 14e3 01       		.uleb128 0x1
 11337 14e4 50       		.byte	0x50
 11338 14e5 01       		.uleb128 0x1
 11339 14e6 31       		.byte	0x31
 11340 14e7 00       		.byte	0
 11341 14e8 17       		.uleb128 0x17
 11342 14e9 6A040000 		.4byte	.LVL188
 11343 14ed 563B0000 		.4byte	0x3b56
 11344 14f1 00150000 		.4byte	0x1500
 11345 14f5 18       		.uleb128 0x18
 11346 14f6 01       		.uleb128 0x1
 11347 14f7 51       		.byte	0x51
 11348 14f8 01       		.uleb128 0x1
 11349 14f9 3B       		.byte	0x3b
 11350 14fa 18       		.uleb128 0x18
 11351 14fb 01       		.uleb128 0x1
 11352 14fc 50       		.byte	0x50
 11353 14fd 01       		.uleb128 0x1
 11354 14fe 31       		.byte	0x31
 11355 14ff 00       		.byte	0
 11356 1500 17       		.uleb128 0x17
 11357 1501 82040000 		.4byte	.LVL189
 11358 1505 563B0000 		.4byte	0x3b56
 11359 1509 18150000 		.4byte	0x1518
 11360 150d 18       		.uleb128 0x18
 11361 150e 01       		.uleb128 0x1
ARM GAS  C:\Users\RECEPC~1\AppData\Local\Temp\cc6Stwwd.s 			page 263


 11362 150f 51       		.byte	0x51
 11363 1510 01       		.uleb128 0x1
 11364 1511 3B       		.byte	0x3b
 11365 1512 18       		.uleb128 0x18
 11366 1513 01       		.uleb128 0x1
 11367 1514 50       		.byte	0x50
 11368 1515 01       		.uleb128 0x1
 11369 1516 31       		.byte	0x31
 11370 1517 00       		.byte	0
 11371 1518 17       		.uleb128 0x17
 11372 1519 92040000 		.4byte	.LVL190
 11373 151d 563B0000 		.4byte	0x3b56
 11374 1521 30150000 		.4byte	0x1530
 11375 1525 18       		.uleb128 0x18
 11376 1526 01       		.uleb128 0x1
 11377 1527 51       		.byte	0x51
 11378 1528 01       		.uleb128 0x1
 11379 1529 31       		.byte	0x31
 11380 152a 18       		.uleb128 0x18
 11381 152b 01       		.uleb128 0x1
 11382 152c 50       		.byte	0x50
 11383 152d 01       		.uleb128 0x1
 11384 152e 31       		.byte	0x31
 11385 152f 00       		.byte	0
 11386 1530 17       		.uleb128 0x17
 11387 1531 9C040000 		.4byte	.LVL191
 11388 1535 563B0000 		.4byte	0x3b56
 11389 1539 48150000 		.4byte	0x1548
 11390 153d 18       		.uleb128 0x18
 11391 153e 01       		.uleb128 0x1
 11392 153f 51       		.byte	0x51
 11393 1540 01       		.uleb128 0x1
 11394 1541 31       		.byte	0x31
 11395 1542 18       		.uleb128 0x18
 11396 1543 01       		.uleb128 0x1
 11397 1544 50       		.byte	0x50
 11398 1545 01       		.uleb128 0x1
 11399 1546 31       		.byte	0x31
 11400 1547 00       		.byte	0
 11401 1548 17       		.uleb128 0x17
 11402 1549 A8040000 		.4byte	.LVL192
 11403 154d 8D3B0000 		.4byte	0x3b8d
 11404 1551 5B150000 		.4byte	0x155b
 11405 1555 18       		.uleb128 0x18
 11406 1556 01       		.uleb128 0x1
 11407 1557 50       		.byte	0x50
 11408 1558 01       		.uleb128 0x1
 11409 1559 3A       		.byte	0x3a
 11410 155a 00       		.byte	0
 11411 155b 15       		.uleb128 0x15
 11412 155c AC040000 		.4byte	.LVL193
 11413 1560 4D3C0000 		.4byte	0x3c4d
 11414 1564 17       		.uleb128 0x17
 11415 1565 B6040000 		.4byte	.LVL194
 11416 1569 F73A0000 		.4byte	0x3af7
 11417 156d 7B150000 		.4byte	0x157b
 11418 1571 18       		.uleb128 0x18
ARM GAS  C:\Users\RECEPC~1\AppData\Local\Temp\cc6Stwwd.s 			page 264


 11419 1572 01       		.uleb128 0x1
 11420 1573 50       		.byte	0x50
 11421 1574 05       		.uleb128 0x5
 11422 1575 03       		.byte	0x3
 11423 1576 00000000 		.4byte	animacion
 11424 157a 00       		.byte	0
 11425 157b 15       		.uleb128 0x15
 11426 157c BA040000 		.4byte	.LVL195
 11427 1580 A23C0000 		.4byte	0x3ca2
 11428 1584 15       		.uleb128 0x15
 11429 1585 BE040000 		.4byte	.LVL196
 11430 1589 423C0000 		.4byte	0x3c42
 11431 158d 17       		.uleb128 0x17
 11432 158e 12050000 		.4byte	.LVL197
 11433 1592 563B0000 		.4byte	0x3b56
 11434 1596 A5150000 		.4byte	0x15a5
 11435 159a 18       		.uleb128 0x18
 11436 159b 01       		.uleb128 0x1
 11437 159c 51       		.byte	0x51
 11438 159d 01       		.uleb128 0x1
 11439 159e 3A       		.byte	0x3a
 11440 159f 18       		.uleb128 0x18
 11441 15a0 01       		.uleb128 0x1
 11442 15a1 50       		.byte	0x50
 11443 15a2 01       		.uleb128 0x1
 11444 15a3 31       		.byte	0x31
 11445 15a4 00       		.byte	0
 11446 15a5 17       		.uleb128 0x17
 11447 15a6 2A050000 		.4byte	.LVL198
 11448 15aa 563B0000 		.4byte	0x3b56
 11449 15ae BD150000 		.4byte	0x15bd
 11450 15b2 18       		.uleb128 0x18
 11451 15b3 01       		.uleb128 0x1
 11452 15b4 51       		.byte	0x51
 11453 15b5 01       		.uleb128 0x1
 11454 15b6 31       		.byte	0x31
 11455 15b7 18       		.uleb128 0x18
 11456 15b8 01       		.uleb128 0x1
 11457 15b9 50       		.byte	0x50
 11458 15ba 01       		.uleb128 0x1
 11459 15bb 31       		.byte	0x31
 11460 15bc 00       		.byte	0
 11461 15bd 17       		.uleb128 0x17
 11462 15be 60050000 		.4byte	.LVL199
 11463 15c2 563B0000 		.4byte	0x3b56
 11464 15c6 D5150000 		.4byte	0x15d5
 11465 15ca 18       		.uleb128 0x18
 11466 15cb 01       		.uleb128 0x1
 11467 15cc 51       		.byte	0x51
 11468 15cd 01       		.uleb128 0x1
 11469 15ce 37       		.byte	0x37
 11470 15cf 18       		.uleb128 0x18
 11471 15d0 01       		.uleb128 0x1
 11472 15d1 50       		.byte	0x50
 11473 15d2 01       		.uleb128 0x1
 11474 15d3 31       		.byte	0x31
 11475 15d4 00       		.byte	0
ARM GAS  C:\Users\RECEPC~1\AppData\Local\Temp\cc6Stwwd.s 			page 265


 11476 15d5 17       		.uleb128 0x17
 11477 15d6 70050000 		.4byte	.LVL200
 11478 15da 563B0000 		.4byte	0x3b56
 11479 15de ED150000 		.4byte	0x15ed
 11480 15e2 18       		.uleb128 0x18
 11481 15e3 01       		.uleb128 0x1
 11482 15e4 51       		.byte	0x51
 11483 15e5 01       		.uleb128 0x1
 11484 15e6 31       		.byte	0x31
 11485 15e7 18       		.uleb128 0x18
 11486 15e8 01       		.uleb128 0x1
 11487 15e9 50       		.byte	0x50
 11488 15ea 01       		.uleb128 0x1
 11489 15eb 31       		.byte	0x31
 11490 15ec 00       		.byte	0
 11491 15ed 17       		.uleb128 0x17
 11492 15ee 76050000 		.4byte	.LVL201
 11493 15f2 8D3B0000 		.4byte	0x3b8d
 11494 15f6 00160000 		.4byte	0x1600
 11495 15fa 18       		.uleb128 0x18
 11496 15fb 01       		.uleb128 0x1
 11497 15fc 50       		.byte	0x50
 11498 15fd 01       		.uleb128 0x1
 11499 15fe 3A       		.byte	0x3a
 11500 15ff 00       		.byte	0
 11501 1600 15       		.uleb128 0x15
 11502 1601 7A050000 		.4byte	.LVL202
 11503 1605 4D3C0000 		.4byte	0x3c4d
 11504 1609 17       		.uleb128 0x17
 11505 160a 96050000 		.4byte	.LVL203
 11506 160e 563B0000 		.4byte	0x3b56
 11507 1612 21160000 		.4byte	0x1621
 11508 1616 18       		.uleb128 0x18
 11509 1617 01       		.uleb128 0x1
 11510 1618 51       		.byte	0x51
 11511 1619 01       		.uleb128 0x1
 11512 161a 31       		.byte	0x31
 11513 161b 18       		.uleb128 0x18
 11514 161c 01       		.uleb128 0x1
 11515 161d 50       		.byte	0x50
 11516 161e 01       		.uleb128 0x1
 11517 161f 31       		.byte	0x31
 11518 1620 00       		.byte	0
 11519 1621 15       		.uleb128 0x15
 11520 1622 A2050000 		.4byte	.LVL204
 11521 1626 A93C0000 		.4byte	0x3ca9
 11522 162a 17       		.uleb128 0x17
 11523 162b C2050000 		.4byte	.LVL205
 11524 162f BE3C0000 		.4byte	0x3cbe
 11525 1633 41160000 		.4byte	0x1641
 11526 1637 18       		.uleb128 0x18
 11527 1638 01       		.uleb128 0x1
 11528 1639 52       		.byte	0x52
 11529 163a 05       		.uleb128 0x5
 11530 163b 03       		.byte	0x3
 11531 163c 65000000 		.4byte	bufferDisplay1+101
 11532 1640 00       		.byte	0
ARM GAS  C:\Users\RECEPC~1\AppData\Local\Temp\cc6Stwwd.s 			page 266


 11533 1641 15       		.uleb128 0x15
 11534 1642 CA050000 		.4byte	.LVL206
 11535 1646 1E3C0000 		.4byte	0x3c1e
 11536 164a 15       		.uleb128 0x15
 11537 164b CE050000 		.4byte	.LVL207
 11538 164f 253C0000 		.4byte	0x3c25
 11539 1653 15       		.uleb128 0x15
 11540 1654 D6050000 		.4byte	.LVL208
 11541 1658 A93B0000 		.4byte	0x3ba9
 11542 165c 15       		.uleb128 0x15
 11543 165d E0050000 		.4byte	.LVL209
 11544 1661 E23C0000 		.4byte	0x3ce2
 11545 1665 17       		.uleb128 0x17
 11546 1666 FE050000 		.4byte	.LVL210
 11547 166a 563B0000 		.4byte	0x3b56
 11548 166e 7E160000 		.4byte	0x167e
 11549 1672 18       		.uleb128 0x18
 11550 1673 01       		.uleb128 0x1
 11551 1674 51       		.byte	0x51
 11552 1675 01       		.uleb128 0x1
 11553 1676 38       		.byte	0x38
 11554 1677 18       		.uleb128 0x18
 11555 1678 01       		.uleb128 0x1
 11556 1679 50       		.byte	0x50
 11557 167a 02       		.uleb128 0x2
 11558 167b 74       		.byte	0x74
 11559 167c 00       		.sleb128 0
 11560 167d 00       		.byte	0
 11561 167e 17       		.uleb128 0x17
 11562 167f 0A060000 		.4byte	.LVL211
 11563 1683 6C3B0000 		.4byte	0x3b6c
 11564 1687 9E160000 		.4byte	0x169e
 11565 168b 18       		.uleb128 0x18
 11566 168c 01       		.uleb128 0x1
 11567 168d 52       		.byte	0x52
 11568 168e 01       		.uleb128 0x1
 11569 168f 42       		.byte	0x42
 11570 1690 18       		.uleb128 0x18
 11571 1691 01       		.uleb128 0x1
 11572 1692 51       		.byte	0x51
 11573 1693 03       		.uleb128 0x3
 11574 1694 75       		.byte	0x75
 11575 1695 EF00     		.sleb128 111
 11576 1697 18       		.uleb128 0x18
 11577 1698 01       		.uleb128 0x1
 11578 1699 50       		.byte	0x50
 11579 169a 02       		.uleb128 0x2
 11580 169b 74       		.byte	0x74
 11581 169c 00       		.sleb128 0
 11582 169d 00       		.byte	0
 11583 169e 17       		.uleb128 0x17
 11584 169f 18060000 		.4byte	.LVL212
 11585 16a3 563B0000 		.4byte	0x3b56
 11586 16a7 B6160000 		.4byte	0x16b6
 11587 16ab 18       		.uleb128 0x18
 11588 16ac 01       		.uleb128 0x1
 11589 16ad 51       		.byte	0x51
ARM GAS  C:\Users\RECEPC~1\AppData\Local\Temp\cc6Stwwd.s 			page 267


 11590 16ae 01       		.uleb128 0x1
 11591 16af 30       		.byte	0x30
 11592 16b0 18       		.uleb128 0x18
 11593 16b1 01       		.uleb128 0x1
 11594 16b2 50       		.byte	0x50
 11595 16b3 01       		.uleb128 0x1
 11596 16b4 31       		.byte	0x31
 11597 16b5 00       		.byte	0
 11598 16b6 17       		.uleb128 0x17
 11599 16b7 1E060000 		.4byte	.LVL213
 11600 16bb 8D3B0000 		.4byte	0x3b8d
 11601 16bf CA160000 		.4byte	0x16ca
 11602 16c3 18       		.uleb128 0x18
 11603 16c4 01       		.uleb128 0x1
 11604 16c5 50       		.byte	0x50
 11605 16c6 02       		.uleb128 0x2
 11606 16c7 08       		.byte	0x8
 11607 16c8 C8       		.byte	0xc8
 11608 16c9 00       		.byte	0
 11609 16ca 17       		.uleb128 0x17
 11610 16cb 26060000 		.4byte	.LVL214
 11611 16cf 563B0000 		.4byte	0x3b56
 11612 16d3 E2160000 		.4byte	0x16e2
 11613 16d7 18       		.uleb128 0x18
 11614 16d8 01       		.uleb128 0x1
 11615 16d9 51       		.byte	0x51
 11616 16da 01       		.uleb128 0x1
 11617 16db 31       		.byte	0x31
 11618 16dc 18       		.uleb128 0x18
 11619 16dd 01       		.uleb128 0x1
 11620 16de 50       		.byte	0x50
 11621 16df 01       		.uleb128 0x1
 11622 16e0 31       		.byte	0x31
 11623 16e1 00       		.byte	0
 11624 16e2 15       		.uleb128 0x15
 11625 16e3 32060000 		.4byte	.LVL215
 11626 16e7 423C0000 		.4byte	0x3c42
 11627 16eb 17       		.uleb128 0x17
 11628 16ec 66060000 		.4byte	.LVL216
 11629 16f0 563B0000 		.4byte	0x3b56
 11630 16f4 03170000 		.4byte	0x1703
 11631 16f8 18       		.uleb128 0x18
 11632 16f9 01       		.uleb128 0x1
 11633 16fa 51       		.byte	0x51
 11634 16fb 01       		.uleb128 0x1
 11635 16fc 31       		.byte	0x31
 11636 16fd 18       		.uleb128 0x18
 11637 16fe 01       		.uleb128 0x1
 11638 16ff 50       		.byte	0x50
 11639 1700 01       		.uleb128 0x1
 11640 1701 31       		.byte	0x31
 11641 1702 00       		.byte	0
 11642 1703 17       		.uleb128 0x17
 11643 1704 72060000 		.4byte	.LVL217
 11644 1708 8D3B0000 		.4byte	0x3b8d
 11645 170c 16170000 		.4byte	0x1716
 11646 1710 18       		.uleb128 0x18
ARM GAS  C:\Users\RECEPC~1\AppData\Local\Temp\cc6Stwwd.s 			page 268


 11647 1711 01       		.uleb128 0x1
 11648 1712 50       		.byte	0x50
 11649 1713 01       		.uleb128 0x1
 11650 1714 3A       		.byte	0x3a
 11651 1715 00       		.byte	0
 11652 1716 15       		.uleb128 0x15
 11653 1717 76060000 		.4byte	.LVL218
 11654 171b 4D3C0000 		.4byte	0x3c4d
 11655 171f 15       		.uleb128 0x15
 11656 1720 82060000 		.4byte	.LVL219
 11657 1724 A93B0000 		.4byte	0x3ba9
 11658 1728 17       		.uleb128 0x17
 11659 1729 BA060000 		.4byte	.LVL220
 11660 172d 563B0000 		.4byte	0x3b56
 11661 1731 40170000 		.4byte	0x1740
 11662 1735 18       		.uleb128 0x18
 11663 1736 01       		.uleb128 0x1
 11664 1737 51       		.byte	0x51
 11665 1738 01       		.uleb128 0x1
 11666 1739 31       		.byte	0x31
 11667 173a 18       		.uleb128 0x18
 11668 173b 01       		.uleb128 0x1
 11669 173c 50       		.byte	0x50
 11670 173d 01       		.uleb128 0x1
 11671 173e 31       		.byte	0x31
 11672 173f 00       		.byte	0
 11673 1740 15       		.uleb128 0x15
 11674 1741 D8060000 		.4byte	.LVL221
 11675 1745 F33C0000 		.4byte	0x3cf3
 11676 1749 17       		.uleb128 0x17
 11677 174a FC060000 		.4byte	.LVL222
 11678 174e 563B0000 		.4byte	0x3b56
 11679 1752 61170000 		.4byte	0x1761
 11680 1756 18       		.uleb128 0x18
 11681 1757 01       		.uleb128 0x1
 11682 1758 51       		.byte	0x51
 11683 1759 01       		.uleb128 0x1
 11684 175a 31       		.byte	0x31
 11685 175b 18       		.uleb128 0x18
 11686 175c 01       		.uleb128 0x1
 11687 175d 50       		.byte	0x50
 11688 175e 01       		.uleb128 0x1
 11689 175f 31       		.byte	0x31
 11690 1760 00       		.byte	0
 11691 1761 17       		.uleb128 0x17
 11692 1762 12070000 		.4byte	.LVL223
 11693 1766 563B0000 		.4byte	0x3b56
 11694 176a 79170000 		.4byte	0x1779
 11695 176e 18       		.uleb128 0x18
 11696 176f 01       		.uleb128 0x1
 11697 1770 51       		.byte	0x51
 11698 1771 01       		.uleb128 0x1
 11699 1772 3B       		.byte	0x3b
 11700 1773 18       		.uleb128 0x18
 11701 1774 01       		.uleb128 0x1
 11702 1775 50       		.byte	0x50
 11703 1776 01       		.uleb128 0x1
ARM GAS  C:\Users\RECEPC~1\AppData\Local\Temp\cc6Stwwd.s 			page 269


 11704 1777 31       		.byte	0x31
 11705 1778 00       		.byte	0
 11706 1779 15       		.uleb128 0x15
 11707 177a 2E070000 		.4byte	.LVL224
 11708 177e F33C0000 		.4byte	0x3cf3
 11709 1782 17       		.uleb128 0x17
 11710 1783 52070000 		.4byte	.LVL225
 11711 1787 563B0000 		.4byte	0x3b56
 11712 178b 9A170000 		.4byte	0x179a
 11713 178f 18       		.uleb128 0x18
 11714 1790 01       		.uleb128 0x1
 11715 1791 51       		.byte	0x51
 11716 1792 01       		.uleb128 0x1
 11717 1793 31       		.byte	0x31
 11718 1794 18       		.uleb128 0x18
 11719 1795 01       		.uleb128 0x1
 11720 1796 50       		.byte	0x50
 11721 1797 01       		.uleb128 0x1
 11722 1798 31       		.byte	0x31
 11723 1799 00       		.byte	0
 11724 179a 17       		.uleb128 0x17
 11725 179b 68070000 		.4byte	.LVL226
 11726 179f 563B0000 		.4byte	0x3b56
 11727 17a3 B2170000 		.4byte	0x17b2
 11728 17a7 18       		.uleb128 0x18
 11729 17a8 01       		.uleb128 0x1
 11730 17a9 51       		.byte	0x51
 11731 17aa 01       		.uleb128 0x1
 11732 17ab 3B       		.byte	0x3b
 11733 17ac 18       		.uleb128 0x18
 11734 17ad 01       		.uleb128 0x1
 11735 17ae 50       		.byte	0x50
 11736 17af 01       		.uleb128 0x1
 11737 17b0 31       		.byte	0x31
 11738 17b1 00       		.byte	0
 11739 17b2 17       		.uleb128 0x17
 11740 17b3 86070000 		.4byte	.LVL227
 11741 17b7 833C0000 		.4byte	0x3c83
 11742 17bb CF170000 		.4byte	0x17cf
 11743 17bf 18       		.uleb128 0x18
 11744 17c0 01       		.uleb128 0x1
 11745 17c1 52       		.byte	0x52
 11746 17c2 01       		.uleb128 0x1
 11747 17c3 30       		.byte	0x30
 11748 17c4 18       		.uleb128 0x18
 11749 17c5 01       		.uleb128 0x1
 11750 17c6 51       		.byte	0x51
 11751 17c7 01       		.uleb128 0x1
 11752 17c8 3A       		.byte	0x3a
 11753 17c9 18       		.uleb128 0x18
 11754 17ca 01       		.uleb128 0x1
 11755 17cb 50       		.byte	0x50
 11756 17cc 01       		.uleb128 0x1
 11757 17cd 31       		.byte	0x31
 11758 17ce 00       		.byte	0
 11759 17cf 17       		.uleb128 0x17
 11760 17d0 C8070000 		.4byte	.LVL234
ARM GAS  C:\Users\RECEPC~1\AppData\Local\Temp\cc6Stwwd.s 			page 270


 11761 17d4 563B0000 		.4byte	0x3b56
 11762 17d8 E7170000 		.4byte	0x17e7
 11763 17dc 18       		.uleb128 0x18
 11764 17dd 01       		.uleb128 0x1
 11765 17de 51       		.byte	0x51
 11766 17df 01       		.uleb128 0x1
 11767 17e0 31       		.byte	0x31
 11768 17e1 18       		.uleb128 0x18
 11769 17e2 01       		.uleb128 0x1
 11770 17e3 50       		.byte	0x50
 11771 17e4 01       		.uleb128 0x1
 11772 17e5 31       		.byte	0x31
 11773 17e6 00       		.byte	0
 11774 17e7 15       		.uleb128 0x15
 11775 17e8 14080000 		.4byte	.LVL249
 11776 17ec 4D3C0000 		.4byte	0x3c4d
 11777 17f0 15       		.uleb128 0x15
 11778 17f1 72080000 		.4byte	.LVL256
 11779 17f5 2C3C0000 		.4byte	0x3c2c
 11780 17f9 17       		.uleb128 0x17
 11781 17fa 80080000 		.4byte	.LVL257
 11782 17fe 563B0000 		.4byte	0x3b56
 11783 1802 11180000 		.4byte	0x1811
 11784 1806 18       		.uleb128 0x18
 11785 1807 01       		.uleb128 0x1
 11786 1808 51       		.byte	0x51
 11787 1809 01       		.uleb128 0x1
 11788 180a 31       		.byte	0x31
 11789 180b 18       		.uleb128 0x18
 11790 180c 01       		.uleb128 0x1
 11791 180d 50       		.byte	0x50
 11792 180e 01       		.uleb128 0x1
 11793 180f 31       		.byte	0x31
 11794 1810 00       		.byte	0
 11795 1811 17       		.uleb128 0x17
 11796 1812 8E080000 		.4byte	.LVL258
 11797 1816 563B0000 		.4byte	0x3b56
 11798 181a 29180000 		.4byte	0x1829
 11799 181e 18       		.uleb128 0x18
 11800 181f 01       		.uleb128 0x1
 11801 1820 51       		.byte	0x51
 11802 1821 01       		.uleb128 0x1
 11803 1822 37       		.byte	0x37
 11804 1823 18       		.uleb128 0x18
 11805 1824 01       		.uleb128 0x1
 11806 1825 50       		.byte	0x50
 11807 1826 01       		.uleb128 0x1
 11808 1827 31       		.byte	0x31
 11809 1828 00       		.byte	0
 11810 1829 17       		.uleb128 0x17
 11811 182a BA080000 		.4byte	.LVL265
 11812 182e 563B0000 		.4byte	0x3b56
 11813 1832 41180000 		.4byte	0x1841
 11814 1836 18       		.uleb128 0x18
 11815 1837 01       		.uleb128 0x1
 11816 1838 51       		.byte	0x51
 11817 1839 01       		.uleb128 0x1
ARM GAS  C:\Users\RECEPC~1\AppData\Local\Temp\cc6Stwwd.s 			page 271


 11818 183a 37       		.byte	0x37
 11819 183b 18       		.uleb128 0x18
 11820 183c 01       		.uleb128 0x1
 11821 183d 50       		.byte	0x50
 11822 183e 01       		.uleb128 0x1
 11823 183f 31       		.byte	0x31
 11824 1840 00       		.byte	0
 11825 1841 17       		.uleb128 0x17
 11826 1842 1A090000 		.4byte	.LVL276
 11827 1846 563B0000 		.4byte	0x3b56
 11828 184a 5A180000 		.4byte	0x185a
 11829 184e 18       		.uleb128 0x18
 11830 184f 01       		.uleb128 0x1
 11831 1850 51       		.byte	0x51
 11832 1851 02       		.uleb128 0x2
 11833 1852 08       		.byte	0x8
 11834 1853 25       		.byte	0x25
 11835 1854 18       		.uleb128 0x18
 11836 1855 01       		.uleb128 0x1
 11837 1856 50       		.byte	0x50
 11838 1857 01       		.uleb128 0x1
 11839 1858 31       		.byte	0x31
 11840 1859 00       		.byte	0
 11841 185a 15       		.uleb128 0x15
 11842 185b 1E090000 		.4byte	.LVL277
 11843 185f 4D3C0000 		.4byte	0x3c4d
 11844 1863 15       		.uleb128 0x15
 11845 1864 26090000 		.4byte	.LVL278
 11846 1868 423C0000 		.4byte	0x3c42
 11847 186c 17       		.uleb128 0x17
 11848 186d 80090000 		.4byte	.LVL279
 11849 1871 563B0000 		.4byte	0x3b56
 11850 1875 84180000 		.4byte	0x1884
 11851 1879 18       		.uleb128 0x18
 11852 187a 01       		.uleb128 0x1
 11853 187b 51       		.byte	0x51
 11854 187c 01       		.uleb128 0x1
 11855 187d 42       		.byte	0x42
 11856 187e 18       		.uleb128 0x18
 11857 187f 01       		.uleb128 0x1
 11858 1880 50       		.byte	0x50
 11859 1881 01       		.uleb128 0x1
 11860 1882 31       		.byte	0x31
 11861 1883 00       		.byte	0
 11862 1884 17       		.uleb128 0x17
 11863 1885 9A090000 		.4byte	.LVL280
 11864 1889 563B0000 		.4byte	0x3b56
 11865 188d 9C180000 		.4byte	0x189c
 11866 1891 18       		.uleb128 0x18
 11867 1892 01       		.uleb128 0x1
 11868 1893 51       		.byte	0x51
 11869 1894 01       		.uleb128 0x1
 11870 1895 37       		.byte	0x37
 11871 1896 18       		.uleb128 0x18
 11872 1897 01       		.uleb128 0x1
 11873 1898 50       		.byte	0x50
 11874 1899 01       		.uleb128 0x1
ARM GAS  C:\Users\RECEPC~1\AppData\Local\Temp\cc6Stwwd.s 			page 272


 11875 189a 31       		.byte	0x31
 11876 189b 00       		.byte	0
 11877 189c 17       		.uleb128 0x17
 11878 189d AA090000 		.4byte	.LVL281
 11879 18a1 563B0000 		.4byte	0x3b56
 11880 18a5 B4180000 		.4byte	0x18b4
 11881 18a9 18       		.uleb128 0x18
 11882 18aa 01       		.uleb128 0x1
 11883 18ab 51       		.byte	0x51
 11884 18ac 01       		.uleb128 0x1
 11885 18ad 31       		.byte	0x31
 11886 18ae 18       		.uleb128 0x18
 11887 18af 01       		.uleb128 0x1
 11888 18b0 50       		.byte	0x50
 11889 18b1 01       		.uleb128 0x1
 11890 18b2 31       		.byte	0x31
 11891 18b3 00       		.byte	0
 11892 18b4 17       		.uleb128 0x17
 11893 18b5 B4090000 		.4byte	.LVL282
 11894 18b9 563B0000 		.4byte	0x3b56
 11895 18bd CC180000 		.4byte	0x18cc
 11896 18c1 18       		.uleb128 0x18
 11897 18c2 01       		.uleb128 0x1
 11898 18c3 51       		.byte	0x51
 11899 18c4 01       		.uleb128 0x1
 11900 18c5 31       		.byte	0x31
 11901 18c6 18       		.uleb128 0x18
 11902 18c7 01       		.uleb128 0x1
 11903 18c8 50       		.byte	0x50
 11904 18c9 01       		.uleb128 0x1
 11905 18ca 31       		.byte	0x31
 11906 18cb 00       		.byte	0
 11907 18cc 17       		.uleb128 0x17
 11908 18cd C0090000 		.4byte	.LVL283
 11909 18d1 8D3B0000 		.4byte	0x3b8d
 11910 18d5 DF180000 		.4byte	0x18df
 11911 18d9 18       		.uleb128 0x18
 11912 18da 01       		.uleb128 0x1
 11913 18db 50       		.byte	0x50
 11914 18dc 01       		.uleb128 0x1
 11915 18dd 3A       		.byte	0x3a
 11916 18de 00       		.byte	0
 11917 18df 15       		.uleb128 0x15
 11918 18e0 C4090000 		.4byte	.LVL284
 11919 18e4 4D3C0000 		.4byte	0x3c4d
 11920 18e8 17       		.uleb128 0x17
 11921 18e9 CE090000 		.4byte	.LVL285
 11922 18ed F73A0000 		.4byte	0x3af7
 11923 18f1 FF180000 		.4byte	0x18ff
 11924 18f5 18       		.uleb128 0x18
 11925 18f6 01       		.uleb128 0x1
 11926 18f7 50       		.byte	0x50
 11927 18f8 05       		.uleb128 0x5
 11928 18f9 03       		.byte	0x3
 11929 18fa 00000000 		.4byte	animacion
 11930 18fe 00       		.byte	0
 11931 18ff 15       		.uleb128 0x15
ARM GAS  C:\Users\RECEPC~1\AppData\Local\Temp\cc6Stwwd.s 			page 273


 11932 1900 D2090000 		.4byte	.LVL286
 11933 1904 A23C0000 		.4byte	0x3ca2
 11934 1908 17       		.uleb128 0x17
 11935 1909 D8090000 		.4byte	.LVL287
 11936 190d 083D0000 		.4byte	0x3d08
 11937 1911 1B190000 		.4byte	0x191b
 11938 1915 18       		.uleb128 0x18
 11939 1916 01       		.uleb128 0x1
 11940 1917 50       		.byte	0x50
 11941 1918 01       		.uleb128 0x1
 11942 1919 31       		.byte	0x31
 11943 191a 00       		.byte	0
 11944 191b 17       		.uleb128 0x17
 11945 191c E2090000 		.4byte	.LVL288
 11946 1920 1D3D0000 		.4byte	0x3d1d
 11947 1924 2F190000 		.4byte	0x192f
 11948 1928 18       		.uleb128 0x18
 11949 1929 01       		.uleb128 0x1
 11950 192a 51       		.byte	0x51
 11951 192b 02       		.uleb128 0x2
 11952 192c 08       		.byte	0x8
 11953 192d 33       		.byte	0x33
 11954 192e 00       		.byte	0
 11955 192f 17       		.uleb128 0x17
 11956 1930 EC090000 		.4byte	.LVL290
 11957 1934 373D0000 		.4byte	0x3d37
 11958 1938 42190000 		.4byte	0x1942
 11959 193c 18       		.uleb128 0x18
 11960 193d 01       		.uleb128 0x1
 11961 193e 50       		.byte	0x50
 11962 193f 01       		.uleb128 0x1
 11963 1940 31       		.byte	0x31
 11964 1941 00       		.byte	0
 11965 1942 15       		.uleb128 0x15
 11966 1943 0A0A0000 		.4byte	.LVL297
 11967 1947 4C3D0000 		.4byte	0x3d4c
 11968 194b 17       		.uleb128 0x17
 11969 194c 940A0000 		.4byte	.LVL308
 11970 1950 563B0000 		.4byte	0x3b56
 11971 1954 63190000 		.4byte	0x1963
 11972 1958 18       		.uleb128 0x18
 11973 1959 01       		.uleb128 0x1
 11974 195a 51       		.byte	0x51
 11975 195b 01       		.uleb128 0x1
 11976 195c 43       		.byte	0x43
 11977 195d 18       		.uleb128 0x18
 11978 195e 01       		.uleb128 0x1
 11979 195f 50       		.byte	0x50
 11980 1960 01       		.uleb128 0x1
 11981 1961 31       		.byte	0x31
 11982 1962 00       		.byte	0
 11983 1963 15       		.uleb128 0x15
 11984 1964 980A0000 		.4byte	.LVL309
 11985 1968 4D3C0000 		.4byte	0x3c4d
 11986 196c 17       		.uleb128 0x17
 11987 196d A00A0000 		.4byte	.LVL310
 11988 1971 8D3B0000 		.4byte	0x3b8d
ARM GAS  C:\Users\RECEPC~1\AppData\Local\Temp\cc6Stwwd.s 			page 274


 11989 1975 81190000 		.4byte	0x1981
 11990 1979 18       		.uleb128 0x18
 11991 197a 01       		.uleb128 0x1
 11992 197b 50       		.byte	0x50
 11993 197c 03       		.uleb128 0x3
 11994 197d 0A       		.byte	0xa
 11995 197e BC02     		.2byte	0x2bc
 11996 1980 00       		.byte	0
 11997 1981 17       		.uleb128 0x17
 11998 1982 B60A0000 		.4byte	.LVL311
 11999 1986 563B0000 		.4byte	0x3b56
 12000 198a 99190000 		.4byte	0x1999
 12001 198e 18       		.uleb128 0x18
 12002 198f 01       		.uleb128 0x1
 12003 1990 51       		.byte	0x51
 12004 1991 01       		.uleb128 0x1
 12005 1992 3E       		.byte	0x3e
 12006 1993 18       		.uleb128 0x18
 12007 1994 01       		.uleb128 0x1
 12008 1995 50       		.byte	0x50
 12009 1996 01       		.uleb128 0x1
 12010 1997 31       		.byte	0x31
 12011 1998 00       		.byte	0
 12012 1999 17       		.uleb128 0x17
 12013 199a D20A0000 		.4byte	.LVL312
 12014 199e 563B0000 		.4byte	0x3b56
 12015 19a2 B1190000 		.4byte	0x19b1
 12016 19a6 18       		.uleb128 0x18
 12017 19a7 01       		.uleb128 0x1
 12018 19a8 51       		.byte	0x51
 12019 19a9 01       		.uleb128 0x1
 12020 19aa 31       		.byte	0x31
 12021 19ab 18       		.uleb128 0x18
 12022 19ac 01       		.uleb128 0x1
 12023 19ad 50       		.byte	0x50
 12024 19ae 01       		.uleb128 0x1
 12025 19af 31       		.byte	0x31
 12026 19b0 00       		.byte	0
 12027 19b1 15       		.uleb128 0x15
 12028 19b2 080B0000 		.4byte	.LVL313
 12029 19b6 423C0000 		.4byte	0x3c42
 12030 19ba 17       		.uleb128 0x17
 12031 19bb 660B0000 		.4byte	.LVL314
 12032 19bf 563B0000 		.4byte	0x3b56
 12033 19c3 D3190000 		.4byte	0x19d3
 12034 19c7 18       		.uleb128 0x18
 12035 19c8 01       		.uleb128 0x1
 12036 19c9 51       		.byte	0x51
 12037 19ca 02       		.uleb128 0x2
 12038 19cb 08       		.byte	0x8
 12039 19cc 2A       		.byte	0x2a
 12040 19cd 18       		.uleb128 0x18
 12041 19ce 01       		.uleb128 0x1
 12042 19cf 50       		.byte	0x50
 12043 19d0 01       		.uleb128 0x1
 12044 19d1 31       		.byte	0x31
 12045 19d2 00       		.byte	0
ARM GAS  C:\Users\RECEPC~1\AppData\Local\Temp\cc6Stwwd.s 			page 275


 12046 19d3 17       		.uleb128 0x17
 12047 19d4 700B0000 		.4byte	.LVL315
 12048 19d8 563B0000 		.4byte	0x3b56
 12049 19dc EC190000 		.4byte	0x19ec
 12050 19e0 18       		.uleb128 0x18
 12051 19e1 01       		.uleb128 0x1
 12052 19e2 51       		.byte	0x51
 12053 19e3 02       		.uleb128 0x2
 12054 19e4 08       		.byte	0x8
 12055 19e5 23       		.byte	0x23
 12056 19e6 18       		.uleb128 0x18
 12057 19e7 01       		.uleb128 0x1
 12058 19e8 50       		.byte	0x50
 12059 19e9 01       		.uleb128 0x1
 12060 19ea 31       		.byte	0x31
 12061 19eb 00       		.byte	0
 12062 19ec 17       		.uleb128 0x17
 12063 19ed 9A0B0000 		.4byte	.LVL316
 12064 19f1 563B0000 		.4byte	0x3b56
 12065 19f5 051A0000 		.4byte	0x1a05
 12066 19f9 18       		.uleb128 0x18
 12067 19fa 01       		.uleb128 0x1
 12068 19fb 51       		.byte	0x51
 12069 19fc 02       		.uleb128 0x2
 12070 19fd 08       		.byte	0x8
 12071 19fe 25       		.byte	0x25
 12072 19ff 18       		.uleb128 0x18
 12073 1a00 01       		.uleb128 0x1
 12074 1a01 50       		.byte	0x50
 12075 1a02 01       		.uleb128 0x1
 12076 1a03 31       		.byte	0x31
 12077 1a04 00       		.byte	0
 12078 1a05 17       		.uleb128 0x17
 12079 1a06 B60B0000 		.4byte	.LVL317
 12080 1a0a 563B0000 		.4byte	0x3b56
 12081 1a0e 1D1A0000 		.4byte	0x1a1d
 12082 1a12 18       		.uleb128 0x18
 12083 1a13 01       		.uleb128 0x1
 12084 1a14 51       		.byte	0x51
 12085 1a15 01       		.uleb128 0x1
 12086 1a16 31       		.byte	0x31
 12087 1a17 18       		.uleb128 0x18
 12088 1a18 01       		.uleb128 0x1
 12089 1a19 50       		.byte	0x50
 12090 1a1a 01       		.uleb128 0x1
 12091 1a1b 31       		.byte	0x31
 12092 1a1c 00       		.byte	0
 12093 1a1d 17       		.uleb128 0x17
 12094 1a1e C60B0000 		.4byte	.LVL318
 12095 1a22 563B0000 		.4byte	0x3b56
 12096 1a26 351A0000 		.4byte	0x1a35
 12097 1a2a 18       		.uleb128 0x18
 12098 1a2b 01       		.uleb128 0x1
 12099 1a2c 51       		.byte	0x51
 12100 1a2d 01       		.uleb128 0x1
 12101 1a2e 31       		.byte	0x31
 12102 1a2f 18       		.uleb128 0x18
ARM GAS  C:\Users\RECEPC~1\AppData\Local\Temp\cc6Stwwd.s 			page 276


 12103 1a30 01       		.uleb128 0x1
 12104 1a31 50       		.byte	0x50
 12105 1a32 01       		.uleb128 0x1
 12106 1a33 31       		.byte	0x31
 12107 1a34 00       		.byte	0
 12108 1a35 17       		.uleb128 0x17
 12109 1a36 D60B0000 		.4byte	.LVL319
 12110 1a3a 563B0000 		.4byte	0x3b56
 12111 1a3e 4D1A0000 		.4byte	0x1a4d
 12112 1a42 18       		.uleb128 0x18
 12113 1a43 01       		.uleb128 0x1
 12114 1a44 51       		.byte	0x51
 12115 1a45 01       		.uleb128 0x1
 12116 1a46 31       		.byte	0x31
 12117 1a47 18       		.uleb128 0x18
 12118 1a48 01       		.uleb128 0x1
 12119 1a49 50       		.byte	0x50
 12120 1a4a 01       		.uleb128 0x1
 12121 1a4b 31       		.byte	0x31
 12122 1a4c 00       		.byte	0
 12123 1a4d 17       		.uleb128 0x17
 12124 1a4e E60B0000 		.4byte	.LVL320
 12125 1a52 563B0000 		.4byte	0x3b56
 12126 1a56 651A0000 		.4byte	0x1a65
 12127 1a5a 18       		.uleb128 0x18
 12128 1a5b 01       		.uleb128 0x1
 12129 1a5c 51       		.byte	0x51
 12130 1a5d 01       		.uleb128 0x1
 12131 1a5e 31       		.byte	0x31
 12132 1a5f 18       		.uleb128 0x18
 12133 1a60 01       		.uleb128 0x1
 12134 1a61 50       		.byte	0x50
 12135 1a62 01       		.uleb128 0x1
 12136 1a63 31       		.byte	0x31
 12137 1a64 00       		.byte	0
 12138 1a65 17       		.uleb128 0x17
 12139 1a66 EC0B0000 		.4byte	.LVL321
 12140 1a6a 8D3B0000 		.4byte	0x3b8d
 12141 1a6e 781A0000 		.4byte	0x1a78
 12142 1a72 18       		.uleb128 0x18
 12143 1a73 01       		.uleb128 0x1
 12144 1a74 50       		.byte	0x50
 12145 1a75 01       		.uleb128 0x1
 12146 1a76 3A       		.byte	0x3a
 12147 1a77 00       		.byte	0
 12148 1a78 15       		.uleb128 0x15
 12149 1a79 F00B0000 		.4byte	.LVL322
 12150 1a7d 4D3C0000 		.4byte	0x3c4d
 12151 1a81 15       		.uleb128 0x15
 12152 1a82 F80B0000 		.4byte	.LVL323
 12153 1a86 423C0000 		.4byte	0x3c42
 12154 1a8a 17       		.uleb128 0x17
 12155 1a8b 540C0000 		.4byte	.LVL324
 12156 1a8f 563B0000 		.4byte	0x3b56
 12157 1a93 A31A0000 		.4byte	0x1aa3
 12158 1a97 18       		.uleb128 0x18
 12159 1a98 01       		.uleb128 0x1
ARM GAS  C:\Users\RECEPC~1\AppData\Local\Temp\cc6Stwwd.s 			page 277


 12160 1a99 51       		.byte	0x51
 12161 1a9a 02       		.uleb128 0x2
 12162 1a9b 08       		.byte	0x8
 12163 1a9c 24       		.byte	0x24
 12164 1a9d 18       		.uleb128 0x18
 12165 1a9e 01       		.uleb128 0x1
 12166 1a9f 50       		.byte	0x50
 12167 1aa0 01       		.uleb128 0x1
 12168 1aa1 31       		.byte	0x31
 12169 1aa2 00       		.byte	0
 12170 1aa3 17       		.uleb128 0x17
 12171 1aa4 720C0000 		.4byte	.LVL325
 12172 1aa8 563B0000 		.4byte	0x3b56
 12173 1aac BC1A0000 		.4byte	0x1abc
 12174 1ab0 18       		.uleb128 0x18
 12175 1ab1 01       		.uleb128 0x1
 12176 1ab2 51       		.byte	0x51
 12177 1ab3 02       		.uleb128 0x2
 12178 1ab4 08       		.byte	0x8
 12179 1ab5 24       		.byte	0x24
 12180 1ab6 18       		.uleb128 0x18
 12181 1ab7 01       		.uleb128 0x1
 12182 1ab8 50       		.byte	0x50
 12183 1ab9 01       		.uleb128 0x1
 12184 1aba 31       		.byte	0x31
 12185 1abb 00       		.byte	0
 12186 1abc 17       		.uleb128 0x17
 12187 1abd 7C0C0000 		.4byte	.LVL326
 12188 1ac1 563B0000 		.4byte	0x3b56
 12189 1ac5 D41A0000 		.4byte	0x1ad4
 12190 1ac9 18       		.uleb128 0x18
 12191 1aca 01       		.uleb128 0x1
 12192 1acb 51       		.byte	0x51
 12193 1acc 01       		.uleb128 0x1
 12194 1acd 31       		.byte	0x31
 12195 1ace 18       		.uleb128 0x18
 12196 1acf 01       		.uleb128 0x1
 12197 1ad0 50       		.byte	0x50
 12198 1ad1 01       		.uleb128 0x1
 12199 1ad2 31       		.byte	0x31
 12200 1ad3 00       		.byte	0
 12201 1ad4 17       		.uleb128 0x17
 12202 1ad5 8C0C0000 		.4byte	.LVL327
 12203 1ad9 563B0000 		.4byte	0x3b56
 12204 1add EC1A0000 		.4byte	0x1aec
 12205 1ae1 18       		.uleb128 0x18
 12206 1ae2 01       		.uleb128 0x1
 12207 1ae3 51       		.byte	0x51
 12208 1ae4 01       		.uleb128 0x1
 12209 1ae5 31       		.byte	0x31
 12210 1ae6 18       		.uleb128 0x18
 12211 1ae7 01       		.uleb128 0x1
 12212 1ae8 50       		.byte	0x50
 12213 1ae9 01       		.uleb128 0x1
 12214 1aea 31       		.byte	0x31
 12215 1aeb 00       		.byte	0
 12216 1aec 17       		.uleb128 0x17
ARM GAS  C:\Users\RECEPC~1\AppData\Local\Temp\cc6Stwwd.s 			page 278


 12217 1aed 980C0000 		.4byte	.LVL328
 12218 1af1 8D3B0000 		.4byte	0x3b8d
 12219 1af5 FF1A0000 		.4byte	0x1aff
 12220 1af9 18       		.uleb128 0x18
 12221 1afa 01       		.uleb128 0x1
 12222 1afb 50       		.byte	0x50
 12223 1afc 01       		.uleb128 0x1
 12224 1afd 3A       		.byte	0x3a
 12225 1afe 00       		.byte	0
 12226 1aff 15       		.uleb128 0x15
 12227 1b00 9C0C0000 		.4byte	.LVL329
 12228 1b04 4D3C0000 		.4byte	0x3c4d
 12229 1b08 17       		.uleb128 0x17
 12230 1b09 AC0C0000 		.4byte	.LVL330
 12231 1b0d 833C0000 		.4byte	0x3c83
 12232 1b11 1B1B0000 		.4byte	0x1b1b
 12233 1b15 18       		.uleb128 0x18
 12234 1b16 01       		.uleb128 0x1
 12235 1b17 50       		.byte	0x50
 12236 1b18 01       		.uleb128 0x1
 12237 1b19 31       		.byte	0x31
 12238 1b1a 00       		.byte	0
 12239 1b1b 17       		.uleb128 0x17
 12240 1b1c EA0C0000 		.4byte	.LVL337
 12241 1b20 563B0000 		.4byte	0x3b56
 12242 1b24 331B0000 		.4byte	0x1b33
 12243 1b28 18       		.uleb128 0x18
 12244 1b29 01       		.uleb128 0x1
 12245 1b2a 51       		.byte	0x51
 12246 1b2b 01       		.uleb128 0x1
 12247 1b2c 31       		.byte	0x31
 12248 1b2d 18       		.uleb128 0x18
 12249 1b2e 01       		.uleb128 0x1
 12250 1b2f 50       		.byte	0x50
 12251 1b30 01       		.uleb128 0x1
 12252 1b31 31       		.byte	0x31
 12253 1b32 00       		.byte	0
 12254 1b33 17       		.uleb128 0x17
 12255 1b34 100D0000 		.4byte	.LVL344
 12256 1b38 563B0000 		.4byte	0x3b56
 12257 1b3c 4B1B0000 		.4byte	0x1b4b
 12258 1b40 18       		.uleb128 0x18
 12259 1b41 01       		.uleb128 0x1
 12260 1b42 51       		.byte	0x51
 12261 1b43 01       		.uleb128 0x1
 12262 1b44 31       		.byte	0x31
 12263 1b45 18       		.uleb128 0x18
 12264 1b46 01       		.uleb128 0x1
 12265 1b47 50       		.byte	0x50
 12266 1b48 01       		.uleb128 0x1
 12267 1b49 31       		.byte	0x31
 12268 1b4a 00       		.byte	0
 12269 1b4b 17       		.uleb128 0x17
 12270 1b4c 3A0D0000 		.4byte	.LVL351
 12271 1b50 563B0000 		.4byte	0x3b56
 12272 1b54 631B0000 		.4byte	0x1b63
 12273 1b58 18       		.uleb128 0x18
ARM GAS  C:\Users\RECEPC~1\AppData\Local\Temp\cc6Stwwd.s 			page 279


 12274 1b59 01       		.uleb128 0x1
 12275 1b5a 51       		.byte	0x51
 12276 1b5b 01       		.uleb128 0x1
 12277 1b5c 31       		.byte	0x31
 12278 1b5d 18       		.uleb128 0x18
 12279 1b5e 01       		.uleb128 0x1
 12280 1b5f 50       		.byte	0x50
 12281 1b60 01       		.uleb128 0x1
 12282 1b61 31       		.byte	0x31
 12283 1b62 00       		.byte	0
 12284 1b63 17       		.uleb128 0x17
 12285 1b64 640D0000 		.4byte	.LVL358
 12286 1b68 563B0000 		.4byte	0x3b56
 12287 1b6c 7B1B0000 		.4byte	0x1b7b
 12288 1b70 18       		.uleb128 0x18
 12289 1b71 01       		.uleb128 0x1
 12290 1b72 51       		.byte	0x51
 12291 1b73 01       		.uleb128 0x1
 12292 1b74 31       		.byte	0x31
 12293 1b75 18       		.uleb128 0x18
 12294 1b76 01       		.uleb128 0x1
 12295 1b77 50       		.byte	0x50
 12296 1b78 01       		.uleb128 0x1
 12297 1b79 31       		.byte	0x31
 12298 1b7a 00       		.byte	0
 12299 1b7b 17       		.uleb128 0x17
 12300 1b7c 8A0D0000 		.4byte	.LVL365
 12301 1b80 563B0000 		.4byte	0x3b56
 12302 1b84 931B0000 		.4byte	0x1b93
 12303 1b88 18       		.uleb128 0x18
 12304 1b89 01       		.uleb128 0x1
 12305 1b8a 51       		.byte	0x51
 12306 1b8b 01       		.uleb128 0x1
 12307 1b8c 31       		.byte	0x31
 12308 1b8d 18       		.uleb128 0x18
 12309 1b8e 01       		.uleb128 0x1
 12310 1b8f 50       		.byte	0x50
 12311 1b90 01       		.uleb128 0x1
 12312 1b91 31       		.byte	0x31
 12313 1b92 00       		.byte	0
 12314 1b93 15       		.uleb128 0x15
 12315 1b94 8E0D0000 		.4byte	.LVL366
 12316 1b98 4D3C0000 		.4byte	0x3c4d
 12317 1b9c 17       		.uleb128 0x17
 12318 1b9d FE0D0000 		.4byte	.LVL372
 12319 1ba1 663D0000 		.4byte	0x3d66
 12320 1ba5 B31B0000 		.4byte	0x1bb3
 12321 1ba9 18       		.uleb128 0x18
 12322 1baa 01       		.uleb128 0x1
 12323 1bab 50       		.byte	0x50
 12324 1bac 05       		.uleb128 0x5
 12325 1bad 03       		.byte	0x3
 12326 1bae 00000000 		.4byte	idStation
 12327 1bb2 00       		.byte	0
 12328 1bb3 17       		.uleb128 0x17
 12329 1bb4 160E0000 		.4byte	.LVL373
 12330 1bb8 273B0000 		.4byte	0x3b27
ARM GAS  C:\Users\RECEPC~1\AppData\Local\Temp\cc6Stwwd.s 			page 280


 12331 1bbc C61B0000 		.4byte	0x1bc6
 12332 1bc0 18       		.uleb128 0x18
 12333 1bc1 01       		.uleb128 0x1
 12334 1bc2 51       		.byte	0x51
 12335 1bc3 01       		.uleb128 0x1
 12336 1bc4 3A       		.byte	0x3a
 12337 1bc5 00       		.byte	0
 12338 1bc6 17       		.uleb128 0x17
 12339 1bc7 1E0E0000 		.4byte	.LVL374
 12340 1bcb 273B0000 		.4byte	0x3b27
 12341 1bcf D91B0000 		.4byte	0x1bd9
 12342 1bd3 18       		.uleb128 0x18
 12343 1bd4 01       		.uleb128 0x1
 12344 1bd5 51       		.byte	0x51
 12345 1bd6 01       		.uleb128 0x1
 12346 1bd7 3B       		.byte	0x3b
 12347 1bd8 00       		.byte	0
 12348 1bd9 17       		.uleb128 0x17
 12349 1bda 2C0E0000 		.4byte	.LVL375
 12350 1bde 563B0000 		.4byte	0x3b56
 12351 1be2 F21B0000 		.4byte	0x1bf2
 12352 1be6 18       		.uleb128 0x18
 12353 1be7 01       		.uleb128 0x1
 12354 1be8 51       		.byte	0x51
 12355 1be9 02       		.uleb128 0x2
 12356 1bea 08       		.byte	0x8
 12357 1beb 5A       		.byte	0x5a
 12358 1bec 18       		.uleb128 0x18
 12359 1bed 01       		.uleb128 0x1
 12360 1bee 50       		.byte	0x50
 12361 1bef 01       		.uleb128 0x1
 12362 1bf0 31       		.byte	0x31
 12363 1bf1 00       		.byte	0
 12364 1bf2 17       		.uleb128 0x17
 12365 1bf3 580E0000 		.4byte	.LVL382
 12366 1bf7 563B0000 		.4byte	0x3b56
 12367 1bfb 0B1C0000 		.4byte	0x1c0b
 12368 1bff 18       		.uleb128 0x18
 12369 1c00 01       		.uleb128 0x1
 12370 1c01 51       		.byte	0x51
 12371 1c02 02       		.uleb128 0x2
 12372 1c03 08       		.byte	0x8
 12373 1c04 5A       		.byte	0x5a
 12374 1c05 18       		.uleb128 0x18
 12375 1c06 01       		.uleb128 0x1
 12376 1c07 50       		.byte	0x50
 12377 1c08 01       		.uleb128 0x1
 12378 1c09 31       		.byte	0x31
 12379 1c0a 00       		.byte	0
 12380 1c0b 17       		.uleb128 0x17
 12381 1c0c 840E0000 		.4byte	.LVL389
 12382 1c10 563B0000 		.4byte	0x3b56
 12383 1c14 241C0000 		.4byte	0x1c24
 12384 1c18 18       		.uleb128 0x18
 12385 1c19 01       		.uleb128 0x1
 12386 1c1a 51       		.byte	0x51
 12387 1c1b 02       		.uleb128 0x2
ARM GAS  C:\Users\RECEPC~1\AppData\Local\Temp\cc6Stwwd.s 			page 281


 12388 1c1c 08       		.byte	0x8
 12389 1c1d 39       		.byte	0x39
 12390 1c1e 18       		.uleb128 0x18
 12391 1c1f 01       		.uleb128 0x1
 12392 1c20 50       		.byte	0x50
 12393 1c21 01       		.uleb128 0x1
 12394 1c22 31       		.byte	0x31
 12395 1c23 00       		.byte	0
 12396 1c24 17       		.uleb128 0x17
 12397 1c25 B00E0000 		.4byte	.LVL396
 12398 1c29 563B0000 		.4byte	0x3b56
 12399 1c2d 3D1C0000 		.4byte	0x1c3d
 12400 1c31 18       		.uleb128 0x18
 12401 1c32 01       		.uleb128 0x1
 12402 1c33 51       		.byte	0x51
 12403 1c34 02       		.uleb128 0x2
 12404 1c35 08       		.byte	0x8
 12405 1c36 5A       		.byte	0x5a
 12406 1c37 18       		.uleb128 0x18
 12407 1c38 01       		.uleb128 0x1
 12408 1c39 50       		.byte	0x50
 12409 1c3a 01       		.uleb128 0x1
 12410 1c3b 31       		.byte	0x31
 12411 1c3c 00       		.byte	0
 12412 1c3d 17       		.uleb128 0x17
 12413 1c3e 060F0000 		.4byte	.LVL403
 12414 1c42 563B0000 		.4byte	0x3b56
 12415 1c46 561C0000 		.4byte	0x1c56
 12416 1c4a 18       		.uleb128 0x18
 12417 1c4b 01       		.uleb128 0x1
 12418 1c4c 51       		.byte	0x51
 12419 1c4d 02       		.uleb128 0x2
 12420 1c4e 08       		.byte	0x8
 12421 1c4f 26       		.byte	0x26
 12422 1c50 18       		.uleb128 0x18
 12423 1c51 01       		.uleb128 0x1
 12424 1c52 50       		.byte	0x50
 12425 1c53 01       		.uleb128 0x1
 12426 1c54 31       		.byte	0x31
 12427 1c55 00       		.byte	0
 12428 1c56 17       		.uleb128 0x17
 12429 1c57 0E0F0000 		.4byte	.LVL404
 12430 1c5b 8D3B0000 		.4byte	0x3b8d
 12431 1c5f 6B1C0000 		.4byte	0x1c6b
 12432 1c63 18       		.uleb128 0x18
 12433 1c64 01       		.uleb128 0x1
 12434 1c65 50       		.byte	0x50
 12435 1c66 03       		.uleb128 0x3
 12436 1c67 0A       		.byte	0xa
 12437 1c68 BC02     		.2byte	0x2bc
 12438 1c6a 00       		.byte	0
 12439 1c6b 17       		.uleb128 0x17
 12440 1c6c 1C0F0000 		.4byte	.LVL405
 12441 1c70 563B0000 		.4byte	0x3b56
 12442 1c74 841C0000 		.4byte	0x1c84
 12443 1c78 18       		.uleb128 0x18
 12444 1c79 01       		.uleb128 0x1
ARM GAS  C:\Users\RECEPC~1\AppData\Local\Temp\cc6Stwwd.s 			page 282


 12445 1c7a 51       		.byte	0x51
 12446 1c7b 02       		.uleb128 0x2
 12447 1c7c 08       		.byte	0x8
 12448 1c7d 5A       		.byte	0x5a
 12449 1c7e 18       		.uleb128 0x18
 12450 1c7f 01       		.uleb128 0x1
 12451 1c80 50       		.byte	0x50
 12452 1c81 01       		.uleb128 0x1
 12453 1c82 31       		.byte	0x31
 12454 1c83 00       		.byte	0
 12455 1c84 17       		.uleb128 0x17
 12456 1c85 260F0000 		.4byte	.LVL406
 12457 1c89 563B0000 		.4byte	0x3b56
 12458 1c8d 9D1C0000 		.4byte	0x1c9d
 12459 1c91 18       		.uleb128 0x18
 12460 1c92 01       		.uleb128 0x1
 12461 1c93 51       		.byte	0x51
 12462 1c94 02       		.uleb128 0x2
 12463 1c95 08       		.byte	0x8
 12464 1c96 27       		.byte	0x27
 12465 1c97 18       		.uleb128 0x18
 12466 1c98 01       		.uleb128 0x1
 12467 1c99 50       		.byte	0x50
 12468 1c9a 01       		.uleb128 0x1
 12469 1c9b 31       		.byte	0x31
 12470 1c9c 00       		.byte	0
 12471 1c9d 17       		.uleb128 0x17
 12472 1c9e 2E0F0000 		.4byte	.LVL407
 12473 1ca2 8D3B0000 		.4byte	0x3b8d
 12474 1ca6 B21C0000 		.4byte	0x1cb2
 12475 1caa 18       		.uleb128 0x18
 12476 1cab 01       		.uleb128 0x1
 12477 1cac 50       		.byte	0x50
 12478 1cad 03       		.uleb128 0x3
 12479 1cae 0A       		.byte	0xa
 12480 1caf BC02     		.2byte	0x2bc
 12481 1cb1 00       		.byte	0
 12482 1cb2 17       		.uleb128 0x17
 12483 1cb3 3C0F0000 		.4byte	.LVL408
 12484 1cb7 563B0000 		.4byte	0x3b56
 12485 1cbb CA1C0000 		.4byte	0x1cca
 12486 1cbf 18       		.uleb128 0x18
 12487 1cc0 01       		.uleb128 0x1
 12488 1cc1 51       		.byte	0x51
 12489 1cc2 01       		.uleb128 0x1
 12490 1cc3 31       		.byte	0x31
 12491 1cc4 18       		.uleb128 0x18
 12492 1cc5 01       		.uleb128 0x1
 12493 1cc6 50       		.byte	0x50
 12494 1cc7 01       		.uleb128 0x1
 12495 1cc8 31       		.byte	0x31
 12496 1cc9 00       		.byte	0
 12497 1cca 15       		.uleb128 0x15
 12498 1ccb 400F0000 		.4byte	.LVL409
 12499 1ccf 4D3C0000 		.4byte	0x3c4d
 12500 1cd3 15       		.uleb128 0x15
 12501 1cd4 460F0000 		.4byte	.LVL410
ARM GAS  C:\Users\RECEPC~1\AppData\Local\Temp\cc6Stwwd.s 			page 283


 12502 1cd8 423C0000 		.4byte	0x3c42
 12503 1cdc 17       		.uleb128 0x17
 12504 1cdd E20F0000 		.4byte	.LVL411
 12505 1ce1 563B0000 		.4byte	0x3b56
 12506 1ce5 F41C0000 		.4byte	0x1cf4
 12507 1ce9 18       		.uleb128 0x18
 12508 1cea 01       		.uleb128 0x1
 12509 1ceb 51       		.byte	0x51
 12510 1cec 01       		.uleb128 0x1
 12511 1ced 36       		.byte	0x36
 12512 1cee 18       		.uleb128 0x18
 12513 1cef 01       		.uleb128 0x1
 12514 1cf0 50       		.byte	0x50
 12515 1cf1 01       		.uleb128 0x1
 12516 1cf2 31       		.byte	0x31
 12517 1cf3 00       		.byte	0
 12518 1cf4 15       		.uleb128 0x15
 12519 1cf5 EE0F0000 		.4byte	.LVL412
 12520 1cf9 2A0F0000 		.4byte	0xf2a
 12521 1cfd 17       		.uleb128 0x17
 12522 1cfe F60F0000 		.4byte	.LVL413
 12523 1d02 563B0000 		.4byte	0x3b56
 12524 1d06 161D0000 		.4byte	0x1d16
 12525 1d0a 18       		.uleb128 0x18
 12526 1d0b 01       		.uleb128 0x1
 12527 1d0c 51       		.byte	0x51
 12528 1d0d 02       		.uleb128 0x2
 12529 1d0e 08       		.byte	0x8
 12530 1d0f 6B       		.byte	0x6b
 12531 1d10 18       		.uleb128 0x18
 12532 1d11 01       		.uleb128 0x1
 12533 1d12 50       		.byte	0x50
 12534 1d13 01       		.uleb128 0x1
 12535 1d14 31       		.byte	0x31
 12536 1d15 00       		.byte	0
 12537 1d16 17       		.uleb128 0x17
 12538 1d17 22100000 		.4byte	.LVL414
 12539 1d1b 563B0000 		.4byte	0x3b56
 12540 1d1f 2E1D0000 		.4byte	0x1d2e
 12541 1d23 18       		.uleb128 0x18
 12542 1d24 01       		.uleb128 0x1
 12543 1d25 51       		.byte	0x51
 12544 1d26 01       		.uleb128 0x1
 12545 1d27 36       		.byte	0x36
 12546 1d28 18       		.uleb128 0x18
 12547 1d29 01       		.uleb128 0x1
 12548 1d2a 50       		.byte	0x50
 12549 1d2b 01       		.uleb128 0x1
 12550 1d2c 31       		.byte	0x31
 12551 1d2d 00       		.byte	0
 12552 1d2e 17       		.uleb128 0x17
 12553 1d2f 70100000 		.4byte	.LVL415
 12554 1d33 563B0000 		.4byte	0x3b56
 12555 1d37 471D0000 		.4byte	0x1d47
 12556 1d3b 18       		.uleb128 0x18
 12557 1d3c 01       		.uleb128 0x1
 12558 1d3d 51       		.byte	0x51
ARM GAS  C:\Users\RECEPC~1\AppData\Local\Temp\cc6Stwwd.s 			page 284


 12559 1d3e 02       		.uleb128 0x2
 12560 1d3f 08       		.byte	0x8
 12561 1d40 3E       		.byte	0x3e
 12562 1d41 18       		.uleb128 0x18
 12563 1d42 01       		.uleb128 0x1
 12564 1d43 50       		.byte	0x50
 12565 1d44 01       		.uleb128 0x1
 12566 1d45 31       		.byte	0x31
 12567 1d46 00       		.byte	0
 12568 1d47 17       		.uleb128 0x17
 12569 1d48 7A100000 		.4byte	.LVL416
 12570 1d4c 563B0000 		.4byte	0x3b56
 12571 1d50 5F1D0000 		.4byte	0x1d5f
 12572 1d54 18       		.uleb128 0x18
 12573 1d55 01       		.uleb128 0x1
 12574 1d56 51       		.byte	0x51
 12575 1d57 01       		.uleb128 0x1
 12576 1d58 31       		.byte	0x31
 12577 1d59 18       		.uleb128 0x18
 12578 1d5a 01       		.uleb128 0x1
 12579 1d5b 50       		.byte	0x50
 12580 1d5c 01       		.uleb128 0x1
 12581 1d5d 31       		.byte	0x31
 12582 1d5e 00       		.byte	0
 12583 1d5f 17       		.uleb128 0x17
 12584 1d60 8A100000 		.4byte	.LVL417
 12585 1d64 563B0000 		.4byte	0x3b56
 12586 1d68 771D0000 		.4byte	0x1d77
 12587 1d6c 18       		.uleb128 0x18
 12588 1d6d 01       		.uleb128 0x1
 12589 1d6e 51       		.byte	0x51
 12590 1d6f 01       		.uleb128 0x1
 12591 1d70 31       		.byte	0x31
 12592 1d71 18       		.uleb128 0x18
 12593 1d72 01       		.uleb128 0x1
 12594 1d73 50       		.byte	0x50
 12595 1d74 01       		.uleb128 0x1
 12596 1d75 31       		.byte	0x31
 12597 1d76 00       		.byte	0
 12598 1d77 17       		.uleb128 0x17
 12599 1d78 96100000 		.4byte	.LVL418
 12600 1d7c 8D3B0000 		.4byte	0x3b8d
 12601 1d80 8A1D0000 		.4byte	0x1d8a
 12602 1d84 18       		.uleb128 0x18
 12603 1d85 01       		.uleb128 0x1
 12604 1d86 50       		.byte	0x50
 12605 1d87 01       		.uleb128 0x1
 12606 1d88 3A       		.byte	0x3a
 12607 1d89 00       		.byte	0
 12608 1d8a 15       		.uleb128 0x15
 12609 1d8b 9A100000 		.4byte	.LVL419
 12610 1d8f 4D3C0000 		.4byte	0x3c4d
 12611 1d93 15       		.uleb128 0x15
 12612 1d94 A0100000 		.4byte	.LVL420
 12613 1d98 423C0000 		.4byte	0x3c42
 12614 1d9c 17       		.uleb128 0x17
 12615 1d9d EE100000 		.4byte	.LVL421
ARM GAS  C:\Users\RECEPC~1\AppData\Local\Temp\cc6Stwwd.s 			page 285


 12616 1da1 563B0000 		.4byte	0x3b56
 12617 1da5 B51D0000 		.4byte	0x1db5
 12618 1da9 18       		.uleb128 0x18
 12619 1daa 01       		.uleb128 0x1
 12620 1dab 51       		.byte	0x51
 12621 1dac 02       		.uleb128 0x2
 12622 1dad 08       		.byte	0x8
 12623 1dae 67       		.byte	0x67
 12624 1daf 18       		.uleb128 0x18
 12625 1db0 01       		.uleb128 0x1
 12626 1db1 50       		.byte	0x50
 12627 1db2 01       		.uleb128 0x1
 12628 1db3 31       		.byte	0x31
 12629 1db4 00       		.byte	0
 12630 1db5 17       		.uleb128 0x17
 12631 1db6 0A110000 		.4byte	.LVL422
 12632 1dba 273B0000 		.4byte	0x3b27
 12633 1dbe CE1D0000 		.4byte	0x1dce
 12634 1dc2 18       		.uleb128 0x18
 12635 1dc3 01       		.uleb128 0x1
 12636 1dc4 51       		.byte	0x51
 12637 1dc5 01       		.uleb128 0x1
 12638 1dc6 38       		.byte	0x38
 12639 1dc7 18       		.uleb128 0x18
 12640 1dc8 01       		.uleb128 0x1
 12641 1dc9 50       		.byte	0x50
 12642 1dca 02       		.uleb128 0x2
 12643 1dcb 74       		.byte	0x74
 12644 1dcc 00       		.sleb128 0
 12645 1dcd 00       		.byte	0
 12646 1dce 17       		.uleb128 0x17
 12647 1dcf 12110000 		.4byte	.LVL423
 12648 1dd3 273B0000 		.4byte	0x3b27
 12649 1dd7 E11D0000 		.4byte	0x1de1
 12650 1ddb 18       		.uleb128 0x18
 12651 1ddc 01       		.uleb128 0x1
 12652 1ddd 51       		.byte	0x51
 12653 1dde 01       		.uleb128 0x1
 12654 1ddf 39       		.byte	0x39
 12655 1de0 00       		.byte	0
 12656 1de1 17       		.uleb128 0x17
 12657 1de2 1A110000 		.4byte	.LVL424
 12658 1de6 563B0000 		.4byte	0x3b56
 12659 1dea FB1D0000 		.4byte	0x1dfb
 12660 1dee 18       		.uleb128 0x18
 12661 1def 01       		.uleb128 0x1
 12662 1df0 51       		.byte	0x51
 12663 1df1 02       		.uleb128 0x2
 12664 1df2 08       		.byte	0x8
 12665 1df3 5A       		.byte	0x5a
 12666 1df4 18       		.uleb128 0x18
 12667 1df5 01       		.uleb128 0x1
 12668 1df6 50       		.byte	0x50
 12669 1df7 02       		.uleb128 0x2
 12670 1df8 74       		.byte	0x74
 12671 1df9 00       		.sleb128 0
 12672 1dfa 00       		.byte	0
ARM GAS  C:\Users\RECEPC~1\AppData\Local\Temp\cc6Stwwd.s 			page 286


 12673 1dfb 17       		.uleb128 0x17
 12674 1dfc 24110000 		.4byte	.LVL425
 12675 1e00 563B0000 		.4byte	0x3b56
 12676 1e04 131E0000 		.4byte	0x1e13
 12677 1e08 18       		.uleb128 0x18
 12678 1e09 01       		.uleb128 0x1
 12679 1e0a 51       		.byte	0x51
 12680 1e0b 01       		.uleb128 0x1
 12681 1e0c 31       		.byte	0x31
 12682 1e0d 18       		.uleb128 0x18
 12683 1e0e 01       		.uleb128 0x1
 12684 1e0f 50       		.byte	0x50
 12685 1e10 01       		.uleb128 0x1
 12686 1e11 31       		.byte	0x31
 12687 1e12 00       		.byte	0
 12688 1e13 17       		.uleb128 0x17
 12689 1e14 34110000 		.4byte	.LVL426
 12690 1e18 563B0000 		.4byte	0x3b56
 12691 1e1c 2B1E0000 		.4byte	0x1e2b
 12692 1e20 18       		.uleb128 0x18
 12693 1e21 01       		.uleb128 0x1
 12694 1e22 51       		.byte	0x51
 12695 1e23 01       		.uleb128 0x1
 12696 1e24 31       		.byte	0x31
 12697 1e25 18       		.uleb128 0x18
 12698 1e26 01       		.uleb128 0x1
 12699 1e27 50       		.byte	0x50
 12700 1e28 01       		.uleb128 0x1
 12701 1e29 31       		.byte	0x31
 12702 1e2a 00       		.byte	0
 12703 1e2b 17       		.uleb128 0x17
 12704 1e2c 40110000 		.4byte	.LVL427
 12705 1e30 8D3B0000 		.4byte	0x3b8d
 12706 1e34 3E1E0000 		.4byte	0x1e3e
 12707 1e38 18       		.uleb128 0x18
 12708 1e39 01       		.uleb128 0x1
 12709 1e3a 50       		.byte	0x50
 12710 1e3b 01       		.uleb128 0x1
 12711 1e3c 3A       		.byte	0x3a
 12712 1e3d 00       		.byte	0
 12713 1e3e 15       		.uleb128 0x15
 12714 1e3f 44110000 		.4byte	.LVL428
 12715 1e43 4D3C0000 		.4byte	0x3c4d
 12716 1e47 15       		.uleb128 0x15
 12717 1e48 4A110000 		.4byte	.LVL429
 12718 1e4c 423C0000 		.4byte	0x3c42
 12719 1e50 17       		.uleb128 0x17
 12720 1e51 AA110000 		.4byte	.LVL430
 12721 1e55 273B0000 		.4byte	0x3b27
 12722 1e59 681E0000 		.4byte	0x1e68
 12723 1e5d 18       		.uleb128 0x18
 12724 1e5e 01       		.uleb128 0x1
 12725 1e5f 51       		.byte	0x51
 12726 1e60 01       		.uleb128 0x1
 12727 1e61 38       		.byte	0x38
 12728 1e62 18       		.uleb128 0x18
 12729 1e63 01       		.uleb128 0x1
ARM GAS  C:\Users\RECEPC~1\AppData\Local\Temp\cc6Stwwd.s 			page 287


 12730 1e64 50       		.byte	0x50
 12731 1e65 01       		.uleb128 0x1
 12732 1e66 32       		.byte	0x32
 12733 1e67 00       		.byte	0
 12734 1e68 17       		.uleb128 0x17
 12735 1e69 B2110000 		.4byte	.LVL431
 12736 1e6d 273B0000 		.4byte	0x3b27
 12737 1e71 7B1E0000 		.4byte	0x1e7b
 12738 1e75 18       		.uleb128 0x18
 12739 1e76 01       		.uleb128 0x1
 12740 1e77 51       		.byte	0x51
 12741 1e78 01       		.uleb128 0x1
 12742 1e79 39       		.byte	0x39
 12743 1e7a 00       		.byte	0
 12744 1e7b 17       		.uleb128 0x17
 12745 1e7c BA110000 		.4byte	.LVL432
 12746 1e80 563B0000 		.4byte	0x3b56
 12747 1e84 941E0000 		.4byte	0x1e94
 12748 1e88 18       		.uleb128 0x18
 12749 1e89 01       		.uleb128 0x1
 12750 1e8a 51       		.byte	0x51
 12751 1e8b 02       		.uleb128 0x2
 12752 1e8c 08       		.byte	0x8
 12753 1e8d 5A       		.byte	0x5a
 12754 1e8e 18       		.uleb128 0x18
 12755 1e8f 01       		.uleb128 0x1
 12756 1e90 50       		.byte	0x50
 12757 1e91 01       		.uleb128 0x1
 12758 1e92 31       		.byte	0x31
 12759 1e93 00       		.byte	0
 12760 1e94 17       		.uleb128 0x17
 12761 1e95 D4110000 		.4byte	.LVL433
 12762 1e99 273B0000 		.4byte	0x3b27
 12763 1e9d AD1E0000 		.4byte	0x1ead
 12764 1ea1 18       		.uleb128 0x18
 12765 1ea2 01       		.uleb128 0x1
 12766 1ea3 51       		.byte	0x51
 12767 1ea4 01       		.uleb128 0x1
 12768 1ea5 38       		.byte	0x38
 12769 1ea6 18       		.uleb128 0x18
 12770 1ea7 01       		.uleb128 0x1
 12771 1ea8 50       		.byte	0x50
 12772 1ea9 02       		.uleb128 0x2
 12773 1eaa 74       		.byte	0x74
 12774 1eab 00       		.sleb128 0
 12775 1eac 00       		.byte	0
 12776 1ead 17       		.uleb128 0x17
 12777 1eae DC110000 		.4byte	.LVL434
 12778 1eb2 273B0000 		.4byte	0x3b27
 12779 1eb6 C01E0000 		.4byte	0x1ec0
 12780 1eba 18       		.uleb128 0x18
 12781 1ebb 01       		.uleb128 0x1
 12782 1ebc 51       		.byte	0x51
 12783 1ebd 01       		.uleb128 0x1
 12784 1ebe 39       		.byte	0x39
 12785 1ebf 00       		.byte	0
 12786 1ec0 17       		.uleb128 0x17
ARM GAS  C:\Users\RECEPC~1\AppData\Local\Temp\cc6Stwwd.s 			page 288


 12787 1ec1 E4110000 		.4byte	.LVL435
 12788 1ec5 563B0000 		.4byte	0x3b56
 12789 1ec9 DA1E0000 		.4byte	0x1eda
 12790 1ecd 18       		.uleb128 0x18
 12791 1ece 01       		.uleb128 0x1
 12792 1ecf 51       		.byte	0x51
 12793 1ed0 02       		.uleb128 0x2
 12794 1ed1 08       		.byte	0x8
 12795 1ed2 5A       		.byte	0x5a
 12796 1ed3 18       		.uleb128 0x18
 12797 1ed4 01       		.uleb128 0x1
 12798 1ed5 50       		.byte	0x50
 12799 1ed6 02       		.uleb128 0x2
 12800 1ed7 74       		.byte	0x74
 12801 1ed8 00       		.sleb128 0
 12802 1ed9 00       		.byte	0
 12803 1eda 17       		.uleb128 0x17
 12804 1edb FC110000 		.4byte	.LVL436
 12805 1edf 273B0000 		.4byte	0x3b27
 12806 1ee3 F21E0000 		.4byte	0x1ef2
 12807 1ee7 18       		.uleb128 0x18
 12808 1ee8 01       		.uleb128 0x1
 12809 1ee9 51       		.byte	0x51
 12810 1eea 01       		.uleb128 0x1
 12811 1eeb 38       		.byte	0x38
 12812 1eec 18       		.uleb128 0x18
 12813 1eed 01       		.uleb128 0x1
 12814 1eee 50       		.byte	0x50
 12815 1eef 01       		.uleb128 0x1
 12816 1ef0 30       		.byte	0x30
 12817 1ef1 00       		.byte	0
 12818 1ef2 17       		.uleb128 0x17
 12819 1ef3 04120000 		.4byte	.LVL437
 12820 1ef7 273B0000 		.4byte	0x3b27
 12821 1efb 051F0000 		.4byte	0x1f05
 12822 1eff 18       		.uleb128 0x18
 12823 1f00 01       		.uleb128 0x1
 12824 1f01 51       		.byte	0x51
 12825 1f02 01       		.uleb128 0x1
 12826 1f03 39       		.byte	0x39
 12827 1f04 00       		.byte	0
 12828 1f05 17       		.uleb128 0x17
 12829 1f06 0C120000 		.4byte	.LVL438
 12830 1f0a 563B0000 		.4byte	0x3b56
 12831 1f0e 1E1F0000 		.4byte	0x1f1e
 12832 1f12 18       		.uleb128 0x18
 12833 1f13 01       		.uleb128 0x1
 12834 1f14 51       		.byte	0x51
 12835 1f15 02       		.uleb128 0x2
 12836 1f16 08       		.byte	0x8
 12837 1f17 5A       		.byte	0x5a
 12838 1f18 18       		.uleb128 0x18
 12839 1f19 01       		.uleb128 0x1
 12840 1f1a 50       		.byte	0x50
 12841 1f1b 01       		.uleb128 0x1
 12842 1f1c 31       		.byte	0x31
 12843 1f1d 00       		.byte	0
ARM GAS  C:\Users\RECEPC~1\AppData\Local\Temp\cc6Stwwd.s 			page 289


 12844 1f1e 17       		.uleb128 0x17
 12845 1f1f 16120000 		.4byte	.LVL439
 12846 1f23 563B0000 		.4byte	0x3b56
 12847 1f27 361F0000 		.4byte	0x1f36
 12848 1f2b 18       		.uleb128 0x18
 12849 1f2c 01       		.uleb128 0x1
 12850 1f2d 51       		.byte	0x51
 12851 1f2e 01       		.uleb128 0x1
 12852 1f2f 31       		.byte	0x31
 12853 1f30 18       		.uleb128 0x18
 12854 1f31 01       		.uleb128 0x1
 12855 1f32 50       		.byte	0x50
 12856 1f33 01       		.uleb128 0x1
 12857 1f34 31       		.byte	0x31
 12858 1f35 00       		.byte	0
 12859 1f36 17       		.uleb128 0x17
 12860 1f37 26120000 		.4byte	.LVL440
 12861 1f3b 563B0000 		.4byte	0x3b56
 12862 1f3f 4E1F0000 		.4byte	0x1f4e
 12863 1f43 18       		.uleb128 0x18
 12864 1f44 01       		.uleb128 0x1
 12865 1f45 51       		.byte	0x51
 12866 1f46 01       		.uleb128 0x1
 12867 1f47 31       		.byte	0x31
 12868 1f48 18       		.uleb128 0x18
 12869 1f49 01       		.uleb128 0x1
 12870 1f4a 50       		.byte	0x50
 12871 1f4b 01       		.uleb128 0x1
 12872 1f4c 31       		.byte	0x31
 12873 1f4d 00       		.byte	0
 12874 1f4e 17       		.uleb128 0x17
 12875 1f4f 32120000 		.4byte	.LVL441
 12876 1f53 8D3B0000 		.4byte	0x3b8d
 12877 1f57 611F0000 		.4byte	0x1f61
 12878 1f5b 18       		.uleb128 0x18
 12879 1f5c 01       		.uleb128 0x1
 12880 1f5d 50       		.byte	0x50
 12881 1f5e 01       		.uleb128 0x1
 12882 1f5f 3A       		.byte	0x3a
 12883 1f60 00       		.byte	0
 12884 1f61 15       		.uleb128 0x15
 12885 1f62 36120000 		.4byte	.LVL442
 12886 1f66 4D3C0000 		.4byte	0x3c4d
 12887 1f6a 15       		.uleb128 0x15
 12888 1f6b 54120000 		.4byte	.LVL443
 12889 1f6f 7B3D0000 		.4byte	0x3d7b
 12890 1f73 17       		.uleb128 0x17
 12891 1f74 7A120000 		.4byte	.LVL444
 12892 1f78 543C0000 		.4byte	0x3c54
 12893 1f7c A61F0000 		.4byte	0x1fa6
 12894 1f80 18       		.uleb128 0x18
 12895 1f81 01       		.uleb128 0x1
 12896 1f82 53       		.byte	0x53
 12897 1f83 01       		.uleb128 0x1
 12898 1f84 38       		.byte	0x38
 12899 1f85 18       		.uleb128 0x18
 12900 1f86 01       		.uleb128 0x1
ARM GAS  C:\Users\RECEPC~1\AppData\Local\Temp\cc6Stwwd.s 			page 290


 12901 1f87 52       		.byte	0x52
 12902 1f88 01       		.uleb128 0x1
 12903 1f89 3D       		.byte	0x3d
 12904 1f8a 18       		.uleb128 0x18
 12905 1f8b 01       		.uleb128 0x1
 12906 1f8c 50       		.byte	0x50
 12907 1f8d 02       		.uleb128 0x2
 12908 1f8e 74       		.byte	0x74
 12909 1f8f 00       		.sleb128 0
 12910 1f90 18       		.uleb128 0x18
 12911 1f91 02       		.uleb128 0x2
 12912 1f92 7D       		.byte	0x7d
 12913 1f93 08       		.sleb128 8
 12914 1f94 02       		.uleb128 0x2
 12915 1f95 75       		.byte	0x75
 12916 1f96 00       		.sleb128 0
 12917 1f97 18       		.uleb128 0x18
 12918 1f98 02       		.uleb128 0x2
 12919 1f99 7D       		.byte	0x7d
 12920 1f9a 04       		.sleb128 4
 12921 1f9b 02       		.uleb128 0x2
 12922 1f9c 76       		.byte	0x76
 12923 1f9d 00       		.sleb128 0
 12924 1f9e 18       		.uleb128 0x18
 12925 1f9f 02       		.uleb128 0x2
 12926 1fa0 7D       		.byte	0x7d
 12927 1fa1 00       		.sleb128 0
 12928 1fa2 02       		.uleb128 0x2
 12929 1fa3 74       		.byte	0x74
 12930 1fa4 00       		.sleb128 0
 12931 1fa5 00       		.byte	0
 12932 1fa6 17       		.uleb128 0x17
 12933 1fa7 92120000 		.4byte	.LVL445
 12934 1fab 543C0000 		.4byte	0x3c54
 12935 1faf D91F0000 		.4byte	0x1fd9
 12936 1fb3 18       		.uleb128 0x18
 12937 1fb4 01       		.uleb128 0x1
 12938 1fb5 53       		.byte	0x53
 12939 1fb6 01       		.uleb128 0x1
 12940 1fb7 39       		.byte	0x39
 12941 1fb8 18       		.uleb128 0x18
 12942 1fb9 01       		.uleb128 0x1
 12943 1fba 52       		.byte	0x52
 12944 1fbb 01       		.uleb128 0x1
 12945 1fbc 3D       		.byte	0x3d
 12946 1fbd 18       		.uleb128 0x18
 12947 1fbe 01       		.uleb128 0x1
 12948 1fbf 50       		.byte	0x50
 12949 1fc0 02       		.uleb128 0x2
 12950 1fc1 74       		.byte	0x74
 12951 1fc2 00       		.sleb128 0
 12952 1fc3 18       		.uleb128 0x18
 12953 1fc4 02       		.uleb128 0x2
 12954 1fc5 7D       		.byte	0x7d
 12955 1fc6 08       		.sleb128 8
 12956 1fc7 02       		.uleb128 0x2
 12957 1fc8 75       		.byte	0x75
ARM GAS  C:\Users\RECEPC~1\AppData\Local\Temp\cc6Stwwd.s 			page 291


 12958 1fc9 00       		.sleb128 0
 12959 1fca 18       		.uleb128 0x18
 12960 1fcb 02       		.uleb128 0x2
 12961 1fcc 7D       		.byte	0x7d
 12962 1fcd 04       		.sleb128 4
 12963 1fce 02       		.uleb128 0x2
 12964 1fcf 76       		.byte	0x76
 12965 1fd0 00       		.sleb128 0
 12966 1fd1 18       		.uleb128 0x18
 12967 1fd2 02       		.uleb128 0x2
 12968 1fd3 7D       		.byte	0x7d
 12969 1fd4 00       		.sleb128 0
 12970 1fd5 02       		.uleb128 0x2
 12971 1fd6 74       		.byte	0x74
 12972 1fd7 00       		.sleb128 0
 12973 1fd8 00       		.byte	0
 12974 1fd9 17       		.uleb128 0x17
 12975 1fda A4120000 		.4byte	.LVL446
 12976 1fde 543C0000 		.4byte	0x3c54
 12977 1fe2 12200000 		.4byte	0x2012
 12978 1fe6 18       		.uleb128 0x18
 12979 1fe7 01       		.uleb128 0x1
 12980 1fe8 53       		.byte	0x53
 12981 1fe9 01       		.uleb128 0x1
 12982 1fea 3A       		.byte	0x3a
 12983 1feb 18       		.uleb128 0x18
 12984 1fec 01       		.uleb128 0x1
 12985 1fed 52       		.byte	0x52
 12986 1fee 01       		.uleb128 0x1
 12987 1fef 3D       		.byte	0x3d
 12988 1ff0 18       		.uleb128 0x18
 12989 1ff1 01       		.uleb128 0x1
 12990 1ff2 51       		.byte	0x51
 12991 1ff3 02       		.uleb128 0x2
 12992 1ff4 08       		.byte	0x8
 12993 1ff5 3A       		.byte	0x3a
 12994 1ff6 18       		.uleb128 0x18
 12995 1ff7 01       		.uleb128 0x1
 12996 1ff8 50       		.byte	0x50
 12997 1ff9 02       		.uleb128 0x2
 12998 1ffa 74       		.byte	0x74
 12999 1ffb 00       		.sleb128 0
 13000 1ffc 18       		.uleb128 0x18
 13001 1ffd 02       		.uleb128 0x2
 13002 1ffe 7D       		.byte	0x7d
 13003 1fff 08       		.sleb128 8
 13004 2000 02       		.uleb128 0x2
 13005 2001 75       		.byte	0x75
 13006 2002 00       		.sleb128 0
 13007 2003 18       		.uleb128 0x18
 13008 2004 02       		.uleb128 0x2
 13009 2005 7D       		.byte	0x7d
 13010 2006 04       		.sleb128 4
 13011 2007 02       		.uleb128 0x2
 13012 2008 76       		.byte	0x76
 13013 2009 00       		.sleb128 0
 13014 200a 18       		.uleb128 0x18
ARM GAS  C:\Users\RECEPC~1\AppData\Local\Temp\cc6Stwwd.s 			page 292


 13015 200b 02       		.uleb128 0x2
 13016 200c 7D       		.byte	0x7d
 13017 200d 00       		.sleb128 0
 13018 200e 02       		.uleb128 0x2
 13019 200f 74       		.byte	0x74
 13020 2010 00       		.sleb128 0
 13021 2011 00       		.byte	0
 13022 2012 17       		.uleb128 0x17
 13023 2013 BA120000 		.4byte	.LVL447
 13024 2017 543C0000 		.4byte	0x3c54
 13025 201b 45200000 		.4byte	0x2045
 13026 201f 18       		.uleb128 0x18
 13027 2020 01       		.uleb128 0x1
 13028 2021 53       		.byte	0x53
 13029 2022 01       		.uleb128 0x1
 13030 2023 3B       		.byte	0x3b
 13031 2024 18       		.uleb128 0x18
 13032 2025 01       		.uleb128 0x1
 13033 2026 52       		.byte	0x52
 13034 2027 01       		.uleb128 0x1
 13035 2028 3D       		.byte	0x3d
 13036 2029 18       		.uleb128 0x18
 13037 202a 01       		.uleb128 0x1
 13038 202b 50       		.byte	0x50
 13039 202c 02       		.uleb128 0x2
 13040 202d 74       		.byte	0x74
 13041 202e 00       		.sleb128 0
 13042 202f 18       		.uleb128 0x18
 13043 2030 02       		.uleb128 0x2
 13044 2031 7D       		.byte	0x7d
 13045 2032 08       		.sleb128 8
 13046 2033 02       		.uleb128 0x2
 13047 2034 75       		.byte	0x75
 13048 2035 00       		.sleb128 0
 13049 2036 18       		.uleb128 0x18
 13050 2037 02       		.uleb128 0x2
 13051 2038 7D       		.byte	0x7d
 13052 2039 04       		.sleb128 4
 13053 203a 02       		.uleb128 0x2
 13054 203b 76       		.byte	0x76
 13055 203c 00       		.sleb128 0
 13056 203d 18       		.uleb128 0x18
 13057 203e 02       		.uleb128 0x2
 13058 203f 7D       		.byte	0x7d
 13059 2040 00       		.sleb128 0
 13060 2041 02       		.uleb128 0x2
 13061 2042 74       		.byte	0x74
 13062 2043 00       		.sleb128 0
 13063 2044 00       		.byte	0
 13064 2045 17       		.uleb128 0x17
 13065 2046 D2120000 		.4byte	.LVL448
 13066 204a 543C0000 		.4byte	0x3c54
 13067 204e 78200000 		.4byte	0x2078
 13068 2052 18       		.uleb128 0x18
 13069 2053 01       		.uleb128 0x1
 13070 2054 53       		.byte	0x53
 13071 2055 01       		.uleb128 0x1
ARM GAS  C:\Users\RECEPC~1\AppData\Local\Temp\cc6Stwwd.s 			page 293


 13072 2056 3C       		.byte	0x3c
 13073 2057 18       		.uleb128 0x18
 13074 2058 01       		.uleb128 0x1
 13075 2059 52       		.byte	0x52
 13076 205a 01       		.uleb128 0x1
 13077 205b 3D       		.byte	0x3d
 13078 205c 18       		.uleb128 0x18
 13079 205d 01       		.uleb128 0x1
 13080 205e 50       		.byte	0x50
 13081 205f 02       		.uleb128 0x2
 13082 2060 74       		.byte	0x74
 13083 2061 00       		.sleb128 0
 13084 2062 18       		.uleb128 0x18
 13085 2063 02       		.uleb128 0x2
 13086 2064 7D       		.byte	0x7d
 13087 2065 08       		.sleb128 8
 13088 2066 02       		.uleb128 0x2
 13089 2067 75       		.byte	0x75
 13090 2068 00       		.sleb128 0
 13091 2069 18       		.uleb128 0x18
 13092 206a 02       		.uleb128 0x2
 13093 206b 7D       		.byte	0x7d
 13094 206c 04       		.sleb128 4
 13095 206d 02       		.uleb128 0x2
 13096 206e 76       		.byte	0x76
 13097 206f 00       		.sleb128 0
 13098 2070 18       		.uleb128 0x18
 13099 2071 02       		.uleb128 0x2
 13100 2072 7D       		.byte	0x7d
 13101 2073 00       		.sleb128 0
 13102 2074 02       		.uleb128 0x2
 13103 2075 74       		.byte	0x74
 13104 2076 00       		.sleb128 0
 13105 2077 00       		.byte	0
 13106 2078 15       		.uleb128 0x15
 13107 2079 D6120000 		.4byte	.LVL449
 13108 207d 8C3D0000 		.4byte	0x3d8c
 13109 2081 17       		.uleb128 0x17
 13110 2082 FA120000 		.4byte	.LVL450
 13111 2086 543C0000 		.4byte	0x3c54
 13112 208a B4200000 		.4byte	0x20b4
 13113 208e 18       		.uleb128 0x18
 13114 208f 01       		.uleb128 0x1
 13115 2090 53       		.byte	0x53
 13116 2091 01       		.uleb128 0x1
 13117 2092 38       		.byte	0x38
 13118 2093 18       		.uleb128 0x18
 13119 2094 01       		.uleb128 0x1
 13120 2095 52       		.byte	0x52
 13121 2096 01       		.uleb128 0x1
 13122 2097 45       		.byte	0x45
 13123 2098 18       		.uleb128 0x18
 13124 2099 01       		.uleb128 0x1
 13125 209a 50       		.byte	0x50
 13126 209b 02       		.uleb128 0x2
 13127 209c 74       		.byte	0x74
 13128 209d 00       		.sleb128 0
ARM GAS  C:\Users\RECEPC~1\AppData\Local\Temp\cc6Stwwd.s 			page 294


 13129 209e 18       		.uleb128 0x18
 13130 209f 02       		.uleb128 0x2
 13131 20a0 7D       		.byte	0x7d
 13132 20a1 08       		.sleb128 8
 13133 20a2 02       		.uleb128 0x2
 13134 20a3 75       		.byte	0x75
 13135 20a4 00       		.sleb128 0
 13136 20a5 18       		.uleb128 0x18
 13137 20a6 02       		.uleb128 0x2
 13138 20a7 7D       		.byte	0x7d
 13139 20a8 04       		.sleb128 4
 13140 20a9 02       		.uleb128 0x2
 13141 20aa 76       		.byte	0x76
 13142 20ab 00       		.sleb128 0
 13143 20ac 18       		.uleb128 0x18
 13144 20ad 02       		.uleb128 0x2
 13145 20ae 7D       		.byte	0x7d
 13146 20af 00       		.sleb128 0
 13147 20b0 02       		.uleb128 0x2
 13148 20b1 74       		.byte	0x74
 13149 20b2 00       		.sleb128 0
 13150 20b3 00       		.byte	0
 13151 20b4 17       		.uleb128 0x17
 13152 20b5 12130000 		.4byte	.LVL451
 13153 20b9 543C0000 		.4byte	0x3c54
 13154 20bd E7200000 		.4byte	0x20e7
 13155 20c1 18       		.uleb128 0x18
 13156 20c2 01       		.uleb128 0x1
 13157 20c3 53       		.byte	0x53
 13158 20c4 01       		.uleb128 0x1
 13159 20c5 39       		.byte	0x39
 13160 20c6 18       		.uleb128 0x18
 13161 20c7 01       		.uleb128 0x1
 13162 20c8 52       		.byte	0x52
 13163 20c9 01       		.uleb128 0x1
 13164 20ca 45       		.byte	0x45
 13165 20cb 18       		.uleb128 0x18
 13166 20cc 01       		.uleb128 0x1
 13167 20cd 50       		.byte	0x50
 13168 20ce 02       		.uleb128 0x2
 13169 20cf 74       		.byte	0x74
 13170 20d0 00       		.sleb128 0
 13171 20d1 18       		.uleb128 0x18
 13172 20d2 02       		.uleb128 0x2
 13173 20d3 7D       		.byte	0x7d
 13174 20d4 08       		.sleb128 8
 13175 20d5 02       		.uleb128 0x2
 13176 20d6 75       		.byte	0x75
 13177 20d7 00       		.sleb128 0
 13178 20d8 18       		.uleb128 0x18
 13179 20d9 02       		.uleb128 0x2
 13180 20da 7D       		.byte	0x7d
 13181 20db 04       		.sleb128 4
 13182 20dc 02       		.uleb128 0x2
 13183 20dd 76       		.byte	0x76
 13184 20de 00       		.sleb128 0
 13185 20df 18       		.uleb128 0x18
ARM GAS  C:\Users\RECEPC~1\AppData\Local\Temp\cc6Stwwd.s 			page 295


 13186 20e0 02       		.uleb128 0x2
 13187 20e1 7D       		.byte	0x7d
 13188 20e2 00       		.sleb128 0
 13189 20e3 02       		.uleb128 0x2
 13190 20e4 74       		.byte	0x74
 13191 20e5 00       		.sleb128 0
 13192 20e6 00       		.byte	0
 13193 20e7 17       		.uleb128 0x17
 13194 20e8 24130000 		.4byte	.LVL452
 13195 20ec 543C0000 		.4byte	0x3c54
 13196 20f0 20210000 		.4byte	0x2120
 13197 20f4 18       		.uleb128 0x18
 13198 20f5 01       		.uleb128 0x1
 13199 20f6 53       		.byte	0x53
 13200 20f7 01       		.uleb128 0x1
 13201 20f8 3A       		.byte	0x3a
 13202 20f9 18       		.uleb128 0x18
 13203 20fa 01       		.uleb128 0x1
 13204 20fb 52       		.byte	0x52
 13205 20fc 01       		.uleb128 0x1
 13206 20fd 45       		.byte	0x45
 13207 20fe 18       		.uleb128 0x18
 13208 20ff 01       		.uleb128 0x1
 13209 2100 51       		.byte	0x51
 13210 2101 02       		.uleb128 0x2
 13211 2102 08       		.byte	0x8
 13212 2103 2F       		.byte	0x2f
 13213 2104 18       		.uleb128 0x18
 13214 2105 01       		.uleb128 0x1
 13215 2106 50       		.byte	0x50
 13216 2107 02       		.uleb128 0x2
 13217 2108 74       		.byte	0x74
 13218 2109 00       		.sleb128 0
 13219 210a 18       		.uleb128 0x18
 13220 210b 02       		.uleb128 0x2
 13221 210c 7D       		.byte	0x7d
 13222 210d 08       		.sleb128 8
 13223 210e 02       		.uleb128 0x2
 13224 210f 75       		.byte	0x75
 13225 2110 00       		.sleb128 0
 13226 2111 18       		.uleb128 0x18
 13227 2112 02       		.uleb128 0x2
 13228 2113 7D       		.byte	0x7d
 13229 2114 04       		.sleb128 4
 13230 2115 02       		.uleb128 0x2
 13231 2116 76       		.byte	0x76
 13232 2117 00       		.sleb128 0
 13233 2118 18       		.uleb128 0x18
 13234 2119 02       		.uleb128 0x2
 13235 211a 7D       		.byte	0x7d
 13236 211b 00       		.sleb128 0
 13237 211c 02       		.uleb128 0x2
 13238 211d 74       		.byte	0x74
 13239 211e 00       		.sleb128 0
 13240 211f 00       		.byte	0
 13241 2120 17       		.uleb128 0x17
 13242 2121 3E130000 		.4byte	.LVL453
ARM GAS  C:\Users\RECEPC~1\AppData\Local\Temp\cc6Stwwd.s 			page 296


 13243 2125 543C0000 		.4byte	0x3c54
 13244 2129 53210000 		.4byte	0x2153
 13245 212d 18       		.uleb128 0x18
 13246 212e 01       		.uleb128 0x1
 13247 212f 53       		.byte	0x53
 13248 2130 01       		.uleb128 0x1
 13249 2131 3B       		.byte	0x3b
 13250 2132 18       		.uleb128 0x18
 13251 2133 01       		.uleb128 0x1
 13252 2134 52       		.byte	0x52
 13253 2135 01       		.uleb128 0x1
 13254 2136 45       		.byte	0x45
 13255 2137 18       		.uleb128 0x18
 13256 2138 01       		.uleb128 0x1
 13257 2139 50       		.byte	0x50
 13258 213a 02       		.uleb128 0x2
 13259 213b 74       		.byte	0x74
 13260 213c 00       		.sleb128 0
 13261 213d 18       		.uleb128 0x18
 13262 213e 02       		.uleb128 0x2
 13263 213f 7D       		.byte	0x7d
 13264 2140 08       		.sleb128 8
 13265 2141 02       		.uleb128 0x2
 13266 2142 75       		.byte	0x75
 13267 2143 00       		.sleb128 0
 13268 2144 18       		.uleb128 0x18
 13269 2145 02       		.uleb128 0x2
 13270 2146 7D       		.byte	0x7d
 13271 2147 04       		.sleb128 4
 13272 2148 02       		.uleb128 0x2
 13273 2149 76       		.byte	0x76
 13274 214a 00       		.sleb128 0
 13275 214b 18       		.uleb128 0x18
 13276 214c 02       		.uleb128 0x2
 13277 214d 7D       		.byte	0x7d
 13278 214e 00       		.sleb128 0
 13279 214f 02       		.uleb128 0x2
 13280 2150 74       		.byte	0x74
 13281 2151 00       		.sleb128 0
 13282 2152 00       		.byte	0
 13283 2153 17       		.uleb128 0x17
 13284 2154 56130000 		.4byte	.LVL454
 13285 2158 543C0000 		.4byte	0x3c54
 13286 215c 86210000 		.4byte	0x2186
 13287 2160 18       		.uleb128 0x18
 13288 2161 01       		.uleb128 0x1
 13289 2162 53       		.byte	0x53
 13290 2163 01       		.uleb128 0x1
 13291 2164 3C       		.byte	0x3c
 13292 2165 18       		.uleb128 0x18
 13293 2166 01       		.uleb128 0x1
 13294 2167 52       		.byte	0x52
 13295 2168 01       		.uleb128 0x1
 13296 2169 45       		.byte	0x45
 13297 216a 18       		.uleb128 0x18
 13298 216b 01       		.uleb128 0x1
 13299 216c 50       		.byte	0x50
ARM GAS  C:\Users\RECEPC~1\AppData\Local\Temp\cc6Stwwd.s 			page 297


 13300 216d 02       		.uleb128 0x2
 13301 216e 74       		.byte	0x74
 13302 216f 00       		.sleb128 0
 13303 2170 18       		.uleb128 0x18
 13304 2171 02       		.uleb128 0x2
 13305 2172 7D       		.byte	0x7d
 13306 2173 08       		.sleb128 8
 13307 2174 02       		.uleb128 0x2
 13308 2175 75       		.byte	0x75
 13309 2176 00       		.sleb128 0
 13310 2177 18       		.uleb128 0x18
 13311 2178 02       		.uleb128 0x2
 13312 2179 7D       		.byte	0x7d
 13313 217a 04       		.sleb128 4
 13314 217b 02       		.uleb128 0x2
 13315 217c 76       		.byte	0x76
 13316 217d 00       		.sleb128 0
 13317 217e 18       		.uleb128 0x18
 13318 217f 02       		.uleb128 0x2
 13319 2180 7D       		.byte	0x7d
 13320 2181 00       		.sleb128 0
 13321 2182 02       		.uleb128 0x2
 13322 2183 74       		.byte	0x74
 13323 2184 00       		.sleb128 0
 13324 2185 00       		.byte	0
 13325 2186 17       		.uleb128 0x17
 13326 2187 68130000 		.4byte	.LVL455
 13327 218b 543C0000 		.4byte	0x3c54
 13328 218f BF210000 		.4byte	0x21bf
 13329 2193 18       		.uleb128 0x18
 13330 2194 01       		.uleb128 0x1
 13331 2195 53       		.byte	0x53
 13332 2196 01       		.uleb128 0x1
 13333 2197 3D       		.byte	0x3d
 13334 2198 18       		.uleb128 0x18
 13335 2199 01       		.uleb128 0x1
 13336 219a 52       		.byte	0x52
 13337 219b 01       		.uleb128 0x1
 13338 219c 45       		.byte	0x45
 13339 219d 18       		.uleb128 0x18
 13340 219e 01       		.uleb128 0x1
 13341 219f 51       		.byte	0x51
 13342 21a0 02       		.uleb128 0x2
 13343 21a1 08       		.byte	0x8
 13344 21a2 2F       		.byte	0x2f
 13345 21a3 18       		.uleb128 0x18
 13346 21a4 01       		.uleb128 0x1
 13347 21a5 50       		.byte	0x50
 13348 21a6 02       		.uleb128 0x2
 13349 21a7 74       		.byte	0x74
 13350 21a8 00       		.sleb128 0
 13351 21a9 18       		.uleb128 0x18
 13352 21aa 02       		.uleb128 0x2
 13353 21ab 7D       		.byte	0x7d
 13354 21ac 08       		.sleb128 8
 13355 21ad 02       		.uleb128 0x2
 13356 21ae 75       		.byte	0x75
ARM GAS  C:\Users\RECEPC~1\AppData\Local\Temp\cc6Stwwd.s 			page 298


 13357 21af 00       		.sleb128 0
 13358 21b0 18       		.uleb128 0x18
 13359 21b1 02       		.uleb128 0x2
 13360 21b2 7D       		.byte	0x7d
 13361 21b3 04       		.sleb128 4
 13362 21b4 02       		.uleb128 0x2
 13363 21b5 76       		.byte	0x76
 13364 21b6 00       		.sleb128 0
 13365 21b7 18       		.uleb128 0x18
 13366 21b8 02       		.uleb128 0x2
 13367 21b9 7D       		.byte	0x7d
 13368 21ba 00       		.sleb128 0
 13369 21bb 02       		.uleb128 0x2
 13370 21bc 74       		.byte	0x74
 13371 21bd 00       		.sleb128 0
 13372 21be 00       		.byte	0
 13373 21bf 17       		.uleb128 0x17
 13374 21c0 7E130000 		.4byte	.LVL456
 13375 21c4 543C0000 		.4byte	0x3c54
 13376 21c8 F2210000 		.4byte	0x21f2
 13377 21cc 18       		.uleb128 0x18
 13378 21cd 01       		.uleb128 0x1
 13379 21ce 53       		.byte	0x53
 13380 21cf 01       		.uleb128 0x1
 13381 21d0 3E       		.byte	0x3e
 13382 21d1 18       		.uleb128 0x18
 13383 21d2 01       		.uleb128 0x1
 13384 21d3 52       		.byte	0x52
 13385 21d4 01       		.uleb128 0x1
 13386 21d5 45       		.byte	0x45
 13387 21d6 18       		.uleb128 0x18
 13388 21d7 01       		.uleb128 0x1
 13389 21d8 50       		.byte	0x50
 13390 21d9 02       		.uleb128 0x2
 13391 21da 74       		.byte	0x74
 13392 21db 00       		.sleb128 0
 13393 21dc 18       		.uleb128 0x18
 13394 21dd 02       		.uleb128 0x2
 13395 21de 7D       		.byte	0x7d
 13396 21df 08       		.sleb128 8
 13397 21e0 02       		.uleb128 0x2
 13398 21e1 75       		.byte	0x75
 13399 21e2 00       		.sleb128 0
 13400 21e3 18       		.uleb128 0x18
 13401 21e4 02       		.uleb128 0x2
 13402 21e5 7D       		.byte	0x7d
 13403 21e6 04       		.sleb128 4
 13404 21e7 02       		.uleb128 0x2
 13405 21e8 76       		.byte	0x76
 13406 21e9 00       		.sleb128 0
 13407 21ea 18       		.uleb128 0x18
 13408 21eb 02       		.uleb128 0x2
 13409 21ec 7D       		.byte	0x7d
 13410 21ed 00       		.sleb128 0
 13411 21ee 02       		.uleb128 0x2
 13412 21ef 74       		.byte	0x74
 13413 21f0 00       		.sleb128 0
ARM GAS  C:\Users\RECEPC~1\AppData\Local\Temp\cc6Stwwd.s 			page 299


 13414 21f1 00       		.byte	0
 13415 21f2 17       		.uleb128 0x17
 13416 21f3 96130000 		.4byte	.LVL457
 13417 21f7 543C0000 		.4byte	0x3c54
 13418 21fb 25220000 		.4byte	0x2225
 13419 21ff 18       		.uleb128 0x18
 13420 2200 01       		.uleb128 0x1
 13421 2201 53       		.byte	0x53
 13422 2202 01       		.uleb128 0x1
 13423 2203 3F       		.byte	0x3f
 13424 2204 18       		.uleb128 0x18
 13425 2205 01       		.uleb128 0x1
 13426 2206 52       		.byte	0x52
 13427 2207 01       		.uleb128 0x1
 13428 2208 45       		.byte	0x45
 13429 2209 18       		.uleb128 0x18
 13430 220a 01       		.uleb128 0x1
 13431 220b 50       		.byte	0x50
 13432 220c 02       		.uleb128 0x2
 13433 220d 74       		.byte	0x74
 13434 220e 00       		.sleb128 0
 13435 220f 18       		.uleb128 0x18
 13436 2210 02       		.uleb128 0x2
 13437 2211 7D       		.byte	0x7d
 13438 2212 08       		.sleb128 8
 13439 2213 02       		.uleb128 0x2
 13440 2214 75       		.byte	0x75
 13441 2215 00       		.sleb128 0
 13442 2216 18       		.uleb128 0x18
 13443 2217 02       		.uleb128 0x2
 13444 2218 7D       		.byte	0x7d
 13445 2219 04       		.sleb128 4
 13446 221a 02       		.uleb128 0x2
 13447 221b 76       		.byte	0x76
 13448 221c 00       		.sleb128 0
 13449 221d 18       		.uleb128 0x18
 13450 221e 02       		.uleb128 0x2
 13451 221f 7D       		.byte	0x7d
 13452 2220 00       		.sleb128 0
 13453 2221 02       		.uleb128 0x2
 13454 2222 74       		.byte	0x74
 13455 2223 00       		.sleb128 0
 13456 2224 00       		.byte	0
 13457 2225 15       		.uleb128 0x15
 13458 2226 9A130000 		.4byte	.LVL458
 13459 222a 423C0000 		.4byte	0x3c42
 13460 222e 17       		.uleb128 0x17
 13461 222f DA130000 		.4byte	.LVL459
 13462 2233 563B0000 		.4byte	0x3b56
 13463 2237 46220000 		.4byte	0x2246
 13464 223b 18       		.uleb128 0x18
 13465 223c 01       		.uleb128 0x1
 13466 223d 51       		.byte	0x51
 13467 223e 01       		.uleb128 0x1
 13468 223f 31       		.byte	0x31
 13469 2240 18       		.uleb128 0x18
 13470 2241 01       		.uleb128 0x1
ARM GAS  C:\Users\RECEPC~1\AppData\Local\Temp\cc6Stwwd.s 			page 300


 13471 2242 50       		.byte	0x50
 13472 2243 01       		.uleb128 0x1
 13473 2244 31       		.byte	0x31
 13474 2245 00       		.byte	0
 13475 2246 17       		.uleb128 0x17
 13476 2247 EA130000 		.4byte	.LVL460
 13477 224b 563B0000 		.4byte	0x3b56
 13478 224f 5E220000 		.4byte	0x225e
 13479 2253 18       		.uleb128 0x18
 13480 2254 01       		.uleb128 0x1
 13481 2255 51       		.byte	0x51
 13482 2256 01       		.uleb128 0x1
 13483 2257 31       		.byte	0x31
 13484 2258 18       		.uleb128 0x18
 13485 2259 01       		.uleb128 0x1
 13486 225a 50       		.byte	0x50
 13487 225b 01       		.uleb128 0x1
 13488 225c 31       		.byte	0x31
 13489 225d 00       		.byte	0
 13490 225e 17       		.uleb128 0x17
 13491 225f F0130000 		.4byte	.LVL461
 13492 2263 8D3B0000 		.4byte	0x3b8d
 13493 2267 71220000 		.4byte	0x2271
 13494 226b 18       		.uleb128 0x18
 13495 226c 01       		.uleb128 0x1
 13496 226d 50       		.byte	0x50
 13497 226e 01       		.uleb128 0x1
 13498 226f 3A       		.byte	0x3a
 13499 2270 00       		.byte	0
 13500 2271 15       		.uleb128 0x15
 13501 2272 F4130000 		.4byte	.LVL462
 13502 2276 4D3C0000 		.4byte	0x3c4d
 13503 227a 00       		.byte	0
 13504 227b 14       		.uleb128 0x14
 13505 227c C4060000 		.4byte	.LASF187
 13506 2280 01       		.byte	0x1
 13507 2281 B704     		.2byte	0x4b7
 13508 2283 00000000 		.4byte	.LFB72
 13509 2287 10140000 		.4byte	.LFE72-.LFB72
 13510 228b 01       		.uleb128 0x1
 13511 228c 9C       		.byte	0x9c
 13512 228d F3320000 		.4byte	0x32f3
 13513 2291 1D       		.uleb128 0x1d
 13514 2292 7800     		.ascii	"x\000"
 13515 2294 01       		.byte	0x1
 13516 2295 B804     		.2byte	0x4b8
 13517 2297 AD000000 		.4byte	0xad
 13518 229b B9030000 		.4byte	.LLST4
 13519 229f 1D       		.uleb128 0x1d
 13520 22a0 7900     		.ascii	"y\000"
 13521 22a2 01       		.byte	0x1
 13522 22a3 B804     		.2byte	0x4b8
 13523 22a5 AD000000 		.4byte	0xad
 13524 22a9 A5060000 		.4byte	.LLST5
 13525 22ad 15       		.uleb128 0x15
 13526 22ae 3E000000 		.4byte	.LVL463
 13527 22b2 810D0000 		.4byte	0xd81
ARM GAS  C:\Users\RECEPC~1\AppData\Local\Temp\cc6Stwwd.s 			page 301


 13528 22b6 15       		.uleb128 0x15
 13529 22b7 50000000 		.4byte	.LVL464
 13530 22bb 9D3D0000 		.4byte	0x3d9d
 13531 22bf 15       		.uleb128 0x15
 13532 22c0 54000000 		.4byte	.LVL465
 13533 22c4 A43D0000 		.4byte	0x3da4
 13534 22c8 17       		.uleb128 0x17
 13535 22c9 74000000 		.4byte	.LVL466
 13536 22cd AB3D0000 		.4byte	0x3dab
 13537 22d1 E1220000 		.4byte	0x22e1
 13538 22d5 18       		.uleb128 0x18
 13539 22d6 01       		.uleb128 0x1
 13540 22d7 51       		.byte	0x51
 13541 22d8 02       		.uleb128 0x2
 13542 22d9 08       		.byte	0x8
 13543 22da 23       		.byte	0x23
 13544 22db 18       		.uleb128 0x18
 13545 22dc 01       		.uleb128 0x1
 13546 22dd 50       		.byte	0x50
 13547 22de 01       		.uleb128 0x1
 13548 22df 32       		.byte	0x32
 13549 22e0 00       		.byte	0
 13550 22e1 15       		.uleb128 0x15
 13551 22e2 9E000000 		.4byte	.LVL467
 13552 22e6 2C3C0000 		.4byte	0x3c2c
 13553 22ea 15       		.uleb128 0x15
 13554 22eb B4000000 		.4byte	.LVL468
 13555 22ef C13D0000 		.4byte	0x3dc1
 13556 22f3 17       		.uleb128 0x17
 13557 22f4 E4000000 		.4byte	.LVL469
 13558 22f8 563B0000 		.4byte	0x3b56
 13559 22fc 0B230000 		.4byte	0x230b
 13560 2300 18       		.uleb128 0x18
 13561 2301 01       		.uleb128 0x1
 13562 2302 51       		.byte	0x51
 13563 2303 01       		.uleb128 0x1
 13564 2304 34       		.byte	0x34
 13565 2305 18       		.uleb128 0x18
 13566 2306 01       		.uleb128 0x1
 13567 2307 50       		.byte	0x50
 13568 2308 01       		.uleb128 0x1
 13569 2309 32       		.byte	0x32
 13570 230a 00       		.byte	0
 13571 230b 17       		.uleb128 0x17
 13572 230c EA000000 		.4byte	.LVL470
 13573 2310 8D3B0000 		.4byte	0x3b8d
 13574 2314 1E230000 		.4byte	0x231e
 13575 2318 18       		.uleb128 0x18
 13576 2319 01       		.uleb128 0x1
 13577 231a 50       		.byte	0x50
 13578 231b 01       		.uleb128 0x1
 13579 231c 3A       		.byte	0x3a
 13580 231d 00       		.byte	0
 13581 231e 15       		.uleb128 0x15
 13582 231f EE000000 		.4byte	.LVL471
 13583 2323 CC3D0000 		.4byte	0x3dcc
 13584 2327 15       		.uleb128 0x15
ARM GAS  C:\Users\RECEPC~1\AppData\Local\Temp\cc6Stwwd.s 			page 302


 13585 2328 F6000000 		.4byte	.LVL472
 13586 232c C13D0000 		.4byte	0x3dc1
 13587 2330 17       		.uleb128 0x17
 13588 2331 50010000 		.4byte	.LVL473
 13589 2335 563B0000 		.4byte	0x3b56
 13590 2339 48230000 		.4byte	0x2348
 13591 233d 18       		.uleb128 0x18
 13592 233e 01       		.uleb128 0x1
 13593 233f 51       		.byte	0x51
 13594 2340 01       		.uleb128 0x1
 13595 2341 35       		.byte	0x35
 13596 2342 18       		.uleb128 0x18
 13597 2343 01       		.uleb128 0x1
 13598 2344 50       		.byte	0x50
 13599 2345 01       		.uleb128 0x1
 13600 2346 32       		.byte	0x32
 13601 2347 00       		.byte	0
 13602 2348 17       		.uleb128 0x17
 13603 2349 6C010000 		.4byte	.LVL474
 13604 234d 563B0000 		.4byte	0x3b56
 13605 2351 61230000 		.4byte	0x2361
 13606 2355 18       		.uleb128 0x18
 13607 2356 01       		.uleb128 0x1
 13608 2357 51       		.byte	0x51
 13609 2358 02       		.uleb128 0x2
 13610 2359 08       		.byte	0x8
 13611 235a 85       		.byte	0x85
 13612 235b 18       		.uleb128 0x18
 13613 235c 01       		.uleb128 0x1
 13614 235d 50       		.byte	0x50
 13615 235e 01       		.uleb128 0x1
 13616 235f 32       		.byte	0x32
 13617 2360 00       		.byte	0
 13618 2361 17       		.uleb128 0x17
 13619 2362 7C010000 		.4byte	.LVL475
 13620 2366 563B0000 		.4byte	0x3b56
 13621 236a 7A230000 		.4byte	0x237a
 13622 236e 18       		.uleb128 0x18
 13623 236f 01       		.uleb128 0x1
 13624 2370 51       		.byte	0x51
 13625 2371 02       		.uleb128 0x2
 13626 2372 08       		.byte	0x8
 13627 2373 83       		.byte	0x83
 13628 2374 18       		.uleb128 0x18
 13629 2375 01       		.uleb128 0x1
 13630 2376 50       		.byte	0x50
 13631 2377 01       		.uleb128 0x1
 13632 2378 32       		.byte	0x32
 13633 2379 00       		.byte	0
 13634 237a 17       		.uleb128 0x17
 13635 237b 8C010000 		.4byte	.LVL476
 13636 237f 563B0000 		.4byte	0x3b56
 13637 2383 92230000 		.4byte	0x2392
 13638 2387 18       		.uleb128 0x18
 13639 2388 01       		.uleb128 0x1
 13640 2389 51       		.byte	0x51
 13641 238a 01       		.uleb128 0x1
ARM GAS  C:\Users\RECEPC~1\AppData\Local\Temp\cc6Stwwd.s 			page 303


 13642 238b 31       		.byte	0x31
 13643 238c 18       		.uleb128 0x18
 13644 238d 01       		.uleb128 0x1
 13645 238e 50       		.byte	0x50
 13646 238f 01       		.uleb128 0x1
 13647 2390 32       		.byte	0x32
 13648 2391 00       		.byte	0
 13649 2392 17       		.uleb128 0x17
 13650 2393 9C010000 		.4byte	.LVL477
 13651 2397 563B0000 		.4byte	0x3b56
 13652 239b AA230000 		.4byte	0x23aa
 13653 239f 18       		.uleb128 0x18
 13654 23a0 01       		.uleb128 0x1
 13655 23a1 51       		.byte	0x51
 13656 23a2 01       		.uleb128 0x1
 13657 23a3 31       		.byte	0x31
 13658 23a4 18       		.uleb128 0x18
 13659 23a5 01       		.uleb128 0x1
 13660 23a6 50       		.byte	0x50
 13661 23a7 01       		.uleb128 0x1
 13662 23a8 32       		.byte	0x32
 13663 23a9 00       		.byte	0
 13664 23aa 17       		.uleb128 0x17
 13665 23ab A2010000 		.4byte	.LVL478
 13666 23af 8D3B0000 		.4byte	0x3b8d
 13667 23b3 BD230000 		.4byte	0x23bd
 13668 23b7 18       		.uleb128 0x18
 13669 23b8 01       		.uleb128 0x1
 13670 23b9 50       		.byte	0x50
 13671 23ba 01       		.uleb128 0x1
 13672 23bb 3A       		.byte	0x3a
 13673 23bc 00       		.byte	0
 13674 23bd 15       		.uleb128 0x15
 13675 23be A6010000 		.4byte	.LVL479
 13676 23c2 CC3D0000 		.4byte	0x3dcc
 13677 23c6 15       		.uleb128 0x15
 13678 23c7 AE010000 		.4byte	.LVL480
 13679 23cb C13D0000 		.4byte	0x3dc1
 13680 23cf 17       		.uleb128 0x17
 13681 23d0 26020000 		.4byte	.LVL481
 13682 23d4 563B0000 		.4byte	0x3b56
 13683 23d8 E8230000 		.4byte	0x23e8
 13684 23dc 18       		.uleb128 0x18
 13685 23dd 01       		.uleb128 0x1
 13686 23de 51       		.byte	0x51
 13687 23df 01       		.uleb128 0x1
 13688 23e0 36       		.byte	0x36
 13689 23e1 18       		.uleb128 0x18
 13690 23e2 01       		.uleb128 0x1
 13691 23e3 50       		.byte	0x50
 13692 23e4 02       		.uleb128 0x2
 13693 23e5 74       		.byte	0x74
 13694 23e6 00       		.sleb128 0
 13695 23e7 00       		.byte	0
 13696 23e8 17       		.uleb128 0x17
 13697 23e9 3C020000 		.4byte	.LVL482
 13698 23ed 543C0000 		.4byte	0x3c54
ARM GAS  C:\Users\RECEPC~1\AppData\Local\Temp\cc6Stwwd.s 			page 304


 13699 23f1 21240000 		.4byte	0x2421
 13700 23f5 18       		.uleb128 0x18
 13701 23f6 01       		.uleb128 0x1
 13702 23f7 53       		.byte	0x53
 13703 23f8 02       		.uleb128 0x2
 13704 23f9 74       		.byte	0x74
 13705 23fa 00       		.sleb128 0
 13706 23fb 18       		.uleb128 0x18
 13707 23fc 01       		.uleb128 0x1
 13708 23fd 52       		.byte	0x52
 13709 23fe 01       		.uleb128 0x1
 13710 23ff 33       		.byte	0x33
 13711 2400 18       		.uleb128 0x18
 13712 2401 01       		.uleb128 0x1
 13713 2402 51       		.byte	0x51
 13714 2403 02       		.uleb128 0x2
 13715 2404 08       		.byte	0x8
 13716 2405 24       		.byte	0x24
 13717 2406 18       		.uleb128 0x18
 13718 2407 01       		.uleb128 0x1
 13719 2408 50       		.byte	0x50
 13720 2409 02       		.uleb128 0x2
 13721 240a 74       		.byte	0x74
 13722 240b 00       		.sleb128 0
 13723 240c 18       		.uleb128 0x18
 13724 240d 02       		.uleb128 0x2
 13725 240e 7D       		.byte	0x7d
 13726 240f 08       		.sleb128 8
 13727 2410 02       		.uleb128 0x2
 13728 2411 08       		.byte	0x8
 13729 2412 4E       		.byte	0x4e
 13730 2413 18       		.uleb128 0x18
 13731 2414 02       		.uleb128 0x2
 13732 2415 7D       		.byte	0x7d
 13733 2416 04       		.sleb128 4
 13734 2417 02       		.uleb128 0x2
 13735 2418 75       		.byte	0x75
 13736 2419 00       		.sleb128 0
 13737 241a 18       		.uleb128 0x18
 13738 241b 02       		.uleb128 0x2
 13739 241c 7D       		.byte	0x7d
 13740 241d 00       		.sleb128 0
 13741 241e 01       		.uleb128 0x1
 13742 241f 31       		.byte	0x31
 13743 2420 00       		.byte	0
 13744 2421 17       		.uleb128 0x17
 13745 2422 60020000 		.4byte	.LVL483
 13746 2426 563B0000 		.4byte	0x3b56
 13747 242a 39240000 		.4byte	0x2439
 13748 242e 18       		.uleb128 0x18
 13749 242f 01       		.uleb128 0x1
 13750 2430 51       		.byte	0x51
 13751 2431 01       		.uleb128 0x1
 13752 2432 3D       		.byte	0x3d
 13753 2433 18       		.uleb128 0x18
 13754 2434 01       		.uleb128 0x1
 13755 2435 50       		.byte	0x50
ARM GAS  C:\Users\RECEPC~1\AppData\Local\Temp\cc6Stwwd.s 			page 305


 13756 2436 01       		.uleb128 0x1
 13757 2437 32       		.byte	0x32
 13758 2438 00       		.byte	0
 13759 2439 17       		.uleb128 0x17
 13760 243a 74020000 		.4byte	.LVL484
 13761 243e 543C0000 		.4byte	0x3c54
 13762 2442 71240000 		.4byte	0x2471
 13763 2446 18       		.uleb128 0x18
 13764 2447 01       		.uleb128 0x1
 13765 2448 53       		.byte	0x53
 13766 2449 01       		.uleb128 0x1
 13767 244a 32       		.byte	0x32
 13768 244b 18       		.uleb128 0x18
 13769 244c 01       		.uleb128 0x1
 13770 244d 52       		.byte	0x52
 13771 244e 01       		.uleb128 0x1
 13772 244f 33       		.byte	0x33
 13773 2450 18       		.uleb128 0x18
 13774 2451 01       		.uleb128 0x1
 13775 2452 51       		.byte	0x51
 13776 2453 02       		.uleb128 0x2
 13777 2454 74       		.byte	0x74
 13778 2455 00       		.sleb128 0
 13779 2456 18       		.uleb128 0x18
 13780 2457 01       		.uleb128 0x1
 13781 2458 50       		.byte	0x50
 13782 2459 01       		.uleb128 0x1
 13783 245a 32       		.byte	0x32
 13784 245b 18       		.uleb128 0x18
 13785 245c 02       		.uleb128 0x2
 13786 245d 7D       		.byte	0x7d
 13787 245e 08       		.sleb128 8
 13788 245f 02       		.uleb128 0x2
 13789 2460 08       		.byte	0x8
 13790 2461 4E       		.byte	0x4e
 13791 2462 18       		.uleb128 0x18
 13792 2463 02       		.uleb128 0x2
 13793 2464 7D       		.byte	0x7d
 13794 2465 04       		.sleb128 4
 13795 2466 02       		.uleb128 0x2
 13796 2467 75       		.byte	0x75
 13797 2468 00       		.sleb128 0
 13798 2469 18       		.uleb128 0x18
 13799 246a 02       		.uleb128 0x2
 13800 246b 7D       		.byte	0x7d
 13801 246c 00       		.sleb128 0
 13802 246d 02       		.uleb128 0x2
 13803 246e 76       		.byte	0x76
 13804 246f 00       		.sleb128 0
 13805 2470 00       		.byte	0
 13806 2471 17       		.uleb128 0x17
 13807 2472 02030000 		.4byte	.LVL495
 13808 2476 563B0000 		.4byte	0x3b56
 13809 247a 8A240000 		.4byte	0x248a
 13810 247e 18       		.uleb128 0x18
 13811 247f 01       		.uleb128 0x1
 13812 2480 51       		.byte	0x51
ARM GAS  C:\Users\RECEPC~1\AppData\Local\Temp\cc6Stwwd.s 			page 306


 13813 2481 02       		.uleb128 0x2
 13814 2482 08       		.byte	0x8
 13815 2483 86       		.byte	0x86
 13816 2484 18       		.uleb128 0x18
 13817 2485 01       		.uleb128 0x1
 13818 2486 50       		.byte	0x50
 13819 2487 01       		.uleb128 0x1
 13820 2488 32       		.byte	0x32
 13821 2489 00       		.byte	0
 13822 248a 17       		.uleb128 0x17
 13823 248b 12030000 		.4byte	.LVL496
 13824 248f 563B0000 		.4byte	0x3b56
 13825 2493 A2240000 		.4byte	0x24a2
 13826 2497 18       		.uleb128 0x18
 13827 2498 01       		.uleb128 0x1
 13828 2499 51       		.byte	0x51
 13829 249a 01       		.uleb128 0x1
 13830 249b 31       		.byte	0x31
 13831 249c 18       		.uleb128 0x18
 13832 249d 01       		.uleb128 0x1
 13833 249e 50       		.byte	0x50
 13834 249f 01       		.uleb128 0x1
 13835 24a0 32       		.byte	0x32
 13836 24a1 00       		.byte	0
 13837 24a2 17       		.uleb128 0x17
 13838 24a3 22030000 		.4byte	.LVL497
 13839 24a7 563B0000 		.4byte	0x3b56
 13840 24ab BA240000 		.4byte	0x24ba
 13841 24af 18       		.uleb128 0x18
 13842 24b0 01       		.uleb128 0x1
 13843 24b1 51       		.byte	0x51
 13844 24b2 01       		.uleb128 0x1
 13845 24b3 31       		.byte	0x31
 13846 24b4 18       		.uleb128 0x18
 13847 24b5 01       		.uleb128 0x1
 13848 24b6 50       		.byte	0x50
 13849 24b7 01       		.uleb128 0x1
 13850 24b8 32       		.byte	0x32
 13851 24b9 00       		.byte	0
 13852 24ba 17       		.uleb128 0x17
 13853 24bb 32030000 		.4byte	.LVL498
 13854 24bf 563B0000 		.4byte	0x3b56
 13855 24c3 D2240000 		.4byte	0x24d2
 13856 24c7 18       		.uleb128 0x18
 13857 24c8 01       		.uleb128 0x1
 13858 24c9 51       		.byte	0x51
 13859 24ca 01       		.uleb128 0x1
 13860 24cb 31       		.byte	0x31
 13861 24cc 18       		.uleb128 0x18
 13862 24cd 01       		.uleb128 0x1
 13863 24ce 50       		.byte	0x50
 13864 24cf 01       		.uleb128 0x1
 13865 24d0 32       		.byte	0x32
 13866 24d1 00       		.byte	0
 13867 24d2 17       		.uleb128 0x17
 13868 24d3 38030000 		.4byte	.LVL499
 13869 24d7 8D3B0000 		.4byte	0x3b8d
ARM GAS  C:\Users\RECEPC~1\AppData\Local\Temp\cc6Stwwd.s 			page 307


 13870 24db E5240000 		.4byte	0x24e5
 13871 24df 18       		.uleb128 0x18
 13872 24e0 01       		.uleb128 0x1
 13873 24e1 50       		.byte	0x50
 13874 24e2 01       		.uleb128 0x1
 13875 24e3 3A       		.byte	0x3a
 13876 24e4 00       		.byte	0
 13877 24e5 15       		.uleb128 0x15
 13878 24e6 3C030000 		.4byte	.LVL500
 13879 24ea CC3D0000 		.4byte	0x3dcc
 13880 24ee 17       		.uleb128 0x17
 13881 24ef 4C030000 		.4byte	.LVL501
 13882 24f3 833C0000 		.4byte	0x3c83
 13883 24f7 06250000 		.4byte	0x2506
 13884 24fb 18       		.uleb128 0x18
 13885 24fc 01       		.uleb128 0x1
 13886 24fd 52       		.byte	0x52
 13887 24fe 01       		.uleb128 0x1
 13888 24ff 30       		.byte	0x30
 13889 2500 18       		.uleb128 0x18
 13890 2501 01       		.uleb128 0x1
 13891 2502 50       		.byte	0x50
 13892 2503 01       		.uleb128 0x1
 13893 2504 32       		.byte	0x32
 13894 2505 00       		.byte	0
 13895 2506 17       		.uleb128 0x17
 13896 2507 64030000 		.4byte	.LVL502
 13897 250b 563B0000 		.4byte	0x3b56
 13898 250f 1E250000 		.4byte	0x251e
 13899 2513 18       		.uleb128 0x18
 13900 2514 01       		.uleb128 0x1
 13901 2515 51       		.byte	0x51
 13902 2516 01       		.uleb128 0x1
 13903 2517 31       		.byte	0x31
 13904 2518 18       		.uleb128 0x18
 13905 2519 01       		.uleb128 0x1
 13906 251a 50       		.byte	0x50
 13907 251b 01       		.uleb128 0x1
 13908 251c 32       		.byte	0x32
 13909 251d 00       		.byte	0
 13910 251e 17       		.uleb128 0x17
 13911 251f 98030000 		.4byte	.LVL509
 13912 2523 563B0000 		.4byte	0x3b56
 13913 2527 37250000 		.4byte	0x2537
 13914 252b 18       		.uleb128 0x18
 13915 252c 01       		.uleb128 0x1
 13916 252d 51       		.byte	0x51
 13917 252e 02       		.uleb128 0x2
 13918 252f 08       		.byte	0x8
 13919 2530 86       		.byte	0x86
 13920 2531 18       		.uleb128 0x18
 13921 2532 01       		.uleb128 0x1
 13922 2533 50       		.byte	0x50
 13923 2534 01       		.uleb128 0x1
 13924 2535 32       		.byte	0x32
 13925 2536 00       		.byte	0
 13926 2537 15       		.uleb128 0x15
ARM GAS  C:\Users\RECEPC~1\AppData\Local\Temp\cc6Stwwd.s 			page 308


 13927 2538 A0030000 		.4byte	.LVL510
 13928 253c C13D0000 		.4byte	0x3dc1
 13929 2540 17       		.uleb128 0x17
 13930 2541 24040000 		.4byte	.LVL511
 13931 2545 563B0000 		.4byte	0x3b56
 13932 2549 58250000 		.4byte	0x2558
 13933 254d 18       		.uleb128 0x18
 13934 254e 01       		.uleb128 0x1
 13935 254f 51       		.byte	0x51
 13936 2550 01       		.uleb128 0x1
 13937 2551 3B       		.byte	0x3b
 13938 2552 18       		.uleb128 0x18
 13939 2553 01       		.uleb128 0x1
 13940 2554 50       		.byte	0x50
 13941 2555 01       		.uleb128 0x1
 13942 2556 32       		.byte	0x32
 13943 2557 00       		.byte	0
 13944 2558 17       		.uleb128 0x17
 13945 2559 3A040000 		.4byte	.LVL512
 13946 255d 563B0000 		.4byte	0x3b56
 13947 2561 70250000 		.4byte	0x2570
 13948 2565 18       		.uleb128 0x18
 13949 2566 01       		.uleb128 0x1
 13950 2567 51       		.byte	0x51
 13951 2568 01       		.uleb128 0x1
 13952 2569 3B       		.byte	0x3b
 13953 256a 18       		.uleb128 0x18
 13954 256b 01       		.uleb128 0x1
 13955 256c 50       		.byte	0x50
 13956 256d 01       		.uleb128 0x1
 13957 256e 32       		.byte	0x32
 13958 256f 00       		.byte	0
 13959 2570 17       		.uleb128 0x17
 13960 2571 52040000 		.4byte	.LVL513
 13961 2575 563B0000 		.4byte	0x3b56
 13962 2579 88250000 		.4byte	0x2588
 13963 257d 18       		.uleb128 0x18
 13964 257e 01       		.uleb128 0x1
 13965 257f 51       		.byte	0x51
 13966 2580 01       		.uleb128 0x1
 13967 2581 3B       		.byte	0x3b
 13968 2582 18       		.uleb128 0x18
 13969 2583 01       		.uleb128 0x1
 13970 2584 50       		.byte	0x50
 13971 2585 01       		.uleb128 0x1
 13972 2586 32       		.byte	0x32
 13973 2587 00       		.byte	0
 13974 2588 17       		.uleb128 0x17
 13975 2589 6A040000 		.4byte	.LVL514
 13976 258d 563B0000 		.4byte	0x3b56
 13977 2591 A0250000 		.4byte	0x25a0
 13978 2595 18       		.uleb128 0x18
 13979 2596 01       		.uleb128 0x1
 13980 2597 51       		.byte	0x51
 13981 2598 01       		.uleb128 0x1
 13982 2599 3B       		.byte	0x3b
 13983 259a 18       		.uleb128 0x18
ARM GAS  C:\Users\RECEPC~1\AppData\Local\Temp\cc6Stwwd.s 			page 309


 13984 259b 01       		.uleb128 0x1
 13985 259c 50       		.byte	0x50
 13986 259d 01       		.uleb128 0x1
 13987 259e 32       		.byte	0x32
 13988 259f 00       		.byte	0
 13989 25a0 17       		.uleb128 0x17
 13990 25a1 7A040000 		.4byte	.LVL515
 13991 25a5 563B0000 		.4byte	0x3b56
 13992 25a9 B8250000 		.4byte	0x25b8
 13993 25ad 18       		.uleb128 0x18
 13994 25ae 01       		.uleb128 0x1
 13995 25af 51       		.byte	0x51
 13996 25b0 01       		.uleb128 0x1
 13997 25b1 31       		.byte	0x31
 13998 25b2 18       		.uleb128 0x18
 13999 25b3 01       		.uleb128 0x1
 14000 25b4 50       		.byte	0x50
 14001 25b5 01       		.uleb128 0x1
 14002 25b6 32       		.byte	0x32
 14003 25b7 00       		.byte	0
 14004 25b8 17       		.uleb128 0x17
 14005 25b9 84040000 		.4byte	.LVL516
 14006 25bd 563B0000 		.4byte	0x3b56
 14007 25c1 D0250000 		.4byte	0x25d0
 14008 25c5 18       		.uleb128 0x18
 14009 25c6 01       		.uleb128 0x1
 14010 25c7 51       		.byte	0x51
 14011 25c8 01       		.uleb128 0x1
 14012 25c9 31       		.byte	0x31
 14013 25ca 18       		.uleb128 0x18
 14014 25cb 01       		.uleb128 0x1
 14015 25cc 50       		.byte	0x50
 14016 25cd 01       		.uleb128 0x1
 14017 25ce 32       		.byte	0x32
 14018 25cf 00       		.byte	0
 14019 25d0 17       		.uleb128 0x17
 14020 25d1 90040000 		.4byte	.LVL517
 14021 25d5 8D3B0000 		.4byte	0x3b8d
 14022 25d9 E3250000 		.4byte	0x25e3
 14023 25dd 18       		.uleb128 0x18
 14024 25de 01       		.uleb128 0x1
 14025 25df 50       		.byte	0x50
 14026 25e0 01       		.uleb128 0x1
 14027 25e1 3A       		.byte	0x3a
 14028 25e2 00       		.byte	0
 14029 25e3 15       		.uleb128 0x15
 14030 25e4 94040000 		.4byte	.LVL518
 14031 25e8 CC3D0000 		.4byte	0x3dcc
 14032 25ec 17       		.uleb128 0x17
 14033 25ed 9E040000 		.4byte	.LVL519
 14034 25f1 F73A0000 		.4byte	0x3af7
 14035 25f5 03260000 		.4byte	0x2603
 14036 25f9 18       		.uleb128 0x18
 14037 25fa 01       		.uleb128 0x1
 14038 25fb 50       		.byte	0x50
 14039 25fc 05       		.uleb128 0x5
 14040 25fd 03       		.byte	0x3
ARM GAS  C:\Users\RECEPC~1\AppData\Local\Temp\cc6Stwwd.s 			page 310


 14041 25fe 00000000 		.4byte	animacion
 14042 2602 00       		.byte	0
 14043 2603 15       		.uleb128 0x15
 14044 2604 A2040000 		.4byte	.LVL520
 14045 2608 A23C0000 		.4byte	0x3ca2
 14046 260c 15       		.uleb128 0x15
 14047 260d A6040000 		.4byte	.LVL521
 14048 2611 C13D0000 		.4byte	0x3dc1
 14049 2615 17       		.uleb128 0x17
 14050 2616 FC040000 		.4byte	.LVL522
 14051 261a 563B0000 		.4byte	0x3b56
 14052 261e 2D260000 		.4byte	0x262d
 14053 2622 18       		.uleb128 0x18
 14054 2623 01       		.uleb128 0x1
 14055 2624 51       		.byte	0x51
 14056 2625 01       		.uleb128 0x1
 14057 2626 3A       		.byte	0x3a
 14058 2627 18       		.uleb128 0x18
 14059 2628 01       		.uleb128 0x1
 14060 2629 50       		.byte	0x50
 14061 262a 01       		.uleb128 0x1
 14062 262b 32       		.byte	0x32
 14063 262c 00       		.byte	0
 14064 262d 17       		.uleb128 0x17
 14065 262e 14050000 		.4byte	.LVL523
 14066 2632 563B0000 		.4byte	0x3b56
 14067 2636 45260000 		.4byte	0x2645
 14068 263a 18       		.uleb128 0x18
 14069 263b 01       		.uleb128 0x1
 14070 263c 51       		.byte	0x51
 14071 263d 01       		.uleb128 0x1
 14072 263e 31       		.byte	0x31
 14073 263f 18       		.uleb128 0x18
 14074 2640 01       		.uleb128 0x1
 14075 2641 50       		.byte	0x50
 14076 2642 01       		.uleb128 0x1
 14077 2643 32       		.byte	0x32
 14078 2644 00       		.byte	0
 14079 2645 17       		.uleb128 0x17
 14080 2646 2E050000 		.4byte	.LVL524
 14081 264a 563B0000 		.4byte	0x3b56
 14082 264e 5D260000 		.4byte	0x265d
 14083 2652 18       		.uleb128 0x18
 14084 2653 01       		.uleb128 0x1
 14085 2654 51       		.byte	0x51
 14086 2655 01       		.uleb128 0x1
 14087 2656 37       		.byte	0x37
 14088 2657 18       		.uleb128 0x18
 14089 2658 01       		.uleb128 0x1
 14090 2659 50       		.byte	0x50
 14091 265a 01       		.uleb128 0x1
 14092 265b 32       		.byte	0x32
 14093 265c 00       		.byte	0
 14094 265d 17       		.uleb128 0x17
 14095 265e 5E050000 		.4byte	.LVL525
 14096 2662 563B0000 		.4byte	0x3b56
 14097 2666 75260000 		.4byte	0x2675
ARM GAS  C:\Users\RECEPC~1\AppData\Local\Temp\cc6Stwwd.s 			page 311


 14098 266a 18       		.uleb128 0x18
 14099 266b 01       		.uleb128 0x1
 14100 266c 51       		.byte	0x51
 14101 266d 01       		.uleb128 0x1
 14102 266e 31       		.byte	0x31
 14103 266f 18       		.uleb128 0x18
 14104 2670 01       		.uleb128 0x1
 14105 2671 50       		.byte	0x50
 14106 2672 01       		.uleb128 0x1
 14107 2673 32       		.byte	0x32
 14108 2674 00       		.byte	0
 14109 2675 17       		.uleb128 0x17
 14110 2676 64050000 		.4byte	.LVL526
 14111 267a 8D3B0000 		.4byte	0x3b8d
 14112 267e 88260000 		.4byte	0x2688
 14113 2682 18       		.uleb128 0x18
 14114 2683 01       		.uleb128 0x1
 14115 2684 50       		.byte	0x50
 14116 2685 01       		.uleb128 0x1
 14117 2686 3A       		.byte	0x3a
 14118 2687 00       		.byte	0
 14119 2688 15       		.uleb128 0x15
 14120 2689 68050000 		.4byte	.LVL527
 14121 268d CC3D0000 		.4byte	0x3dcc
 14122 2691 17       		.uleb128 0x17
 14123 2692 84050000 		.4byte	.LVL528
 14124 2696 563B0000 		.4byte	0x3b56
 14125 269a A9260000 		.4byte	0x26a9
 14126 269e 18       		.uleb128 0x18
 14127 269f 01       		.uleb128 0x1
 14128 26a0 51       		.byte	0x51
 14129 26a1 01       		.uleb128 0x1
 14130 26a2 31       		.byte	0x31
 14131 26a3 18       		.uleb128 0x18
 14132 26a4 01       		.uleb128 0x1
 14133 26a5 50       		.byte	0x50
 14134 26a6 01       		.uleb128 0x1
 14135 26a7 32       		.byte	0x32
 14136 26a8 00       		.byte	0
 14137 26a9 15       		.uleb128 0x15
 14138 26aa 92050000 		.4byte	.LVL529
 14139 26ae A93C0000 		.4byte	0x3ca9
 14140 26b2 17       		.uleb128 0x17
 14141 26b3 B4050000 		.4byte	.LVL530
 14142 26b7 BE3C0000 		.4byte	0x3cbe
 14143 26bb C9260000 		.4byte	0x26c9
 14144 26bf 18       		.uleb128 0x18
 14145 26c0 01       		.uleb128 0x1
 14146 26c1 52       		.byte	0x52
 14147 26c2 05       		.uleb128 0x5
 14148 26c3 03       		.byte	0x3
 14149 26c4 65000000 		.4byte	bufferDisplay2+101
 14150 26c8 00       		.byte	0
 14151 26c9 15       		.uleb128 0x15
 14152 26ca BC050000 		.4byte	.LVL531
 14153 26ce 9D3D0000 		.4byte	0x3d9d
 14154 26d2 15       		.uleb128 0x15
ARM GAS  C:\Users\RECEPC~1\AppData\Local\Temp\cc6Stwwd.s 			page 312


 14155 26d3 C0050000 		.4byte	.LVL532
 14156 26d7 A43D0000 		.4byte	0x3da4
 14157 26db 15       		.uleb128 0x15
 14158 26dc C8050000 		.4byte	.LVL533
 14159 26e0 A93B0000 		.4byte	0x3ba9
 14160 26e4 15       		.uleb128 0x15
 14161 26e5 D4050000 		.4byte	.LVL534
 14162 26e9 E23C0000 		.4byte	0x3ce2
 14163 26ed 17       		.uleb128 0x17
 14164 26ee F2050000 		.4byte	.LVL535
 14165 26f2 563B0000 		.4byte	0x3b56
 14166 26f6 05270000 		.4byte	0x2705
 14167 26fa 18       		.uleb128 0x18
 14168 26fb 01       		.uleb128 0x1
 14169 26fc 51       		.byte	0x51
 14170 26fd 01       		.uleb128 0x1
 14171 26fe 38       		.byte	0x38
 14172 26ff 18       		.uleb128 0x18
 14173 2700 01       		.uleb128 0x1
 14174 2701 50       		.byte	0x50
 14175 2702 01       		.uleb128 0x1
 14176 2703 32       		.byte	0x32
 14177 2704 00       		.byte	0
 14178 2705 17       		.uleb128 0x17
 14179 2706 FE050000 		.4byte	.LVL536
 14180 270a 6C3B0000 		.4byte	0x3b6c
 14181 270e 24270000 		.4byte	0x2724
 14182 2712 18       		.uleb128 0x18
 14183 2713 01       		.uleb128 0x1
 14184 2714 52       		.byte	0x52
 14185 2715 01       		.uleb128 0x1
 14186 2716 42       		.byte	0x42
 14187 2717 18       		.uleb128 0x18
 14188 2718 01       		.uleb128 0x1
 14189 2719 51       		.byte	0x51
 14190 271a 03       		.uleb128 0x3
 14191 271b 74       		.byte	0x74
 14192 271c E500     		.sleb128 101
 14193 271e 18       		.uleb128 0x18
 14194 271f 01       		.uleb128 0x1
 14195 2720 50       		.byte	0x50
 14196 2721 01       		.uleb128 0x1
 14197 2722 32       		.byte	0x32
 14198 2723 00       		.byte	0
 14199 2724 17       		.uleb128 0x17
 14200 2725 0C060000 		.4byte	.LVL537
 14201 2729 563B0000 		.4byte	0x3b56
 14202 272d 3C270000 		.4byte	0x273c
 14203 2731 18       		.uleb128 0x18
 14204 2732 01       		.uleb128 0x1
 14205 2733 51       		.byte	0x51
 14206 2734 01       		.uleb128 0x1
 14207 2735 30       		.byte	0x30
 14208 2736 18       		.uleb128 0x18
 14209 2737 01       		.uleb128 0x1
 14210 2738 50       		.byte	0x50
 14211 2739 01       		.uleb128 0x1
ARM GAS  C:\Users\RECEPC~1\AppData\Local\Temp\cc6Stwwd.s 			page 313


 14212 273a 32       		.byte	0x32
 14213 273b 00       		.byte	0
 14214 273c 17       		.uleb128 0x17
 14215 273d 12060000 		.4byte	.LVL538
 14216 2741 8D3B0000 		.4byte	0x3b8d
 14217 2745 50270000 		.4byte	0x2750
 14218 2749 18       		.uleb128 0x18
 14219 274a 01       		.uleb128 0x1
 14220 274b 50       		.byte	0x50
 14221 274c 02       		.uleb128 0x2
 14222 274d 08       		.byte	0x8
 14223 274e C8       		.byte	0xc8
 14224 274f 00       		.byte	0
 14225 2750 17       		.uleb128 0x17
 14226 2751 1A060000 		.4byte	.LVL539
 14227 2755 563B0000 		.4byte	0x3b56
 14228 2759 68270000 		.4byte	0x2768
 14229 275d 18       		.uleb128 0x18
 14230 275e 01       		.uleb128 0x1
 14231 275f 51       		.byte	0x51
 14232 2760 01       		.uleb128 0x1
 14233 2761 31       		.byte	0x31
 14234 2762 18       		.uleb128 0x18
 14235 2763 01       		.uleb128 0x1
 14236 2764 50       		.byte	0x50
 14237 2765 01       		.uleb128 0x1
 14238 2766 32       		.byte	0x32
 14239 2767 00       		.byte	0
 14240 2768 15       		.uleb128 0x15
 14241 2769 26060000 		.4byte	.LVL540
 14242 276d C13D0000 		.4byte	0x3dc1
 14243 2771 17       		.uleb128 0x17
 14244 2772 5A060000 		.4byte	.LVL541
 14245 2776 563B0000 		.4byte	0x3b56
 14246 277a 89270000 		.4byte	0x2789
 14247 277e 18       		.uleb128 0x18
 14248 277f 01       		.uleb128 0x1
 14249 2780 51       		.byte	0x51
 14250 2781 01       		.uleb128 0x1
 14251 2782 31       		.byte	0x31
 14252 2783 18       		.uleb128 0x18
 14253 2784 01       		.uleb128 0x1
 14254 2785 50       		.byte	0x50
 14255 2786 01       		.uleb128 0x1
 14256 2787 32       		.byte	0x32
 14257 2788 00       		.byte	0
 14258 2789 17       		.uleb128 0x17
 14259 278a 66060000 		.4byte	.LVL542
 14260 278e 8D3B0000 		.4byte	0x3b8d
 14261 2792 9C270000 		.4byte	0x279c
 14262 2796 18       		.uleb128 0x18
 14263 2797 01       		.uleb128 0x1
 14264 2798 50       		.byte	0x50
 14265 2799 01       		.uleb128 0x1
 14266 279a 3A       		.byte	0x3a
 14267 279b 00       		.byte	0
 14268 279c 15       		.uleb128 0x15
ARM GAS  C:\Users\RECEPC~1\AppData\Local\Temp\cc6Stwwd.s 			page 314


 14269 279d 6A060000 		.4byte	.LVL543
 14270 27a1 CC3D0000 		.4byte	0x3dcc
 14271 27a5 15       		.uleb128 0x15
 14272 27a6 78060000 		.4byte	.LVL544
 14273 27aa A93B0000 		.4byte	0x3ba9
 14274 27ae 17       		.uleb128 0x17
 14275 27af B0060000 		.4byte	.LVL545
 14276 27b3 563B0000 		.4byte	0x3b56
 14277 27b7 C6270000 		.4byte	0x27c6
 14278 27bb 18       		.uleb128 0x18
 14279 27bc 01       		.uleb128 0x1
 14280 27bd 51       		.byte	0x51
 14281 27be 01       		.uleb128 0x1
 14282 27bf 31       		.byte	0x31
 14283 27c0 18       		.uleb128 0x18
 14284 27c1 01       		.uleb128 0x1
 14285 27c2 50       		.byte	0x50
 14286 27c3 01       		.uleb128 0x1
 14287 27c4 32       		.byte	0x32
 14288 27c5 00       		.byte	0
 14289 27c6 15       		.uleb128 0x15
 14290 27c7 D0060000 		.4byte	.LVL546
 14291 27cb F33C0000 		.4byte	0x3cf3
 14292 27cf 17       		.uleb128 0x17
 14293 27d0 F4060000 		.4byte	.LVL547
 14294 27d4 563B0000 		.4byte	0x3b56
 14295 27d8 E7270000 		.4byte	0x27e7
 14296 27dc 18       		.uleb128 0x18
 14297 27dd 01       		.uleb128 0x1
 14298 27de 51       		.byte	0x51
 14299 27df 01       		.uleb128 0x1
 14300 27e0 31       		.byte	0x31
 14301 27e1 18       		.uleb128 0x18
 14302 27e2 01       		.uleb128 0x1
 14303 27e3 50       		.byte	0x50
 14304 27e4 01       		.uleb128 0x1
 14305 27e5 32       		.byte	0x32
 14306 27e6 00       		.byte	0
 14307 27e7 17       		.uleb128 0x17
 14308 27e8 0C070000 		.4byte	.LVL548
 14309 27ec 563B0000 		.4byte	0x3b56
 14310 27f0 FF270000 		.4byte	0x27ff
 14311 27f4 18       		.uleb128 0x18
 14312 27f5 01       		.uleb128 0x1
 14313 27f6 51       		.byte	0x51
 14314 27f7 01       		.uleb128 0x1
 14315 27f8 3B       		.byte	0x3b
 14316 27f9 18       		.uleb128 0x18
 14317 27fa 01       		.uleb128 0x1
 14318 27fb 50       		.byte	0x50
 14319 27fc 01       		.uleb128 0x1
 14320 27fd 32       		.byte	0x32
 14321 27fe 00       		.byte	0
 14322 27ff 15       		.uleb128 0x15
 14323 2800 2A070000 		.4byte	.LVL549
 14324 2804 F33C0000 		.4byte	0x3cf3
 14325 2808 17       		.uleb128 0x17
ARM GAS  C:\Users\RECEPC~1\AppData\Local\Temp\cc6Stwwd.s 			page 315


 14326 2809 4E070000 		.4byte	.LVL550
 14327 280d 563B0000 		.4byte	0x3b56
 14328 2811 20280000 		.4byte	0x2820
 14329 2815 18       		.uleb128 0x18
 14330 2816 01       		.uleb128 0x1
 14331 2817 51       		.byte	0x51
 14332 2818 01       		.uleb128 0x1
 14333 2819 31       		.byte	0x31
 14334 281a 18       		.uleb128 0x18
 14335 281b 01       		.uleb128 0x1
 14336 281c 50       		.byte	0x50
 14337 281d 01       		.uleb128 0x1
 14338 281e 32       		.byte	0x32
 14339 281f 00       		.byte	0
 14340 2820 17       		.uleb128 0x17
 14341 2821 66070000 		.4byte	.LVL551
 14342 2825 563B0000 		.4byte	0x3b56
 14343 2829 38280000 		.4byte	0x2838
 14344 282d 18       		.uleb128 0x18
 14345 282e 01       		.uleb128 0x1
 14346 282f 51       		.byte	0x51
 14347 2830 01       		.uleb128 0x1
 14348 2831 3B       		.byte	0x3b
 14349 2832 18       		.uleb128 0x18
 14350 2833 01       		.uleb128 0x1
 14351 2834 50       		.byte	0x50
 14352 2835 01       		.uleb128 0x1
 14353 2836 32       		.byte	0x32
 14354 2837 00       		.byte	0
 14355 2838 17       		.uleb128 0x17
 14356 2839 84070000 		.4byte	.LVL552
 14357 283d 833C0000 		.4byte	0x3c83
 14358 2841 55280000 		.4byte	0x2855
 14359 2845 18       		.uleb128 0x18
 14360 2846 01       		.uleb128 0x1
 14361 2847 52       		.byte	0x52
 14362 2848 01       		.uleb128 0x1
 14363 2849 30       		.byte	0x30
 14364 284a 18       		.uleb128 0x18
 14365 284b 01       		.uleb128 0x1
 14366 284c 51       		.byte	0x51
 14367 284d 01       		.uleb128 0x1
 14368 284e 3A       		.byte	0x3a
 14369 284f 18       		.uleb128 0x18
 14370 2850 01       		.uleb128 0x1
 14371 2851 50       		.byte	0x50
 14372 2852 01       		.uleb128 0x1
 14373 2853 32       		.byte	0x32
 14374 2854 00       		.byte	0
 14375 2855 17       		.uleb128 0x17
 14376 2856 C6070000 		.4byte	.LVL559
 14377 285a 563B0000 		.4byte	0x3b56
 14378 285e 6D280000 		.4byte	0x286d
 14379 2862 18       		.uleb128 0x18
 14380 2863 01       		.uleb128 0x1
 14381 2864 51       		.byte	0x51
 14382 2865 01       		.uleb128 0x1
ARM GAS  C:\Users\RECEPC~1\AppData\Local\Temp\cc6Stwwd.s 			page 316


 14383 2866 31       		.byte	0x31
 14384 2867 18       		.uleb128 0x18
 14385 2868 01       		.uleb128 0x1
 14386 2869 50       		.byte	0x50
 14387 286a 01       		.uleb128 0x1
 14388 286b 32       		.byte	0x32
 14389 286c 00       		.byte	0
 14390 286d 15       		.uleb128 0x15
 14391 286e 12080000 		.4byte	.LVL574
 14392 2872 CC3D0000 		.4byte	0x3dcc
 14393 2876 15       		.uleb128 0x15
 14394 2877 7A080000 		.4byte	.LVL581
 14395 287b 2C3C0000 		.4byte	0x3c2c
 14396 287f 17       		.uleb128 0x17
 14397 2880 88080000 		.4byte	.LVL582
 14398 2884 563B0000 		.4byte	0x3b56
 14399 2888 97280000 		.4byte	0x2897
 14400 288c 18       		.uleb128 0x18
 14401 288d 01       		.uleb128 0x1
 14402 288e 51       		.byte	0x51
 14403 288f 01       		.uleb128 0x1
 14404 2890 31       		.byte	0x31
 14405 2891 18       		.uleb128 0x18
 14406 2892 01       		.uleb128 0x1
 14407 2893 50       		.byte	0x50
 14408 2894 01       		.uleb128 0x1
 14409 2895 32       		.byte	0x32
 14410 2896 00       		.byte	0
 14411 2897 17       		.uleb128 0x17
 14412 2898 96080000 		.4byte	.LVL583
 14413 289c 563B0000 		.4byte	0x3b56
 14414 28a0 AF280000 		.4byte	0x28af
 14415 28a4 18       		.uleb128 0x18
 14416 28a5 01       		.uleb128 0x1
 14417 28a6 51       		.byte	0x51
 14418 28a7 01       		.uleb128 0x1
 14419 28a8 37       		.byte	0x37
 14420 28a9 18       		.uleb128 0x18
 14421 28aa 01       		.uleb128 0x1
 14422 28ab 50       		.byte	0x50
 14423 28ac 01       		.uleb128 0x1
 14424 28ad 32       		.byte	0x32
 14425 28ae 00       		.byte	0
 14426 28af 17       		.uleb128 0x17
 14427 28b0 C2080000 		.4byte	.LVL590
 14428 28b4 563B0000 		.4byte	0x3b56
 14429 28b8 C7280000 		.4byte	0x28c7
 14430 28bc 18       		.uleb128 0x18
 14431 28bd 01       		.uleb128 0x1
 14432 28be 51       		.byte	0x51
 14433 28bf 01       		.uleb128 0x1
 14434 28c0 37       		.byte	0x37
 14435 28c1 18       		.uleb128 0x18
 14436 28c2 01       		.uleb128 0x1
 14437 28c3 50       		.byte	0x50
 14438 28c4 01       		.uleb128 0x1
 14439 28c5 32       		.byte	0x32
ARM GAS  C:\Users\RECEPC~1\AppData\Local\Temp\cc6Stwwd.s 			page 317


 14440 28c6 00       		.byte	0
 14441 28c7 17       		.uleb128 0x17
 14442 28c8 22090000 		.4byte	.LVL601
 14443 28cc 563B0000 		.4byte	0x3b56
 14444 28d0 E0280000 		.4byte	0x28e0
 14445 28d4 18       		.uleb128 0x18
 14446 28d5 01       		.uleb128 0x1
 14447 28d6 51       		.byte	0x51
 14448 28d7 02       		.uleb128 0x2
 14449 28d8 08       		.byte	0x8
 14450 28d9 25       		.byte	0x25
 14451 28da 18       		.uleb128 0x18
 14452 28db 01       		.uleb128 0x1
 14453 28dc 50       		.byte	0x50
 14454 28dd 01       		.uleb128 0x1
 14455 28de 32       		.byte	0x32
 14456 28df 00       		.byte	0
 14457 28e0 15       		.uleb128 0x15
 14458 28e1 26090000 		.4byte	.LVL602
 14459 28e5 CC3D0000 		.4byte	0x3dcc
 14460 28e9 15       		.uleb128 0x15
 14461 28ea 2E090000 		.4byte	.LVL603
 14462 28ee C13D0000 		.4byte	0x3dc1
 14463 28f2 17       		.uleb128 0x17
 14464 28f3 8A090000 		.4byte	.LVL604
 14465 28f7 563B0000 		.4byte	0x3b56
 14466 28fb 0A290000 		.4byte	0x290a
 14467 28ff 18       		.uleb128 0x18
 14468 2900 01       		.uleb128 0x1
 14469 2901 51       		.byte	0x51
 14470 2902 01       		.uleb128 0x1
 14471 2903 42       		.byte	0x42
 14472 2904 18       		.uleb128 0x18
 14473 2905 01       		.uleb128 0x1
 14474 2906 50       		.byte	0x50
 14475 2907 01       		.uleb128 0x1
 14476 2908 32       		.byte	0x32
 14477 2909 00       		.byte	0
 14478 290a 17       		.uleb128 0x17
 14479 290b A4090000 		.4byte	.LVL605
 14480 290f 563B0000 		.4byte	0x3b56
 14481 2913 22290000 		.4byte	0x2922
 14482 2917 18       		.uleb128 0x18
 14483 2918 01       		.uleb128 0x1
 14484 2919 51       		.byte	0x51
 14485 291a 01       		.uleb128 0x1
 14486 291b 37       		.byte	0x37
 14487 291c 18       		.uleb128 0x18
 14488 291d 01       		.uleb128 0x1
 14489 291e 50       		.byte	0x50
 14490 291f 01       		.uleb128 0x1
 14491 2920 32       		.byte	0x32
 14492 2921 00       		.byte	0
 14493 2922 17       		.uleb128 0x17
 14494 2923 B4090000 		.4byte	.LVL606
 14495 2927 563B0000 		.4byte	0x3b56
 14496 292b 3A290000 		.4byte	0x293a
ARM GAS  C:\Users\RECEPC~1\AppData\Local\Temp\cc6Stwwd.s 			page 318


 14497 292f 18       		.uleb128 0x18
 14498 2930 01       		.uleb128 0x1
 14499 2931 51       		.byte	0x51
 14500 2932 01       		.uleb128 0x1
 14501 2933 31       		.byte	0x31
 14502 2934 18       		.uleb128 0x18
 14503 2935 01       		.uleb128 0x1
 14504 2936 50       		.byte	0x50
 14505 2937 01       		.uleb128 0x1
 14506 2938 32       		.byte	0x32
 14507 2939 00       		.byte	0
 14508 293a 17       		.uleb128 0x17
 14509 293b BE090000 		.4byte	.LVL607
 14510 293f 563B0000 		.4byte	0x3b56
 14511 2943 52290000 		.4byte	0x2952
 14512 2947 18       		.uleb128 0x18
 14513 2948 01       		.uleb128 0x1
 14514 2949 51       		.byte	0x51
 14515 294a 01       		.uleb128 0x1
 14516 294b 31       		.byte	0x31
 14517 294c 18       		.uleb128 0x18
 14518 294d 01       		.uleb128 0x1
 14519 294e 50       		.byte	0x50
 14520 294f 01       		.uleb128 0x1
 14521 2950 32       		.byte	0x32
 14522 2951 00       		.byte	0
 14523 2952 17       		.uleb128 0x17
 14524 2953 CA090000 		.4byte	.LVL608
 14525 2957 8D3B0000 		.4byte	0x3b8d
 14526 295b 65290000 		.4byte	0x2965
 14527 295f 18       		.uleb128 0x18
 14528 2960 01       		.uleb128 0x1
 14529 2961 50       		.byte	0x50
 14530 2962 01       		.uleb128 0x1
 14531 2963 3A       		.byte	0x3a
 14532 2964 00       		.byte	0
 14533 2965 15       		.uleb128 0x15
 14534 2966 CE090000 		.4byte	.LVL609
 14535 296a CC3D0000 		.4byte	0x3dcc
 14536 296e 17       		.uleb128 0x17
 14537 296f D8090000 		.4byte	.LVL610
 14538 2973 F73A0000 		.4byte	0x3af7
 14539 2977 85290000 		.4byte	0x2985
 14540 297b 18       		.uleb128 0x18
 14541 297c 01       		.uleb128 0x1
 14542 297d 50       		.byte	0x50
 14543 297e 05       		.uleb128 0x5
 14544 297f 03       		.byte	0x3
 14545 2980 00000000 		.4byte	animacion
 14546 2984 00       		.byte	0
 14547 2985 15       		.uleb128 0x15
 14548 2986 DC090000 		.4byte	.LVL611
 14549 298a A23C0000 		.4byte	0x3ca2
 14550 298e 17       		.uleb128 0x17
 14551 298f E2090000 		.4byte	.LVL612
 14552 2993 083D0000 		.4byte	0x3d08
 14553 2997 A1290000 		.4byte	0x29a1
ARM GAS  C:\Users\RECEPC~1\AppData\Local\Temp\cc6Stwwd.s 			page 319


 14554 299b 18       		.uleb128 0x18
 14555 299c 01       		.uleb128 0x1
 14556 299d 50       		.byte	0x50
 14557 299e 01       		.uleb128 0x1
 14558 299f 32       		.byte	0x32
 14559 29a0 00       		.byte	0
 14560 29a1 17       		.uleb128 0x17
 14561 29a2 EC090000 		.4byte	.LVL613
 14562 29a6 1D3D0000 		.4byte	0x3d1d
 14563 29aa B5290000 		.4byte	0x29b5
 14564 29ae 18       		.uleb128 0x18
 14565 29af 01       		.uleb128 0x1
 14566 29b0 51       		.byte	0x51
 14567 29b1 02       		.uleb128 0x2
 14568 29b2 08       		.byte	0x8
 14569 29b3 33       		.byte	0x33
 14570 29b4 00       		.byte	0
 14571 29b5 17       		.uleb128 0x17
 14572 29b6 F6090000 		.4byte	.LVL615
 14573 29ba 373D0000 		.4byte	0x3d37
 14574 29be C8290000 		.4byte	0x29c8
 14575 29c2 18       		.uleb128 0x18
 14576 29c3 01       		.uleb128 0x1
 14577 29c4 50       		.byte	0x50
 14578 29c5 01       		.uleb128 0x1
 14579 29c6 32       		.byte	0x32
 14580 29c7 00       		.byte	0
 14581 29c8 15       		.uleb128 0x15
 14582 29c9 140A0000 		.4byte	.LVL622
 14583 29cd 4C3D0000 		.4byte	0x3d4c
 14584 29d1 17       		.uleb128 0x17
 14585 29d2 9E0A0000 		.4byte	.LVL633
 14586 29d6 563B0000 		.4byte	0x3b56
 14587 29da E9290000 		.4byte	0x29e9
 14588 29de 18       		.uleb128 0x18
 14589 29df 01       		.uleb128 0x1
 14590 29e0 51       		.byte	0x51
 14591 29e1 01       		.uleb128 0x1
 14592 29e2 43       		.byte	0x43
 14593 29e3 18       		.uleb128 0x18
 14594 29e4 01       		.uleb128 0x1
 14595 29e5 50       		.byte	0x50
 14596 29e6 01       		.uleb128 0x1
 14597 29e7 32       		.byte	0x32
 14598 29e8 00       		.byte	0
 14599 29e9 15       		.uleb128 0x15
 14600 29ea A20A0000 		.4byte	.LVL634
 14601 29ee CC3D0000 		.4byte	0x3dcc
 14602 29f2 17       		.uleb128 0x17
 14603 29f3 AA0A0000 		.4byte	.LVL635
 14604 29f7 8D3B0000 		.4byte	0x3b8d
 14605 29fb 072A0000 		.4byte	0x2a07
 14606 29ff 18       		.uleb128 0x18
 14607 2a00 01       		.uleb128 0x1
 14608 2a01 50       		.byte	0x50
 14609 2a02 03       		.uleb128 0x3
 14610 2a03 0A       		.byte	0xa
ARM GAS  C:\Users\RECEPC~1\AppData\Local\Temp\cc6Stwwd.s 			page 320


 14611 2a04 BC02     		.2byte	0x2bc
 14612 2a06 00       		.byte	0
 14613 2a07 17       		.uleb128 0x17
 14614 2a08 BE0A0000 		.4byte	.LVL636
 14615 2a0c 563B0000 		.4byte	0x3b56
 14616 2a10 1F2A0000 		.4byte	0x2a1f
 14617 2a14 18       		.uleb128 0x18
 14618 2a15 01       		.uleb128 0x1
 14619 2a16 51       		.byte	0x51
 14620 2a17 01       		.uleb128 0x1
 14621 2a18 3E       		.byte	0x3e
 14622 2a19 18       		.uleb128 0x18
 14623 2a1a 01       		.uleb128 0x1
 14624 2a1b 50       		.byte	0x50
 14625 2a1c 01       		.uleb128 0x1
 14626 2a1d 32       		.byte	0x32
 14627 2a1e 00       		.byte	0
 14628 2a1f 17       		.uleb128 0x17
 14629 2a20 DA0A0000 		.4byte	.LVL637
 14630 2a24 563B0000 		.4byte	0x3b56
 14631 2a28 372A0000 		.4byte	0x2a37
 14632 2a2c 18       		.uleb128 0x18
 14633 2a2d 01       		.uleb128 0x1
 14634 2a2e 51       		.byte	0x51
 14635 2a2f 01       		.uleb128 0x1
 14636 2a30 31       		.byte	0x31
 14637 2a31 18       		.uleb128 0x18
 14638 2a32 01       		.uleb128 0x1
 14639 2a33 50       		.byte	0x50
 14640 2a34 01       		.uleb128 0x1
 14641 2a35 32       		.byte	0x32
 14642 2a36 00       		.byte	0
 14643 2a37 15       		.uleb128 0x15
 14644 2a38 E20A0000 		.4byte	.LVL638
 14645 2a3c C13D0000 		.4byte	0x3dc1
 14646 2a40 17       		.uleb128 0x17
 14647 2a41 6C0B0000 		.4byte	.LVL639
 14648 2a45 563B0000 		.4byte	0x3b56
 14649 2a49 592A0000 		.4byte	0x2a59
 14650 2a4d 18       		.uleb128 0x18
 14651 2a4e 01       		.uleb128 0x1
 14652 2a4f 51       		.byte	0x51
 14653 2a50 02       		.uleb128 0x2
 14654 2a51 08       		.byte	0x8
 14655 2a52 2A       		.byte	0x2a
 14656 2a53 18       		.uleb128 0x18
 14657 2a54 01       		.uleb128 0x1
 14658 2a55 50       		.byte	0x50
 14659 2a56 01       		.uleb128 0x1
 14660 2a57 32       		.byte	0x32
 14661 2a58 00       		.byte	0
 14662 2a59 17       		.uleb128 0x17
 14663 2a5a 760B0000 		.4byte	.LVL640
 14664 2a5e 563B0000 		.4byte	0x3b56
 14665 2a62 722A0000 		.4byte	0x2a72
 14666 2a66 18       		.uleb128 0x18
 14667 2a67 01       		.uleb128 0x1
ARM GAS  C:\Users\RECEPC~1\AppData\Local\Temp\cc6Stwwd.s 			page 321


 14668 2a68 51       		.byte	0x51
 14669 2a69 02       		.uleb128 0x2
 14670 2a6a 08       		.byte	0x8
 14671 2a6b 23       		.byte	0x23
 14672 2a6c 18       		.uleb128 0x18
 14673 2a6d 01       		.uleb128 0x1
 14674 2a6e 50       		.byte	0x50
 14675 2a6f 01       		.uleb128 0x1
 14676 2a70 32       		.byte	0x32
 14677 2a71 00       		.byte	0
 14678 2a72 17       		.uleb128 0x17
 14679 2a73 A00B0000 		.4byte	.LVL641
 14680 2a77 563B0000 		.4byte	0x3b56
 14681 2a7b 8B2A0000 		.4byte	0x2a8b
 14682 2a7f 18       		.uleb128 0x18
 14683 2a80 01       		.uleb128 0x1
 14684 2a81 51       		.byte	0x51
 14685 2a82 02       		.uleb128 0x2
 14686 2a83 08       		.byte	0x8
 14687 2a84 25       		.byte	0x25
 14688 2a85 18       		.uleb128 0x18
 14689 2a86 01       		.uleb128 0x1
 14690 2a87 50       		.byte	0x50
 14691 2a88 01       		.uleb128 0x1
 14692 2a89 32       		.byte	0x32
 14693 2a8a 00       		.byte	0
 14694 2a8b 17       		.uleb128 0x17
 14695 2a8c BC0B0000 		.4byte	.LVL642
 14696 2a90 563B0000 		.4byte	0x3b56
 14697 2a94 A32A0000 		.4byte	0x2aa3
 14698 2a98 18       		.uleb128 0x18
 14699 2a99 01       		.uleb128 0x1
 14700 2a9a 51       		.byte	0x51
 14701 2a9b 01       		.uleb128 0x1
 14702 2a9c 31       		.byte	0x31
 14703 2a9d 18       		.uleb128 0x18
 14704 2a9e 01       		.uleb128 0x1
 14705 2a9f 50       		.byte	0x50
 14706 2aa0 01       		.uleb128 0x1
 14707 2aa1 32       		.byte	0x32
 14708 2aa2 00       		.byte	0
 14709 2aa3 17       		.uleb128 0x17
 14710 2aa4 CC0B0000 		.4byte	.LVL643
 14711 2aa8 563B0000 		.4byte	0x3b56
 14712 2aac BB2A0000 		.4byte	0x2abb
 14713 2ab0 18       		.uleb128 0x18
 14714 2ab1 01       		.uleb128 0x1
 14715 2ab2 51       		.byte	0x51
 14716 2ab3 01       		.uleb128 0x1
 14717 2ab4 31       		.byte	0x31
 14718 2ab5 18       		.uleb128 0x18
 14719 2ab6 01       		.uleb128 0x1
 14720 2ab7 50       		.byte	0x50
 14721 2ab8 01       		.uleb128 0x1
 14722 2ab9 32       		.byte	0x32
 14723 2aba 00       		.byte	0
 14724 2abb 17       		.uleb128 0x17
ARM GAS  C:\Users\RECEPC~1\AppData\Local\Temp\cc6Stwwd.s 			page 322


 14725 2abc DC0B0000 		.4byte	.LVL644
 14726 2ac0 563B0000 		.4byte	0x3b56
 14727 2ac4 D32A0000 		.4byte	0x2ad3
 14728 2ac8 18       		.uleb128 0x18
 14729 2ac9 01       		.uleb128 0x1
 14730 2aca 51       		.byte	0x51
 14731 2acb 01       		.uleb128 0x1
 14732 2acc 31       		.byte	0x31
 14733 2acd 18       		.uleb128 0x18
 14734 2ace 01       		.uleb128 0x1
 14735 2acf 50       		.byte	0x50
 14736 2ad0 01       		.uleb128 0x1
 14737 2ad1 32       		.byte	0x32
 14738 2ad2 00       		.byte	0
 14739 2ad3 17       		.uleb128 0x17
 14740 2ad4 EC0B0000 		.4byte	.LVL645
 14741 2ad8 563B0000 		.4byte	0x3b56
 14742 2adc EB2A0000 		.4byte	0x2aeb
 14743 2ae0 18       		.uleb128 0x18
 14744 2ae1 01       		.uleb128 0x1
 14745 2ae2 51       		.byte	0x51
 14746 2ae3 01       		.uleb128 0x1
 14747 2ae4 31       		.byte	0x31
 14748 2ae5 18       		.uleb128 0x18
 14749 2ae6 01       		.uleb128 0x1
 14750 2ae7 50       		.byte	0x50
 14751 2ae8 01       		.uleb128 0x1
 14752 2ae9 32       		.byte	0x32
 14753 2aea 00       		.byte	0
 14754 2aeb 17       		.uleb128 0x17
 14755 2aec F20B0000 		.4byte	.LVL646
 14756 2af0 8D3B0000 		.4byte	0x3b8d
 14757 2af4 FE2A0000 		.4byte	0x2afe
 14758 2af8 18       		.uleb128 0x18
 14759 2af9 01       		.uleb128 0x1
 14760 2afa 50       		.byte	0x50
 14761 2afb 01       		.uleb128 0x1
 14762 2afc 3A       		.byte	0x3a
 14763 2afd 00       		.byte	0
 14764 2afe 15       		.uleb128 0x15
 14765 2aff F60B0000 		.4byte	.LVL647
 14766 2b03 CC3D0000 		.4byte	0x3dcc
 14767 2b07 15       		.uleb128 0x15
 14768 2b08 FC0B0000 		.4byte	.LVL648
 14769 2b0c C13D0000 		.4byte	0x3dc1
 14770 2b10 17       		.uleb128 0x17
 14771 2b11 580C0000 		.4byte	.LVL649
 14772 2b15 563B0000 		.4byte	0x3b56
 14773 2b19 292B0000 		.4byte	0x2b29
 14774 2b1d 18       		.uleb128 0x18
 14775 2b1e 01       		.uleb128 0x1
 14776 2b1f 51       		.byte	0x51
 14777 2b20 02       		.uleb128 0x2
 14778 2b21 08       		.byte	0x8
 14779 2b22 24       		.byte	0x24
 14780 2b23 18       		.uleb128 0x18
 14781 2b24 01       		.uleb128 0x1
ARM GAS  C:\Users\RECEPC~1\AppData\Local\Temp\cc6Stwwd.s 			page 323


 14782 2b25 50       		.byte	0x50
 14783 2b26 01       		.uleb128 0x1
 14784 2b27 32       		.byte	0x32
 14785 2b28 00       		.byte	0
 14786 2b29 17       		.uleb128 0x17
 14787 2b2a 760C0000 		.4byte	.LVL650
 14788 2b2e 563B0000 		.4byte	0x3b56
 14789 2b32 422B0000 		.4byte	0x2b42
 14790 2b36 18       		.uleb128 0x18
 14791 2b37 01       		.uleb128 0x1
 14792 2b38 51       		.byte	0x51
 14793 2b39 02       		.uleb128 0x2
 14794 2b3a 08       		.byte	0x8
 14795 2b3b 24       		.byte	0x24
 14796 2b3c 18       		.uleb128 0x18
 14797 2b3d 01       		.uleb128 0x1
 14798 2b3e 50       		.byte	0x50
 14799 2b3f 01       		.uleb128 0x1
 14800 2b40 32       		.byte	0x32
 14801 2b41 00       		.byte	0
 14802 2b42 17       		.uleb128 0x17
 14803 2b43 800C0000 		.4byte	.LVL651
 14804 2b47 563B0000 		.4byte	0x3b56
 14805 2b4b 5A2B0000 		.4byte	0x2b5a
 14806 2b4f 18       		.uleb128 0x18
 14807 2b50 01       		.uleb128 0x1
 14808 2b51 51       		.byte	0x51
 14809 2b52 01       		.uleb128 0x1
 14810 2b53 31       		.byte	0x31
 14811 2b54 18       		.uleb128 0x18
 14812 2b55 01       		.uleb128 0x1
 14813 2b56 50       		.byte	0x50
 14814 2b57 01       		.uleb128 0x1
 14815 2b58 32       		.byte	0x32
 14816 2b59 00       		.byte	0
 14817 2b5a 17       		.uleb128 0x17
 14818 2b5b 900C0000 		.4byte	.LVL652
 14819 2b5f 563B0000 		.4byte	0x3b56
 14820 2b63 722B0000 		.4byte	0x2b72
 14821 2b67 18       		.uleb128 0x18
 14822 2b68 01       		.uleb128 0x1
 14823 2b69 51       		.byte	0x51
 14824 2b6a 01       		.uleb128 0x1
 14825 2b6b 31       		.byte	0x31
 14826 2b6c 18       		.uleb128 0x18
 14827 2b6d 01       		.uleb128 0x1
 14828 2b6e 50       		.byte	0x50
 14829 2b6f 01       		.uleb128 0x1
 14830 2b70 32       		.byte	0x32
 14831 2b71 00       		.byte	0
 14832 2b72 17       		.uleb128 0x17
 14833 2b73 9C0C0000 		.4byte	.LVL653
 14834 2b77 8D3B0000 		.4byte	0x3b8d
 14835 2b7b 852B0000 		.4byte	0x2b85
 14836 2b7f 18       		.uleb128 0x18
 14837 2b80 01       		.uleb128 0x1
 14838 2b81 50       		.byte	0x50
ARM GAS  C:\Users\RECEPC~1\AppData\Local\Temp\cc6Stwwd.s 			page 324


 14839 2b82 01       		.uleb128 0x1
 14840 2b83 3A       		.byte	0x3a
 14841 2b84 00       		.byte	0
 14842 2b85 15       		.uleb128 0x15
 14843 2b86 A00C0000 		.4byte	.LVL654
 14844 2b8a CC3D0000 		.4byte	0x3dcc
 14845 2b8e 17       		.uleb128 0x17
 14846 2b8f B00C0000 		.4byte	.LVL655
 14847 2b93 833C0000 		.4byte	0x3c83
 14848 2b97 A12B0000 		.4byte	0x2ba1
 14849 2b9b 18       		.uleb128 0x18
 14850 2b9c 01       		.uleb128 0x1
 14851 2b9d 50       		.byte	0x50
 14852 2b9e 01       		.uleb128 0x1
 14853 2b9f 32       		.byte	0x32
 14854 2ba0 00       		.byte	0
 14855 2ba1 17       		.uleb128 0x17
 14856 2ba2 EE0C0000 		.4byte	.LVL662
 14857 2ba6 563B0000 		.4byte	0x3b56
 14858 2baa B92B0000 		.4byte	0x2bb9
 14859 2bae 18       		.uleb128 0x18
 14860 2baf 01       		.uleb128 0x1
 14861 2bb0 51       		.byte	0x51
 14862 2bb1 01       		.uleb128 0x1
 14863 2bb2 31       		.byte	0x31
 14864 2bb3 18       		.uleb128 0x18
 14865 2bb4 01       		.uleb128 0x1
 14866 2bb5 50       		.byte	0x50
 14867 2bb6 01       		.uleb128 0x1
 14868 2bb7 32       		.byte	0x32
 14869 2bb8 00       		.byte	0
 14870 2bb9 17       		.uleb128 0x17
 14871 2bba 140D0000 		.4byte	.LVL669
 14872 2bbe 563B0000 		.4byte	0x3b56
 14873 2bc2 D12B0000 		.4byte	0x2bd1
 14874 2bc6 18       		.uleb128 0x18
 14875 2bc7 01       		.uleb128 0x1
 14876 2bc8 51       		.byte	0x51
 14877 2bc9 01       		.uleb128 0x1
 14878 2bca 31       		.byte	0x31
 14879 2bcb 18       		.uleb128 0x18
 14880 2bcc 01       		.uleb128 0x1
 14881 2bcd 50       		.byte	0x50
 14882 2bce 01       		.uleb128 0x1
 14883 2bcf 32       		.byte	0x32
 14884 2bd0 00       		.byte	0
 14885 2bd1 17       		.uleb128 0x17
 14886 2bd2 3E0D0000 		.4byte	.LVL676
 14887 2bd6 563B0000 		.4byte	0x3b56
 14888 2bda E92B0000 		.4byte	0x2be9
 14889 2bde 18       		.uleb128 0x18
 14890 2bdf 01       		.uleb128 0x1
 14891 2be0 51       		.byte	0x51
 14892 2be1 01       		.uleb128 0x1
 14893 2be2 31       		.byte	0x31
 14894 2be3 18       		.uleb128 0x18
 14895 2be4 01       		.uleb128 0x1
ARM GAS  C:\Users\RECEPC~1\AppData\Local\Temp\cc6Stwwd.s 			page 325


 14896 2be5 50       		.byte	0x50
 14897 2be6 01       		.uleb128 0x1
 14898 2be7 32       		.byte	0x32
 14899 2be8 00       		.byte	0
 14900 2be9 17       		.uleb128 0x17
 14901 2bea 680D0000 		.4byte	.LVL683
 14902 2bee 563B0000 		.4byte	0x3b56
 14903 2bf2 012C0000 		.4byte	0x2c01
 14904 2bf6 18       		.uleb128 0x18
 14905 2bf7 01       		.uleb128 0x1
 14906 2bf8 51       		.byte	0x51
 14907 2bf9 01       		.uleb128 0x1
 14908 2bfa 31       		.byte	0x31
 14909 2bfb 18       		.uleb128 0x18
 14910 2bfc 01       		.uleb128 0x1
 14911 2bfd 50       		.byte	0x50
 14912 2bfe 01       		.uleb128 0x1
 14913 2bff 32       		.byte	0x32
 14914 2c00 00       		.byte	0
 14915 2c01 17       		.uleb128 0x17
 14916 2c02 8E0D0000 		.4byte	.LVL690
 14917 2c06 563B0000 		.4byte	0x3b56
 14918 2c0a 192C0000 		.4byte	0x2c19
 14919 2c0e 18       		.uleb128 0x18
 14920 2c0f 01       		.uleb128 0x1
 14921 2c10 51       		.byte	0x51
 14922 2c11 01       		.uleb128 0x1
 14923 2c12 31       		.byte	0x31
 14924 2c13 18       		.uleb128 0x18
 14925 2c14 01       		.uleb128 0x1
 14926 2c15 50       		.byte	0x50
 14927 2c16 01       		.uleb128 0x1
 14928 2c17 32       		.byte	0x32
 14929 2c18 00       		.byte	0
 14930 2c19 15       		.uleb128 0x15
 14931 2c1a 920D0000 		.4byte	.LVL691
 14932 2c1e CC3D0000 		.4byte	0x3dcc
 14933 2c22 17       		.uleb128 0x17
 14934 2c23 D40D0000 		.4byte	.LVL697
 14935 2c27 663D0000 		.4byte	0x3d66
 14936 2c2b 392C0000 		.4byte	0x2c39
 14937 2c2f 18       		.uleb128 0x18
 14938 2c30 01       		.uleb128 0x1
 14939 2c31 50       		.byte	0x50
 14940 2c32 05       		.uleb128 0x5
 14941 2c33 03       		.byte	0x3
 14942 2c34 00000000 		.4byte	idStation
 14943 2c38 00       		.byte	0
 14944 2c39 17       		.uleb128 0x17
 14945 2c3a EC0D0000 		.4byte	.LVL698
 14946 2c3e 273B0000 		.4byte	0x3b27
 14947 2c42 4C2C0000 		.4byte	0x2c4c
 14948 2c46 18       		.uleb128 0x18
 14949 2c47 01       		.uleb128 0x1
 14950 2c48 51       		.byte	0x51
 14951 2c49 01       		.uleb128 0x1
 14952 2c4a 3A       		.byte	0x3a
ARM GAS  C:\Users\RECEPC~1\AppData\Local\Temp\cc6Stwwd.s 			page 326


 14953 2c4b 00       		.byte	0
 14954 2c4c 17       		.uleb128 0x17
 14955 2c4d F40D0000 		.4byte	.LVL699
 14956 2c51 273B0000 		.4byte	0x3b27
 14957 2c55 5F2C0000 		.4byte	0x2c5f
 14958 2c59 18       		.uleb128 0x18
 14959 2c5a 01       		.uleb128 0x1
 14960 2c5b 51       		.byte	0x51
 14961 2c5c 01       		.uleb128 0x1
 14962 2c5d 3B       		.byte	0x3b
 14963 2c5e 00       		.byte	0
 14964 2c5f 17       		.uleb128 0x17
 14965 2c60 020E0000 		.4byte	.LVL700
 14966 2c64 563B0000 		.4byte	0x3b56
 14967 2c68 782C0000 		.4byte	0x2c78
 14968 2c6c 18       		.uleb128 0x18
 14969 2c6d 01       		.uleb128 0x1
 14970 2c6e 51       		.byte	0x51
 14971 2c6f 02       		.uleb128 0x2
 14972 2c70 08       		.byte	0x8
 14973 2c71 5A       		.byte	0x5a
 14974 2c72 18       		.uleb128 0x18
 14975 2c73 01       		.uleb128 0x1
 14976 2c74 50       		.byte	0x50
 14977 2c75 01       		.uleb128 0x1
 14978 2c76 32       		.byte	0x32
 14979 2c77 00       		.byte	0
 14980 2c78 17       		.uleb128 0x17
 14981 2c79 620E0000 		.4byte	.LVL707
 14982 2c7d 563B0000 		.4byte	0x3b56
 14983 2c81 912C0000 		.4byte	0x2c91
 14984 2c85 18       		.uleb128 0x18
 14985 2c86 01       		.uleb128 0x1
 14986 2c87 51       		.byte	0x51
 14987 2c88 02       		.uleb128 0x2
 14988 2c89 08       		.byte	0x8
 14989 2c8a 5A       		.byte	0x5a
 14990 2c8b 18       		.uleb128 0x18
 14991 2c8c 01       		.uleb128 0x1
 14992 2c8d 50       		.byte	0x50
 14993 2c8e 01       		.uleb128 0x1
 14994 2c8f 32       		.byte	0x32
 14995 2c90 00       		.byte	0
 14996 2c91 17       		.uleb128 0x17
 14997 2c92 8E0E0000 		.4byte	.LVL714
 14998 2c96 563B0000 		.4byte	0x3b56
 14999 2c9a AA2C0000 		.4byte	0x2caa
 15000 2c9e 18       		.uleb128 0x18
 15001 2c9f 01       		.uleb128 0x1
 15002 2ca0 51       		.byte	0x51
 15003 2ca1 02       		.uleb128 0x2
 15004 2ca2 08       		.byte	0x8
 15005 2ca3 39       		.byte	0x39
 15006 2ca4 18       		.uleb128 0x18
 15007 2ca5 01       		.uleb128 0x1
 15008 2ca6 50       		.byte	0x50
 15009 2ca7 01       		.uleb128 0x1
ARM GAS  C:\Users\RECEPC~1\AppData\Local\Temp\cc6Stwwd.s 			page 327


 15010 2ca8 32       		.byte	0x32
 15011 2ca9 00       		.byte	0
 15012 2caa 17       		.uleb128 0x17
 15013 2cab BA0E0000 		.4byte	.LVL721
 15014 2caf 563B0000 		.4byte	0x3b56
 15015 2cb3 C32C0000 		.4byte	0x2cc3
 15016 2cb7 18       		.uleb128 0x18
 15017 2cb8 01       		.uleb128 0x1
 15018 2cb9 51       		.byte	0x51
 15019 2cba 02       		.uleb128 0x2
 15020 2cbb 08       		.byte	0x8
 15021 2cbc 5A       		.byte	0x5a
 15022 2cbd 18       		.uleb128 0x18
 15023 2cbe 01       		.uleb128 0x1
 15024 2cbf 50       		.byte	0x50
 15025 2cc0 01       		.uleb128 0x1
 15026 2cc1 32       		.byte	0x32
 15027 2cc2 00       		.byte	0
 15028 2cc3 17       		.uleb128 0x17
 15029 2cc4 100F0000 		.4byte	.LVL728
 15030 2cc8 563B0000 		.4byte	0x3b56
 15031 2ccc DC2C0000 		.4byte	0x2cdc
 15032 2cd0 18       		.uleb128 0x18
 15033 2cd1 01       		.uleb128 0x1
 15034 2cd2 51       		.byte	0x51
 15035 2cd3 02       		.uleb128 0x2
 15036 2cd4 08       		.byte	0x8
 15037 2cd5 26       		.byte	0x26
 15038 2cd6 18       		.uleb128 0x18
 15039 2cd7 01       		.uleb128 0x1
 15040 2cd8 50       		.byte	0x50
 15041 2cd9 01       		.uleb128 0x1
 15042 2cda 32       		.byte	0x32
 15043 2cdb 00       		.byte	0
 15044 2cdc 17       		.uleb128 0x17
 15045 2cdd 180F0000 		.4byte	.LVL729
 15046 2ce1 8D3B0000 		.4byte	0x3b8d
 15047 2ce5 F12C0000 		.4byte	0x2cf1
 15048 2ce9 18       		.uleb128 0x18
 15049 2cea 01       		.uleb128 0x1
 15050 2ceb 50       		.byte	0x50
 15051 2cec 03       		.uleb128 0x3
 15052 2ced 0A       		.byte	0xa
 15053 2cee BC02     		.2byte	0x2bc
 15054 2cf0 00       		.byte	0
 15055 2cf1 17       		.uleb128 0x17
 15056 2cf2 260F0000 		.4byte	.LVL730
 15057 2cf6 563B0000 		.4byte	0x3b56
 15058 2cfa 0A2D0000 		.4byte	0x2d0a
 15059 2cfe 18       		.uleb128 0x18
 15060 2cff 01       		.uleb128 0x1
 15061 2d00 51       		.byte	0x51
 15062 2d01 02       		.uleb128 0x2
 15063 2d02 08       		.byte	0x8
 15064 2d03 5A       		.byte	0x5a
 15065 2d04 18       		.uleb128 0x18
 15066 2d05 01       		.uleb128 0x1
ARM GAS  C:\Users\RECEPC~1\AppData\Local\Temp\cc6Stwwd.s 			page 328


 15067 2d06 50       		.byte	0x50
 15068 2d07 01       		.uleb128 0x1
 15069 2d08 32       		.byte	0x32
 15070 2d09 00       		.byte	0
 15071 2d0a 17       		.uleb128 0x17
 15072 2d0b 300F0000 		.4byte	.LVL731
 15073 2d0f 563B0000 		.4byte	0x3b56
 15074 2d13 232D0000 		.4byte	0x2d23
 15075 2d17 18       		.uleb128 0x18
 15076 2d18 01       		.uleb128 0x1
 15077 2d19 51       		.byte	0x51
 15078 2d1a 02       		.uleb128 0x2
 15079 2d1b 08       		.byte	0x8
 15080 2d1c 27       		.byte	0x27
 15081 2d1d 18       		.uleb128 0x18
 15082 2d1e 01       		.uleb128 0x1
 15083 2d1f 50       		.byte	0x50
 15084 2d20 01       		.uleb128 0x1
 15085 2d21 32       		.byte	0x32
 15086 2d22 00       		.byte	0
 15087 2d23 17       		.uleb128 0x17
 15088 2d24 380F0000 		.4byte	.LVL732
 15089 2d28 8D3B0000 		.4byte	0x3b8d
 15090 2d2c 382D0000 		.4byte	0x2d38
 15091 2d30 18       		.uleb128 0x18
 15092 2d31 01       		.uleb128 0x1
 15093 2d32 50       		.byte	0x50
 15094 2d33 03       		.uleb128 0x3
 15095 2d34 0A       		.byte	0xa
 15096 2d35 BC02     		.2byte	0x2bc
 15097 2d37 00       		.byte	0
 15098 2d38 17       		.uleb128 0x17
 15099 2d39 460F0000 		.4byte	.LVL733
 15100 2d3d 563B0000 		.4byte	0x3b56
 15101 2d41 502D0000 		.4byte	0x2d50
 15102 2d45 18       		.uleb128 0x18
 15103 2d46 01       		.uleb128 0x1
 15104 2d47 51       		.byte	0x51
 15105 2d48 01       		.uleb128 0x1
 15106 2d49 31       		.byte	0x31
 15107 2d4a 18       		.uleb128 0x18
 15108 2d4b 01       		.uleb128 0x1
 15109 2d4c 50       		.byte	0x50
 15110 2d4d 01       		.uleb128 0x1
 15111 2d4e 32       		.byte	0x32
 15112 2d4f 00       		.byte	0
 15113 2d50 15       		.uleb128 0x15
 15114 2d51 4A0F0000 		.4byte	.LVL734
 15115 2d55 CC3D0000 		.4byte	0x3dcc
 15116 2d59 15       		.uleb128 0x15
 15117 2d5a 500F0000 		.4byte	.LVL735
 15118 2d5e C13D0000 		.4byte	0x3dc1
 15119 2d62 17       		.uleb128 0x17
 15120 2d63 E80F0000 		.4byte	.LVL736
 15121 2d67 563B0000 		.4byte	0x3b56
 15122 2d6b 7A2D0000 		.4byte	0x2d7a
 15123 2d6f 18       		.uleb128 0x18
ARM GAS  C:\Users\RECEPC~1\AppData\Local\Temp\cc6Stwwd.s 			page 329


 15124 2d70 01       		.uleb128 0x1
 15125 2d71 51       		.byte	0x51
 15126 2d72 01       		.uleb128 0x1
 15127 2d73 36       		.byte	0x36
 15128 2d74 18       		.uleb128 0x18
 15129 2d75 01       		.uleb128 0x1
 15130 2d76 50       		.byte	0x50
 15131 2d77 01       		.uleb128 0x1
 15132 2d78 32       		.byte	0x32
 15133 2d79 00       		.byte	0
 15134 2d7a 15       		.uleb128 0x15
 15135 2d7b F40F0000 		.4byte	.LVL737
 15136 2d7f 2A0F0000 		.4byte	0xf2a
 15137 2d83 17       		.uleb128 0x17
 15138 2d84 FC0F0000 		.4byte	.LVL738
 15139 2d88 563B0000 		.4byte	0x3b56
 15140 2d8c 9C2D0000 		.4byte	0x2d9c
 15141 2d90 18       		.uleb128 0x18
 15142 2d91 01       		.uleb128 0x1
 15143 2d92 51       		.byte	0x51
 15144 2d93 02       		.uleb128 0x2
 15145 2d94 08       		.byte	0x8
 15146 2d95 6B       		.byte	0x6b
 15147 2d96 18       		.uleb128 0x18
 15148 2d97 01       		.uleb128 0x1
 15149 2d98 50       		.byte	0x50
 15150 2d99 01       		.uleb128 0x1
 15151 2d9a 32       		.byte	0x32
 15152 2d9b 00       		.byte	0
 15153 2d9c 17       		.uleb128 0x17
 15154 2d9d 26100000 		.4byte	.LVL739
 15155 2da1 563B0000 		.4byte	0x3b56
 15156 2da5 B42D0000 		.4byte	0x2db4
 15157 2da9 18       		.uleb128 0x18
 15158 2daa 01       		.uleb128 0x1
 15159 2dab 51       		.byte	0x51
 15160 2dac 01       		.uleb128 0x1
 15161 2dad 36       		.byte	0x36
 15162 2dae 18       		.uleb128 0x18
 15163 2daf 01       		.uleb128 0x1
 15164 2db0 50       		.byte	0x50
 15165 2db1 01       		.uleb128 0x1
 15166 2db2 32       		.byte	0x32
 15167 2db3 00       		.byte	0
 15168 2db4 17       		.uleb128 0x17
 15169 2db5 44100000 		.4byte	.LVL740
 15170 2db9 563B0000 		.4byte	0x3b56
 15171 2dbd CD2D0000 		.4byte	0x2dcd
 15172 2dc1 18       		.uleb128 0x18
 15173 2dc2 01       		.uleb128 0x1
 15174 2dc3 51       		.byte	0x51
 15175 2dc4 02       		.uleb128 0x2
 15176 2dc5 08       		.byte	0x8
 15177 2dc6 3E       		.byte	0x3e
 15178 2dc7 18       		.uleb128 0x18
 15179 2dc8 01       		.uleb128 0x1
 15180 2dc9 50       		.byte	0x50
ARM GAS  C:\Users\RECEPC~1\AppData\Local\Temp\cc6Stwwd.s 			page 330


 15181 2dca 01       		.uleb128 0x1
 15182 2dcb 32       		.byte	0x32
 15183 2dcc 00       		.byte	0
 15184 2dcd 17       		.uleb128 0x17
 15185 2dce 4E100000 		.4byte	.LVL741
 15186 2dd2 563B0000 		.4byte	0x3b56
 15187 2dd6 E52D0000 		.4byte	0x2de5
 15188 2dda 18       		.uleb128 0x18
 15189 2ddb 01       		.uleb128 0x1
 15190 2ddc 51       		.byte	0x51
 15191 2ddd 01       		.uleb128 0x1
 15192 2dde 31       		.byte	0x31
 15193 2ddf 18       		.uleb128 0x18
 15194 2de0 01       		.uleb128 0x1
 15195 2de1 50       		.byte	0x50
 15196 2de2 01       		.uleb128 0x1
 15197 2de3 32       		.byte	0x32
 15198 2de4 00       		.byte	0
 15199 2de5 17       		.uleb128 0x17
 15200 2de6 5E100000 		.4byte	.LVL742
 15201 2dea 563B0000 		.4byte	0x3b56
 15202 2dee FD2D0000 		.4byte	0x2dfd
 15203 2df2 18       		.uleb128 0x18
 15204 2df3 01       		.uleb128 0x1
 15205 2df4 51       		.byte	0x51
 15206 2df5 01       		.uleb128 0x1
 15207 2df6 31       		.byte	0x31
 15208 2df7 18       		.uleb128 0x18
 15209 2df8 01       		.uleb128 0x1
 15210 2df9 50       		.byte	0x50
 15211 2dfa 01       		.uleb128 0x1
 15212 2dfb 32       		.byte	0x32
 15213 2dfc 00       		.byte	0
 15214 2dfd 17       		.uleb128 0x17
 15215 2dfe 6A100000 		.4byte	.LVL743
 15216 2e02 8D3B0000 		.4byte	0x3b8d
 15217 2e06 102E0000 		.4byte	0x2e10
 15218 2e0a 18       		.uleb128 0x18
 15219 2e0b 01       		.uleb128 0x1
 15220 2e0c 50       		.byte	0x50
 15221 2e0d 01       		.uleb128 0x1
 15222 2e0e 3A       		.byte	0x3a
 15223 2e0f 00       		.byte	0
 15224 2e10 15       		.uleb128 0x15
 15225 2e11 6E100000 		.4byte	.LVL744
 15226 2e15 CC3D0000 		.4byte	0x3dcc
 15227 2e19 15       		.uleb128 0x15
 15228 2e1a 98100000 		.4byte	.LVL745
 15229 2e1e C13D0000 		.4byte	0x3dc1
 15230 2e22 17       		.uleb128 0x17
 15231 2e23 E6100000 		.4byte	.LVL746
 15232 2e27 563B0000 		.4byte	0x3b56
 15233 2e2b 3B2E0000 		.4byte	0x2e3b
 15234 2e2f 18       		.uleb128 0x18
 15235 2e30 01       		.uleb128 0x1
 15236 2e31 51       		.byte	0x51
 15237 2e32 02       		.uleb128 0x2
ARM GAS  C:\Users\RECEPC~1\AppData\Local\Temp\cc6Stwwd.s 			page 331


 15238 2e33 08       		.byte	0x8
 15239 2e34 67       		.byte	0x67
 15240 2e35 18       		.uleb128 0x18
 15241 2e36 01       		.uleb128 0x1
 15242 2e37 50       		.byte	0x50
 15243 2e38 01       		.uleb128 0x1
 15244 2e39 32       		.byte	0x32
 15245 2e3a 00       		.byte	0
 15246 2e3b 17       		.uleb128 0x17
 15247 2e3c 00110000 		.4byte	.LVL747
 15248 2e40 273B0000 		.4byte	0x3b27
 15249 2e44 532E0000 		.4byte	0x2e53
 15250 2e48 18       		.uleb128 0x18
 15251 2e49 01       		.uleb128 0x1
 15252 2e4a 51       		.byte	0x51
 15253 2e4b 01       		.uleb128 0x1
 15254 2e4c 38       		.byte	0x38
 15255 2e4d 18       		.uleb128 0x18
 15256 2e4e 01       		.uleb128 0x1
 15257 2e4f 50       		.byte	0x50
 15258 2e50 01       		.uleb128 0x1
 15259 2e51 31       		.byte	0x31
 15260 2e52 00       		.byte	0
 15261 2e53 17       		.uleb128 0x17
 15262 2e54 08110000 		.4byte	.LVL748
 15263 2e58 273B0000 		.4byte	0x3b27
 15264 2e5c 662E0000 		.4byte	0x2e66
 15265 2e60 18       		.uleb128 0x18
 15266 2e61 01       		.uleb128 0x1
 15267 2e62 51       		.byte	0x51
 15268 2e63 01       		.uleb128 0x1
 15269 2e64 39       		.byte	0x39
 15270 2e65 00       		.byte	0
 15271 2e66 17       		.uleb128 0x17
 15272 2e67 10110000 		.4byte	.LVL749
 15273 2e6b 563B0000 		.4byte	0x3b56
 15274 2e6f 802E0000 		.4byte	0x2e80
 15275 2e73 18       		.uleb128 0x18
 15276 2e74 01       		.uleb128 0x1
 15277 2e75 51       		.byte	0x51
 15278 2e76 02       		.uleb128 0x2
 15279 2e77 08       		.byte	0x8
 15280 2e78 5A       		.byte	0x5a
 15281 2e79 18       		.uleb128 0x18
 15282 2e7a 01       		.uleb128 0x1
 15283 2e7b 50       		.byte	0x50
 15284 2e7c 02       		.uleb128 0x2
 15285 2e7d 74       		.byte	0x74
 15286 2e7e 00       		.sleb128 0
 15287 2e7f 00       		.byte	0
 15288 2e80 17       		.uleb128 0x17
 15289 2e81 1A110000 		.4byte	.LVL750
 15290 2e85 563B0000 		.4byte	0x3b56
 15291 2e89 982E0000 		.4byte	0x2e98
 15292 2e8d 18       		.uleb128 0x18
 15293 2e8e 01       		.uleb128 0x1
 15294 2e8f 51       		.byte	0x51
ARM GAS  C:\Users\RECEPC~1\AppData\Local\Temp\cc6Stwwd.s 			page 332


 15295 2e90 01       		.uleb128 0x1
 15296 2e91 31       		.byte	0x31
 15297 2e92 18       		.uleb128 0x18
 15298 2e93 01       		.uleb128 0x1
 15299 2e94 50       		.byte	0x50
 15300 2e95 01       		.uleb128 0x1
 15301 2e96 32       		.byte	0x32
 15302 2e97 00       		.byte	0
 15303 2e98 17       		.uleb128 0x17
 15304 2e99 2A110000 		.4byte	.LVL751
 15305 2e9d 563B0000 		.4byte	0x3b56
 15306 2ea1 B02E0000 		.4byte	0x2eb0
 15307 2ea5 18       		.uleb128 0x18
 15308 2ea6 01       		.uleb128 0x1
 15309 2ea7 51       		.byte	0x51
 15310 2ea8 01       		.uleb128 0x1
 15311 2ea9 31       		.byte	0x31
 15312 2eaa 18       		.uleb128 0x18
 15313 2eab 01       		.uleb128 0x1
 15314 2eac 50       		.byte	0x50
 15315 2ead 01       		.uleb128 0x1
 15316 2eae 32       		.byte	0x32
 15317 2eaf 00       		.byte	0
 15318 2eb0 17       		.uleb128 0x17
 15319 2eb1 36110000 		.4byte	.LVL752
 15320 2eb5 8D3B0000 		.4byte	0x3b8d
 15321 2eb9 C32E0000 		.4byte	0x2ec3
 15322 2ebd 18       		.uleb128 0x18
 15323 2ebe 01       		.uleb128 0x1
 15324 2ebf 50       		.byte	0x50
 15325 2ec0 01       		.uleb128 0x1
 15326 2ec1 3A       		.byte	0x3a
 15327 2ec2 00       		.byte	0
 15328 2ec3 15       		.uleb128 0x15
 15329 2ec4 3A110000 		.4byte	.LVL753
 15330 2ec8 CC3D0000 		.4byte	0x3dcc
 15331 2ecc 15       		.uleb128 0x15
 15332 2ecd 40110000 		.4byte	.LVL754
 15333 2ed1 C13D0000 		.4byte	0x3dc1
 15334 2ed5 17       		.uleb128 0x17
 15335 2ed6 A2110000 		.4byte	.LVL755
 15336 2eda 273B0000 		.4byte	0x3b27
 15337 2ede EE2E0000 		.4byte	0x2eee
 15338 2ee2 18       		.uleb128 0x18
 15339 2ee3 01       		.uleb128 0x1
 15340 2ee4 51       		.byte	0x51
 15341 2ee5 01       		.uleb128 0x1
 15342 2ee6 38       		.byte	0x38
 15343 2ee7 18       		.uleb128 0x18
 15344 2ee8 01       		.uleb128 0x1
 15345 2ee9 50       		.byte	0x50
 15346 2eea 02       		.uleb128 0x2
 15347 2eeb 74       		.byte	0x74
 15348 2eec 00       		.sleb128 0
 15349 2eed 00       		.byte	0
 15350 2eee 17       		.uleb128 0x17
 15351 2eef AA110000 		.4byte	.LVL756
ARM GAS  C:\Users\RECEPC~1\AppData\Local\Temp\cc6Stwwd.s 			page 333


 15352 2ef3 273B0000 		.4byte	0x3b27
 15353 2ef7 012F0000 		.4byte	0x2f01
 15354 2efb 18       		.uleb128 0x18
 15355 2efc 01       		.uleb128 0x1
 15356 2efd 51       		.byte	0x51
 15357 2efe 01       		.uleb128 0x1
 15358 2eff 39       		.byte	0x39
 15359 2f00 00       		.byte	0
 15360 2f01 17       		.uleb128 0x17
 15361 2f02 B2110000 		.4byte	.LVL757
 15362 2f06 563B0000 		.4byte	0x3b56
 15363 2f0a 1B2F0000 		.4byte	0x2f1b
 15364 2f0e 18       		.uleb128 0x18
 15365 2f0f 01       		.uleb128 0x1
 15366 2f10 51       		.byte	0x51
 15367 2f11 02       		.uleb128 0x2
 15368 2f12 08       		.byte	0x8
 15369 2f13 5A       		.byte	0x5a
 15370 2f14 18       		.uleb128 0x18
 15371 2f15 01       		.uleb128 0x1
 15372 2f16 50       		.byte	0x50
 15373 2f17 02       		.uleb128 0x2
 15374 2f18 74       		.byte	0x74
 15375 2f19 00       		.sleb128 0
 15376 2f1a 00       		.byte	0
 15377 2f1b 17       		.uleb128 0x17
 15378 2f1c CA110000 		.4byte	.LVL758
 15379 2f20 273B0000 		.4byte	0x3b27
 15380 2f24 332F0000 		.4byte	0x2f33
 15381 2f28 18       		.uleb128 0x18
 15382 2f29 01       		.uleb128 0x1
 15383 2f2a 51       		.byte	0x51
 15384 2f2b 01       		.uleb128 0x1
 15385 2f2c 38       		.byte	0x38
 15386 2f2d 18       		.uleb128 0x18
 15387 2f2e 01       		.uleb128 0x1
 15388 2f2f 50       		.byte	0x50
 15389 2f30 01       		.uleb128 0x1
 15390 2f31 31       		.byte	0x31
 15391 2f32 00       		.byte	0
 15392 2f33 17       		.uleb128 0x17
 15393 2f34 D2110000 		.4byte	.LVL759
 15394 2f38 273B0000 		.4byte	0x3b27
 15395 2f3c 462F0000 		.4byte	0x2f46
 15396 2f40 18       		.uleb128 0x18
 15397 2f41 01       		.uleb128 0x1
 15398 2f42 51       		.byte	0x51
 15399 2f43 01       		.uleb128 0x1
 15400 2f44 39       		.byte	0x39
 15401 2f45 00       		.byte	0
 15402 2f46 17       		.uleb128 0x17
 15403 2f47 DA110000 		.4byte	.LVL760
 15404 2f4b 563B0000 		.4byte	0x3b56
 15405 2f4f 5F2F0000 		.4byte	0x2f5f
 15406 2f53 18       		.uleb128 0x18
 15407 2f54 01       		.uleb128 0x1
 15408 2f55 51       		.byte	0x51
ARM GAS  C:\Users\RECEPC~1\AppData\Local\Temp\cc6Stwwd.s 			page 334


 15409 2f56 02       		.uleb128 0x2
 15410 2f57 08       		.byte	0x8
 15411 2f58 5A       		.byte	0x5a
 15412 2f59 18       		.uleb128 0x18
 15413 2f5a 01       		.uleb128 0x1
 15414 2f5b 50       		.byte	0x50
 15415 2f5c 01       		.uleb128 0x1
 15416 2f5d 32       		.byte	0x32
 15417 2f5e 00       		.byte	0
 15418 2f5f 17       		.uleb128 0x17
 15419 2f60 F2110000 		.4byte	.LVL761
 15420 2f64 273B0000 		.4byte	0x3b27
 15421 2f68 772F0000 		.4byte	0x2f77
 15422 2f6c 18       		.uleb128 0x18
 15423 2f6d 01       		.uleb128 0x1
 15424 2f6e 51       		.byte	0x51
 15425 2f6f 01       		.uleb128 0x1
 15426 2f70 38       		.byte	0x38
 15427 2f71 18       		.uleb128 0x18
 15428 2f72 01       		.uleb128 0x1
 15429 2f73 50       		.byte	0x50
 15430 2f74 01       		.uleb128 0x1
 15431 2f75 30       		.byte	0x30
 15432 2f76 00       		.byte	0
 15433 2f77 17       		.uleb128 0x17
 15434 2f78 FA110000 		.4byte	.LVL762
 15435 2f7c 273B0000 		.4byte	0x3b27
 15436 2f80 8A2F0000 		.4byte	0x2f8a
 15437 2f84 18       		.uleb128 0x18
 15438 2f85 01       		.uleb128 0x1
 15439 2f86 51       		.byte	0x51
 15440 2f87 01       		.uleb128 0x1
 15441 2f88 39       		.byte	0x39
 15442 2f89 00       		.byte	0
 15443 2f8a 17       		.uleb128 0x17
 15444 2f8b 02120000 		.4byte	.LVL763
 15445 2f8f 563B0000 		.4byte	0x3b56
 15446 2f93 A32F0000 		.4byte	0x2fa3
 15447 2f97 18       		.uleb128 0x18
 15448 2f98 01       		.uleb128 0x1
 15449 2f99 51       		.byte	0x51
 15450 2f9a 02       		.uleb128 0x2
 15451 2f9b 08       		.byte	0x8
 15452 2f9c 5A       		.byte	0x5a
 15453 2f9d 18       		.uleb128 0x18
 15454 2f9e 01       		.uleb128 0x1
 15455 2f9f 50       		.byte	0x50
 15456 2fa0 01       		.uleb128 0x1
 15457 2fa1 32       		.byte	0x32
 15458 2fa2 00       		.byte	0
 15459 2fa3 17       		.uleb128 0x17
 15460 2fa4 0C120000 		.4byte	.LVL764
 15461 2fa8 563B0000 		.4byte	0x3b56
 15462 2fac BB2F0000 		.4byte	0x2fbb
 15463 2fb0 18       		.uleb128 0x18
 15464 2fb1 01       		.uleb128 0x1
 15465 2fb2 51       		.byte	0x51
ARM GAS  C:\Users\RECEPC~1\AppData\Local\Temp\cc6Stwwd.s 			page 335


 15466 2fb3 01       		.uleb128 0x1
 15467 2fb4 31       		.byte	0x31
 15468 2fb5 18       		.uleb128 0x18
 15469 2fb6 01       		.uleb128 0x1
 15470 2fb7 50       		.byte	0x50
 15471 2fb8 01       		.uleb128 0x1
 15472 2fb9 32       		.byte	0x32
 15473 2fba 00       		.byte	0
 15474 2fbb 17       		.uleb128 0x17
 15475 2fbc 1C120000 		.4byte	.LVL765
 15476 2fc0 563B0000 		.4byte	0x3b56
 15477 2fc4 D32F0000 		.4byte	0x2fd3
 15478 2fc8 18       		.uleb128 0x18
 15479 2fc9 01       		.uleb128 0x1
 15480 2fca 51       		.byte	0x51
 15481 2fcb 01       		.uleb128 0x1
 15482 2fcc 31       		.byte	0x31
 15483 2fcd 18       		.uleb128 0x18
 15484 2fce 01       		.uleb128 0x1
 15485 2fcf 50       		.byte	0x50
 15486 2fd0 01       		.uleb128 0x1
 15487 2fd1 32       		.byte	0x32
 15488 2fd2 00       		.byte	0
 15489 2fd3 17       		.uleb128 0x17
 15490 2fd4 28120000 		.4byte	.LVL766
 15491 2fd8 8D3B0000 		.4byte	0x3b8d
 15492 2fdc E62F0000 		.4byte	0x2fe6
 15493 2fe0 18       		.uleb128 0x18
 15494 2fe1 01       		.uleb128 0x1
 15495 2fe2 50       		.byte	0x50
 15496 2fe3 01       		.uleb128 0x1
 15497 2fe4 3A       		.byte	0x3a
 15498 2fe5 00       		.byte	0
 15499 2fe6 15       		.uleb128 0x15
 15500 2fe7 2C120000 		.4byte	.LVL767
 15501 2feb CC3D0000 		.4byte	0x3dcc
 15502 2fef 15       		.uleb128 0x15
 15503 2ff0 44120000 		.4byte	.LVL768
 15504 2ff4 7B3D0000 		.4byte	0x3d7b
 15505 2ff8 17       		.uleb128 0x17
 15506 2ff9 6A120000 		.4byte	.LVL769
 15507 2ffd 543C0000 		.4byte	0x3c54
 15508 3001 2A300000 		.4byte	0x302a
 15509 3005 18       		.uleb128 0x18
 15510 3006 01       		.uleb128 0x1
 15511 3007 53       		.byte	0x53
 15512 3008 01       		.uleb128 0x1
 15513 3009 38       		.byte	0x38
 15514 300a 18       		.uleb128 0x18
 15515 300b 01       		.uleb128 0x1
 15516 300c 52       		.byte	0x52
 15517 300d 01       		.uleb128 0x1
 15518 300e 3D       		.byte	0x3d
 15519 300f 18       		.uleb128 0x18
 15520 3010 01       		.uleb128 0x1
 15521 3011 50       		.byte	0x50
 15522 3012 01       		.uleb128 0x1
ARM GAS  C:\Users\RECEPC~1\AppData\Local\Temp\cc6Stwwd.s 			page 336


 15523 3013 32       		.byte	0x32
 15524 3014 18       		.uleb128 0x18
 15525 3015 02       		.uleb128 0x2
 15526 3016 7D       		.byte	0x7d
 15527 3017 08       		.sleb128 8
 15528 3018 02       		.uleb128 0x2
 15529 3019 74       		.byte	0x74
 15530 301a 00       		.sleb128 0
 15531 301b 18       		.uleb128 0x18
 15532 301c 02       		.uleb128 0x2
 15533 301d 7D       		.byte	0x7d
 15534 301e 04       		.sleb128 4
 15535 301f 02       		.uleb128 0x2
 15536 3020 75       		.byte	0x75
 15537 3021 00       		.sleb128 0
 15538 3022 18       		.uleb128 0x18
 15539 3023 02       		.uleb128 0x2
 15540 3024 7D       		.byte	0x7d
 15541 3025 00       		.sleb128 0
 15542 3026 02       		.uleb128 0x2
 15543 3027 76       		.byte	0x76
 15544 3028 00       		.sleb128 0
 15545 3029 00       		.byte	0
 15546 302a 17       		.uleb128 0x17
 15547 302b 82120000 		.4byte	.LVL770
 15548 302f 543C0000 		.4byte	0x3c54
 15549 3033 5C300000 		.4byte	0x305c
 15550 3037 18       		.uleb128 0x18
 15551 3038 01       		.uleb128 0x1
 15552 3039 53       		.byte	0x53
 15553 303a 01       		.uleb128 0x1
 15554 303b 39       		.byte	0x39
 15555 303c 18       		.uleb128 0x18
 15556 303d 01       		.uleb128 0x1
 15557 303e 52       		.byte	0x52
 15558 303f 01       		.uleb128 0x1
 15559 3040 3D       		.byte	0x3d
 15560 3041 18       		.uleb128 0x18
 15561 3042 01       		.uleb128 0x1
 15562 3043 50       		.byte	0x50
 15563 3044 01       		.uleb128 0x1
 15564 3045 32       		.byte	0x32
 15565 3046 18       		.uleb128 0x18
 15566 3047 02       		.uleb128 0x2
 15567 3048 7D       		.byte	0x7d
 15568 3049 08       		.sleb128 8
 15569 304a 02       		.uleb128 0x2
 15570 304b 74       		.byte	0x74
 15571 304c 00       		.sleb128 0
 15572 304d 18       		.uleb128 0x18
 15573 304e 02       		.uleb128 0x2
 15574 304f 7D       		.byte	0x7d
 15575 3050 04       		.sleb128 4
 15576 3051 02       		.uleb128 0x2
 15577 3052 75       		.byte	0x75
 15578 3053 00       		.sleb128 0
 15579 3054 18       		.uleb128 0x18
ARM GAS  C:\Users\RECEPC~1\AppData\Local\Temp\cc6Stwwd.s 			page 337


 15580 3055 02       		.uleb128 0x2
 15581 3056 7D       		.byte	0x7d
 15582 3057 00       		.sleb128 0
 15583 3058 02       		.uleb128 0x2
 15584 3059 76       		.byte	0x76
 15585 305a 00       		.sleb128 0
 15586 305b 00       		.byte	0
 15587 305c 17       		.uleb128 0x17
 15588 305d 94120000 		.4byte	.LVL771
 15589 3061 543C0000 		.4byte	0x3c54
 15590 3065 94300000 		.4byte	0x3094
 15591 3069 18       		.uleb128 0x18
 15592 306a 01       		.uleb128 0x1
 15593 306b 53       		.byte	0x53
 15594 306c 01       		.uleb128 0x1
 15595 306d 3A       		.byte	0x3a
 15596 306e 18       		.uleb128 0x18
 15597 306f 01       		.uleb128 0x1
 15598 3070 52       		.byte	0x52
 15599 3071 01       		.uleb128 0x1
 15600 3072 3D       		.byte	0x3d
 15601 3073 18       		.uleb128 0x18
 15602 3074 01       		.uleb128 0x1
 15603 3075 51       		.byte	0x51
 15604 3076 02       		.uleb128 0x2
 15605 3077 08       		.byte	0x8
 15606 3078 3A       		.byte	0x3a
 15607 3079 18       		.uleb128 0x18
 15608 307a 01       		.uleb128 0x1
 15609 307b 50       		.byte	0x50
 15610 307c 01       		.uleb128 0x1
 15611 307d 32       		.byte	0x32
 15612 307e 18       		.uleb128 0x18
 15613 307f 02       		.uleb128 0x2
 15614 3080 7D       		.byte	0x7d
 15615 3081 08       		.sleb128 8
 15616 3082 02       		.uleb128 0x2
 15617 3083 74       		.byte	0x74
 15618 3084 00       		.sleb128 0
 15619 3085 18       		.uleb128 0x18
 15620 3086 02       		.uleb128 0x2
 15621 3087 7D       		.byte	0x7d
 15622 3088 04       		.sleb128 4
 15623 3089 02       		.uleb128 0x2
 15624 308a 75       		.byte	0x75
 15625 308b 00       		.sleb128 0
 15626 308c 18       		.uleb128 0x18
 15627 308d 02       		.uleb128 0x2
 15628 308e 7D       		.byte	0x7d
 15629 308f 00       		.sleb128 0
 15630 3090 02       		.uleb128 0x2
 15631 3091 76       		.byte	0x76
 15632 3092 00       		.sleb128 0
 15633 3093 00       		.byte	0
 15634 3094 17       		.uleb128 0x17
 15635 3095 AA120000 		.4byte	.LVL772
 15636 3099 543C0000 		.4byte	0x3c54
ARM GAS  C:\Users\RECEPC~1\AppData\Local\Temp\cc6Stwwd.s 			page 338


 15637 309d C6300000 		.4byte	0x30c6
 15638 30a1 18       		.uleb128 0x18
 15639 30a2 01       		.uleb128 0x1
 15640 30a3 53       		.byte	0x53
 15641 30a4 01       		.uleb128 0x1
 15642 30a5 3B       		.byte	0x3b
 15643 30a6 18       		.uleb128 0x18
 15644 30a7 01       		.uleb128 0x1
 15645 30a8 52       		.byte	0x52
 15646 30a9 01       		.uleb128 0x1
 15647 30aa 3D       		.byte	0x3d
 15648 30ab 18       		.uleb128 0x18
 15649 30ac 01       		.uleb128 0x1
 15650 30ad 50       		.byte	0x50
 15651 30ae 01       		.uleb128 0x1
 15652 30af 32       		.byte	0x32
 15653 30b0 18       		.uleb128 0x18
 15654 30b1 02       		.uleb128 0x2
 15655 30b2 7D       		.byte	0x7d
 15656 30b3 08       		.sleb128 8
 15657 30b4 02       		.uleb128 0x2
 15658 30b5 74       		.byte	0x74
 15659 30b6 00       		.sleb128 0
 15660 30b7 18       		.uleb128 0x18
 15661 30b8 02       		.uleb128 0x2
 15662 30b9 7D       		.byte	0x7d
 15663 30ba 04       		.sleb128 4
 15664 30bb 02       		.uleb128 0x2
 15665 30bc 75       		.byte	0x75
 15666 30bd 00       		.sleb128 0
 15667 30be 18       		.uleb128 0x18
 15668 30bf 02       		.uleb128 0x2
 15669 30c0 7D       		.byte	0x7d
 15670 30c1 00       		.sleb128 0
 15671 30c2 02       		.uleb128 0x2
 15672 30c3 76       		.byte	0x76
 15673 30c4 00       		.sleb128 0
 15674 30c5 00       		.byte	0
 15675 30c6 17       		.uleb128 0x17
 15676 30c7 C2120000 		.4byte	.LVL773
 15677 30cb 543C0000 		.4byte	0x3c54
 15678 30cf F8300000 		.4byte	0x30f8
 15679 30d3 18       		.uleb128 0x18
 15680 30d4 01       		.uleb128 0x1
 15681 30d5 53       		.byte	0x53
 15682 30d6 01       		.uleb128 0x1
 15683 30d7 3C       		.byte	0x3c
 15684 30d8 18       		.uleb128 0x18
 15685 30d9 01       		.uleb128 0x1
 15686 30da 52       		.byte	0x52
 15687 30db 01       		.uleb128 0x1
 15688 30dc 3D       		.byte	0x3d
 15689 30dd 18       		.uleb128 0x18
 15690 30de 01       		.uleb128 0x1
 15691 30df 50       		.byte	0x50
 15692 30e0 01       		.uleb128 0x1
 15693 30e1 32       		.byte	0x32
ARM GAS  C:\Users\RECEPC~1\AppData\Local\Temp\cc6Stwwd.s 			page 339


 15694 30e2 18       		.uleb128 0x18
 15695 30e3 02       		.uleb128 0x2
 15696 30e4 7D       		.byte	0x7d
 15697 30e5 08       		.sleb128 8
 15698 30e6 02       		.uleb128 0x2
 15699 30e7 74       		.byte	0x74
 15700 30e8 00       		.sleb128 0
 15701 30e9 18       		.uleb128 0x18
 15702 30ea 02       		.uleb128 0x2
 15703 30eb 7D       		.byte	0x7d
 15704 30ec 04       		.sleb128 4
 15705 30ed 02       		.uleb128 0x2
 15706 30ee 75       		.byte	0x75
 15707 30ef 00       		.sleb128 0
 15708 30f0 18       		.uleb128 0x18
 15709 30f1 02       		.uleb128 0x2
 15710 30f2 7D       		.byte	0x7d
 15711 30f3 00       		.sleb128 0
 15712 30f4 02       		.uleb128 0x2
 15713 30f5 76       		.byte	0x76
 15714 30f6 00       		.sleb128 0
 15715 30f7 00       		.byte	0
 15716 30f8 15       		.uleb128 0x15
 15717 30f9 C6120000 		.4byte	.LVL774
 15718 30fd 8C3D0000 		.4byte	0x3d8c
 15719 3101 17       		.uleb128 0x17
 15720 3102 EA120000 		.4byte	.LVL775
 15721 3106 543C0000 		.4byte	0x3c54
 15722 310a 33310000 		.4byte	0x3133
 15723 310e 18       		.uleb128 0x18
 15724 310f 01       		.uleb128 0x1
 15725 3110 53       		.byte	0x53
 15726 3111 01       		.uleb128 0x1
 15727 3112 38       		.byte	0x38
 15728 3113 18       		.uleb128 0x18
 15729 3114 01       		.uleb128 0x1
 15730 3115 52       		.byte	0x52
 15731 3116 01       		.uleb128 0x1
 15732 3117 45       		.byte	0x45
 15733 3118 18       		.uleb128 0x18
 15734 3119 01       		.uleb128 0x1
 15735 311a 50       		.byte	0x50
 15736 311b 01       		.uleb128 0x1
 15737 311c 32       		.byte	0x32
 15738 311d 18       		.uleb128 0x18
 15739 311e 02       		.uleb128 0x2
 15740 311f 7D       		.byte	0x7d
 15741 3120 08       		.sleb128 8
 15742 3121 02       		.uleb128 0x2
 15743 3122 74       		.byte	0x74
 15744 3123 00       		.sleb128 0
 15745 3124 18       		.uleb128 0x18
 15746 3125 02       		.uleb128 0x2
 15747 3126 7D       		.byte	0x7d
 15748 3127 04       		.sleb128 4
 15749 3128 02       		.uleb128 0x2
 15750 3129 75       		.byte	0x75
ARM GAS  C:\Users\RECEPC~1\AppData\Local\Temp\cc6Stwwd.s 			page 340


 15751 312a 00       		.sleb128 0
 15752 312b 18       		.uleb128 0x18
 15753 312c 02       		.uleb128 0x2
 15754 312d 7D       		.byte	0x7d
 15755 312e 00       		.sleb128 0
 15756 312f 02       		.uleb128 0x2
 15757 3130 76       		.byte	0x76
 15758 3131 00       		.sleb128 0
 15759 3132 00       		.byte	0
 15760 3133 17       		.uleb128 0x17
 15761 3134 02130000 		.4byte	.LVL776
 15762 3138 543C0000 		.4byte	0x3c54
 15763 313c 65310000 		.4byte	0x3165
 15764 3140 18       		.uleb128 0x18
 15765 3141 01       		.uleb128 0x1
 15766 3142 53       		.byte	0x53
 15767 3143 01       		.uleb128 0x1
 15768 3144 39       		.byte	0x39
 15769 3145 18       		.uleb128 0x18
 15770 3146 01       		.uleb128 0x1
 15771 3147 52       		.byte	0x52
 15772 3148 01       		.uleb128 0x1
 15773 3149 45       		.byte	0x45
 15774 314a 18       		.uleb128 0x18
 15775 314b 01       		.uleb128 0x1
 15776 314c 50       		.byte	0x50
 15777 314d 01       		.uleb128 0x1
 15778 314e 32       		.byte	0x32
 15779 314f 18       		.uleb128 0x18
 15780 3150 02       		.uleb128 0x2
 15781 3151 7D       		.byte	0x7d
 15782 3152 08       		.sleb128 8
 15783 3153 02       		.uleb128 0x2
 15784 3154 74       		.byte	0x74
 15785 3155 00       		.sleb128 0
 15786 3156 18       		.uleb128 0x18
 15787 3157 02       		.uleb128 0x2
 15788 3158 7D       		.byte	0x7d
 15789 3159 04       		.sleb128 4
 15790 315a 02       		.uleb128 0x2
 15791 315b 75       		.byte	0x75
 15792 315c 00       		.sleb128 0
 15793 315d 18       		.uleb128 0x18
 15794 315e 02       		.uleb128 0x2
 15795 315f 7D       		.byte	0x7d
 15796 3160 00       		.sleb128 0
 15797 3161 02       		.uleb128 0x2
 15798 3162 76       		.byte	0x76
 15799 3163 00       		.sleb128 0
 15800 3164 00       		.byte	0
 15801 3165 17       		.uleb128 0x17
 15802 3166 14130000 		.4byte	.LVL777
 15803 316a 543C0000 		.4byte	0x3c54
 15804 316e 9D310000 		.4byte	0x319d
 15805 3172 18       		.uleb128 0x18
 15806 3173 01       		.uleb128 0x1
 15807 3174 53       		.byte	0x53
ARM GAS  C:\Users\RECEPC~1\AppData\Local\Temp\cc6Stwwd.s 			page 341


 15808 3175 01       		.uleb128 0x1
 15809 3176 3A       		.byte	0x3a
 15810 3177 18       		.uleb128 0x18
 15811 3178 01       		.uleb128 0x1
 15812 3179 52       		.byte	0x52
 15813 317a 01       		.uleb128 0x1
 15814 317b 45       		.byte	0x45
 15815 317c 18       		.uleb128 0x18
 15816 317d 01       		.uleb128 0x1
 15817 317e 51       		.byte	0x51
 15818 317f 02       		.uleb128 0x2
 15819 3180 08       		.byte	0x8
 15820 3181 2F       		.byte	0x2f
 15821 3182 18       		.uleb128 0x18
 15822 3183 01       		.uleb128 0x1
 15823 3184 50       		.byte	0x50
 15824 3185 01       		.uleb128 0x1
 15825 3186 32       		.byte	0x32
 15826 3187 18       		.uleb128 0x18
 15827 3188 02       		.uleb128 0x2
 15828 3189 7D       		.byte	0x7d
 15829 318a 08       		.sleb128 8
 15830 318b 02       		.uleb128 0x2
 15831 318c 74       		.byte	0x74
 15832 318d 00       		.sleb128 0
 15833 318e 18       		.uleb128 0x18
 15834 318f 02       		.uleb128 0x2
 15835 3190 7D       		.byte	0x7d
 15836 3191 04       		.sleb128 4
 15837 3192 02       		.uleb128 0x2
 15838 3193 75       		.byte	0x75
 15839 3194 00       		.sleb128 0
 15840 3195 18       		.uleb128 0x18
 15841 3196 02       		.uleb128 0x2
 15842 3197 7D       		.byte	0x7d
 15843 3198 00       		.sleb128 0
 15844 3199 02       		.uleb128 0x2
 15845 319a 76       		.byte	0x76
 15846 319b 00       		.sleb128 0
 15847 319c 00       		.byte	0
 15848 319d 17       		.uleb128 0x17
 15849 319e 2E130000 		.4byte	.LVL778
 15850 31a2 543C0000 		.4byte	0x3c54
 15851 31a6 CF310000 		.4byte	0x31cf
 15852 31aa 18       		.uleb128 0x18
 15853 31ab 01       		.uleb128 0x1
 15854 31ac 53       		.byte	0x53
 15855 31ad 01       		.uleb128 0x1
 15856 31ae 3B       		.byte	0x3b
 15857 31af 18       		.uleb128 0x18
 15858 31b0 01       		.uleb128 0x1
 15859 31b1 52       		.byte	0x52
 15860 31b2 01       		.uleb128 0x1
 15861 31b3 45       		.byte	0x45
 15862 31b4 18       		.uleb128 0x18
 15863 31b5 01       		.uleb128 0x1
 15864 31b6 50       		.byte	0x50
ARM GAS  C:\Users\RECEPC~1\AppData\Local\Temp\cc6Stwwd.s 			page 342


 15865 31b7 01       		.uleb128 0x1
 15866 31b8 32       		.byte	0x32
 15867 31b9 18       		.uleb128 0x18
 15868 31ba 02       		.uleb128 0x2
 15869 31bb 7D       		.byte	0x7d
 15870 31bc 08       		.sleb128 8
 15871 31bd 02       		.uleb128 0x2
 15872 31be 74       		.byte	0x74
 15873 31bf 00       		.sleb128 0
 15874 31c0 18       		.uleb128 0x18
 15875 31c1 02       		.uleb128 0x2
 15876 31c2 7D       		.byte	0x7d
 15877 31c3 04       		.sleb128 4
 15878 31c4 02       		.uleb128 0x2
 15879 31c5 75       		.byte	0x75
 15880 31c6 00       		.sleb128 0
 15881 31c7 18       		.uleb128 0x18
 15882 31c8 02       		.uleb128 0x2
 15883 31c9 7D       		.byte	0x7d
 15884 31ca 00       		.sleb128 0
 15885 31cb 02       		.uleb128 0x2
 15886 31cc 76       		.byte	0x76
 15887 31cd 00       		.sleb128 0
 15888 31ce 00       		.byte	0
 15889 31cf 17       		.uleb128 0x17
 15890 31d0 46130000 		.4byte	.LVL779
 15891 31d4 543C0000 		.4byte	0x3c54
 15892 31d8 01320000 		.4byte	0x3201
 15893 31dc 18       		.uleb128 0x18
 15894 31dd 01       		.uleb128 0x1
 15895 31de 53       		.byte	0x53
 15896 31df 01       		.uleb128 0x1
 15897 31e0 3C       		.byte	0x3c
 15898 31e1 18       		.uleb128 0x18
 15899 31e2 01       		.uleb128 0x1
 15900 31e3 52       		.byte	0x52
 15901 31e4 01       		.uleb128 0x1
 15902 31e5 45       		.byte	0x45
 15903 31e6 18       		.uleb128 0x18
 15904 31e7 01       		.uleb128 0x1
 15905 31e8 50       		.byte	0x50
 15906 31e9 01       		.uleb128 0x1
 15907 31ea 32       		.byte	0x32
 15908 31eb 18       		.uleb128 0x18
 15909 31ec 02       		.uleb128 0x2
 15910 31ed 7D       		.byte	0x7d
 15911 31ee 08       		.sleb128 8
 15912 31ef 02       		.uleb128 0x2
 15913 31f0 74       		.byte	0x74
 15914 31f1 00       		.sleb128 0
 15915 31f2 18       		.uleb128 0x18
 15916 31f3 02       		.uleb128 0x2
 15917 31f4 7D       		.byte	0x7d
 15918 31f5 04       		.sleb128 4
 15919 31f6 02       		.uleb128 0x2
 15920 31f7 75       		.byte	0x75
 15921 31f8 00       		.sleb128 0
ARM GAS  C:\Users\RECEPC~1\AppData\Local\Temp\cc6Stwwd.s 			page 343


 15922 31f9 18       		.uleb128 0x18
 15923 31fa 02       		.uleb128 0x2
 15924 31fb 7D       		.byte	0x7d
 15925 31fc 00       		.sleb128 0
 15926 31fd 02       		.uleb128 0x2
 15927 31fe 76       		.byte	0x76
 15928 31ff 00       		.sleb128 0
 15929 3200 00       		.byte	0
 15930 3201 17       		.uleb128 0x17
 15931 3202 58130000 		.4byte	.LVL780
 15932 3206 543C0000 		.4byte	0x3c54
 15933 320a 39320000 		.4byte	0x3239
 15934 320e 18       		.uleb128 0x18
 15935 320f 01       		.uleb128 0x1
 15936 3210 53       		.byte	0x53
 15937 3211 01       		.uleb128 0x1
 15938 3212 3D       		.byte	0x3d
 15939 3213 18       		.uleb128 0x18
 15940 3214 01       		.uleb128 0x1
 15941 3215 52       		.byte	0x52
 15942 3216 01       		.uleb128 0x1
 15943 3217 45       		.byte	0x45
 15944 3218 18       		.uleb128 0x18
 15945 3219 01       		.uleb128 0x1
 15946 321a 51       		.byte	0x51
 15947 321b 02       		.uleb128 0x2
 15948 321c 08       		.byte	0x8
 15949 321d 2F       		.byte	0x2f
 15950 321e 18       		.uleb128 0x18
 15951 321f 01       		.uleb128 0x1
 15952 3220 50       		.byte	0x50
 15953 3221 01       		.uleb128 0x1
 15954 3222 32       		.byte	0x32
 15955 3223 18       		.uleb128 0x18
 15956 3224 02       		.uleb128 0x2
 15957 3225 7D       		.byte	0x7d
 15958 3226 08       		.sleb128 8
 15959 3227 02       		.uleb128 0x2
 15960 3228 74       		.byte	0x74
 15961 3229 00       		.sleb128 0
 15962 322a 18       		.uleb128 0x18
 15963 322b 02       		.uleb128 0x2
 15964 322c 7D       		.byte	0x7d
 15965 322d 04       		.sleb128 4
 15966 322e 02       		.uleb128 0x2
 15967 322f 75       		.byte	0x75
 15968 3230 00       		.sleb128 0
 15969 3231 18       		.uleb128 0x18
 15970 3232 02       		.uleb128 0x2
 15971 3233 7D       		.byte	0x7d
 15972 3234 00       		.sleb128 0
 15973 3235 02       		.uleb128 0x2
 15974 3236 76       		.byte	0x76
 15975 3237 00       		.sleb128 0
 15976 3238 00       		.byte	0
 15977 3239 17       		.uleb128 0x17
 15978 323a 6E130000 		.4byte	.LVL781
ARM GAS  C:\Users\RECEPC~1\AppData\Local\Temp\cc6Stwwd.s 			page 344


 15979 323e 543C0000 		.4byte	0x3c54
 15980 3242 6B320000 		.4byte	0x326b
 15981 3246 18       		.uleb128 0x18
 15982 3247 01       		.uleb128 0x1
 15983 3248 53       		.byte	0x53
 15984 3249 01       		.uleb128 0x1
 15985 324a 3E       		.byte	0x3e
 15986 324b 18       		.uleb128 0x18
 15987 324c 01       		.uleb128 0x1
 15988 324d 52       		.byte	0x52
 15989 324e 01       		.uleb128 0x1
 15990 324f 45       		.byte	0x45
 15991 3250 18       		.uleb128 0x18
 15992 3251 01       		.uleb128 0x1
 15993 3252 50       		.byte	0x50
 15994 3253 01       		.uleb128 0x1
 15995 3254 32       		.byte	0x32
 15996 3255 18       		.uleb128 0x18
 15997 3256 02       		.uleb128 0x2
 15998 3257 7D       		.byte	0x7d
 15999 3258 08       		.sleb128 8
 16000 3259 02       		.uleb128 0x2
 16001 325a 74       		.byte	0x74
 16002 325b 00       		.sleb128 0
 16003 325c 18       		.uleb128 0x18
 16004 325d 02       		.uleb128 0x2
 16005 325e 7D       		.byte	0x7d
 16006 325f 04       		.sleb128 4
 16007 3260 02       		.uleb128 0x2
 16008 3261 75       		.byte	0x75
 16009 3262 00       		.sleb128 0
 16010 3263 18       		.uleb128 0x18
 16011 3264 02       		.uleb128 0x2
 16012 3265 7D       		.byte	0x7d
 16013 3266 00       		.sleb128 0
 16014 3267 02       		.uleb128 0x2
 16015 3268 76       		.byte	0x76
 16016 3269 00       		.sleb128 0
 16017 326a 00       		.byte	0
 16018 326b 17       		.uleb128 0x17
 16019 326c 86130000 		.4byte	.LVL782
 16020 3270 543C0000 		.4byte	0x3c54
 16021 3274 9D320000 		.4byte	0x329d
 16022 3278 18       		.uleb128 0x18
 16023 3279 01       		.uleb128 0x1
 16024 327a 53       		.byte	0x53
 16025 327b 01       		.uleb128 0x1
 16026 327c 3F       		.byte	0x3f
 16027 327d 18       		.uleb128 0x18
 16028 327e 01       		.uleb128 0x1
 16029 327f 52       		.byte	0x52
 16030 3280 01       		.uleb128 0x1
 16031 3281 45       		.byte	0x45
 16032 3282 18       		.uleb128 0x18
 16033 3283 01       		.uleb128 0x1
 16034 3284 50       		.byte	0x50
 16035 3285 01       		.uleb128 0x1
ARM GAS  C:\Users\RECEPC~1\AppData\Local\Temp\cc6Stwwd.s 			page 345


 16036 3286 32       		.byte	0x32
 16037 3287 18       		.uleb128 0x18
 16038 3288 02       		.uleb128 0x2
 16039 3289 7D       		.byte	0x7d
 16040 328a 08       		.sleb128 8
 16041 328b 02       		.uleb128 0x2
 16042 328c 74       		.byte	0x74
 16043 328d 00       		.sleb128 0
 16044 328e 18       		.uleb128 0x18
 16045 328f 02       		.uleb128 0x2
 16046 3290 7D       		.byte	0x7d
 16047 3291 04       		.sleb128 4
 16048 3292 02       		.uleb128 0x2
 16049 3293 75       		.byte	0x75
 16050 3294 00       		.sleb128 0
 16051 3295 18       		.uleb128 0x18
 16052 3296 02       		.uleb128 0x2
 16053 3297 7D       		.byte	0x7d
 16054 3298 00       		.sleb128 0
 16055 3299 02       		.uleb128 0x2
 16056 329a 76       		.byte	0x76
 16057 329b 00       		.sleb128 0
 16058 329c 00       		.byte	0
 16059 329d 15       		.uleb128 0x15
 16060 329e 8A130000 		.4byte	.LVL783
 16061 32a2 C13D0000 		.4byte	0x3dc1
 16062 32a6 17       		.uleb128 0x17
 16063 32a7 CA130000 		.4byte	.LVL784
 16064 32ab 563B0000 		.4byte	0x3b56
 16065 32af BE320000 		.4byte	0x32be
 16066 32b3 18       		.uleb128 0x18
 16067 32b4 01       		.uleb128 0x1
 16068 32b5 51       		.byte	0x51
 16069 32b6 01       		.uleb128 0x1
 16070 32b7 31       		.byte	0x31
 16071 32b8 18       		.uleb128 0x18
 16072 32b9 01       		.uleb128 0x1
 16073 32ba 50       		.byte	0x50
 16074 32bb 01       		.uleb128 0x1
 16075 32bc 32       		.byte	0x32
 16076 32bd 00       		.byte	0
 16077 32be 17       		.uleb128 0x17
 16078 32bf DA130000 		.4byte	.LVL785
 16079 32c3 563B0000 		.4byte	0x3b56
 16080 32c7 D6320000 		.4byte	0x32d6
 16081 32cb 18       		.uleb128 0x18
 16082 32cc 01       		.uleb128 0x1
 16083 32cd 51       		.byte	0x51
 16084 32ce 01       		.uleb128 0x1
 16085 32cf 31       		.byte	0x31
 16086 32d0 18       		.uleb128 0x18
 16087 32d1 01       		.uleb128 0x1
 16088 32d2 50       		.byte	0x50
 16089 32d3 01       		.uleb128 0x1
 16090 32d4 32       		.byte	0x32
 16091 32d5 00       		.byte	0
 16092 32d6 17       		.uleb128 0x17
ARM GAS  C:\Users\RECEPC~1\AppData\Local\Temp\cc6Stwwd.s 			page 346


 16093 32d7 E0130000 		.4byte	.LVL786
 16094 32db 8D3B0000 		.4byte	0x3b8d
 16095 32df E9320000 		.4byte	0x32e9
 16096 32e3 18       		.uleb128 0x18
 16097 32e4 01       		.uleb128 0x1
 16098 32e5 50       		.byte	0x50
 16099 32e6 01       		.uleb128 0x1
 16100 32e7 3A       		.byte	0x3a
 16101 32e8 00       		.byte	0
 16102 32e9 15       		.uleb128 0x15
 16103 32ea E4130000 		.4byte	.LVL787
 16104 32ee CC3D0000 		.4byte	0x3dcc
 16105 32f2 00       		.byte	0
 16106 32f3 1E       		.uleb128 0x1e
 16107 32f4 41030000 		.4byte	.LASF188
 16108 32f8 01       		.byte	0x1
 16109 32f9 3808     		.2byte	0x838
 16110 32fb 7E000000 		.4byte	0x7e
 16111 32ff 00000000 		.4byte	.LFB77
 16112 3303 90000000 		.4byte	.LFE77-.LFB77
 16113 3307 01       		.uleb128 0x1
 16114 3308 9C       		.byte	0x9c
 16115 3309 AD330000 		.4byte	0x33ad
 16116 330d 15       		.uleb128 0x15
 16117 330e 08000000 		.4byte	.LVL788
 16118 3312 C0070000 		.4byte	0x7c0
 16119 3316 15       		.uleb128 0x15
 16120 3317 0C000000 		.4byte	.LVL789
 16121 331b FD0D0000 		.4byte	0xdfd
 16122 331f 15       		.uleb128 0x15
 16123 3320 10000000 		.4byte	.LVL790
 16124 3324 66090000 		.4byte	0x966
 16125 3328 17       		.uleb128 0x17
 16126 3329 18000000 		.4byte	.LVL791
 16127 332d D33D0000 		.4byte	0x3dd3
 16128 3331 40330000 		.4byte	0x3340
 16129 3335 18       		.uleb128 0x18
 16130 3336 01       		.uleb128 0x1
 16131 3337 51       		.byte	0x51
 16132 3338 01       		.uleb128 0x1
 16133 3339 30       		.byte	0x30
 16134 333a 18       		.uleb128 0x18
 16135 333b 01       		.uleb128 0x1
 16136 333c 50       		.byte	0x50
 16137 333d 01       		.uleb128 0x1
 16138 333e 33       		.byte	0x33
 16139 333f 00       		.byte	0
 16140 3340 15       		.uleb128 0x15
 16141 3341 1C000000 		.4byte	.LVL792
 16142 3345 0C120000 		.4byte	0x120c
 16143 3349 15       		.uleb128 0x15
 16144 334a 20000000 		.4byte	.LVL793
 16145 334e E93D0000 		.4byte	0x3de9
 16146 3352 15       		.uleb128 0x15
 16147 3353 24000000 		.4byte	.LVL794
 16148 3357 7B220000 		.4byte	0x227b
 16149 335b 15       		.uleb128 0x15
ARM GAS  C:\Users\RECEPC~1\AppData\Local\Temp\cc6Stwwd.s 			page 347


 16150 335c 28000000 		.4byte	.LVL795
 16151 3360 E93D0000 		.4byte	0x3de9
 16152 3364 15       		.uleb128 0x15
 16153 3365 2C000000 		.4byte	.LVL796
 16154 3369 F03D0000 		.4byte	0x3df0
 16155 336d 15       		.uleb128 0x15
 16156 336e 30000000 		.4byte	.LVL797
 16157 3372 E93D0000 		.4byte	0x3de9
 16158 3376 15       		.uleb128 0x15
 16159 3377 42000000 		.4byte	.LVL798
 16160 337b 093C0000 		.4byte	0x3c09
 16161 337f 15       		.uleb128 0x15
 16162 3380 56000000 		.4byte	.LVL799
 16163 3384 E93D0000 		.4byte	0x3de9
 16164 3388 15       		.uleb128 0x15
 16165 3389 6A000000 		.4byte	.LVL800
 16166 338d 093C0000 		.4byte	0x3c09
 16167 3391 15       		.uleb128 0x15
 16168 3392 7E000000 		.4byte	.LVL801
 16169 3396 E93D0000 		.4byte	0x3de9
 16170 339a 15       		.uleb128 0x15
 16171 339b 82000000 		.4byte	.LVL802
 16172 339f E93D0000 		.4byte	0x3de9
 16173 33a3 15       		.uleb128 0x15
 16174 33a4 86000000 		.4byte	.LVL803
 16175 33a8 F73D0000 		.4byte	0x3df7
 16176 33ac 00       		.byte	0
 16177 33ad 0A       		.uleb128 0xa
 16178 33ae AD000000 		.4byte	0xad
 16179 33b2 BD330000 		.4byte	0x33bd
 16180 33b6 0B       		.uleb128 0xb
 16181 33b7 27010000 		.4byte	0x127
 16182 33bb 1F       		.byte	0x1f
 16183 33bc 00       		.byte	0
 16184 33bd 1F       		.uleb128 0x1f
 16185 33be 50000000 		.4byte	.LASF189
 16186 33c2 06       		.byte	0x6
 16187 33c3 3E01     		.2byte	0x13e
 16188 33c5 C9330000 		.4byte	0x33c9
 16189 33c9 06       		.uleb128 0x6
 16190 33ca AD330000 		.4byte	0x33ad
 16191 33ce 1F       		.uleb128 0x1f
 16192 33cf 1F110000 		.4byte	.LASF190
 16193 33d3 07       		.byte	0x7
 16194 33d4 3E01     		.2byte	0x13e
 16195 33d6 DA330000 		.4byte	0x33da
 16196 33da 06       		.uleb128 0x6
 16197 33db AD330000 		.4byte	0x33ad
 16198 33df 1F       		.uleb128 0x1f
 16199 33e0 9F0B0000 		.4byte	.LASF191
 16200 33e4 08       		.byte	0x8
 16201 33e5 5506     		.2byte	0x655
 16202 33e7 EB330000 		.4byte	0x33eb
 16203 33eb 06       		.uleb128 0x6
 16204 33ec A2000000 		.4byte	0xa2
 16205 33f0 20       		.uleb128 0x20
 16206 33f1 F8060000 		.4byte	.LASF192
ARM GAS  C:\Users\RECEPC~1\AppData\Local\Temp\cc6Stwwd.s 			page 348


 16207 33f5 05       		.byte	0x5
 16208 33f6 2C       		.byte	0x2c
 16209 33f7 01340000 		.4byte	0x3401
 16210 33fb 05       		.uleb128 0x5
 16211 33fc 03       		.byte	0x3
 16212 33fd 00000000 		.4byte	countAnimation1
 16213 3401 06       		.uleb128 0x6
 16214 3402 DF000000 		.4byte	0xdf
 16215 3406 20       		.uleb128 0x20
 16216 3407 08070000 		.4byte	.LASF193
 16217 340b 05       		.byte	0x5
 16218 340c 2D       		.byte	0x2d
 16219 340d 01340000 		.4byte	0x3401
 16220 3411 05       		.uleb128 0x5
 16221 3412 03       		.byte	0x3
 16222 3413 00000000 		.4byte	countAnimation2
 16223 3417 20       		.uleb128 0x20
 16224 3418 9B110000 		.4byte	.LASF194
 16225 341c 05       		.byte	0x5
 16226 341d 2E       		.byte	0x2e
 16227 341e 01340000 		.4byte	0x3401
 16228 3422 05       		.uleb128 0x5
 16229 3423 03       		.byte	0x3
 16230 3424 00000000 		.4byte	countRX
 16231 3428 20       		.uleb128 0x20
 16232 3429 9F120000 		.4byte	.LASF195
 16233 342d 05       		.byte	0x5
 16234 342e 2F       		.byte	0x2f
 16235 342f 01340000 		.4byte	0x3401
 16236 3433 05       		.uleb128 0x5
 16237 3434 03       		.byte	0x3
 16238 3435 00000000 		.4byte	countTX
 16239 3439 20       		.uleb128 0x20
 16240 343a E2030000 		.4byte	.LASF196
 16241 343e 05       		.byte	0x5
 16242 343f 30       		.byte	0x30
 16243 3440 01340000 		.4byte	0x3401
 16244 3444 05       		.uleb128 0x5
 16245 3445 03       		.byte	0x3
 16246 3446 00000000 		.4byte	countPump
 16247 344a 20       		.uleb128 0x20
 16248 344b 43020000 		.4byte	.LASF197
 16249 344f 05       		.byte	0x5
 16250 3450 31       		.byte	0x31
 16251 3451 01340000 		.4byte	0x3401
 16252 3455 05       		.uleb128 0x5
 16253 3456 03       		.byte	0x3
 16254 3457 00000000 		.4byte	countLCD
 16255 345b 20       		.uleb128 0x20
 16256 345c D4050000 		.4byte	.LASF198
 16257 3460 05       		.byte	0x5
 16258 3461 32       		.byte	0x32
 16259 3462 0F010000 		.4byte	0x10f
 16260 3466 05       		.uleb128 0x5
 16261 3467 03       		.byte	0x3
 16262 3468 00000000 		.4byte	flowDisplay1
 16263 346c 20       		.uleb128 0x20
ARM GAS  C:\Users\RECEPC~1\AppData\Local\Temp\cc6Stwwd.s 			page 349


 16264 346d E1050000 		.4byte	.LASF199
 16265 3471 05       		.byte	0x5
 16266 3472 33       		.byte	0x33
 16267 3473 0F010000 		.4byte	0x10f
 16268 3477 05       		.uleb128 0x5
 16269 3478 03       		.byte	0x3
 16270 3479 00000000 		.4byte	flowDisplay2
 16271 347d 20       		.uleb128 0x20
 16272 347e EE050000 		.4byte	.LASF200
 16273 3482 05       		.byte	0x5
 16274 3483 34       		.byte	0x34
 16275 3484 0F010000 		.4byte	0x10f
 16276 3488 05       		.uleb128 0x5
 16277 3489 03       		.byte	0x3
 16278 348a 00000000 		.4byte	flowDisplay3
 16279 348e 20       		.uleb128 0x20
 16280 348f FB050000 		.4byte	.LASF201
 16281 3493 05       		.byte	0x5
 16282 3494 35       		.byte	0x35
 16283 3495 0F010000 		.4byte	0x10f
 16284 3499 05       		.uleb128 0x5
 16285 349a 03       		.byte	0x3
 16286 349b 00000000 		.4byte	flowDisplay4
 16287 349f 20       		.uleb128 0x20
 16288 34a0 06020000 		.4byte	.LASF202
 16289 34a4 05       		.byte	0x5
 16290 34a5 36       		.byte	0x36
 16291 34a6 0A010000 		.4byte	0x10a
 16292 34aa 05       		.uleb128 0x5
 16293 34ab 03       		.byte	0x3
 16294 34ac 00000000 		.4byte	numberKeys1
 16295 34b0 20       		.uleb128 0x20
 16296 34b1 12020000 		.4byte	.LASF203
 16297 34b5 05       		.byte	0x5
 16298 34b6 37       		.byte	0x37
 16299 34b7 0A010000 		.4byte	0x10a
 16300 34bb 05       		.uleb128 0x5
 16301 34bc 03       		.byte	0x3
 16302 34bd 00000000 		.4byte	numberKeys2
 16303 34c1 20       		.uleb128 0x20
 16304 34c2 1D0F0000 		.4byte	.LASF204
 16305 34c6 05       		.byte	0x5
 16306 34c7 38       		.byte	0x38
 16307 34c8 0A010000 		.4byte	0x10a
 16308 34cc 05       		.uleb128 0x5
 16309 34cd 03       		.byte	0x3
 16310 34ce 00000000 		.4byte	flagPoint1
 16311 34d2 20       		.uleb128 0x20
 16312 34d3 280F0000 		.4byte	.LASF205
 16313 34d7 05       		.byte	0x5
 16314 34d8 39       		.byte	0x39
 16315 34d9 0A010000 		.4byte	0x10a
 16316 34dd 05       		.uleb128 0x5
 16317 34de 03       		.byte	0x3
 16318 34df 00000000 		.4byte	flagPoint2
 16319 34e3 20       		.uleb128 0x20
 16320 34e4 E30E0000 		.4byte	.LASF206
ARM GAS  C:\Users\RECEPC~1\AppData\Local\Temp\cc6Stwwd.s 			page 350


 16321 34e8 05       		.byte	0x5
 16322 34e9 3A       		.byte	0x3a
 16323 34ea 0A010000 		.4byte	0x10a
 16324 34ee 05       		.uleb128 0x5
 16325 34ef 03       		.byte	0x3
 16326 34f0 00000000 		.4byte	productNumber
 16327 34f4 20       		.uleb128 0x20
 16328 34f5 0E0C0000 		.4byte	.LASF207
 16329 34f9 05       		.byte	0x5
 16330 34fa 3B       		.byte	0x3b
 16331 34fb 0F010000 		.4byte	0x10f
 16332 34ff 05       		.uleb128 0x5
 16333 3500 03       		.byte	0x3
 16334 3501 00000000 		.4byte	delayPicture1
 16335 3505 20       		.uleb128 0x20
 16336 3506 1C0C0000 		.4byte	.LASF208
 16337 350a 05       		.byte	0x5
 16338 350b 3C       		.byte	0x3c
 16339 350c 0F010000 		.4byte	0x10f
 16340 3510 05       		.uleb128 0x5
 16341 3511 03       		.byte	0x3
 16342 3512 00000000 		.4byte	delayPicture2
 16343 3516 20       		.uleb128 0x20
 16344 3517 110B0000 		.4byte	.LASF209
 16345 351b 05       		.byte	0x5
 16346 351c 3D       		.byte	0x3d
 16347 351d 0A010000 		.4byte	0x10a
 16348 3521 05       		.uleb128 0x5
 16349 3522 03       		.byte	0x3
 16350 3523 00000000 		.4byte	ppux10
 16351 3527 20       		.uleb128 0x20
 16352 3528 EF020000 		.4byte	.LASF210
 16353 352c 05       		.byte	0x5
 16354 352d 3E       		.byte	0x3e
 16355 352e 38350000 		.4byte	0x3538
 16356 3532 05       		.uleb128 0x5
 16357 3533 03       		.byte	0x3
 16358 3534 00000000 		.4byte	symbols
 16359 3538 06       		.uleb128 0x6
 16360 3539 8D030000 		.4byte	0x38d
 16361 353d 0A       		.uleb128 0xa
 16362 353e AD000000 		.4byte	0xad
 16363 3542 4D350000 		.4byte	0x354d
 16364 3546 0B       		.uleb128 0xb
 16365 3547 27010000 		.4byte	0x127
 16366 354b 02       		.byte	0x2
 16367 354c 00       		.byte	0
 16368 354d 20       		.uleb128 0x20
 16369 354e 9E0F0000 		.4byte	.LASF211
 16370 3552 05       		.byte	0x5
 16371 3553 3F       		.byte	0x3f
 16372 3554 5E350000 		.4byte	0x355e
 16373 3558 05       		.uleb128 0x5
 16374 3559 03       		.byte	0x3
 16375 355a 00000000 		.4byte	time
 16376 355e 06       		.uleb128 0x6
 16377 355f 3D350000 		.4byte	0x353d
ARM GAS  C:\Users\RECEPC~1\AppData\Local\Temp\cc6Stwwd.s 			page 351


 16378 3563 20       		.uleb128 0x20
 16379 3564 A8030000 		.4byte	.LASF212
 16380 3568 05       		.byte	0x5
 16381 3569 40       		.byte	0x40
 16382 356a 74350000 		.4byte	0x3574
 16383 356e 05       		.uleb128 0x5
 16384 356f 03       		.byte	0x3
 16385 3570 00000000 		.4byte	date
 16386 3574 06       		.uleb128 0x6
 16387 3575 3D350000 		.4byte	0x353d
 16388 3579 20       		.uleb128 0x20
 16389 357a D6010000 		.4byte	.LASF213
 16390 357e 05       		.byte	0x5
 16391 357f 41       		.byte	0x41
 16392 3580 8A350000 		.4byte	0x358a
 16393 3584 05       		.uleb128 0x5
 16394 3585 03       		.byte	0x3
 16395 3586 00000000 		.4byte	screen
 16396 358a 06       		.uleb128 0x6
 16397 358b 8D030000 		.4byte	0x38d
 16398 358f 20       		.uleb128 0x20
 16399 3590 370B0000 		.4byte	.LASF214
 16400 3594 05       		.byte	0x5
 16401 3595 42       		.byte	0x42
 16402 3596 A0350000 		.4byte	0x35a0
 16403 359a 05       		.uleb128 0x5
 16404 359b 03       		.byte	0x3
 16405 359c 00000000 		.4byte	residue
 16406 35a0 06       		.uleb128 0x6
 16407 35a1 D3030000 		.4byte	0x3d3
 16408 35a5 20       		.uleb128 0x20
 16409 35a6 16110000 		.4byte	.LASF215
 16410 35aa 05       		.byte	0x5
 16411 35ab 43       		.byte	0x43
 16412 35ac B6350000 		.4byte	0x35b6
 16413 35b0 05       		.uleb128 0x5
 16414 35b1 03       		.byte	0x3
 16415 35b2 00000000 		.4byte	idSeller
 16416 35b6 06       		.uleb128 0x6
 16417 35b7 5D030000 		.4byte	0x35d
 16418 35bb 20       		.uleb128 0x20
 16419 35bc 710A0000 		.4byte	.LASF216
 16420 35c0 05       		.byte	0x5
 16421 35c1 44       		.byte	0x44
 16422 35c2 0A010000 		.4byte	0x10a
 16423 35c6 05       		.uleb128 0x5
 16424 35c7 03       		.byte	0x3
 16425 35c8 00000000 		.4byte	typeIdSeller
 16426 35cc 0A       		.uleb128 0xa
 16427 35cd AD000000 		.4byte	0xad
 16428 35d1 DC350000 		.4byte	0x35dc
 16429 35d5 0B       		.uleb128 0xb
 16430 35d6 27010000 		.4byte	0x127
 16431 35da 07       		.byte	0x7
 16432 35db 00       		.byte	0
 16433 35dc 20       		.uleb128 0x20
 16434 35dd 1E020000 		.4byte	.LASF217
ARM GAS  C:\Users\RECEPC~1\AppData\Local\Temp\cc6Stwwd.s 			page 352


 16435 35e1 05       		.byte	0x5
 16436 35e2 45       		.byte	0x45
 16437 35e3 ED350000 		.4byte	0x35ed
 16438 35e7 05       		.uleb128 0x5
 16439 35e8 03       		.byte	0x3
 16440 35e9 00000000 		.4byte	passwordSeller
 16441 35ed 06       		.uleb128 0x6
 16442 35ee CC350000 		.4byte	0x35cc
 16443 35f2 20       		.uleb128 0x20
 16444 35f3 AC0B0000 		.4byte	.LASF218
 16445 35f7 05       		.byte	0x5
 16446 35f8 46       		.byte	0x46
 16447 35f9 0A010000 		.4byte	0x10a
 16448 35fd 05       		.uleb128 0x5
 16449 35fe 03       		.byte	0x3
 16450 35ff 00000000 		.4byte	flagResetMux
 16451 3603 20       		.uleb128 0x20
 16452 3604 18070000 		.4byte	.LASF219
 16453 3608 05       		.byte	0x5
 16454 3609 47       		.byte	0x47
 16455 360a 0A010000 		.4byte	0x10a
 16456 360e 05       		.uleb128 0x5
 16457 360f 03       		.byte	0x3
 16458 3610 00000000 		.4byte	stateBeagleSoft
 16459 3614 20       		.uleb128 0x20
 16460 3615 87130000 		.4byte	.LASF220
 16461 3619 05       		.byte	0x5
 16462 361a 48       		.byte	0x48
 16463 361b 25360000 		.4byte	0x3625
 16464 361f 05       		.uleb128 0x5
 16465 3620 03       		.byte	0x3
 16466 3621 00000000 		.4byte	PrevStatePump
 16467 3625 06       		.uleb128 0x6
 16468 3626 39010000 		.4byte	0x139
 16469 362a 20       		.uleb128 0x20
 16470 362b 3B0A0000 		.4byte	.LASF221
 16471 362f 05       		.byte	0x5
 16472 3630 49       		.byte	0x49
 16473 3631 0A010000 		.4byte	0x10a
 16474 3635 05       		.uleb128 0x5
 16475 3636 03       		.byte	0x3
 16476 3637 00000000 		.4byte	PlateRequest
 16477 363b 20       		.uleb128 0x20
 16478 363c 970F0000 		.4byte	.LASF222
 16479 3640 05       		.byte	0x5
 16480 3641 4A       		.byte	0x4a
 16481 3642 4C360000 		.4byte	0x364c
 16482 3646 05       		.uleb128 0x5
 16483 3647 03       		.byte	0x3
 16484 3648 00000000 		.4byte	IDCast
 16485 364c 06       		.uleb128 0x6
 16486 364d 8D030000 		.4byte	0x38d
 16487 3651 20       		.uleb128 0x20
 16488 3652 49130000 		.4byte	.LASF223
 16489 3656 05       		.byte	0x5
 16490 3657 4B       		.byte	0x4b
 16491 3658 0A010000 		.4byte	0x10a
ARM GAS  C:\Users\RECEPC~1\AppData\Local\Temp\cc6Stwwd.s 			page 353


 16492 365c 05       		.uleb128 0x5
 16493 365d 03       		.byte	0x3
 16494 365e 00000000 		.4byte	ActiveRF
 16495 3662 20       		.uleb128 0x20
 16496 3663 7D060000 		.4byte	.LASF224
 16497 3667 05       		.byte	0x5
 16498 3668 4C       		.byte	0x4c
 16499 3669 0A010000 		.4byte	0x10a
 16500 366d 05       		.uleb128 0x5
 16501 366e 03       		.byte	0x3
 16502 366f 00000000 		.4byte	counterRF
 16503 3673 0A       		.uleb128 0xa
 16504 3674 AD000000 		.4byte	0xad
 16505 3678 83360000 		.4byte	0x3683
 16506 367c 0B       		.uleb128 0xb
 16507 367d 27010000 		.4byte	0x127
 16508 3681 1D       		.byte	0x1d
 16509 3682 00       		.byte	0
 16510 3683 20       		.uleb128 0x20
 16511 3684 47000000 		.4byte	.LASF225
 16512 3688 05       		.byte	0x5
 16513 3689 4D       		.byte	0x4d
 16514 368a 94360000 		.4byte	0x3694
 16515 368e 05       		.uleb128 0x5
 16516 368f 03       		.byte	0x3
 16517 3690 00000000 		.4byte	temporal
 16518 3694 06       		.uleb128 0x6
 16519 3695 73360000 		.4byte	0x3673
 16520 3699 20       		.uleb128 0x20
 16521 369a 5C100000 		.4byte	.LASF226
 16522 369e 05       		.byte	0x5
 16523 369f 4E       		.byte	0x4e
 16524 36a0 AA360000 		.4byte	0x36aa
 16525 36a4 05       		.uleb128 0x5
 16526 36a5 03       		.byte	0x3
 16527 36a6 00000000 		.4byte	tempPreset
 16528 36aa 06       		.uleb128 0x6
 16529 36ab CC350000 		.4byte	0x35cc
 16530 36af 20       		.uleb128 0x20
 16531 36b0 F8100000 		.4byte	.LASF227
 16532 36b4 05       		.byte	0x5
 16533 36b5 4F       		.byte	0x4f
 16534 36b6 C0360000 		.4byte	0x36c0
 16535 36ba 05       		.uleb128 0x5
 16536 36bb 03       		.byte	0x3
 16537 36bc 00000000 		.4byte	tempPPU
 16538 36c0 06       		.uleb128 0x6
 16539 36c1 B3030000 		.4byte	0x3b3
 16540 36c5 20       		.uleb128 0x20
 16541 36c6 84030000 		.4byte	.LASF228
 16542 36ca 05       		.byte	0x5
 16543 36cb 50       		.byte	0x50
 16544 36cc 0A010000 		.4byte	0x10a
 16545 36d0 05       		.uleb128 0x5
 16546 36d1 03       		.byte	0x3
 16547 36d2 00000000 		.4byte	CGrade
 16548 36d6 20       		.uleb128 0x20
ARM GAS  C:\Users\RECEPC~1\AppData\Local\Temp\cc6Stwwd.s 			page 354


 16549 36d7 66130000 		.4byte	.LASF229
 16550 36db 05       		.byte	0x5
 16551 36dc 51       		.byte	0x51
 16552 36dd 0A010000 		.4byte	0x10a
 16553 36e1 05       		.uleb128 0x5
 16554 36e2 03       		.byte	0x3
 16555 36e3 00000000 		.4byte	ShiftState
 16556 36e7 20       		.uleb128 0x20
 16557 36e8 960D0000 		.4byte	.LASF230
 16558 36ec 05       		.byte	0x5
 16559 36ed 52       		.byte	0x52
 16560 36ee 0A010000 		.4byte	0x10a
 16561 36f2 05       		.uleb128 0x5
 16562 36f3 03       		.byte	0x3
 16563 36f4 00000000 		.4byte	pollTotals
 16564 36f8 20       		.uleb128 0x20
 16565 36f9 7B070000 		.4byte	.LASF231
 16566 36fd 05       		.byte	0x5
 16567 36fe 53       		.byte	0x53
 16568 36ff 0A010000 		.4byte	0x10a
 16569 3703 05       		.uleb128 0x5
 16570 3704 03       		.byte	0x3
 16571 3705 00000000 		.4byte	sizeSendB
 16572 3709 20       		.uleb128 0x20
 16573 370a DD010000 		.4byte	.LASF232
 16574 370e 05       		.byte	0x5
 16575 370f 54       		.byte	0x54
 16576 3710 0A010000 		.4byte	0x10a
 16577 3714 05       		.uleb128 0x5
 16578 3715 03       		.byte	0x3
 16579 3716 00000000 		.4byte	bufferAready
 16580 371a 20       		.uleb128 0x20
 16581 371b 99060000 		.4byte	.LASF233
 16582 371f 05       		.byte	0x5
 16583 3720 56       		.byte	0x56
 16584 3721 AD000000 		.4byte	0xad
 16585 3725 05       		.uleb128 0x5
 16586 3726 03       		.byte	0x3
 16587 3727 00000000 		.4byte	UnitType
 16588 372b 20       		.uleb128 0x20
 16589 372c 290E0000 		.4byte	.LASF234
 16590 3730 05       		.byte	0x5
 16591 3731 56       		.byte	0x56
 16592 3732 AD000000 		.4byte	0xad
 16593 3736 05       		.uleb128 0x5
 16594 3737 03       		.byte	0x3
 16595 3738 00000000 		.4byte	ConversionFactor
 16596 373c 20       		.uleb128 0x20
 16597 373d D70B0000 		.4byte	.LASF235
 16598 3741 05       		.byte	0x5
 16599 3742 56       		.byte	0x56
 16600 3743 AD000000 		.4byte	0xad
 16601 3747 05       		.uleb128 0x5
 16602 3748 03       		.byte	0x3
 16603 3749 00000000 		.4byte	MoneyDec
 16604 374d 20       		.uleb128 0x20
 16605 374e D80F0000 		.4byte	.LASF236
ARM GAS  C:\Users\RECEPC~1\AppData\Local\Temp\cc6Stwwd.s 			page 355


 16606 3752 05       		.byte	0x5
 16607 3753 56       		.byte	0x56
 16608 3754 AD000000 		.4byte	0xad
 16609 3758 05       		.uleb128 0x5
 16610 3759 03       		.byte	0x3
 16611 375a 00000000 		.4byte	VolDec
 16612 375e 20       		.uleb128 0x20
 16613 375f DD0C0000 		.4byte	.LASF237
 16614 3763 05       		.byte	0x5
 16615 3764 56       		.byte	0x56
 16616 3765 AD000000 		.4byte	0xad
 16617 3769 05       		.uleb128 0x5
 16618 376a 03       		.byte	0x3
 16619 376b 00000000 		.4byte	PPUDec
 16620 376f 20       		.uleb128 0x20
 16621 3770 CE080000 		.4byte	.LASF238
 16622 3774 05       		.byte	0x5
 16623 3775 56       		.byte	0x56
 16624 3776 AD000000 		.4byte	0xad
 16625 377a 05       		.uleb128 0x5
 16626 377b 03       		.byte	0x3
 16627 377c 00000000 		.4byte	DDMode
 16628 3780 20       		.uleb128 0x20
 16629 3781 08060000 		.4byte	.LASF239
 16630 3785 05       		.byte	0x5
 16631 3786 57       		.byte	0x57
 16632 3787 39010000 		.4byte	0x139
 16633 378b 05       		.uleb128 0x5
 16634 378c 03       		.byte	0x3
 16635 378d 00000000 		.4byte	statePump
 16636 3791 20       		.uleb128 0x20
 16637 3792 ED000000 		.4byte	.LASF240
 16638 3796 05       		.byte	0x5
 16639 3797 58       		.byte	0x58
 16640 3798 AD000000 		.4byte	0xad
 16641 379c 05       		.uleb128 0x5
 16642 379d 03       		.byte	0x3
 16643 379e 00000000 		.4byte	NumPositions
 16644 37a2 20       		.uleb128 0x20
 16645 37a3 3C060000 		.4byte	.LASF241
 16646 37a7 05       		.byte	0x5
 16647 37a8 59       		.byte	0x59
 16648 37a9 AD000000 		.4byte	0xad
 16649 37ad 05       		.uleb128 0x5
 16650 37ae 03       		.byte	0x3
 16651 37af 00000000 		.4byte	lockTurn
 16652 37b3 20       		.uleb128 0x20
 16653 37b4 FA000000 		.4byte	.LASF242
 16654 37b8 05       		.byte	0x5
 16655 37b9 5A       		.byte	0x5a
 16656 37ba AD000000 		.4byte	0xad
 16657 37be 05       		.uleb128 0x5
 16658 37bf 03       		.byte	0x3
 16659 37c0 00000000 		.4byte	digits
 16660 37c4 20       		.uleb128 0x20
 16661 37c5 080F0000 		.4byte	.LASF243
 16662 37c9 05       		.byte	0x5
ARM GAS  C:\Users\RECEPC~1\AppData\Local\Temp\cc6Stwwd.s 			page 356


 16663 37ca 5B       		.byte	0x5b
 16664 37cb AD000000 		.4byte	0xad
 16665 37cf 05       		.uleb128 0x5
 16666 37d0 03       		.byte	0x3
 16667 37d1 00000000 		.4byte	hiddenKeys
 16668 37d5 20       		.uleb128 0x20
 16669 37d6 15080000 		.4byte	.LASF244
 16670 37da 05       		.byte	0x5
 16671 37db 5C       		.byte	0x5c
 16672 37dc AD000000 		.4byte	0xad
 16673 37e0 05       		.uleb128 0x5
 16674 37e1 03       		.byte	0x3
 16675 37e2 00000000 		.4byte	PrinterType
 16676 37e6 0A       		.uleb128 0xa
 16677 37e7 EB000000 		.4byte	0xeb
 16678 37eb F6370000 		.4byte	0x37f6
 16679 37ef 0B       		.uleb128 0xb
 16680 37f0 27010000 		.4byte	0x127
 16681 37f4 05       		.byte	0x5
 16682 37f5 00       		.byte	0
 16683 37f6 20       		.uleb128 0x20
 16684 37f7 CD100000 		.4byte	.LASF245
 16685 37fb 05       		.byte	0x5
 16686 37fc 5D       		.byte	0x5d
 16687 37fd E6370000 		.4byte	0x37e6
 16688 3801 05       		.uleb128 0x5
 16689 3802 03       		.byte	0x3
 16690 3803 00000000 		.4byte	VolUnit
 16691 3807 20       		.uleb128 0x20
 16692 3808 47120000 		.4byte	.LASF246
 16693 380c 05       		.byte	0x5
 16694 380d 5E       		.byte	0x5e
 16695 380e 3D350000 		.4byte	0x353d
 16696 3812 05       		.uleb128 0x5
 16697 3813 03       		.byte	0x3
 16698 3814 00000000 		.4byte	dateDownHandle
 16699 3818 20       		.uleb128 0x20
 16700 3819 23120000 		.4byte	.LASF247
 16701 381d 05       		.byte	0x5
 16702 381e 5F       		.byte	0x5f
 16703 381f 8D030000 		.4byte	0x38d
 16704 3823 05       		.uleb128 0x5
 16705 3824 03       		.byte	0x3
 16706 3825 00000000 		.4byte	timeDownHandle
 16707 3829 20       		.uleb128 0x20
 16708 382a 83110000 		.4byte	.LASF248
 16709 382e 05       		.byte	0x5
 16710 382f 60       		.byte	0x60
 16711 3830 AD000000 		.4byte	0xad
 16712 3834 05       		.uleb128 0x5
 16713 3835 03       		.byte	0x3
 16714 3836 00000000 		.4byte	count_protector
 16715 383a 20       		.uleb128 0x20
 16716 383b 6C120000 		.4byte	.LASF249
 16717 383f 05       		.byte	0x5
 16718 3840 60       		.byte	0x60
 16719 3841 AD000000 		.4byte	0xad
ARM GAS  C:\Users\RECEPC~1\AppData\Local\Temp\cc6Stwwd.s 			page 357


 16720 3845 05       		.uleb128 0x5
 16721 3846 03       		.byte	0x3
 16722 3847 00000000 		.4byte	count_protector2
 16723 384b 20       		.uleb128 0x20
 16724 384c 58110000 		.4byte	.LASF250
 16725 3850 05       		.byte	0x5
 16726 3851 61       		.byte	0x61
 16727 3852 B3030000 		.4byte	0x3b3
 16728 3856 05       		.uleb128 0x5
 16729 3857 03       		.byte	0x3
 16730 3858 00000000 		.4byte	configAccess
 16731 385c 20       		.uleb128 0x20
 16732 385d 71060000 		.4byte	.LASF251
 16733 3861 05       		.byte	0x5
 16734 3862 62       		.byte	0x62
 16735 3863 AD000000 		.4byte	0xad
 16736 3867 05       		.uleb128 0x5
 16737 3868 03       		.byte	0x3
 16738 3869 00000000 		.4byte	controlChar
 16739 386d 0A       		.uleb128 0xa
 16740 386e EB000000 		.4byte	0xeb
 16741 3872 7D380000 		.4byte	0x387d
 16742 3876 0B       		.uleb128 0xb
 16743 3877 27010000 		.4byte	0x127
 16744 387b 04       		.byte	0x4
 16745 387c 00       		.byte	0
 16746 387d 20       		.uleb128 0x20
 16747 387e B70D0000 		.4byte	.LASF252
 16748 3882 05       		.byte	0x5
 16749 3883 63       		.byte	0x63
 16750 3884 6D380000 		.4byte	0x386d
 16751 3888 05       		.uleb128 0x5
 16752 3889 03       		.byte	0x3
 16753 388a 00000000 		.4byte	idStation
 16754 388e 20       		.uleb128 0x20
 16755 388f 93110000 		.4byte	.LASF253
 16756 3893 05       		.byte	0x5
 16757 3894 64       		.byte	0x64
 16758 3895 3D350000 		.4byte	0x353d
 16759 3899 05       		.uleb128 0x5
 16760 389a 03       		.byte	0x3
 16761 389b 00000000 		.4byte	pumpGap
 16762 389f 20       		.uleb128 0x20
 16763 38a0 D6090000 		.4byte	.LASF254
 16764 38a4 05       		.byte	0x5
 16765 38a5 65       		.byte	0x65
 16766 38a6 AD000000 		.4byte	0xad
 16767 38aa 05       		.uleb128 0x5
 16768 38ab 03       		.byte	0x3
 16769 38ac 00000000 		.4byte	printPortA
 16770 38b0 20       		.uleb128 0x20
 16771 38b1 30010000 		.4byte	.LASF255
 16772 38b5 05       		.byte	0x5
 16773 38b6 66       		.byte	0x66
 16774 38b7 AD000000 		.4byte	0xad
 16775 38bb 05       		.uleb128 0x5
 16776 38bc 03       		.byte	0x3
ARM GAS  C:\Users\RECEPC~1\AppData\Local\Temp\cc6Stwwd.s 			page 358


 16777 38bd 00000000 		.4byte	printPortB
 16778 38c1 0A       		.uleb128 0xa
 16779 38c2 AD000000 		.4byte	0xad
 16780 38c6 D2380000 		.4byte	0x38d2
 16781 38ca 21       		.uleb128 0x21
 16782 38cb 27010000 		.4byte	0x127
 16783 38cf FF01     		.2byte	0x1ff
 16784 38d1 00       		.byte	0
 16785 38d2 20       		.uleb128 0x20
 16786 38d3 92080000 		.4byte	.LASF256
 16787 38d7 05       		.byte	0x5
 16788 38d8 67       		.byte	0x67
 16789 38d9 C1380000 		.4byte	0x38c1
 16790 38dd 05       		.uleb128 0x5
 16791 38de 03       		.byte	0x3
 16792 38df 00000000 		.4byte	buffer_rf
 16793 38e3 20       		.uleb128 0x20
 16794 38e4 BE090000 		.4byte	.LASF257
 16795 38e8 05       		.byte	0x5
 16796 38e9 68       		.byte	0x68
 16797 38ea C1380000 		.4byte	0x38c1
 16798 38ee 05       		.uleb128 0x5
 16799 38ef 03       		.byte	0x3
 16800 38f0 00000000 		.4byte	buffer_tx
 16801 38f4 20       		.uleb128 0x20
 16802 38f5 76000000 		.4byte	.LASF258
 16803 38f9 05       		.byte	0x5
 16804 38fa 69       		.byte	0x69
 16805 38fb C1380000 		.4byte	0x38c1
 16806 38ff 05       		.uleb128 0x5
 16807 3900 03       		.byte	0x3
 16808 3901 00000000 		.4byte	buffer_txTotals
 16809 3905 0A       		.uleb128 0xa
 16810 3906 AD000000 		.4byte	0xad
 16811 390a 15390000 		.4byte	0x3915
 16812 390e 0B       		.uleb128 0xb
 16813 390f 27010000 		.4byte	0x127
 16814 3913 FE       		.byte	0xfe
 16815 3914 00       		.byte	0
 16816 3915 20       		.uleb128 0x20
 16817 3916 5C030000 		.4byte	.LASF259
 16818 391a 05       		.byte	0x5
 16819 391b 6A       		.byte	0x6a
 16820 391c 05390000 		.4byte	0x3905
 16821 3920 05       		.uleb128 0x5
 16822 3921 03       		.byte	0x3
 16823 3922 00000000 		.4byte	buffer_A
 16824 3926 0A       		.uleb128 0xa
 16825 3927 EB000000 		.4byte	0xeb
 16826 392b 36390000 		.4byte	0x3936
 16827 392f 0B       		.uleb128 0xb
 16828 3930 27010000 		.4byte	0x127
 16829 3934 F9       		.byte	0xf9
 16830 3935 00       		.byte	0
 16831 3936 20       		.uleb128 0x20
 16832 3937 E40C0000 		.4byte	.LASF260
 16833 393b 05       		.byte	0x5
ARM GAS  C:\Users\RECEPC~1\AppData\Local\Temp\cc6Stwwd.s 			page 359


 16834 393c 6B       		.byte	0x6b
 16835 393d 26390000 		.4byte	0x3926
 16836 3941 05       		.uleb128 0x5
 16837 3942 03       		.byte	0x3
 16838 3943 00000000 		.4byte	buffer_print
 16839 3947 0A       		.uleb128 0xa
 16840 3948 AD000000 		.4byte	0xad
 16841 394c 57390000 		.4byte	0x3957
 16842 3950 0B       		.uleb128 0xb
 16843 3951 27010000 		.4byte	0x127
 16844 3955 3B       		.byte	0x3b
 16845 3956 00       		.byte	0
 16846 3957 20       		.uleb128 0x20
 16847 3958 6B0C0000 		.4byte	.LASF261
 16848 395c 05       		.byte	0x5
 16849 395d 6C       		.byte	0x6c
 16850 395e 47390000 		.4byte	0x3947
 16851 3962 05       		.uleb128 0x5
 16852 3963 03       		.byte	0x3
 16853 3964 00000000 		.4byte	buffer_txPreset
 16854 3968 20       		.uleb128 0x20
 16855 3969 8A0F0000 		.4byte	.LASF262
 16856 396d 05       		.byte	0x5
 16857 396e 6D       		.byte	0x6d
 16858 396f 47390000 		.4byte	0x3947
 16859 3973 05       		.uleb128 0x5
 16860 3974 03       		.byte	0x3
 16861 3975 00000000 		.4byte	buffer_txEOT
 16862 3979 20       		.uleb128 0x20
 16863 397a D5080000 		.4byte	.LASF263
 16864 397e 05       		.byte	0x5
 16865 397f 6E       		.byte	0x6e
 16866 3980 47390000 		.4byte	0x3947
 16867 3984 05       		.uleb128 0x5
 16868 3985 03       		.byte	0x3
 16869 3986 00000000 		.4byte	buffer_txDisplay
 16870 398a 20       		.uleb128 0x20
 16871 398b EB060000 		.4byte	.LASF264
 16872 398f 05       		.byte	0x5
 16873 3990 6F       		.byte	0x6f
 16874 3991 B9000000 		.4byte	0xb9
 16875 3995 05       		.uleb128 0x5
 16876 3996 03       		.byte	0x3
 16877 3997 00000000 		.4byte	intIDStation
 16878 399b 20       		.uleb128 0x20
 16879 399c 21080000 		.4byte	.LASF265
 16880 39a0 05       		.byte	0x5
 16881 39a1 70       		.byte	0x70
 16882 39a2 73360000 		.4byte	0x3673
 16883 39a6 05       		.uleb128 0x5
 16884 39a7 03       		.byte	0x3
 16885 39a8 00000000 		.4byte	Encabezado1
 16886 39ac 20       		.uleb128 0x20
 16887 39ad 2D080000 		.4byte	.LASF266
 16888 39b1 05       		.byte	0x5
 16889 39b2 71       		.byte	0x71
 16890 39b3 73360000 		.4byte	0x3673
ARM GAS  C:\Users\RECEPC~1\AppData\Local\Temp\cc6Stwwd.s 			page 360


 16891 39b7 05       		.uleb128 0x5
 16892 39b8 03       		.byte	0x3
 16893 39b9 00000000 		.4byte	Encabezado2
 16894 39bd 20       		.uleb128 0x20
 16895 39be 39080000 		.4byte	.LASF267
 16896 39c2 05       		.byte	0x5
 16897 39c3 72       		.byte	0x72
 16898 39c4 73360000 		.4byte	0x3673
 16899 39c8 05       		.uleb128 0x5
 16900 39c9 03       		.byte	0x3
 16901 39ca 00000000 		.4byte	Encabezado3
 16902 39ce 20       		.uleb128 0x20
 16903 39cf 45080000 		.4byte	.LASF268
 16904 39d3 05       		.byte	0x5
 16905 39d4 73       		.byte	0x73
 16906 39d5 73360000 		.4byte	0x3673
 16907 39d9 05       		.uleb128 0x5
 16908 39da 03       		.byte	0x3
 16909 39db 00000000 		.4byte	Encabezado4
 16910 39df 20       		.uleb128 0x20
 16911 39e0 C0080000 		.4byte	.LASF269
 16912 39e4 05       		.byte	0x5
 16913 39e5 74       		.byte	0x74
 16914 39e6 AD000000 		.4byte	0xad
 16915 39ea 05       		.uleb128 0x5
 16916 39eb 03       		.byte	0x3
 16917 39ec 00000000 		.4byte	CopiasCredito
 16918 39f0 20       		.uleb128 0x20
 16919 39f1 9E050000 		.4byte	.LASF270
 16920 39f5 05       		.byte	0x5
 16921 39f6 75       		.byte	0x75
 16922 39f7 B3030000 		.4byte	0x3b3
 16923 39fb 05       		.uleb128 0x5
 16924 39fc 03       		.byte	0x3
 16925 39fd 00000000 		.4byte	GradesHose
 16926 3a01 20       		.uleb128 0x20
 16927 3a02 28070000 		.4byte	.LASF271
 16928 3a06 05       		.byte	0x5
 16929 3a07 AE       		.byte	0xae
 16930 3a08 49010000 		.4byte	0x149
 16931 3a0c 05       		.uleb128 0x5
 16932 3a0d 03       		.byte	0x3
 16933 3a0e 00000000 		.4byte	bufferDisplay1
 16934 3a12 20       		.uleb128 0x20
 16935 3a13 E1090000 		.4byte	.LASF272
 16936 3a17 05       		.byte	0x5
 16937 3a18 AF       		.byte	0xaf
 16938 3a19 49010000 		.4byte	0x149
 16939 3a1d 05       		.uleb128 0x5
 16940 3a1e 03       		.byte	0x3
 16941 3a1f 00000000 		.4byte	bufferDisplay2
 16942 3a23 20       		.uleb128 0x20
 16943 3a24 F0090000 		.4byte	.LASF273
 16944 3a28 05       		.byte	0x5
 16945 3a29 B0       		.byte	0xb0
 16946 3a2a 49010000 		.4byte	0x149
 16947 3a2e 05       		.uleb128 0x5
ARM GAS  C:\Users\RECEPC~1\AppData\Local\Temp\cc6Stwwd.s 			page 361


 16948 3a2f 03       		.byte	0x3
 16949 3a30 00000000 		.4byte	bufferDisplay3
 16950 3a34 20       		.uleb128 0x20
 16951 3a35 FF090000 		.4byte	.LASF274
 16952 3a39 05       		.byte	0x5
 16953 3a3a B1       		.byte	0xb1
 16954 3a3b 49010000 		.4byte	0x149
 16955 3a3f 05       		.uleb128 0x5
 16956 3a40 03       		.byte	0x3
 16957 3a41 00000000 		.4byte	bufferDisplay4
 16958 3a45 20       		.uleb128 0x20
 16959 3a46 17130000 		.4byte	.LASF275
 16960 3a4a 05       		.byte	0x5
 16961 3a4b D6       		.byte	0xd6
 16962 3a4c 0C050000 		.4byte	0x50c
 16963 3a50 05       		.uleb128 0x5
 16964 3a51 03       		.byte	0x3
 16965 3a52 00000000 		.4byte	side
 16966 3a56 20       		.uleb128 0x20
 16967 3a57 F10C0000 		.4byte	.LASF276
 16968 3a5b 01       		.byte	0x1
 16969 3a5c 1C       		.byte	0x1c
 16970 3a5d 6D030000 		.4byte	0x36d
 16971 3a61 05       		.uleb128 0x5
 16972 3a62 03       		.byte	0x3
 16973 3a63 00000000 		.4byte	MuxVersion
 16974 3a67 20       		.uleb128 0x20
 16975 3a68 FB0E0000 		.4byte	.LASF277
 16976 3a6c 01       		.byte	0x1
 16977 3a6d 1D       		.byte	0x1d
 16978 3a6e B3030000 		.4byte	0x3b3
 16979 3a72 05       		.uleb128 0x5
 16980 3a73 03       		.byte	0x3
 16981 3a74 00000000 		.4byte	passwordPump
 16982 3a78 22       		.uleb128 0x22
 16983 3a79 4F010000 		.4byte	.LASF278
 16984 3a7d 09       		.byte	0x9
 16985 3a7e 5E       		.byte	0x5e
 16986 3a7f AD000000 		.4byte	0xad
 16987 3a83 22       		.uleb128 0x22
 16988 3a84 1C100000 		.4byte	.LASF279
 16989 3a88 0A       		.byte	0xa
 16990 3a89 5E       		.byte	0x5e
 16991 3a8a AD000000 		.4byte	0xad
 16992 3a8e 22       		.uleb128 0x22
 16993 3a8f 13000000 		.4byte	.LASF280
 16994 3a93 0B       		.byte	0xb
 16995 3a94 5E       		.byte	0x5e
 16996 3a95 AD000000 		.4byte	0xad
 16997 3a99 22       		.uleb128 0x22
 16998 3a9a 41040000 		.4byte	.LASF281
 16999 3a9e 0C       		.byte	0xc
 17000 3a9f 5E       		.byte	0x5e
 17001 3aa0 AD000000 		.4byte	0xad
 17002 3aa4 23       		.uleb128 0x23
 17003 3aa5 57060000 		.4byte	.LASF282
 17004 3aa9 0D       		.byte	0xd
ARM GAS  C:\Users\RECEPC~1\AppData\Local\Temp\cc6Stwwd.s 			page 362


 17005 3aaa 1F       		.byte	0x1f
 17006 3aab 23       		.uleb128 0x23
 17007 3aac 00110000 		.4byte	.LASF283
 17008 3ab0 0E       		.byte	0xe
 17009 3ab1 54       		.byte	0x54
 17010 3ab2 23       		.uleb128 0x23
 17011 3ab3 78130000 		.4byte	.LASF284
 17012 3ab7 06       		.byte	0x6
 17013 3ab8 54       		.byte	0x54
 17014 3ab9 23       		.uleb128 0x23
 17015 3aba 9D0E0000 		.4byte	.LASF285
 17016 3abe 07       		.byte	0x7
 17017 3abf 54       		.byte	0x54
 17018 3ac0 23       		.uleb128 0x23
 17019 3ac1 C6030000 		.4byte	.LASF286
 17020 3ac5 0F       		.byte	0xf
 17021 3ac6 54       		.byte	0x54
 17022 3ac7 23       		.uleb128 0x23
 17023 3ac8 56120000 		.4byte	.LASF287
 17024 3acc 10       		.byte	0x10
 17025 3acd AC       		.byte	0xac
 17026 3ace 23       		.uleb128 0x23
 17027 3acf 65110000 		.4byte	.LASF288
 17028 3ad3 11       		.byte	0x11
 17029 3ad4 54       		.byte	0x54
 17030 3ad5 24       		.uleb128 0x24
 17031 3ad6 39000000 		.4byte	.LASF289
 17032 3ada 12       		.byte	0x12
 17033 3adb 18       		.byte	0x18
 17034 3adc E63A0000 		.4byte	0x3ae6
 17035 3ae0 25       		.uleb128 0x25
 17036 3ae1 14010000 		.4byte	0x114
 17037 3ae5 00       		.byte	0
 17038 3ae6 24       		.uleb128 0x24
 17039 3ae7 90050000 		.4byte	.LASF290
 17040 3aeb 13       		.byte	0x13
 17041 3aec 18       		.byte	0x18
 17042 3aed F73A0000 		.4byte	0x3af7
 17043 3af1 25       		.uleb128 0x25
 17044 3af2 14010000 		.4byte	0x114
 17045 3af6 00       		.byte	0
 17046 3af7 24       		.uleb128 0x24
 17047 3af8 C8090000 		.4byte	.LASF291
 17048 3afc 14       		.byte	0x14
 17049 3afd 18       		.byte	0x18
 17050 3afe 083B0000 		.4byte	0x3b08
 17051 3b02 25       		.uleb128 0x25
 17052 3b03 14010000 		.4byte	0x114
 17053 3b07 00       		.byte	0
 17054 3b08 24       		.uleb128 0x24
 17055 3b09 540C0000 		.4byte	.LASF292
 17056 3b0d 15       		.byte	0x15
 17057 3b0e 18       		.byte	0x18
 17058 3b0f 193B0000 		.4byte	0x3b19
 17059 3b13 25       		.uleb128 0x25
 17060 3b14 14010000 		.4byte	0x114
 17061 3b18 00       		.byte	0
ARM GAS  C:\Users\RECEPC~1\AppData\Local\Temp\cc6Stwwd.s 			page 363


 17062 3b19 23       		.uleb128 0x23
 17063 3b1a 5A0E0000 		.4byte	.LASF293
 17064 3b1e 0B       		.byte	0xb
 17065 3b1f 5A       		.byte	0x5a
 17066 3b20 23       		.uleb128 0x23
 17067 3b21 790F0000 		.4byte	.LASF294
 17068 3b25 0C       		.byte	0xc
 17069 3b26 5A       		.byte	0x5a
 17070 3b27 26       		.uleb128 0x26
 17071 3b28 E0110000 		.4byte	.LASF295
 17072 3b2c 0D       		.byte	0xd
 17073 3b2d 21       		.byte	0x21
 17074 3b2e FE000000 		.4byte	0xfe
 17075 3b32 413B0000 		.4byte	0x3b41
 17076 3b36 25       		.uleb128 0x25
 17077 3b37 AD000000 		.4byte	0xad
 17078 3b3b 25       		.uleb128 0x25
 17079 3b3c B9000000 		.4byte	0xb9
 17080 3b40 00       		.byte	0
 17081 3b41 26       		.uleb128 0x26
 17082 3b42 D10E0000 		.4byte	.LASF296
 17083 3b46 0D       		.byte	0xd
 17084 3b47 23       		.byte	0x23
 17085 3b48 AD000000 		.4byte	0xad
 17086 3b4c 563B0000 		.4byte	0x3b56
 17087 3b50 25       		.uleb128 0x25
 17088 3b51 B9000000 		.4byte	0xb9
 17089 3b55 00       		.byte	0
 17090 3b56 24       		.uleb128 0x24
 17091 3b57 0C130000 		.4byte	.LASF297
 17092 3b5b 16       		.byte	0x16
 17093 3b5c 22       		.byte	0x22
 17094 3b5d 6C3B0000 		.4byte	0x3b6c
 17095 3b61 25       		.uleb128 0x25
 17096 3b62 AD000000 		.4byte	0xad
 17097 3b66 25       		.uleb128 0x25
 17098 3b67 B9000000 		.4byte	0xb9
 17099 3b6b 00       		.byte	0
 17100 3b6c 24       		.uleb128 0x24
 17101 3b6d 79100000 		.4byte	.LASF298
 17102 3b71 16       		.byte	0x16
 17103 3b72 29       		.byte	0x29
 17104 3b73 873B0000 		.4byte	0x3b87
 17105 3b77 25       		.uleb128 0x25
 17106 3b78 AD000000 		.4byte	0xad
 17107 3b7c 25       		.uleb128 0x25
 17108 3b7d 873B0000 		.4byte	0x3b87
 17109 3b81 25       		.uleb128 0x25
 17110 3b82 AD000000 		.4byte	0xad
 17111 3b86 00       		.byte	0
 17112 3b87 07       		.uleb128 0x7
 17113 3b88 04       		.byte	0x4
 17114 3b89 AD000000 		.4byte	0xad
 17115 3b8d 24       		.uleb128 0x24
 17116 3b8e 64120000 		.4byte	.LASF299
 17117 3b92 17       		.byte	0x17
 17118 3b93 77       		.byte	0x77
ARM GAS  C:\Users\RECEPC~1\AppData\Local\Temp\cc6Stwwd.s 			page 364


 17119 3b94 9E3B0000 		.4byte	0x3b9e
 17120 3b98 25       		.uleb128 0x25
 17121 3b99 C5000000 		.4byte	0xc5
 17122 3b9d 00       		.byte	0
 17123 3b9e 22       		.uleb128 0x22
 17124 3b9f 6E070000 		.4byte	.LASF300
 17125 3ba3 18       		.byte	0x18
 17126 3ba4 23       		.byte	0x23
 17127 3ba5 AD000000 		.4byte	0xad
 17128 3ba9 26       		.uleb128 0x26
 17129 3baa 9A000000 		.4byte	.LASF301
 17130 3bae 18       		.byte	0x18
 17131 3baf 22       		.byte	0x22
 17132 3bb0 AD000000 		.4byte	0xad
 17133 3bb4 BE3B0000 		.4byte	0x3bbe
 17134 3bb8 25       		.uleb128 0x25
 17135 3bb9 AD000000 		.4byte	0xad
 17136 3bbd 00       		.byte	0
 17137 3bbe 26       		.uleb128 0x26
 17138 3bbf 1C130000 		.4byte	.LASF302
 17139 3bc3 18       		.byte	0x18
 17140 3bc4 2D       		.byte	0x2d
 17141 3bc5 D33B0000 		.4byte	0x3bd3
 17142 3bc9 D33B0000 		.4byte	0x3bd3
 17143 3bcd 25       		.uleb128 0x25
 17144 3bce AD000000 		.4byte	0xad
 17145 3bd2 00       		.byte	0
 17146 3bd3 02       		.uleb128 0x2
 17147 3bd4 01       		.byte	0x1
 17148 3bd5 02       		.byte	0x2
 17149 3bd6 A2030000 		.4byte	.LASF303
 17150 3bda 26       		.uleb128 0x26
 17151 3bdb 7B0C0000 		.4byte	.LASF304
 17152 3bdf 18       		.byte	0x18
 17153 3be0 29       		.byte	0x29
 17154 3be1 AD000000 		.4byte	0xad
 17155 3be5 EF3B0000 		.4byte	0x3bef
 17156 3be9 25       		.uleb128 0x25
 17157 3bea AD000000 		.4byte	0xad
 17158 3bee 00       		.byte	0
 17159 3bef 26       		.uleb128 0x26
 17160 3bf0 6D100000 		.4byte	.LASF305
 17161 3bf4 19       		.byte	0x19
 17162 3bf5 27       		.byte	0x27
 17163 3bf6 AD000000 		.4byte	0xad
 17164 3bfa 093C0000 		.4byte	0x3c09
 17165 3bfe 25       		.uleb128 0x25
 17166 3bff AD000000 		.4byte	0xad
 17167 3c03 25       		.uleb128 0x25
 17168 3c04 AD000000 		.4byte	0xad
 17169 3c08 00       		.byte	0
 17170 3c09 26       		.uleb128 0x26
 17171 3c0a 56070000 		.4byte	.LASF306
 17172 3c0e 18       		.byte	0x18
 17173 3c0f 25       		.byte	0x25
 17174 3c10 AD000000 		.4byte	0xad
 17175 3c14 1E3C0000 		.4byte	0x3c1e
ARM GAS  C:\Users\RECEPC~1\AppData\Local\Temp\cc6Stwwd.s 			page 365


 17176 3c18 25       		.uleb128 0x25
 17177 3c19 AD000000 		.4byte	0xad
 17178 3c1d 00       		.byte	0
 17179 3c1e 23       		.uleb128 0x23
 17180 3c1f E4020000 		.4byte	.LASF307
 17181 3c23 14       		.byte	0x14
 17182 3c24 19       		.byte	0x19
 17183 3c25 23       		.uleb128 0x23
 17184 3c26 C1010000 		.4byte	.LASF308
 17185 3c2a 09       		.byte	0x9
 17186 3c2b 5B       		.byte	0x5b
 17187 3c2c 24       		.uleb128 0x24
 17188 3c2d 99030000 		.4byte	.LASF309
 17189 3c31 1A       		.byte	0x1a
 17190 3c32 25       		.byte	0x25
 17191 3c33 423C0000 		.4byte	0x3c42
 17192 3c37 25       		.uleb128 0x25
 17193 3c38 AD000000 		.4byte	0xad
 17194 3c3c 25       		.uleb128 0x25
 17195 3c3d AD000000 		.4byte	0xad
 17196 3c41 00       		.byte	0
 17197 3c42 22       		.uleb128 0x22
 17198 3c43 5F0D0000 		.4byte	.LASF310
 17199 3c47 06       		.byte	0x6
 17200 3c48 73       		.byte	0x73
 17201 3c49 AD000000 		.4byte	0xad
 17202 3c4d 23       		.uleb128 0x23
 17203 3c4e D4060000 		.4byte	.LASF311
 17204 3c52 06       		.byte	0x6
 17205 3c53 75       		.byte	0x75
 17206 3c54 24       		.uleb128 0x24
 17207 3c55 B8010000 		.4byte	.LASF312
 17208 3c59 16       		.byte	0x16
 17209 3c5a 24       		.byte	0x24
 17210 3c5b 833C0000 		.4byte	0x3c83
 17211 3c5f 25       		.uleb128 0x25
 17212 3c60 8C000000 		.4byte	0x8c
 17213 3c64 25       		.uleb128 0x25
 17214 3c65 8C000000 		.4byte	0x8c
 17215 3c69 25       		.uleb128 0x25
 17216 3c6a 97000000 		.4byte	0x97
 17217 3c6e 25       		.uleb128 0x25
 17218 3c6f 97000000 		.4byte	0x97
 17219 3c73 25       		.uleb128 0x25
 17220 3c74 8C000000 		.4byte	0x8c
 17221 3c78 25       		.uleb128 0x25
 17222 3c79 97000000 		.4byte	0x97
 17223 3c7d 25       		.uleb128 0x25
 17224 3c7e 8C000000 		.4byte	0x8c
 17225 3c82 00       		.byte	0
 17226 3c83 26       		.uleb128 0x26
 17227 3c84 FF070000 		.4byte	.LASF313
 17228 3c88 1B       		.byte	0x1b
 17229 3c89 15       		.byte	0x15
 17230 3c8a AD000000 		.4byte	0xad
 17231 3c8e A23C0000 		.4byte	0x3ca2
 17232 3c92 25       		.uleb128 0x25
ARM GAS  C:\Users\RECEPC~1\AppData\Local\Temp\cc6Stwwd.s 			page 366


 17233 3c93 AD000000 		.4byte	0xad
 17234 3c97 25       		.uleb128 0x25
 17235 3c98 AD000000 		.4byte	0xad
 17236 3c9c 25       		.uleb128 0x25
 17237 3c9d AD000000 		.4byte	0xad
 17238 3ca1 00       		.byte	0
 17239 3ca2 23       		.uleb128 0x23
 17240 3ca3 2B040000 		.4byte	.LASF314
 17241 3ca7 09       		.byte	0x9
 17242 3ca8 5A       		.byte	0x5a
 17243 3ca9 26       		.uleb128 0x26
 17244 3caa 22050000 		.4byte	.LASF315
 17245 3cae 18       		.byte	0x18
 17246 3caf 2A       		.byte	0x2a
 17247 3cb0 AD000000 		.4byte	0xad
 17248 3cb4 BE3C0000 		.4byte	0x3cbe
 17249 3cb8 25       		.uleb128 0x25
 17250 3cb9 AD000000 		.4byte	0xad
 17251 3cbd 00       		.byte	0
 17252 3cbe 26       		.uleb128 0x26
 17253 3cbf BA120000 		.4byte	.LASF316
 17254 3cc3 18       		.byte	0x18
 17255 3cc4 2B       		.byte	0x2b
 17256 3cc5 AD000000 		.4byte	0xad
 17257 3cc9 E23C0000 		.4byte	0x3ce2
 17258 3ccd 25       		.uleb128 0x25
 17259 3cce AD000000 		.4byte	0xad
 17260 3cd2 25       		.uleb128 0x25
 17261 3cd3 EB000000 		.4byte	0xeb
 17262 3cd7 25       		.uleb128 0x25
 17263 3cd8 873B0000 		.4byte	0x3b87
 17264 3cdc 25       		.uleb128 0x25
 17265 3cdd AD000000 		.4byte	0xad
 17266 3ce1 00       		.byte	0
 17267 3ce2 24       		.uleb128 0x24
 17268 3ce3 EA010000 		.4byte	.LASF317
 17269 3ce7 0E       		.byte	0xe
 17270 3ce8 8A       		.byte	0x8a
 17271 3ce9 F33C0000 		.4byte	0x3cf3
 17272 3ced 25       		.uleb128 0x25
 17273 3cee AD000000 		.4byte	0xad
 17274 3cf2 00       		.byte	0
 17275 3cf3 26       		.uleb128 0x26
 17276 3cf4 690A0000 		.4byte	.LASF318
 17277 3cf8 18       		.byte	0x18
 17278 3cf9 2C       		.byte	0x2c
 17279 3cfa AD000000 		.4byte	0xad
 17280 3cfe 083D0000 		.4byte	0x3d08
 17281 3d02 25       		.uleb128 0x25
 17282 3d03 AD000000 		.4byte	0xad
 17283 3d07 00       		.byte	0
 17284 3d08 26       		.uleb128 0x26
 17285 3d09 290D0000 		.4byte	.LASF319
 17286 3d0d 1C       		.byte	0x1c
 17287 3d0e 21       		.byte	0x21
 17288 3d0f AD000000 		.4byte	0xad
 17289 3d13 1D3D0000 		.4byte	0x3d1d
ARM GAS  C:\Users\RECEPC~1\AppData\Local\Temp\cc6Stwwd.s 			page 367


 17290 3d17 25       		.uleb128 0x25
 17291 3d18 AD000000 		.4byte	0xad
 17292 3d1c 00       		.byte	0
 17293 3d1d 26       		.uleb128 0x26
 17294 3d1e 930B0000 		.4byte	.LASF320
 17295 3d22 1C       		.byte	0x1c
 17296 3d23 22       		.byte	0x22
 17297 3d24 AD000000 		.4byte	0xad
 17298 3d28 373D0000 		.4byte	0x3d37
 17299 3d2c 25       		.uleb128 0x25
 17300 3d2d AD000000 		.4byte	0xad
 17301 3d31 25       		.uleb128 0x25
 17302 3d32 AD000000 		.4byte	0xad
 17303 3d36 00       		.byte	0
 17304 3d37 26       		.uleb128 0x26
 17305 3d38 62020000 		.4byte	.LASF321
 17306 3d3c 1C       		.byte	0x1c
 17307 3d3d 23       		.byte	0x23
 17308 3d3e AD000000 		.4byte	0xad
 17309 3d42 4C3D0000 		.4byte	0x3d4c
 17310 3d46 25       		.uleb128 0x25
 17311 3d47 AD000000 		.4byte	0xad
 17312 3d4b 00       		.byte	0
 17313 3d4c 26       		.uleb128 0x26
 17314 3d4d 67050000 		.4byte	.LASF322
 17315 3d51 1C       		.byte	0x1c
 17316 3d52 24       		.byte	0x24
 17317 3d53 AD000000 		.4byte	0xad
 17318 3d57 663D0000 		.4byte	0x3d66
 17319 3d5b 25       		.uleb128 0x25
 17320 3d5c AD000000 		.4byte	0xad
 17321 3d60 25       		.uleb128 0x25
 17322 3d61 AD000000 		.4byte	0xad
 17323 3d65 00       		.byte	0
 17324 3d66 26       		.uleb128 0x26
 17325 3d67 A7020000 		.4byte	.LASF323
 17326 3d6b 1D       		.byte	0x1d
 17327 3d6c 4A       		.byte	0x4a
 17328 3d6d 7E000000 		.4byte	0x7e
 17329 3d71 7B3D0000 		.4byte	0x3d7b
 17330 3d75 25       		.uleb128 0x25
 17331 3d76 2E010000 		.4byte	0x12e
 17332 3d7a 00       		.byte	0
 17333 3d7b 27       		.uleb128 0x27
 17334 3d7c 7E0A0000 		.4byte	.LASF324
 17335 3d80 19       		.byte	0x19
 17336 3d81 21       		.byte	0x21
 17337 3d82 AD000000 		.4byte	0xad
 17338 3d86 8C3D0000 		.4byte	0x3d8c
 17339 3d8a 28       		.uleb128 0x28
 17340 3d8b 00       		.byte	0
 17341 3d8c 27       		.uleb128 0x27
 17342 3d8d ED100000 		.4byte	.LASF325
 17343 3d91 19       		.byte	0x19
 17344 3d92 22       		.byte	0x22
 17345 3d93 AD000000 		.4byte	0xad
 17346 3d97 9D3D0000 		.4byte	0x3d9d
ARM GAS  C:\Users\RECEPC~1\AppData\Local\Temp\cc6Stwwd.s 			page 368


 17347 3d9b 28       		.uleb128 0x28
 17348 3d9c 00       		.byte	0
 17349 3d9d 23       		.uleb128 0x23
 17350 3d9e A30F0000 		.4byte	.LASF326
 17351 3da2 15       		.byte	0x15
 17352 3da3 19       		.byte	0x19
 17353 3da4 23       		.uleb128 0x23
 17354 3da5 46030000 		.4byte	.LASF327
 17355 3da9 0A       		.byte	0xa
 17356 3daa 5B       		.byte	0x5b
 17357 3dab 24       		.uleb128 0x24
 17358 3dac 9E010000 		.4byte	.LASF328
 17359 3db0 16       		.byte	0x16
 17360 3db1 26       		.byte	0x26
 17361 3db2 C13D0000 		.4byte	0x3dc1
 17362 3db6 25       		.uleb128 0x25
 17363 3db7 AD000000 		.4byte	0xad
 17364 3dbb 25       		.uleb128 0x25
 17365 3dbc AD000000 		.4byte	0xad
 17366 3dc0 00       		.byte	0
 17367 3dc1 22       		.uleb128 0x22
 17368 3dc2 86120000 		.4byte	.LASF329
 17369 3dc6 07       		.byte	0x7
 17370 3dc7 73       		.byte	0x73
 17371 3dc8 AD000000 		.4byte	0xad
 17372 3dcc 23       		.uleb128 0x23
 17373 3dcd A9100000 		.4byte	.LASF330
 17374 3dd1 07       		.byte	0x7
 17375 3dd2 75       		.byte	0x75
 17376 3dd3 24       		.uleb128 0x24
 17377 3dd4 AC0E0000 		.4byte	.LASF331
 17378 3dd8 17       		.byte	0x17
 17379 3dd9 73       		.byte	0x73
 17380 3dda E93D0000 		.4byte	0x3de9
 17381 3dde 25       		.uleb128 0x25
 17382 3ddf AD000000 		.4byte	0xad
 17383 3de3 25       		.uleb128 0x25
 17384 3de4 AD000000 		.4byte	0xad
 17385 3de8 00       		.byte	0
 17386 3de9 23       		.uleb128 0x23
 17387 3dea B5080000 		.4byte	.LASF332
 17388 3dee 17       		.byte	0x17
 17389 3def 74       		.byte	0x74
 17390 3df0 23       		.uleb128 0x23
 17391 3df1 D5100000 		.4byte	.LASF333
 17392 3df5 1E       		.byte	0x1e
 17393 3df6 12       		.byte	0x12
 17394 3df7 23       		.uleb128 0x23
 17395 3df8 E6080000 		.4byte	.LASF334
 17396 3dfc 1E       		.byte	0x1e
 17397 3dfd 13       		.byte	0x13
 17398 3dfe 00       		.byte	0
 17399              		.section	.debug_abbrev,"",%progbits
 17400              	.Ldebug_abbrev0:
 17401 0000 01       		.uleb128 0x1
 17402 0001 11       		.uleb128 0x11
 17403 0002 01       		.byte	0x1
ARM GAS  C:\Users\RECEPC~1\AppData\Local\Temp\cc6Stwwd.s 			page 369


 17404 0003 25       		.uleb128 0x25
 17405 0004 0E       		.uleb128 0xe
 17406 0005 13       		.uleb128 0x13
 17407 0006 0B       		.uleb128 0xb
 17408 0007 03       		.uleb128 0x3
 17409 0008 0E       		.uleb128 0xe
 17410 0009 1B       		.uleb128 0x1b
 17411 000a 0E       		.uleb128 0xe
 17412 000b 55       		.uleb128 0x55
 17413 000c 17       		.uleb128 0x17
 17414 000d 11       		.uleb128 0x11
 17415 000e 01       		.uleb128 0x1
 17416 000f 10       		.uleb128 0x10
 17417 0010 17       		.uleb128 0x17
 17418 0011 00       		.byte	0
 17419 0012 00       		.byte	0
 17420 0013 02       		.uleb128 0x2
 17421 0014 24       		.uleb128 0x24
 17422 0015 00       		.byte	0
 17423 0016 0B       		.uleb128 0xb
 17424 0017 0B       		.uleb128 0xb
 17425 0018 3E       		.uleb128 0x3e
 17426 0019 0B       		.uleb128 0xb
 17427 001a 03       		.uleb128 0x3
 17428 001b 0E       		.uleb128 0xe
 17429 001c 00       		.byte	0
 17430 001d 00       		.byte	0
 17431 001e 03       		.uleb128 0x3
 17432 001f 16       		.uleb128 0x16
 17433 0020 00       		.byte	0
 17434 0021 03       		.uleb128 0x3
 17435 0022 0E       		.uleb128 0xe
 17436 0023 3A       		.uleb128 0x3a
 17437 0024 0B       		.uleb128 0xb
 17438 0025 3B       		.uleb128 0x3b
 17439 0026 0B       		.uleb128 0xb
 17440 0027 49       		.uleb128 0x49
 17441 0028 13       		.uleb128 0x13
 17442 0029 00       		.byte	0
 17443 002a 00       		.byte	0
 17444 002b 04       		.uleb128 0x4
 17445 002c 24       		.uleb128 0x24
 17446 002d 00       		.byte	0
 17447 002e 0B       		.uleb128 0xb
 17448 002f 0B       		.uleb128 0xb
 17449 0030 3E       		.uleb128 0x3e
 17450 0031 0B       		.uleb128 0xb
 17451 0032 03       		.uleb128 0x3
 17452 0033 08       		.uleb128 0x8
 17453 0034 00       		.byte	0
 17454 0035 00       		.byte	0
 17455 0036 05       		.uleb128 0x5
 17456 0037 16       		.uleb128 0x16
 17457 0038 00       		.byte	0
 17458 0039 03       		.uleb128 0x3
 17459 003a 0E       		.uleb128 0xe
 17460 003b 3A       		.uleb128 0x3a
ARM GAS  C:\Users\RECEPC~1\AppData\Local\Temp\cc6Stwwd.s 			page 370


 17461 003c 0B       		.uleb128 0xb
 17462 003d 3B       		.uleb128 0x3b
 17463 003e 05       		.uleb128 0x5
 17464 003f 49       		.uleb128 0x49
 17465 0040 13       		.uleb128 0x13
 17466 0041 00       		.byte	0
 17467 0042 00       		.byte	0
 17468 0043 06       		.uleb128 0x6
 17469 0044 35       		.uleb128 0x35
 17470 0045 00       		.byte	0
 17471 0046 49       		.uleb128 0x49
 17472 0047 13       		.uleb128 0x13
 17473 0048 00       		.byte	0
 17474 0049 00       		.byte	0
 17475 004a 07       		.uleb128 0x7
 17476 004b 0F       		.uleb128 0xf
 17477 004c 00       		.byte	0
 17478 004d 0B       		.uleb128 0xb
 17479 004e 0B       		.uleb128 0xb
 17480 004f 49       		.uleb128 0x49
 17481 0050 13       		.uleb128 0x13
 17482 0051 00       		.byte	0
 17483 0052 00       		.byte	0
 17484 0053 08       		.uleb128 0x8
 17485 0054 15       		.uleb128 0x15
 17486 0055 00       		.byte	0
 17487 0056 27       		.uleb128 0x27
 17488 0057 19       		.uleb128 0x19
 17489 0058 00       		.byte	0
 17490 0059 00       		.byte	0
 17491 005a 09       		.uleb128 0x9
 17492 005b 26       		.uleb128 0x26
 17493 005c 00       		.byte	0
 17494 005d 49       		.uleb128 0x49
 17495 005e 13       		.uleb128 0x13
 17496 005f 00       		.byte	0
 17497 0060 00       		.byte	0
 17498 0061 0A       		.uleb128 0xa
 17499 0062 01       		.uleb128 0x1
 17500 0063 01       		.byte	0x1
 17501 0064 49       		.uleb128 0x49
 17502 0065 13       		.uleb128 0x13
 17503 0066 01       		.uleb128 0x1
 17504 0067 13       		.uleb128 0x13
 17505 0068 00       		.byte	0
 17506 0069 00       		.byte	0
 17507 006a 0B       		.uleb128 0xb
 17508 006b 21       		.uleb128 0x21
 17509 006c 00       		.byte	0
 17510 006d 49       		.uleb128 0x49
 17511 006e 13       		.uleb128 0x13
 17512 006f 2F       		.uleb128 0x2f
 17513 0070 0B       		.uleb128 0xb
 17514 0071 00       		.byte	0
 17515 0072 00       		.byte	0
 17516 0073 0C       		.uleb128 0xc
 17517 0074 13       		.uleb128 0x13
ARM GAS  C:\Users\RECEPC~1\AppData\Local\Temp\cc6Stwwd.s 			page 371


 17518 0075 01       		.byte	0x1
 17519 0076 03       		.uleb128 0x3
 17520 0077 0E       		.uleb128 0xe
 17521 0078 0B       		.uleb128 0xb
 17522 0079 05       		.uleb128 0x5
 17523 007a 3A       		.uleb128 0x3a
 17524 007b 0B       		.uleb128 0xb
 17525 007c 3B       		.uleb128 0x3b
 17526 007d 0B       		.uleb128 0xb
 17527 007e 01       		.uleb128 0x1
 17528 007f 13       		.uleb128 0x13
 17529 0080 00       		.byte	0
 17530 0081 00       		.byte	0
 17531 0082 0D       		.uleb128 0xd
 17532 0083 0D       		.uleb128 0xd
 17533 0084 00       		.byte	0
 17534 0085 03       		.uleb128 0x3
 17535 0086 0E       		.uleb128 0xe
 17536 0087 3A       		.uleb128 0x3a
 17537 0088 0B       		.uleb128 0xb
 17538 0089 3B       		.uleb128 0x3b
 17539 008a 0B       		.uleb128 0xb
 17540 008b 49       		.uleb128 0x49
 17541 008c 13       		.uleb128 0x13
 17542 008d 38       		.uleb128 0x38
 17543 008e 0B       		.uleb128 0xb
 17544 008f 00       		.byte	0
 17545 0090 00       		.byte	0
 17546 0091 0E       		.uleb128 0xe
 17547 0092 0D       		.uleb128 0xd
 17548 0093 00       		.byte	0
 17549 0094 03       		.uleb128 0x3
 17550 0095 0E       		.uleb128 0xe
 17551 0096 3A       		.uleb128 0x3a
 17552 0097 0B       		.uleb128 0xb
 17553 0098 3B       		.uleb128 0x3b
 17554 0099 0B       		.uleb128 0xb
 17555 009a 49       		.uleb128 0x49
 17556 009b 13       		.uleb128 0x13
 17557 009c 38       		.uleb128 0x38
 17558 009d 05       		.uleb128 0x5
 17559 009e 00       		.byte	0
 17560 009f 00       		.byte	0
 17561 00a0 0F       		.uleb128 0xf
 17562 00a1 0D       		.uleb128 0xd
 17563 00a2 00       		.byte	0
 17564 00a3 03       		.uleb128 0x3
 17565 00a4 08       		.uleb128 0x8
 17566 00a5 3A       		.uleb128 0x3a
 17567 00a6 0B       		.uleb128 0xb
 17568 00a7 3B       		.uleb128 0x3b
 17569 00a8 0B       		.uleb128 0xb
 17570 00a9 49       		.uleb128 0x49
 17571 00aa 13       		.uleb128 0x13
 17572 00ab 38       		.uleb128 0x38
 17573 00ac 0B       		.uleb128 0xb
 17574 00ad 00       		.byte	0
ARM GAS  C:\Users\RECEPC~1\AppData\Local\Temp\cc6Stwwd.s 			page 372


 17575 00ae 00       		.byte	0
 17576 00af 10       		.uleb128 0x10
 17577 00b0 0D       		.uleb128 0xd
 17578 00b1 00       		.byte	0
 17579 00b2 03       		.uleb128 0x3
 17580 00b3 08       		.uleb128 0x8
 17581 00b4 3A       		.uleb128 0x3a
 17582 00b5 0B       		.uleb128 0xb
 17583 00b6 3B       		.uleb128 0x3b
 17584 00b7 0B       		.uleb128 0xb
 17585 00b8 49       		.uleb128 0x49
 17586 00b9 13       		.uleb128 0x13
 17587 00ba 38       		.uleb128 0x38
 17588 00bb 05       		.uleb128 0x5
 17589 00bc 00       		.byte	0
 17590 00bd 00       		.byte	0
 17591 00be 11       		.uleb128 0x11
 17592 00bf 04       		.uleb128 0x4
 17593 00c0 01       		.byte	0x1
 17594 00c1 03       		.uleb128 0x3
 17595 00c2 0E       		.uleb128 0xe
 17596 00c3 0B       		.uleb128 0xb
 17597 00c4 0B       		.uleb128 0xb
 17598 00c5 3A       		.uleb128 0x3a
 17599 00c6 0B       		.uleb128 0xb
 17600 00c7 3B       		.uleb128 0x3b
 17601 00c8 0B       		.uleb128 0xb
 17602 00c9 01       		.uleb128 0x1
 17603 00ca 13       		.uleb128 0x13
 17604 00cb 00       		.byte	0
 17605 00cc 00       		.byte	0
 17606 00cd 12       		.uleb128 0x12
 17607 00ce 28       		.uleb128 0x28
 17608 00cf 00       		.byte	0
 17609 00d0 03       		.uleb128 0x3
 17610 00d1 0E       		.uleb128 0xe
 17611 00d2 1C       		.uleb128 0x1c
 17612 00d3 0D       		.uleb128 0xd
 17613 00d4 00       		.byte	0
 17614 00d5 00       		.byte	0
 17615 00d6 13       		.uleb128 0x13
 17616 00d7 04       		.uleb128 0x4
 17617 00d8 01       		.byte	0x1
 17618 00d9 03       		.uleb128 0x3
 17619 00da 0E       		.uleb128 0xe
 17620 00db 0B       		.uleb128 0xb
 17621 00dc 0B       		.uleb128 0xb
 17622 00dd 3A       		.uleb128 0x3a
 17623 00de 0B       		.uleb128 0xb
 17624 00df 3B       		.uleb128 0x3b
 17625 00e0 05       		.uleb128 0x5
 17626 00e1 01       		.uleb128 0x1
 17627 00e2 13       		.uleb128 0x13
 17628 00e3 00       		.byte	0
 17629 00e4 00       		.byte	0
 17630 00e5 14       		.uleb128 0x14
 17631 00e6 2E       		.uleb128 0x2e
ARM GAS  C:\Users\RECEPC~1\AppData\Local\Temp\cc6Stwwd.s 			page 373


 17632 00e7 01       		.byte	0x1
 17633 00e8 3F       		.uleb128 0x3f
 17634 00e9 19       		.uleb128 0x19
 17635 00ea 03       		.uleb128 0x3
 17636 00eb 0E       		.uleb128 0xe
 17637 00ec 3A       		.uleb128 0x3a
 17638 00ed 0B       		.uleb128 0xb
 17639 00ee 3B       		.uleb128 0x3b
 17640 00ef 05       		.uleb128 0x5
 17641 00f0 27       		.uleb128 0x27
 17642 00f1 19       		.uleb128 0x19
 17643 00f2 11       		.uleb128 0x11
 17644 00f3 01       		.uleb128 0x1
 17645 00f4 12       		.uleb128 0x12
 17646 00f5 06       		.uleb128 0x6
 17647 00f6 40       		.uleb128 0x40
 17648 00f7 18       		.uleb128 0x18
 17649 00f8 9742     		.uleb128 0x2117
 17650 00fa 19       		.uleb128 0x19
 17651 00fb 01       		.uleb128 0x1
 17652 00fc 13       		.uleb128 0x13
 17653 00fd 00       		.byte	0
 17654 00fe 00       		.byte	0
 17655 00ff 15       		.uleb128 0x15
 17656 0100 898201   		.uleb128 0x4109
 17657 0103 00       		.byte	0
 17658 0104 11       		.uleb128 0x11
 17659 0105 01       		.uleb128 0x1
 17660 0106 31       		.uleb128 0x31
 17661 0107 13       		.uleb128 0x13
 17662 0108 00       		.byte	0
 17663 0109 00       		.byte	0
 17664 010a 16       		.uleb128 0x16
 17665 010b 2E       		.uleb128 0x2e
 17666 010c 01       		.byte	0x1
 17667 010d 3F       		.uleb128 0x3f
 17668 010e 19       		.uleb128 0x19
 17669 010f 03       		.uleb128 0x3
 17670 0110 0E       		.uleb128 0xe
 17671 0111 3A       		.uleb128 0x3a
 17672 0112 0B       		.uleb128 0xb
 17673 0113 3B       		.uleb128 0x3b
 17674 0114 0B       		.uleb128 0xb
 17675 0115 11       		.uleb128 0x11
 17676 0116 01       		.uleb128 0x1
 17677 0117 12       		.uleb128 0x12
 17678 0118 06       		.uleb128 0x6
 17679 0119 40       		.uleb128 0x40
 17680 011a 18       		.uleb128 0x18
 17681 011b 9742     		.uleb128 0x2117
 17682 011d 19       		.uleb128 0x19
 17683 011e 01       		.uleb128 0x1
 17684 011f 13       		.uleb128 0x13
 17685 0120 00       		.byte	0
 17686 0121 00       		.byte	0
 17687 0122 17       		.uleb128 0x17
 17688 0123 898201   		.uleb128 0x4109
ARM GAS  C:\Users\RECEPC~1\AppData\Local\Temp\cc6Stwwd.s 			page 374


 17689 0126 01       		.byte	0x1
 17690 0127 11       		.uleb128 0x11
 17691 0128 01       		.uleb128 0x1
 17692 0129 31       		.uleb128 0x31
 17693 012a 13       		.uleb128 0x13
 17694 012b 01       		.uleb128 0x1
 17695 012c 13       		.uleb128 0x13
 17696 012d 00       		.byte	0
 17697 012e 00       		.byte	0
 17698 012f 18       		.uleb128 0x18
 17699 0130 8A8201   		.uleb128 0x410a
 17700 0133 00       		.byte	0
 17701 0134 02       		.uleb128 0x2
 17702 0135 18       		.uleb128 0x18
 17703 0136 9142     		.uleb128 0x2111
 17704 0138 18       		.uleb128 0x18
 17705 0139 00       		.byte	0
 17706 013a 00       		.byte	0
 17707 013b 19       		.uleb128 0x19
 17708 013c 898201   		.uleb128 0x4109
 17709 013f 01       		.byte	0x1
 17710 0140 11       		.uleb128 0x11
 17711 0141 01       		.uleb128 0x1
 17712 0142 31       		.uleb128 0x31
 17713 0143 13       		.uleb128 0x13
 17714 0144 00       		.byte	0
 17715 0145 00       		.byte	0
 17716 0146 1A       		.uleb128 0x1a
 17717 0147 34       		.uleb128 0x34
 17718 0148 00       		.byte	0
 17719 0149 03       		.uleb128 0x3
 17720 014a 0E       		.uleb128 0xe
 17721 014b 3A       		.uleb128 0x3a
 17722 014c 0B       		.uleb128 0xb
 17723 014d 3B       		.uleb128 0x3b
 17724 014e 0B       		.uleb128 0xb
 17725 014f 49       		.uleb128 0x49
 17726 0150 13       		.uleb128 0x13
 17727 0151 02       		.uleb128 0x2
 17728 0152 18       		.uleb128 0x18
 17729 0153 00       		.byte	0
 17730 0154 00       		.byte	0
 17731 0155 1B       		.uleb128 0x1b
 17732 0156 2E       		.uleb128 0x2e
 17733 0157 01       		.byte	0x1
 17734 0158 3F       		.uleb128 0x3f
 17735 0159 19       		.uleb128 0x19
 17736 015a 03       		.uleb128 0x3
 17737 015b 0E       		.uleb128 0xe
 17738 015c 3A       		.uleb128 0x3a
 17739 015d 0B       		.uleb128 0xb
 17740 015e 3B       		.uleb128 0x3b
 17741 015f 05       		.uleb128 0x5
 17742 0160 11       		.uleb128 0x11
 17743 0161 01       		.uleb128 0x1
 17744 0162 12       		.uleb128 0x12
 17745 0163 06       		.uleb128 0x6
ARM GAS  C:\Users\RECEPC~1\AppData\Local\Temp\cc6Stwwd.s 			page 375


 17746 0164 40       		.uleb128 0x40
 17747 0165 18       		.uleb128 0x18
 17748 0166 9742     		.uleb128 0x2117
 17749 0168 19       		.uleb128 0x19
 17750 0169 01       		.uleb128 0x1
 17751 016a 13       		.uleb128 0x13
 17752 016b 00       		.byte	0
 17753 016c 00       		.byte	0
 17754 016d 1C       		.uleb128 0x1c
 17755 016e 34       		.uleb128 0x34
 17756 016f 00       		.byte	0
 17757 0170 03       		.uleb128 0x3
 17758 0171 0E       		.uleb128 0xe
 17759 0172 3A       		.uleb128 0x3a
 17760 0173 0B       		.uleb128 0xb
 17761 0174 3B       		.uleb128 0x3b
 17762 0175 05       		.uleb128 0x5
 17763 0176 49       		.uleb128 0x49
 17764 0177 13       		.uleb128 0x13
 17765 0178 02       		.uleb128 0x2
 17766 0179 18       		.uleb128 0x18
 17767 017a 00       		.byte	0
 17768 017b 00       		.byte	0
 17769 017c 1D       		.uleb128 0x1d
 17770 017d 34       		.uleb128 0x34
 17771 017e 00       		.byte	0
 17772 017f 03       		.uleb128 0x3
 17773 0180 08       		.uleb128 0x8
 17774 0181 3A       		.uleb128 0x3a
 17775 0182 0B       		.uleb128 0xb
 17776 0183 3B       		.uleb128 0x3b
 17777 0184 05       		.uleb128 0x5
 17778 0185 49       		.uleb128 0x49
 17779 0186 13       		.uleb128 0x13
 17780 0187 02       		.uleb128 0x2
 17781 0188 17       		.uleb128 0x17
 17782 0189 00       		.byte	0
 17783 018a 00       		.byte	0
 17784 018b 1E       		.uleb128 0x1e
 17785 018c 2E       		.uleb128 0x2e
 17786 018d 01       		.byte	0x1
 17787 018e 3F       		.uleb128 0x3f
 17788 018f 19       		.uleb128 0x19
 17789 0190 03       		.uleb128 0x3
 17790 0191 0E       		.uleb128 0xe
 17791 0192 3A       		.uleb128 0x3a
 17792 0193 0B       		.uleb128 0xb
 17793 0194 3B       		.uleb128 0x3b
 17794 0195 05       		.uleb128 0x5
 17795 0196 49       		.uleb128 0x49
 17796 0197 13       		.uleb128 0x13
 17797 0198 11       		.uleb128 0x11
 17798 0199 01       		.uleb128 0x1
 17799 019a 12       		.uleb128 0x12
 17800 019b 06       		.uleb128 0x6
 17801 019c 40       		.uleb128 0x40
 17802 019d 18       		.uleb128 0x18
ARM GAS  C:\Users\RECEPC~1\AppData\Local\Temp\cc6Stwwd.s 			page 376


 17803 019e 9742     		.uleb128 0x2117
 17804 01a0 19       		.uleb128 0x19
 17805 01a1 01       		.uleb128 0x1
 17806 01a2 13       		.uleb128 0x13
 17807 01a3 00       		.byte	0
 17808 01a4 00       		.byte	0
 17809 01a5 1F       		.uleb128 0x1f
 17810 01a6 34       		.uleb128 0x34
 17811 01a7 00       		.byte	0
 17812 01a8 03       		.uleb128 0x3
 17813 01a9 0E       		.uleb128 0xe
 17814 01aa 3A       		.uleb128 0x3a
 17815 01ab 0B       		.uleb128 0xb
 17816 01ac 3B       		.uleb128 0x3b
 17817 01ad 05       		.uleb128 0x5
 17818 01ae 49       		.uleb128 0x49
 17819 01af 13       		.uleb128 0x13
 17820 01b0 3F       		.uleb128 0x3f
 17821 01b1 19       		.uleb128 0x19
 17822 01b2 3C       		.uleb128 0x3c
 17823 01b3 19       		.uleb128 0x19
 17824 01b4 00       		.byte	0
 17825 01b5 00       		.byte	0
 17826 01b6 20       		.uleb128 0x20
 17827 01b7 34       		.uleb128 0x34
 17828 01b8 00       		.byte	0
 17829 01b9 03       		.uleb128 0x3
 17830 01ba 0E       		.uleb128 0xe
 17831 01bb 3A       		.uleb128 0x3a
 17832 01bc 0B       		.uleb128 0xb
 17833 01bd 3B       		.uleb128 0x3b
 17834 01be 0B       		.uleb128 0xb
 17835 01bf 49       		.uleb128 0x49
 17836 01c0 13       		.uleb128 0x13
 17837 01c1 3F       		.uleb128 0x3f
 17838 01c2 19       		.uleb128 0x19
 17839 01c3 02       		.uleb128 0x2
 17840 01c4 18       		.uleb128 0x18
 17841 01c5 00       		.byte	0
 17842 01c6 00       		.byte	0
 17843 01c7 21       		.uleb128 0x21
 17844 01c8 21       		.uleb128 0x21
 17845 01c9 00       		.byte	0
 17846 01ca 49       		.uleb128 0x49
 17847 01cb 13       		.uleb128 0x13
 17848 01cc 2F       		.uleb128 0x2f
 17849 01cd 05       		.uleb128 0x5
 17850 01ce 00       		.byte	0
 17851 01cf 00       		.byte	0
 17852 01d0 22       		.uleb128 0x22
 17853 01d1 2E       		.uleb128 0x2e
 17854 01d2 00       		.byte	0
 17855 01d3 3F       		.uleb128 0x3f
 17856 01d4 19       		.uleb128 0x19
 17857 01d5 03       		.uleb128 0x3
 17858 01d6 0E       		.uleb128 0xe
 17859 01d7 3A       		.uleb128 0x3a
ARM GAS  C:\Users\RECEPC~1\AppData\Local\Temp\cc6Stwwd.s 			page 377


 17860 01d8 0B       		.uleb128 0xb
 17861 01d9 3B       		.uleb128 0x3b
 17862 01da 0B       		.uleb128 0xb
 17863 01db 27       		.uleb128 0x27
 17864 01dc 19       		.uleb128 0x19
 17865 01dd 49       		.uleb128 0x49
 17866 01de 13       		.uleb128 0x13
 17867 01df 3C       		.uleb128 0x3c
 17868 01e0 19       		.uleb128 0x19
 17869 01e1 00       		.byte	0
 17870 01e2 00       		.byte	0
 17871 01e3 23       		.uleb128 0x23
 17872 01e4 2E       		.uleb128 0x2e
 17873 01e5 00       		.byte	0
 17874 01e6 3F       		.uleb128 0x3f
 17875 01e7 19       		.uleb128 0x19
 17876 01e8 03       		.uleb128 0x3
 17877 01e9 0E       		.uleb128 0xe
 17878 01ea 3A       		.uleb128 0x3a
 17879 01eb 0B       		.uleb128 0xb
 17880 01ec 3B       		.uleb128 0x3b
 17881 01ed 0B       		.uleb128 0xb
 17882 01ee 27       		.uleb128 0x27
 17883 01ef 19       		.uleb128 0x19
 17884 01f0 3C       		.uleb128 0x3c
 17885 01f1 19       		.uleb128 0x19
 17886 01f2 00       		.byte	0
 17887 01f3 00       		.byte	0
 17888 01f4 24       		.uleb128 0x24
 17889 01f5 2E       		.uleb128 0x2e
 17890 01f6 01       		.byte	0x1
 17891 01f7 3F       		.uleb128 0x3f
 17892 01f8 19       		.uleb128 0x19
 17893 01f9 03       		.uleb128 0x3
 17894 01fa 0E       		.uleb128 0xe
 17895 01fb 3A       		.uleb128 0x3a
 17896 01fc 0B       		.uleb128 0xb
 17897 01fd 3B       		.uleb128 0x3b
 17898 01fe 0B       		.uleb128 0xb
 17899 01ff 27       		.uleb128 0x27
 17900 0200 19       		.uleb128 0x19
 17901 0201 3C       		.uleb128 0x3c
 17902 0202 19       		.uleb128 0x19
 17903 0203 01       		.uleb128 0x1
 17904 0204 13       		.uleb128 0x13
 17905 0205 00       		.byte	0
 17906 0206 00       		.byte	0
 17907 0207 25       		.uleb128 0x25
 17908 0208 05       		.uleb128 0x5
 17909 0209 00       		.byte	0
 17910 020a 49       		.uleb128 0x49
 17911 020b 13       		.uleb128 0x13
 17912 020c 00       		.byte	0
 17913 020d 00       		.byte	0
 17914 020e 26       		.uleb128 0x26
 17915 020f 2E       		.uleb128 0x2e
 17916 0210 01       		.byte	0x1
ARM GAS  C:\Users\RECEPC~1\AppData\Local\Temp\cc6Stwwd.s 			page 378


 17917 0211 3F       		.uleb128 0x3f
 17918 0212 19       		.uleb128 0x19
 17919 0213 03       		.uleb128 0x3
 17920 0214 0E       		.uleb128 0xe
 17921 0215 3A       		.uleb128 0x3a
 17922 0216 0B       		.uleb128 0xb
 17923 0217 3B       		.uleb128 0x3b
 17924 0218 0B       		.uleb128 0xb
 17925 0219 27       		.uleb128 0x27
 17926 021a 19       		.uleb128 0x19
 17927 021b 49       		.uleb128 0x49
 17928 021c 13       		.uleb128 0x13
 17929 021d 3C       		.uleb128 0x3c
 17930 021e 19       		.uleb128 0x19
 17931 021f 01       		.uleb128 0x1
 17932 0220 13       		.uleb128 0x13
 17933 0221 00       		.byte	0
 17934 0222 00       		.byte	0
 17935 0223 27       		.uleb128 0x27
 17936 0224 2E       		.uleb128 0x2e
 17937 0225 01       		.byte	0x1
 17938 0226 3F       		.uleb128 0x3f
 17939 0227 19       		.uleb128 0x19
 17940 0228 03       		.uleb128 0x3
 17941 0229 0E       		.uleb128 0xe
 17942 022a 3A       		.uleb128 0x3a
 17943 022b 0B       		.uleb128 0xb
 17944 022c 3B       		.uleb128 0x3b
 17945 022d 0B       		.uleb128 0xb
 17946 022e 49       		.uleb128 0x49
 17947 022f 13       		.uleb128 0x13
 17948 0230 3C       		.uleb128 0x3c
 17949 0231 19       		.uleb128 0x19
 17950 0232 01       		.uleb128 0x1
 17951 0233 13       		.uleb128 0x13
 17952 0234 00       		.byte	0
 17953 0235 00       		.byte	0
 17954 0236 28       		.uleb128 0x28
 17955 0237 18       		.uleb128 0x18
 17956 0238 00       		.byte	0
 17957 0239 00       		.byte	0
 17958 023a 00       		.byte	0
 17959 023b 00       		.byte	0
 17960              		.section	.debug_loc,"",%progbits
 17961              	.Ldebug_loc0:
 17962              	.LLST0:
 17963 0000 28000000 		.4byte	.LVL88
 17964 0004 2C000000 		.4byte	.LVL89
 17965 0008 0200     		.2byte	0x2
 17966 000a 30       		.byte	0x30
 17967 000b 9F       		.byte	0x9f
 17968 000c 2C000000 		.4byte	.LVL89
 17969 0010 3C000000 		.4byte	.LVL91
 17970 0014 0100     		.2byte	0x1
 17971 0016 54       		.byte	0x54
 17972 0017 3E000000 		.4byte	.LVL92
 17973 001b 72000000 		.4byte	.LVL98
ARM GAS  C:\Users\RECEPC~1\AppData\Local\Temp\cc6Stwwd.s 			page 379


 17974 001f 0100     		.2byte	0x1
 17975 0021 54       		.byte	0x54
 17976 0022 72000000 		.4byte	.LVL98
 17977 0026 76000000 		.4byte	.LVL99
 17978 002a 0200     		.2byte	0x2
 17979 002c 30       		.byte	0x30
 17980 002d 9F       		.byte	0x9f
 17981 002e 76000000 		.4byte	.LVL99
 17982 0032 86000000 		.4byte	.LVL101
 17983 0036 0100     		.2byte	0x1
 17984 0038 54       		.byte	0x54
 17985 0039 88000000 		.4byte	.LVL102
 17986 003d C0000000 		.4byte	.LVL109
 17987 0041 0100     		.2byte	0x1
 17988 0043 54       		.byte	0x54
 17989 0044 00000000 		.4byte	0
 17990 0048 00000000 		.4byte	0
 17991              	.LLST1:
 17992 004c 3A000000 		.4byte	.LVL114
 17993 0050 44000000 		.4byte	.LVL115
 17994 0054 0100     		.2byte	0x1
 17995 0056 53       		.byte	0x53
 17996 0057 46000000 		.4byte	.LVL116
 17997 005b 48000000 		.4byte	.LVL117
 17998 005f 0100     		.2byte	0x1
 17999 0061 53       		.byte	0x53
 18000 0062 4A000000 		.4byte	.LVL118
 18001 0066 4E000000 		.4byte	.LVL119
 18002 006a 0100     		.2byte	0x1
 18003 006c 53       		.byte	0x53
 18004 006d 00000000 		.4byte	0
 18005 0071 00000000 		.4byte	0
 18006              	.LLST2:
 18007 0075 98020000 		.4byte	.LVL160
 18008 0079 C8020000 		.4byte	.LVL161
 18009 007d 0200     		.2byte	0x2
 18010 007f 31       		.byte	0x31
 18011 0080 9F       		.byte	0x9f
 18012 0081 C8020000 		.4byte	.LVL161
 18013 0085 D4020000 		.4byte	.LVL162
 18014 0089 0100     		.2byte	0x1
 18015 008b 53       		.byte	0x53
 18016 008c D6020000 		.4byte	.LVL163
 18017 0090 E4020000 		.4byte	.LVL164
 18018 0094 0100     		.2byte	0x1
 18019 0096 53       		.byte	0x53
 18020 0097 F4020000 		.4byte	.LVL165
 18021 009b F8020000 		.4byte	.LVL166
 18022 009f 0200     		.2byte	0x2
 18023 00a1 30       		.byte	0x30
 18024 00a2 9F       		.byte	0x9f
 18025 00a3 F8020000 		.4byte	.LVL166
 18026 00a7 06030000 		.4byte	.LVL167
 18027 00ab 0100     		.2byte	0x1
 18028 00ad 53       		.byte	0x53
 18029 00ae 08030000 		.4byte	.LVL168
 18030 00b2 10030000 		.4byte	.LVL169
ARM GAS  C:\Users\RECEPC~1\AppData\Local\Temp\cc6Stwwd.s 			page 380


 18031 00b6 0100     		.2byte	0x1
 18032 00b8 53       		.byte	0x53
 18033 00b9 80030000 		.4byte	.LVL178
 18034 00bd 92030000 		.4byte	.LVL179
 18035 00c1 0100     		.2byte	0x1
 18036 00c3 53       		.byte	0x53
 18037 00c4 94030000 		.4byte	.LVL180
 18038 00c8 96030000 		.4byte	.LVL181
 18039 00cc 0100     		.2byte	0x1
 18040 00ce 53       		.byte	0x53
 18041 00cf 98030000 		.4byte	.LVL182
 18042 00d3 A6030000 		.4byte	.LVL183
 18043 00d7 0100     		.2byte	0x1
 18044 00d9 53       		.byte	0x53
 18045 00da A4070000 		.4byte	.LVL228
 18046 00de B0070000 		.4byte	.LVL229
 18047 00e2 0100     		.2byte	0x1
 18048 00e4 53       		.byte	0x53
 18049 00e5 B2070000 		.4byte	.LVL230
 18050 00e9 B4070000 		.4byte	.LVL231
 18051 00ed 0100     		.2byte	0x1
 18052 00ef 53       		.byte	0x53
 18053 00f0 B6070000 		.4byte	.LVL232
 18054 00f4 BE070000 		.4byte	.LVL233
 18055 00f8 0100     		.2byte	0x1
 18056 00fa 53       		.byte	0x53
 18057 00fb CA070000 		.4byte	.LVL235
 18058 00ff D6070000 		.4byte	.LVL236
 18059 0103 0100     		.2byte	0x1
 18060 0105 53       		.byte	0x53
 18061 0106 D8070000 		.4byte	.LVL237
 18062 010a DA070000 		.4byte	.LVL238
 18063 010e 0100     		.2byte	0x1
 18064 0110 53       		.byte	0x53
 18065 0111 DC070000 		.4byte	.LVL239
 18066 0115 EE070000 		.4byte	.LVL240
 18067 0119 0100     		.2byte	0x1
 18068 011b 53       		.byte	0x53
 18069 011c F0070000 		.4byte	.LVL241
 18070 0120 F2070000 		.4byte	.LVL242
 18071 0124 0100     		.2byte	0x1
 18072 0126 53       		.byte	0x53
 18073 0127 F4070000 		.4byte	.LVL243
 18074 012b 06080000 		.4byte	.LVL244
 18075 012f 0100     		.2byte	0x1
 18076 0131 53       		.byte	0x53
 18077 0132 08080000 		.4byte	.LVL245
 18078 0136 0A080000 		.4byte	.LVL246
 18079 013a 0100     		.2byte	0x1
 18080 013c 53       		.byte	0x53
 18081 013d 0C080000 		.4byte	.LVL247
 18082 0141 10080000 		.4byte	.LVL248
 18083 0145 0100     		.2byte	0x1
 18084 0147 53       		.byte	0x53
 18085 0148 40080000 		.4byte	.LVL250
 18086 014c 4E080000 		.4byte	.LVL251
 18087 0150 0100     		.2byte	0x1
ARM GAS  C:\Users\RECEPC~1\AppData\Local\Temp\cc6Stwwd.s 			page 381


 18088 0152 53       		.byte	0x53
 18089 0153 50080000 		.4byte	.LVL252
 18090 0157 52080000 		.4byte	.LVL253
 18091 015b 0100     		.2byte	0x1
 18092 015d 53       		.byte	0x53
 18093 015e 54080000 		.4byte	.LVL254
 18094 0162 60080000 		.4byte	.LVL255
 18095 0166 0100     		.2byte	0x1
 18096 0168 53       		.byte	0x53
 18097 0169 90080000 		.4byte	.LVL259
 18098 016d 9E080000 		.4byte	.LVL260
 18099 0171 0100     		.2byte	0x1
 18100 0173 53       		.byte	0x53
 18101 0174 A0080000 		.4byte	.LVL261
 18102 0178 A2080000 		.4byte	.LVL262
 18103 017c 0100     		.2byte	0x1
 18104 017e 53       		.byte	0x53
 18105 017f A4080000 		.4byte	.LVL263
 18106 0183 B2080000 		.4byte	.LVL264
 18107 0187 0100     		.2byte	0x1
 18108 0189 53       		.byte	0x53
 18109 018a BC080000 		.4byte	.LVL266
 18110 018e CA080000 		.4byte	.LVL267
 18111 0192 0100     		.2byte	0x1
 18112 0194 53       		.byte	0x53
 18113 0195 CC080000 		.4byte	.LVL268
 18114 0199 CE080000 		.4byte	.LVL269
 18115 019d 0100     		.2byte	0x1
 18116 019f 53       		.byte	0x53
 18117 01a0 D0080000 		.4byte	.LVL270
 18118 01a4 DA080000 		.4byte	.LVL271
 18119 01a8 0100     		.2byte	0x1
 18120 01aa 53       		.byte	0x53
 18121 01ab DE080000 		.4byte	.LVL272
 18122 01af EC080000 		.4byte	.LVL273
 18123 01b3 0100     		.2byte	0x1
 18124 01b5 53       		.byte	0x53
 18125 01b6 EE080000 		.4byte	.LVL274
 18126 01ba F6080000 		.4byte	.LVL275
 18127 01be 0100     		.2byte	0x1
 18128 01c0 53       		.byte	0x53
 18129 01c1 E6090000 		.4byte	.LVL289
 18130 01c5 F2090000 		.4byte	.LVL291
 18131 01c9 0100     		.2byte	0x1
 18132 01cb 54       		.byte	0x54
 18133 01cc F4090000 		.4byte	.LVL292
 18134 01d0 F6090000 		.4byte	.LVL293
 18135 01d4 0100     		.2byte	0x1
 18136 01d6 54       		.byte	0x54
 18137 01d7 F8090000 		.4byte	.LVL294
 18138 01db 000A0000 		.4byte	.LVL295
 18139 01df 0100     		.2byte	0x1
 18140 01e1 54       		.byte	0x54
 18141 01e2 020A0000 		.4byte	.LVL296
 18142 01e6 0C0A0000 		.4byte	.LVL298
 18143 01ea 0100     		.2byte	0x1
 18144 01ec 54       		.byte	0x54
ARM GAS  C:\Users\RECEPC~1\AppData\Local\Temp\cc6Stwwd.s 			page 382


 18145 01ed 0E0A0000 		.4byte	.LVL299
 18146 01f1 220A0000 		.4byte	.LVL300
 18147 01f5 0100     		.2byte	0x1
 18148 01f7 54       		.byte	0x54
 18149 01f8 220A0000 		.4byte	.LVL300
 18150 01fc 260A0000 		.4byte	.LVL301
 18151 0200 0200     		.2byte	0x2
 18152 0202 31       		.byte	0x31
 18153 0203 9F       		.byte	0x9f
 18154 0204 260A0000 		.4byte	.LVL301
 18155 0208 860A0000 		.4byte	.LVL306
 18156 020c 0100     		.2byte	0x1
 18157 020e 52       		.byte	0x52
 18158 020f 880A0000 		.4byte	.LVL307
 18159 0213 930A0000 		.4byte	.LVL308-1
 18160 0217 0100     		.2byte	0x1
 18161 0219 52       		.byte	0x52
 18162 021a CA0C0000 		.4byte	.LVL331
 18163 021e D20C0000 		.4byte	.LVL332
 18164 0222 0100     		.2byte	0x1
 18165 0224 53       		.byte	0x53
 18166 0225 D40C0000 		.4byte	.LVL333
 18167 0229 D60C0000 		.4byte	.LVL334
 18168 022d 0100     		.2byte	0x1
 18169 022f 53       		.byte	0x53
 18170 0230 D80C0000 		.4byte	.LVL335
 18171 0234 E00C0000 		.4byte	.LVL336
 18172 0238 0100     		.2byte	0x1
 18173 023a 53       		.byte	0x53
 18174 023b EC0C0000 		.4byte	.LVL338
 18175 023f F40C0000 		.4byte	.LVL339
 18176 0243 0100     		.2byte	0x1
 18177 0245 53       		.byte	0x53
 18178 0246 F60C0000 		.4byte	.LVL340
 18179 024a F80C0000 		.4byte	.LVL341
 18180 024e 0100     		.2byte	0x1
 18181 0250 53       		.byte	0x53
 18182 0251 FA0C0000 		.4byte	.LVL342
 18183 0255 060D0000 		.4byte	.LVL343
 18184 0259 0100     		.2byte	0x1
 18185 025b 53       		.byte	0x53
 18186 025c 120D0000 		.4byte	.LVL345
 18187 0260 1E0D0000 		.4byte	.LVL346
 18188 0264 0100     		.2byte	0x1
 18189 0266 53       		.byte	0x53
 18190 0267 200D0000 		.4byte	.LVL347
 18191 026b 220D0000 		.4byte	.LVL348
 18192 026f 0100     		.2byte	0x1
 18193 0271 53       		.byte	0x53
 18194 0272 240D0000 		.4byte	.LVL349
 18195 0276 300D0000 		.4byte	.LVL350
 18196 027a 0100     		.2byte	0x1
 18197 027c 53       		.byte	0x53
 18198 027d 3C0D0000 		.4byte	.LVL352
 18199 0281 480D0000 		.4byte	.LVL353
 18200 0285 0100     		.2byte	0x1
 18201 0287 53       		.byte	0x53
ARM GAS  C:\Users\RECEPC~1\AppData\Local\Temp\cc6Stwwd.s 			page 383


 18202 0288 4A0D0000 		.4byte	.LVL354
 18203 028c 4C0D0000 		.4byte	.LVL355
 18204 0290 0100     		.2byte	0x1
 18205 0292 53       		.byte	0x53
 18206 0293 4E0D0000 		.4byte	.LVL356
 18207 0297 5A0D0000 		.4byte	.LVL357
 18208 029b 0100     		.2byte	0x1
 18209 029d 53       		.byte	0x53
 18210 029e 660D0000 		.4byte	.LVL359
 18211 02a2 6E0D0000 		.4byte	.LVL360
 18212 02a6 0100     		.2byte	0x1
 18213 02a8 53       		.byte	0x53
 18214 02a9 700D0000 		.4byte	.LVL361
 18215 02ad 720D0000 		.4byte	.LVL362
 18216 02b1 0100     		.2byte	0x1
 18217 02b3 53       		.byte	0x53
 18218 02b4 740D0000 		.4byte	.LVL363
 18219 02b8 800D0000 		.4byte	.LVL364
 18220 02bc 0100     		.2byte	0x1
 18221 02be 53       		.byte	0x53
 18222 02bf DC0D0000 		.4byte	.LVL367
 18223 02c3 EE0D0000 		.4byte	.LVL369
 18224 02c7 0100     		.2byte	0x1
 18225 02c9 53       		.byte	0x53
 18226 02ca F00D0000 		.4byte	.LVL370
 18227 02ce F80D0000 		.4byte	.LVL371
 18228 02d2 0100     		.2byte	0x1
 18229 02d4 53       		.byte	0x53
 18230 02d5 2E0E0000 		.4byte	.LVL376
 18231 02d9 3C0E0000 		.4byte	.LVL377
 18232 02dd 0100     		.2byte	0x1
 18233 02df 53       		.byte	0x53
 18234 02e0 3E0E0000 		.4byte	.LVL378
 18235 02e4 400E0000 		.4byte	.LVL379
 18236 02e8 0100     		.2byte	0x1
 18237 02ea 53       		.byte	0x53
 18238 02eb 420E0000 		.4byte	.LVL380
 18239 02ef 4E0E0000 		.4byte	.LVL381
 18240 02f3 0100     		.2byte	0x1
 18241 02f5 53       		.byte	0x53
 18242 02f6 5A0E0000 		.4byte	.LVL383
 18243 02fa 680E0000 		.4byte	.LVL384
 18244 02fe 0100     		.2byte	0x1
 18245 0300 53       		.byte	0x53
 18246 0301 6A0E0000 		.4byte	.LVL385
 18247 0305 6C0E0000 		.4byte	.LVL386
 18248 0309 0100     		.2byte	0x1
 18249 030b 53       		.byte	0x53
 18250 030c 6E0E0000 		.4byte	.LVL387
 18251 0310 7A0E0000 		.4byte	.LVL388
 18252 0314 0100     		.2byte	0x1
 18253 0316 53       		.byte	0x53
 18254 0317 860E0000 		.4byte	.LVL390
 18255 031b 940E0000 		.4byte	.LVL391
 18256 031f 0100     		.2byte	0x1
 18257 0321 53       		.byte	0x53
 18258 0322 960E0000 		.4byte	.LVL392
ARM GAS  C:\Users\RECEPC~1\AppData\Local\Temp\cc6Stwwd.s 			page 384


 18259 0326 980E0000 		.4byte	.LVL393
 18260 032a 0100     		.2byte	0x1
 18261 032c 53       		.byte	0x53
 18262 032d 9A0E0000 		.4byte	.LVL394
 18263 0331 A60E0000 		.4byte	.LVL395
 18264 0335 0100     		.2byte	0x1
 18265 0337 53       		.byte	0x53
 18266 0338 B20E0000 		.4byte	.LVL397
 18267 033c C00E0000 		.4byte	.LVL398
 18268 0340 0100     		.2byte	0x1
 18269 0342 53       		.byte	0x53
 18270 0343 C20E0000 		.4byte	.LVL399
 18271 0347 C40E0000 		.4byte	.LVL400
 18272 034b 0100     		.2byte	0x1
 18273 034d 53       		.byte	0x53
 18274 034e C60E0000 		.4byte	.LVL401
 18275 0352 D00E0000 		.4byte	.LVL402
 18276 0356 0100     		.2byte	0x1
 18277 0358 53       		.byte	0x53
 18278 0359 00000000 		.4byte	0
 18279 035d 00000000 		.4byte	0
 18280              	.LLST3:
 18281 0361 020A0000 		.4byte	.LVL296
 18282 0365 090A0000 		.4byte	.LVL297-1
 18283 0369 0100     		.2byte	0x1
 18284 036b 50       		.byte	0x50
 18285 036c 0A0A0000 		.4byte	.LVL297
 18286 0370 220A0000 		.4byte	.LVL300
 18287 0374 0100     		.2byte	0x1
 18288 0376 50       		.byte	0x50
 18289 0377 220A0000 		.4byte	.LVL300
 18290 037b 260A0000 		.4byte	.LVL301
 18291 037f 0200     		.2byte	0x2
 18292 0381 40       		.byte	0x40
 18293 0382 9F       		.byte	0x9f
 18294 0383 260A0000 		.4byte	.LVL301
 18295 0387 580A0000 		.4byte	.LVL302
 18296 038b 0100     		.2byte	0x1
 18297 038d 53       		.byte	0x53
 18298 038e 5A0A0000 		.4byte	.LVL303
 18299 0392 820A0000 		.4byte	.LVL304
 18300 0396 0100     		.2byte	0x1
 18301 0398 53       		.byte	0x53
 18302 0399 820A0000 		.4byte	.LVL304
 18303 039d 840A0000 		.4byte	.LVL305
 18304 03a1 0300     		.2byte	0x3
 18305 03a3 73       		.byte	0x73
 18306 03a4 01       		.sleb128 1
 18307 03a5 9F       		.byte	0x9f
 18308 03a6 840A0000 		.4byte	.LVL305
 18309 03aa 930A0000 		.4byte	.LVL308-1
 18310 03ae 0100     		.2byte	0x1
 18311 03b0 53       		.byte	0x53
 18312 03b1 00000000 		.4byte	0
 18313 03b5 00000000 		.4byte	0
 18314              	.LLST4:
 18315 03b9 84020000 		.4byte	.LVL485
ARM GAS  C:\Users\RECEPC~1\AppData\Local\Temp\cc6Stwwd.s 			page 385


 18316 03bd 88020000 		.4byte	.LVL486
 18317 03c1 0200     		.2byte	0x2
 18318 03c3 31       		.byte	0x31
 18319 03c4 9F       		.byte	0x9f
 18320 03c5 88020000 		.4byte	.LVL486
 18321 03c9 94020000 		.4byte	.LVL487
 18322 03cd 0100     		.2byte	0x1
 18323 03cf 53       		.byte	0x53
 18324 03d0 96020000 		.4byte	.LVL488
 18325 03d4 A4020000 		.4byte	.LVL489
 18326 03d8 0100     		.2byte	0x1
 18327 03da 53       		.byte	0x53
 18328 03db B4020000 		.4byte	.LVL490
 18329 03df E0020000 		.4byte	.LVL491
 18330 03e3 0200     		.2byte	0x2
 18331 03e5 30       		.byte	0x30
 18332 03e6 9F       		.byte	0x9f
 18333 03e7 E0020000 		.4byte	.LVL491
 18334 03eb EE020000 		.4byte	.LVL492
 18335 03ef 0100     		.2byte	0x1
 18336 03f1 53       		.byte	0x53
 18337 03f2 F0020000 		.4byte	.LVL493
 18338 03f6 F8020000 		.4byte	.LVL494
 18339 03fa 0100     		.2byte	0x1
 18340 03fc 53       		.byte	0x53
 18341 03fd 68030000 		.4byte	.LVL503
 18342 0401 7A030000 		.4byte	.LVL504
 18343 0405 0100     		.2byte	0x1
 18344 0407 53       		.byte	0x53
 18345 0408 7C030000 		.4byte	.LVL505
 18346 040c 7E030000 		.4byte	.LVL506
 18347 0410 0100     		.2byte	0x1
 18348 0412 53       		.byte	0x53
 18349 0413 80030000 		.4byte	.LVL507
 18350 0417 8E030000 		.4byte	.LVL508
 18351 041b 0100     		.2byte	0x1
 18352 041d 53       		.byte	0x53
 18353 041e A2070000 		.4byte	.LVL553
 18354 0422 AE070000 		.4byte	.LVL554
 18355 0426 0100     		.2byte	0x1
 18356 0428 53       		.byte	0x53
 18357 0429 B0070000 		.4byte	.LVL555
 18358 042d B2070000 		.4byte	.LVL556
 18359 0431 0100     		.2byte	0x1
 18360 0433 53       		.byte	0x53
 18361 0434 B4070000 		.4byte	.LVL557
 18362 0438 BC070000 		.4byte	.LVL558
 18363 043c 0100     		.2byte	0x1
 18364 043e 53       		.byte	0x53
 18365 043f C8070000 		.4byte	.LVL560
 18366 0443 D4070000 		.4byte	.LVL561
 18367 0447 0100     		.2byte	0x1
 18368 0449 53       		.byte	0x53
 18369 044a D6070000 		.4byte	.LVL562
 18370 044e D8070000 		.4byte	.LVL563
 18371 0452 0100     		.2byte	0x1
 18372 0454 53       		.byte	0x53
ARM GAS  C:\Users\RECEPC~1\AppData\Local\Temp\cc6Stwwd.s 			page 386


 18373 0455 DA070000 		.4byte	.LVL564
 18374 0459 EC070000 		.4byte	.LVL565
 18375 045d 0100     		.2byte	0x1
 18376 045f 53       		.byte	0x53
 18377 0460 EE070000 		.4byte	.LVL566
 18378 0464 F0070000 		.4byte	.LVL567
 18379 0468 0100     		.2byte	0x1
 18380 046a 53       		.byte	0x53
 18381 046b F2070000 		.4byte	.LVL568
 18382 046f 04080000 		.4byte	.LVL569
 18383 0473 0100     		.2byte	0x1
 18384 0475 53       		.byte	0x53
 18385 0476 06080000 		.4byte	.LVL570
 18386 047a 08080000 		.4byte	.LVL571
 18387 047e 0100     		.2byte	0x1
 18388 0480 53       		.byte	0x53
 18389 0481 0A080000 		.4byte	.LVL572
 18390 0485 0E080000 		.4byte	.LVL573
 18391 0489 0100     		.2byte	0x1
 18392 048b 53       		.byte	0x53
 18393 048c 2A080000 		.4byte	.LVL575
 18394 0490 38080000 		.4byte	.LVL576
 18395 0494 0100     		.2byte	0x1
 18396 0496 53       		.byte	0x53
 18397 0497 3A080000 		.4byte	.LVL577
 18398 049b 58080000 		.4byte	.LVL578
 18399 049f 0100     		.2byte	0x1
 18400 04a1 53       		.byte	0x53
 18401 04a2 5A080000 		.4byte	.LVL579
 18402 04a6 66080000 		.4byte	.LVL580
 18403 04aa 0100     		.2byte	0x1
 18404 04ac 53       		.byte	0x53
 18405 04ad 98080000 		.4byte	.LVL584
 18406 04b1 A6080000 		.4byte	.LVL585
 18407 04b5 0100     		.2byte	0x1
 18408 04b7 53       		.byte	0x53
 18409 04b8 A8080000 		.4byte	.LVL586
 18410 04bc AA080000 		.4byte	.LVL587
 18411 04c0 0100     		.2byte	0x1
 18412 04c2 53       		.byte	0x53
 18413 04c3 AC080000 		.4byte	.LVL588
 18414 04c7 BA080000 		.4byte	.LVL589
 18415 04cb 0100     		.2byte	0x1
 18416 04cd 53       		.byte	0x53
 18417 04ce C4080000 		.4byte	.LVL591
 18418 04d2 D2080000 		.4byte	.LVL592
 18419 04d6 0100     		.2byte	0x1
 18420 04d8 53       		.byte	0x53
 18421 04d9 D4080000 		.4byte	.LVL593
 18422 04dd D6080000 		.4byte	.LVL594
 18423 04e1 0100     		.2byte	0x1
 18424 04e3 53       		.byte	0x53
 18425 04e4 D8080000 		.4byte	.LVL595
 18426 04e8 E2080000 		.4byte	.LVL596
 18427 04ec 0100     		.2byte	0x1
 18428 04ee 53       		.byte	0x53
 18429 04ef E6080000 		.4byte	.LVL597
ARM GAS  C:\Users\RECEPC~1\AppData\Local\Temp\cc6Stwwd.s 			page 387


 18430 04f3 F4080000 		.4byte	.LVL598
 18431 04f7 0100     		.2byte	0x1
 18432 04f9 53       		.byte	0x53
 18433 04fa F6080000 		.4byte	.LVL599
 18434 04fe FE080000 		.4byte	.LVL600
 18435 0502 0100     		.2byte	0x1
 18436 0504 53       		.byte	0x53
 18437 0505 F0090000 		.4byte	.LVL614
 18438 0509 FC090000 		.4byte	.LVL616
 18439 050d 0100     		.2byte	0x1
 18440 050f 54       		.byte	0x54
 18441 0510 FE090000 		.4byte	.LVL617
 18442 0514 000A0000 		.4byte	.LVL618
 18443 0518 0100     		.2byte	0x1
 18444 051a 54       		.byte	0x54
 18445 051b 020A0000 		.4byte	.LVL619
 18446 051f 0A0A0000 		.4byte	.LVL620
 18447 0523 0100     		.2byte	0x1
 18448 0525 54       		.byte	0x54
 18449 0526 0C0A0000 		.4byte	.LVL621
 18450 052a 160A0000 		.4byte	.LVL623
 18451 052e 0100     		.2byte	0x1
 18452 0530 54       		.byte	0x54
 18453 0531 180A0000 		.4byte	.LVL624
 18454 0535 2C0A0000 		.4byte	.LVL625
 18455 0539 0100     		.2byte	0x1
 18456 053b 54       		.byte	0x54
 18457 053c 2C0A0000 		.4byte	.LVL625
 18458 0540 300A0000 		.4byte	.LVL626
 18459 0544 0200     		.2byte	0x2
 18460 0546 31       		.byte	0x31
 18461 0547 9F       		.byte	0x9f
 18462 0548 300A0000 		.4byte	.LVL626
 18463 054c 900A0000 		.4byte	.LVL631
 18464 0550 0100     		.2byte	0x1
 18465 0552 52       		.byte	0x52
 18466 0553 920A0000 		.4byte	.LVL632
 18467 0557 9D0A0000 		.4byte	.LVL633-1
 18468 055b 0100     		.2byte	0x1
 18469 055d 52       		.byte	0x52
 18470 055e CE0C0000 		.4byte	.LVL656
 18471 0562 D60C0000 		.4byte	.LVL657
 18472 0566 0100     		.2byte	0x1
 18473 0568 53       		.byte	0x53
 18474 0569 D80C0000 		.4byte	.LVL658
 18475 056d DA0C0000 		.4byte	.LVL659
 18476 0571 0100     		.2byte	0x1
 18477 0573 53       		.byte	0x53
 18478 0574 DC0C0000 		.4byte	.LVL660
 18479 0578 E40C0000 		.4byte	.LVL661
 18480 057c 0100     		.2byte	0x1
 18481 057e 53       		.byte	0x53
 18482 057f F00C0000 		.4byte	.LVL663
 18483 0583 F80C0000 		.4byte	.LVL664
 18484 0587 0100     		.2byte	0x1
 18485 0589 53       		.byte	0x53
 18486 058a FA0C0000 		.4byte	.LVL665
ARM GAS  C:\Users\RECEPC~1\AppData\Local\Temp\cc6Stwwd.s 			page 388


 18487 058e FC0C0000 		.4byte	.LVL666
 18488 0592 0100     		.2byte	0x1
 18489 0594 53       		.byte	0x53
 18490 0595 FE0C0000 		.4byte	.LVL667
 18491 0599 0A0D0000 		.4byte	.LVL668
 18492 059d 0100     		.2byte	0x1
 18493 059f 53       		.byte	0x53
 18494 05a0 160D0000 		.4byte	.LVL670
 18495 05a4 220D0000 		.4byte	.LVL671
 18496 05a8 0100     		.2byte	0x1
 18497 05aa 53       		.byte	0x53
 18498 05ab 240D0000 		.4byte	.LVL672
 18499 05af 260D0000 		.4byte	.LVL673
 18500 05b3 0100     		.2byte	0x1
 18501 05b5 53       		.byte	0x53
 18502 05b6 280D0000 		.4byte	.LVL674
 18503 05ba 340D0000 		.4byte	.LVL675
 18504 05be 0100     		.2byte	0x1
 18505 05c0 53       		.byte	0x53
 18506 05c1 400D0000 		.4byte	.LVL677
 18507 05c5 4C0D0000 		.4byte	.LVL678
 18508 05c9 0100     		.2byte	0x1
 18509 05cb 53       		.byte	0x53
 18510 05cc 4E0D0000 		.4byte	.LVL679
 18511 05d0 500D0000 		.4byte	.LVL680
 18512 05d4 0100     		.2byte	0x1
 18513 05d6 53       		.byte	0x53
 18514 05d7 520D0000 		.4byte	.LVL681
 18515 05db 5E0D0000 		.4byte	.LVL682
 18516 05df 0100     		.2byte	0x1
 18517 05e1 53       		.byte	0x53
 18518 05e2 6A0D0000 		.4byte	.LVL684
 18519 05e6 720D0000 		.4byte	.LVL685
 18520 05ea 0100     		.2byte	0x1
 18521 05ec 53       		.byte	0x53
 18522 05ed 740D0000 		.4byte	.LVL686
 18523 05f1 760D0000 		.4byte	.LVL687
 18524 05f5 0100     		.2byte	0x1
 18525 05f7 53       		.byte	0x53
 18526 05f8 780D0000 		.4byte	.LVL688
 18527 05fc 840D0000 		.4byte	.LVL689
 18528 0600 0100     		.2byte	0x1
 18529 0602 53       		.byte	0x53
 18530 0603 B20D0000 		.4byte	.LVL692
 18531 0607 C40D0000 		.4byte	.LVL694
 18532 060b 0100     		.2byte	0x1
 18533 060d 53       		.byte	0x53
 18534 060e C60D0000 		.4byte	.LVL695
 18535 0612 CE0D0000 		.4byte	.LVL696
 18536 0616 0100     		.2byte	0x1
 18537 0618 53       		.byte	0x53
 18538 0619 380E0000 		.4byte	.LVL701
 18539 061d 460E0000 		.4byte	.LVL702
 18540 0621 0100     		.2byte	0x1
 18541 0623 53       		.byte	0x53
 18542 0624 480E0000 		.4byte	.LVL703
 18543 0628 4A0E0000 		.4byte	.LVL704
ARM GAS  C:\Users\RECEPC~1\AppData\Local\Temp\cc6Stwwd.s 			page 389


 18544 062c 0100     		.2byte	0x1
 18545 062e 53       		.byte	0x53
 18546 062f 4C0E0000 		.4byte	.LVL705
 18547 0633 580E0000 		.4byte	.LVL706
 18548 0637 0100     		.2byte	0x1
 18549 0639 53       		.byte	0x53
 18550 063a 640E0000 		.4byte	.LVL708
 18551 063e 720E0000 		.4byte	.LVL709
 18552 0642 0100     		.2byte	0x1
 18553 0644 53       		.byte	0x53
 18554 0645 740E0000 		.4byte	.LVL710
 18555 0649 760E0000 		.4byte	.LVL711
 18556 064d 0100     		.2byte	0x1
 18557 064f 53       		.byte	0x53
 18558 0650 780E0000 		.4byte	.LVL712
 18559 0654 840E0000 		.4byte	.LVL713
 18560 0658 0100     		.2byte	0x1
 18561 065a 53       		.byte	0x53
 18562 065b 900E0000 		.4byte	.LVL715
 18563 065f 9E0E0000 		.4byte	.LVL716
 18564 0663 0100     		.2byte	0x1
 18565 0665 53       		.byte	0x53
 18566 0666 A00E0000 		.4byte	.LVL717
 18567 066a A20E0000 		.4byte	.LVL718
 18568 066e 0100     		.2byte	0x1
 18569 0670 53       		.byte	0x53
 18570 0671 A40E0000 		.4byte	.LVL719
 18571 0675 B00E0000 		.4byte	.LVL720
 18572 0679 0100     		.2byte	0x1
 18573 067b 53       		.byte	0x53
 18574 067c BC0E0000 		.4byte	.LVL722
 18575 0680 CA0E0000 		.4byte	.LVL723
 18576 0684 0100     		.2byte	0x1
 18577 0686 53       		.byte	0x53
 18578 0687 CC0E0000 		.4byte	.LVL724
 18579 068b CE0E0000 		.4byte	.LVL725
 18580 068f 0100     		.2byte	0x1
 18581 0691 53       		.byte	0x53
 18582 0692 D00E0000 		.4byte	.LVL726
 18583 0696 DA0E0000 		.4byte	.LVL727
 18584 069a 0100     		.2byte	0x1
 18585 069c 53       		.byte	0x53
 18586 069d 00000000 		.4byte	0
 18587 06a1 00000000 		.4byte	0
 18588              	.LLST5:
 18589 06a5 0C0A0000 		.4byte	.LVL621
 18590 06a9 130A0000 		.4byte	.LVL622-1
 18591 06ad 0100     		.2byte	0x1
 18592 06af 50       		.byte	0x50
 18593 06b0 140A0000 		.4byte	.LVL622
 18594 06b4 2C0A0000 		.4byte	.LVL625
 18595 06b8 0100     		.2byte	0x1
 18596 06ba 50       		.byte	0x50
 18597 06bb 2C0A0000 		.4byte	.LVL625
 18598 06bf 300A0000 		.4byte	.LVL626
 18599 06c3 0200     		.2byte	0x2
 18600 06c5 40       		.byte	0x40
ARM GAS  C:\Users\RECEPC~1\AppData\Local\Temp\cc6Stwwd.s 			page 390


 18601 06c6 9F       		.byte	0x9f
 18602 06c7 300A0000 		.4byte	.LVL626
 18603 06cb 620A0000 		.4byte	.LVL627
 18604 06cf 0100     		.2byte	0x1
 18605 06d1 53       		.byte	0x53
 18606 06d2 640A0000 		.4byte	.LVL628
 18607 06d6 8C0A0000 		.4byte	.LVL629
 18608 06da 0100     		.2byte	0x1
 18609 06dc 53       		.byte	0x53
 18610 06dd 8C0A0000 		.4byte	.LVL629
 18611 06e1 8E0A0000 		.4byte	.LVL630
 18612 06e5 0300     		.2byte	0x3
 18613 06e7 73       		.byte	0x73
 18614 06e8 01       		.sleb128 1
 18615 06e9 9F       		.byte	0x9f
 18616 06ea 8E0A0000 		.4byte	.LVL630
 18617 06ee 9D0A0000 		.4byte	.LVL633-1
 18618 06f2 0100     		.2byte	0x1
 18619 06f4 53       		.byte	0x53
 18620 06f5 00000000 		.4byte	0
 18621 06f9 00000000 		.4byte	0
 18622              		.section	.debug_aranges,"",%progbits
 18623 0000 8C000000 		.4byte	0x8c
 18624 0004 0200     		.2byte	0x2
 18625 0006 00000000 		.4byte	.Ldebug_info0
 18626 000a 04       		.byte	0x4
 18627 000b 00       		.byte	0
 18628 000c 0000     		.2byte	0
 18629 000e 0000     		.2byte	0
 18630 0010 00000000 		.4byte	.LFB73
 18631 0014 14000000 		.4byte	.LFE73-.LFB73
 18632 0018 00000000 		.4byte	.LFB74
 18633 001c 14000000 		.4byte	.LFE74-.LFB74
 18634 0020 00000000 		.4byte	.LFB75
 18635 0024 1C000000 		.4byte	.LFE75-.LFB75
 18636 0028 00000000 		.4byte	.LFB76
 18637 002c 08000000 		.4byte	.LFE76-.LFB76
 18638 0030 00000000 		.4byte	.LFB63
 18639 0034 50000000 		.4byte	.LFE63-.LFB63
 18640 0038 00000000 		.4byte	.LFB64
 18641 003c 94000000 		.4byte	.LFE64-.LFB64
 18642 0040 00000000 		.4byte	.LFB65
 18643 0044 C8000000 		.4byte	.LFE65-.LFB65
 18644 0048 00000000 		.4byte	.LFB66
 18645 004c 8C020000 		.4byte	.LFE66-.LFB66
 18646 0050 00000000 		.4byte	.LFB67
 18647 0054 50000000 		.4byte	.LFE67-.LFB67
 18648 0058 00000000 		.4byte	.LFB68
 18649 005c C4000000 		.4byte	.LFE68-.LFB68
 18650 0060 00000000 		.4byte	.LFB69
 18651 0064 C4000000 		.4byte	.LFE69-.LFB69
 18652 0068 00000000 		.4byte	.LFB70
 18653 006c 6C010000 		.4byte	.LFE70-.LFB70
 18654 0070 00000000 		.4byte	.LFB71
 18655 0074 20140000 		.4byte	.LFE71-.LFB71
 18656 0078 00000000 		.4byte	.LFB72
 18657 007c 10140000 		.4byte	.LFE72-.LFB72
ARM GAS  C:\Users\RECEPC~1\AppData\Local\Temp\cc6Stwwd.s 			page 391


 18658 0080 00000000 		.4byte	.LFB77
 18659 0084 90000000 		.4byte	.LFE77-.LFB77
 18660 0088 00000000 		.4byte	0
 18661 008c 00000000 		.4byte	0
 18662              		.section	.debug_ranges,"",%progbits
 18663              	.Ldebug_ranges0:
 18664 0000 00000000 		.4byte	.LFB73
 18665 0004 14000000 		.4byte	.LFE73
 18666 0008 00000000 		.4byte	.LFB74
 18667 000c 14000000 		.4byte	.LFE74
 18668 0010 00000000 		.4byte	.LFB75
 18669 0014 1C000000 		.4byte	.LFE75
 18670 0018 00000000 		.4byte	.LFB76
 18671 001c 08000000 		.4byte	.LFE76
 18672 0020 00000000 		.4byte	.LFB63
 18673 0024 50000000 		.4byte	.LFE63
 18674 0028 00000000 		.4byte	.LFB64
 18675 002c 94000000 		.4byte	.LFE64
 18676 0030 00000000 		.4byte	.LFB65
 18677 0034 C8000000 		.4byte	.LFE65
 18678 0038 00000000 		.4byte	.LFB66
 18679 003c 8C020000 		.4byte	.LFE66
 18680 0040 00000000 		.4byte	.LFB67
 18681 0044 50000000 		.4byte	.LFE67
 18682 0048 00000000 		.4byte	.LFB68
 18683 004c C4000000 		.4byte	.LFE68
 18684 0050 00000000 		.4byte	.LFB69
 18685 0054 C4000000 		.4byte	.LFE69
 18686 0058 00000000 		.4byte	.LFB70
 18687 005c 6C010000 		.4byte	.LFE70
 18688 0060 00000000 		.4byte	.LFB71
 18689 0064 20140000 		.4byte	.LFE71
 18690 0068 00000000 		.4byte	.LFB72
 18691 006c 10140000 		.4byte	.LFE72
 18692 0070 00000000 		.4byte	.LFB77
 18693 0074 90000000 		.4byte	.LFE77
 18694 0078 00000000 		.4byte	0
 18695 007c 00000000 		.4byte	0
 18696              		.section	.debug_line,"",%progbits
 18697              	.Ldebug_line0:
 18698 0000 9A0D0000 		.section	.debug_str,"MS",%progbits,1
 18698      0200A902 
 18698      00000201 
 18698      FB0E0D00 
 18698      01010101 
 18699              	.LASF35:
 18700 0000 76616C75 		.ascii	"valueKeys\000"
 18700      654B6579 
 18700      7300
 18701              	.LASF25:
 18702 000a 73697A65 		.ascii	"sizetype\000"
 18702      74797065 
 18702      00
 18703              	.LASF280:
 18704 0013 57616974 		.ascii	"Waitable_3_ReadStatusRegister\000"
 18704      61626C65 
 18704      5F335F52 
ARM GAS  C:\Users\RECEPC~1\AppData\Local\Temp\cc6Stwwd.s 			page 392


 18704      65616453 
 18704      74617475 
 18705              	.LASF79:
 18706 0031 72665374 		.ascii	"rfState\000"
 18706      61746500 
 18707              	.LASF289:
 18708 0039 6973725F 		.ascii	"isr_1_StartEx\000"
 18708      315F5374 
 18708      61727445 
 18708      7800
 18709              	.LASF225:
 18710 0047 74656D70 		.ascii	"temporal\000"
 18710      6F72616C 
 18710      00
 18711              	.LASF189:
 18712 0050 44697370 		.ascii	"Display1_rxBuffer\000"
 18712      6C617931 
 18712      5F727842 
 18712      75666665 
 18712      7200
 18713              	.LASF159:
 18714 0062 52465F43 		.ascii	"RF_CREDITSALEREPORT\000"
 18714      52454449 
 18714      5453414C 
 18714      45524550 
 18714      4F525400 
 18715              	.LASF258:
 18716 0076 62756666 		.ascii	"buffer_txTotals\000"
 18716      65725F74 
 18716      78546F74 
 18716      616C7300 
 18717              	.LASF96:
 18718 0086 44495350 		.ascii	"DISPLAY_SUBA_MANIJA\000"
 18718      4C41595F 
 18718      53554241 
 18718      5F4D414E 
 18718      494A4100 
 18719              	.LASF301:
 18720 009a 6765745F 		.ascii	"get_state\000"
 18720      73746174 
 18720      6500
 18721              	.LASF31:
 18722 00a4 6D6F6E65 		.ascii	"moneySelectedSale\000"
 18722      7953656C 
 18722      65637465 
 18722      6453616C 
 18722      6500
 18723              	.LASF14:
 18724 00b6 696E7433 		.ascii	"int32_t\000"
 18724      325F7400 
 18725              	.LASF185:
 18726 00be 506F6C6C 		.ascii	"PollingPump\000"
 18726      696E6750 
 18726      756D7000 
 18727              	.LASF26:
 18728 00ca 69645479 		.ascii	"idType\000"
 18728      706500
ARM GAS  C:\Users\RECEPC~1\AppData\Local\Temp\cc6Stwwd.s 			page 393


 18729              	.LASF17:
 18730 00d1 75696E74 		.ascii	"uint32\000"
 18730      333200
 18731              	.LASF116:
 18732 00d8 44495350 		.ascii	"DISPLAY_COPIA_RECIBO\000"
 18732      4C41595F 
 18732      434F5049 
 18732      415F5245 
 18732      4349424F 
 18733              	.LASF240:
 18734 00ed 4E756D50 		.ascii	"NumPositions\000"
 18734      6F736974 
 18734      696F6E73 
 18734      00
 18735              	.LASF242:
 18736 00fa 64696769 		.ascii	"digits\000"
 18736      747300
 18737              	.LASF164:
 18738 0101 616E696D 		.ascii	"animacion2\000"
 18738      6163696F 
 18738      6E3200
 18739              	.LASF57:
 18740 010c 666C6167 		.ascii	"flagEndSale\000"
 18740      456E6453 
 18740      616C6500 
 18741              	.LASF153:
 18742 0118 5F52465F 		.ascii	"_RF_STATES_\000"
 18742      53544154 
 18742      45535F00 
 18743              	.LASF55:
 18744 0124 666C6167 		.ascii	"flagPayment\000"
 18744      5061796D 
 18744      656E7400 
 18745              	.LASF255:
 18746 0130 7072696E 		.ascii	"printPortB\000"
 18746      74506F72 
 18746      744200
 18747              	.LASF128:
 18748 013b 44495350 		.ascii	"DISPLAY_ABRIR_TURNO\000"
 18748      4C41595F 
 18748      41425249 
 18748      525F5455 
 18748      524E4F00 
 18749              	.LASF278:
 18750 014f 54696D65 		.ascii	"Timer_Animacion_ReadStatusRegister\000"
 18750      725F416E 
 18750      696D6163 
 18750      696F6E5F 
 18750      52656164 
 18751              	.LASF82:
 18752 0172 67726164 		.ascii	"grade\000"
 18752      6500
 18753              	.LASF154:
 18754 0178 52465F49 		.ascii	"RF_IDLE\000"
 18754      444C4500 
 18755              	.LASF115:
 18756 0180 44495350 		.ascii	"DISPLAY_CONFIGURACIONES\000"
ARM GAS  C:\Users\RECEPC~1\AppData\Local\Temp\cc6Stwwd.s 			page 394


 18756      4C41595F 
 18756      434F4E46 
 18756      49475552 
 18756      4143494F 
 18757              	.LASF21:
 18758 0198 63686172 		.ascii	"char8\000"
 18758      3800
 18759              	.LASF328:
 18760 019e 53686F77 		.ascii	"ShowRectangle\000"
 18760      52656374 
 18760      616E676C 
 18760      6500
 18761              	.LASF51:
 18762 01ac 6C696365 		.ascii	"licenceSale\000"
 18762      6E636553 
 18762      616C6500 
 18763              	.LASF312:
 18764 01b8 57726974 		.ascii	"WriteLCD\000"
 18764      654C4344 
 18764      00
 18765              	.LASF308:
 18766 01c1 54696D65 		.ascii	"Timer_Animacion_Stop\000"
 18766      725F416E 
 18766      696D6163 
 18766      696F6E5F 
 18766      53746F70 
 18767              	.LASF213:
 18768 01d6 73637265 		.ascii	"screen\000"
 18768      656E00
 18769              	.LASF232:
 18770 01dd 62756666 		.ascii	"bufferAready\000"
 18770      65724172 
 18770      65616479 
 18770      00
 18771              	.LASF317:
 18772 01ea 50756D70 		.ascii	"Pump_PutChar\000"
 18772      5F507574 
 18772      43686172 
 18772      00
 18773              	.LASF65:
 18774 01f7 666C6167 		.ascii	"flagActiveSale\000"
 18774      41637469 
 18774      76655361 
 18774      6C6500
 18775              	.LASF202:
 18776 0206 6E756D62 		.ascii	"numberKeys1\000"
 18776      65724B65 
 18776      79733100 
 18777              	.LASF203:
 18778 0212 6E756D62 		.ascii	"numberKeys2\000"
 18778      65724B65 
 18778      79733200 
 18779              	.LASF217:
 18780 021e 70617373 		.ascii	"passwordSeller\000"
 18780      776F7264 
 18780      53656C6C 
 18780      657200
ARM GAS  C:\Users\RECEPC~1\AppData\Local\Temp\cc6Stwwd.s 			page 395


 18781              	.LASF62:
 18782 022d 7072696E 		.ascii	"printers\000"
 18782      74657273 
 18782      00
 18783              	.LASF162:
 18784 0236 52465F5A 		.ascii	"RF_ZERO_SALE\000"
 18784      45524F5F 
 18784      53414C45 
 18784      00
 18785              	.LASF197:
 18786 0243 636F756E 		.ascii	"countLCD\000"
 18786      744C4344 
 18786      00
 18787              	.LASF3:
 18788 024c 5F5F7569 		.ascii	"__uint8_t\000"
 18788      6E74385F 
 18788      7400
 18789              	.LASF183:
 18790 0256 6461746F 		.ascii	"datoA\000"
 18790      4100
 18791              	.LASF184:
 18792 025c 6461746F 		.ascii	"datoB\000"
 18792      4200
 18793              	.LASF321:
 18794 0262 746F7563 		.ascii	"touch_read_byte\000"
 18794      685F7265 
 18794      61645F62 
 18794      79746500 
 18795              	.LASF93:
 18796 0272 44495350 		.ascii	"DISPLAY_INTRODUZCA_VALOR2\000"
 18796      4C41595F 
 18796      494E5452 
 18796      4F44555A 
 18796      43415F56 
 18797              	.LASF59:
 18798 028c 766F6C75 		.ascii	"volumeQuota\000"
 18798      6D655175 
 18798      6F746100 
 18799              	.LASF56:
 18800 0298 666C6167 		.ascii	"flagLiftHandle\000"
 18800      4C696674 
 18800      48616E64 
 18800      6C6500
 18801              	.LASF323:
 18802 02a7 61746F69 		.ascii	"atoi\000"
 18802      00
 18803              	.LASF27:
 18804 02ac 69645365 		.ascii	"idSerial\000"
 18804      7269616C 
 18804      00
 18805              	.LASF135:
 18806 02b5 44495350 		.ascii	"DISPLAY_IDENTIFICADOR_ESTACION\000"
 18806      4C41595F 
 18806      4944454E 
 18806      54494649 
 18806      4341444F 
 18807              	.LASF20:
ARM GAS  C:\Users\RECEPC~1\AppData\Local\Temp\cc6Stwwd.s 			page 396


 18808 02d4 75696E74 		.ascii	"uint64\000"
 18808      363400
 18809              	.LASF7:
 18810 02db 6C6F6E67 		.ascii	"long int\000"
 18810      20696E74 
 18810      00
 18811              	.LASF307:
 18812 02e4 6973725F 		.ascii	"isr_3_Stop\000"
 18812      335F5374 
 18812      6F7000
 18813              	.LASF210:
 18814 02ef 73796D62 		.ascii	"symbols\000"
 18814      6F6C7300 
 18815              	.LASF169:
 18816 02f7 6C6F6164 		.ascii	"loadConfiguration\000"
 18816      436F6E66 
 18816      69677572 
 18816      6174696F 
 18816      6E00
 18817              	.LASF143:
 18818 0309 5F415641 		.ascii	"_AVAILABLE_DISPLAYS_\000"
 18818      494C4142 
 18818      4C455F44 
 18818      4953504C 
 18818      4159535F 
 18819              	.LASF186:
 18820 031e 506F6C6C 		.ascii	"PollingDisplay1\000"
 18820      696E6744 
 18820      6973706C 
 18820      61793100 
 18821              	.LASF45:
 18822 032e 746F7461 		.ascii	"totalMoneyPrevious\000"
 18822      6C4D6F6E 
 18822      65795072 
 18822      6576696F 
 18822      757300
 18823              	.LASF188:
 18824 0341 6D61696E 		.ascii	"main\000"
 18824      00
 18825              	.LASF327:
 18826 0346 54696D65 		.ascii	"Timer_Animacion2_Stop\000"
 18826      725F416E 
 18826      696D6163 
 18826      696F6E32 
 18826      5F53746F 
 18827              	.LASF259:
 18828 035c 62756666 		.ascii	"buffer_A\000"
 18828      65725F41 
 18828      00
 18829              	.LASF113:
 18830 0365 44495350 		.ascii	"DISPLAY_INTRODUZCA_KILOMETRAJE\000"
 18830      4C41595F 
 18830      494E5452 
 18830      4F44555A 
 18830      43415F4B 
 18831              	.LASF228:
 18832 0384 43477261 		.ascii	"CGrade\000"
ARM GAS  C:\Users\RECEPC~1\AppData\Local\Temp\cc6Stwwd.s 			page 397


 18832      646500
 18833              	.LASF86:
 18834 038b 44495350 		.ascii	"DISPLAY_ERROR\000"
 18834      4C41595F 
 18834      4552524F 
 18834      5200
 18835              	.LASF309:
 18836 0399 696D7072 		.ascii	"imprimir\000"
 18836      696D6972 
 18836      00
 18837              	.LASF303:
 18838 03a2 5F426F6F 		.ascii	"_Bool\000"
 18838      6C00
 18839              	.LASF212:
 18840 03a8 64617465 		.ascii	"date\000"
 18840      00
 18841              	.LASF121:
 18842 03ad 44495350 		.ascii	"DISPLAY_POR_FAVOR_ESPERE\000"
 18842      4C41595F 
 18842      504F525F 
 18842      4641564F 
 18842      525F4553 
 18843              	.LASF286:
 18844 03c6 5072696E 		.ascii	"Printer_Start\000"
 18844      7465725F 
 18844      53746172 
 18844      7400
 18845              	.LASF126:
 18846 03d4 44495350 		.ascii	"DISPLAY_FECHA\000"
 18846      4C41595F 
 18846      46454348 
 18846      4100
 18847              	.LASF196:
 18848 03e2 636F756E 		.ascii	"countPump\000"
 18848      7450756D 
 18848      7000
 18849              	.LASF0:
 18850 03ec 7369676E 		.ascii	"signed char\000"
 18850      65642063 
 18850      68617200 
 18851              	.LASF12:
 18852 03f8 75696E74 		.ascii	"uint8_t\000"
 18852      385F7400 
 18853              	.LASF107:
 18854 0400 44495350 		.ascii	"DISPLAY_ID_DIGITAL\000"
 18854      4C41595F 
 18854      49445F44 
 18854      49474954 
 18854      414C00
 18855              	.LASF105:
 18856 0413 44495350 		.ascii	"DISPLAY_TIEMPO_EXPIRADO\000"
 18856      4C41595F 
 18856      5449454D 
 18856      504F5F45 
 18856      58504952 
 18857              	.LASF314:
 18858 042b 54696D65 		.ascii	"Timer_Animacion_Start\000"
ARM GAS  C:\Users\RECEPC~1\AppData\Local\Temp\cc6Stwwd.s 			page 398


 18858      725F416E 
 18858      696D6163 
 18858      696F6E5F 
 18858      53746172 
 18859              	.LASF281:
 18860 0441 57616974 		.ascii	"Waitable_4_ReadStatusRegister\000"
 18860      61626C65 
 18860      5F345F52 
 18860      65616453 
 18860      74617475 
 18861              	.LASF37:
 18862 045f 73616C65 		.ascii	"saleType\000"
 18862      54797065 
 18862      00
 18863              	.LASF131:
 18864 0468 44495350 		.ascii	"DISPLAY_USUARIO_VALIDO\000"
 18864      4C41595F 
 18864      55535541 
 18864      52494F5F 
 18864      56414C49 
 18865              	.LASF129:
 18866 047f 44495350 		.ascii	"DISPLAY_CERRAR_TURNO\000"
 18866      4C41595F 
 18866      43455252 
 18866      41525F54 
 18866      55524E4F 
 18867              	.LASF335:
 18868 0494 474E5520 		.ascii	"GNU C 4.9.3 20150303 (release) [ARM/embedded-4_9-br"
 18868      4320342E 
 18868      392E3320 
 18868      32303135 
 18868      30333033 
 18869 04c7 616E6368 		.ascii	"anch revision 221220] -mcpu=cortex-m3 -mthumb -g -O"
 18869      20726576 
 18869      6973696F 
 18869      6E203232 
 18869      31323230 
 18870 04fa 67202D66 		.ascii	"g -ffunction-sections -ffat-lto-objects\000"
 18870      66756E63 
 18870      74696F6E 
 18870      2D736563 
 18870      74696F6E 
 18871              	.LASF315:
 18872 0522 50756D70 		.ascii	"PumpHoseActiveState\000"
 18872      486F7365 
 18872      41637469 
 18872      76655374 
 18872      61746500 
 18873              	.LASF80:
 18874 0536 70756D70 		.ascii	"pumpState\000"
 18874      53746174 
 18874      6500
 18875              	.LASF1:
 18876 0540 756E7369 		.ascii	"unsigned char\000"
 18876      676E6564 
 18876      20636861 
 18876      7200
ARM GAS  C:\Users\RECEPC~1\AppData\Local\Temp\cc6Stwwd.s 			page 399


 18877              	.LASF92:
 18878 054e 44495350 		.ascii	"DISPLAY_INTRODUZCA_VALOR\000"
 18878      4C41595F 
 18878      494E5452 
 18878      4F44555A 
 18878      43415F56 
 18879              	.LASF322:
 18880 0567 6372635F 		.ascii	"crc_check\000"
 18880      63686563 
 18880      6B00
 18881              	.LASF120:
 18882 0571 44495350 		.ascii	"DISPLAY_ESPERANDO_AUTORIZACION\000"
 18882      4C41595F 
 18882      45535045 
 18882      52414E44 
 18882      4F5F4155 
 18883              	.LASF290:
 18884 0590 6973725F 		.ascii	"isr_2_StartEx\000"
 18884      325F5374 
 18884      61727445 
 18884      7800
 18885              	.LASF270:
 18886 059e 47726164 		.ascii	"GradesHose\000"
 18886      6573486F 
 18886      736500
 18887              	.LASF158:
 18888 05a9 52465F57 		.ascii	"RF_WORKSHIFTREQ\000"
 18888      4F524B53 
 18888      48494654 
 18888      52455100 
 18889              	.LASF67:
 18890 05b9 73686966 		.ascii	"shiftPassword\000"
 18890      74506173 
 18890      73776F72 
 18890      6400
 18891              	.LASF70:
 18892 05c7 746F7461 		.ascii	"totalsHandle\000"
 18892      6C734861 
 18892      6E646C65 
 18892      00
 18893              	.LASF198:
 18894 05d4 666C6F77 		.ascii	"flowDisplay1\000"
 18894      44697370 
 18894      6C617931 
 18894      00
 18895              	.LASF199:
 18896 05e1 666C6F77 		.ascii	"flowDisplay2\000"
 18896      44697370 
 18896      6C617932 
 18896      00
 18897              	.LASF200:
 18898 05ee 666C6F77 		.ascii	"flowDisplay3\000"
 18898      44697370 
 18898      6C617933 
 18898      00
 18899              	.LASF201:
 18900 05fb 666C6F77 		.ascii	"flowDisplay4\000"
ARM GAS  C:\Users\RECEPC~1\AppData\Local\Temp\cc6Stwwd.s 			page 400


 18900      44697370 
 18900      6C617934 
 18900      00
 18901              	.LASF239:
 18902 0608 73746174 		.ascii	"statePump\000"
 18902      6550756D 
 18902      7000
 18903              	.LASF22:
 18904 0612 63686172 		.ascii	"char\000"
 18904      00
 18905              	.LASF133:
 18906 0617 44495350 		.ascii	"DISPLAY_AMBAS_IMPRESORAS_FUNCIONANDO\000"
 18906      4C41595F 
 18906      414D4241 
 18906      535F494D 
 18906      50524553 
 18907              	.LASF241:
 18908 063c 6C6F636B 		.ascii	"lockTurn\000"
 18908      5475726E 
 18908      00
 18909              	.LASF29:
 18910 0645 666C6167 		.ascii	"flagWayToPayMixed\000"
 18910      57617954 
 18910      6F506179 
 18910      4D697865 
 18910      6400
 18911              	.LASF282:
 18912 0657 45455052 		.ascii	"EEPROM_1_Start\000"
 18912      4F4D5F31 
 18912      5F537461 
 18912      727400
 18913              	.LASF4:
 18914 0666 5F5F7569 		.ascii	"__uint16_t\000"
 18914      6E743136 
 18914      5F7400
 18915              	.LASF251:
 18916 0671 636F6E74 		.ascii	"controlChar\000"
 18916      726F6C43 
 18916      68617200 
 18917              	.LASF224:
 18918 067d 636F756E 		.ascii	"counterRF\000"
 18918      74657252 
 18918      4600
 18919              	.LASF167:
 18920 0687 476C6F62 		.ascii	"GlobalInitializer\000"
 18920      616C496E 
 18920      69746961 
 18920      6C697A65 
 18920      7200
 18921              	.LASF233:
 18922 0699 556E6974 		.ascii	"UnitType\000"
 18922      54797065 
 18922      00
 18923              	.LASF42:
 18924 06a2 73746174 		.ascii	"stateMux\000"
 18924      654D7578 
 18924      00
ARM GAS  C:\Users\RECEPC~1\AppData\Local\Temp\cc6Stwwd.s 			page 401


 18925              	.LASF101:
 18926 06ab 44495350 		.ascii	"DISPLAY_INGRESE_PASSWORD\000"
 18926      4C41595F 
 18926      494E4752 
 18926      4553455F 
 18926      50415353 
 18927              	.LASF187:
 18928 06c4 506F6C6C 		.ascii	"PollingDisplay2\000"
 18928      696E6744 
 18928      6973706C 
 18928      61793200 
 18929              	.LASF311:
 18930 06d4 44697370 		.ascii	"Display1_ClearRxBuffer\000"
 18930      6C617931 
 18930      5F436C65 
 18930      61725278 
 18930      42756666 
 18931              	.LASF264:
 18932 06eb 696E7449 		.ascii	"intIDStation\000"
 18932      44537461 
 18932      74696F6E 
 18932      00
 18933              	.LASF192:
 18934 06f8 636F756E 		.ascii	"countAnimation1\000"
 18934      74416E69 
 18934      6D617469 
 18934      6F6E3100 
 18935              	.LASF193:
 18936 0708 636F756E 		.ascii	"countAnimation2\000"
 18936      74416E69 
 18936      6D617469 
 18936      6F6E3200 
 18937              	.LASF219:
 18938 0718 73746174 		.ascii	"stateBeagleSoft\000"
 18938      65426561 
 18938      676C6553 
 18938      6F667400 
 18939              	.LASF271:
 18940 0728 62756666 		.ascii	"bufferDisplay1\000"
 18940      65724469 
 18940      73706C61 
 18940      793100
 18941              	.LASF39:
 18942 0737 70726573 		.ascii	"presetType\000"
 18942      65745479 
 18942      706500
 18943              	.LASF98:
 18944 0742 44495350 		.ascii	"DISPLAY_BAJE_MANIJA\000"
 18944      4C41595F 
 18944      42414A45 
 18944      5F4D414E 
 18944      494A4100 
 18945              	.LASF306:
 18946 0756 67657454 		.ascii	"getTotals\000"
 18946      6F74616C 
 18946      7300
 18947              	.LASF63:
ARM GAS  C:\Users\RECEPC~1\AppData\Local\Temp\cc6Stwwd.s 			page 402


 18948 0760 666C6167 		.ascii	"flagChangePPU\000"
 18948      4368616E 
 18948      67655050 
 18948      5500
 18949              	.LASF300:
 18950 076e 6765745F 		.ascii	"get_position\000"
 18950      706F7369 
 18950      74696F6E 
 18950      00
 18951              	.LASF231:
 18952 077b 73697A65 		.ascii	"sizeSendB\000"
 18952      53656E64 
 18952      4200
 18953              	.LASF46:
 18954 0785 746F7461 		.ascii	"totalVolumePrevious\000"
 18954      6C566F6C 
 18954      756D6550 
 18954      72657669 
 18954      6F757300 
 18955              	.LASF118:
 18956 0799 44495350 		.ascii	"DISPLAY_SELECCIONE_POSICION\000"
 18956      4C41595F 
 18956      53454C45 
 18956      4343494F 
 18956      4E455F50 
 18957              	.LASF91:
 18958 07b5 44495350 		.ascii	"DISPLAY_FORMA_PROGRAMACION\000"
 18958      4C41595F 
 18958      464F524D 
 18958      415F5052 
 18958      4F475241 
 18959              	.LASF168:
 18960 07d0 53746F72 		.ascii	"StoreConfiguration\000"
 18960      65436F6E 
 18960      66696775 
 18960      72617469 
 18960      6F6E00
 18961              	.LASF83:
 18962 07e3 52467374 		.ascii	"RFstateReport\000"
 18962      61746552 
 18962      65706F72 
 18962      7400
 18963              	.LASF71:
 18964 07f1 70707541 		.ascii	"ppuAuthorized\000"
 18964      7574686F 
 18964      72697A65 
 18964      6400
 18965              	.LASF313:
 18966 07ff 616C7068 		.ascii	"alphanumeric_keyboard\000"
 18966      616E756D 
 18966      65726963 
 18966      5F6B6579 
 18966      626F6172 
 18967              	.LASF244:
 18968 0815 5072696E 		.ascii	"PrinterType\000"
 18968      74657254 
 18968      79706500 
ARM GAS  C:\Users\RECEPC~1\AppData\Local\Temp\cc6Stwwd.s 			page 403


 18969              	.LASF265:
 18970 0821 456E6361 		.ascii	"Encabezado1\000"
 18970      62657A61 
 18970      646F3100 
 18971              	.LASF266:
 18972 082d 456E6361 		.ascii	"Encabezado2\000"
 18972      62657A61 
 18972      646F3200 
 18973              	.LASF267:
 18974 0839 456E6361 		.ascii	"Encabezado3\000"
 18974      62657A61 
 18974      646F3300 
 18975              	.LASF268:
 18976 0845 456E6361 		.ascii	"Encabezado4\000"
 18976      62657A61 
 18976      646F3400 
 18977              	.LASF68:
 18978 0851 62756666 		.ascii	"buffer\000"
 18978      657200
 18979              	.LASF88:
 18980 0858 44495350 		.ascii	"DISPLAY_INICIO1\000"
 18980      4C41595F 
 18980      494E4943 
 18980      494F3100 
 18981              	.LASF89:
 18982 0868 44495350 		.ascii	"DISPLAY_INICIO2\000"
 18982      4C41595F 
 18982      494E4943 
 18982      494F3200 
 18983              	.LASF170:
 18984 0878 496E6974 		.ascii	"InitDisplay1\000"
 18984      44697370 
 18984      6C617931 
 18984      00
 18985              	.LASF180:
 18986 0885 496E6974 		.ascii	"InitDisplay2\000"
 18986      44697370 
 18986      6C617932 
 18986      00
 18987              	.LASF256:
 18988 0892 62756666 		.ascii	"buffer_rf\000"
 18988      65725F72 
 18988      6600
 18989              	.LASF132:
 18990 089c 44495350 		.ascii	"DISPLAY_USUARIO_INVALIDO\000"
 18990      4C41595F 
 18990      55535541 
 18990      52494F5F 
 18990      494E5641 
 18991              	.LASF332:
 18992 08b5 43795764 		.ascii	"CyWdtClear\000"
 18992      74436C65 
 18992      617200
 18993              	.LASF269:
 18994 08c0 436F7069 		.ascii	"CopiasCredito\000"
 18994      61734372 
 18994      65646974 
ARM GAS  C:\Users\RECEPC~1\AppData\Local\Temp\cc6Stwwd.s 			page 404


 18994      6F00
 18995              	.LASF238:
 18996 08ce 44444D6F 		.ascii	"DDMode\000"
 18996      646500
 18997              	.LASF263:
 18998 08d5 62756666 		.ascii	"buffer_txDisplay\000"
 18998      65725F74 
 18998      78446973 
 18998      706C6179 
 18998      00
 18999              	.LASF334:
 19000 08e6 706F6C6C 		.ascii	"pollingRFA_Tx\000"
 19000      696E6752 
 19000      46415F54 
 19000      7800
 19001              	.LASF8:
 19002 08f4 6C6F6E67 		.ascii	"long unsigned int\000"
 19002      20756E73 
 19002      69676E65 
 19002      6420696E 
 19002      7400
 19003              	.LASF137:
 19004 0906 44495350 		.ascii	"DISPLAY_DUMMY0\000"
 19004      4C41595F 
 19004      44554D4D 
 19004      593000
 19005              	.LASF138:
 19006 0915 44495350 		.ascii	"DISPLAY_DUMMY1\000"
 19006      4C41595F 
 19006      44554D4D 
 19006      593100
 19007              	.LASF139:
 19008 0924 44495350 		.ascii	"DISPLAY_DUMMY2\000"
 19008      4C41595F 
 19008      44554D4D 
 19008      593200
 19009              	.LASF140:
 19010 0933 44495350 		.ascii	"DISPLAY_DUMMY3\000"
 19010      4C41595F 
 19010      44554D4D 
 19010      593300
 19011              	.LASF117:
 19012 0942 44495350 		.ascii	"DISPLAY_IMPRIMIENDO_RECIBO\000"
 19012      4C41595F 
 19012      494D5052 
 19012      494D4945 
 19012      4E444F5F 
 19013              	.LASF181:
 19014 095d 496E6974 		.ascii	"InitPump\000"
 19014      50756D70 
 19014      00
 19015              	.LASF75:
 19016 0966 70726F64 		.ascii	"productSale\000"
 19016      75637453 
 19016      616C6500 
 19017              	.LASF50:
 19018 0972 746F7461 		.ascii	"totalPPUAfter\000"
ARM GAS  C:\Users\RECEPC~1\AppData\Local\Temp\cc6Stwwd.s 			page 405


 19018      6C505055 
 19018      41667465 
 19018      7200
 19019              	.LASF30:
 19020 0980 73656C65 		.ascii	"selectedSale\000"
 19020      63746564 
 19020      53616C65 
 19020      00
 19021              	.LASF58:
 19022 098d 6D6F6E65 		.ascii	"moneyQuota\000"
 19022      7951756F 
 19022      746100
 19023              	.LASF32:
 19024 0998 73657269 		.ascii	"serialSelectedSale\000"
 19024      616C5365 
 19024      6C656374 
 19024      65645361 
 19024      6C6500
 19025              	.LASF60:
 19026 09ab 70707551 		.ascii	"ppuQuota\000"
 19026      756F7461 
 19026      00
 19027              	.LASF163:
 19028 09b4 616E696D 		.ascii	"animacion\000"
 19028      6163696F 
 19028      6E00
 19029              	.LASF257:
 19030 09be 62756666 		.ascii	"buffer_tx\000"
 19030      65725F74 
 19030      7800
 19031              	.LASF291:
 19032 09c8 6973725F 		.ascii	"isr_3_StartEx\000"
 19032      335F5374 
 19032      61727445 
 19032      7800
 19033              	.LASF254:
 19034 09d6 7072696E 		.ascii	"printPortA\000"
 19034      74506F72 
 19034      744100
 19035              	.LASF272:
 19036 09e1 62756666 		.ascii	"bufferDisplay2\000"
 19036      65724469 
 19036      73706C61 
 19036      793200
 19037              	.LASF273:
 19038 09f0 62756666 		.ascii	"bufferDisplay3\000"
 19038      65724469 
 19038      73706C61 
 19038      793300
 19039              	.LASF274:
 19040 09ff 62756666 		.ascii	"bufferDisplay4\000"
 19040      65724469 
 19040      73706C61 
 19040      793400
 19041              	.LASF104:
 19042 0a0e 44495350 		.ascii	"DISPLAY_NUEVO_PASSWORD\000"
 19042      4C41595F 
ARM GAS  C:\Users\RECEPC~1\AppData\Local\Temp\cc6Stwwd.s 			page 406


 19042      4E554556 
 19042      4F5F5041 
 19042      5353574F 
 19043              	.LASF110:
 19044 0a25 44495350 		.ascii	"DISPLAY_ID_RECONOCIDO\000"
 19044      4C41595F 
 19044      49445F52 
 19044      45434F4E 
 19044      4F434944 
 19045              	.LASF221:
 19046 0a3b 506C6174 		.ascii	"PlateRequest\000"
 19046      65526571 
 19046      75657374 
 19046      00
 19047              	.LASF134:
 19048 0a48 44495350 		.ascii	"DISPLAY_IMPRESORA_NO_FUNCIONANDO\000"
 19048      4C41595F 
 19048      494D5052 
 19048      45534F52 
 19048      415F4E4F 
 19049              	.LASF318:
 19050 0a69 67657453 		.ascii	"getSale\000"
 19050      616C6500 
 19051              	.LASF216:
 19052 0a71 74797065 		.ascii	"typeIdSeller\000"
 19052      49645365 
 19052      6C6C6572 
 19052      00
 19053              	.LASF324:
 19054 0a7e 6C656572 		.ascii	"leer_hora\000"
 19054      5F686F72 
 19054      6100
 19055              	.LASF9:
 19056 0a88 6C6F6E67 		.ascii	"long long int\000"
 19056      206C6F6E 
 19056      6720696E 
 19056      7400
 19057              	.LASF122:
 19058 0a96 44495350 		.ascii	"DISPLAY_AUTORIZACION_ACEPTADA\000"
 19058      4C41595F 
 19058      4155544F 
 19058      52495A41 
 19058      43494F4E 
 19059              	.LASF100:
 19060 0ab4 44495350 		.ascii	"DISPLAY_DESEA_IMPRIMIR_RECIBO\000"
 19060      4C41595F 
 19060      44455345 
 19060      415F494D 
 19060      5052494D 
 19061              	.LASF106:
 19062 0ad2 44495350 		.ascii	"DISPLAY_GRACIAS_VUELVA_PRONTO\000"
 19062      4C41595F 
 19062      47524143 
 19062      4941535F 
 19062      5655454C 
 19063              	.LASF155:
 19064 0af0 52465F44 		.ascii	"RF_DELIVERING\000"
ARM GAS  C:\Users\RECEPC~1\AppData\Local\Temp\cc6Stwwd.s 			page 407


 19064      454C4956 
 19064      4552494E 
 19064      4700
 19065              	.LASF84:
 19066 0afe 73616C65 		.ascii	"saleNumber\000"
 19066      4E756D62 
 19066      657200
 19067              	.LASF171:
 19068 0b09 696E6954 		.ascii	"iniText\000"
 19068      65787400 
 19069              	.LASF209:
 19070 0b11 70707578 		.ascii	"ppux10\000"
 19070      313000
 19071              	.LASF19:
 19072 0b18 646F7562 		.ascii	"double\000"
 19072      6C6500
 19073              	.LASF102:
 19074 0b1f 44495350 		.ascii	"DISPLAY_PASSWORD_VALIDO\000"
 19074      4C41595F 
 19074      50415353 
 19074      574F5244 
 19074      5F56414C 
 19075              	.LASF214:
 19076 0b37 72657369 		.ascii	"residue\000"
 19076      64756500 
 19077              	.LASF94:
 19078 0b3f 44495350 		.ascii	"DISPLAY_SELECCIONE_PRODUCTO3\000"
 19078      4C41595F 
 19078      53454C45 
 19078      4343494F 
 19078      4E455F50 
 19079              	.LASF95:
 19080 0b5c 44495350 		.ascii	"DISPLAY_SELECCIONE_PRODUCTO4\000"
 19080      4C41595F 
 19080      53454C45 
 19080      4343494F 
 19080      4E455F50 
 19081              	.LASF103:
 19082 0b79 44495350 		.ascii	"DISPLAY_PASSWORD_INVALIDO\000"
 19082      4C41595F 
 19082      50415353 
 19082      574F5244 
 19082      5F494E56 
 19083              	.LASF320:
 19084 0b93 746F7563 		.ascii	"touch_write\000"
 19084      685F7772 
 19084      69746500 
 19085              	.LASF191:
 19086 0b9f 49544D5F 		.ascii	"ITM_RxBuffer\000"
 19086      52784275 
 19086      66666572 
 19086      00
 19087              	.LASF218:
 19088 0bac 666C6167 		.ascii	"flagResetMux\000"
 19088      52657365 
 19088      744D7578 
 19088      00
ARM GAS  C:\Users\RECEPC~1\AppData\Local\Temp\cc6Stwwd.s 			page 408


 19089              	.LASF147:
 19090 0bb9 50554D50 		.ascii	"PUMP_CALLING\000"
 19090      5F43414C 
 19090      4C494E47 
 19090      00
 19091              	.LASF18:
 19092 0bc6 666C6F61 		.ascii	"float\000"
 19092      7400
 19093              	.LASF73:
 19094 0bcc 766F6C75 		.ascii	"volumeSale\000"
 19094      6D655361 
 19094      6C6500
 19095              	.LASF235:
 19096 0bd7 4D6F6E65 		.ascii	"MoneyDec\000"
 19096      79446563 
 19096      00
 19097              	.LASF66:
 19098 0be0 73686966 		.ascii	"shiftId\000"
 19098      74496400 
 19099              	.LASF11:
 19100 0be8 756E7369 		.ascii	"unsigned int\000"
 19100      676E6564 
 19100      20696E74 
 19100      00
 19101              	.LASF108:
 19102 0bf5 44495350 		.ascii	"DISPLAY_ID_NO_RECONOCIDO\000"
 19102      4C41595F 
 19102      49445F4E 
 19102      4F5F5245 
 19102      434F4E4F 
 19103              	.LASF207:
 19104 0c0e 64656C61 		.ascii	"delayPicture1\000"
 19104      79506963 
 19104      74757265 
 19104      3100
 19105              	.LASF208:
 19106 0c1c 64656C61 		.ascii	"delayPicture2\000"
 19106      79506963 
 19106      74757265 
 19106      3200
 19107              	.LASF69:
 19108 0c2a 706F7369 		.ascii	"position\000"
 19108      74696F6E 
 19108      00
 19109              	.LASF99:
 19110 0c33 44495350 		.ascii	"DISPLAY_DIGITE_PLACA\000"
 19110      4C41595F 
 19110      44494749 
 19110      54455F50 
 19110      4C414341 
 19111              	.LASF38:
 19112 0c48 73616C65 		.ascii	"salePerform\000"
 19112      50657266 
 19112      6F726D00 
 19113              	.LASF292:
 19114 0c54 6973725F 		.ascii	"isr_4_StartEx\000"
 19114      345F5374 
ARM GAS  C:\Users\RECEPC~1\AppData\Local\Temp\cc6Stwwd.s 			page 409


 19114      61727445 
 19114      7800
 19115              	.LASF23:
 19116 0c62 63797374 		.ascii	"cystatus\000"
 19116      61747573 
 19116      00
 19117              	.LASF261:
 19118 0c6b 62756666 		.ascii	"buffer_txPreset\000"
 19118      65725F74 
 19118      78507265 
 19118      73657400 
 19119              	.LASF304:
 19120 0c7b 50756D70 		.ascii	"PumpCompleteConfiguration\000"
 19120      436F6D70 
 19120      6C657465 
 19120      436F6E66 
 19120      69677572 
 19121              	.LASF40:
 19122 0c95 70726573 		.ascii	"presetValue\000"
 19122      65745661 
 19122      6C756500 
 19123              	.LASF33:
 19124 0ca1 6B657962 		.ascii	"keyboardWayToPay\000"
 19124      6F617264 
 19124      57617954 
 19124      6F506179 
 19124      00
 19125              	.LASF157:
 19126 0cb2 52465F43 		.ascii	"RF_CREDITSALEAUTH\000"
 19126      52454449 
 19126      5453414C 
 19126      45415554 
 19126      4800
 19127              	.LASF48:
 19128 0cc4 746F7461 		.ascii	"totalMoneyAfter\000"
 19128      6C4D6F6E 
 19128      65794166 
 19128      74657200 
 19129              	.LASF160:
 19130 0cd4 52465F45 		.ascii	"RF_ERROR\000"
 19130      52524F52 
 19130      00
 19131              	.LASF237:
 19132 0cdd 50505544 		.ascii	"PPUDec\000"
 19132      656300
 19133              	.LASF260:
 19134 0ce4 62756666 		.ascii	"buffer_print\000"
 19134      65725F70 
 19134      72696E74 
 19134      00
 19135              	.LASF276:
 19136 0cf1 4D757856 		.ascii	"MuxVersion\000"
 19136      65727369 
 19136      6F6E00
 19137              	.LASF156:
 19138 0cfc 52465F43 		.ascii	"RF_CASHSALEREPORT\000"
 19138      41534853 
ARM GAS  C:\Users\RECEPC~1\AppData\Local\Temp\cc6Stwwd.s 			page 410


 19138      414C4552 
 19138      45504F52 
 19138      5400
 19139              	.LASF141:
 19140 0d0e 44495350 		.ascii	"DISPLAY_SIDE_DUMMY_DISPLAY\000"
 19140      4C41595F 
 19140      53494445 
 19140      5F44554D 
 19140      4D595F44 
 19141              	.LASF319:
 19142 0d29 746F7563 		.ascii	"touch_present\000"
 19142      685F7072 
 19142      6573656E 
 19142      7400
 19143              	.LASF124:
 19144 0d37 44495350 		.ascii	"DISPLAY_CONFIGURAR_FECHA_HORA\000"
 19144      4C41595F 
 19144      434F4E46 
 19144      49475552 
 19144      41525F46 
 19145              	.LASF149:
 19146 0d55 50554D50 		.ascii	"PUMP_BUSY\000"
 19146      5F425553 
 19146      5900
 19147              	.LASF310:
 19148 0d5f 44697370 		.ascii	"Display1_GetRxBufferSize\000"
 19148      6C617931 
 19148      5F476574 
 19148      52784275 
 19148      66666572 
 19149              	.LASF44:
 19150 0d78 74696D65 		.ascii	"timeLiftHandle\000"
 19150      4C696674 
 19150      48616E64 
 19150      6C6500
 19151              	.LASF43:
 19152 0d87 64617465 		.ascii	"dateLiftHandle\000"
 19152      4C696674 
 19152      48616E64 
 19152      6C6500
 19153              	.LASF230:
 19154 0d96 706F6C6C 		.ascii	"pollTotals\000"
 19154      546F7461 
 19154      6C7300
 19155              	.LASF145:
 19156 0da1 50554D50 		.ascii	"PUMP_FAIL\000"
 19156      5F464149 
 19156      4C00
 19157              	.LASF177:
 19158 0dab 44697370 		.ascii	"DisplayMode\000"
 19158      6C61794D 
 19158      6F646500 
 19159              	.LASF252:
 19160 0db7 69645374 		.ascii	"idStation\000"
 19160      6174696F 
 19160      6E00
 19161              	.LASF119:
ARM GAS  C:\Users\RECEPC~1\AppData\Local\Temp\cc6Stwwd.s 			page 411


 19162 0dc1 44495350 		.ascii	"DISPLAY_OPERACION_CANCELADA\000"
 19162      4C41595F 
 19162      4F504552 
 19162      4143494F 
 19162      4E5F4341 
 19163              	.LASF114:
 19164 0ddd 44495350 		.ascii	"DISPLAY_OPERACIONES\000"
 19164      4C41595F 
 19164      4F504552 
 19164      4143494F 
 19164      4E455300 
 19165              	.LASF151:
 19166 0df1 50554D50 		.ascii	"PUMP_FEOT\000"
 19166      5F46454F 
 19166      5400
 19167              	.LASF36:
 19168 0dfb 76656869 		.ascii	"vehicleType\000"
 19168      636C6554 
 19168      79706500 
 19169              	.LASF172:
 19170 0e07 556E6974 		.ascii	"Unit\000"
 19170      00
 19171              	.LASF87:
 19172 0e0c 44495350 		.ascii	"DISPLAY_INICIO0\000"
 19172      4C41595F 
 19172      494E4943 
 19172      494F3000 
 19173              	.LASF24:
 19174 0e1c 63796973 		.ascii	"cyisraddress\000"
 19174      72616464 
 19174      72657373 
 19174      00
 19175              	.LASF234:
 19176 0e29 436F6E76 		.ascii	"ConversionFactor\000"
 19176      65727369 
 19176      6F6E4661 
 19176      63746F72 
 19176      00
 19177              	.LASF109:
 19178 0e3a 44495350 		.ascii	"DISPLAY_ESPERANDO_ID\000"
 19178      4C41595F 
 19178      45535045 
 19178      52414E44 
 19178      4F5F4944 
 19179              	.LASF78:
 19180 0e4f 686F7365 		.ascii	"hoseNumber\000"
 19180      4E756D62 
 19180      657200
 19181              	.LASF293:
 19182 0e5a 57616974 		.ascii	"Waitable_3_Start\000"
 19182      61626C65 
 19182      5F335F53 
 19182      74617274 
 19182      00
 19183              	.LASF90:
 19184 0e6b 44495350 		.ascii	"DISPLAY_FORMA_PAGO_DESEADA\000"
 19184      4C41595F 
ARM GAS  C:\Users\RECEPC~1\AppData\Local\Temp\cc6Stwwd.s 			page 412


 19184      464F524D 
 19184      415F5041 
 19184      474F5F44 
 19185              	.LASF10:
 19186 0e86 6C6F6E67 		.ascii	"long long unsigned int\000"
 19186      206C6F6E 
 19186      6720756E 
 19186      7369676E 
 19186      65642069 
 19187              	.LASF285:
 19188 0e9d 44697370 		.ascii	"Display2_Start\000"
 19188      6C617932 
 19188      5F537461 
 19188      727400
 19189              	.LASF331:
 19190 0eac 43795764 		.ascii	"CyWdtStart\000"
 19190      74537461 
 19190      727400
 19191              	.LASF13:
 19192 0eb7 75696E74 		.ascii	"uint16_t\000"
 19192      31365F74 
 19192      00
 19193              	.LASF49:
 19194 0ec0 746F7461 		.ascii	"totalVolumeAfter\000"
 19194      6C566F6C 
 19194      756D6541 
 19194      66746572 
 19194      00
 19195              	.LASF296:
 19196 0ed1 45455052 		.ascii	"EEPROM_1_ReadByte\000"
 19196      4F4D5F31 
 19196      5F526561 
 19196      64427974 
 19196      6500
 19197              	.LASF206:
 19198 0ee3 70726F64 		.ascii	"productNumber\000"
 19198      7563744E 
 19198      756D6265 
 19198      7200
 19199              	.LASF150:
 19200 0ef1 50554D50 		.ascii	"PUMP_PEOT\000"
 19200      5F50454F 
 19200      5400
 19201              	.LASF277:
 19202 0efb 70617373 		.ascii	"passwordPump\000"
 19202      776F7264 
 19202      50756D70 
 19202      00
 19203              	.LASF243:
 19204 0f08 68696464 		.ascii	"hiddenKeys\000"
 19204      656E4B65 
 19204      797300
 19205              	.LASF64:
 19206 0f13 666C6167 		.ascii	"flagPrint\000"
 19206      5072696E 
 19206      7400
 19207              	.LASF204:
ARM GAS  C:\Users\RECEPC~1\AppData\Local\Temp\cc6Stwwd.s 			page 413


 19208 0f1d 666C6167 		.ascii	"flagPoint1\000"
 19208      506F696E 
 19208      743100
 19209              	.LASF205:
 19210 0f28 666C6167 		.ascii	"flagPoint2\000"
 19210      506F696E 
 19210      743200
 19211              	.LASF337:
 19212 0f33 433A5C55 		.ascii	"C:\\Users\\Recepcion\\Documents\\GitHub\\NSY-DH\\Wo"
 19212      73657273 
 19212      5C526563 
 19212      65706369 
 19212      6F6E5C44 
 19213 0f60 726B7370 		.ascii	"rkspace01\\Design01.cydsn\000"
 19213      61636530 
 19213      315C4465 
 19213      7369676E 
 19213      30312E63 
 19214              	.LASF294:
 19215 0f79 57616974 		.ascii	"Waitable_4_Start\000"
 19215      61626C65 
 19215      5F345F53 
 19215      74617274 
 19215      00
 19216              	.LASF262:
 19217 0f8a 62756666 		.ascii	"buffer_txEOT\000"
 19217      65725F74 
 19217      78454F54 
 19217      00
 19218              	.LASF222:
 19219 0f97 49444361 		.ascii	"IDCast\000"
 19219      737400
 19220              	.LASF211:
 19221 0f9e 74696D65 		.ascii	"time\000"
 19221      00
 19222              	.LASF326:
 19223 0fa3 6973725F 		.ascii	"isr_4_Stop\000"
 19223      345F5374 
 19223      6F7000
 19224              	.LASF97:
 19225 0fae 44495350 		.ascii	"DISPLAY_DESPACHANDO\000"
 19225      4C41595F 
 19225      44455350 
 19225      41434841 
 19225      4E444F00 
 19226              	.LASF125:
 19227 0fc2 44495350 		.ascii	"DISPLAY_HORA\000"
 19227      4C41595F 
 19227      484F5241 
 19227      00
 19228              	.LASF166:
 19229 0fcf 74696D65 		.ascii	"timerLCD\000"
 19229      724C4344 
 19229      00
 19230              	.LASF236:
 19231 0fd8 566F6C44 		.ascii	"VolDec\000"
 19231      656300
ARM GAS  C:\Users\RECEPC~1\AppData\Local\Temp\cc6Stwwd.s 			page 414


 19232              	.LASF161:
 19233 0fdf 52465F43 		.ascii	"RF_COPY_RECEIPT\000"
 19233      4F50595F 
 19233      52454345 
 19233      49505400 
 19234              	.LASF112:
 19235 0fef 44495350 		.ascii	"DISPLAY_INTRODUZCA_VOLUMEN\000"
 19235      4C41595F 
 19235      494E5452 
 19235      4F44555A 
 19235      43415F56 
 19236              	.LASF34:
 19237 100a 61757468 		.ascii	"authorizationFlag\000"
 19237      6F72697A 
 19237      6174696F 
 19237      6E466C61 
 19237      6700
 19238              	.LASF279:
 19239 101c 54696D65 		.ascii	"Timer_Animacion2_ReadStatusRegister\000"
 19239      725F416E 
 19239      696D6163 
 19239      696F6E32 
 19239      5F526561 
 19240              	.LASF77:
 19241 1040 686F7365 		.ascii	"hose\000"
 19241      00
 19242              	.LASF130:
 19243 1045 44495350 		.ascii	"DISPLAY_CANCELADO_X_PC\000"
 19243      4C41595F 
 19243      43414E43 
 19243      454C4144 
 19243      4F5F585F 
 19244              	.LASF226:
 19245 105c 74656D70 		.ascii	"tempPreset\000"
 19245      50726573 
 19245      657400
 19246              	.LASF15:
 19247 1067 75696E74 		.ascii	"uint8\000"
 19247      3800
 19248              	.LASF305:
 19249 106d 77726974 		.ascii	"write_psoc1\000"
 19249      655F7073 
 19249      6F633100 
 19250              	.LASF298:
 19251 1079 53686F77 		.ascii	"ShowMessage\000"
 19251      4D657373 
 19251      61676500 
 19252              	.LASF2:
 19253 1085 73686F72 		.ascii	"short int\000"
 19253      7420696E 
 19253      7400
 19254              	.LASF136:
 19255 108f 44495350 		.ascii	"DISPLAY_PRECIO_POR_UNIDAD\000"
 19255      4C41595F 
 19255      50524543 
 19255      494F5F50 
 19255      4F525F55 
ARM GAS  C:\Users\RECEPC~1\AppData\Local\Temp\cc6Stwwd.s 			page 415


 19256              	.LASF330:
 19257 10a9 44697370 		.ascii	"Display2_ClearRxBuffer\000"
 19257      6C617932 
 19257      5F436C65 
 19257      61725278 
 19257      42756666 
 19258              	.LASF142:
 19259 10c0 44495350 		.ascii	"DISPLAY_NULL\000"
 19259      4C41595F 
 19259      4E554C4C 
 19259      00
 19260              	.LASF245:
 19261 10cd 566F6C55 		.ascii	"VolUnit\000"
 19261      6E697400 
 19262              	.LASF333:
 19263 10d5 706F6C6C 		.ascii	"pollingRF_Rx\000"
 19263      696E6752 
 19263      465F5278 
 19263      00
 19264              	.LASF76:
 19265 10e2 61637469 		.ascii	"activeHose\000"
 19265      7665486F 
 19265      736500
 19266              	.LASF325:
 19267 10ed 6C656572 		.ascii	"leer_fecha\000"
 19267      5F666563 
 19267      686100
 19268              	.LASF227:
 19269 10f8 74656D70 		.ascii	"tempPPU\000"
 19269      50505500 
 19270              	.LASF283:
 19271 1100 50756D70 		.ascii	"Pump_Start\000"
 19271      5F537461 
 19271      727400
 19272              	.LASF53:
 19273 110b 6964656E 		.ascii	"identySale\000"
 19273      74795361 
 19273      6C6500
 19274              	.LASF215:
 19275 1116 69645365 		.ascii	"idSeller\000"
 19275      6C6C6572 
 19275      00
 19276              	.LASF190:
 19277 111f 44697370 		.ascii	"Display2_rxBuffer\000"
 19277      6C617932 
 19277      5F727842 
 19277      75666665 
 19277      7200
 19278              	.LASF74:
 19279 1131 70707553 		.ascii	"ppuSale\000"
 19279      616C6500 
 19280              	.LASF111:
 19281 1139 44495350 		.ascii	"DISPLAY_INTRODUZCA_CEDULA\000"
 19281      4C41595F 
 19281      494E5452 
 19281      4F44555A 
 19281      43415F43 
ARM GAS  C:\Users\RECEPC~1\AppData\Local\Temp\cc6Stwwd.s 			page 416


 19282              	.LASF85:
 19283 1153 70756D70 		.ascii	"pump\000"
 19283      00
 19284              	.LASF250:
 19285 1158 636F6E66 		.ascii	"configAccess\000"
 19285      69674163 
 19285      63657373 
 19285      00
 19286              	.LASF288:
 19287 1165 52465F43 		.ascii	"RF_Connection_Start\000"
 19287      6F6E6E65 
 19287      6374696F 
 19287      6E5F5374 
 19287      61727400 
 19288              	.LASF165:
 19289 1179 74696D65 		.ascii	"timerRFRX\000"
 19289      72524652 
 19289      5800
 19290              	.LASF248:
 19291 1183 636F756E 		.ascii	"count_protector\000"
 19291      745F7072 
 19291      6F746563 
 19291      746F7200 
 19292              	.LASF253:
 19293 1193 70756D70 		.ascii	"pumpGap\000"
 19293      47617000 
 19294              	.LASF194:
 19295 119b 636F756E 		.ascii	"countRX\000"
 19295      74525800 
 19296              	.LASF146:
 19297 11a3 50554D50 		.ascii	"PUMP_IDLE\000"
 19297      5F49444C 
 19297      4500
 19298              	.LASF176:
 19299 11ad 44697370 		.ascii	"DisplayMode0\000"
 19299      6C61794D 
 19299      6F646530 
 19299      00
 19300              	.LASF52:
 19301 11ba 6D696C65 		.ascii	"mileageSale\000"
 19301      61676553 
 19301      616C6500 
 19302              	.LASF178:
 19303 11c6 44697370 		.ascii	"DisplayMode2\000"
 19303      6C61794D 
 19303      6F646532 
 19303      00
 19304              	.LASF179:
 19305 11d3 44697370 		.ascii	"DisplayMode3\000"
 19305      6C61794D 
 19305      6F646533 
 19305      00
 19306              	.LASF295:
 19307 11e0 45455052 		.ascii	"EEPROM_1_WriteByte\000"
 19307      4F4D5F31 
 19307      5F577269 
 19307      74654279 
ARM GAS  C:\Users\RECEPC~1\AppData\Local\Temp\cc6Stwwd.s 			page 417


 19307      746500
 19308              	.LASF47:
 19309 11f3 746F7461 		.ascii	"totalPPUPrevious\000"
 19309      6C505055 
 19309      50726576 
 19309      696F7573 
 19309      00
 19310              	.LASF127:
 19311 1204 44495350 		.ascii	"DISPLAY_OPCION_TURNO\000"
 19311      4C41595F 
 19311      4F504349 
 19311      4F4E5F54 
 19311      55524E4F 
 19312              	.LASF72:
 19313 1219 6D6F6E65 		.ascii	"moneySale\000"
 19313      7953616C 
 19313      6500
 19314              	.LASF247:
 19315 1223 74696D65 		.ascii	"timeDownHandle\000"
 19315      446F776E 
 19315      48616E64 
 19315      6C6500
 19316              	.LASF41:
 19317 1232 70726F64 		.ascii	"productType\000"
 19317      75637454 
 19317      79706500 
 19318              	.LASF28:
 19319 123e 77617954 		.ascii	"wayToPay\000"
 19319      6F506179 
 19319      00
 19320              	.LASF246:
 19321 1247 64617465 		.ascii	"dateDownHandle\000"
 19321      446F776E 
 19321      48616E64 
 19321      6C6500
 19322              	.LASF287:
 19323 1256 4932435F 		.ascii	"I2C_Bus_Start\000"
 19323      4275735F 
 19323      53746172 
 19323      7400
 19324              	.LASF299:
 19325 1264 43794465 		.ascii	"CyDelay\000"
 19325      6C617900 
 19326              	.LASF249:
 19327 126c 636F756E 		.ascii	"count_protector2\000"
 19327      745F7072 
 19327      6F746563 
 19327      746F7232 
 19327      00
 19328              	.LASF336:
 19329 127d 2E5C6D61 		.ascii	".\\main.c\000"
 19329      696E2E63 
 19329      00
 19330              	.LASF329:
 19331 1286 44697370 		.ascii	"Display2_GetRxBufferSize\000"
 19331      6C617932 
 19331      5F476574 
ARM GAS  C:\Users\RECEPC~1\AppData\Local\Temp\cc6Stwwd.s 			page 418


 19331      52784275 
 19331      66666572 
 19332              	.LASF195:
 19333 129f 636F756E 		.ascii	"countTX\000"
 19333      74545800 
 19334              	.LASF5:
 19335 12a7 73686F72 		.ascii	"short unsigned int\000"
 19335      7420756E 
 19335      7369676E 
 19335      65642069 
 19335      6E7400
 19336              	.LASF316:
 19337 12ba 50726573 		.ascii	"PresetData\000"
 19337      65744461 
 19337      746100
 19338              	.LASF144:
 19339 12c5 5F50554D 		.ascii	"_PUMP_STATES_\000"
 19339      505F5354 
 19339      41544553 
 19339      5F00
 19340              	.LASF6:
 19341 12d3 5F5F696E 		.ascii	"__int32_t\000"
 19341      7433325F 
 19341      7400
 19342              	.LASF148:
 19343 12dd 50554D50 		.ascii	"PUMP_AUTHORIZED\000"
 19343      5F415554 
 19343      484F5249 
 19343      5A454400 
 19344              	.LASF173:
 19345 12ed 556E6974 		.ascii	"Unit2\000"
 19345      3200
 19346              	.LASF174:
 19347 12f3 556E6974 		.ascii	"Unit3\000"
 19347      3300
 19348              	.LASF175:
 19349 12f9 556E6974 		.ascii	"Unit4\000"
 19349      3400
 19350              	.LASF54:
 19351 12ff 666C6167 		.ascii	"flagKeyboard\000"
 19351      4B657962 
 19351      6F617264 
 19351      00
 19352              	.LASF297:
 19353 130c 53657450 		.ascii	"SetPicture\000"
 19353      69637475 
 19353      726500
 19354              	.LASF275:
 19355 1317 73696465 		.ascii	"side\000"
 19355      00
 19356              	.LASF302:
 19357 131c 50756D70 		.ascii	"PumpIsInValidState\000"
 19357      4973496E 
 19357      56616C69 
 19357      64537461 
 19357      746500
 19358              	.LASF61:
ARM GAS  C:\Users\RECEPC~1\AppData\Local\Temp\cc6Stwwd.s 			page 419


 19359 132f 70726963 		.ascii	"priceConsign\000"
 19359      65436F6E 
 19359      7369676E 
 19359      00
 19360              	.LASF152:
 19361 133c 50554D50 		.ascii	"PUMP_STOPPED\000"
 19361      5F53544F 
 19361      50504544 
 19361      00
 19362              	.LASF223:
 19363 1349 41637469 		.ascii	"ActiveRF\000"
 19363      76655246 
 19363      00
 19364              	.LASF81:
 19365 1352 6368616E 		.ascii	"changePPU\000"
 19365      67655050 
 19365      5500
 19366              	.LASF182:
 19367 135c 5072696E 		.ascii	"PrintTest\000"
 19367      74546573 
 19367      7400
 19368              	.LASF229:
 19369 1366 53686966 		.ascii	"ShiftState\000"
 19369      74537461 
 19369      746500
 19370              	.LASF16:
 19371 1371 75696E74 		.ascii	"uint16\000"
 19371      313600
 19372              	.LASF284:
 19373 1378 44697370 		.ascii	"Display1_Start\000"
 19373      6C617931 
 19373      5F537461 
 19373      727400
 19374              	.LASF220:
 19375 1387 50726576 		.ascii	"PrevStatePump\000"
 19375      53746174 
 19375      6550756D 
 19375      7000
 19376              	.LASF123:
 19377 1395 44495350 		.ascii	"DISPLAY_AUTORIZACION_RECHAZADA\000"
 19377      4C41595F 
 19377      4155544F 
 19377      52495A41 
 19377      43494F4E 
 19378              		.ident	"GCC: (GNU Tools for ARM Embedded Processors) 4.9.3 20150303 (release) [ARM/embedded-4_9-br
