ARM GAS  C:\Users\RECEPC~1\AppData\Local\Temp\cc79eMMA.s 			page 1


   1              		.syntax unified
   2              		.cpu cortex-m3
   3              		.fpu softvfp
   4              		.eabi_attribute 20, 1
   5              		.eabi_attribute 21, 1
   6              		.eabi_attribute 23, 3
   7              		.eabi_attribute 24, 1
   8              		.eabi_attribute 25, 1
   9              		.eabi_attribute 26, 1
  10              		.eabi_attribute 30, 1
  11              		.eabi_attribute 34, 1
  12              		.eabi_attribute 18, 4
  13              		.thumb
  14              		.file	"main.c"
  15              		.text
  16              	.Ltext0:
  17              		.cfi_sections	.debug_frame
  18              		.section	.text.animacion,"ax",%progbits
  19              		.align	2
  20              		.global	animacion
  21              		.thumb
  22              		.thumb_func
  23              		.type	animacion, %function
  24              	animacion:
  25              	.LFB73:
  26              		.file 1 ".\\main.c"
   1:.\main.c      **** /* ========================================
   2:.\main.c      ****  *
   3:.\main.c      ****  * Copyright YOUR COMPANY, THE YEAR
   4:.\main.c      ****  * All Rights Reserved
   5:.\main.c      ****  * UNPUBLISHED, LICENSED SOFTWARE.
   6:.\main.c      ****  *
   7:.\main.c      ****  * CONFIDENTIAL AND PROPRIETARY INFORMATION
   8:.\main.c      ****  * WHICH IS THE PROPERTY OF your company.
   9:.\main.c      ****  *
  10:.\main.c      ****  * ========================================
  11:.\main.c      **** */
  12:.\main.c      **** #include <project.h>
  13:.\main.c      **** #include <protocol.h>
  14:.\main.c      **** #include <variables.h>
  15:.\main.c      **** #include <keyboard.h>
  16:.\main.c      **** #include <ibutton.h>
  17:.\main.c      **** #include <RFPoll.h>
  18:.\main.c      **** #include <LCD.h>
  19:.\main.c      **** #include <I2C.h>
  20:.\main.c      **** #include <Print.h>
  21:.\main.c      **** #include <device.h>
  22:.\main.c      **** #include <string.h>
  23:.\main.c      **** #include <stdio.h>
  24:.\main.c      **** #include <stdlib.h>
  25:.\main.c      **** 
  26:.\main.c      **** /**********************************/
  27:.\main.c      **** 
  28:.\main.c      **** uint8 MuxVersion [10] = "MUX V. 1.0";
  29:.\main.c      **** uint8 passwordPump[5] = "00204";  
  30:.\main.c      **** 
  31:.\main.c      **** 
ARM GAS  C:\Users\RECEPC~1\AppData\Local\Temp\cc79eMMA.s 			page 2


  32:.\main.c      ****       
  33:.\main.c      **** CY_ISR(animacion2);
  34:.\main.c      **** CY_ISR(animacion);
  35:.\main.c      **** CY_ISR(timerPump);
  36:.\main.c      **** CY_ISR(timerRFRX);
  37:.\main.c      **** void GlobalInitializer()
  38:.\main.c      **** {
  39:.\main.c      ****     EEPROM_1_Start();
  40:.\main.c      ****     Pump_Start(); 
  41:.\main.c      ****     Display1_Start();
  42:.\main.c      ****     Display2_Start();    
  43:.\main.c      ****     Printer_Start();   
  44:.\main.c      ****     I2C_Bus_Start();
  45:.\main.c      ****     RF_Connection_Start();
  46:.\main.c      ****     isr_1_StartEx(timerRFRX); 
  47:.\main.c      ****     Waitable_3_Start();
  48:.\main.c      ****     isr_2_StartEx(timerPump); 
  49:.\main.c      ****     Waitable_4_Start();
  50:.\main.c      **** }
  51:.\main.c      **** void StoreConfiguration(){
  52:.\main.c      ****     EEPROM_1_WriteByte(UnitType,0);
  53:.\main.c      ****     EEPROM_1_WriteByte(ConversionFactor,1);
  54:.\main.c      ****     EEPROM_1_WriteByte(MoneyDec,2);
  55:.\main.c      ****     EEPROM_1_WriteByte(VolDec,3);
  56:.\main.c      ****     EEPROM_1_WriteByte(PPUDec,4);
  57:.\main.c      ****     EEPROM_1_WriteByte(DDMode,5);
  58:.\main.c      ****     EEPROM_1_WriteByte(digits,6); 
  59:.\main.c      ****     EEPROM_1_WriteByte(side.a.dir,12);
  60:.\main.c      ****     EEPROM_1_WriteByte(side.b.dir,13);
  61:.\main.c      ****     EEPROM_1_WriteByte(side.c.dir,14);
  62:.\main.c      ****     EEPROM_1_WriteByte(side.d.dir,15);
  63:.\main.c      **** }
  64:.\main.c      **** void loadConfiguration(){
  65:.\main.c      ****     uint8 x;
  66:.\main.c      ****     MoneyDec   = EEPROM_1_ReadByte(2);
  67:.\main.c      ****     VolDec     = EEPROM_1_ReadByte(3);
  68:.\main.c      ****     PPUDec     = EEPROM_1_ReadByte(4);
  69:.\main.c      ****     DDMode     = EEPROM_1_ReadByte(5);
  70:.\main.c      ****     digits     = EEPROM_1_ReadByte(6);
  71:.\main.c      ****     lockTurn   = EEPROM_1_ReadByte(7);  //Fijo turno abierto para pruebas
  72:.\main.c      ****     printPortA = EEPROM_1_ReadByte(8);  //Puertos de impresion
  73:.\main.c      ****     printPortB = EEPROM_1_ReadByte(9); //Puertos de impresion
  74:.\main.c      ****     IDCast[0]  = EEPROM_1_ReadByte(10); //ID Estacion1
  75:.\main.c      ****     IDCast[1]  = EEPROM_1_ReadByte(11); //ID Estacion2    
  76:.\main.c      ****     passwordPump[0] = 0x04;
  77:.\main.c      ****     configAccess[0] = 0x04; 
  78:.\main.c      ****     side.a.dir = EEPROM_1_ReadByte(12);
  79:.\main.c      ****     side.b.dir = EEPROM_1_ReadByte(13);
  80:.\main.c      ****     side.c.dir = EEPROM_1_ReadByte(14);
  81:.\main.c      ****     side.d.dir = EEPROM_1_ReadByte(15);
  82:.\main.c      **** //    for(x=0; x<30;x++){
  83:.\main.c      **** //        Encabezado1[x]=EEPROM_1_ReadByte(16+x);
  84:.\main.c      **** //    }
  85:.\main.c      **** //    for(x=30; x<60;x++){
  86:.\main.c      **** //        Encabezado2[x]=EEPROM_1_ReadByte(16+x);
  87:.\main.c      **** //    }
  88:.\main.c      **** //    for(x=60; x<90;x++){
ARM GAS  C:\Users\RECEPC~1\AppData\Local\Temp\cc79eMMA.s 			page 3


  89:.\main.c      **** //        Encabezado3[x]=EEPROM_1_ReadByte(16+x);
  90:.\main.c      **** //    }
  91:.\main.c      **** //    for(x=90; x<120;x++){
  92:.\main.c      **** //        Encabezado4[x]=EEPROM_1_ReadByte(16+x);
  93:.\main.c      **** //    }
  94:.\main.c      **** }
  95:.\main.c      **** 
  96:.\main.c      **** 
  97:.\main.c      **** /*
  98:.\main.c      **** ***************************************************************************************************
  99:.\main.c      **** *                                         void InitDisplay1(void)
 100:.\main.c      **** *
 101:.\main.c      **** * Description : Pregunta configuraciones al dispensador 
 102:.\main.c      **** *               
 103:.\main.c      **** *
 104:.\main.c      **** ***************************************************************************************************
 105:.\main.c      **** */
 106:.\main.c      **** void InitDisplay1(){      
 107:.\main.c      ****     uint8_t iniText[10]="Iniciando"; 
 108:.\main.c      ****     uint8_t Unit[10] = "S/D/Dupla ";
 109:.\main.c      ****     uint8_t Unit2[10] = "Quadrupla";
 110:.\main.c      ****     uint8_t Unit3[10] = "Sextupla";
 111:.\main.c      ****     uint8_t Unit4[10] = "Octupla";
 112:.\main.c      ****     uint8_t DisplayMode0[10] = "5-5-4     ";
 113:.\main.c      ****     uint8_t DisplayMode[10] = "6-6-4     ";
 114:.\main.c      ****     uint8_t DisplayMode2[10] = "7-7-5     ";
 115:.\main.c      ****     uint8_t DisplayMode3[10] = "8-7-5     ";
 116:.\main.c      ****     if(NumPositions == 2){
 117:.\main.c      ****         SetPicture(1,DISPLAY_INICIO0);         
 118:.\main.c      ****         ShowMessage(1,iniText,0);    
 119:.\main.c      ****         CyDelay(300);
 120:.\main.c      ****         if(UnitType == 0){
 121:.\main.c      ****             side.a.hoseNumber = UnitType+1;
 122:.\main.c      ****             side.b.hoseNumber = UnitType+1;
 123:.\main.c      ****             ShowMessage(1,Unit,0);  //Mostrar tipo de dispensador      
 124:.\main.c      ****         }
 125:.\main.c      ****         if(UnitType == 1){
 126:.\main.c      ****             side.a.hoseNumber = UnitType+1;
 127:.\main.c      ****             side.b.hoseNumber = UnitType+1;
 128:.\main.c      ****             ShowMessage(1,Unit2,0);
 129:.\main.c      ****         }
 130:.\main.c      ****         if(UnitType == 2){
 131:.\main.c      ****             side.a.hoseNumber = UnitType+1;
 132:.\main.c      ****             side.b.hoseNumber = UnitType+1;
 133:.\main.c      ****             ShowMessage(1,Unit3,0);
 134:.\main.c      ****         }
 135:.\main.c      ****         if(UnitType == 3){
 136:.\main.c      ****             side.a.hoseNumber = UnitType+1;
 137:.\main.c      ****             side.b.hoseNumber = UnitType+1;
 138:.\main.c      ****             ShowMessage(1,Unit4,0);
 139:.\main.c      ****         } 
 140:.\main.c      ****         if(DDMode == 0){
 141:.\main.c      ****             ShowMessage(1,DisplayMode0,22); //Mostrar modo de display
 142:.\main.c      ****             digits = 5;
 143:.\main.c      ****         }
 144:.\main.c      ****         if(DDMode == 1){
 145:.\main.c      ****             ShowMessage(1,DisplayMode,22); //Mostrar modo de display
ARM GAS  C:\Users\RECEPC~1\AppData\Local\Temp\cc79eMMA.s 			page 4


 146:.\main.c      ****             digits = 6;
 147:.\main.c      ****         }
 148:.\main.c      ****         if(DDMode == 2){
 149:.\main.c      ****            ShowMessage(1,DisplayMode2,22);
 150:.\main.c      ****             digits = 7;
 151:.\main.c      ****         }
 152:.\main.c      ****         if(DDMode == 3){
 153:.\main.c      ****             ShowMessage(1,DisplayMode3,22);
 154:.\main.c      ****             digits = 8;
 155:.\main.c      ****         }        
 156:.\main.c      ****     }
 157:.\main.c      ****     if(NumPositions == 4){
 158:.\main.c      ****         SetPicture(1,DISPLAY_SELECCIONE_POSICION);        
 159:.\main.c      ****         ShowMessage(1,iniText,0);    
 160:.\main.c      ****         CyDelay(300);
 161:.\main.c      ****         if(UnitType == 0){
 162:.\main.c      ****             side.a.hoseNumber = UnitType+1;
 163:.\main.c      ****             side.b.hoseNumber = UnitType+1;
 164:.\main.c      ****             side.c.hoseNumber = UnitType+1;
 165:.\main.c      ****             side.d.hoseNumber = UnitType+1;
 166:.\main.c      ****             ShowMessage(1,Unit,0);  //Mostrar tipo de dispensador      
 167:.\main.c      ****         }
 168:.\main.c      ****         if(UnitType == 1){
 169:.\main.c      ****             side.a.hoseNumber = UnitType+1;
 170:.\main.c      ****             side.b.hoseNumber = UnitType+1;
 171:.\main.c      ****             side.c.hoseNumber = UnitType+1;
 172:.\main.c      ****             side.d.hoseNumber = UnitType+1;
 173:.\main.c      ****             ShowMessage(1,Unit2,0);
 174:.\main.c      ****         }
 175:.\main.c      ****         if(UnitType == 2){
 176:.\main.c      ****             side.a.hoseNumber = UnitType+1;
 177:.\main.c      ****             side.b.hoseNumber = UnitType+1;
 178:.\main.c      ****             side.c.hoseNumber = UnitType+1;
 179:.\main.c      ****             side.d.hoseNumber = UnitType+1;
 180:.\main.c      ****            ShowMessage(1,Unit3,0);
 181:.\main.c      ****         }
 182:.\main.c      ****         if(UnitType == 3){
 183:.\main.c      ****             side.a.hoseNumber = UnitType+1;
 184:.\main.c      ****             side.b.hoseNumber = UnitType+1;
 185:.\main.c      ****             side.c.hoseNumber = UnitType+1;
 186:.\main.c      ****             side.d.hoseNumber = UnitType+1;
 187:.\main.c      ****             ShowMessage(1,Unit4,0);
 188:.\main.c      ****         }    
 189:.\main.c      ****         if(DDMode == 1){
 190:.\main.c      ****             ShowMessage(1,DisplayMode,22); //Mostrar modo de display
 191:.\main.c      ****         }
 192:.\main.c      ****         if(DDMode == 2){
 193:.\main.c      ****            ShowMessage(1,DisplayMode2,22);
 194:.\main.c      ****         }
 195:.\main.c      ****     }        
 196:.\main.c      ****     if(NumPositions < 2){
 197:.\main.c      ****         SetPicture(1,DISPLAY_ERROR);        
 198:.\main.c      ****     }         
 199:.\main.c      **** }
 200:.\main.c      **** 
 201:.\main.c      **** /*
 202:.\main.c      **** ***************************************************************************************************
ARM GAS  C:\Users\RECEPC~1\AppData\Local\Temp\cc79eMMA.s 			page 5


 203:.\main.c      **** *                                         void InitDisplay1(void)
 204:.\main.c      **** *
 205:.\main.c      **** * Description : Pregunta configuraciones al dispensador 
 206:.\main.c      **** *               
 207:.\main.c      **** *
 208:.\main.c      **** ***************************************************************************************************
 209:.\main.c      **** */
 210:.\main.c      **** void InitDisplay2(){      
 211:.\main.c      ****     if(NumPositions == 2){        
 212:.\main.c      ****         SetPicture(2,DISPLAY_INICIO0);  
 213:.\main.c      ****         flowDisplay2 = 0;
 214:.\main.c      ****     }
 215:.\main.c      ****     if(NumPositions == 4){
 216:.\main.c      ****         SetPicture(2,DISPLAY_SELECCIONE_POSICION);         
 217:.\main.c      ****     }        
 218:.\main.c      ****     if(NumPositions < 2){        
 219:.\main.c      ****         SetPicture(2,DISPLAY_ERROR);
 220:.\main.c      ****     }     
 221:.\main.c      ****     ShowMessage(2,MuxVersion,0);
 222:.\main.c      **** }
 223:.\main.c      **** 
 224:.\main.c      **** /*
 225:.\main.c      **** ***************************************************************************************************
 226:.\main.c      **** *                                         void InitPump(void)
 227:.\main.c      **** *
 228:.\main.c      **** * Description : Pregunta configuraciones al dispensador 
 229:.\main.c      **** *               
 230:.\main.c      **** *
 231:.\main.c      **** ***************************************************************************************************
 232:.\main.c      **** */
 233:.\main.c      **** void InitPump(){        
 234:.\main.c      ****     NumPositions = get_position();
 235:.\main.c      ****     if(NumPositions > 0){
 236:.\main.c      ****         if(!PumpIsInValidState(get_state(side.a.dir))){
 237:.\main.c      ****             SetPicture(1,DISPLAY_ERROR);
 238:.\main.c      ****             SetPicture(2,DISPLAY_ERROR);
 239:.\main.c      ****             NumPositions = 0;
 240:.\main.c      ****         }
 241:.\main.c      ****         if(!PumpIsInValidState(get_state(side.b.dir))){
 242:.\main.c      ****             SetPicture(1,DISPLAY_ERROR);
 243:.\main.c      ****             SetPicture(2,DISPLAY_ERROR);
 244:.\main.c      ****             NumPositions = 0;
 245:.\main.c      ****         }
 246:.\main.c      ****         if(PumpIsInValidState(get_state(side.a.dir)) && PumpIsInValidState(get_state(side.b.dir))){
 247:.\main.c      ****             NumPositions = get_position();
 248:.\main.c      ****             if(get_state(side.a.dir) ==0x06 && get_state(side.b.dir)==0x06){
 249:.\main.c      ****                 PumpCompleteConfiguration(side.a.dir);
 250:.\main.c      ****                 StoreConfiguration();            
 251:.\main.c      ****             }else{
 252:.\main.c      ****                 SetPicture(1,DISPLAY_BAJE_MANIJA);
 253:.\main.c      ****                 SetPicture(2,DISPLAY_BAJE_MANIJA);
 254:.\main.c      ****                 InitPump();                
 255:.\main.c      ****             }
 256:.\main.c      ****         }        
 257:.\main.c      ****     }
 258:.\main.c      ****     
 259:.\main.c      **** }
ARM GAS  C:\Users\RECEPC~1\AppData\Local\Temp\cc79eMMA.s 			page 6


 260:.\main.c      **** /*
 261:.\main.c      **** ***************************************************************************************************
 262:.\main.c      **** *                                         void PrintTest(void)
 263:.\main.c      **** *
 264:.\main.c      **** * Description : Pregunta configuraciones al dispensador 
 265:.\main.c      **** *               
 266:.\main.c      **** *
 267:.\main.c      **** ***************************************************************************************************
 268:.\main.c      **** */
 269:.\main.c      **** void PrintTest(){
 270:.\main.c      ****     uint8 datoA[26]="Test de Impresion Puerto 1";
 271:.\main.c      ****     uint8 datoB[26]="Test de Impresion Puerto 2";
 272:.\main.c      ****     uint8 x;
 273:.\main.c      ****     for(x = 0; x<26;x++){
 274:.\main.c      ****         write_psoc1(1,datoA[x]);
 275:.\main.c      ****     }
 276:.\main.c      ****     write_psoc1(1,10);
 277:.\main.c      ****     write_psoc1(1,10);
 278:.\main.c      ****     write_psoc1(1,10);
 279:.\main.c      ****     write_psoc1(1,10);
 280:.\main.c      ****     write_psoc1(1,10);
 281:.\main.c      ****     write_psoc1(1,10);
 282:.\main.c      ****     for(x = 0; x<26;x++){
 283:.\main.c      ****         write_psoc1(2,datoB[x]);
 284:.\main.c      ****     }
 285:.\main.c      ****     write_psoc1(2,10);
 286:.\main.c      ****     write_psoc1(2,10);
 287:.\main.c      ****     write_psoc1(2,10);
 288:.\main.c      ****     write_psoc1(2,10);
 289:.\main.c      ****     write_psoc1(2,10);
 290:.\main.c      ****     write_psoc1(2,10);
 291:.\main.c      **** }
 292:.\main.c      **** 
 293:.\main.c      **** /*
 294:.\main.c      **** ***************************************************************************************************
 295:.\main.c      **** *                                         void polling_Pump(void)
 296:.\main.c      **** *
 297:.\main.c      **** * Description : Pregunta estado al surtidor 
 298:.\main.c      **** *               
 299:.\main.c      **** *
 300:.\main.c      **** ***************************************************************************************************
 301:.\main.c      **** */
 302:.\main.c      **** 
 303:.\main.c      **** void PollingPump(void){
 304:.\main.c      ****     uint8 x;
 305:.\main.c      ****     if(countPump>8){
 306:.\main.c      ****         if(flowDisplay1 == 0){
 307:.\main.c      ****             if(PumpIsInValidState(get_state(side.a.dir)) && PumpIsInValidState(get_state(side.b.dir
 308:.\main.c      ****                 for(x= 0; x < 4; x++){
 309:.\main.c      ****                     PrevStatePump[x] = statePump[x];
 310:.\main.c      ****                 }
 311:.\main.c      ****             }
 312:.\main.c      ****             if (NumPositions == 2){
 313:.\main.c      ****                 statePump[0] = get_state(side.a.dir);                 
 314:.\main.c      ****                 statePump[1] = get_state(side.b.dir);          
 315:.\main.c      ****             }
 316:.\main.c      ****             if (NumPositions == 4 ){
ARM GAS  C:\Users\RECEPC~1\AppData\Local\Temp\cc79eMMA.s 			page 7


 317:.\main.c      ****                 statePump[0] = get_state(side.a.dir);               
 318:.\main.c      ****                 statePump[1] = get_state(side.b.dir);          
 319:.\main.c      ****                 statePump[2] = get_state(side.c.dir);        
 320:.\main.c      ****                 statePump[3] = get_state(side.d.dir);        
 321:.\main.c      ****             }
 322:.\main.c      ****             if (NumPositions == 0){
 323:.\main.c      ****                 InitPump();
 324:.\main.c      ****             }
 325:.\main.c      ****             if(!PumpIsInValidState(get_state(side.a.dir))){
 326:.\main.c      ****                 SetPicture(1,DISPLAY_ERROR);
 327:.\main.c      ****                 SetPicture(2,DISPLAY_ERROR);
 328:.\main.c      ****                 NumPositions = 0;
 329:.\main.c      ****                 flowDisplay1 = 0;
 330:.\main.c      ****                 flowDisplay2 = 0;
 331:.\main.c      ****             }
 332:.\main.c      ****             if(!PumpIsInValidState(get_state(side.b.dir))){
 333:.\main.c      ****                 SetPicture(1,DISPLAY_ERROR);
 334:.\main.c      ****                 SetPicture(2,DISPLAY_ERROR);
 335:.\main.c      ****                 NumPositions = 0;
 336:.\main.c      ****                 flowDisplay1 = 0;
 337:.\main.c      ****                 flowDisplay2 = 0;
 338:.\main.c      ****             }
 339:.\main.c      ****         }
 340:.\main.c      ****         if(ActiveRF == 0 && flowDisplay1 == 0){
 341:.\main.c      ****             if(get_state(side.a.dir)== PUMP_IDLE)
 342:.\main.c      ****                 getTotals(side.a.dir);
 343:.\main.c      ****             if(get_state(side.b.dir)== PUMP_IDLE)
 344:.\main.c      ****                 getTotals(side.b.dir);
 345:.\main.c      ****         }        
 346:.\main.c      ****         countPump=0;
 347:.\main.c      ****     }
 348:.\main.c      **** }
 349:.\main.c      **** /*
 350:.\main.c      **** ***************************************************************************************************
 351:.\main.c      **** *                                         void polling_Pump(void)
 352:.\main.c      **** *
 353:.\main.c      **** * Description : Pregunta estado al surtidor 
 354:.\main.c      **** *               
 355:.\main.c      **** *
 356:.\main.c      **** ***************************************************************************************************
 357:.\main.c      **** */
 358:.\main.c      **** 
 359:.\main.c      **** void PollingDisplay1(void){
 360:.\main.c      ****     //if(countLCD >10){
 361:.\main.c      ****     uint8 x,y;     
 362:.\main.c      ****     switch(flowDisplay1){
 363:.\main.c      ****         case 0:
 364:.\main.c      ****             InitDisplay1();
 365:.\main.c      ****             flowDisplay1 =1;
 366:.\main.c      ****             isr_3_Stop(); 
 367:.\main.c      ****             Timer_Animacion_Stop();
 368:.\main.c      ****             count_protector = 0;
 369:.\main.c      ****             bufferDisplay1.saleType = 0;
 370:.\main.c      ****             bufferDisplay1.flagEndSale = false;            
 371:.\main.c      ****         break;
 372:.\main.c      ****         case 1: //Menu
 373:.\main.c      ****             side.a.rfState = RF_IDLE;
ARM GAS  C:\Users\RECEPC~1\AppData\Local\Temp\cc79eMMA.s 			page 8


 374:.\main.c      ****             if(Display1_GetRxBufferSize()==8){
 375:.\main.c      ****                 if((Display1_rxBuffer[0]==0xAA) && (Display1_rxBuffer[6]==0xC3) && (Display1_rxBuff
 376:.\main.c      ****                     flowDisplay1 = 2;      //Pantalla forma de pago                      
 377:.\main.c      ****                     SetPicture(1,DISPLAY_FORMA_PAGO_DESEADA);                                      
 378:.\main.c      ****                 }  
 379:.\main.c      ****                 CyDelay(10);         
 380:.\main.c      ****                 Display1_ClearRxBuffer();
 381:.\main.c      ****             }
 382:.\main.c      ****         break;
 383:.\main.c      ****         case 2:
 384:.\main.c      ****             if(Display1_GetRxBufferSize()==8){
 385:.\main.c      ****                 if((Display1_rxBuffer[0]==0xAA) && (Display1_rxBuffer[6]==0xC3) && (Display1_rxBuff
 386:.\main.c      ****                     switch(Display1_rxBuffer[3]){
 387:.\main.c      ****                         case 0x0D:  //Pantalla efectivo              
 388:.\main.c      ****                             flowDisplay1 = 3; 
 389:.\main.c      ****                             bufferDisplay1.saleType = 1;
 390:.\main.c      ****                             SetPicture(1,DISPLAY_FORMA_PROGRAMACION);                            
 391:.\main.c      ****                         break;
 392:.\main.c      ****                         case 0x0E:  //Pantalla credito  
 393:.\main.c      ****                             flowDisplay1 = 10;
 394:.\main.c      ****                             bufferDisplay1.saleType = 2;
 395:.\main.c      ****                             count_protector = 0;
 396:.\main.c      ****                             SetPicture(1,DISPLAY_ID_DIGITAL);                            
 397:.\main.c      ****                         break;
 398:.\main.c      ****                         case 0x45:  //Pantalla otras opciones 
 399:.\main.c      ****                             flowDisplay1 = 12;                            
 400:.\main.c      ****                             SetPicture(1,DISPLAY_OPERACIONES);                            
 401:.\main.c      ****                         break;
 402:.\main.c      ****                             
 403:.\main.c      ****                         case 0x94:  //Pantalla Inicial    
 404:.\main.c      ****                             flowDisplay1 = 0;
 405:.\main.c      ****                             SetPicture(1,DISPLAY_INICIO0);                            
 406:.\main.c      ****                         break;
 407:.\main.c      ****                         
 408:.\main.c      ****                         case 0x7E:  //Pantalla Inicial    
 409:.\main.c      ****                             flowDisplay1 = 0;
 410:.\main.c      ****                             SetPicture(1,DISPLAY_INICIO0);                            
 411:.\main.c      ****                         break;
 412:.\main.c      ****                     }
 413:.\main.c      ****                 }  
 414:.\main.c      ****                 CyDelay(10);         
 415:.\main.c      ****                 Display1_ClearRxBuffer();
 416:.\main.c      ****             }
 417:.\main.c      ****         break;
 418:.\main.c      ****             
 419:.\main.c      ****         case 3: 
 420:.\main.c      ****             if(Display1_GetRxBufferSize()==8){
 421:.\main.c      ****                 if((Display1_rxBuffer[0]==0xAA) && (Display1_rxBuffer[6]==0xC3) && (Display1_rxBuff
 422:.\main.c      ****                     switch(Display1_rxBuffer[3]){
 423:.\main.c      ****                         case 0x0F:  //Preset dinero                
 424:.\main.c      ****                             flowDisplay1 = 4;                              
 425:.\main.c      ****                             bufferDisplay1.presetType[0]=2;
 426:.\main.c      ****                             bufferDisplay1.presetType[1]='D';
 427:.\main.c      ****                             numberKeys1=0;
 428:.\main.c      ****                             SetPicture(1,DISPLAY_INTRODUZCA_VALOR);   
 429:.\main.c      ****                             WriteLCD(1,'$',3,2,1,0x0000,'N');
 430:.\main.c      ****                         break; 
ARM GAS  C:\Users\RECEPC~1\AppData\Local\Temp\cc79eMMA.s 			page 9


 431:.\main.c      ****                         case 0x10:  //Preset volumen                 
 432:.\main.c      ****                             flowDisplay1 = 4;                            
 433:.\main.c      ****                             bufferDisplay1.presetType[0]=1;
 434:.\main.c      ****                             bufferDisplay1.presetType[1]='V';
 435:.\main.c      ****                             numberKeys1=0;                            
 436:.\main.c      ****                             SetPicture(1,DISPLAY_INTRODUZCA_VOLUMEN);                            
 437:.\main.c      ****                             WriteLCD(1,'V',3,2,1,0x0000,'N');                            
 438:.\main.c      ****                         break;
 439:.\main.c      ****                         case 0x43:  //Preset full 
 440:.\main.c      ****                             bufferDisplay1.presetType[0]=2;
 441:.\main.c      ****                             bufferDisplay1.presetType[1]='F';
 442:.\main.c      ****                             for(x=1;x<(digits-1);x++){
 443:.\main.c      ****                                 bufferDisplay1.presetValue[0][x]='9';
 444:.\main.c      ****                             }
 445:.\main.c      ****                             bufferDisplay1.presetValue[0][x]='0';
 446:.\main.c      ****                             bufferDisplay1.presetValue[0][x+1]='0';
 447:.\main.c      ****                             bufferDisplay1.presetValue[0][0]=digits;
 448:.\main.c      ****                             for(x=0;x<=bufferDisplay1.presetValue[0][0];x++){
 449:.\main.c      ****                                 bufferDisplay1.presetValue[1][x]=bufferDisplay1.presetValue[0][x];
 450:.\main.c      ****                             }
 451:.\main.c      ****                             flowDisplay1 = 5;
 452:.\main.c      ****                             SetPicture(1,DISPLAY_SELECCIONE_PRODUCTO4);                          
 453:.\main.c      ****                         break;
 454:.\main.c      ****                         case 0x94:  //Retroceso 
 455:.\main.c      ****                             flowDisplay1 = 0;
 456:.\main.c      ****                             SetPicture(1,DISPLAY_INICIO0);                                         
 457:.\main.c      ****                         break;
 458:.\main.c      ****                         case 0x3B:  //Pantalla Inicial    
 459:.\main.c      ****                             flowDisplay1 = 0;
 460:.\main.c      ****                             SetPicture(1,DISPLAY_INICIO0);                            
 461:.\main.c      ****                         break;
 462:.\main.c      ****                         case 0x7E:  //Pantalla Inicial    
 463:.\main.c      ****                             flowDisplay1 = 0;
 464:.\main.c      ****                             SetPicture(1,DISPLAY_INICIO0);                            
 465:.\main.c      ****                         break;
 466:.\main.c      ****                     }
 467:.\main.c      ****                 }  
 468:.\main.c      ****                 CyDelay(10);         
 469:.\main.c      ****                 Display1_ClearRxBuffer();
 470:.\main.c      ****             }
 471:.\main.c      ****         break;
 472:.\main.c      ****         
 473:.\main.c      ****         case 4:            
 474:.\main.c      ****             switch (alphanumeric_keyboard(1,digits,0)){
 475:.\main.c      ****                 case 0:  //Pantalla Inicial    
 476:.\main.c      ****                     flowDisplay1 = 0;
 477:.\main.c      ****                     SetPicture(1,DISPLAY_INICIO0);                            
 478:.\main.c      ****                 break;
 479:.\main.c      ****                     
 480:.\main.c      ****                 case 1: //Enter
 481:.\main.c      ****                     for(x=0;x<=bufferDisplay1.valueKeys[0];x++){
 482:.\main.c      ****                         bufferDisplay1.presetValue[0][x]=bufferDisplay1.valueKeys[x];
 483:.\main.c      ****                         bufferDisplay1.presetValue[1][x]=bufferDisplay1.valueKeys[x];
 484:.\main.c      ****                     }  
 485:.\main.c      ****                     flowDisplay1 = 5;//caso para seleccion de producto
 486:.\main.c      ****                     SetPicture(1,DISPLAY_SELECCIONE_PRODUCTO4);
 487:.\main.c      ****                 break;
ARM GAS  C:\Users\RECEPC~1\AppData\Local\Temp\cc79eMMA.s 			page 10


 488:.\main.c      ****             }
 489:.\main.c      ****         break;
 490:.\main.c      ****             
 491:.\main.c      ****         case 5:
 492:.\main.c      ****             if(Display1_GetRxBufferSize()==8){
 493:.\main.c      ****                 if((Display1_rxBuffer[0]==0xAA) && (Display1_rxBuffer[6]==0xC3) && (Display1_rxBuff
 494:.\main.c      ****                     switch(Display1_rxBuffer[3]){
 495:.\main.c      ****                         case 0x80:  //Grado 1 
 496:.\main.c      ****                             flowDisplay1 = 6;
 497:.\main.c      ****                             side.a.hose = 1;
 498:.\main.c      ****                             SetPicture(1,DISPLAY_DESEA_IMPRIMIR_RECIBO);                           
 499:.\main.c      ****                         break;
 500:.\main.c      ****                             
 501:.\main.c      ****                         case 0x81:  //Grado 2 
 502:.\main.c      ****                             flowDisplay1 = 6;
 503:.\main.c      ****                             side.a.hose = 2;
 504:.\main.c      ****                             SetPicture(1,DISPLAY_DESEA_IMPRIMIR_RECIBO);                           
 505:.\main.c      ****                         break;
 506:.\main.c      ****                             
 507:.\main.c      ****                         case 0x7F:  //Grado 3
 508:.\main.c      ****                             flowDisplay1 = 6;
 509:.\main.c      ****                             side.a.hose = 3;
 510:.\main.c      ****                             SetPicture(1,DISPLAY_DESEA_IMPRIMIR_RECIBO);                           
 511:.\main.c      ****                         break;   
 512:.\main.c      ****                         
 513:.\main.c      ****                         case 0xB8:  //Grado 4 
 514:.\main.c      ****                             flowDisplay1 = 6;
 515:.\main.c      ****                             side.a.hose = 4;
 516:.\main.c      ****                             SetPicture(1,DISPLAY_DESEA_IMPRIMIR_RECIBO);                           
 517:.\main.c      ****                         break;
 518:.\main.c      ****                             
 519:.\main.c      ****                         case 0x94:  //Retroceso 
 520:.\main.c      ****                             flowDisplay1 = 0;
 521:.\main.c      ****                             SetPicture(1,DISPLAY_INICIO0);                                         
 522:.\main.c      ****                         break;
 523:.\main.c      ****                             
 524:.\main.c      ****                         case 0x7E:  //Pantalla Inicial                                             
 525:.\main.c      ****                             SetPicture(1,DISPLAY_INICIO0);
 526:.\main.c      ****                             flowDisplay1 = 0;
 527:.\main.c      ****                         break;
 528:.\main.c      ****                     }                    
 529:.\main.c      ****                 }
 530:.\main.c      ****                 CyDelay(10);         
 531:.\main.c      ****                 Display1_ClearRxBuffer();
 532:.\main.c      ****             }
 533:.\main.c      ****         break;
 534:.\main.c      ****                     
 535:.\main.c      ****         case 6:
 536:.\main.c      ****             isr_3_StartEx(animacion);
 537:.\main.c      ****             Timer_Animacion_Start();
 538:.\main.c      ****             if(Display1_GetRxBufferSize()==8){
 539:.\main.c      ****                 if((Display1_rxBuffer[0]==0xAA) && (Display1_rxBuffer[6]==0xC3) && (Display1_rxBuff
 540:.\main.c      ****                     switch(Display1_rxBuffer[3]){
 541:.\main.c      ****                         case 0x39:  //Si imprimir  
 542:.\main.c      ****                             flowDisplay1 = 9;
 543:.\main.c      ****                             numberKeys1 = 0;
 544:.\main.c      ****                             bufferDisplay1.flagKeyboard = 1;
ARM GAS  C:\Users\RECEPC~1\AppData\Local\Temp\cc79eMMA.s 			page 11


 545:.\main.c      ****                             bufferDisplay1.flagPrint =  1;
 546:.\main.c      ****                             SetPicture(1,DISPLAY_DIGITE_PLACA);                            
 547:.\main.c      ****                         break; 
 548:.\main.c      ****                         case 0x38:  //No imprimir 
 549:.\main.c      ****                             if(bufferDisplay1.flagEndSale){
 550:.\main.c      ****                                 flowDisplay1 = 0;
 551:.\main.c      ****                                 SetPicture(1,DISPLAY_INICIO0);
 552:.\main.c      ****                             }else{
 553:.\main.c      ****                                 flowDisplay1 = 7;//Esperando estado del dispensador 
 554:.\main.c      ****                                 bufferDisplay1.flagPrint =  0;
 555:.\main.c      ****                                 count_protector=0;
 556:.\main.c      ****                                 SetPicture(1,DISPLAY_SUBA_MANIJA);
 557:.\main.c      ****                             }
 558:.\main.c      ****                         break;
 559:.\main.c      ****                         case 0x7E:  //Pantalla Inicial                                             
 560:.\main.c      ****                             flowDisplay1 = 0;
 561:.\main.c      ****                             SetPicture(1,DISPLAY_INICIO0);
 562:.\main.c      ****                         break;
 563:.\main.c      ****                     }                    
 564:.\main.c      ****                 }
 565:.\main.c      ****                 CyDelay(10);         
 566:.\main.c      ****                 Display1_ClearRxBuffer();
 567:.\main.c      ****             }
 568:.\main.c      ****             if(count_protector>=30){
 569:.\main.c      ****                 flowDisplay1 = 0;	
 570:.\main.c      ****     			count_protector=0;
 571:.\main.c      ****                 SetPicture(1,DISPLAY_INICIO0);
 572:.\main.c      ****     		}
 573:.\main.c      ****         break;
 574:.\main.c      ****                                         
 575:.\main.c      ****             
 576:.\main.c      ****         case 7:
 577:.\main.c      ****             //isr_3_StartEx(animacion);
 578:.\main.c      ****             //Timer_Animacion_Start();
 579:.\main.c      ****             side.a.activeHose = PumpHoseActiveState(side.a.dir);  
 580:.\main.c      ****             if (side.a.activeHose == side.a.hose){                
 581:.\main.c      ****                 if(PresetData(side.a.dir,side.a.activeHose,bufferDisplay1.presetValue[0],bufferDisp
 582:.\main.c      ****                     get_state(side.a.dir);
 583:.\main.c      ****                     CyDelay(50);
 584:.\main.c      ****                     Pump_PutChar(0x10|side.a.dir);//Autoriza el surtidor
 585:.\main.c      ****                     CyDelay(50);
 586:.\main.c      ****                     flowDisplay1 = 8;
 587:.\main.c      ****                     isr_3_Stop(); 
 588:.\main.c      ****                     Timer_Animacion_Stop();
 589:.\main.c      ****                     count_protector = 0;                        
 590:.\main.c      ****                     RFstateReport = 1;
 591:.\main.c      ****                     SetPicture(1,DISPLAY_DESPACHANDO);   
 592:.\main.c      ****                     ShowMessage(1,(bufferDisplay1.presetValue[0]),18);
 593:.\main.c      ****                 }else{
 594:.\main.c      ****                     flowDisplay1 = 0;
 595:.\main.c      ****                     SetPicture(1,DISPLAY_ERROR);
 596:.\main.c      ****                     CyDelay(200);
 597:.\main.c      ****                     SetPicture(1,DISPLAY_INICIO0);
 598:.\main.c      ****                 }
 599:.\main.c      ****             }else{
 600:.\main.c      ****                 flowDisplay1 = 7;                
 601:.\main.c      **** //                if(count_protector>=60){
ARM GAS  C:\Users\RECEPC~1\AppData\Local\Temp\cc79eMMA.s 			page 12


 602:.\main.c      **** //                    flowDisplay1 = 0;	
 603:.\main.c      **** //        			count_protector=0;
 604:.\main.c      **** //                    SetPicture(1,DISPLAY_INICIO0);
 605:.\main.c      **** //        		}
 606:.\main.c      ****             }
 607:.\main.c      ****             if(Display1_GetRxBufferSize()==8){
 608:.\main.c      ****                 if((Display1_rxBuffer[0]==0xAA) && (Display1_rxBuffer[6]==0xC3) && (Display1_rxBuff
 609:.\main.c      ****                     switch(Display1_rxBuffer[3]){                        
 610:.\main.c      ****                         case 0x7E:  //Pantalla Inicial                                             
 611:.\main.c      ****                             SetPicture(1,DISPLAY_INICIO0);
 612:.\main.c      ****                             flowDisplay1 = 0;
 613:.\main.c      ****                         break;
 614:.\main.c      ****                     }                    
 615:.\main.c      ****                 }
 616:.\main.c      ****                 CyDelay(10);                         
 617:.\main.c      ****             }
 618:.\main.c      ****             Display1_ClearRxBuffer();
 619:.\main.c      ****         break;
 620:.\main.c      ****             
 621:.\main.c      ****         case 8:            
 622:.\main.c      ****             side.a.pumpState = get_state(side.a.dir);
 623:.\main.c      ****             switch (side.a.pumpState){
 624:.\main.c      ****                 case PUMP_IDLE://Espera - venta cero
 625:.\main.c      ****                     flowDisplay1 = 0;
 626:.\main.c      ****                     bufferDisplay1.flagActiveSale = false;
 627:.\main.c      ****                     SetPicture(1,DISPLAY_INICIO0);
 628:.\main.c      ****                 break;
 629:.\main.c      ****                 case PUMP_BUSY://Surtiendo                    
 630:.\main.c      ****                     bufferDisplay1.flagActiveSale = true;
 631:.\main.c      ****                     bufferDisplay1.flagEndSale = false;
 632:.\main.c      ****                 break;
 633:.\main.c      ****                 case PUMP_PEOT: //reporte fin venta
 634:.\main.c      ****                     RFstateReport = 1;
 635:.\main.c      ****                     if(getSale(side.a.dir)){
 636:.\main.c      ****                         if(bufferDisplay1.flagPrint ==1){
 637:.\main.c      ****                             imprimir(printPortA,side.a.dir);
 638:.\main.c      ****                             flowDisplay1 = 0;
 639:.\main.c      ****                             SetPicture(1,DISPLAY_INICIO0); 
 640:.\main.c      ****                         }else{
 641:.\main.c      ****                             flowDisplay1 = 6;
 642:.\main.c      ****                             bufferDisplay1.flagEndSale = true;
 643:.\main.c      ****                             SetPicture(1,DISPLAY_DESEA_IMPRIMIR_RECIBO); 
 644:.\main.c      ****                         }
 645:.\main.c      ****                         bufferDisplay1.flagActiveSale = false; 
 646:.\main.c      ****                     }                                         
 647:.\main.c      ****                 break;
 648:.\main.c      ****                 case 0x0B://Reporte de venta
 649:.\main.c      ****                     if(getSale(side.a.dir)){
 650:.\main.c      ****                         if(bufferDisplay1.flagPrint ==1){
 651:.\main.c      ****                             imprimir(printPortA,side.a.dir);
 652:.\main.c      ****                             flowDisplay1 = 0;
 653:.\main.c      ****                             SetPicture(1,DISPLAY_INICIO0); 
 654:.\main.c      ****                         }else{
 655:.\main.c      ****                             flowDisplay1 = 6;
 656:.\main.c      ****                             bufferDisplay1.flagEndSale = true;
 657:.\main.c      ****                             SetPicture(1,DISPLAY_DESEA_IMPRIMIR_RECIBO); 
 658:.\main.c      ****                         }
ARM GAS  C:\Users\RECEPC~1\AppData\Local\Temp\cc79eMMA.s 			page 13


 659:.\main.c      ****                         bufferDisplay1.flagActiveSale = false; 
 660:.\main.c      ****                     }
 661:.\main.c      ****                 break;
 662:.\main.c      ****                 
 663:.\main.c      ****             }
 664:.\main.c      ****             
 665:.\main.c      ****         break;
 666:.\main.c      ****             
 667:.\main.c      ****         case 9: //Teclado           
 668:.\main.c      ****             switch (alphanumeric_keyboard(1,10,0)){
 669:.\main.c      ****                 case 0: //Cancelar
 670:.\main.c      ****                     switch(bufferDisplay1.flagKeyboard){
 671:.\main.c      ****                         case 1://Placa
 672:.\main.c      ****                             for(x=0;x<=10;x++){
 673:.\main.c      ****                                 bufferDisplay1.licenceSale[x]=0;
 674:.\main.c      ****                             }
 675:.\main.c      ****                             flowDisplay1 = 0;//Inicio
 676:.\main.c      ****                             SetPicture(1,DISPLAY_INICIO0);
 677:.\main.c      ****                         break;
 678:.\main.c      ****                         
 679:.\main.c      ****                         case 2://Kilometraje
 680:.\main.c      ****                             for(x=0;x<=10;x++){
 681:.\main.c      ****                                 bufferDisplay1.mileageSale[x]=0;
 682:.\main.c      ****                             }
 683:.\main.c      ****                         break;
 684:.\main.c      ****                         
 685:.\main.c      ****                         case 3://CC/NIT
 686:.\main.c      ****                             for(x=0;x<=10;x++){
 687:.\main.c      ****                                 bufferDisplay1.identySale[x]=0;
 688:.\main.c      ****                             }
 689:.\main.c      ****                         break;
 690:.\main.c      ****                         case 4://ID
 691:.\main.c      ****                             for(x=0;x<=10;x++){
 692:.\main.c      ****                                 bufferDisplay1.shiftId[x]=0;
 693:.\main.c      ****                             }
 694:.\main.c      ****                         break;
 695:.\main.c      ****                     }                    
 696:.\main.c      ****                     Display1_ClearRxBuffer();
 697:.\main.c      ****                 break;
 698:.\main.c      ****                     
 699:.\main.c      ****                 case 1: //Enter
 700:.\main.c      ****                     switch(bufferDisplay1.flagKeyboard){
 701:.\main.c      ****                         case 1://Placa
 702:.\main.c      ****                             for(x=0;x<=bufferDisplay1.valueKeys[0];x++){
 703:.\main.c      ****                                 bufferDisplay1.licenceSale[x]=bufferDisplay1.valueKeys[x];
 704:.\main.c      ****                             }
 705:.\main.c      ****                             if(bufferDisplay1.flagEndSale){
 706:.\main.c      ****                                 imprimir(printPortA,side.a.dir);
 707:.\main.c      ****                                 flowDisplay1 = 0;
 708:.\main.c      ****                                 SetPicture(1,DISPLAY_INICIO0); 
 709:.\main.c      ****                             }else{
 710:.\main.c      ****                                 flowDisplay1 = 7;//Suba manija
 711:.\main.c      ****                                 SetPicture(1,DISPLAY_SUBA_MANIJA);
 712:.\main.c      ****                             }
 713:.\main.c      ****                         break;
 714:.\main.c      ****                         
 715:.\main.c      ****                         case 2://Kilometraje
ARM GAS  C:\Users\RECEPC~1\AppData\Local\Temp\cc79eMMA.s 			page 14


 716:.\main.c      ****                             for(x=0;x<=bufferDisplay1.valueKeys[0];x++){
 717:.\main.c      ****                                 bufferDisplay1.mileageSale[x]=bufferDisplay1.valueKeys[x];
 718:.\main.c      ****                             }
 719:.\main.c      ****                             flowDisplay1 = 7;//Suba manija
 720:.\main.c      ****                             SetPicture(1,DISPLAY_SUBA_MANIJA);
 721:.\main.c      ****                         break;
 722:.\main.c      ****                         
 723:.\main.c      ****                         case 3://CC/NIT
 724:.\main.c      ****                             for(x=0;x<=bufferDisplay1.valueKeys[0];x++){
 725:.\main.c      ****                                 bufferDisplay1.identySale[x]=bufferDisplay1.valueKeys[x];
 726:.\main.c      ****                             }
 727:.\main.c      ****                         case 4://ID
 728:.\main.c      ****                             for(x=0;x<=10;x++){
 729:.\main.c      ****                                 bufferDisplay1.shiftId[x] =bufferDisplay1.valueKeys[x];
 730:.\main.c      ****                             }
 731:.\main.c      ****                             flowDisplay1 = 14;//Pide clave                            
 732:.\main.c      ****                             numberKeys1 = 0;
 733:.\main.c      ****                             hiddenKeys = 5;
 734:.\main.c      ****                             controlChar ='*';
 735:.\main.c      ****                             bufferDisplay1.flagKeyboard = 5;
 736:.\main.c      ****                             SetPicture(1,DISPLAY_INGRESE_PASSWORD);
 737:.\main.c      ****                         break;
 738:.\main.c      ****                     }                    
 739:.\main.c      ****                     Display1_ClearRxBuffer();
 740:.\main.c      ****                 break;
 741:.\main.c      ****             }            
 742:.\main.c      ****         break;    
 743:.\main.c      ****     ////////////////// CASOS PARA CRÉDITO  /////////////////////
 744:.\main.c      ****         case 10:
 745:.\main.c      ****             if(Display1_GetRxBufferSize()==8){
 746:.\main.c      ****                 if((Display1_rxBuffer[0]==0xAA) && (Display1_rxBuffer[6]==0xC3) && (Display1_rxBuff
 747:.\main.c      ****                     switch(Display1_rxBuffer[3]){
 748:.\main.c      ****                         case 0xB6:  //Solicitud ibutton  
 749:.\main.c      ****                             flowDisplay1 = 11;
 750:.\main.c      ****                             numberKeys1 = 0;                            
 751:.\main.c      ****                             bufferDisplay1.flagPrint =  1;
 752:.\main.c      ****                             SetPicture(1,DISPLAY_ESPERANDO_ID);                            
 753:.\main.c      ****                         break; 
 754:.\main.c      ****                         case 0xB7:  //ID por número
 755:.\main.c      ****                             bufferDisplay1.flagKeyboard = 0;
 756:.\main.c      ****                             flowDisplay1 = 7;//Esperando estado del dispensador  
 757:.\main.c      ****                             count_protector=0;
 758:.\main.c      ****                             SetPicture(1,DISPLAY_SUBA_MANIJA);                            
 759:.\main.c      ****                         break;
 760:.\main.c      ****                         case 0x7E:  //Pantalla Inicial                                             
 761:.\main.c      ****                             SetPicture(1,DISPLAY_INICIO0);
 762:.\main.c      ****                             flowDisplay1 = 0;
 763:.\main.c      ****                         break;
 764:.\main.c      ****                     }                    
 765:.\main.c      ****                 }
 766:.\main.c      ****                 CyDelay(10);         
 767:.\main.c      ****                 Display1_ClearRxBuffer();
 768:.\main.c      ****             }                        
 769:.\main.c      ****         break;
 770:.\main.c      ****         
 771:.\main.c      ****         case 11:
 772:.\main.c      ****             isr_3_StartEx(animacion);
ARM GAS  C:\Users\RECEPC~1\AppData\Local\Temp\cc79eMMA.s 			page 15


 773:.\main.c      ****             Timer_Animacion_Start();
 774:.\main.c      ****             if(touch_present(1)==1){
 775:.\main.c      **** 				if(touch_write(1,0x33)){
 776:.\main.c      **** 					for(x=1;x<=8;x++){
 777:.\main.c      **** 						temporal[x]=touch_read_byte(1);
 778:.\main.c      **** 					}
 779:.\main.c      **** 					y=0;
 780:.\main.c      **** 					for(x=1;x<8;x++){
 781:.\main.c      ****                         y=crc_check(y,temporal[x]);
 782:.\main.c      ****                     }
 783:.\main.c      **** 					if(y==temporal[8]){
 784:.\main.c      **** 						bufferDisplay1.idSerial[0]=16;
 785:.\main.c      **** 						y=16;
 786:.\main.c      **** 						for(x=1;x<=8;x++){
 787:.\main.c      **** 							if((temporal[x]&0x0F)>=10){
 788:.\main.c      **** 								bufferDisplay1.idSerial[y]=(temporal[x]&0x0F)+55;
 789:.\main.c      **** 							}else{
 790:.\main.c      **** 								bufferDisplay1.idSerial[y]=(temporal[x]&0x0F)+48;				
 791:.\main.c      **** 							}
 792:.\main.c      ****                             y--;
 793:.\main.c      **** 							if(((temporal[x]>>4)&0x0F)>=10){
 794:.\main.c      **** 								bufferDisplay1.idSerial[y]=((temporal[x]>>4)&0x0F)+55;
 795:.\main.c      **** 							}else{
 796:.\main.c      **** 								bufferDisplay1.idSerial[y]=((temporal[x]>>4)&0x0F)+48;				
 797:.\main.c      **** 							}
 798:.\main.c      ****                             y--;
 799:.\main.c      **** 						}                        
 800:.\main.c      ****                         SetPicture(1,DISPLAY_ID_RECONOCIDO);                                       
 801:.\main.c      ****                         Display1_ClearRxBuffer();
 802:.\main.c      ****                         CyDelay(700);
 803:.\main.c      ****                         bufferDisplay1.flagKeyboard = 2;
 804:.\main.c      ****                         flowDisplay1 = 9;
 805:.\main.c      ****                         SetPicture(1,DISPLAY_INTRODUZCA_KILOMETRAJE);
 806:.\main.c      ****                         
 807:.\main.c      **** 					}
 808:.\main.c      **** 				}
 809:.\main.c      **** 			}
 810:.\main.c      ****             if(count_protector>=60){
 811:.\main.c      ****                 flowDisplay1 = 0;	
 812:.\main.c      ****     			count_protector=0;
 813:.\main.c      ****                 SetPicture(1,DISPLAY_INICIO0);
 814:.\main.c      ****     		}
 815:.\main.c      ****                                     
 816:.\main.c      ****         break;    
 817:.\main.c      ****     ///////////////FIN CASOS PARA CRÉDITO  /////////////////////  
 818:.\main.c      ****     
 819:.\main.c      ****     //////////// CASOS PARA CONFIGURACIONES  ///////////////////
 820:.\main.c      ****         case 12:
 821:.\main.c      ****             if(Display1_GetRxBufferSize()==8){
 822:.\main.c      ****                 if((Display1_rxBuffer[0]==0xAA) && (Display1_rxBuffer[6]==0xC3) && (Display1_rxBuff
 823:.\main.c      ****                     switch(Display1_rxBuffer[3]){
 824:.\main.c      ****                         case 0x46:  //Turnos              
 825:.\main.c      ****                             flowDisplay1 = 13; 
 826:.\main.c      ****                             if(lockTurn ==1){
 827:.\main.c      ****                                 SetPicture(1,DISPLAY_CERRAR_TURNO);
 828:.\main.c      ****                             }else{
 829:.\main.c      ****                                 SetPicture(1,DISPLAY_ABRIR_TURNO);
ARM GAS  C:\Users\RECEPC~1\AppData\Local\Temp\cc79eMMA.s 			page 16


 830:.\main.c      ****                             }                            
 831:.\main.c      ****                         break;
 832:.\main.c      ****                         case 0x55:  //Configurar módulo 
 833:.\main.c      ****                             flowDisplay1 = 14;
 834:.\main.c      ****                             bufferDisplay1.flagKeyboard = 6;
 835:.\main.c      ****                             numberKeys1 = 0;
 836:.\main.c      ****                             hiddenKeys = 5;
 837:.\main.c      ****                             controlChar ='*';
 838:.\main.c      ****                             SetPicture(1,DISPLAY_INGRESE_PASSWORD);                           
 839:.\main.c      ****                         break;
 840:.\main.c      ****                         case 0xB5:  //Copia de recibo 
 841:.\main.c      ****                             flowDisplay1 = 0;   
 842:.\main.c      ****                             side.a.rfState = RF_COPY_RECEIPT;
 843:.\main.c      ****                             SetPicture(1,DISPLAY_INICIO0);                            
 844:.\main.c      ****                         break;
 845:.\main.c      ****                         
 846:.\main.c      ****                         case 0x3B:  //Pantalla Inicial    
 847:.\main.c      ****                             flowDisplay1 = 0;
 848:.\main.c      ****                             SetPicture(1,DISPLAY_INICIO0);                            
 849:.\main.c      ****                         break;
 850:.\main.c      ****                             
 851:.\main.c      ****                         case 0x94:  //Pantalla Inicial    
 852:.\main.c      ****                             flowDisplay1 = 0;
 853:.\main.c      ****                             SetPicture(1,DISPLAY_INICIO0);                            
 854:.\main.c      ****                         break;
 855:.\main.c      ****                         
 856:.\main.c      ****                         case 0x7E:  //Pantalla Inicial    
 857:.\main.c      ****                             flowDisplay1 = 0;
 858:.\main.c      ****                             SetPicture(1,DISPLAY_INICIO0);                            
 859:.\main.c      ****                         break;
 860:.\main.c      ****                     }
 861:.\main.c      ****                 }  
 862:.\main.c      ****                 CyDelay(10);         
 863:.\main.c      ****                 Display1_ClearRxBuffer();
 864:.\main.c      ****             }
 865:.\main.c      ****         break;
 866:.\main.c      **** 
 867:.\main.c      ****         case 13:
 868:.\main.c      ****             if(Display1_GetRxBufferSize()==8){
 869:.\main.c      ****                 if((Display1_rxBuffer[0]==0xAA) && (Display1_rxBuffer[6]==0xC3) && (Display1_rxBuff
 870:.\main.c      ****                     switch(Display1_rxBuffer[3]){
 871:.\main.c      ****                         case 0x47:  //Cambio de turno: Abrir  
 872:.\main.c      ****                             flowDisplay1 = 9;
 873:.\main.c      ****                             numberKeys1 = 0;    
 874:.\main.c      ****                             bufferDisplay1.flagKeyboard = 4;
 875:.\main.c      ****                             SetPicture(1,DISPLAY_INTRODUZCA_CEDULA);                            
 876:.\main.c      ****                         break;
 877:.\main.c      ****                         case 0x48:  //Cambio de turno: Cerrar 
 878:.\main.c      ****                             flowDisplay1 = 9;
 879:.\main.c      ****                             numberKeys1 = 0;   
 880:.\main.c      ****                             bufferDisplay1.flagKeyboard = 4;
 881:.\main.c      ****                             SetPicture(1,DISPLAY_INTRODUZCA_CEDULA);                           
 882:.\main.c      ****                         break;                         
 883:.\main.c      ****                         case 0x7E:  //Pantalla Inicial                                             
 884:.\main.c      ****                             SetPicture(1,DISPLAY_INICIO0);
 885:.\main.c      ****                             flowDisplay1 = 0;
 886:.\main.c      ****                         break;
ARM GAS  C:\Users\RECEPC~1\AppData\Local\Temp\cc79eMMA.s 			page 17


 887:.\main.c      ****                         case 0x94:  //Pantalla Inicial                                             
 888:.\main.c      ****                             SetPicture(1,DISPLAY_INICIO0);
 889:.\main.c      ****                             flowDisplay1 = 0;
 890:.\main.c      ****                         break;
 891:.\main.c      ****                     }                    
 892:.\main.c      ****                 }
 893:.\main.c      ****                 CyDelay(10);         
 894:.\main.c      ****                 Display1_ClearRxBuffer();
 895:.\main.c      ****             }                        
 896:.\main.c      ****         break; 
 897:.\main.c      ****             
 898:.\main.c      ****         case 14: //Teclado general      
 899:.\main.c      ****             switch (alphanumeric_keyboard(1,hiddenKeys,controlChar)){
 900:.\main.c      ****                 case 0: //Cancelar
 901:.\main.c      ****                     switch(bufferDisplay1.flagKeyboard){
 902:.\main.c      ****                         case 1://ID Estacion
 903:.\main.c      ****                             for(x=0;x<=4;x++){
 904:.\main.c      ****                                 idStation[x]=0;
 905:.\main.c      ****                             }
 906:.\main.c      ****                             flowDisplay1 = 0;
 907:.\main.c      ****                             SetPicture(1,DISPLAY_INICIO0);
 908:.\main.c      ****                         break;
 909:.\main.c      ****                         case 2://Umbral
 910:.\main.c      ****                             for(x=0;x< hiddenKeys;x++){
 911:.\main.c      ****                                 pumpGap[x]=0;
 912:.\main.c      ****                             }
 913:.\main.c      ****                             flowDisplay1 = 0;
 914:.\main.c      ****                             SetPicture(1,DISPLAY_INICIO0);
 915:.\main.c      ****                         break;
 916:.\main.c      ****                         case 5://Pass
 917:.\main.c      ****                             for(x=0;x< hiddenKeys;x++){
 918:.\main.c      ****                                 bufferDisplay1.shiftPassword[x]=0;
 919:.\main.c      ****                             }
 920:.\main.c      ****                             flowDisplay1 = 0;
 921:.\main.c      ****                             SetPicture(1,DISPLAY_INICIO0);
 922:.\main.c      ****                         break;
 923:.\main.c      ****                             
 924:.\main.c      ****                         case 6://Pass
 925:.\main.c      ****                             for(x=1;x<=configAccess[0];x++){
 926:.\main.c      ****                                 configAccess[x]=0;
 927:.\main.c      ****                             }
 928:.\main.c      ****                             flowDisplay1 = 0;
 929:.\main.c      ****                             SetPicture(1,DISPLAY_INICIO0);
 930:.\main.c      ****                         break;
 931:.\main.c      ****                     }                    
 932:.\main.c      ****                     Display1_ClearRxBuffer();
 933:.\main.c      ****                 break;
 934:.\main.c      ****                     
 935:.\main.c      ****                 case 1: //Enter
 936:.\main.c      ****                     switch(bufferDisplay1.flagKeyboard){   
 937:.\main.c      ****                         case 1://ID Estacion
 938:.\main.c      ****                             for(x=0;x <=4;x++){
 939:.\main.c      ****                                 idStation[x] =bufferDisplay1.valueKeys[x+1];                       
 940:.\main.c      ****                             }
 941:.\main.c      ****                             idStation[4] = 0x00;
 942:.\main.c      ****                             intIDStation = atoi(idStation);
 943:.\main.c      ****                             IDCast[0] = intIDStation;
ARM GAS  C:\Users\RECEPC~1\AppData\Local\Temp\cc79eMMA.s 			page 18


 944:.\main.c      ****                             IDCast[1] = intIDStation>>8;
 945:.\main.c      ****                             EEPROM_1_WriteByte(IDCast[0],10);
 946:.\main.c      ****                             EEPROM_1_WriteByte(IDCast[1],11);
 947:.\main.c      ****                             flowDisplay1 = 15;
 948:.\main.c      ****                             SetPicture(1,DISPLAY_CONFIGURACIONES);
 949:.\main.c      ****                         break;
 950:.\main.c      ****                         case 2://Pass
 951:.\main.c      ****                             for(x=0;x < hiddenKeys;x++){
 952:.\main.c      ****                                 pumpGap[x] =bufferDisplay1.valueKeys[x];
 953:.\main.c      ****                             }
 954:.\main.c      ****                             flowDisplay1 = 15;
 955:.\main.c      ****                             SetPicture(1,DISPLAY_CONFIGURACIONES);
 956:.\main.c      ****                         break;
 957:.\main.c      ****                         case 5://Pass
 958:.\main.c      ****                             for(x=0;x < hiddenKeys;x++){
 959:.\main.c      ****                                 bufferDisplay1.shiftPassword[x] =bufferDisplay1.valueKeys[x];
 960:.\main.c      ****                             }
 961:.\main.c      ****                             flowDisplay1 = 15;
 962:.\main.c      ****                             SetPicture(1,DISPLAY_CONFIGURACIONES);
 963:.\main.c      ****                         break; 
 964:.\main.c      ****                         case 6://Pass
 965:.\main.c      ****                             for(x=1;x<=configAccess[0];x++){
 966:.\main.c      ****                                 configAccess[x] =bufferDisplay1.valueKeys[x];
 967:.\main.c      ****                             }
 968:.\main.c      ****                             if(configAccess[1] == passwordPump[1] && configAccess[2] == passwordPum
 969:.\main.c      ****                                 SetPicture(1,DISPLAY_PASSWORD_VALIDO);
 970:.\main.c      ****                                 CyDelay(700);
 971:.\main.c      ****                                 flowDisplay1 = 15;
 972:.\main.c      ****                                 SetPicture(1,DISPLAY_CONFIGURACIONES);
 973:.\main.c      ****                             }else{
 974:.\main.c      ****                                 SetPicture(1,DISPLAY_PASSWORD_INVALIDO);
 975:.\main.c      ****                                 CyDelay(700);
 976:.\main.c      ****                                 flowDisplay1 = 0;
 977:.\main.c      ****                                 SetPicture(1,DISPLAY_INICIO0);
 978:.\main.c      ****                             }
 979:.\main.c      ****                         break;
 980:.\main.c      ****                     }                    
 981:.\main.c      ****                     Display1_ClearRxBuffer();
 982:.\main.c      ****                 break;
 983:.\main.c      ****             }            
 984:.\main.c      ****         break;
 985:.\main.c      ****             
 986:.\main.c      ****         case 15:
 987:.\main.c      ****             if(Display1_GetRxBufferSize()==8){
 988:.\main.c      ****                 if((Display1_rxBuffer[0]==0xAA) && (Display1_rxBuffer[6]==0xC3) && (Display1_rxBuff
 989:.\main.c      ****                     switch(Display1_rxBuffer[3]){
 990:.\main.c      ****                         case 0x82:  //ID Estacion  
 991:.\main.c      ****                             flowDisplay1 = 14;
 992:.\main.c      ****                             numberKeys1 = 0; 
 993:.\main.c      ****                             controlChar = 0;
 994:.\main.c      ****                             hiddenKeys  = 5;
 995:.\main.c      ****                             bufferDisplay1.flagKeyboard = 1;
 996:.\main.c      ****                             SetPicture(1,DISPLAY_INTRODUZCA_VALOR);                            
 997:.\main.c      ****                         break;
 998:.\main.c      ****                         case 0x65:  //Test Impresoras 
 999:.\main.c      ****                             flowDisplay1 = 16; 
1000:.\main.c      ****                             PrintTest();
ARM GAS  C:\Users\RECEPC~1\AppData\Local\Temp\cc79eMMA.s 			page 19


1001:.\main.c      ****                             SetPicture(1,DISPLAY_AMBAS_IMPRESORAS_FUNCIONANDO);                    
1002:.\main.c      ****                         break;
1003:.\main.c      ****                         
1004:.\main.c      ****                         case 0x5A:  //Umbral 
1005:.\main.c      ****                             flowDisplay1 = 14;
1006:.\main.c      ****                             numberKeys1 = 0;
1007:.\main.c      ****                             controlChar = 0;
1008:.\main.c      ****                             hiddenKeys  = 3;
1009:.\main.c      ****                             pumpGap[0]  = 2;
1010:.\main.c      ****                             bufferDisplay1.flagKeyboard = 2;
1011:.\main.c      ****                             SetPicture(1,DISPLAY_INTRODUZCA_VALOR);                            
1012:.\main.c      ****                         break;
1013:.\main.c      ****                         case 0x58:  //Hora y Fecha
1014:.\main.c      ****                             flowDisplay1 = 18;
1015:.\main.c      ****                             numberKeys1 = 0;   
1016:.\main.c      ****                             bufferDisplay1.flagKeyboard = 4;
1017:.\main.c      ****                             SetPicture(1,DISPLAY_CONFIGURAR_FECHA_HORA);                           
1018:.\main.c      ****                         break;
1019:.\main.c      ****                         case 0x7E:  //Pantalla Inicial                                             
1020:.\main.c      ****                             SetPicture(1,DISPLAY_INICIO0);
1021:.\main.c      ****                             flowDisplay1 = 0;
1022:.\main.c      ****                         break;
1023:.\main.c      ****                         case 0x94:  //Pantalla Inicial                                             
1024:.\main.c      ****                             SetPicture(1,DISPLAY_INICIO0);
1025:.\main.c      ****                             flowDisplay1 = 0;
1026:.\main.c      ****                         break;
1027:.\main.c      ****                     }                    
1028:.\main.c      ****                 }
1029:.\main.c      ****                 CyDelay(10);         
1030:.\main.c      ****                 Display1_ClearRxBuffer();
1031:.\main.c      ****             }                        
1032:.\main.c      ****         break; 
1033:.\main.c      ****             
1034:.\main.c      ****         case 16:
1035:.\main.c      ****             if(Display1_GetRxBufferSize()==8){
1036:.\main.c      ****                 if((Display1_rxBuffer[0]==0xAA) && (Display1_rxBuffer[6]==0xC3) && (Display1_rxBuff
1037:.\main.c      ****                     switch(Display1_rxBuffer[3]){
1038:.\main.c      ****                         case 0x38:  //No funcionan  
1039:.\main.c      ****                             flowDisplay1 = 17;
1040:.\main.c      ****                             SetPicture(1,DISPLAY_IMPRESORA_NO_FUNCIONANDO);                        
1041:.\main.c      ****                         break;
1042:.\main.c      ****                         case 0x39:  //Si funcionan
1043:.\main.c      ****                             flowDisplay1 = 15; 
1044:.\main.c      ****                             printPortA = 1;
1045:.\main.c      ****                             printPortB = 2;
1046:.\main.c      ****                             EEPROM_1_WriteByte(printPortA,8);
1047:.\main.c      ****                             EEPROM_1_WriteByte(printPortB,9);
1048:.\main.c      ****                             SetPicture(1,DISPLAY_CONFIGURACIONES);
1049:.\main.c      ****                         break;
1050:.\main.c      ****                                                
1051:.\main.c      ****                         case 0x7E:  //Pantalla Inicial                                             
1052:.\main.c      ****                             SetPicture(1,DISPLAY_INICIO0);
1053:.\main.c      ****                             flowDisplay1 = 0;
1054:.\main.c      ****                         break;
1055:.\main.c      ****                         case 0x94:  //Pantalla Inicial                                             
1056:.\main.c      ****                             SetPicture(1,DISPLAY_INICIO0);
1057:.\main.c      ****                             flowDisplay1 = 0;
ARM GAS  C:\Users\RECEPC~1\AppData\Local\Temp\cc79eMMA.s 			page 20


1058:.\main.c      ****                         break;
1059:.\main.c      ****                     }                    
1060:.\main.c      ****                 }
1061:.\main.c      ****                 CyDelay(10);         
1062:.\main.c      ****                 Display1_ClearRxBuffer();
1063:.\main.c      ****             }                        
1064:.\main.c      ****         break;
1065:.\main.c      ****             
1066:.\main.c      ****         case 17:
1067:.\main.c      ****             if(Display1_GetRxBufferSize()==8){
1068:.\main.c      ****                 if((Display1_rxBuffer[0]==0xAA) && (Display1_rxBuffer[6]==0xC3) && (Display1_rxBuff
1069:.\main.c      ****                     switch(Display1_rxBuffer[3]){
1070:.\main.c      ****                         case 0x8C:  //1 no funciona  
1071:.\main.c      ****                             flowDisplay1 = 15; 
1072:.\main.c      ****                             printPortA = 2;
1073:.\main.c      ****                             printPortB = 2;
1074:.\main.c      ****                             EEPROM_1_WriteByte(printPortA,8);
1075:.\main.c      ****                             EEPROM_1_WriteByte(printPortB,9);
1076:.\main.c      ****                             SetPicture(1,DISPLAY_CONFIGURACIONES);                            
1077:.\main.c      ****                         break;
1078:.\main.c      ****                         case 0x8D:  //2 no funciona
1079:.\main.c      ****                             flowDisplay1 = 15; 
1080:.\main.c      ****                             printPortA = 1;
1081:.\main.c      ****                             printPortB = 1;
1082:.\main.c      ****                             EEPROM_1_WriteByte(printPortA,8);
1083:.\main.c      ****                             EEPROM_1_WriteByte(printPortB,9);
1084:.\main.c      ****                             SetPicture(1,DISPLAY_CONFIGURACIONES); 
1085:.\main.c      ****                         break;
1086:.\main.c      ****                             
1087:.\main.c      ****                         case 0x8E:  //ninguna funciona
1088:.\main.c      ****                             flowDisplay1 = 15; 
1089:.\main.c      ****                             printPortA = 0;
1090:.\main.c      ****                             printPortB = 0;
1091:.\main.c      ****                             EEPROM_1_WriteByte(printPortA,8);
1092:.\main.c      ****                             EEPROM_1_WriteByte(printPortB,9);
1093:.\main.c      ****                             SetPicture(1,DISPLAY_CONFIGURACIONES); 
1094:.\main.c      ****                         break;
1095:.\main.c      ****                                                
1096:.\main.c      ****                         case 0x7E:  //Pantalla Inicial                                             
1097:.\main.c      ****                             SetPicture(1,DISPLAY_INICIO0);
1098:.\main.c      ****                             flowDisplay1 = 0;
1099:.\main.c      ****                         break;
1100:.\main.c      ****                         case 0x94:  //Pantalla Inicial                                             
1101:.\main.c      ****                             SetPicture(1,DISPLAY_INICIO0);
1102:.\main.c      ****                             flowDisplay1 = 0;
1103:.\main.c      ****                         break;
1104:.\main.c      ****                     }                    
1105:.\main.c      ****                 }
1106:.\main.c      ****                 CyDelay(10);         
1107:.\main.c      ****                 Display1_ClearRxBuffer();
1108:.\main.c      ****             }                        
1109:.\main.c      ****         break;
1110:.\main.c      ****             
1111:.\main.c      ****         case 18:
1112:.\main.c      ****             if(leer_hora()==1){
1113:.\main.c      ****                 WriteLCD(1,(((timeDownHandle[1]&0x10)>>4)+48),13,8,1,0x0000,'N');
1114:.\main.c      ****                 WriteLCD(1,((timeDownHandle[1]&0x0F)+48),13,9,1,0x0000,'N');
ARM GAS  C:\Users\RECEPC~1\AppData\Local\Temp\cc79eMMA.s 			page 21


1115:.\main.c      ****                 WriteLCD(1,':',13,10,1,0x0000,'N');
1116:.\main.c      ****                 WriteLCD(1,(((timeDownHandle[0]&0xF0)>>4)+48),13,11,1,0x0000,'N');
1117:.\main.c      ****                 WriteLCD(1,((timeDownHandle[0]&0x0F)+48),13,12,1,0x0000,'N');               
1118:.\main.c      ****             }
1119:.\main.c      ****             if(leer_fecha()==1){                
1120:.\main.c      ****                 WriteLCD(1,(((dateDownHandle[0]&0x30)>>4)+48),21,8,1,0x0000,'N');
1121:.\main.c      ****                 WriteLCD(1,((dateDownHandle[0]&0x0F)+48),21,9,1,0x0000,'N');
1122:.\main.c      ****                 WriteLCD(1,'/',21,10,1,0x0000,'N');
1123:.\main.c      ****                 WriteLCD(1,(((dateDownHandle[1]&0x10)>>4)+48),21,11,1,0x0000,'N');
1124:.\main.c      ****                 WriteLCD(1,((dateDownHandle[1]&0x0F)+48),21,12,1,0x0000,'N');
1125:.\main.c      ****                 WriteLCD(1,'/',21,13,1,0x0000,'N');
1126:.\main.c      ****                 WriteLCD(1,(((dateDownHandle[2]&0xF0)>>4)+48),21,14,1,0x0000,'N');
1127:.\main.c      ****                 WriteLCD(1,((dateDownHandle[2]&0x0F)+48),21,15,1,0x0000,'N');
1128:.\main.c      ****             }
1129:.\main.c      ****             if(Display1_GetRxBufferSize()==8){
1130:.\main.c      ****                 if((Display1_rxBuffer[0]==0xAA) && (Display1_rxBuffer[6]==0xC3) && (Display1_rxBuff
1131:.\main.c      ****                     switch(Display1_rxBuffer[3]){                                                  
1132:.\main.c      ****                         case 0x7E:  //Pantalla Inicial  
1133:.\main.c      ****                             flowDisplay1 = 0;
1134:.\main.c      ****                             SetPicture(1,DISPLAY_INICIO0);                            
1135:.\main.c      ****                         break;
1136:.\main.c      ****                         case 0x94:  //Pantalla Inicial    
1137:.\main.c      ****                             flowDisplay1 = 0;
1138:.\main.c      ****                             SetPicture(1,DISPLAY_INICIO0);                            
1139:.\main.c      ****                         break;
1140:.\main.c      ****                     }                    
1141:.\main.c      ****                 }
1142:.\main.c      ****                 CyDelay(10);         
1143:.\main.c      ****                 Display1_ClearRxBuffer();
1144:.\main.c      ****             }                        
1145:.\main.c      ****         break;
1146:.\main.c      ****     countLCD = 0;       
1147:.\main.c      ****     }    
1148:.\main.c      ****     }
1149:.\main.c      **** 
1150:.\main.c      **** 
1151:.\main.c      **** /*
1152:.\main.c      **** ***************************************************************************************************
1153:.\main.c      **** *                                         void polling_Pump(void)
1154:.\main.c      **** *
1155:.\main.c      **** * Description : Pregunta estado al surtidor 
1156:.\main.c      **** *               
1157:.\main.c      **** *
1158:.\main.c      **** ***************************************************************************************************
1159:.\main.c      **** */
1160:.\main.c      **** void PollingDisplay2(void){     
1161:.\main.c      ****     switch(flowDisplay2){
1162:.\main.c      ****         case 0:
1163:.\main.c      ****             InitDisplay2();
1164:.\main.c      ****             flowDisplay2 =1;
1165:.\main.c      ****             side.b.rfState = RF_IDLE;
1166:.\main.c      ****         break;
1167:.\main.c      ****         case 1: //Menu
1168:.\main.c      **** 			ShowRectangle(2,35);        
1169:.\main.c      ****             if(Display2_GetRxBufferSize()==8){
1170:.\main.c      ****                 if((Display2_rxBuffer[0]==0xAA) && (Display2_rxBuffer[6]==0xC3) && (Display2_rxBuff
1171:.\main.c      ****                     switch(Display2_rxBuffer[3]){
ARM GAS  C:\Users\RECEPC~1\AppData\Local\Temp\cc79eMMA.s 			page 22


1172:.\main.c      ****                         case 0x3A:  //Pantalla forma de pago
1173:.\main.c      ****                             flowDisplay2 = 2;                            
1174:.\main.c      ****                             SetPicture(2,DISPLAY_FORMA_PAGO_DESEADA);                            
1175:.\main.c      ****                         break;   
1176:.\main.c      ****                         case 0x7E:  //Pantalla Inicial                                             
1177:.\main.c      ****                             SetPicture(2,DISPLAY_INICIO0);
1178:.\main.c      ****                             flowDisplay2 = 0;
1179:.\main.c      ****                         break;
1180:.\main.c      ****                     }
1181:.\main.c      ****                 }  
1182:.\main.c      ****                 CyDelay(10);         
1183:.\main.c      ****                 Display2_ClearRxBuffer();
1184:.\main.c      ****             }
1185:.\main.c      ****         break;
1186:.\main.c      ****         case 2:
1187:.\main.c      ****             if(Display2_GetRxBufferSize()==8){
1188:.\main.c      ****                 if((Display2_rxBuffer[0]==0xAA) && (Display2_rxBuffer[6]==0xC3) && (Display2_rxBuff
1189:.\main.c      ****                     switch(Display2_rxBuffer[3]){
1190:.\main.c      ****                         case 0x0D:  //Pantalla efectivo              
1191:.\main.c      ****                             flowDisplay2 = 3;                            
1192:.\main.c      ****                             SetPicture(2,DISPLAY_FORMA_PROGRAMACION);                            
1193:.\main.c      ****                         break;
1194:.\main.c      ****                         case 0x0E:  //Pantalla credito   
1195:.\main.c      ****                             flowDisplay2 = 4;                                                     
1196:.\main.c      ****                             SetPicture(2,DISPLAY_ID_DIGITAL);                            
1197:.\main.c      ****                         break;
1198:.\main.c      ****                         case 0x45:  //Pantalla otras opciones 
1199:.\main.c      ****                             flowDisplay2 = 5;                            
1200:.\main.c      ****                             SetPicture(2,DISPLAY_OPERACIONES);                            
1201:.\main.c      ****                         break;
1202:.\main.c      ****                             
1203:.\main.c      ****                         case 0x94:  //Pantalla Inicial    
1204:.\main.c      ****                             flowDisplay2 = 0;
1205:.\main.c      ****                             SetPicture(2,DISPLAY_INICIO0);                            
1206:.\main.c      ****                         break;
1207:.\main.c      ****                         
1208:.\main.c      ****                         case 0x7E:  //Pantalla Inicial    
1209:.\main.c      ****                             flowDisplay2 = 0;
1210:.\main.c      ****                             SetPicture(2,DISPLAY_INICIO0);                            
1211:.\main.c      ****                         break;
1212:.\main.c      ****                     }
1213:.\main.c      ****                 }  
1214:.\main.c      ****                 CyDelay(10);         
1215:.\main.c      ****                 Display2_ClearRxBuffer();
1216:.\main.c      ****             }
1217:.\main.c      ****         break;
1218:.\main.c      ****             
1219:.\main.c      ****         case 3: 
1220:.\main.c      ****             if(Display2_GetRxBufferSize()==8){
1221:.\main.c      ****                 if((Display2_rxBuffer[0]==0xAA) && (Display2_rxBuffer[6]==0xC3) && (Display2_rxBuff
1222:.\main.c      ****                     switch(Display2_rxBuffer[3]){
1223:.\main.c      ****                         case 0x0F:  //Preset dinero                
1224:.\main.c      ****                             flowDisplay2 = 4;
1225:.\main.c      ****                             SetPicture(2,DISPLAY_INTRODUZCA_VALOR);                            
1226:.\main.c      ****                         break; 
1227:.\main.c      ****                         case 0x10:  //Preset volumen                 
1228:.\main.c      ****                             flowDisplay2 = 5;
ARM GAS  C:\Users\RECEPC~1\AppData\Local\Temp\cc79eMMA.s 			page 23


1229:.\main.c      ****                             SetPicture(2,DISPLAY_INTRODUZCA_VOLUMEN);                            
1230:.\main.c      ****                         break;
1231:.\main.c      ****                         case 0x43:  //Preset full                       
1232:.\main.c      ****                             flowDisplay2 = 6;
1233:.\main.c      ****                             SetPicture(2,DISPLAY_DESEA_IMPRIMIR_RECIBO);                           
1234:.\main.c      ****                         break;
1235:.\main.c      ****                         case 0x94:  //Retroceso 
1236:.\main.c      ****                             flowDisplay2 = 0;
1237:.\main.c      ****                             SetPicture(2,DISPLAY_INICIO0);                                         
1238:.\main.c      ****                         break;
1239:.\main.c      ****                         case 0x3B:  //Pantalla Inicial    
1240:.\main.c      ****                             flowDisplay2 = 0;
1241:.\main.c      ****                             SetPicture(2,DISPLAY_INICIO0);                            
1242:.\main.c      ****                         break;
1243:.\main.c      ****                         case 0x7E:  //Pantalla Inicial    
1244:.\main.c      ****                             flowDisplay2 = 0;
1245:.\main.c      ****                             SetPicture(2,DISPLAY_INICIO0);                            
1246:.\main.c      ****                         break;
1247:.\main.c      ****                     }
1248:.\main.c      ****                 }  
1249:.\main.c      ****                 CyDelay(10);         
1250:.\main.c      ****                 Display2_ClearRxBuffer();
1251:.\main.c      ****             }
1252:.\main.c      ****         break;
1253:.\main.c      ****         
1254:.\main.c      ****         case 4:
1255:.\main.c      ****             if(Display2_GetRxBufferSize()==8){
1256:.\main.c      ****                 if((Display2_rxBuffer[0]==0xAA) && (Display2_rxBuffer[6]==0xC3) && (Display2_rxBuff
1257:.\main.c      ****                     switch(Display2_rxBuffer[3]){
1258:.\main.c      ****                         case 0x94:  //Retroceso 
1259:.\main.c      ****                             flowDisplay2 = 0;   
1260:.\main.c      ****                             SetPicture(2,DISPLAY_INICIO0);                                         
1261:.\main.c      ****                         break;
1262:.\main.c      ****                         case 0x7E:  //Pantalla Inicial    
1263:.\main.c      ****                             flowDisplay2 = 0;
1264:.\main.c      ****                             SetPicture(2,DISPLAY_INICIO0);                            
1265:.\main.c      ****                         break;
1266:.\main.c      ****                     }
1267:.\main.c      ****                 }
1268:.\main.c      ****                 CyDelay(10);         
1269:.\main.c      ****                 Display2_ClearRxBuffer();
1270:.\main.c      ****             }
1271:.\main.c      ****         break;
1272:.\main.c      ****             
1273:.\main.c      ****         case 5: //Preset por volumen
1274:.\main.c      ****             if(Display2_GetRxBufferSize()==8){
1275:.\main.c      ****                 if((Display2_rxBuffer[0]==0xAA) && (Display2_rxBuffer[6]==0xC3) && (Display2_rxBuff
1276:.\main.c      ****                     switch(Display2_rxBuffer[3]){
1277:.\main.c      ****                         case 0x94:  //Retroceso 
1278:.\main.c      ****                             flowDisplay2 = 0;   
1279:.\main.c      ****                             SetPicture(2,DISPLAY_INICIO0);                                         
1280:.\main.c      ****                         break;
1281:.\main.c      ****                         case 0x7E:  //Pantalla Inicial    
1282:.\main.c      ****                             flowDisplay2 = 0;
1283:.\main.c      ****                             SetPicture(2,DISPLAY_INICIO0);                            
1284:.\main.c      ****                         break;
1285:.\main.c      ****                     }
ARM GAS  C:\Users\RECEPC~1\AppData\Local\Temp\cc79eMMA.s 			page 24


1286:.\main.c      ****                 }
1287:.\main.c      ****                 CyDelay(10);         
1288:.\main.c      ****                 Display2_ClearRxBuffer();
1289:.\main.c      ****             }
1290:.\main.c      ****         break;
1291:.\main.c      ****         
1292:.\main.c      ****         case 6:
1293:.\main.c      ****             if(Display2_GetRxBufferSize()==8){
1294:.\main.c      ****                 if((Display2_rxBuffer[0]==0xAA) && (Display2_rxBuffer[6]==0xC3) && (Display2_rxBuff
1295:.\main.c      ****                     switch(Display2_rxBuffer[3]){
1296:.\main.c      ****                         case 0x39:  //Si copia                                                     
1297:.\main.c      ****                             SetPicture(2,DISPLAY_DIGITE_PLACA);
1298:.\main.c      ****                             flowDisplay2 = 7;
1299:.\main.c      ****                         break; 
1300:.\main.c      ****                         case 0x38:  //No copia                                                     
1301:.\main.c      ****                             SetPicture(2,DISPLAY_SELECCIONE_PRODUCTO4);
1302:.\main.c      ****                             flowDisplay2 = 8;//caso para seleccion de producto
1303:.\main.c      ****                         break;
1304:.\main.c      ****                         case 0x7E:  //Pantalla Inicial                                             
1305:.\main.c      ****                             SetPicture(2,DISPLAY_INICIO0);
1306:.\main.c      ****                             flowDisplay2 = 0;
1307:.\main.c      ****                         break;
1308:.\main.c      ****                     }                    
1309:.\main.c      ****                 }
1310:.\main.c      ****                 CyDelay(10);         
1311:.\main.c      ****                 Display2_ClearRxBuffer();
1312:.\main.c      ****             }
1313:.\main.c      ****         break;
1314:.\main.c      ****     }
1315:.\main.c      **** }
1316:.\main.c      **** 
1317:.\main.c      **** 
1318:.\main.c      **** /*
1319:.\main.c      **** ***************************************************************************************************
1320:.\main.c      **** *                                         CY_ISR(animacion)
1321:.\main.c      **** *
1322:.\main.c      **** * Description : Interrupcion que temporiza las imagenes informativas que aparecen en la pantalla 1
1323:.\main.c      **** *               
1324:.\main.c      **** *
1325:.\main.c      **** ***************************************************************************************************
1326:.\main.c      **** */
1327:.\main.c      **** CY_ISR(animacion){
  27              		.loc 1 1327 0
  28              		.cfi_startproc
  29              		@ args = 0, pretend = 0, frame = 0
  30              		@ frame_needed = 0, uses_anonymous_args = 0
  31 0000 08B5     		push	{r3, lr}
  32              		.cfi_def_cfa_offset 8
  33              		.cfi_offset 3, -8
  34              		.cfi_offset 14, -4
1328:.\main.c      ****     Timer_Animacion_ReadStatusRegister();    					
  35              		.loc 1 1328 0
  36 0002 FFF7FEFF 		bl	Timer_Animacion_ReadStatusRegister
  37              	.LVL0:
1329:.\main.c      ****     count_protector++; 							//Incrementa el contador 
  38              		.loc 1 1329 0
  39 0006 024A     		ldr	r2, .L3
ARM GAS  C:\Users\RECEPC~1\AppData\Local\Temp\cc79eMMA.s 			page 25


  40 0008 1378     		ldrb	r3, [r2]	@ zero_extendqisi2
  41 000a 0133     		adds	r3, r3, #1
  42 000c 1370     		strb	r3, [r2]
  43 000e 08BD     		pop	{r3, pc}
  44              	.L4:
  45              		.align	2
  46              	.L3:
  47 0010 00000000 		.word	count_protector
  48              		.cfi_endproc
  49              	.LFE73:
  50              		.size	animacion, .-animacion
  51              		.section	.text.timerRFRX,"ax",%progbits
  52              		.align	2
  53              		.global	timerRFRX
  54              		.thumb
  55              		.thumb_func
  56              		.type	timerRFRX, %function
  57              	timerRFRX:
  58              	.LFB75:
1330:.\main.c      **** }
1331:.\main.c      **** 
1332:.\main.c      **** /*
1333:.\main.c      **** ***************************************************************************************************
1334:.\main.c      **** *                                         CY_ISR(animacion2)
1335:.\main.c      **** *
1336:.\main.c      **** * Description : Interrupcion que temporiza las imagenes informativas que aparecen en la pantalla 2
1337:.\main.c      **** *               
1338:.\main.c      **** *
1339:.\main.c      **** ***************************************************************************************************
1340:.\main.c      **** */
1341:.\main.c      **** CY_ISR(animacion2){
1342:.\main.c      ****     Timer_Animacion2_ReadStatusRegister();
1343:.\main.c      ****     count_protector2++;
1344:.\main.c      **** }
1345:.\main.c      **** /*
1346:.\main.c      **** ***************************************************************************************************
1347:.\main.c      **** *                                         CY_ISR(timerBeagleTX1)
1348:.\main.c      **** *
1349:.\main.c      **** * Description : Interrupcion que temporiza tiempos de espera
1350:.\main.c      **** *               
1351:.\main.c      **** *
1352:.\main.c      **** * Argument(s) : none
1353:.\main.c      **** *
1354:.\main.c      **** * Return(s)   : none
1355:.\main.c      **** *
1356:.\main.c      **** * Caller(s)   : 
1357:.\main.c      **** *
1358:.\main.c      **** * Note(s)     : none.
1359:.\main.c      **** ***************************************************************************************************
1360:.\main.c      **** */
1361:.\main.c      **** CY_ISR(timerRFRX){
  59              		.loc 1 1361 0
  60              		.cfi_startproc
  61              		@ args = 0, pretend = 0, frame = 0
  62              		@ frame_needed = 0, uses_anonymous_args = 0
  63 0000 08B5     		push	{r3, lr}
  64              		.cfi_def_cfa_offset 8
ARM GAS  C:\Users\RECEPC~1\AppData\Local\Temp\cc79eMMA.s 			page 26


  65              		.cfi_offset 3, -8
  66              		.cfi_offset 14, -4
1362:.\main.c      ****     Waitable_3_ReadStatusRegister();
  67              		.loc 1 1362 0
  68 0002 FFF7FEFF 		bl	Waitable_3_ReadStatusRegister
  69              	.LVL1:
1363:.\main.c      ****     countRX++;
  70              		.loc 1 1363 0
  71 0006 0849     		ldr	r1, .L7
  72 0008 D1E90023 		ldrd	r2, [r1]
  73 000c 0132     		adds	r2, r2, #1
  74 000e 43F10003 		adc	r3, r3, #0
  75 0012 C1E90023 		strd	r2, [r1]
1364:.\main.c      ****     countTX++;
  76              		.loc 1 1364 0
  77 0016 0549     		ldr	r1, .L7+4
  78 0018 D1E90023 		ldrd	r2, [r1]
  79 001c 0132     		adds	r2, r2, #1
  80 001e 43F10003 		adc	r3, r3, #0
  81 0022 C1E90023 		strd	r2, [r1]
  82 0026 08BD     		pop	{r3, pc}
  83              	.L8:
  84              		.align	2
  85              	.L7:
  86 0028 00000000 		.word	countRX
  87 002c 00000000 		.word	countTX
  88              		.cfi_endproc
  89              	.LFE75:
  90              		.size	timerRFRX, .-timerRFRX
  91              		.section	.text.timerPump,"ax",%progbits
  92              		.align	2
  93              		.global	timerPump
  94              		.thumb
  95              		.thumb_func
  96              		.type	timerPump, %function
  97              	timerPump:
  98              	.LFB76:
1365:.\main.c      **** }
1366:.\main.c      **** 
1367:.\main.c      **** 
1368:.\main.c      **** /*
1369:.\main.c      **** ***************************************************************************************************
1370:.\main.c      **** *                                         CY_ISR(timerPump)
1371:.\main.c      **** *
1372:.\main.c      **** * Description : Interrupcion que temporiza tiempos de espera para preguntar al surtidor
1373:.\main.c      **** *               
1374:.\main.c      **** *
1375:.\main.c      **** * Argument(s) : none
1376:.\main.c      **** *
1377:.\main.c      **** * Return(s)   : none
1378:.\main.c      **** *
1379:.\main.c      **** * Caller(s)   : 
1380:.\main.c      **** *
1381:.\main.c      **** * Note(s)     : none.
1382:.\main.c      **** ***************************************************************************************************
1383:.\main.c      **** */
1384:.\main.c      **** CY_ISR(timerPump){
ARM GAS  C:\Users\RECEPC~1\AppData\Local\Temp\cc79eMMA.s 			page 27


  99              		.loc 1 1384 0
 100              		.cfi_startproc
 101              		@ args = 0, pretend = 0, frame = 0
 102              		@ frame_needed = 0, uses_anonymous_args = 0
 103 0000 08B5     		push	{r3, lr}
 104              		.cfi_def_cfa_offset 8
 105              		.cfi_offset 3, -8
 106              		.cfi_offset 14, -4
1385:.\main.c      ****     Waitable_4_ReadStatusRegister();
 107              		.loc 1 1385 0
 108 0002 FFF7FEFF 		bl	Waitable_4_ReadStatusRegister
 109              	.LVL2:
1386:.\main.c      ****     countPump++;
 110              		.loc 1 1386 0
 111 0006 0849     		ldr	r1, .L11
 112 0008 D1E90023 		ldrd	r2, [r1]
 113 000c 0132     		adds	r2, r2, #1
 114 000e 43F10003 		adc	r3, r3, #0
 115 0012 C1E90023 		strd	r2, [r1]
1387:.\main.c      ****     countLCD++;
 116              		.loc 1 1387 0
 117 0016 0549     		ldr	r1, .L11+4
 118 0018 D1E90023 		ldrd	r2, [r1]
 119 001c 0132     		adds	r2, r2, #1
 120 001e 43F10003 		adc	r3, r3, #0
 121 0022 C1E90023 		strd	r2, [r1]
 122 0026 08BD     		pop	{r3, pc}
 123              	.L12:
 124              		.align	2
 125              	.L11:
 126 0028 00000000 		.word	countPump
 127 002c 00000000 		.word	countLCD
 128              		.cfi_endproc
 129              	.LFE76:
 130              		.size	timerPump, .-timerPump
 131              		.section	.text.GlobalInitializer,"ax",%progbits
 132              		.align	2
 133              		.global	GlobalInitializer
 134              		.thumb
 135              		.thumb_func
 136              		.type	GlobalInitializer, %function
 137              	GlobalInitializer:
 138              	.LFB63:
  38:.\main.c      ****     EEPROM_1_Start();
 139              		.loc 1 38 0
 140              		.cfi_startproc
 141              		@ args = 0, pretend = 0, frame = 0
 142              		@ frame_needed = 0, uses_anonymous_args = 0
 143 0000 08B5     		push	{r3, lr}
 144              		.cfi_def_cfa_offset 8
 145              		.cfi_offset 3, -8
 146              		.cfi_offset 14, -4
  39:.\main.c      ****     Pump_Start(); 
 147              		.loc 1 39 0
 148 0002 FFF7FEFF 		bl	EEPROM_1_Start
 149              	.LVL3:
  40:.\main.c      ****     Display1_Start();
ARM GAS  C:\Users\RECEPC~1\AppData\Local\Temp\cc79eMMA.s 			page 28


 150              		.loc 1 40 0
 151 0006 FFF7FEFF 		bl	Pump_Start
 152              	.LVL4:
  41:.\main.c      ****     Display2_Start();    
 153              		.loc 1 41 0
 154 000a FFF7FEFF 		bl	Display1_Start
 155              	.LVL5:
  42:.\main.c      ****     Printer_Start();   
 156              		.loc 1 42 0
 157 000e FFF7FEFF 		bl	Display2_Start
 158              	.LVL6:
  43:.\main.c      ****     I2C_Bus_Start();
 159              		.loc 1 43 0
 160 0012 FFF7FEFF 		bl	Printer_Start
 161              	.LVL7:
  44:.\main.c      ****     RF_Connection_Start();
 162              		.loc 1 44 0
 163 0016 FFF7FEFF 		bl	I2C_Bus_Start
 164              	.LVL8:
  45:.\main.c      ****     isr_1_StartEx(timerRFRX); 
 165              		.loc 1 45 0
 166 001a FFF7FEFF 		bl	RF_Connection_Start
 167              	.LVL9:
  46:.\main.c      ****     Waitable_3_Start();
 168              		.loc 1 46 0
 169 001e 0548     		ldr	r0, .L15
 170 0020 FFF7FEFF 		bl	isr_1_StartEx
 171              	.LVL10:
  47:.\main.c      ****     isr_2_StartEx(timerPump); 
 172              		.loc 1 47 0
 173 0024 FFF7FEFF 		bl	Waitable_3_Start
 174              	.LVL11:
  48:.\main.c      ****     Waitable_4_Start();
 175              		.loc 1 48 0
 176 0028 0348     		ldr	r0, .L15+4
 177 002a FFF7FEFF 		bl	isr_2_StartEx
 178              	.LVL12:
  49:.\main.c      **** }
 179              		.loc 1 49 0
 180 002e FFF7FEFF 		bl	Waitable_4_Start
 181              	.LVL13:
 182 0032 08BD     		pop	{r3, pc}
 183              	.L16:
 184              		.align	2
 185              	.L15:
 186 0034 00000000 		.word	timerRFRX
 187 0038 00000000 		.word	timerPump
 188              		.cfi_endproc
 189              	.LFE63:
 190              		.size	GlobalInitializer, .-GlobalInitializer
 191              		.section	.text.StoreConfiguration,"ax",%progbits
 192              		.align	2
 193              		.global	StoreConfiguration
 194              		.thumb
 195              		.thumb_func
 196              		.type	StoreConfiguration, %function
 197              	StoreConfiguration:
ARM GAS  C:\Users\RECEPC~1\AppData\Local\Temp\cc79eMMA.s 			page 29


 198              	.LFB64:
  51:.\main.c      ****     EEPROM_1_WriteByte(UnitType,0);
 199              		.loc 1 51 0
 200              		.cfi_startproc
 201              		@ args = 0, pretend = 0, frame = 0
 202              		@ frame_needed = 0, uses_anonymous_args = 0
 203 0000 10B5     		push	{r4, lr}
 204              		.cfi_def_cfa_offset 8
 205              		.cfi_offset 4, -8
 206              		.cfi_offset 14, -4
  52:.\main.c      ****     EEPROM_1_WriteByte(ConversionFactor,1);
 207              		.loc 1 52 0
 208 0002 1C4B     		ldr	r3, .L19
 209 0004 1878     		ldrb	r0, [r3]	@ zero_extendqisi2
 210 0006 0021     		movs	r1, #0
 211 0008 FFF7FEFF 		bl	EEPROM_1_WriteByte
 212              	.LVL14:
  53:.\main.c      ****     EEPROM_1_WriteByte(MoneyDec,2);
 213              		.loc 1 53 0
 214 000c 1A4B     		ldr	r3, .L19+4
 215 000e 1878     		ldrb	r0, [r3]	@ zero_extendqisi2
 216 0010 0121     		movs	r1, #1
 217 0012 FFF7FEFF 		bl	EEPROM_1_WriteByte
 218              	.LVL15:
  54:.\main.c      ****     EEPROM_1_WriteByte(VolDec,3);
 219              		.loc 1 54 0
 220 0016 194B     		ldr	r3, .L19+8
 221 0018 1878     		ldrb	r0, [r3]	@ zero_extendqisi2
 222 001a 0221     		movs	r1, #2
 223 001c FFF7FEFF 		bl	EEPROM_1_WriteByte
 224              	.LVL16:
  55:.\main.c      ****     EEPROM_1_WriteByte(PPUDec,4);
 225              		.loc 1 55 0
 226 0020 174B     		ldr	r3, .L19+12
 227 0022 1878     		ldrb	r0, [r3]	@ zero_extendqisi2
 228 0024 0321     		movs	r1, #3
 229 0026 FFF7FEFF 		bl	EEPROM_1_WriteByte
 230              	.LVL17:
  56:.\main.c      ****     EEPROM_1_WriteByte(DDMode,5);
 231              		.loc 1 56 0
 232 002a 164B     		ldr	r3, .L19+16
 233 002c 1878     		ldrb	r0, [r3]	@ zero_extendqisi2
 234 002e 0421     		movs	r1, #4
 235 0030 FFF7FEFF 		bl	EEPROM_1_WriteByte
 236              	.LVL18:
  57:.\main.c      ****     EEPROM_1_WriteByte(digits,6); 
 237              		.loc 1 57 0
 238 0034 144B     		ldr	r3, .L19+20
 239 0036 1878     		ldrb	r0, [r3]	@ zero_extendqisi2
 240 0038 0521     		movs	r1, #5
 241 003a FFF7FEFF 		bl	EEPROM_1_WriteByte
 242              	.LVL19:
  58:.\main.c      ****     EEPROM_1_WriteByte(side.a.dir,12);
 243              		.loc 1 58 0
 244 003e 134B     		ldr	r3, .L19+24
 245 0040 1878     		ldrb	r0, [r3]	@ zero_extendqisi2
 246 0042 0621     		movs	r1, #6
ARM GAS  C:\Users\RECEPC~1\AppData\Local\Temp\cc79eMMA.s 			page 30


 247 0044 FFF7FEFF 		bl	EEPROM_1_WriteByte
 248              	.LVL20:
  59:.\main.c      ****     EEPROM_1_WriteByte(side.b.dir,13);
 249              		.loc 1 59 0
 250 0048 114C     		ldr	r4, .L19+28
 251 004a 2078     		ldrb	r0, [r4]	@ zero_extendqisi2
 252 004c 0C21     		movs	r1, #12
 253 004e FFF7FEFF 		bl	EEPROM_1_WriteByte
 254              	.LVL21:
  60:.\main.c      ****     EEPROM_1_WriteByte(side.c.dir,14);
 255              		.loc 1 60 0
 256 0052 94F80601 		ldrb	r0, [r4, #262]	@ zero_extendqisi2
 257 0056 0D21     		movs	r1, #13
 258 0058 FFF7FEFF 		bl	EEPROM_1_WriteByte
 259              	.LVL22:
  61:.\main.c      ****     EEPROM_1_WriteByte(side.d.dir,15);
 260              		.loc 1 61 0
 261 005c 94F80C02 		ldrb	r0, [r4, #524]	@ zero_extendqisi2
 262 0060 0E21     		movs	r1, #14
 263 0062 FFF7FEFF 		bl	EEPROM_1_WriteByte
 264              	.LVL23:
  62:.\main.c      **** }
 265              		.loc 1 62 0
 266 0066 94F81203 		ldrb	r0, [r4, #786]	@ zero_extendqisi2
 267 006a 0F21     		movs	r1, #15
 268 006c FFF7FEFF 		bl	EEPROM_1_WriteByte
 269              	.LVL24:
 270 0070 10BD     		pop	{r4, pc}
 271              	.L20:
 272 0072 00BF     		.align	2
 273              	.L19:
 274 0074 00000000 		.word	UnitType
 275 0078 00000000 		.word	ConversionFactor
 276 007c 00000000 		.word	MoneyDec
 277 0080 00000000 		.word	VolDec
 278 0084 00000000 		.word	PPUDec
 279 0088 00000000 		.word	DDMode
 280 008c 00000000 		.word	digits
 281 0090 00000000 		.word	side
 282              		.cfi_endproc
 283              	.LFE64:
 284              		.size	StoreConfiguration, .-StoreConfiguration
 285              		.section	.text.loadConfiguration,"ax",%progbits
 286              		.align	2
 287              		.global	loadConfiguration
 288              		.thumb
 289              		.thumb_func
 290              		.type	loadConfiguration, %function
 291              	loadConfiguration:
 292              	.LFB65:
  64:.\main.c      ****     uint8 x;
 293              		.loc 1 64 0
 294              		.cfi_startproc
 295              		@ args = 0, pretend = 0, frame = 0
 296              		@ frame_needed = 0, uses_anonymous_args = 0
 297 0000 10B5     		push	{r4, lr}
 298              		.cfi_def_cfa_offset 8
ARM GAS  C:\Users\RECEPC~1\AppData\Local\Temp\cc79eMMA.s 			page 31


 299              		.cfi_offset 4, -8
 300              		.cfi_offset 14, -4
  66:.\main.c      ****     VolDec     = EEPROM_1_ReadByte(3);
 301              		.loc 1 66 0
 302 0002 0220     		movs	r0, #2
 303 0004 FFF7FEFF 		bl	EEPROM_1_ReadByte
 304              	.LVL25:
 305 0008 234B     		ldr	r3, .L23
 306 000a 1870     		strb	r0, [r3]
  67:.\main.c      ****     PPUDec     = EEPROM_1_ReadByte(4);
 307              		.loc 1 67 0
 308 000c 0320     		movs	r0, #3
 309 000e FFF7FEFF 		bl	EEPROM_1_ReadByte
 310              	.LVL26:
 311 0012 224B     		ldr	r3, .L23+4
 312 0014 1870     		strb	r0, [r3]
  68:.\main.c      ****     DDMode     = EEPROM_1_ReadByte(5);
 313              		.loc 1 68 0
 314 0016 0420     		movs	r0, #4
 315 0018 FFF7FEFF 		bl	EEPROM_1_ReadByte
 316              	.LVL27:
 317 001c 204B     		ldr	r3, .L23+8
 318 001e 1870     		strb	r0, [r3]
  69:.\main.c      ****     digits     = EEPROM_1_ReadByte(6);
 319              		.loc 1 69 0
 320 0020 0520     		movs	r0, #5
 321 0022 FFF7FEFF 		bl	EEPROM_1_ReadByte
 322              	.LVL28:
 323 0026 1F4B     		ldr	r3, .L23+12
 324 0028 1870     		strb	r0, [r3]
  70:.\main.c      ****     lockTurn   = EEPROM_1_ReadByte(7);  //Fijo turno abierto para pruebas
 325              		.loc 1 70 0
 326 002a 0620     		movs	r0, #6
 327 002c FFF7FEFF 		bl	EEPROM_1_ReadByte
 328              	.LVL29:
 329 0030 1D4B     		ldr	r3, .L23+16
 330 0032 1870     		strb	r0, [r3]
  71:.\main.c      ****     printPortA = EEPROM_1_ReadByte(8);  //Puertos de impresion
 331              		.loc 1 71 0
 332 0034 0720     		movs	r0, #7
 333 0036 FFF7FEFF 		bl	EEPROM_1_ReadByte
 334              	.LVL30:
 335 003a 1C4B     		ldr	r3, .L23+20
 336 003c 1870     		strb	r0, [r3]
  72:.\main.c      ****     printPortB = EEPROM_1_ReadByte(9); //Puertos de impresion
 337              		.loc 1 72 0
 338 003e 0820     		movs	r0, #8
 339 0040 FFF7FEFF 		bl	EEPROM_1_ReadByte
 340              	.LVL31:
 341 0044 1A4B     		ldr	r3, .L23+24
 342 0046 1870     		strb	r0, [r3]
  73:.\main.c      ****     IDCast[0]  = EEPROM_1_ReadByte(10); //ID Estacion1
 343              		.loc 1 73 0
 344 0048 0920     		movs	r0, #9
 345 004a FFF7FEFF 		bl	EEPROM_1_ReadByte
 346              	.LVL32:
 347 004e 194B     		ldr	r3, .L23+28
ARM GAS  C:\Users\RECEPC~1\AppData\Local\Temp\cc79eMMA.s 			page 32


 348 0050 1870     		strb	r0, [r3]
  74:.\main.c      ****     IDCast[1]  = EEPROM_1_ReadByte(11); //ID Estacion2    
 349              		.loc 1 74 0
 350 0052 0A20     		movs	r0, #10
 351 0054 FFF7FEFF 		bl	EEPROM_1_ReadByte
 352              	.LVL33:
 353 0058 174C     		ldr	r4, .L23+32
 354 005a 2070     		strb	r0, [r4]
  75:.\main.c      ****     passwordPump[0] = 0x04;
 355              		.loc 1 75 0
 356 005c 0B20     		movs	r0, #11
 357 005e FFF7FEFF 		bl	EEPROM_1_ReadByte
 358              	.LVL34:
 359 0062 6070     		strb	r0, [r4, #1]
  76:.\main.c      ****     configAccess[0] = 0x04; 
 360              		.loc 1 76 0
 361 0064 0423     		movs	r3, #4
 362 0066 154A     		ldr	r2, .L23+36
 363 0068 1370     		strb	r3, [r2]
  77:.\main.c      ****     side.a.dir = EEPROM_1_ReadByte(12);
 364              		.loc 1 77 0
 365 006a 154A     		ldr	r2, .L23+40
 366 006c 1370     		strb	r3, [r2]
  78:.\main.c      ****     side.b.dir = EEPROM_1_ReadByte(13);
 367              		.loc 1 78 0
 368 006e 0C20     		movs	r0, #12
 369 0070 FFF7FEFF 		bl	EEPROM_1_ReadByte
 370              	.LVL35:
 371 0074 134C     		ldr	r4, .L23+44
 372 0076 2070     		strb	r0, [r4]
  79:.\main.c      ****     side.c.dir = EEPROM_1_ReadByte(14);
 373              		.loc 1 79 0
 374 0078 0D20     		movs	r0, #13
 375 007a FFF7FEFF 		bl	EEPROM_1_ReadByte
 376              	.LVL36:
 377 007e 84F80601 		strb	r0, [r4, #262]
  80:.\main.c      ****     side.d.dir = EEPROM_1_ReadByte(15);
 378              		.loc 1 80 0
 379 0082 0E20     		movs	r0, #14
 380 0084 FFF7FEFF 		bl	EEPROM_1_ReadByte
 381              	.LVL37:
 382 0088 84F80C02 		strb	r0, [r4, #524]
  81:.\main.c      **** //    for(x=0; x<30;x++){
 383              		.loc 1 81 0
 384 008c 0F20     		movs	r0, #15
 385 008e FFF7FEFF 		bl	EEPROM_1_ReadByte
 386              	.LVL38:
 387 0092 84F81203 		strb	r0, [r4, #786]
 388 0096 10BD     		pop	{r4, pc}
 389              	.L24:
 390              		.align	2
 391              	.L23:
 392 0098 00000000 		.word	MoneyDec
 393 009c 00000000 		.word	VolDec
 394 00a0 00000000 		.word	PPUDec
 395 00a4 00000000 		.word	DDMode
 396 00a8 00000000 		.word	digits
ARM GAS  C:\Users\RECEPC~1\AppData\Local\Temp\cc79eMMA.s 			page 33


 397 00ac 00000000 		.word	lockTurn
 398 00b0 00000000 		.word	printPortA
 399 00b4 00000000 		.word	printPortB
 400 00b8 00000000 		.word	IDCast
 401 00bc 00000000 		.word	.LANCHOR0
 402 00c0 00000000 		.word	configAccess
 403 00c4 00000000 		.word	side
 404              		.cfi_endproc
 405              	.LFE65:
 406              		.size	loadConfiguration, .-loadConfiguration
 407              		.section	.text.InitDisplay1,"ax",%progbits
 408              		.align	2
 409              		.global	InitDisplay1
 410              		.thumb
 411              		.thumb_func
 412              		.type	InitDisplay1, %function
 413              	InitDisplay1:
 414              	.LFB66:
 106:.\main.c      ****     uint8_t iniText[10]="Iniciando"; 
 415              		.loc 1 106 0
 416              		.cfi_startproc
 417              		@ args = 0, pretend = 0, frame = 112
 418              		@ frame_needed = 0, uses_anonymous_args = 0
 419 0000 10B5     		push	{r4, lr}
 420              		.cfi_def_cfa_offset 8
 421              		.cfi_offset 4, -8
 422              		.cfi_offset 14, -4
 423 0002 9CB0     		sub	sp, sp, #112
 424              		.cfi_def_cfa_offset 120
 107:.\main.c      ****     uint8_t Unit[10] = "S/D/Dupla ";
 425              		.loc 1 107 0
 426 0004 994A     		ldr	r2, .L42
 427 0006 19AB     		add	r3, sp, #100
 428 0008 07CA     		ldmia	r2, {r0, r1, r2}
 429 000a 03C3     		stmia	r3!, {r0, r1}
 430 000c 1A80     		strh	r2, [r3]	@ movhi
 108:.\main.c      ****     uint8_t Unit2[10] = "Quadrupla";
 431              		.loc 1 108 0
 432 000e 984B     		ldr	r3, .L42+4
 433 0010 16AC     		add	r4, sp, #88
 434 0012 93E80700 		ldmia	r3, {r0, r1, r2}
 435 0016 03C4     		stmia	r4!, {r0, r1}
 436 0018 2280     		strh	r2, [r4]	@ movhi
 109:.\main.c      ****     uint8_t Unit3[10] = "Sextupla";
 437              		.loc 1 109 0
 438 001a 964A     		ldr	r2, .L42+8
 439 001c 13AC     		add	r4, sp, #76
 440 001e 07CA     		ldmia	r2, {r0, r1, r2}
 441 0020 03C4     		stmia	r4!, {r0, r1}
 442 0022 2280     		strh	r2, [r4]	@ movhi
 110:.\main.c      ****     uint8_t Unit4[10] = "Octupla";
 443              		.loc 1 110 0
 444 0024 10AC     		add	r4, sp, #64
 445 0026 03F10C02 		add	r2, r3, #12
 446 002a 07CA     		ldmia	r2, {r0, r1, r2}
 447 002c 03C4     		stmia	r4!, {r0, r1}
 448 002e 2270     		strb	r2, [r4]
ARM GAS  C:\Users\RECEPC~1\AppData\Local\Temp\cc79eMMA.s 			page 34


 449 0030 0022     		movs	r2, #0
 450 0032 8DF84920 		strb	r2, [sp, #73]
 111:.\main.c      ****     uint8_t DisplayMode0[10] = "5-5-4     ";
 451              		.loc 1 111 0
 452 0036 0DAC     		add	r4, sp, #52
 453 0038 03F11801 		add	r1, r3, #24
 454 003c 03C9     		ldmia	r1, {r0, r1}
 455 003e 84E80300 		stmia	r4, {r0, r1}
 456 0042 ADF83C20 		strh	r2, [sp, #60]	@ movhi
 112:.\main.c      ****     uint8_t DisplayMode[10] = "6-6-4     ";
 457              		.loc 1 112 0
 458 0046 0AAC     		add	r4, sp, #40
 459 0048 03F12402 		add	r2, r3, #36
 460 004c 07CA     		ldmia	r2, {r0, r1, r2}
 461 004e 03C4     		stmia	r4!, {r0, r1}
 462 0050 2280     		strh	r2, [r4]	@ movhi
 113:.\main.c      ****     uint8_t DisplayMode2[10] = "7-7-5     ";
 463              		.loc 1 113 0
 464 0052 07AC     		add	r4, sp, #28
 465 0054 03F13002 		add	r2, r3, #48
 466 0058 07CA     		ldmia	r2, {r0, r1, r2}
 467 005a 03C4     		stmia	r4!, {r0, r1}
 468 005c 2280     		strh	r2, [r4]	@ movhi
 114:.\main.c      ****     uint8_t DisplayMode3[10] = "8-7-5     ";
 469              		.loc 1 114 0
 470 005e 04AC     		add	r4, sp, #16
 471 0060 03F13C02 		add	r2, r3, #60
 472 0064 07CA     		ldmia	r2, {r0, r1, r2}
 473 0066 03C4     		stmia	r4!, {r0, r1}
 474 0068 2280     		strh	r2, [r4]	@ movhi
 115:.\main.c      ****     if(NumPositions == 2){
 475              		.loc 1 115 0
 476 006a 01AC     		add	r4, sp, #4
 477 006c 4833     		adds	r3, r3, #72
 478 006e 93E80700 		ldmia	r3, {r0, r1, r2}
 479 0072 03C4     		stmia	r4!, {r0, r1}
 480 0074 2280     		strh	r2, [r4]	@ movhi
 116:.\main.c      ****         SetPicture(1,DISPLAY_INICIO0);         
 481              		.loc 1 116 0
 482 0076 804B     		ldr	r3, .L42+12
 483 0078 1B78     		ldrb	r3, [r3]	@ zero_extendqisi2
 484 007a 022B     		cmp	r3, #2
 485 007c 7AD1     		bne	.L26
 117:.\main.c      ****         ShowMessage(1,iniText,0);    
 486              		.loc 1 117 0
 487 007e 0120     		movs	r0, #1
 488 0080 0146     		mov	r1, r0
 489 0082 FFF7FEFF 		bl	SetPicture
 490              	.LVL39:
 118:.\main.c      ****         CyDelay(300);
 491              		.loc 1 118 0
 492 0086 0120     		movs	r0, #1
 493 0088 19A9     		add	r1, sp, #100
 494 008a 0022     		movs	r2, #0
 495 008c FFF7FEFF 		bl	ShowMessage
 496              	.LVL40:
 119:.\main.c      ****         if(UnitType == 0){
ARM GAS  C:\Users\RECEPC~1\AppData\Local\Temp\cc79eMMA.s 			page 35


 497              		.loc 1 119 0
 498 0090 4FF49670 		mov	r0, #300
 499 0094 FFF7FEFF 		bl	CyDelay
 500              	.LVL41:
 120:.\main.c      ****             side.a.hoseNumber = UnitType+1;
 501              		.loc 1 120 0
 502 0098 784B     		ldr	r3, .L42+16
 503 009a 1B78     		ldrb	r3, [r3]	@ zero_extendqisi2
 504 009c 5BB9     		cbnz	r3, .L27
 121:.\main.c      ****             side.b.hoseNumber = UnitType+1;
 505              		.loc 1 121 0
 506 009e 0133     		adds	r3, r3, #1
 507 00a0 DBB2     		uxtb	r3, r3
 508 00a2 774A     		ldr	r2, .L42+20
 509 00a4 82F80231 		strb	r3, [r2, #258]
 122:.\main.c      ****             ShowMessage(1,Unit,0);  //Mostrar tipo de dispensador      
 510              		.loc 1 122 0
 511 00a8 82F80832 		strb	r3, [r2, #520]
 123:.\main.c      ****         }
 512              		.loc 1 123 0
 513 00ac 0120     		movs	r0, #1
 514 00ae 16A9     		add	r1, sp, #88
 515 00b0 0022     		movs	r2, #0
 516 00b2 FFF7FEFF 		bl	ShowMessage
 517              	.LVL42:
 518              	.L27:
 125:.\main.c      ****             side.a.hoseNumber = UnitType+1;
 519              		.loc 1 125 0
 520 00b6 714B     		ldr	r3, .L42+16
 521 00b8 1B78     		ldrb	r3, [r3]	@ zero_extendqisi2
 522 00ba 012B     		cmp	r3, #1
 523 00bc 0BD1     		bne	.L28
 126:.\main.c      ****             side.b.hoseNumber = UnitType+1;
 524              		.loc 1 126 0
 525 00be 0133     		adds	r3, r3, #1
 526 00c0 DBB2     		uxtb	r3, r3
 527 00c2 6F4A     		ldr	r2, .L42+20
 528 00c4 82F80231 		strb	r3, [r2, #258]
 127:.\main.c      ****             ShowMessage(1,Unit2,0);
 529              		.loc 1 127 0
 530 00c8 82F80832 		strb	r3, [r2, #520]
 128:.\main.c      ****         }
 531              		.loc 1 128 0
 532 00cc 0120     		movs	r0, #1
 533 00ce 13A9     		add	r1, sp, #76
 534 00d0 0022     		movs	r2, #0
 535 00d2 FFF7FEFF 		bl	ShowMessage
 536              	.LVL43:
 537              	.L28:
 130:.\main.c      ****             side.a.hoseNumber = UnitType+1;
 538              		.loc 1 130 0
 539 00d6 694B     		ldr	r3, .L42+16
 540 00d8 1B78     		ldrb	r3, [r3]	@ zero_extendqisi2
 541 00da 022B     		cmp	r3, #2
 542 00dc 0BD1     		bne	.L29
 131:.\main.c      ****             side.b.hoseNumber = UnitType+1;
 543              		.loc 1 131 0
ARM GAS  C:\Users\RECEPC~1\AppData\Local\Temp\cc79eMMA.s 			page 36


 544 00de 0133     		adds	r3, r3, #1
 545 00e0 DBB2     		uxtb	r3, r3
 546 00e2 674A     		ldr	r2, .L42+20
 547 00e4 82F80231 		strb	r3, [r2, #258]
 132:.\main.c      ****             ShowMessage(1,Unit3,0);
 548              		.loc 1 132 0
 549 00e8 82F80832 		strb	r3, [r2, #520]
 133:.\main.c      ****         }
 550              		.loc 1 133 0
 551 00ec 0120     		movs	r0, #1
 552 00ee 10A9     		add	r1, sp, #64
 553 00f0 0022     		movs	r2, #0
 554 00f2 FFF7FEFF 		bl	ShowMessage
 555              	.LVL44:
 556              	.L29:
 135:.\main.c      ****             side.a.hoseNumber = UnitType+1;
 557              		.loc 1 135 0
 558 00f6 614B     		ldr	r3, .L42+16
 559 00f8 1B78     		ldrb	r3, [r3]	@ zero_extendqisi2
 560 00fa 032B     		cmp	r3, #3
 561 00fc 0BD1     		bne	.L30
 136:.\main.c      ****             side.b.hoseNumber = UnitType+1;
 562              		.loc 1 136 0
 563 00fe 0133     		adds	r3, r3, #1
 564 0100 DBB2     		uxtb	r3, r3
 565 0102 5F4A     		ldr	r2, .L42+20
 566 0104 82F80231 		strb	r3, [r2, #258]
 137:.\main.c      ****             ShowMessage(1,Unit4,0);
 567              		.loc 1 137 0
 568 0108 82F80832 		strb	r3, [r2, #520]
 138:.\main.c      ****         } 
 569              		.loc 1 138 0
 570 010c 0120     		movs	r0, #1
 571 010e 0DA9     		add	r1, sp, #52
 572 0110 0022     		movs	r2, #0
 573 0112 FFF7FEFF 		bl	ShowMessage
 574              	.LVL45:
 575              	.L30:
 140:.\main.c      ****             ShowMessage(1,DisplayMode0,22); //Mostrar modo de display
 576              		.loc 1 140 0
 577 0116 5B4B     		ldr	r3, .L42+24
 578 0118 1B78     		ldrb	r3, [r3]	@ zero_extendqisi2
 579 011a 3BB9     		cbnz	r3, .L31
 141:.\main.c      ****             digits = 5;
 580              		.loc 1 141 0
 581 011c 0120     		movs	r0, #1
 582 011e 0AA9     		add	r1, sp, #40
 583 0120 1622     		movs	r2, #22
 584 0122 FFF7FEFF 		bl	ShowMessage
 585              	.LVL46:
 142:.\main.c      ****         }
 586              		.loc 1 142 0
 587 0126 0522     		movs	r2, #5
 588 0128 574B     		ldr	r3, .L42+28
 589 012a 1A70     		strb	r2, [r3]
 590              	.L31:
 144:.\main.c      ****             ShowMessage(1,DisplayMode,22); //Mostrar modo de display
ARM GAS  C:\Users\RECEPC~1\AppData\Local\Temp\cc79eMMA.s 			page 37


 591              		.loc 1 144 0
 592 012c 554B     		ldr	r3, .L42+24
 593 012e 1B78     		ldrb	r3, [r3]	@ zero_extendqisi2
 594 0130 012B     		cmp	r3, #1
 595 0132 07D1     		bne	.L32
 145:.\main.c      ****             digits = 6;
 596              		.loc 1 145 0
 597 0134 0120     		movs	r0, #1
 598 0136 07A9     		add	r1, sp, #28
 599 0138 1622     		movs	r2, #22
 600 013a FFF7FEFF 		bl	ShowMessage
 601              	.LVL47:
 146:.\main.c      ****         }
 602              		.loc 1 146 0
 603 013e 0622     		movs	r2, #6
 604 0140 514B     		ldr	r3, .L42+28
 605 0142 1A70     		strb	r2, [r3]
 606              	.L32:
 148:.\main.c      ****            ShowMessage(1,DisplayMode2,22);
 607              		.loc 1 148 0
 608 0144 4F4B     		ldr	r3, .L42+24
 609 0146 1B78     		ldrb	r3, [r3]	@ zero_extendqisi2
 610 0148 022B     		cmp	r3, #2
 611 014a 07D1     		bne	.L33
 149:.\main.c      ****             digits = 7;
 612              		.loc 1 149 0
 613 014c 0120     		movs	r0, #1
 614 014e 04A9     		add	r1, sp, #16
 615 0150 1622     		movs	r2, #22
 616 0152 FFF7FEFF 		bl	ShowMessage
 617              	.LVL48:
 150:.\main.c      ****         }
 618              		.loc 1 150 0
 619 0156 0722     		movs	r2, #7
 620 0158 4B4B     		ldr	r3, .L42+28
 621 015a 1A70     		strb	r2, [r3]
 622              	.L33:
 152:.\main.c      ****             ShowMessage(1,DisplayMode3,22);
 623              		.loc 1 152 0
 624 015c 494B     		ldr	r3, .L42+24
 625 015e 1B78     		ldrb	r3, [r3]	@ zero_extendqisi2
 626 0160 032B     		cmp	r3, #3
 627 0162 07D1     		bne	.L26
 153:.\main.c      ****             digits = 8;
 628              		.loc 1 153 0
 629 0164 0120     		movs	r0, #1
 630 0166 01A9     		add	r1, sp, #4
 631 0168 1622     		movs	r2, #22
 632 016a FFF7FEFF 		bl	ShowMessage
 633              	.LVL49:
 154:.\main.c      ****         }        
 634              		.loc 1 154 0
 635 016e 0822     		movs	r2, #8
 636 0170 454B     		ldr	r3, .L42+28
 637 0172 1A70     		strb	r2, [r3]
 638              	.L26:
 157:.\main.c      ****         SetPicture(1,DISPLAY_SELECCIONE_POSICION);        
ARM GAS  C:\Users\RECEPC~1\AppData\Local\Temp\cc79eMMA.s 			page 38


 639              		.loc 1 157 0
 640 0174 404B     		ldr	r3, .L42+12
 641 0176 1B78     		ldrb	r3, [r3]	@ zero_extendqisi2
 642 0178 042B     		cmp	r3, #4
 643 017a 6DD1     		bne	.L34
 158:.\main.c      ****         ShowMessage(1,iniText,0);    
 644              		.loc 1 158 0
 645 017c 0120     		movs	r0, #1
 646 017e 2E21     		movs	r1, #46
 647 0180 FFF7FEFF 		bl	SetPicture
 648              	.LVL50:
 159:.\main.c      ****         CyDelay(300);
 649              		.loc 1 159 0
 650 0184 0120     		movs	r0, #1
 651 0186 19A9     		add	r1, sp, #100
 652 0188 0022     		movs	r2, #0
 653 018a FFF7FEFF 		bl	ShowMessage
 654              	.LVL51:
 160:.\main.c      ****         if(UnitType == 0){
 655              		.loc 1 160 0
 656 018e 4FF49670 		mov	r0, #300
 657 0192 FFF7FEFF 		bl	CyDelay
 658              	.LVL52:
 161:.\main.c      ****             side.a.hoseNumber = UnitType+1;
 659              		.loc 1 161 0
 660 0196 394B     		ldr	r3, .L42+16
 661 0198 1B78     		ldrb	r3, [r3]	@ zero_extendqisi2
 662 019a 7BB9     		cbnz	r3, .L35
 162:.\main.c      ****             side.b.hoseNumber = UnitType+1;
 663              		.loc 1 162 0
 664 019c 0133     		adds	r3, r3, #1
 665 019e DBB2     		uxtb	r3, r3
 666 01a0 374A     		ldr	r2, .L42+20
 667 01a2 82F80231 		strb	r3, [r2, #258]
 163:.\main.c      ****             side.c.hoseNumber = UnitType+1;
 668              		.loc 1 163 0
 669 01a6 82F80832 		strb	r3, [r2, #520]
 164:.\main.c      ****             side.d.hoseNumber = UnitType+1;
 670              		.loc 1 164 0
 671 01aa 82F80E33 		strb	r3, [r2, #782]
 165:.\main.c      ****             ShowMessage(1,Unit,0);  //Mostrar tipo de dispensador      
 672              		.loc 1 165 0
 673 01ae 82F81434 		strb	r3, [r2, #1044]
 166:.\main.c      ****         }
 674              		.loc 1 166 0
 675 01b2 0120     		movs	r0, #1
 676 01b4 16A9     		add	r1, sp, #88
 677 01b6 0022     		movs	r2, #0
 678 01b8 FFF7FEFF 		bl	ShowMessage
 679              	.LVL53:
 680              	.L35:
 168:.\main.c      ****             side.a.hoseNumber = UnitType+1;
 681              		.loc 1 168 0
 682 01bc 2F4B     		ldr	r3, .L42+16
 683 01be 1B78     		ldrb	r3, [r3]	@ zero_extendqisi2
 684 01c0 012B     		cmp	r3, #1
 685 01c2 0FD1     		bne	.L36
ARM GAS  C:\Users\RECEPC~1\AppData\Local\Temp\cc79eMMA.s 			page 39


 169:.\main.c      ****             side.b.hoseNumber = UnitType+1;
 686              		.loc 1 169 0
 687 01c4 0133     		adds	r3, r3, #1
 688 01c6 DBB2     		uxtb	r3, r3
 689 01c8 2D4A     		ldr	r2, .L42+20
 690 01ca 82F80231 		strb	r3, [r2, #258]
 170:.\main.c      ****             side.c.hoseNumber = UnitType+1;
 691              		.loc 1 170 0
 692 01ce 82F80832 		strb	r3, [r2, #520]
 171:.\main.c      ****             side.d.hoseNumber = UnitType+1;
 693              		.loc 1 171 0
 694 01d2 82F80E33 		strb	r3, [r2, #782]
 172:.\main.c      ****             ShowMessage(1,Unit2,0);
 695              		.loc 1 172 0
 696 01d6 82F81434 		strb	r3, [r2, #1044]
 173:.\main.c      ****         }
 697              		.loc 1 173 0
 698 01da 0120     		movs	r0, #1
 699 01dc 13A9     		add	r1, sp, #76
 700 01de 0022     		movs	r2, #0
 701 01e0 FFF7FEFF 		bl	ShowMessage
 702              	.LVL54:
 703              	.L36:
 175:.\main.c      ****             side.a.hoseNumber = UnitType+1;
 704              		.loc 1 175 0
 705 01e4 254B     		ldr	r3, .L42+16
 706 01e6 1B78     		ldrb	r3, [r3]	@ zero_extendqisi2
 707 01e8 022B     		cmp	r3, #2
 708 01ea 0FD1     		bne	.L37
 176:.\main.c      ****             side.b.hoseNumber = UnitType+1;
 709              		.loc 1 176 0
 710 01ec 0133     		adds	r3, r3, #1
 711 01ee DBB2     		uxtb	r3, r3
 712 01f0 234A     		ldr	r2, .L42+20
 713 01f2 82F80231 		strb	r3, [r2, #258]
 177:.\main.c      ****             side.c.hoseNumber = UnitType+1;
 714              		.loc 1 177 0
 715 01f6 82F80832 		strb	r3, [r2, #520]
 178:.\main.c      ****             side.d.hoseNumber = UnitType+1;
 716              		.loc 1 178 0
 717 01fa 82F80E33 		strb	r3, [r2, #782]
 179:.\main.c      ****            ShowMessage(1,Unit3,0);
 718              		.loc 1 179 0
 719 01fe 82F81434 		strb	r3, [r2, #1044]
 180:.\main.c      ****         }
 720              		.loc 1 180 0
 721 0202 0120     		movs	r0, #1
 722 0204 10A9     		add	r1, sp, #64
 723 0206 0022     		movs	r2, #0
 724 0208 FFF7FEFF 		bl	ShowMessage
 725              	.LVL55:
 726              	.L37:
 182:.\main.c      ****             side.a.hoseNumber = UnitType+1;
 727              		.loc 1 182 0
 728 020c 1B4B     		ldr	r3, .L42+16
 729 020e 1B78     		ldrb	r3, [r3]	@ zero_extendqisi2
 730 0210 032B     		cmp	r3, #3
ARM GAS  C:\Users\RECEPC~1\AppData\Local\Temp\cc79eMMA.s 			page 40


 731 0212 0FD1     		bne	.L38
 183:.\main.c      ****             side.b.hoseNumber = UnitType+1;
 732              		.loc 1 183 0
 733 0214 0133     		adds	r3, r3, #1
 734 0216 DBB2     		uxtb	r3, r3
 735 0218 194A     		ldr	r2, .L42+20
 736 021a 82F80231 		strb	r3, [r2, #258]
 184:.\main.c      ****             side.c.hoseNumber = UnitType+1;
 737              		.loc 1 184 0
 738 021e 82F80832 		strb	r3, [r2, #520]
 185:.\main.c      ****             side.d.hoseNumber = UnitType+1;
 739              		.loc 1 185 0
 740 0222 82F80E33 		strb	r3, [r2, #782]
 186:.\main.c      ****             ShowMessage(1,Unit4,0);
 741              		.loc 1 186 0
 742 0226 82F81434 		strb	r3, [r2, #1044]
 187:.\main.c      ****         }    
 743              		.loc 1 187 0
 744 022a 0120     		movs	r0, #1
 745 022c 0DA9     		add	r1, sp, #52
 746 022e 0022     		movs	r2, #0
 747 0230 FFF7FEFF 		bl	ShowMessage
 748              	.LVL56:
 749              	.L38:
 189:.\main.c      ****             ShowMessage(1,DisplayMode,22); //Mostrar modo de display
 750              		.loc 1 189 0
 751 0234 134B     		ldr	r3, .L42+24
 752 0236 1B78     		ldrb	r3, [r3]	@ zero_extendqisi2
 753 0238 012B     		cmp	r3, #1
 754 023a 04D1     		bne	.L39
 190:.\main.c      ****         }
 755              		.loc 1 190 0
 756 023c 0120     		movs	r0, #1
 757 023e 07A9     		add	r1, sp, #28
 758 0240 1622     		movs	r2, #22
 759 0242 FFF7FEFF 		bl	ShowMessage
 760              	.LVL57:
 761              	.L39:
 192:.\main.c      ****            ShowMessage(1,DisplayMode2,22);
 762              		.loc 1 192 0
 763 0246 0F4B     		ldr	r3, .L42+24
 764 0248 1B78     		ldrb	r3, [r3]	@ zero_extendqisi2
 765 024a 022B     		cmp	r3, #2
 766 024c 04D1     		bne	.L34
 193:.\main.c      ****         }
 767              		.loc 1 193 0
 768 024e 0120     		movs	r0, #1
 769 0250 04A9     		add	r1, sp, #16
 770 0252 1622     		movs	r2, #22
 771 0254 FFF7FEFF 		bl	ShowMessage
 772              	.LVL58:
 773              	.L34:
 196:.\main.c      ****         SetPicture(1,DISPLAY_ERROR);        
 774              		.loc 1 196 0
 775 0258 074B     		ldr	r3, .L42+12
 776 025a 1B78     		ldrb	r3, [r3]	@ zero_extendqisi2
 777 025c 012B     		cmp	r3, #1
ARM GAS  C:\Users\RECEPC~1\AppData\Local\Temp\cc79eMMA.s 			page 41


 778 025e 03D8     		bhi	.L25
 197:.\main.c      ****     }         
 779              		.loc 1 197 0
 780 0260 0120     		movs	r0, #1
 781 0262 0021     		movs	r1, #0
 782 0264 FFF7FEFF 		bl	SetPicture
 783              	.LVL59:
 784              	.L25:
 199:.\main.c      **** 
 785              		.loc 1 199 0
 786 0268 1CB0     		add	sp, sp, #112
 787              		.cfi_def_cfa_offset 8
 788              		@ sp needed
 789 026a 10BD     		pop	{r4, pc}
 790              	.L43:
 791              		.align	2
 792              	.L42:
 793 026c 00000000 		.word	.LC0
 794 0270 00000000 		.word	.LANCHOR1
 795 0274 0C000000 		.word	.LC2
 796 0278 00000000 		.word	NumPositions
 797 027c 00000000 		.word	UnitType
 798 0280 00000000 		.word	side
 799 0284 00000000 		.word	DDMode
 800 0288 00000000 		.word	digits
 801              		.cfi_endproc
 802              	.LFE66:
 803              		.size	InitDisplay1, .-InitDisplay1
 804              		.section	.text.InitDisplay2,"ax",%progbits
 805              		.align	2
 806              		.global	InitDisplay2
 807              		.thumb
 808              		.thumb_func
 809              		.type	InitDisplay2, %function
 810              	InitDisplay2:
 811              	.LFB67:
 210:.\main.c      ****     if(NumPositions == 2){        
 812              		.loc 1 210 0
 813              		.cfi_startproc
 814              		@ args = 0, pretend = 0, frame = 0
 815              		@ frame_needed = 0, uses_anonymous_args = 0
 816 0000 08B5     		push	{r3, lr}
 817              		.cfi_def_cfa_offset 8
 818              		.cfi_offset 3, -8
 819              		.cfi_offset 14, -4
 211:.\main.c      ****         SetPicture(2,DISPLAY_INICIO0);  
 820              		.loc 1 211 0
 821 0002 104B     		ldr	r3, .L49
 822 0004 1B78     		ldrb	r3, [r3]	@ zero_extendqisi2
 823 0006 022B     		cmp	r3, #2
 824 0008 06D1     		bne	.L45
 212:.\main.c      ****         flowDisplay2 = 0;
 825              		.loc 1 212 0
 826 000a 0220     		movs	r0, #2
 827 000c 0121     		movs	r1, #1
 828 000e FFF7FEFF 		bl	SetPicture
 829              	.LVL60:
ARM GAS  C:\Users\RECEPC~1\AppData\Local\Temp\cc79eMMA.s 			page 42


 213:.\main.c      ****     }
 830              		.loc 1 213 0
 831 0012 0022     		movs	r2, #0
 832 0014 0C4B     		ldr	r3, .L49+4
 833 0016 1A60     		str	r2, [r3]
 834              	.L45:
 215:.\main.c      ****         SetPicture(2,DISPLAY_SELECCIONE_POSICION);         
 835              		.loc 1 215 0
 836 0018 0A4B     		ldr	r3, .L49
 837 001a 1B78     		ldrb	r3, [r3]	@ zero_extendqisi2
 838 001c 042B     		cmp	r3, #4
 839 001e 03D1     		bne	.L46
 216:.\main.c      ****     }        
 840              		.loc 1 216 0
 841 0020 0220     		movs	r0, #2
 842 0022 2E21     		movs	r1, #46
 843 0024 FFF7FEFF 		bl	SetPicture
 844              	.LVL61:
 845              	.L46:
 218:.\main.c      ****         SetPicture(2,DISPLAY_ERROR);
 846              		.loc 1 218 0
 847 0028 064B     		ldr	r3, .L49
 848 002a 1B78     		ldrb	r3, [r3]	@ zero_extendqisi2
 849 002c 012B     		cmp	r3, #1
 850 002e 03D8     		bhi	.L47
 219:.\main.c      ****     }     
 851              		.loc 1 219 0
 852 0030 0220     		movs	r0, #2
 853 0032 0021     		movs	r1, #0
 854 0034 FFF7FEFF 		bl	SetPicture
 855              	.LVL62:
 856              	.L47:
 221:.\main.c      **** }
 857              		.loc 1 221 0
 858 0038 0220     		movs	r0, #2
 859 003a 0449     		ldr	r1, .L49+8
 860 003c 0022     		movs	r2, #0
 861 003e FFF7FEFF 		bl	ShowMessage
 862              	.LVL63:
 863 0042 08BD     		pop	{r3, pc}
 864              	.L50:
 865              		.align	2
 866              	.L49:
 867 0044 00000000 		.word	NumPositions
 868 0048 00000000 		.word	flowDisplay2
 869 004c 08000000 		.word	.LANCHOR0+8
 870              		.cfi_endproc
 871              	.LFE67:
 872              		.size	InitDisplay2, .-InitDisplay2
 873              		.section	.text.InitPump,"ax",%progbits
 874              		.align	2
 875              		.global	InitPump
 876              		.thumb
 877              		.thumb_func
 878              		.type	InitPump, %function
 879              	InitPump:
 880              	.LFB68:
ARM GAS  C:\Users\RECEPC~1\AppData\Local\Temp\cc79eMMA.s 			page 43


 233:.\main.c      ****     NumPositions = get_position();
 881              		.loc 1 233 0
 882              		.cfi_startproc
 883              		@ args = 0, pretend = 0, frame = 0
 884              		@ frame_needed = 0, uses_anonymous_args = 0
 885 0000 08B5     		push	{r3, lr}
 886              		.cfi_def_cfa_offset 8
 887              		.cfi_offset 3, -8
 888              		.cfi_offset 14, -4
 234:.\main.c      ****     if(NumPositions > 0){
 889              		.loc 1 234 0
 890 0002 FFF7FEFF 		bl	get_position
 891              	.LVL64:
 892 0006 2D4B     		ldr	r3, .L57
 893 0008 1870     		strb	r0, [r3]
 235:.\main.c      ****         if(!PumpIsInValidState(get_state(side.a.dir))){
 894              		.loc 1 235 0
 895 000a 0028     		cmp	r0, #0
 896 000c 55D0     		beq	.L51
 236:.\main.c      ****             SetPicture(1,DISPLAY_ERROR);
 897              		.loc 1 236 0
 898 000e 2C4B     		ldr	r3, .L57+4
 899 0010 1878     		ldrb	r0, [r3]	@ zero_extendqisi2
 900 0012 FFF7FEFF 		bl	get_state
 901              	.LVL65:
 902 0016 FFF7FEFF 		bl	PumpIsInValidState
 903              	.LVL66:
 904 001a 50B9     		cbnz	r0, .L53
 237:.\main.c      ****             SetPicture(2,DISPLAY_ERROR);
 905              		.loc 1 237 0
 906 001c 0120     		movs	r0, #1
 907 001e 0021     		movs	r1, #0
 908 0020 FFF7FEFF 		bl	SetPicture
 909              	.LVL67:
 238:.\main.c      ****             NumPositions = 0;
 910              		.loc 1 238 0
 911 0024 0220     		movs	r0, #2
 912 0026 0021     		movs	r1, #0
 913 0028 FFF7FEFF 		bl	SetPicture
 914              	.LVL68:
 239:.\main.c      ****         }
 915              		.loc 1 239 0
 916 002c 0022     		movs	r2, #0
 917 002e 234B     		ldr	r3, .L57
 918 0030 1A70     		strb	r2, [r3]
 919              	.L53:
 241:.\main.c      ****             SetPicture(1,DISPLAY_ERROR);
 920              		.loc 1 241 0
 921 0032 234B     		ldr	r3, .L57+4
 922 0034 93F80601 		ldrb	r0, [r3, #262]	@ zero_extendqisi2
 923 0038 FFF7FEFF 		bl	get_state
 924              	.LVL69:
 925 003c FFF7FEFF 		bl	PumpIsInValidState
 926              	.LVL70:
 927 0040 50B9     		cbnz	r0, .L54
 242:.\main.c      ****             SetPicture(2,DISPLAY_ERROR);
 928              		.loc 1 242 0
ARM GAS  C:\Users\RECEPC~1\AppData\Local\Temp\cc79eMMA.s 			page 44


 929 0042 0120     		movs	r0, #1
 930 0044 0021     		movs	r1, #0
 931 0046 FFF7FEFF 		bl	SetPicture
 932              	.LVL71:
 243:.\main.c      ****             NumPositions = 0;
 933              		.loc 1 243 0
 934 004a 0220     		movs	r0, #2
 935 004c 0021     		movs	r1, #0
 936 004e FFF7FEFF 		bl	SetPicture
 937              	.LVL72:
 244:.\main.c      ****         }
 938              		.loc 1 244 0
 939 0052 0022     		movs	r2, #0
 940 0054 194B     		ldr	r3, .L57
 941 0056 1A70     		strb	r2, [r3]
 942              	.L54:
 246:.\main.c      ****             NumPositions = get_position();
 943              		.loc 1 246 0
 944 0058 194B     		ldr	r3, .L57+4
 945 005a 1878     		ldrb	r0, [r3]	@ zero_extendqisi2
 946 005c FFF7FEFF 		bl	get_state
 947              	.LVL73:
 948 0060 FFF7FEFF 		bl	PumpIsInValidState
 949              	.LVL74:
 950 0064 48B3     		cbz	r0, .L51
 246:.\main.c      ****             NumPositions = get_position();
 951              		.loc 1 246 0 is_stmt 0 discriminator 1
 952 0066 164B     		ldr	r3, .L57+4
 953 0068 93F80601 		ldrb	r0, [r3, #262]	@ zero_extendqisi2
 954 006c FFF7FEFF 		bl	get_state
 955              	.LVL75:
 956 0070 FFF7FEFF 		bl	PumpIsInValidState
 957              	.LVL76:
 958 0074 08B3     		cbz	r0, .L51
 247:.\main.c      ****             if(get_state(side.a.dir) ==0x06 && get_state(side.b.dir)==0x06){
 959              		.loc 1 247 0 is_stmt 1
 960 0076 FFF7FEFF 		bl	get_position
 961              	.LVL77:
 962 007a 104B     		ldr	r3, .L57
 963 007c 1870     		strb	r0, [r3]
 248:.\main.c      ****                 PumpCompleteConfiguration(side.a.dir);
 964              		.loc 1 248 0
 965 007e 104B     		ldr	r3, .L57+4
 966 0080 1878     		ldrb	r0, [r3]	@ zero_extendqisi2
 967 0082 FFF7FEFF 		bl	get_state
 968              	.LVL78:
 969 0086 0628     		cmp	r0, #6
 970 0088 0DD1     		bne	.L55
 248:.\main.c      ****                 PumpCompleteConfiguration(side.a.dir);
 971              		.loc 1 248 0 is_stmt 0 discriminator 1
 972 008a 0D4B     		ldr	r3, .L57+4
 973 008c 93F80601 		ldrb	r0, [r3, #262]	@ zero_extendqisi2
 974 0090 FFF7FEFF 		bl	get_state
 975              	.LVL79:
 976 0094 0628     		cmp	r0, #6
 977 0096 06D1     		bne	.L55
 249:.\main.c      ****                 StoreConfiguration();            
ARM GAS  C:\Users\RECEPC~1\AppData\Local\Temp\cc79eMMA.s 			page 45


 978              		.loc 1 249 0 is_stmt 1
 979 0098 094B     		ldr	r3, .L57+4
 980 009a 1878     		ldrb	r0, [r3]	@ zero_extendqisi2
 981 009c FFF7FEFF 		bl	PumpCompleteConfiguration
 982              	.LVL80:
 250:.\main.c      ****             }else{
 983              		.loc 1 250 0
 984 00a0 FFF7FEFF 		bl	StoreConfiguration
 985              	.LVL81:
 986 00a4 08BD     		pop	{r3, pc}
 987              	.L55:
 252:.\main.c      ****                 SetPicture(2,DISPLAY_BAJE_MANIJA);
 988              		.loc 1 252 0
 989 00a6 0120     		movs	r0, #1
 990 00a8 0921     		movs	r1, #9
 991 00aa FFF7FEFF 		bl	SetPicture
 992              	.LVL82:
 253:.\main.c      ****                 InitPump();                
 993              		.loc 1 253 0
 994 00ae 0220     		movs	r0, #2
 995 00b0 0921     		movs	r1, #9
 996 00b2 FFF7FEFF 		bl	SetPicture
 997              	.LVL83:
 254:.\main.c      ****             }
 998              		.loc 1 254 0
 999 00b6 FFF7FEFF 		bl	InitPump
 1000              	.LVL84:
 1001              	.L51:
 1002 00ba 08BD     		pop	{r3, pc}
 1003              	.L58:
 1004              		.align	2
 1005              	.L57:
 1006 00bc 00000000 		.word	NumPositions
 1007 00c0 00000000 		.word	side
 1008              		.cfi_endproc
 1009              	.LFE68:
 1010              		.size	InitPump, .-InitPump
 1011              		.section	.text.PrintTest,"ax",%progbits
 1012              		.align	2
 1013              		.global	PrintTest
 1014              		.thumb
 1015              		.thumb_func
 1016              		.type	PrintTest, %function
 1017              	PrintTest:
 1018              	.LFB69:
 269:.\main.c      ****     uint8 datoA[26]="Test de Impresion Puerto 1";
 1019              		.loc 1 269 0
 1020              		.cfi_startproc
 1021              		@ args = 0, pretend = 0, frame = 56
 1022              		@ frame_needed = 0, uses_anonymous_args = 0
 1023 0000 70B5     		push	{r4, r5, r6, lr}
 1024              		.cfi_def_cfa_offset 16
 1025              		.cfi_offset 4, -16
 1026              		.cfi_offset 5, -12
 1027              		.cfi_offset 6, -8
 1028              		.cfi_offset 14, -4
 1029 0002 8EB0     		sub	sp, sp, #56
ARM GAS  C:\Users\RECEPC~1\AppData\Local\Temp\cc79eMMA.s 			page 46


 1030              		.cfi_def_cfa_offset 72
 270:.\main.c      ****     uint8 datoB[26]="Test de Impresion Puerto 2";
 1031              		.loc 1 270 0
 1032 0004 2E4C     		ldr	r4, .L65
 1033 0006 07AD     		add	r5, sp, #28
 1034 0008 04F15406 		add	r6, r4, #84
 1035 000c 0FCE     		ldmia	r6!, {r0, r1, r2, r3}
 1036 000e 0FC5     		stmia	r5!, {r0, r1, r2, r3}
 1037 0010 96E80700 		ldmia	r6, {r0, r1, r2}
 1038 0014 03C5     		stmia	r5!, {r0, r1}
 1039 0016 2A80     		strh	r2, [r5]	@ movhi
 271:.\main.c      ****     uint8 x;
 1040              		.loc 1 271 0
 1041 0018 6D46     		mov	r5, sp
 1042 001a 7034     		adds	r4, r4, #112
 1043 001c 0FCC     		ldmia	r4!, {r0, r1, r2, r3}
 1044 001e 0FC5     		stmia	r5!, {r0, r1, r2, r3}
 1045 0020 94E80700 		ldmia	r4, {r0, r1, r2}
 1046 0024 03C5     		stmia	r5!, {r0, r1}
 1047 0026 2A80     		strh	r2, [r5]	@ movhi
 1048              	.LVL85:
 273:.\main.c      ****         write_psoc1(1,datoA[x]);
 1049              		.loc 1 273 0
 1050 0028 0024     		movs	r4, #0
 1051 002a 08E0     		b	.L60
 1052              	.LVL86:
 1053              	.L61:
 274:.\main.c      ****     }
 1054              		.loc 1 274 0 discriminator 3
 1055 002c 0EAB     		add	r3, sp, #56
 1056 002e 2344     		add	r3, r3, r4
 1057 0030 0120     		movs	r0, #1
 1058 0032 13F81C1C 		ldrb	r1, [r3, #-28]	@ zero_extendqisi2
 1059 0036 FFF7FEFF 		bl	write_psoc1
 1060              	.LVL87:
 273:.\main.c      ****         write_psoc1(1,datoA[x]);
 1061              		.loc 1 273 0 discriminator 3
 1062 003a 0134     		adds	r4, r4, #1
 1063              	.LVL88:
 1064 003c E4B2     		uxtb	r4, r4
 1065              	.LVL89:
 1066              	.L60:
 273:.\main.c      ****         write_psoc1(1,datoA[x]);
 1067              		.loc 1 273 0 is_stmt 0 discriminator 1
 1068 003e 192C     		cmp	r4, #25
 1069 0040 F4D9     		bls	.L61
 276:.\main.c      ****     write_psoc1(1,10);
 1070              		.loc 1 276 0 is_stmt 1
 1071 0042 0120     		movs	r0, #1
 1072 0044 0A21     		movs	r1, #10
 1073 0046 FFF7FEFF 		bl	write_psoc1
 1074              	.LVL90:
 277:.\main.c      ****     write_psoc1(1,10);
 1075              		.loc 1 277 0
 1076 004a 0120     		movs	r0, #1
 1077 004c 0A21     		movs	r1, #10
 1078 004e FFF7FEFF 		bl	write_psoc1
ARM GAS  C:\Users\RECEPC~1\AppData\Local\Temp\cc79eMMA.s 			page 47


 1079              	.LVL91:
 278:.\main.c      ****     write_psoc1(1,10);
 1080              		.loc 1 278 0
 1081 0052 0120     		movs	r0, #1
 1082 0054 0A21     		movs	r1, #10
 1083 0056 FFF7FEFF 		bl	write_psoc1
 1084              	.LVL92:
 279:.\main.c      ****     write_psoc1(1,10);
 1085              		.loc 1 279 0
 1086 005a 0120     		movs	r0, #1
 1087 005c 0A21     		movs	r1, #10
 1088 005e FFF7FEFF 		bl	write_psoc1
 1089              	.LVL93:
 280:.\main.c      ****     write_psoc1(1,10);
 1090              		.loc 1 280 0
 1091 0062 0120     		movs	r0, #1
 1092 0064 0A21     		movs	r1, #10
 1093 0066 FFF7FEFF 		bl	write_psoc1
 1094              	.LVL94:
 281:.\main.c      ****     for(x = 0; x<26;x++){
 1095              		.loc 1 281 0
 1096 006a 0120     		movs	r0, #1
 1097 006c 0A21     		movs	r1, #10
 1098 006e FFF7FEFF 		bl	write_psoc1
 1099              	.LVL95:
 282:.\main.c      ****         write_psoc1(2,datoB[x]);
 1100              		.loc 1 282 0
 1101 0072 0024     		movs	r4, #0
 1102 0074 08E0     		b	.L62
 1103              	.LVL96:
 1104              	.L63:
 283:.\main.c      ****     }
 1105              		.loc 1 283 0 discriminator 3
 1106 0076 0EAB     		add	r3, sp, #56
 1107 0078 2344     		add	r3, r3, r4
 1108 007a 0220     		movs	r0, #2
 1109 007c 13F8381C 		ldrb	r1, [r3, #-56]	@ zero_extendqisi2
 1110 0080 FFF7FEFF 		bl	write_psoc1
 1111              	.LVL97:
 282:.\main.c      ****         write_psoc1(2,datoB[x]);
 1112              		.loc 1 282 0 discriminator 3
 1113 0084 0134     		adds	r4, r4, #1
 1114              	.LVL98:
 1115 0086 E4B2     		uxtb	r4, r4
 1116              	.LVL99:
 1117              	.L62:
 282:.\main.c      ****         write_psoc1(2,datoB[x]);
 1118              		.loc 1 282 0 is_stmt 0 discriminator 1
 1119 0088 192C     		cmp	r4, #25
 1120 008a F4D9     		bls	.L63
 285:.\main.c      ****     write_psoc1(2,10);
 1121              		.loc 1 285 0 is_stmt 1
 1122 008c 0220     		movs	r0, #2
 1123 008e 0A21     		movs	r1, #10
 1124 0090 FFF7FEFF 		bl	write_psoc1
 1125              	.LVL100:
 286:.\main.c      ****     write_psoc1(2,10);
ARM GAS  C:\Users\RECEPC~1\AppData\Local\Temp\cc79eMMA.s 			page 48


 1126              		.loc 1 286 0
 1127 0094 0220     		movs	r0, #2
 1128 0096 0A21     		movs	r1, #10
 1129 0098 FFF7FEFF 		bl	write_psoc1
 1130              	.LVL101:
 287:.\main.c      ****     write_psoc1(2,10);
 1131              		.loc 1 287 0
 1132 009c 0220     		movs	r0, #2
 1133 009e 0A21     		movs	r1, #10
 1134 00a0 FFF7FEFF 		bl	write_psoc1
 1135              	.LVL102:
 288:.\main.c      ****     write_psoc1(2,10);
 1136              		.loc 1 288 0
 1137 00a4 0220     		movs	r0, #2
 1138 00a6 0A21     		movs	r1, #10
 1139 00a8 FFF7FEFF 		bl	write_psoc1
 1140              	.LVL103:
 289:.\main.c      ****     write_psoc1(2,10);
 1141              		.loc 1 289 0
 1142 00ac 0220     		movs	r0, #2
 1143 00ae 0A21     		movs	r1, #10
 1144 00b0 FFF7FEFF 		bl	write_psoc1
 1145              	.LVL104:
 290:.\main.c      **** }
 1146              		.loc 1 290 0
 1147 00b4 0220     		movs	r0, #2
 1148 00b6 0A21     		movs	r1, #10
 1149 00b8 FFF7FEFF 		bl	write_psoc1
 1150              	.LVL105:
 291:.\main.c      **** 
 1151              		.loc 1 291 0
 1152 00bc 0EB0     		add	sp, sp, #56
 1153              		.cfi_def_cfa_offset 16
 1154              		@ sp needed
 1155 00be 70BD     		pop	{r4, r5, r6, pc}
 1156              	.LVL106:
 1157              	.L66:
 1158              		.align	2
 1159              	.L65:
 1160 00c0 00000000 		.word	.LANCHOR1
 1161              		.cfi_endproc
 1162              	.LFE69:
 1163              		.size	PrintTest, .-PrintTest
 1164              		.section	.text.PollingPump,"ax",%progbits
 1165              		.align	2
 1166              		.global	PollingPump
 1167              		.thumb
 1168              		.thumb_func
 1169              		.type	PollingPump, %function
 1170              	PollingPump:
 1171              	.LFB70:
 303:.\main.c      ****     uint8 x;
 1172              		.loc 1 303 0
 1173              		.cfi_startproc
 1174              		@ args = 0, pretend = 0, frame = 0
 1175              		@ frame_needed = 0, uses_anonymous_args = 0
 1176 0000 38B5     		push	{r3, r4, r5, lr}
ARM GAS  C:\Users\RECEPC~1\AppData\Local\Temp\cc79eMMA.s 			page 49


 1177              		.cfi_def_cfa_offset 16
 1178              		.cfi_offset 3, -16
 1179              		.cfi_offset 4, -12
 1180              		.cfi_offset 5, -8
 1181              		.cfi_offset 14, -4
 305:.\main.c      ****         if(flowDisplay1 == 0){
 1182              		.loc 1 305 0
 1183 0002 524B     		ldr	r3, .L81
 1184 0004 D3E90023 		ldrd	r2, [r3]
 1185 0008 002B     		cmp	r3, #0
 1186 000a 08BF     		it	eq
 1187 000c 092A     		cmpeq	r2, #9
 1188 000e C0F09B80 		bcc	.L67
 306:.\main.c      ****             if(PumpIsInValidState(get_state(side.a.dir)) && PumpIsInValidState(get_state(side.b.dir
 1189              		.loc 1 306 0
 1190 0012 4F4B     		ldr	r3, .L81+4
 1191 0014 1B68     		ldr	r3, [r3]
 1192 0016 002B     		cmp	r3, #0
 1193 0018 73D1     		bne	.L69
 307:.\main.c      ****                 for(x= 0; x < 4; x++){
 1194              		.loc 1 307 0
 1195 001a 4E4B     		ldr	r3, .L81+8
 1196 001c 1878     		ldrb	r0, [r3]	@ zero_extendqisi2
 1197 001e FFF7FEFF 		bl	get_state
 1198              	.LVL107:
 1199 0022 FFF7FEFF 		bl	PumpIsInValidState
 1200              	.LVL108:
 1201 0026 90B1     		cbz	r0, .L70
 307:.\main.c      ****                 for(x= 0; x < 4; x++){
 1202              		.loc 1 307 0 is_stmt 0 discriminator 1
 1203 0028 4A4B     		ldr	r3, .L81+8
 1204 002a 93F80601 		ldrb	r0, [r3, #262]	@ zero_extendqisi2
 1205 002e FFF7FEFF 		bl	get_state
 1206              	.LVL109:
 1207 0032 FFF7FEFF 		bl	PumpIsInValidState
 1208              	.LVL110:
 1209 0036 38B9     		cbnz	r0, .L79
 1210 0038 09E0     		b	.L70
 1211              	.LVL111:
 1212              	.L72:
 309:.\main.c      ****                 }
 1213              		.loc 1 309 0 is_stmt 1 discriminator 3
 1214 003a 474A     		ldr	r2, .L81+12
 1215 003c D15C     		ldrb	r1, [r2, r3]	@ zero_extendqisi2
 1216 003e 474A     		ldr	r2, .L81+16
 1217 0040 D154     		strb	r1, [r2, r3]
 308:.\main.c      ****                     PrevStatePump[x] = statePump[x];
 1218              		.loc 1 308 0 discriminator 3
 1219 0042 0133     		adds	r3, r3, #1
 1220              	.LVL112:
 1221 0044 DBB2     		uxtb	r3, r3
 1222              	.LVL113:
 1223 0046 00E0     		b	.L71
 1224              	.LVL114:
 1225              	.L79:
 1226 0048 0023     		movs	r3, #0
 1227              	.L71:
ARM GAS  C:\Users\RECEPC~1\AppData\Local\Temp\cc79eMMA.s 			page 50


 1228              	.LVL115:
 308:.\main.c      ****                     PrevStatePump[x] = statePump[x];
 1229              		.loc 1 308 0 is_stmt 0 discriminator 1
 1230 004a 032B     		cmp	r3, #3
 1231 004c F5D9     		bls	.L72
 1232              	.LVL116:
 1233              	.L70:
 312:.\main.c      ****                 statePump[0] = get_state(side.a.dir);                 
 1234              		.loc 1 312 0 is_stmt 1
 1235 004e 444B     		ldr	r3, .L81+20
 1236 0050 1B78     		ldrb	r3, [r3]	@ zero_extendqisi2
 1237 0052 022B     		cmp	r3, #2
 1238 0054 0AD1     		bne	.L73
 313:.\main.c      ****                 statePump[1] = get_state(side.b.dir);          
 1239              		.loc 1 313 0
 1240 0056 3F4D     		ldr	r5, .L81+8
 1241 0058 2878     		ldrb	r0, [r5]	@ zero_extendqisi2
 1242 005a FFF7FEFF 		bl	get_state
 1243              	.LVL117:
 1244 005e 3E4C     		ldr	r4, .L81+12
 1245 0060 2070     		strb	r0, [r4]
 314:.\main.c      ****             }
 1246              		.loc 1 314 0
 1247 0062 95F80601 		ldrb	r0, [r5, #262]	@ zero_extendqisi2
 1248 0066 FFF7FEFF 		bl	get_state
 1249              	.LVL118:
 1250 006a 6070     		strb	r0, [r4, #1]
 1251              	.L73:
 316:.\main.c      ****                 statePump[0] = get_state(side.a.dir);               
 1252              		.loc 1 316 0
 1253 006c 3C4B     		ldr	r3, .L81+20
 1254 006e 1B78     		ldrb	r3, [r3]	@ zero_extendqisi2
 1255 0070 042B     		cmp	r3, #4
 1256 0072 14D1     		bne	.L74
 317:.\main.c      ****                 statePump[1] = get_state(side.b.dir);          
 1257              		.loc 1 317 0
 1258 0074 374D     		ldr	r5, .L81+8
 1259 0076 2878     		ldrb	r0, [r5]	@ zero_extendqisi2
 1260 0078 FFF7FEFF 		bl	get_state
 1261              	.LVL119:
 1262 007c 364C     		ldr	r4, .L81+12
 1263 007e 2070     		strb	r0, [r4]
 318:.\main.c      ****                 statePump[2] = get_state(side.c.dir);        
 1264              		.loc 1 318 0
 1265 0080 95F80601 		ldrb	r0, [r5, #262]	@ zero_extendqisi2
 1266 0084 FFF7FEFF 		bl	get_state
 1267              	.LVL120:
 1268 0088 6070     		strb	r0, [r4, #1]
 319:.\main.c      ****                 statePump[3] = get_state(side.d.dir);        
 1269              		.loc 1 319 0
 1270 008a 95F80C02 		ldrb	r0, [r5, #524]	@ zero_extendqisi2
 1271 008e FFF7FEFF 		bl	get_state
 1272              	.LVL121:
 1273 0092 A070     		strb	r0, [r4, #2]
 320:.\main.c      ****             }
 1274              		.loc 1 320 0
 1275 0094 95F81203 		ldrb	r0, [r5, #786]	@ zero_extendqisi2
ARM GAS  C:\Users\RECEPC~1\AppData\Local\Temp\cc79eMMA.s 			page 51


 1276 0098 FFF7FEFF 		bl	get_state
 1277              	.LVL122:
 1278 009c E070     		strb	r0, [r4, #3]
 1279              	.L74:
 322:.\main.c      ****                 InitPump();
 1280              		.loc 1 322 0
 1281 009e 304B     		ldr	r3, .L81+20
 1282 00a0 1B78     		ldrb	r3, [r3]	@ zero_extendqisi2
 1283 00a2 0BB9     		cbnz	r3, .L75
 323:.\main.c      ****             }
 1284              		.loc 1 323 0
 1285 00a4 FFF7FEFF 		bl	InitPump
 1286              	.LVL123:
 1287              	.L75:
 325:.\main.c      ****                 SetPicture(1,DISPLAY_ERROR);
 1288              		.loc 1 325 0
 1289 00a8 2A4B     		ldr	r3, .L81+8
 1290 00aa 1878     		ldrb	r0, [r3]	@ zero_extendqisi2
 1291 00ac FFF7FEFF 		bl	get_state
 1292              	.LVL124:
 1293 00b0 FFF7FEFF 		bl	PumpIsInValidState
 1294              	.LVL125:
 1295 00b4 70B9     		cbnz	r0, .L76
 326:.\main.c      ****                 SetPicture(2,DISPLAY_ERROR);
 1296              		.loc 1 326 0
 1297 00b6 0120     		movs	r0, #1
 1298 00b8 0021     		movs	r1, #0
 1299 00ba FFF7FEFF 		bl	SetPicture
 1300              	.LVL126:
 327:.\main.c      ****                 NumPositions = 0;
 1301              		.loc 1 327 0
 1302 00be 0220     		movs	r0, #2
 1303 00c0 0021     		movs	r1, #0
 1304 00c2 FFF7FEFF 		bl	SetPicture
 1305              	.LVL127:
 328:.\main.c      ****                 flowDisplay1 = 0;
 1306              		.loc 1 328 0
 1307 00c6 0023     		movs	r3, #0
 1308 00c8 254A     		ldr	r2, .L81+20
 1309 00ca 1370     		strb	r3, [r2]
 329:.\main.c      ****                 flowDisplay2 = 0;
 1310              		.loc 1 329 0
 1311 00cc 204A     		ldr	r2, .L81+4
 1312 00ce 1360     		str	r3, [r2]
 330:.\main.c      ****             }
 1313              		.loc 1 330 0
 1314 00d0 244A     		ldr	r2, .L81+24
 1315 00d2 1360     		str	r3, [r2]
 1316              	.L76:
 332:.\main.c      ****                 SetPicture(1,DISPLAY_ERROR);
 1317              		.loc 1 332 0
 1318 00d4 1F4B     		ldr	r3, .L81+8
 1319 00d6 93F80601 		ldrb	r0, [r3, #262]	@ zero_extendqisi2
 1320 00da FFF7FEFF 		bl	get_state
 1321              	.LVL128:
 1322 00de FFF7FEFF 		bl	PumpIsInValidState
 1323              	.LVL129:
ARM GAS  C:\Users\RECEPC~1\AppData\Local\Temp\cc79eMMA.s 			page 52


 1324 00e2 70B9     		cbnz	r0, .L69
 333:.\main.c      ****                 SetPicture(2,DISPLAY_ERROR);
 1325              		.loc 1 333 0
 1326 00e4 0120     		movs	r0, #1
 1327 00e6 0021     		movs	r1, #0
 1328 00e8 FFF7FEFF 		bl	SetPicture
 1329              	.LVL130:
 334:.\main.c      ****                 NumPositions = 0;
 1330              		.loc 1 334 0
 1331 00ec 0220     		movs	r0, #2
 1332 00ee 0021     		movs	r1, #0
 1333 00f0 FFF7FEFF 		bl	SetPicture
 1334              	.LVL131:
 335:.\main.c      ****                 flowDisplay1 = 0;
 1335              		.loc 1 335 0
 1336 00f4 0023     		movs	r3, #0
 1337 00f6 1A4A     		ldr	r2, .L81+20
 1338 00f8 1370     		strb	r3, [r2]
 336:.\main.c      ****                 flowDisplay2 = 0;
 1339              		.loc 1 336 0
 1340 00fa 154A     		ldr	r2, .L81+4
 1341 00fc 1360     		str	r3, [r2]
 337:.\main.c      ****             }
 1342              		.loc 1 337 0
 1343 00fe 194A     		ldr	r2, .L81+24
 1344 0100 1360     		str	r3, [r2]
 1345              	.L69:
 340:.\main.c      ****             if(get_state(side.a.dir)== PUMP_IDLE)
 1346              		.loc 1 340 0
 1347 0102 194B     		ldr	r3, .L81+28
 1348 0104 1B78     		ldrb	r3, [r3]	@ zero_extendqisi2
 1349 0106 13F0FF0F 		tst	r3, #255
 1350 010a 18D1     		bne	.L77
 340:.\main.c      ****             if(get_state(side.a.dir)== PUMP_IDLE)
 1351              		.loc 1 340 0 is_stmt 0 discriminator 1
 1352 010c 104B     		ldr	r3, .L81+4
 1353 010e 1B68     		ldr	r3, [r3]
 1354 0110 ABB9     		cbnz	r3, .L77
 341:.\main.c      ****                 getTotals(side.a.dir);
 1355              		.loc 1 341 0 is_stmt 1
 1356 0112 104B     		ldr	r3, .L81+8
 1357 0114 1878     		ldrb	r0, [r3]	@ zero_extendqisi2
 1358 0116 FFF7FEFF 		bl	get_state
 1359              	.LVL132:
 1360 011a 0628     		cmp	r0, #6
 1361 011c 03D1     		bne	.L78
 342:.\main.c      ****             if(get_state(side.b.dir)== PUMP_IDLE)
 1362              		.loc 1 342 0
 1363 011e 0D4B     		ldr	r3, .L81+8
 1364 0120 1878     		ldrb	r0, [r3]	@ zero_extendqisi2
 1365 0122 FFF7FEFF 		bl	getTotals
 1366              	.LVL133:
 1367              	.L78:
 343:.\main.c      ****                 getTotals(side.b.dir);
 1368              		.loc 1 343 0
 1369 0126 0B4B     		ldr	r3, .L81+8
 1370 0128 93F80601 		ldrb	r0, [r3, #262]	@ zero_extendqisi2
ARM GAS  C:\Users\RECEPC~1\AppData\Local\Temp\cc79eMMA.s 			page 53


 1371 012c FFF7FEFF 		bl	get_state
 1372              	.LVL134:
 1373 0130 0628     		cmp	r0, #6
 1374 0132 04D1     		bne	.L77
 344:.\main.c      ****         }        
 1375              		.loc 1 344 0
 1376 0134 074B     		ldr	r3, .L81+8
 1377 0136 93F80601 		ldrb	r0, [r3, #262]	@ zero_extendqisi2
 1378 013a FFF7FEFF 		bl	getTotals
 1379              	.LVL135:
 1380              	.L77:
 346:.\main.c      ****     }
 1381              		.loc 1 346 0
 1382 013e 0020     		movs	r0, #0
 1383 0140 0021     		movs	r1, #0
 1384 0142 024B     		ldr	r3, .L81
 1385 0144 C3E90001 		strd	r0, [r3]
 1386              	.L67:
 1387 0148 38BD     		pop	{r3, r4, r5, pc}
 1388              	.L82:
 1389 014a 00BF     		.align	2
 1390              	.L81:
 1391 014c 00000000 		.word	countPump
 1392 0150 00000000 		.word	flowDisplay1
 1393 0154 00000000 		.word	side
 1394 0158 00000000 		.word	statePump
 1395 015c 00000000 		.word	PrevStatePump
 1396 0160 00000000 		.word	NumPositions
 1397 0164 00000000 		.word	flowDisplay2
 1398 0168 00000000 		.word	ActiveRF
 1399              		.cfi_endproc
 1400              	.LFE70:
 1401              		.size	PollingPump, .-PollingPump
 1402              		.section	.text.PollingDisplay1,"ax",%progbits
 1403              		.align	2
 1404              		.global	PollingDisplay1
 1405              		.thumb
 1406              		.thumb_func
 1407              		.type	PollingDisplay1, %function
 1408              	PollingDisplay1:
 1409              	.LFB71:
 359:.\main.c      ****     //if(countLCD >10){
 1410              		.loc 1 359 0
 1411              		.cfi_startproc
 1412              		@ args = 0, pretend = 0, frame = 0
 1413              		@ frame_needed = 0, uses_anonymous_args = 0
 1414 0000 F0B5     		push	{r4, r5, r6, r7, lr}
 1415              		.cfi_def_cfa_offset 20
 1416              		.cfi_offset 4, -20
 1417              		.cfi_offset 5, -16
 1418              		.cfi_offset 6, -12
 1419              		.cfi_offset 7, -8
 1420              		.cfi_offset 14, -4
 1421 0002 85B0     		sub	sp, sp, #20
 1422              		.cfi_def_cfa_offset 40
 362:.\main.c      ****         case 0:
 1423              		.loc 1 362 0
ARM GAS  C:\Users\RECEPC~1\AppData\Local\Temp\cc79eMMA.s 			page 54


 1424 0004 B14B     		ldr	r3, .L278
 1425 0006 1B68     		ldr	r3, [r3]
 1426 0008 122B     		cmp	r3, #18
 1427 000a 01F27D81 		bhi	.L83
 1428 000e DFE813F0 		tbh	[pc, r3, lsl #1]
 1429              	.L86:
 1430 0012 1300     		.2byte	(.L85-.L86)/2
 1431 0014 2600     		.2byte	(.L87-.L86)/2
 1432 0016 4C00     		.2byte	(.L88-.L86)/2
 1433 0018 A800     		.2byte	(.L89-.L86)/2
 1434 001a 6B01     		.2byte	(.L90-.L86)/2
 1435 001c 9901     		.2byte	(.L91-.L86)/2
 1436 001e 1702     		.2byte	(.L92-.L86)/2
 1437 0020 8F02     		.2byte	(.L93-.L86)/2
 1438 0022 0103     		.2byte	(.L94-.L86)/2
 1439 0024 7F03     		.2byte	(.L95-.L86)/2
 1440 0026 5804     		.2byte	(.L96-.L86)/2
 1441 0028 9F04     		.2byte	(.L97-.L86)/2
 1442 002a 2605     		.2byte	(.L98-.L86)/2
 1443 002c B205     		.2byte	(.L99-.L86)/2
 1444 002e 0706     		.2byte	(.L100-.L86)/2
 1445 0030 2F07     		.2byte	(.L101-.L86)/2
 1446 0032 C107     		.2byte	(.L102-.L86)/2
 1447 0034 2808     		.2byte	(.L103-.L86)/2
 1448 0036 A908     		.2byte	(.L104-.L86)/2
 1449              		.p2align 1
 1450              	.L85:
 364:.\main.c      ****             flowDisplay1 =1;
 1451              		.loc 1 364 0
 1452 0038 FFF7FEFF 		bl	InitDisplay1
 1453              	.LVL136:
 365:.\main.c      ****             isr_3_Stop(); 
 1454              		.loc 1 365 0
 1455 003c 0122     		movs	r2, #1
 1456 003e A34B     		ldr	r3, .L278
 1457 0040 1A60     		str	r2, [r3]
 366:.\main.c      ****             Timer_Animacion_Stop();
 1458              		.loc 1 366 0
 1459 0042 FFF7FEFF 		bl	isr_3_Stop
 1460              	.LVL137:
 367:.\main.c      ****             count_protector = 0;
 1461              		.loc 1 367 0
 1462 0046 FFF7FEFF 		bl	Timer_Animacion_Stop
 1463              	.LVL138:
 368:.\main.c      ****             bufferDisplay1.saleType = 0;
 1464              		.loc 1 368 0
 1465 004a 0023     		movs	r3, #0
 1466 004c A04A     		ldr	r2, .L278+4
 1467 004e 1370     		strb	r3, [r2]
 369:.\main.c      ****             bufferDisplay1.flagEndSale = false;            
 1468              		.loc 1 369 0
 1469 0050 A04A     		ldr	r2, .L278+8
 1470 0052 82F86130 		strb	r3, [r2, #97]
 370:.\main.c      ****         break;
 1471              		.loc 1 370 0
 1472 0056 82F80331 		strb	r3, [r2, #259]
 371:.\main.c      ****         case 1: //Menu
ARM GAS  C:\Users\RECEPC~1\AppData\Local\Temp\cc79eMMA.s 			page 55


 1473              		.loc 1 371 0
 1474 005a 01F055B9 		b	.L83
 1475              	.L87:
 373:.\main.c      ****             if(Display1_GetRxBufferSize()==8){
 1476              		.loc 1 373 0
 1477 005e 0822     		movs	r2, #8
 1478 0060 9D4B     		ldr	r3, .L278+12
 1479 0062 83F80321 		strb	r2, [r3, #259]
 374:.\main.c      ****                 if((Display1_rxBuffer[0]==0xAA) && (Display1_rxBuffer[6]==0xC3) && (Display1_rxBuff
 1480              		.loc 1 374 0
 1481 0066 FFF7FEFF 		bl	Display1_GetRxBufferSize
 1482              	.LVL139:
 1483 006a 0828     		cmp	r0, #8
 1484 006c 41F04C81 		bne	.L83
 375:.\main.c      ****                     flowDisplay1 = 2;      //Pantalla forma de pago                      
 1485              		.loc 1 375 0
 1486 0070 9A4B     		ldr	r3, .L278+16
 1487 0072 1B78     		ldrb	r3, [r3]	@ zero_extendqisi2
 1488 0074 DBB2     		uxtb	r3, r3
 1489 0076 AA2B     		cmp	r3, #170
 1490 0078 10D1     		bne	.L105
 375:.\main.c      ****                     flowDisplay1 = 2;      //Pantalla forma de pago                      
 1491              		.loc 1 375 0 is_stmt 0 discriminator 1
 1492 007a 984B     		ldr	r3, .L278+16
 1493 007c 9B79     		ldrb	r3, [r3, #6]	@ zero_extendqisi2
 1494 007e DBB2     		uxtb	r3, r3
 1495 0080 C32B     		cmp	r3, #195
 1496 0082 0BD1     		bne	.L105
 375:.\main.c      ****                     flowDisplay1 = 2;      //Pantalla forma de pago                      
 1497              		.loc 1 375 0 discriminator 2
 1498 0084 954B     		ldr	r3, .L278+16
 1499 0086 DB79     		ldrb	r3, [r3, #7]	@ zero_extendqisi2
 1500 0088 DBB2     		uxtb	r3, r3
 1501 008a 3C2B     		cmp	r3, #60
 1502 008c 06D1     		bne	.L105
 376:.\main.c      ****                     SetPicture(1,DISPLAY_FORMA_PAGO_DESEADA);                                      
 1503              		.loc 1 376 0 is_stmt 1
 1504 008e 0222     		movs	r2, #2
 1505 0090 8E4B     		ldr	r3, .L278
 1506 0092 1A60     		str	r2, [r3]
 377:.\main.c      ****                 }  
 1507              		.loc 1 377 0
 1508 0094 0120     		movs	r0, #1
 1509 0096 0421     		movs	r1, #4
 1510 0098 FFF7FEFF 		bl	SetPicture
 1511              	.LVL140:
 1512              	.L105:
 379:.\main.c      ****                 Display1_ClearRxBuffer();
 1513              		.loc 1 379 0
 1514 009c 0A20     		movs	r0, #10
 1515 009e FFF7FEFF 		bl	CyDelay
 1516              	.LVL141:
 380:.\main.c      ****             }
 1517              		.loc 1 380 0
 1518 00a2 FFF7FEFF 		bl	Display1_ClearRxBuffer
 1519              	.LVL142:
 1520 00a6 01F02FB9 		b	.L83
ARM GAS  C:\Users\RECEPC~1\AppData\Local\Temp\cc79eMMA.s 			page 56


 1521              	.L88:
 384:.\main.c      ****                 if((Display1_rxBuffer[0]==0xAA) && (Display1_rxBuffer[6]==0xC3) && (Display1_rxBuff
 1522              		.loc 1 384 0
 1523 00aa FFF7FEFF 		bl	Display1_GetRxBufferSize
 1524              	.LVL143:
 1525 00ae 0828     		cmp	r0, #8
 1526 00b0 41F02A81 		bne	.L83
 385:.\main.c      ****                     switch(Display1_rxBuffer[3]){
 1527              		.loc 1 385 0
 1528 00b4 894B     		ldr	r3, .L278+16
 1529 00b6 1B78     		ldrb	r3, [r3]	@ zero_extendqisi2
 1530 00b8 DBB2     		uxtb	r3, r3
 1531 00ba AA2B     		cmp	r3, #170
 1532 00bc 4AD1     		bne	.L106
 385:.\main.c      ****                     switch(Display1_rxBuffer[3]){
 1533              		.loc 1 385 0 is_stmt 0 discriminator 1
 1534 00be 874B     		ldr	r3, .L278+16
 1535 00c0 9B79     		ldrb	r3, [r3, #6]	@ zero_extendqisi2
 1536 00c2 DBB2     		uxtb	r3, r3
 1537 00c4 C32B     		cmp	r3, #195
 1538 00c6 45D1     		bne	.L106
 385:.\main.c      ****                     switch(Display1_rxBuffer[3]){
 1539              		.loc 1 385 0 discriminator 2
 1540 00c8 844B     		ldr	r3, .L278+16
 1541 00ca DB79     		ldrb	r3, [r3, #7]	@ zero_extendqisi2
 1542 00cc DBB2     		uxtb	r3, r3
 1543 00ce 3C2B     		cmp	r3, #60
 1544 00d0 40D1     		bne	.L106
 386:.\main.c      ****                         case 0x0D:  //Pantalla efectivo              
 1545              		.loc 1 386 0 is_stmt 1
 1546 00d2 824B     		ldr	r3, .L278+16
 1547 00d4 DB78     		ldrb	r3, [r3, #3]	@ zero_extendqisi2
 1548 00d6 DBB2     		uxtb	r3, r3
 1549 00d8 452B     		cmp	r3, #69
 1550 00da 24D0     		beq	.L107
 1551 00dc 04D8     		bhi	.L108
 1552 00de 0D2B     		cmp	r3, #13
 1553 00e0 07D0     		beq	.L109
 1554 00e2 0E2B     		cmp	r3, #14
 1555 00e4 10D0     		beq	.L110
 1556 00e6 35E0     		b	.L106
 1557              	.L108:
 1558 00e8 7E2B     		cmp	r3, #126
 1559 00ea 2CD0     		beq	.L111
 1560 00ec 942B     		cmp	r3, #148
 1561 00ee 22D0     		beq	.L112
 1562 00f0 30E0     		b	.L106
 1563              	.L109:
 388:.\main.c      ****                             bufferDisplay1.saleType = 1;
 1564              		.loc 1 388 0
 1565 00f2 0322     		movs	r2, #3
 1566 00f4 754B     		ldr	r3, .L278
 1567 00f6 1A60     		str	r2, [r3]
 389:.\main.c      ****                             SetPicture(1,DISPLAY_FORMA_PROGRAMACION);                            
 1568              		.loc 1 389 0
 1569 00f8 0120     		movs	r0, #1
 1570 00fa 764B     		ldr	r3, .L278+8
ARM GAS  C:\Users\RECEPC~1\AppData\Local\Temp\cc79eMMA.s 			page 57


 1571 00fc 83F86100 		strb	r0, [r3, #97]
 390:.\main.c      ****                         break;
 1572              		.loc 1 390 0
 1573 0100 0521     		movs	r1, #5
 1574 0102 FFF7FEFF 		bl	SetPicture
 1575              	.LVL144:
 391:.\main.c      ****                         case 0x0E:  //Pantalla credito  
 1576              		.loc 1 391 0
 1577 0106 25E0     		b	.L106
 1578              	.L110:
 393:.\main.c      ****                             bufferDisplay1.saleType = 2;
 1579              		.loc 1 393 0
 1580 0108 0A22     		movs	r2, #10
 1581 010a 704B     		ldr	r3, .L278
 1582 010c 1A60     		str	r2, [r3]
 394:.\main.c      ****                             count_protector = 0;
 1583              		.loc 1 394 0
 1584 010e 0222     		movs	r2, #2
 1585 0110 704B     		ldr	r3, .L278+8
 1586 0112 83F86120 		strb	r2, [r3, #97]
 395:.\main.c      ****                             SetPicture(1,DISPLAY_ID_DIGITAL);                            
 1587              		.loc 1 395 0
 1588 0116 0022     		movs	r2, #0
 1589 0118 6D4B     		ldr	r3, .L278+4
 1590 011a 1A70     		strb	r2, [r3]
 396:.\main.c      ****                         break;
 1591              		.loc 1 396 0
 1592 011c 0120     		movs	r0, #1
 1593 011e 8521     		movs	r1, #133
 1594 0120 FFF7FEFF 		bl	SetPicture
 1595              	.LVL145:
 397:.\main.c      ****                         case 0x45:  //Pantalla otras opciones 
 1596              		.loc 1 397 0
 1597 0124 16E0     		b	.L106
 1598              	.L107:
 399:.\main.c      ****                             SetPicture(1,DISPLAY_OPERACIONES);                            
 1599              		.loc 1 399 0
 1600 0126 0C22     		movs	r2, #12
 1601 0128 684B     		ldr	r3, .L278
 1602 012a 1A60     		str	r2, [r3]
 400:.\main.c      ****                         break;
 1603              		.loc 1 400 0
 1604 012c 0120     		movs	r0, #1
 1605 012e 8321     		movs	r1, #131
 1606 0130 FFF7FEFF 		bl	SetPicture
 1607              	.LVL146:
 401:.\main.c      ****                             
 1608              		.loc 1 401 0
 1609 0134 0EE0     		b	.L106
 1610              	.L112:
 404:.\main.c      ****                             SetPicture(1,DISPLAY_INICIO0);                            
 1611              		.loc 1 404 0
 1612 0136 0022     		movs	r2, #0
 1613 0138 644B     		ldr	r3, .L278
 1614 013a 1A60     		str	r2, [r3]
 405:.\main.c      ****                         break;
 1615              		.loc 1 405 0
ARM GAS  C:\Users\RECEPC~1\AppData\Local\Temp\cc79eMMA.s 			page 58


 1616 013c 0120     		movs	r0, #1
 1617 013e 0146     		mov	r1, r0
 1618 0140 FFF7FEFF 		bl	SetPicture
 1619              	.LVL147:
 406:.\main.c      ****                         
 1620              		.loc 1 406 0
 1621 0144 06E0     		b	.L106
 1622              	.L111:
 409:.\main.c      ****                             SetPicture(1,DISPLAY_INICIO0);                            
 1623              		.loc 1 409 0
 1624 0146 0022     		movs	r2, #0
 1625 0148 604B     		ldr	r3, .L278
 1626 014a 1A60     		str	r2, [r3]
 410:.\main.c      ****                         break;
 1627              		.loc 1 410 0
 1628 014c 0120     		movs	r0, #1
 1629 014e 0146     		mov	r1, r0
 1630 0150 FFF7FEFF 		bl	SetPicture
 1631              	.LVL148:
 1632              	.L106:
 414:.\main.c      ****                 Display1_ClearRxBuffer();
 1633              		.loc 1 414 0
 1634 0154 0A20     		movs	r0, #10
 1635 0156 FFF7FEFF 		bl	CyDelay
 1636              	.LVL149:
 415:.\main.c      ****             }
 1637              		.loc 1 415 0
 1638 015a FFF7FEFF 		bl	Display1_ClearRxBuffer
 1639              	.LVL150:
 1640 015e 01F0D3B8 		b	.L83
 1641              	.L89:
 420:.\main.c      ****                 if((Display1_rxBuffer[0]==0xAA) && (Display1_rxBuffer[6]==0xC3) && (Display1_rxBuff
 1642              		.loc 1 420 0
 1643 0162 FFF7FEFF 		bl	Display1_GetRxBufferSize
 1644              	.LVL151:
 1645 0166 0828     		cmp	r0, #8
 1646 0168 41F0CE80 		bne	.L83
 421:.\main.c      ****                     switch(Display1_rxBuffer[3]){
 1647              		.loc 1 421 0
 1648 016c 5B4B     		ldr	r3, .L278+16
 1649 016e 1B78     		ldrb	r3, [r3]	@ zero_extendqisi2
 1650 0170 DBB2     		uxtb	r3, r3
 1651 0172 AA2B     		cmp	r3, #170
 1652 0174 40F0A380 		bne	.L113
 421:.\main.c      ****                     switch(Display1_rxBuffer[3]){
 1653              		.loc 1 421 0 is_stmt 0 discriminator 1
 1654 0178 584B     		ldr	r3, .L278+16
 1655 017a 9B79     		ldrb	r3, [r3, #6]	@ zero_extendqisi2
 1656 017c DBB2     		uxtb	r3, r3
 1657 017e C32B     		cmp	r3, #195
 1658 0180 40F09D80 		bne	.L113
 421:.\main.c      ****                     switch(Display1_rxBuffer[3]){
 1659              		.loc 1 421 0 discriminator 2
 1660 0184 554B     		ldr	r3, .L278+16
 1661 0186 DB79     		ldrb	r3, [r3, #7]	@ zero_extendqisi2
 1662 0188 DBB2     		uxtb	r3, r3
 1663 018a 3C2B     		cmp	r3, #60
ARM GAS  C:\Users\RECEPC~1\AppData\Local\Temp\cc79eMMA.s 			page 59


 1664 018c 40F09780 		bne	.L113
 422:.\main.c      ****                         case 0x0F:  //Preset dinero                
 1665              		.loc 1 422 0 is_stmt 1
 1666 0190 524B     		ldr	r3, .L278+16
 1667 0192 DB78     		ldrb	r3, [r3, #3]	@ zero_extendqisi2
 1668 0194 DBB2     		uxtb	r3, r3
 1669 0196 3B2B     		cmp	r3, #59
 1670 0198 00F08280 		beq	.L114
 1671 019c 04D8     		bhi	.L115
 1672 019e 0F2B     		cmp	r3, #15
 1673 01a0 0BD0     		beq	.L116
 1674 01a2 102B     		cmp	r3, #16
 1675 01a4 25D0     		beq	.L117
 1676 01a6 8AE0     		b	.L113
 1677              	.L115:
 1678 01a8 7E2B     		cmp	r3, #126
 1679 01aa 00F08180 		beq	.L118
 1680 01ae 942B     		cmp	r3, #148
 1681 01b0 6ED0     		beq	.L119
 1682 01b2 432B     		cmp	r3, #67
 1683 01b4 40F08380 		bne	.L113
 1684 01b8 37E0     		b	.L120
 1685              	.L116:
 424:.\main.c      ****                             bufferDisplay1.presetType[0]=2;
 1686              		.loc 1 424 0
 1687 01ba 0422     		movs	r2, #4
 1688 01bc 434B     		ldr	r3, .L278
 1689 01be 1A60     		str	r2, [r3]
 425:.\main.c      ****                             bufferDisplay1.presetType[1]='D';
 1690              		.loc 1 425 0
 1691 01c0 444B     		ldr	r3, .L278+8
 1692 01c2 0224     		movs	r4, #2
 1693 01c4 83F86340 		strb	r4, [r3, #99]
 426:.\main.c      ****                             numberKeys1=0;
 1694              		.loc 1 426 0
 1695 01c8 4422     		movs	r2, #68
 1696 01ca 83F86420 		strb	r2, [r3, #100]
 427:.\main.c      ****                             SetPicture(1,DISPLAY_INTRODUZCA_VALOR);   
 1697              		.loc 1 427 0
 1698 01ce 0025     		movs	r5, #0
 1699 01d0 434B     		ldr	r3, .L278+20
 1700 01d2 1D70     		strb	r5, [r3]
 428:.\main.c      ****                             WriteLCD(1,'$',3,2,1,0x0000,'N');
 1701              		.loc 1 428 0
 1702 01d4 0120     		movs	r0, #1
 1703 01d6 0621     		movs	r1, #6
 1704 01d8 FFF7FEFF 		bl	SetPicture
 1705              	.LVL152:
 429:.\main.c      ****                         break; 
 1706              		.loc 1 429 0
 1707 01dc 0120     		movs	r0, #1
 1708 01de 0090     		str	r0, [sp]
 1709 01e0 0195     		str	r5, [sp, #4]
 1710 01e2 4E23     		movs	r3, #78
 1711 01e4 0293     		str	r3, [sp, #8]
 1712 01e6 2421     		movs	r1, #36
 1713 01e8 0322     		movs	r2, #3
ARM GAS  C:\Users\RECEPC~1\AppData\Local\Temp\cc79eMMA.s 			page 60


 1714 01ea 2346     		mov	r3, r4
 1715 01ec FFF7FEFF 		bl	WriteLCD
 1716              	.LVL153:
 430:.\main.c      ****                         case 0x10:  //Preset volumen                 
 1717              		.loc 1 430 0
 1718 01f0 65E0     		b	.L113
 1719              	.L117:
 432:.\main.c      ****                             bufferDisplay1.presetType[0]=1;
 1720              		.loc 1 432 0
 1721 01f2 0422     		movs	r2, #4
 1722 01f4 354B     		ldr	r3, .L278
 1723 01f6 1A60     		str	r2, [r3]
 433:.\main.c      ****                             bufferDisplay1.presetType[1]='V';
 1724              		.loc 1 433 0
 1725 01f8 364B     		ldr	r3, .L278+8
 1726 01fa 0124     		movs	r4, #1
 1727 01fc 83F86340 		strb	r4, [r3, #99]
 434:.\main.c      ****                             numberKeys1=0;                            
 1728              		.loc 1 434 0
 1729 0200 5625     		movs	r5, #86
 1730 0202 83F86450 		strb	r5, [r3, #100]
 435:.\main.c      ****                             SetPicture(1,DISPLAY_INTRODUZCA_VOLUMEN);                            
 1731              		.loc 1 435 0
 1732 0206 0026     		movs	r6, #0
 1733 0208 354B     		ldr	r3, .L278+20
 1734 020a 1E70     		strb	r6, [r3]
 436:.\main.c      ****                             WriteLCD(1,'V',3,2,1,0x0000,'N');                            
 1735              		.loc 1 436 0
 1736 020c 2046     		mov	r0, r4
 1737 020e 0D21     		movs	r1, #13
 1738 0210 FFF7FEFF 		bl	SetPicture
 1739              	.LVL154:
 437:.\main.c      ****                         break;
 1740              		.loc 1 437 0
 1741 0214 0094     		str	r4, [sp]
 1742 0216 0196     		str	r6, [sp, #4]
 1743 0218 4E23     		movs	r3, #78
 1744 021a 0293     		str	r3, [sp, #8]
 1745 021c 2046     		mov	r0, r4
 1746 021e 2946     		mov	r1, r5
 1747 0220 0322     		movs	r2, #3
 1748 0222 0223     		movs	r3, #2
 1749 0224 FFF7FEFF 		bl	WriteLCD
 1750              	.LVL155:
 438:.\main.c      ****                         case 0x43:  //Preset full 
 1751              		.loc 1 438 0
 1752 0228 49E0     		b	.L113
 1753              	.L120:
 440:.\main.c      ****                             bufferDisplay1.presetType[1]='F';
 1754              		.loc 1 440 0
 1755 022a 2A4B     		ldr	r3, .L278+8
 1756 022c 0222     		movs	r2, #2
 1757 022e 83F86320 		strb	r2, [r3, #99]
 441:.\main.c      ****                             for(x=1;x<(digits-1);x++){
 1758              		.loc 1 441 0
 1759 0232 4622     		movs	r2, #70
 1760 0234 83F86420 		strb	r2, [r3, #100]
ARM GAS  C:\Users\RECEPC~1\AppData\Local\Temp\cc79eMMA.s 			page 61


 1761              	.LVL156:
 442:.\main.c      ****                                 bufferDisplay1.presetValue[0][x]='9';
 1762              		.loc 1 442 0
 1763 0238 0123     		movs	r3, #1
 1764 023a 06E0     		b	.L121
 1765              	.LVL157:
 1766              	.L122:
 443:.\main.c      ****                             }
 1767              		.loc 1 443 0 discriminator 3
 1768 023c 254A     		ldr	r2, .L278+8
 1769 023e 1A44     		add	r2, r2, r3
 1770 0240 3921     		movs	r1, #57
 1771 0242 82F86510 		strb	r1, [r2, #101]
 442:.\main.c      ****                                 bufferDisplay1.presetValue[0][x]='9';
 1772              		.loc 1 442 0 discriminator 3
 1773 0246 0133     		adds	r3, r3, #1
 1774              	.LVL158:
 1775 0248 DBB2     		uxtb	r3, r3
 1776              	.LVL159:
 1777              	.L121:
 442:.\main.c      ****                                 bufferDisplay1.presetValue[0][x]='9';
 1778              		.loc 1 442 0 is_stmt 0 discriminator 1
 1779 024a 1A46     		mov	r2, r3
 1780 024c 2549     		ldr	r1, .L278+24
 1781 024e 0978     		ldrb	r1, [r1]	@ zero_extendqisi2
 1782 0250 481E     		subs	r0, r1, #1
 1783 0252 8342     		cmp	r3, r0
 1784 0254 F2DB     		blt	.L122
 445:.\main.c      ****                             bufferDisplay1.presetValue[0][x+1]='0';
 1785              		.loc 1 445 0 is_stmt 1
 1786 0256 1F4B     		ldr	r3, .L278+8
 1787              	.LVL160:
 1788 0258 9C18     		adds	r4, r3, r2
 1789 025a 3020     		movs	r0, #48
 1790 025c 84F86500 		strb	r0, [r4, #101]
 446:.\main.c      ****                             bufferDisplay1.presetValue[0][0]=digits;
 1791              		.loc 1 446 0
 1792 0260 84F86600 		strb	r0, [r4, #102]
 447:.\main.c      ****                             for(x=0;x<=bufferDisplay1.presetValue[0][0];x++){
 1793              		.loc 1 447 0
 1794 0264 83F86510 		strb	r1, [r3, #101]
 1795              	.LVL161:
 448:.\main.c      ****                                 bufferDisplay1.presetValue[1][x]=bufferDisplay1.presetValue[0][x];
 1796              		.loc 1 448 0
 1797 0268 0023     		movs	r3, #0
 1798 026a 07E0     		b	.L123
 1799              	.LVL162:
 1800              	.L124:
 449:.\main.c      ****                             }
 1801              		.loc 1 449 0 discriminator 3
 1802 026c 194A     		ldr	r2, .L278+8
 1803 026e 1A44     		add	r2, r2, r3
 1804 0270 92F86500 		ldrb	r0, [r2, #101]	@ zero_extendqisi2
 1805 0274 82F86F00 		strb	r0, [r2, #111]
 448:.\main.c      ****                                 bufferDisplay1.presetValue[1][x]=bufferDisplay1.presetValue[0][x];
 1806              		.loc 1 448 0 discriminator 3
 1807 0278 0133     		adds	r3, r3, #1
ARM GAS  C:\Users\RECEPC~1\AppData\Local\Temp\cc79eMMA.s 			page 62


 1808              	.LVL163:
 1809 027a DBB2     		uxtb	r3, r3
 1810              	.LVL164:
 1811              	.L123:
 448:.\main.c      ****                                 bufferDisplay1.presetValue[1][x]=bufferDisplay1.presetValue[0][x];
 1812              		.loc 1 448 0 is_stmt 0 discriminator 1
 1813 027c 8B42     		cmp	r3, r1
 1814 027e F5D9     		bls	.L124
 451:.\main.c      ****                             SetPicture(1,DISPLAY_SELECCIONE_PRODUCTO4);                          
 1815              		.loc 1 451 0 is_stmt 1
 1816 0280 0522     		movs	r2, #5
 1817 0282 124B     		ldr	r3, .L278
 1818              	.LVL165:
 1819 0284 1A60     		str	r2, [r3]
 452:.\main.c      ****                         break;
 1820              		.loc 1 452 0
 1821 0286 0120     		movs	r0, #1
 1822 0288 8621     		movs	r1, #134
 1823 028a FFF7FEFF 		bl	SetPicture
 1824              	.LVL166:
 453:.\main.c      ****                         case 0x94:  //Retroceso 
 1825              		.loc 1 453 0
 1826 028e 16E0     		b	.L113
 1827              	.L119:
 455:.\main.c      ****                             SetPicture(1,DISPLAY_INICIO0);                                         
 1828              		.loc 1 455 0
 1829 0290 0022     		movs	r2, #0
 1830 0292 0E4B     		ldr	r3, .L278
 1831 0294 1A60     		str	r2, [r3]
 456:.\main.c      ****                         break;
 1832              		.loc 1 456 0
 1833 0296 0120     		movs	r0, #1
 1834 0298 0146     		mov	r1, r0
 1835 029a FFF7FEFF 		bl	SetPicture
 1836              	.LVL167:
 457:.\main.c      ****                         case 0x3B:  //Pantalla Inicial    
 1837              		.loc 1 457 0
 1838 029e 0EE0     		b	.L113
 1839              	.L114:
 459:.\main.c      ****                             SetPicture(1,DISPLAY_INICIO0);                            
 1840              		.loc 1 459 0
 1841 02a0 0022     		movs	r2, #0
 1842 02a2 0A4B     		ldr	r3, .L278
 1843 02a4 1A60     		str	r2, [r3]
 460:.\main.c      ****                         break;
 1844              		.loc 1 460 0
 1845 02a6 0120     		movs	r0, #1
 1846 02a8 0146     		mov	r1, r0
 1847 02aa FFF7FEFF 		bl	SetPicture
 1848              	.LVL168:
 461:.\main.c      ****                         case 0x7E:  //Pantalla Inicial    
 1849              		.loc 1 461 0
 1850 02ae 06E0     		b	.L113
 1851              	.L118:
 463:.\main.c      ****                             SetPicture(1,DISPLAY_INICIO0);                            
 1852              		.loc 1 463 0
 1853 02b0 0022     		movs	r2, #0
ARM GAS  C:\Users\RECEPC~1\AppData\Local\Temp\cc79eMMA.s 			page 63


 1854 02b2 064B     		ldr	r3, .L278
 1855 02b4 1A60     		str	r2, [r3]
 464:.\main.c      ****                         break;
 1856              		.loc 1 464 0
 1857 02b6 0120     		movs	r0, #1
 1858 02b8 0146     		mov	r1, r0
 1859 02ba FFF7FEFF 		bl	SetPicture
 1860              	.LVL169:
 1861              	.L113:
 468:.\main.c      ****                 Display1_ClearRxBuffer();
 1862              		.loc 1 468 0
 1863 02be 0A20     		movs	r0, #10
 1864 02c0 FFF7FEFF 		bl	CyDelay
 1865              	.LVL170:
 469:.\main.c      ****             }
 1866              		.loc 1 469 0
 1867 02c4 FFF7FEFF 		bl	Display1_ClearRxBuffer
 1868              	.LVL171:
 1869 02c8 01F01EB8 		b	.L83
 1870              	.L279:
 1871              		.align	2
 1872              	.L278:
 1873 02cc 00000000 		.word	flowDisplay1
 1874 02d0 00000000 		.word	count_protector
 1875 02d4 00000000 		.word	bufferDisplay1
 1876 02d8 00000000 		.word	side
 1877 02dc 00000000 		.word	Display1_rxBuffer
 1878 02e0 00000000 		.word	numberKeys1
 1879 02e4 00000000 		.word	digits
 1880              	.L90:
 474:.\main.c      ****                 case 0:  //Pantalla Inicial    
 1881              		.loc 1 474 0
 1882 02e8 0120     		movs	r0, #1
 1883 02ea 894B     		ldr	r3, .L280
 1884 02ec 1978     		ldrb	r1, [r3]	@ zero_extendqisi2
 1885 02ee 0022     		movs	r2, #0
 1886 02f0 FFF7FEFF 		bl	alphanumeric_keyboard
 1887              	.LVL172:
 1888 02f4 18B1     		cbz	r0, .L125
 1889 02f6 0128     		cmp	r0, #1
 1890 02f8 15D0     		beq	.L260
 1891 02fa 01F005B8 		b	.L83
 1892              	.L125:
 476:.\main.c      ****                     SetPicture(1,DISPLAY_INICIO0);                            
 1893              		.loc 1 476 0
 1894 02fe 0022     		movs	r2, #0
 1895 0300 844B     		ldr	r3, .L280+4
 1896 0302 1A60     		str	r2, [r3]
 477:.\main.c      ****                 break;
 1897              		.loc 1 477 0
 1898 0304 0120     		movs	r0, #1
 1899 0306 0146     		mov	r1, r0
 1900 0308 FFF7FEFF 		bl	SetPicture
 1901              	.LVL173:
 478:.\main.c      ****                     
 1902              		.loc 1 478 0
 1903 030c 00F0FCBF 		b	.L83
ARM GAS  C:\Users\RECEPC~1\AppData\Local\Temp\cc79eMMA.s 			page 64


 1904              	.LVL174:
 1905              	.L127:
 482:.\main.c      ****                         bufferDisplay1.presetValue[1][x]=bufferDisplay1.valueKeys[x];
 1906              		.loc 1 482 0 discriminator 3
 1907 0310 814A     		ldr	r2, .L280+8
 1908 0312 1A44     		add	r2, r2, r3
 1909 0314 92F84B10 		ldrb	r1, [r2, #75]	@ zero_extendqisi2
 1910 0318 82F86510 		strb	r1, [r2, #101]
 483:.\main.c      ****                     }  
 1911              		.loc 1 483 0 discriminator 3
 1912 031c 82F86F10 		strb	r1, [r2, #111]
 481:.\main.c      ****                         bufferDisplay1.presetValue[0][x]=bufferDisplay1.valueKeys[x];
 1913              		.loc 1 481 0 discriminator 3
 1914 0320 0133     		adds	r3, r3, #1
 1915              	.LVL175:
 1916 0322 DBB2     		uxtb	r3, r3
 1917              	.LVL176:
 1918 0324 00E0     		b	.L126
 1919              	.LVL177:
 1920              	.L260:
 474:.\main.c      ****                 case 0:  //Pantalla Inicial    
 1921              		.loc 1 474 0
 1922 0326 0023     		movs	r3, #0
 1923              	.L126:
 1924              	.LVL178:
 481:.\main.c      ****                         bufferDisplay1.presetValue[0][x]=bufferDisplay1.valueKeys[x];
 1925              		.loc 1 481 0 discriminator 1
 1926 0328 7B4A     		ldr	r2, .L280+8
 1927 032a 92F84B20 		ldrb	r2, [r2, #75]	@ zero_extendqisi2
 1928 032e 9A42     		cmp	r2, r3
 1929 0330 EED2     		bcs	.L127
 485:.\main.c      ****                     SetPicture(1,DISPLAY_SELECCIONE_PRODUCTO4);
 1930              		.loc 1 485 0
 1931 0332 0522     		movs	r2, #5
 1932 0334 774B     		ldr	r3, .L280+4
 1933              	.LVL179:
 1934 0336 1A60     		str	r2, [r3]
 486:.\main.c      ****                 break;
 1935              		.loc 1 486 0
 1936 0338 0120     		movs	r0, #1
 1937 033a 8621     		movs	r1, #134
 1938 033c FFF7FEFF 		bl	SetPicture
 1939              	.LVL180:
 487:.\main.c      ****             }
 1940              		.loc 1 487 0
 1941 0340 00F0E2BF 		b	.L83
 1942              	.L91:
 492:.\main.c      ****                 if((Display1_rxBuffer[0]==0xAA) && (Display1_rxBuffer[6]==0xC3) && (Display1_rxBuff
 1943              		.loc 1 492 0
 1944 0344 FFF7FEFF 		bl	Display1_GetRxBufferSize
 1945              	.LVL181:
 1946 0348 0828     		cmp	r0, #8
 1947 034a 40F0DD87 		bne	.L83
 493:.\main.c      ****                     switch(Display1_rxBuffer[3]){
 1948              		.loc 1 493 0
 1949 034e 734B     		ldr	r3, .L280+12
 1950 0350 1B78     		ldrb	r3, [r3]	@ zero_extendqisi2
ARM GAS  C:\Users\RECEPC~1\AppData\Local\Temp\cc79eMMA.s 			page 65


 1951 0352 DBB2     		uxtb	r3, r3
 1952 0354 AA2B     		cmp	r3, #170
 1953 0356 6CD1     		bne	.L128
 493:.\main.c      ****                     switch(Display1_rxBuffer[3]){
 1954              		.loc 1 493 0 is_stmt 0 discriminator 1
 1955 0358 704B     		ldr	r3, .L280+12
 1956 035a 9B79     		ldrb	r3, [r3, #6]	@ zero_extendqisi2
 1957 035c DBB2     		uxtb	r3, r3
 1958 035e C32B     		cmp	r3, #195
 1959 0360 67D1     		bne	.L128
 493:.\main.c      ****                     switch(Display1_rxBuffer[3]){
 1960              		.loc 1 493 0 discriminator 2
 1961 0362 6E4B     		ldr	r3, .L280+12
 1962 0364 DB79     		ldrb	r3, [r3, #7]	@ zero_extendqisi2
 1963 0366 DBB2     		uxtb	r3, r3
 1964 0368 3C2B     		cmp	r3, #60
 1965 036a 62D1     		bne	.L128
 494:.\main.c      ****                         case 0x80:  //Grado 1 
 1966              		.loc 1 494 0 is_stmt 1
 1967 036c 6B4B     		ldr	r3, .L280+12
 1968 036e DB78     		ldrb	r3, [r3, #3]	@ zero_extendqisi2
 1969 0370 7E3B     		subs	r3, r3, #126
 1970 0372 3A2B     		cmp	r3, #58
 1971 0374 5DD8     		bhi	.L128
 1972 0376 DFE803F0 		tbb	[pc, r3]
 1973              	.L130:
 1974 037a 55       		.byte	(.L129-.L130)/2
 1975 037b 35       		.byte	(.L131-.L130)/2
 1976 037c 1E       		.byte	(.L132-.L130)/2
 1977 037d 29       		.byte	(.L133-.L130)/2
 1978 037e 5C       		.byte	(.L128-.L130)/2
 1979 037f 5C       		.byte	(.L128-.L130)/2
 1980 0380 5C       		.byte	(.L128-.L130)/2
 1981 0381 5C       		.byte	(.L128-.L130)/2
 1982 0382 5C       		.byte	(.L128-.L130)/2
 1983 0383 5C       		.byte	(.L128-.L130)/2
 1984 0384 5C       		.byte	(.L128-.L130)/2
 1985 0385 5C       		.byte	(.L128-.L130)/2
 1986 0386 5C       		.byte	(.L128-.L130)/2
 1987 0387 5C       		.byte	(.L128-.L130)/2
 1988 0388 5C       		.byte	(.L128-.L130)/2
 1989 0389 5C       		.byte	(.L128-.L130)/2
 1990 038a 5C       		.byte	(.L128-.L130)/2
 1991 038b 5C       		.byte	(.L128-.L130)/2
 1992 038c 5C       		.byte	(.L128-.L130)/2
 1993 038d 5C       		.byte	(.L128-.L130)/2
 1994 038e 5C       		.byte	(.L128-.L130)/2
 1995 038f 5C       		.byte	(.L128-.L130)/2
 1996 0390 4D       		.byte	(.L134-.L130)/2
 1997 0391 5C       		.byte	(.L128-.L130)/2
 1998 0392 5C       		.byte	(.L128-.L130)/2
 1999 0393 5C       		.byte	(.L128-.L130)/2
 2000 0394 5C       		.byte	(.L128-.L130)/2
 2001 0395 5C       		.byte	(.L128-.L130)/2
 2002 0396 5C       		.byte	(.L128-.L130)/2
 2003 0397 5C       		.byte	(.L128-.L130)/2
 2004 0398 5C       		.byte	(.L128-.L130)/2
ARM GAS  C:\Users\RECEPC~1\AppData\Local\Temp\cc79eMMA.s 			page 66


 2005 0399 5C       		.byte	(.L128-.L130)/2
 2006 039a 5C       		.byte	(.L128-.L130)/2
 2007 039b 5C       		.byte	(.L128-.L130)/2
 2008 039c 5C       		.byte	(.L128-.L130)/2
 2009 039d 5C       		.byte	(.L128-.L130)/2
 2010 039e 5C       		.byte	(.L128-.L130)/2
 2011 039f 5C       		.byte	(.L128-.L130)/2
 2012 03a0 5C       		.byte	(.L128-.L130)/2
 2013 03a1 5C       		.byte	(.L128-.L130)/2
 2014 03a2 5C       		.byte	(.L128-.L130)/2
 2015 03a3 5C       		.byte	(.L128-.L130)/2
 2016 03a4 5C       		.byte	(.L128-.L130)/2
 2017 03a5 5C       		.byte	(.L128-.L130)/2
 2018 03a6 5C       		.byte	(.L128-.L130)/2
 2019 03a7 5C       		.byte	(.L128-.L130)/2
 2020 03a8 5C       		.byte	(.L128-.L130)/2
 2021 03a9 5C       		.byte	(.L128-.L130)/2
 2022 03aa 5C       		.byte	(.L128-.L130)/2
 2023 03ab 5C       		.byte	(.L128-.L130)/2
 2024 03ac 5C       		.byte	(.L128-.L130)/2
 2025 03ad 5C       		.byte	(.L128-.L130)/2
 2026 03ae 5C       		.byte	(.L128-.L130)/2
 2027 03af 5C       		.byte	(.L128-.L130)/2
 2028 03b0 5C       		.byte	(.L128-.L130)/2
 2029 03b1 5C       		.byte	(.L128-.L130)/2
 2030 03b2 5C       		.byte	(.L128-.L130)/2
 2031 03b3 5C       		.byte	(.L128-.L130)/2
 2032 03b4 41       		.byte	(.L135-.L130)/2
 2033 03b5 00       		.p2align 1
 2034              	.L132:
 496:.\main.c      ****                             side.a.hose = 1;
 2035              		.loc 1 496 0
 2036 03b6 0622     		movs	r2, #6
 2037 03b8 564B     		ldr	r3, .L280+4
 2038 03ba 1A60     		str	r2, [r3]
 497:.\main.c      ****                             SetPicture(1,DISPLAY_DESEA_IMPRIMIR_RECIBO);                           
 2039              		.loc 1 497 0
 2040 03bc 0120     		movs	r0, #1
 2041 03be 584B     		ldr	r3, .L280+16
 2042 03c0 83F80101 		strb	r0, [r3, #257]
 498:.\main.c      ****                         break;
 2043              		.loc 1 498 0
 2044 03c4 0B21     		movs	r1, #11
 2045 03c6 FFF7FEFF 		bl	SetPicture
 2046              	.LVL182:
 499:.\main.c      ****                             
 2047              		.loc 1 499 0
 2048 03ca 32E0     		b	.L128
 2049              	.L133:
 502:.\main.c      ****                             side.a.hose = 2;
 2050              		.loc 1 502 0
 2051 03cc 0622     		movs	r2, #6
 2052 03ce 514B     		ldr	r3, .L280+4
 2053 03d0 1A60     		str	r2, [r3]
 503:.\main.c      ****                             SetPicture(1,DISPLAY_DESEA_IMPRIMIR_RECIBO);                           
 2054              		.loc 1 503 0
 2055 03d2 0222     		movs	r2, #2
ARM GAS  C:\Users\RECEPC~1\AppData\Local\Temp\cc79eMMA.s 			page 67


 2056 03d4 524B     		ldr	r3, .L280+16
 2057 03d6 83F80121 		strb	r2, [r3, #257]
 504:.\main.c      ****                         break;
 2058              		.loc 1 504 0
 2059 03da 0120     		movs	r0, #1
 2060 03dc 0B21     		movs	r1, #11
 2061 03de FFF7FEFF 		bl	SetPicture
 2062              	.LVL183:
 505:.\main.c      ****                             
 2063              		.loc 1 505 0
 2064 03e2 26E0     		b	.L128
 2065              	.L131:
 508:.\main.c      ****                             side.a.hose = 3;
 2066              		.loc 1 508 0
 2067 03e4 0622     		movs	r2, #6
 2068 03e6 4B4B     		ldr	r3, .L280+4
 2069 03e8 1A60     		str	r2, [r3]
 509:.\main.c      ****                             SetPicture(1,DISPLAY_DESEA_IMPRIMIR_RECIBO);                           
 2070              		.loc 1 509 0
 2071 03ea 0322     		movs	r2, #3
 2072 03ec 4C4B     		ldr	r3, .L280+16
 2073 03ee 83F80121 		strb	r2, [r3, #257]
 510:.\main.c      ****                         break;   
 2074              		.loc 1 510 0
 2075 03f2 0120     		movs	r0, #1
 2076 03f4 0B21     		movs	r1, #11
 2077 03f6 FFF7FEFF 		bl	SetPicture
 2078              	.LVL184:
 511:.\main.c      ****                         
 2079              		.loc 1 511 0
 2080 03fa 1AE0     		b	.L128
 2081              	.L135:
 514:.\main.c      ****                             side.a.hose = 4;
 2082              		.loc 1 514 0
 2083 03fc 0622     		movs	r2, #6
 2084 03fe 454B     		ldr	r3, .L280+4
 2085 0400 1A60     		str	r2, [r3]
 515:.\main.c      ****                             SetPicture(1,DISPLAY_DESEA_IMPRIMIR_RECIBO);                           
 2086              		.loc 1 515 0
 2087 0402 0422     		movs	r2, #4
 2088 0404 464B     		ldr	r3, .L280+16
 2089 0406 83F80121 		strb	r2, [r3, #257]
 516:.\main.c      ****                         break;
 2090              		.loc 1 516 0
 2091 040a 0120     		movs	r0, #1
 2092 040c 0B21     		movs	r1, #11
 2093 040e FFF7FEFF 		bl	SetPicture
 2094              	.LVL185:
 517:.\main.c      ****                             
 2095              		.loc 1 517 0
 2096 0412 0EE0     		b	.L128
 2097              	.L134:
 520:.\main.c      ****                             SetPicture(1,DISPLAY_INICIO0);                                         
 2098              		.loc 1 520 0
 2099 0414 0022     		movs	r2, #0
 2100 0416 3F4B     		ldr	r3, .L280+4
 2101 0418 1A60     		str	r2, [r3]
ARM GAS  C:\Users\RECEPC~1\AppData\Local\Temp\cc79eMMA.s 			page 68


 521:.\main.c      ****                         break;
 2102              		.loc 1 521 0
 2103 041a 0120     		movs	r0, #1
 2104 041c 0146     		mov	r1, r0
 2105 041e FFF7FEFF 		bl	SetPicture
 2106              	.LVL186:
 522:.\main.c      ****                             
 2107              		.loc 1 522 0
 2108 0422 06E0     		b	.L128
 2109              	.L129:
 525:.\main.c      ****                             flowDisplay1 = 0;
 2110              		.loc 1 525 0
 2111 0424 0120     		movs	r0, #1
 2112 0426 0146     		mov	r1, r0
 2113 0428 FFF7FEFF 		bl	SetPicture
 2114              	.LVL187:
 526:.\main.c      ****                         break;
 2115              		.loc 1 526 0
 2116 042c 0022     		movs	r2, #0
 2117 042e 394B     		ldr	r3, .L280+4
 2118 0430 1A60     		str	r2, [r3]
 2119              	.L128:
 530:.\main.c      ****                 Display1_ClearRxBuffer();
 2120              		.loc 1 530 0
 2121 0432 0A20     		movs	r0, #10
 2122 0434 FFF7FEFF 		bl	CyDelay
 2123              	.LVL188:
 531:.\main.c      ****             }
 2124              		.loc 1 531 0
 2125 0438 FFF7FEFF 		bl	Display1_ClearRxBuffer
 2126              	.LVL189:
 2127 043c 00F064BF 		b	.L83
 2128              	.L92:
 536:.\main.c      ****             Timer_Animacion_Start();
 2129              		.loc 1 536 0
 2130 0440 3848     		ldr	r0, .L280+20
 2131 0442 FFF7FEFF 		bl	isr_3_StartEx
 2132              	.LVL190:
 537:.\main.c      ****             if(Display1_GetRxBufferSize()==8){
 2133              		.loc 1 537 0
 2134 0446 FFF7FEFF 		bl	Timer_Animacion_Start
 2135              	.LVL191:
 538:.\main.c      ****                 if((Display1_rxBuffer[0]==0xAA) && (Display1_rxBuffer[6]==0xC3) && (Display1_rxBuff
 2136              		.loc 1 538 0
 2137 044a FFF7FEFF 		bl	Display1_GetRxBufferSize
 2138              	.LVL192:
 2139 044e 0828     		cmp	r0, #8
 2140 0450 4DD1     		bne	.L136
 539:.\main.c      ****                     switch(Display1_rxBuffer[3]){
 2141              		.loc 1 539 0
 2142 0452 324B     		ldr	r3, .L280+12
 2143 0454 1B78     		ldrb	r3, [r3]	@ zero_extendqisi2
 2144 0456 DBB2     		uxtb	r3, r3
 2145 0458 AA2B     		cmp	r3, #170
 2146 045a 43D1     		bne	.L137
 539:.\main.c      ****                     switch(Display1_rxBuffer[3]){
 2147              		.loc 1 539 0 is_stmt 0 discriminator 1
ARM GAS  C:\Users\RECEPC~1\AppData\Local\Temp\cc79eMMA.s 			page 69


 2148 045c 2F4B     		ldr	r3, .L280+12
 2149 045e 9B79     		ldrb	r3, [r3, #6]	@ zero_extendqisi2
 2150 0460 DBB2     		uxtb	r3, r3
 2151 0462 C32B     		cmp	r3, #195
 2152 0464 3ED1     		bne	.L137
 539:.\main.c      ****                     switch(Display1_rxBuffer[3]){
 2153              		.loc 1 539 0 discriminator 2
 2154 0466 2D4B     		ldr	r3, .L280+12
 2155 0468 DB79     		ldrb	r3, [r3, #7]	@ zero_extendqisi2
 2156 046a DBB2     		uxtb	r3, r3
 2157 046c 3C2B     		cmp	r3, #60
 2158 046e 39D1     		bne	.L137
 540:.\main.c      ****                         case 0x39:  //Si imprimir  
 2159              		.loc 1 540 0 is_stmt 1
 2160 0470 2A4B     		ldr	r3, .L280+12
 2161 0472 DB78     		ldrb	r3, [r3, #3]	@ zero_extendqisi2
 2162 0474 DBB2     		uxtb	r3, r3
 2163 0476 392B     		cmp	r3, #57
 2164 0478 04D0     		beq	.L138
 2165 047a 7E2B     		cmp	r3, #126
 2166 047c 2BD0     		beq	.L139
 2167 047e 382B     		cmp	r3, #56
 2168 0480 30D1     		bne	.L137
 2169 0482 0FE0     		b	.L140
 2170              	.L138:
 542:.\main.c      ****                             numberKeys1 = 0;
 2171              		.loc 1 542 0
 2172 0484 0922     		movs	r2, #9
 2173 0486 234B     		ldr	r3, .L280+4
 2174 0488 1A60     		str	r2, [r3]
 543:.\main.c      ****                             bufferDisplay1.flagKeyboard = 1;
 2175              		.loc 1 543 0
 2176 048a 0022     		movs	r2, #0
 2177 048c 264B     		ldr	r3, .L280+24
 2178 048e 1A70     		strb	r2, [r3]
 544:.\main.c      ****                             bufferDisplay1.flagPrint =  1;
 2179              		.loc 1 544 0
 2180 0490 214B     		ldr	r3, .L280+8
 2181 0492 0120     		movs	r0, #1
 2182 0494 83F80001 		strb	r0, [r3, #256]
 545:.\main.c      ****                             SetPicture(1,DISPLAY_DIGITE_PLACA);                            
 2183              		.loc 1 545 0
 2184 0498 83F83401 		strb	r0, [r3, #308]
 546:.\main.c      ****                         break; 
 2185              		.loc 1 546 0
 2186 049c 0A21     		movs	r1, #10
 2187 049e FFF7FEFF 		bl	SetPicture
 2188              	.LVL193:
 547:.\main.c      ****                         case 0x38:  //No imprimir 
 2189              		.loc 1 547 0
 2190 04a2 1FE0     		b	.L137
 2191              	.L140:
 549:.\main.c      ****                                 flowDisplay1 = 0;
 2192              		.loc 1 549 0
 2193 04a4 1C4B     		ldr	r3, .L280+8
 2194 04a6 93F80331 		ldrb	r3, [r3, #259]	@ zero_extendqisi2
 2195 04aa 3BB1     		cbz	r3, .L141
ARM GAS  C:\Users\RECEPC~1\AppData\Local\Temp\cc79eMMA.s 			page 70


 550:.\main.c      ****                                 SetPicture(1,DISPLAY_INICIO0);
 2196              		.loc 1 550 0
 2197 04ac 0022     		movs	r2, #0
 2198 04ae 194B     		ldr	r3, .L280+4
 2199 04b0 1A60     		str	r2, [r3]
 551:.\main.c      ****                             }else{
 2200              		.loc 1 551 0
 2201 04b2 0120     		movs	r0, #1
 2202 04b4 0146     		mov	r1, r0
 2203 04b6 FFF7FEFF 		bl	SetPicture
 2204              	.LVL194:
 2205 04ba 13E0     		b	.L137
 2206              	.L141:
 553:.\main.c      ****                                 bufferDisplay1.flagPrint =  0;
 2207              		.loc 1 553 0
 2208 04bc 0721     		movs	r1, #7
 2209 04be 154B     		ldr	r3, .L280+4
 2210 04c0 1960     		str	r1, [r3]
 554:.\main.c      ****                                 count_protector=0;
 2211              		.loc 1 554 0
 2212 04c2 0023     		movs	r3, #0
 2213 04c4 144A     		ldr	r2, .L280+8
 2214 04c6 82F83431 		strb	r3, [r2, #308]
 555:.\main.c      ****                                 SetPicture(1,DISPLAY_SUBA_MANIJA);
 2215              		.loc 1 555 0
 2216 04ca 184A     		ldr	r2, .L280+28
 2217 04cc 1370     		strb	r3, [r2]
 556:.\main.c      ****                             }
 2218              		.loc 1 556 0
 2219 04ce 0120     		movs	r0, #1
 2220 04d0 FFF7FEFF 		bl	SetPicture
 2221              	.LVL195:
 2222 04d4 06E0     		b	.L137
 2223              	.L139:
 560:.\main.c      ****                             SetPicture(1,DISPLAY_INICIO0);
 2224              		.loc 1 560 0
 2225 04d6 0022     		movs	r2, #0
 2226 04d8 0E4B     		ldr	r3, .L280+4
 2227 04da 1A60     		str	r2, [r3]
 561:.\main.c      ****                         break;
 2228              		.loc 1 561 0
 2229 04dc 0120     		movs	r0, #1
 2230 04de 0146     		mov	r1, r0
 2231 04e0 FFF7FEFF 		bl	SetPicture
 2232              	.LVL196:
 2233              	.L137:
 565:.\main.c      ****                 Display1_ClearRxBuffer();
 2234              		.loc 1 565 0
 2235 04e4 0A20     		movs	r0, #10
 2236 04e6 FFF7FEFF 		bl	CyDelay
 2237              	.LVL197:
 566:.\main.c      ****             }
 2238              		.loc 1 566 0
 2239 04ea FFF7FEFF 		bl	Display1_ClearRxBuffer
 2240              	.LVL198:
 2241              	.L136:
 568:.\main.c      ****                 flowDisplay1 = 0;	
ARM GAS  C:\Users\RECEPC~1\AppData\Local\Temp\cc79eMMA.s 			page 71


 2242              		.loc 1 568 0
 2243 04ee 0F4B     		ldr	r3, .L280+28
 2244 04f0 1B78     		ldrb	r3, [r3]	@ zero_extendqisi2
 2245 04f2 1D2B     		cmp	r3, #29
 2246 04f4 40F20887 		bls	.L83
 569:.\main.c      ****     			count_protector=0;
 2247              		.loc 1 569 0
 2248 04f8 0023     		movs	r3, #0
 2249 04fa 064A     		ldr	r2, .L280+4
 2250 04fc 1360     		str	r3, [r2]
 570:.\main.c      ****                 SetPicture(1,DISPLAY_INICIO0);
 2251              		.loc 1 570 0
 2252 04fe 0B4A     		ldr	r2, .L280+28
 2253 0500 1370     		strb	r3, [r2]
 571:.\main.c      ****     		}
 2254              		.loc 1 571 0
 2255 0502 0120     		movs	r0, #1
 2256 0504 0146     		mov	r1, r0
 2257 0506 FFF7FEFF 		bl	SetPicture
 2258              	.LVL199:
 2259 050a 00F0FDBE 		b	.L83
 2260              	.L281:
 2261 050e 00BF     		.align	2
 2262              	.L280:
 2263 0510 00000000 		.word	digits
 2264 0514 00000000 		.word	flowDisplay1
 2265 0518 00000000 		.word	bufferDisplay1
 2266 051c 00000000 		.word	Display1_rxBuffer
 2267 0520 00000000 		.word	side
 2268 0524 00000000 		.word	animacion
 2269 0528 00000000 		.word	numberKeys1
 2270 052c 00000000 		.word	count_protector
 2271              	.L93:
 579:.\main.c      ****             if (side.a.activeHose == side.a.hose){                
 2272              		.loc 1 579 0
 2273 0530 A84C     		ldr	r4, .L282
 2274 0532 2078     		ldrb	r0, [r4]	@ zero_extendqisi2
 2275 0534 FFF7FEFF 		bl	PumpHoseActiveState
 2276              	.LVL200:
 2277 0538 0146     		mov	r1, r0
 2278 053a 84F80001 		strb	r0, [r4, #256]
 580:.\main.c      ****                 if(PresetData(side.a.dir,side.a.activeHose,bufferDisplay1.presetValue[0],bufferDisp
 2279              		.loc 1 580 0
 2280 053e 94F80131 		ldrb	r3, [r4, #257]	@ zero_extendqisi2
 2281 0542 9842     		cmp	r0, r3
 2282 0544 3DD1     		bne	.L142
 581:.\main.c      ****                     get_state(side.a.dir);
 2283              		.loc 1 581 0
 2284 0546 A44A     		ldr	r2, .L282+4
 2285 0548 92F86330 		ldrb	r3, [r2, #99]	@ zero_extendqisi2
 2286 054c 2078     		ldrb	r0, [r4]	@ zero_extendqisi2
 2287 054e 6532     		adds	r2, r2, #101
 2288 0550 03F00303 		and	r3, r3, #3
 2289 0554 FFF7FEFF 		bl	PresetData
 2290              	.LVL201:
 2291 0558 0128     		cmp	r0, #1
 2292 055a 24D1     		bne	.L143
ARM GAS  C:\Users\RECEPC~1\AppData\Local\Temp\cc79eMMA.s 			page 72


 582:.\main.c      ****                     CyDelay(50);
 2293              		.loc 1 582 0
 2294 055c 2078     		ldrb	r0, [r4]	@ zero_extendqisi2
 2295 055e FFF7FEFF 		bl	get_state
 2296              	.LVL202:
 583:.\main.c      ****                     Pump_PutChar(0x10|side.a.dir);//Autoriza el surtidor
 2297              		.loc 1 583 0
 2298 0562 3220     		movs	r0, #50
 2299 0564 FFF7FEFF 		bl	CyDelay
 2300              	.LVL203:
 584:.\main.c      ****                     CyDelay(50);
 2301              		.loc 1 584 0
 2302 0568 2078     		ldrb	r0, [r4]	@ zero_extendqisi2
 2303 056a 40F01000 		orr	r0, r0, #16
 2304 056e FFF7FEFF 		bl	Pump_PutChar
 2305              	.LVL204:
 585:.\main.c      ****                     flowDisplay1 = 8;
 2306              		.loc 1 585 0
 2307 0572 3220     		movs	r0, #50
 2308 0574 FFF7FEFF 		bl	CyDelay
 2309              	.LVL205:
 586:.\main.c      ****                     isr_3_Stop(); 
 2310              		.loc 1 586 0
 2311 0578 0825     		movs	r5, #8
 2312 057a 984B     		ldr	r3, .L282+8
 2313 057c 1D60     		str	r5, [r3]
 587:.\main.c      ****                     Timer_Animacion_Stop();
 2314              		.loc 1 587 0
 2315 057e FFF7FEFF 		bl	isr_3_Stop
 2316              	.LVL206:
 588:.\main.c      ****                     count_protector = 0;                        
 2317              		.loc 1 588 0
 2318 0582 FFF7FEFF 		bl	Timer_Animacion_Stop
 2319              	.LVL207:
 589:.\main.c      ****                     RFstateReport = 1;
 2320              		.loc 1 589 0
 2321 0586 0022     		movs	r2, #0
 2322 0588 954B     		ldr	r3, .L282+12
 2323 058a 1A70     		strb	r2, [r3]
 590:.\main.c      ****                     SetPicture(1,DISPLAY_DESPACHANDO);   
 2324              		.loc 1 590 0
 2325 058c 0124     		movs	r4, #1
 2326 058e 954B     		ldr	r3, .L282+16
 2327 0590 1C70     		strb	r4, [r3]
 591:.\main.c      ****                     ShowMessage(1,(bufferDisplay1.presetValue[0]),18);
 2328              		.loc 1 591 0
 2329 0592 2046     		mov	r0, r4
 2330 0594 2946     		mov	r1, r5
 2331 0596 FFF7FEFF 		bl	SetPicture
 2332              	.LVL208:
 592:.\main.c      ****                 }else{
 2333              		.loc 1 592 0
 2334 059a 2046     		mov	r0, r4
 2335 059c 9249     		ldr	r1, .L282+20
 2336 059e 1222     		movs	r2, #18
 2337 05a0 FFF7FEFF 		bl	ShowMessage
 2338              	.LVL209:
ARM GAS  C:\Users\RECEPC~1\AppData\Local\Temp\cc79eMMA.s 			page 73


 2339 05a4 10E0     		b	.L144
 2340              	.L143:
 594:.\main.c      ****                     SetPicture(1,DISPLAY_ERROR);
 2341              		.loc 1 594 0
 2342 05a6 0021     		movs	r1, #0
 2343 05a8 8C4B     		ldr	r3, .L282+8
 2344 05aa 1960     		str	r1, [r3]
 595:.\main.c      ****                     CyDelay(200);
 2345              		.loc 1 595 0
 2346 05ac 0120     		movs	r0, #1
 2347 05ae FFF7FEFF 		bl	SetPicture
 2348              	.LVL210:
 596:.\main.c      ****                     SetPicture(1,DISPLAY_INICIO0);
 2349              		.loc 1 596 0
 2350 05b2 C820     		movs	r0, #200
 2351 05b4 FFF7FEFF 		bl	CyDelay
 2352              	.LVL211:
 597:.\main.c      ****                 }
 2353              		.loc 1 597 0
 2354 05b8 0120     		movs	r0, #1
 2355 05ba 0146     		mov	r1, r0
 2356 05bc FFF7FEFF 		bl	SetPicture
 2357              	.LVL212:
 2358 05c0 02E0     		b	.L144
 2359              	.L142:
 600:.\main.c      **** //                if(count_protector>=60){
 2360              		.loc 1 600 0
 2361 05c2 0722     		movs	r2, #7
 2362 05c4 854B     		ldr	r3, .L282+8
 2363 05c6 1A60     		str	r2, [r3]
 2364              	.L144:
 607:.\main.c      ****                 if((Display1_rxBuffer[0]==0xAA) && (Display1_rxBuffer[6]==0xC3) && (Display1_rxBuff
 2365              		.loc 1 607 0
 2366 05c8 FFF7FEFF 		bl	Display1_GetRxBufferSize
 2367              	.LVL213:
 2368 05cc 0828     		cmp	r0, #8
 2369 05ce 1DD1     		bne	.L145
 608:.\main.c      ****                     switch(Display1_rxBuffer[3]){                        
 2370              		.loc 1 608 0
 2371 05d0 864B     		ldr	r3, .L282+24
 2372 05d2 1B78     		ldrb	r3, [r3]	@ zero_extendqisi2
 2373 05d4 DBB2     		uxtb	r3, r3
 2374 05d6 AA2B     		cmp	r3, #170
 2375 05d8 15D1     		bne	.L146
 608:.\main.c      ****                     switch(Display1_rxBuffer[3]){                        
 2376              		.loc 1 608 0 is_stmt 0 discriminator 1
 2377 05da 844B     		ldr	r3, .L282+24
 2378 05dc 9B79     		ldrb	r3, [r3, #6]	@ zero_extendqisi2
 2379 05de DBB2     		uxtb	r3, r3
 2380 05e0 C32B     		cmp	r3, #195
 2381 05e2 10D1     		bne	.L146
 608:.\main.c      ****                     switch(Display1_rxBuffer[3]){                        
 2382              		.loc 1 608 0 discriminator 2
 2383 05e4 814B     		ldr	r3, .L282+24
 2384 05e6 DB79     		ldrb	r3, [r3, #7]	@ zero_extendqisi2
 2385 05e8 DBB2     		uxtb	r3, r3
 2386 05ea 3C2B     		cmp	r3, #60
ARM GAS  C:\Users\RECEPC~1\AppData\Local\Temp\cc79eMMA.s 			page 74


 2387 05ec 0BD1     		bne	.L146
 609:.\main.c      ****                         case 0x7E:  //Pantalla Inicial                                             
 2388              		.loc 1 609 0 is_stmt 1
 2389 05ee 7F4B     		ldr	r3, .L282+24
 2390 05f0 DB78     		ldrb	r3, [r3, #3]	@ zero_extendqisi2
 2391 05f2 DBB2     		uxtb	r3, r3
 2392 05f4 7E2B     		cmp	r3, #126
 2393 05f6 06D1     		bne	.L146
 611:.\main.c      ****                             flowDisplay1 = 0;
 2394              		.loc 1 611 0
 2395 05f8 0120     		movs	r0, #1
 2396 05fa 0146     		mov	r1, r0
 2397 05fc FFF7FEFF 		bl	SetPicture
 2398              	.LVL214:
 612:.\main.c      ****                         break;
 2399              		.loc 1 612 0
 2400 0600 0022     		movs	r2, #0
 2401 0602 764B     		ldr	r3, .L282+8
 2402 0604 1A60     		str	r2, [r3]
 2403              	.L146:
 616:.\main.c      ****             }
 2404              		.loc 1 616 0
 2405 0606 0A20     		movs	r0, #10
 2406 0608 FFF7FEFF 		bl	CyDelay
 2407              	.LVL215:
 2408              	.L145:
 618:.\main.c      ****         break;
 2409              		.loc 1 618 0
 2410 060c FFF7FEFF 		bl	Display1_ClearRxBuffer
 2411              	.LVL216:
 619:.\main.c      ****             
 2412              		.loc 1 619 0
 2413 0610 00F07ABE 		b	.L83
 2414              	.L94:
 622:.\main.c      ****             switch (side.a.pumpState){
 2415              		.loc 1 622 0
 2416 0614 6F4C     		ldr	r4, .L282
 2417 0616 2078     		ldrb	r0, [r4]	@ zero_extendqisi2
 2418 0618 FFF7FEFF 		bl	get_state
 2419              	.LVL217:
 2420 061c 84F80401 		strb	r0, [r4, #260]
 623:.\main.c      ****                 case PUMP_IDLE://Espera - venta cero
 2421              		.loc 1 623 0
 2422 0620 0638     		subs	r0, r0, #6
 2423 0622 0528     		cmp	r0, #5
 2424 0624 00F27086 		bhi	.L83
 2425 0628 DFE810F0 		tbh	[pc, r0, lsl #1]
 2426              	.L149:
 2427 062c 0600     		.2byte	(.L148-.L149)/2
 2428 062e 6E06     		.2byte	(.L83-.L149)/2
 2429 0630 6E06     		.2byte	(.L83-.L149)/2
 2430 0632 1200     		.2byte	(.L150-.L149)/2
 2431 0634 1B00     		.2byte	(.L151-.L149)/2
 2432 0636 4800     		.2byte	(.L152-.L149)/2
 2433              		.p2align 1
 2434              	.L148:
 625:.\main.c      ****                     bufferDisplay1.flagActiveSale = false;
ARM GAS  C:\Users\RECEPC~1\AppData\Local\Temp\cc79eMMA.s 			page 75


 2435              		.loc 1 625 0
 2436 0638 0023     		movs	r3, #0
 2437 063a 684A     		ldr	r2, .L282+8
 2438 063c 1360     		str	r3, [r2]
 626:.\main.c      ****                     SetPicture(1,DISPLAY_INICIO0);
 2439              		.loc 1 626 0
 2440 063e 664A     		ldr	r2, .L282+4
 2441 0640 82F83531 		strb	r3, [r2, #309]
 627:.\main.c      ****                 break;
 2442              		.loc 1 627 0
 2443 0644 0120     		movs	r0, #1
 2444 0646 0146     		mov	r1, r0
 2445 0648 FFF7FEFF 		bl	SetPicture
 2446              	.LVL218:
 628:.\main.c      ****                 case PUMP_BUSY://Surtiendo                    
 2447              		.loc 1 628 0
 2448 064c 00F05CBE 		b	.L83
 2449              	.L150:
 630:.\main.c      ****                     bufferDisplay1.flagEndSale = false;
 2450              		.loc 1 630 0
 2451 0650 614B     		ldr	r3, .L282+4
 2452 0652 0122     		movs	r2, #1
 2453 0654 83F83521 		strb	r2, [r3, #309]
 631:.\main.c      ****                 break;
 2454              		.loc 1 631 0
 2455 0658 0022     		movs	r2, #0
 2456 065a 83F80321 		strb	r2, [r3, #259]
 632:.\main.c      ****                 case PUMP_PEOT: //reporte fin venta
 2457              		.loc 1 632 0
 2458 065e 00F053BE 		b	.L83
 2459              	.L151:
 634:.\main.c      ****                     if(getSale(side.a.dir)){
 2460              		.loc 1 634 0
 2461 0662 0122     		movs	r2, #1
 2462 0664 5F4B     		ldr	r3, .L282+16
 2463 0666 1A70     		strb	r2, [r3]
 635:.\main.c      ****                         if(bufferDisplay1.flagPrint ==1){
 2464              		.loc 1 635 0
 2465 0668 5A4B     		ldr	r3, .L282
 2466 066a 1878     		ldrb	r0, [r3]	@ zero_extendqisi2
 2467 066c FFF7FEFF 		bl	getSale
 2468              	.LVL219:
 2469 0670 0028     		cmp	r0, #0
 2470 0672 00F04986 		beq	.L83
 636:.\main.c      ****                             imprimir(printPortA,side.a.dir);
 2471              		.loc 1 636 0
 2472 0676 584B     		ldr	r3, .L282+4
 2473 0678 93F83431 		ldrb	r3, [r3, #308]	@ zero_extendqisi2
 2474 067c 012B     		cmp	r3, #1
 2475 067e 0DD1     		bne	.L153
 637:.\main.c      ****                             flowDisplay1 = 0;
 2476              		.loc 1 637 0
 2477 0680 5B4B     		ldr	r3, .L282+28
 2478 0682 1878     		ldrb	r0, [r3]	@ zero_extendqisi2
 2479 0684 534B     		ldr	r3, .L282
 2480 0686 1978     		ldrb	r1, [r3]	@ zero_extendqisi2
 2481 0688 FFF7FEFF 		bl	imprimir
ARM GAS  C:\Users\RECEPC~1\AppData\Local\Temp\cc79eMMA.s 			page 76


 2482              	.LVL220:
 638:.\main.c      ****                             SetPicture(1,DISPLAY_INICIO0); 
 2483              		.loc 1 638 0
 2484 068c 0022     		movs	r2, #0
 2485 068e 534B     		ldr	r3, .L282+8
 2486 0690 1A60     		str	r2, [r3]
 639:.\main.c      ****                         }else{
 2487              		.loc 1 639 0
 2488 0692 0120     		movs	r0, #1
 2489 0694 0146     		mov	r1, r0
 2490 0696 FFF7FEFF 		bl	SetPicture
 2491              	.LVL221:
 2492 069a 09E0     		b	.L154
 2493              	.L153:
 641:.\main.c      ****                             bufferDisplay1.flagEndSale = true;
 2494              		.loc 1 641 0
 2495 069c 0622     		movs	r2, #6
 2496 069e 4F4B     		ldr	r3, .L282+8
 2497 06a0 1A60     		str	r2, [r3]
 642:.\main.c      ****                             SetPicture(1,DISPLAY_DESEA_IMPRIMIR_RECIBO); 
 2498              		.loc 1 642 0
 2499 06a2 0120     		movs	r0, #1
 2500 06a4 4C4B     		ldr	r3, .L282+4
 2501 06a6 83F80301 		strb	r0, [r3, #259]
 643:.\main.c      ****                         }
 2502              		.loc 1 643 0
 2503 06aa 0B21     		movs	r1, #11
 2504 06ac FFF7FEFF 		bl	SetPicture
 2505              	.LVL222:
 2506              	.L154:
 645:.\main.c      ****                     }                                         
 2507              		.loc 1 645 0
 2508 06b0 0022     		movs	r2, #0
 2509 06b2 494B     		ldr	r3, .L282+4
 2510 06b4 83F83521 		strb	r2, [r3, #309]
 2511 06b8 00F026BE 		b	.L83
 2512              	.L152:
 649:.\main.c      ****                         if(bufferDisplay1.flagPrint ==1){
 2513              		.loc 1 649 0
 2514 06bc 454B     		ldr	r3, .L282
 2515 06be 1878     		ldrb	r0, [r3]	@ zero_extendqisi2
 2516 06c0 FFF7FEFF 		bl	getSale
 2517              	.LVL223:
 2518 06c4 0028     		cmp	r0, #0
 2519 06c6 00F01F86 		beq	.L83
 650:.\main.c      ****                             imprimir(printPortA,side.a.dir);
 2520              		.loc 1 650 0
 2521 06ca 434B     		ldr	r3, .L282+4
 2522 06cc 93F83431 		ldrb	r3, [r3, #308]	@ zero_extendqisi2
 2523 06d0 012B     		cmp	r3, #1
 2524 06d2 0DD1     		bne	.L155
 651:.\main.c      ****                             flowDisplay1 = 0;
 2525              		.loc 1 651 0
 2526 06d4 464B     		ldr	r3, .L282+28
 2527 06d6 1878     		ldrb	r0, [r3]	@ zero_extendqisi2
 2528 06d8 3E4B     		ldr	r3, .L282
 2529 06da 1978     		ldrb	r1, [r3]	@ zero_extendqisi2
ARM GAS  C:\Users\RECEPC~1\AppData\Local\Temp\cc79eMMA.s 			page 77


 2530 06dc FFF7FEFF 		bl	imprimir
 2531              	.LVL224:
 652:.\main.c      ****                             SetPicture(1,DISPLAY_INICIO0); 
 2532              		.loc 1 652 0
 2533 06e0 0022     		movs	r2, #0
 2534 06e2 3E4B     		ldr	r3, .L282+8
 2535 06e4 1A60     		str	r2, [r3]
 653:.\main.c      ****                         }else{
 2536              		.loc 1 653 0
 2537 06e6 0120     		movs	r0, #1
 2538 06e8 0146     		mov	r1, r0
 2539 06ea FFF7FEFF 		bl	SetPicture
 2540              	.LVL225:
 2541 06ee 09E0     		b	.L156
 2542              	.L155:
 655:.\main.c      ****                             bufferDisplay1.flagEndSale = true;
 2543              		.loc 1 655 0
 2544 06f0 0622     		movs	r2, #6
 2545 06f2 3A4B     		ldr	r3, .L282+8
 2546 06f4 1A60     		str	r2, [r3]
 656:.\main.c      ****                             SetPicture(1,DISPLAY_DESEA_IMPRIMIR_RECIBO); 
 2547              		.loc 1 656 0
 2548 06f6 0120     		movs	r0, #1
 2549 06f8 374B     		ldr	r3, .L282+4
 2550 06fa 83F80301 		strb	r0, [r3, #259]
 657:.\main.c      ****                         }
 2551              		.loc 1 657 0
 2552 06fe 0B21     		movs	r1, #11
 2553 0700 FFF7FEFF 		bl	SetPicture
 2554              	.LVL226:
 2555              	.L156:
 659:.\main.c      ****                     }
 2556              		.loc 1 659 0
 2557 0704 0022     		movs	r2, #0
 2558 0706 344B     		ldr	r3, .L282+4
 2559 0708 83F83521 		strb	r2, [r3, #309]
 2560 070c 00F0FCBD 		b	.L83
 2561              	.L95:
 668:.\main.c      ****                 case 0: //Cancelar
 2562              		.loc 1 668 0
 2563 0710 0120     		movs	r0, #1
 2564 0712 0A21     		movs	r1, #10
 2565 0714 0022     		movs	r2, #0
 2566 0716 FFF7FEFF 		bl	alphanumeric_keyboard
 2567              	.LVL227:
 2568 071a 18B1     		cbz	r0, .L157
 2569 071c 0128     		cmp	r0, #1
 2570 071e 45D0     		beq	.L158
 2571 0720 00F0F2BD 		b	.L83
 2572              	.L157:
 670:.\main.c      ****                         case 1://Placa
 2573              		.loc 1 670 0
 2574 0724 2C4B     		ldr	r3, .L282+4
 2575 0726 93F80031 		ldrb	r3, [r3, #256]	@ zero_extendqisi2
 2576 072a 013B     		subs	r3, r3, #1
 2577 072c 032B     		cmp	r3, #3
 2578 072e 39D8     		bhi	.L159
ARM GAS  C:\Users\RECEPC~1\AppData\Local\Temp\cc79eMMA.s 			page 78


 2579 0730 DFE803F0 		tbb	[pc, r3]
 2580              	.L161:
 2581 0734 0A       		.byte	(.L261-.L161)/2
 2582 0735 1D       		.byte	(.L262-.L161)/2
 2583 0736 29       		.byte	(.L263-.L161)/2
 2584 0737 35       		.byte	(.L264-.L161)/2
 2585              	.LVL228:
 2586              		.p2align 1
 2587              	.L165:
 673:.\main.c      ****                             }
 2588              		.loc 1 673 0 discriminator 3
 2589 0738 274A     		ldr	r2, .L282+4
 2590 073a 1A44     		add	r2, r2, r3
 2591 073c 0021     		movs	r1, #0
 2592 073e 82F8DF10 		strb	r1, [r2, #223]
 672:.\main.c      ****                                 bufferDisplay1.licenceSale[x]=0;
 2593              		.loc 1 672 0 discriminator 3
 2594 0742 0133     		adds	r3, r3, #1
 2595              	.LVL229:
 2596 0744 DBB2     		uxtb	r3, r3
 2597              	.LVL230:
 2598 0746 00E0     		b	.L160
 2599              	.LVL231:
 2600              	.L261:
 670:.\main.c      ****                         case 1://Placa
 2601              		.loc 1 670 0
 2602 0748 0023     		movs	r3, #0
 2603              	.L160:
 2604              	.LVL232:
 672:.\main.c      ****                                 bufferDisplay1.licenceSale[x]=0;
 2605              		.loc 1 672 0 discriminator 1
 2606 074a 0A2B     		cmp	r3, #10
 2607 074c F4D9     		bls	.L165
 675:.\main.c      ****                             SetPicture(1,DISPLAY_INICIO0);
 2608              		.loc 1 675 0
 2609 074e 0022     		movs	r2, #0
 2610 0750 224B     		ldr	r3, .L282+8
 2611              	.LVL233:
 2612 0752 1A60     		str	r2, [r3]
 676:.\main.c      ****                         break;
 2613              		.loc 1 676 0
 2614 0754 0120     		movs	r0, #1
 2615 0756 0146     		mov	r1, r0
 2616 0758 FFF7FEFF 		bl	SetPicture
 2617              	.LVL234:
 677:.\main.c      ****                         
 2618              		.loc 1 677 0
 2619 075c 22E0     		b	.L159
 2620              	.LVL235:
 2621              	.L166:
 681:.\main.c      ****                             }
 2622              		.loc 1 681 0 discriminator 3
 2623 075e 1E4A     		ldr	r2, .L282+4
 2624 0760 1A44     		add	r2, r2, r3
 2625 0762 0021     		movs	r1, #0
 2626 0764 82F8EA10 		strb	r1, [r2, #234]
 680:.\main.c      ****                                 bufferDisplay1.mileageSale[x]=0;
ARM GAS  C:\Users\RECEPC~1\AppData\Local\Temp\cc79eMMA.s 			page 79


 2627              		.loc 1 680 0 discriminator 3
 2628 0768 0133     		adds	r3, r3, #1
 2629              	.LVL236:
 2630 076a DBB2     		uxtb	r3, r3
 2631              	.LVL237:
 2632 076c 00E0     		b	.L162
 2633              	.LVL238:
 2634              	.L262:
 670:.\main.c      ****                         case 1://Placa
 2635              		.loc 1 670 0
 2636 076e 0023     		movs	r3, #0
 2637              	.L162:
 2638              	.LVL239:
 680:.\main.c      ****                                 bufferDisplay1.mileageSale[x]=0;
 2639              		.loc 1 680 0 discriminator 1
 2640 0770 0A2B     		cmp	r3, #10
 2641 0772 F4D9     		bls	.L166
 2642 0774 16E0     		b	.L159
 2643              	.L167:
 687:.\main.c      ****                             }
 2644              		.loc 1 687 0 discriminator 3
 2645 0776 184A     		ldr	r2, .L282+4
 2646 0778 1A44     		add	r2, r2, r3
 2647 077a 0021     		movs	r1, #0
 2648 077c 82F8F510 		strb	r1, [r2, #245]
 686:.\main.c      ****                                 bufferDisplay1.identySale[x]=0;
 2649              		.loc 1 686 0 discriminator 3
 2650 0780 0133     		adds	r3, r3, #1
 2651              	.LVL240:
 2652 0782 DBB2     		uxtb	r3, r3
 2653              	.LVL241:
 2654 0784 00E0     		b	.L163
 2655              	.LVL242:
 2656              	.L263:
 670:.\main.c      ****                         case 1://Placa
 2657              		.loc 1 670 0
 2658 0786 0023     		movs	r3, #0
 2659              	.L163:
 2660              	.LVL243:
 686:.\main.c      ****                                 bufferDisplay1.identySale[x]=0;
 2661              		.loc 1 686 0 discriminator 1
 2662 0788 0A2B     		cmp	r3, #10
 2663 078a F4D9     		bls	.L167
 2664 078c 0AE0     		b	.L159
 2665              	.L168:
 692:.\main.c      ****                             }
 2666              		.loc 1 692 0 discriminator 3
 2667 078e 124A     		ldr	r2, .L282+4
 2668 0790 1A44     		add	r2, r2, r3
 2669 0792 0021     		movs	r1, #0
 2670 0794 82F83611 		strb	r1, [r2, #310]
 691:.\main.c      ****                                 bufferDisplay1.shiftId[x]=0;
 2671              		.loc 1 691 0 discriminator 3
 2672 0798 0133     		adds	r3, r3, #1
 2673              	.LVL244:
 2674 079a DBB2     		uxtb	r3, r3
 2675              	.LVL245:
ARM GAS  C:\Users\RECEPC~1\AppData\Local\Temp\cc79eMMA.s 			page 80


 2676 079c 00E0     		b	.L164
 2677              	.LVL246:
 2678              	.L264:
 670:.\main.c      ****                         case 1://Placa
 2679              		.loc 1 670 0
 2680 079e 0023     		movs	r3, #0
 2681              	.L164:
 2682              	.LVL247:
 691:.\main.c      ****                                 bufferDisplay1.shiftId[x]=0;
 2683              		.loc 1 691 0 discriminator 1
 2684 07a0 0A2B     		cmp	r3, #10
 2685 07a2 F4D9     		bls	.L168
 2686              	.LVL248:
 2687              	.L159:
 696:.\main.c      ****                 break;
 2688              		.loc 1 696 0
 2689 07a4 FFF7FEFF 		bl	Display1_ClearRxBuffer
 2690              	.LVL249:
 697:.\main.c      ****                     
 2691              		.loc 1 697 0
 2692 07a8 00F0AEBD 		b	.L83
 2693              	.L158:
 700:.\main.c      ****                         case 1://Placa
 2694              		.loc 1 700 0
 2695 07ac 0A4B     		ldr	r3, .L282+4
 2696 07ae 93F80031 		ldrb	r3, [r3, #256]	@ zero_extendqisi2
 2697 07b2 013B     		subs	r3, r3, #1
 2698 07b4 032B     		cmp	r3, #3
 2699 07b6 00F28080 		bhi	.L169
 2700 07ba DFE803F0 		tbb	[pc, r3]
 2701              	.L171:
 2702 07be 1B       		.byte	(.L265-.L171)/2
 2703 07bf 43       		.byte	(.L266-.L171)/2
 2704 07c0 59       		.byte	(.L267-.L171)/2
 2705 07c1 5F       		.byte	(.L174-.L171)/2
 2706              	.LVL250:
 2707              		.p2align 1
 2708              	.L175:
 703:.\main.c      ****                             }
 2709              		.loc 1 703 0 discriminator 3
 2710 07c2 054A     		ldr	r2, .L282+4
 2711 07c4 1A44     		add	r2, r2, r3
 2712 07c6 92F84B10 		ldrb	r1, [r2, #75]	@ zero_extendqisi2
 2713 07ca 82F8DF10 		strb	r1, [r2, #223]
 702:.\main.c      ****                                 bufferDisplay1.licenceSale[x]=bufferDisplay1.valueKeys[x];
 2714              		.loc 1 702 0 discriminator 3
 2715 07ce 0133     		adds	r3, r3, #1
 2716              	.LVL251:
 2717 07d0 DBB2     		uxtb	r3, r3
 2718              	.LVL252:
 2719 07d2 10E0     		b	.L170
 2720              	.L283:
 2721              		.align	2
 2722              	.L282:
 2723 07d4 00000000 		.word	side
 2724 07d8 00000000 		.word	bufferDisplay1
 2725 07dc 00000000 		.word	flowDisplay1
ARM GAS  C:\Users\RECEPC~1\AppData\Local\Temp\cc79eMMA.s 			page 81


 2726 07e0 00000000 		.word	count_protector
 2727 07e4 00000000 		.word	RFstateReport
 2728 07e8 65000000 		.word	bufferDisplay1+101
 2729 07ec 00000000 		.word	Display1_rxBuffer
 2730 07f0 00000000 		.word	printPortA
 2731              	.LVL253:
 2732              	.L265:
 700:.\main.c      ****                         case 1://Placa
 2733              		.loc 1 700 0
 2734 07f4 0023     		movs	r3, #0
 2735              	.L170:
 2736              	.LVL254:
 702:.\main.c      ****                                 bufferDisplay1.licenceSale[x]=bufferDisplay1.valueKeys[x];
 2737              		.loc 1 702 0 discriminator 1
 2738 07f6 AD4A     		ldr	r2, .L284
 2739 07f8 92F84B20 		ldrb	r2, [r2, #75]	@ zero_extendqisi2
 2740 07fc 9A42     		cmp	r2, r3
 2741 07fe E0D2     		bcs	.L175
 705:.\main.c      ****                                 imprimir(printPortA,side.a.dir);
 2742              		.loc 1 705 0
 2743 0800 AA4B     		ldr	r3, .L284
 2744              	.LVL255:
 2745 0802 93F80331 		ldrb	r3, [r3, #259]	@ zero_extendqisi2
 2746 0806 6BB1     		cbz	r3, .L176
 706:.\main.c      ****                                 flowDisplay1 = 0;
 2747              		.loc 1 706 0
 2748 0808 A94B     		ldr	r3, .L284+4
 2749 080a 1878     		ldrb	r0, [r3]	@ zero_extendqisi2
 2750 080c A94B     		ldr	r3, .L284+8
 2751 080e 1978     		ldrb	r1, [r3]	@ zero_extendqisi2
 2752 0810 FFF7FEFF 		bl	imprimir
 2753              	.LVL256:
 707:.\main.c      ****                                 SetPicture(1,DISPLAY_INICIO0); 
 2754              		.loc 1 707 0
 2755 0814 0022     		movs	r2, #0
 2756 0816 A84B     		ldr	r3, .L284+12
 2757 0818 1A60     		str	r2, [r3]
 708:.\main.c      ****                             }else{
 2758              		.loc 1 708 0
 2759 081a 0120     		movs	r0, #1
 2760 081c 0146     		mov	r1, r0
 2761 081e FFF7FEFF 		bl	SetPicture
 2762              	.LVL257:
 2763 0822 4AE0     		b	.L169
 2764              	.L176:
 710:.\main.c      ****                                 SetPicture(1,DISPLAY_SUBA_MANIJA);
 2765              		.loc 1 710 0
 2766 0824 0721     		movs	r1, #7
 2767 0826 A44B     		ldr	r3, .L284+12
 2768 0828 1960     		str	r1, [r3]
 711:.\main.c      ****                             }
 2769              		.loc 1 711 0
 2770 082a 0120     		movs	r0, #1
 2771 082c FFF7FEFF 		bl	SetPicture
 2772              	.LVL258:
 2773 0830 43E0     		b	.L169
 2774              	.LVL259:
ARM GAS  C:\Users\RECEPC~1\AppData\Local\Temp\cc79eMMA.s 			page 82


 2775              	.L177:
 717:.\main.c      ****                             }
 2776              		.loc 1 717 0 discriminator 3
 2777 0832 9E4A     		ldr	r2, .L284
 2778 0834 1A44     		add	r2, r2, r3
 2779 0836 92F84B10 		ldrb	r1, [r2, #75]	@ zero_extendqisi2
 2780 083a 82F8EA10 		strb	r1, [r2, #234]
 716:.\main.c      ****                                 bufferDisplay1.mileageSale[x]=bufferDisplay1.valueKeys[x];
 2781              		.loc 1 716 0 discriminator 3
 2782 083e 0133     		adds	r3, r3, #1
 2783              	.LVL260:
 2784 0840 DBB2     		uxtb	r3, r3
 2785              	.LVL261:
 2786 0842 00E0     		b	.L172
 2787              	.LVL262:
 2788              	.L266:
 700:.\main.c      ****                         case 1://Placa
 2789              		.loc 1 700 0
 2790 0844 0023     		movs	r3, #0
 2791              	.L172:
 2792              	.LVL263:
 716:.\main.c      ****                                 bufferDisplay1.mileageSale[x]=bufferDisplay1.valueKeys[x];
 2793              		.loc 1 716 0 discriminator 1
 2794 0846 994A     		ldr	r2, .L284
 2795 0848 92F84B20 		ldrb	r2, [r2, #75]	@ zero_extendqisi2
 2796 084c 9A42     		cmp	r2, r3
 2797 084e F0D2     		bcs	.L177
 719:.\main.c      ****                             SetPicture(1,DISPLAY_SUBA_MANIJA);
 2798              		.loc 1 719 0
 2799 0850 0721     		movs	r1, #7
 2800 0852 994B     		ldr	r3, .L284+12
 2801              	.LVL264:
 2802 0854 1960     		str	r1, [r3]
 720:.\main.c      ****                         break;
 2803              		.loc 1 720 0
 2804 0856 0120     		movs	r0, #1
 2805 0858 FFF7FEFF 		bl	SetPicture
 2806              	.LVL265:
 721:.\main.c      ****                         
 2807              		.loc 1 721 0
 2808 085c 2DE0     		b	.L169
 2809              	.LVL266:
 2810              	.L178:
 725:.\main.c      ****                             }
 2811              		.loc 1 725 0 discriminator 3
 2812 085e 934A     		ldr	r2, .L284
 2813 0860 1A44     		add	r2, r2, r3
 2814 0862 92F84B10 		ldrb	r1, [r2, #75]	@ zero_extendqisi2
 2815 0866 82F8F510 		strb	r1, [r2, #245]
 724:.\main.c      ****                                 bufferDisplay1.identySale[x]=bufferDisplay1.valueKeys[x];
 2816              		.loc 1 724 0 discriminator 3
 2817 086a 0133     		adds	r3, r3, #1
 2818              	.LVL267:
 2819 086c DBB2     		uxtb	r3, r3
 2820              	.LVL268:
 2821 086e 00E0     		b	.L173
 2822              	.LVL269:
ARM GAS  C:\Users\RECEPC~1\AppData\Local\Temp\cc79eMMA.s 			page 83


 2823              	.L267:
 700:.\main.c      ****                         case 1://Placa
 2824              		.loc 1 700 0
 2825 0870 0023     		movs	r3, #0
 2826              	.L173:
 2827              	.LVL270:
 724:.\main.c      ****                                 bufferDisplay1.identySale[x]=bufferDisplay1.valueKeys[x];
 2828              		.loc 1 724 0 discriminator 1
 2829 0872 8E4A     		ldr	r2, .L284
 2830 0874 92F84B20 		ldrb	r2, [r2, #75]	@ zero_extendqisi2
 2831 0878 9A42     		cmp	r2, r3
 2832 087a F0D2     		bcs	.L178
 2833              	.LVL271:
 2834              	.L174:
 700:.\main.c      ****                         case 1://Placa
 2835              		.loc 1 700 0 discriminator 1
 2836 087c 0023     		movs	r3, #0
 2837 087e 07E0     		b	.L179
 2838              	.LVL272:
 2839              	.L180:
 729:.\main.c      ****                             }
 2840              		.loc 1 729 0 discriminator 3
 2841 0880 8A4A     		ldr	r2, .L284
 2842 0882 1A44     		add	r2, r2, r3
 2843 0884 92F84B10 		ldrb	r1, [r2, #75]	@ zero_extendqisi2
 2844 0888 82F83611 		strb	r1, [r2, #310]
 728:.\main.c      ****                                 bufferDisplay1.shiftId[x] =bufferDisplay1.valueKeys[x];
 2845              		.loc 1 728 0 discriminator 3
 2846 088c 0133     		adds	r3, r3, #1
 2847              	.LVL273:
 2848 088e DBB2     		uxtb	r3, r3
 2849              	.LVL274:
 2850              	.L179:
 728:.\main.c      ****                                 bufferDisplay1.shiftId[x] =bufferDisplay1.valueKeys[x];
 2851              		.loc 1 728 0 is_stmt 0 discriminator 1
 2852 0890 0A2B     		cmp	r3, #10
 2853 0892 F5D9     		bls	.L180
 731:.\main.c      ****                             numberKeys1 = 0;
 2854              		.loc 1 731 0 is_stmt 1
 2855 0894 0E22     		movs	r2, #14
 2856 0896 884B     		ldr	r3, .L284+12
 2857              	.LVL275:
 2858 0898 1A60     		str	r2, [r3]
 732:.\main.c      ****                             hiddenKeys = 5;
 2859              		.loc 1 732 0
 2860 089a 0022     		movs	r2, #0
 2861 089c 874B     		ldr	r3, .L284+16
 2862 089e 1A70     		strb	r2, [r3]
 733:.\main.c      ****                             controlChar ='*';
 2863              		.loc 1 733 0
 2864 08a0 0523     		movs	r3, #5
 2865 08a2 874A     		ldr	r2, .L284+20
 2866 08a4 1370     		strb	r3, [r2]
 734:.\main.c      ****                             bufferDisplay1.flagKeyboard = 5;
 2867              		.loc 1 734 0
 2868 08a6 2A21     		movs	r1, #42
 2869 08a8 864A     		ldr	r2, .L284+24
ARM GAS  C:\Users\RECEPC~1\AppData\Local\Temp\cc79eMMA.s 			page 84


 2870 08aa 1170     		strb	r1, [r2]
 735:.\main.c      ****                             SetPicture(1,DISPLAY_INGRESE_PASSWORD);
 2871              		.loc 1 735 0
 2872 08ac 7F4A     		ldr	r2, .L284
 2873 08ae 82F80031 		strb	r3, [r2, #256]
 736:.\main.c      ****                         break;
 2874              		.loc 1 736 0
 2875 08b2 0120     		movs	r0, #1
 2876 08b4 2521     		movs	r1, #37
 2877 08b6 FFF7FEFF 		bl	SetPicture
 2878              	.LVL276:
 2879              	.L169:
 739:.\main.c      ****                 break;
 2880              		.loc 1 739 0
 2881 08ba FFF7FEFF 		bl	Display1_ClearRxBuffer
 2882              	.LVL277:
 740:.\main.c      ****             }            
 2883              		.loc 1 740 0
 2884 08be 00F023BD 		b	.L83
 2885              	.L96:
 745:.\main.c      ****                 if((Display1_rxBuffer[0]==0xAA) && (Display1_rxBuffer[6]==0xC3) && (Display1_rxBuff
 2886              		.loc 1 745 0
 2887 08c2 FFF7FEFF 		bl	Display1_GetRxBufferSize
 2888              	.LVL278:
 2889 08c6 0828     		cmp	r0, #8
 2890 08c8 40F01E85 		bne	.L83
 746:.\main.c      ****                     switch(Display1_rxBuffer[3]){
 2891              		.loc 1 746 0
 2892 08cc 7E4B     		ldr	r3, .L284+28
 2893 08ce 1B78     		ldrb	r3, [r3]	@ zero_extendqisi2
 2894 08d0 DBB2     		uxtb	r3, r3
 2895 08d2 AA2B     		cmp	r3, #170
 2896 08d4 35D1     		bne	.L181
 746:.\main.c      ****                     switch(Display1_rxBuffer[3]){
 2897              		.loc 1 746 0 is_stmt 0 discriminator 1
 2898 08d6 7C4B     		ldr	r3, .L284+28
 2899 08d8 9B79     		ldrb	r3, [r3, #6]	@ zero_extendqisi2
 2900 08da DBB2     		uxtb	r3, r3
 2901 08dc C32B     		cmp	r3, #195
 2902 08de 30D1     		bne	.L181
 746:.\main.c      ****                     switch(Display1_rxBuffer[3]){
 2903              		.loc 1 746 0 discriminator 2
 2904 08e0 794B     		ldr	r3, .L284+28
 2905 08e2 DB79     		ldrb	r3, [r3, #7]	@ zero_extendqisi2
 2906 08e4 DBB2     		uxtb	r3, r3
 2907 08e6 3C2B     		cmp	r3, #60
 2908 08e8 2BD1     		bne	.L181
 747:.\main.c      ****                         case 0xB6:  //Solicitud ibutton  
 2909              		.loc 1 747 0 is_stmt 1
 2910 08ea 774B     		ldr	r3, .L284+28
 2911 08ec DB78     		ldrb	r3, [r3, #3]	@ zero_extendqisi2
 2912 08ee DBB2     		uxtb	r3, r3
 2913 08f0 B62B     		cmp	r3, #182
 2914 08f2 04D0     		beq	.L182
 2915 08f4 B72B     		cmp	r3, #183
 2916 08f6 10D0     		beq	.L183
 2917 08f8 7E2B     		cmp	r3, #126
ARM GAS  C:\Users\RECEPC~1\AppData\Local\Temp\cc79eMMA.s 			page 85


 2918 08fa 22D1     		bne	.L181
 2919 08fc 1AE0     		b	.L184
 2920              	.L182:
 749:.\main.c      ****                             numberKeys1 = 0;                            
 2921              		.loc 1 749 0
 2922 08fe 0B22     		movs	r2, #11
 2923 0900 6D4B     		ldr	r3, .L284+12
 2924 0902 1A60     		str	r2, [r3]
 750:.\main.c      ****                             bufferDisplay1.flagPrint =  1;
 2925              		.loc 1 750 0
 2926 0904 0022     		movs	r2, #0
 2927 0906 6D4B     		ldr	r3, .L284+16
 2928 0908 1A70     		strb	r2, [r3]
 751:.\main.c      ****                             SetPicture(1,DISPLAY_ESPERANDO_ID);                            
 2929              		.loc 1 751 0
 2930 090a 0120     		movs	r0, #1
 2931 090c 674B     		ldr	r3, .L284
 2932 090e 83F83401 		strb	r0, [r3, #308]
 752:.\main.c      ****                         break; 
 2933              		.loc 1 752 0
 2934 0912 1221     		movs	r1, #18
 2935 0914 FFF7FEFF 		bl	SetPicture
 2936              	.LVL279:
 753:.\main.c      ****                         case 0xB7:  //ID por número
 2937              		.loc 1 753 0
 2938 0918 13E0     		b	.L181
 2939              	.L183:
 755:.\main.c      ****                             flowDisplay1 = 7;//Esperando estado del dispensador  
 2940              		.loc 1 755 0
 2941 091a 0023     		movs	r3, #0
 2942 091c 634A     		ldr	r2, .L284
 2943 091e 82F80031 		strb	r3, [r2, #256]
 756:.\main.c      ****                             count_protector=0;
 2944              		.loc 1 756 0
 2945 0922 0721     		movs	r1, #7
 2946 0924 644A     		ldr	r2, .L284+12
 2947 0926 1160     		str	r1, [r2]
 757:.\main.c      ****                             SetPicture(1,DISPLAY_SUBA_MANIJA);                            
 2948              		.loc 1 757 0
 2949 0928 684A     		ldr	r2, .L284+32
 2950 092a 1370     		strb	r3, [r2]
 758:.\main.c      ****                         break;
 2951              		.loc 1 758 0
 2952 092c 0120     		movs	r0, #1
 2953 092e FFF7FEFF 		bl	SetPicture
 2954              	.LVL280:
 759:.\main.c      ****                         case 0x7E:  //Pantalla Inicial                                             
 2955              		.loc 1 759 0
 2956 0932 06E0     		b	.L181
 2957              	.L184:
 761:.\main.c      ****                             flowDisplay1 = 0;
 2958              		.loc 1 761 0
 2959 0934 0120     		movs	r0, #1
 2960 0936 0146     		mov	r1, r0
 2961 0938 FFF7FEFF 		bl	SetPicture
 2962              	.LVL281:
 762:.\main.c      ****                         break;
ARM GAS  C:\Users\RECEPC~1\AppData\Local\Temp\cc79eMMA.s 			page 86


 2963              		.loc 1 762 0
 2964 093c 0022     		movs	r2, #0
 2965 093e 5E4B     		ldr	r3, .L284+12
 2966 0940 1A60     		str	r2, [r3]
 2967              	.L181:
 766:.\main.c      ****                 Display1_ClearRxBuffer();
 2968              		.loc 1 766 0
 2969 0942 0A20     		movs	r0, #10
 2970 0944 FFF7FEFF 		bl	CyDelay
 2971              	.LVL282:
 767:.\main.c      ****             }                        
 2972              		.loc 1 767 0
 2973 0948 FFF7FEFF 		bl	Display1_ClearRxBuffer
 2974              	.LVL283:
 2975 094c 00F0DCBC 		b	.L83
 2976              	.L97:
 772:.\main.c      ****             Timer_Animacion_Start();
 2977              		.loc 1 772 0
 2978 0950 5F48     		ldr	r0, .L284+36
 2979 0952 FFF7FEFF 		bl	isr_3_StartEx
 2980              	.LVL284:
 773:.\main.c      ****             if(touch_present(1)==1){
 2981              		.loc 1 773 0
 2982 0956 FFF7FEFF 		bl	Timer_Animacion_Start
 2983              	.LVL285:
 774:.\main.c      **** 				if(touch_write(1,0x33)){
 2984              		.loc 1 774 0
 2985 095a 0120     		movs	r0, #1
 2986 095c FFF7FEFF 		bl	touch_present
 2987              	.LVL286:
 2988 0960 0128     		cmp	r0, #1
 2989 0962 6CD1     		bne	.L185
 775:.\main.c      **** 					for(x=1;x<=8;x++){
 2990              		.loc 1 775 0
 2991 0964 3321     		movs	r1, #51
 2992 0966 FFF7FEFF 		bl	touch_write
 2993              	.LVL287:
 2994 096a 40B9     		cbnz	r0, .L268
 2995 096c 67E0     		b	.L185
 2996              	.LVL288:
 2997              	.L187:
 777:.\main.c      **** 					}
 2998              		.loc 1 777 0 discriminator 3
 2999 096e 0120     		movs	r0, #1
 3000 0970 FFF7FEFF 		bl	touch_read_byte
 3001              	.LVL289:
 3002 0974 574B     		ldr	r3, .L284+40
 3003 0976 1855     		strb	r0, [r3, r4]
 776:.\main.c      **** 						temporal[x]=touch_read_byte(1);
 3004              		.loc 1 776 0 discriminator 3
 3005 0978 0134     		adds	r4, r4, #1
 3006              	.LVL290:
 3007 097a E4B2     		uxtb	r4, r4
 3008              	.LVL291:
 3009 097c 00E0     		b	.L186
 3010              	.LVL292:
 3011              	.L268:
ARM GAS  C:\Users\RECEPC~1\AppData\Local\Temp\cc79eMMA.s 			page 87


 3012 097e 0124     		movs	r4, #1
 3013              	.L186:
 3014              	.LVL293:
 776:.\main.c      **** 						temporal[x]=touch_read_byte(1);
 3015              		.loc 1 776 0 is_stmt 0 discriminator 1
 3016 0980 082C     		cmp	r4, #8
 3017 0982 F4D9     		bls	.L187
 3018 0984 0020     		movs	r0, #0
 3019 0986 0124     		movs	r4, #1
 3020              	.LVL294:
 3021 0988 05E0     		b	.L188
 3022              	.LVL295:
 3023              	.L189:
 781:.\main.c      ****                     }
 3024              		.loc 1 781 0 is_stmt 1 discriminator 3
 3025 098a 524B     		ldr	r3, .L284+40
 3026 098c 195D     		ldrb	r1, [r3, r4]	@ zero_extendqisi2
 3027 098e FFF7FEFF 		bl	crc_check
 3028              	.LVL296:
 780:.\main.c      ****                         y=crc_check(y,temporal[x]);
 3029              		.loc 1 780 0 discriminator 3
 3030 0992 0134     		adds	r4, r4, #1
 3031              	.LVL297:
 3032 0994 E4B2     		uxtb	r4, r4
 3033              	.LVL298:
 3034              	.L188:
 780:.\main.c      ****                         y=crc_check(y,temporal[x]);
 3035              		.loc 1 780 0 is_stmt 0 discriminator 1
 3036 0996 072C     		cmp	r4, #7
 3037 0998 F7D9     		bls	.L189
 783:.\main.c      **** 						bufferDisplay1.idSerial[0]=16;
 3038              		.loc 1 783 0 is_stmt 1
 3039 099a 4E4B     		ldr	r3, .L284+40
 3040 099c 1B7A     		ldrb	r3, [r3, #8]	@ zero_extendqisi2
 3041 099e DBB2     		uxtb	r3, r3
 3042 09a0 8342     		cmp	r3, r0
 3043 09a2 4CD1     		bne	.L185
 784:.\main.c      **** 						y=16;
 3044              		.loc 1 784 0
 3045 09a4 1023     		movs	r3, #16
 3046 09a6 414A     		ldr	r2, .L284
 3047 09a8 5370     		strb	r3, [r2, #1]
 3048              	.LVL299:
 786:.\main.c      **** 							if((temporal[x]&0x0F)>=10){
 3049              		.loc 1 786 0
 3050 09aa 0122     		movs	r2, #1
 3051 09ac 30E0     		b	.L190
 3052              	.LVL300:
 3053              	.L195:
 787:.\main.c      **** 								bufferDisplay1.idSerial[y]=(temporal[x]&0x0F)+55;
 3054              		.loc 1 787 0
 3055 09ae 1046     		mov	r0, r2
 3056 09b0 4849     		ldr	r1, .L284+40
 3057 09b2 895C     		ldrb	r1, [r1, r2]	@ zero_extendqisi2
 3058 09b4 01F00F01 		and	r1, r1, #15
 3059 09b8 0929     		cmp	r1, #9
 3060 09ba 08DD     		ble	.L191
ARM GAS  C:\Users\RECEPC~1\AppData\Local\Temp\cc79eMMA.s 			page 88


 788:.\main.c      **** 							}else{
 3061              		.loc 1 788 0
 3062 09bc 4549     		ldr	r1, .L284+40
 3063 09be 895C     		ldrb	r1, [r1, r2]	@ zero_extendqisi2
 3064 09c0 3A4C     		ldr	r4, .L284
 3065 09c2 1C44     		add	r4, r4, r3
 3066 09c4 01F00F01 		and	r1, r1, #15
 3067 09c8 3731     		adds	r1, r1, #55
 3068 09ca 6170     		strb	r1, [r4, #1]
 3069 09cc 07E0     		b	.L192
 3070              	.L191:
 790:.\main.c      **** 							}
 3071              		.loc 1 790 0
 3072 09ce 4149     		ldr	r1, .L284+40
 3073 09d0 895C     		ldrb	r1, [r1, r2]	@ zero_extendqisi2
 3074 09d2 364C     		ldr	r4, .L284
 3075 09d4 1C44     		add	r4, r4, r3
 3076 09d6 01F00F01 		and	r1, r1, #15
 3077 09da 3031     		adds	r1, r1, #48
 3078 09dc 6170     		strb	r1, [r4, #1]
 3079              	.L192:
 792:.\main.c      **** 							if(((temporal[x]>>4)&0x0F)>=10){
 3080              		.loc 1 792 0
 3081 09de 013B     		subs	r3, r3, #1
 3082              	.LVL301:
 3083 09e0 DBB2     		uxtb	r3, r3
 3084              	.LVL302:
 793:.\main.c      **** 								bufferDisplay1.idSerial[y]=((temporal[x]>>4)&0x0F)+55;
 3085              		.loc 1 793 0
 3086 09e2 3C49     		ldr	r1, .L284+40
 3087 09e4 095C     		ldrb	r1, [r1, r0]	@ zero_extendqisi2
 3088 09e6 9F29     		cmp	r1, #159
 3089 09e8 07D9     		bls	.L193
 794:.\main.c      **** 							}else{
 3090              		.loc 1 794 0
 3091 09ea 3A49     		ldr	r1, .L284+40
 3092 09ec 095C     		ldrb	r1, [r1, r0]	@ zero_extendqisi2
 3093 09ee 2F48     		ldr	r0, .L284
 3094 09f0 1844     		add	r0, r0, r3
 3095 09f2 0909     		lsrs	r1, r1, #4
 3096 09f4 3731     		adds	r1, r1, #55
 3097 09f6 4170     		strb	r1, [r0, #1]
 3098 09f8 06E0     		b	.L194
 3099              	.L193:
 796:.\main.c      **** 							}
 3100              		.loc 1 796 0
 3101 09fa 3649     		ldr	r1, .L284+40
 3102 09fc 095C     		ldrb	r1, [r1, r0]	@ zero_extendqisi2
 3103 09fe 2B48     		ldr	r0, .L284
 3104 0a00 1844     		add	r0, r0, r3
 3105 0a02 0909     		lsrs	r1, r1, #4
 3106 0a04 3031     		adds	r1, r1, #48
 3107 0a06 4170     		strb	r1, [r0, #1]
 3108              	.L194:
 798:.\main.c      **** 						}                        
 3109              		.loc 1 798 0 discriminator 2
 3110 0a08 013B     		subs	r3, r3, #1
ARM GAS  C:\Users\RECEPC~1\AppData\Local\Temp\cc79eMMA.s 			page 89


 3111              	.LVL303:
 3112 0a0a DBB2     		uxtb	r3, r3
 3113              	.LVL304:
 786:.\main.c      **** 							if((temporal[x]&0x0F)>=10){
 3114              		.loc 1 786 0 discriminator 2
 3115 0a0c 0132     		adds	r2, r2, #1
 3116              	.LVL305:
 3117 0a0e D2B2     		uxtb	r2, r2
 3118              	.LVL306:
 3119              	.L190:
 786:.\main.c      **** 							if((temporal[x]&0x0F)>=10){
 3120              		.loc 1 786 0 is_stmt 0 discriminator 1
 3121 0a10 082A     		cmp	r2, #8
 3122 0a12 CCD9     		bls	.L195
 800:.\main.c      ****                         Display1_ClearRxBuffer();
 3123              		.loc 1 800 0 is_stmt 1
 3124 0a14 0120     		movs	r0, #1
 3125 0a16 1321     		movs	r1, #19
 3126 0a18 FFF7FEFF 		bl	SetPicture
 3127              	.LVL307:
 801:.\main.c      ****                         CyDelay(700);
 3128              		.loc 1 801 0
 3129 0a1c FFF7FEFF 		bl	Display1_ClearRxBuffer
 3130              	.LVL308:
 802:.\main.c      ****                         bufferDisplay1.flagKeyboard = 2;
 3131              		.loc 1 802 0
 3132 0a20 4FF42F70 		mov	r0, #700
 3133 0a24 FFF7FEFF 		bl	CyDelay
 3134              	.LVL309:
 803:.\main.c      ****                         flowDisplay1 = 9;
 3135              		.loc 1 803 0
 3136 0a28 0222     		movs	r2, #2
 3137 0a2a 204B     		ldr	r3, .L284
 3138 0a2c 83F80021 		strb	r2, [r3, #256]
 804:.\main.c      ****                         SetPicture(1,DISPLAY_INTRODUZCA_KILOMETRAJE);
 3139              		.loc 1 804 0
 3140 0a30 0922     		movs	r2, #9
 3141 0a32 214B     		ldr	r3, .L284+12
 3142 0a34 1A60     		str	r2, [r3]
 805:.\main.c      ****                         
 3143              		.loc 1 805 0
 3144 0a36 0120     		movs	r0, #1
 3145 0a38 0E21     		movs	r1, #14
 3146 0a3a FFF7FEFF 		bl	SetPicture
 3147              	.LVL310:
 3148              	.L185:
 810:.\main.c      ****                 flowDisplay1 = 0;	
 3149              		.loc 1 810 0
 3150 0a3e 234B     		ldr	r3, .L284+32
 3151 0a40 1B78     		ldrb	r3, [r3]	@ zero_extendqisi2
 3152 0a42 3B2B     		cmp	r3, #59
 3153 0a44 40F26084 		bls	.L83
 811:.\main.c      ****     			count_protector=0;
 3154              		.loc 1 811 0
 3155 0a48 0023     		movs	r3, #0
 3156 0a4a 1B4A     		ldr	r2, .L284+12
 3157 0a4c 1360     		str	r3, [r2]
ARM GAS  C:\Users\RECEPC~1\AppData\Local\Temp\cc79eMMA.s 			page 90


 812:.\main.c      ****                 SetPicture(1,DISPLAY_INICIO0);
 3158              		.loc 1 812 0
 3159 0a4e 1F4A     		ldr	r2, .L284+32
 3160 0a50 1370     		strb	r3, [r2]
 813:.\main.c      ****     		}
 3161              		.loc 1 813 0
 3162 0a52 0120     		movs	r0, #1
 3163 0a54 0146     		mov	r1, r0
 3164 0a56 FFF7FEFF 		bl	SetPicture
 3165              	.LVL311:
 3166 0a5a 00F055BC 		b	.L83
 3167              	.L98:
 821:.\main.c      ****                 if((Display1_rxBuffer[0]==0xAA) && (Display1_rxBuffer[6]==0xC3) && (Display1_rxBuff
 3168              		.loc 1 821 0
 3169 0a5e FFF7FEFF 		bl	Display1_GetRxBufferSize
 3170              	.LVL312:
 3171 0a62 0828     		cmp	r0, #8
 3172 0a64 40F05084 		bne	.L83
 822:.\main.c      ****                     switch(Display1_rxBuffer[3]){
 3173              		.loc 1 822 0
 3174 0a68 174B     		ldr	r3, .L284+28
 3175 0a6a 1B78     		ldrb	r3, [r3]	@ zero_extendqisi2
 3176 0a6c DBB2     		uxtb	r3, r3
 3177 0a6e AA2B     		cmp	r3, #170
 3178 0a70 7BD1     		bne	.L196
 822:.\main.c      ****                     switch(Display1_rxBuffer[3]){
 3179              		.loc 1 822 0 is_stmt 0 discriminator 1
 3180 0a72 154B     		ldr	r3, .L284+28
 3181 0a74 9B79     		ldrb	r3, [r3, #6]	@ zero_extendqisi2
 3182 0a76 DBB2     		uxtb	r3, r3
 3183 0a78 C32B     		cmp	r3, #195
 3184 0a7a 76D1     		bne	.L196
 822:.\main.c      ****                     switch(Display1_rxBuffer[3]){
 3185              		.loc 1 822 0 discriminator 2
 3186 0a7c 124B     		ldr	r3, .L284+28
 3187 0a7e DB79     		ldrb	r3, [r3, #7]	@ zero_extendqisi2
 3188 0a80 DBB2     		uxtb	r3, r3
 3189 0a82 3C2B     		cmp	r3, #60
 3190 0a84 71D1     		bne	.L196
 823:.\main.c      ****                         case 0x46:  //Turnos              
 3191              		.loc 1 823 0 is_stmt 1
 3192 0a86 104B     		ldr	r3, .L284+28
 3193 0a88 DB78     		ldrb	r3, [r3, #3]	@ zero_extendqisi2
 3194 0a8a DBB2     		uxtb	r3, r3
 3195 0a8c 552B     		cmp	r3, #85
 3196 0a8e 34D0     		beq	.L197
 3197 0a90 04D8     		bhi	.L198
 3198 0a92 3B2B     		cmp	r3, #59
 3199 0a94 52D0     		beq	.L199
 3200 0a96 462B     		cmp	r3, #70
 3201 0a98 1ED0     		beq	.L200
 3202 0a9a 66E0     		b	.L196
 3203              	.L198:
 3204 0a9c 942B     		cmp	r3, #148
 3205 0a9e 55D0     		beq	.L201
 3206 0aa0 B52B     		cmp	r3, #181
 3207 0aa2 3FD0     		beq	.L202
ARM GAS  C:\Users\RECEPC~1\AppData\Local\Temp\cc79eMMA.s 			page 91


 3208 0aa4 7E2B     		cmp	r3, #126
 3209 0aa6 60D1     		bne	.L196
 3210 0aa8 58E0     		b	.L203
 3211              	.L285:
 3212 0aaa 00BF     		.align	2
 3213              	.L284:
 3214 0aac 00000000 		.word	bufferDisplay1
 3215 0ab0 00000000 		.word	printPortA
 3216 0ab4 00000000 		.word	side
 3217 0ab8 00000000 		.word	flowDisplay1
 3218 0abc 00000000 		.word	numberKeys1
 3219 0ac0 00000000 		.word	hiddenKeys
 3220 0ac4 00000000 		.word	controlChar
 3221 0ac8 00000000 		.word	Display1_rxBuffer
 3222 0acc 00000000 		.word	count_protector
 3223 0ad0 00000000 		.word	animacion
 3224 0ad4 00000000 		.word	temporal
 3225              	.L200:
 825:.\main.c      ****                             if(lockTurn ==1){
 3226              		.loc 1 825 0
 3227 0ad8 0D22     		movs	r2, #13
 3228 0ada A94B     		ldr	r3, .L286
 3229 0adc 1A60     		str	r2, [r3]
 826:.\main.c      ****                                 SetPicture(1,DISPLAY_CERRAR_TURNO);
 3230              		.loc 1 826 0
 3231 0ade A94B     		ldr	r3, .L286+4
 3232 0ae0 1B78     		ldrb	r3, [r3]	@ zero_extendqisi2
 3233 0ae2 012B     		cmp	r3, #1
 3234 0ae4 04D1     		bne	.L204
 827:.\main.c      ****                             }else{
 3235              		.loc 1 827 0
 3236 0ae6 0120     		movs	r0, #1
 3237 0ae8 2A21     		movs	r1, #42
 3238 0aea FFF7FEFF 		bl	SetPicture
 3239              	.LVL313:
 3240 0aee 3CE0     		b	.L196
 3241              	.L204:
 829:.\main.c      ****                             }                            
 3242              		.loc 1 829 0
 3243 0af0 0120     		movs	r0, #1
 3244 0af2 2321     		movs	r1, #35
 3245 0af4 FFF7FEFF 		bl	SetPicture
 3246              	.LVL314:
 3247 0af8 37E0     		b	.L196
 3248              	.L197:
 833:.\main.c      ****                             bufferDisplay1.flagKeyboard = 6;
 3249              		.loc 1 833 0
 3250 0afa 0E22     		movs	r2, #14
 3251 0afc A04B     		ldr	r3, .L286
 3252 0afe 1A60     		str	r2, [r3]
 834:.\main.c      ****                             numberKeys1 = 0;
 3253              		.loc 1 834 0
 3254 0b00 0622     		movs	r2, #6
 3255 0b02 A14B     		ldr	r3, .L286+8
 3256 0b04 83F80021 		strb	r2, [r3, #256]
 835:.\main.c      ****                             hiddenKeys = 5;
 3257              		.loc 1 835 0
ARM GAS  C:\Users\RECEPC~1\AppData\Local\Temp\cc79eMMA.s 			page 92


 3258 0b08 0022     		movs	r2, #0
 3259 0b0a A04B     		ldr	r3, .L286+12
 3260 0b0c 1A70     		strb	r2, [r3]
 836:.\main.c      ****                             controlChar ='*';
 3261              		.loc 1 836 0
 3262 0b0e 0522     		movs	r2, #5
 3263 0b10 9F4B     		ldr	r3, .L286+16
 3264 0b12 1A70     		strb	r2, [r3]
 837:.\main.c      ****                             SetPicture(1,DISPLAY_INGRESE_PASSWORD);                           
 3265              		.loc 1 837 0
 3266 0b14 2A22     		movs	r2, #42
 3267 0b16 9F4B     		ldr	r3, .L286+20
 3268 0b18 1A70     		strb	r2, [r3]
 838:.\main.c      ****                         break;
 3269              		.loc 1 838 0
 3270 0b1a 0120     		movs	r0, #1
 3271 0b1c 2521     		movs	r1, #37
 3272 0b1e FFF7FEFF 		bl	SetPicture
 3273              	.LVL315:
 839:.\main.c      ****                         case 0xB5:  //Copia de recibo 
 3274              		.loc 1 839 0
 3275 0b22 22E0     		b	.L196
 3276              	.L202:
 841:.\main.c      ****                             side.a.rfState = RF_COPY_RECEIPT;
 3277              		.loc 1 841 0
 3278 0b24 0022     		movs	r2, #0
 3279 0b26 964B     		ldr	r3, .L286
 3280 0b28 1A60     		str	r2, [r3]
 842:.\main.c      ****                             SetPicture(1,DISPLAY_INICIO0);                            
 3281              		.loc 1 842 0
 3282 0b2a 0B22     		movs	r2, #11
 3283 0b2c 9A4B     		ldr	r3, .L286+24
 3284 0b2e 83F80321 		strb	r2, [r3, #259]
 843:.\main.c      ****                         break;
 3285              		.loc 1 843 0
 3286 0b32 0120     		movs	r0, #1
 3287 0b34 0146     		mov	r1, r0
 3288 0b36 FFF7FEFF 		bl	SetPicture
 3289              	.LVL316:
 844:.\main.c      ****                         
 3290              		.loc 1 844 0
 3291 0b3a 16E0     		b	.L196
 3292              	.L199:
 847:.\main.c      ****                             SetPicture(1,DISPLAY_INICIO0);                            
 3293              		.loc 1 847 0
 3294 0b3c 0022     		movs	r2, #0
 3295 0b3e 904B     		ldr	r3, .L286
 3296 0b40 1A60     		str	r2, [r3]
 848:.\main.c      ****                         break;
 3297              		.loc 1 848 0
 3298 0b42 0120     		movs	r0, #1
 3299 0b44 0146     		mov	r1, r0
 3300 0b46 FFF7FEFF 		bl	SetPicture
 3301              	.LVL317:
 849:.\main.c      ****                             
 3302              		.loc 1 849 0
 3303 0b4a 0EE0     		b	.L196
ARM GAS  C:\Users\RECEPC~1\AppData\Local\Temp\cc79eMMA.s 			page 93


 3304              	.L201:
 852:.\main.c      ****                             SetPicture(1,DISPLAY_INICIO0);                            
 3305              		.loc 1 852 0
 3306 0b4c 0022     		movs	r2, #0
 3307 0b4e 8C4B     		ldr	r3, .L286
 3308 0b50 1A60     		str	r2, [r3]
 853:.\main.c      ****                         break;
 3309              		.loc 1 853 0
 3310 0b52 0120     		movs	r0, #1
 3311 0b54 0146     		mov	r1, r0
 3312 0b56 FFF7FEFF 		bl	SetPicture
 3313              	.LVL318:
 854:.\main.c      ****                         
 3314              		.loc 1 854 0
 3315 0b5a 06E0     		b	.L196
 3316              	.L203:
 857:.\main.c      ****                             SetPicture(1,DISPLAY_INICIO0);                            
 3317              		.loc 1 857 0
 3318 0b5c 0022     		movs	r2, #0
 3319 0b5e 884B     		ldr	r3, .L286
 3320 0b60 1A60     		str	r2, [r3]
 858:.\main.c      ****                         break;
 3321              		.loc 1 858 0
 3322 0b62 0120     		movs	r0, #1
 3323 0b64 0146     		mov	r1, r0
 3324 0b66 FFF7FEFF 		bl	SetPicture
 3325              	.LVL319:
 3326              	.L196:
 862:.\main.c      ****                 Display1_ClearRxBuffer();
 3327              		.loc 1 862 0
 3328 0b6a 0A20     		movs	r0, #10
 3329 0b6c FFF7FEFF 		bl	CyDelay
 3330              	.LVL320:
 863:.\main.c      ****             }
 3331              		.loc 1 863 0
 3332 0b70 FFF7FEFF 		bl	Display1_ClearRxBuffer
 3333              	.LVL321:
 3334 0b74 C8E3     		b	.L83
 3335              	.L99:
 868:.\main.c      ****                 if((Display1_rxBuffer[0]==0xAA) && (Display1_rxBuffer[6]==0xC3) && (Display1_rxBuff
 3336              		.loc 1 868 0
 3337 0b76 FFF7FEFF 		bl	Display1_GetRxBufferSize
 3338              	.LVL322:
 3339 0b7a 0828     		cmp	r0, #8
 3340 0b7c 40F0C483 		bne	.L83
 869:.\main.c      ****                     switch(Display1_rxBuffer[3]){
 3341              		.loc 1 869 0
 3342 0b80 864B     		ldr	r3, .L286+28
 3343 0b82 1B78     		ldrb	r3, [r3]	@ zero_extendqisi2
 3344 0b84 DBB2     		uxtb	r3, r3
 3345 0b86 AA2B     		cmp	r3, #170
 3346 0b88 44D1     		bne	.L205
 869:.\main.c      ****                     switch(Display1_rxBuffer[3]){
 3347              		.loc 1 869 0 is_stmt 0 discriminator 1
 3348 0b8a 844B     		ldr	r3, .L286+28
 3349 0b8c 9B79     		ldrb	r3, [r3, #6]	@ zero_extendqisi2
 3350 0b8e DBB2     		uxtb	r3, r3
ARM GAS  C:\Users\RECEPC~1\AppData\Local\Temp\cc79eMMA.s 			page 94


 3351 0b90 C32B     		cmp	r3, #195
 3352 0b92 3FD1     		bne	.L205
 869:.\main.c      ****                     switch(Display1_rxBuffer[3]){
 3353              		.loc 1 869 0 discriminator 2
 3354 0b94 814B     		ldr	r3, .L286+28
 3355 0b96 DB79     		ldrb	r3, [r3, #7]	@ zero_extendqisi2
 3356 0b98 DBB2     		uxtb	r3, r3
 3357 0b9a 3C2B     		cmp	r3, #60
 3358 0b9c 3AD1     		bne	.L205
 870:.\main.c      ****                         case 0x47:  //Cambio de turno: Abrir  
 3359              		.loc 1 870 0 is_stmt 1
 3360 0b9e 7F4B     		ldr	r3, .L286+28
 3361 0ba0 DB78     		ldrb	r3, [r3, #3]	@ zero_extendqisi2
 3362 0ba2 DBB2     		uxtb	r3, r3
 3363 0ba4 482B     		cmp	r3, #72
 3364 0ba6 17D0     		beq	.L206
 3365 0ba8 02D8     		bhi	.L207
 3366 0baa 472B     		cmp	r3, #71
 3367 0bac 05D0     		beq	.L208
 3368 0bae 31E0     		b	.L205
 3369              	.L207:
 3370 0bb0 7E2B     		cmp	r3, #126
 3371 0bb2 20D0     		beq	.L209
 3372 0bb4 942B     		cmp	r3, #148
 3373 0bb6 26D0     		beq	.L210
 3374 0bb8 2CE0     		b	.L205
 3375              	.L208:
 872:.\main.c      ****                             numberKeys1 = 0;    
 3376              		.loc 1 872 0
 3377 0bba 0922     		movs	r2, #9
 3378 0bbc 704B     		ldr	r3, .L286
 3379 0bbe 1A60     		str	r2, [r3]
 873:.\main.c      ****                             bufferDisplay1.flagKeyboard = 4;
 3380              		.loc 1 873 0
 3381 0bc0 0022     		movs	r2, #0
 3382 0bc2 724B     		ldr	r3, .L286+12
 3383 0bc4 1A70     		strb	r2, [r3]
 874:.\main.c      ****                             SetPicture(1,DISPLAY_INTRODUZCA_CEDULA);                            
 3384              		.loc 1 874 0
 3385 0bc6 0422     		movs	r2, #4
 3386 0bc8 6F4B     		ldr	r3, .L286+8
 3387 0bca 83F80021 		strb	r2, [r3, #256]
 875:.\main.c      ****                         break;
 3388              		.loc 1 875 0
 3389 0bce 0120     		movs	r0, #1
 3390 0bd0 2421     		movs	r1, #36
 3391 0bd2 FFF7FEFF 		bl	SetPicture
 3392              	.LVL323:
 876:.\main.c      ****                         case 0x48:  //Cambio de turno: Cerrar 
 3393              		.loc 1 876 0
 3394 0bd6 1DE0     		b	.L205
 3395              	.L206:
 878:.\main.c      ****                             numberKeys1 = 0;   
 3396              		.loc 1 878 0
 3397 0bd8 0922     		movs	r2, #9
 3398 0bda 694B     		ldr	r3, .L286
 3399 0bdc 1A60     		str	r2, [r3]
ARM GAS  C:\Users\RECEPC~1\AppData\Local\Temp\cc79eMMA.s 			page 95


 879:.\main.c      ****                             bufferDisplay1.flagKeyboard = 4;
 3400              		.loc 1 879 0
 3401 0bde 0022     		movs	r2, #0
 3402 0be0 6A4B     		ldr	r3, .L286+12
 3403 0be2 1A70     		strb	r2, [r3]
 880:.\main.c      ****                             SetPicture(1,DISPLAY_INTRODUZCA_CEDULA);                           
 3404              		.loc 1 880 0
 3405 0be4 0422     		movs	r2, #4
 3406 0be6 684B     		ldr	r3, .L286+8
 3407 0be8 83F80021 		strb	r2, [r3, #256]
 881:.\main.c      ****                         break;                         
 3408              		.loc 1 881 0
 3409 0bec 0120     		movs	r0, #1
 3410 0bee 2421     		movs	r1, #36
 3411 0bf0 FFF7FEFF 		bl	SetPicture
 3412              	.LVL324:
 882:.\main.c      ****                         case 0x7E:  //Pantalla Inicial                                             
 3413              		.loc 1 882 0
 3414 0bf4 0EE0     		b	.L205
 3415              	.L209:
 884:.\main.c      ****                             flowDisplay1 = 0;
 3416              		.loc 1 884 0
 3417 0bf6 0120     		movs	r0, #1
 3418 0bf8 0146     		mov	r1, r0
 3419 0bfa FFF7FEFF 		bl	SetPicture
 3420              	.LVL325:
 885:.\main.c      ****                         break;
 3421              		.loc 1 885 0
 3422 0bfe 0022     		movs	r2, #0
 3423 0c00 5F4B     		ldr	r3, .L286
 3424 0c02 1A60     		str	r2, [r3]
 886:.\main.c      ****                         case 0x94:  //Pantalla Inicial                                             
 3425              		.loc 1 886 0
 3426 0c04 06E0     		b	.L205
 3427              	.L210:
 888:.\main.c      ****                             flowDisplay1 = 0;
 3428              		.loc 1 888 0
 3429 0c06 0120     		movs	r0, #1
 3430 0c08 0146     		mov	r1, r0
 3431 0c0a FFF7FEFF 		bl	SetPicture
 3432              	.LVL326:
 889:.\main.c      ****                         break;
 3433              		.loc 1 889 0
 3434 0c0e 0022     		movs	r2, #0
 3435 0c10 5B4B     		ldr	r3, .L286
 3436 0c12 1A60     		str	r2, [r3]
 3437              	.L205:
 893:.\main.c      ****                 Display1_ClearRxBuffer();
 3438              		.loc 1 893 0
 3439 0c14 0A20     		movs	r0, #10
 3440 0c16 FFF7FEFF 		bl	CyDelay
 3441              	.LVL327:
 894:.\main.c      ****             }                        
 3442              		.loc 1 894 0
 3443 0c1a FFF7FEFF 		bl	Display1_ClearRxBuffer
 3444              	.LVL328:
 3445 0c1e 73E3     		b	.L83
ARM GAS  C:\Users\RECEPC~1\AppData\Local\Temp\cc79eMMA.s 			page 96


 3446              	.L100:
 899:.\main.c      ****                 case 0: //Cancelar
 3447              		.loc 1 899 0
 3448 0c20 0120     		movs	r0, #1
 3449 0c22 5B4B     		ldr	r3, .L286+16
 3450 0c24 1978     		ldrb	r1, [r3]	@ zero_extendqisi2
 3451 0c26 5B4B     		ldr	r3, .L286+20
 3452 0c28 1A78     		ldrb	r2, [r3]	@ zero_extendqisi2
 3453 0c2a FFF7FEFF 		bl	alphanumeric_keyboard
 3454              	.LVL329:
 3455 0c2e 10B1     		cbz	r0, .L211
 3456 0c30 0128     		cmp	r0, #1
 3457 0c32 59D0     		beq	.L212
 3458 0c34 68E3     		b	.L83
 3459              	.L211:
 901:.\main.c      ****                         case 1://ID Estacion
 3460              		.loc 1 901 0
 3461 0c36 544B     		ldr	r3, .L286+8
 3462 0c38 93F80031 		ldrb	r3, [r3, #256]	@ zero_extendqisi2
 3463 0c3c 013B     		subs	r3, r3, #1
 3464 0c3e 052B     		cmp	r3, #5
 3465 0c40 4FD8     		bhi	.L213
 3466 0c42 DFE803F0 		tbb	[pc, r3]
 3467              	.L215:
 3468 0c46 09       		.byte	(.L269-.L215)/2
 3469 0c47 1A       		.byte	(.L270-.L215)/2
 3470 0c48 4E       		.byte	(.L213-.L215)/2
 3471 0c49 4E       		.byte	(.L213-.L215)/2
 3472 0c4a 2F       		.byte	(.L271-.L215)/2
 3473 0c4b 42       		.byte	(.L272-.L215)/2
 3474              	.LVL330:
 3475              		.p2align 1
 3476              	.L219:
 904:.\main.c      ****                             }
 3477              		.loc 1 904 0 discriminator 3
 3478 0c4c 0021     		movs	r1, #0
 3479 0c4e 544A     		ldr	r2, .L286+32
 3480 0c50 D154     		strb	r1, [r2, r3]
 903:.\main.c      ****                                 idStation[x]=0;
 3481              		.loc 1 903 0 discriminator 3
 3482 0c52 0133     		adds	r3, r3, #1
 3483              	.LVL331:
 3484 0c54 DBB2     		uxtb	r3, r3
 3485              	.LVL332:
 3486 0c56 00E0     		b	.L214
 3487              	.LVL333:
 3488              	.L269:
 901:.\main.c      ****                         case 1://ID Estacion
 3489              		.loc 1 901 0
 3490 0c58 0023     		movs	r3, #0
 3491              	.L214:
 3492              	.LVL334:
 903:.\main.c      ****                                 idStation[x]=0;
 3493              		.loc 1 903 0 discriminator 1
 3494 0c5a 042B     		cmp	r3, #4
 3495 0c5c F6D9     		bls	.L219
 906:.\main.c      ****                             SetPicture(1,DISPLAY_INICIO0);
ARM GAS  C:\Users\RECEPC~1\AppData\Local\Temp\cc79eMMA.s 			page 97


 3496              		.loc 1 906 0
 3497 0c5e 0022     		movs	r2, #0
 3498 0c60 474B     		ldr	r3, .L286
 3499              	.LVL335:
 3500 0c62 1A60     		str	r2, [r3]
 907:.\main.c      ****                         break;
 3501              		.loc 1 907 0
 3502 0c64 0120     		movs	r0, #1
 3503 0c66 0146     		mov	r1, r0
 3504 0c68 FFF7FEFF 		bl	SetPicture
 3505              	.LVL336:
 908:.\main.c      ****                         case 2://Umbral
 3506              		.loc 1 908 0
 3507 0c6c 39E0     		b	.L213
 3508              	.LVL337:
 3509              	.L220:
 911:.\main.c      ****                             }
 3510              		.loc 1 911 0 discriminator 3
 3511 0c6e 0021     		movs	r1, #0
 3512 0c70 4C4A     		ldr	r2, .L286+36
 3513 0c72 D154     		strb	r1, [r2, r3]
 910:.\main.c      ****                                 pumpGap[x]=0;
 3514              		.loc 1 910 0 discriminator 3
 3515 0c74 0133     		adds	r3, r3, #1
 3516              	.LVL338:
 3517 0c76 DBB2     		uxtb	r3, r3
 3518              	.LVL339:
 3519 0c78 00E0     		b	.L216
 3520              	.LVL340:
 3521              	.L270:
 901:.\main.c      ****                         case 1://ID Estacion
 3522              		.loc 1 901 0
 3523 0c7a 0023     		movs	r3, #0
 3524              	.L216:
 3525              	.LVL341:
 910:.\main.c      ****                                 pumpGap[x]=0;
 3526              		.loc 1 910 0 discriminator 1
 3527 0c7c 444A     		ldr	r2, .L286+16
 3528 0c7e 1278     		ldrb	r2, [r2]	@ zero_extendqisi2
 3529 0c80 9342     		cmp	r3, r2
 3530 0c82 F4D3     		bcc	.L220
 913:.\main.c      ****                             SetPicture(1,DISPLAY_INICIO0);
 3531              		.loc 1 913 0
 3532 0c84 0022     		movs	r2, #0
 3533 0c86 3E4B     		ldr	r3, .L286
 3534              	.LVL342:
 3535 0c88 1A60     		str	r2, [r3]
 914:.\main.c      ****                         break;
 3536              		.loc 1 914 0
 3537 0c8a 0120     		movs	r0, #1
 3538 0c8c 0146     		mov	r1, r0
 3539 0c8e FFF7FEFF 		bl	SetPicture
 3540              	.LVL343:
 915:.\main.c      ****                         case 5://Pass
 3541              		.loc 1 915 0
 3542 0c92 26E0     		b	.L213
 3543              	.LVL344:
ARM GAS  C:\Users\RECEPC~1\AppData\Local\Temp\cc79eMMA.s 			page 98


 3544              	.L221:
 918:.\main.c      ****                             }
 3545              		.loc 1 918 0 discriminator 3
 3546 0c94 3C4A     		ldr	r2, .L286+8
 3547 0c96 1A44     		add	r2, r2, r3
 3548 0c98 0021     		movs	r1, #0
 3549 0c9a 82F84111 		strb	r1, [r2, #321]
 917:.\main.c      ****                                 bufferDisplay1.shiftPassword[x]=0;
 3550              		.loc 1 917 0 discriminator 3
 3551 0c9e 0133     		adds	r3, r3, #1
 3552              	.LVL345:
 3553 0ca0 DBB2     		uxtb	r3, r3
 3554              	.LVL346:
 3555 0ca2 00E0     		b	.L217
 3556              	.LVL347:
 3557              	.L271:
 901:.\main.c      ****                         case 1://ID Estacion
 3558              		.loc 1 901 0
 3559 0ca4 0023     		movs	r3, #0
 3560              	.L217:
 3561              	.LVL348:
 917:.\main.c      ****                                 bufferDisplay1.shiftPassword[x]=0;
 3562              		.loc 1 917 0 discriminator 1
 3563 0ca6 3A4A     		ldr	r2, .L286+16
 3564 0ca8 1278     		ldrb	r2, [r2]	@ zero_extendqisi2
 3565 0caa 9342     		cmp	r3, r2
 3566 0cac F2D3     		bcc	.L221
 920:.\main.c      ****                             SetPicture(1,DISPLAY_INICIO0);
 3567              		.loc 1 920 0
 3568 0cae 0022     		movs	r2, #0
 3569 0cb0 334B     		ldr	r3, .L286
 3570              	.LVL349:
 3571 0cb2 1A60     		str	r2, [r3]
 921:.\main.c      ****                         break;
 3572              		.loc 1 921 0
 3573 0cb4 0120     		movs	r0, #1
 3574 0cb6 0146     		mov	r1, r0
 3575 0cb8 FFF7FEFF 		bl	SetPicture
 3576              	.LVL350:
 922:.\main.c      ****                             
 3577              		.loc 1 922 0
 3578 0cbc 11E0     		b	.L213
 3579              	.LVL351:
 3580              	.L222:
 926:.\main.c      ****                             }
 3581              		.loc 1 926 0 discriminator 3
 3582 0cbe 0021     		movs	r1, #0
 3583 0cc0 394A     		ldr	r2, .L286+40
 3584 0cc2 D154     		strb	r1, [r2, r3]
 925:.\main.c      ****                                 configAccess[x]=0;
 3585              		.loc 1 925 0 discriminator 3
 3586 0cc4 0133     		adds	r3, r3, #1
 3587              	.LVL352:
 3588 0cc6 DBB2     		uxtb	r3, r3
 3589              	.LVL353:
 3590 0cc8 00E0     		b	.L218
 3591              	.LVL354:
ARM GAS  C:\Users\RECEPC~1\AppData\Local\Temp\cc79eMMA.s 			page 99


 3592              	.L272:
 901:.\main.c      ****                         case 1://ID Estacion
 3593              		.loc 1 901 0
 3594 0cca 0123     		movs	r3, #1
 3595              	.L218:
 3596              	.LVL355:
 925:.\main.c      ****                                 configAccess[x]=0;
 3597              		.loc 1 925 0 discriminator 1
 3598 0ccc 364A     		ldr	r2, .L286+40
 3599 0cce 1278     		ldrb	r2, [r2]	@ zero_extendqisi2
 3600 0cd0 9A42     		cmp	r2, r3
 3601 0cd2 F4D2     		bcs	.L222
 928:.\main.c      ****                             SetPicture(1,DISPLAY_INICIO0);
 3602              		.loc 1 928 0
 3603 0cd4 0022     		movs	r2, #0
 3604 0cd6 2A4B     		ldr	r3, .L286
 3605              	.LVL356:
 3606 0cd8 1A60     		str	r2, [r3]
 929:.\main.c      ****                         break;
 3607              		.loc 1 929 0
 3608 0cda 0120     		movs	r0, #1
 3609 0cdc 0146     		mov	r1, r0
 3610 0cde FFF7FEFF 		bl	SetPicture
 3611              	.LVL357:
 3612              	.L213:
 932:.\main.c      ****                 break;
 3613              		.loc 1 932 0
 3614 0ce2 FFF7FEFF 		bl	Display1_ClearRxBuffer
 3615              	.LVL358:
 933:.\main.c      ****                     
 3616              		.loc 1 933 0
 3617 0ce6 0FE3     		b	.L83
 3618              	.L212:
 936:.\main.c      ****                         case 1://ID Estacion
 3619              		.loc 1 936 0
 3620 0ce8 274B     		ldr	r3, .L286+8
 3621 0cea 93F80031 		ldrb	r3, [r3, #256]	@ zero_extendqisi2
 3622 0cee 013B     		subs	r3, r3, #1
 3623 0cf0 052B     		cmp	r3, #5
 3624 0cf2 00F2BA80 		bhi	.L223
 3625 0cf6 DFE803F0 		tbb	[pc, r3]
 3626              	.L225:
 3627 0cfa 0C       		.byte	(.L273-.L225)/2
 3628 0cfb 35       		.byte	(.L274-.L225)/2
 3629 0cfc B8       		.byte	(.L223-.L225)/2
 3630 0cfd B8       		.byte	(.L223-.L225)/2
 3631 0cfe 66       		.byte	(.L275-.L225)/2
 3632 0cff 7C       		.byte	(.L276-.L225)/2
 3633              	.LVL359:
 3634              		.p2align 1
 3635              	.L229:
 939:.\main.c      ****                             }
 3636              		.loc 1 939 0 discriminator 3
 3637 0d00 591C     		adds	r1, r3, #1
 3638 0d02 214A     		ldr	r2, .L286+8
 3639 0d04 0A44     		add	r2, r2, r1
 3640 0d06 92F84B00 		ldrb	r0, [r2, #75]	@ zero_extendqisi2
ARM GAS  C:\Users\RECEPC~1\AppData\Local\Temp\cc79eMMA.s 			page 100


 3641 0d0a 254A     		ldr	r2, .L286+32
 3642 0d0c D054     		strb	r0, [r2, r3]
 938:.\main.c      ****                                 idStation[x] =bufferDisplay1.valueKeys[x+1];                       
 3643              		.loc 1 938 0 discriminator 3
 3644 0d0e CBB2     		uxtb	r3, r1
 3645              	.LVL360:
 3646 0d10 00E0     		b	.L224
 3647              	.LVL361:
 3648              	.L273:
 936:.\main.c      ****                         case 1://ID Estacion
 3649              		.loc 1 936 0
 3650 0d12 0023     		movs	r3, #0
 3651              	.L224:
 3652              	.LVL362:
 938:.\main.c      ****                                 idStation[x] =bufferDisplay1.valueKeys[x+1];                       
 3653              		.loc 1 938 0 discriminator 1
 3654 0d14 042B     		cmp	r3, #4
 3655 0d16 F3D9     		bls	.L229
 941:.\main.c      ****                             intIDStation = atoi(idStation);
 3656              		.loc 1 941 0
 3657 0d18 2148     		ldr	r0, .L286+32
 3658 0d1a 0023     		movs	r3, #0
 3659              	.LVL363:
 3660 0d1c 0371     		strb	r3, [r0, #4]
 942:.\main.c      ****                             IDCast[0] = intIDStation;
 3661              		.loc 1 942 0
 3662 0d1e FFF7FEFF 		bl	atoi
 3663              	.LVL364:
 3664 0d22 80B2     		uxth	r0, r0
 3665 0d24 214B     		ldr	r3, .L286+44
 3666 0d26 1880     		strh	r0, [r3]	@ movhi
 943:.\main.c      ****                             IDCast[1] = intIDStation>>8;
 3667              		.loc 1 943 0
 3668 0d28 C3B2     		uxtb	r3, r0
 3669 0d2a 214C     		ldr	r4, .L286+48
 3670 0d2c 2370     		strb	r3, [r4]
 944:.\main.c      ****                             EEPROM_1_WriteByte(IDCast[0],10);
 3671              		.loc 1 944 0
 3672 0d2e 000A     		lsrs	r0, r0, #8
 3673 0d30 6070     		strb	r0, [r4, #1]
 945:.\main.c      ****                             EEPROM_1_WriteByte(IDCast[1],11);
 3674              		.loc 1 945 0
 3675 0d32 2078     		ldrb	r0, [r4]	@ zero_extendqisi2
 3676 0d34 0A21     		movs	r1, #10
 3677 0d36 FFF7FEFF 		bl	EEPROM_1_WriteByte
 3678              	.LVL365:
 946:.\main.c      ****                             flowDisplay1 = 15;
 3679              		.loc 1 946 0
 3680 0d3a 6078     		ldrb	r0, [r4, #1]	@ zero_extendqisi2
 3681 0d3c 0B21     		movs	r1, #11
 3682 0d3e FFF7FEFF 		bl	EEPROM_1_WriteByte
 3683              	.LVL366:
 947:.\main.c      ****                             SetPicture(1,DISPLAY_CONFIGURACIONES);
 3684              		.loc 1 947 0
 3685 0d42 0F22     		movs	r2, #15
 3686 0d44 0E4B     		ldr	r3, .L286
 3687 0d46 1A60     		str	r2, [r3]
ARM GAS  C:\Users\RECEPC~1\AppData\Local\Temp\cc79eMMA.s 			page 101


 948:.\main.c      ****                         break;
 3688              		.loc 1 948 0
 3689 0d48 0120     		movs	r0, #1
 3690 0d4a 5A21     		movs	r1, #90
 3691 0d4c FFF7FEFF 		bl	SetPicture
 3692              	.LVL367:
 949:.\main.c      ****                         case 2://Pass
 3693              		.loc 1 949 0
 3694 0d50 8BE0     		b	.L223
 3695              	.LVL368:
 3696              	.L230:
 952:.\main.c      ****                             }
 3697              		.loc 1 952 0 discriminator 3
 3698 0d52 0D4A     		ldr	r2, .L286+8
 3699 0d54 1A44     		add	r2, r2, r3
 3700 0d56 92F84B10 		ldrb	r1, [r2, #75]	@ zero_extendqisi2
 3701 0d5a 124A     		ldr	r2, .L286+36
 3702 0d5c D154     		strb	r1, [r2, r3]
 951:.\main.c      ****                                 pumpGap[x] =bufferDisplay1.valueKeys[x];
 3703              		.loc 1 951 0 discriminator 3
 3704 0d5e 0133     		adds	r3, r3, #1
 3705              	.LVL369:
 3706 0d60 DBB2     		uxtb	r3, r3
 3707              	.LVL370:
 3708 0d62 00E0     		b	.L226
 3709              	.LVL371:
 3710              	.L274:
 936:.\main.c      ****                         case 1://ID Estacion
 3711              		.loc 1 936 0
 3712 0d64 0023     		movs	r3, #0
 3713              	.L226:
 3714              	.LVL372:
 951:.\main.c      ****                                 pumpGap[x] =bufferDisplay1.valueKeys[x];
 3715              		.loc 1 951 0 discriminator 1
 3716 0d66 0A4A     		ldr	r2, .L286+16
 3717 0d68 1278     		ldrb	r2, [r2]	@ zero_extendqisi2
 3718 0d6a 9342     		cmp	r3, r2
 3719 0d6c F1D3     		bcc	.L230
 954:.\main.c      ****                             SetPicture(1,DISPLAY_CONFIGURACIONES);
 3720              		.loc 1 954 0
 3721 0d6e 0F22     		movs	r2, #15
 3722 0d70 034B     		ldr	r3, .L286
 3723              	.LVL373:
 3724 0d72 1A60     		str	r2, [r3]
 955:.\main.c      ****                         break;
 3725              		.loc 1 955 0
 3726 0d74 0120     		movs	r0, #1
 3727 0d76 5A21     		movs	r1, #90
 3728 0d78 FFF7FEFF 		bl	SetPicture
 3729              	.LVL374:
 956:.\main.c      ****                         case 5://Pass
 3730              		.loc 1 956 0
 3731 0d7c 75E0     		b	.L223
 3732              	.L287:
 3733 0d7e 00BF     		.align	2
 3734              	.L286:
 3735 0d80 00000000 		.word	flowDisplay1
ARM GAS  C:\Users\RECEPC~1\AppData\Local\Temp\cc79eMMA.s 			page 102


 3736 0d84 00000000 		.word	lockTurn
 3737 0d88 00000000 		.word	bufferDisplay1
 3738 0d8c 00000000 		.word	numberKeys1
 3739 0d90 00000000 		.word	hiddenKeys
 3740 0d94 00000000 		.word	controlChar
 3741 0d98 00000000 		.word	side
 3742 0d9c 00000000 		.word	Display1_rxBuffer
 3743 0da0 00000000 		.word	idStation
 3744 0da4 00000000 		.word	pumpGap
 3745 0da8 00000000 		.word	configAccess
 3746 0dac 00000000 		.word	intIDStation
 3747 0db0 00000000 		.word	IDCast
 3748              	.LVL375:
 3749              	.L231:
 959:.\main.c      ****                             }
 3750              		.loc 1 959 0 discriminator 3
 3751 0db4 8C4A     		ldr	r2, .L288
 3752 0db6 1A44     		add	r2, r2, r3
 3753 0db8 92F84B10 		ldrb	r1, [r2, #75]	@ zero_extendqisi2
 3754 0dbc 82F84111 		strb	r1, [r2, #321]
 958:.\main.c      ****                                 bufferDisplay1.shiftPassword[x] =bufferDisplay1.valueKeys[x];
 3755              		.loc 1 958 0 discriminator 3
 3756 0dc0 0133     		adds	r3, r3, #1
 3757              	.LVL376:
 3758 0dc2 DBB2     		uxtb	r3, r3
 3759              	.LVL377:
 3760 0dc4 00E0     		b	.L227
 3761              	.LVL378:
 3762              	.L275:
 936:.\main.c      ****                         case 1://ID Estacion
 3763              		.loc 1 936 0
 3764 0dc6 0023     		movs	r3, #0
 3765              	.L227:
 3766              	.LVL379:
 958:.\main.c      ****                                 bufferDisplay1.shiftPassword[x] =bufferDisplay1.valueKeys[x];
 3767              		.loc 1 958 0 discriminator 1
 3768 0dc8 884A     		ldr	r2, .L288+4
 3769 0dca 1278     		ldrb	r2, [r2]	@ zero_extendqisi2
 3770 0dcc 9342     		cmp	r3, r2
 3771 0dce F1D3     		bcc	.L231
 961:.\main.c      ****                             SetPicture(1,DISPLAY_CONFIGURACIONES);
 3772              		.loc 1 961 0
 3773 0dd0 0F22     		movs	r2, #15
 3774 0dd2 874B     		ldr	r3, .L288+8
 3775              	.LVL380:
 3776 0dd4 1A60     		str	r2, [r3]
 962:.\main.c      ****                         break; 
 3777              		.loc 1 962 0
 3778 0dd6 0120     		movs	r0, #1
 3779 0dd8 5A21     		movs	r1, #90
 3780 0dda FFF7FEFF 		bl	SetPicture
 3781              	.LVL381:
 963:.\main.c      ****                         case 6://Pass
 3782              		.loc 1 963 0
 3783 0dde 44E0     		b	.L223
 3784              	.LVL382:
 3785              	.L232:
ARM GAS  C:\Users\RECEPC~1\AppData\Local\Temp\cc79eMMA.s 			page 103


 966:.\main.c      ****                             }
 3786              		.loc 1 966 0 discriminator 3
 3787 0de0 814A     		ldr	r2, .L288
 3788 0de2 1A44     		add	r2, r2, r3
 3789 0de4 92F84B10 		ldrb	r1, [r2, #75]	@ zero_extendqisi2
 3790 0de8 824A     		ldr	r2, .L288+12
 3791 0dea D154     		strb	r1, [r2, r3]
 965:.\main.c      ****                                 configAccess[x] =bufferDisplay1.valueKeys[x];
 3792              		.loc 1 965 0 discriminator 3
 3793 0dec 0133     		adds	r3, r3, #1
 3794              	.LVL383:
 3795 0dee DBB2     		uxtb	r3, r3
 3796              	.LVL384:
 3797 0df0 00E0     		b	.L228
 3798              	.LVL385:
 3799              	.L276:
 936:.\main.c      ****                         case 1://ID Estacion
 3800              		.loc 1 936 0
 3801 0df2 0123     		movs	r3, #1
 3802              	.L228:
 3803              	.LVL386:
 965:.\main.c      ****                                 configAccess[x] =bufferDisplay1.valueKeys[x];
 3804              		.loc 1 965 0 discriminator 1
 3805 0df4 7F4A     		ldr	r2, .L288+12
 3806 0df6 1278     		ldrb	r2, [r2]	@ zero_extendqisi2
 3807 0df8 9A42     		cmp	r2, r3
 3808 0dfa F1D2     		bcs	.L232
 968:.\main.c      ****                                 SetPicture(1,DISPLAY_PASSWORD_VALIDO);
 3809              		.loc 1 968 0
 3810 0dfc 7D4B     		ldr	r3, .L288+12
 3811              	.LVL387:
 3812 0dfe 5A78     		ldrb	r2, [r3, #1]	@ zero_extendqisi2
 3813 0e00 7D4B     		ldr	r3, .L288+16
 3814 0e02 5B78     		ldrb	r3, [r3, #1]	@ zero_extendqisi2
 3815 0e04 9A42     		cmp	r2, r3
 3816 0e06 21D1     		bne	.L233
 968:.\main.c      ****                                 SetPicture(1,DISPLAY_PASSWORD_VALIDO);
 3817              		.loc 1 968 0 is_stmt 0 discriminator 1
 3818 0e08 7A4B     		ldr	r3, .L288+12
 3819 0e0a 9A78     		ldrb	r2, [r3, #2]	@ zero_extendqisi2
 3820 0e0c 7A4B     		ldr	r3, .L288+16
 3821 0e0e 9B78     		ldrb	r3, [r3, #2]	@ zero_extendqisi2
 3822 0e10 9A42     		cmp	r2, r3
 3823 0e12 1BD1     		bne	.L233
 968:.\main.c      ****                                 SetPicture(1,DISPLAY_PASSWORD_VALIDO);
 3824              		.loc 1 968 0 discriminator 2
 3825 0e14 774B     		ldr	r3, .L288+12
 3826 0e16 DA78     		ldrb	r2, [r3, #3]	@ zero_extendqisi2
 3827 0e18 774B     		ldr	r3, .L288+16
 3828 0e1a DB78     		ldrb	r3, [r3, #3]	@ zero_extendqisi2
 3829 0e1c 9A42     		cmp	r2, r3
 3830 0e1e 15D1     		bne	.L233
 968:.\main.c      ****                                 SetPicture(1,DISPLAY_PASSWORD_VALIDO);
 3831              		.loc 1 968 0 discriminator 3
 3832 0e20 744B     		ldr	r3, .L288+12
 3833 0e22 1A79     		ldrb	r2, [r3, #4]	@ zero_extendqisi2
 3834 0e24 744B     		ldr	r3, .L288+16
ARM GAS  C:\Users\RECEPC~1\AppData\Local\Temp\cc79eMMA.s 			page 104


 3835 0e26 1B79     		ldrb	r3, [r3, #4]	@ zero_extendqisi2
 3836 0e28 9A42     		cmp	r2, r3
 3837 0e2a 0FD1     		bne	.L233
 969:.\main.c      ****                                 CyDelay(700);
 3838              		.loc 1 969 0 is_stmt 1
 3839 0e2c 0120     		movs	r0, #1
 3840 0e2e 2621     		movs	r1, #38
 3841 0e30 FFF7FEFF 		bl	SetPicture
 3842              	.LVL388:
 970:.\main.c      ****                                 flowDisplay1 = 15;
 3843              		.loc 1 970 0
 3844 0e34 4FF42F70 		mov	r0, #700
 3845 0e38 FFF7FEFF 		bl	CyDelay
 3846              	.LVL389:
 971:.\main.c      ****                                 SetPicture(1,DISPLAY_CONFIGURACIONES);
 3847              		.loc 1 971 0
 3848 0e3c 0F22     		movs	r2, #15
 3849 0e3e 6C4B     		ldr	r3, .L288+8
 3850 0e40 1A60     		str	r2, [r3]
 972:.\main.c      ****                             }else{
 3851              		.loc 1 972 0
 3852 0e42 0120     		movs	r0, #1
 3853 0e44 5A21     		movs	r1, #90
 3854 0e46 FFF7FEFF 		bl	SetPicture
 3855              	.LVL390:
 3856 0e4a 0EE0     		b	.L223
 3857              	.L233:
 974:.\main.c      ****                                 CyDelay(700);
 3858              		.loc 1 974 0
 3859 0e4c 0120     		movs	r0, #1
 3860 0e4e 2721     		movs	r1, #39
 3861 0e50 FFF7FEFF 		bl	SetPicture
 3862              	.LVL391:
 975:.\main.c      ****                                 flowDisplay1 = 0;
 3863              		.loc 1 975 0
 3864 0e54 4FF42F70 		mov	r0, #700
 3865 0e58 FFF7FEFF 		bl	CyDelay
 3866              	.LVL392:
 976:.\main.c      ****                                 SetPicture(1,DISPLAY_INICIO0);
 3867              		.loc 1 976 0
 3868 0e5c 0022     		movs	r2, #0
 3869 0e5e 644B     		ldr	r3, .L288+8
 3870 0e60 1A60     		str	r2, [r3]
 977:.\main.c      ****                             }
 3871              		.loc 1 977 0
 3872 0e62 0120     		movs	r0, #1
 3873 0e64 0146     		mov	r1, r0
 3874 0e66 FFF7FEFF 		bl	SetPicture
 3875              	.LVL393:
 3876              	.L223:
 981:.\main.c      ****                 break;
 3877              		.loc 1 981 0
 3878 0e6a FFF7FEFF 		bl	Display1_ClearRxBuffer
 3879              	.LVL394:
 982:.\main.c      ****             }            
 3880              		.loc 1 982 0
 3881 0e6e 4BE2     		b	.L83
ARM GAS  C:\Users\RECEPC~1\AppData\Local\Temp\cc79eMMA.s 			page 105


 3882              	.L101:
 987:.\main.c      ****                 if((Display1_rxBuffer[0]==0xAA) && (Display1_rxBuffer[6]==0xC3) && (Display1_rxBuff
 3883              		.loc 1 987 0
 3884 0e70 FFF7FEFF 		bl	Display1_GetRxBufferSize
 3885              	.LVL395:
 3886 0e74 0828     		cmp	r0, #8
 3887 0e76 40F04782 		bne	.L83
 988:.\main.c      ****                     switch(Display1_rxBuffer[3]){
 3888              		.loc 1 988 0
 3889 0e7a 604B     		ldr	r3, .L288+20
 3890 0e7c 1B78     		ldrb	r3, [r3]	@ zero_extendqisi2
 3891 0e7e DBB2     		uxtb	r3, r3
 3892 0e80 AA2B     		cmp	r3, #170
 3893 0e82 40F08180 		bne	.L234
 988:.\main.c      ****                     switch(Display1_rxBuffer[3]){
 3894              		.loc 1 988 0 is_stmt 0 discriminator 1
 3895 0e86 5D4B     		ldr	r3, .L288+20
 3896 0e88 9B79     		ldrb	r3, [r3, #6]	@ zero_extendqisi2
 3897 0e8a DBB2     		uxtb	r3, r3
 3898 0e8c C32B     		cmp	r3, #195
 3899 0e8e 7BD1     		bne	.L234
 988:.\main.c      ****                     switch(Display1_rxBuffer[3]){
 3900              		.loc 1 988 0 discriminator 2
 3901 0e90 5A4B     		ldr	r3, .L288+20
 3902 0e92 DB79     		ldrb	r3, [r3, #7]	@ zero_extendqisi2
 3903 0e94 DBB2     		uxtb	r3, r3
 3904 0e96 3C2B     		cmp	r3, #60
 3905 0e98 76D1     		bne	.L234
 989:.\main.c      ****                         case 0x82:  //ID Estacion  
 3906              		.loc 1 989 0 is_stmt 1
 3907 0e9a 584B     		ldr	r3, .L288+20
 3908 0e9c DB78     		ldrb	r3, [r3, #3]	@ zero_extendqisi2
 3909 0e9e 583B     		subs	r3, r3, #88
 3910 0ea0 3C2B     		cmp	r3, #60
 3911 0ea2 71D8     		bhi	.L234
 3912 0ea4 DFE803F0 		tbb	[pc, r3]
 3913              	.L236:
 3914 0ea8 52       		.byte	(.L235-.L236)/2
 3915 0ea9 70       		.byte	(.L234-.L236)/2
 3916 0eaa 3C       		.byte	(.L237-.L236)/2
 3917 0eab 70       		.byte	(.L234-.L236)/2
 3918 0eac 70       		.byte	(.L234-.L236)/2
 3919 0ead 70       		.byte	(.L234-.L236)/2
 3920 0eae 70       		.byte	(.L234-.L236)/2
 3921 0eaf 70       		.byte	(.L234-.L236)/2
 3922 0eb0 70       		.byte	(.L234-.L236)/2
 3923 0eb1 70       		.byte	(.L234-.L236)/2
 3924 0eb2 70       		.byte	(.L234-.L236)/2
 3925 0eb3 70       		.byte	(.L234-.L236)/2
 3926 0eb4 70       		.byte	(.L234-.L236)/2
 3927 0eb5 32       		.byte	(.L238-.L236)/2
 3928 0eb6 70       		.byte	(.L234-.L236)/2
 3929 0eb7 70       		.byte	(.L234-.L236)/2
 3930 0eb8 70       		.byte	(.L234-.L236)/2
 3931 0eb9 70       		.byte	(.L234-.L236)/2
 3932 0eba 70       		.byte	(.L234-.L236)/2
 3933 0ebb 70       		.byte	(.L234-.L236)/2
ARM GAS  C:\Users\RECEPC~1\AppData\Local\Temp\cc79eMMA.s 			page 106


 3934 0ebc 70       		.byte	(.L234-.L236)/2
 3935 0ebd 70       		.byte	(.L234-.L236)/2
 3936 0ebe 70       		.byte	(.L234-.L236)/2
 3937 0ebf 70       		.byte	(.L234-.L236)/2
 3938 0ec0 70       		.byte	(.L234-.L236)/2
 3939 0ec1 70       		.byte	(.L234-.L236)/2
 3940 0ec2 70       		.byte	(.L234-.L236)/2
 3941 0ec3 70       		.byte	(.L234-.L236)/2
 3942 0ec4 70       		.byte	(.L234-.L236)/2
 3943 0ec5 70       		.byte	(.L234-.L236)/2
 3944 0ec6 70       		.byte	(.L234-.L236)/2
 3945 0ec7 70       		.byte	(.L234-.L236)/2
 3946 0ec8 70       		.byte	(.L234-.L236)/2
 3947 0ec9 70       		.byte	(.L234-.L236)/2
 3948 0eca 70       		.byte	(.L234-.L236)/2
 3949 0ecb 70       		.byte	(.L234-.L236)/2
 3950 0ecc 70       		.byte	(.L234-.L236)/2
 3951 0ecd 70       		.byte	(.L234-.L236)/2
 3952 0ece 61       		.byte	(.L239-.L236)/2
 3953 0ecf 70       		.byte	(.L234-.L236)/2
 3954 0ed0 70       		.byte	(.L234-.L236)/2
 3955 0ed1 70       		.byte	(.L234-.L236)/2
 3956 0ed2 1F       		.byte	(.L240-.L236)/2
 3957 0ed3 70       		.byte	(.L234-.L236)/2
 3958 0ed4 70       		.byte	(.L234-.L236)/2
 3959 0ed5 70       		.byte	(.L234-.L236)/2
 3960 0ed6 70       		.byte	(.L234-.L236)/2
 3961 0ed7 70       		.byte	(.L234-.L236)/2
 3962 0ed8 70       		.byte	(.L234-.L236)/2
 3963 0ed9 70       		.byte	(.L234-.L236)/2
 3964 0eda 70       		.byte	(.L234-.L236)/2
 3965 0edb 70       		.byte	(.L234-.L236)/2
 3966 0edc 70       		.byte	(.L234-.L236)/2
 3967 0edd 70       		.byte	(.L234-.L236)/2
 3968 0ede 70       		.byte	(.L234-.L236)/2
 3969 0edf 70       		.byte	(.L234-.L236)/2
 3970 0ee0 70       		.byte	(.L234-.L236)/2
 3971 0ee1 70       		.byte	(.L234-.L236)/2
 3972 0ee2 70       		.byte	(.L234-.L236)/2
 3973 0ee3 70       		.byte	(.L234-.L236)/2
 3974 0ee4 69       		.byte	(.L241-.L236)/2
 3975 0ee5 00       		.p2align 1
 3976              	.L240:
 991:.\main.c      ****                             numberKeys1 = 0; 
 3977              		.loc 1 991 0
 3978 0ee6 0E22     		movs	r2, #14
 3979 0ee8 414B     		ldr	r3, .L288+8
 3980 0eea 1A60     		str	r2, [r3]
 992:.\main.c      ****                             controlChar = 0;
 3981              		.loc 1 992 0
 3982 0eec 0023     		movs	r3, #0
 3983 0eee 444A     		ldr	r2, .L288+24
 3984 0ef0 1370     		strb	r3, [r2]
 993:.\main.c      ****                             hiddenKeys  = 5;
 3985              		.loc 1 993 0
 3986 0ef2 444A     		ldr	r2, .L288+28
 3987 0ef4 1370     		strb	r3, [r2]
ARM GAS  C:\Users\RECEPC~1\AppData\Local\Temp\cc79eMMA.s 			page 107


 994:.\main.c      ****                             bufferDisplay1.flagKeyboard = 1;
 3988              		.loc 1 994 0
 3989 0ef6 0522     		movs	r2, #5
 3990 0ef8 3C4B     		ldr	r3, .L288+4
 3991 0efa 1A70     		strb	r2, [r3]
 995:.\main.c      ****                             SetPicture(1,DISPLAY_INTRODUZCA_VALOR);                            
 3992              		.loc 1 995 0
 3993 0efc 0120     		movs	r0, #1
 3994 0efe 3A4B     		ldr	r3, .L288
 3995 0f00 83F80001 		strb	r0, [r3, #256]
 996:.\main.c      ****                         break;
 3996              		.loc 1 996 0
 3997 0f04 0621     		movs	r1, #6
 3998 0f06 FFF7FEFF 		bl	SetPicture
 3999              	.LVL396:
 997:.\main.c      ****                         case 0x65:  //Test Impresoras 
 4000              		.loc 1 997 0
 4001 0f0a 3DE0     		b	.L234
 4002              	.L238:
 999:.\main.c      ****                             PrintTest();
 4003              		.loc 1 999 0
 4004 0f0c 1022     		movs	r2, #16
 4005 0f0e 384B     		ldr	r3, .L288+8
 4006 0f10 1A60     		str	r2, [r3]
1000:.\main.c      ****                             SetPicture(1,DISPLAY_AMBAS_IMPRESORAS_FUNCIONANDO);                    
 4007              		.loc 1 1000 0
 4008 0f12 FFF7FEFF 		bl	PrintTest
 4009              	.LVL397:
1001:.\main.c      ****                         break;
 4010              		.loc 1 1001 0
 4011 0f16 0120     		movs	r0, #1
 4012 0f18 6B21     		movs	r1, #107
 4013 0f1a FFF7FEFF 		bl	SetPicture
 4014              	.LVL398:
1002:.\main.c      ****                         
 4015              		.loc 1 1002 0
 4016 0f1e 33E0     		b	.L234
 4017              	.L237:
1005:.\main.c      ****                             numberKeys1 = 0;
 4018              		.loc 1 1005 0
 4019 0f20 0E22     		movs	r2, #14
 4020 0f22 334B     		ldr	r3, .L288+8
 4021 0f24 1A60     		str	r2, [r3]
1006:.\main.c      ****                             controlChar = 0;
 4022              		.loc 1 1006 0
 4023 0f26 0023     		movs	r3, #0
 4024 0f28 354A     		ldr	r2, .L288+24
 4025 0f2a 1370     		strb	r3, [r2]
1007:.\main.c      ****                             hiddenKeys  = 3;
 4026              		.loc 1 1007 0
 4027 0f2c 354A     		ldr	r2, .L288+28
 4028 0f2e 1370     		strb	r3, [r2]
1008:.\main.c      ****                             pumpGap[0]  = 2;
 4029              		.loc 1 1008 0
 4030 0f30 0322     		movs	r2, #3
 4031 0f32 2E4B     		ldr	r3, .L288+4
 4032 0f34 1A70     		strb	r2, [r3]
ARM GAS  C:\Users\RECEPC~1\AppData\Local\Temp\cc79eMMA.s 			page 108


1009:.\main.c      ****                             bufferDisplay1.flagKeyboard = 2;
 4033              		.loc 1 1009 0
 4034 0f36 0223     		movs	r3, #2
 4035 0f38 334A     		ldr	r2, .L288+32
 4036 0f3a 1370     		strb	r3, [r2]
1010:.\main.c      ****                             SetPicture(1,DISPLAY_INTRODUZCA_VALOR);                            
 4037              		.loc 1 1010 0
 4038 0f3c 2A4A     		ldr	r2, .L288
 4039 0f3e 82F80031 		strb	r3, [r2, #256]
1011:.\main.c      ****                         break;
 4040              		.loc 1 1011 0
 4041 0f42 0120     		movs	r0, #1
 4042 0f44 0621     		movs	r1, #6
 4043 0f46 FFF7FEFF 		bl	SetPicture
 4044              	.LVL399:
1012:.\main.c      ****                         case 0x58:  //Hora y Fecha
 4045              		.loc 1 1012 0
 4046 0f4a 1DE0     		b	.L234
 4047              	.L235:
1014:.\main.c      ****                             numberKeys1 = 0;   
 4048              		.loc 1 1014 0
 4049 0f4c 1222     		movs	r2, #18
 4050 0f4e 284B     		ldr	r3, .L288+8
 4051 0f50 1A60     		str	r2, [r3]
1015:.\main.c      ****                             bufferDisplay1.flagKeyboard = 4;
 4052              		.loc 1 1015 0
 4053 0f52 0022     		movs	r2, #0
 4054 0f54 2A4B     		ldr	r3, .L288+24
 4055 0f56 1A70     		strb	r2, [r3]
1016:.\main.c      ****                             SetPicture(1,DISPLAY_CONFIGURAR_FECHA_HORA);                           
 4056              		.loc 1 1016 0
 4057 0f58 0422     		movs	r2, #4
 4058 0f5a 234B     		ldr	r3, .L288
 4059 0f5c 83F80021 		strb	r2, [r3, #256]
1017:.\main.c      ****                         break;
 4060              		.loc 1 1017 0
 4061 0f60 0120     		movs	r0, #1
 4062 0f62 3E21     		movs	r1, #62
 4063 0f64 FFF7FEFF 		bl	SetPicture
 4064              	.LVL400:
1018:.\main.c      ****                         case 0x7E:  //Pantalla Inicial                                             
 4065              		.loc 1 1018 0
 4066 0f68 0EE0     		b	.L234
 4067              	.L239:
1020:.\main.c      ****                             flowDisplay1 = 0;
 4068              		.loc 1 1020 0
 4069 0f6a 0120     		movs	r0, #1
 4070 0f6c 0146     		mov	r1, r0
 4071 0f6e FFF7FEFF 		bl	SetPicture
 4072              	.LVL401:
1021:.\main.c      ****                         break;
 4073              		.loc 1 1021 0
 4074 0f72 0022     		movs	r2, #0
 4075 0f74 1E4B     		ldr	r3, .L288+8
 4076 0f76 1A60     		str	r2, [r3]
1022:.\main.c      ****                         case 0x94:  //Pantalla Inicial                                             
 4077              		.loc 1 1022 0
ARM GAS  C:\Users\RECEPC~1\AppData\Local\Temp\cc79eMMA.s 			page 109


 4078 0f78 06E0     		b	.L234
 4079              	.L241:
1024:.\main.c      ****                             flowDisplay1 = 0;
 4080              		.loc 1 1024 0
 4081 0f7a 0120     		movs	r0, #1
 4082 0f7c 0146     		mov	r1, r0
 4083 0f7e FFF7FEFF 		bl	SetPicture
 4084              	.LVL402:
1025:.\main.c      ****                         break;
 4085              		.loc 1 1025 0
 4086 0f82 0022     		movs	r2, #0
 4087 0f84 1A4B     		ldr	r3, .L288+8
 4088 0f86 1A60     		str	r2, [r3]
 4089              	.L234:
1029:.\main.c      ****                 Display1_ClearRxBuffer();
 4090              		.loc 1 1029 0
 4091 0f88 0A20     		movs	r0, #10
 4092 0f8a FFF7FEFF 		bl	CyDelay
 4093              	.LVL403:
1030:.\main.c      ****             }                        
 4094              		.loc 1 1030 0
 4095 0f8e FFF7FEFF 		bl	Display1_ClearRxBuffer
 4096              	.LVL404:
 4097 0f92 B9E1     		b	.L83
 4098              	.L102:
1035:.\main.c      ****                 if((Display1_rxBuffer[0]==0xAA) && (Display1_rxBuffer[6]==0xC3) && (Display1_rxBuff
 4099              		.loc 1 1035 0
 4100 0f94 FFF7FEFF 		bl	Display1_GetRxBufferSize
 4101              	.LVL405:
 4102 0f98 0828     		cmp	r0, #8
 4103 0f9a 40F0B581 		bne	.L83
1036:.\main.c      ****                     switch(Display1_rxBuffer[3]){
 4104              		.loc 1 1036 0
 4105 0f9e 174B     		ldr	r3, .L288+20
 4106 0fa0 1B78     		ldrb	r3, [r3]	@ zero_extendqisi2
 4107 0fa2 DBB2     		uxtb	r3, r3
 4108 0fa4 AA2B     		cmp	r3, #170
 4109 0fa6 56D1     		bne	.L242
1036:.\main.c      ****                     switch(Display1_rxBuffer[3]){
 4110              		.loc 1 1036 0 is_stmt 0 discriminator 1
 4111 0fa8 144B     		ldr	r3, .L288+20
 4112 0faa 9B79     		ldrb	r3, [r3, #6]	@ zero_extendqisi2
 4113 0fac DBB2     		uxtb	r3, r3
 4114 0fae C32B     		cmp	r3, #195
 4115 0fb0 51D1     		bne	.L242
1036:.\main.c      ****                     switch(Display1_rxBuffer[3]){
 4116              		.loc 1 1036 0 discriminator 2
 4117 0fb2 124B     		ldr	r3, .L288+20
 4118 0fb4 DB79     		ldrb	r3, [r3, #7]	@ zero_extendqisi2
 4119 0fb6 DBB2     		uxtb	r3, r3
 4120 0fb8 3C2B     		cmp	r3, #60
 4121 0fba 4CD1     		bne	.L242
1037:.\main.c      ****                         case 0x38:  //No funcionan  
 4122              		.loc 1 1037 0 is_stmt 1
 4123 0fbc 0F4B     		ldr	r3, .L288+20
 4124 0fbe DB78     		ldrb	r3, [r3, #3]	@ zero_extendqisi2
 4125 0fc0 DBB2     		uxtb	r3, r3
ARM GAS  C:\Users\RECEPC~1\AppData\Local\Temp\cc79eMMA.s 			page 110


 4126 0fc2 392B     		cmp	r3, #57
 4127 0fc4 22D0     		beq	.L243
 4128 0fc6 02D8     		bhi	.L244
 4129 0fc8 382B     		cmp	r3, #56
 4130 0fca 05D0     		beq	.L245
 4131 0fcc 43E0     		b	.L242
 4132              	.L244:
 4133 0fce 7E2B     		cmp	r3, #126
 4134 0fd0 32D0     		beq	.L246
 4135 0fd2 942B     		cmp	r3, #148
 4136 0fd4 38D0     		beq	.L247
 4137 0fd6 3EE0     		b	.L242
 4138              	.L245:
1039:.\main.c      ****                             SetPicture(1,DISPLAY_IMPRESORA_NO_FUNCIONANDO);                        
 4139              		.loc 1 1039 0
 4140 0fd8 1122     		movs	r2, #17
 4141 0fda 054B     		ldr	r3, .L288+8
 4142 0fdc 1A60     		str	r2, [r3]
1040:.\main.c      ****                         break;
 4143              		.loc 1 1040 0
 4144 0fde 0120     		movs	r0, #1
 4145 0fe0 6721     		movs	r1, #103
 4146 0fe2 FFF7FEFF 		bl	SetPicture
 4147              	.LVL406:
1041:.\main.c      ****                         case 0x39:  //Si funcionan
 4148              		.loc 1 1041 0
 4149 0fe6 36E0     		b	.L242
 4150              	.L289:
 4151              		.align	2
 4152              	.L288:
 4153 0fe8 00000000 		.word	bufferDisplay1
 4154 0fec 00000000 		.word	hiddenKeys
 4155 0ff0 00000000 		.word	flowDisplay1
 4156 0ff4 00000000 		.word	configAccess
 4157 0ff8 00000000 		.word	.LANCHOR0
 4158 0ffc 00000000 		.word	Display1_rxBuffer
 4159 1000 00000000 		.word	numberKeys1
 4160 1004 00000000 		.word	controlChar
 4161 1008 00000000 		.word	pumpGap
 4162              	.L243:
1043:.\main.c      ****                             printPortA = 1;
 4163              		.loc 1 1043 0
 4164 100c 0F22     		movs	r2, #15
 4165 100e 514B     		ldr	r3, .L290
 4166 1010 1A60     		str	r2, [r3]
1044:.\main.c      ****                             printPortB = 2;
 4167              		.loc 1 1044 0
 4168 1012 0124     		movs	r4, #1
 4169 1014 504B     		ldr	r3, .L290+4
 4170 1016 1C70     		strb	r4, [r3]
1045:.\main.c      ****                             EEPROM_1_WriteByte(printPortA,8);
 4171              		.loc 1 1045 0
 4172 1018 504D     		ldr	r5, .L290+8
 4173 101a 0223     		movs	r3, #2
 4174 101c 2B70     		strb	r3, [r5]
1046:.\main.c      ****                             EEPROM_1_WriteByte(printPortB,9);
 4175              		.loc 1 1046 0
ARM GAS  C:\Users\RECEPC~1\AppData\Local\Temp\cc79eMMA.s 			page 111


 4176 101e 2046     		mov	r0, r4
 4177 1020 0821     		movs	r1, #8
 4178 1022 FFF7FEFF 		bl	EEPROM_1_WriteByte
 4179              	.LVL407:
1047:.\main.c      ****                             SetPicture(1,DISPLAY_CONFIGURACIONES);
 4180              		.loc 1 1047 0
 4181 1026 2878     		ldrb	r0, [r5]	@ zero_extendqisi2
 4182 1028 0921     		movs	r1, #9
 4183 102a FFF7FEFF 		bl	EEPROM_1_WriteByte
 4184              	.LVL408:
1048:.\main.c      ****                         break;
 4185              		.loc 1 1048 0
 4186 102e 2046     		mov	r0, r4
 4187 1030 5A21     		movs	r1, #90
 4188 1032 FFF7FEFF 		bl	SetPicture
 4189              	.LVL409:
1049:.\main.c      ****                                                
 4190              		.loc 1 1049 0
 4191 1036 0EE0     		b	.L242
 4192              	.L246:
1052:.\main.c      ****                             flowDisplay1 = 0;
 4193              		.loc 1 1052 0
 4194 1038 0120     		movs	r0, #1
 4195 103a 0146     		mov	r1, r0
 4196 103c FFF7FEFF 		bl	SetPicture
 4197              	.LVL410:
1053:.\main.c      ****                         break;
 4198              		.loc 1 1053 0
 4199 1040 0022     		movs	r2, #0
 4200 1042 444B     		ldr	r3, .L290
 4201 1044 1A60     		str	r2, [r3]
1054:.\main.c      ****                         case 0x94:  //Pantalla Inicial                                             
 4202              		.loc 1 1054 0
 4203 1046 06E0     		b	.L242
 4204              	.L247:
1056:.\main.c      ****                             flowDisplay1 = 0;
 4205              		.loc 1 1056 0
 4206 1048 0120     		movs	r0, #1
 4207 104a 0146     		mov	r1, r0
 4208 104c FFF7FEFF 		bl	SetPicture
 4209              	.LVL411:
1057:.\main.c      ****                         break;
 4210              		.loc 1 1057 0
 4211 1050 0022     		movs	r2, #0
 4212 1052 404B     		ldr	r3, .L290
 4213 1054 1A60     		str	r2, [r3]
 4214              	.L242:
1061:.\main.c      ****                 Display1_ClearRxBuffer();
 4215              		.loc 1 1061 0
 4216 1056 0A20     		movs	r0, #10
 4217 1058 FFF7FEFF 		bl	CyDelay
 4218              	.LVL412:
1062:.\main.c      ****             }                        
 4219              		.loc 1 1062 0
 4220 105c FFF7FEFF 		bl	Display1_ClearRxBuffer
 4221              	.LVL413:
 4222 1060 52E1     		b	.L83
ARM GAS  C:\Users\RECEPC~1\AppData\Local\Temp\cc79eMMA.s 			page 112


 4223              	.L103:
1067:.\main.c      ****                 if((Display1_rxBuffer[0]==0xAA) && (Display1_rxBuffer[6]==0xC3) && (Display1_rxBuff
 4224              		.loc 1 1067 0
 4225 1062 FFF7FEFF 		bl	Display1_GetRxBufferSize
 4226              	.LVL414:
 4227 1066 0828     		cmp	r0, #8
 4228 1068 40F04E81 		bne	.L83
1068:.\main.c      ****                     switch(Display1_rxBuffer[3]){
 4229              		.loc 1 1068 0
 4230 106c 3C4B     		ldr	r3, .L290+12
 4231 106e 1B78     		ldrb	r3, [r3]	@ zero_extendqisi2
 4232 1070 DBB2     		uxtb	r3, r3
 4233 1072 AA2B     		cmp	r3, #170
 4234 1074 68D1     		bne	.L248
1068:.\main.c      ****                     switch(Display1_rxBuffer[3]){
 4235              		.loc 1 1068 0 is_stmt 0 discriminator 1
 4236 1076 3A4B     		ldr	r3, .L290+12
 4237 1078 9B79     		ldrb	r3, [r3, #6]	@ zero_extendqisi2
 4238 107a DBB2     		uxtb	r3, r3
 4239 107c C32B     		cmp	r3, #195
 4240 107e 63D1     		bne	.L248
1068:.\main.c      ****                     switch(Display1_rxBuffer[3]){
 4241              		.loc 1 1068 0 discriminator 2
 4242 1080 374B     		ldr	r3, .L290+12
 4243 1082 DB79     		ldrb	r3, [r3, #7]	@ zero_extendqisi2
 4244 1084 DBB2     		uxtb	r3, r3
 4245 1086 3C2B     		cmp	r3, #60
 4246 1088 5ED1     		bne	.L248
1069:.\main.c      ****                         case 0x8C:  //1 no funciona  
 4247              		.loc 1 1069 0 is_stmt 1
 4248 108a 354B     		ldr	r3, .L290+12
 4249 108c DB78     		ldrb	r3, [r3, #3]	@ zero_extendqisi2
 4250 108e 7E3B     		subs	r3, r3, #126
 4251 1090 162B     		cmp	r3, #22
 4252 1092 59D8     		bhi	.L248
 4253 1094 DFE803F0 		tbb	[pc, r3]
 4254              	.L250:
 4255 1098 49       		.byte	(.L249-.L250)/2
 4256 1099 58       		.byte	(.L248-.L250)/2
 4257 109a 58       		.byte	(.L248-.L250)/2
 4258 109b 58       		.byte	(.L248-.L250)/2
 4259 109c 58       		.byte	(.L248-.L250)/2
 4260 109d 58       		.byte	(.L248-.L250)/2
 4261 109e 58       		.byte	(.L248-.L250)/2
 4262 109f 58       		.byte	(.L248-.L250)/2
 4263 10a0 58       		.byte	(.L248-.L250)/2
 4264 10a1 58       		.byte	(.L248-.L250)/2
 4265 10a2 58       		.byte	(.L248-.L250)/2
 4266 10a3 58       		.byte	(.L248-.L250)/2
 4267 10a4 58       		.byte	(.L248-.L250)/2
 4268 10a5 58       		.byte	(.L248-.L250)/2
 4269 10a6 0C       		.byte	(.L251-.L250)/2
 4270 10a7 20       		.byte	(.L252-.L250)/2
 4271 10a8 35       		.byte	(.L253-.L250)/2
 4272 10a9 58       		.byte	(.L248-.L250)/2
 4273 10aa 58       		.byte	(.L248-.L250)/2
 4274 10ab 58       		.byte	(.L248-.L250)/2
ARM GAS  C:\Users\RECEPC~1\AppData\Local\Temp\cc79eMMA.s 			page 113


 4275 10ac 58       		.byte	(.L248-.L250)/2
 4276 10ad 58       		.byte	(.L248-.L250)/2
 4277 10ae 51       		.byte	(.L254-.L250)/2
 4278 10af 00       		.p2align 1
 4279              	.L251:
1071:.\main.c      ****                             printPortA = 2;
 4280              		.loc 1 1071 0
 4281 10b0 0F22     		movs	r2, #15
 4282 10b2 284B     		ldr	r3, .L290
 4283 10b4 1A60     		str	r2, [r3]
1072:.\main.c      ****                             printPortB = 2;
 4284              		.loc 1 1072 0
 4285 10b6 0220     		movs	r0, #2
 4286 10b8 274B     		ldr	r3, .L290+4
 4287 10ba 1870     		strb	r0, [r3]
1073:.\main.c      ****                             EEPROM_1_WriteByte(printPortA,8);
 4288              		.loc 1 1073 0
 4289 10bc 274C     		ldr	r4, .L290+8
 4290 10be 2070     		strb	r0, [r4]
1074:.\main.c      ****                             EEPROM_1_WriteByte(printPortB,9);
 4291              		.loc 1 1074 0
 4292 10c0 0821     		movs	r1, #8
 4293 10c2 FFF7FEFF 		bl	EEPROM_1_WriteByte
 4294              	.LVL415:
1075:.\main.c      ****                             SetPicture(1,DISPLAY_CONFIGURACIONES);                            
 4295              		.loc 1 1075 0
 4296 10c6 2078     		ldrb	r0, [r4]	@ zero_extendqisi2
 4297 10c8 0921     		movs	r1, #9
 4298 10ca FFF7FEFF 		bl	EEPROM_1_WriteByte
 4299              	.LVL416:
1076:.\main.c      ****                         break;
 4300              		.loc 1 1076 0
 4301 10ce 0120     		movs	r0, #1
 4302 10d0 5A21     		movs	r1, #90
 4303 10d2 FFF7FEFF 		bl	SetPicture
 4304              	.LVL417:
1077:.\main.c      ****                         case 0x8D:  //2 no funciona
 4305              		.loc 1 1077 0
 4306 10d6 37E0     		b	.L248
 4307              	.L252:
1079:.\main.c      ****                             printPortA = 1;
 4308              		.loc 1 1079 0
 4309 10d8 0F22     		movs	r2, #15
 4310 10da 1E4B     		ldr	r3, .L290
 4311 10dc 1A60     		str	r2, [r3]
1080:.\main.c      ****                             printPortB = 1;
 4312              		.loc 1 1080 0
 4313 10de 0124     		movs	r4, #1
 4314 10e0 1D4B     		ldr	r3, .L290+4
 4315 10e2 1C70     		strb	r4, [r3]
1081:.\main.c      ****                             EEPROM_1_WriteByte(printPortA,8);
 4316              		.loc 1 1081 0
 4317 10e4 1D4D     		ldr	r5, .L290+8
 4318 10e6 2C70     		strb	r4, [r5]
1082:.\main.c      ****                             EEPROM_1_WriteByte(printPortB,9);
 4319              		.loc 1 1082 0
 4320 10e8 2046     		mov	r0, r4
ARM GAS  C:\Users\RECEPC~1\AppData\Local\Temp\cc79eMMA.s 			page 114


 4321 10ea 0821     		movs	r1, #8
 4322 10ec FFF7FEFF 		bl	EEPROM_1_WriteByte
 4323              	.LVL418:
1083:.\main.c      ****                             SetPicture(1,DISPLAY_CONFIGURACIONES); 
 4324              		.loc 1 1083 0
 4325 10f0 2878     		ldrb	r0, [r5]	@ zero_extendqisi2
 4326 10f2 0921     		movs	r1, #9
 4327 10f4 FFF7FEFF 		bl	EEPROM_1_WriteByte
 4328              	.LVL419:
1084:.\main.c      ****                         break;
 4329              		.loc 1 1084 0
 4330 10f8 2046     		mov	r0, r4
 4331 10fa 5A21     		movs	r1, #90
 4332 10fc FFF7FEFF 		bl	SetPicture
 4333              	.LVL420:
1085:.\main.c      ****                             
 4334              		.loc 1 1085 0
 4335 1100 22E0     		b	.L248
 4336              	.L253:
1088:.\main.c      ****                             printPortA = 0;
 4337              		.loc 1 1088 0
 4338 1102 0F22     		movs	r2, #15
 4339 1104 134B     		ldr	r3, .L290
 4340 1106 1A60     		str	r2, [r3]
1089:.\main.c      ****                             printPortB = 0;
 4341              		.loc 1 1089 0
 4342 1108 0020     		movs	r0, #0
 4343 110a 134B     		ldr	r3, .L290+4
 4344 110c 1870     		strb	r0, [r3]
1090:.\main.c      ****                             EEPROM_1_WriteByte(printPortA,8);
 4345              		.loc 1 1090 0
 4346 110e 134C     		ldr	r4, .L290+8
 4347 1110 2070     		strb	r0, [r4]
1091:.\main.c      ****                             EEPROM_1_WriteByte(printPortB,9);
 4348              		.loc 1 1091 0
 4349 1112 0821     		movs	r1, #8
 4350 1114 FFF7FEFF 		bl	EEPROM_1_WriteByte
 4351              	.LVL421:
1092:.\main.c      ****                             SetPicture(1,DISPLAY_CONFIGURACIONES); 
 4352              		.loc 1 1092 0
 4353 1118 2078     		ldrb	r0, [r4]	@ zero_extendqisi2
 4354 111a 0921     		movs	r1, #9
 4355 111c FFF7FEFF 		bl	EEPROM_1_WriteByte
 4356              	.LVL422:
1093:.\main.c      ****                         break;
 4357              		.loc 1 1093 0
 4358 1120 0120     		movs	r0, #1
 4359 1122 5A21     		movs	r1, #90
 4360 1124 FFF7FEFF 		bl	SetPicture
 4361              	.LVL423:
1094:.\main.c      ****                                                
 4362              		.loc 1 1094 0
 4363 1128 0EE0     		b	.L248
 4364              	.L249:
1097:.\main.c      ****                             flowDisplay1 = 0;
 4365              		.loc 1 1097 0
 4366 112a 0120     		movs	r0, #1
ARM GAS  C:\Users\RECEPC~1\AppData\Local\Temp\cc79eMMA.s 			page 115


 4367 112c 0146     		mov	r1, r0
 4368 112e FFF7FEFF 		bl	SetPicture
 4369              	.LVL424:
1098:.\main.c      ****                         break;
 4370              		.loc 1 1098 0
 4371 1132 0022     		movs	r2, #0
 4372 1134 074B     		ldr	r3, .L290
 4373 1136 1A60     		str	r2, [r3]
1099:.\main.c      ****                         case 0x94:  //Pantalla Inicial                                             
 4374              		.loc 1 1099 0
 4375 1138 06E0     		b	.L248
 4376              	.L254:
1101:.\main.c      ****                             flowDisplay1 = 0;
 4377              		.loc 1 1101 0
 4378 113a 0120     		movs	r0, #1
 4379 113c 0146     		mov	r1, r0
 4380 113e FFF7FEFF 		bl	SetPicture
 4381              	.LVL425:
1102:.\main.c      ****                         break;
 4382              		.loc 1 1102 0
 4383 1142 0022     		movs	r2, #0
 4384 1144 034B     		ldr	r3, .L290
 4385 1146 1A60     		str	r2, [r3]
 4386              	.L248:
1106:.\main.c      ****                 Display1_ClearRxBuffer();
 4387              		.loc 1 1106 0
 4388 1148 0A20     		movs	r0, #10
 4389 114a FFF7FEFF 		bl	CyDelay
 4390              	.LVL426:
1107:.\main.c      ****             }                        
 4391              		.loc 1 1107 0
 4392 114e FFF7FEFF 		bl	Display1_ClearRxBuffer
 4393              	.LVL427:
 4394 1152 D9E0     		b	.L83
 4395              	.L291:
 4396              		.align	2
 4397              	.L290:
 4398 1154 00000000 		.word	flowDisplay1
 4399 1158 00000000 		.word	printPortA
 4400 115c 00000000 		.word	printPortB
 4401 1160 00000000 		.word	Display1_rxBuffer
 4402              	.L104:
1112:.\main.c      ****                 WriteLCD(1,(((timeDownHandle[1]&0x10)>>4)+48),13,8,1,0x0000,'N');
 4403              		.loc 1 1112 0
 4404 1164 FFF7FEFF 		bl	leer_hora
 4405              	.LVL428:
 4406 1168 0128     		cmp	r0, #1
 4407 116a 3CD1     		bne	.L255
1113:.\main.c      ****                 WriteLCD(1,((timeDownHandle[1]&0x0F)+48),13,9,1,0x0000,'N');
 4408              		.loc 1 1113 0
 4409 116c 674F     		ldr	r7, .L292
 4410 116e 7978     		ldrb	r1, [r7, #1]	@ zero_extendqisi2
 4411 1170 C1F30011 		ubfx	r1, r1, #4, #1
 4412 1174 3031     		adds	r1, r1, #48
 4413 1176 0124     		movs	r4, #1
 4414 1178 0094     		str	r4, [sp]
 4415 117a 0026     		movs	r6, #0
ARM GAS  C:\Users\RECEPC~1\AppData\Local\Temp\cc79eMMA.s 			page 116


 4416 117c 0196     		str	r6, [sp, #4]
 4417 117e 4E25     		movs	r5, #78
 4418 1180 0295     		str	r5, [sp, #8]
 4419 1182 2046     		mov	r0, r4
 4420 1184 C9B2     		uxtb	r1, r1
 4421 1186 0D22     		movs	r2, #13
 4422 1188 0823     		movs	r3, #8
 4423 118a FFF7FEFF 		bl	WriteLCD
 4424              	.LVL429:
1114:.\main.c      ****                 WriteLCD(1,':',13,10,1,0x0000,'N');
 4425              		.loc 1 1114 0
 4426 118e 7978     		ldrb	r1, [r7, #1]	@ zero_extendqisi2
 4427 1190 01F00F01 		and	r1, r1, #15
 4428 1194 0094     		str	r4, [sp]
 4429 1196 0196     		str	r6, [sp, #4]
 4430 1198 0295     		str	r5, [sp, #8]
 4431 119a 2046     		mov	r0, r4
 4432 119c 3031     		adds	r1, r1, #48
 4433 119e 0D22     		movs	r2, #13
 4434 11a0 0923     		movs	r3, #9
 4435 11a2 FFF7FEFF 		bl	WriteLCD
 4436              	.LVL430:
1115:.\main.c      ****                 WriteLCD(1,(((timeDownHandle[0]&0xF0)>>4)+48),13,11,1,0x0000,'N');
 4437              		.loc 1 1115 0
 4438 11a6 0094     		str	r4, [sp]
 4439 11a8 0196     		str	r6, [sp, #4]
 4440 11aa 0295     		str	r5, [sp, #8]
 4441 11ac 2046     		mov	r0, r4
 4442 11ae 3A21     		movs	r1, #58
 4443 11b0 0D22     		movs	r2, #13
 4444 11b2 0A23     		movs	r3, #10
 4445 11b4 FFF7FEFF 		bl	WriteLCD
 4446              	.LVL431:
1116:.\main.c      ****                 WriteLCD(1,((timeDownHandle[0]&0x0F)+48),13,12,1,0x0000,'N');               
 4447              		.loc 1 1116 0
 4448 11b8 3978     		ldrb	r1, [r7]	@ zero_extendqisi2
 4449 11ba 0909     		lsrs	r1, r1, #4
 4450 11bc 0094     		str	r4, [sp]
 4451 11be 0196     		str	r6, [sp, #4]
 4452 11c0 0295     		str	r5, [sp, #8]
 4453 11c2 2046     		mov	r0, r4
 4454 11c4 3031     		adds	r1, r1, #48
 4455 11c6 0D22     		movs	r2, #13
 4456 11c8 0B23     		movs	r3, #11
 4457 11ca FFF7FEFF 		bl	WriteLCD
 4458              	.LVL432:
1117:.\main.c      ****             }
 4459              		.loc 1 1117 0
 4460 11ce 3978     		ldrb	r1, [r7]	@ zero_extendqisi2
 4461 11d0 01F00F01 		and	r1, r1, #15
 4462 11d4 0094     		str	r4, [sp]
 4463 11d6 0196     		str	r6, [sp, #4]
 4464 11d8 0295     		str	r5, [sp, #8]
 4465 11da 2046     		mov	r0, r4
 4466 11dc 3031     		adds	r1, r1, #48
 4467 11de 0D22     		movs	r2, #13
 4468 11e0 0C23     		movs	r3, #12
ARM GAS  C:\Users\RECEPC~1\AppData\Local\Temp\cc79eMMA.s 			page 117


 4469 11e2 FFF7FEFF 		bl	WriteLCD
 4470              	.LVL433:
 4471              	.L255:
1119:.\main.c      ****                 WriteLCD(1,(((dateDownHandle[0]&0x30)>>4)+48),21,8,1,0x0000,'N');
 4472              		.loc 1 1119 0
 4473 11e6 FFF7FEFF 		bl	leer_fecha
 4474              	.LVL434:
 4475 11ea 0128     		cmp	r0, #1
 4476 11ec 5DD1     		bne	.L256
1120:.\main.c      ****                 WriteLCD(1,((dateDownHandle[0]&0x0F)+48),21,9,1,0x0000,'N');
 4477              		.loc 1 1120 0
 4478 11ee 484F     		ldr	r7, .L292+4
 4479 11f0 3978     		ldrb	r1, [r7]	@ zero_extendqisi2
 4480 11f2 C1F30111 		ubfx	r1, r1, #4, #2
 4481 11f6 0124     		movs	r4, #1
 4482 11f8 0094     		str	r4, [sp]
 4483 11fa 0026     		movs	r6, #0
 4484 11fc 0196     		str	r6, [sp, #4]
 4485 11fe 4E25     		movs	r5, #78
 4486 1200 0295     		str	r5, [sp, #8]
 4487 1202 2046     		mov	r0, r4
 4488 1204 3031     		adds	r1, r1, #48
 4489 1206 1522     		movs	r2, #21
 4490 1208 0823     		movs	r3, #8
 4491 120a FFF7FEFF 		bl	WriteLCD
 4492              	.LVL435:
1121:.\main.c      ****                 WriteLCD(1,'/',21,10,1,0x0000,'N');
 4493              		.loc 1 1121 0
 4494 120e 3978     		ldrb	r1, [r7]	@ zero_extendqisi2
 4495 1210 01F00F01 		and	r1, r1, #15
 4496 1214 0094     		str	r4, [sp]
 4497 1216 0196     		str	r6, [sp, #4]
 4498 1218 0295     		str	r5, [sp, #8]
 4499 121a 2046     		mov	r0, r4
 4500 121c 3031     		adds	r1, r1, #48
 4501 121e 1522     		movs	r2, #21
 4502 1220 0923     		movs	r3, #9
 4503 1222 FFF7FEFF 		bl	WriteLCD
 4504              	.LVL436:
1122:.\main.c      ****                 WriteLCD(1,(((dateDownHandle[1]&0x10)>>4)+48),21,11,1,0x0000,'N');
 4505              		.loc 1 1122 0
 4506 1226 0094     		str	r4, [sp]
 4507 1228 0196     		str	r6, [sp, #4]
 4508 122a 0295     		str	r5, [sp, #8]
 4509 122c 2046     		mov	r0, r4
 4510 122e 2F21     		movs	r1, #47
 4511 1230 1522     		movs	r2, #21
 4512 1232 0A23     		movs	r3, #10
 4513 1234 FFF7FEFF 		bl	WriteLCD
 4514              	.LVL437:
1123:.\main.c      ****                 WriteLCD(1,((dateDownHandle[1]&0x0F)+48),21,12,1,0x0000,'N');
 4515              		.loc 1 1123 0
 4516 1238 7978     		ldrb	r1, [r7, #1]	@ zero_extendqisi2
 4517 123a C1F30011 		ubfx	r1, r1, #4, #1
 4518 123e 3031     		adds	r1, r1, #48
 4519 1240 0094     		str	r4, [sp]
 4520 1242 0196     		str	r6, [sp, #4]
ARM GAS  C:\Users\RECEPC~1\AppData\Local\Temp\cc79eMMA.s 			page 118


 4521 1244 0295     		str	r5, [sp, #8]
 4522 1246 2046     		mov	r0, r4
 4523 1248 C9B2     		uxtb	r1, r1
 4524 124a 1522     		movs	r2, #21
 4525 124c 0B23     		movs	r3, #11
 4526 124e FFF7FEFF 		bl	WriteLCD
 4527              	.LVL438:
1124:.\main.c      ****                 WriteLCD(1,'/',21,13,1,0x0000,'N');
 4528              		.loc 1 1124 0
 4529 1252 7978     		ldrb	r1, [r7, #1]	@ zero_extendqisi2
 4530 1254 01F00F01 		and	r1, r1, #15
 4531 1258 0094     		str	r4, [sp]
 4532 125a 0196     		str	r6, [sp, #4]
 4533 125c 0295     		str	r5, [sp, #8]
 4534 125e 2046     		mov	r0, r4
 4535 1260 3031     		adds	r1, r1, #48
 4536 1262 1522     		movs	r2, #21
 4537 1264 0C23     		movs	r3, #12
 4538 1266 FFF7FEFF 		bl	WriteLCD
 4539              	.LVL439:
1125:.\main.c      ****                 WriteLCD(1,(((dateDownHandle[2]&0xF0)>>4)+48),21,14,1,0x0000,'N');
 4540              		.loc 1 1125 0
 4541 126a 0094     		str	r4, [sp]
 4542 126c 0196     		str	r6, [sp, #4]
 4543 126e 0295     		str	r5, [sp, #8]
 4544 1270 2046     		mov	r0, r4
 4545 1272 2F21     		movs	r1, #47
 4546 1274 1522     		movs	r2, #21
 4547 1276 0D23     		movs	r3, #13
 4548 1278 FFF7FEFF 		bl	WriteLCD
 4549              	.LVL440:
1126:.\main.c      ****                 WriteLCD(1,((dateDownHandle[2]&0x0F)+48),21,15,1,0x0000,'N');
 4550              		.loc 1 1126 0
 4551 127c B978     		ldrb	r1, [r7, #2]	@ zero_extendqisi2
 4552 127e 0909     		lsrs	r1, r1, #4
 4553 1280 0094     		str	r4, [sp]
 4554 1282 0196     		str	r6, [sp, #4]
 4555 1284 0295     		str	r5, [sp, #8]
 4556 1286 2046     		mov	r0, r4
 4557 1288 3031     		adds	r1, r1, #48
 4558 128a 1522     		movs	r2, #21
 4559 128c 0E23     		movs	r3, #14
 4560 128e FFF7FEFF 		bl	WriteLCD
 4561              	.LVL441:
1127:.\main.c      ****             }
 4562              		.loc 1 1127 0
 4563 1292 B978     		ldrb	r1, [r7, #2]	@ zero_extendqisi2
 4564 1294 01F00F01 		and	r1, r1, #15
 4565 1298 0094     		str	r4, [sp]
 4566 129a 0196     		str	r6, [sp, #4]
 4567 129c 0295     		str	r5, [sp, #8]
 4568 129e 2046     		mov	r0, r4
 4569 12a0 3031     		adds	r1, r1, #48
 4570 12a2 1522     		movs	r2, #21
 4571 12a4 0F23     		movs	r3, #15
 4572 12a6 FFF7FEFF 		bl	WriteLCD
 4573              	.LVL442:
ARM GAS  C:\Users\RECEPC~1\AppData\Local\Temp\cc79eMMA.s 			page 119


 4574              	.L256:
1129:.\main.c      ****                 if((Display1_rxBuffer[0]==0xAA) && (Display1_rxBuffer[6]==0xC3) && (Display1_rxBuff
 4575              		.loc 1 1129 0
 4576 12aa FFF7FEFF 		bl	Display1_GetRxBufferSize
 4577              	.LVL443:
 4578 12ae 0828     		cmp	r0, #8
 4579 12b0 2AD1     		bne	.L83
1130:.\main.c      ****                     switch(Display1_rxBuffer[3]){                                                  
 4580              		.loc 1 1130 0
 4581 12b2 184B     		ldr	r3, .L292+8
 4582 12b4 1B78     		ldrb	r3, [r3]	@ zero_extendqisi2
 4583 12b6 DBB2     		uxtb	r3, r3
 4584 12b8 AA2B     		cmp	r3, #170
 4585 12ba 20D1     		bne	.L257
1130:.\main.c      ****                     switch(Display1_rxBuffer[3]){                                                  
 4586              		.loc 1 1130 0 is_stmt 0 discriminator 1
 4587 12bc 154B     		ldr	r3, .L292+8
 4588 12be 9B79     		ldrb	r3, [r3, #6]	@ zero_extendqisi2
 4589 12c0 DBB2     		uxtb	r3, r3
 4590 12c2 C32B     		cmp	r3, #195
 4591 12c4 1BD1     		bne	.L257
1130:.\main.c      ****                     switch(Display1_rxBuffer[3]){                                                  
 4592              		.loc 1 1130 0 discriminator 2
 4593 12c6 134B     		ldr	r3, .L292+8
 4594 12c8 DB79     		ldrb	r3, [r3, #7]	@ zero_extendqisi2
 4595 12ca DBB2     		uxtb	r3, r3
 4596 12cc 3C2B     		cmp	r3, #60
 4597 12ce 16D1     		bne	.L257
1131:.\main.c      ****                         case 0x7E:  //Pantalla Inicial  
 4598              		.loc 1 1131 0 is_stmt 1
 4599 12d0 104B     		ldr	r3, .L292+8
 4600 12d2 DB78     		ldrb	r3, [r3, #3]	@ zero_extendqisi2
 4601 12d4 DBB2     		uxtb	r3, r3
 4602 12d6 7E2B     		cmp	r3, #126
 4603 12d8 02D0     		beq	.L258
 4604 12da 942B     		cmp	r3, #148
 4605 12dc 08D0     		beq	.L259
 4606 12de 0EE0     		b	.L257
 4607              	.L258:
1133:.\main.c      ****                             SetPicture(1,DISPLAY_INICIO0);                            
 4608              		.loc 1 1133 0
 4609 12e0 0022     		movs	r2, #0
 4610 12e2 0D4B     		ldr	r3, .L292+12
 4611 12e4 1A60     		str	r2, [r3]
1134:.\main.c      ****                         break;
 4612              		.loc 1 1134 0
 4613 12e6 0120     		movs	r0, #1
 4614 12e8 0146     		mov	r1, r0
 4615 12ea FFF7FEFF 		bl	SetPicture
 4616              	.LVL444:
1135:.\main.c      ****                         case 0x94:  //Pantalla Inicial    
 4617              		.loc 1 1135 0
 4618 12ee 06E0     		b	.L257
 4619              	.L259:
1137:.\main.c      ****                             SetPicture(1,DISPLAY_INICIO0);                            
 4620              		.loc 1 1137 0
 4621 12f0 0022     		movs	r2, #0
ARM GAS  C:\Users\RECEPC~1\AppData\Local\Temp\cc79eMMA.s 			page 120


 4622 12f2 094B     		ldr	r3, .L292+12
 4623 12f4 1A60     		str	r2, [r3]
1138:.\main.c      ****                         break;
 4624              		.loc 1 1138 0
 4625 12f6 0120     		movs	r0, #1
 4626 12f8 0146     		mov	r1, r0
 4627 12fa FFF7FEFF 		bl	SetPicture
 4628              	.LVL445:
 4629              	.L257:
1142:.\main.c      ****                 Display1_ClearRxBuffer();
 4630              		.loc 1 1142 0
 4631 12fe 0A20     		movs	r0, #10
 4632 1300 FFF7FEFF 		bl	CyDelay
 4633              	.LVL446:
1143:.\main.c      ****             }                        
 4634              		.loc 1 1143 0
 4635 1304 FFF7FEFF 		bl	Display1_ClearRxBuffer
 4636              	.LVL447:
 4637              	.L83:
1148:.\main.c      **** 
 4638              		.loc 1 1148 0
 4639 1308 05B0     		add	sp, sp, #20
 4640              		.cfi_def_cfa_offset 20
 4641              		@ sp needed
 4642 130a F0BD     		pop	{r4, r5, r6, r7, pc}
 4643              	.L293:
 4644              		.align	2
 4645              	.L292:
 4646 130c 00000000 		.word	timeDownHandle
 4647 1310 00000000 		.word	dateDownHandle
 4648 1314 00000000 		.word	Display1_rxBuffer
 4649 1318 00000000 		.word	flowDisplay1
 4650              		.cfi_endproc
 4651              	.LFE71:
 4652              		.size	PollingDisplay1, .-PollingDisplay1
 4653              		.section	.text.PollingDisplay2,"ax",%progbits
 4654              		.align	2
 4655              		.global	PollingDisplay2
 4656              		.thumb
 4657              		.thumb_func
 4658              		.type	PollingDisplay2, %function
 4659              	PollingDisplay2:
 4660              	.LFB72:
1160:.\main.c      ****     switch(flowDisplay2){
 4661              		.loc 1 1160 0
 4662              		.cfi_startproc
 4663              		@ args = 0, pretend = 0, frame = 0
 4664              		@ frame_needed = 0, uses_anonymous_args = 0
 4665 0000 08B5     		push	{r3, lr}
 4666              		.cfi_def_cfa_offset 8
 4667              		.cfi_offset 3, -8
 4668              		.cfi_offset 14, -4
1161:.\main.c      ****         case 0:
 4669              		.loc 1 1161 0
 4670 0002 A54B     		ldr	r3, .L333
 4671 0004 1B68     		ldr	r3, [r3]
 4672 0006 062B     		cmp	r3, #6
ARM GAS  C:\Users\RECEPC~1\AppData\Local\Temp\cc79eMMA.s 			page 121


 4673 0008 00F29281 		bhi	.L294
 4674 000c DFE813F0 		tbh	[pc, r3, lsl #1]
 4675              	.L297:
 4676 0010 0700     		.2byte	(.L296-.L297)/2
 4677 0012 1100     		.2byte	(.L298-.L297)/2
 4678 0014 4500     		.2byte	(.L299-.L297)/2
 4679 0016 9600     		.2byte	(.L300-.L297)/2
 4680 0018 F100     		.2byte	(.L301-.L297)/2
 4681 001a 2101     		.2byte	(.L302-.L297)/2
 4682 001c 5701     		.2byte	(.L303-.L297)/2
 4683              		.p2align 1
 4684              	.L296:
1163:.\main.c      ****             flowDisplay2 =1;
 4685              		.loc 1 1163 0
 4686 001e FFF7FEFF 		bl	InitDisplay2
 4687              	.LVL448:
1164:.\main.c      ****             side.b.rfState = RF_IDLE;
 4688              		.loc 1 1164 0
 4689 0022 0122     		movs	r2, #1
 4690 0024 9C4B     		ldr	r3, .L333
 4691 0026 1A60     		str	r2, [r3]
1165:.\main.c      ****         break;
 4692              		.loc 1 1165 0
 4693 0028 0822     		movs	r2, #8
 4694 002a 9C4B     		ldr	r3, .L333+4
 4695 002c 83F80922 		strb	r2, [r3, #521]
1166:.\main.c      ****         case 1: //Menu
 4696              		.loc 1 1166 0
 4697 0030 08BD     		pop	{r3, pc}
 4698              	.L298:
1168:.\main.c      ****             if(Display2_GetRxBufferSize()==8){
 4699              		.loc 1 1168 0
 4700 0032 0220     		movs	r0, #2
 4701 0034 2321     		movs	r1, #35
 4702 0036 FFF7FEFF 		bl	ShowRectangle
 4703              	.LVL449:
1169:.\main.c      ****                 if((Display2_rxBuffer[0]==0xAA) && (Display2_rxBuffer[6]==0xC3) && (Display2_rxBuff
 4704              		.loc 1 1169 0
 4705 003a FFF7FEFF 		bl	Display2_GetRxBufferSize
 4706              	.LVL450:
 4707 003e 0828     		cmp	r0, #8
 4708 0040 40F07681 		bne	.L294
1170:.\main.c      ****                     switch(Display2_rxBuffer[3]){
 4709              		.loc 1 1170 0
 4710 0044 964B     		ldr	r3, .L333+8
 4711 0046 1B78     		ldrb	r3, [r3]	@ zero_extendqisi2
 4712 0048 DBB2     		uxtb	r3, r3
 4713 004a AA2B     		cmp	r3, #170
 4714 004c 1FD1     		bne	.L304
1170:.\main.c      ****                     switch(Display2_rxBuffer[3]){
 4715              		.loc 1 1170 0 is_stmt 0 discriminator 1
 4716 004e 944B     		ldr	r3, .L333+8
 4717 0050 9B79     		ldrb	r3, [r3, #6]	@ zero_extendqisi2
 4718 0052 DBB2     		uxtb	r3, r3
 4719 0054 C32B     		cmp	r3, #195
 4720 0056 1AD1     		bne	.L304
1170:.\main.c      ****                     switch(Display2_rxBuffer[3]){
ARM GAS  C:\Users\RECEPC~1\AppData\Local\Temp\cc79eMMA.s 			page 122


 4721              		.loc 1 1170 0 discriminator 2
 4722 0058 914B     		ldr	r3, .L333+8
 4723 005a DB79     		ldrb	r3, [r3, #7]	@ zero_extendqisi2
 4724 005c DBB2     		uxtb	r3, r3
 4725 005e 3C2B     		cmp	r3, #60
 4726 0060 15D1     		bne	.L304
1171:.\main.c      ****                         case 0x3A:  //Pantalla forma de pago
 4727              		.loc 1 1171 0 is_stmt 1
 4728 0062 8F4B     		ldr	r3, .L333+8
 4729 0064 DB78     		ldrb	r3, [r3, #3]	@ zero_extendqisi2
 4730 0066 DBB2     		uxtb	r3, r3
 4731 0068 3A2B     		cmp	r3, #58
 4732 006a 02D0     		beq	.L305
 4733 006c 7E2B     		cmp	r3, #126
 4734 006e 07D0     		beq	.L306
 4735 0070 0DE0     		b	.L304
 4736              	.L305:
1173:.\main.c      ****                             SetPicture(2,DISPLAY_FORMA_PAGO_DESEADA);                            
 4737              		.loc 1 1173 0
 4738 0072 0220     		movs	r0, #2
 4739 0074 884B     		ldr	r3, .L333
 4740 0076 1860     		str	r0, [r3]
1174:.\main.c      ****                         break;   
 4741              		.loc 1 1174 0
 4742 0078 0421     		movs	r1, #4
 4743 007a FFF7FEFF 		bl	SetPicture
 4744              	.LVL451:
1175:.\main.c      ****                         case 0x7E:  //Pantalla Inicial                                             
 4745              		.loc 1 1175 0
 4746 007e 06E0     		b	.L304
 4747              	.L306:
1177:.\main.c      ****                             flowDisplay2 = 0;
 4748              		.loc 1 1177 0
 4749 0080 0220     		movs	r0, #2
 4750 0082 0121     		movs	r1, #1
 4751 0084 FFF7FEFF 		bl	SetPicture
 4752              	.LVL452:
1178:.\main.c      ****                         break;
 4753              		.loc 1 1178 0
 4754 0088 0022     		movs	r2, #0
 4755 008a 834B     		ldr	r3, .L333
 4756 008c 1A60     		str	r2, [r3]
 4757              	.L304:
1182:.\main.c      ****                 Display2_ClearRxBuffer();
 4758              		.loc 1 1182 0
 4759 008e 0A20     		movs	r0, #10
 4760 0090 FFF7FEFF 		bl	CyDelay
 4761              	.LVL453:
1183:.\main.c      ****             }
 4762              		.loc 1 1183 0
 4763 0094 FFF7FEFF 		bl	Display2_ClearRxBuffer
 4764              	.LVL454:
 4765 0098 08BD     		pop	{r3, pc}
 4766              	.L299:
1187:.\main.c      ****                 if((Display2_rxBuffer[0]==0xAA) && (Display2_rxBuffer[6]==0xC3) && (Display2_rxBuff
 4767              		.loc 1 1187 0
 4768 009a FFF7FEFF 		bl	Display2_GetRxBufferSize
ARM GAS  C:\Users\RECEPC~1\AppData\Local\Temp\cc79eMMA.s 			page 123


 4769              	.LVL455:
 4770 009e 0828     		cmp	r0, #8
 4771 00a0 40F04681 		bne	.L294
1188:.\main.c      ****                     switch(Display2_rxBuffer[3]){
 4772              		.loc 1 1188 0
 4773 00a4 7E4B     		ldr	r3, .L333+8
 4774 00a6 1B78     		ldrb	r3, [r3]	@ zero_extendqisi2
 4775 00a8 DBB2     		uxtb	r3, r3
 4776 00aa AA2B     		cmp	r3, #170
 4777 00ac 40D1     		bne	.L307
1188:.\main.c      ****                     switch(Display2_rxBuffer[3]){
 4778              		.loc 1 1188 0 is_stmt 0 discriminator 1
 4779 00ae 7C4B     		ldr	r3, .L333+8
 4780 00b0 9B79     		ldrb	r3, [r3, #6]	@ zero_extendqisi2
 4781 00b2 DBB2     		uxtb	r3, r3
 4782 00b4 C32B     		cmp	r3, #195
 4783 00b6 3BD1     		bne	.L307
1188:.\main.c      ****                     switch(Display2_rxBuffer[3]){
 4784              		.loc 1 1188 0 discriminator 2
 4785 00b8 794B     		ldr	r3, .L333+8
 4786 00ba DB79     		ldrb	r3, [r3, #7]	@ zero_extendqisi2
 4787 00bc DBB2     		uxtb	r3, r3
 4788 00be 3C2B     		cmp	r3, #60
 4789 00c0 36D1     		bne	.L307
1189:.\main.c      ****                         case 0x0D:  //Pantalla efectivo              
 4790              		.loc 1 1189 0 is_stmt 1
 4791 00c2 774B     		ldr	r3, .L333+8
 4792 00c4 DB78     		ldrb	r3, [r3, #3]	@ zero_extendqisi2
 4793 00c6 DBB2     		uxtb	r3, r3
 4794 00c8 452B     		cmp	r3, #69
 4795 00ca 1AD0     		beq	.L308
 4796 00cc 04D8     		bhi	.L309
 4797 00ce 0D2B     		cmp	r3, #13
 4798 00d0 07D0     		beq	.L310
 4799 00d2 0E2B     		cmp	r3, #14
 4800 00d4 0DD0     		beq	.L311
 4801 00d6 2BE0     		b	.L307
 4802              	.L309:
 4803 00d8 7E2B     		cmp	r3, #126
 4804 00da 22D0     		beq	.L312
 4805 00dc 942B     		cmp	r3, #148
 4806 00de 18D0     		beq	.L313
 4807 00e0 26E0     		b	.L307
 4808              	.L310:
1191:.\main.c      ****                             SetPicture(2,DISPLAY_FORMA_PROGRAMACION);                            
 4809              		.loc 1 1191 0
 4810 00e2 0322     		movs	r2, #3
 4811 00e4 6C4B     		ldr	r3, .L333
 4812 00e6 1A60     		str	r2, [r3]
1192:.\main.c      ****                         break;
 4813              		.loc 1 1192 0
 4814 00e8 0220     		movs	r0, #2
 4815 00ea 0521     		movs	r1, #5
 4816 00ec FFF7FEFF 		bl	SetPicture
 4817              	.LVL456:
1193:.\main.c      ****                         case 0x0E:  //Pantalla credito   
 4818              		.loc 1 1193 0
ARM GAS  C:\Users\RECEPC~1\AppData\Local\Temp\cc79eMMA.s 			page 124


 4819 00f0 1EE0     		b	.L307
 4820              	.L311:
1195:.\main.c      ****                             SetPicture(2,DISPLAY_ID_DIGITAL);                            
 4821              		.loc 1 1195 0
 4822 00f2 0422     		movs	r2, #4
 4823 00f4 684B     		ldr	r3, .L333
 4824 00f6 1A60     		str	r2, [r3]
1196:.\main.c      ****                         break;
 4825              		.loc 1 1196 0
 4826 00f8 0220     		movs	r0, #2
 4827 00fa 8521     		movs	r1, #133
 4828 00fc FFF7FEFF 		bl	SetPicture
 4829              	.LVL457:
1197:.\main.c      ****                         case 0x45:  //Pantalla otras opciones 
 4830              		.loc 1 1197 0
 4831 0100 16E0     		b	.L307
 4832              	.L308:
1199:.\main.c      ****                             SetPicture(2,DISPLAY_OPERACIONES);                            
 4833              		.loc 1 1199 0
 4834 0102 0522     		movs	r2, #5
 4835 0104 644B     		ldr	r3, .L333
 4836 0106 1A60     		str	r2, [r3]
1200:.\main.c      ****                         break;
 4837              		.loc 1 1200 0
 4838 0108 0220     		movs	r0, #2
 4839 010a 8321     		movs	r1, #131
 4840 010c FFF7FEFF 		bl	SetPicture
 4841              	.LVL458:
1201:.\main.c      ****                             
 4842              		.loc 1 1201 0
 4843 0110 0EE0     		b	.L307
 4844              	.L313:
1204:.\main.c      ****                             SetPicture(2,DISPLAY_INICIO0);                            
 4845              		.loc 1 1204 0
 4846 0112 0022     		movs	r2, #0
 4847 0114 604B     		ldr	r3, .L333
 4848 0116 1A60     		str	r2, [r3]
1205:.\main.c      ****                         break;
 4849              		.loc 1 1205 0
 4850 0118 0220     		movs	r0, #2
 4851 011a 0121     		movs	r1, #1
 4852 011c FFF7FEFF 		bl	SetPicture
 4853              	.LVL459:
1206:.\main.c      ****                         
 4854              		.loc 1 1206 0
 4855 0120 06E0     		b	.L307
 4856              	.L312:
1209:.\main.c      ****                             SetPicture(2,DISPLAY_INICIO0);                            
 4857              		.loc 1 1209 0
 4858 0122 0022     		movs	r2, #0
 4859 0124 5C4B     		ldr	r3, .L333
 4860 0126 1A60     		str	r2, [r3]
1210:.\main.c      ****                         break;
 4861              		.loc 1 1210 0
 4862 0128 0220     		movs	r0, #2
 4863 012a 0121     		movs	r1, #1
 4864 012c FFF7FEFF 		bl	SetPicture
ARM GAS  C:\Users\RECEPC~1\AppData\Local\Temp\cc79eMMA.s 			page 125


 4865              	.LVL460:
 4866              	.L307:
1214:.\main.c      ****                 Display2_ClearRxBuffer();
 4867              		.loc 1 1214 0
 4868 0130 0A20     		movs	r0, #10
 4869 0132 FFF7FEFF 		bl	CyDelay
 4870              	.LVL461:
1215:.\main.c      ****             }
 4871              		.loc 1 1215 0
 4872 0136 FFF7FEFF 		bl	Display2_ClearRxBuffer
 4873              	.LVL462:
 4874 013a 08BD     		pop	{r3, pc}
 4875              	.L300:
1220:.\main.c      ****                 if((Display2_rxBuffer[0]==0xAA) && (Display2_rxBuffer[6]==0xC3) && (Display2_rxBuff
 4876              		.loc 1 1220 0
 4877 013c FFF7FEFF 		bl	Display2_GetRxBufferSize
 4878              	.LVL463:
 4879 0140 0828     		cmp	r0, #8
 4880 0142 40F0F580 		bne	.L294
1221:.\main.c      ****                     switch(Display2_rxBuffer[3]){
 4881              		.loc 1 1221 0
 4882 0146 564B     		ldr	r3, .L333+8
 4883 0148 1B78     		ldrb	r3, [r3]	@ zero_extendqisi2
 4884 014a DBB2     		uxtb	r3, r3
 4885 014c AA2B     		cmp	r3, #170
 4886 014e 4AD1     		bne	.L314
1221:.\main.c      ****                     switch(Display2_rxBuffer[3]){
 4887              		.loc 1 1221 0 is_stmt 0 discriminator 1
 4888 0150 534B     		ldr	r3, .L333+8
 4889 0152 9B79     		ldrb	r3, [r3, #6]	@ zero_extendqisi2
 4890 0154 DBB2     		uxtb	r3, r3
 4891 0156 C32B     		cmp	r3, #195
 4892 0158 45D1     		bne	.L314
1221:.\main.c      ****                     switch(Display2_rxBuffer[3]){
 4893              		.loc 1 1221 0 discriminator 2
 4894 015a 514B     		ldr	r3, .L333+8
 4895 015c DB79     		ldrb	r3, [r3, #7]	@ zero_extendqisi2
 4896 015e DBB2     		uxtb	r3, r3
 4897 0160 3C2B     		cmp	r3, #60
 4898 0162 40D1     		bne	.L314
1222:.\main.c      ****                         case 0x0F:  //Preset dinero                
 4899              		.loc 1 1222 0 is_stmt 1
 4900 0164 4E4B     		ldr	r3, .L333+8
 4901 0166 DB78     		ldrb	r3, [r3, #3]	@ zero_extendqisi2
 4902 0168 DBB2     		uxtb	r3, r3
 4903 016a 3B2B     		cmp	r3, #59
 4904 016c 2CD0     		beq	.L315
 4905 016e 04D8     		bhi	.L316
 4906 0170 0F2B     		cmp	r3, #15
 4907 0172 09D0     		beq	.L317
 4908 0174 102B     		cmp	r3, #16
 4909 0176 0FD0     		beq	.L318
 4910 0178 35E0     		b	.L314
 4911              	.L316:
 4912 017a 7E2B     		cmp	r3, #126
 4913 017c 2CD0     		beq	.L319
 4914 017e 942B     		cmp	r3, #148
ARM GAS  C:\Users\RECEPC~1\AppData\Local\Temp\cc79eMMA.s 			page 126


 4915 0180 1AD0     		beq	.L320
 4916 0182 432B     		cmp	r3, #67
 4917 0184 2FD1     		bne	.L314
 4918 0186 0FE0     		b	.L321
 4919              	.L317:
1224:.\main.c      ****                             SetPicture(2,DISPLAY_INTRODUZCA_VALOR);                            
 4920              		.loc 1 1224 0
 4921 0188 0422     		movs	r2, #4
 4922 018a 434B     		ldr	r3, .L333
 4923 018c 1A60     		str	r2, [r3]
1225:.\main.c      ****                         break; 
 4924              		.loc 1 1225 0
 4925 018e 0220     		movs	r0, #2
 4926 0190 0621     		movs	r1, #6
 4927 0192 FFF7FEFF 		bl	SetPicture
 4928              	.LVL464:
1226:.\main.c      ****                         case 0x10:  //Preset volumen                 
 4929              		.loc 1 1226 0
 4930 0196 26E0     		b	.L314
 4931              	.L318:
1228:.\main.c      ****                             SetPicture(2,DISPLAY_INTRODUZCA_VOLUMEN);                            
 4932              		.loc 1 1228 0
 4933 0198 0522     		movs	r2, #5
 4934 019a 3F4B     		ldr	r3, .L333
 4935 019c 1A60     		str	r2, [r3]
1229:.\main.c      ****                         break;
 4936              		.loc 1 1229 0
 4937 019e 0220     		movs	r0, #2
 4938 01a0 0D21     		movs	r1, #13
 4939 01a2 FFF7FEFF 		bl	SetPicture
 4940              	.LVL465:
1230:.\main.c      ****                         case 0x43:  //Preset full                       
 4941              		.loc 1 1230 0
 4942 01a6 1EE0     		b	.L314
 4943              	.L321:
1232:.\main.c      ****                             SetPicture(2,DISPLAY_DESEA_IMPRIMIR_RECIBO);                           
 4944              		.loc 1 1232 0
 4945 01a8 0622     		movs	r2, #6
 4946 01aa 3B4B     		ldr	r3, .L333
 4947 01ac 1A60     		str	r2, [r3]
1233:.\main.c      ****                         break;
 4948              		.loc 1 1233 0
 4949 01ae 0220     		movs	r0, #2
 4950 01b0 0B21     		movs	r1, #11
 4951 01b2 FFF7FEFF 		bl	SetPicture
 4952              	.LVL466:
1234:.\main.c      ****                         case 0x94:  //Retroceso 
 4953              		.loc 1 1234 0
 4954 01b6 16E0     		b	.L314
 4955              	.L320:
1236:.\main.c      ****                             SetPicture(2,DISPLAY_INICIO0);                                         
 4956              		.loc 1 1236 0
 4957 01b8 0022     		movs	r2, #0
 4958 01ba 374B     		ldr	r3, .L333
 4959 01bc 1A60     		str	r2, [r3]
1237:.\main.c      ****                         break;
 4960              		.loc 1 1237 0
ARM GAS  C:\Users\RECEPC~1\AppData\Local\Temp\cc79eMMA.s 			page 127


 4961 01be 0220     		movs	r0, #2
 4962 01c0 0121     		movs	r1, #1
 4963 01c2 FFF7FEFF 		bl	SetPicture
 4964              	.LVL467:
1238:.\main.c      ****                         case 0x3B:  //Pantalla Inicial    
 4965              		.loc 1 1238 0
 4966 01c6 0EE0     		b	.L314
 4967              	.L315:
1240:.\main.c      ****                             SetPicture(2,DISPLAY_INICIO0);                            
 4968              		.loc 1 1240 0
 4969 01c8 0022     		movs	r2, #0
 4970 01ca 334B     		ldr	r3, .L333
 4971 01cc 1A60     		str	r2, [r3]
1241:.\main.c      ****                         break;
 4972              		.loc 1 1241 0
 4973 01ce 0220     		movs	r0, #2
 4974 01d0 0121     		movs	r1, #1
 4975 01d2 FFF7FEFF 		bl	SetPicture
 4976              	.LVL468:
1242:.\main.c      ****                         case 0x7E:  //Pantalla Inicial    
 4977              		.loc 1 1242 0
 4978 01d6 06E0     		b	.L314
 4979              	.L319:
1244:.\main.c      ****                             SetPicture(2,DISPLAY_INICIO0);                            
 4980              		.loc 1 1244 0
 4981 01d8 0022     		movs	r2, #0
 4982 01da 2F4B     		ldr	r3, .L333
 4983 01dc 1A60     		str	r2, [r3]
1245:.\main.c      ****                         break;
 4984              		.loc 1 1245 0
 4985 01de 0220     		movs	r0, #2
 4986 01e0 0121     		movs	r1, #1
 4987 01e2 FFF7FEFF 		bl	SetPicture
 4988              	.LVL469:
 4989              	.L314:
1249:.\main.c      ****                 Display2_ClearRxBuffer();
 4990              		.loc 1 1249 0
 4991 01e6 0A20     		movs	r0, #10
 4992 01e8 FFF7FEFF 		bl	CyDelay
 4993              	.LVL470:
1250:.\main.c      ****             }
 4994              		.loc 1 1250 0
 4995 01ec FFF7FEFF 		bl	Display2_ClearRxBuffer
 4996              	.LVL471:
 4997 01f0 08BD     		pop	{r3, pc}
 4998              	.L301:
1255:.\main.c      ****                 if((Display2_rxBuffer[0]==0xAA) && (Display2_rxBuffer[6]==0xC3) && (Display2_rxBuff
 4999              		.loc 1 1255 0
 5000 01f2 FFF7FEFF 		bl	Display2_GetRxBufferSize
 5001              	.LVL472:
 5002 01f6 0828     		cmp	r0, #8
 5003 01f8 40F09A80 		bne	.L294
1256:.\main.c      ****                     switch(Display2_rxBuffer[3]){
 5004              		.loc 1 1256 0
 5005 01fc 284B     		ldr	r3, .L333+8
 5006 01fe 1B78     		ldrb	r3, [r3]	@ zero_extendqisi2
 5007 0200 DBB2     		uxtb	r3, r3
ARM GAS  C:\Users\RECEPC~1\AppData\Local\Temp\cc79eMMA.s 			page 128


 5008 0202 AA2B     		cmp	r3, #170
 5009 0204 1FD1     		bne	.L322
1256:.\main.c      ****                     switch(Display2_rxBuffer[3]){
 5010              		.loc 1 1256 0 is_stmt 0 discriminator 1
 5011 0206 264B     		ldr	r3, .L333+8
 5012 0208 9B79     		ldrb	r3, [r3, #6]	@ zero_extendqisi2
 5013 020a DBB2     		uxtb	r3, r3
 5014 020c C32B     		cmp	r3, #195
 5015 020e 1AD1     		bne	.L322
1256:.\main.c      ****                     switch(Display2_rxBuffer[3]){
 5016              		.loc 1 1256 0 discriminator 2
 5017 0210 234B     		ldr	r3, .L333+8
 5018 0212 DB79     		ldrb	r3, [r3, #7]	@ zero_extendqisi2
 5019 0214 DBB2     		uxtb	r3, r3
 5020 0216 3C2B     		cmp	r3, #60
 5021 0218 15D1     		bne	.L322
1257:.\main.c      ****                         case 0x94:  //Retroceso 
 5022              		.loc 1 1257 0 is_stmt 1
 5023 021a 214B     		ldr	r3, .L333+8
 5024 021c DB78     		ldrb	r3, [r3, #3]	@ zero_extendqisi2
 5025 021e DBB2     		uxtb	r3, r3
 5026 0220 7E2B     		cmp	r3, #126
 5027 0222 09D0     		beq	.L323
 5028 0224 942B     		cmp	r3, #148
 5029 0226 0ED1     		bne	.L322
1259:.\main.c      ****                             SetPicture(2,DISPLAY_INICIO0);                                         
 5030              		.loc 1 1259 0
 5031 0228 0022     		movs	r2, #0
 5032 022a 1B4B     		ldr	r3, .L333
 5033 022c 1A60     		str	r2, [r3]
1260:.\main.c      ****                         break;
 5034              		.loc 1 1260 0
 5035 022e 0220     		movs	r0, #2
 5036 0230 0121     		movs	r1, #1
 5037 0232 FFF7FEFF 		bl	SetPicture
 5038              	.LVL473:
1261:.\main.c      ****                         case 0x7E:  //Pantalla Inicial    
 5039              		.loc 1 1261 0
 5040 0236 06E0     		b	.L322
 5041              	.L323:
1263:.\main.c      ****                             SetPicture(2,DISPLAY_INICIO0);                            
 5042              		.loc 1 1263 0
 5043 0238 0022     		movs	r2, #0
 5044 023a 174B     		ldr	r3, .L333
 5045 023c 1A60     		str	r2, [r3]
1264:.\main.c      ****                         break;
 5046              		.loc 1 1264 0
 5047 023e 0220     		movs	r0, #2
 5048 0240 0121     		movs	r1, #1
 5049 0242 FFF7FEFF 		bl	SetPicture
 5050              	.LVL474:
 5051              	.L322:
1268:.\main.c      ****                 Display2_ClearRxBuffer();
 5052              		.loc 1 1268 0
 5053 0246 0A20     		movs	r0, #10
 5054 0248 FFF7FEFF 		bl	CyDelay
 5055              	.LVL475:
ARM GAS  C:\Users\RECEPC~1\AppData\Local\Temp\cc79eMMA.s 			page 129


1269:.\main.c      ****             }
 5056              		.loc 1 1269 0
 5057 024c FFF7FEFF 		bl	Display2_ClearRxBuffer
 5058              	.LVL476:
 5059 0250 08BD     		pop	{r3, pc}
 5060              	.L302:
1274:.\main.c      ****                 if((Display2_rxBuffer[0]==0xAA) && (Display2_rxBuffer[6]==0xC3) && (Display2_rxBuff
 5061              		.loc 1 1274 0
 5062 0252 FFF7FEFF 		bl	Display2_GetRxBufferSize
 5063              	.LVL477:
 5064 0256 0828     		cmp	r0, #8
 5065 0258 6AD1     		bne	.L294
1275:.\main.c      ****                     switch(Display2_rxBuffer[3]){
 5066              		.loc 1 1275 0
 5067 025a 114B     		ldr	r3, .L333+8
 5068 025c 1B78     		ldrb	r3, [r3]	@ zero_extendqisi2
 5069 025e DBB2     		uxtb	r3, r3
 5070 0260 AA2B     		cmp	r3, #170
 5071 0262 26D1     		bne	.L325
1275:.\main.c      ****                     switch(Display2_rxBuffer[3]){
 5072              		.loc 1 1275 0 is_stmt 0 discriminator 1
 5073 0264 0E4B     		ldr	r3, .L333+8
 5074 0266 9B79     		ldrb	r3, [r3, #6]	@ zero_extendqisi2
 5075 0268 DBB2     		uxtb	r3, r3
 5076 026a C32B     		cmp	r3, #195
 5077 026c 21D1     		bne	.L325
1275:.\main.c      ****                     switch(Display2_rxBuffer[3]){
 5078              		.loc 1 1275 0 discriminator 2
 5079 026e 0C4B     		ldr	r3, .L333+8
 5080 0270 DB79     		ldrb	r3, [r3, #7]	@ zero_extendqisi2
 5081 0272 DBB2     		uxtb	r3, r3
 5082 0274 3C2B     		cmp	r3, #60
 5083 0276 1CD1     		bne	.L325
1276:.\main.c      ****                         case 0x94:  //Retroceso 
 5084              		.loc 1 1276 0 is_stmt 1
 5085 0278 094B     		ldr	r3, .L333+8
 5086 027a DB78     		ldrb	r3, [r3, #3]	@ zero_extendqisi2
 5087 027c DBB2     		uxtb	r3, r3
 5088 027e 7E2B     		cmp	r3, #126
 5089 0280 10D0     		beq	.L326
 5090 0282 942B     		cmp	r3, #148
 5091 0284 15D1     		bne	.L325
1278:.\main.c      ****                             SetPicture(2,DISPLAY_INICIO0);                                         
 5092              		.loc 1 1278 0
 5093 0286 0022     		movs	r2, #0
 5094 0288 034B     		ldr	r3, .L333
 5095 028a 1A60     		str	r2, [r3]
1279:.\main.c      ****                         break;
 5096              		.loc 1 1279 0
 5097 028c 0220     		movs	r0, #2
 5098 028e 0121     		movs	r1, #1
 5099 0290 FFF7FEFF 		bl	SetPicture
 5100              	.LVL478:
1280:.\main.c      ****                         case 0x7E:  //Pantalla Inicial    
 5101              		.loc 1 1280 0
 5102 0294 0DE0     		b	.L325
 5103              	.L334:
ARM GAS  C:\Users\RECEPC~1\AppData\Local\Temp\cc79eMMA.s 			page 130


 5104 0296 00BF     		.align	2
 5105              	.L333:
 5106 0298 00000000 		.word	flowDisplay2
 5107 029c 00000000 		.word	side
 5108 02a0 00000000 		.word	Display2_rxBuffer
 5109              	.L326:
1282:.\main.c      ****                             SetPicture(2,DISPLAY_INICIO0);                            
 5110              		.loc 1 1282 0
 5111 02a4 0022     		movs	r2, #0
 5112 02a6 234B     		ldr	r3, .L335
 5113 02a8 1A60     		str	r2, [r3]
1283:.\main.c      ****                         break;
 5114              		.loc 1 1283 0
 5115 02aa 0220     		movs	r0, #2
 5116 02ac 0121     		movs	r1, #1
 5117 02ae FFF7FEFF 		bl	SetPicture
 5118              	.LVL479:
 5119              	.L325:
1287:.\main.c      ****                 Display2_ClearRxBuffer();
 5120              		.loc 1 1287 0
 5121 02b2 0A20     		movs	r0, #10
 5122 02b4 FFF7FEFF 		bl	CyDelay
 5123              	.LVL480:
1288:.\main.c      ****             }
 5124              		.loc 1 1288 0
 5125 02b8 FFF7FEFF 		bl	Display2_ClearRxBuffer
 5126              	.LVL481:
 5127 02bc 08BD     		pop	{r3, pc}
 5128              	.L303:
1293:.\main.c      ****                 if((Display2_rxBuffer[0]==0xAA) && (Display2_rxBuffer[6]==0xC3) && (Display2_rxBuff
 5129              		.loc 1 1293 0
 5130 02be FFF7FEFF 		bl	Display2_GetRxBufferSize
 5131              	.LVL482:
 5132 02c2 0828     		cmp	r0, #8
 5133 02c4 34D1     		bne	.L294
1294:.\main.c      ****                     switch(Display2_rxBuffer[3]){
 5134              		.loc 1 1294 0
 5135 02c6 1C4B     		ldr	r3, .L335+4
 5136 02c8 1B78     		ldrb	r3, [r3]	@ zero_extendqisi2
 5137 02ca DBB2     		uxtb	r3, r3
 5138 02cc AA2B     		cmp	r3, #170
 5139 02ce 2AD1     		bne	.L328
1294:.\main.c      ****                     switch(Display2_rxBuffer[3]){
 5140              		.loc 1 1294 0 is_stmt 0 discriminator 1
 5141 02d0 194B     		ldr	r3, .L335+4
 5142 02d2 9B79     		ldrb	r3, [r3, #6]	@ zero_extendqisi2
 5143 02d4 DBB2     		uxtb	r3, r3
 5144 02d6 C32B     		cmp	r3, #195
 5145 02d8 25D1     		bne	.L328
1294:.\main.c      ****                     switch(Display2_rxBuffer[3]){
 5146              		.loc 1 1294 0 discriminator 2
 5147 02da 174B     		ldr	r3, .L335+4
 5148 02dc DB79     		ldrb	r3, [r3, #7]	@ zero_extendqisi2
 5149 02de DBB2     		uxtb	r3, r3
 5150 02e0 3C2B     		cmp	r3, #60
 5151 02e2 20D1     		bne	.L328
1295:.\main.c      ****                         case 0x39:  //Si copia                                                     
ARM GAS  C:\Users\RECEPC~1\AppData\Local\Temp\cc79eMMA.s 			page 131


 5152              		.loc 1 1295 0 is_stmt 1
 5153 02e4 144B     		ldr	r3, .L335+4
 5154 02e6 DB78     		ldrb	r3, [r3, #3]	@ zero_extendqisi2
 5155 02e8 DBB2     		uxtb	r3, r3
 5156 02ea 392B     		cmp	r3, #57
 5157 02ec 04D0     		beq	.L329
 5158 02ee 7E2B     		cmp	r3, #126
 5159 02f0 12D0     		beq	.L330
 5160 02f2 382B     		cmp	r3, #56
 5161 02f4 17D1     		bne	.L328
 5162 02f6 07E0     		b	.L331
 5163              	.L329:
1297:.\main.c      ****                             flowDisplay2 = 7;
 5164              		.loc 1 1297 0
 5165 02f8 0220     		movs	r0, #2
 5166 02fa 0A21     		movs	r1, #10
 5167 02fc FFF7FEFF 		bl	SetPicture
 5168              	.LVL483:
1298:.\main.c      ****                         break; 
 5169              		.loc 1 1298 0
 5170 0300 0722     		movs	r2, #7
 5171 0302 0C4B     		ldr	r3, .L335
 5172 0304 1A60     		str	r2, [r3]
1299:.\main.c      ****                         case 0x38:  //No copia                                                     
 5173              		.loc 1 1299 0
 5174 0306 0EE0     		b	.L328
 5175              	.L331:
1301:.\main.c      ****                             flowDisplay2 = 8;//caso para seleccion de producto
 5176              		.loc 1 1301 0
 5177 0308 0220     		movs	r0, #2
 5178 030a 8621     		movs	r1, #134
 5179 030c FFF7FEFF 		bl	SetPicture
 5180              	.LVL484:
1302:.\main.c      ****                         break;
 5181              		.loc 1 1302 0
 5182 0310 0822     		movs	r2, #8
 5183 0312 084B     		ldr	r3, .L335
 5184 0314 1A60     		str	r2, [r3]
1303:.\main.c      ****                         case 0x7E:  //Pantalla Inicial                                             
 5185              		.loc 1 1303 0
 5186 0316 06E0     		b	.L328
 5187              	.L330:
1305:.\main.c      ****                             flowDisplay2 = 0;
 5188              		.loc 1 1305 0
 5189 0318 0220     		movs	r0, #2
 5190 031a 0121     		movs	r1, #1
 5191 031c FFF7FEFF 		bl	SetPicture
 5192              	.LVL485:
1306:.\main.c      ****                         break;
 5193              		.loc 1 1306 0
 5194 0320 0022     		movs	r2, #0
 5195 0322 044B     		ldr	r3, .L335
 5196 0324 1A60     		str	r2, [r3]
 5197              	.L328:
1310:.\main.c      ****                 Display2_ClearRxBuffer();
 5198              		.loc 1 1310 0
 5199 0326 0A20     		movs	r0, #10
ARM GAS  C:\Users\RECEPC~1\AppData\Local\Temp\cc79eMMA.s 			page 132


 5200 0328 FFF7FEFF 		bl	CyDelay
 5201              	.LVL486:
1311:.\main.c      ****             }
 5202              		.loc 1 1311 0
 5203 032c FFF7FEFF 		bl	Display2_ClearRxBuffer
 5204              	.LVL487:
 5205              	.L294:
 5206 0330 08BD     		pop	{r3, pc}
 5207              	.L336:
 5208 0332 00BF     		.align	2
 5209              	.L335:
 5210 0334 00000000 		.word	flowDisplay2
 5211 0338 00000000 		.word	Display2_rxBuffer
 5212              		.cfi_endproc
 5213              	.LFE72:
 5214              		.size	PollingDisplay2, .-PollingDisplay2
 5215              		.section	.text.animacion2,"ax",%progbits
 5216              		.align	2
 5217              		.global	animacion2
 5218              		.thumb
 5219              		.thumb_func
 5220              		.type	animacion2, %function
 5221              	animacion2:
 5222              	.LFB74:
1341:.\main.c      ****     Timer_Animacion2_ReadStatusRegister();
 5223              		.loc 1 1341 0
 5224              		.cfi_startproc
 5225              		@ args = 0, pretend = 0, frame = 0
 5226              		@ frame_needed = 0, uses_anonymous_args = 0
 5227 0000 08B5     		push	{r3, lr}
 5228              		.cfi_def_cfa_offset 8
 5229              		.cfi_offset 3, -8
 5230              		.cfi_offset 14, -4
1342:.\main.c      ****     count_protector2++;
 5231              		.loc 1 1342 0
 5232 0002 FFF7FEFF 		bl	Timer_Animacion2_ReadStatusRegister
 5233              	.LVL488:
1343:.\main.c      **** }
 5234              		.loc 1 1343 0
 5235 0006 024A     		ldr	r2, .L339
 5236 0008 1378     		ldrb	r3, [r2]	@ zero_extendqisi2
 5237 000a 0133     		adds	r3, r3, #1
 5238 000c 1370     		strb	r3, [r2]
 5239 000e 08BD     		pop	{r3, pc}
 5240              	.L340:
 5241              		.align	2
 5242              	.L339:
 5243 0010 00000000 		.word	count_protector2
 5244              		.cfi_endproc
 5245              	.LFE74:
 5246              		.size	animacion2, .-animacion2
 5247              		.section	.text.main,"ax",%progbits
 5248              		.align	2
 5249              		.global	main
 5250              		.thumb
 5251              		.thumb_func
 5252              		.type	main, %function
ARM GAS  C:\Users\RECEPC~1\AppData\Local\Temp\cc79eMMA.s 			page 133


 5253              	main:
 5254              	.LFB77:
1388:.\main.c      **** }
1389:.\main.c      **** 
1390:.\main.c      **** 
1391:.\main.c      **** int main()
1392:.\main.c      **** {    
 5255              		.loc 1 1392 0
 5256              		.cfi_startproc
 5257              		@ Volatile: function does not return.
 5258              		@ args = 0, pretend = 0, frame = 0
 5259              		@ frame_needed = 0, uses_anonymous_args = 0
 5260 0000 08B5     		push	{r3, lr}
 5261              		.cfi_def_cfa_offset 8
 5262              		.cfi_offset 3, -8
 5263              		.cfi_offset 14, -4
1393:.\main.c      ****     CyGlobalIntEnable; /* Enable global interrupts. */
 5264              		.loc 1 1393 0
 5265              	@ 1393 ".\main.c" 1
 5266 0002 62B6     		CPSIE   i
 5267              	@ 0 "" 2
1394:.\main.c      ****     GlobalInitializer();
 5268              		.loc 1 1394 0
 5269              		.thumb
 5270 0004 FFF7FEFF 		bl	GlobalInitializer
 5271              	.LVL489:
1395:.\main.c      ****     /* Place your initialization/startup code here (e.g. MyInst_Start()) */       
1396:.\main.c      ****     InitPump(); 
 5272              		.loc 1 1396 0
 5273 0008 FFF7FEFF 		bl	InitPump
 5274              	.LVL490:
1397:.\main.c      ****     loadConfiguration();
 5275              		.loc 1 1397 0
 5276 000c FFF7FEFF 		bl	loadConfiguration
 5277              	.LVL491:
1398:.\main.c      ****     CyWdtStart(CYWDT_1024_TICKS,CYWDT_LPMODE_NOCHANGE);
 5278              		.loc 1 1398 0
 5279 0010 0320     		movs	r0, #3
 5280 0012 0021     		movs	r1, #0
 5281 0014 FFF7FEFF 		bl	CyWdtStart
 5282              	.LVL492:
 5283              	.L342:
1399:.\main.c      ****     for(;;)
1400:.\main.c      ****     {            
1401:.\main.c      ****         CyWdtClear();
 5284              		.loc 1 1401 0
 5285 0018 FFF7FEFF 		bl	CyWdtClear
 5286              	.LVL493:
1402:.\main.c      ****         pollingRF_Rx();
 5287              		.loc 1 1402 0
 5288 001c FFF7FEFF 		bl	pollingRF_Rx
 5289              	.LVL494:
1403:.\main.c      ****         PollingDisplay1(); 
 5290              		.loc 1 1403 0
 5291 0020 FFF7FEFF 		bl	PollingDisplay1
 5292              	.LVL495:
1404:.\main.c      ****         CyWdtClear();
ARM GAS  C:\Users\RECEPC~1\AppData\Local\Temp\cc79eMMA.s 			page 134


 5293              		.loc 1 1404 0
 5294 0024 FFF7FEFF 		bl	CyWdtClear
 5295              	.LVL496:
1405:.\main.c      ****         PollingDisplay2();
 5296              		.loc 1 1405 0
 5297 0028 FFF7FEFF 		bl	PollingDisplay2
 5298              	.LVL497:
1406:.\main.c      ****         CyWdtClear();
 5299              		.loc 1 1406 0
 5300 002c FFF7FEFF 		bl	CyWdtClear
 5301              	.LVL498:
1407:.\main.c      ****         PollingPump();
 5302              		.loc 1 1407 0
 5303 0030 FFF7FEFF 		bl	PollingPump
 5304              	.LVL499:
1408:.\main.c      ****         CyWdtClear();                                
 5305              		.loc 1 1408 0
 5306 0034 FFF7FEFF 		bl	CyWdtClear
 5307              	.LVL500:
1409:.\main.c      ****         pollingRF_Tx(); 
 5308              		.loc 1 1409 0
 5309 0038 FFF7FEFF 		bl	pollingRF_Tx
 5310              	.LVL501:
1410:.\main.c      ****         counterRF++;
 5311              		.loc 1 1410 0
 5312 003c 064A     		ldr	r2, .L345
 5313 003e 1378     		ldrb	r3, [r2]	@ zero_extendqisi2
 5314 0040 0133     		adds	r3, r3, #1
 5315 0042 DBB2     		uxtb	r3, r3
 5316 0044 1370     		strb	r3, [r2]
1411:.\main.c      ****         if(counterRF >10)
 5317              		.loc 1 1411 0
 5318 0046 1378     		ldrb	r3, [r2]	@ zero_extendqisi2
 5319 0048 DBB2     		uxtb	r3, r3
 5320 004a 0A2B     		cmp	r3, #10
 5321 004c E4D9     		bls	.L342
1412:.\main.c      ****             ActiveRF =0;          
 5322              		.loc 1 1412 0
 5323 004e 0022     		movs	r2, #0
 5324 0050 024B     		ldr	r3, .L345+4
 5325 0052 1A70     		strb	r2, [r3]
 5326 0054 E0E7     		b	.L342
 5327              	.L346:
 5328 0056 00BF     		.align	2
 5329              	.L345:
 5330 0058 00000000 		.word	counterRF
 5331 005c 00000000 		.word	ActiveRF
 5332              		.cfi_endproc
 5333              	.LFE77:
 5334              		.size	main, .-main
 5335              		.global	passwordPump
 5336              		.global	MuxVersion
 5337              		.comm	side,1048,4
 5338              		.comm	bufferDisplay4,332,4
 5339              		.comm	bufferDisplay3,332,4
 5340              		.comm	bufferDisplay2,332,4
 5341              		.comm	bufferDisplay1,332,4
ARM GAS  C:\Users\RECEPC~1\AppData\Local\Temp\cc79eMMA.s 			page 135


 5342              		.comm	RFstateReport,1,1
 5343              		.comm	GradesHose,5,4
 5344              		.comm	CopiasCredito,1,1
 5345              		.comm	Encabezado4,30,4
 5346              		.comm	Encabezado3,30,4
 5347              		.comm	Encabezado2,30,4
 5348              		.comm	Encabezado1,30,4
 5349              		.comm	intIDStation,2,2
 5350              		.comm	buffer_txDisplay,512,4
 5351              		.comm	buffer_tx,512,4
 5352              		.comm	buffer_rf,512,4
 5353              		.comm	printPortB,1,1
 5354              		.comm	printPortA,1,1
 5355              		.comm	pumpGap,3,4
 5356              		.comm	idStation,5,4
 5357              		.comm	controlChar,1,1
 5358              		.comm	configAccess,5,4
 5359              		.comm	count_protector2,1,1
 5360              		.comm	count_protector,1,1
 5361              		.comm	timeDownHandle,2,4
 5362              		.comm	dateDownHandle,3,4
 5363              		.comm	VolUnit,6,4
 5364              		.comm	PrinterType,1,1
 5365              		.comm	hiddenKeys,1,1
 5366              		.comm	digits,1,1
 5367              		.comm	lockTurn,1,1
 5368              		.comm	NumPositions,1,1
 5369              		.comm	statePump,4,4
 5370              		.comm	DDMode,1,1
 5371              		.comm	PPUDec,1,1
 5372              		.comm	VolDec,1,1
 5373              		.comm	MoneyDec,1,1
 5374              		.comm	ConversionFactor,1,1
 5375              		.comm	UnitType,1,1
 5376              		.comm	CGrade,1,1
 5377              		.comm	tempPreset,8,4
 5378              		.comm	temporal,30,4
 5379              		.comm	counterRF,1,1
 5380              		.comm	ActiveRF,1,1
 5381              		.comm	IDCast,2,4
 5382              		.comm	PlateRequest,1,1
 5383              		.comm	PrevStatePump,4,4
 5384              		.comm	stateBeagleSoft,1,1
 5385              		.comm	flagResetMux,1,1
 5386              		.comm	passwordSeller,8,4
 5387              		.comm	typeIdSeller,1,1
 5388              		.comm	idSeller,25,4
 5389              		.comm	residue,14,4
 5390              		.comm	screen,2,4
 5391              		.comm	date,3,4
 5392              		.comm	time,3,4
 5393              		.comm	symbols,2,4
 5394              		.comm	decimalVolume,1,1
 5395              		.comm	decimalMoney,1,1
 5396              		.comm	ppux10,1,1
 5397              		.comm	delayPicture2,4,4
 5398              		.comm	delayPicture1,4,4
ARM GAS  C:\Users\RECEPC~1\AppData\Local\Temp\cc79eMMA.s 			page 136


 5399              		.comm	productNumber,1,1
 5400              		.comm	flagPoint2,1,1
 5401              		.comm	flagPoint1,1,1
 5402              		.comm	numberKeys2,1,1
 5403              		.comm	numberKeys1,1,1
 5404              		.comm	flowDisplay4,4,4
 5405              		.comm	flowDisplay3,4,4
 5406              		.comm	flowDisplay2,4,4
 5407              		.comm	flowDisplay1,4,4
 5408              		.comm	countLCD,8,8
 5409              		.comm	countPump,8,8
 5410              		.comm	countTX,8,8
 5411              		.comm	countRX,8,8
 5412              		.comm	countAnimation2,8,8
 5413              		.comm	countAnimation1,8,8
 5414              		.section	.rodata
 5415              		.align	2
 5416              		.set	.LANCHOR1,. + 0
 5417              	.LC1:
 5418 0000 532F442F 		.ascii	"S/D/Dupla \000"
 5418      4475706C 
 5418      612000
 5419 000b 00       		.space	1
 5420              	.LC3:
 5421 000c 53657874 		.ascii	"Sextupla\000"
 5421      75706C61 
 5421      00
 5422 0015 00       		.space	1
 5423 0016 0000     		.space	2
 5424              	.LC4:
 5425 0018 4F637475 		.ascii	"Octupla\000"
 5425      706C6100 
 5426 0020 0000     		.space	2
 5427 0022 0000     		.space	2
 5428              	.LC5:
 5429 0024 352D352D 		.ascii	"5-5-4     \000"
 5429      34202020 
 5429      202000
 5430 002f 00       		.space	1
 5431              	.LC6:
 5432 0030 362D362D 		.ascii	"6-6-4     \000"
 5432      34202020 
 5432      202000
 5433 003b 00       		.space	1
 5434              	.LC7:
 5435 003c 372D372D 		.ascii	"7-7-5     \000"
 5435      35202020 
 5435      202000
 5436 0047 00       		.space	1
 5437              	.LC8:
 5438 0048 382D372D 		.ascii	"8-7-5     \000"
 5438      35202020 
 5438      202000
 5439 0053 00       		.space	1
 5440              	.LC9:
 5441 0054 54657374 		.ascii	"Test de Impresion Puerto 1\000"
 5441      20646520 
ARM GAS  C:\Users\RECEPC~1\AppData\Local\Temp\cc79eMMA.s 			page 137


 5441      496D7072 
 5441      6573696F 
 5441      6E205075 
 5442 006f 00       		.space	1
 5443              	.LC10:
 5444 0070 54657374 		.ascii	"Test de Impresion Puerto 2\000"
 5444      20646520 
 5444      496D7072 
 5444      6573696F 
 5444      6E205075 
 5445 008b 00       		.data
 5446              		.align	2
 5447              		.set	.LANCHOR0,. + 0
 5448              		.type	passwordPump, %object
 5449              		.size	passwordPump, 5
 5450              	passwordPump:
 5451 0000 30303230 		.ascii	"00204"
 5451      34
 5452 0005 000000   		.space	3
 5453              		.type	MuxVersion, %object
 5454              		.size	MuxVersion, 10
 5455              	MuxVersion:
 5456 0008 4D555820 		.ascii	"MUX V. 1.0"
 5456      562E2031 
 5456      2E30
 5457 0012 0000     		.section	.rodata.str1.4,"aMS",%progbits,1
 5458              		.align	2
 5459              	.LC0:
 5460 0000 496E6963 		.ascii	"Iniciando\000"
 5460      69616E64 
 5460      6F00
 5461 000a 0000     		.space	2
 5462              	.LC2:
 5463 000c 51756164 		.ascii	"Quadrupla\000"
 5463      7275706C 
 5463      6100
 5464 0016 0000     		.text
 5465              	.Letext0:
 5466              		.file 2 "c:\\program files (x86)\\cypress\\psoc creator\\3.3\\psoc creator\\import\\gnu\\arm\\4.9.
 5467              		.file 3 "c:\\program files (x86)\\cypress\\psoc creator\\3.3\\psoc creator\\import\\gnu\\arm\\4.9.
 5468              		.file 4 "Generated_Source\\PSoC5/cytypes.h"
 5469              		.file 5 "./variables.h"
 5470              		.file 6 "Generated_Source\\PSoC5/Display1.h"
 5471              		.file 7 "Generated_Source\\PSoC5/Display2.h"
 5472              		.file 8 "Generated_Source\\PSoC5/core_cm3.h"
 5473              		.file 9 "Generated_Source\\PSoC5/Timer_Animacion.h"
 5474              		.file 10 "Generated_Source\\PSoC5/Waitable_3.h"
 5475              		.file 11 "Generated_Source\\PSoC5/Waitable_4.h"
 5476              		.file 12 "Generated_Source\\PSoC5/EEPROM_1.h"
 5477              		.file 13 "Generated_Source\\PSoC5/Pump.h"
 5478              		.file 14 "Generated_Source\\PSoC5/Printer.h"
 5479              		.file 15 "Generated_Source\\PSoC5/I2C_Bus.h"
 5480              		.file 16 "Generated_Source\\PSoC5/RF_Connection.h"
 5481              		.file 17 "Generated_Source\\PSoC5/isr_1.h"
 5482              		.file 18 "Generated_Source\\PSoC5/isr_2.h"
 5483              		.file 19 "./LCD.h"
 5484              		.file 20 "Generated_Source\\PSoC5/CyLib.h"
ARM GAS  C:\Users\RECEPC~1\AppData\Local\Temp\cc79eMMA.s 			page 138


 5485              		.file 21 "./protocol.h"
 5486              		.file 22 "./I2C.h"
 5487              		.file 23 "Generated_Source\\PSoC5/isr_3.h"
 5488              		.file 24 "./keyboard.h"
 5489              		.file 25 "./Print.h"
 5490              		.file 26 "./ibutton.h"
 5491              		.file 27 "c:\\program files (x86)\\cypress\\psoc creator\\3.3\\psoc creator\\import\\gnu\\arm\\4.9
 5492              		.file 28 "Generated_Source\\PSoC5/Timer_Animacion2.h"
 5493              		.file 29 "./RFPoll.h"
 5494              		.section	.debug_info,"",%progbits
 5495              	.Ldebug_info0:
 5496 0000 362F0000 		.4byte	0x2f36
 5497 0004 0400     		.2byte	0x4
 5498 0006 00000000 		.4byte	.Ldebug_abbrev0
 5499 000a 04       		.byte	0x4
 5500 000b 01       		.uleb128 0x1
 5501 000c 73040000 		.4byte	.LASF322
 5502 0010 01       		.byte	0x1
 5503 0011 FE110000 		.4byte	.LASF323
 5504 0015 C60E0000 		.4byte	.LASF324
 5505 0019 00000000 		.4byte	.Ldebug_ranges0+0
 5506 001d 00000000 		.4byte	0
 5507 0021 00000000 		.4byte	.Ldebug_line0
 5508 0025 02       		.uleb128 0x2
 5509 0026 01       		.byte	0x1
 5510 0027 06       		.byte	0x6
 5511 0028 CB030000 		.4byte	.LASF0
 5512 002c 03       		.uleb128 0x3
 5513 002d 37020000 		.4byte	.LASF3
 5514 0031 02       		.byte	0x2
 5515 0032 1D       		.byte	0x1d
 5516 0033 37000000 		.4byte	0x37
 5517 0037 02       		.uleb128 0x2
 5518 0038 01       		.byte	0x1
 5519 0039 08       		.byte	0x8
 5520 003a 1F050000 		.4byte	.LASF1
 5521 003e 02       		.uleb128 0x2
 5522 003f 02       		.byte	0x2
 5523 0040 05       		.byte	0x5
 5524 0041 F70F0000 		.4byte	.LASF2
 5525 0045 03       		.uleb128 0x3
 5526 0046 52060000 		.4byte	.LASF4
 5527 004a 02       		.byte	0x2
 5528 004b 2B       		.byte	0x2b
 5529 004c 50000000 		.4byte	0x50
 5530 0050 02       		.uleb128 0x2
 5531 0051 02       		.byte	0x2
 5532 0052 07       		.byte	0x7
 5533 0053 28120000 		.4byte	.LASF5
 5534 0057 03       		.uleb128 0x3
 5535 0058 54120000 		.4byte	.LASF6
 5536 005c 02       		.byte	0x2
 5537 005d 3F       		.byte	0x3f
 5538 005e 62000000 		.4byte	0x62
 5539 0062 02       		.uleb128 0x2
 5540 0063 04       		.byte	0x4
 5541 0064 05       		.byte	0x5
ARM GAS  C:\Users\RECEPC~1\AppData\Local\Temp\cc79eMMA.s 			page 139


 5542 0065 C6020000 		.4byte	.LASF7
 5543 0069 02       		.uleb128 0x2
 5544 006a 04       		.byte	0x4
 5545 006b 07       		.byte	0x7
 5546 006c C8080000 		.4byte	.LASF8
 5547 0070 02       		.uleb128 0x2
 5548 0071 08       		.byte	0x8
 5549 0072 05       		.byte	0x5
 5550 0073 5C0A0000 		.4byte	.LASF9
 5551 0077 02       		.uleb128 0x2
 5552 0078 08       		.byte	0x8
 5553 0079 07       		.byte	0x7
 5554 007a 190E0000 		.4byte	.LASF10
 5555 007e 04       		.uleb128 0x4
 5556 007f 04       		.byte	0x4
 5557 0080 05       		.byte	0x5
 5558 0081 696E7400 		.ascii	"int\000"
 5559 0085 02       		.uleb128 0x2
 5560 0086 04       		.byte	0x4
 5561 0087 07       		.byte	0x7
 5562 0088 B10B0000 		.4byte	.LASF11
 5563 008c 03       		.uleb128 0x3
 5564 008d D7030000 		.4byte	.LASF12
 5565 0091 03       		.byte	0x3
 5566 0092 15       		.byte	0x15
 5567 0093 2C000000 		.4byte	0x2c
 5568 0097 03       		.uleb128 0x3
 5569 0098 4A0E0000 		.4byte	.LASF13
 5570 009c 03       		.byte	0x3
 5571 009d 21       		.byte	0x21
 5572 009e 45000000 		.4byte	0x45
 5573 00a2 03       		.uleb128 0x3
 5574 00a3 A6000000 		.4byte	.LASF14
 5575 00a7 03       		.byte	0x3
 5576 00a8 2C       		.byte	0x2c
 5577 00a9 57000000 		.4byte	0x57
 5578 00ad 05       		.uleb128 0x5
 5579 00ae D90F0000 		.4byte	.LASF15
 5580 00b2 04       		.byte	0x4
 5581 00b3 3801     		.2byte	0x138
 5582 00b5 37000000 		.4byte	0x37
 5583 00b9 05       		.uleb128 0x5
 5584 00ba D4120000 		.4byte	.LASF16
 5585 00be 04       		.byte	0x4
 5586 00bf 3901     		.2byte	0x139
 5587 00c1 50000000 		.4byte	0x50
 5588 00c5 05       		.uleb128 0x5
 5589 00c6 C1000000 		.4byte	.LASF17
 5590 00ca 04       		.byte	0x4
 5591 00cb 3A01     		.2byte	0x13a
 5592 00cd 69000000 		.4byte	0x69
 5593 00d1 02       		.uleb128 0x2
 5594 00d2 04       		.byte	0x4
 5595 00d3 04       		.byte	0x4
 5596 00d4 8F0B0000 		.4byte	.LASF18
 5597 00d8 02       		.uleb128 0x2
 5598 00d9 08       		.byte	0x8
ARM GAS  C:\Users\RECEPC~1\AppData\Local\Temp\cc79eMMA.s 			page 140


 5599 00da 04       		.byte	0x4
 5600 00db E10A0000 		.4byte	.LASF19
 5601 00df 05       		.uleb128 0x5
 5602 00e0 BF020000 		.4byte	.LASF20
 5603 00e4 04       		.byte	0x4
 5604 00e5 4401     		.2byte	0x144
 5605 00e7 77000000 		.4byte	0x77
 5606 00eb 05       		.uleb128 0x5
 5607 00ec 82010000 		.4byte	.LASF21
 5608 00f0 04       		.byte	0x4
 5609 00f1 4901     		.2byte	0x149
 5610 00f3 F7000000 		.4byte	0xf7
 5611 00f7 02       		.uleb128 0x2
 5612 00f8 01       		.byte	0x1
 5613 00f9 08       		.byte	0x8
 5614 00fa FE050000 		.4byte	.LASF22
 5615 00fe 05       		.uleb128 0x5
 5616 00ff 1D0C0000 		.4byte	.LASF23
 5617 0103 04       		.byte	0x4
 5618 0104 DA01     		.2byte	0x1da
 5619 0106 69000000 		.4byte	0x69
 5620 010a 06       		.uleb128 0x6
 5621 010b AD000000 		.4byte	0xad
 5622 010f 06       		.uleb128 0x6
 5623 0110 C5000000 		.4byte	0xc5
 5624 0114 05       		.uleb128 0x5
 5625 0115 AF0D0000 		.4byte	.LASF24
 5626 0119 04       		.byte	0x4
 5627 011a F401     		.2byte	0x1f4
 5628 011c 20010000 		.4byte	0x120
 5629 0120 07       		.uleb128 0x7
 5630 0121 04       		.byte	0x4
 5631 0122 26010000 		.4byte	0x126
 5632 0126 08       		.uleb128 0x8
 5633 0127 02       		.uleb128 0x2
 5634 0128 04       		.byte	0x4
 5635 0129 07       		.byte	0x7
 5636 012a 0A000000 		.4byte	.LASF25
 5637 012e 07       		.uleb128 0x7
 5638 012f 04       		.byte	0x4
 5639 0130 34010000 		.4byte	0x134
 5640 0134 09       		.uleb128 0x9
 5641 0135 F7000000 		.4byte	0xf7
 5642 0139 0A       		.uleb128 0xa
 5643 013a AD000000 		.4byte	0xad
 5644 013e 49010000 		.4byte	0x149
 5645 0142 0B       		.uleb128 0xb
 5646 0143 27010000 		.4byte	0x127
 5647 0147 03       		.byte	0x3
 5648 0148 00       		.byte	0
 5649 0149 0C       		.uleb128 0xc
 5650 014a 33080000 		.4byte	.LASF68
 5651 014e 4C01     		.2byte	0x14c
 5652 0150 05       		.byte	0x5
 5653 0151 7A       		.byte	0x7a
 5654 0152 5D030000 		.4byte	0x35d
 5655 0156 0D       		.uleb128 0xd
ARM GAS  C:\Users\RECEPC~1\AppData\Local\Temp\cc79eMMA.s 			page 141


 5656 0157 BA000000 		.4byte	.LASF26
 5657 015b 05       		.byte	0x5
 5658 015c 7B       		.byte	0x7b
 5659 015d AD000000 		.4byte	0xad
 5660 0161 00       		.byte	0
 5661 0162 0D       		.uleb128 0xd
 5662 0163 97020000 		.4byte	.LASF27
 5663 0167 05       		.byte	0x5
 5664 0168 7C       		.byte	0x7c
 5665 0169 5D030000 		.4byte	0x35d
 5666 016d 01       		.byte	0x1
 5667 016e 0D       		.uleb128 0xd
 5668 016f BF110000 		.4byte	.LASF28
 5669 0173 05       		.byte	0x5
 5670 0174 7D       		.byte	0x7d
 5671 0175 AD000000 		.4byte	0xad
 5672 0179 1A       		.byte	0x1a
 5673 017a 0D       		.uleb128 0xd
 5674 017b 31060000 		.4byte	.LASF29
 5675 017f 05       		.byte	0x5
 5676 0180 7E       		.byte	0x7e
 5677 0181 AD000000 		.4byte	0xad
 5678 0185 1B       		.byte	0x1b
 5679 0186 0D       		.uleb128 0xd
 5680 0187 54090000 		.4byte	.LASF30
 5681 018b 05       		.byte	0x5
 5682 018c 7F       		.byte	0x7f
 5683 018d 6D030000 		.4byte	0x36d
 5684 0191 1C       		.byte	0x1c
 5685 0192 0D       		.uleb128 0xd
 5686 0193 94000000 		.4byte	.LASF31
 5687 0197 05       		.byte	0x5
 5688 0198 80       		.byte	0x80
 5689 0199 6D030000 		.4byte	0x36d
 5690 019d 26       		.byte	0x26
 5691 019e 0D       		.uleb128 0xd
 5692 019f 6C090000 		.4byte	.LASF32
 5693 01a3 05       		.byte	0x5
 5694 01a4 81       		.byte	0x81
 5695 01a5 5D030000 		.4byte	0x35d
 5696 01a9 30       		.byte	0x30
 5697 01aa 0D       		.uleb128 0xd
 5698 01ab 4C0C0000 		.4byte	.LASF33
 5699 01af 05       		.byte	0x5
 5700 01b0 82       		.byte	0x82
 5701 01b1 AD000000 		.4byte	0xad
 5702 01b5 49       		.byte	0x49
 5703 01b6 0D       		.uleb128 0xd
 5704 01b7 7C0F0000 		.4byte	.LASF34
 5705 01bb 05       		.byte	0x5
 5706 01bc 83       		.byte	0x83
 5707 01bd AD000000 		.4byte	0xad
 5708 01c1 4A       		.byte	0x4a
 5709 01c2 0D       		.uleb128 0xd
 5710 01c3 00000000 		.4byte	.LASF35
 5711 01c7 05       		.byte	0x5
 5712 01c8 84       		.byte	0x84
ARM GAS  C:\Users\RECEPC~1\AppData\Local\Temp\cc79eMMA.s 			page 142


 5713 01c9 7D030000 		.4byte	0x37d
 5714 01cd 4B       		.byte	0x4b
 5715 01ce 0D       		.uleb128 0xd
 5716 01cf 8E0D0000 		.4byte	.LASF36
 5717 01d3 05       		.byte	0x5
 5718 01d4 85       		.byte	0x85
 5719 01d5 AD000000 		.4byte	0xad
 5720 01d9 60       		.byte	0x60
 5721 01da 0D       		.uleb128 0xd
 5722 01db 3E040000 		.4byte	.LASF37
 5723 01df 05       		.byte	0x5
 5724 01e0 86       		.byte	0x86
 5725 01e1 AD000000 		.4byte	0xad
 5726 01e5 61       		.byte	0x61
 5727 01e6 0D       		.uleb128 0xd
 5728 01e7 110C0000 		.4byte	.LASF38
 5729 01eb 05       		.byte	0x5
 5730 01ec 87       		.byte	0x87
 5731 01ed AD000000 		.4byte	0xad
 5732 01f1 62       		.byte	0x62
 5733 01f2 0D       		.uleb128 0xd
 5734 01f3 23070000 		.4byte	.LASF39
 5735 01f7 05       		.byte	0x5
 5736 01f8 88       		.byte	0x88
 5737 01f9 8D030000 		.4byte	0x38d
 5738 01fd 63       		.byte	0x63
 5739 01fe 0D       		.uleb128 0xd
 5740 01ff 400C0000 		.4byte	.LASF40
 5741 0203 05       		.byte	0x5
 5742 0204 89       		.byte	0x89
 5743 0205 9D030000 		.4byte	0x39d
 5744 0209 65       		.byte	0x65
 5745 020a 0D       		.uleb128 0xd
 5746 020b A9110000 		.4byte	.LASF41
 5747 020f 05       		.byte	0x5
 5748 0210 8A       		.byte	0x8a
 5749 0211 AD000000 		.4byte	0xad
 5750 0215 79       		.byte	0x79
 5751 0216 0D       		.uleb128 0xd
 5752 0217 8E060000 		.4byte	.LASF42
 5753 021b 05       		.byte	0x5
 5754 021c 8B       		.byte	0x8b
 5755 021d B3030000 		.4byte	0x3b3
 5756 0221 7A       		.byte	0x7a
 5757 0222 0D       		.uleb128 0xd
 5758 0223 250D0000 		.4byte	.LASF43
 5759 0227 05       		.byte	0x5
 5760 0228 8C       		.byte	0x8c
 5761 0229 C3030000 		.4byte	0x3c3
 5762 022d 7F       		.byte	0x7f
 5763 022e 0D       		.uleb128 0xd
 5764 022f 160D0000 		.4byte	.LASF44
 5765 0233 05       		.byte	0x5
 5766 0234 8D       		.byte	0x8d
 5767 0235 C3030000 		.4byte	0x3c3
 5768 0239 85       		.byte	0x85
 5769 023a 0D       		.uleb128 0xd
ARM GAS  C:\Users\RECEPC~1\AppData\Local\Temp\cc79eMMA.s 			page 143


 5770 023b 19030000 		.4byte	.LASF45
 5771 023f 05       		.byte	0x5
 5772 0240 8E       		.byte	0x8e
 5773 0241 D3030000 		.4byte	0x3d3
 5774 0245 8B       		.byte	0x8b
 5775 0246 0D       		.uleb128 0xd
 5776 0247 67070000 		.4byte	.LASF46
 5777 024b 05       		.byte	0x5
 5778 024c 8F       		.byte	0x8f
 5779 024d D3030000 		.4byte	0x3d3
 5780 0251 99       		.byte	0x99
 5781 0252 0D       		.uleb128 0xd
 5782 0253 5D110000 		.4byte	.LASF47
 5783 0257 05       		.byte	0x5
 5784 0258 90       		.byte	0x90
 5785 0259 D3030000 		.4byte	0x3d3
 5786 025d A7       		.byte	0xa7
 5787 025e 0D       		.uleb128 0xd
 5788 025f 6F0C0000 		.4byte	.LASF48
 5789 0263 05       		.byte	0x5
 5790 0264 91       		.byte	0x91
 5791 0265 D3030000 		.4byte	0x3d3
 5792 0269 B5       		.byte	0xb5
 5793 026a 0D       		.uleb128 0xd
 5794 026b 530E0000 		.4byte	.LASF49
 5795 026f 05       		.byte	0x5
 5796 0270 92       		.byte	0x92
 5797 0271 D3030000 		.4byte	0x3d3
 5798 0275 C3       		.byte	0xc3
 5799 0276 0D       		.uleb128 0xd
 5800 0277 46090000 		.4byte	.LASF50
 5801 027b 05       		.byte	0x5
 5802 027c 93       		.byte	0x93
 5803 027d D3030000 		.4byte	0x3d3
 5804 0281 D1       		.byte	0xd1
 5805 0282 0D       		.uleb128 0xd
 5806 0283 96010000 		.4byte	.LASF51
 5807 0287 05       		.byte	0x5
 5808 0288 94       		.byte	0x94
 5809 0289 E3030000 		.4byte	0x3e3
 5810 028d DF       		.byte	0xdf
 5811 028e 0D       		.uleb128 0xd
 5812 028f 24110000 		.4byte	.LASF52
 5813 0293 05       		.byte	0x5
 5814 0294 95       		.byte	0x95
 5815 0295 E3030000 		.4byte	0x3e3
 5816 0299 EA       		.byte	0xea
 5817 029a 0D       		.uleb128 0xd
 5818 029b 75100000 		.4byte	.LASF53
 5819 029f 05       		.byte	0x5
 5820 02a0 96       		.byte	0x96
 5821 02a1 E3030000 		.4byte	0x3e3
 5822 02a5 F5       		.byte	0xf5
 5823 02a6 0E       		.uleb128 0xe
 5824 02a7 80120000 		.4byte	.LASF54
 5825 02ab 05       		.byte	0x5
 5826 02ac 97       		.byte	0x97
ARM GAS  C:\Users\RECEPC~1\AppData\Local\Temp\cc79eMMA.s 			page 144


 5827 02ad AD000000 		.4byte	0xad
 5828 02b1 0001     		.2byte	0x100
 5829 02b3 0E       		.uleb128 0xe
 5830 02b4 14010000 		.4byte	.LASF55
 5831 02b8 05       		.byte	0x5
 5832 02b9 98       		.byte	0x98
 5833 02ba AD000000 		.4byte	0xad
 5834 02be 0101     		.2byte	0x101
 5835 02c0 0E       		.uleb128 0xe
 5836 02c1 83020000 		.4byte	.LASF56
 5837 02c5 05       		.byte	0x5
 5838 02c6 99       		.byte	0x99
 5839 02c7 AD000000 		.4byte	0xad
 5840 02cb 0201     		.2byte	0x102
 5841 02cd 0E       		.uleb128 0xe
 5842 02ce FC000000 		.4byte	.LASF57
 5843 02d2 05       		.byte	0x5
 5844 02d3 9A       		.byte	0x9a
 5845 02d4 AD000000 		.4byte	0xad
 5846 02d8 0301     		.2byte	0x103
 5847 02da 0E       		.uleb128 0xe
 5848 02db 61090000 		.4byte	.LASF58
 5849 02df 05       		.byte	0x5
 5850 02e0 9B       		.byte	0x9b
 5851 02e1 6D030000 		.4byte	0x36d
 5852 02e5 0401     		.2byte	0x104
 5853 02e7 0E       		.uleb128 0xe
 5854 02e8 77020000 		.4byte	.LASF59
 5855 02ec 05       		.byte	0x5
 5856 02ed 9C       		.byte	0x9c
 5857 02ee 6D030000 		.4byte	0x36d
 5858 02f2 0E01     		.2byte	0x10e
 5859 02f4 0E       		.uleb128 0xe
 5860 02f5 7F090000 		.4byte	.LASF60
 5861 02f9 05       		.byte	0x5
 5862 02fa 9D       		.byte	0x9d
 5863 02fb 6D030000 		.4byte	0x36d
 5864 02ff 1801     		.2byte	0x118
 5865 0301 0E       		.uleb128 0xe
 5866 0302 9D120000 		.4byte	.LASF61
 5867 0306 05       		.byte	0x5
 5868 0307 9E       		.byte	0x9e
 5869 0308 F3030000 		.4byte	0x3f3
 5870 030c 2201     		.2byte	0x122
 5871 030e 0E       		.uleb128 0xe
 5872 030f 0A020000 		.4byte	.LASF62
 5873 0313 05       		.byte	0x5
 5874 0314 9F       		.byte	0x9f
 5875 0315 8D030000 		.4byte	0x38d
 5876 0319 3101     		.2byte	0x131
 5877 031b 0E       		.uleb128 0xe
 5878 031c 4C070000 		.4byte	.LASF63
 5879 0320 05       		.byte	0x5
 5880 0321 A0       		.byte	0xa0
 5881 0322 AD000000 		.4byte	0xad
 5882 0326 3301     		.2byte	0x133
 5883 0328 0E       		.uleb128 0xe
ARM GAS  C:\Users\RECEPC~1\AppData\Local\Temp\cc79eMMA.s 			page 145


 5884 0329 A60E0000 		.4byte	.LASF64
 5885 032d 05       		.byte	0x5
 5886 032e A1       		.byte	0xa1
 5887 032f AD000000 		.4byte	0xad
 5888 0333 3401     		.2byte	0x134
 5889 0335 0E       		.uleb128 0xe
 5890 0336 D4010000 		.4byte	.LASF65
 5891 033a 05       		.byte	0x5
 5892 033b A2       		.byte	0xa2
 5893 033c AD000000 		.4byte	0xad
 5894 0340 3501     		.2byte	0x135
 5895 0342 0E       		.uleb128 0xe
 5896 0343 A90B0000 		.4byte	.LASF66
 5897 0347 05       		.byte	0x5
 5898 0348 A3       		.byte	0xa3
 5899 0349 E3030000 		.4byte	0x3e3
 5900 034d 3601     		.2byte	0x136
 5901 034f 0E       		.uleb128 0xe
 5902 0350 A5050000 		.4byte	.LASF67
 5903 0354 05       		.byte	0x5
 5904 0355 A4       		.byte	0xa4
 5905 0356 E3030000 		.4byte	0x3e3
 5906 035a 4101     		.2byte	0x141
 5907 035c 00       		.byte	0
 5908 035d 0A       		.uleb128 0xa
 5909 035e AD000000 		.4byte	0xad
 5910 0362 6D030000 		.4byte	0x36d
 5911 0366 0B       		.uleb128 0xb
 5912 0367 27010000 		.4byte	0x127
 5913 036b 18       		.byte	0x18
 5914 036c 00       		.byte	0
 5915 036d 0A       		.uleb128 0xa
 5916 036e AD000000 		.4byte	0xad
 5917 0372 7D030000 		.4byte	0x37d
 5918 0376 0B       		.uleb128 0xb
 5919 0377 27010000 		.4byte	0x127
 5920 037b 09       		.byte	0x9
 5921 037c 00       		.byte	0
 5922 037d 0A       		.uleb128 0xa
 5923 037e AD000000 		.4byte	0xad
 5924 0382 8D030000 		.4byte	0x38d
 5925 0386 0B       		.uleb128 0xb
 5926 0387 27010000 		.4byte	0x127
 5927 038b 14       		.byte	0x14
 5928 038c 00       		.byte	0
 5929 038d 0A       		.uleb128 0xa
 5930 038e AD000000 		.4byte	0xad
 5931 0392 9D030000 		.4byte	0x39d
 5932 0396 0B       		.uleb128 0xb
 5933 0397 27010000 		.4byte	0x127
 5934 039b 01       		.byte	0x1
 5935 039c 00       		.byte	0
 5936 039d 0A       		.uleb128 0xa
 5937 039e AD000000 		.4byte	0xad
 5938 03a2 B3030000 		.4byte	0x3b3
 5939 03a6 0B       		.uleb128 0xb
 5940 03a7 27010000 		.4byte	0x127
ARM GAS  C:\Users\RECEPC~1\AppData\Local\Temp\cc79eMMA.s 			page 146


 5941 03ab 01       		.byte	0x1
 5942 03ac 0B       		.uleb128 0xb
 5943 03ad 27010000 		.4byte	0x127
 5944 03b1 09       		.byte	0x9
 5945 03b2 00       		.byte	0
 5946 03b3 0A       		.uleb128 0xa
 5947 03b4 AD000000 		.4byte	0xad
 5948 03b8 C3030000 		.4byte	0x3c3
 5949 03bc 0B       		.uleb128 0xb
 5950 03bd 27010000 		.4byte	0x127
 5951 03c1 04       		.byte	0x4
 5952 03c2 00       		.byte	0
 5953 03c3 0A       		.uleb128 0xa
 5954 03c4 AD000000 		.4byte	0xad
 5955 03c8 D3030000 		.4byte	0x3d3
 5956 03cc 0B       		.uleb128 0xb
 5957 03cd 27010000 		.4byte	0x127
 5958 03d1 05       		.byte	0x5
 5959 03d2 00       		.byte	0
 5960 03d3 0A       		.uleb128 0xa
 5961 03d4 AD000000 		.4byte	0xad
 5962 03d8 E3030000 		.4byte	0x3e3
 5963 03dc 0B       		.uleb128 0xb
 5964 03dd 27010000 		.4byte	0x127
 5965 03e1 0D       		.byte	0xd
 5966 03e2 00       		.byte	0
 5967 03e3 0A       		.uleb128 0xa
 5968 03e4 AD000000 		.4byte	0xad
 5969 03e8 F3030000 		.4byte	0x3f3
 5970 03ec 0B       		.uleb128 0xb
 5971 03ed 27010000 		.4byte	0x127
 5972 03f1 0A       		.byte	0xa
 5973 03f2 00       		.byte	0
 5974 03f3 0A       		.uleb128 0xa
 5975 03f4 AD000000 		.4byte	0xad
 5976 03f8 03040000 		.4byte	0x403
 5977 03fc 0B       		.uleb128 0xb
 5978 03fd 27010000 		.4byte	0x127
 5979 0401 0E       		.byte	0xe
 5980 0402 00       		.byte	0
 5981 0403 0C       		.uleb128 0xc
 5982 0404 F30B0000 		.4byte	.LASF69
 5983 0408 0601     		.2byte	0x106
 5984 040a 05       		.byte	0x5
 5985 040b B5       		.byte	0xb5
 5986 040c B3040000 		.4byte	0x4b3
 5987 0410 0F       		.uleb128 0xf
 5988 0411 64697200 		.ascii	"dir\000"
 5989 0415 05       		.byte	0x5
 5990 0416 B6       		.byte	0xb6
 5991 0417 AD000000 		.4byte	0xad
 5992 041b 00       		.byte	0
 5993 041c 0D       		.uleb128 0xd
 5994 041d B3050000 		.4byte	.LASF70
 5995 0421 05       		.byte	0x5
 5996 0422 B7       		.byte	0xb7
 5997 0423 B3040000 		.4byte	0x4b3
ARM GAS  C:\Users\RECEPC~1\AppData\Local\Temp\cc79eMMA.s 			page 147


 5998 0427 01       		.byte	0x1
 5999 0428 0D       		.uleb128 0xd
 6000 0429 D3070000 		.4byte	.LASF71
 6001 042d 05       		.byte	0x5
 6002 042e B8       		.byte	0xb8
 6003 042f CF040000 		.4byte	0x4cf
 6004 0433 B5       		.byte	0xb5
 6005 0434 0D       		.uleb128 0xd
 6006 0435 90110000 		.4byte	.LASF72
 6007 0439 05       		.byte	0x5
 6008 043a B9       		.byte	0xb9
 6009 043b D3030000 		.4byte	0x3d3
 6010 043f D5       		.byte	0xd5
 6011 0440 0D       		.uleb128 0xd
 6012 0441 950B0000 		.4byte	.LASF73
 6013 0445 05       		.byte	0x5
 6014 0446 BA       		.byte	0xba
 6015 0447 D3030000 		.4byte	0x3d3
 6016 044b E3       		.byte	0xe3
 6017 044c 0D       		.uleb128 0xd
 6018 044d 9B100000 		.4byte	.LASF74
 6019 0451 05       		.byte	0x5
 6020 0452 BB       		.byte	0xbb
 6021 0453 D3030000 		.4byte	0x3d3
 6022 0457 F1       		.byte	0xf1
 6023 0458 0D       		.uleb128 0xd
 6024 0459 3A090000 		.4byte	.LASF75
 6025 045d 05       		.byte	0x5
 6026 045e BC       		.byte	0xbc
 6027 045f AD000000 		.4byte	0xad
 6028 0463 FF       		.byte	0xff
 6029 0464 0E       		.uleb128 0xe
 6030 0465 54100000 		.4byte	.LASF76
 6031 0469 05       		.byte	0x5
 6032 046a BD       		.byte	0xbd
 6033 046b AD000000 		.4byte	0xad
 6034 046f 0001     		.2byte	0x100
 6035 0471 0E       		.uleb128 0xe
 6036 0472 B20F0000 		.4byte	.LASF77
 6037 0476 05       		.byte	0x5
 6038 0477 BE       		.byte	0xbe
 6039 0478 AD000000 		.4byte	0xad
 6040 047c 0101     		.2byte	0x101
 6041 047e 0E       		.uleb128 0xe
 6042 047f E20D0000 		.4byte	.LASF78
 6043 0483 05       		.byte	0x5
 6044 0484 BF       		.byte	0xbf
 6045 0485 AD000000 		.4byte	0xad
 6046 0489 0201     		.2byte	0x102
 6047 048b 0E       		.uleb128 0xe
 6048 048c 31000000 		.4byte	.LASF79
 6049 0490 05       		.byte	0x5
 6050 0491 C0       		.byte	0xc0
 6051 0492 AD000000 		.4byte	0xad
 6052 0496 0301     		.2byte	0x103
 6053 0498 0E       		.uleb128 0xe
 6054 0499 15050000 		.4byte	.LASF80
ARM GAS  C:\Users\RECEPC~1\AppData\Local\Temp\cc79eMMA.s 			page 148


 6055 049d 05       		.byte	0x5
 6056 049e C1       		.byte	0xc1
 6057 049f AD000000 		.4byte	0xad
 6058 04a3 0401     		.2byte	0x104
 6059 04a5 0E       		.uleb128 0xe
 6060 04a6 C0120000 		.4byte	.LASF81
 6061 04aa 05       		.byte	0x5
 6062 04ab C2       		.byte	0xc2
 6063 04ac AD000000 		.4byte	0xad
 6064 04b0 0501     		.2byte	0x105
 6065 04b2 00       		.byte	0
 6066 04b3 0A       		.uleb128 0xa
 6067 04b4 AD000000 		.4byte	0xad
 6068 04b8 CF040000 		.4byte	0x4cf
 6069 04bc 0B       		.uleb128 0xb
 6070 04bd 27010000 		.4byte	0x127
 6071 04c1 03       		.byte	0x3
 6072 04c2 0B       		.uleb128 0xb
 6073 04c3 27010000 		.4byte	0x127
 6074 04c7 02       		.byte	0x2
 6075 04c8 0B       		.uleb128 0xb
 6076 04c9 27010000 		.4byte	0x127
 6077 04cd 0E       		.byte	0xe
 6078 04ce 00       		.byte	0
 6079 04cf 0A       		.uleb128 0xa
 6080 04d0 AD000000 		.4byte	0xad
 6081 04d4 E5040000 		.4byte	0x4e5
 6082 04d8 0B       		.uleb128 0xb
 6083 04d9 27010000 		.4byte	0x127
 6084 04dd 03       		.byte	0x3
 6085 04de 0B       		.uleb128 0xb
 6086 04df 27010000 		.4byte	0x127
 6087 04e3 07       		.byte	0x7
 6088 04e4 00       		.byte	0
 6089 04e5 0C       		.uleb128 0xc
 6090 04e6 BD100000 		.4byte	.LASF82
 6091 04ea 1804     		.2byte	0x418
 6092 04ec 05       		.byte	0x5
 6093 04ed C5       		.byte	0xc5
 6094 04ee 1E050000 		.4byte	0x51e
 6095 04f2 0F       		.uleb128 0xf
 6096 04f3 6100     		.ascii	"a\000"
 6097 04f5 05       		.byte	0x5
 6098 04f6 C6       		.byte	0xc6
 6099 04f7 03040000 		.4byte	0x403
 6100 04fb 00       		.byte	0
 6101 04fc 10       		.uleb128 0x10
 6102 04fd 6200     		.ascii	"b\000"
 6103 04ff 05       		.byte	0x5
 6104 0500 C7       		.byte	0xc7
 6105 0501 03040000 		.4byte	0x403
 6106 0505 0601     		.2byte	0x106
 6107 0507 10       		.uleb128 0x10
 6108 0508 6300     		.ascii	"c\000"
 6109 050a 05       		.byte	0x5
 6110 050b C8       		.byte	0xc8
 6111 050c 03040000 		.4byte	0x403
ARM GAS  C:\Users\RECEPC~1\AppData\Local\Temp\cc79eMMA.s 			page 149


 6112 0510 0C02     		.2byte	0x20c
 6113 0512 10       		.uleb128 0x10
 6114 0513 6400     		.ascii	"d\000"
 6115 0515 05       		.byte	0x5
 6116 0516 C9       		.byte	0xc9
 6117 0517 03040000 		.4byte	0x403
 6118 051b 1203     		.2byte	0x312
 6119 051d 00       		.byte	0
 6120 051e 11       		.uleb128 0x11
 6121 051f F4020000 		.4byte	.LASF140
 6122 0523 01       		.byte	0x1
 6123 0524 05       		.byte	0x5
 6124 0525 DF       		.byte	0xdf
 6125 0526 97060000 		.4byte	0x697
 6126 052a 12       		.uleb128 0x12
 6127 052b 6A030000 		.4byte	.LASF83
 6128 052f 00       		.sleb128 0
 6129 0530 12       		.uleb128 0x12
 6130 0531 9F0D0000 		.4byte	.LASF84
 6131 0535 01       		.sleb128 1
 6132 0536 12       		.uleb128 0x12
 6133 0537 3A080000 		.4byte	.LASF85
 6134 053b 02       		.sleb128 2
 6135 053c 12       		.uleb128 0x12
 6136 053d 4A080000 		.4byte	.LASF86
 6137 0541 03       		.sleb128 3
 6138 0542 12       		.uleb128 0x12
 6139 0543 FE0D0000 		.4byte	.LASF87
 6140 0547 04       		.sleb128 4
 6141 0548 12       		.uleb128 0x12
 6142 0549 97070000 		.4byte	.LASF88
 6143 054d 05       		.sleb128 5
 6144 054e 12       		.uleb128 0x12
 6145 054f 2D050000 		.4byte	.LASF89
 6146 0553 06       		.sleb128 6
 6147 0554 12       		.uleb128 0x12
 6148 0555 5D020000 		.4byte	.LASF90
 6149 0559 0F       		.sleb128 15
 6150 055a 12       		.uleb128 0x12
 6151 055b 080B0000 		.4byte	.LASF91
 6152 055f FE00     		.sleb128 126
 6153 0561 12       		.uleb128 0x12
 6154 0562 250B0000 		.4byte	.LASF92
 6155 0566 8601     		.sleb128 134
 6156 0568 12       		.uleb128 0x12
 6157 0569 76000000 		.4byte	.LASF93
 6158 056d 07       		.sleb128 7
 6159 056e 12       		.uleb128 0x12
 6160 056f 290F0000 		.4byte	.LASF94
 6161 0573 08       		.sleb128 8
 6162 0574 12       		.uleb128 0x12
 6163 0575 2E070000 		.4byte	.LASF95
 6164 0579 09       		.sleb128 9
 6165 057a 12       		.uleb128 0x12
 6166 057b FC0B0000 		.4byte	.LASF96
 6167 057f 0A       		.sleb128 10
 6168 0580 12       		.uleb128 0x12
ARM GAS  C:\Users\RECEPC~1\AppData\Local\Temp\cc79eMMA.s 			page 150


 6169 0581 880A0000 		.4byte	.LASF97
 6170 0585 0B       		.sleb128 11
 6171 0586 12       		.uleb128 0x12
 6172 0587 97060000 		.4byte	.LASF98
 6173 058b 25       		.sleb128 37
 6174 058c 12       		.uleb128 0x12
 6175 058d E80A0000 		.4byte	.LASF99
 6176 0591 26       		.sleb128 38
 6177 0592 12       		.uleb128 0x12
 6178 0593 420B0000 		.4byte	.LASF100
 6179 0597 27       		.sleb128 39
 6180 0598 12       		.uleb128 0x12
 6181 0599 E2090000 		.4byte	.LASF101
 6182 059d 2F       		.sleb128 47
 6183 059e 12       		.uleb128 0x12
 6184 059f F2030000 		.4byte	.LASF102
 6185 05a3 2C       		.sleb128 44
 6186 05a4 12       		.uleb128 0x12
 6187 05a5 A60A0000 		.4byte	.LASF103
 6188 05a9 0C       		.sleb128 12
 6189 05aa 12       		.uleb128 0x12
 6190 05ab DF030000 		.4byte	.LASF104
 6191 05af 8501     		.sleb128 133
 6192 05b1 12       		.uleb128 0x12
 6193 05b2 BE0B0000 		.4byte	.LASF105
 6194 05b6 1C       		.sleb128 28
 6195 05b7 12       		.uleb128 0x12
 6196 05b8 CD0D0000 		.4byte	.LASF106
 6197 05bc 12       		.sleb128 18
 6198 05bd 12       		.uleb128 0x12
 6199 05be F9090000 		.4byte	.LASF107
 6200 05c2 13       		.sleb128 19
 6201 05c3 12       		.uleb128 0x12
 6202 05c4 A3100000 		.4byte	.LASF108
 6203 05c8 24       		.sleb128 36
 6204 05c9 12       		.uleb128 0x12
 6205 05ca 610F0000 		.4byte	.LASF109
 6206 05ce 0D       		.sleb128 13
 6207 05cf 12       		.uleb128 0x12
 6208 05d0 44030000 		.4byte	.LASF110
 6209 05d4 0E       		.sleb128 14
 6210 05d5 12       		.uleb128 0x12
 6211 05d6 700D0000 		.4byte	.LASF111
 6212 05da 8301     		.sleb128 131
 6213 05dc 12       		.uleb128 0x12
 6214 05dd 6A010000 		.4byte	.LASF112
 6215 05e1 DA00     		.sleb128 90
 6216 05e3 12       		.uleb128 0x12
 6217 05e4 C8000000 		.4byte	.LASF113
 6218 05e8 31       		.sleb128 49
 6219 05e9 12       		.uleb128 0x12
 6220 05ea 16090000 		.4byte	.LASF114
 6221 05ee 35       		.sleb128 53
 6222 05ef 12       		.uleb128 0x12
 6223 05f0 7B070000 		.4byte	.LASF115
 6224 05f4 2E       		.sleb128 46
 6225 05f5 12       		.uleb128 0x12
ARM GAS  C:\Users\RECEPC~1\AppData\Local\Temp\cc79eMMA.s 			page 151


 6226 05f6 540D0000 		.4byte	.LASF116
 6227 05fa 8C01     		.sleb128 140
 6228 05fc 12       		.uleb128 0x12
 6229 05fd 50050000 		.4byte	.LASF117
 6230 0601 9601     		.sleb128 150
 6231 0603 12       		.uleb128 0x12
 6232 0604 8C030000 		.4byte	.LASF118
 6233 0608 39       		.sleb128 57
 6234 0609 12       		.uleb128 0x12
 6235 060a 6A0A0000 		.4byte	.LASF119
 6236 060e 9701     		.sleb128 151
 6237 0610 12       		.uleb128 0x12
 6238 0611 F8120000 		.4byte	.LASF120
 6239 0615 9801     		.sleb128 152
 6240 0617 12       		.uleb128 0x12
 6241 0618 D50C0000 		.4byte	.LASF121
 6242 061c 3E       		.sleb128 62
 6243 061d 12       		.uleb128 0x12
 6244 061e 3D0F0000 		.4byte	.LASF122
 6245 0622 3F       		.sleb128 63
 6246 0623 12       		.uleb128 0x12
 6247 0624 B3030000 		.4byte	.LASF123
 6248 0628 C000     		.sleb128 64
 6249 062a 12       		.uleb128 0x12
 6250 062b 6E110000 		.4byte	.LASF124
 6251 062f 8D01     		.sleb128 141
 6252 0631 12       		.uleb128 0x12
 6253 0632 2B010000 		.4byte	.LASF125
 6254 0636 23       		.sleb128 35
 6255 0637 12       		.uleb128 0x12
 6256 0638 5E040000 		.4byte	.LASF126
 6257 063c 2A       		.sleb128 42
 6258 063d 12       		.uleb128 0x12
 6259 063e B70F0000 		.4byte	.LASF127
 6260 0642 2B       		.sleb128 43
 6261 0643 12       		.uleb128 0x12
 6262 0644 47040000 		.4byte	.LASF128
 6263 0648 3C       		.sleb128 60
 6264 0649 12       		.uleb128 0x12
 6265 064a 7E080000 		.4byte	.LASF129
 6266 064e C100     		.sleb128 65
 6267 0650 12       		.uleb128 0x12
 6268 0651 03060000 		.4byte	.LASF130
 6269 0655 EB00     		.sleb128 107
 6270 0657 12       		.uleb128 0x12
 6271 0658 1C0A0000 		.4byte	.LASF131
 6272 065c E700     		.sleb128 103
 6273 065e 12       		.uleb128 0x12
 6274 065f A0020000 		.4byte	.LASF132
 6275 0663 E400     		.sleb128 100
 6276 0665 12       		.uleb128 0x12
 6277 0666 01100000 		.4byte	.LASF133
 6278 066a E500     		.sleb128 101
 6279 066c 12       		.uleb128 0x12
 6280 066d DA080000 		.4byte	.LASF134
 6281 0671 9901     		.sleb128 153
 6282 0673 12       		.uleb128 0x12
ARM GAS  C:\Users\RECEPC~1\AppData\Local\Temp\cc79eMMA.s 			page 152


 6283 0674 E9080000 		.4byte	.LASF135
 6284 0678 9A01     		.sleb128 154
 6285 067a 12       		.uleb128 0x12
 6286 067b F8080000 		.4byte	.LASF136
 6287 067f 9B01     		.sleb128 155
 6288 0681 12       		.uleb128 0x12
 6289 0682 07090000 		.4byte	.LASF137
 6290 0686 9C01     		.sleb128 156
 6291 0688 12       		.uleb128 0x12
 6292 0689 AC0C0000 		.4byte	.LASF138
 6293 068d FA01     		.sleb128 250
 6294 068f 12       		.uleb128 0x12
 6295 0690 32100000 		.4byte	.LASF139
 6296 0694 FF01     		.sleb128 255
 6297 0696 00       		.byte	0
 6298 0697 13       		.uleb128 0x13
 6299 0698 46120000 		.4byte	.LASF141
 6300 069c 01       		.byte	0x1
 6301 069d 05       		.byte	0x5
 6302 069e 2A01     		.2byte	0x12a
 6303 06a0 D5060000 		.4byte	0x6d5
 6304 06a4 12       		.uleb128 0x12
 6305 06a5 340D0000 		.4byte	.LASF142
 6306 06a9 00       		.sleb128 0
 6307 06aa 12       		.uleb128 0x12
 6308 06ab 0D110000 		.4byte	.LASF143
 6309 06af 06       		.sleb128 6
 6310 06b0 12       		.uleb128 0x12
 6311 06b1 820B0000 		.4byte	.LASF144
 6312 06b5 07       		.sleb128 7
 6313 06b6 12       		.uleb128 0x12
 6314 06b7 5E120000 		.4byte	.LASF145
 6315 06bb 08       		.sleb128 8
 6316 06bc 12       		.uleb128 0x12
 6317 06bd F30C0000 		.4byte	.LASF146
 6318 06c1 09       		.sleb128 9
 6319 06c2 12       		.uleb128 0x12
 6320 06c3 840E0000 		.4byte	.LASF147
 6321 06c7 0A       		.sleb128 10
 6322 06c8 12       		.uleb128 0x12
 6323 06c9 840D0000 		.4byte	.LASF148
 6324 06cd 0B       		.sleb128 11
 6325 06ce 12       		.uleb128 0x12
 6326 06cf AA120000 		.4byte	.LASF149
 6327 06d3 0C       		.sleb128 12
 6328 06d4 00       		.byte	0
 6329 06d5 13       		.uleb128 0x13
 6330 06d6 08010000 		.4byte	.LASF150
 6331 06da 01       		.byte	0x1
 6332 06db 05       		.byte	0x5
 6333 06dc 3601     		.2byte	0x136
 6334 06de 19070000 		.4byte	0x719
 6335 06e2 12       		.uleb128 0x12
 6336 06e3 62010000 		.4byte	.LASF151
 6337 06e7 08       		.sleb128 8
 6338 06e8 12       		.uleb128 0x12
 6339 06e9 C40A0000 		.4byte	.LASF152
ARM GAS  C:\Users\RECEPC~1\AppData\Local\Temp\cc79eMMA.s 			page 153


 6340 06ed 01       		.sleb128 1
 6341 06ee 12       		.uleb128 0x12
 6342 06ef 9A0C0000 		.4byte	.LASF153
 6343 06f3 02       		.sleb128 2
 6344 06f4 12       		.uleb128 0x12
 6345 06f5 5D0C0000 		.4byte	.LASF154
 6346 06f9 03       		.sleb128 3
 6347 06fa 12       		.uleb128 0x12
 6348 06fb 95050000 		.4byte	.LASF155
 6349 06ff 05       		.sleb128 5
 6350 0700 12       		.uleb128 0x12
 6351 0701 62000000 		.4byte	.LASF156
 6352 0705 06       		.sleb128 6
 6353 0706 12       		.uleb128 0x12
 6354 0707 7F0C0000 		.4byte	.LASF157
 6355 070b 04       		.sleb128 4
 6356 070c 12       		.uleb128 0x12
 6357 070d 510F0000 		.4byte	.LASF158
 6358 0711 0B       		.sleb128 11
 6359 0712 12       		.uleb128 0x12
 6360 0713 13020000 		.4byte	.LASF159
 6361 0717 0C       		.sleb128 12
 6362 0718 00       		.byte	0
 6363 0719 14       		.uleb128 0x14
 6364 071a 88090000 		.4byte	.LASF160
 6365 071e 01       		.byte	0x1
 6366 071f 2F05     		.2byte	0x52f
 6367 0721 00000000 		.4byte	.LFB73
 6368 0725 14000000 		.4byte	.LFE73-.LFB73
 6369 0729 01       		.uleb128 0x1
 6370 072a 9C       		.byte	0x9c
 6371 072b 39070000 		.4byte	0x739
 6372 072f 15       		.uleb128 0x15
 6373 0730 06000000 		.4byte	.LVL0
 6374 0734 D22B0000 		.4byte	0x2bd2
 6375 0738 00       		.byte	0
 6376 0739 14       		.uleb128 0x14
 6377 073a E3100000 		.4byte	.LASF161
 6378 073e 01       		.byte	0x1
 6379 073f 5105     		.2byte	0x551
 6380 0741 00000000 		.4byte	.LFB75
 6381 0745 30000000 		.4byte	.LFE75-.LFB75
 6382 0749 01       		.uleb128 0x1
 6383 074a 9C       		.byte	0x9c
 6384 074b 59070000 		.4byte	0x759
 6385 074f 15       		.uleb128 0x15
 6386 0750 06000000 		.4byte	.LVL1
 6387 0754 DD2B0000 		.4byte	0x2bdd
 6388 0758 00       		.byte	0
 6389 0759 14       		.uleb128 0x14
 6390 075a B5110000 		.4byte	.LASF162
 6391 075e 01       		.byte	0x1
 6392 075f 6805     		.2byte	0x568
 6393 0761 00000000 		.4byte	.LFB76
 6394 0765 30000000 		.4byte	.LFE76-.LFB76
 6395 0769 01       		.uleb128 0x1
 6396 076a 9C       		.byte	0x9c
ARM GAS  C:\Users\RECEPC~1\AppData\Local\Temp\cc79eMMA.s 			page 154


 6397 076b 79070000 		.4byte	0x779
 6398 076f 15       		.uleb128 0x15
 6399 0770 06000000 		.4byte	.LVL2
 6400 0774 E82B0000 		.4byte	0x2be8
 6401 0778 00       		.byte	0
 6402 0779 16       		.uleb128 0x16
 6403 077a 73060000 		.4byte	.LASF163
 6404 077e 01       		.byte	0x1
 6405 077f 25       		.byte	0x25
 6406 0780 00000000 		.4byte	.LFB63
 6407 0784 3C000000 		.4byte	.LFE63-.LFB63
 6408 0788 01       		.uleb128 0x1
 6409 0789 9C       		.byte	0x9c
 6410 078a 0E080000 		.4byte	0x80e
 6411 078e 15       		.uleb128 0x15
 6412 078f 06000000 		.4byte	.LVL3
 6413 0793 F32B0000 		.4byte	0x2bf3
 6414 0797 15       		.uleb128 0x15
 6415 0798 0A000000 		.4byte	.LVL4
 6416 079c FA2B0000 		.4byte	0x2bfa
 6417 07a0 15       		.uleb128 0x15
 6418 07a1 0E000000 		.4byte	.LVL5
 6419 07a5 012C0000 		.4byte	0x2c01
 6420 07a9 15       		.uleb128 0x15
 6421 07aa 12000000 		.4byte	.LVL6
 6422 07ae 082C0000 		.4byte	0x2c08
 6423 07b2 15       		.uleb128 0x15
 6424 07b3 16000000 		.4byte	.LVL7
 6425 07b7 0F2C0000 		.4byte	0x2c0f
 6426 07bb 15       		.uleb128 0x15
 6427 07bc 1A000000 		.4byte	.LVL8
 6428 07c0 162C0000 		.4byte	0x2c16
 6429 07c4 15       		.uleb128 0x15
 6430 07c5 1E000000 		.4byte	.LVL9
 6431 07c9 1D2C0000 		.4byte	0x2c1d
 6432 07cd 17       		.uleb128 0x17
 6433 07ce 24000000 		.4byte	.LVL10
 6434 07d2 242C0000 		.4byte	0x2c24
 6435 07d6 E4070000 		.4byte	0x7e4
 6436 07da 18       		.uleb128 0x18
 6437 07db 01       		.uleb128 0x1
 6438 07dc 50       		.byte	0x50
 6439 07dd 05       		.uleb128 0x5
 6440 07de 03       		.byte	0x3
 6441 07df 00000000 		.4byte	timerRFRX
 6442 07e3 00       		.byte	0
 6443 07e4 15       		.uleb128 0x15
 6444 07e5 28000000 		.4byte	.LVL11
 6445 07e9 352C0000 		.4byte	0x2c35
 6446 07ed 17       		.uleb128 0x17
 6447 07ee 2E000000 		.4byte	.LVL12
 6448 07f2 3C2C0000 		.4byte	0x2c3c
 6449 07f6 04080000 		.4byte	0x804
 6450 07fa 18       		.uleb128 0x18
 6451 07fb 01       		.uleb128 0x1
 6452 07fc 50       		.byte	0x50
 6453 07fd 05       		.uleb128 0x5
ARM GAS  C:\Users\RECEPC~1\AppData\Local\Temp\cc79eMMA.s 			page 155


 6454 07fe 03       		.byte	0x3
 6455 07ff 00000000 		.4byte	timerPump
 6456 0803 00       		.byte	0
 6457 0804 15       		.uleb128 0x15
 6458 0805 32000000 		.4byte	.LVL13
 6459 0809 4D2C0000 		.4byte	0x2c4d
 6460 080d 00       		.byte	0
 6461 080e 16       		.uleb128 0x16
 6462 080f B2070000 		.4byte	.LASF164
 6463 0813 01       		.byte	0x1
 6464 0814 33       		.byte	0x33
 6465 0815 00000000 		.4byte	.LFB64
 6466 0819 94000000 		.4byte	.LFE64-.LFB64
 6467 081d 01       		.uleb128 0x1
 6468 081e 9C       		.byte	0x9c
 6469 081f F1080000 		.4byte	0x8f1
 6470 0823 17       		.uleb128 0x17
 6471 0824 0C000000 		.4byte	.LVL14
 6472 0828 542C0000 		.4byte	0x2c54
 6473 082c 36080000 		.4byte	0x836
 6474 0830 18       		.uleb128 0x18
 6475 0831 01       		.uleb128 0x1
 6476 0832 51       		.byte	0x51
 6477 0833 01       		.uleb128 0x1
 6478 0834 30       		.byte	0x30
 6479 0835 00       		.byte	0
 6480 0836 17       		.uleb128 0x17
 6481 0837 16000000 		.4byte	.LVL15
 6482 083b 542C0000 		.4byte	0x2c54
 6483 083f 49080000 		.4byte	0x849
 6484 0843 18       		.uleb128 0x18
 6485 0844 01       		.uleb128 0x1
 6486 0845 51       		.byte	0x51
 6487 0846 01       		.uleb128 0x1
 6488 0847 31       		.byte	0x31
 6489 0848 00       		.byte	0
 6490 0849 17       		.uleb128 0x17
 6491 084a 20000000 		.4byte	.LVL16
 6492 084e 542C0000 		.4byte	0x2c54
 6493 0852 5C080000 		.4byte	0x85c
 6494 0856 18       		.uleb128 0x18
 6495 0857 01       		.uleb128 0x1
 6496 0858 51       		.byte	0x51
 6497 0859 01       		.uleb128 0x1
 6498 085a 32       		.byte	0x32
 6499 085b 00       		.byte	0
 6500 085c 17       		.uleb128 0x17
 6501 085d 2A000000 		.4byte	.LVL17
 6502 0861 542C0000 		.4byte	0x2c54
 6503 0865 6F080000 		.4byte	0x86f
 6504 0869 18       		.uleb128 0x18
 6505 086a 01       		.uleb128 0x1
 6506 086b 51       		.byte	0x51
 6507 086c 01       		.uleb128 0x1
 6508 086d 33       		.byte	0x33
 6509 086e 00       		.byte	0
 6510 086f 17       		.uleb128 0x17
ARM GAS  C:\Users\RECEPC~1\AppData\Local\Temp\cc79eMMA.s 			page 156


 6511 0870 34000000 		.4byte	.LVL18
 6512 0874 542C0000 		.4byte	0x2c54
 6513 0878 82080000 		.4byte	0x882
 6514 087c 18       		.uleb128 0x18
 6515 087d 01       		.uleb128 0x1
 6516 087e 51       		.byte	0x51
 6517 087f 01       		.uleb128 0x1
 6518 0880 34       		.byte	0x34
 6519 0881 00       		.byte	0
 6520 0882 17       		.uleb128 0x17
 6521 0883 3E000000 		.4byte	.LVL19
 6522 0887 542C0000 		.4byte	0x2c54
 6523 088b 95080000 		.4byte	0x895
 6524 088f 18       		.uleb128 0x18
 6525 0890 01       		.uleb128 0x1
 6526 0891 51       		.byte	0x51
 6527 0892 01       		.uleb128 0x1
 6528 0893 35       		.byte	0x35
 6529 0894 00       		.byte	0
 6530 0895 17       		.uleb128 0x17
 6531 0896 48000000 		.4byte	.LVL20
 6532 089a 542C0000 		.4byte	0x2c54
 6533 089e A8080000 		.4byte	0x8a8
 6534 08a2 18       		.uleb128 0x18
 6535 08a3 01       		.uleb128 0x1
 6536 08a4 51       		.byte	0x51
 6537 08a5 01       		.uleb128 0x1
 6538 08a6 36       		.byte	0x36
 6539 08a7 00       		.byte	0
 6540 08a8 17       		.uleb128 0x17
 6541 08a9 52000000 		.4byte	.LVL21
 6542 08ad 542C0000 		.4byte	0x2c54
 6543 08b1 BB080000 		.4byte	0x8bb
 6544 08b5 18       		.uleb128 0x18
 6545 08b6 01       		.uleb128 0x1
 6546 08b7 51       		.byte	0x51
 6547 08b8 01       		.uleb128 0x1
 6548 08b9 3C       		.byte	0x3c
 6549 08ba 00       		.byte	0
 6550 08bb 17       		.uleb128 0x17
 6551 08bc 5C000000 		.4byte	.LVL22
 6552 08c0 542C0000 		.4byte	0x2c54
 6553 08c4 CE080000 		.4byte	0x8ce
 6554 08c8 18       		.uleb128 0x18
 6555 08c9 01       		.uleb128 0x1
 6556 08ca 51       		.byte	0x51
 6557 08cb 01       		.uleb128 0x1
 6558 08cc 3D       		.byte	0x3d
 6559 08cd 00       		.byte	0
 6560 08ce 17       		.uleb128 0x17
 6561 08cf 66000000 		.4byte	.LVL23
 6562 08d3 542C0000 		.4byte	0x2c54
 6563 08d7 E1080000 		.4byte	0x8e1
 6564 08db 18       		.uleb128 0x18
 6565 08dc 01       		.uleb128 0x1
 6566 08dd 51       		.byte	0x51
 6567 08de 01       		.uleb128 0x1
ARM GAS  C:\Users\RECEPC~1\AppData\Local\Temp\cc79eMMA.s 			page 157


 6568 08df 3E       		.byte	0x3e
 6569 08e0 00       		.byte	0
 6570 08e1 19       		.uleb128 0x19
 6571 08e2 70000000 		.4byte	.LVL24
 6572 08e6 542C0000 		.4byte	0x2c54
 6573 08ea 18       		.uleb128 0x18
 6574 08eb 01       		.uleb128 0x1
 6575 08ec 51       		.byte	0x51
 6576 08ed 01       		.uleb128 0x1
 6577 08ee 3F       		.byte	0x3f
 6578 08ef 00       		.byte	0
 6579 08f0 00       		.byte	0
 6580 08f1 16       		.uleb128 0x16
 6581 08f2 E2020000 		.4byte	.LASF165
 6582 08f6 01       		.byte	0x1
 6583 08f7 40       		.byte	0x40
 6584 08f8 00000000 		.4byte	.LFB65
 6585 08fc C8000000 		.4byte	.LFE65-.LFB65
 6586 0900 01       		.uleb128 0x1
 6587 0901 9C       		.byte	0x9c
 6588 0902 160A0000 		.4byte	0xa16
 6589 0906 1A       		.uleb128 0x1a
 6590 0907 7800     		.ascii	"x\000"
 6591 0909 01       		.byte	0x1
 6592 090a 41       		.byte	0x41
 6593 090b AD000000 		.4byte	0xad
 6594 090f 17       		.uleb128 0x17
 6595 0910 08000000 		.4byte	.LVL25
 6596 0914 6E2C0000 		.4byte	0x2c6e
 6597 0918 22090000 		.4byte	0x922
 6598 091c 18       		.uleb128 0x18
 6599 091d 01       		.uleb128 0x1
 6600 091e 50       		.byte	0x50
 6601 091f 01       		.uleb128 0x1
 6602 0920 32       		.byte	0x32
 6603 0921 00       		.byte	0
 6604 0922 17       		.uleb128 0x17
 6605 0923 12000000 		.4byte	.LVL26
 6606 0927 6E2C0000 		.4byte	0x2c6e
 6607 092b 35090000 		.4byte	0x935
 6608 092f 18       		.uleb128 0x18
 6609 0930 01       		.uleb128 0x1
 6610 0931 50       		.byte	0x50
 6611 0932 01       		.uleb128 0x1
 6612 0933 33       		.byte	0x33
 6613 0934 00       		.byte	0
 6614 0935 17       		.uleb128 0x17
 6615 0936 1C000000 		.4byte	.LVL27
 6616 093a 6E2C0000 		.4byte	0x2c6e
 6617 093e 48090000 		.4byte	0x948
 6618 0942 18       		.uleb128 0x18
 6619 0943 01       		.uleb128 0x1
 6620 0944 50       		.byte	0x50
 6621 0945 01       		.uleb128 0x1
 6622 0946 34       		.byte	0x34
 6623 0947 00       		.byte	0
 6624 0948 17       		.uleb128 0x17
ARM GAS  C:\Users\RECEPC~1\AppData\Local\Temp\cc79eMMA.s 			page 158


 6625 0949 26000000 		.4byte	.LVL28
 6626 094d 6E2C0000 		.4byte	0x2c6e
 6627 0951 5B090000 		.4byte	0x95b
 6628 0955 18       		.uleb128 0x18
 6629 0956 01       		.uleb128 0x1
 6630 0957 50       		.byte	0x50
 6631 0958 01       		.uleb128 0x1
 6632 0959 35       		.byte	0x35
 6633 095a 00       		.byte	0
 6634 095b 17       		.uleb128 0x17
 6635 095c 30000000 		.4byte	.LVL29
 6636 0960 6E2C0000 		.4byte	0x2c6e
 6637 0964 6E090000 		.4byte	0x96e
 6638 0968 18       		.uleb128 0x18
 6639 0969 01       		.uleb128 0x1
 6640 096a 50       		.byte	0x50
 6641 096b 01       		.uleb128 0x1
 6642 096c 36       		.byte	0x36
 6643 096d 00       		.byte	0
 6644 096e 17       		.uleb128 0x17
 6645 096f 3A000000 		.4byte	.LVL30
 6646 0973 6E2C0000 		.4byte	0x2c6e
 6647 0977 81090000 		.4byte	0x981
 6648 097b 18       		.uleb128 0x18
 6649 097c 01       		.uleb128 0x1
 6650 097d 50       		.byte	0x50
 6651 097e 01       		.uleb128 0x1
 6652 097f 37       		.byte	0x37
 6653 0980 00       		.byte	0
 6654 0981 17       		.uleb128 0x17
 6655 0982 44000000 		.4byte	.LVL31
 6656 0986 6E2C0000 		.4byte	0x2c6e
 6657 098a 94090000 		.4byte	0x994
 6658 098e 18       		.uleb128 0x18
 6659 098f 01       		.uleb128 0x1
 6660 0990 50       		.byte	0x50
 6661 0991 01       		.uleb128 0x1
 6662 0992 38       		.byte	0x38
 6663 0993 00       		.byte	0
 6664 0994 17       		.uleb128 0x17
 6665 0995 4E000000 		.4byte	.LVL32
 6666 0999 6E2C0000 		.4byte	0x2c6e
 6667 099d A7090000 		.4byte	0x9a7
 6668 09a1 18       		.uleb128 0x18
 6669 09a2 01       		.uleb128 0x1
 6670 09a3 50       		.byte	0x50
 6671 09a4 01       		.uleb128 0x1
 6672 09a5 39       		.byte	0x39
 6673 09a6 00       		.byte	0
 6674 09a7 17       		.uleb128 0x17
 6675 09a8 58000000 		.4byte	.LVL33
 6676 09ac 6E2C0000 		.4byte	0x2c6e
 6677 09b0 BA090000 		.4byte	0x9ba
 6678 09b4 18       		.uleb128 0x18
 6679 09b5 01       		.uleb128 0x1
 6680 09b6 50       		.byte	0x50
 6681 09b7 01       		.uleb128 0x1
ARM GAS  C:\Users\RECEPC~1\AppData\Local\Temp\cc79eMMA.s 			page 159


 6682 09b8 3A       		.byte	0x3a
 6683 09b9 00       		.byte	0
 6684 09ba 17       		.uleb128 0x17
 6685 09bb 62000000 		.4byte	.LVL34
 6686 09bf 6E2C0000 		.4byte	0x2c6e
 6687 09c3 CD090000 		.4byte	0x9cd
 6688 09c7 18       		.uleb128 0x18
 6689 09c8 01       		.uleb128 0x1
 6690 09c9 50       		.byte	0x50
 6691 09ca 01       		.uleb128 0x1
 6692 09cb 3B       		.byte	0x3b
 6693 09cc 00       		.byte	0
 6694 09cd 17       		.uleb128 0x17
 6695 09ce 74000000 		.4byte	.LVL35
 6696 09d2 6E2C0000 		.4byte	0x2c6e
 6697 09d6 E0090000 		.4byte	0x9e0
 6698 09da 18       		.uleb128 0x18
 6699 09db 01       		.uleb128 0x1
 6700 09dc 50       		.byte	0x50
 6701 09dd 01       		.uleb128 0x1
 6702 09de 3C       		.byte	0x3c
 6703 09df 00       		.byte	0
 6704 09e0 17       		.uleb128 0x17
 6705 09e1 7E000000 		.4byte	.LVL36
 6706 09e5 6E2C0000 		.4byte	0x2c6e
 6707 09e9 F3090000 		.4byte	0x9f3
 6708 09ed 18       		.uleb128 0x18
 6709 09ee 01       		.uleb128 0x1
 6710 09ef 50       		.byte	0x50
 6711 09f0 01       		.uleb128 0x1
 6712 09f1 3D       		.byte	0x3d
 6713 09f2 00       		.byte	0
 6714 09f3 17       		.uleb128 0x17
 6715 09f4 88000000 		.4byte	.LVL37
 6716 09f8 6E2C0000 		.4byte	0x2c6e
 6717 09fc 060A0000 		.4byte	0xa06
 6718 0a00 18       		.uleb128 0x18
 6719 0a01 01       		.uleb128 0x1
 6720 0a02 50       		.byte	0x50
 6721 0a03 01       		.uleb128 0x1
 6722 0a04 3E       		.byte	0x3e
 6723 0a05 00       		.byte	0
 6724 0a06 19       		.uleb128 0x19
 6725 0a07 92000000 		.4byte	.LVL38
 6726 0a0b 6E2C0000 		.4byte	0x2c6e
 6727 0a0f 18       		.uleb128 0x18
 6728 0a10 01       		.uleb128 0x1
 6729 0a11 50       		.byte	0x50
 6730 0a12 01       		.uleb128 0x1
 6731 0a13 3F       		.byte	0x3f
 6732 0a14 00       		.byte	0
 6733 0a15 00       		.byte	0
 6734 0a16 16       		.uleb128 0x16
 6735 0a17 5A080000 		.4byte	.LASF166
 6736 0a1b 01       		.byte	0x1
 6737 0a1c 6A       		.byte	0x6a
 6738 0a1d 00000000 		.4byte	.LFB66
ARM GAS  C:\Users\RECEPC~1\AppData\Local\Temp\cc79eMMA.s 			page 160


 6739 0a21 8C020000 		.4byte	.LFE66-.LFB66
 6740 0a25 01       		.uleb128 0x1
 6741 0a26 9C       		.byte	0x9c
 6742 0a27 050D0000 		.4byte	0xd05
 6743 0a2b 1B       		.uleb128 0x1b
 6744 0a2c D20A0000 		.4byte	.LASF167
 6745 0a30 01       		.byte	0x1
 6746 0a31 6B       		.byte	0x6b
 6747 0a32 050D0000 		.4byte	0xd05
 6748 0a36 02       		.uleb128 0x2
 6749 0a37 91       		.byte	0x91
 6750 0a38 6C       		.sleb128 -20
 6751 0a39 1B       		.uleb128 0x1b
 6752 0a3a 9A0D0000 		.4byte	.LASF168
 6753 0a3e 01       		.byte	0x1
 6754 0a3f 6C       		.byte	0x6c
 6755 0a40 050D0000 		.4byte	0xd05
 6756 0a44 02       		.uleb128 0x2
 6757 0a45 91       		.byte	0x91
 6758 0a46 60       		.sleb128 -32
 6759 0a47 1B       		.uleb128 0x1b
 6760 0a48 6E120000 		.4byte	.LASF169
 6761 0a4c 01       		.byte	0x1
 6762 0a4d 6D       		.byte	0x6d
 6763 0a4e 050D0000 		.4byte	0xd05
 6764 0a52 02       		.uleb128 0x2
 6765 0a53 91       		.byte	0x91
 6766 0a54 54       		.sleb128 -44
 6767 0a55 1B       		.uleb128 0x1b
 6768 0a56 74120000 		.4byte	.LASF170
 6769 0a5a 01       		.byte	0x1
 6770 0a5b 6E       		.byte	0x6e
 6771 0a5c 050D0000 		.4byte	0xd05
 6772 0a60 02       		.uleb128 0x2
 6773 0a61 91       		.byte	0x91
 6774 0a62 48       		.sleb128 -56
 6775 0a63 1B       		.uleb128 0x1b
 6776 0a64 7A120000 		.4byte	.LASF171
 6777 0a68 01       		.byte	0x1
 6778 0a69 6F       		.byte	0x6f
 6779 0a6a 050D0000 		.4byte	0xd05
 6780 0a6e 03       		.uleb128 0x3
 6781 0a6f 91       		.byte	0x91
 6782 0a70 BC7F     		.sleb128 -68
 6783 0a72 1B       		.uleb128 0x1b
 6784 0a73 17110000 		.4byte	.LASF172
 6785 0a77 01       		.byte	0x1
 6786 0a78 70       		.byte	0x70
 6787 0a79 050D0000 		.4byte	0xd05
 6788 0a7d 03       		.uleb128 0x3
 6789 0a7e 91       		.byte	0x91
 6790 0a7f B07F     		.sleb128 -80
 6791 0a81 1B       		.uleb128 0x1b
 6792 0a82 3E0D0000 		.4byte	.LASF173
 6793 0a86 01       		.byte	0x1
 6794 0a87 71       		.byte	0x71
 6795 0a88 050D0000 		.4byte	0xd05
ARM GAS  C:\Users\RECEPC~1\AppData\Local\Temp\cc79eMMA.s 			page 161


 6796 0a8c 03       		.uleb128 0x3
 6797 0a8d 91       		.byte	0x91
 6798 0a8e A47F     		.sleb128 -92
 6799 0a90 1B       		.uleb128 0x1b
 6800 0a91 30110000 		.4byte	.LASF174
 6801 0a95 01       		.byte	0x1
 6802 0a96 72       		.byte	0x72
 6803 0a97 050D0000 		.4byte	0xd05
 6804 0a9b 03       		.uleb128 0x3
 6805 0a9c 91       		.byte	0x91
 6806 0a9d 987F     		.sleb128 -104
 6807 0a9f 1B       		.uleb128 0x1b
 6808 0aa0 3D110000 		.4byte	.LASF175
 6809 0aa4 01       		.byte	0x1
 6810 0aa5 73       		.byte	0x73
 6811 0aa6 050D0000 		.4byte	0xd05
 6812 0aaa 03       		.uleb128 0x3
 6813 0aab 91       		.byte	0x91
 6814 0aac 8C7F     		.sleb128 -116
 6815 0aae 17       		.uleb128 0x17
 6816 0aaf 86000000 		.4byte	.LVL39
 6817 0ab3 832C0000 		.4byte	0x2c83
 6818 0ab7 C60A0000 		.4byte	0xac6
 6819 0abb 18       		.uleb128 0x18
 6820 0abc 01       		.uleb128 0x1
 6821 0abd 51       		.byte	0x51
 6822 0abe 01       		.uleb128 0x1
 6823 0abf 31       		.byte	0x31
 6824 0ac0 18       		.uleb128 0x18
 6825 0ac1 01       		.uleb128 0x1
 6826 0ac2 50       		.byte	0x50
 6827 0ac3 01       		.uleb128 0x1
 6828 0ac4 31       		.byte	0x31
 6829 0ac5 00       		.byte	0
 6830 0ac6 17       		.uleb128 0x17
 6831 0ac7 90000000 		.4byte	.LVL40
 6832 0acb 992C0000 		.4byte	0x2c99
 6833 0acf E40A0000 		.4byte	0xae4
 6834 0ad3 18       		.uleb128 0x18
 6835 0ad4 01       		.uleb128 0x1
 6836 0ad5 52       		.byte	0x52
 6837 0ad6 01       		.uleb128 0x1
 6838 0ad7 30       		.byte	0x30
 6839 0ad8 18       		.uleb128 0x18
 6840 0ad9 01       		.uleb128 0x1
 6841 0ada 51       		.byte	0x51
 6842 0adb 02       		.uleb128 0x2
 6843 0adc 91       		.byte	0x91
 6844 0add 6C       		.sleb128 -20
 6845 0ade 18       		.uleb128 0x18
 6846 0adf 01       		.uleb128 0x1
 6847 0ae0 50       		.byte	0x50
 6848 0ae1 01       		.uleb128 0x1
 6849 0ae2 31       		.byte	0x31
 6850 0ae3 00       		.byte	0
 6851 0ae4 17       		.uleb128 0x17
 6852 0ae5 98000000 		.4byte	.LVL41
ARM GAS  C:\Users\RECEPC~1\AppData\Local\Temp\cc79eMMA.s 			page 162


 6853 0ae9 BA2C0000 		.4byte	0x2cba
 6854 0aed F90A0000 		.4byte	0xaf9
 6855 0af1 18       		.uleb128 0x18
 6856 0af2 01       		.uleb128 0x1
 6857 0af3 50       		.byte	0x50
 6858 0af4 03       		.uleb128 0x3
 6859 0af5 0A       		.byte	0xa
 6860 0af6 2C01     		.2byte	0x12c
 6861 0af8 00       		.byte	0
 6862 0af9 17       		.uleb128 0x17
 6863 0afa B6000000 		.4byte	.LVL42
 6864 0afe 992C0000 		.4byte	0x2c99
 6865 0b02 170B0000 		.4byte	0xb17
 6866 0b06 18       		.uleb128 0x18
 6867 0b07 01       		.uleb128 0x1
 6868 0b08 52       		.byte	0x52
 6869 0b09 01       		.uleb128 0x1
 6870 0b0a 30       		.byte	0x30
 6871 0b0b 18       		.uleb128 0x18
 6872 0b0c 01       		.uleb128 0x1
 6873 0b0d 51       		.byte	0x51
 6874 0b0e 02       		.uleb128 0x2
 6875 0b0f 91       		.byte	0x91
 6876 0b10 60       		.sleb128 -32
 6877 0b11 18       		.uleb128 0x18
 6878 0b12 01       		.uleb128 0x1
 6879 0b13 50       		.byte	0x50
 6880 0b14 01       		.uleb128 0x1
 6881 0b15 31       		.byte	0x31
 6882 0b16 00       		.byte	0
 6883 0b17 17       		.uleb128 0x17
 6884 0b18 D6000000 		.4byte	.LVL43
 6885 0b1c 992C0000 		.4byte	0x2c99
 6886 0b20 350B0000 		.4byte	0xb35
 6887 0b24 18       		.uleb128 0x18
 6888 0b25 01       		.uleb128 0x1
 6889 0b26 52       		.byte	0x52
 6890 0b27 01       		.uleb128 0x1
 6891 0b28 30       		.byte	0x30
 6892 0b29 18       		.uleb128 0x18
 6893 0b2a 01       		.uleb128 0x1
 6894 0b2b 51       		.byte	0x51
 6895 0b2c 02       		.uleb128 0x2
 6896 0b2d 91       		.byte	0x91
 6897 0b2e 54       		.sleb128 -44
 6898 0b2f 18       		.uleb128 0x18
 6899 0b30 01       		.uleb128 0x1
 6900 0b31 50       		.byte	0x50
 6901 0b32 01       		.uleb128 0x1
 6902 0b33 31       		.byte	0x31
 6903 0b34 00       		.byte	0
 6904 0b35 17       		.uleb128 0x17
 6905 0b36 F6000000 		.4byte	.LVL44
 6906 0b3a 992C0000 		.4byte	0x2c99
 6907 0b3e 530B0000 		.4byte	0xb53
 6908 0b42 18       		.uleb128 0x18
 6909 0b43 01       		.uleb128 0x1
ARM GAS  C:\Users\RECEPC~1\AppData\Local\Temp\cc79eMMA.s 			page 163


 6910 0b44 52       		.byte	0x52
 6911 0b45 01       		.uleb128 0x1
 6912 0b46 30       		.byte	0x30
 6913 0b47 18       		.uleb128 0x18
 6914 0b48 01       		.uleb128 0x1
 6915 0b49 51       		.byte	0x51
 6916 0b4a 02       		.uleb128 0x2
 6917 0b4b 91       		.byte	0x91
 6918 0b4c 48       		.sleb128 -56
 6919 0b4d 18       		.uleb128 0x18
 6920 0b4e 01       		.uleb128 0x1
 6921 0b4f 50       		.byte	0x50
 6922 0b50 01       		.uleb128 0x1
 6923 0b51 31       		.byte	0x31
 6924 0b52 00       		.byte	0
 6925 0b53 17       		.uleb128 0x17
 6926 0b54 16010000 		.4byte	.LVL45
 6927 0b58 992C0000 		.4byte	0x2c99
 6928 0b5c 720B0000 		.4byte	0xb72
 6929 0b60 18       		.uleb128 0x18
 6930 0b61 01       		.uleb128 0x1
 6931 0b62 52       		.byte	0x52
 6932 0b63 01       		.uleb128 0x1
 6933 0b64 30       		.byte	0x30
 6934 0b65 18       		.uleb128 0x18
 6935 0b66 01       		.uleb128 0x1
 6936 0b67 51       		.byte	0x51
 6937 0b68 03       		.uleb128 0x3
 6938 0b69 91       		.byte	0x91
 6939 0b6a BC7F     		.sleb128 -68
 6940 0b6c 18       		.uleb128 0x18
 6941 0b6d 01       		.uleb128 0x1
 6942 0b6e 50       		.byte	0x50
 6943 0b6f 01       		.uleb128 0x1
 6944 0b70 31       		.byte	0x31
 6945 0b71 00       		.byte	0
 6946 0b72 17       		.uleb128 0x17
 6947 0b73 26010000 		.4byte	.LVL46
 6948 0b77 992C0000 		.4byte	0x2c99
 6949 0b7b 910B0000 		.4byte	0xb91
 6950 0b7f 18       		.uleb128 0x18
 6951 0b80 01       		.uleb128 0x1
 6952 0b81 52       		.byte	0x52
 6953 0b82 01       		.uleb128 0x1
 6954 0b83 46       		.byte	0x46
 6955 0b84 18       		.uleb128 0x18
 6956 0b85 01       		.uleb128 0x1
 6957 0b86 51       		.byte	0x51
 6958 0b87 03       		.uleb128 0x3
 6959 0b88 91       		.byte	0x91
 6960 0b89 B07F     		.sleb128 -80
 6961 0b8b 18       		.uleb128 0x18
 6962 0b8c 01       		.uleb128 0x1
 6963 0b8d 50       		.byte	0x50
 6964 0b8e 01       		.uleb128 0x1
 6965 0b8f 31       		.byte	0x31
 6966 0b90 00       		.byte	0
ARM GAS  C:\Users\RECEPC~1\AppData\Local\Temp\cc79eMMA.s 			page 164


 6967 0b91 17       		.uleb128 0x17
 6968 0b92 3E010000 		.4byte	.LVL47
 6969 0b96 992C0000 		.4byte	0x2c99
 6970 0b9a B00B0000 		.4byte	0xbb0
 6971 0b9e 18       		.uleb128 0x18
 6972 0b9f 01       		.uleb128 0x1
 6973 0ba0 52       		.byte	0x52
 6974 0ba1 01       		.uleb128 0x1
 6975 0ba2 46       		.byte	0x46
 6976 0ba3 18       		.uleb128 0x18
 6977 0ba4 01       		.uleb128 0x1
 6978 0ba5 51       		.byte	0x51
 6979 0ba6 03       		.uleb128 0x3
 6980 0ba7 91       		.byte	0x91
 6981 0ba8 A47F     		.sleb128 -92
 6982 0baa 18       		.uleb128 0x18
 6983 0bab 01       		.uleb128 0x1
 6984 0bac 50       		.byte	0x50
 6985 0bad 01       		.uleb128 0x1
 6986 0bae 31       		.byte	0x31
 6987 0baf 00       		.byte	0
 6988 0bb0 17       		.uleb128 0x17
 6989 0bb1 56010000 		.4byte	.LVL48
 6990 0bb5 992C0000 		.4byte	0x2c99
 6991 0bb9 CF0B0000 		.4byte	0xbcf
 6992 0bbd 18       		.uleb128 0x18
 6993 0bbe 01       		.uleb128 0x1
 6994 0bbf 52       		.byte	0x52
 6995 0bc0 01       		.uleb128 0x1
 6996 0bc1 46       		.byte	0x46
 6997 0bc2 18       		.uleb128 0x18
 6998 0bc3 01       		.uleb128 0x1
 6999 0bc4 51       		.byte	0x51
 7000 0bc5 03       		.uleb128 0x3
 7001 0bc6 91       		.byte	0x91
 7002 0bc7 987F     		.sleb128 -104
 7003 0bc9 18       		.uleb128 0x18
 7004 0bca 01       		.uleb128 0x1
 7005 0bcb 50       		.byte	0x50
 7006 0bcc 01       		.uleb128 0x1
 7007 0bcd 31       		.byte	0x31
 7008 0bce 00       		.byte	0
 7009 0bcf 17       		.uleb128 0x17
 7010 0bd0 6E010000 		.4byte	.LVL49
 7011 0bd4 992C0000 		.4byte	0x2c99
 7012 0bd8 ED0B0000 		.4byte	0xbed
 7013 0bdc 18       		.uleb128 0x18
 7014 0bdd 01       		.uleb128 0x1
 7015 0bde 52       		.byte	0x52
 7016 0bdf 01       		.uleb128 0x1
 7017 0be0 46       		.byte	0x46
 7018 0be1 18       		.uleb128 0x18
 7019 0be2 01       		.uleb128 0x1
 7020 0be3 51       		.byte	0x51
 7021 0be4 02       		.uleb128 0x2
 7022 0be5 74       		.byte	0x74
 7023 0be6 78       		.sleb128 -8
ARM GAS  C:\Users\RECEPC~1\AppData\Local\Temp\cc79eMMA.s 			page 165


 7024 0be7 18       		.uleb128 0x18
 7025 0be8 01       		.uleb128 0x1
 7026 0be9 50       		.byte	0x50
 7027 0bea 01       		.uleb128 0x1
 7028 0beb 31       		.byte	0x31
 7029 0bec 00       		.byte	0
 7030 0bed 17       		.uleb128 0x17
 7031 0bee 84010000 		.4byte	.LVL50
 7032 0bf2 832C0000 		.4byte	0x2c83
 7033 0bf6 060C0000 		.4byte	0xc06
 7034 0bfa 18       		.uleb128 0x18
 7035 0bfb 01       		.uleb128 0x1
 7036 0bfc 51       		.byte	0x51
 7037 0bfd 02       		.uleb128 0x2
 7038 0bfe 08       		.byte	0x8
 7039 0bff 2E       		.byte	0x2e
 7040 0c00 18       		.uleb128 0x18
 7041 0c01 01       		.uleb128 0x1
 7042 0c02 50       		.byte	0x50
 7043 0c03 01       		.uleb128 0x1
 7044 0c04 31       		.byte	0x31
 7045 0c05 00       		.byte	0
 7046 0c06 17       		.uleb128 0x17
 7047 0c07 8E010000 		.4byte	.LVL51
 7048 0c0b 992C0000 		.4byte	0x2c99
 7049 0c0f 240C0000 		.4byte	0xc24
 7050 0c13 18       		.uleb128 0x18
 7051 0c14 01       		.uleb128 0x1
 7052 0c15 52       		.byte	0x52
 7053 0c16 01       		.uleb128 0x1
 7054 0c17 30       		.byte	0x30
 7055 0c18 18       		.uleb128 0x18
 7056 0c19 01       		.uleb128 0x1
 7057 0c1a 51       		.byte	0x51
 7058 0c1b 02       		.uleb128 0x2
 7059 0c1c 91       		.byte	0x91
 7060 0c1d 6C       		.sleb128 -20
 7061 0c1e 18       		.uleb128 0x18
 7062 0c1f 01       		.uleb128 0x1
 7063 0c20 50       		.byte	0x50
 7064 0c21 01       		.uleb128 0x1
 7065 0c22 31       		.byte	0x31
 7066 0c23 00       		.byte	0
 7067 0c24 17       		.uleb128 0x17
 7068 0c25 96010000 		.4byte	.LVL52
 7069 0c29 BA2C0000 		.4byte	0x2cba
 7070 0c2d 390C0000 		.4byte	0xc39
 7071 0c31 18       		.uleb128 0x18
 7072 0c32 01       		.uleb128 0x1
 7073 0c33 50       		.byte	0x50
 7074 0c34 03       		.uleb128 0x3
 7075 0c35 0A       		.byte	0xa
 7076 0c36 2C01     		.2byte	0x12c
 7077 0c38 00       		.byte	0
 7078 0c39 17       		.uleb128 0x17
 7079 0c3a BC010000 		.4byte	.LVL53
 7080 0c3e 992C0000 		.4byte	0x2c99
ARM GAS  C:\Users\RECEPC~1\AppData\Local\Temp\cc79eMMA.s 			page 166


 7081 0c42 570C0000 		.4byte	0xc57
 7082 0c46 18       		.uleb128 0x18
 7083 0c47 01       		.uleb128 0x1
 7084 0c48 52       		.byte	0x52
 7085 0c49 01       		.uleb128 0x1
 7086 0c4a 30       		.byte	0x30
 7087 0c4b 18       		.uleb128 0x18
 7088 0c4c 01       		.uleb128 0x1
 7089 0c4d 51       		.byte	0x51
 7090 0c4e 02       		.uleb128 0x2
 7091 0c4f 91       		.byte	0x91
 7092 0c50 60       		.sleb128 -32
 7093 0c51 18       		.uleb128 0x18
 7094 0c52 01       		.uleb128 0x1
 7095 0c53 50       		.byte	0x50
 7096 0c54 01       		.uleb128 0x1
 7097 0c55 31       		.byte	0x31
 7098 0c56 00       		.byte	0
 7099 0c57 17       		.uleb128 0x17
 7100 0c58 E4010000 		.4byte	.LVL54
 7101 0c5c 992C0000 		.4byte	0x2c99
 7102 0c60 750C0000 		.4byte	0xc75
 7103 0c64 18       		.uleb128 0x18
 7104 0c65 01       		.uleb128 0x1
 7105 0c66 52       		.byte	0x52
 7106 0c67 01       		.uleb128 0x1
 7107 0c68 30       		.byte	0x30
 7108 0c69 18       		.uleb128 0x18
 7109 0c6a 01       		.uleb128 0x1
 7110 0c6b 51       		.byte	0x51
 7111 0c6c 02       		.uleb128 0x2
 7112 0c6d 91       		.byte	0x91
 7113 0c6e 54       		.sleb128 -44
 7114 0c6f 18       		.uleb128 0x18
 7115 0c70 01       		.uleb128 0x1
 7116 0c71 50       		.byte	0x50
 7117 0c72 01       		.uleb128 0x1
 7118 0c73 31       		.byte	0x31
 7119 0c74 00       		.byte	0
 7120 0c75 17       		.uleb128 0x17
 7121 0c76 0C020000 		.4byte	.LVL55
 7122 0c7a 992C0000 		.4byte	0x2c99
 7123 0c7e 930C0000 		.4byte	0xc93
 7124 0c82 18       		.uleb128 0x18
 7125 0c83 01       		.uleb128 0x1
 7126 0c84 52       		.byte	0x52
 7127 0c85 01       		.uleb128 0x1
 7128 0c86 30       		.byte	0x30
 7129 0c87 18       		.uleb128 0x18
 7130 0c88 01       		.uleb128 0x1
 7131 0c89 51       		.byte	0x51
 7132 0c8a 02       		.uleb128 0x2
 7133 0c8b 91       		.byte	0x91
 7134 0c8c 48       		.sleb128 -56
 7135 0c8d 18       		.uleb128 0x18
 7136 0c8e 01       		.uleb128 0x1
 7137 0c8f 50       		.byte	0x50
ARM GAS  C:\Users\RECEPC~1\AppData\Local\Temp\cc79eMMA.s 			page 167


 7138 0c90 01       		.uleb128 0x1
 7139 0c91 31       		.byte	0x31
 7140 0c92 00       		.byte	0
 7141 0c93 17       		.uleb128 0x17
 7142 0c94 34020000 		.4byte	.LVL56
 7143 0c98 992C0000 		.4byte	0x2c99
 7144 0c9c B20C0000 		.4byte	0xcb2
 7145 0ca0 18       		.uleb128 0x18
 7146 0ca1 01       		.uleb128 0x1
 7147 0ca2 52       		.byte	0x52
 7148 0ca3 01       		.uleb128 0x1
 7149 0ca4 30       		.byte	0x30
 7150 0ca5 18       		.uleb128 0x18
 7151 0ca6 01       		.uleb128 0x1
 7152 0ca7 51       		.byte	0x51
 7153 0ca8 03       		.uleb128 0x3
 7154 0ca9 91       		.byte	0x91
 7155 0caa BC7F     		.sleb128 -68
 7156 0cac 18       		.uleb128 0x18
 7157 0cad 01       		.uleb128 0x1
 7158 0cae 50       		.byte	0x50
 7159 0caf 01       		.uleb128 0x1
 7160 0cb0 31       		.byte	0x31
 7161 0cb1 00       		.byte	0
 7162 0cb2 17       		.uleb128 0x17
 7163 0cb3 46020000 		.4byte	.LVL57
 7164 0cb7 992C0000 		.4byte	0x2c99
 7165 0cbb D10C0000 		.4byte	0xcd1
 7166 0cbf 18       		.uleb128 0x18
 7167 0cc0 01       		.uleb128 0x1
 7168 0cc1 52       		.byte	0x52
 7169 0cc2 01       		.uleb128 0x1
 7170 0cc3 46       		.byte	0x46
 7171 0cc4 18       		.uleb128 0x18
 7172 0cc5 01       		.uleb128 0x1
 7173 0cc6 51       		.byte	0x51
 7174 0cc7 03       		.uleb128 0x3
 7175 0cc8 91       		.byte	0x91
 7176 0cc9 A47F     		.sleb128 -92
 7177 0ccb 18       		.uleb128 0x18
 7178 0ccc 01       		.uleb128 0x1
 7179 0ccd 50       		.byte	0x50
 7180 0cce 01       		.uleb128 0x1
 7181 0ccf 31       		.byte	0x31
 7182 0cd0 00       		.byte	0
 7183 0cd1 17       		.uleb128 0x17
 7184 0cd2 58020000 		.4byte	.LVL58
 7185 0cd6 992C0000 		.4byte	0x2c99
 7186 0cda F00C0000 		.4byte	0xcf0
 7187 0cde 18       		.uleb128 0x18
 7188 0cdf 01       		.uleb128 0x1
 7189 0ce0 52       		.byte	0x52
 7190 0ce1 01       		.uleb128 0x1
 7191 0ce2 46       		.byte	0x46
 7192 0ce3 18       		.uleb128 0x18
 7193 0ce4 01       		.uleb128 0x1
 7194 0ce5 51       		.byte	0x51
ARM GAS  C:\Users\RECEPC~1\AppData\Local\Temp\cc79eMMA.s 			page 168


 7195 0ce6 03       		.uleb128 0x3
 7196 0ce7 91       		.byte	0x91
 7197 0ce8 987F     		.sleb128 -104
 7198 0cea 18       		.uleb128 0x18
 7199 0ceb 01       		.uleb128 0x1
 7200 0cec 50       		.byte	0x50
 7201 0ced 01       		.uleb128 0x1
 7202 0cee 31       		.byte	0x31
 7203 0cef 00       		.byte	0
 7204 0cf0 19       		.uleb128 0x19
 7205 0cf1 68020000 		.4byte	.LVL59
 7206 0cf5 832C0000 		.4byte	0x2c83
 7207 0cf9 18       		.uleb128 0x18
 7208 0cfa 01       		.uleb128 0x1
 7209 0cfb 51       		.byte	0x51
 7210 0cfc 01       		.uleb128 0x1
 7211 0cfd 30       		.byte	0x30
 7212 0cfe 18       		.uleb128 0x18
 7213 0cff 01       		.uleb128 0x1
 7214 0d00 50       		.byte	0x50
 7215 0d01 01       		.uleb128 0x1
 7216 0d02 31       		.byte	0x31
 7217 0d03 00       		.byte	0
 7218 0d04 00       		.byte	0
 7219 0d05 0A       		.uleb128 0xa
 7220 0d06 8C000000 		.4byte	0x8c
 7221 0d0a 150D0000 		.4byte	0xd15
 7222 0d0e 0B       		.uleb128 0xb
 7223 0d0f 27010000 		.4byte	0x127
 7224 0d13 09       		.byte	0x9
 7225 0d14 00       		.byte	0
 7226 0d15 16       		.uleb128 0x16
 7227 0d16 67080000 		.4byte	.LASF176
 7228 0d1a 01       		.byte	0x1
 7229 0d1b D2       		.byte	0xd2
 7230 0d1c 00000000 		.4byte	.LFB67
 7231 0d20 50000000 		.4byte	.LFE67-.LFB67
 7232 0d24 01       		.uleb128 0x1
 7233 0d25 9C       		.byte	0x9c
 7234 0d26 910D0000 		.4byte	0xd91
 7235 0d2a 17       		.uleb128 0x17
 7236 0d2b 12000000 		.4byte	.LVL60
 7237 0d2f 832C0000 		.4byte	0x2c83
 7238 0d33 420D0000 		.4byte	0xd42
 7239 0d37 18       		.uleb128 0x18
 7240 0d38 01       		.uleb128 0x1
 7241 0d39 51       		.byte	0x51
 7242 0d3a 01       		.uleb128 0x1
 7243 0d3b 31       		.byte	0x31
 7244 0d3c 18       		.uleb128 0x18
 7245 0d3d 01       		.uleb128 0x1
 7246 0d3e 50       		.byte	0x50
 7247 0d3f 01       		.uleb128 0x1
 7248 0d40 32       		.byte	0x32
 7249 0d41 00       		.byte	0
 7250 0d42 17       		.uleb128 0x17
 7251 0d43 28000000 		.4byte	.LVL61
ARM GAS  C:\Users\RECEPC~1\AppData\Local\Temp\cc79eMMA.s 			page 169


 7252 0d47 832C0000 		.4byte	0x2c83
 7253 0d4b 5B0D0000 		.4byte	0xd5b
 7254 0d4f 18       		.uleb128 0x18
 7255 0d50 01       		.uleb128 0x1
 7256 0d51 51       		.byte	0x51
 7257 0d52 02       		.uleb128 0x2
 7258 0d53 08       		.byte	0x8
 7259 0d54 2E       		.byte	0x2e
 7260 0d55 18       		.uleb128 0x18
 7261 0d56 01       		.uleb128 0x1
 7262 0d57 50       		.byte	0x50
 7263 0d58 01       		.uleb128 0x1
 7264 0d59 32       		.byte	0x32
 7265 0d5a 00       		.byte	0
 7266 0d5b 17       		.uleb128 0x17
 7267 0d5c 38000000 		.4byte	.LVL62
 7268 0d60 832C0000 		.4byte	0x2c83
 7269 0d64 730D0000 		.4byte	0xd73
 7270 0d68 18       		.uleb128 0x18
 7271 0d69 01       		.uleb128 0x1
 7272 0d6a 51       		.byte	0x51
 7273 0d6b 01       		.uleb128 0x1
 7274 0d6c 30       		.byte	0x30
 7275 0d6d 18       		.uleb128 0x18
 7276 0d6e 01       		.uleb128 0x1
 7277 0d6f 50       		.byte	0x50
 7278 0d70 01       		.uleb128 0x1
 7279 0d71 32       		.byte	0x32
 7280 0d72 00       		.byte	0
 7281 0d73 19       		.uleb128 0x19
 7282 0d74 42000000 		.4byte	.LVL63
 7283 0d78 992C0000 		.4byte	0x2c99
 7284 0d7c 18       		.uleb128 0x18
 7285 0d7d 01       		.uleb128 0x1
 7286 0d7e 52       		.byte	0x52
 7287 0d7f 01       		.uleb128 0x1
 7288 0d80 30       		.byte	0x30
 7289 0d81 18       		.uleb128 0x18
 7290 0d82 01       		.uleb128 0x1
 7291 0d83 51       		.byte	0x51
 7292 0d84 05       		.uleb128 0x5
 7293 0d85 03       		.byte	0x3
 7294 0d86 08000000 		.4byte	.LANCHOR0+8
 7295 0d8a 18       		.uleb128 0x18
 7296 0d8b 01       		.uleb128 0x1
 7297 0d8c 50       		.byte	0x50
 7298 0d8d 01       		.uleb128 0x1
 7299 0d8e 32       		.byte	0x32
 7300 0d8f 00       		.byte	0
 7301 0d90 00       		.byte	0
 7302 0d91 16       		.uleb128 0x16
 7303 0d92 31090000 		.4byte	.LASF177
 7304 0d96 01       		.byte	0x1
 7305 0d97 E9       		.byte	0xe9
 7306 0d98 00000000 		.4byte	.LFB68
 7307 0d9c C4000000 		.4byte	.LFE68-.LFB68
 7308 0da0 01       		.uleb128 0x1
ARM GAS  C:\Users\RECEPC~1\AppData\Local\Temp\cc79eMMA.s 			page 170


 7309 0da1 9C       		.byte	0x9c
 7310 0da2 BE0E0000 		.4byte	0xebe
 7311 0da6 15       		.uleb128 0x15
 7312 0da7 06000000 		.4byte	.LVL64
 7313 0dab CB2C0000 		.4byte	0x2ccb
 7314 0daf 15       		.uleb128 0x15
 7315 0db0 16000000 		.4byte	.LVL65
 7316 0db4 D62C0000 		.4byte	0x2cd6
 7317 0db8 15       		.uleb128 0x15
 7318 0db9 1A000000 		.4byte	.LVL66
 7319 0dbd EB2C0000 		.4byte	0x2ceb
 7320 0dc1 17       		.uleb128 0x17
 7321 0dc2 24000000 		.4byte	.LVL67
 7322 0dc6 832C0000 		.4byte	0x2c83
 7323 0dca D90D0000 		.4byte	0xdd9
 7324 0dce 18       		.uleb128 0x18
 7325 0dcf 01       		.uleb128 0x1
 7326 0dd0 51       		.byte	0x51
 7327 0dd1 01       		.uleb128 0x1
 7328 0dd2 30       		.byte	0x30
 7329 0dd3 18       		.uleb128 0x18
 7330 0dd4 01       		.uleb128 0x1
 7331 0dd5 50       		.byte	0x50
 7332 0dd6 01       		.uleb128 0x1
 7333 0dd7 31       		.byte	0x31
 7334 0dd8 00       		.byte	0
 7335 0dd9 17       		.uleb128 0x17
 7336 0dda 2C000000 		.4byte	.LVL68
 7337 0dde 832C0000 		.4byte	0x2c83
 7338 0de2 F10D0000 		.4byte	0xdf1
 7339 0de6 18       		.uleb128 0x18
 7340 0de7 01       		.uleb128 0x1
 7341 0de8 51       		.byte	0x51
 7342 0de9 01       		.uleb128 0x1
 7343 0dea 30       		.byte	0x30
 7344 0deb 18       		.uleb128 0x18
 7345 0dec 01       		.uleb128 0x1
 7346 0ded 50       		.byte	0x50
 7347 0dee 01       		.uleb128 0x1
 7348 0def 32       		.byte	0x32
 7349 0df0 00       		.byte	0
 7350 0df1 15       		.uleb128 0x15
 7351 0df2 3C000000 		.4byte	.LVL69
 7352 0df6 D62C0000 		.4byte	0x2cd6
 7353 0dfa 15       		.uleb128 0x15
 7354 0dfb 40000000 		.4byte	.LVL70
 7355 0dff EB2C0000 		.4byte	0x2ceb
 7356 0e03 17       		.uleb128 0x17
 7357 0e04 4A000000 		.4byte	.LVL71
 7358 0e08 832C0000 		.4byte	0x2c83
 7359 0e0c 1B0E0000 		.4byte	0xe1b
 7360 0e10 18       		.uleb128 0x18
 7361 0e11 01       		.uleb128 0x1
 7362 0e12 51       		.byte	0x51
 7363 0e13 01       		.uleb128 0x1
 7364 0e14 30       		.byte	0x30
 7365 0e15 18       		.uleb128 0x18
ARM GAS  C:\Users\RECEPC~1\AppData\Local\Temp\cc79eMMA.s 			page 171


 7366 0e16 01       		.uleb128 0x1
 7367 0e17 50       		.byte	0x50
 7368 0e18 01       		.uleb128 0x1
 7369 0e19 31       		.byte	0x31
 7370 0e1a 00       		.byte	0
 7371 0e1b 17       		.uleb128 0x17
 7372 0e1c 52000000 		.4byte	.LVL72
 7373 0e20 832C0000 		.4byte	0x2c83
 7374 0e24 330E0000 		.4byte	0xe33
 7375 0e28 18       		.uleb128 0x18
 7376 0e29 01       		.uleb128 0x1
 7377 0e2a 51       		.byte	0x51
 7378 0e2b 01       		.uleb128 0x1
 7379 0e2c 30       		.byte	0x30
 7380 0e2d 18       		.uleb128 0x18
 7381 0e2e 01       		.uleb128 0x1
 7382 0e2f 50       		.byte	0x50
 7383 0e30 01       		.uleb128 0x1
 7384 0e31 32       		.byte	0x32
 7385 0e32 00       		.byte	0
 7386 0e33 15       		.uleb128 0x15
 7387 0e34 60000000 		.4byte	.LVL73
 7388 0e38 D62C0000 		.4byte	0x2cd6
 7389 0e3c 15       		.uleb128 0x15
 7390 0e3d 64000000 		.4byte	.LVL74
 7391 0e41 EB2C0000 		.4byte	0x2ceb
 7392 0e45 15       		.uleb128 0x15
 7393 0e46 70000000 		.4byte	.LVL75
 7394 0e4a D62C0000 		.4byte	0x2cd6
 7395 0e4e 15       		.uleb128 0x15
 7396 0e4f 74000000 		.4byte	.LVL76
 7397 0e53 EB2C0000 		.4byte	0x2ceb
 7398 0e57 15       		.uleb128 0x15
 7399 0e58 7A000000 		.4byte	.LVL77
 7400 0e5c CB2C0000 		.4byte	0x2ccb
 7401 0e60 15       		.uleb128 0x15
 7402 0e61 86000000 		.4byte	.LVL78
 7403 0e65 D62C0000 		.4byte	0x2cd6
 7404 0e69 15       		.uleb128 0x15
 7405 0e6a 94000000 		.4byte	.LVL79
 7406 0e6e D62C0000 		.4byte	0x2cd6
 7407 0e72 15       		.uleb128 0x15
 7408 0e73 A0000000 		.4byte	.LVL80
 7409 0e77 072D0000 		.4byte	0x2d07
 7410 0e7b 15       		.uleb128 0x15
 7411 0e7c A4000000 		.4byte	.LVL81
 7412 0e80 0E080000 		.4byte	0x80e
 7413 0e84 17       		.uleb128 0x17
 7414 0e85 AE000000 		.4byte	.LVL82
 7415 0e89 832C0000 		.4byte	0x2c83
 7416 0e8d 9C0E0000 		.4byte	0xe9c
 7417 0e91 18       		.uleb128 0x18
 7418 0e92 01       		.uleb128 0x1
 7419 0e93 51       		.byte	0x51
 7420 0e94 01       		.uleb128 0x1
 7421 0e95 39       		.byte	0x39
 7422 0e96 18       		.uleb128 0x18
ARM GAS  C:\Users\RECEPC~1\AppData\Local\Temp\cc79eMMA.s 			page 172


 7423 0e97 01       		.uleb128 0x1
 7424 0e98 50       		.byte	0x50
 7425 0e99 01       		.uleb128 0x1
 7426 0e9a 31       		.byte	0x31
 7427 0e9b 00       		.byte	0
 7428 0e9c 17       		.uleb128 0x17
 7429 0e9d B6000000 		.4byte	.LVL83
 7430 0ea1 832C0000 		.4byte	0x2c83
 7431 0ea5 B40E0000 		.4byte	0xeb4
 7432 0ea9 18       		.uleb128 0x18
 7433 0eaa 01       		.uleb128 0x1
 7434 0eab 51       		.byte	0x51
 7435 0eac 01       		.uleb128 0x1
 7436 0ead 39       		.byte	0x39
 7437 0eae 18       		.uleb128 0x18
 7438 0eaf 01       		.uleb128 0x1
 7439 0eb0 50       		.byte	0x50
 7440 0eb1 01       		.uleb128 0x1
 7441 0eb2 32       		.byte	0x32
 7442 0eb3 00       		.byte	0
 7443 0eb4 15       		.uleb128 0x15
 7444 0eb5 BA000000 		.4byte	.LVL84
 7445 0eb9 910D0000 		.4byte	0xd91
 7446 0ebd 00       		.byte	0
 7447 0ebe 1C       		.uleb128 0x1c
 7448 0ebf CA120000 		.4byte	.LASF178
 7449 0ec3 01       		.byte	0x1
 7450 0ec4 0D01     		.2byte	0x10d
 7451 0ec6 00000000 		.4byte	.LFB69
 7452 0eca C4000000 		.4byte	.LFE69-.LFB69
 7453 0ece 01       		.uleb128 0x1
 7454 0ecf 9C       		.byte	0x9c
 7455 0ed0 60100000 		.4byte	0x1060
 7456 0ed4 1D       		.uleb128 0x1d
 7457 0ed5 41020000 		.4byte	.LASF179
 7458 0ed9 01       		.byte	0x1
 7459 0eda 0E01     		.2byte	0x10e
 7460 0edc 60100000 		.4byte	0x1060
 7461 0ee0 02       		.uleb128 0x2
 7462 0ee1 91       		.byte	0x91
 7463 0ee2 54       		.sleb128 -44
 7464 0ee3 1D       		.uleb128 0x1d
 7465 0ee4 47020000 		.4byte	.LASF180
 7466 0ee8 01       		.byte	0x1
 7467 0ee9 0F01     		.2byte	0x10f
 7468 0eeb 60100000 		.4byte	0x1060
 7469 0eef 03       		.uleb128 0x3
 7470 0ef0 91       		.byte	0x91
 7471 0ef1 B87F     		.sleb128 -72
 7472 0ef3 1E       		.uleb128 0x1e
 7473 0ef4 7800     		.ascii	"x\000"
 7474 0ef6 01       		.byte	0x1
 7475 0ef7 1001     		.2byte	0x110
 7476 0ef9 AD000000 		.4byte	0xad
 7477 0efd 00000000 		.4byte	.LLST0
 7478 0f01 17       		.uleb128 0x17
 7479 0f02 3A000000 		.4byte	.LVL87
ARM GAS  C:\Users\RECEPC~1\AppData\Local\Temp\cc79eMMA.s 			page 173


 7480 0f06 1C2D0000 		.4byte	0x2d1c
 7481 0f0a 220F0000 		.4byte	0xf22
 7482 0f0e 18       		.uleb128 0x18
 7483 0f0f 01       		.uleb128 0x1
 7484 0f10 51       		.byte	0x51
 7485 0f11 0A       		.uleb128 0xa
 7486 0f12 91       		.byte	0x91
 7487 0f13 00       		.sleb128 0
 7488 0f14 74       		.byte	0x74
 7489 0f15 00       		.sleb128 0
 7490 0f16 22       		.byte	0x22
 7491 0f17 08       		.byte	0x8
 7492 0f18 2C       		.byte	0x2c
 7493 0f19 1C       		.byte	0x1c
 7494 0f1a 94       		.byte	0x94
 7495 0f1b 01       		.byte	0x1
 7496 0f1c 18       		.uleb128 0x18
 7497 0f1d 01       		.uleb128 0x1
 7498 0f1e 50       		.byte	0x50
 7499 0f1f 01       		.uleb128 0x1
 7500 0f20 31       		.byte	0x31
 7501 0f21 00       		.byte	0
 7502 0f22 17       		.uleb128 0x17
 7503 0f23 4A000000 		.4byte	.LVL90
 7504 0f27 1C2D0000 		.4byte	0x2d1c
 7505 0f2b 3A0F0000 		.4byte	0xf3a
 7506 0f2f 18       		.uleb128 0x18
 7507 0f30 01       		.uleb128 0x1
 7508 0f31 51       		.byte	0x51
 7509 0f32 01       		.uleb128 0x1
 7510 0f33 3A       		.byte	0x3a
 7511 0f34 18       		.uleb128 0x18
 7512 0f35 01       		.uleb128 0x1
 7513 0f36 50       		.byte	0x50
 7514 0f37 01       		.uleb128 0x1
 7515 0f38 31       		.byte	0x31
 7516 0f39 00       		.byte	0
 7517 0f3a 17       		.uleb128 0x17
 7518 0f3b 52000000 		.4byte	.LVL91
 7519 0f3f 1C2D0000 		.4byte	0x2d1c
 7520 0f43 520F0000 		.4byte	0xf52
 7521 0f47 18       		.uleb128 0x18
 7522 0f48 01       		.uleb128 0x1
 7523 0f49 51       		.byte	0x51
 7524 0f4a 01       		.uleb128 0x1
 7525 0f4b 3A       		.byte	0x3a
 7526 0f4c 18       		.uleb128 0x18
 7527 0f4d 01       		.uleb128 0x1
 7528 0f4e 50       		.byte	0x50
 7529 0f4f 01       		.uleb128 0x1
 7530 0f50 31       		.byte	0x31
 7531 0f51 00       		.byte	0
 7532 0f52 17       		.uleb128 0x17
 7533 0f53 5A000000 		.4byte	.LVL92
 7534 0f57 1C2D0000 		.4byte	0x2d1c
 7535 0f5b 6A0F0000 		.4byte	0xf6a
 7536 0f5f 18       		.uleb128 0x18
ARM GAS  C:\Users\RECEPC~1\AppData\Local\Temp\cc79eMMA.s 			page 174


 7537 0f60 01       		.uleb128 0x1
 7538 0f61 51       		.byte	0x51
 7539 0f62 01       		.uleb128 0x1
 7540 0f63 3A       		.byte	0x3a
 7541 0f64 18       		.uleb128 0x18
 7542 0f65 01       		.uleb128 0x1
 7543 0f66 50       		.byte	0x50
 7544 0f67 01       		.uleb128 0x1
 7545 0f68 31       		.byte	0x31
 7546 0f69 00       		.byte	0
 7547 0f6a 17       		.uleb128 0x17
 7548 0f6b 62000000 		.4byte	.LVL93
 7549 0f6f 1C2D0000 		.4byte	0x2d1c
 7550 0f73 820F0000 		.4byte	0xf82
 7551 0f77 18       		.uleb128 0x18
 7552 0f78 01       		.uleb128 0x1
 7553 0f79 51       		.byte	0x51
 7554 0f7a 01       		.uleb128 0x1
 7555 0f7b 3A       		.byte	0x3a
 7556 0f7c 18       		.uleb128 0x18
 7557 0f7d 01       		.uleb128 0x1
 7558 0f7e 50       		.byte	0x50
 7559 0f7f 01       		.uleb128 0x1
 7560 0f80 31       		.byte	0x31
 7561 0f81 00       		.byte	0
 7562 0f82 17       		.uleb128 0x17
 7563 0f83 6A000000 		.4byte	.LVL94
 7564 0f87 1C2D0000 		.4byte	0x2d1c
 7565 0f8b 9A0F0000 		.4byte	0xf9a
 7566 0f8f 18       		.uleb128 0x18
 7567 0f90 01       		.uleb128 0x1
 7568 0f91 51       		.byte	0x51
 7569 0f92 01       		.uleb128 0x1
 7570 0f93 3A       		.byte	0x3a
 7571 0f94 18       		.uleb128 0x18
 7572 0f95 01       		.uleb128 0x1
 7573 0f96 50       		.byte	0x50
 7574 0f97 01       		.uleb128 0x1
 7575 0f98 31       		.byte	0x31
 7576 0f99 00       		.byte	0
 7577 0f9a 17       		.uleb128 0x17
 7578 0f9b 72000000 		.4byte	.LVL95
 7579 0f9f 1C2D0000 		.4byte	0x2d1c
 7580 0fa3 B20F0000 		.4byte	0xfb2
 7581 0fa7 18       		.uleb128 0x18
 7582 0fa8 01       		.uleb128 0x1
 7583 0fa9 51       		.byte	0x51
 7584 0faa 01       		.uleb128 0x1
 7585 0fab 3A       		.byte	0x3a
 7586 0fac 18       		.uleb128 0x18
 7587 0fad 01       		.uleb128 0x1
 7588 0fae 50       		.byte	0x50
 7589 0faf 01       		.uleb128 0x1
 7590 0fb0 31       		.byte	0x31
 7591 0fb1 00       		.byte	0
 7592 0fb2 17       		.uleb128 0x17
 7593 0fb3 84000000 		.4byte	.LVL97
ARM GAS  C:\Users\RECEPC~1\AppData\Local\Temp\cc79eMMA.s 			page 175


 7594 0fb7 1C2D0000 		.4byte	0x2d1c
 7595 0fbb D30F0000 		.4byte	0xfd3
 7596 0fbf 18       		.uleb128 0x18
 7597 0fc0 01       		.uleb128 0x1
 7598 0fc1 51       		.byte	0x51
 7599 0fc2 0A       		.uleb128 0xa
 7600 0fc3 91       		.byte	0x91
 7601 0fc4 00       		.sleb128 0
 7602 0fc5 74       		.byte	0x74
 7603 0fc6 00       		.sleb128 0
 7604 0fc7 22       		.byte	0x22
 7605 0fc8 08       		.byte	0x8
 7606 0fc9 48       		.byte	0x48
 7607 0fca 1C       		.byte	0x1c
 7608 0fcb 94       		.byte	0x94
 7609 0fcc 01       		.byte	0x1
 7610 0fcd 18       		.uleb128 0x18
 7611 0fce 01       		.uleb128 0x1
 7612 0fcf 50       		.byte	0x50
 7613 0fd0 01       		.uleb128 0x1
 7614 0fd1 32       		.byte	0x32
 7615 0fd2 00       		.byte	0
 7616 0fd3 17       		.uleb128 0x17
 7617 0fd4 94000000 		.4byte	.LVL100
 7618 0fd8 1C2D0000 		.4byte	0x2d1c
 7619 0fdc EB0F0000 		.4byte	0xfeb
 7620 0fe0 18       		.uleb128 0x18
 7621 0fe1 01       		.uleb128 0x1
 7622 0fe2 51       		.byte	0x51
 7623 0fe3 01       		.uleb128 0x1
 7624 0fe4 3A       		.byte	0x3a
 7625 0fe5 18       		.uleb128 0x18
 7626 0fe6 01       		.uleb128 0x1
 7627 0fe7 50       		.byte	0x50
 7628 0fe8 01       		.uleb128 0x1
 7629 0fe9 32       		.byte	0x32
 7630 0fea 00       		.byte	0
 7631 0feb 17       		.uleb128 0x17
 7632 0fec 9C000000 		.4byte	.LVL101
 7633 0ff0 1C2D0000 		.4byte	0x2d1c
 7634 0ff4 03100000 		.4byte	0x1003
 7635 0ff8 18       		.uleb128 0x18
 7636 0ff9 01       		.uleb128 0x1
 7637 0ffa 51       		.byte	0x51
 7638 0ffb 01       		.uleb128 0x1
 7639 0ffc 3A       		.byte	0x3a
 7640 0ffd 18       		.uleb128 0x18
 7641 0ffe 01       		.uleb128 0x1
 7642 0fff 50       		.byte	0x50
 7643 1000 01       		.uleb128 0x1
 7644 1001 32       		.byte	0x32
 7645 1002 00       		.byte	0
 7646 1003 17       		.uleb128 0x17
 7647 1004 A4000000 		.4byte	.LVL102
 7648 1008 1C2D0000 		.4byte	0x2d1c
 7649 100c 1B100000 		.4byte	0x101b
 7650 1010 18       		.uleb128 0x18
ARM GAS  C:\Users\RECEPC~1\AppData\Local\Temp\cc79eMMA.s 			page 176


 7651 1011 01       		.uleb128 0x1
 7652 1012 51       		.byte	0x51
 7653 1013 01       		.uleb128 0x1
 7654 1014 3A       		.byte	0x3a
 7655 1015 18       		.uleb128 0x18
 7656 1016 01       		.uleb128 0x1
 7657 1017 50       		.byte	0x50
 7658 1018 01       		.uleb128 0x1
 7659 1019 32       		.byte	0x32
 7660 101a 00       		.byte	0
 7661 101b 17       		.uleb128 0x17
 7662 101c AC000000 		.4byte	.LVL103
 7663 1020 1C2D0000 		.4byte	0x2d1c
 7664 1024 33100000 		.4byte	0x1033
 7665 1028 18       		.uleb128 0x18
 7666 1029 01       		.uleb128 0x1
 7667 102a 51       		.byte	0x51
 7668 102b 01       		.uleb128 0x1
 7669 102c 3A       		.byte	0x3a
 7670 102d 18       		.uleb128 0x18
 7671 102e 01       		.uleb128 0x1
 7672 102f 50       		.byte	0x50
 7673 1030 01       		.uleb128 0x1
 7674 1031 32       		.byte	0x32
 7675 1032 00       		.byte	0
 7676 1033 17       		.uleb128 0x17
 7677 1034 B4000000 		.4byte	.LVL104
 7678 1038 1C2D0000 		.4byte	0x2d1c
 7679 103c 4B100000 		.4byte	0x104b
 7680 1040 18       		.uleb128 0x18
 7681 1041 01       		.uleb128 0x1
 7682 1042 51       		.byte	0x51
 7683 1043 01       		.uleb128 0x1
 7684 1044 3A       		.byte	0x3a
 7685 1045 18       		.uleb128 0x18
 7686 1046 01       		.uleb128 0x1
 7687 1047 50       		.byte	0x50
 7688 1048 01       		.uleb128 0x1
 7689 1049 32       		.byte	0x32
 7690 104a 00       		.byte	0
 7691 104b 19       		.uleb128 0x19
 7692 104c BC000000 		.4byte	.LVL105
 7693 1050 1C2D0000 		.4byte	0x2d1c
 7694 1054 18       		.uleb128 0x18
 7695 1055 01       		.uleb128 0x1
 7696 1056 51       		.byte	0x51
 7697 1057 01       		.uleb128 0x1
 7698 1058 3A       		.byte	0x3a
 7699 1059 18       		.uleb128 0x18
 7700 105a 01       		.uleb128 0x1
 7701 105b 50       		.byte	0x50
 7702 105c 01       		.uleb128 0x1
 7703 105d 32       		.byte	0x32
 7704 105e 00       		.byte	0
 7705 105f 00       		.byte	0
 7706 1060 0A       		.uleb128 0xa
 7707 1061 AD000000 		.4byte	0xad
ARM GAS  C:\Users\RECEPC~1\AppData\Local\Temp\cc79eMMA.s 			page 177


 7708 1065 70100000 		.4byte	0x1070
 7709 1069 0B       		.uleb128 0xb
 7710 106a 27010000 		.4byte	0x127
 7711 106e 19       		.byte	0x19
 7712 106f 00       		.byte	0
 7713 1070 14       		.uleb128 0x14
 7714 1071 AE000000 		.4byte	.LASF181
 7715 1075 01       		.byte	0x1
 7716 1076 2F01     		.2byte	0x12f
 7717 1078 00000000 		.4byte	.LFB70
 7718 107c 6C010000 		.4byte	.LFE70-.LFB70
 7719 1080 01       		.uleb128 0x1
 7720 1081 9C       		.byte	0x9c
 7721 1082 A0110000 		.4byte	0x11a0
 7722 1086 1E       		.uleb128 0x1e
 7723 1087 7800     		.ascii	"x\000"
 7724 1089 01       		.byte	0x1
 7725 108a 3001     		.2byte	0x130
 7726 108c AD000000 		.4byte	0xad
 7727 1090 4C000000 		.4byte	.LLST1
 7728 1094 15       		.uleb128 0x15
 7729 1095 22000000 		.4byte	.LVL107
 7730 1099 D62C0000 		.4byte	0x2cd6
 7731 109d 15       		.uleb128 0x15
 7732 109e 26000000 		.4byte	.LVL108
 7733 10a2 EB2C0000 		.4byte	0x2ceb
 7734 10a6 15       		.uleb128 0x15
 7735 10a7 32000000 		.4byte	.LVL109
 7736 10ab D62C0000 		.4byte	0x2cd6
 7737 10af 15       		.uleb128 0x15
 7738 10b0 36000000 		.4byte	.LVL110
 7739 10b4 EB2C0000 		.4byte	0x2ceb
 7740 10b8 15       		.uleb128 0x15
 7741 10b9 5E000000 		.4byte	.LVL117
 7742 10bd D62C0000 		.4byte	0x2cd6
 7743 10c1 15       		.uleb128 0x15
 7744 10c2 6A000000 		.4byte	.LVL118
 7745 10c6 D62C0000 		.4byte	0x2cd6
 7746 10ca 15       		.uleb128 0x15
 7747 10cb 7C000000 		.4byte	.LVL119
 7748 10cf D62C0000 		.4byte	0x2cd6
 7749 10d3 15       		.uleb128 0x15
 7750 10d4 88000000 		.4byte	.LVL120
 7751 10d8 D62C0000 		.4byte	0x2cd6
 7752 10dc 15       		.uleb128 0x15
 7753 10dd 92000000 		.4byte	.LVL121
 7754 10e1 D62C0000 		.4byte	0x2cd6
 7755 10e5 15       		.uleb128 0x15
 7756 10e6 9C000000 		.4byte	.LVL122
 7757 10ea D62C0000 		.4byte	0x2cd6
 7758 10ee 15       		.uleb128 0x15
 7759 10ef A8000000 		.4byte	.LVL123
 7760 10f3 910D0000 		.4byte	0xd91
 7761 10f7 15       		.uleb128 0x15
 7762 10f8 B0000000 		.4byte	.LVL124
 7763 10fc D62C0000 		.4byte	0x2cd6
 7764 1100 15       		.uleb128 0x15
ARM GAS  C:\Users\RECEPC~1\AppData\Local\Temp\cc79eMMA.s 			page 178


 7765 1101 B4000000 		.4byte	.LVL125
 7766 1105 EB2C0000 		.4byte	0x2ceb
 7767 1109 17       		.uleb128 0x17
 7768 110a BE000000 		.4byte	.LVL126
 7769 110e 832C0000 		.4byte	0x2c83
 7770 1112 21110000 		.4byte	0x1121
 7771 1116 18       		.uleb128 0x18
 7772 1117 01       		.uleb128 0x1
 7773 1118 51       		.byte	0x51
 7774 1119 01       		.uleb128 0x1
 7775 111a 30       		.byte	0x30
 7776 111b 18       		.uleb128 0x18
 7777 111c 01       		.uleb128 0x1
 7778 111d 50       		.byte	0x50
 7779 111e 01       		.uleb128 0x1
 7780 111f 31       		.byte	0x31
 7781 1120 00       		.byte	0
 7782 1121 17       		.uleb128 0x17
 7783 1122 C6000000 		.4byte	.LVL127
 7784 1126 832C0000 		.4byte	0x2c83
 7785 112a 39110000 		.4byte	0x1139
 7786 112e 18       		.uleb128 0x18
 7787 112f 01       		.uleb128 0x1
 7788 1130 51       		.byte	0x51
 7789 1131 01       		.uleb128 0x1
 7790 1132 30       		.byte	0x30
 7791 1133 18       		.uleb128 0x18
 7792 1134 01       		.uleb128 0x1
 7793 1135 50       		.byte	0x50
 7794 1136 01       		.uleb128 0x1
 7795 1137 32       		.byte	0x32
 7796 1138 00       		.byte	0
 7797 1139 15       		.uleb128 0x15
 7798 113a DE000000 		.4byte	.LVL128
 7799 113e D62C0000 		.4byte	0x2cd6
 7800 1142 15       		.uleb128 0x15
 7801 1143 E2000000 		.4byte	.LVL129
 7802 1147 EB2C0000 		.4byte	0x2ceb
 7803 114b 17       		.uleb128 0x17
 7804 114c EC000000 		.4byte	.LVL130
 7805 1150 832C0000 		.4byte	0x2c83
 7806 1154 63110000 		.4byte	0x1163
 7807 1158 18       		.uleb128 0x18
 7808 1159 01       		.uleb128 0x1
 7809 115a 51       		.byte	0x51
 7810 115b 01       		.uleb128 0x1
 7811 115c 30       		.byte	0x30
 7812 115d 18       		.uleb128 0x18
 7813 115e 01       		.uleb128 0x1
 7814 115f 50       		.byte	0x50
 7815 1160 01       		.uleb128 0x1
 7816 1161 31       		.byte	0x31
 7817 1162 00       		.byte	0
 7818 1163 17       		.uleb128 0x17
 7819 1164 F4000000 		.4byte	.LVL131
 7820 1168 832C0000 		.4byte	0x2c83
 7821 116c 7B110000 		.4byte	0x117b
ARM GAS  C:\Users\RECEPC~1\AppData\Local\Temp\cc79eMMA.s 			page 179


 7822 1170 18       		.uleb128 0x18
 7823 1171 01       		.uleb128 0x1
 7824 1172 51       		.byte	0x51
 7825 1173 01       		.uleb128 0x1
 7826 1174 30       		.byte	0x30
 7827 1175 18       		.uleb128 0x18
 7828 1176 01       		.uleb128 0x1
 7829 1177 50       		.byte	0x50
 7830 1178 01       		.uleb128 0x1
 7831 1179 32       		.byte	0x32
 7832 117a 00       		.byte	0
 7833 117b 15       		.uleb128 0x15
 7834 117c 1A010000 		.4byte	.LVL132
 7835 1180 D62C0000 		.4byte	0x2cd6
 7836 1184 15       		.uleb128 0x15
 7837 1185 26010000 		.4byte	.LVL133
 7838 1189 362D0000 		.4byte	0x2d36
 7839 118d 15       		.uleb128 0x15
 7840 118e 30010000 		.4byte	.LVL134
 7841 1192 D62C0000 		.4byte	0x2cd6
 7842 1196 15       		.uleb128 0x15
 7843 1197 3E010000 		.4byte	.LVL135
 7844 119b 362D0000 		.4byte	0x2d36
 7845 119f 00       		.byte	0
 7846 11a0 14       		.uleb128 0x14
 7847 11a1 09030000 		.4byte	.LASF182
 7848 11a5 01       		.byte	0x1
 7849 11a6 6701     		.2byte	0x167
 7850 11a8 00000000 		.4byte	.LFB71
 7851 11ac 1C130000 		.4byte	.LFE71-.LFB71
 7852 11b0 01       		.uleb128 0x1
 7853 11b1 9C       		.byte	0x9c
 7854 11b2 FA210000 		.4byte	0x21fa
 7855 11b6 1E       		.uleb128 0x1e
 7856 11b7 7800     		.ascii	"x\000"
 7857 11b9 01       		.byte	0x1
 7858 11ba 6901     		.2byte	0x169
 7859 11bc AD000000 		.4byte	0xad
 7860 11c0 75000000 		.4byte	.LLST2
 7861 11c4 1E       		.uleb128 0x1e
 7862 11c5 7900     		.ascii	"y\000"
 7863 11c7 01       		.byte	0x1
 7864 11c8 6901     		.2byte	0x169
 7865 11ca AD000000 		.4byte	0xad
 7866 11ce 1F030000 		.4byte	.LLST3
 7867 11d2 15       		.uleb128 0x15
 7868 11d3 3C000000 		.4byte	.LVL136
 7869 11d7 160A0000 		.4byte	0xa16
 7870 11db 15       		.uleb128 0x15
 7871 11dc 46000000 		.4byte	.LVL137
 7872 11e0 4B2D0000 		.4byte	0x2d4b
 7873 11e4 15       		.uleb128 0x15
 7874 11e5 4A000000 		.4byte	.LVL138
 7875 11e9 522D0000 		.4byte	0x2d52
 7876 11ed 15       		.uleb128 0x15
 7877 11ee 6A000000 		.4byte	.LVL139
 7878 11f2 592D0000 		.4byte	0x2d59
ARM GAS  C:\Users\RECEPC~1\AppData\Local\Temp\cc79eMMA.s 			page 180


 7879 11f6 17       		.uleb128 0x17
 7880 11f7 9C000000 		.4byte	.LVL140
 7881 11fb 832C0000 		.4byte	0x2c83
 7882 11ff 0E120000 		.4byte	0x120e
 7883 1203 18       		.uleb128 0x18
 7884 1204 01       		.uleb128 0x1
 7885 1205 51       		.byte	0x51
 7886 1206 01       		.uleb128 0x1
 7887 1207 34       		.byte	0x34
 7888 1208 18       		.uleb128 0x18
 7889 1209 01       		.uleb128 0x1
 7890 120a 50       		.byte	0x50
 7891 120b 01       		.uleb128 0x1
 7892 120c 31       		.byte	0x31
 7893 120d 00       		.byte	0
 7894 120e 17       		.uleb128 0x17
 7895 120f A2000000 		.4byte	.LVL141
 7896 1213 BA2C0000 		.4byte	0x2cba
 7897 1217 21120000 		.4byte	0x1221
 7898 121b 18       		.uleb128 0x18
 7899 121c 01       		.uleb128 0x1
 7900 121d 50       		.byte	0x50
 7901 121e 01       		.uleb128 0x1
 7902 121f 3A       		.byte	0x3a
 7903 1220 00       		.byte	0
 7904 1221 15       		.uleb128 0x15
 7905 1222 A6000000 		.4byte	.LVL142
 7906 1226 642D0000 		.4byte	0x2d64
 7907 122a 15       		.uleb128 0x15
 7908 122b AE000000 		.4byte	.LVL143
 7909 122f 592D0000 		.4byte	0x2d59
 7910 1233 17       		.uleb128 0x17
 7911 1234 06010000 		.4byte	.LVL144
 7912 1238 832C0000 		.4byte	0x2c83
 7913 123c 4B120000 		.4byte	0x124b
 7914 1240 18       		.uleb128 0x18
 7915 1241 01       		.uleb128 0x1
 7916 1242 51       		.byte	0x51
 7917 1243 01       		.uleb128 0x1
 7918 1244 35       		.byte	0x35
 7919 1245 18       		.uleb128 0x18
 7920 1246 01       		.uleb128 0x1
 7921 1247 50       		.byte	0x50
 7922 1248 01       		.uleb128 0x1
 7923 1249 31       		.byte	0x31
 7924 124a 00       		.byte	0
 7925 124b 17       		.uleb128 0x17
 7926 124c 24010000 		.4byte	.LVL145
 7927 1250 832C0000 		.4byte	0x2c83
 7928 1254 64120000 		.4byte	0x1264
 7929 1258 18       		.uleb128 0x18
 7930 1259 01       		.uleb128 0x1
 7931 125a 51       		.byte	0x51
 7932 125b 02       		.uleb128 0x2
 7933 125c 08       		.byte	0x8
 7934 125d 85       		.byte	0x85
 7935 125e 18       		.uleb128 0x18
ARM GAS  C:\Users\RECEPC~1\AppData\Local\Temp\cc79eMMA.s 			page 181


 7936 125f 01       		.uleb128 0x1
 7937 1260 50       		.byte	0x50
 7938 1261 01       		.uleb128 0x1
 7939 1262 31       		.byte	0x31
 7940 1263 00       		.byte	0
 7941 1264 17       		.uleb128 0x17
 7942 1265 34010000 		.4byte	.LVL146
 7943 1269 832C0000 		.4byte	0x2c83
 7944 126d 7D120000 		.4byte	0x127d
 7945 1271 18       		.uleb128 0x18
 7946 1272 01       		.uleb128 0x1
 7947 1273 51       		.byte	0x51
 7948 1274 02       		.uleb128 0x2
 7949 1275 08       		.byte	0x8
 7950 1276 83       		.byte	0x83
 7951 1277 18       		.uleb128 0x18
 7952 1278 01       		.uleb128 0x1
 7953 1279 50       		.byte	0x50
 7954 127a 01       		.uleb128 0x1
 7955 127b 31       		.byte	0x31
 7956 127c 00       		.byte	0
 7957 127d 17       		.uleb128 0x17
 7958 127e 44010000 		.4byte	.LVL147
 7959 1282 832C0000 		.4byte	0x2c83
 7960 1286 95120000 		.4byte	0x1295
 7961 128a 18       		.uleb128 0x18
 7962 128b 01       		.uleb128 0x1
 7963 128c 51       		.byte	0x51
 7964 128d 01       		.uleb128 0x1
 7965 128e 31       		.byte	0x31
 7966 128f 18       		.uleb128 0x18
 7967 1290 01       		.uleb128 0x1
 7968 1291 50       		.byte	0x50
 7969 1292 01       		.uleb128 0x1
 7970 1293 31       		.byte	0x31
 7971 1294 00       		.byte	0
 7972 1295 17       		.uleb128 0x17
 7973 1296 54010000 		.4byte	.LVL148
 7974 129a 832C0000 		.4byte	0x2c83
 7975 129e AD120000 		.4byte	0x12ad
 7976 12a2 18       		.uleb128 0x18
 7977 12a3 01       		.uleb128 0x1
 7978 12a4 51       		.byte	0x51
 7979 12a5 01       		.uleb128 0x1
 7980 12a6 31       		.byte	0x31
 7981 12a7 18       		.uleb128 0x18
 7982 12a8 01       		.uleb128 0x1
 7983 12a9 50       		.byte	0x50
 7984 12aa 01       		.uleb128 0x1
 7985 12ab 31       		.byte	0x31
 7986 12ac 00       		.byte	0
 7987 12ad 17       		.uleb128 0x17
 7988 12ae 5A010000 		.4byte	.LVL149
 7989 12b2 BA2C0000 		.4byte	0x2cba
 7990 12b6 C0120000 		.4byte	0x12c0
 7991 12ba 18       		.uleb128 0x18
 7992 12bb 01       		.uleb128 0x1
ARM GAS  C:\Users\RECEPC~1\AppData\Local\Temp\cc79eMMA.s 			page 182


 7993 12bc 50       		.byte	0x50
 7994 12bd 01       		.uleb128 0x1
 7995 12be 3A       		.byte	0x3a
 7996 12bf 00       		.byte	0
 7997 12c0 15       		.uleb128 0x15
 7998 12c1 5E010000 		.4byte	.LVL150
 7999 12c5 642D0000 		.4byte	0x2d64
 8000 12c9 15       		.uleb128 0x15
 8001 12ca 66010000 		.4byte	.LVL151
 8002 12ce 592D0000 		.4byte	0x2d59
 8003 12d2 17       		.uleb128 0x17
 8004 12d3 DC010000 		.4byte	.LVL152
 8005 12d7 832C0000 		.4byte	0x2c83
 8006 12db EA120000 		.4byte	0x12ea
 8007 12df 18       		.uleb128 0x18
 8008 12e0 01       		.uleb128 0x1
 8009 12e1 51       		.byte	0x51
 8010 12e2 01       		.uleb128 0x1
 8011 12e3 36       		.byte	0x36
 8012 12e4 18       		.uleb128 0x18
 8013 12e5 01       		.uleb128 0x1
 8014 12e6 50       		.byte	0x50
 8015 12e7 01       		.uleb128 0x1
 8016 12e8 31       		.byte	0x31
 8017 12e9 00       		.byte	0
 8018 12ea 17       		.uleb128 0x17
 8019 12eb F0010000 		.4byte	.LVL153
 8020 12ef 6B2D0000 		.4byte	0x2d6b
 8021 12f3 22130000 		.4byte	0x1322
 8022 12f7 18       		.uleb128 0x18
 8023 12f8 01       		.uleb128 0x1
 8024 12f9 53       		.byte	0x53
 8025 12fa 02       		.uleb128 0x2
 8026 12fb 74       		.byte	0x74
 8027 12fc 00       		.sleb128 0
 8028 12fd 18       		.uleb128 0x18
 8029 12fe 01       		.uleb128 0x1
 8030 12ff 52       		.byte	0x52
 8031 1300 01       		.uleb128 0x1
 8032 1301 33       		.byte	0x33
 8033 1302 18       		.uleb128 0x18
 8034 1303 01       		.uleb128 0x1
 8035 1304 51       		.byte	0x51
 8036 1305 02       		.uleb128 0x2
 8037 1306 08       		.byte	0x8
 8038 1307 24       		.byte	0x24
 8039 1308 18       		.uleb128 0x18
 8040 1309 01       		.uleb128 0x1
 8041 130a 50       		.byte	0x50
 8042 130b 01       		.uleb128 0x1
 8043 130c 31       		.byte	0x31
 8044 130d 18       		.uleb128 0x18
 8045 130e 02       		.uleb128 0x2
 8046 130f 7D       		.byte	0x7d
 8047 1310 08       		.sleb128 8
 8048 1311 02       		.uleb128 0x2
 8049 1312 08       		.byte	0x8
ARM GAS  C:\Users\RECEPC~1\AppData\Local\Temp\cc79eMMA.s 			page 183


 8050 1313 4E       		.byte	0x4e
 8051 1314 18       		.uleb128 0x18
 8052 1315 02       		.uleb128 0x2
 8053 1316 7D       		.byte	0x7d
 8054 1317 04       		.sleb128 4
 8055 1318 02       		.uleb128 0x2
 8056 1319 75       		.byte	0x75
 8057 131a 00       		.sleb128 0
 8058 131b 18       		.uleb128 0x18
 8059 131c 02       		.uleb128 0x2
 8060 131d 7D       		.byte	0x7d
 8061 131e 00       		.sleb128 0
 8062 131f 01       		.uleb128 0x1
 8063 1320 31       		.byte	0x31
 8064 1321 00       		.byte	0
 8065 1322 17       		.uleb128 0x17
 8066 1323 14020000 		.4byte	.LVL154
 8067 1327 832C0000 		.4byte	0x2c83
 8068 132b 3B130000 		.4byte	0x133b
 8069 132f 18       		.uleb128 0x18
 8070 1330 01       		.uleb128 0x1
 8071 1331 51       		.byte	0x51
 8072 1332 01       		.uleb128 0x1
 8073 1333 3D       		.byte	0x3d
 8074 1334 18       		.uleb128 0x18
 8075 1335 01       		.uleb128 0x1
 8076 1336 50       		.byte	0x50
 8077 1337 02       		.uleb128 0x2
 8078 1338 74       		.byte	0x74
 8079 1339 00       		.sleb128 0
 8080 133a 00       		.byte	0
 8081 133b 17       		.uleb128 0x17
 8082 133c 28020000 		.4byte	.LVL155
 8083 1340 6B2D0000 		.4byte	0x2d6b
 8084 1344 74130000 		.4byte	0x1374
 8085 1348 18       		.uleb128 0x18
 8086 1349 01       		.uleb128 0x1
 8087 134a 53       		.byte	0x53
 8088 134b 01       		.uleb128 0x1
 8089 134c 32       		.byte	0x32
 8090 134d 18       		.uleb128 0x18
 8091 134e 01       		.uleb128 0x1
 8092 134f 52       		.byte	0x52
 8093 1350 01       		.uleb128 0x1
 8094 1351 33       		.byte	0x33
 8095 1352 18       		.uleb128 0x18
 8096 1353 01       		.uleb128 0x1
 8097 1354 51       		.byte	0x51
 8098 1355 02       		.uleb128 0x2
 8099 1356 75       		.byte	0x75
 8100 1357 00       		.sleb128 0
 8101 1358 18       		.uleb128 0x18
 8102 1359 01       		.uleb128 0x1
 8103 135a 50       		.byte	0x50
 8104 135b 02       		.uleb128 0x2
 8105 135c 74       		.byte	0x74
 8106 135d 00       		.sleb128 0
ARM GAS  C:\Users\RECEPC~1\AppData\Local\Temp\cc79eMMA.s 			page 184


 8107 135e 18       		.uleb128 0x18
 8108 135f 02       		.uleb128 0x2
 8109 1360 7D       		.byte	0x7d
 8110 1361 08       		.sleb128 8
 8111 1362 02       		.uleb128 0x2
 8112 1363 08       		.byte	0x8
 8113 1364 4E       		.byte	0x4e
 8114 1365 18       		.uleb128 0x18
 8115 1366 02       		.uleb128 0x2
 8116 1367 7D       		.byte	0x7d
 8117 1368 04       		.sleb128 4
 8118 1369 02       		.uleb128 0x2
 8119 136a 76       		.byte	0x76
 8120 136b 00       		.sleb128 0
 8121 136c 18       		.uleb128 0x18
 8122 136d 02       		.uleb128 0x2
 8123 136e 7D       		.byte	0x7d
 8124 136f 00       		.sleb128 0
 8125 1370 02       		.uleb128 0x2
 8126 1371 74       		.byte	0x74
 8127 1372 00       		.sleb128 0
 8128 1373 00       		.byte	0
 8129 1374 17       		.uleb128 0x17
 8130 1375 8E020000 		.4byte	.LVL166
 8131 1379 832C0000 		.4byte	0x2c83
 8132 137d 8D130000 		.4byte	0x138d
 8133 1381 18       		.uleb128 0x18
 8134 1382 01       		.uleb128 0x1
 8135 1383 51       		.byte	0x51
 8136 1384 02       		.uleb128 0x2
 8137 1385 08       		.byte	0x8
 8138 1386 86       		.byte	0x86
 8139 1387 18       		.uleb128 0x18
 8140 1388 01       		.uleb128 0x1
 8141 1389 50       		.byte	0x50
 8142 138a 01       		.uleb128 0x1
 8143 138b 31       		.byte	0x31
 8144 138c 00       		.byte	0
 8145 138d 17       		.uleb128 0x17
 8146 138e 9E020000 		.4byte	.LVL167
 8147 1392 832C0000 		.4byte	0x2c83
 8148 1396 A5130000 		.4byte	0x13a5
 8149 139a 18       		.uleb128 0x18
 8150 139b 01       		.uleb128 0x1
 8151 139c 51       		.byte	0x51
 8152 139d 01       		.uleb128 0x1
 8153 139e 31       		.byte	0x31
 8154 139f 18       		.uleb128 0x18
 8155 13a0 01       		.uleb128 0x1
 8156 13a1 50       		.byte	0x50
 8157 13a2 01       		.uleb128 0x1
 8158 13a3 31       		.byte	0x31
 8159 13a4 00       		.byte	0
 8160 13a5 17       		.uleb128 0x17
 8161 13a6 AE020000 		.4byte	.LVL168
 8162 13aa 832C0000 		.4byte	0x2c83
 8163 13ae BD130000 		.4byte	0x13bd
ARM GAS  C:\Users\RECEPC~1\AppData\Local\Temp\cc79eMMA.s 			page 185


 8164 13b2 18       		.uleb128 0x18
 8165 13b3 01       		.uleb128 0x1
 8166 13b4 51       		.byte	0x51
 8167 13b5 01       		.uleb128 0x1
 8168 13b6 31       		.byte	0x31
 8169 13b7 18       		.uleb128 0x18
 8170 13b8 01       		.uleb128 0x1
 8171 13b9 50       		.byte	0x50
 8172 13ba 01       		.uleb128 0x1
 8173 13bb 31       		.byte	0x31
 8174 13bc 00       		.byte	0
 8175 13bd 17       		.uleb128 0x17
 8176 13be BE020000 		.4byte	.LVL169
 8177 13c2 832C0000 		.4byte	0x2c83
 8178 13c6 D5130000 		.4byte	0x13d5
 8179 13ca 18       		.uleb128 0x18
 8180 13cb 01       		.uleb128 0x1
 8181 13cc 51       		.byte	0x51
 8182 13cd 01       		.uleb128 0x1
 8183 13ce 31       		.byte	0x31
 8184 13cf 18       		.uleb128 0x18
 8185 13d0 01       		.uleb128 0x1
 8186 13d1 50       		.byte	0x50
 8187 13d2 01       		.uleb128 0x1
 8188 13d3 31       		.byte	0x31
 8189 13d4 00       		.byte	0
 8190 13d5 17       		.uleb128 0x17
 8191 13d6 C4020000 		.4byte	.LVL170
 8192 13da BA2C0000 		.4byte	0x2cba
 8193 13de E8130000 		.4byte	0x13e8
 8194 13e2 18       		.uleb128 0x18
 8195 13e3 01       		.uleb128 0x1
 8196 13e4 50       		.byte	0x50
 8197 13e5 01       		.uleb128 0x1
 8198 13e6 3A       		.byte	0x3a
 8199 13e7 00       		.byte	0
 8200 13e8 15       		.uleb128 0x15
 8201 13e9 C8020000 		.4byte	.LVL171
 8202 13ed 642D0000 		.4byte	0x2d64
 8203 13f1 17       		.uleb128 0x17
 8204 13f2 F4020000 		.4byte	.LVL172
 8205 13f6 9A2D0000 		.4byte	0x2d9a
 8206 13fa 09140000 		.4byte	0x1409
 8207 13fe 18       		.uleb128 0x18
 8208 13ff 01       		.uleb128 0x1
 8209 1400 52       		.byte	0x52
 8210 1401 01       		.uleb128 0x1
 8211 1402 30       		.byte	0x30
 8212 1403 18       		.uleb128 0x18
 8213 1404 01       		.uleb128 0x1
 8214 1405 50       		.byte	0x50
 8215 1406 01       		.uleb128 0x1
 8216 1407 31       		.byte	0x31
 8217 1408 00       		.byte	0
 8218 1409 17       		.uleb128 0x17
 8219 140a 0C030000 		.4byte	.LVL173
 8220 140e 832C0000 		.4byte	0x2c83
ARM GAS  C:\Users\RECEPC~1\AppData\Local\Temp\cc79eMMA.s 			page 186


 8221 1412 21140000 		.4byte	0x1421
 8222 1416 18       		.uleb128 0x18
 8223 1417 01       		.uleb128 0x1
 8224 1418 51       		.byte	0x51
 8225 1419 01       		.uleb128 0x1
 8226 141a 31       		.byte	0x31
 8227 141b 18       		.uleb128 0x18
 8228 141c 01       		.uleb128 0x1
 8229 141d 50       		.byte	0x50
 8230 141e 01       		.uleb128 0x1
 8231 141f 31       		.byte	0x31
 8232 1420 00       		.byte	0
 8233 1421 17       		.uleb128 0x17
 8234 1422 40030000 		.4byte	.LVL180
 8235 1426 832C0000 		.4byte	0x2c83
 8236 142a 3A140000 		.4byte	0x143a
 8237 142e 18       		.uleb128 0x18
 8238 142f 01       		.uleb128 0x1
 8239 1430 51       		.byte	0x51
 8240 1431 02       		.uleb128 0x2
 8241 1432 08       		.byte	0x8
 8242 1433 86       		.byte	0x86
 8243 1434 18       		.uleb128 0x18
 8244 1435 01       		.uleb128 0x1
 8245 1436 50       		.byte	0x50
 8246 1437 01       		.uleb128 0x1
 8247 1438 31       		.byte	0x31
 8248 1439 00       		.byte	0
 8249 143a 15       		.uleb128 0x15
 8250 143b 48030000 		.4byte	.LVL181
 8251 143f 592D0000 		.4byte	0x2d59
 8252 1443 17       		.uleb128 0x17
 8253 1444 CA030000 		.4byte	.LVL182
 8254 1448 832C0000 		.4byte	0x2c83
 8255 144c 5B140000 		.4byte	0x145b
 8256 1450 18       		.uleb128 0x18
 8257 1451 01       		.uleb128 0x1
 8258 1452 51       		.byte	0x51
 8259 1453 01       		.uleb128 0x1
 8260 1454 3B       		.byte	0x3b
 8261 1455 18       		.uleb128 0x18
 8262 1456 01       		.uleb128 0x1
 8263 1457 50       		.byte	0x50
 8264 1458 01       		.uleb128 0x1
 8265 1459 31       		.byte	0x31
 8266 145a 00       		.byte	0
 8267 145b 17       		.uleb128 0x17
 8268 145c E2030000 		.4byte	.LVL183
 8269 1460 832C0000 		.4byte	0x2c83
 8270 1464 73140000 		.4byte	0x1473
 8271 1468 18       		.uleb128 0x18
 8272 1469 01       		.uleb128 0x1
 8273 146a 51       		.byte	0x51
 8274 146b 01       		.uleb128 0x1
 8275 146c 3B       		.byte	0x3b
 8276 146d 18       		.uleb128 0x18
 8277 146e 01       		.uleb128 0x1
ARM GAS  C:\Users\RECEPC~1\AppData\Local\Temp\cc79eMMA.s 			page 187


 8278 146f 50       		.byte	0x50
 8279 1470 01       		.uleb128 0x1
 8280 1471 31       		.byte	0x31
 8281 1472 00       		.byte	0
 8282 1473 17       		.uleb128 0x17
 8283 1474 FA030000 		.4byte	.LVL184
 8284 1478 832C0000 		.4byte	0x2c83
 8285 147c 8B140000 		.4byte	0x148b
 8286 1480 18       		.uleb128 0x18
 8287 1481 01       		.uleb128 0x1
 8288 1482 51       		.byte	0x51
 8289 1483 01       		.uleb128 0x1
 8290 1484 3B       		.byte	0x3b
 8291 1485 18       		.uleb128 0x18
 8292 1486 01       		.uleb128 0x1
 8293 1487 50       		.byte	0x50
 8294 1488 01       		.uleb128 0x1
 8295 1489 31       		.byte	0x31
 8296 148a 00       		.byte	0
 8297 148b 17       		.uleb128 0x17
 8298 148c 12040000 		.4byte	.LVL185
 8299 1490 832C0000 		.4byte	0x2c83
 8300 1494 A3140000 		.4byte	0x14a3
 8301 1498 18       		.uleb128 0x18
 8302 1499 01       		.uleb128 0x1
 8303 149a 51       		.byte	0x51
 8304 149b 01       		.uleb128 0x1
 8305 149c 3B       		.byte	0x3b
 8306 149d 18       		.uleb128 0x18
 8307 149e 01       		.uleb128 0x1
 8308 149f 50       		.byte	0x50
 8309 14a0 01       		.uleb128 0x1
 8310 14a1 31       		.byte	0x31
 8311 14a2 00       		.byte	0
 8312 14a3 17       		.uleb128 0x17
 8313 14a4 22040000 		.4byte	.LVL186
 8314 14a8 832C0000 		.4byte	0x2c83
 8315 14ac BB140000 		.4byte	0x14bb
 8316 14b0 18       		.uleb128 0x18
 8317 14b1 01       		.uleb128 0x1
 8318 14b2 51       		.byte	0x51
 8319 14b3 01       		.uleb128 0x1
 8320 14b4 31       		.byte	0x31
 8321 14b5 18       		.uleb128 0x18
 8322 14b6 01       		.uleb128 0x1
 8323 14b7 50       		.byte	0x50
 8324 14b8 01       		.uleb128 0x1
 8325 14b9 31       		.byte	0x31
 8326 14ba 00       		.byte	0
 8327 14bb 17       		.uleb128 0x17
 8328 14bc 2C040000 		.4byte	.LVL187
 8329 14c0 832C0000 		.4byte	0x2c83
 8330 14c4 D3140000 		.4byte	0x14d3
 8331 14c8 18       		.uleb128 0x18
 8332 14c9 01       		.uleb128 0x1
 8333 14ca 51       		.byte	0x51
 8334 14cb 01       		.uleb128 0x1
ARM GAS  C:\Users\RECEPC~1\AppData\Local\Temp\cc79eMMA.s 			page 188


 8335 14cc 31       		.byte	0x31
 8336 14cd 18       		.uleb128 0x18
 8337 14ce 01       		.uleb128 0x1
 8338 14cf 50       		.byte	0x50
 8339 14d0 01       		.uleb128 0x1
 8340 14d1 31       		.byte	0x31
 8341 14d2 00       		.byte	0
 8342 14d3 17       		.uleb128 0x17
 8343 14d4 38040000 		.4byte	.LVL188
 8344 14d8 BA2C0000 		.4byte	0x2cba
 8345 14dc E6140000 		.4byte	0x14e6
 8346 14e0 18       		.uleb128 0x18
 8347 14e1 01       		.uleb128 0x1
 8348 14e2 50       		.byte	0x50
 8349 14e3 01       		.uleb128 0x1
 8350 14e4 3A       		.byte	0x3a
 8351 14e5 00       		.byte	0
 8352 14e6 15       		.uleb128 0x15
 8353 14e7 3C040000 		.4byte	.LVL189
 8354 14eb 642D0000 		.4byte	0x2d64
 8355 14ef 17       		.uleb128 0x17
 8356 14f0 46040000 		.4byte	.LVL190
 8357 14f4 B92D0000 		.4byte	0x2db9
 8358 14f8 06150000 		.4byte	0x1506
 8359 14fc 18       		.uleb128 0x18
 8360 14fd 01       		.uleb128 0x1
 8361 14fe 50       		.byte	0x50
 8362 14ff 05       		.uleb128 0x5
 8363 1500 03       		.byte	0x3
 8364 1501 00000000 		.4byte	animacion
 8365 1505 00       		.byte	0
 8366 1506 15       		.uleb128 0x15
 8367 1507 4A040000 		.4byte	.LVL191
 8368 150b CA2D0000 		.4byte	0x2dca
 8369 150f 15       		.uleb128 0x15
 8370 1510 4E040000 		.4byte	.LVL192
 8371 1514 592D0000 		.4byte	0x2d59
 8372 1518 17       		.uleb128 0x17
 8373 1519 A2040000 		.4byte	.LVL193
 8374 151d 832C0000 		.4byte	0x2c83
 8375 1521 30150000 		.4byte	0x1530
 8376 1525 18       		.uleb128 0x18
 8377 1526 01       		.uleb128 0x1
 8378 1527 51       		.byte	0x51
 8379 1528 01       		.uleb128 0x1
 8380 1529 3A       		.byte	0x3a
 8381 152a 18       		.uleb128 0x18
 8382 152b 01       		.uleb128 0x1
 8383 152c 50       		.byte	0x50
 8384 152d 01       		.uleb128 0x1
 8385 152e 31       		.byte	0x31
 8386 152f 00       		.byte	0
 8387 1530 17       		.uleb128 0x17
 8388 1531 BA040000 		.4byte	.LVL194
 8389 1535 832C0000 		.4byte	0x2c83
 8390 1539 48150000 		.4byte	0x1548
 8391 153d 18       		.uleb128 0x18
ARM GAS  C:\Users\RECEPC~1\AppData\Local\Temp\cc79eMMA.s 			page 189


 8392 153e 01       		.uleb128 0x1
 8393 153f 51       		.byte	0x51
 8394 1540 01       		.uleb128 0x1
 8395 1541 31       		.byte	0x31
 8396 1542 18       		.uleb128 0x18
 8397 1543 01       		.uleb128 0x1
 8398 1544 50       		.byte	0x50
 8399 1545 01       		.uleb128 0x1
 8400 1546 31       		.byte	0x31
 8401 1547 00       		.byte	0
 8402 1548 17       		.uleb128 0x17
 8403 1549 D4040000 		.4byte	.LVL195
 8404 154d 832C0000 		.4byte	0x2c83
 8405 1551 60150000 		.4byte	0x1560
 8406 1555 18       		.uleb128 0x18
 8407 1556 01       		.uleb128 0x1
 8408 1557 51       		.byte	0x51
 8409 1558 01       		.uleb128 0x1
 8410 1559 37       		.byte	0x37
 8411 155a 18       		.uleb128 0x18
 8412 155b 01       		.uleb128 0x1
 8413 155c 50       		.byte	0x50
 8414 155d 01       		.uleb128 0x1
 8415 155e 31       		.byte	0x31
 8416 155f 00       		.byte	0
 8417 1560 17       		.uleb128 0x17
 8418 1561 E4040000 		.4byte	.LVL196
 8419 1565 832C0000 		.4byte	0x2c83
 8420 1569 78150000 		.4byte	0x1578
 8421 156d 18       		.uleb128 0x18
 8422 156e 01       		.uleb128 0x1
 8423 156f 51       		.byte	0x51
 8424 1570 01       		.uleb128 0x1
 8425 1571 31       		.byte	0x31
 8426 1572 18       		.uleb128 0x18
 8427 1573 01       		.uleb128 0x1
 8428 1574 50       		.byte	0x50
 8429 1575 01       		.uleb128 0x1
 8430 1576 31       		.byte	0x31
 8431 1577 00       		.byte	0
 8432 1578 17       		.uleb128 0x17
 8433 1579 EA040000 		.4byte	.LVL197
 8434 157d BA2C0000 		.4byte	0x2cba
 8435 1581 8B150000 		.4byte	0x158b
 8436 1585 18       		.uleb128 0x18
 8437 1586 01       		.uleb128 0x1
 8438 1587 50       		.byte	0x50
 8439 1588 01       		.uleb128 0x1
 8440 1589 3A       		.byte	0x3a
 8441 158a 00       		.byte	0
 8442 158b 15       		.uleb128 0x15
 8443 158c EE040000 		.4byte	.LVL198
 8444 1590 642D0000 		.4byte	0x2d64
 8445 1594 17       		.uleb128 0x17
 8446 1595 0A050000 		.4byte	.LVL199
 8447 1599 832C0000 		.4byte	0x2c83
 8448 159d AC150000 		.4byte	0x15ac
ARM GAS  C:\Users\RECEPC~1\AppData\Local\Temp\cc79eMMA.s 			page 190


 8449 15a1 18       		.uleb128 0x18
 8450 15a2 01       		.uleb128 0x1
 8451 15a3 51       		.byte	0x51
 8452 15a4 01       		.uleb128 0x1
 8453 15a5 31       		.byte	0x31
 8454 15a6 18       		.uleb128 0x18
 8455 15a7 01       		.uleb128 0x1
 8456 15a8 50       		.byte	0x50
 8457 15a9 01       		.uleb128 0x1
 8458 15aa 31       		.byte	0x31
 8459 15ab 00       		.byte	0
 8460 15ac 15       		.uleb128 0x15
 8461 15ad 38050000 		.4byte	.LVL200
 8462 15b1 D12D0000 		.4byte	0x2dd1
 8463 15b5 17       		.uleb128 0x17
 8464 15b6 58050000 		.4byte	.LVL201
 8465 15ba E62D0000 		.4byte	0x2de6
 8466 15be CC150000 		.4byte	0x15cc
 8467 15c2 18       		.uleb128 0x18
 8468 15c3 01       		.uleb128 0x1
 8469 15c4 52       		.byte	0x52
 8470 15c5 05       		.uleb128 0x5
 8471 15c6 03       		.byte	0x3
 8472 15c7 65000000 		.4byte	bufferDisplay1+101
 8473 15cb 00       		.byte	0
 8474 15cc 15       		.uleb128 0x15
 8475 15cd 62050000 		.4byte	.LVL202
 8476 15d1 D62C0000 		.4byte	0x2cd6
 8477 15d5 17       		.uleb128 0x17
 8478 15d6 68050000 		.4byte	.LVL203
 8479 15da BA2C0000 		.4byte	0x2cba
 8480 15de E9150000 		.4byte	0x15e9
 8481 15e2 18       		.uleb128 0x18
 8482 15e3 01       		.uleb128 0x1
 8483 15e4 50       		.byte	0x50
 8484 15e5 02       		.uleb128 0x2
 8485 15e6 08       		.byte	0x8
 8486 15e7 32       		.byte	0x32
 8487 15e8 00       		.byte	0
 8488 15e9 15       		.uleb128 0x15
 8489 15ea 72050000 		.4byte	.LVL204
 8490 15ee 0A2E0000 		.4byte	0x2e0a
 8491 15f2 17       		.uleb128 0x17
 8492 15f3 78050000 		.4byte	.LVL205
 8493 15f7 BA2C0000 		.4byte	0x2cba
 8494 15fb 06160000 		.4byte	0x1606
 8495 15ff 18       		.uleb128 0x18
 8496 1600 01       		.uleb128 0x1
 8497 1601 50       		.byte	0x50
 8498 1602 02       		.uleb128 0x2
 8499 1603 08       		.byte	0x8
 8500 1604 32       		.byte	0x32
 8501 1605 00       		.byte	0
 8502 1606 15       		.uleb128 0x15
 8503 1607 82050000 		.4byte	.LVL206
 8504 160b 4B2D0000 		.4byte	0x2d4b
 8505 160f 15       		.uleb128 0x15
ARM GAS  C:\Users\RECEPC~1\AppData\Local\Temp\cc79eMMA.s 			page 191


 8506 1610 86050000 		.4byte	.LVL207
 8507 1614 522D0000 		.4byte	0x2d52
 8508 1618 17       		.uleb128 0x17
 8509 1619 9A050000 		.4byte	.LVL208
 8510 161d 832C0000 		.4byte	0x2c83
 8511 1621 32160000 		.4byte	0x1632
 8512 1625 18       		.uleb128 0x18
 8513 1626 01       		.uleb128 0x1
 8514 1627 51       		.byte	0x51
 8515 1628 02       		.uleb128 0x2
 8516 1629 75       		.byte	0x75
 8517 162a 00       		.sleb128 0
 8518 162b 18       		.uleb128 0x18
 8519 162c 01       		.uleb128 0x1
 8520 162d 50       		.byte	0x50
 8521 162e 02       		.uleb128 0x2
 8522 162f 74       		.byte	0x74
 8523 1630 00       		.sleb128 0
 8524 1631 00       		.byte	0
 8525 1632 17       		.uleb128 0x17
 8526 1633 A4050000 		.4byte	.LVL209
 8527 1637 992C0000 		.4byte	0x2c99
 8528 163b 54160000 		.4byte	0x1654
 8529 163f 18       		.uleb128 0x18
 8530 1640 01       		.uleb128 0x1
 8531 1641 52       		.byte	0x52
 8532 1642 01       		.uleb128 0x1
 8533 1643 42       		.byte	0x42
 8534 1644 18       		.uleb128 0x18
 8535 1645 01       		.uleb128 0x1
 8536 1646 51       		.byte	0x51
 8537 1647 05       		.uleb128 0x5
 8538 1648 03       		.byte	0x3
 8539 1649 65000000 		.4byte	bufferDisplay1+101
 8540 164d 18       		.uleb128 0x18
 8541 164e 01       		.uleb128 0x1
 8542 164f 50       		.byte	0x50
 8543 1650 02       		.uleb128 0x2
 8544 1651 74       		.byte	0x74
 8545 1652 00       		.sleb128 0
 8546 1653 00       		.byte	0
 8547 1654 17       		.uleb128 0x17
 8548 1655 B2050000 		.4byte	.LVL210
 8549 1659 832C0000 		.4byte	0x2c83
 8550 165d 6C160000 		.4byte	0x166c
 8551 1661 18       		.uleb128 0x18
 8552 1662 01       		.uleb128 0x1
 8553 1663 51       		.byte	0x51
 8554 1664 01       		.uleb128 0x1
 8555 1665 30       		.byte	0x30
 8556 1666 18       		.uleb128 0x18
 8557 1667 01       		.uleb128 0x1
 8558 1668 50       		.byte	0x50
 8559 1669 01       		.uleb128 0x1
 8560 166a 31       		.byte	0x31
 8561 166b 00       		.byte	0
 8562 166c 17       		.uleb128 0x17
ARM GAS  C:\Users\RECEPC~1\AppData\Local\Temp\cc79eMMA.s 			page 192


 8563 166d B8050000 		.4byte	.LVL211
 8564 1671 BA2C0000 		.4byte	0x2cba
 8565 1675 80160000 		.4byte	0x1680
 8566 1679 18       		.uleb128 0x18
 8567 167a 01       		.uleb128 0x1
 8568 167b 50       		.byte	0x50
 8569 167c 02       		.uleb128 0x2
 8570 167d 08       		.byte	0x8
 8571 167e C8       		.byte	0xc8
 8572 167f 00       		.byte	0
 8573 1680 17       		.uleb128 0x17
 8574 1681 C0050000 		.4byte	.LVL212
 8575 1685 832C0000 		.4byte	0x2c83
 8576 1689 98160000 		.4byte	0x1698
 8577 168d 18       		.uleb128 0x18
 8578 168e 01       		.uleb128 0x1
 8579 168f 51       		.byte	0x51
 8580 1690 01       		.uleb128 0x1
 8581 1691 31       		.byte	0x31
 8582 1692 18       		.uleb128 0x18
 8583 1693 01       		.uleb128 0x1
 8584 1694 50       		.byte	0x50
 8585 1695 01       		.uleb128 0x1
 8586 1696 31       		.byte	0x31
 8587 1697 00       		.byte	0
 8588 1698 15       		.uleb128 0x15
 8589 1699 CC050000 		.4byte	.LVL213
 8590 169d 592D0000 		.4byte	0x2d59
 8591 16a1 17       		.uleb128 0x17
 8592 16a2 00060000 		.4byte	.LVL214
 8593 16a6 832C0000 		.4byte	0x2c83
 8594 16aa B9160000 		.4byte	0x16b9
 8595 16ae 18       		.uleb128 0x18
 8596 16af 01       		.uleb128 0x1
 8597 16b0 51       		.byte	0x51
 8598 16b1 01       		.uleb128 0x1
 8599 16b2 31       		.byte	0x31
 8600 16b3 18       		.uleb128 0x18
 8601 16b4 01       		.uleb128 0x1
 8602 16b5 50       		.byte	0x50
 8603 16b6 01       		.uleb128 0x1
 8604 16b7 31       		.byte	0x31
 8605 16b8 00       		.byte	0
 8606 16b9 17       		.uleb128 0x17
 8607 16ba 0C060000 		.4byte	.LVL215
 8608 16be BA2C0000 		.4byte	0x2cba
 8609 16c2 CC160000 		.4byte	0x16cc
 8610 16c6 18       		.uleb128 0x18
 8611 16c7 01       		.uleb128 0x1
 8612 16c8 50       		.byte	0x50
 8613 16c9 01       		.uleb128 0x1
 8614 16ca 3A       		.byte	0x3a
 8615 16cb 00       		.byte	0
 8616 16cc 15       		.uleb128 0x15
 8617 16cd 10060000 		.4byte	.LVL216
 8618 16d1 642D0000 		.4byte	0x2d64
 8619 16d5 15       		.uleb128 0x15
ARM GAS  C:\Users\RECEPC~1\AppData\Local\Temp\cc79eMMA.s 			page 193


 8620 16d6 1C060000 		.4byte	.LVL217
 8621 16da D62C0000 		.4byte	0x2cd6
 8622 16de 17       		.uleb128 0x17
 8623 16df 4C060000 		.4byte	.LVL218
 8624 16e3 832C0000 		.4byte	0x2c83
 8625 16e7 F6160000 		.4byte	0x16f6
 8626 16eb 18       		.uleb128 0x18
 8627 16ec 01       		.uleb128 0x1
 8628 16ed 51       		.byte	0x51
 8629 16ee 01       		.uleb128 0x1
 8630 16ef 31       		.byte	0x31
 8631 16f0 18       		.uleb128 0x18
 8632 16f1 01       		.uleb128 0x1
 8633 16f2 50       		.byte	0x50
 8634 16f3 01       		.uleb128 0x1
 8635 16f4 31       		.byte	0x31
 8636 16f5 00       		.byte	0
 8637 16f6 15       		.uleb128 0x15
 8638 16f7 70060000 		.4byte	.LVL219
 8639 16fb 1B2E0000 		.4byte	0x2e1b
 8640 16ff 15       		.uleb128 0x15
 8641 1700 8C060000 		.4byte	.LVL220
 8642 1704 302E0000 		.4byte	0x2e30
 8643 1708 17       		.uleb128 0x17
 8644 1709 9A060000 		.4byte	.LVL221
 8645 170d 832C0000 		.4byte	0x2c83
 8646 1711 20170000 		.4byte	0x1720
 8647 1715 18       		.uleb128 0x18
 8648 1716 01       		.uleb128 0x1
 8649 1717 51       		.byte	0x51
 8650 1718 01       		.uleb128 0x1
 8651 1719 31       		.byte	0x31
 8652 171a 18       		.uleb128 0x18
 8653 171b 01       		.uleb128 0x1
 8654 171c 50       		.byte	0x50
 8655 171d 01       		.uleb128 0x1
 8656 171e 31       		.byte	0x31
 8657 171f 00       		.byte	0
 8658 1720 17       		.uleb128 0x17
 8659 1721 B0060000 		.4byte	.LVL222
 8660 1725 832C0000 		.4byte	0x2c83
 8661 1729 38170000 		.4byte	0x1738
 8662 172d 18       		.uleb128 0x18
 8663 172e 01       		.uleb128 0x1
 8664 172f 51       		.byte	0x51
 8665 1730 01       		.uleb128 0x1
 8666 1731 3B       		.byte	0x3b
 8667 1732 18       		.uleb128 0x18
 8668 1733 01       		.uleb128 0x1
 8669 1734 50       		.byte	0x50
 8670 1735 01       		.uleb128 0x1
 8671 1736 31       		.byte	0x31
 8672 1737 00       		.byte	0
 8673 1738 15       		.uleb128 0x15
 8674 1739 C4060000 		.4byte	.LVL223
 8675 173d 1B2E0000 		.4byte	0x2e1b
 8676 1741 15       		.uleb128 0x15
ARM GAS  C:\Users\RECEPC~1\AppData\Local\Temp\cc79eMMA.s 			page 194


 8677 1742 E0060000 		.4byte	.LVL224
 8678 1746 302E0000 		.4byte	0x2e30
 8679 174a 17       		.uleb128 0x17
 8680 174b EE060000 		.4byte	.LVL225
 8681 174f 832C0000 		.4byte	0x2c83
 8682 1753 62170000 		.4byte	0x1762
 8683 1757 18       		.uleb128 0x18
 8684 1758 01       		.uleb128 0x1
 8685 1759 51       		.byte	0x51
 8686 175a 01       		.uleb128 0x1
 8687 175b 31       		.byte	0x31
 8688 175c 18       		.uleb128 0x18
 8689 175d 01       		.uleb128 0x1
 8690 175e 50       		.byte	0x50
 8691 175f 01       		.uleb128 0x1
 8692 1760 31       		.byte	0x31
 8693 1761 00       		.byte	0
 8694 1762 17       		.uleb128 0x17
 8695 1763 04070000 		.4byte	.LVL226
 8696 1767 832C0000 		.4byte	0x2c83
 8697 176b 7A170000 		.4byte	0x177a
 8698 176f 18       		.uleb128 0x18
 8699 1770 01       		.uleb128 0x1
 8700 1771 51       		.byte	0x51
 8701 1772 01       		.uleb128 0x1
 8702 1773 3B       		.byte	0x3b
 8703 1774 18       		.uleb128 0x18
 8704 1775 01       		.uleb128 0x1
 8705 1776 50       		.byte	0x50
 8706 1777 01       		.uleb128 0x1
 8707 1778 31       		.byte	0x31
 8708 1779 00       		.byte	0
 8709 177a 17       		.uleb128 0x17
 8710 177b 1A070000 		.4byte	.LVL227
 8711 177f 9A2D0000 		.4byte	0x2d9a
 8712 1783 97170000 		.4byte	0x1797
 8713 1787 18       		.uleb128 0x18
 8714 1788 01       		.uleb128 0x1
 8715 1789 52       		.byte	0x52
 8716 178a 01       		.uleb128 0x1
 8717 178b 30       		.byte	0x30
 8718 178c 18       		.uleb128 0x18
 8719 178d 01       		.uleb128 0x1
 8720 178e 51       		.byte	0x51
 8721 178f 01       		.uleb128 0x1
 8722 1790 3A       		.byte	0x3a
 8723 1791 18       		.uleb128 0x18
 8724 1792 01       		.uleb128 0x1
 8725 1793 50       		.byte	0x50
 8726 1794 01       		.uleb128 0x1
 8727 1795 31       		.byte	0x31
 8728 1796 00       		.byte	0
 8729 1797 17       		.uleb128 0x17
 8730 1798 5C070000 		.4byte	.LVL234
 8731 179c 832C0000 		.4byte	0x2c83
 8732 17a0 AF170000 		.4byte	0x17af
 8733 17a4 18       		.uleb128 0x18
ARM GAS  C:\Users\RECEPC~1\AppData\Local\Temp\cc79eMMA.s 			page 195


 8734 17a5 01       		.uleb128 0x1
 8735 17a6 51       		.byte	0x51
 8736 17a7 01       		.uleb128 0x1
 8737 17a8 31       		.byte	0x31
 8738 17a9 18       		.uleb128 0x18
 8739 17aa 01       		.uleb128 0x1
 8740 17ab 50       		.byte	0x50
 8741 17ac 01       		.uleb128 0x1
 8742 17ad 31       		.byte	0x31
 8743 17ae 00       		.byte	0
 8744 17af 15       		.uleb128 0x15
 8745 17b0 A8070000 		.4byte	.LVL249
 8746 17b4 642D0000 		.4byte	0x2d64
 8747 17b8 15       		.uleb128 0x15
 8748 17b9 14080000 		.4byte	.LVL256
 8749 17bd 302E0000 		.4byte	0x2e30
 8750 17c1 17       		.uleb128 0x17
 8751 17c2 22080000 		.4byte	.LVL257
 8752 17c6 832C0000 		.4byte	0x2c83
 8753 17ca D9170000 		.4byte	0x17d9
 8754 17ce 18       		.uleb128 0x18
 8755 17cf 01       		.uleb128 0x1
 8756 17d0 51       		.byte	0x51
 8757 17d1 01       		.uleb128 0x1
 8758 17d2 31       		.byte	0x31
 8759 17d3 18       		.uleb128 0x18
 8760 17d4 01       		.uleb128 0x1
 8761 17d5 50       		.byte	0x50
 8762 17d6 01       		.uleb128 0x1
 8763 17d7 31       		.byte	0x31
 8764 17d8 00       		.byte	0
 8765 17d9 17       		.uleb128 0x17
 8766 17da 30080000 		.4byte	.LVL258
 8767 17de 832C0000 		.4byte	0x2c83
 8768 17e2 F1170000 		.4byte	0x17f1
 8769 17e6 18       		.uleb128 0x18
 8770 17e7 01       		.uleb128 0x1
 8771 17e8 51       		.byte	0x51
 8772 17e9 01       		.uleb128 0x1
 8773 17ea 37       		.byte	0x37
 8774 17eb 18       		.uleb128 0x18
 8775 17ec 01       		.uleb128 0x1
 8776 17ed 50       		.byte	0x50
 8777 17ee 01       		.uleb128 0x1
 8778 17ef 31       		.byte	0x31
 8779 17f0 00       		.byte	0
 8780 17f1 17       		.uleb128 0x17
 8781 17f2 5C080000 		.4byte	.LVL265
 8782 17f6 832C0000 		.4byte	0x2c83
 8783 17fa 09180000 		.4byte	0x1809
 8784 17fe 18       		.uleb128 0x18
 8785 17ff 01       		.uleb128 0x1
 8786 1800 51       		.byte	0x51
 8787 1801 01       		.uleb128 0x1
 8788 1802 37       		.byte	0x37
 8789 1803 18       		.uleb128 0x18
 8790 1804 01       		.uleb128 0x1
ARM GAS  C:\Users\RECEPC~1\AppData\Local\Temp\cc79eMMA.s 			page 196


 8791 1805 50       		.byte	0x50
 8792 1806 01       		.uleb128 0x1
 8793 1807 31       		.byte	0x31
 8794 1808 00       		.byte	0
 8795 1809 17       		.uleb128 0x17
 8796 180a BA080000 		.4byte	.LVL276
 8797 180e 832C0000 		.4byte	0x2c83
 8798 1812 22180000 		.4byte	0x1822
 8799 1816 18       		.uleb128 0x18
 8800 1817 01       		.uleb128 0x1
 8801 1818 51       		.byte	0x51
 8802 1819 02       		.uleb128 0x2
 8803 181a 08       		.byte	0x8
 8804 181b 25       		.byte	0x25
 8805 181c 18       		.uleb128 0x18
 8806 181d 01       		.uleb128 0x1
 8807 181e 50       		.byte	0x50
 8808 181f 01       		.uleb128 0x1
 8809 1820 31       		.byte	0x31
 8810 1821 00       		.byte	0
 8811 1822 15       		.uleb128 0x15
 8812 1823 BE080000 		.4byte	.LVL277
 8813 1827 642D0000 		.4byte	0x2d64
 8814 182b 15       		.uleb128 0x15
 8815 182c C6080000 		.4byte	.LVL278
 8816 1830 592D0000 		.4byte	0x2d59
 8817 1834 17       		.uleb128 0x17
 8818 1835 18090000 		.4byte	.LVL279
 8819 1839 832C0000 		.4byte	0x2c83
 8820 183d 4C180000 		.4byte	0x184c
 8821 1841 18       		.uleb128 0x18
 8822 1842 01       		.uleb128 0x1
 8823 1843 51       		.byte	0x51
 8824 1844 01       		.uleb128 0x1
 8825 1845 42       		.byte	0x42
 8826 1846 18       		.uleb128 0x18
 8827 1847 01       		.uleb128 0x1
 8828 1848 50       		.byte	0x50
 8829 1849 01       		.uleb128 0x1
 8830 184a 31       		.byte	0x31
 8831 184b 00       		.byte	0
 8832 184c 17       		.uleb128 0x17
 8833 184d 32090000 		.4byte	.LVL280
 8834 1851 832C0000 		.4byte	0x2c83
 8835 1855 64180000 		.4byte	0x1864
 8836 1859 18       		.uleb128 0x18
 8837 185a 01       		.uleb128 0x1
 8838 185b 51       		.byte	0x51
 8839 185c 01       		.uleb128 0x1
 8840 185d 37       		.byte	0x37
 8841 185e 18       		.uleb128 0x18
 8842 185f 01       		.uleb128 0x1
 8843 1860 50       		.byte	0x50
 8844 1861 01       		.uleb128 0x1
 8845 1862 31       		.byte	0x31
 8846 1863 00       		.byte	0
 8847 1864 17       		.uleb128 0x17
ARM GAS  C:\Users\RECEPC~1\AppData\Local\Temp\cc79eMMA.s 			page 197


 8848 1865 3C090000 		.4byte	.LVL281
 8849 1869 832C0000 		.4byte	0x2c83
 8850 186d 7C180000 		.4byte	0x187c
 8851 1871 18       		.uleb128 0x18
 8852 1872 01       		.uleb128 0x1
 8853 1873 51       		.byte	0x51
 8854 1874 01       		.uleb128 0x1
 8855 1875 31       		.byte	0x31
 8856 1876 18       		.uleb128 0x18
 8857 1877 01       		.uleb128 0x1
 8858 1878 50       		.byte	0x50
 8859 1879 01       		.uleb128 0x1
 8860 187a 31       		.byte	0x31
 8861 187b 00       		.byte	0
 8862 187c 17       		.uleb128 0x17
 8863 187d 48090000 		.4byte	.LVL282
 8864 1881 BA2C0000 		.4byte	0x2cba
 8865 1885 8F180000 		.4byte	0x188f
 8866 1889 18       		.uleb128 0x18
 8867 188a 01       		.uleb128 0x1
 8868 188b 50       		.byte	0x50
 8869 188c 01       		.uleb128 0x1
 8870 188d 3A       		.byte	0x3a
 8871 188e 00       		.byte	0
 8872 188f 15       		.uleb128 0x15
 8873 1890 4C090000 		.4byte	.LVL283
 8874 1894 642D0000 		.4byte	0x2d64
 8875 1898 17       		.uleb128 0x17
 8876 1899 56090000 		.4byte	.LVL284
 8877 189d B92D0000 		.4byte	0x2db9
 8878 18a1 AF180000 		.4byte	0x18af
 8879 18a5 18       		.uleb128 0x18
 8880 18a6 01       		.uleb128 0x1
 8881 18a7 50       		.byte	0x50
 8882 18a8 05       		.uleb128 0x5
 8883 18a9 03       		.byte	0x3
 8884 18aa 00000000 		.4byte	animacion
 8885 18ae 00       		.byte	0
 8886 18af 15       		.uleb128 0x15
 8887 18b0 5A090000 		.4byte	.LVL285
 8888 18b4 CA2D0000 		.4byte	0x2dca
 8889 18b8 17       		.uleb128 0x17
 8890 18b9 60090000 		.4byte	.LVL286
 8891 18bd 462E0000 		.4byte	0x2e46
 8892 18c1 CB180000 		.4byte	0x18cb
 8893 18c5 18       		.uleb128 0x18
 8894 18c6 01       		.uleb128 0x1
 8895 18c7 50       		.byte	0x50
 8896 18c8 01       		.uleb128 0x1
 8897 18c9 31       		.byte	0x31
 8898 18ca 00       		.byte	0
 8899 18cb 17       		.uleb128 0x17
 8900 18cc 6A090000 		.4byte	.LVL287
 8901 18d0 5B2E0000 		.4byte	0x2e5b
 8902 18d4 DF180000 		.4byte	0x18df
 8903 18d8 18       		.uleb128 0x18
 8904 18d9 01       		.uleb128 0x1
ARM GAS  C:\Users\RECEPC~1\AppData\Local\Temp\cc79eMMA.s 			page 198


 8905 18da 51       		.byte	0x51
 8906 18db 02       		.uleb128 0x2
 8907 18dc 08       		.byte	0x8
 8908 18dd 33       		.byte	0x33
 8909 18de 00       		.byte	0
 8910 18df 17       		.uleb128 0x17
 8911 18e0 74090000 		.4byte	.LVL289
 8912 18e4 752E0000 		.4byte	0x2e75
 8913 18e8 F2180000 		.4byte	0x18f2
 8914 18ec 18       		.uleb128 0x18
 8915 18ed 01       		.uleb128 0x1
 8916 18ee 50       		.byte	0x50
 8917 18ef 01       		.uleb128 0x1
 8918 18f0 31       		.byte	0x31
 8919 18f1 00       		.byte	0
 8920 18f2 15       		.uleb128 0x15
 8921 18f3 92090000 		.4byte	.LVL296
 8922 18f7 8A2E0000 		.4byte	0x2e8a
 8923 18fb 17       		.uleb128 0x17
 8924 18fc 1C0A0000 		.4byte	.LVL307
 8925 1900 832C0000 		.4byte	0x2c83
 8926 1904 13190000 		.4byte	0x1913
 8927 1908 18       		.uleb128 0x18
 8928 1909 01       		.uleb128 0x1
 8929 190a 51       		.byte	0x51
 8930 190b 01       		.uleb128 0x1
 8931 190c 43       		.byte	0x43
 8932 190d 18       		.uleb128 0x18
 8933 190e 01       		.uleb128 0x1
 8934 190f 50       		.byte	0x50
 8935 1910 01       		.uleb128 0x1
 8936 1911 31       		.byte	0x31
 8937 1912 00       		.byte	0
 8938 1913 15       		.uleb128 0x15
 8939 1914 200A0000 		.4byte	.LVL308
 8940 1918 642D0000 		.4byte	0x2d64
 8941 191c 17       		.uleb128 0x17
 8942 191d 280A0000 		.4byte	.LVL309
 8943 1921 BA2C0000 		.4byte	0x2cba
 8944 1925 31190000 		.4byte	0x1931
 8945 1929 18       		.uleb128 0x18
 8946 192a 01       		.uleb128 0x1
 8947 192b 50       		.byte	0x50
 8948 192c 03       		.uleb128 0x3
 8949 192d 0A       		.byte	0xa
 8950 192e BC02     		.2byte	0x2bc
 8951 1930 00       		.byte	0
 8952 1931 17       		.uleb128 0x17
 8953 1932 3E0A0000 		.4byte	.LVL310
 8954 1936 832C0000 		.4byte	0x2c83
 8955 193a 49190000 		.4byte	0x1949
 8956 193e 18       		.uleb128 0x18
 8957 193f 01       		.uleb128 0x1
 8958 1940 51       		.byte	0x51
 8959 1941 01       		.uleb128 0x1
 8960 1942 3E       		.byte	0x3e
 8961 1943 18       		.uleb128 0x18
ARM GAS  C:\Users\RECEPC~1\AppData\Local\Temp\cc79eMMA.s 			page 199


 8962 1944 01       		.uleb128 0x1
 8963 1945 50       		.byte	0x50
 8964 1946 01       		.uleb128 0x1
 8965 1947 31       		.byte	0x31
 8966 1948 00       		.byte	0
 8967 1949 17       		.uleb128 0x17
 8968 194a 5A0A0000 		.4byte	.LVL311
 8969 194e 832C0000 		.4byte	0x2c83
 8970 1952 61190000 		.4byte	0x1961
 8971 1956 18       		.uleb128 0x18
 8972 1957 01       		.uleb128 0x1
 8973 1958 51       		.byte	0x51
 8974 1959 01       		.uleb128 0x1
 8975 195a 31       		.byte	0x31
 8976 195b 18       		.uleb128 0x18
 8977 195c 01       		.uleb128 0x1
 8978 195d 50       		.byte	0x50
 8979 195e 01       		.uleb128 0x1
 8980 195f 31       		.byte	0x31
 8981 1960 00       		.byte	0
 8982 1961 15       		.uleb128 0x15
 8983 1962 620A0000 		.4byte	.LVL312
 8984 1966 592D0000 		.4byte	0x2d59
 8985 196a 17       		.uleb128 0x17
 8986 196b EE0A0000 		.4byte	.LVL313
 8987 196f 832C0000 		.4byte	0x2c83
 8988 1973 83190000 		.4byte	0x1983
 8989 1977 18       		.uleb128 0x18
 8990 1978 01       		.uleb128 0x1
 8991 1979 51       		.byte	0x51
 8992 197a 02       		.uleb128 0x2
 8993 197b 08       		.byte	0x8
 8994 197c 2A       		.byte	0x2a
 8995 197d 18       		.uleb128 0x18
 8996 197e 01       		.uleb128 0x1
 8997 197f 50       		.byte	0x50
 8998 1980 01       		.uleb128 0x1
 8999 1981 31       		.byte	0x31
 9000 1982 00       		.byte	0
 9001 1983 17       		.uleb128 0x17
 9002 1984 F80A0000 		.4byte	.LVL314
 9003 1988 832C0000 		.4byte	0x2c83
 9004 198c 9C190000 		.4byte	0x199c
 9005 1990 18       		.uleb128 0x18
 9006 1991 01       		.uleb128 0x1
 9007 1992 51       		.byte	0x51
 9008 1993 02       		.uleb128 0x2
 9009 1994 08       		.byte	0x8
 9010 1995 23       		.byte	0x23
 9011 1996 18       		.uleb128 0x18
 9012 1997 01       		.uleb128 0x1
 9013 1998 50       		.byte	0x50
 9014 1999 01       		.uleb128 0x1
 9015 199a 31       		.byte	0x31
 9016 199b 00       		.byte	0
 9017 199c 17       		.uleb128 0x17
 9018 199d 220B0000 		.4byte	.LVL315
ARM GAS  C:\Users\RECEPC~1\AppData\Local\Temp\cc79eMMA.s 			page 200


 9019 19a1 832C0000 		.4byte	0x2c83
 9020 19a5 B5190000 		.4byte	0x19b5
 9021 19a9 18       		.uleb128 0x18
 9022 19aa 01       		.uleb128 0x1
 9023 19ab 51       		.byte	0x51
 9024 19ac 02       		.uleb128 0x2
 9025 19ad 08       		.byte	0x8
 9026 19ae 25       		.byte	0x25
 9027 19af 18       		.uleb128 0x18
 9028 19b0 01       		.uleb128 0x1
 9029 19b1 50       		.byte	0x50
 9030 19b2 01       		.uleb128 0x1
 9031 19b3 31       		.byte	0x31
 9032 19b4 00       		.byte	0
 9033 19b5 17       		.uleb128 0x17
 9034 19b6 3A0B0000 		.4byte	.LVL316
 9035 19ba 832C0000 		.4byte	0x2c83
 9036 19be CD190000 		.4byte	0x19cd
 9037 19c2 18       		.uleb128 0x18
 9038 19c3 01       		.uleb128 0x1
 9039 19c4 51       		.byte	0x51
 9040 19c5 01       		.uleb128 0x1
 9041 19c6 31       		.byte	0x31
 9042 19c7 18       		.uleb128 0x18
 9043 19c8 01       		.uleb128 0x1
 9044 19c9 50       		.byte	0x50
 9045 19ca 01       		.uleb128 0x1
 9046 19cb 31       		.byte	0x31
 9047 19cc 00       		.byte	0
 9048 19cd 17       		.uleb128 0x17
 9049 19ce 4A0B0000 		.4byte	.LVL317
 9050 19d2 832C0000 		.4byte	0x2c83
 9051 19d6 E5190000 		.4byte	0x19e5
 9052 19da 18       		.uleb128 0x18
 9053 19db 01       		.uleb128 0x1
 9054 19dc 51       		.byte	0x51
 9055 19dd 01       		.uleb128 0x1
 9056 19de 31       		.byte	0x31
 9057 19df 18       		.uleb128 0x18
 9058 19e0 01       		.uleb128 0x1
 9059 19e1 50       		.byte	0x50
 9060 19e2 01       		.uleb128 0x1
 9061 19e3 31       		.byte	0x31
 9062 19e4 00       		.byte	0
 9063 19e5 17       		.uleb128 0x17
 9064 19e6 5A0B0000 		.4byte	.LVL318
 9065 19ea 832C0000 		.4byte	0x2c83
 9066 19ee FD190000 		.4byte	0x19fd
 9067 19f2 18       		.uleb128 0x18
 9068 19f3 01       		.uleb128 0x1
 9069 19f4 51       		.byte	0x51
 9070 19f5 01       		.uleb128 0x1
 9071 19f6 31       		.byte	0x31
 9072 19f7 18       		.uleb128 0x18
 9073 19f8 01       		.uleb128 0x1
 9074 19f9 50       		.byte	0x50
 9075 19fa 01       		.uleb128 0x1
ARM GAS  C:\Users\RECEPC~1\AppData\Local\Temp\cc79eMMA.s 			page 201


 9076 19fb 31       		.byte	0x31
 9077 19fc 00       		.byte	0
 9078 19fd 17       		.uleb128 0x17
 9079 19fe 6A0B0000 		.4byte	.LVL319
 9080 1a02 832C0000 		.4byte	0x2c83
 9081 1a06 151A0000 		.4byte	0x1a15
 9082 1a0a 18       		.uleb128 0x18
 9083 1a0b 01       		.uleb128 0x1
 9084 1a0c 51       		.byte	0x51
 9085 1a0d 01       		.uleb128 0x1
 9086 1a0e 31       		.byte	0x31
 9087 1a0f 18       		.uleb128 0x18
 9088 1a10 01       		.uleb128 0x1
 9089 1a11 50       		.byte	0x50
 9090 1a12 01       		.uleb128 0x1
 9091 1a13 31       		.byte	0x31
 9092 1a14 00       		.byte	0
 9093 1a15 17       		.uleb128 0x17
 9094 1a16 700B0000 		.4byte	.LVL320
 9095 1a1a BA2C0000 		.4byte	0x2cba
 9096 1a1e 281A0000 		.4byte	0x1a28
 9097 1a22 18       		.uleb128 0x18
 9098 1a23 01       		.uleb128 0x1
 9099 1a24 50       		.byte	0x50
 9100 1a25 01       		.uleb128 0x1
 9101 1a26 3A       		.byte	0x3a
 9102 1a27 00       		.byte	0
 9103 1a28 15       		.uleb128 0x15
 9104 1a29 740B0000 		.4byte	.LVL321
 9105 1a2d 642D0000 		.4byte	0x2d64
 9106 1a31 15       		.uleb128 0x15
 9107 1a32 7A0B0000 		.4byte	.LVL322
 9108 1a36 592D0000 		.4byte	0x2d59
 9109 1a3a 17       		.uleb128 0x17
 9110 1a3b D60B0000 		.4byte	.LVL323
 9111 1a3f 832C0000 		.4byte	0x2c83
 9112 1a43 531A0000 		.4byte	0x1a53
 9113 1a47 18       		.uleb128 0x18
 9114 1a48 01       		.uleb128 0x1
 9115 1a49 51       		.byte	0x51
 9116 1a4a 02       		.uleb128 0x2
 9117 1a4b 08       		.byte	0x8
 9118 1a4c 24       		.byte	0x24
 9119 1a4d 18       		.uleb128 0x18
 9120 1a4e 01       		.uleb128 0x1
 9121 1a4f 50       		.byte	0x50
 9122 1a50 01       		.uleb128 0x1
 9123 1a51 31       		.byte	0x31
 9124 1a52 00       		.byte	0
 9125 1a53 17       		.uleb128 0x17
 9126 1a54 F40B0000 		.4byte	.LVL324
 9127 1a58 832C0000 		.4byte	0x2c83
 9128 1a5c 6C1A0000 		.4byte	0x1a6c
 9129 1a60 18       		.uleb128 0x18
 9130 1a61 01       		.uleb128 0x1
 9131 1a62 51       		.byte	0x51
 9132 1a63 02       		.uleb128 0x2
ARM GAS  C:\Users\RECEPC~1\AppData\Local\Temp\cc79eMMA.s 			page 202


 9133 1a64 08       		.byte	0x8
 9134 1a65 24       		.byte	0x24
 9135 1a66 18       		.uleb128 0x18
 9136 1a67 01       		.uleb128 0x1
 9137 1a68 50       		.byte	0x50
 9138 1a69 01       		.uleb128 0x1
 9139 1a6a 31       		.byte	0x31
 9140 1a6b 00       		.byte	0
 9141 1a6c 17       		.uleb128 0x17
 9142 1a6d FE0B0000 		.4byte	.LVL325
 9143 1a71 832C0000 		.4byte	0x2c83
 9144 1a75 841A0000 		.4byte	0x1a84
 9145 1a79 18       		.uleb128 0x18
 9146 1a7a 01       		.uleb128 0x1
 9147 1a7b 51       		.byte	0x51
 9148 1a7c 01       		.uleb128 0x1
 9149 1a7d 31       		.byte	0x31
 9150 1a7e 18       		.uleb128 0x18
 9151 1a7f 01       		.uleb128 0x1
 9152 1a80 50       		.byte	0x50
 9153 1a81 01       		.uleb128 0x1
 9154 1a82 31       		.byte	0x31
 9155 1a83 00       		.byte	0
 9156 1a84 17       		.uleb128 0x17
 9157 1a85 0E0C0000 		.4byte	.LVL326
 9158 1a89 832C0000 		.4byte	0x2c83
 9159 1a8d 9C1A0000 		.4byte	0x1a9c
 9160 1a91 18       		.uleb128 0x18
 9161 1a92 01       		.uleb128 0x1
 9162 1a93 51       		.byte	0x51
 9163 1a94 01       		.uleb128 0x1
 9164 1a95 31       		.byte	0x31
 9165 1a96 18       		.uleb128 0x18
 9166 1a97 01       		.uleb128 0x1
 9167 1a98 50       		.byte	0x50
 9168 1a99 01       		.uleb128 0x1
 9169 1a9a 31       		.byte	0x31
 9170 1a9b 00       		.byte	0
 9171 1a9c 17       		.uleb128 0x17
 9172 1a9d 1A0C0000 		.4byte	.LVL327
 9173 1aa1 BA2C0000 		.4byte	0x2cba
 9174 1aa5 AF1A0000 		.4byte	0x1aaf
 9175 1aa9 18       		.uleb128 0x18
 9176 1aaa 01       		.uleb128 0x1
 9177 1aab 50       		.byte	0x50
 9178 1aac 01       		.uleb128 0x1
 9179 1aad 3A       		.byte	0x3a
 9180 1aae 00       		.byte	0
 9181 1aaf 15       		.uleb128 0x15
 9182 1ab0 1E0C0000 		.4byte	.LVL328
 9183 1ab4 642D0000 		.4byte	0x2d64
 9184 1ab8 17       		.uleb128 0x17
 9185 1ab9 2E0C0000 		.4byte	.LVL329
 9186 1abd 9A2D0000 		.4byte	0x2d9a
 9187 1ac1 CB1A0000 		.4byte	0x1acb
 9188 1ac5 18       		.uleb128 0x18
 9189 1ac6 01       		.uleb128 0x1
ARM GAS  C:\Users\RECEPC~1\AppData\Local\Temp\cc79eMMA.s 			page 203


 9190 1ac7 50       		.byte	0x50
 9191 1ac8 01       		.uleb128 0x1
 9192 1ac9 31       		.byte	0x31
 9193 1aca 00       		.byte	0
 9194 1acb 17       		.uleb128 0x17
 9195 1acc 6C0C0000 		.4byte	.LVL336
 9196 1ad0 832C0000 		.4byte	0x2c83
 9197 1ad4 E31A0000 		.4byte	0x1ae3
 9198 1ad8 18       		.uleb128 0x18
 9199 1ad9 01       		.uleb128 0x1
 9200 1ada 51       		.byte	0x51
 9201 1adb 01       		.uleb128 0x1
 9202 1adc 31       		.byte	0x31
 9203 1add 18       		.uleb128 0x18
 9204 1ade 01       		.uleb128 0x1
 9205 1adf 50       		.byte	0x50
 9206 1ae0 01       		.uleb128 0x1
 9207 1ae1 31       		.byte	0x31
 9208 1ae2 00       		.byte	0
 9209 1ae3 17       		.uleb128 0x17
 9210 1ae4 920C0000 		.4byte	.LVL343
 9211 1ae8 832C0000 		.4byte	0x2c83
 9212 1aec FB1A0000 		.4byte	0x1afb
 9213 1af0 18       		.uleb128 0x18
 9214 1af1 01       		.uleb128 0x1
 9215 1af2 51       		.byte	0x51
 9216 1af3 01       		.uleb128 0x1
 9217 1af4 31       		.byte	0x31
 9218 1af5 18       		.uleb128 0x18
 9219 1af6 01       		.uleb128 0x1
 9220 1af7 50       		.byte	0x50
 9221 1af8 01       		.uleb128 0x1
 9222 1af9 31       		.byte	0x31
 9223 1afa 00       		.byte	0
 9224 1afb 17       		.uleb128 0x17
 9225 1afc BC0C0000 		.4byte	.LVL350
 9226 1b00 832C0000 		.4byte	0x2c83
 9227 1b04 131B0000 		.4byte	0x1b13
 9228 1b08 18       		.uleb128 0x18
 9229 1b09 01       		.uleb128 0x1
 9230 1b0a 51       		.byte	0x51
 9231 1b0b 01       		.uleb128 0x1
 9232 1b0c 31       		.byte	0x31
 9233 1b0d 18       		.uleb128 0x18
 9234 1b0e 01       		.uleb128 0x1
 9235 1b0f 50       		.byte	0x50
 9236 1b10 01       		.uleb128 0x1
 9237 1b11 31       		.byte	0x31
 9238 1b12 00       		.byte	0
 9239 1b13 17       		.uleb128 0x17
 9240 1b14 E20C0000 		.4byte	.LVL357
 9241 1b18 832C0000 		.4byte	0x2c83
 9242 1b1c 2B1B0000 		.4byte	0x1b2b
 9243 1b20 18       		.uleb128 0x18
 9244 1b21 01       		.uleb128 0x1
 9245 1b22 51       		.byte	0x51
 9246 1b23 01       		.uleb128 0x1
ARM GAS  C:\Users\RECEPC~1\AppData\Local\Temp\cc79eMMA.s 			page 204


 9247 1b24 31       		.byte	0x31
 9248 1b25 18       		.uleb128 0x18
 9249 1b26 01       		.uleb128 0x1
 9250 1b27 50       		.byte	0x50
 9251 1b28 01       		.uleb128 0x1
 9252 1b29 31       		.byte	0x31
 9253 1b2a 00       		.byte	0
 9254 1b2b 15       		.uleb128 0x15
 9255 1b2c E60C0000 		.4byte	.LVL358
 9256 1b30 642D0000 		.4byte	0x2d64
 9257 1b34 17       		.uleb128 0x17
 9258 1b35 220D0000 		.4byte	.LVL364
 9259 1b39 A42E0000 		.4byte	0x2ea4
 9260 1b3d 4B1B0000 		.4byte	0x1b4b
 9261 1b41 18       		.uleb128 0x18
 9262 1b42 01       		.uleb128 0x1
 9263 1b43 50       		.byte	0x50
 9264 1b44 05       		.uleb128 0x5
 9265 1b45 03       		.byte	0x3
 9266 1b46 00000000 		.4byte	idStation
 9267 1b4a 00       		.byte	0
 9268 1b4b 17       		.uleb128 0x17
 9269 1b4c 3A0D0000 		.4byte	.LVL365
 9270 1b50 542C0000 		.4byte	0x2c54
 9271 1b54 5E1B0000 		.4byte	0x1b5e
 9272 1b58 18       		.uleb128 0x18
 9273 1b59 01       		.uleb128 0x1
 9274 1b5a 51       		.byte	0x51
 9275 1b5b 01       		.uleb128 0x1
 9276 1b5c 3A       		.byte	0x3a
 9277 1b5d 00       		.byte	0
 9278 1b5e 17       		.uleb128 0x17
 9279 1b5f 420D0000 		.4byte	.LVL366
 9280 1b63 542C0000 		.4byte	0x2c54
 9281 1b67 711B0000 		.4byte	0x1b71
 9282 1b6b 18       		.uleb128 0x18
 9283 1b6c 01       		.uleb128 0x1
 9284 1b6d 51       		.byte	0x51
 9285 1b6e 01       		.uleb128 0x1
 9286 1b6f 3B       		.byte	0x3b
 9287 1b70 00       		.byte	0
 9288 1b71 17       		.uleb128 0x17
 9289 1b72 500D0000 		.4byte	.LVL367
 9290 1b76 832C0000 		.4byte	0x2c83
 9291 1b7a 8A1B0000 		.4byte	0x1b8a
 9292 1b7e 18       		.uleb128 0x18
 9293 1b7f 01       		.uleb128 0x1
 9294 1b80 51       		.byte	0x51
 9295 1b81 02       		.uleb128 0x2
 9296 1b82 08       		.byte	0x8
 9297 1b83 5A       		.byte	0x5a
 9298 1b84 18       		.uleb128 0x18
 9299 1b85 01       		.uleb128 0x1
 9300 1b86 50       		.byte	0x50
 9301 1b87 01       		.uleb128 0x1
 9302 1b88 31       		.byte	0x31
 9303 1b89 00       		.byte	0
ARM GAS  C:\Users\RECEPC~1\AppData\Local\Temp\cc79eMMA.s 			page 205


 9304 1b8a 17       		.uleb128 0x17
 9305 1b8b 7C0D0000 		.4byte	.LVL374
 9306 1b8f 832C0000 		.4byte	0x2c83
 9307 1b93 A31B0000 		.4byte	0x1ba3
 9308 1b97 18       		.uleb128 0x18
 9309 1b98 01       		.uleb128 0x1
 9310 1b99 51       		.byte	0x51
 9311 1b9a 02       		.uleb128 0x2
 9312 1b9b 08       		.byte	0x8
 9313 1b9c 5A       		.byte	0x5a
 9314 1b9d 18       		.uleb128 0x18
 9315 1b9e 01       		.uleb128 0x1
 9316 1b9f 50       		.byte	0x50
 9317 1ba0 01       		.uleb128 0x1
 9318 1ba1 31       		.byte	0x31
 9319 1ba2 00       		.byte	0
 9320 1ba3 17       		.uleb128 0x17
 9321 1ba4 DE0D0000 		.4byte	.LVL381
 9322 1ba8 832C0000 		.4byte	0x2c83
 9323 1bac BC1B0000 		.4byte	0x1bbc
 9324 1bb0 18       		.uleb128 0x18
 9325 1bb1 01       		.uleb128 0x1
 9326 1bb2 51       		.byte	0x51
 9327 1bb3 02       		.uleb128 0x2
 9328 1bb4 08       		.byte	0x8
 9329 1bb5 5A       		.byte	0x5a
 9330 1bb6 18       		.uleb128 0x18
 9331 1bb7 01       		.uleb128 0x1
 9332 1bb8 50       		.byte	0x50
 9333 1bb9 01       		.uleb128 0x1
 9334 1bba 31       		.byte	0x31
 9335 1bbb 00       		.byte	0
 9336 1bbc 17       		.uleb128 0x17
 9337 1bbd 340E0000 		.4byte	.LVL388
 9338 1bc1 832C0000 		.4byte	0x2c83
 9339 1bc5 D51B0000 		.4byte	0x1bd5
 9340 1bc9 18       		.uleb128 0x18
 9341 1bca 01       		.uleb128 0x1
 9342 1bcb 51       		.byte	0x51
 9343 1bcc 02       		.uleb128 0x2
 9344 1bcd 08       		.byte	0x8
 9345 1bce 26       		.byte	0x26
 9346 1bcf 18       		.uleb128 0x18
 9347 1bd0 01       		.uleb128 0x1
 9348 1bd1 50       		.byte	0x50
 9349 1bd2 01       		.uleb128 0x1
 9350 1bd3 31       		.byte	0x31
 9351 1bd4 00       		.byte	0
 9352 1bd5 17       		.uleb128 0x17
 9353 1bd6 3C0E0000 		.4byte	.LVL389
 9354 1bda BA2C0000 		.4byte	0x2cba
 9355 1bde EA1B0000 		.4byte	0x1bea
 9356 1be2 18       		.uleb128 0x18
 9357 1be3 01       		.uleb128 0x1
 9358 1be4 50       		.byte	0x50
 9359 1be5 03       		.uleb128 0x3
 9360 1be6 0A       		.byte	0xa
ARM GAS  C:\Users\RECEPC~1\AppData\Local\Temp\cc79eMMA.s 			page 206


 9361 1be7 BC02     		.2byte	0x2bc
 9362 1be9 00       		.byte	0
 9363 1bea 17       		.uleb128 0x17
 9364 1beb 4A0E0000 		.4byte	.LVL390
 9365 1bef 832C0000 		.4byte	0x2c83
 9366 1bf3 031C0000 		.4byte	0x1c03
 9367 1bf7 18       		.uleb128 0x18
 9368 1bf8 01       		.uleb128 0x1
 9369 1bf9 51       		.byte	0x51
 9370 1bfa 02       		.uleb128 0x2
 9371 1bfb 08       		.byte	0x8
 9372 1bfc 5A       		.byte	0x5a
 9373 1bfd 18       		.uleb128 0x18
 9374 1bfe 01       		.uleb128 0x1
 9375 1bff 50       		.byte	0x50
 9376 1c00 01       		.uleb128 0x1
 9377 1c01 31       		.byte	0x31
 9378 1c02 00       		.byte	0
 9379 1c03 17       		.uleb128 0x17
 9380 1c04 540E0000 		.4byte	.LVL391
 9381 1c08 832C0000 		.4byte	0x2c83
 9382 1c0c 1C1C0000 		.4byte	0x1c1c
 9383 1c10 18       		.uleb128 0x18
 9384 1c11 01       		.uleb128 0x1
 9385 1c12 51       		.byte	0x51
 9386 1c13 02       		.uleb128 0x2
 9387 1c14 08       		.byte	0x8
 9388 1c15 27       		.byte	0x27
 9389 1c16 18       		.uleb128 0x18
 9390 1c17 01       		.uleb128 0x1
 9391 1c18 50       		.byte	0x50
 9392 1c19 01       		.uleb128 0x1
 9393 1c1a 31       		.byte	0x31
 9394 1c1b 00       		.byte	0
 9395 1c1c 17       		.uleb128 0x17
 9396 1c1d 5C0E0000 		.4byte	.LVL392
 9397 1c21 BA2C0000 		.4byte	0x2cba
 9398 1c25 311C0000 		.4byte	0x1c31
 9399 1c29 18       		.uleb128 0x18
 9400 1c2a 01       		.uleb128 0x1
 9401 1c2b 50       		.byte	0x50
 9402 1c2c 03       		.uleb128 0x3
 9403 1c2d 0A       		.byte	0xa
 9404 1c2e BC02     		.2byte	0x2bc
 9405 1c30 00       		.byte	0
 9406 1c31 17       		.uleb128 0x17
 9407 1c32 6A0E0000 		.4byte	.LVL393
 9408 1c36 832C0000 		.4byte	0x2c83
 9409 1c3a 491C0000 		.4byte	0x1c49
 9410 1c3e 18       		.uleb128 0x18
 9411 1c3f 01       		.uleb128 0x1
 9412 1c40 51       		.byte	0x51
 9413 1c41 01       		.uleb128 0x1
 9414 1c42 31       		.byte	0x31
 9415 1c43 18       		.uleb128 0x18
 9416 1c44 01       		.uleb128 0x1
 9417 1c45 50       		.byte	0x50
ARM GAS  C:\Users\RECEPC~1\AppData\Local\Temp\cc79eMMA.s 			page 207


 9418 1c46 01       		.uleb128 0x1
 9419 1c47 31       		.byte	0x31
 9420 1c48 00       		.byte	0
 9421 1c49 15       		.uleb128 0x15
 9422 1c4a 6E0E0000 		.4byte	.LVL394
 9423 1c4e 642D0000 		.4byte	0x2d64
 9424 1c52 15       		.uleb128 0x15
 9425 1c53 740E0000 		.4byte	.LVL395
 9426 1c57 592D0000 		.4byte	0x2d59
 9427 1c5b 17       		.uleb128 0x17
 9428 1c5c 0A0F0000 		.4byte	.LVL396
 9429 1c60 832C0000 		.4byte	0x2c83
 9430 1c64 731C0000 		.4byte	0x1c73
 9431 1c68 18       		.uleb128 0x18
 9432 1c69 01       		.uleb128 0x1
 9433 1c6a 51       		.byte	0x51
 9434 1c6b 01       		.uleb128 0x1
 9435 1c6c 36       		.byte	0x36
 9436 1c6d 18       		.uleb128 0x18
 9437 1c6e 01       		.uleb128 0x1
 9438 1c6f 50       		.byte	0x50
 9439 1c70 01       		.uleb128 0x1
 9440 1c71 31       		.byte	0x31
 9441 1c72 00       		.byte	0
 9442 1c73 15       		.uleb128 0x15
 9443 1c74 160F0000 		.4byte	.LVL397
 9444 1c78 BE0E0000 		.4byte	0xebe
 9445 1c7c 17       		.uleb128 0x17
 9446 1c7d 1E0F0000 		.4byte	.LVL398
 9447 1c81 832C0000 		.4byte	0x2c83
 9448 1c85 951C0000 		.4byte	0x1c95
 9449 1c89 18       		.uleb128 0x18
 9450 1c8a 01       		.uleb128 0x1
 9451 1c8b 51       		.byte	0x51
 9452 1c8c 02       		.uleb128 0x2
 9453 1c8d 08       		.byte	0x8
 9454 1c8e 6B       		.byte	0x6b
 9455 1c8f 18       		.uleb128 0x18
 9456 1c90 01       		.uleb128 0x1
 9457 1c91 50       		.byte	0x50
 9458 1c92 01       		.uleb128 0x1
 9459 1c93 31       		.byte	0x31
 9460 1c94 00       		.byte	0
 9461 1c95 17       		.uleb128 0x17
 9462 1c96 4A0F0000 		.4byte	.LVL399
 9463 1c9a 832C0000 		.4byte	0x2c83
 9464 1c9e AD1C0000 		.4byte	0x1cad
 9465 1ca2 18       		.uleb128 0x18
 9466 1ca3 01       		.uleb128 0x1
 9467 1ca4 51       		.byte	0x51
 9468 1ca5 01       		.uleb128 0x1
 9469 1ca6 36       		.byte	0x36
 9470 1ca7 18       		.uleb128 0x18
 9471 1ca8 01       		.uleb128 0x1
 9472 1ca9 50       		.byte	0x50
 9473 1caa 01       		.uleb128 0x1
 9474 1cab 31       		.byte	0x31
ARM GAS  C:\Users\RECEPC~1\AppData\Local\Temp\cc79eMMA.s 			page 208


 9475 1cac 00       		.byte	0
 9476 1cad 17       		.uleb128 0x17
 9477 1cae 680F0000 		.4byte	.LVL400
 9478 1cb2 832C0000 		.4byte	0x2c83
 9479 1cb6 C61C0000 		.4byte	0x1cc6
 9480 1cba 18       		.uleb128 0x18
 9481 1cbb 01       		.uleb128 0x1
 9482 1cbc 51       		.byte	0x51
 9483 1cbd 02       		.uleb128 0x2
 9484 1cbe 08       		.byte	0x8
 9485 1cbf 3E       		.byte	0x3e
 9486 1cc0 18       		.uleb128 0x18
 9487 1cc1 01       		.uleb128 0x1
 9488 1cc2 50       		.byte	0x50
 9489 1cc3 01       		.uleb128 0x1
 9490 1cc4 31       		.byte	0x31
 9491 1cc5 00       		.byte	0
 9492 1cc6 17       		.uleb128 0x17
 9493 1cc7 720F0000 		.4byte	.LVL401
 9494 1ccb 832C0000 		.4byte	0x2c83
 9495 1ccf DE1C0000 		.4byte	0x1cde
 9496 1cd3 18       		.uleb128 0x18
 9497 1cd4 01       		.uleb128 0x1
 9498 1cd5 51       		.byte	0x51
 9499 1cd6 01       		.uleb128 0x1
 9500 1cd7 31       		.byte	0x31
 9501 1cd8 18       		.uleb128 0x18
 9502 1cd9 01       		.uleb128 0x1
 9503 1cda 50       		.byte	0x50
 9504 1cdb 01       		.uleb128 0x1
 9505 1cdc 31       		.byte	0x31
 9506 1cdd 00       		.byte	0
 9507 1cde 17       		.uleb128 0x17
 9508 1cdf 820F0000 		.4byte	.LVL402
 9509 1ce3 832C0000 		.4byte	0x2c83
 9510 1ce7 F61C0000 		.4byte	0x1cf6
 9511 1ceb 18       		.uleb128 0x18
 9512 1cec 01       		.uleb128 0x1
 9513 1ced 51       		.byte	0x51
 9514 1cee 01       		.uleb128 0x1
 9515 1cef 31       		.byte	0x31
 9516 1cf0 18       		.uleb128 0x18
 9517 1cf1 01       		.uleb128 0x1
 9518 1cf2 50       		.byte	0x50
 9519 1cf3 01       		.uleb128 0x1
 9520 1cf4 31       		.byte	0x31
 9521 1cf5 00       		.byte	0
 9522 1cf6 17       		.uleb128 0x17
 9523 1cf7 8E0F0000 		.4byte	.LVL403
 9524 1cfb BA2C0000 		.4byte	0x2cba
 9525 1cff 091D0000 		.4byte	0x1d09
 9526 1d03 18       		.uleb128 0x18
 9527 1d04 01       		.uleb128 0x1
 9528 1d05 50       		.byte	0x50
 9529 1d06 01       		.uleb128 0x1
 9530 1d07 3A       		.byte	0x3a
 9531 1d08 00       		.byte	0
ARM GAS  C:\Users\RECEPC~1\AppData\Local\Temp\cc79eMMA.s 			page 209


 9532 1d09 15       		.uleb128 0x15
 9533 1d0a 920F0000 		.4byte	.LVL404
 9534 1d0e 642D0000 		.4byte	0x2d64
 9535 1d12 15       		.uleb128 0x15
 9536 1d13 980F0000 		.4byte	.LVL405
 9537 1d17 592D0000 		.4byte	0x2d59
 9538 1d1b 17       		.uleb128 0x17
 9539 1d1c E60F0000 		.4byte	.LVL406
 9540 1d20 832C0000 		.4byte	0x2c83
 9541 1d24 341D0000 		.4byte	0x1d34
 9542 1d28 18       		.uleb128 0x18
 9543 1d29 01       		.uleb128 0x1
 9544 1d2a 51       		.byte	0x51
 9545 1d2b 02       		.uleb128 0x2
 9546 1d2c 08       		.byte	0x8
 9547 1d2d 67       		.byte	0x67
 9548 1d2e 18       		.uleb128 0x18
 9549 1d2f 01       		.uleb128 0x1
 9550 1d30 50       		.byte	0x50
 9551 1d31 01       		.uleb128 0x1
 9552 1d32 31       		.byte	0x31
 9553 1d33 00       		.byte	0
 9554 1d34 17       		.uleb128 0x17
 9555 1d35 26100000 		.4byte	.LVL407
 9556 1d39 542C0000 		.4byte	0x2c54
 9557 1d3d 4D1D0000 		.4byte	0x1d4d
 9558 1d41 18       		.uleb128 0x18
 9559 1d42 01       		.uleb128 0x1
 9560 1d43 51       		.byte	0x51
 9561 1d44 01       		.uleb128 0x1
 9562 1d45 38       		.byte	0x38
 9563 1d46 18       		.uleb128 0x18
 9564 1d47 01       		.uleb128 0x1
 9565 1d48 50       		.byte	0x50
 9566 1d49 02       		.uleb128 0x2
 9567 1d4a 74       		.byte	0x74
 9568 1d4b 00       		.sleb128 0
 9569 1d4c 00       		.byte	0
 9570 1d4d 17       		.uleb128 0x17
 9571 1d4e 2E100000 		.4byte	.LVL408
 9572 1d52 542C0000 		.4byte	0x2c54
 9573 1d56 601D0000 		.4byte	0x1d60
 9574 1d5a 18       		.uleb128 0x18
 9575 1d5b 01       		.uleb128 0x1
 9576 1d5c 51       		.byte	0x51
 9577 1d5d 01       		.uleb128 0x1
 9578 1d5e 39       		.byte	0x39
 9579 1d5f 00       		.byte	0
 9580 1d60 17       		.uleb128 0x17
 9581 1d61 36100000 		.4byte	.LVL409
 9582 1d65 832C0000 		.4byte	0x2c83
 9583 1d69 7A1D0000 		.4byte	0x1d7a
 9584 1d6d 18       		.uleb128 0x18
 9585 1d6e 01       		.uleb128 0x1
 9586 1d6f 51       		.byte	0x51
 9587 1d70 02       		.uleb128 0x2
 9588 1d71 08       		.byte	0x8
ARM GAS  C:\Users\RECEPC~1\AppData\Local\Temp\cc79eMMA.s 			page 210


 9589 1d72 5A       		.byte	0x5a
 9590 1d73 18       		.uleb128 0x18
 9591 1d74 01       		.uleb128 0x1
 9592 1d75 50       		.byte	0x50
 9593 1d76 02       		.uleb128 0x2
 9594 1d77 74       		.byte	0x74
 9595 1d78 00       		.sleb128 0
 9596 1d79 00       		.byte	0
 9597 1d7a 17       		.uleb128 0x17
 9598 1d7b 40100000 		.4byte	.LVL410
 9599 1d7f 832C0000 		.4byte	0x2c83
 9600 1d83 921D0000 		.4byte	0x1d92
 9601 1d87 18       		.uleb128 0x18
 9602 1d88 01       		.uleb128 0x1
 9603 1d89 51       		.byte	0x51
 9604 1d8a 01       		.uleb128 0x1
 9605 1d8b 31       		.byte	0x31
 9606 1d8c 18       		.uleb128 0x18
 9607 1d8d 01       		.uleb128 0x1
 9608 1d8e 50       		.byte	0x50
 9609 1d8f 01       		.uleb128 0x1
 9610 1d90 31       		.byte	0x31
 9611 1d91 00       		.byte	0
 9612 1d92 17       		.uleb128 0x17
 9613 1d93 50100000 		.4byte	.LVL411
 9614 1d97 832C0000 		.4byte	0x2c83
 9615 1d9b AA1D0000 		.4byte	0x1daa
 9616 1d9f 18       		.uleb128 0x18
 9617 1da0 01       		.uleb128 0x1
 9618 1da1 51       		.byte	0x51
 9619 1da2 01       		.uleb128 0x1
 9620 1da3 31       		.byte	0x31
 9621 1da4 18       		.uleb128 0x18
 9622 1da5 01       		.uleb128 0x1
 9623 1da6 50       		.byte	0x50
 9624 1da7 01       		.uleb128 0x1
 9625 1da8 31       		.byte	0x31
 9626 1da9 00       		.byte	0
 9627 1daa 17       		.uleb128 0x17
 9628 1dab 5C100000 		.4byte	.LVL412
 9629 1daf BA2C0000 		.4byte	0x2cba
 9630 1db3 BD1D0000 		.4byte	0x1dbd
 9631 1db7 18       		.uleb128 0x18
 9632 1db8 01       		.uleb128 0x1
 9633 1db9 50       		.byte	0x50
 9634 1dba 01       		.uleb128 0x1
 9635 1dbb 3A       		.byte	0x3a
 9636 1dbc 00       		.byte	0
 9637 1dbd 15       		.uleb128 0x15
 9638 1dbe 60100000 		.4byte	.LVL413
 9639 1dc2 642D0000 		.4byte	0x2d64
 9640 1dc6 15       		.uleb128 0x15
 9641 1dc7 66100000 		.4byte	.LVL414
 9642 1dcb 592D0000 		.4byte	0x2d59
 9643 1dcf 17       		.uleb128 0x17
 9644 1dd0 C6100000 		.4byte	.LVL415
 9645 1dd4 542C0000 		.4byte	0x2c54
ARM GAS  C:\Users\RECEPC~1\AppData\Local\Temp\cc79eMMA.s 			page 211


 9646 1dd8 E71D0000 		.4byte	0x1de7
 9647 1ddc 18       		.uleb128 0x18
 9648 1ddd 01       		.uleb128 0x1
 9649 1dde 51       		.byte	0x51
 9650 1ddf 01       		.uleb128 0x1
 9651 1de0 38       		.byte	0x38
 9652 1de1 18       		.uleb128 0x18
 9653 1de2 01       		.uleb128 0x1
 9654 1de3 50       		.byte	0x50
 9655 1de4 01       		.uleb128 0x1
 9656 1de5 32       		.byte	0x32
 9657 1de6 00       		.byte	0
 9658 1de7 17       		.uleb128 0x17
 9659 1de8 CE100000 		.4byte	.LVL416
 9660 1dec 542C0000 		.4byte	0x2c54
 9661 1df0 FA1D0000 		.4byte	0x1dfa
 9662 1df4 18       		.uleb128 0x18
 9663 1df5 01       		.uleb128 0x1
 9664 1df6 51       		.byte	0x51
 9665 1df7 01       		.uleb128 0x1
 9666 1df8 39       		.byte	0x39
 9667 1df9 00       		.byte	0
 9668 1dfa 17       		.uleb128 0x17
 9669 1dfb D6100000 		.4byte	.LVL417
 9670 1dff 832C0000 		.4byte	0x2c83
 9671 1e03 131E0000 		.4byte	0x1e13
 9672 1e07 18       		.uleb128 0x18
 9673 1e08 01       		.uleb128 0x1
 9674 1e09 51       		.byte	0x51
 9675 1e0a 02       		.uleb128 0x2
 9676 1e0b 08       		.byte	0x8
 9677 1e0c 5A       		.byte	0x5a
 9678 1e0d 18       		.uleb128 0x18
 9679 1e0e 01       		.uleb128 0x1
 9680 1e0f 50       		.byte	0x50
 9681 1e10 01       		.uleb128 0x1
 9682 1e11 31       		.byte	0x31
 9683 1e12 00       		.byte	0
 9684 1e13 17       		.uleb128 0x17
 9685 1e14 F0100000 		.4byte	.LVL418
 9686 1e18 542C0000 		.4byte	0x2c54
 9687 1e1c 2C1E0000 		.4byte	0x1e2c
 9688 1e20 18       		.uleb128 0x18
 9689 1e21 01       		.uleb128 0x1
 9690 1e22 51       		.byte	0x51
 9691 1e23 01       		.uleb128 0x1
 9692 1e24 38       		.byte	0x38
 9693 1e25 18       		.uleb128 0x18
 9694 1e26 01       		.uleb128 0x1
 9695 1e27 50       		.byte	0x50
 9696 1e28 02       		.uleb128 0x2
 9697 1e29 74       		.byte	0x74
 9698 1e2a 00       		.sleb128 0
 9699 1e2b 00       		.byte	0
 9700 1e2c 17       		.uleb128 0x17
 9701 1e2d F8100000 		.4byte	.LVL419
 9702 1e31 542C0000 		.4byte	0x2c54
ARM GAS  C:\Users\RECEPC~1\AppData\Local\Temp\cc79eMMA.s 			page 212


 9703 1e35 3F1E0000 		.4byte	0x1e3f
 9704 1e39 18       		.uleb128 0x18
 9705 1e3a 01       		.uleb128 0x1
 9706 1e3b 51       		.byte	0x51
 9707 1e3c 01       		.uleb128 0x1
 9708 1e3d 39       		.byte	0x39
 9709 1e3e 00       		.byte	0
 9710 1e3f 17       		.uleb128 0x17
 9711 1e40 00110000 		.4byte	.LVL420
 9712 1e44 832C0000 		.4byte	0x2c83
 9713 1e48 591E0000 		.4byte	0x1e59
 9714 1e4c 18       		.uleb128 0x18
 9715 1e4d 01       		.uleb128 0x1
 9716 1e4e 51       		.byte	0x51
 9717 1e4f 02       		.uleb128 0x2
 9718 1e50 08       		.byte	0x8
 9719 1e51 5A       		.byte	0x5a
 9720 1e52 18       		.uleb128 0x18
 9721 1e53 01       		.uleb128 0x1
 9722 1e54 50       		.byte	0x50
 9723 1e55 02       		.uleb128 0x2
 9724 1e56 74       		.byte	0x74
 9725 1e57 00       		.sleb128 0
 9726 1e58 00       		.byte	0
 9727 1e59 17       		.uleb128 0x17
 9728 1e5a 18110000 		.4byte	.LVL421
 9729 1e5e 542C0000 		.4byte	0x2c54
 9730 1e62 711E0000 		.4byte	0x1e71
 9731 1e66 18       		.uleb128 0x18
 9732 1e67 01       		.uleb128 0x1
 9733 1e68 51       		.byte	0x51
 9734 1e69 01       		.uleb128 0x1
 9735 1e6a 38       		.byte	0x38
 9736 1e6b 18       		.uleb128 0x18
 9737 1e6c 01       		.uleb128 0x1
 9738 1e6d 50       		.byte	0x50
 9739 1e6e 01       		.uleb128 0x1
 9740 1e6f 30       		.byte	0x30
 9741 1e70 00       		.byte	0
 9742 1e71 17       		.uleb128 0x17
 9743 1e72 20110000 		.4byte	.LVL422
 9744 1e76 542C0000 		.4byte	0x2c54
 9745 1e7a 841E0000 		.4byte	0x1e84
 9746 1e7e 18       		.uleb128 0x18
 9747 1e7f 01       		.uleb128 0x1
 9748 1e80 51       		.byte	0x51
 9749 1e81 01       		.uleb128 0x1
 9750 1e82 39       		.byte	0x39
 9751 1e83 00       		.byte	0
 9752 1e84 17       		.uleb128 0x17
 9753 1e85 28110000 		.4byte	.LVL423
 9754 1e89 832C0000 		.4byte	0x2c83
 9755 1e8d 9D1E0000 		.4byte	0x1e9d
 9756 1e91 18       		.uleb128 0x18
 9757 1e92 01       		.uleb128 0x1
 9758 1e93 51       		.byte	0x51
 9759 1e94 02       		.uleb128 0x2
ARM GAS  C:\Users\RECEPC~1\AppData\Local\Temp\cc79eMMA.s 			page 213


 9760 1e95 08       		.byte	0x8
 9761 1e96 5A       		.byte	0x5a
 9762 1e97 18       		.uleb128 0x18
 9763 1e98 01       		.uleb128 0x1
 9764 1e99 50       		.byte	0x50
 9765 1e9a 01       		.uleb128 0x1
 9766 1e9b 31       		.byte	0x31
 9767 1e9c 00       		.byte	0
 9768 1e9d 17       		.uleb128 0x17
 9769 1e9e 32110000 		.4byte	.LVL424
 9770 1ea2 832C0000 		.4byte	0x2c83
 9771 1ea6 B51E0000 		.4byte	0x1eb5
 9772 1eaa 18       		.uleb128 0x18
 9773 1eab 01       		.uleb128 0x1
 9774 1eac 51       		.byte	0x51
 9775 1ead 01       		.uleb128 0x1
 9776 1eae 31       		.byte	0x31
 9777 1eaf 18       		.uleb128 0x18
 9778 1eb0 01       		.uleb128 0x1
 9779 1eb1 50       		.byte	0x50
 9780 1eb2 01       		.uleb128 0x1
 9781 1eb3 31       		.byte	0x31
 9782 1eb4 00       		.byte	0
 9783 1eb5 17       		.uleb128 0x17
 9784 1eb6 42110000 		.4byte	.LVL425
 9785 1eba 832C0000 		.4byte	0x2c83
 9786 1ebe CD1E0000 		.4byte	0x1ecd
 9787 1ec2 18       		.uleb128 0x18
 9788 1ec3 01       		.uleb128 0x1
 9789 1ec4 51       		.byte	0x51
 9790 1ec5 01       		.uleb128 0x1
 9791 1ec6 31       		.byte	0x31
 9792 1ec7 18       		.uleb128 0x18
 9793 1ec8 01       		.uleb128 0x1
 9794 1ec9 50       		.byte	0x50
 9795 1eca 01       		.uleb128 0x1
 9796 1ecb 31       		.byte	0x31
 9797 1ecc 00       		.byte	0
 9798 1ecd 17       		.uleb128 0x17
 9799 1ece 4E110000 		.4byte	.LVL426
 9800 1ed2 BA2C0000 		.4byte	0x2cba
 9801 1ed6 E01E0000 		.4byte	0x1ee0
 9802 1eda 18       		.uleb128 0x18
 9803 1edb 01       		.uleb128 0x1
 9804 1edc 50       		.byte	0x50
 9805 1edd 01       		.uleb128 0x1
 9806 1ede 3A       		.byte	0x3a
 9807 1edf 00       		.byte	0
 9808 1ee0 15       		.uleb128 0x15
 9809 1ee1 52110000 		.4byte	.LVL427
 9810 1ee5 642D0000 		.4byte	0x2d64
 9811 1ee9 15       		.uleb128 0x15
 9812 1eea 68110000 		.4byte	.LVL428
 9813 1eee B92E0000 		.4byte	0x2eb9
 9814 1ef2 17       		.uleb128 0x17
 9815 1ef3 8E110000 		.4byte	.LVL429
 9816 1ef7 6B2D0000 		.4byte	0x2d6b
ARM GAS  C:\Users\RECEPC~1\AppData\Local\Temp\cc79eMMA.s 			page 214


 9817 1efb 251F0000 		.4byte	0x1f25
 9818 1eff 18       		.uleb128 0x18
 9819 1f00 01       		.uleb128 0x1
 9820 1f01 53       		.byte	0x53
 9821 1f02 01       		.uleb128 0x1
 9822 1f03 38       		.byte	0x38
 9823 1f04 18       		.uleb128 0x18
 9824 1f05 01       		.uleb128 0x1
 9825 1f06 52       		.byte	0x52
 9826 1f07 01       		.uleb128 0x1
 9827 1f08 3D       		.byte	0x3d
 9828 1f09 18       		.uleb128 0x18
 9829 1f0a 01       		.uleb128 0x1
 9830 1f0b 50       		.byte	0x50
 9831 1f0c 02       		.uleb128 0x2
 9832 1f0d 74       		.byte	0x74
 9833 1f0e 00       		.sleb128 0
 9834 1f0f 18       		.uleb128 0x18
 9835 1f10 02       		.uleb128 0x2
 9836 1f11 7D       		.byte	0x7d
 9837 1f12 08       		.sleb128 8
 9838 1f13 02       		.uleb128 0x2
 9839 1f14 75       		.byte	0x75
 9840 1f15 00       		.sleb128 0
 9841 1f16 18       		.uleb128 0x18
 9842 1f17 02       		.uleb128 0x2
 9843 1f18 7D       		.byte	0x7d
 9844 1f19 04       		.sleb128 4
 9845 1f1a 02       		.uleb128 0x2
 9846 1f1b 76       		.byte	0x76
 9847 1f1c 00       		.sleb128 0
 9848 1f1d 18       		.uleb128 0x18
 9849 1f1e 02       		.uleb128 0x2
 9850 1f1f 7D       		.byte	0x7d
 9851 1f20 00       		.sleb128 0
 9852 1f21 02       		.uleb128 0x2
 9853 1f22 74       		.byte	0x74
 9854 1f23 00       		.sleb128 0
 9855 1f24 00       		.byte	0
 9856 1f25 17       		.uleb128 0x17
 9857 1f26 A6110000 		.4byte	.LVL430
 9858 1f2a 6B2D0000 		.4byte	0x2d6b
 9859 1f2e 581F0000 		.4byte	0x1f58
 9860 1f32 18       		.uleb128 0x18
 9861 1f33 01       		.uleb128 0x1
 9862 1f34 53       		.byte	0x53
 9863 1f35 01       		.uleb128 0x1
 9864 1f36 39       		.byte	0x39
 9865 1f37 18       		.uleb128 0x18
 9866 1f38 01       		.uleb128 0x1
 9867 1f39 52       		.byte	0x52
 9868 1f3a 01       		.uleb128 0x1
 9869 1f3b 3D       		.byte	0x3d
 9870 1f3c 18       		.uleb128 0x18
 9871 1f3d 01       		.uleb128 0x1
 9872 1f3e 50       		.byte	0x50
 9873 1f3f 02       		.uleb128 0x2
ARM GAS  C:\Users\RECEPC~1\AppData\Local\Temp\cc79eMMA.s 			page 215


 9874 1f40 74       		.byte	0x74
 9875 1f41 00       		.sleb128 0
 9876 1f42 18       		.uleb128 0x18
 9877 1f43 02       		.uleb128 0x2
 9878 1f44 7D       		.byte	0x7d
 9879 1f45 08       		.sleb128 8
 9880 1f46 02       		.uleb128 0x2
 9881 1f47 75       		.byte	0x75
 9882 1f48 00       		.sleb128 0
 9883 1f49 18       		.uleb128 0x18
 9884 1f4a 02       		.uleb128 0x2
 9885 1f4b 7D       		.byte	0x7d
 9886 1f4c 04       		.sleb128 4
 9887 1f4d 02       		.uleb128 0x2
 9888 1f4e 76       		.byte	0x76
 9889 1f4f 00       		.sleb128 0
 9890 1f50 18       		.uleb128 0x18
 9891 1f51 02       		.uleb128 0x2
 9892 1f52 7D       		.byte	0x7d
 9893 1f53 00       		.sleb128 0
 9894 1f54 02       		.uleb128 0x2
 9895 1f55 74       		.byte	0x74
 9896 1f56 00       		.sleb128 0
 9897 1f57 00       		.byte	0
 9898 1f58 17       		.uleb128 0x17
 9899 1f59 B8110000 		.4byte	.LVL431
 9900 1f5d 6B2D0000 		.4byte	0x2d6b
 9901 1f61 911F0000 		.4byte	0x1f91
 9902 1f65 18       		.uleb128 0x18
 9903 1f66 01       		.uleb128 0x1
 9904 1f67 53       		.byte	0x53
 9905 1f68 01       		.uleb128 0x1
 9906 1f69 3A       		.byte	0x3a
 9907 1f6a 18       		.uleb128 0x18
 9908 1f6b 01       		.uleb128 0x1
 9909 1f6c 52       		.byte	0x52
 9910 1f6d 01       		.uleb128 0x1
 9911 1f6e 3D       		.byte	0x3d
 9912 1f6f 18       		.uleb128 0x18
 9913 1f70 01       		.uleb128 0x1
 9914 1f71 51       		.byte	0x51
 9915 1f72 02       		.uleb128 0x2
 9916 1f73 08       		.byte	0x8
 9917 1f74 3A       		.byte	0x3a
 9918 1f75 18       		.uleb128 0x18
 9919 1f76 01       		.uleb128 0x1
 9920 1f77 50       		.byte	0x50
 9921 1f78 02       		.uleb128 0x2
 9922 1f79 74       		.byte	0x74
 9923 1f7a 00       		.sleb128 0
 9924 1f7b 18       		.uleb128 0x18
 9925 1f7c 02       		.uleb128 0x2
 9926 1f7d 7D       		.byte	0x7d
 9927 1f7e 08       		.sleb128 8
 9928 1f7f 02       		.uleb128 0x2
 9929 1f80 75       		.byte	0x75
 9930 1f81 00       		.sleb128 0
ARM GAS  C:\Users\RECEPC~1\AppData\Local\Temp\cc79eMMA.s 			page 216


 9931 1f82 18       		.uleb128 0x18
 9932 1f83 02       		.uleb128 0x2
 9933 1f84 7D       		.byte	0x7d
 9934 1f85 04       		.sleb128 4
 9935 1f86 02       		.uleb128 0x2
 9936 1f87 76       		.byte	0x76
 9937 1f88 00       		.sleb128 0
 9938 1f89 18       		.uleb128 0x18
 9939 1f8a 02       		.uleb128 0x2
 9940 1f8b 7D       		.byte	0x7d
 9941 1f8c 00       		.sleb128 0
 9942 1f8d 02       		.uleb128 0x2
 9943 1f8e 74       		.byte	0x74
 9944 1f8f 00       		.sleb128 0
 9945 1f90 00       		.byte	0
 9946 1f91 17       		.uleb128 0x17
 9947 1f92 CE110000 		.4byte	.LVL432
 9948 1f96 6B2D0000 		.4byte	0x2d6b
 9949 1f9a C41F0000 		.4byte	0x1fc4
 9950 1f9e 18       		.uleb128 0x18
 9951 1f9f 01       		.uleb128 0x1
 9952 1fa0 53       		.byte	0x53
 9953 1fa1 01       		.uleb128 0x1
 9954 1fa2 3B       		.byte	0x3b
 9955 1fa3 18       		.uleb128 0x18
 9956 1fa4 01       		.uleb128 0x1
 9957 1fa5 52       		.byte	0x52
 9958 1fa6 01       		.uleb128 0x1
 9959 1fa7 3D       		.byte	0x3d
 9960 1fa8 18       		.uleb128 0x18
 9961 1fa9 01       		.uleb128 0x1
 9962 1faa 50       		.byte	0x50
 9963 1fab 02       		.uleb128 0x2
 9964 1fac 74       		.byte	0x74
 9965 1fad 00       		.sleb128 0
 9966 1fae 18       		.uleb128 0x18
 9967 1faf 02       		.uleb128 0x2
 9968 1fb0 7D       		.byte	0x7d
 9969 1fb1 08       		.sleb128 8
 9970 1fb2 02       		.uleb128 0x2
 9971 1fb3 75       		.byte	0x75
 9972 1fb4 00       		.sleb128 0
 9973 1fb5 18       		.uleb128 0x18
 9974 1fb6 02       		.uleb128 0x2
 9975 1fb7 7D       		.byte	0x7d
 9976 1fb8 04       		.sleb128 4
 9977 1fb9 02       		.uleb128 0x2
 9978 1fba 76       		.byte	0x76
 9979 1fbb 00       		.sleb128 0
 9980 1fbc 18       		.uleb128 0x18
 9981 1fbd 02       		.uleb128 0x2
 9982 1fbe 7D       		.byte	0x7d
 9983 1fbf 00       		.sleb128 0
 9984 1fc0 02       		.uleb128 0x2
 9985 1fc1 74       		.byte	0x74
 9986 1fc2 00       		.sleb128 0
 9987 1fc3 00       		.byte	0
ARM GAS  C:\Users\RECEPC~1\AppData\Local\Temp\cc79eMMA.s 			page 217


 9988 1fc4 17       		.uleb128 0x17
 9989 1fc5 E6110000 		.4byte	.LVL433
 9990 1fc9 6B2D0000 		.4byte	0x2d6b
 9991 1fcd F71F0000 		.4byte	0x1ff7
 9992 1fd1 18       		.uleb128 0x18
 9993 1fd2 01       		.uleb128 0x1
 9994 1fd3 53       		.byte	0x53
 9995 1fd4 01       		.uleb128 0x1
 9996 1fd5 3C       		.byte	0x3c
 9997 1fd6 18       		.uleb128 0x18
 9998 1fd7 01       		.uleb128 0x1
 9999 1fd8 52       		.byte	0x52
 10000 1fd9 01       		.uleb128 0x1
 10001 1fda 3D       		.byte	0x3d
 10002 1fdb 18       		.uleb128 0x18
 10003 1fdc 01       		.uleb128 0x1
 10004 1fdd 50       		.byte	0x50
 10005 1fde 02       		.uleb128 0x2
 10006 1fdf 74       		.byte	0x74
 10007 1fe0 00       		.sleb128 0
 10008 1fe1 18       		.uleb128 0x18
 10009 1fe2 02       		.uleb128 0x2
 10010 1fe3 7D       		.byte	0x7d
 10011 1fe4 08       		.sleb128 8
 10012 1fe5 02       		.uleb128 0x2
 10013 1fe6 75       		.byte	0x75
 10014 1fe7 00       		.sleb128 0
 10015 1fe8 18       		.uleb128 0x18
 10016 1fe9 02       		.uleb128 0x2
 10017 1fea 7D       		.byte	0x7d
 10018 1feb 04       		.sleb128 4
 10019 1fec 02       		.uleb128 0x2
 10020 1fed 76       		.byte	0x76
 10021 1fee 00       		.sleb128 0
 10022 1fef 18       		.uleb128 0x18
 10023 1ff0 02       		.uleb128 0x2
 10024 1ff1 7D       		.byte	0x7d
 10025 1ff2 00       		.sleb128 0
 10026 1ff3 02       		.uleb128 0x2
 10027 1ff4 74       		.byte	0x74
 10028 1ff5 00       		.sleb128 0
 10029 1ff6 00       		.byte	0
 10030 1ff7 15       		.uleb128 0x15
 10031 1ff8 EA110000 		.4byte	.LVL434
 10032 1ffc CA2E0000 		.4byte	0x2eca
 10033 2000 17       		.uleb128 0x17
 10034 2001 0E120000 		.4byte	.LVL435
 10035 2005 6B2D0000 		.4byte	0x2d6b
 10036 2009 33200000 		.4byte	0x2033
 10037 200d 18       		.uleb128 0x18
 10038 200e 01       		.uleb128 0x1
 10039 200f 53       		.byte	0x53
 10040 2010 01       		.uleb128 0x1
 10041 2011 38       		.byte	0x38
 10042 2012 18       		.uleb128 0x18
 10043 2013 01       		.uleb128 0x1
 10044 2014 52       		.byte	0x52
ARM GAS  C:\Users\RECEPC~1\AppData\Local\Temp\cc79eMMA.s 			page 218


 10045 2015 01       		.uleb128 0x1
 10046 2016 45       		.byte	0x45
 10047 2017 18       		.uleb128 0x18
 10048 2018 01       		.uleb128 0x1
 10049 2019 50       		.byte	0x50
 10050 201a 02       		.uleb128 0x2
 10051 201b 74       		.byte	0x74
 10052 201c 00       		.sleb128 0
 10053 201d 18       		.uleb128 0x18
 10054 201e 02       		.uleb128 0x2
 10055 201f 7D       		.byte	0x7d
 10056 2020 08       		.sleb128 8
 10057 2021 02       		.uleb128 0x2
 10058 2022 75       		.byte	0x75
 10059 2023 00       		.sleb128 0
 10060 2024 18       		.uleb128 0x18
 10061 2025 02       		.uleb128 0x2
 10062 2026 7D       		.byte	0x7d
 10063 2027 04       		.sleb128 4
 10064 2028 02       		.uleb128 0x2
 10065 2029 76       		.byte	0x76
 10066 202a 00       		.sleb128 0
 10067 202b 18       		.uleb128 0x18
 10068 202c 02       		.uleb128 0x2
 10069 202d 7D       		.byte	0x7d
 10070 202e 00       		.sleb128 0
 10071 202f 02       		.uleb128 0x2
 10072 2030 74       		.byte	0x74
 10073 2031 00       		.sleb128 0
 10074 2032 00       		.byte	0
 10075 2033 17       		.uleb128 0x17
 10076 2034 26120000 		.4byte	.LVL436
 10077 2038 6B2D0000 		.4byte	0x2d6b
 10078 203c 66200000 		.4byte	0x2066
 10079 2040 18       		.uleb128 0x18
 10080 2041 01       		.uleb128 0x1
 10081 2042 53       		.byte	0x53
 10082 2043 01       		.uleb128 0x1
 10083 2044 39       		.byte	0x39
 10084 2045 18       		.uleb128 0x18
 10085 2046 01       		.uleb128 0x1
 10086 2047 52       		.byte	0x52
 10087 2048 01       		.uleb128 0x1
 10088 2049 45       		.byte	0x45
 10089 204a 18       		.uleb128 0x18
 10090 204b 01       		.uleb128 0x1
 10091 204c 50       		.byte	0x50
 10092 204d 02       		.uleb128 0x2
 10093 204e 74       		.byte	0x74
 10094 204f 00       		.sleb128 0
 10095 2050 18       		.uleb128 0x18
 10096 2051 02       		.uleb128 0x2
 10097 2052 7D       		.byte	0x7d
 10098 2053 08       		.sleb128 8
 10099 2054 02       		.uleb128 0x2
 10100 2055 75       		.byte	0x75
 10101 2056 00       		.sleb128 0
ARM GAS  C:\Users\RECEPC~1\AppData\Local\Temp\cc79eMMA.s 			page 219


 10102 2057 18       		.uleb128 0x18
 10103 2058 02       		.uleb128 0x2
 10104 2059 7D       		.byte	0x7d
 10105 205a 04       		.sleb128 4
 10106 205b 02       		.uleb128 0x2
 10107 205c 76       		.byte	0x76
 10108 205d 00       		.sleb128 0
 10109 205e 18       		.uleb128 0x18
 10110 205f 02       		.uleb128 0x2
 10111 2060 7D       		.byte	0x7d
 10112 2061 00       		.sleb128 0
 10113 2062 02       		.uleb128 0x2
 10114 2063 74       		.byte	0x74
 10115 2064 00       		.sleb128 0
 10116 2065 00       		.byte	0
 10117 2066 17       		.uleb128 0x17
 10118 2067 38120000 		.4byte	.LVL437
 10119 206b 6B2D0000 		.4byte	0x2d6b
 10120 206f 9F200000 		.4byte	0x209f
 10121 2073 18       		.uleb128 0x18
 10122 2074 01       		.uleb128 0x1
 10123 2075 53       		.byte	0x53
 10124 2076 01       		.uleb128 0x1
 10125 2077 3A       		.byte	0x3a
 10126 2078 18       		.uleb128 0x18
 10127 2079 01       		.uleb128 0x1
 10128 207a 52       		.byte	0x52
 10129 207b 01       		.uleb128 0x1
 10130 207c 45       		.byte	0x45
 10131 207d 18       		.uleb128 0x18
 10132 207e 01       		.uleb128 0x1
 10133 207f 51       		.byte	0x51
 10134 2080 02       		.uleb128 0x2
 10135 2081 08       		.byte	0x8
 10136 2082 2F       		.byte	0x2f
 10137 2083 18       		.uleb128 0x18
 10138 2084 01       		.uleb128 0x1
 10139 2085 50       		.byte	0x50
 10140 2086 02       		.uleb128 0x2
 10141 2087 74       		.byte	0x74
 10142 2088 00       		.sleb128 0
 10143 2089 18       		.uleb128 0x18
 10144 208a 02       		.uleb128 0x2
 10145 208b 7D       		.byte	0x7d
 10146 208c 08       		.sleb128 8
 10147 208d 02       		.uleb128 0x2
 10148 208e 75       		.byte	0x75
 10149 208f 00       		.sleb128 0
 10150 2090 18       		.uleb128 0x18
 10151 2091 02       		.uleb128 0x2
 10152 2092 7D       		.byte	0x7d
 10153 2093 04       		.sleb128 4
 10154 2094 02       		.uleb128 0x2
 10155 2095 76       		.byte	0x76
 10156 2096 00       		.sleb128 0
 10157 2097 18       		.uleb128 0x18
 10158 2098 02       		.uleb128 0x2
ARM GAS  C:\Users\RECEPC~1\AppData\Local\Temp\cc79eMMA.s 			page 220


 10159 2099 7D       		.byte	0x7d
 10160 209a 00       		.sleb128 0
 10161 209b 02       		.uleb128 0x2
 10162 209c 74       		.byte	0x74
 10163 209d 00       		.sleb128 0
 10164 209e 00       		.byte	0
 10165 209f 17       		.uleb128 0x17
 10166 20a0 52120000 		.4byte	.LVL438
 10167 20a4 6B2D0000 		.4byte	0x2d6b
 10168 20a8 D2200000 		.4byte	0x20d2
 10169 20ac 18       		.uleb128 0x18
 10170 20ad 01       		.uleb128 0x1
 10171 20ae 53       		.byte	0x53
 10172 20af 01       		.uleb128 0x1
 10173 20b0 3B       		.byte	0x3b
 10174 20b1 18       		.uleb128 0x18
 10175 20b2 01       		.uleb128 0x1
 10176 20b3 52       		.byte	0x52
 10177 20b4 01       		.uleb128 0x1
 10178 20b5 45       		.byte	0x45
 10179 20b6 18       		.uleb128 0x18
 10180 20b7 01       		.uleb128 0x1
 10181 20b8 50       		.byte	0x50
 10182 20b9 02       		.uleb128 0x2
 10183 20ba 74       		.byte	0x74
 10184 20bb 00       		.sleb128 0
 10185 20bc 18       		.uleb128 0x18
 10186 20bd 02       		.uleb128 0x2
 10187 20be 7D       		.byte	0x7d
 10188 20bf 08       		.sleb128 8
 10189 20c0 02       		.uleb128 0x2
 10190 20c1 75       		.byte	0x75
 10191 20c2 00       		.sleb128 0
 10192 20c3 18       		.uleb128 0x18
 10193 20c4 02       		.uleb128 0x2
 10194 20c5 7D       		.byte	0x7d
 10195 20c6 04       		.sleb128 4
 10196 20c7 02       		.uleb128 0x2
 10197 20c8 76       		.byte	0x76
 10198 20c9 00       		.sleb128 0
 10199 20ca 18       		.uleb128 0x18
 10200 20cb 02       		.uleb128 0x2
 10201 20cc 7D       		.byte	0x7d
 10202 20cd 00       		.sleb128 0
 10203 20ce 02       		.uleb128 0x2
 10204 20cf 74       		.byte	0x74
 10205 20d0 00       		.sleb128 0
 10206 20d1 00       		.byte	0
 10207 20d2 17       		.uleb128 0x17
 10208 20d3 6A120000 		.4byte	.LVL439
 10209 20d7 6B2D0000 		.4byte	0x2d6b
 10210 20db 05210000 		.4byte	0x2105
 10211 20df 18       		.uleb128 0x18
 10212 20e0 01       		.uleb128 0x1
 10213 20e1 53       		.byte	0x53
 10214 20e2 01       		.uleb128 0x1
 10215 20e3 3C       		.byte	0x3c
ARM GAS  C:\Users\RECEPC~1\AppData\Local\Temp\cc79eMMA.s 			page 221


 10216 20e4 18       		.uleb128 0x18
 10217 20e5 01       		.uleb128 0x1
 10218 20e6 52       		.byte	0x52
 10219 20e7 01       		.uleb128 0x1
 10220 20e8 45       		.byte	0x45
 10221 20e9 18       		.uleb128 0x18
 10222 20ea 01       		.uleb128 0x1
 10223 20eb 50       		.byte	0x50
 10224 20ec 02       		.uleb128 0x2
 10225 20ed 74       		.byte	0x74
 10226 20ee 00       		.sleb128 0
 10227 20ef 18       		.uleb128 0x18
 10228 20f0 02       		.uleb128 0x2
 10229 20f1 7D       		.byte	0x7d
 10230 20f2 08       		.sleb128 8
 10231 20f3 02       		.uleb128 0x2
 10232 20f4 75       		.byte	0x75
 10233 20f5 00       		.sleb128 0
 10234 20f6 18       		.uleb128 0x18
 10235 20f7 02       		.uleb128 0x2
 10236 20f8 7D       		.byte	0x7d
 10237 20f9 04       		.sleb128 4
 10238 20fa 02       		.uleb128 0x2
 10239 20fb 76       		.byte	0x76
 10240 20fc 00       		.sleb128 0
 10241 20fd 18       		.uleb128 0x18
 10242 20fe 02       		.uleb128 0x2
 10243 20ff 7D       		.byte	0x7d
 10244 2100 00       		.sleb128 0
 10245 2101 02       		.uleb128 0x2
 10246 2102 74       		.byte	0x74
 10247 2103 00       		.sleb128 0
 10248 2104 00       		.byte	0
 10249 2105 17       		.uleb128 0x17
 10250 2106 7C120000 		.4byte	.LVL440
 10251 210a 6B2D0000 		.4byte	0x2d6b
 10252 210e 3E210000 		.4byte	0x213e
 10253 2112 18       		.uleb128 0x18
 10254 2113 01       		.uleb128 0x1
 10255 2114 53       		.byte	0x53
 10256 2115 01       		.uleb128 0x1
 10257 2116 3D       		.byte	0x3d
 10258 2117 18       		.uleb128 0x18
 10259 2118 01       		.uleb128 0x1
 10260 2119 52       		.byte	0x52
 10261 211a 01       		.uleb128 0x1
 10262 211b 45       		.byte	0x45
 10263 211c 18       		.uleb128 0x18
 10264 211d 01       		.uleb128 0x1
 10265 211e 51       		.byte	0x51
 10266 211f 02       		.uleb128 0x2
 10267 2120 08       		.byte	0x8
 10268 2121 2F       		.byte	0x2f
 10269 2122 18       		.uleb128 0x18
 10270 2123 01       		.uleb128 0x1
 10271 2124 50       		.byte	0x50
 10272 2125 02       		.uleb128 0x2
ARM GAS  C:\Users\RECEPC~1\AppData\Local\Temp\cc79eMMA.s 			page 222


 10273 2126 74       		.byte	0x74
 10274 2127 00       		.sleb128 0
 10275 2128 18       		.uleb128 0x18
 10276 2129 02       		.uleb128 0x2
 10277 212a 7D       		.byte	0x7d
 10278 212b 08       		.sleb128 8
 10279 212c 02       		.uleb128 0x2
 10280 212d 75       		.byte	0x75
 10281 212e 00       		.sleb128 0
 10282 212f 18       		.uleb128 0x18
 10283 2130 02       		.uleb128 0x2
 10284 2131 7D       		.byte	0x7d
 10285 2132 04       		.sleb128 4
 10286 2133 02       		.uleb128 0x2
 10287 2134 76       		.byte	0x76
 10288 2135 00       		.sleb128 0
 10289 2136 18       		.uleb128 0x18
 10290 2137 02       		.uleb128 0x2
 10291 2138 7D       		.byte	0x7d
 10292 2139 00       		.sleb128 0
 10293 213a 02       		.uleb128 0x2
 10294 213b 74       		.byte	0x74
 10295 213c 00       		.sleb128 0
 10296 213d 00       		.byte	0
 10297 213e 17       		.uleb128 0x17
 10298 213f 92120000 		.4byte	.LVL441
 10299 2143 6B2D0000 		.4byte	0x2d6b
 10300 2147 71210000 		.4byte	0x2171
 10301 214b 18       		.uleb128 0x18
 10302 214c 01       		.uleb128 0x1
 10303 214d 53       		.byte	0x53
 10304 214e 01       		.uleb128 0x1
 10305 214f 3E       		.byte	0x3e
 10306 2150 18       		.uleb128 0x18
 10307 2151 01       		.uleb128 0x1
 10308 2152 52       		.byte	0x52
 10309 2153 01       		.uleb128 0x1
 10310 2154 45       		.byte	0x45
 10311 2155 18       		.uleb128 0x18
 10312 2156 01       		.uleb128 0x1
 10313 2157 50       		.byte	0x50
 10314 2158 02       		.uleb128 0x2
 10315 2159 74       		.byte	0x74
 10316 215a 00       		.sleb128 0
 10317 215b 18       		.uleb128 0x18
 10318 215c 02       		.uleb128 0x2
 10319 215d 7D       		.byte	0x7d
 10320 215e 08       		.sleb128 8
 10321 215f 02       		.uleb128 0x2
 10322 2160 75       		.byte	0x75
 10323 2161 00       		.sleb128 0
 10324 2162 18       		.uleb128 0x18
 10325 2163 02       		.uleb128 0x2
 10326 2164 7D       		.byte	0x7d
 10327 2165 04       		.sleb128 4
 10328 2166 02       		.uleb128 0x2
 10329 2167 76       		.byte	0x76
ARM GAS  C:\Users\RECEPC~1\AppData\Local\Temp\cc79eMMA.s 			page 223


 10330 2168 00       		.sleb128 0
 10331 2169 18       		.uleb128 0x18
 10332 216a 02       		.uleb128 0x2
 10333 216b 7D       		.byte	0x7d
 10334 216c 00       		.sleb128 0
 10335 216d 02       		.uleb128 0x2
 10336 216e 74       		.byte	0x74
 10337 216f 00       		.sleb128 0
 10338 2170 00       		.byte	0
 10339 2171 17       		.uleb128 0x17
 10340 2172 AA120000 		.4byte	.LVL442
 10341 2176 6B2D0000 		.4byte	0x2d6b
 10342 217a A4210000 		.4byte	0x21a4
 10343 217e 18       		.uleb128 0x18
 10344 217f 01       		.uleb128 0x1
 10345 2180 53       		.byte	0x53
 10346 2181 01       		.uleb128 0x1
 10347 2182 3F       		.byte	0x3f
 10348 2183 18       		.uleb128 0x18
 10349 2184 01       		.uleb128 0x1
 10350 2185 52       		.byte	0x52
 10351 2186 01       		.uleb128 0x1
 10352 2187 45       		.byte	0x45
 10353 2188 18       		.uleb128 0x18
 10354 2189 01       		.uleb128 0x1
 10355 218a 50       		.byte	0x50
 10356 218b 02       		.uleb128 0x2
 10357 218c 74       		.byte	0x74
 10358 218d 00       		.sleb128 0
 10359 218e 18       		.uleb128 0x18
 10360 218f 02       		.uleb128 0x2
 10361 2190 7D       		.byte	0x7d
 10362 2191 08       		.sleb128 8
 10363 2192 02       		.uleb128 0x2
 10364 2193 75       		.byte	0x75
 10365 2194 00       		.sleb128 0
 10366 2195 18       		.uleb128 0x18
 10367 2196 02       		.uleb128 0x2
 10368 2197 7D       		.byte	0x7d
 10369 2198 04       		.sleb128 4
 10370 2199 02       		.uleb128 0x2
 10371 219a 76       		.byte	0x76
 10372 219b 00       		.sleb128 0
 10373 219c 18       		.uleb128 0x18
 10374 219d 02       		.uleb128 0x2
 10375 219e 7D       		.byte	0x7d
 10376 219f 00       		.sleb128 0
 10377 21a0 02       		.uleb128 0x2
 10378 21a1 74       		.byte	0x74
 10379 21a2 00       		.sleb128 0
 10380 21a3 00       		.byte	0
 10381 21a4 15       		.uleb128 0x15
 10382 21a5 AE120000 		.4byte	.LVL443
 10383 21a9 592D0000 		.4byte	0x2d59
 10384 21ad 17       		.uleb128 0x17
 10385 21ae EE120000 		.4byte	.LVL444
 10386 21b2 832C0000 		.4byte	0x2c83
ARM GAS  C:\Users\RECEPC~1\AppData\Local\Temp\cc79eMMA.s 			page 224


 10387 21b6 C5210000 		.4byte	0x21c5
 10388 21ba 18       		.uleb128 0x18
 10389 21bb 01       		.uleb128 0x1
 10390 21bc 51       		.byte	0x51
 10391 21bd 01       		.uleb128 0x1
 10392 21be 31       		.byte	0x31
 10393 21bf 18       		.uleb128 0x18
 10394 21c0 01       		.uleb128 0x1
 10395 21c1 50       		.byte	0x50
 10396 21c2 01       		.uleb128 0x1
 10397 21c3 31       		.byte	0x31
 10398 21c4 00       		.byte	0
 10399 21c5 17       		.uleb128 0x17
 10400 21c6 FE120000 		.4byte	.LVL445
 10401 21ca 832C0000 		.4byte	0x2c83
 10402 21ce DD210000 		.4byte	0x21dd
 10403 21d2 18       		.uleb128 0x18
 10404 21d3 01       		.uleb128 0x1
 10405 21d4 51       		.byte	0x51
 10406 21d5 01       		.uleb128 0x1
 10407 21d6 31       		.byte	0x31
 10408 21d7 18       		.uleb128 0x18
 10409 21d8 01       		.uleb128 0x1
 10410 21d9 50       		.byte	0x50
 10411 21da 01       		.uleb128 0x1
 10412 21db 31       		.byte	0x31
 10413 21dc 00       		.byte	0
 10414 21dd 17       		.uleb128 0x17
 10415 21de 04130000 		.4byte	.LVL446
 10416 21e2 BA2C0000 		.4byte	0x2cba
 10417 21e6 F0210000 		.4byte	0x21f0
 10418 21ea 18       		.uleb128 0x18
 10419 21eb 01       		.uleb128 0x1
 10420 21ec 50       		.byte	0x50
 10421 21ed 01       		.uleb128 0x1
 10422 21ee 3A       		.byte	0x3a
 10423 21ef 00       		.byte	0
 10424 21f0 15       		.uleb128 0x15
 10425 21f1 08130000 		.4byte	.LVL447
 10426 21f5 642D0000 		.4byte	0x2d64
 10427 21f9 00       		.byte	0
 10428 21fa 14       		.uleb128 0x14
 10429 21fb B0060000 		.4byte	.LASF183
 10430 21ff 01       		.byte	0x1
 10431 2200 8804     		.2byte	0x488
 10432 2202 00000000 		.4byte	.LFB72
 10433 2206 3C030000 		.4byte	.LFE72-.LFB72
 10434 220a 01       		.uleb128 0x1
 10435 220b 9C       		.byte	0x9c
 10436 220c F4240000 		.4byte	0x24f4
 10437 2210 15       		.uleb128 0x15
 10438 2211 22000000 		.4byte	.LVL448
 10439 2215 150D0000 		.4byte	0xd15
 10440 2219 17       		.uleb128 0x17
 10441 221a 3A000000 		.4byte	.LVL449
 10442 221e DB2E0000 		.4byte	0x2edb
 10443 2222 32220000 		.4byte	0x2232
ARM GAS  C:\Users\RECEPC~1\AppData\Local\Temp\cc79eMMA.s 			page 225


 10444 2226 18       		.uleb128 0x18
 10445 2227 01       		.uleb128 0x1
 10446 2228 51       		.byte	0x51
 10447 2229 02       		.uleb128 0x2
 10448 222a 08       		.byte	0x8
 10449 222b 23       		.byte	0x23
 10450 222c 18       		.uleb128 0x18
 10451 222d 01       		.uleb128 0x1
 10452 222e 50       		.byte	0x50
 10453 222f 01       		.uleb128 0x1
 10454 2230 32       		.byte	0x32
 10455 2231 00       		.byte	0
 10456 2232 15       		.uleb128 0x15
 10457 2233 3E000000 		.4byte	.LVL450
 10458 2237 F12E0000 		.4byte	0x2ef1
 10459 223b 17       		.uleb128 0x17
 10460 223c 7E000000 		.4byte	.LVL451
 10461 2240 832C0000 		.4byte	0x2c83
 10462 2244 53220000 		.4byte	0x2253
 10463 2248 18       		.uleb128 0x18
 10464 2249 01       		.uleb128 0x1
 10465 224a 51       		.byte	0x51
 10466 224b 01       		.uleb128 0x1
 10467 224c 34       		.byte	0x34
 10468 224d 18       		.uleb128 0x18
 10469 224e 01       		.uleb128 0x1
 10470 224f 50       		.byte	0x50
 10471 2250 01       		.uleb128 0x1
 10472 2251 32       		.byte	0x32
 10473 2252 00       		.byte	0
 10474 2253 17       		.uleb128 0x17
 10475 2254 88000000 		.4byte	.LVL452
 10476 2258 832C0000 		.4byte	0x2c83
 10477 225c 6B220000 		.4byte	0x226b
 10478 2260 18       		.uleb128 0x18
 10479 2261 01       		.uleb128 0x1
 10480 2262 51       		.byte	0x51
 10481 2263 01       		.uleb128 0x1
 10482 2264 31       		.byte	0x31
 10483 2265 18       		.uleb128 0x18
 10484 2266 01       		.uleb128 0x1
 10485 2267 50       		.byte	0x50
 10486 2268 01       		.uleb128 0x1
 10487 2269 32       		.byte	0x32
 10488 226a 00       		.byte	0
 10489 226b 17       		.uleb128 0x17
 10490 226c 94000000 		.4byte	.LVL453
 10491 2270 BA2C0000 		.4byte	0x2cba
 10492 2274 7E220000 		.4byte	0x227e
 10493 2278 18       		.uleb128 0x18
 10494 2279 01       		.uleb128 0x1
 10495 227a 50       		.byte	0x50
 10496 227b 01       		.uleb128 0x1
 10497 227c 3A       		.byte	0x3a
 10498 227d 00       		.byte	0
 10499 227e 15       		.uleb128 0x15
 10500 227f 98000000 		.4byte	.LVL454
ARM GAS  C:\Users\RECEPC~1\AppData\Local\Temp\cc79eMMA.s 			page 226


 10501 2283 FC2E0000 		.4byte	0x2efc
 10502 2287 15       		.uleb128 0x15
 10503 2288 9E000000 		.4byte	.LVL455
 10504 228c F12E0000 		.4byte	0x2ef1
 10505 2290 17       		.uleb128 0x17
 10506 2291 F0000000 		.4byte	.LVL456
 10507 2295 832C0000 		.4byte	0x2c83
 10508 2299 A8220000 		.4byte	0x22a8
 10509 229d 18       		.uleb128 0x18
 10510 229e 01       		.uleb128 0x1
 10511 229f 51       		.byte	0x51
 10512 22a0 01       		.uleb128 0x1
 10513 22a1 35       		.byte	0x35
 10514 22a2 18       		.uleb128 0x18
 10515 22a3 01       		.uleb128 0x1
 10516 22a4 50       		.byte	0x50
 10517 22a5 01       		.uleb128 0x1
 10518 22a6 32       		.byte	0x32
 10519 22a7 00       		.byte	0
 10520 22a8 17       		.uleb128 0x17
 10521 22a9 00010000 		.4byte	.LVL457
 10522 22ad 832C0000 		.4byte	0x2c83
 10523 22b1 C1220000 		.4byte	0x22c1
 10524 22b5 18       		.uleb128 0x18
 10525 22b6 01       		.uleb128 0x1
 10526 22b7 51       		.byte	0x51
 10527 22b8 02       		.uleb128 0x2
 10528 22b9 08       		.byte	0x8
 10529 22ba 85       		.byte	0x85
 10530 22bb 18       		.uleb128 0x18
 10531 22bc 01       		.uleb128 0x1
 10532 22bd 50       		.byte	0x50
 10533 22be 01       		.uleb128 0x1
 10534 22bf 32       		.byte	0x32
 10535 22c0 00       		.byte	0
 10536 22c1 17       		.uleb128 0x17
 10537 22c2 10010000 		.4byte	.LVL458
 10538 22c6 832C0000 		.4byte	0x2c83
 10539 22ca DA220000 		.4byte	0x22da
 10540 22ce 18       		.uleb128 0x18
 10541 22cf 01       		.uleb128 0x1
 10542 22d0 51       		.byte	0x51
 10543 22d1 02       		.uleb128 0x2
 10544 22d2 08       		.byte	0x8
 10545 22d3 83       		.byte	0x83
 10546 22d4 18       		.uleb128 0x18
 10547 22d5 01       		.uleb128 0x1
 10548 22d6 50       		.byte	0x50
 10549 22d7 01       		.uleb128 0x1
 10550 22d8 32       		.byte	0x32
 10551 22d9 00       		.byte	0
 10552 22da 17       		.uleb128 0x17
 10553 22db 20010000 		.4byte	.LVL459
 10554 22df 832C0000 		.4byte	0x2c83
 10555 22e3 F2220000 		.4byte	0x22f2
 10556 22e7 18       		.uleb128 0x18
 10557 22e8 01       		.uleb128 0x1
ARM GAS  C:\Users\RECEPC~1\AppData\Local\Temp\cc79eMMA.s 			page 227


 10558 22e9 51       		.byte	0x51
 10559 22ea 01       		.uleb128 0x1
 10560 22eb 31       		.byte	0x31
 10561 22ec 18       		.uleb128 0x18
 10562 22ed 01       		.uleb128 0x1
 10563 22ee 50       		.byte	0x50
 10564 22ef 01       		.uleb128 0x1
 10565 22f0 32       		.byte	0x32
 10566 22f1 00       		.byte	0
 10567 22f2 17       		.uleb128 0x17
 10568 22f3 30010000 		.4byte	.LVL460
 10569 22f7 832C0000 		.4byte	0x2c83
 10570 22fb 0A230000 		.4byte	0x230a
 10571 22ff 18       		.uleb128 0x18
 10572 2300 01       		.uleb128 0x1
 10573 2301 51       		.byte	0x51
 10574 2302 01       		.uleb128 0x1
 10575 2303 31       		.byte	0x31
 10576 2304 18       		.uleb128 0x18
 10577 2305 01       		.uleb128 0x1
 10578 2306 50       		.byte	0x50
 10579 2307 01       		.uleb128 0x1
 10580 2308 32       		.byte	0x32
 10581 2309 00       		.byte	0
 10582 230a 17       		.uleb128 0x17
 10583 230b 36010000 		.4byte	.LVL461
 10584 230f BA2C0000 		.4byte	0x2cba
 10585 2313 1D230000 		.4byte	0x231d
 10586 2317 18       		.uleb128 0x18
 10587 2318 01       		.uleb128 0x1
 10588 2319 50       		.byte	0x50
 10589 231a 01       		.uleb128 0x1
 10590 231b 3A       		.byte	0x3a
 10591 231c 00       		.byte	0
 10592 231d 15       		.uleb128 0x15
 10593 231e 3A010000 		.4byte	.LVL462
 10594 2322 FC2E0000 		.4byte	0x2efc
 10595 2326 15       		.uleb128 0x15
 10596 2327 40010000 		.4byte	.LVL463
 10597 232b F12E0000 		.4byte	0x2ef1
 10598 232f 17       		.uleb128 0x17
 10599 2330 96010000 		.4byte	.LVL464
 10600 2334 832C0000 		.4byte	0x2c83
 10601 2338 47230000 		.4byte	0x2347
 10602 233c 18       		.uleb128 0x18
 10603 233d 01       		.uleb128 0x1
 10604 233e 51       		.byte	0x51
 10605 233f 01       		.uleb128 0x1
 10606 2340 36       		.byte	0x36
 10607 2341 18       		.uleb128 0x18
 10608 2342 01       		.uleb128 0x1
 10609 2343 50       		.byte	0x50
 10610 2344 01       		.uleb128 0x1
 10611 2345 32       		.byte	0x32
 10612 2346 00       		.byte	0
 10613 2347 17       		.uleb128 0x17
 10614 2348 A6010000 		.4byte	.LVL465
ARM GAS  C:\Users\RECEPC~1\AppData\Local\Temp\cc79eMMA.s 			page 228


 10615 234c 832C0000 		.4byte	0x2c83
 10616 2350 5F230000 		.4byte	0x235f
 10617 2354 18       		.uleb128 0x18
 10618 2355 01       		.uleb128 0x1
 10619 2356 51       		.byte	0x51
 10620 2357 01       		.uleb128 0x1
 10621 2358 3D       		.byte	0x3d
 10622 2359 18       		.uleb128 0x18
 10623 235a 01       		.uleb128 0x1
 10624 235b 50       		.byte	0x50
 10625 235c 01       		.uleb128 0x1
 10626 235d 32       		.byte	0x32
 10627 235e 00       		.byte	0
 10628 235f 17       		.uleb128 0x17
 10629 2360 B6010000 		.4byte	.LVL466
 10630 2364 832C0000 		.4byte	0x2c83
 10631 2368 77230000 		.4byte	0x2377
 10632 236c 18       		.uleb128 0x18
 10633 236d 01       		.uleb128 0x1
 10634 236e 51       		.byte	0x51
 10635 236f 01       		.uleb128 0x1
 10636 2370 3B       		.byte	0x3b
 10637 2371 18       		.uleb128 0x18
 10638 2372 01       		.uleb128 0x1
 10639 2373 50       		.byte	0x50
 10640 2374 01       		.uleb128 0x1
 10641 2375 32       		.byte	0x32
 10642 2376 00       		.byte	0
 10643 2377 17       		.uleb128 0x17
 10644 2378 C6010000 		.4byte	.LVL467
 10645 237c 832C0000 		.4byte	0x2c83
 10646 2380 8F230000 		.4byte	0x238f
 10647 2384 18       		.uleb128 0x18
 10648 2385 01       		.uleb128 0x1
 10649 2386 51       		.byte	0x51
 10650 2387 01       		.uleb128 0x1
 10651 2388 31       		.byte	0x31
 10652 2389 18       		.uleb128 0x18
 10653 238a 01       		.uleb128 0x1
 10654 238b 50       		.byte	0x50
 10655 238c 01       		.uleb128 0x1
 10656 238d 32       		.byte	0x32
 10657 238e 00       		.byte	0
 10658 238f 17       		.uleb128 0x17
 10659 2390 D6010000 		.4byte	.LVL468
 10660 2394 832C0000 		.4byte	0x2c83
 10661 2398 A7230000 		.4byte	0x23a7
 10662 239c 18       		.uleb128 0x18
 10663 239d 01       		.uleb128 0x1
 10664 239e 51       		.byte	0x51
 10665 239f 01       		.uleb128 0x1
 10666 23a0 31       		.byte	0x31
 10667 23a1 18       		.uleb128 0x18
 10668 23a2 01       		.uleb128 0x1
 10669 23a3 50       		.byte	0x50
 10670 23a4 01       		.uleb128 0x1
 10671 23a5 32       		.byte	0x32
ARM GAS  C:\Users\RECEPC~1\AppData\Local\Temp\cc79eMMA.s 			page 229


 10672 23a6 00       		.byte	0
 10673 23a7 17       		.uleb128 0x17
 10674 23a8 E6010000 		.4byte	.LVL469
 10675 23ac 832C0000 		.4byte	0x2c83
 10676 23b0 BF230000 		.4byte	0x23bf
 10677 23b4 18       		.uleb128 0x18
 10678 23b5 01       		.uleb128 0x1
 10679 23b6 51       		.byte	0x51
 10680 23b7 01       		.uleb128 0x1
 10681 23b8 31       		.byte	0x31
 10682 23b9 18       		.uleb128 0x18
 10683 23ba 01       		.uleb128 0x1
 10684 23bb 50       		.byte	0x50
 10685 23bc 01       		.uleb128 0x1
 10686 23bd 32       		.byte	0x32
 10687 23be 00       		.byte	0
 10688 23bf 17       		.uleb128 0x17
 10689 23c0 EC010000 		.4byte	.LVL470
 10690 23c4 BA2C0000 		.4byte	0x2cba
 10691 23c8 D2230000 		.4byte	0x23d2
 10692 23cc 18       		.uleb128 0x18
 10693 23cd 01       		.uleb128 0x1
 10694 23ce 50       		.byte	0x50
 10695 23cf 01       		.uleb128 0x1
 10696 23d0 3A       		.byte	0x3a
 10697 23d1 00       		.byte	0
 10698 23d2 15       		.uleb128 0x15
 10699 23d3 F0010000 		.4byte	.LVL471
 10700 23d7 FC2E0000 		.4byte	0x2efc
 10701 23db 15       		.uleb128 0x15
 10702 23dc F6010000 		.4byte	.LVL472
 10703 23e0 F12E0000 		.4byte	0x2ef1
 10704 23e4 17       		.uleb128 0x17
 10705 23e5 36020000 		.4byte	.LVL473
 10706 23e9 832C0000 		.4byte	0x2c83
 10707 23ed FC230000 		.4byte	0x23fc
 10708 23f1 18       		.uleb128 0x18
 10709 23f2 01       		.uleb128 0x1
 10710 23f3 51       		.byte	0x51
 10711 23f4 01       		.uleb128 0x1
 10712 23f5 31       		.byte	0x31
 10713 23f6 18       		.uleb128 0x18
 10714 23f7 01       		.uleb128 0x1
 10715 23f8 50       		.byte	0x50
 10716 23f9 01       		.uleb128 0x1
 10717 23fa 32       		.byte	0x32
 10718 23fb 00       		.byte	0
 10719 23fc 17       		.uleb128 0x17
 10720 23fd 46020000 		.4byte	.LVL474
 10721 2401 832C0000 		.4byte	0x2c83
 10722 2405 14240000 		.4byte	0x2414
 10723 2409 18       		.uleb128 0x18
 10724 240a 01       		.uleb128 0x1
 10725 240b 51       		.byte	0x51
 10726 240c 01       		.uleb128 0x1
 10727 240d 31       		.byte	0x31
 10728 240e 18       		.uleb128 0x18
ARM GAS  C:\Users\RECEPC~1\AppData\Local\Temp\cc79eMMA.s 			page 230


 10729 240f 01       		.uleb128 0x1
 10730 2410 50       		.byte	0x50
 10731 2411 01       		.uleb128 0x1
 10732 2412 32       		.byte	0x32
 10733 2413 00       		.byte	0
 10734 2414 17       		.uleb128 0x17
 10735 2415 4C020000 		.4byte	.LVL475
 10736 2419 BA2C0000 		.4byte	0x2cba
 10737 241d 27240000 		.4byte	0x2427
 10738 2421 18       		.uleb128 0x18
 10739 2422 01       		.uleb128 0x1
 10740 2423 50       		.byte	0x50
 10741 2424 01       		.uleb128 0x1
 10742 2425 3A       		.byte	0x3a
 10743 2426 00       		.byte	0
 10744 2427 15       		.uleb128 0x15
 10745 2428 50020000 		.4byte	.LVL476
 10746 242c FC2E0000 		.4byte	0x2efc
 10747 2430 15       		.uleb128 0x15
 10748 2431 56020000 		.4byte	.LVL477
 10749 2435 F12E0000 		.4byte	0x2ef1
 10750 2439 17       		.uleb128 0x17
 10751 243a 94020000 		.4byte	.LVL478
 10752 243e 832C0000 		.4byte	0x2c83
 10753 2442 51240000 		.4byte	0x2451
 10754 2446 18       		.uleb128 0x18
 10755 2447 01       		.uleb128 0x1
 10756 2448 51       		.byte	0x51
 10757 2449 01       		.uleb128 0x1
 10758 244a 31       		.byte	0x31
 10759 244b 18       		.uleb128 0x18
 10760 244c 01       		.uleb128 0x1
 10761 244d 50       		.byte	0x50
 10762 244e 01       		.uleb128 0x1
 10763 244f 32       		.byte	0x32
 10764 2450 00       		.byte	0
 10765 2451 17       		.uleb128 0x17
 10766 2452 B2020000 		.4byte	.LVL479
 10767 2456 832C0000 		.4byte	0x2c83
 10768 245a 69240000 		.4byte	0x2469
 10769 245e 18       		.uleb128 0x18
 10770 245f 01       		.uleb128 0x1
 10771 2460 51       		.byte	0x51
 10772 2461 01       		.uleb128 0x1
 10773 2462 31       		.byte	0x31
 10774 2463 18       		.uleb128 0x18
 10775 2464 01       		.uleb128 0x1
 10776 2465 50       		.byte	0x50
 10777 2466 01       		.uleb128 0x1
 10778 2467 32       		.byte	0x32
 10779 2468 00       		.byte	0
 10780 2469 17       		.uleb128 0x17
 10781 246a B8020000 		.4byte	.LVL480
 10782 246e BA2C0000 		.4byte	0x2cba
 10783 2472 7C240000 		.4byte	0x247c
 10784 2476 18       		.uleb128 0x18
 10785 2477 01       		.uleb128 0x1
ARM GAS  C:\Users\RECEPC~1\AppData\Local\Temp\cc79eMMA.s 			page 231


 10786 2478 50       		.byte	0x50
 10787 2479 01       		.uleb128 0x1
 10788 247a 3A       		.byte	0x3a
 10789 247b 00       		.byte	0
 10790 247c 15       		.uleb128 0x15
 10791 247d BC020000 		.4byte	.LVL481
 10792 2481 FC2E0000 		.4byte	0x2efc
 10793 2485 15       		.uleb128 0x15
 10794 2486 C2020000 		.4byte	.LVL482
 10795 248a F12E0000 		.4byte	0x2ef1
 10796 248e 17       		.uleb128 0x17
 10797 248f 00030000 		.4byte	.LVL483
 10798 2493 832C0000 		.4byte	0x2c83
 10799 2497 A6240000 		.4byte	0x24a6
 10800 249b 18       		.uleb128 0x18
 10801 249c 01       		.uleb128 0x1
 10802 249d 51       		.byte	0x51
 10803 249e 01       		.uleb128 0x1
 10804 249f 3A       		.byte	0x3a
 10805 24a0 18       		.uleb128 0x18
 10806 24a1 01       		.uleb128 0x1
 10807 24a2 50       		.byte	0x50
 10808 24a3 01       		.uleb128 0x1
 10809 24a4 32       		.byte	0x32
 10810 24a5 00       		.byte	0
 10811 24a6 17       		.uleb128 0x17
 10812 24a7 10030000 		.4byte	.LVL484
 10813 24ab 832C0000 		.4byte	0x2c83
 10814 24af BF240000 		.4byte	0x24bf
 10815 24b3 18       		.uleb128 0x18
 10816 24b4 01       		.uleb128 0x1
 10817 24b5 51       		.byte	0x51
 10818 24b6 02       		.uleb128 0x2
 10819 24b7 08       		.byte	0x8
 10820 24b8 86       		.byte	0x86
 10821 24b9 18       		.uleb128 0x18
 10822 24ba 01       		.uleb128 0x1
 10823 24bb 50       		.byte	0x50
 10824 24bc 01       		.uleb128 0x1
 10825 24bd 32       		.byte	0x32
 10826 24be 00       		.byte	0
 10827 24bf 17       		.uleb128 0x17
 10828 24c0 20030000 		.4byte	.LVL485
 10829 24c4 832C0000 		.4byte	0x2c83
 10830 24c8 D7240000 		.4byte	0x24d7
 10831 24cc 18       		.uleb128 0x18
 10832 24cd 01       		.uleb128 0x1
 10833 24ce 51       		.byte	0x51
 10834 24cf 01       		.uleb128 0x1
 10835 24d0 31       		.byte	0x31
 10836 24d1 18       		.uleb128 0x18
 10837 24d2 01       		.uleb128 0x1
 10838 24d3 50       		.byte	0x50
 10839 24d4 01       		.uleb128 0x1
 10840 24d5 32       		.byte	0x32
 10841 24d6 00       		.byte	0
 10842 24d7 17       		.uleb128 0x17
ARM GAS  C:\Users\RECEPC~1\AppData\Local\Temp\cc79eMMA.s 			page 232


 10843 24d8 2C030000 		.4byte	.LVL486
 10844 24dc BA2C0000 		.4byte	0x2cba
 10845 24e0 EA240000 		.4byte	0x24ea
 10846 24e4 18       		.uleb128 0x18
 10847 24e5 01       		.uleb128 0x1
 10848 24e6 50       		.byte	0x50
 10849 24e7 01       		.uleb128 0x1
 10850 24e8 3A       		.byte	0x3a
 10851 24e9 00       		.byte	0
 10852 24ea 15       		.uleb128 0x15
 10853 24eb 30030000 		.4byte	.LVL487
 10854 24ef FC2E0000 		.4byte	0x2efc
 10855 24f3 00       		.byte	0
 10856 24f4 14       		.uleb128 0x14
 10857 24f5 F1000000 		.4byte	.LASF184
 10858 24f9 01       		.byte	0x1
 10859 24fa 3D05     		.2byte	0x53d
 10860 24fc 00000000 		.4byte	.LFB74
 10861 2500 14000000 		.4byte	.LFE74-.LFB74
 10862 2504 01       		.uleb128 0x1
 10863 2505 9C       		.byte	0x9c
 10864 2506 14250000 		.4byte	0x2514
 10865 250a 15       		.uleb128 0x15
 10866 250b 06000000 		.4byte	.LVL488
 10867 250f 032F0000 		.4byte	0x2f03
 10868 2513 00       		.byte	0
 10869 2514 1F       		.uleb128 0x1f
 10870 2515 2C030000 		.4byte	.LASF185
 10871 2519 01       		.byte	0x1
 10872 251a 6F05     		.2byte	0x56f
 10873 251c 7E000000 		.4byte	0x7e
 10874 2520 00000000 		.4byte	.LFB77
 10875 2524 60000000 		.4byte	.LFE77-.LFB77
 10876 2528 01       		.uleb128 0x1
 10877 2529 9C       		.byte	0x9c
 10878 252a B3250000 		.4byte	0x25b3
 10879 252e 15       		.uleb128 0x15
 10880 252f 08000000 		.4byte	.LVL489
 10881 2533 79070000 		.4byte	0x779
 10882 2537 15       		.uleb128 0x15
 10883 2538 0C000000 		.4byte	.LVL490
 10884 253c 910D0000 		.4byte	0xd91
 10885 2540 15       		.uleb128 0x15
 10886 2541 10000000 		.4byte	.LVL491
 10887 2545 F1080000 		.4byte	0x8f1
 10888 2549 17       		.uleb128 0x17
 10889 254a 18000000 		.4byte	.LVL492
 10890 254e 0E2F0000 		.4byte	0x2f0e
 10891 2552 61250000 		.4byte	0x2561
 10892 2556 18       		.uleb128 0x18
 10893 2557 01       		.uleb128 0x1
 10894 2558 51       		.byte	0x51
 10895 2559 01       		.uleb128 0x1
 10896 255a 30       		.byte	0x30
 10897 255b 18       		.uleb128 0x18
 10898 255c 01       		.uleb128 0x1
 10899 255d 50       		.byte	0x50
ARM GAS  C:\Users\RECEPC~1\AppData\Local\Temp\cc79eMMA.s 			page 233


 10900 255e 01       		.uleb128 0x1
 10901 255f 33       		.byte	0x33
 10902 2560 00       		.byte	0
 10903 2561 15       		.uleb128 0x15
 10904 2562 1C000000 		.4byte	.LVL493
 10905 2566 242F0000 		.4byte	0x2f24
 10906 256a 15       		.uleb128 0x15
 10907 256b 20000000 		.4byte	.LVL494
 10908 256f 2B2F0000 		.4byte	0x2f2b
 10909 2573 15       		.uleb128 0x15
 10910 2574 24000000 		.4byte	.LVL495
 10911 2578 A0110000 		.4byte	0x11a0
 10912 257c 15       		.uleb128 0x15
 10913 257d 28000000 		.4byte	.LVL496
 10914 2581 242F0000 		.4byte	0x2f24
 10915 2585 15       		.uleb128 0x15
 10916 2586 2C000000 		.4byte	.LVL497
 10917 258a FA210000 		.4byte	0x21fa
 10918 258e 15       		.uleb128 0x15
 10919 258f 30000000 		.4byte	.LVL498
 10920 2593 242F0000 		.4byte	0x2f24
 10921 2597 15       		.uleb128 0x15
 10922 2598 34000000 		.4byte	.LVL499
 10923 259c 70100000 		.4byte	0x1070
 10924 25a0 15       		.uleb128 0x15
 10925 25a1 38000000 		.4byte	.LVL500
 10926 25a5 242F0000 		.4byte	0x2f24
 10927 25a9 15       		.uleb128 0x15
 10928 25aa 3C000000 		.4byte	.LVL501
 10929 25ae 322F0000 		.4byte	0x2f32
 10930 25b2 00       		.byte	0
 10931 25b3 0A       		.uleb128 0xa
 10932 25b4 AD000000 		.4byte	0xad
 10933 25b8 C3250000 		.4byte	0x25c3
 10934 25bc 0B       		.uleb128 0xb
 10935 25bd 27010000 		.4byte	0x127
 10936 25c1 1F       		.byte	0x1f
 10937 25c2 00       		.byte	0
 10938 25c3 20       		.uleb128 0x20
 10939 25c4 50000000 		.4byte	.LASF186
 10940 25c8 06       		.byte	0x6
 10941 25c9 3E01     		.2byte	0x13e
 10942 25cb CF250000 		.4byte	0x25cf
 10943 25cf 06       		.uleb128 0x6
 10944 25d0 B3250000 		.4byte	0x25b3
 10945 25d4 20       		.uleb128 0x20
 10946 25d5 89100000 		.4byte	.LASF187
 10947 25d9 07       		.byte	0x7
 10948 25da 3E01     		.2byte	0x13e
 10949 25dc E0250000 		.4byte	0x25e0
 10950 25e0 06       		.uleb128 0x6
 10951 25e1 B3250000 		.4byte	0x25b3
 10952 25e5 20       		.uleb128 0x20
 10953 25e6 680B0000 		.4byte	.LASF188
 10954 25ea 08       		.byte	0x8
 10955 25eb 5506     		.2byte	0x655
 10956 25ed F1250000 		.4byte	0x25f1
ARM GAS  C:\Users\RECEPC~1\AppData\Local\Temp\cc79eMMA.s 			page 234


 10957 25f1 06       		.uleb128 0x6
 10958 25f2 A2000000 		.4byte	0xa2
 10959 25f6 21       		.uleb128 0x21
 10960 25f7 E4060000 		.4byte	.LASF189
 10961 25fb 05       		.byte	0x5
 10962 25fc 2C       		.byte	0x2c
 10963 25fd 07260000 		.4byte	0x2607
 10964 2601 05       		.uleb128 0x5
 10965 2602 03       		.byte	0x3
 10966 2603 00000000 		.4byte	countAnimation1
 10967 2607 06       		.uleb128 0x6
 10968 2608 DF000000 		.4byte	0xdf
 10969 260c 21       		.uleb128 0x21
 10970 260d F4060000 		.4byte	.LASF190
 10971 2611 05       		.byte	0x5
 10972 2612 2D       		.byte	0x2d
 10973 2613 07260000 		.4byte	0x2607
 10974 2617 05       		.uleb128 0x5
 10975 2618 03       		.byte	0x3
 10976 2619 00000000 		.4byte	countAnimation2
 10977 261d 21       		.uleb128 0x21
 10978 261e 05110000 		.4byte	.LASF191
 10979 2622 05       		.byte	0x5
 10980 2623 2E       		.byte	0x2e
 10981 2624 07260000 		.4byte	0x2607
 10982 2628 05       		.uleb128 0x5
 10983 2629 03       		.byte	0x3
 10984 262a 00000000 		.4byte	countRX
 10985 262e 21       		.uleb128 0x21
 10986 262f 20120000 		.4byte	.LASF192
 10987 2633 05       		.byte	0x5
 10988 2634 2F       		.byte	0x2f
 10989 2635 07260000 		.4byte	0x2607
 10990 2639 05       		.uleb128 0x5
 10991 263a 03       		.byte	0x3
 10992 263b 00000000 		.4byte	countTX
 10993 263f 21       		.uleb128 0x21
 10994 2640 C1030000 		.4byte	.LASF193
 10995 2644 05       		.byte	0x5
 10996 2645 30       		.byte	0x30
 10997 2646 07260000 		.4byte	0x2607
 10998 264a 05       		.uleb128 0x5
 10999 264b 03       		.byte	0x3
 11000 264c 00000000 		.4byte	countPump
 11001 2650 21       		.uleb128 0x21
 11002 2651 20020000 		.4byte	.LASF194
 11003 2655 05       		.byte	0x5
 11004 2656 31       		.byte	0x31
 11005 2657 07260000 		.4byte	0x2607
 11006 265b 05       		.uleb128 0x5
 11007 265c 03       		.byte	0x3
 11008 265d 00000000 		.4byte	countLCD
 11009 2661 21       		.uleb128 0x21
 11010 2662 C0050000 		.4byte	.LASF195
 11011 2666 05       		.byte	0x5
 11012 2667 32       		.byte	0x32
 11013 2668 0F010000 		.4byte	0x10f
ARM GAS  C:\Users\RECEPC~1\AppData\Local\Temp\cc79eMMA.s 			page 235


 11014 266c 05       		.uleb128 0x5
 11015 266d 03       		.byte	0x3
 11016 266e 00000000 		.4byte	flowDisplay1
 11017 2672 21       		.uleb128 0x21
 11018 2673 CD050000 		.4byte	.LASF196
 11019 2677 05       		.byte	0x5
 11020 2678 33       		.byte	0x33
 11021 2679 0F010000 		.4byte	0x10f
 11022 267d 05       		.uleb128 0x5
 11023 267e 03       		.byte	0x3
 11024 267f 00000000 		.4byte	flowDisplay2
 11025 2683 21       		.uleb128 0x21
 11026 2684 DA050000 		.4byte	.LASF197
 11027 2688 05       		.byte	0x5
 11028 2689 34       		.byte	0x34
 11029 268a 0F010000 		.4byte	0x10f
 11030 268e 05       		.uleb128 0x5
 11031 268f 03       		.byte	0x3
 11032 2690 00000000 		.4byte	flowDisplay3
 11033 2694 21       		.uleb128 0x21
 11034 2695 E7050000 		.4byte	.LASF198
 11035 2699 05       		.byte	0x5
 11036 269a 35       		.byte	0x35
 11037 269b 0F010000 		.4byte	0x10f
 11038 269f 05       		.uleb128 0x5
 11039 26a0 03       		.byte	0x3
 11040 26a1 00000000 		.4byte	flowDisplay4
 11041 26a5 21       		.uleb128 0x21
 11042 26a6 E3010000 		.4byte	.LASF199
 11043 26aa 05       		.byte	0x5
 11044 26ab 36       		.byte	0x36
 11045 26ac 0A010000 		.4byte	0x10a
 11046 26b0 05       		.uleb128 0x5
 11047 26b1 03       		.byte	0x3
 11048 26b2 00000000 		.4byte	numberKeys1
 11049 26b6 21       		.uleb128 0x21
 11050 26b7 EF010000 		.4byte	.LASF200
 11051 26bb 05       		.byte	0x5
 11052 26bc 37       		.byte	0x37
 11053 26bd 0A010000 		.4byte	0x10a
 11054 26c1 05       		.uleb128 0x5
 11055 26c2 03       		.byte	0x3
 11056 26c3 00000000 		.4byte	numberKeys2
 11057 26c7 21       		.uleb128 0x21
 11058 26c8 B00E0000 		.4byte	.LASF201
 11059 26cc 05       		.byte	0x5
 11060 26cd 38       		.byte	0x38
 11061 26ce 0A010000 		.4byte	0x10a
 11062 26d2 05       		.uleb128 0x5
 11063 26d3 03       		.byte	0x3
 11064 26d4 00000000 		.4byte	flagPoint1
 11065 26d8 21       		.uleb128 0x21
 11066 26d9 BB0E0000 		.4byte	.LASF202
 11067 26dd 05       		.byte	0x5
 11068 26de 39       		.byte	0x39
 11069 26df 0A010000 		.4byte	0x10a
 11070 26e3 05       		.uleb128 0x5
ARM GAS  C:\Users\RECEPC~1\AppData\Local\Temp\cc79eMMA.s 			page 236


 11071 26e4 03       		.byte	0x3
 11072 26e5 00000000 		.4byte	flagPoint2
 11073 26e9 21       		.uleb128 0x21
 11074 26ea 760E0000 		.4byte	.LASF203
 11075 26ee 05       		.byte	0x5
 11076 26ef 3A       		.byte	0x3a
 11077 26f0 0A010000 		.4byte	0x10a
 11078 26f4 05       		.uleb128 0x5
 11079 26f5 03       		.byte	0x3
 11080 26f6 00000000 		.4byte	productNumber
 11081 26fa 21       		.uleb128 0x21
 11082 26fb D70B0000 		.4byte	.LASF204
 11083 26ff 05       		.byte	0x5
 11084 2700 3B       		.byte	0x3b
 11085 2701 0F010000 		.4byte	0x10f
 11086 2705 05       		.uleb128 0x5
 11087 2706 03       		.byte	0x3
 11088 2707 00000000 		.4byte	delayPicture1
 11089 270b 21       		.uleb128 0x21
 11090 270c E50B0000 		.4byte	.LASF205
 11091 2710 05       		.byte	0x5
 11092 2711 3C       		.byte	0x3c
 11093 2712 0F010000 		.4byte	0x10f
 11094 2716 05       		.uleb128 0x5
 11095 2717 03       		.byte	0x3
 11096 2718 00000000 		.4byte	delayPicture2
 11097 271c 21       		.uleb128 0x21
 11098 271d DA0A0000 		.4byte	.LASF206
 11099 2721 05       		.byte	0x5
 11100 2722 3D       		.byte	0x3d
 11101 2723 0A010000 		.4byte	0x10a
 11102 2727 05       		.uleb128 0x5
 11103 2728 03       		.byte	0x3
 11104 2729 00000000 		.4byte	ppux10
 11105 272d 21       		.uleb128 0x21
 11106 272e 88050000 		.4byte	.LASF207
 11107 2732 05       		.byte	0x5
 11108 2733 3E       		.byte	0x3e
 11109 2734 0A010000 		.4byte	0x10a
 11110 2738 05       		.uleb128 0x5
 11111 2739 03       		.byte	0x3
 11112 273a 00000000 		.4byte	decimalMoney
 11113 273e 21       		.uleb128 0x21
 11114 273f 29020000 		.4byte	.LASF208
 11115 2743 05       		.byte	0x5
 11116 2744 3F       		.byte	0x3f
 11117 2745 0A010000 		.4byte	0x10a
 11118 2749 05       		.uleb128 0x5
 11119 274a 03       		.byte	0x3
 11120 274b 00000000 		.4byte	decimalVolume
 11121 274f 21       		.uleb128 0x21
 11122 2750 DA020000 		.4byte	.LASF209
 11123 2754 05       		.byte	0x5
 11124 2755 40       		.byte	0x40
 11125 2756 60270000 		.4byte	0x2760
 11126 275a 05       		.uleb128 0x5
 11127 275b 03       		.byte	0x3
ARM GAS  C:\Users\RECEPC~1\AppData\Local\Temp\cc79eMMA.s 			page 237


 11128 275c 00000000 		.4byte	symbols
 11129 2760 06       		.uleb128 0x6
 11130 2761 8D030000 		.4byte	0x38d
 11131 2765 0A       		.uleb128 0xa
 11132 2766 AD000000 		.4byte	0xad
 11133 276a 75270000 		.4byte	0x2775
 11134 276e 0B       		.uleb128 0xb
 11135 276f 27010000 		.4byte	0x127
 11136 2773 02       		.byte	0x2
 11137 2774 00       		.byte	0
 11138 2775 21       		.uleb128 0x21
 11139 2776 240F0000 		.4byte	.LASF210
 11140 277a 05       		.byte	0x5
 11141 277b 41       		.byte	0x41
 11142 277c 86270000 		.4byte	0x2786
 11143 2780 05       		.uleb128 0x5
 11144 2781 03       		.byte	0x3
 11145 2782 00000000 		.4byte	time
 11146 2786 06       		.uleb128 0x6
 11147 2787 65270000 		.4byte	0x2765
 11148 278b 21       		.uleb128 0x21
 11149 278c 87030000 		.4byte	.LASF211
 11150 2790 05       		.byte	0x5
 11151 2791 42       		.byte	0x42
 11152 2792 9C270000 		.4byte	0x279c
 11153 2796 05       		.uleb128 0x5
 11154 2797 03       		.byte	0x3
 11155 2798 00000000 		.4byte	date
 11156 279c 06       		.uleb128 0x6
 11157 279d 65270000 		.4byte	0x2765
 11158 27a1 21       		.uleb128 0x21
 11159 27a2 C0010000 		.4byte	.LASF212
 11160 27a6 05       		.byte	0x5
 11161 27a7 43       		.byte	0x43
 11162 27a8 B2270000 		.4byte	0x27b2
 11163 27ac 05       		.uleb128 0x5
 11164 27ad 03       		.byte	0x3
 11165 27ae 00000000 		.4byte	screen
 11166 27b2 06       		.uleb128 0x6
 11167 27b3 8D030000 		.4byte	0x38d
 11168 27b7 21       		.uleb128 0x21
 11169 27b8 000B0000 		.4byte	.LASF213
 11170 27bc 05       		.byte	0x5
 11171 27bd 44       		.byte	0x44
 11172 27be C8270000 		.4byte	0x27c8
 11173 27c2 05       		.uleb128 0x5
 11174 27c3 03       		.byte	0x3
 11175 27c4 00000000 		.4byte	residue
 11176 27c8 06       		.uleb128 0x6
 11177 27c9 D3030000 		.4byte	0x3d3
 11178 27cd 21       		.uleb128 0x21
 11179 27ce 80100000 		.4byte	.LASF214
 11180 27d2 05       		.byte	0x5
 11181 27d3 45       		.byte	0x45
 11182 27d4 DE270000 		.4byte	0x27de
 11183 27d8 05       		.uleb128 0x5
 11184 27d9 03       		.byte	0x3
ARM GAS  C:\Users\RECEPC~1\AppData\Local\Temp\cc79eMMA.s 			page 238


 11185 27da 00000000 		.4byte	idSeller
 11186 27de 06       		.uleb128 0x6
 11187 27df 5D030000 		.4byte	0x35d
 11188 27e3 21       		.uleb128 0x21
 11189 27e4 450A0000 		.4byte	.LASF215
 11190 27e8 05       		.byte	0x5
 11191 27e9 46       		.byte	0x46
 11192 27ea 0A010000 		.4byte	0x10a
 11193 27ee 05       		.uleb128 0x5
 11194 27ef 03       		.byte	0x3
 11195 27f0 00000000 		.4byte	typeIdSeller
 11196 27f4 0A       		.uleb128 0xa
 11197 27f5 AD000000 		.4byte	0xad
 11198 27f9 04280000 		.4byte	0x2804
 11199 27fd 0B       		.uleb128 0xb
 11200 27fe 27010000 		.4byte	0x127
 11201 2802 07       		.byte	0x7
 11202 2803 00       		.byte	0
 11203 2804 21       		.uleb128 0x21
 11204 2805 FB010000 		.4byte	.LASF216
 11205 2809 05       		.byte	0x5
 11206 280a 47       		.byte	0x47
 11207 280b 15280000 		.4byte	0x2815
 11208 280f 05       		.uleb128 0x5
 11209 2810 03       		.byte	0x3
 11210 2811 00000000 		.4byte	passwordSeller
 11211 2815 06       		.uleb128 0x6
 11212 2816 F4270000 		.4byte	0x27f4
 11213 281a 21       		.uleb128 0x21
 11214 281b 750B0000 		.4byte	.LASF217
 11215 281f 05       		.byte	0x5
 11216 2820 48       		.byte	0x48
 11217 2821 0A010000 		.4byte	0x10a
 11218 2825 05       		.uleb128 0x5
 11219 2826 03       		.byte	0x3
 11220 2827 00000000 		.4byte	flagResetMux
 11221 282b 21       		.uleb128 0x21
 11222 282c 04070000 		.4byte	.LASF218
 11223 2830 05       		.byte	0x5
 11224 2831 49       		.byte	0x49
 11225 2832 0A010000 		.4byte	0x10a
 11226 2836 05       		.uleb128 0x5
 11227 2837 03       		.byte	0x3
 11228 2838 00000000 		.4byte	stateBeagleSoft
 11229 283c 21       		.uleb128 0x21
 11230 283d EA120000 		.4byte	.LASF219
 11231 2841 05       		.byte	0x5
 11232 2842 4A       		.byte	0x4a
 11233 2843 4D280000 		.4byte	0x284d
 11234 2847 05       		.uleb128 0x5
 11235 2848 03       		.byte	0x3
 11236 2849 00000000 		.4byte	PrevStatePump
 11237 284d 06       		.uleb128 0x6
 11238 284e 39010000 		.4byte	0x139
 11239 2852 21       		.uleb128 0x21
 11240 2853 0F0A0000 		.4byte	.LASF220
 11241 2857 05       		.byte	0x5
ARM GAS  C:\Users\RECEPC~1\AppData\Local\Temp\cc79eMMA.s 			page 239


 11242 2858 4B       		.byte	0x4b
 11243 2859 0A010000 		.4byte	0x10a
 11244 285d 05       		.uleb128 0x5
 11245 285e 03       		.byte	0x3
 11246 285f 00000000 		.4byte	PlateRequest
 11247 2863 21       		.uleb128 0x21
 11248 2864 1D0F0000 		.4byte	.LASF221
 11249 2868 05       		.byte	0x5
 11250 2869 4C       		.byte	0x4c
 11251 286a 74280000 		.4byte	0x2874
 11252 286e 05       		.uleb128 0x5
 11253 286f 03       		.byte	0x3
 11254 2870 00000000 		.4byte	IDCast
 11255 2874 06       		.uleb128 0x6
 11256 2875 8D030000 		.4byte	0x38d
 11257 2879 21       		.uleb128 0x21
 11258 287a B7120000 		.4byte	.LASF222
 11259 287e 05       		.byte	0x5
 11260 287f 4D       		.byte	0x4d
 11261 2880 0A010000 		.4byte	0x10a
 11262 2884 05       		.uleb128 0x5
 11263 2885 03       		.byte	0x3
 11264 2886 00000000 		.4byte	ActiveRF
 11265 288a 21       		.uleb128 0x21
 11266 288b 69060000 		.4byte	.LASF223
 11267 288f 05       		.byte	0x5
 11268 2890 4E       		.byte	0x4e
 11269 2891 0A010000 		.4byte	0x10a
 11270 2895 05       		.uleb128 0x5
 11271 2896 03       		.byte	0x3
 11272 2897 00000000 		.4byte	counterRF
 11273 289b 0A       		.uleb128 0xa
 11274 289c AD000000 		.4byte	0xad
 11275 28a0 AB280000 		.4byte	0x28ab
 11276 28a4 0B       		.uleb128 0xb
 11277 28a5 27010000 		.4byte	0x127
 11278 28a9 1D       		.byte	0x1d
 11279 28aa 00       		.byte	0
 11280 28ab 21       		.uleb128 0x21
 11281 28ac 47000000 		.4byte	.LASF224
 11282 28b0 05       		.byte	0x5
 11283 28b1 4F       		.byte	0x4f
 11284 28b2 BC280000 		.4byte	0x28bc
 11285 28b6 05       		.uleb128 0x5
 11286 28b7 03       		.byte	0x3
 11287 28b8 00000000 		.4byte	temporal
 11288 28bc 06       		.uleb128 0x6
 11289 28bd 9B280000 		.4byte	0x289b
 11290 28c1 21       		.uleb128 0x21
 11291 28c2 CE0F0000 		.4byte	.LASF225
 11292 28c6 05       		.byte	0x5
 11293 28c7 50       		.byte	0x50
 11294 28c8 D2280000 		.4byte	0x28d2
 11295 28cc 05       		.uleb128 0x5
 11296 28cd 03       		.byte	0x3
 11297 28ce 00000000 		.4byte	tempPreset
 11298 28d2 06       		.uleb128 0x6
ARM GAS  C:\Users\RECEPC~1\AppData\Local\Temp\cc79eMMA.s 			page 240


 11299 28d3 F4270000 		.4byte	0x27f4
 11300 28d7 21       		.uleb128 0x21
 11301 28d8 63030000 		.4byte	.LASF226
 11302 28dc 05       		.byte	0x5
 11303 28dd 51       		.byte	0x51
 11304 28de 0A010000 		.4byte	0x10a
 11305 28e2 05       		.uleb128 0x5
 11306 28e3 03       		.byte	0x3
 11307 28e4 00000000 		.4byte	CGrade
 11308 28e8 21       		.uleb128 0x21
 11309 28e9 85060000 		.4byte	.LASF227
 11310 28ed 05       		.byte	0x5
 11311 28ee 53       		.byte	0x53
 11312 28ef AD000000 		.4byte	0xad
 11313 28f3 05       		.uleb128 0x5
 11314 28f4 03       		.byte	0x3
 11315 28f5 00000000 		.4byte	UnitType
 11316 28f9 21       		.uleb128 0x21
 11317 28fa BC0D0000 		.4byte	.LASF228
 11318 28fe 05       		.byte	0x5
 11319 28ff 53       		.byte	0x53
 11320 2900 AD000000 		.4byte	0xad
 11321 2904 05       		.uleb128 0x5
 11322 2905 03       		.byte	0x3
 11323 2906 00000000 		.4byte	ConversionFactor
 11324 290a 21       		.uleb128 0x21
 11325 290b A00B0000 		.4byte	.LASF229
 11326 290f 05       		.byte	0x5
 11327 2910 53       		.byte	0x53
 11328 2911 AD000000 		.4byte	0xad
 11329 2915 05       		.uleb128 0x5
 11330 2916 03       		.byte	0x3
 11331 2917 00000000 		.4byte	MoneyDec
 11332 291b 21       		.uleb128 0x21
 11333 291c 4A0F0000 		.4byte	.LASF230
 11334 2920 05       		.byte	0x5
 11335 2921 53       		.byte	0x53
 11336 2922 AD000000 		.4byte	0xad
 11337 2926 05       		.uleb128 0x5
 11338 2927 03       		.byte	0x3
 11339 2928 00000000 		.4byte	VolDec
 11340 292c 21       		.uleb128 0x21
 11341 292d 880C0000 		.4byte	.LASF231
 11342 2931 05       		.byte	0x5
 11343 2932 53       		.byte	0x53
 11344 2933 AD000000 		.4byte	0xad
 11345 2937 05       		.uleb128 0x5
 11346 2938 03       		.byte	0x3
 11347 2939 00000000 		.4byte	PPUDec
 11348 293d 21       		.uleb128 0x21
 11349 293e B0080000 		.4byte	.LASF232
 11350 2942 05       		.byte	0x5
 11351 2943 53       		.byte	0x53
 11352 2944 AD000000 		.4byte	0xad
 11353 2948 05       		.uleb128 0x5
 11354 2949 03       		.byte	0x3
 11355 294a 00000000 		.4byte	DDMode
ARM GAS  C:\Users\RECEPC~1\AppData\Local\Temp\cc79eMMA.s 			page 241


 11356 294e 21       		.uleb128 0x21
 11357 294f F4050000 		.4byte	.LASF233
 11358 2953 05       		.byte	0x5
 11359 2954 54       		.byte	0x54
 11360 2955 39010000 		.4byte	0x139
 11361 2959 05       		.uleb128 0x5
 11362 295a 03       		.byte	0x3
 11363 295b 00000000 		.4byte	statePump
 11364 295f 21       		.uleb128 0x21
 11365 2960 DD000000 		.4byte	.LASF234
 11366 2964 05       		.byte	0x5
 11367 2965 55       		.byte	0x55
 11368 2966 AD000000 		.4byte	0xad
 11369 296a 05       		.uleb128 0x5
 11370 296b 03       		.byte	0x3
 11371 296c 00000000 		.4byte	NumPositions
 11372 2970 21       		.uleb128 0x21
 11373 2971 28060000 		.4byte	.LASF235
 11374 2975 05       		.byte	0x5
 11375 2976 56       		.byte	0x56
 11376 2977 AD000000 		.4byte	0xad
 11377 297b 05       		.uleb128 0x5
 11378 297c 03       		.byte	0x3
 11379 297d 00000000 		.4byte	lockTurn
 11380 2981 21       		.uleb128 0x21
 11381 2982 EA000000 		.4byte	.LASF236
 11382 2986 05       		.byte	0x5
 11383 2987 57       		.byte	0x57
 11384 2988 AD000000 		.4byte	0xad
 11385 298c 05       		.uleb128 0x5
 11386 298d 03       		.byte	0x3
 11387 298e 00000000 		.4byte	digits
 11388 2992 21       		.uleb128 0x21
 11389 2993 9B0E0000 		.4byte	.LASF237
 11390 2997 05       		.byte	0x5
 11391 2998 58       		.byte	0x58
 11392 2999 AD000000 		.4byte	0xad
 11393 299d 05       		.uleb128 0x5
 11394 299e 03       		.byte	0x3
 11395 299f 00000000 		.4byte	hiddenKeys
 11396 29a3 21       		.uleb128 0x21
 11397 29a4 F7070000 		.4byte	.LASF238
 11398 29a8 05       		.byte	0x5
 11399 29a9 59       		.byte	0x59
 11400 29aa AD000000 		.4byte	0xad
 11401 29ae 05       		.uleb128 0x5
 11402 29af 03       		.byte	0x3
 11403 29b0 00000000 		.4byte	PrinterType
 11404 29b4 0A       		.uleb128 0xa
 11405 29b5 EB000000 		.4byte	0xeb
 11406 29b9 C4290000 		.4byte	0x29c4
 11407 29bd 0B       		.uleb128 0xb
 11408 29be 27010000 		.4byte	0x127
 11409 29c2 05       		.byte	0x5
 11410 29c3 00       		.byte	0
 11411 29c4 21       		.uleb128 0x21
 11412 29c5 3F100000 		.4byte	.LASF239
ARM GAS  C:\Users\RECEPC~1\AppData\Local\Temp\cc79eMMA.s 			page 242


 11413 29c9 05       		.byte	0x5
 11414 29ca 5A       		.byte	0x5a
 11415 29cb B4290000 		.4byte	0x29b4
 11416 29cf 05       		.uleb128 0x5
 11417 29d0 03       		.byte	0x3
 11418 29d1 00000000 		.4byte	VolUnit
 11419 29d5 21       		.uleb128 0x21
 11420 29d6 C8110000 		.4byte	.LASF240
 11421 29da 05       		.byte	0x5
 11422 29db 5B       		.byte	0x5b
 11423 29dc 65270000 		.4byte	0x2765
 11424 29e0 05       		.uleb128 0x5
 11425 29e1 03       		.byte	0x3
 11426 29e2 00000000 		.4byte	dateDownHandle
 11427 29e6 21       		.uleb128 0x21
 11428 29e7 9A110000 		.4byte	.LASF241
 11429 29eb 05       		.byte	0x5
 11430 29ec 5C       		.byte	0x5c
 11431 29ed 8D030000 		.4byte	0x38d
 11432 29f1 05       		.uleb128 0x5
 11433 29f2 03       		.byte	0x3
 11434 29f3 00000000 		.4byte	timeDownHandle
 11435 29f7 21       		.uleb128 0x21
 11436 29f8 ED100000 		.4byte	.LASF242
 11437 29fc 05       		.byte	0x5
 11438 29fd 5D       		.byte	0x5d
 11439 29fe AD000000 		.4byte	0xad
 11440 2a02 05       		.uleb128 0x5
 11441 2a03 03       		.byte	0x3
 11442 2a04 00000000 		.4byte	count_protector
 11443 2a08 21       		.uleb128 0x21
 11444 2a09 ED110000 		.4byte	.LASF243
 11445 2a0d 05       		.byte	0x5
 11446 2a0e 5D       		.byte	0x5d
 11447 2a0f AD000000 		.4byte	0xad
 11448 2a13 05       		.uleb128 0x5
 11449 2a14 03       		.byte	0x3
 11450 2a15 00000000 		.4byte	count_protector2
 11451 2a19 21       		.uleb128 0x21
 11452 2a1a C2100000 		.4byte	.LASF244
 11453 2a1e 05       		.byte	0x5
 11454 2a1f 5E       		.byte	0x5e
 11455 2a20 B3030000 		.4byte	0x3b3
 11456 2a24 05       		.uleb128 0x5
 11457 2a25 03       		.byte	0x3
 11458 2a26 00000000 		.4byte	configAccess
 11459 2a2a 21       		.uleb128 0x21
 11460 2a2b 5D060000 		.4byte	.LASF245
 11461 2a2f 05       		.byte	0x5
 11462 2a30 5F       		.byte	0x5f
 11463 2a31 AD000000 		.4byte	0xad
 11464 2a35 05       		.uleb128 0x5
 11465 2a36 03       		.byte	0x3
 11466 2a37 00000000 		.4byte	controlChar
 11467 2a3b 0A       		.uleb128 0xa
 11468 2a3c EB000000 		.4byte	0xeb
 11469 2a40 4B2A0000 		.4byte	0x2a4b
ARM GAS  C:\Users\RECEPC~1\AppData\Local\Temp\cc79eMMA.s 			page 243


 11470 2a44 0B       		.uleb128 0xb
 11471 2a45 27010000 		.4byte	0x127
 11472 2a49 04       		.byte	0x4
 11473 2a4a 00       		.byte	0
 11474 2a4b 21       		.uleb128 0x21
 11475 2a4c 4A0D0000 		.4byte	.LASF246
 11476 2a50 05       		.byte	0x5
 11477 2a51 60       		.byte	0x60
 11478 2a52 3B2A0000 		.4byte	0x2a3b
 11479 2a56 05       		.uleb128 0x5
 11480 2a57 03       		.byte	0x3
 11481 2a58 00000000 		.4byte	idStation
 11482 2a5c 21       		.uleb128 0x21
 11483 2a5d FD100000 		.4byte	.LASF247
 11484 2a61 05       		.byte	0x5
 11485 2a62 61       		.byte	0x61
 11486 2a63 65270000 		.4byte	0x2765
 11487 2a67 05       		.uleb128 0x5
 11488 2a68 03       		.byte	0x3
 11489 2a69 00000000 		.4byte	pumpGap
 11490 2a6d 21       		.uleb128 0x21
 11491 2a6e AA090000 		.4byte	.LASF248
 11492 2a72 05       		.byte	0x5
 11493 2a73 62       		.byte	0x62
 11494 2a74 AD000000 		.4byte	0xad
 11495 2a78 05       		.uleb128 0x5
 11496 2a79 03       		.byte	0x3
 11497 2a7a 00000000 		.4byte	printPortA
 11498 2a7e 21       		.uleb128 0x21
 11499 2a7f 20010000 		.4byte	.LASF249
 11500 2a83 05       		.byte	0x5
 11501 2a84 63       		.byte	0x63
 11502 2a85 AD000000 		.4byte	0xad
 11503 2a89 05       		.uleb128 0x5
 11504 2a8a 03       		.byte	0x3
 11505 2a8b 00000000 		.4byte	printPortB
 11506 2a8f 0A       		.uleb128 0xa
 11507 2a90 AD000000 		.4byte	0xad
 11508 2a94 A02A0000 		.4byte	0x2aa0
 11509 2a98 22       		.uleb128 0x22
 11510 2a99 27010000 		.4byte	0x127
 11511 2a9d FF01     		.2byte	0x1ff
 11512 2a9f 00       		.byte	0
 11513 2aa0 21       		.uleb128 0x21
 11514 2aa1 74080000 		.4byte	.LASF250
 11515 2aa5 05       		.byte	0x5
 11516 2aa6 64       		.byte	0x64
 11517 2aa7 8F2A0000 		.4byte	0x2a8f
 11518 2aab 05       		.uleb128 0x5
 11519 2aac 03       		.byte	0x3
 11520 2aad 00000000 		.4byte	buffer_rf
 11521 2ab1 21       		.uleb128 0x21
 11522 2ab2 92090000 		.4byte	.LASF251
 11523 2ab6 05       		.byte	0x5
 11524 2ab7 65       		.byte	0x65
 11525 2ab8 8F2A0000 		.4byte	0x2a8f
 11526 2abc 05       		.uleb128 0x5
ARM GAS  C:\Users\RECEPC~1\AppData\Local\Temp\cc79eMMA.s 			page 244


 11527 2abd 03       		.byte	0x3
 11528 2abe 00000000 		.4byte	buffer_tx
 11529 2ac2 21       		.uleb128 0x21
 11530 2ac3 B7080000 		.4byte	.LASF252
 11531 2ac7 05       		.byte	0x5
 11532 2ac8 66       		.byte	0x66
 11533 2ac9 8F2A0000 		.4byte	0x2a8f
 11534 2acd 05       		.uleb128 0x5
 11535 2ace 03       		.byte	0x3
 11536 2acf 00000000 		.4byte	buffer_txDisplay
 11537 2ad3 21       		.uleb128 0x21
 11538 2ad4 D7060000 		.4byte	.LASF253
 11539 2ad8 05       		.byte	0x5
 11540 2ad9 67       		.byte	0x67
 11541 2ada B9000000 		.4byte	0xb9
 11542 2ade 05       		.uleb128 0x5
 11543 2adf 03       		.byte	0x3
 11544 2ae0 00000000 		.4byte	intIDStation
 11545 2ae4 21       		.uleb128 0x21
 11546 2ae5 03080000 		.4byte	.LASF254
 11547 2ae9 05       		.byte	0x5
 11548 2aea 68       		.byte	0x68
 11549 2aeb 9B280000 		.4byte	0x289b
 11550 2aef 05       		.uleb128 0x5
 11551 2af0 03       		.byte	0x3
 11552 2af1 00000000 		.4byte	Encabezado1
 11553 2af5 21       		.uleb128 0x21
 11554 2af6 0F080000 		.4byte	.LASF255
 11555 2afa 05       		.byte	0x5
 11556 2afb 69       		.byte	0x69
 11557 2afc 9B280000 		.4byte	0x289b
 11558 2b00 05       		.uleb128 0x5
 11559 2b01 03       		.byte	0x3
 11560 2b02 00000000 		.4byte	Encabezado2
 11561 2b06 21       		.uleb128 0x21
 11562 2b07 1B080000 		.4byte	.LASF256
 11563 2b0b 05       		.byte	0x5
 11564 2b0c 6A       		.byte	0x6a
 11565 2b0d 9B280000 		.4byte	0x289b
 11566 2b11 05       		.uleb128 0x5
 11567 2b12 03       		.byte	0x3
 11568 2b13 00000000 		.4byte	Encabezado3
 11569 2b17 21       		.uleb128 0x21
 11570 2b18 27080000 		.4byte	.LASF257
 11571 2b1c 05       		.byte	0x5
 11572 2b1d 6B       		.byte	0x6b
 11573 2b1e 9B280000 		.4byte	0x289b
 11574 2b22 05       		.uleb128 0x5
 11575 2b23 03       		.byte	0x3
 11576 2b24 00000000 		.4byte	Encabezado4
 11577 2b28 21       		.uleb128 0x21
 11578 2b29 A2080000 		.4byte	.LASF258
 11579 2b2d 05       		.byte	0x5
 11580 2b2e 6C       		.byte	0x6c
 11581 2b2f AD000000 		.4byte	0xad
 11582 2b33 05       		.uleb128 0x5
 11583 2b34 03       		.byte	0x3
ARM GAS  C:\Users\RECEPC~1\AppData\Local\Temp\cc79eMMA.s 			page 245


 11584 2b35 00000000 		.4byte	CopiasCredito
 11585 2b39 21       		.uleb128 0x21
 11586 2b3a 7D050000 		.4byte	.LASF259
 11587 2b3e 05       		.byte	0x5
 11588 2b3f 6D       		.byte	0x6d
 11589 2b40 B3030000 		.4byte	0x3b3
 11590 2b44 05       		.uleb128 0x5
 11591 2b45 03       		.byte	0x3
 11592 2b46 00000000 		.4byte	GradesHose
 11593 2b4a 21       		.uleb128 0x21
 11594 2b4b C5070000 		.4byte	.LASF260
 11595 2b4f 05       		.byte	0x5
 11596 2b50 6E       		.byte	0x6e
 11597 2b51 AD000000 		.4byte	0xad
 11598 2b55 05       		.uleb128 0x5
 11599 2b56 03       		.byte	0x3
 11600 2b57 00000000 		.4byte	RFstateReport
 11601 2b5b 21       		.uleb128 0x21
 11602 2b5c 14070000 		.4byte	.LASF261
 11603 2b60 05       		.byte	0x5
 11604 2b61 A7       		.byte	0xa7
 11605 2b62 49010000 		.4byte	0x149
 11606 2b66 05       		.uleb128 0x5
 11607 2b67 03       		.byte	0x3
 11608 2b68 00000000 		.4byte	bufferDisplay1
 11609 2b6c 21       		.uleb128 0x21
 11610 2b6d B5090000 		.4byte	.LASF262
 11611 2b71 05       		.byte	0x5
 11612 2b72 A8       		.byte	0xa8
 11613 2b73 49010000 		.4byte	0x149
 11614 2b77 05       		.uleb128 0x5
 11615 2b78 03       		.byte	0x3
 11616 2b79 00000000 		.4byte	bufferDisplay2
 11617 2b7d 21       		.uleb128 0x21
 11618 2b7e C4090000 		.4byte	.LASF263
 11619 2b82 05       		.byte	0x5
 11620 2b83 A9       		.byte	0xa9
 11621 2b84 49010000 		.4byte	0x149
 11622 2b88 05       		.uleb128 0x5
 11623 2b89 03       		.byte	0x3
 11624 2b8a 00000000 		.4byte	bufferDisplay3
 11625 2b8e 21       		.uleb128 0x21
 11626 2b8f D3090000 		.4byte	.LASF264
 11627 2b93 05       		.byte	0x5
 11628 2b94 AA       		.byte	0xaa
 11629 2b95 49010000 		.4byte	0x149
 11630 2b99 05       		.uleb128 0x5
 11631 2b9a 03       		.byte	0x3
 11632 2b9b 00000000 		.4byte	bufferDisplay4
 11633 2b9f 21       		.uleb128 0x21
 11634 2ba0 98120000 		.4byte	.LASF265
 11635 2ba4 05       		.byte	0x5
 11636 2ba5 CC       		.byte	0xcc
 11637 2ba6 E5040000 		.4byte	0x4e5
 11638 2baa 05       		.uleb128 0x5
 11639 2bab 03       		.byte	0x3
 11640 2bac 00000000 		.4byte	side
ARM GAS  C:\Users\RECEPC~1\AppData\Local\Temp\cc79eMMA.s 			page 246


 11641 2bb0 21       		.uleb128 0x21
 11642 2bb1 8F0C0000 		.4byte	.LASF266
 11643 2bb5 01       		.byte	0x1
 11644 2bb6 1C       		.byte	0x1c
 11645 2bb7 6D030000 		.4byte	0x36d
 11646 2bbb 05       		.uleb128 0x5
 11647 2bbc 03       		.byte	0x3
 11648 2bbd 00000000 		.4byte	MuxVersion
 11649 2bc1 21       		.uleb128 0x21
 11650 2bc2 8E0E0000 		.4byte	.LASF267
 11651 2bc6 01       		.byte	0x1
 11652 2bc7 1D       		.byte	0x1d
 11653 2bc8 B3030000 		.4byte	0x3b3
 11654 2bcc 05       		.uleb128 0x5
 11655 2bcd 03       		.byte	0x3
 11656 2bce 00000000 		.4byte	passwordPump
 11657 2bd2 23       		.uleb128 0x23
 11658 2bd3 3F010000 		.4byte	.LASF268
 11659 2bd7 09       		.byte	0x9
 11660 2bd8 5E       		.byte	0x5e
 11661 2bd9 AD000000 		.4byte	0xad
 11662 2bdd 23       		.uleb128 0x23
 11663 2bde 13000000 		.4byte	.LASF269
 11664 2be2 0A       		.byte	0xa
 11665 2be3 5E       		.byte	0x5e
 11666 2be4 AD000000 		.4byte	0xad
 11667 2be8 23       		.uleb128 0x23
 11668 2be9 20040000 		.4byte	.LASF270
 11669 2bed 0B       		.byte	0xb
 11670 2bee 5E       		.byte	0x5e
 11671 2bef AD000000 		.4byte	0xad
 11672 2bf3 24       		.uleb128 0x24
 11673 2bf4 43060000 		.4byte	.LASF271
 11674 2bf8 0C       		.byte	0xc
 11675 2bf9 1F       		.byte	0x1f
 11676 2bfa 24       		.uleb128 0x24
 11677 2bfb 6A100000 		.4byte	.LASF272
 11678 2bff 0D       		.byte	0xd
 11679 2c00 54       		.byte	0x54
 11680 2c01 24       		.uleb128 0x24
 11681 2c02 DB120000 		.4byte	.LASF273
 11682 2c06 06       		.byte	0x6
 11683 2c07 54       		.byte	0x54
 11684 2c08 24       		.uleb128 0x24
 11685 2c09 300E0000 		.4byte	.LASF274
 11686 2c0d 07       		.byte	0x7
 11687 2c0e 54       		.byte	0x54
 11688 2c0f 24       		.uleb128 0x24
 11689 2c10 A5030000 		.4byte	.LASF275
 11690 2c14 0E       		.byte	0xe
 11691 2c15 54       		.byte	0x54
 11692 2c16 24       		.uleb128 0x24
 11693 2c17 D7110000 		.4byte	.LASF276
 11694 2c1b 0F       		.byte	0xf
 11695 2c1c AC       		.byte	0xac
 11696 2c1d 24       		.uleb128 0x24
 11697 2c1e CF100000 		.4byte	.LASF277
ARM GAS  C:\Users\RECEPC~1\AppData\Local\Temp\cc79eMMA.s 			page 247


 11698 2c22 10       		.byte	0x10
 11699 2c23 54       		.byte	0x54
 11700 2c24 25       		.uleb128 0x25
 11701 2c25 39000000 		.4byte	.LASF279
 11702 2c29 11       		.byte	0x11
 11703 2c2a 18       		.byte	0x18
 11704 2c2b 352C0000 		.4byte	0x2c35
 11705 2c2f 26       		.uleb128 0x26
 11706 2c30 14010000 		.4byte	0x114
 11707 2c34 00       		.byte	0
 11708 2c35 24       		.uleb128 0x24
 11709 2c36 ED0D0000 		.4byte	.LASF278
 11710 2c3a 0A       		.byte	0xa
 11711 2c3b 5A       		.byte	0x5a
 11712 2c3c 25       		.uleb128 0x25
 11713 2c3d 6F050000 		.4byte	.LASF280
 11714 2c41 12       		.byte	0x12
 11715 2c42 18       		.byte	0x18
 11716 2c43 4D2C0000 		.4byte	0x2c4d
 11717 2c47 26       		.uleb128 0x26
 11718 2c48 14010000 		.4byte	0x114
 11719 2c4c 00       		.byte	0
 11720 2c4d 24       		.uleb128 0x24
 11721 2c4e 0C0F0000 		.4byte	.LASF281
 11722 2c52 0B       		.byte	0xb
 11723 2c53 5A       		.byte	0x5a
 11724 2c54 27       		.uleb128 0x27
 11725 2c55 4A110000 		.4byte	.LASF282
 11726 2c59 0C       		.byte	0xc
 11727 2c5a 21       		.byte	0x21
 11728 2c5b FE000000 		.4byte	0xfe
 11729 2c5f 6E2C0000 		.4byte	0x2c6e
 11730 2c63 26       		.uleb128 0x26
 11731 2c64 AD000000 		.4byte	0xad
 11732 2c68 26       		.uleb128 0x26
 11733 2c69 B9000000 		.4byte	0xb9
 11734 2c6d 00       		.byte	0
 11735 2c6e 27       		.uleb128 0x27
 11736 2c6f 640E0000 		.4byte	.LASF283
 11737 2c73 0C       		.byte	0xc
 11738 2c74 23       		.byte	0x23
 11739 2c75 AD000000 		.4byte	0xad
 11740 2c79 832C0000 		.4byte	0x2c83
 11741 2c7d 26       		.uleb128 0x26
 11742 2c7e B9000000 		.4byte	0xb9
 11743 2c82 00       		.byte	0
 11744 2c83 25       		.uleb128 0x25
 11745 2c84 8D120000 		.4byte	.LASF284
 11746 2c88 13       		.byte	0x13
 11747 2c89 22       		.byte	0x22
 11748 2c8a 992C0000 		.4byte	0x2c99
 11749 2c8e 26       		.uleb128 0x26
 11750 2c8f AD000000 		.4byte	0xad
 11751 2c93 26       		.uleb128 0x26
 11752 2c94 B9000000 		.4byte	0xb9
 11753 2c98 00       		.byte	0
 11754 2c99 25       		.uleb128 0x25
ARM GAS  C:\Users\RECEPC~1\AppData\Local\Temp\cc79eMMA.s 			page 248


 11755 2c9a EB0F0000 		.4byte	.LASF285
 11756 2c9e 13       		.byte	0x13
 11757 2c9f 29       		.byte	0x29
 11758 2ca0 B42C0000 		.4byte	0x2cb4
 11759 2ca4 26       		.uleb128 0x26
 11760 2ca5 AD000000 		.4byte	0xad
 11761 2ca9 26       		.uleb128 0x26
 11762 2caa B42C0000 		.4byte	0x2cb4
 11763 2cae 26       		.uleb128 0x26
 11764 2caf AD000000 		.4byte	0xad
 11765 2cb3 00       		.byte	0
 11766 2cb4 07       		.uleb128 0x7
 11767 2cb5 04       		.byte	0x4
 11768 2cb6 AD000000 		.4byte	0xad
 11769 2cba 25       		.uleb128 0x25
 11770 2cbb E5110000 		.4byte	.LASF286
 11771 2cbf 14       		.byte	0x14
 11772 2cc0 77       		.byte	0x77
 11773 2cc1 CB2C0000 		.4byte	0x2ccb
 11774 2cc5 26       		.uleb128 0x26
 11775 2cc6 C5000000 		.4byte	0xc5
 11776 2cca 00       		.byte	0
 11777 2ccb 23       		.uleb128 0x23
 11778 2ccc 5A070000 		.4byte	.LASF287
 11779 2cd0 15       		.byte	0x15
 11780 2cd1 23       		.byte	0x23
 11781 2cd2 AD000000 		.4byte	0xad
 11782 2cd6 27       		.uleb128 0x27
 11783 2cd7 8A000000 		.4byte	.LASF288
 11784 2cdb 15       		.byte	0x15
 11785 2cdc 22       		.byte	0x22
 11786 2cdd AD000000 		.4byte	0xad
 11787 2ce1 EB2C0000 		.4byte	0x2ceb
 11788 2ce5 26       		.uleb128 0x26
 11789 2ce6 AD000000 		.4byte	0xad
 11790 2cea 00       		.byte	0
 11791 2ceb 27       		.uleb128 0x27
 11792 2cec 31030000 		.4byte	.LASF289
 11793 2cf0 15       		.byte	0x15
 11794 2cf1 2D       		.byte	0x2d
 11795 2cf2 002D0000 		.4byte	0x2d00
 11796 2cf6 002D0000 		.4byte	0x2d00
 11797 2cfa 26       		.uleb128 0x26
 11798 2cfb AD000000 		.4byte	0xad
 11799 2cff 00       		.byte	0
 11800 2d00 02       		.uleb128 0x2
 11801 2d01 01       		.byte	0x1
 11802 2d02 02       		.byte	0x2
 11803 2d03 81030000 		.4byte	.LASF290
 11804 2d07 27       		.uleb128 0x27
 11805 2d08 260C0000 		.4byte	.LASF291
 11806 2d0c 15       		.byte	0x15
 11807 2d0d 29       		.byte	0x29
 11808 2d0e AD000000 		.4byte	0xad
 11809 2d12 1C2D0000 		.4byte	0x2d1c
 11810 2d16 26       		.uleb128 0x26
 11811 2d17 AD000000 		.4byte	0xad
ARM GAS  C:\Users\RECEPC~1\AppData\Local\Temp\cc79eMMA.s 			page 249


 11812 2d1b 00       		.byte	0
 11813 2d1c 27       		.uleb128 0x27
 11814 2d1d DF0F0000 		.4byte	.LASF292
 11815 2d21 16       		.byte	0x16
 11816 2d22 27       		.byte	0x27
 11817 2d23 AD000000 		.4byte	0xad
 11818 2d27 362D0000 		.4byte	0x2d36
 11819 2d2b 26       		.uleb128 0x26
 11820 2d2c AD000000 		.4byte	0xad
 11821 2d30 26       		.uleb128 0x26
 11822 2d31 AD000000 		.4byte	0xad
 11823 2d35 00       		.byte	0
 11824 2d36 27       		.uleb128 0x27
 11825 2d37 42070000 		.4byte	.LASF293
 11826 2d3b 15       		.byte	0x15
 11827 2d3c 25       		.byte	0x25
 11828 2d3d AD000000 		.4byte	0xad
 11829 2d41 4B2D0000 		.4byte	0x2d4b
 11830 2d45 26       		.uleb128 0x26
 11831 2d46 AD000000 		.4byte	0xad
 11832 2d4a 00       		.byte	0
 11833 2d4b 24       		.uleb128 0x24
 11834 2d4c CF020000 		.4byte	.LASF294
 11835 2d50 17       		.byte	0x17
 11836 2d51 19       		.byte	0x19
 11837 2d52 24       		.uleb128 0x24
 11838 2d53 AB010000 		.4byte	.LASF295
 11839 2d57 09       		.byte	0x9
 11840 2d58 5B       		.byte	0x5b
 11841 2d59 23       		.uleb128 0x23
 11842 2d5a FD0C0000 		.4byte	.LASF296
 11843 2d5e 06       		.byte	0x6
 11844 2d5f 73       		.byte	0x73
 11845 2d60 AD000000 		.4byte	0xad
 11846 2d64 24       		.uleb128 0x24
 11847 2d65 C0060000 		.4byte	.LASF297
 11848 2d69 06       		.byte	0x6
 11849 2d6a 75       		.byte	0x75
 11850 2d6b 25       		.uleb128 0x25
 11851 2d6c A2010000 		.4byte	.LASF298
 11852 2d70 13       		.byte	0x13
 11853 2d71 24       		.byte	0x24
 11854 2d72 9A2D0000 		.4byte	0x2d9a
 11855 2d76 26       		.uleb128 0x26
 11856 2d77 8C000000 		.4byte	0x8c
 11857 2d7b 26       		.uleb128 0x26
 11858 2d7c 8C000000 		.4byte	0x8c
 11859 2d80 26       		.uleb128 0x26
 11860 2d81 97000000 		.4byte	0x97
 11861 2d85 26       		.uleb128 0x26
 11862 2d86 97000000 		.4byte	0x97
 11863 2d8a 26       		.uleb128 0x26
 11864 2d8b 8C000000 		.4byte	0x8c
 11865 2d8f 26       		.uleb128 0x26
 11866 2d90 97000000 		.4byte	0x97
 11867 2d94 26       		.uleb128 0x26
 11868 2d95 8C000000 		.4byte	0x8c
ARM GAS  C:\Users\RECEPC~1\AppData\Local\Temp\cc79eMMA.s 			page 250


 11869 2d99 00       		.byte	0
 11870 2d9a 27       		.uleb128 0x27
 11871 2d9b E1070000 		.4byte	.LASF299
 11872 2d9f 18       		.byte	0x18
 11873 2da0 15       		.byte	0x15
 11874 2da1 AD000000 		.4byte	0xad
 11875 2da5 B92D0000 		.4byte	0x2db9
 11876 2da9 26       		.uleb128 0x26
 11877 2daa AD000000 		.4byte	0xad
 11878 2dae 26       		.uleb128 0x26
 11879 2daf AD000000 		.4byte	0xad
 11880 2db3 26       		.uleb128 0x26
 11881 2db4 AD000000 		.4byte	0xad
 11882 2db8 00       		.byte	0
 11883 2db9 25       		.uleb128 0x25
 11884 2dba 9C090000 		.4byte	.LASF300
 11885 2dbe 17       		.byte	0x17
 11886 2dbf 18       		.byte	0x18
 11887 2dc0 CA2D0000 		.4byte	0x2dca
 11888 2dc4 26       		.uleb128 0x26
 11889 2dc5 14010000 		.4byte	0x114
 11890 2dc9 00       		.byte	0
 11891 2dca 24       		.uleb128 0x24
 11892 2dcb 0A040000 		.4byte	.LASF301
 11893 2dcf 09       		.byte	0x9
 11894 2dd0 5A       		.byte	0x5a
 11895 2dd1 27       		.uleb128 0x27
 11896 2dd2 01050000 		.4byte	.LASF302
 11897 2dd6 15       		.byte	0x15
 11898 2dd7 2A       		.byte	0x2a
 11899 2dd8 AD000000 		.4byte	0xad
 11900 2ddc E62D0000 		.4byte	0x2de6
 11901 2de0 26       		.uleb128 0x26
 11902 2de1 AD000000 		.4byte	0xad
 11903 2de5 00       		.byte	0
 11904 2de6 27       		.uleb128 0x27
 11905 2de7 3B120000 		.4byte	.LASF303
 11906 2deb 15       		.byte	0x15
 11907 2dec 2B       		.byte	0x2b
 11908 2ded AD000000 		.4byte	0xad
 11909 2df1 0A2E0000 		.4byte	0x2e0a
 11910 2df5 26       		.uleb128 0x26
 11911 2df6 AD000000 		.4byte	0xad
 11912 2dfa 26       		.uleb128 0x26
 11913 2dfb EB000000 		.4byte	0xeb
 11914 2dff 26       		.uleb128 0x26
 11915 2e00 B42C0000 		.4byte	0x2cb4
 11916 2e04 26       		.uleb128 0x26
 11917 2e05 AD000000 		.4byte	0xad
 11918 2e09 00       		.byte	0
 11919 2e0a 25       		.uleb128 0x25
 11920 2e0b C7010000 		.4byte	.LASF304
 11921 2e0f 0D       		.byte	0xd
 11922 2e10 8A       		.byte	0x8a
 11923 2e11 1B2E0000 		.4byte	0x2e1b
 11924 2e15 26       		.uleb128 0x26
 11925 2e16 AD000000 		.4byte	0xad
ARM GAS  C:\Users\RECEPC~1\AppData\Local\Temp\cc79eMMA.s 			page 251


 11926 2e1a 00       		.byte	0
 11927 2e1b 27       		.uleb128 0x27
 11928 2e1c 3D0A0000 		.4byte	.LASF305
 11929 2e20 15       		.byte	0x15
 11930 2e21 2C       		.byte	0x2c
 11931 2e22 AD000000 		.4byte	0xad
 11932 2e26 302E0000 		.4byte	0x2e30
 11933 2e2a 26       		.uleb128 0x26
 11934 2e2b AD000000 		.4byte	0xad
 11935 2e2f 00       		.byte	0
 11936 2e30 25       		.uleb128 0x25
 11937 2e31 78030000 		.4byte	.LASF306
 11938 2e35 19       		.byte	0x19
 11939 2e36 25       		.byte	0x25
 11940 2e37 462E0000 		.4byte	0x2e46
 11941 2e3b 26       		.uleb128 0x26
 11942 2e3c AD000000 		.4byte	0xad
 11943 2e40 26       		.uleb128 0x26
 11944 2e41 AD000000 		.4byte	0xad
 11945 2e45 00       		.byte	0
 11946 2e46 27       		.uleb128 0x27
 11947 2e47 C70C0000 		.4byte	.LASF307
 11948 2e4b 1A       		.byte	0x1a
 11949 2e4c 21       		.byte	0x21
 11950 2e4d AD000000 		.4byte	0xad
 11951 2e51 5B2E0000 		.4byte	0x2e5b
 11952 2e55 26       		.uleb128 0x26
 11953 2e56 AD000000 		.4byte	0xad
 11954 2e5a 00       		.byte	0
 11955 2e5b 27       		.uleb128 0x27
 11956 2e5c 5C0B0000 		.4byte	.LASF308
 11957 2e60 1A       		.byte	0x1a
 11958 2e61 22       		.byte	0x22
 11959 2e62 AD000000 		.4byte	0xad
 11960 2e66 752E0000 		.4byte	0x2e75
 11961 2e6a 26       		.uleb128 0x26
 11962 2e6b AD000000 		.4byte	0xad
 11963 2e6f 26       		.uleb128 0x26
 11964 2e70 AD000000 		.4byte	0xad
 11965 2e74 00       		.byte	0
 11966 2e75 27       		.uleb128 0x27
 11967 2e76 4D020000 		.4byte	.LASF309
 11968 2e7a 1A       		.byte	0x1a
 11969 2e7b 23       		.byte	0x23
 11970 2e7c AD000000 		.4byte	0xad
 11971 2e80 8A2E0000 		.4byte	0x2e8a
 11972 2e84 26       		.uleb128 0x26
 11973 2e85 AD000000 		.4byte	0xad
 11974 2e89 00       		.byte	0
 11975 2e8a 27       		.uleb128 0x27
 11976 2e8b 46050000 		.4byte	.LASF310
 11977 2e8f 1A       		.byte	0x1a
 11978 2e90 24       		.byte	0x24
 11979 2e91 AD000000 		.4byte	0xad
 11980 2e95 A42E0000 		.4byte	0x2ea4
 11981 2e99 26       		.uleb128 0x26
 11982 2e9a AD000000 		.4byte	0xad
ARM GAS  C:\Users\RECEPC~1\AppData\Local\Temp\cc79eMMA.s 			page 252


 11983 2e9e 26       		.uleb128 0x26
 11984 2e9f AD000000 		.4byte	0xad
 11985 2ea3 00       		.byte	0
 11986 2ea4 27       		.uleb128 0x27
 11987 2ea5 92020000 		.4byte	.LASF311
 11988 2ea9 1B       		.byte	0x1b
 11989 2eaa 4A       		.byte	0x4a
 11990 2eab 7E000000 		.4byte	0x7e
 11991 2eaf B92E0000 		.4byte	0x2eb9
 11992 2eb3 26       		.uleb128 0x26
 11993 2eb4 2E010000 		.4byte	0x12e
 11994 2eb8 00       		.byte	0
 11995 2eb9 28       		.uleb128 0x28
 11996 2eba 520A0000 		.4byte	.LASF312
 11997 2ebe 16       		.byte	0x16
 11998 2ebf 21       		.byte	0x21
 11999 2ec0 AD000000 		.4byte	0xad
 12000 2ec4 CA2E0000 		.4byte	0x2eca
 12001 2ec8 29       		.uleb128 0x29
 12002 2ec9 00       		.byte	0
 12003 2eca 28       		.uleb128 0x28
 12004 2ecb 5F100000 		.4byte	.LASF313
 12005 2ecf 16       		.byte	0x16
 12006 2ed0 22       		.byte	0x22
 12007 2ed1 AD000000 		.4byte	0xad
 12008 2ed5 DB2E0000 		.4byte	0x2edb
 12009 2ed9 29       		.uleb128 0x29
 12010 2eda 00       		.byte	0
 12011 2edb 25       		.uleb128 0x25
 12012 2edc 88010000 		.4byte	.LASF314
 12013 2ee0 13       		.byte	0x13
 12014 2ee1 26       		.byte	0x26
 12015 2ee2 F12E0000 		.4byte	0x2ef1
 12016 2ee6 26       		.uleb128 0x26
 12017 2ee7 AD000000 		.4byte	0xad
 12018 2eeb 26       		.uleb128 0x26
 12019 2eec AD000000 		.4byte	0xad
 12020 2ef0 00       		.byte	0
 12021 2ef1 23       		.uleb128 0x23
 12022 2ef2 07120000 		.4byte	.LASF315
 12023 2ef6 07       		.byte	0x7
 12024 2ef7 73       		.byte	0x73
 12025 2ef8 AD000000 		.4byte	0xad
 12026 2efc 24       		.uleb128 0x24
 12027 2efd 1B100000 		.4byte	.LASF316
 12028 2f01 07       		.byte	0x7
 12029 2f02 75       		.byte	0x75
 12030 2f03 23       		.uleb128 0x23
 12031 2f04 8E0F0000 		.4byte	.LASF317
 12032 2f08 1C       		.byte	0x1c
 12033 2f09 5E       		.byte	0x5e
 12034 2f0a AD000000 		.4byte	0xad
 12035 2f0e 25       		.uleb128 0x25
 12036 2f0f 3F0E0000 		.4byte	.LASF318
 12037 2f13 14       		.byte	0x14
 12038 2f14 73       		.byte	0x73
 12039 2f15 242F0000 		.4byte	0x2f24
ARM GAS  C:\Users\RECEPC~1\AppData\Local\Temp\cc79eMMA.s 			page 253


 12040 2f19 26       		.uleb128 0x26
 12041 2f1a AD000000 		.4byte	0xad
 12042 2f1e 26       		.uleb128 0x26
 12043 2f1f AD000000 		.4byte	0xad
 12044 2f23 00       		.byte	0
 12045 2f24 24       		.uleb128 0x24
 12046 2f25 97080000 		.4byte	.LASF319
 12047 2f29 14       		.byte	0x14
 12048 2f2a 74       		.byte	0x74
 12049 2f2b 24       		.uleb128 0x24
 12050 2f2c 47100000 		.4byte	.LASF320
 12051 2f30 1D       		.byte	0x1d
 12052 2f31 12       		.byte	0x12
 12053 2f32 24       		.uleb128 0x24
 12054 2f33 83110000 		.4byte	.LASF321
 12055 2f37 1D       		.byte	0x1d
 12056 2f38 13       		.byte	0x13
 12057 2f39 00       		.byte	0
 12058              		.section	.debug_abbrev,"",%progbits
 12059              	.Ldebug_abbrev0:
 12060 0000 01       		.uleb128 0x1
 12061 0001 11       		.uleb128 0x11
 12062 0002 01       		.byte	0x1
 12063 0003 25       		.uleb128 0x25
 12064 0004 0E       		.uleb128 0xe
 12065 0005 13       		.uleb128 0x13
 12066 0006 0B       		.uleb128 0xb
 12067 0007 03       		.uleb128 0x3
 12068 0008 0E       		.uleb128 0xe
 12069 0009 1B       		.uleb128 0x1b
 12070 000a 0E       		.uleb128 0xe
 12071 000b 55       		.uleb128 0x55
 12072 000c 17       		.uleb128 0x17
 12073 000d 11       		.uleb128 0x11
 12074 000e 01       		.uleb128 0x1
 12075 000f 10       		.uleb128 0x10
 12076 0010 17       		.uleb128 0x17
 12077 0011 00       		.byte	0
 12078 0012 00       		.byte	0
 12079 0013 02       		.uleb128 0x2
 12080 0014 24       		.uleb128 0x24
 12081 0015 00       		.byte	0
 12082 0016 0B       		.uleb128 0xb
 12083 0017 0B       		.uleb128 0xb
 12084 0018 3E       		.uleb128 0x3e
 12085 0019 0B       		.uleb128 0xb
 12086 001a 03       		.uleb128 0x3
 12087 001b 0E       		.uleb128 0xe
 12088 001c 00       		.byte	0
 12089 001d 00       		.byte	0
 12090 001e 03       		.uleb128 0x3
 12091 001f 16       		.uleb128 0x16
 12092 0020 00       		.byte	0
 12093 0021 03       		.uleb128 0x3
 12094 0022 0E       		.uleb128 0xe
 12095 0023 3A       		.uleb128 0x3a
 12096 0024 0B       		.uleb128 0xb
ARM GAS  C:\Users\RECEPC~1\AppData\Local\Temp\cc79eMMA.s 			page 254


 12097 0025 3B       		.uleb128 0x3b
 12098 0026 0B       		.uleb128 0xb
 12099 0027 49       		.uleb128 0x49
 12100 0028 13       		.uleb128 0x13
 12101 0029 00       		.byte	0
 12102 002a 00       		.byte	0
 12103 002b 04       		.uleb128 0x4
 12104 002c 24       		.uleb128 0x24
 12105 002d 00       		.byte	0
 12106 002e 0B       		.uleb128 0xb
 12107 002f 0B       		.uleb128 0xb
 12108 0030 3E       		.uleb128 0x3e
 12109 0031 0B       		.uleb128 0xb
 12110 0032 03       		.uleb128 0x3
 12111 0033 08       		.uleb128 0x8
 12112 0034 00       		.byte	0
 12113 0035 00       		.byte	0
 12114 0036 05       		.uleb128 0x5
 12115 0037 16       		.uleb128 0x16
 12116 0038 00       		.byte	0
 12117 0039 03       		.uleb128 0x3
 12118 003a 0E       		.uleb128 0xe
 12119 003b 3A       		.uleb128 0x3a
 12120 003c 0B       		.uleb128 0xb
 12121 003d 3B       		.uleb128 0x3b
 12122 003e 05       		.uleb128 0x5
 12123 003f 49       		.uleb128 0x49
 12124 0040 13       		.uleb128 0x13
 12125 0041 00       		.byte	0
 12126 0042 00       		.byte	0
 12127 0043 06       		.uleb128 0x6
 12128 0044 35       		.uleb128 0x35
 12129 0045 00       		.byte	0
 12130 0046 49       		.uleb128 0x49
 12131 0047 13       		.uleb128 0x13
 12132 0048 00       		.byte	0
 12133 0049 00       		.byte	0
 12134 004a 07       		.uleb128 0x7
 12135 004b 0F       		.uleb128 0xf
 12136 004c 00       		.byte	0
 12137 004d 0B       		.uleb128 0xb
 12138 004e 0B       		.uleb128 0xb
 12139 004f 49       		.uleb128 0x49
 12140 0050 13       		.uleb128 0x13
 12141 0051 00       		.byte	0
 12142 0052 00       		.byte	0
 12143 0053 08       		.uleb128 0x8
 12144 0054 15       		.uleb128 0x15
 12145 0055 00       		.byte	0
 12146 0056 27       		.uleb128 0x27
 12147 0057 19       		.uleb128 0x19
 12148 0058 00       		.byte	0
 12149 0059 00       		.byte	0
 12150 005a 09       		.uleb128 0x9
 12151 005b 26       		.uleb128 0x26
 12152 005c 00       		.byte	0
 12153 005d 49       		.uleb128 0x49
ARM GAS  C:\Users\RECEPC~1\AppData\Local\Temp\cc79eMMA.s 			page 255


 12154 005e 13       		.uleb128 0x13
 12155 005f 00       		.byte	0
 12156 0060 00       		.byte	0
 12157 0061 0A       		.uleb128 0xa
 12158 0062 01       		.uleb128 0x1
 12159 0063 01       		.byte	0x1
 12160 0064 49       		.uleb128 0x49
 12161 0065 13       		.uleb128 0x13
 12162 0066 01       		.uleb128 0x1
 12163 0067 13       		.uleb128 0x13
 12164 0068 00       		.byte	0
 12165 0069 00       		.byte	0
 12166 006a 0B       		.uleb128 0xb
 12167 006b 21       		.uleb128 0x21
 12168 006c 00       		.byte	0
 12169 006d 49       		.uleb128 0x49
 12170 006e 13       		.uleb128 0x13
 12171 006f 2F       		.uleb128 0x2f
 12172 0070 0B       		.uleb128 0xb
 12173 0071 00       		.byte	0
 12174 0072 00       		.byte	0
 12175 0073 0C       		.uleb128 0xc
 12176 0074 13       		.uleb128 0x13
 12177 0075 01       		.byte	0x1
 12178 0076 03       		.uleb128 0x3
 12179 0077 0E       		.uleb128 0xe
 12180 0078 0B       		.uleb128 0xb
 12181 0079 05       		.uleb128 0x5
 12182 007a 3A       		.uleb128 0x3a
 12183 007b 0B       		.uleb128 0xb
 12184 007c 3B       		.uleb128 0x3b
 12185 007d 0B       		.uleb128 0xb
 12186 007e 01       		.uleb128 0x1
 12187 007f 13       		.uleb128 0x13
 12188 0080 00       		.byte	0
 12189 0081 00       		.byte	0
 12190 0082 0D       		.uleb128 0xd
 12191 0083 0D       		.uleb128 0xd
 12192 0084 00       		.byte	0
 12193 0085 03       		.uleb128 0x3
 12194 0086 0E       		.uleb128 0xe
 12195 0087 3A       		.uleb128 0x3a
 12196 0088 0B       		.uleb128 0xb
 12197 0089 3B       		.uleb128 0x3b
 12198 008a 0B       		.uleb128 0xb
 12199 008b 49       		.uleb128 0x49
 12200 008c 13       		.uleb128 0x13
 12201 008d 38       		.uleb128 0x38
 12202 008e 0B       		.uleb128 0xb
 12203 008f 00       		.byte	0
 12204 0090 00       		.byte	0
 12205 0091 0E       		.uleb128 0xe
 12206 0092 0D       		.uleb128 0xd
 12207 0093 00       		.byte	0
 12208 0094 03       		.uleb128 0x3
 12209 0095 0E       		.uleb128 0xe
 12210 0096 3A       		.uleb128 0x3a
ARM GAS  C:\Users\RECEPC~1\AppData\Local\Temp\cc79eMMA.s 			page 256


 12211 0097 0B       		.uleb128 0xb
 12212 0098 3B       		.uleb128 0x3b
 12213 0099 0B       		.uleb128 0xb
 12214 009a 49       		.uleb128 0x49
 12215 009b 13       		.uleb128 0x13
 12216 009c 38       		.uleb128 0x38
 12217 009d 05       		.uleb128 0x5
 12218 009e 00       		.byte	0
 12219 009f 00       		.byte	0
 12220 00a0 0F       		.uleb128 0xf
 12221 00a1 0D       		.uleb128 0xd
 12222 00a2 00       		.byte	0
 12223 00a3 03       		.uleb128 0x3
 12224 00a4 08       		.uleb128 0x8
 12225 00a5 3A       		.uleb128 0x3a
 12226 00a6 0B       		.uleb128 0xb
 12227 00a7 3B       		.uleb128 0x3b
 12228 00a8 0B       		.uleb128 0xb
 12229 00a9 49       		.uleb128 0x49
 12230 00aa 13       		.uleb128 0x13
 12231 00ab 38       		.uleb128 0x38
 12232 00ac 0B       		.uleb128 0xb
 12233 00ad 00       		.byte	0
 12234 00ae 00       		.byte	0
 12235 00af 10       		.uleb128 0x10
 12236 00b0 0D       		.uleb128 0xd
 12237 00b1 00       		.byte	0
 12238 00b2 03       		.uleb128 0x3
 12239 00b3 08       		.uleb128 0x8
 12240 00b4 3A       		.uleb128 0x3a
 12241 00b5 0B       		.uleb128 0xb
 12242 00b6 3B       		.uleb128 0x3b
 12243 00b7 0B       		.uleb128 0xb
 12244 00b8 49       		.uleb128 0x49
 12245 00b9 13       		.uleb128 0x13
 12246 00ba 38       		.uleb128 0x38
 12247 00bb 05       		.uleb128 0x5
 12248 00bc 00       		.byte	0
 12249 00bd 00       		.byte	0
 12250 00be 11       		.uleb128 0x11
 12251 00bf 04       		.uleb128 0x4
 12252 00c0 01       		.byte	0x1
 12253 00c1 03       		.uleb128 0x3
 12254 00c2 0E       		.uleb128 0xe
 12255 00c3 0B       		.uleb128 0xb
 12256 00c4 0B       		.uleb128 0xb
 12257 00c5 3A       		.uleb128 0x3a
 12258 00c6 0B       		.uleb128 0xb
 12259 00c7 3B       		.uleb128 0x3b
 12260 00c8 0B       		.uleb128 0xb
 12261 00c9 01       		.uleb128 0x1
 12262 00ca 13       		.uleb128 0x13
 12263 00cb 00       		.byte	0
 12264 00cc 00       		.byte	0
 12265 00cd 12       		.uleb128 0x12
 12266 00ce 28       		.uleb128 0x28
 12267 00cf 00       		.byte	0
ARM GAS  C:\Users\RECEPC~1\AppData\Local\Temp\cc79eMMA.s 			page 257


 12268 00d0 03       		.uleb128 0x3
 12269 00d1 0E       		.uleb128 0xe
 12270 00d2 1C       		.uleb128 0x1c
 12271 00d3 0D       		.uleb128 0xd
 12272 00d4 00       		.byte	0
 12273 00d5 00       		.byte	0
 12274 00d6 13       		.uleb128 0x13
 12275 00d7 04       		.uleb128 0x4
 12276 00d8 01       		.byte	0x1
 12277 00d9 03       		.uleb128 0x3
 12278 00da 0E       		.uleb128 0xe
 12279 00db 0B       		.uleb128 0xb
 12280 00dc 0B       		.uleb128 0xb
 12281 00dd 3A       		.uleb128 0x3a
 12282 00de 0B       		.uleb128 0xb
 12283 00df 3B       		.uleb128 0x3b
 12284 00e0 05       		.uleb128 0x5
 12285 00e1 01       		.uleb128 0x1
 12286 00e2 13       		.uleb128 0x13
 12287 00e3 00       		.byte	0
 12288 00e4 00       		.byte	0
 12289 00e5 14       		.uleb128 0x14
 12290 00e6 2E       		.uleb128 0x2e
 12291 00e7 01       		.byte	0x1
 12292 00e8 3F       		.uleb128 0x3f
 12293 00e9 19       		.uleb128 0x19
 12294 00ea 03       		.uleb128 0x3
 12295 00eb 0E       		.uleb128 0xe
 12296 00ec 3A       		.uleb128 0x3a
 12297 00ed 0B       		.uleb128 0xb
 12298 00ee 3B       		.uleb128 0x3b
 12299 00ef 05       		.uleb128 0x5
 12300 00f0 27       		.uleb128 0x27
 12301 00f1 19       		.uleb128 0x19
 12302 00f2 11       		.uleb128 0x11
 12303 00f3 01       		.uleb128 0x1
 12304 00f4 12       		.uleb128 0x12
 12305 00f5 06       		.uleb128 0x6
 12306 00f6 40       		.uleb128 0x40
 12307 00f7 18       		.uleb128 0x18
 12308 00f8 9742     		.uleb128 0x2117
 12309 00fa 19       		.uleb128 0x19
 12310 00fb 01       		.uleb128 0x1
 12311 00fc 13       		.uleb128 0x13
 12312 00fd 00       		.byte	0
 12313 00fe 00       		.byte	0
 12314 00ff 15       		.uleb128 0x15
 12315 0100 898201   		.uleb128 0x4109
 12316 0103 00       		.byte	0
 12317 0104 11       		.uleb128 0x11
 12318 0105 01       		.uleb128 0x1
 12319 0106 31       		.uleb128 0x31
 12320 0107 13       		.uleb128 0x13
 12321 0108 00       		.byte	0
 12322 0109 00       		.byte	0
 12323 010a 16       		.uleb128 0x16
 12324 010b 2E       		.uleb128 0x2e
ARM GAS  C:\Users\RECEPC~1\AppData\Local\Temp\cc79eMMA.s 			page 258


 12325 010c 01       		.byte	0x1
 12326 010d 3F       		.uleb128 0x3f
 12327 010e 19       		.uleb128 0x19
 12328 010f 03       		.uleb128 0x3
 12329 0110 0E       		.uleb128 0xe
 12330 0111 3A       		.uleb128 0x3a
 12331 0112 0B       		.uleb128 0xb
 12332 0113 3B       		.uleb128 0x3b
 12333 0114 0B       		.uleb128 0xb
 12334 0115 11       		.uleb128 0x11
 12335 0116 01       		.uleb128 0x1
 12336 0117 12       		.uleb128 0x12
 12337 0118 06       		.uleb128 0x6
 12338 0119 40       		.uleb128 0x40
 12339 011a 18       		.uleb128 0x18
 12340 011b 9742     		.uleb128 0x2117
 12341 011d 19       		.uleb128 0x19
 12342 011e 01       		.uleb128 0x1
 12343 011f 13       		.uleb128 0x13
 12344 0120 00       		.byte	0
 12345 0121 00       		.byte	0
 12346 0122 17       		.uleb128 0x17
 12347 0123 898201   		.uleb128 0x4109
 12348 0126 01       		.byte	0x1
 12349 0127 11       		.uleb128 0x11
 12350 0128 01       		.uleb128 0x1
 12351 0129 31       		.uleb128 0x31
 12352 012a 13       		.uleb128 0x13
 12353 012b 01       		.uleb128 0x1
 12354 012c 13       		.uleb128 0x13
 12355 012d 00       		.byte	0
 12356 012e 00       		.byte	0
 12357 012f 18       		.uleb128 0x18
 12358 0130 8A8201   		.uleb128 0x410a
 12359 0133 00       		.byte	0
 12360 0134 02       		.uleb128 0x2
 12361 0135 18       		.uleb128 0x18
 12362 0136 9142     		.uleb128 0x2111
 12363 0138 18       		.uleb128 0x18
 12364 0139 00       		.byte	0
 12365 013a 00       		.byte	0
 12366 013b 19       		.uleb128 0x19
 12367 013c 898201   		.uleb128 0x4109
 12368 013f 01       		.byte	0x1
 12369 0140 11       		.uleb128 0x11
 12370 0141 01       		.uleb128 0x1
 12371 0142 31       		.uleb128 0x31
 12372 0143 13       		.uleb128 0x13
 12373 0144 00       		.byte	0
 12374 0145 00       		.byte	0
 12375 0146 1A       		.uleb128 0x1a
 12376 0147 34       		.uleb128 0x34
 12377 0148 00       		.byte	0
 12378 0149 03       		.uleb128 0x3
 12379 014a 08       		.uleb128 0x8
 12380 014b 3A       		.uleb128 0x3a
 12381 014c 0B       		.uleb128 0xb
ARM GAS  C:\Users\RECEPC~1\AppData\Local\Temp\cc79eMMA.s 			page 259


 12382 014d 3B       		.uleb128 0x3b
 12383 014e 0B       		.uleb128 0xb
 12384 014f 49       		.uleb128 0x49
 12385 0150 13       		.uleb128 0x13
 12386 0151 00       		.byte	0
 12387 0152 00       		.byte	0
 12388 0153 1B       		.uleb128 0x1b
 12389 0154 34       		.uleb128 0x34
 12390 0155 00       		.byte	0
 12391 0156 03       		.uleb128 0x3
 12392 0157 0E       		.uleb128 0xe
 12393 0158 3A       		.uleb128 0x3a
 12394 0159 0B       		.uleb128 0xb
 12395 015a 3B       		.uleb128 0x3b
 12396 015b 0B       		.uleb128 0xb
 12397 015c 49       		.uleb128 0x49
 12398 015d 13       		.uleb128 0x13
 12399 015e 02       		.uleb128 0x2
 12400 015f 18       		.uleb128 0x18
 12401 0160 00       		.byte	0
 12402 0161 00       		.byte	0
 12403 0162 1C       		.uleb128 0x1c
 12404 0163 2E       		.uleb128 0x2e
 12405 0164 01       		.byte	0x1
 12406 0165 3F       		.uleb128 0x3f
 12407 0166 19       		.uleb128 0x19
 12408 0167 03       		.uleb128 0x3
 12409 0168 0E       		.uleb128 0xe
 12410 0169 3A       		.uleb128 0x3a
 12411 016a 0B       		.uleb128 0xb
 12412 016b 3B       		.uleb128 0x3b
 12413 016c 05       		.uleb128 0x5
 12414 016d 11       		.uleb128 0x11
 12415 016e 01       		.uleb128 0x1
 12416 016f 12       		.uleb128 0x12
 12417 0170 06       		.uleb128 0x6
 12418 0171 40       		.uleb128 0x40
 12419 0172 18       		.uleb128 0x18
 12420 0173 9742     		.uleb128 0x2117
 12421 0175 19       		.uleb128 0x19
 12422 0176 01       		.uleb128 0x1
 12423 0177 13       		.uleb128 0x13
 12424 0178 00       		.byte	0
 12425 0179 00       		.byte	0
 12426 017a 1D       		.uleb128 0x1d
 12427 017b 34       		.uleb128 0x34
 12428 017c 00       		.byte	0
 12429 017d 03       		.uleb128 0x3
 12430 017e 0E       		.uleb128 0xe
 12431 017f 3A       		.uleb128 0x3a
 12432 0180 0B       		.uleb128 0xb
 12433 0181 3B       		.uleb128 0x3b
 12434 0182 05       		.uleb128 0x5
 12435 0183 49       		.uleb128 0x49
 12436 0184 13       		.uleb128 0x13
 12437 0185 02       		.uleb128 0x2
 12438 0186 18       		.uleb128 0x18
ARM GAS  C:\Users\RECEPC~1\AppData\Local\Temp\cc79eMMA.s 			page 260


 12439 0187 00       		.byte	0
 12440 0188 00       		.byte	0
 12441 0189 1E       		.uleb128 0x1e
 12442 018a 34       		.uleb128 0x34
 12443 018b 00       		.byte	0
 12444 018c 03       		.uleb128 0x3
 12445 018d 08       		.uleb128 0x8
 12446 018e 3A       		.uleb128 0x3a
 12447 018f 0B       		.uleb128 0xb
 12448 0190 3B       		.uleb128 0x3b
 12449 0191 05       		.uleb128 0x5
 12450 0192 49       		.uleb128 0x49
 12451 0193 13       		.uleb128 0x13
 12452 0194 02       		.uleb128 0x2
 12453 0195 17       		.uleb128 0x17
 12454 0196 00       		.byte	0
 12455 0197 00       		.byte	0
 12456 0198 1F       		.uleb128 0x1f
 12457 0199 2E       		.uleb128 0x2e
 12458 019a 01       		.byte	0x1
 12459 019b 3F       		.uleb128 0x3f
 12460 019c 19       		.uleb128 0x19
 12461 019d 03       		.uleb128 0x3
 12462 019e 0E       		.uleb128 0xe
 12463 019f 3A       		.uleb128 0x3a
 12464 01a0 0B       		.uleb128 0xb
 12465 01a1 3B       		.uleb128 0x3b
 12466 01a2 05       		.uleb128 0x5
 12467 01a3 49       		.uleb128 0x49
 12468 01a4 13       		.uleb128 0x13
 12469 01a5 11       		.uleb128 0x11
 12470 01a6 01       		.uleb128 0x1
 12471 01a7 12       		.uleb128 0x12
 12472 01a8 06       		.uleb128 0x6
 12473 01a9 40       		.uleb128 0x40
 12474 01aa 18       		.uleb128 0x18
 12475 01ab 9742     		.uleb128 0x2117
 12476 01ad 19       		.uleb128 0x19
 12477 01ae 01       		.uleb128 0x1
 12478 01af 13       		.uleb128 0x13
 12479 01b0 00       		.byte	0
 12480 01b1 00       		.byte	0
 12481 01b2 20       		.uleb128 0x20
 12482 01b3 34       		.uleb128 0x34
 12483 01b4 00       		.byte	0
 12484 01b5 03       		.uleb128 0x3
 12485 01b6 0E       		.uleb128 0xe
 12486 01b7 3A       		.uleb128 0x3a
 12487 01b8 0B       		.uleb128 0xb
 12488 01b9 3B       		.uleb128 0x3b
 12489 01ba 05       		.uleb128 0x5
 12490 01bb 49       		.uleb128 0x49
 12491 01bc 13       		.uleb128 0x13
 12492 01bd 3F       		.uleb128 0x3f
 12493 01be 19       		.uleb128 0x19
 12494 01bf 3C       		.uleb128 0x3c
 12495 01c0 19       		.uleb128 0x19
ARM GAS  C:\Users\RECEPC~1\AppData\Local\Temp\cc79eMMA.s 			page 261


 12496 01c1 00       		.byte	0
 12497 01c2 00       		.byte	0
 12498 01c3 21       		.uleb128 0x21
 12499 01c4 34       		.uleb128 0x34
 12500 01c5 00       		.byte	0
 12501 01c6 03       		.uleb128 0x3
 12502 01c7 0E       		.uleb128 0xe
 12503 01c8 3A       		.uleb128 0x3a
 12504 01c9 0B       		.uleb128 0xb
 12505 01ca 3B       		.uleb128 0x3b
 12506 01cb 0B       		.uleb128 0xb
 12507 01cc 49       		.uleb128 0x49
 12508 01cd 13       		.uleb128 0x13
 12509 01ce 3F       		.uleb128 0x3f
 12510 01cf 19       		.uleb128 0x19
 12511 01d0 02       		.uleb128 0x2
 12512 01d1 18       		.uleb128 0x18
 12513 01d2 00       		.byte	0
 12514 01d3 00       		.byte	0
 12515 01d4 22       		.uleb128 0x22
 12516 01d5 21       		.uleb128 0x21
 12517 01d6 00       		.byte	0
 12518 01d7 49       		.uleb128 0x49
 12519 01d8 13       		.uleb128 0x13
 12520 01d9 2F       		.uleb128 0x2f
 12521 01da 05       		.uleb128 0x5
 12522 01db 00       		.byte	0
 12523 01dc 00       		.byte	0
 12524 01dd 23       		.uleb128 0x23
 12525 01de 2E       		.uleb128 0x2e
 12526 01df 00       		.byte	0
 12527 01e0 3F       		.uleb128 0x3f
 12528 01e1 19       		.uleb128 0x19
 12529 01e2 03       		.uleb128 0x3
 12530 01e3 0E       		.uleb128 0xe
 12531 01e4 3A       		.uleb128 0x3a
 12532 01e5 0B       		.uleb128 0xb
 12533 01e6 3B       		.uleb128 0x3b
 12534 01e7 0B       		.uleb128 0xb
 12535 01e8 27       		.uleb128 0x27
 12536 01e9 19       		.uleb128 0x19
 12537 01ea 49       		.uleb128 0x49
 12538 01eb 13       		.uleb128 0x13
 12539 01ec 3C       		.uleb128 0x3c
 12540 01ed 19       		.uleb128 0x19
 12541 01ee 00       		.byte	0
 12542 01ef 00       		.byte	0
 12543 01f0 24       		.uleb128 0x24
 12544 01f1 2E       		.uleb128 0x2e
 12545 01f2 00       		.byte	0
 12546 01f3 3F       		.uleb128 0x3f
 12547 01f4 19       		.uleb128 0x19
 12548 01f5 03       		.uleb128 0x3
 12549 01f6 0E       		.uleb128 0xe
 12550 01f7 3A       		.uleb128 0x3a
 12551 01f8 0B       		.uleb128 0xb
 12552 01f9 3B       		.uleb128 0x3b
ARM GAS  C:\Users\RECEPC~1\AppData\Local\Temp\cc79eMMA.s 			page 262


 12553 01fa 0B       		.uleb128 0xb
 12554 01fb 27       		.uleb128 0x27
 12555 01fc 19       		.uleb128 0x19
 12556 01fd 3C       		.uleb128 0x3c
 12557 01fe 19       		.uleb128 0x19
 12558 01ff 00       		.byte	0
 12559 0200 00       		.byte	0
 12560 0201 25       		.uleb128 0x25
 12561 0202 2E       		.uleb128 0x2e
 12562 0203 01       		.byte	0x1
 12563 0204 3F       		.uleb128 0x3f
 12564 0205 19       		.uleb128 0x19
 12565 0206 03       		.uleb128 0x3
 12566 0207 0E       		.uleb128 0xe
 12567 0208 3A       		.uleb128 0x3a
 12568 0209 0B       		.uleb128 0xb
 12569 020a 3B       		.uleb128 0x3b
 12570 020b 0B       		.uleb128 0xb
 12571 020c 27       		.uleb128 0x27
 12572 020d 19       		.uleb128 0x19
 12573 020e 3C       		.uleb128 0x3c
 12574 020f 19       		.uleb128 0x19
 12575 0210 01       		.uleb128 0x1
 12576 0211 13       		.uleb128 0x13
 12577 0212 00       		.byte	0
 12578 0213 00       		.byte	0
 12579 0214 26       		.uleb128 0x26
 12580 0215 05       		.uleb128 0x5
 12581 0216 00       		.byte	0
 12582 0217 49       		.uleb128 0x49
 12583 0218 13       		.uleb128 0x13
 12584 0219 00       		.byte	0
 12585 021a 00       		.byte	0
 12586 021b 27       		.uleb128 0x27
 12587 021c 2E       		.uleb128 0x2e
 12588 021d 01       		.byte	0x1
 12589 021e 3F       		.uleb128 0x3f
 12590 021f 19       		.uleb128 0x19
 12591 0220 03       		.uleb128 0x3
 12592 0221 0E       		.uleb128 0xe
 12593 0222 3A       		.uleb128 0x3a
 12594 0223 0B       		.uleb128 0xb
 12595 0224 3B       		.uleb128 0x3b
 12596 0225 0B       		.uleb128 0xb
 12597 0226 27       		.uleb128 0x27
 12598 0227 19       		.uleb128 0x19
 12599 0228 49       		.uleb128 0x49
 12600 0229 13       		.uleb128 0x13
 12601 022a 3C       		.uleb128 0x3c
 12602 022b 19       		.uleb128 0x19
 12603 022c 01       		.uleb128 0x1
 12604 022d 13       		.uleb128 0x13
 12605 022e 00       		.byte	0
 12606 022f 00       		.byte	0
 12607 0230 28       		.uleb128 0x28
 12608 0231 2E       		.uleb128 0x2e
 12609 0232 01       		.byte	0x1
ARM GAS  C:\Users\RECEPC~1\AppData\Local\Temp\cc79eMMA.s 			page 263


 12610 0233 3F       		.uleb128 0x3f
 12611 0234 19       		.uleb128 0x19
 12612 0235 03       		.uleb128 0x3
 12613 0236 0E       		.uleb128 0xe
 12614 0237 3A       		.uleb128 0x3a
 12615 0238 0B       		.uleb128 0xb
 12616 0239 3B       		.uleb128 0x3b
 12617 023a 0B       		.uleb128 0xb
 12618 023b 49       		.uleb128 0x49
 12619 023c 13       		.uleb128 0x13
 12620 023d 3C       		.uleb128 0x3c
 12621 023e 19       		.uleb128 0x19
 12622 023f 01       		.uleb128 0x1
 12623 0240 13       		.uleb128 0x13
 12624 0241 00       		.byte	0
 12625 0242 00       		.byte	0
 12626 0243 29       		.uleb128 0x29
 12627 0244 18       		.uleb128 0x18
 12628 0245 00       		.byte	0
 12629 0246 00       		.byte	0
 12630 0247 00       		.byte	0
 12631 0248 00       		.byte	0
 12632              		.section	.debug_loc,"",%progbits
 12633              	.Ldebug_loc0:
 12634              	.LLST0:
 12635 0000 28000000 		.4byte	.LVL85
 12636 0004 2C000000 		.4byte	.LVL86
 12637 0008 0200     		.2byte	0x2
 12638 000a 30       		.byte	0x30
 12639 000b 9F       		.byte	0x9f
 12640 000c 2C000000 		.4byte	.LVL86
 12641 0010 3C000000 		.4byte	.LVL88
 12642 0014 0100     		.2byte	0x1
 12643 0016 54       		.byte	0x54
 12644 0017 3E000000 		.4byte	.LVL89
 12645 001b 72000000 		.4byte	.LVL95
 12646 001f 0100     		.2byte	0x1
 12647 0021 54       		.byte	0x54
 12648 0022 72000000 		.4byte	.LVL95
 12649 0026 76000000 		.4byte	.LVL96
 12650 002a 0200     		.2byte	0x2
 12651 002c 30       		.byte	0x30
 12652 002d 9F       		.byte	0x9f
 12653 002e 76000000 		.4byte	.LVL96
 12654 0032 86000000 		.4byte	.LVL98
 12655 0036 0100     		.2byte	0x1
 12656 0038 54       		.byte	0x54
 12657 0039 88000000 		.4byte	.LVL99
 12658 003d C0000000 		.4byte	.LVL106
 12659 0041 0100     		.2byte	0x1
 12660 0043 54       		.byte	0x54
 12661 0044 00000000 		.4byte	0
 12662 0048 00000000 		.4byte	0
 12663              	.LLST1:
 12664 004c 3A000000 		.4byte	.LVL111
 12665 0050 44000000 		.4byte	.LVL112
 12666 0054 0100     		.2byte	0x1
ARM GAS  C:\Users\RECEPC~1\AppData\Local\Temp\cc79eMMA.s 			page 264


 12667 0056 53       		.byte	0x53
 12668 0057 46000000 		.4byte	.LVL113
 12669 005b 48000000 		.4byte	.LVL114
 12670 005f 0100     		.2byte	0x1
 12671 0061 53       		.byte	0x53
 12672 0062 4A000000 		.4byte	.LVL115
 12673 0066 4E000000 		.4byte	.LVL116
 12674 006a 0100     		.2byte	0x1
 12675 006c 53       		.byte	0x53
 12676 006d 00000000 		.4byte	0
 12677 0071 00000000 		.4byte	0
 12678              	.LLST2:
 12679 0075 38020000 		.4byte	.LVL156
 12680 0079 3C020000 		.4byte	.LVL157
 12681 007d 0200     		.2byte	0x2
 12682 007f 31       		.byte	0x31
 12683 0080 9F       		.byte	0x9f
 12684 0081 3C020000 		.4byte	.LVL157
 12685 0085 48020000 		.4byte	.LVL158
 12686 0089 0100     		.2byte	0x1
 12687 008b 53       		.byte	0x53
 12688 008c 4A020000 		.4byte	.LVL159
 12689 0090 58020000 		.4byte	.LVL160
 12690 0094 0100     		.2byte	0x1
 12691 0096 53       		.byte	0x53
 12692 0097 68020000 		.4byte	.LVL161
 12693 009b 6C020000 		.4byte	.LVL162
 12694 009f 0200     		.2byte	0x2
 12695 00a1 30       		.byte	0x30
 12696 00a2 9F       		.byte	0x9f
 12697 00a3 6C020000 		.4byte	.LVL162
 12698 00a7 7A020000 		.4byte	.LVL163
 12699 00ab 0100     		.2byte	0x1
 12700 00ad 53       		.byte	0x53
 12701 00ae 7C020000 		.4byte	.LVL164
 12702 00b2 84020000 		.4byte	.LVL165
 12703 00b6 0100     		.2byte	0x1
 12704 00b8 53       		.byte	0x53
 12705 00b9 10030000 		.4byte	.LVL174
 12706 00bd 22030000 		.4byte	.LVL175
 12707 00c1 0100     		.2byte	0x1
 12708 00c3 53       		.byte	0x53
 12709 00c4 24030000 		.4byte	.LVL176
 12710 00c8 26030000 		.4byte	.LVL177
 12711 00cc 0100     		.2byte	0x1
 12712 00ce 53       		.byte	0x53
 12713 00cf 28030000 		.4byte	.LVL178
 12714 00d3 36030000 		.4byte	.LVL179
 12715 00d7 0100     		.2byte	0x1
 12716 00d9 53       		.byte	0x53
 12717 00da 38070000 		.4byte	.LVL228
 12718 00de 44070000 		.4byte	.LVL229
 12719 00e2 0100     		.2byte	0x1
 12720 00e4 53       		.byte	0x53
 12721 00e5 46070000 		.4byte	.LVL230
 12722 00e9 48070000 		.4byte	.LVL231
 12723 00ed 0100     		.2byte	0x1
ARM GAS  C:\Users\RECEPC~1\AppData\Local\Temp\cc79eMMA.s 			page 265


 12724 00ef 53       		.byte	0x53
 12725 00f0 4A070000 		.4byte	.LVL232
 12726 00f4 52070000 		.4byte	.LVL233
 12727 00f8 0100     		.2byte	0x1
 12728 00fa 53       		.byte	0x53
 12729 00fb 5E070000 		.4byte	.LVL235
 12730 00ff 6A070000 		.4byte	.LVL236
 12731 0103 0100     		.2byte	0x1
 12732 0105 53       		.byte	0x53
 12733 0106 6C070000 		.4byte	.LVL237
 12734 010a 6E070000 		.4byte	.LVL238
 12735 010e 0100     		.2byte	0x1
 12736 0110 53       		.byte	0x53
 12737 0111 70070000 		.4byte	.LVL239
 12738 0115 82070000 		.4byte	.LVL240
 12739 0119 0100     		.2byte	0x1
 12740 011b 53       		.byte	0x53
 12741 011c 84070000 		.4byte	.LVL241
 12742 0120 86070000 		.4byte	.LVL242
 12743 0124 0100     		.2byte	0x1
 12744 0126 53       		.byte	0x53
 12745 0127 88070000 		.4byte	.LVL243
 12746 012b 9A070000 		.4byte	.LVL244
 12747 012f 0100     		.2byte	0x1
 12748 0131 53       		.byte	0x53
 12749 0132 9C070000 		.4byte	.LVL245
 12750 0136 9E070000 		.4byte	.LVL246
 12751 013a 0100     		.2byte	0x1
 12752 013c 53       		.byte	0x53
 12753 013d A0070000 		.4byte	.LVL247
 12754 0141 A4070000 		.4byte	.LVL248
 12755 0145 0100     		.2byte	0x1
 12756 0147 53       		.byte	0x53
 12757 0148 C2070000 		.4byte	.LVL250
 12758 014c D0070000 		.4byte	.LVL251
 12759 0150 0100     		.2byte	0x1
 12760 0152 53       		.byte	0x53
 12761 0153 D2070000 		.4byte	.LVL252
 12762 0157 F4070000 		.4byte	.LVL253
 12763 015b 0100     		.2byte	0x1
 12764 015d 53       		.byte	0x53
 12765 015e F6070000 		.4byte	.LVL254
 12766 0162 02080000 		.4byte	.LVL255
 12767 0166 0100     		.2byte	0x1
 12768 0168 53       		.byte	0x53
 12769 0169 32080000 		.4byte	.LVL259
 12770 016d 40080000 		.4byte	.LVL260
 12771 0171 0100     		.2byte	0x1
 12772 0173 53       		.byte	0x53
 12773 0174 42080000 		.4byte	.LVL261
 12774 0178 44080000 		.4byte	.LVL262
 12775 017c 0100     		.2byte	0x1
 12776 017e 53       		.byte	0x53
 12777 017f 46080000 		.4byte	.LVL263
 12778 0183 54080000 		.4byte	.LVL264
 12779 0187 0100     		.2byte	0x1
 12780 0189 53       		.byte	0x53
ARM GAS  C:\Users\RECEPC~1\AppData\Local\Temp\cc79eMMA.s 			page 266


 12781 018a 5E080000 		.4byte	.LVL266
 12782 018e 6C080000 		.4byte	.LVL267
 12783 0192 0100     		.2byte	0x1
 12784 0194 53       		.byte	0x53
 12785 0195 6E080000 		.4byte	.LVL268
 12786 0199 70080000 		.4byte	.LVL269
 12787 019d 0100     		.2byte	0x1
 12788 019f 53       		.byte	0x53
 12789 01a0 72080000 		.4byte	.LVL270
 12790 01a4 7C080000 		.4byte	.LVL271
 12791 01a8 0100     		.2byte	0x1
 12792 01aa 53       		.byte	0x53
 12793 01ab 80080000 		.4byte	.LVL272
 12794 01af 8E080000 		.4byte	.LVL273
 12795 01b3 0100     		.2byte	0x1
 12796 01b5 53       		.byte	0x53
 12797 01b6 90080000 		.4byte	.LVL274
 12798 01ba 98080000 		.4byte	.LVL275
 12799 01be 0100     		.2byte	0x1
 12800 01c0 53       		.byte	0x53
 12801 01c1 6E090000 		.4byte	.LVL288
 12802 01c5 7A090000 		.4byte	.LVL290
 12803 01c9 0100     		.2byte	0x1
 12804 01cb 54       		.byte	0x54
 12805 01cc 7C090000 		.4byte	.LVL291
 12806 01d0 7E090000 		.4byte	.LVL292
 12807 01d4 0100     		.2byte	0x1
 12808 01d6 54       		.byte	0x54
 12809 01d7 80090000 		.4byte	.LVL293
 12810 01db 88090000 		.4byte	.LVL294
 12811 01df 0100     		.2byte	0x1
 12812 01e1 54       		.byte	0x54
 12813 01e2 8A090000 		.4byte	.LVL295
 12814 01e6 94090000 		.4byte	.LVL297
 12815 01ea 0100     		.2byte	0x1
 12816 01ec 54       		.byte	0x54
 12817 01ed 96090000 		.4byte	.LVL298
 12818 01f1 AA090000 		.4byte	.LVL299
 12819 01f5 0100     		.2byte	0x1
 12820 01f7 54       		.byte	0x54
 12821 01f8 AA090000 		.4byte	.LVL299
 12822 01fc AE090000 		.4byte	.LVL300
 12823 0200 0200     		.2byte	0x2
 12824 0202 31       		.byte	0x31
 12825 0203 9F       		.byte	0x9f
 12826 0204 AE090000 		.4byte	.LVL300
 12827 0208 0E0A0000 		.4byte	.LVL305
 12828 020c 0100     		.2byte	0x1
 12829 020e 52       		.byte	0x52
 12830 020f 100A0000 		.4byte	.LVL306
 12831 0213 1B0A0000 		.4byte	.LVL307-1
 12832 0217 0100     		.2byte	0x1
 12833 0219 52       		.byte	0x52
 12834 021a 4C0C0000 		.4byte	.LVL330
 12835 021e 540C0000 		.4byte	.LVL331
 12836 0222 0100     		.2byte	0x1
 12837 0224 53       		.byte	0x53
ARM GAS  C:\Users\RECEPC~1\AppData\Local\Temp\cc79eMMA.s 			page 267


 12838 0225 560C0000 		.4byte	.LVL332
 12839 0229 580C0000 		.4byte	.LVL333
 12840 022d 0100     		.2byte	0x1
 12841 022f 53       		.byte	0x53
 12842 0230 5A0C0000 		.4byte	.LVL334
 12843 0234 620C0000 		.4byte	.LVL335
 12844 0238 0100     		.2byte	0x1
 12845 023a 53       		.byte	0x53
 12846 023b 6E0C0000 		.4byte	.LVL337
 12847 023f 760C0000 		.4byte	.LVL338
 12848 0243 0100     		.2byte	0x1
 12849 0245 53       		.byte	0x53
 12850 0246 780C0000 		.4byte	.LVL339
 12851 024a 7A0C0000 		.4byte	.LVL340
 12852 024e 0100     		.2byte	0x1
 12853 0250 53       		.byte	0x53
 12854 0251 7C0C0000 		.4byte	.LVL341
 12855 0255 880C0000 		.4byte	.LVL342
 12856 0259 0100     		.2byte	0x1
 12857 025b 53       		.byte	0x53
 12858 025c 940C0000 		.4byte	.LVL344
 12859 0260 A00C0000 		.4byte	.LVL345
 12860 0264 0100     		.2byte	0x1
 12861 0266 53       		.byte	0x53
 12862 0267 A20C0000 		.4byte	.LVL346
 12863 026b A40C0000 		.4byte	.LVL347
 12864 026f 0100     		.2byte	0x1
 12865 0271 53       		.byte	0x53
 12866 0272 A60C0000 		.4byte	.LVL348
 12867 0276 B20C0000 		.4byte	.LVL349
 12868 027a 0100     		.2byte	0x1
 12869 027c 53       		.byte	0x53
 12870 027d BE0C0000 		.4byte	.LVL351
 12871 0281 C60C0000 		.4byte	.LVL352
 12872 0285 0100     		.2byte	0x1
 12873 0287 53       		.byte	0x53
 12874 0288 C80C0000 		.4byte	.LVL353
 12875 028c CA0C0000 		.4byte	.LVL354
 12876 0290 0100     		.2byte	0x1
 12877 0292 53       		.byte	0x53
 12878 0293 CC0C0000 		.4byte	.LVL355
 12879 0297 D80C0000 		.4byte	.LVL356
 12880 029b 0100     		.2byte	0x1
 12881 029d 53       		.byte	0x53
 12882 029e 000D0000 		.4byte	.LVL359
 12883 02a2 120D0000 		.4byte	.LVL361
 12884 02a6 0100     		.2byte	0x1
 12885 02a8 53       		.byte	0x53
 12886 02a9 140D0000 		.4byte	.LVL362
 12887 02ad 1C0D0000 		.4byte	.LVL363
 12888 02b1 0100     		.2byte	0x1
 12889 02b3 53       		.byte	0x53
 12890 02b4 520D0000 		.4byte	.LVL368
 12891 02b8 600D0000 		.4byte	.LVL369
 12892 02bc 0100     		.2byte	0x1
 12893 02be 53       		.byte	0x53
 12894 02bf 620D0000 		.4byte	.LVL370
ARM GAS  C:\Users\RECEPC~1\AppData\Local\Temp\cc79eMMA.s 			page 268


 12895 02c3 640D0000 		.4byte	.LVL371
 12896 02c7 0100     		.2byte	0x1
 12897 02c9 53       		.byte	0x53
 12898 02ca 660D0000 		.4byte	.LVL372
 12899 02ce 720D0000 		.4byte	.LVL373
 12900 02d2 0100     		.2byte	0x1
 12901 02d4 53       		.byte	0x53
 12902 02d5 B40D0000 		.4byte	.LVL375
 12903 02d9 C20D0000 		.4byte	.LVL376
 12904 02dd 0100     		.2byte	0x1
 12905 02df 53       		.byte	0x53
 12906 02e0 C40D0000 		.4byte	.LVL377
 12907 02e4 C60D0000 		.4byte	.LVL378
 12908 02e8 0100     		.2byte	0x1
 12909 02ea 53       		.byte	0x53
 12910 02eb C80D0000 		.4byte	.LVL379
 12911 02ef D40D0000 		.4byte	.LVL380
 12912 02f3 0100     		.2byte	0x1
 12913 02f5 53       		.byte	0x53
 12914 02f6 E00D0000 		.4byte	.LVL382
 12915 02fa EE0D0000 		.4byte	.LVL383
 12916 02fe 0100     		.2byte	0x1
 12917 0300 53       		.byte	0x53
 12918 0301 F00D0000 		.4byte	.LVL384
 12919 0305 F20D0000 		.4byte	.LVL385
 12920 0309 0100     		.2byte	0x1
 12921 030b 53       		.byte	0x53
 12922 030c F40D0000 		.4byte	.LVL386
 12923 0310 FE0D0000 		.4byte	.LVL387
 12924 0314 0100     		.2byte	0x1
 12925 0316 53       		.byte	0x53
 12926 0317 00000000 		.4byte	0
 12927 031b 00000000 		.4byte	0
 12928              	.LLST3:
 12929 031f 8A090000 		.4byte	.LVL295
 12930 0323 91090000 		.4byte	.LVL296-1
 12931 0327 0100     		.2byte	0x1
 12932 0329 50       		.byte	0x50
 12933 032a 92090000 		.4byte	.LVL296
 12934 032e AA090000 		.4byte	.LVL299
 12935 0332 0100     		.2byte	0x1
 12936 0334 50       		.byte	0x50
 12937 0335 AA090000 		.4byte	.LVL299
 12938 0339 AE090000 		.4byte	.LVL300
 12939 033d 0200     		.2byte	0x2
 12940 033f 40       		.byte	0x40
 12941 0340 9F       		.byte	0x9f
 12942 0341 AE090000 		.4byte	.LVL300
 12943 0345 E0090000 		.4byte	.LVL301
 12944 0349 0100     		.2byte	0x1
 12945 034b 53       		.byte	0x53
 12946 034c E2090000 		.4byte	.LVL302
 12947 0350 0A0A0000 		.4byte	.LVL303
 12948 0354 0100     		.2byte	0x1
 12949 0356 53       		.byte	0x53
 12950 0357 0A0A0000 		.4byte	.LVL303
 12951 035b 0C0A0000 		.4byte	.LVL304
ARM GAS  C:\Users\RECEPC~1\AppData\Local\Temp\cc79eMMA.s 			page 269


 12952 035f 0300     		.2byte	0x3
 12953 0361 73       		.byte	0x73
 12954 0362 01       		.sleb128 1
 12955 0363 9F       		.byte	0x9f
 12956 0364 0C0A0000 		.4byte	.LVL304
 12957 0368 1B0A0000 		.4byte	.LVL307-1
 12958 036c 0100     		.2byte	0x1
 12959 036e 53       		.byte	0x53
 12960 036f 00000000 		.4byte	0
 12961 0373 00000000 		.4byte	0
 12962              		.section	.debug_aranges,"",%progbits
 12963 0000 8C000000 		.4byte	0x8c
 12964 0004 0200     		.2byte	0x2
 12965 0006 00000000 		.4byte	.Ldebug_info0
 12966 000a 04       		.byte	0x4
 12967 000b 00       		.byte	0
 12968 000c 0000     		.2byte	0
 12969 000e 0000     		.2byte	0
 12970 0010 00000000 		.4byte	.LFB73
 12971 0014 14000000 		.4byte	.LFE73-.LFB73
 12972 0018 00000000 		.4byte	.LFB75
 12973 001c 30000000 		.4byte	.LFE75-.LFB75
 12974 0020 00000000 		.4byte	.LFB76
 12975 0024 30000000 		.4byte	.LFE76-.LFB76
 12976 0028 00000000 		.4byte	.LFB63
 12977 002c 3C000000 		.4byte	.LFE63-.LFB63
 12978 0030 00000000 		.4byte	.LFB64
 12979 0034 94000000 		.4byte	.LFE64-.LFB64
 12980 0038 00000000 		.4byte	.LFB65
 12981 003c C8000000 		.4byte	.LFE65-.LFB65
 12982 0040 00000000 		.4byte	.LFB66
 12983 0044 8C020000 		.4byte	.LFE66-.LFB66
 12984 0048 00000000 		.4byte	.LFB67
 12985 004c 50000000 		.4byte	.LFE67-.LFB67
 12986 0050 00000000 		.4byte	.LFB68
 12987 0054 C4000000 		.4byte	.LFE68-.LFB68
 12988 0058 00000000 		.4byte	.LFB69
 12989 005c C4000000 		.4byte	.LFE69-.LFB69
 12990 0060 00000000 		.4byte	.LFB70
 12991 0064 6C010000 		.4byte	.LFE70-.LFB70
 12992 0068 00000000 		.4byte	.LFB71
 12993 006c 1C130000 		.4byte	.LFE71-.LFB71
 12994 0070 00000000 		.4byte	.LFB72
 12995 0074 3C030000 		.4byte	.LFE72-.LFB72
 12996 0078 00000000 		.4byte	.LFB74
 12997 007c 14000000 		.4byte	.LFE74-.LFB74
 12998 0080 00000000 		.4byte	.LFB77
 12999 0084 60000000 		.4byte	.LFE77-.LFB77
 13000 0088 00000000 		.4byte	0
 13001 008c 00000000 		.4byte	0
 13002              		.section	.debug_ranges,"",%progbits
 13003              	.Ldebug_ranges0:
 13004 0000 00000000 		.4byte	.LFB73
 13005 0004 14000000 		.4byte	.LFE73
 13006 0008 00000000 		.4byte	.LFB75
 13007 000c 30000000 		.4byte	.LFE75
 13008 0010 00000000 		.4byte	.LFB76
ARM GAS  C:\Users\RECEPC~1\AppData\Local\Temp\cc79eMMA.s 			page 270


 13009 0014 30000000 		.4byte	.LFE76
 13010 0018 00000000 		.4byte	.LFB63
 13011 001c 3C000000 		.4byte	.LFE63
 13012 0020 00000000 		.4byte	.LFB64
 13013 0024 94000000 		.4byte	.LFE64
 13014 0028 00000000 		.4byte	.LFB65
 13015 002c C8000000 		.4byte	.LFE65
 13016 0030 00000000 		.4byte	.LFB66
 13017 0034 8C020000 		.4byte	.LFE66
 13018 0038 00000000 		.4byte	.LFB67
 13019 003c 50000000 		.4byte	.LFE67
 13020 0040 00000000 		.4byte	.LFB68
 13021 0044 C4000000 		.4byte	.LFE68
 13022 0048 00000000 		.4byte	.LFB69
 13023 004c C4000000 		.4byte	.LFE69
 13024 0050 00000000 		.4byte	.LFB70
 13025 0054 6C010000 		.4byte	.LFE70
 13026 0058 00000000 		.4byte	.LFB71
 13027 005c 1C130000 		.4byte	.LFE71
 13028 0060 00000000 		.4byte	.LFB72
 13029 0064 3C030000 		.4byte	.LFE72
 13030 0068 00000000 		.4byte	.LFB74
 13031 006c 14000000 		.4byte	.LFE74
 13032 0070 00000000 		.4byte	.LFB77
 13033 0074 60000000 		.4byte	.LFE77
 13034 0078 00000000 		.4byte	0
 13035 007c 00000000 		.4byte	0
 13036              		.section	.debug_line,"",%progbits
 13037              	.Ldebug_line0:
 13038 0000 86090000 		.section	.debug_str,"MS",%progbits,1
 13038      02009E02 
 13038      00000201 
 13038      FB0E0D00 
 13038      01010101 
 13039              	.LASF35:
 13040 0000 76616C75 		.ascii	"valueKeys\000"
 13040      654B6579 
 13040      7300
 13041              	.LASF25:
 13042 000a 73697A65 		.ascii	"sizetype\000"
 13042      74797065 
 13042      00
 13043              	.LASF269:
 13044 0013 57616974 		.ascii	"Waitable_3_ReadStatusRegister\000"
 13044      61626C65 
 13044      5F335F52 
 13044      65616453 
 13044      74617475 
 13045              	.LASF79:
 13046 0031 72665374 		.ascii	"rfState\000"
 13046      61746500 
 13047              	.LASF279:
 13048 0039 6973725F 		.ascii	"isr_1_StartEx\000"
 13048      315F5374 
 13048      61727445 
 13048      7800
 13049              	.LASF224:
ARM GAS  C:\Users\RECEPC~1\AppData\Local\Temp\cc79eMMA.s 			page 271


 13050 0047 74656D70 		.ascii	"temporal\000"
 13050      6F72616C 
 13050      00
 13051              	.LASF186:
 13052 0050 44697370 		.ascii	"Display1_rxBuffer\000"
 13052      6C617931 
 13052      5F727842 
 13052      75666665 
 13052      7200
 13053              	.LASF156:
 13054 0062 52465F43 		.ascii	"RF_CREDITSALEREPORT\000"
 13054      52454449 
 13054      5453414C 
 13054      45524550 
 13054      4F525400 
 13055              	.LASF93:
 13056 0076 44495350 		.ascii	"DISPLAY_SUBA_MANIJA\000"
 13056      4C41595F 
 13056      53554241 
 13056      5F4D414E 
 13056      494A4100 
 13057              	.LASF288:
 13058 008a 6765745F 		.ascii	"get_state\000"
 13058      73746174 
 13058      6500
 13059              	.LASF31:
 13060 0094 6D6F6E65 		.ascii	"moneySelectedSale\000"
 13060      7953656C 
 13060      65637465 
 13060      6453616C 
 13060      6500
 13061              	.LASF14:
 13062 00a6 696E7433 		.ascii	"int32_t\000"
 13062      325F7400 
 13063              	.LASF181:
 13064 00ae 506F6C6C 		.ascii	"PollingPump\000"
 13064      696E6750 
 13064      756D7000 
 13065              	.LASF26:
 13066 00ba 69645479 		.ascii	"idType\000"
 13066      706500
 13067              	.LASF17:
 13068 00c1 75696E74 		.ascii	"uint32\000"
 13068      333200
 13069              	.LASF113:
 13070 00c8 44495350 		.ascii	"DISPLAY_COPIA_RECIBO\000"
 13070      4C41595F 
 13070      434F5049 
 13070      415F5245 
 13070      4349424F 
 13071              	.LASF234:
 13072 00dd 4E756D50 		.ascii	"NumPositions\000"
 13072      6F736974 
 13072      696F6E73 
 13072      00
 13073              	.LASF236:
 13074 00ea 64696769 		.ascii	"digits\000"
ARM GAS  C:\Users\RECEPC~1\AppData\Local\Temp\cc79eMMA.s 			page 272


 13074      747300
 13075              	.LASF184:
 13076 00f1 616E696D 		.ascii	"animacion2\000"
 13076      6163696F 
 13076      6E3200
 13077              	.LASF57:
 13078 00fc 666C6167 		.ascii	"flagEndSale\000"
 13078      456E6453 
 13078      616C6500 
 13079              	.LASF150:
 13080 0108 5F52465F 		.ascii	"_RF_STATES_\000"
 13080      53544154 
 13080      45535F00 
 13081              	.LASF55:
 13082 0114 666C6167 		.ascii	"flagPayment\000"
 13082      5061796D 
 13082      656E7400 
 13083              	.LASF249:
 13084 0120 7072696E 		.ascii	"printPortB\000"
 13084      74506F72 
 13084      744200
 13085              	.LASF125:
 13086 012b 44495350 		.ascii	"DISPLAY_ABRIR_TURNO\000"
 13086      4C41595F 
 13086      41425249 
 13086      525F5455 
 13086      524E4F00 
 13087              	.LASF268:
 13088 013f 54696D65 		.ascii	"Timer_Animacion_ReadStatusRegister\000"
 13088      725F416E 
 13088      696D6163 
 13088      696F6E5F 
 13088      52656164 
 13089              	.LASF151:
 13090 0162 52465F49 		.ascii	"RF_IDLE\000"
 13090      444C4500 
 13091              	.LASF112:
 13092 016a 44495350 		.ascii	"DISPLAY_CONFIGURACIONES\000"
 13092      4C41595F 
 13092      434F4E46 
 13092      49475552 
 13092      4143494F 
 13093              	.LASF21:
 13094 0182 63686172 		.ascii	"char8\000"
 13094      3800
 13095              	.LASF314:
 13096 0188 53686F77 		.ascii	"ShowRectangle\000"
 13096      52656374 
 13096      616E676C 
 13096      6500
 13097              	.LASF51:
 13098 0196 6C696365 		.ascii	"licenceSale\000"
 13098      6E636553 
 13098      616C6500 
 13099              	.LASF298:
 13100 01a2 57726974 		.ascii	"WriteLCD\000"
 13100      654C4344 
ARM GAS  C:\Users\RECEPC~1\AppData\Local\Temp\cc79eMMA.s 			page 273


 13100      00
 13101              	.LASF295:
 13102 01ab 54696D65 		.ascii	"Timer_Animacion_Stop\000"
 13102      725F416E 
 13102      696D6163 
 13102      696F6E5F 
 13102      53746F70 
 13103              	.LASF212:
 13104 01c0 73637265 		.ascii	"screen\000"
 13104      656E00
 13105              	.LASF304:
 13106 01c7 50756D70 		.ascii	"Pump_PutChar\000"
 13106      5F507574 
 13106      43686172 
 13106      00
 13107              	.LASF65:
 13108 01d4 666C6167 		.ascii	"flagActiveSale\000"
 13108      41637469 
 13108      76655361 
 13108      6C6500
 13109              	.LASF199:
 13110 01e3 6E756D62 		.ascii	"numberKeys1\000"
 13110      65724B65 
 13110      79733100 
 13111              	.LASF200:
 13112 01ef 6E756D62 		.ascii	"numberKeys2\000"
 13112      65724B65 
 13112      79733200 
 13113              	.LASF216:
 13114 01fb 70617373 		.ascii	"passwordSeller\000"
 13114      776F7264 
 13114      53656C6C 
 13114      657200
 13115              	.LASF62:
 13116 020a 7072696E 		.ascii	"printers\000"
 13116      74657273 
 13116      00
 13117              	.LASF159:
 13118 0213 52465F5A 		.ascii	"RF_ZERO_SALE\000"
 13118      45524F5F 
 13118      53414C45 
 13118      00
 13119              	.LASF194:
 13120 0220 636F756E 		.ascii	"countLCD\000"
 13120      744C4344 
 13120      00
 13121              	.LASF208:
 13122 0229 64656369 		.ascii	"decimalVolume\000"
 13122      6D616C56 
 13122      6F6C756D 
 13122      6500
 13123              	.LASF3:
 13124 0237 5F5F7569 		.ascii	"__uint8_t\000"
 13124      6E74385F 
 13124      7400
 13125              	.LASF179:
 13126 0241 6461746F 		.ascii	"datoA\000"
ARM GAS  C:\Users\RECEPC~1\AppData\Local\Temp\cc79eMMA.s 			page 274


 13126      4100
 13127              	.LASF180:
 13128 0247 6461746F 		.ascii	"datoB\000"
 13128      4200
 13129              	.LASF309:
 13130 024d 746F7563 		.ascii	"touch_read_byte\000"
 13130      685F7265 
 13130      61645F62 
 13130      79746500 
 13131              	.LASF90:
 13132 025d 44495350 		.ascii	"DISPLAY_INTRODUZCA_VALOR2\000"
 13132      4C41595F 
 13132      494E5452 
 13132      4F44555A 
 13132      43415F56 
 13133              	.LASF59:
 13134 0277 766F6C75 		.ascii	"volumeQuota\000"
 13134      6D655175 
 13134      6F746100 
 13135              	.LASF56:
 13136 0283 666C6167 		.ascii	"flagLiftHandle\000"
 13136      4C696674 
 13136      48616E64 
 13136      6C6500
 13137              	.LASF311:
 13138 0292 61746F69 		.ascii	"atoi\000"
 13138      00
 13139              	.LASF27:
 13140 0297 69645365 		.ascii	"idSerial\000"
 13140      7269616C 
 13140      00
 13141              	.LASF132:
 13142 02a0 44495350 		.ascii	"DISPLAY_IDENTIFICADOR_ESTACION\000"
 13142      4C41595F 
 13142      4944454E 
 13142      54494649 
 13142      4341444F 
 13143              	.LASF20:
 13144 02bf 75696E74 		.ascii	"uint64\000"
 13144      363400
 13145              	.LASF7:
 13146 02c6 6C6F6E67 		.ascii	"long int\000"
 13146      20696E74 
 13146      00
 13147              	.LASF294:
 13148 02cf 6973725F 		.ascii	"isr_3_Stop\000"
 13148      335F5374 
 13148      6F7000
 13149              	.LASF209:
 13150 02da 73796D62 		.ascii	"symbols\000"
 13150      6F6C7300 
 13151              	.LASF165:
 13152 02e2 6C6F6164 		.ascii	"loadConfiguration\000"
 13152      436F6E66 
 13152      69677572 
 13152      6174696F 
 13152      6E00
ARM GAS  C:\Users\RECEPC~1\AppData\Local\Temp\cc79eMMA.s 			page 275


 13153              	.LASF140:
 13154 02f4 5F415641 		.ascii	"_AVAILABLE_DISPLAYS_\000"
 13154      494C4142 
 13154      4C455F44 
 13154      4953504C 
 13154      4159535F 
 13155              	.LASF182:
 13156 0309 506F6C6C 		.ascii	"PollingDisplay1\000"
 13156      696E6744 
 13156      6973706C 
 13156      61793100 
 13157              	.LASF45:
 13158 0319 746F7461 		.ascii	"totalMoneyPrevious\000"
 13158      6C4D6F6E 
 13158      65795072 
 13158      6576696F 
 13158      757300
 13159              	.LASF185:
 13160 032c 6D61696E 		.ascii	"main\000"
 13160      00
 13161              	.LASF289:
 13162 0331 50756D70 		.ascii	"PumpIsInValidState\000"
 13162      4973496E 
 13162      56616C69 
 13162      64537461 
 13162      746500
 13163              	.LASF110:
 13164 0344 44495350 		.ascii	"DISPLAY_INTRODUZCA_KILOMETRAJE\000"
 13164      4C41595F 
 13164      494E5452 
 13164      4F44555A 
 13164      43415F4B 
 13165              	.LASF226:
 13166 0363 43477261 		.ascii	"CGrade\000"
 13166      646500
 13167              	.LASF83:
 13168 036a 44495350 		.ascii	"DISPLAY_ERROR\000"
 13168      4C41595F 
 13168      4552524F 
 13168      5200
 13169              	.LASF306:
 13170 0378 696D7072 		.ascii	"imprimir\000"
 13170      696D6972 
 13170      00
 13171              	.LASF290:
 13172 0381 5F426F6F 		.ascii	"_Bool\000"
 13172      6C00
 13173              	.LASF211:
 13174 0387 64617465 		.ascii	"date\000"
 13174      00
 13175              	.LASF118:
 13176 038c 44495350 		.ascii	"DISPLAY_POR_FAVOR_ESPERE\000"
 13176      4C41595F 
 13176      504F525F 
 13176      4641564F 
 13176      525F4553 
 13177              	.LASF275:
ARM GAS  C:\Users\RECEPC~1\AppData\Local\Temp\cc79eMMA.s 			page 276


 13178 03a5 5072696E 		.ascii	"Printer_Start\000"
 13178      7465725F 
 13178      53746172 
 13178      7400
 13179              	.LASF123:
 13180 03b3 44495350 		.ascii	"DISPLAY_FECHA\000"
 13180      4C41595F 
 13180      46454348 
 13180      4100
 13181              	.LASF193:
 13182 03c1 636F756E 		.ascii	"countPump\000"
 13182      7450756D 
 13182      7000
 13183              	.LASF0:
 13184 03cb 7369676E 		.ascii	"signed char\000"
 13184      65642063 
 13184      68617200 
 13185              	.LASF12:
 13186 03d7 75696E74 		.ascii	"uint8_t\000"
 13186      385F7400 
 13187              	.LASF104:
 13188 03df 44495350 		.ascii	"DISPLAY_ID_DIGITAL\000"
 13188      4C41595F 
 13188      49445F44 
 13188      49474954 
 13188      414C00
 13189              	.LASF102:
 13190 03f2 44495350 		.ascii	"DISPLAY_TIEMPO_EXPIRADO\000"
 13190      4C41595F 
 13190      5449454D 
 13190      504F5F45 
 13190      58504952 
 13191              	.LASF301:
 13192 040a 54696D65 		.ascii	"Timer_Animacion_Start\000"
 13192      725F416E 
 13192      696D6163 
 13192      696F6E5F 
 13192      53746172 
 13193              	.LASF270:
 13194 0420 57616974 		.ascii	"Waitable_4_ReadStatusRegister\000"
 13194      61626C65 
 13194      5F345F52 
 13194      65616453 
 13194      74617475 
 13195              	.LASF37:
 13196 043e 73616C65 		.ascii	"saleType\000"
 13196      54797065 
 13196      00
 13197              	.LASF128:
 13198 0447 44495350 		.ascii	"DISPLAY_USUARIO_VALIDO\000"
 13198      4C41595F 
 13198      55535541 
 13198      52494F5F 
 13198      56414C49 
 13199              	.LASF126:
 13200 045e 44495350 		.ascii	"DISPLAY_CERRAR_TURNO\000"
 13200      4C41595F 
ARM GAS  C:\Users\RECEPC~1\AppData\Local\Temp\cc79eMMA.s 			page 277


 13200      43455252 
 13200      41525F54 
 13200      55524E4F 
 13201              	.LASF322:
 13202 0473 474E5520 		.ascii	"GNU C 4.9.3 20150303 (release) [ARM/embedded-4_9-br"
 13202      4320342E 
 13202      392E3320 
 13202      32303135 
 13202      30333033 
 13203 04a6 616E6368 		.ascii	"anch revision 221220] -mcpu=cortex-m3 -mthumb -g -O"
 13203      20726576 
 13203      6973696F 
 13203      6E203232 
 13203      31323230 
 13204 04d9 67202D66 		.ascii	"g -ffunction-sections -ffat-lto-objects\000"
 13204      66756E63 
 13204      74696F6E 
 13204      2D736563 
 13204      74696F6E 
 13205              	.LASF302:
 13206 0501 50756D70 		.ascii	"PumpHoseActiveState\000"
 13206      486F7365 
 13206      41637469 
 13206      76655374 
 13206      61746500 
 13207              	.LASF80:
 13208 0515 70756D70 		.ascii	"pumpState\000"
 13208      53746174 
 13208      6500
 13209              	.LASF1:
 13210 051f 756E7369 		.ascii	"unsigned char\000"
 13210      676E6564 
 13210      20636861 
 13210      7200
 13211              	.LASF89:
 13212 052d 44495350 		.ascii	"DISPLAY_INTRODUZCA_VALOR\000"
 13212      4C41595F 
 13212      494E5452 
 13212      4F44555A 
 13212      43415F56 
 13213              	.LASF310:
 13214 0546 6372635F 		.ascii	"crc_check\000"
 13214      63686563 
 13214      6B00
 13215              	.LASF117:
 13216 0550 44495350 		.ascii	"DISPLAY_ESPERANDO_AUTORIZACION\000"
 13216      4C41595F 
 13216      45535045 
 13216      52414E44 
 13216      4F5F4155 
 13217              	.LASF280:
 13218 056f 6973725F 		.ascii	"isr_2_StartEx\000"
 13218      325F5374 
 13218      61727445 
 13218      7800
 13219              	.LASF259:
 13220 057d 47726164 		.ascii	"GradesHose\000"
ARM GAS  C:\Users\RECEPC~1\AppData\Local\Temp\cc79eMMA.s 			page 278


 13220      6573486F 
 13220      736500
 13221              	.LASF207:
 13222 0588 64656369 		.ascii	"decimalMoney\000"
 13222      6D616C4D 
 13222      6F6E6579 
 13222      00
 13223              	.LASF155:
 13224 0595 52465F57 		.ascii	"RF_WORKSHIFTREQ\000"
 13224      4F524B53 
 13224      48494654 
 13224      52455100 
 13225              	.LASF67:
 13226 05a5 73686966 		.ascii	"shiftPassword\000"
 13226      74506173 
 13226      73776F72 
 13226      6400
 13227              	.LASF70:
 13228 05b3 746F7461 		.ascii	"totalsHandle\000"
 13228      6C734861 
 13228      6E646C65 
 13228      00
 13229              	.LASF195:
 13230 05c0 666C6F77 		.ascii	"flowDisplay1\000"
 13230      44697370 
 13230      6C617931 
 13230      00
 13231              	.LASF196:
 13232 05cd 666C6F77 		.ascii	"flowDisplay2\000"
 13232      44697370 
 13232      6C617932 
 13232      00
 13233              	.LASF197:
 13234 05da 666C6F77 		.ascii	"flowDisplay3\000"
 13234      44697370 
 13234      6C617933 
 13234      00
 13235              	.LASF198:
 13236 05e7 666C6F77 		.ascii	"flowDisplay4\000"
 13236      44697370 
 13236      6C617934 
 13236      00
 13237              	.LASF233:
 13238 05f4 73746174 		.ascii	"statePump\000"
 13238      6550756D 
 13238      7000
 13239              	.LASF22:
 13240 05fe 63686172 		.ascii	"char\000"
 13240      00
 13241              	.LASF130:
 13242 0603 44495350 		.ascii	"DISPLAY_AMBAS_IMPRESORAS_FUNCIONANDO\000"
 13242      4C41595F 
 13242      414D4241 
 13242      535F494D 
 13242      50524553 
 13243              	.LASF235:
 13244 0628 6C6F636B 		.ascii	"lockTurn\000"
ARM GAS  C:\Users\RECEPC~1\AppData\Local\Temp\cc79eMMA.s 			page 279


 13244      5475726E 
 13244      00
 13245              	.LASF29:
 13246 0631 666C6167 		.ascii	"flagWayToPayMixed\000"
 13246      57617954 
 13246      6F506179 
 13246      4D697865 
 13246      6400
 13247              	.LASF271:
 13248 0643 45455052 		.ascii	"EEPROM_1_Start\000"
 13248      4F4D5F31 
 13248      5F537461 
 13248      727400
 13249              	.LASF4:
 13250 0652 5F5F7569 		.ascii	"__uint16_t\000"
 13250      6E743136 
 13250      5F7400
 13251              	.LASF245:
 13252 065d 636F6E74 		.ascii	"controlChar\000"
 13252      726F6C43 
 13252      68617200 
 13253              	.LASF223:
 13254 0669 636F756E 		.ascii	"counterRF\000"
 13254      74657252 
 13254      4600
 13255              	.LASF163:
 13256 0673 476C6F62 		.ascii	"GlobalInitializer\000"
 13256      616C496E 
 13256      69746961 
 13256      6C697A65 
 13256      7200
 13257              	.LASF227:
 13258 0685 556E6974 		.ascii	"UnitType\000"
 13258      54797065 
 13258      00
 13259              	.LASF42:
 13260 068e 73746174 		.ascii	"stateMux\000"
 13260      654D7578 
 13260      00
 13261              	.LASF98:
 13262 0697 44495350 		.ascii	"DISPLAY_INGRESE_PASSWORD\000"
 13262      4C41595F 
 13262      494E4752 
 13262      4553455F 
 13262      50415353 
 13263              	.LASF183:
 13264 06b0 506F6C6C 		.ascii	"PollingDisplay2\000"
 13264      696E6744 
 13264      6973706C 
 13264      61793200 
 13265              	.LASF297:
 13266 06c0 44697370 		.ascii	"Display1_ClearRxBuffer\000"
 13266      6C617931 
 13266      5F436C65 
 13266      61725278 
 13266      42756666 
 13267              	.LASF253:
ARM GAS  C:\Users\RECEPC~1\AppData\Local\Temp\cc79eMMA.s 			page 280


 13268 06d7 696E7449 		.ascii	"intIDStation\000"
 13268      44537461 
 13268      74696F6E 
 13268      00
 13269              	.LASF189:
 13270 06e4 636F756E 		.ascii	"countAnimation1\000"
 13270      74416E69 
 13270      6D617469 
 13270      6F6E3100 
 13271              	.LASF190:
 13272 06f4 636F756E 		.ascii	"countAnimation2\000"
 13272      74416E69 
 13272      6D617469 
 13272      6F6E3200 
 13273              	.LASF218:
 13274 0704 73746174 		.ascii	"stateBeagleSoft\000"
 13274      65426561 
 13274      676C6553 
 13274      6F667400 
 13275              	.LASF261:
 13276 0714 62756666 		.ascii	"bufferDisplay1\000"
 13276      65724469 
 13276      73706C61 
 13276      793100
 13277              	.LASF39:
 13278 0723 70726573 		.ascii	"presetType\000"
 13278      65745479 
 13278      706500
 13279              	.LASF95:
 13280 072e 44495350 		.ascii	"DISPLAY_BAJE_MANIJA\000"
 13280      4C41595F 
 13280      42414A45 
 13280      5F4D414E 
 13280      494A4100 
 13281              	.LASF293:
 13282 0742 67657454 		.ascii	"getTotals\000"
 13282      6F74616C 
 13282      7300
 13283              	.LASF63:
 13284 074c 666C6167 		.ascii	"flagChangePPU\000"
 13284      4368616E 
 13284      67655050 
 13284      5500
 13285              	.LASF287:
 13286 075a 6765745F 		.ascii	"get_position\000"
 13286      706F7369 
 13286      74696F6E 
 13286      00
 13287              	.LASF46:
 13288 0767 746F7461 		.ascii	"totalVolumePrevious\000"
 13288      6C566F6C 
 13288      756D6550 
 13288      72657669 
 13288      6F757300 
 13289              	.LASF115:
 13290 077b 44495350 		.ascii	"DISPLAY_SELECCIONE_POSICION\000"
 13290      4C41595F 
ARM GAS  C:\Users\RECEPC~1\AppData\Local\Temp\cc79eMMA.s 			page 281


 13290      53454C45 
 13290      4343494F 
 13290      4E455F50 
 13291              	.LASF88:
 13292 0797 44495350 		.ascii	"DISPLAY_FORMA_PROGRAMACION\000"
 13292      4C41595F 
 13292      464F524D 
 13292      415F5052 
 13292      4F475241 
 13293              	.LASF164:
 13294 07b2 53746F72 		.ascii	"StoreConfiguration\000"
 13294      65436F6E 
 13294      66696775 
 13294      72617469 
 13294      6F6E00
 13295              	.LASF260:
 13296 07c5 52467374 		.ascii	"RFstateReport\000"
 13296      61746552 
 13296      65706F72 
 13296      7400
 13297              	.LASF71:
 13298 07d3 70707541 		.ascii	"ppuAuthorized\000"
 13298      7574686F 
 13298      72697A65 
 13298      6400
 13299              	.LASF299:
 13300 07e1 616C7068 		.ascii	"alphanumeric_keyboard\000"
 13300      616E756D 
 13300      65726963 
 13300      5F6B6579 
 13300      626F6172 
 13301              	.LASF238:
 13302 07f7 5072696E 		.ascii	"PrinterType\000"
 13302      74657254 
 13302      79706500 
 13303              	.LASF254:
 13304 0803 456E6361 		.ascii	"Encabezado1\000"
 13304      62657A61 
 13304      646F3100 
 13305              	.LASF255:
 13306 080f 456E6361 		.ascii	"Encabezado2\000"
 13306      62657A61 
 13306      646F3200 
 13307              	.LASF256:
 13308 081b 456E6361 		.ascii	"Encabezado3\000"
 13308      62657A61 
 13308      646F3300 
 13309              	.LASF257:
 13310 0827 456E6361 		.ascii	"Encabezado4\000"
 13310      62657A61 
 13310      646F3400 
 13311              	.LASF68:
 13312 0833 62756666 		.ascii	"buffer\000"
 13312      657200
 13313              	.LASF85:
 13314 083a 44495350 		.ascii	"DISPLAY_INICIO1\000"
 13314      4C41595F 
ARM GAS  C:\Users\RECEPC~1\AppData\Local\Temp\cc79eMMA.s 			page 282


 13314      494E4943 
 13314      494F3100 
 13315              	.LASF86:
 13316 084a 44495350 		.ascii	"DISPLAY_INICIO2\000"
 13316      4C41595F 
 13316      494E4943 
 13316      494F3200 
 13317              	.LASF166:
 13318 085a 496E6974 		.ascii	"InitDisplay1\000"
 13318      44697370 
 13318      6C617931 
 13318      00
 13319              	.LASF176:
 13320 0867 496E6974 		.ascii	"InitDisplay2\000"
 13320      44697370 
 13320      6C617932 
 13320      00
 13321              	.LASF250:
 13322 0874 62756666 		.ascii	"buffer_rf\000"
 13322      65725F72 
 13322      6600
 13323              	.LASF129:
 13324 087e 44495350 		.ascii	"DISPLAY_USUARIO_INVALIDO\000"
 13324      4C41595F 
 13324      55535541 
 13324      52494F5F 
 13324      494E5641 
 13325              	.LASF319:
 13326 0897 43795764 		.ascii	"CyWdtClear\000"
 13326      74436C65 
 13326      617200
 13327              	.LASF258:
 13328 08a2 436F7069 		.ascii	"CopiasCredito\000"
 13328      61734372 
 13328      65646974 
 13328      6F00
 13329              	.LASF232:
 13330 08b0 44444D6F 		.ascii	"DDMode\000"
 13330      646500
 13331              	.LASF252:
 13332 08b7 62756666 		.ascii	"buffer_txDisplay\000"
 13332      65725F74 
 13332      78446973 
 13332      706C6179 
 13332      00
 13333              	.LASF8:
 13334 08c8 6C6F6E67 		.ascii	"long unsigned int\000"
 13334      20756E73 
 13334      69676E65 
 13334      6420696E 
 13334      7400
 13335              	.LASF134:
 13336 08da 44495350 		.ascii	"DISPLAY_DUMMY0\000"
 13336      4C41595F 
 13336      44554D4D 
 13336      593000
 13337              	.LASF135:
ARM GAS  C:\Users\RECEPC~1\AppData\Local\Temp\cc79eMMA.s 			page 283


 13338 08e9 44495350 		.ascii	"DISPLAY_DUMMY1\000"
 13338      4C41595F 
 13338      44554D4D 
 13338      593100
 13339              	.LASF136:
 13340 08f8 44495350 		.ascii	"DISPLAY_DUMMY2\000"
 13340      4C41595F 
 13340      44554D4D 
 13340      593200
 13341              	.LASF137:
 13342 0907 44495350 		.ascii	"DISPLAY_DUMMY3\000"
 13342      4C41595F 
 13342      44554D4D 
 13342      593300
 13343              	.LASF114:
 13344 0916 44495350 		.ascii	"DISPLAY_IMPRIMIENDO_RECIBO\000"
 13344      4C41595F 
 13344      494D5052 
 13344      494D4945 
 13344      4E444F5F 
 13345              	.LASF177:
 13346 0931 496E6974 		.ascii	"InitPump\000"
 13346      50756D70 
 13346      00
 13347              	.LASF75:
 13348 093a 70726F64 		.ascii	"productSale\000"
 13348      75637453 
 13348      616C6500 
 13349              	.LASF50:
 13350 0946 746F7461 		.ascii	"totalPPUAfter\000"
 13350      6C505055 
 13350      41667465 
 13350      7200
 13351              	.LASF30:
 13352 0954 73656C65 		.ascii	"selectedSale\000"
 13352      63746564 
 13352      53616C65 
 13352      00
 13353              	.LASF58:
 13354 0961 6D6F6E65 		.ascii	"moneyQuota\000"
 13354      7951756F 
 13354      746100
 13355              	.LASF32:
 13356 096c 73657269 		.ascii	"serialSelectedSale\000"
 13356      616C5365 
 13356      6C656374 
 13356      65645361 
 13356      6C6500
 13357              	.LASF60:
 13358 097f 70707551 		.ascii	"ppuQuota\000"
 13358      756F7461 
 13358      00
 13359              	.LASF160:
 13360 0988 616E696D 		.ascii	"animacion\000"
 13360      6163696F 
 13360      6E00
 13361              	.LASF251:
ARM GAS  C:\Users\RECEPC~1\AppData\Local\Temp\cc79eMMA.s 			page 284


 13362 0992 62756666 		.ascii	"buffer_tx\000"
 13362      65725F74 
 13362      7800
 13363              	.LASF300:
 13364 099c 6973725F 		.ascii	"isr_3_StartEx\000"
 13364      335F5374 
 13364      61727445 
 13364      7800
 13365              	.LASF248:
 13366 09aa 7072696E 		.ascii	"printPortA\000"
 13366      74506F72 
 13366      744100
 13367              	.LASF262:
 13368 09b5 62756666 		.ascii	"bufferDisplay2\000"
 13368      65724469 
 13368      73706C61 
 13368      793200
 13369              	.LASF263:
 13370 09c4 62756666 		.ascii	"bufferDisplay3\000"
 13370      65724469 
 13370      73706C61 
 13370      793300
 13371              	.LASF264:
 13372 09d3 62756666 		.ascii	"bufferDisplay4\000"
 13372      65724469 
 13372      73706C61 
 13372      793400
 13373              	.LASF101:
 13374 09e2 44495350 		.ascii	"DISPLAY_NUEVO_PASSWORD\000"
 13374      4C41595F 
 13374      4E554556 
 13374      4F5F5041 
 13374      5353574F 
 13375              	.LASF107:
 13376 09f9 44495350 		.ascii	"DISPLAY_ID_RECONOCIDO\000"
 13376      4C41595F 
 13376      49445F52 
 13376      45434F4E 
 13376      4F434944 
 13377              	.LASF220:
 13378 0a0f 506C6174 		.ascii	"PlateRequest\000"
 13378      65526571 
 13378      75657374 
 13378      00
 13379              	.LASF131:
 13380 0a1c 44495350 		.ascii	"DISPLAY_IMPRESORA_NO_FUNCIONANDO\000"
 13380      4C41595F 
 13380      494D5052 
 13380      45534F52 
 13380      415F4E4F 
 13381              	.LASF305:
 13382 0a3d 67657453 		.ascii	"getSale\000"
 13382      616C6500 
 13383              	.LASF215:
 13384 0a45 74797065 		.ascii	"typeIdSeller\000"
 13384      49645365 
 13384      6C6C6572 
ARM GAS  C:\Users\RECEPC~1\AppData\Local\Temp\cc79eMMA.s 			page 285


 13384      00
 13385              	.LASF312:
 13386 0a52 6C656572 		.ascii	"leer_hora\000"
 13386      5F686F72 
 13386      6100
 13387              	.LASF9:
 13388 0a5c 6C6F6E67 		.ascii	"long long int\000"
 13388      206C6F6E 
 13388      6720696E 
 13388      7400
 13389              	.LASF119:
 13390 0a6a 44495350 		.ascii	"DISPLAY_AUTORIZACION_ACEPTADA\000"
 13390      4C41595F 
 13390      4155544F 
 13390      52495A41 
 13390      43494F4E 
 13391              	.LASF97:
 13392 0a88 44495350 		.ascii	"DISPLAY_DESEA_IMPRIMIR_RECIBO\000"
 13392      4C41595F 
 13392      44455345 
 13392      415F494D 
 13392      5052494D 
 13393              	.LASF103:
 13394 0aa6 44495350 		.ascii	"DISPLAY_GRACIAS_VUELVA_PRONTO\000"
 13394      4C41595F 
 13394      47524143 
 13394      4941535F 
 13394      5655454C 
 13395              	.LASF152:
 13396 0ac4 52465F44 		.ascii	"RF_DELIVERING\000"
 13396      454C4956 
 13396      4552494E 
 13396      4700
 13397              	.LASF167:
 13398 0ad2 696E6954 		.ascii	"iniText\000"
 13398      65787400 
 13399              	.LASF206:
 13400 0ada 70707578 		.ascii	"ppux10\000"
 13400      313000
 13401              	.LASF19:
 13402 0ae1 646F7562 		.ascii	"double\000"
 13402      6C6500
 13403              	.LASF99:
 13404 0ae8 44495350 		.ascii	"DISPLAY_PASSWORD_VALIDO\000"
 13404      4C41595F 
 13404      50415353 
 13404      574F5244 
 13404      5F56414C 
 13405              	.LASF213:
 13406 0b00 72657369 		.ascii	"residue\000"
 13406      64756500 
 13407              	.LASF91:
 13408 0b08 44495350 		.ascii	"DISPLAY_SELECCIONE_PRODUCTO3\000"
 13408      4C41595F 
 13408      53454C45 
 13408      4343494F 
 13408      4E455F50 
ARM GAS  C:\Users\RECEPC~1\AppData\Local\Temp\cc79eMMA.s 			page 286


 13409              	.LASF92:
 13410 0b25 44495350 		.ascii	"DISPLAY_SELECCIONE_PRODUCTO4\000"
 13410      4C41595F 
 13410      53454C45 
 13410      4343494F 
 13410      4E455F50 
 13411              	.LASF100:
 13412 0b42 44495350 		.ascii	"DISPLAY_PASSWORD_INVALIDO\000"
 13412      4C41595F 
 13412      50415353 
 13412      574F5244 
 13412      5F494E56 
 13413              	.LASF308:
 13414 0b5c 746F7563 		.ascii	"touch_write\000"
 13414      685F7772 
 13414      69746500 
 13415              	.LASF188:
 13416 0b68 49544D5F 		.ascii	"ITM_RxBuffer\000"
 13416      52784275 
 13416      66666572 
 13416      00
 13417              	.LASF217:
 13418 0b75 666C6167 		.ascii	"flagResetMux\000"
 13418      52657365 
 13418      744D7578 
 13418      00
 13419              	.LASF144:
 13420 0b82 50554D50 		.ascii	"PUMP_CALLING\000"
 13420      5F43414C 
 13420      4C494E47 
 13420      00
 13421              	.LASF18:
 13422 0b8f 666C6F61 		.ascii	"float\000"
 13422      7400
 13423              	.LASF73:
 13424 0b95 766F6C75 		.ascii	"volumeSale\000"
 13424      6D655361 
 13424      6C6500
 13425              	.LASF229:
 13426 0ba0 4D6F6E65 		.ascii	"MoneyDec\000"
 13426      79446563 
 13426      00
 13427              	.LASF66:
 13428 0ba9 73686966 		.ascii	"shiftId\000"
 13428      74496400 
 13429              	.LASF11:
 13430 0bb1 756E7369 		.ascii	"unsigned int\000"
 13430      676E6564 
 13430      20696E74 
 13430      00
 13431              	.LASF105:
 13432 0bbe 44495350 		.ascii	"DISPLAY_ID_NO_RECONOCIDO\000"
 13432      4C41595F 
 13432      49445F4E 
 13432      4F5F5245 
 13432      434F4E4F 
 13433              	.LASF204:
ARM GAS  C:\Users\RECEPC~1\AppData\Local\Temp\cc79eMMA.s 			page 287


 13434 0bd7 64656C61 		.ascii	"delayPicture1\000"
 13434      79506963 
 13434      74757265 
 13434      3100
 13435              	.LASF205:
 13436 0be5 64656C61 		.ascii	"delayPicture2\000"
 13436      79506963 
 13436      74757265 
 13436      3200
 13437              	.LASF69:
 13438 0bf3 706F7369 		.ascii	"position\000"
 13438      74696F6E 
 13438      00
 13439              	.LASF96:
 13440 0bfc 44495350 		.ascii	"DISPLAY_DIGITE_PLACA\000"
 13440      4C41595F 
 13440      44494749 
 13440      54455F50 
 13440      4C414341 
 13441              	.LASF38:
 13442 0c11 73616C65 		.ascii	"salePerform\000"
 13442      50657266 
 13442      6F726D00 
 13443              	.LASF23:
 13444 0c1d 63797374 		.ascii	"cystatus\000"
 13444      61747573 
 13444      00
 13445              	.LASF291:
 13446 0c26 50756D70 		.ascii	"PumpCompleteConfiguration\000"
 13446      436F6D70 
 13446      6C657465 
 13446      436F6E66 
 13446      69677572 
 13447              	.LASF40:
 13448 0c40 70726573 		.ascii	"presetValue\000"
 13448      65745661 
 13448      6C756500 
 13449              	.LASF33:
 13450 0c4c 6B657962 		.ascii	"keyboardWayToPay\000"
 13450      6F617264 
 13450      57617954 
 13450      6F506179 
 13450      00
 13451              	.LASF154:
 13452 0c5d 52465F43 		.ascii	"RF_CREDITSALEAUTH\000"
 13452      52454449 
 13452      5453414C 
 13452      45415554 
 13452      4800
 13453              	.LASF48:
 13454 0c6f 746F7461 		.ascii	"totalMoneyAfter\000"
 13454      6C4D6F6E 
 13454      65794166 
 13454      74657200 
 13455              	.LASF157:
 13456 0c7f 52465F45 		.ascii	"RF_ERROR\000"
 13456      52524F52 
ARM GAS  C:\Users\RECEPC~1\AppData\Local\Temp\cc79eMMA.s 			page 288


 13456      00
 13457              	.LASF231:
 13458 0c88 50505544 		.ascii	"PPUDec\000"
 13458      656300
 13459              	.LASF266:
 13460 0c8f 4D757856 		.ascii	"MuxVersion\000"
 13460      65727369 
 13460      6F6E00
 13461              	.LASF153:
 13462 0c9a 52465F43 		.ascii	"RF_CASHSALEREPORT\000"
 13462      41534853 
 13462      414C4552 
 13462      45504F52 
 13462      5400
 13463              	.LASF138:
 13464 0cac 44495350 		.ascii	"DISPLAY_SIDE_DUMMY_DISPLAY\000"
 13464      4C41595F 
 13464      53494445 
 13464      5F44554D 
 13464      4D595F44 
 13465              	.LASF307:
 13466 0cc7 746F7563 		.ascii	"touch_present\000"
 13466      685F7072 
 13466      6573656E 
 13466      7400
 13467              	.LASF121:
 13468 0cd5 44495350 		.ascii	"DISPLAY_CONFIGURAR_FECHA_HORA\000"
 13468      4C41595F 
 13468      434F4E46 
 13468      49475552 
 13468      41525F46 
 13469              	.LASF146:
 13470 0cf3 50554D50 		.ascii	"PUMP_BUSY\000"
 13470      5F425553 
 13470      5900
 13471              	.LASF296:
 13472 0cfd 44697370 		.ascii	"Display1_GetRxBufferSize\000"
 13472      6C617931 
 13472      5F476574 
 13472      52784275 
 13472      66666572 
 13473              	.LASF44:
 13474 0d16 74696D65 		.ascii	"timeLiftHandle\000"
 13474      4C696674 
 13474      48616E64 
 13474      6C6500
 13475              	.LASF43:
 13476 0d25 64617465 		.ascii	"dateLiftHandle\000"
 13476      4C696674 
 13476      48616E64 
 13476      6C6500
 13477              	.LASF142:
 13478 0d34 50554D50 		.ascii	"PUMP_FAIL\000"
 13478      5F464149 
 13478      4C00
 13479              	.LASF173:
 13480 0d3e 44697370 		.ascii	"DisplayMode\000"
ARM GAS  C:\Users\RECEPC~1\AppData\Local\Temp\cc79eMMA.s 			page 289


 13480      6C61794D 
 13480      6F646500 
 13481              	.LASF246:
 13482 0d4a 69645374 		.ascii	"idStation\000"
 13482      6174696F 
 13482      6E00
 13483              	.LASF116:
 13484 0d54 44495350 		.ascii	"DISPLAY_OPERACION_CANCELADA\000"
 13484      4C41595F 
 13484      4F504552 
 13484      4143494F 
 13484      4E5F4341 
 13485              	.LASF111:
 13486 0d70 44495350 		.ascii	"DISPLAY_OPERACIONES\000"
 13486      4C41595F 
 13486      4F504552 
 13486      4143494F 
 13486      4E455300 
 13487              	.LASF148:
 13488 0d84 50554D50 		.ascii	"PUMP_FEOT\000"
 13488      5F46454F 
 13488      5400
 13489              	.LASF36:
 13490 0d8e 76656869 		.ascii	"vehicleType\000"
 13490      636C6554 
 13490      79706500 
 13491              	.LASF168:
 13492 0d9a 556E6974 		.ascii	"Unit\000"
 13492      00
 13493              	.LASF84:
 13494 0d9f 44495350 		.ascii	"DISPLAY_INICIO0\000"
 13494      4C41595F 
 13494      494E4943 
 13494      494F3000 
 13495              	.LASF24:
 13496 0daf 63796973 		.ascii	"cyisraddress\000"
 13496      72616464 
 13496      72657373 
 13496      00
 13497              	.LASF228:
 13498 0dbc 436F6E76 		.ascii	"ConversionFactor\000"
 13498      65727369 
 13498      6F6E4661 
 13498      63746F72 
 13498      00
 13499              	.LASF106:
 13500 0dcd 44495350 		.ascii	"DISPLAY_ESPERANDO_ID\000"
 13500      4C41595F 
 13500      45535045 
 13500      52414E44 
 13500      4F5F4944 
 13501              	.LASF78:
 13502 0de2 686F7365 		.ascii	"hoseNumber\000"
 13502      4E756D62 
 13502      657200
 13503              	.LASF278:
 13504 0ded 57616974 		.ascii	"Waitable_3_Start\000"
ARM GAS  C:\Users\RECEPC~1\AppData\Local\Temp\cc79eMMA.s 			page 290


 13504      61626C65 
 13504      5F335F53 
 13504      74617274 
 13504      00
 13505              	.LASF87:
 13506 0dfe 44495350 		.ascii	"DISPLAY_FORMA_PAGO_DESEADA\000"
 13506      4C41595F 
 13506      464F524D 
 13506      415F5041 
 13506      474F5F44 
 13507              	.LASF10:
 13508 0e19 6C6F6E67 		.ascii	"long long unsigned int\000"
 13508      206C6F6E 
 13508      6720756E 
 13508      7369676E 
 13508      65642069 
 13509              	.LASF274:
 13510 0e30 44697370 		.ascii	"Display2_Start\000"
 13510      6C617932 
 13510      5F537461 
 13510      727400
 13511              	.LASF318:
 13512 0e3f 43795764 		.ascii	"CyWdtStart\000"
 13512      74537461 
 13512      727400
 13513              	.LASF13:
 13514 0e4a 75696E74 		.ascii	"uint16_t\000"
 13514      31365F74 
 13514      00
 13515              	.LASF49:
 13516 0e53 746F7461 		.ascii	"totalVolumeAfter\000"
 13516      6C566F6C 
 13516      756D6541 
 13516      66746572 
 13516      00
 13517              	.LASF283:
 13518 0e64 45455052 		.ascii	"EEPROM_1_ReadByte\000"
 13518      4F4D5F31 
 13518      5F526561 
 13518      64427974 
 13518      6500
 13519              	.LASF203:
 13520 0e76 70726F64 		.ascii	"productNumber\000"
 13520      7563744E 
 13520      756D6265 
 13520      7200
 13521              	.LASF147:
 13522 0e84 50554D50 		.ascii	"PUMP_PEOT\000"
 13522      5F50454F 
 13522      5400
 13523              	.LASF267:
 13524 0e8e 70617373 		.ascii	"passwordPump\000"
 13524      776F7264 
 13524      50756D70 
 13524      00
 13525              	.LASF237:
 13526 0e9b 68696464 		.ascii	"hiddenKeys\000"
ARM GAS  C:\Users\RECEPC~1\AppData\Local\Temp\cc79eMMA.s 			page 291


 13526      656E4B65 
 13526      797300
 13527              	.LASF64:
 13528 0ea6 666C6167 		.ascii	"flagPrint\000"
 13528      5072696E 
 13528      7400
 13529              	.LASF201:
 13530 0eb0 666C6167 		.ascii	"flagPoint1\000"
 13530      506F696E 
 13530      743100
 13531              	.LASF202:
 13532 0ebb 666C6167 		.ascii	"flagPoint2\000"
 13532      506F696E 
 13532      743200
 13533              	.LASF324:
 13534 0ec6 433A5C55 		.ascii	"C:\\Users\\Recepcion\\Documents\\GitHub\\NSY-DH\\Wo"
 13534      73657273 
 13534      5C526563 
 13534      65706369 
 13534      6F6E5C44 
 13535 0ef3 726B7370 		.ascii	"rkspace01\\Design01.cydsn\000"
 13535      61636530 
 13535      315C4465 
 13535      7369676E 
 13535      30312E63 
 13536              	.LASF281:
 13537 0f0c 57616974 		.ascii	"Waitable_4_Start\000"
 13537      61626C65 
 13537      5F345F53 
 13537      74617274 
 13537      00
 13538              	.LASF221:
 13539 0f1d 49444361 		.ascii	"IDCast\000"
 13539      737400
 13540              	.LASF210:
 13541 0f24 74696D65 		.ascii	"time\000"
 13541      00
 13542              	.LASF94:
 13543 0f29 44495350 		.ascii	"DISPLAY_DESPACHANDO\000"
 13543      4C41595F 
 13543      44455350 
 13543      41434841 
 13543      4E444F00 
 13544              	.LASF122:
 13545 0f3d 44495350 		.ascii	"DISPLAY_HORA\000"
 13545      4C41595F 
 13545      484F5241 
 13545      00
 13546              	.LASF230:
 13547 0f4a 566F6C44 		.ascii	"VolDec\000"
 13547      656300
 13548              	.LASF158:
 13549 0f51 52465F43 		.ascii	"RF_COPY_RECEIPT\000"
 13549      4F50595F 
 13549      52454345 
 13549      49505400 
 13550              	.LASF109:
ARM GAS  C:\Users\RECEPC~1\AppData\Local\Temp\cc79eMMA.s 			page 292


 13551 0f61 44495350 		.ascii	"DISPLAY_INTRODUZCA_VOLUMEN\000"
 13551      4C41595F 
 13551      494E5452 
 13551      4F44555A 
 13551      43415F56 
 13552              	.LASF34:
 13553 0f7c 61757468 		.ascii	"authorizationFlag\000"
 13553      6F72697A 
 13553      6174696F 
 13553      6E466C61 
 13553      6700
 13554              	.LASF317:
 13555 0f8e 54696D65 		.ascii	"Timer_Animacion2_ReadStatusRegister\000"
 13555      725F416E 
 13555      696D6163 
 13555      696F6E32 
 13555      5F526561 
 13556              	.LASF77:
 13557 0fb2 686F7365 		.ascii	"hose\000"
 13557      00
 13558              	.LASF127:
 13559 0fb7 44495350 		.ascii	"DISPLAY_CANCELADO_X_PC\000"
 13559      4C41595F 
 13559      43414E43 
 13559      454C4144 
 13559      4F5F585F 
 13560              	.LASF225:
 13561 0fce 74656D70 		.ascii	"tempPreset\000"
 13561      50726573 
 13561      657400
 13562              	.LASF15:
 13563 0fd9 75696E74 		.ascii	"uint8\000"
 13563      3800
 13564              	.LASF292:
 13565 0fdf 77726974 		.ascii	"write_psoc1\000"
 13565      655F7073 
 13565      6F633100 
 13566              	.LASF285:
 13567 0feb 53686F77 		.ascii	"ShowMessage\000"
 13567      4D657373 
 13567      61676500 
 13568              	.LASF2:
 13569 0ff7 73686F72 		.ascii	"short int\000"
 13569      7420696E 
 13569      7400
 13570              	.LASF133:
 13571 1001 44495350 		.ascii	"DISPLAY_PRECIO_POR_UNIDAD\000"
 13571      4C41595F 
 13571      50524543 
 13571      494F5F50 
 13571      4F525F55 
 13572              	.LASF316:
 13573 101b 44697370 		.ascii	"Display2_ClearRxBuffer\000"
 13573      6C617932 
 13573      5F436C65 
 13573      61725278 
 13573      42756666 
ARM GAS  C:\Users\RECEPC~1\AppData\Local\Temp\cc79eMMA.s 			page 293


 13574              	.LASF139:
 13575 1032 44495350 		.ascii	"DISPLAY_NULL\000"
 13575      4C41595F 
 13575      4E554C4C 
 13575      00
 13576              	.LASF239:
 13577 103f 566F6C55 		.ascii	"VolUnit\000"
 13577      6E697400 
 13578              	.LASF320:
 13579 1047 706F6C6C 		.ascii	"pollingRF_Rx\000"
 13579      696E6752 
 13579      465F5278 
 13579      00
 13580              	.LASF76:
 13581 1054 61637469 		.ascii	"activeHose\000"
 13581      7665486F 
 13581      736500
 13582              	.LASF313:
 13583 105f 6C656572 		.ascii	"leer_fecha\000"
 13583      5F666563 
 13583      686100
 13584              	.LASF272:
 13585 106a 50756D70 		.ascii	"Pump_Start\000"
 13585      5F537461 
 13585      727400
 13586              	.LASF53:
 13587 1075 6964656E 		.ascii	"identySale\000"
 13587      74795361 
 13587      6C6500
 13588              	.LASF214:
 13589 1080 69645365 		.ascii	"idSeller\000"
 13589      6C6C6572 
 13589      00
 13590              	.LASF187:
 13591 1089 44697370 		.ascii	"Display2_rxBuffer\000"
 13591      6C617932 
 13591      5F727842 
 13591      75666665 
 13591      7200
 13592              	.LASF74:
 13593 109b 70707553 		.ascii	"ppuSale\000"
 13593      616C6500 
 13594              	.LASF108:
 13595 10a3 44495350 		.ascii	"DISPLAY_INTRODUZCA_CEDULA\000"
 13595      4C41595F 
 13595      494E5452 
 13595      4F44555A 
 13595      43415F43 
 13596              	.LASF82:
 13597 10bd 70756D70 		.ascii	"pump\000"
 13597      00
 13598              	.LASF244:
 13599 10c2 636F6E66 		.ascii	"configAccess\000"
 13599      69674163 
 13599      63657373 
 13599      00
 13600              	.LASF277:
ARM GAS  C:\Users\RECEPC~1\AppData\Local\Temp\cc79eMMA.s 			page 294


 13601 10cf 52465F43 		.ascii	"RF_Connection_Start\000"
 13601      6F6E6E65 
 13601      6374696F 
 13601      6E5F5374 
 13601      61727400 
 13602              	.LASF161:
 13603 10e3 74696D65 		.ascii	"timerRFRX\000"
 13603      72524652 
 13603      5800
 13604              	.LASF242:
 13605 10ed 636F756E 		.ascii	"count_protector\000"
 13605      745F7072 
 13605      6F746563 
 13605      746F7200 
 13606              	.LASF247:
 13607 10fd 70756D70 		.ascii	"pumpGap\000"
 13607      47617000 
 13608              	.LASF191:
 13609 1105 636F756E 		.ascii	"countRX\000"
 13609      74525800 
 13610              	.LASF143:
 13611 110d 50554D50 		.ascii	"PUMP_IDLE\000"
 13611      5F49444C 
 13611      4500
 13612              	.LASF172:
 13613 1117 44697370 		.ascii	"DisplayMode0\000"
 13613      6C61794D 
 13613      6F646530 
 13613      00
 13614              	.LASF52:
 13615 1124 6D696C65 		.ascii	"mileageSale\000"
 13615      61676553 
 13615      616C6500 
 13616              	.LASF174:
 13617 1130 44697370 		.ascii	"DisplayMode2\000"
 13617      6C61794D 
 13617      6F646532 
 13617      00
 13618              	.LASF175:
 13619 113d 44697370 		.ascii	"DisplayMode3\000"
 13619      6C61794D 
 13619      6F646533 
 13619      00
 13620              	.LASF282:
 13621 114a 45455052 		.ascii	"EEPROM_1_WriteByte\000"
 13621      4F4D5F31 
 13621      5F577269 
 13621      74654279 
 13621      746500
 13622              	.LASF47:
 13623 115d 746F7461 		.ascii	"totalPPUPrevious\000"
 13623      6C505055 
 13623      50726576 
 13623      696F7573 
 13623      00
 13624              	.LASF124:
 13625 116e 44495350 		.ascii	"DISPLAY_OPCION_TURNO\000"
ARM GAS  C:\Users\RECEPC~1\AppData\Local\Temp\cc79eMMA.s 			page 295


 13625      4C41595F 
 13625      4F504349 
 13625      4F4E5F54 
 13625      55524E4F 
 13626              	.LASF321:
 13627 1183 706F6C6C 		.ascii	"pollingRF_Tx\000"
 13627      696E6752 
 13627      465F5478 
 13627      00
 13628              	.LASF72:
 13629 1190 6D6F6E65 		.ascii	"moneySale\000"
 13629      7953616C 
 13629      6500
 13630              	.LASF241:
 13631 119a 74696D65 		.ascii	"timeDownHandle\000"
 13631      446F776E 
 13631      48616E64 
 13631      6C6500
 13632              	.LASF41:
 13633 11a9 70726F64 		.ascii	"productType\000"
 13633      75637454 
 13633      79706500 
 13634              	.LASF162:
 13635 11b5 74696D65 		.ascii	"timerPump\000"
 13635      7250756D 
 13635      7000
 13636              	.LASF28:
 13637 11bf 77617954 		.ascii	"wayToPay\000"
 13637      6F506179 
 13637      00
 13638              	.LASF240:
 13639 11c8 64617465 		.ascii	"dateDownHandle\000"
 13639      446F776E 
 13639      48616E64 
 13639      6C6500
 13640              	.LASF276:
 13641 11d7 4932435F 		.ascii	"I2C_Bus_Start\000"
 13641      4275735F 
 13641      53746172 
 13641      7400
 13642              	.LASF286:
 13643 11e5 43794465 		.ascii	"CyDelay\000"
 13643      6C617900 
 13644              	.LASF243:
 13645 11ed 636F756E 		.ascii	"count_protector2\000"
 13645      745F7072 
 13645      6F746563 
 13645      746F7232 
 13645      00
 13646              	.LASF323:
 13647 11fe 2E5C6D61 		.ascii	".\\main.c\000"
 13647      696E2E63 
 13647      00
 13648              	.LASF315:
 13649 1207 44697370 		.ascii	"Display2_GetRxBufferSize\000"
 13649      6C617932 
 13649      5F476574 
ARM GAS  C:\Users\RECEPC~1\AppData\Local\Temp\cc79eMMA.s 			page 296


 13649      52784275 
 13649      66666572 
 13650              	.LASF192:
 13651 1220 636F756E 		.ascii	"countTX\000"
 13651      74545800 
 13652              	.LASF5:
 13653 1228 73686F72 		.ascii	"short unsigned int\000"
 13653      7420756E 
 13653      7369676E 
 13653      65642069 
 13653      6E7400
 13654              	.LASF303:
 13655 123b 50726573 		.ascii	"PresetData\000"
 13655      65744461 
 13655      746100
 13656              	.LASF141:
 13657 1246 5F50554D 		.ascii	"_PUMP_STATES_\000"
 13657      505F5354 
 13657      41544553 
 13657      5F00
 13658              	.LASF6:
 13659 1254 5F5F696E 		.ascii	"__int32_t\000"
 13659      7433325F 
 13659      7400
 13660              	.LASF145:
 13661 125e 50554D50 		.ascii	"PUMP_AUTHORIZED\000"
 13661      5F415554 
 13661      484F5249 
 13661      5A454400 
 13662              	.LASF169:
 13663 126e 556E6974 		.ascii	"Unit2\000"
 13663      3200
 13664              	.LASF170:
 13665 1274 556E6974 		.ascii	"Unit3\000"
 13665      3300
 13666              	.LASF171:
 13667 127a 556E6974 		.ascii	"Unit4\000"
 13667      3400
 13668              	.LASF54:
 13669 1280 666C6167 		.ascii	"flagKeyboard\000"
 13669      4B657962 
 13669      6F617264 
 13669      00
 13670              	.LASF284:
 13671 128d 53657450 		.ascii	"SetPicture\000"
 13671      69637475 
 13671      726500
 13672              	.LASF265:
 13673 1298 73696465 		.ascii	"side\000"
 13673      00
 13674              	.LASF61:
 13675 129d 70726963 		.ascii	"priceConsign\000"
 13675      65436F6E 
 13675      7369676E 
 13675      00
 13676              	.LASF149:
 13677 12aa 50554D50 		.ascii	"PUMP_STOPPED\000"
ARM GAS  C:\Users\RECEPC~1\AppData\Local\Temp\cc79eMMA.s 			page 297


 13677      5F53544F 
 13677      50504544 
 13677      00
 13678              	.LASF222:
 13679 12b7 41637469 		.ascii	"ActiveRF\000"
 13679      76655246 
 13679      00
 13680              	.LASF81:
 13681 12c0 6368616E 		.ascii	"changePPU\000"
 13681      67655050 
 13681      5500
 13682              	.LASF178:
 13683 12ca 5072696E 		.ascii	"PrintTest\000"
 13683      74546573 
 13683      7400
 13684              	.LASF16:
 13685 12d4 75696E74 		.ascii	"uint16\000"
 13685      313600
 13686              	.LASF273:
 13687 12db 44697370 		.ascii	"Display1_Start\000"
 13687      6C617931 
 13687      5F537461 
 13687      727400
 13688              	.LASF219:
 13689 12ea 50726576 		.ascii	"PrevStatePump\000"
 13689      53746174 
 13689      6550756D 
 13689      7000
 13690              	.LASF120:
 13691 12f8 44495350 		.ascii	"DISPLAY_AUTORIZACION_RECHAZADA\000"
 13691      4C41595F 
 13691      4155544F 
 13691      52495A41 
 13691      43494F4E 
 13692              		.ident	"GCC: (GNU Tools for ARM Embedded Processors) 4.9.3 20150303 (release) [ARM/embedded-4_9-br
