ARM GAS  C:\Users\RECEPC~1\AppData\Local\Temp\ccBlh02k.s 			page 1


   1              		.syntax unified
   2              		.cpu cortex-m3
   3              		.fpu softvfp
   4              		.eabi_attribute 20, 1
   5              		.eabi_attribute 21, 1
   6              		.eabi_attribute 23, 3
   7              		.eabi_attribute 24, 1
   8              		.eabi_attribute 25, 1
   9              		.eabi_attribute 26, 1
  10              		.eabi_attribute 30, 1
  11              		.eabi_attribute 34, 1
  12              		.eabi_attribute 18, 4
  13              		.thumb
  14              		.file	"main.c"
  15              		.text
  16              	.Ltext0:
  17              		.cfi_sections	.debug_frame
  18              		.section	.text.GlobalInitializer,"ax",%progbits
  19              		.align	2
  20              		.global	GlobalInitializer
  21              		.thumb
  22              		.thumb_func
  23              		.type	GlobalInitializer, %function
  24              	GlobalInitializer:
  25              	.LFB63:
  26              		.file 1 ".\\main.c"
   1:.\main.c      **** /* ========================================
   2:.\main.c      ****  *
   3:.\main.c      ****  * Copyright YOUR COMPANY, THE YEAR
   4:.\main.c      ****  * All Rights Reserved
   5:.\main.c      ****  * UNPUBLISHED, LICENSED SOFTWARE.
   6:.\main.c      ****  *
   7:.\main.c      ****  * CONFIDENTIAL AND PROPRIETARY INFORMATION
   8:.\main.c      ****  * WHICH IS THE PROPERTY OF your company.
   9:.\main.c      ****  *
  10:.\main.c      ****  * ========================================
  11:.\main.c      **** */
  12:.\main.c      **** #include <project.h>
  13:.\main.c      **** #include <protocol.h>
  14:.\main.c      **** #include <variables.h>
  15:.\main.c      **** #include <keyboard.h>
  16:.\main.c      **** #include <LCD.h>
  17:.\main.c      **** #include <I2C.h>
  18:.\main.c      **** #include <Print.h>
  19:.\main.c      **** #include <device.h>
  20:.\main.c      **** 
  21:.\main.c      **** /**********************************/
  22:.\main.c      **** 
  23:.\main.c      **** uint8 MuxVersion [10] = "MUX V. 1.0";
  24:.\main.c      **** 
  25:.\main.c      **** void GlobalInitializer()
  26:.\main.c      **** {
  27              		.loc 1 26 0
  28              		.cfi_startproc
  29              		@ args = 0, pretend = 0, frame = 0
  30              		@ frame_needed = 0, uses_anonymous_args = 0
  31 0000 08B5     		push	{r3, lr}
ARM GAS  C:\Users\RECEPC~1\AppData\Local\Temp\ccBlh02k.s 			page 2


  32              		.cfi_def_cfa_offset 8
  33              		.cfi_offset 3, -8
  34              		.cfi_offset 14, -4
  27:.\main.c      ****     EEPROM_1_Start();
  35              		.loc 1 27 0
  36 0002 FFF7FEFF 		bl	EEPROM_1_Start
  37              	.LVL0:
  28:.\main.c      ****     Pump_Start(); 
  38              		.loc 1 28 0
  39 0006 FFF7FEFF 		bl	Pump_Start
  40              	.LVL1:
  29:.\main.c      ****     Display1_Start();
  41              		.loc 1 29 0
  42 000a FFF7FEFF 		bl	Display1_Start
  43              	.LVL2:
  30:.\main.c      ****     Display2_Start();
  44              		.loc 1 30 0
  45 000e FFF7FEFF 		bl	Display2_Start
  46              	.LVL3:
  31:.\main.c      ****     RF_Physical_Start();    
  47              		.loc 1 31 0
  48 0012 FFF7FEFF 		bl	RF_Physical_Start
  49              	.LVL4:
  32:.\main.c      ****     Printer_Start();   
  50              		.loc 1 32 0
  51 0016 FFF7FEFF 		bl	Printer_Start
  52              	.LVL5:
  33:.\main.c      ****     I2C_Bus_Start();
  53              		.loc 1 33 0
  54 001a FFF7FEFF 		bl	I2C_Bus_Start
  55              	.LVL6:
  56 001e 08BD     		pop	{r3, pc}
  57              		.cfi_endproc
  58              	.LFE63:
  59              		.size	GlobalInitializer, .-GlobalInitializer
  60              		.section	.text.StoreConfiguration,"ax",%progbits
  61              		.align	2
  62              		.global	StoreConfiguration
  63              		.thumb
  64              		.thumb_func
  65              		.type	StoreConfiguration, %function
  66              	StoreConfiguration:
  67              	.LFB64:
  34:.\main.c      **** }
  35:.\main.c      **** void StoreConfiguration(){
  68              		.loc 1 35 0
  69              		.cfi_startproc
  70              		@ args = 0, pretend = 0, frame = 0
  71              		@ frame_needed = 0, uses_anonymous_args = 0
  72 0000 10B5     		push	{r4, lr}
  73              		.cfi_def_cfa_offset 8
  74              		.cfi_offset 4, -8
  75              		.cfi_offset 14, -4
  36:.\main.c      ****     EEPROM_1_WriteByte(UnitType,0);
  76              		.loc 1 36 0
  77 0002 154C     		ldr	r4, .L5
  78 0004 2078     		ldrb	r0, [r4]	@ zero_extendqisi2
ARM GAS  C:\Users\RECEPC~1\AppData\Local\Temp\ccBlh02k.s 			page 3


  79 0006 0021     		movs	r1, #0
  80 0008 FFF7FEFF 		bl	EEPROM_1_WriteByte
  81              	.LVL7:
  37:.\main.c      ****     EEPROM_1_WriteByte(ConversionFactor,1);
  82              		.loc 1 37 0
  83 000c 134B     		ldr	r3, .L5+4
  84 000e 1878     		ldrb	r0, [r3]	@ zero_extendqisi2
  85 0010 0121     		movs	r1, #1
  86 0012 FFF7FEFF 		bl	EEPROM_1_WriteByte
  87              	.LVL8:
  38:.\main.c      ****     EEPROM_1_WriteByte(MoneyDec,2);
  88              		.loc 1 38 0
  89 0016 124B     		ldr	r3, .L5+8
  90 0018 1878     		ldrb	r0, [r3]	@ zero_extendqisi2
  91 001a 0221     		movs	r1, #2
  92 001c FFF7FEFF 		bl	EEPROM_1_WriteByte
  93              	.LVL9:
  39:.\main.c      ****     EEPROM_1_WriteByte(VolDec,3);
  94              		.loc 1 39 0
  95 0020 104B     		ldr	r3, .L5+12
  96 0022 1878     		ldrb	r0, [r3]	@ zero_extendqisi2
  97 0024 0321     		movs	r1, #3
  98 0026 FFF7FEFF 		bl	EEPROM_1_WriteByte
  99              	.LVL10:
  40:.\main.c      ****     EEPROM_1_WriteByte(PPUDec,4);
 100              		.loc 1 40 0
 101 002a 0F4B     		ldr	r3, .L5+16
 102 002c 1878     		ldrb	r0, [r3]	@ zero_extendqisi2
 103 002e 0421     		movs	r1, #4
 104 0030 FFF7FEFF 		bl	EEPROM_1_WriteByte
 105              	.LVL11:
  41:.\main.c      ****     EEPROM_1_WriteByte(DDMode,5);
 106              		.loc 1 41 0
 107 0034 0D4B     		ldr	r3, .L5+20
 108 0036 1878     		ldrb	r0, [r3]	@ zero_extendqisi2
 109 0038 0521     		movs	r1, #5
 110 003a FFF7FEFF 		bl	EEPROM_1_WriteByte
 111              	.LVL12:
  42:.\main.c      ****     EEPROM_1_WriteByte(digits,6);
 112              		.loc 1 42 0
 113 003e 0C4B     		ldr	r3, .L5+24
 114 0040 1878     		ldrb	r0, [r3]	@ zero_extendqisi2
 115 0042 0621     		movs	r1, #6
 116 0044 FFF7FEFF 		bl	EEPROM_1_WriteByte
 117              	.LVL13:
  43:.\main.c      ****     EEPROM_1_WriteByte(UnitType+1,7);
 118              		.loc 1 43 0
 119 0048 2078     		ldrb	r0, [r4]	@ zero_extendqisi2
 120 004a 0130     		adds	r0, r0, #1
 121 004c C0B2     		uxtb	r0, r0
 122 004e 0721     		movs	r1, #7
 123 0050 FFF7FEFF 		bl	EEPROM_1_WriteByte
 124              	.LVL14:
 125 0054 10BD     		pop	{r4, pc}
 126              	.L6:
 127 0056 00BF     		.align	2
 128              	.L5:
ARM GAS  C:\Users\RECEPC~1\AppData\Local\Temp\ccBlh02k.s 			page 4


 129 0058 00000000 		.word	UnitType
 130 005c 00000000 		.word	ConversionFactor
 131 0060 00000000 		.word	MoneyDec
 132 0064 00000000 		.word	VolDec
 133 0068 00000000 		.word	PPUDec
 134 006c 00000000 		.word	DDMode
 135 0070 00000000 		.word	digits
 136              		.cfi_endproc
 137              	.LFE64:
 138              		.size	StoreConfiguration, .-StoreConfiguration
 139              		.section	.text.InitDisplay1,"ax",%progbits
 140              		.align	2
 141              		.global	InitDisplay1
 142              		.thumb
 143              		.thumb_func
 144              		.type	InitDisplay1, %function
 145              	InitDisplay1:
 146              	.LFB65:
  44:.\main.c      **** }
  45:.\main.c      **** /*
  46:.\main.c      **** ***************************************************************************************************
  47:.\main.c      **** *                                         void InitDisplay1(void)
  48:.\main.c      **** *
  49:.\main.c      **** * Description : Pregunta configuraciones al dispensador 
  50:.\main.c      **** *               
  51:.\main.c      **** *
  52:.\main.c      **** ***************************************************************************************************
  53:.\main.c      **** */
  54:.\main.c      **** void InitDisplay1(){      
 147              		.loc 1 54 0
 148              		.cfi_startproc
 149              		@ args = 0, pretend = 0, frame = 112
 150              		@ frame_needed = 0, uses_anonymous_args = 0
 151 0000 10B5     		push	{r4, lr}
 152              		.cfi_def_cfa_offset 8
 153              		.cfi_offset 4, -8
 154              		.cfi_offset 14, -4
 155 0002 9CB0     		sub	sp, sp, #112
 156              		.cfi_def_cfa_offset 120
  55:.\main.c      ****     uint8_t iniText[10]="Iniciando"; 
 157              		.loc 1 55 0
 158 0004 994A     		ldr	r2, .L24
 159 0006 19AB     		add	r3, sp, #100
 160 0008 07CA     		ldmia	r2, {r0, r1, r2}
 161 000a 03C3     		stmia	r3!, {r0, r1}
 162 000c 1A80     		strh	r2, [r3]	@ movhi
  56:.\main.c      ****     uint8_t Unit[10] = "S/D/Dupla ";
 163              		.loc 1 56 0
 164 000e 984B     		ldr	r3, .L24+4
 165 0010 16AC     		add	r4, sp, #88
 166 0012 93E80700 		ldmia	r3, {r0, r1, r2}
 167 0016 03C4     		stmia	r4!, {r0, r1}
 168 0018 2280     		strh	r2, [r4]	@ movhi
  57:.\main.c      ****     uint8_t Unit2[10] = "Quadrupla";
 169              		.loc 1 57 0
 170 001a 964A     		ldr	r2, .L24+8
 171 001c 13AC     		add	r4, sp, #76
ARM GAS  C:\Users\RECEPC~1\AppData\Local\Temp\ccBlh02k.s 			page 5


 172 001e 07CA     		ldmia	r2, {r0, r1, r2}
 173 0020 03C4     		stmia	r4!, {r0, r1}
 174 0022 2280     		strh	r2, [r4]	@ movhi
  58:.\main.c      ****     uint8_t Unit3[10] = "Sextupla";
 175              		.loc 1 58 0
 176 0024 10AC     		add	r4, sp, #64
 177 0026 03F10C02 		add	r2, r3, #12
 178 002a 07CA     		ldmia	r2, {r0, r1, r2}
 179 002c 03C4     		stmia	r4!, {r0, r1}
 180 002e 2270     		strb	r2, [r4]
 181 0030 0022     		movs	r2, #0
 182 0032 8DF84920 		strb	r2, [sp, #73]
  59:.\main.c      ****     uint8_t Unit4[10] = "Octupla";
 183              		.loc 1 59 0
 184 0036 0DAC     		add	r4, sp, #52
 185 0038 03F11801 		add	r1, r3, #24
 186 003c 03C9     		ldmia	r1, {r0, r1}
 187 003e 84E80300 		stmia	r4, {r0, r1}
 188 0042 ADF83C20 		strh	r2, [sp, #60]	@ movhi
  60:.\main.c      ****     uint8_t DisplayMode0[10] = "5-5-4     ";
 189              		.loc 1 60 0
 190 0046 0AAC     		add	r4, sp, #40
 191 0048 03F12402 		add	r2, r3, #36
 192 004c 07CA     		ldmia	r2, {r0, r1, r2}
 193 004e 03C4     		stmia	r4!, {r0, r1}
 194 0050 2280     		strh	r2, [r4]	@ movhi
  61:.\main.c      ****     uint8_t DisplayMode[10] = "6-6-4     ";
 195              		.loc 1 61 0
 196 0052 07AC     		add	r4, sp, #28
 197 0054 03F13002 		add	r2, r3, #48
 198 0058 07CA     		ldmia	r2, {r0, r1, r2}
 199 005a 03C4     		stmia	r4!, {r0, r1}
 200 005c 2280     		strh	r2, [r4]	@ movhi
  62:.\main.c      ****     uint8_t DisplayMode2[10] = "7-7-5     ";
 201              		.loc 1 62 0
 202 005e 04AC     		add	r4, sp, #16
 203 0060 03F13C02 		add	r2, r3, #60
 204 0064 07CA     		ldmia	r2, {r0, r1, r2}
 205 0066 03C4     		stmia	r4!, {r0, r1}
 206 0068 2280     		strh	r2, [r4]	@ movhi
  63:.\main.c      ****     uint8_t DisplayMode3[10] = "8-7-5     ";
 207              		.loc 1 63 0
 208 006a 01AC     		add	r4, sp, #4
 209 006c 4833     		adds	r3, r3, #72
 210 006e 93E80700 		ldmia	r3, {r0, r1, r2}
 211 0072 03C4     		stmia	r4!, {r0, r1}
 212 0074 2280     		strh	r2, [r4]	@ movhi
  64:.\main.c      ****     if(NumPositions == 2){
 213              		.loc 1 64 0
 214 0076 804B     		ldr	r3, .L24+12
 215 0078 1B78     		ldrb	r3, [r3]	@ zero_extendqisi2
 216 007a 022B     		cmp	r3, #2
 217 007c 7AD1     		bne	.L8
  65:.\main.c      ****         SetPicture(1,DISPLAY_INICIO0);         
 218              		.loc 1 65 0
 219 007e 0120     		movs	r0, #1
 220 0080 0146     		mov	r1, r0
ARM GAS  C:\Users\RECEPC~1\AppData\Local\Temp\ccBlh02k.s 			page 6


 221 0082 FFF7FEFF 		bl	SetPicture
 222              	.LVL15:
  66:.\main.c      ****         ShowMessage(1,iniText,0);    
 223              		.loc 1 66 0
 224 0086 0120     		movs	r0, #1
 225 0088 19A9     		add	r1, sp, #100
 226 008a 0022     		movs	r2, #0
 227 008c FFF7FEFF 		bl	ShowMessage
 228              	.LVL16:
  67:.\main.c      ****         CyDelay(300);
 229              		.loc 1 67 0
 230 0090 4FF49670 		mov	r0, #300
 231 0094 FFF7FEFF 		bl	CyDelay
 232              	.LVL17:
  68:.\main.c      ****         if(UnitType == 0){
 233              		.loc 1 68 0
 234 0098 784B     		ldr	r3, .L24+16
 235 009a 1B78     		ldrb	r3, [r3]	@ zero_extendqisi2
 236 009c 5BB9     		cbnz	r3, .L9
  69:.\main.c      ****             side.a.hoseNumber = UnitType+1;
 237              		.loc 1 69 0
 238 009e 0133     		adds	r3, r3, #1
 239 00a0 DBB2     		uxtb	r3, r3
 240 00a2 774A     		ldr	r2, .L24+20
 241 00a4 82F80231 		strb	r3, [r2, #258]
  70:.\main.c      ****             side.b.hoseNumber = UnitType+1;
 242              		.loc 1 70 0
 243 00a8 82F80532 		strb	r3, [r2, #517]
  71:.\main.c      ****             ShowMessage(1,Unit,0);  //Mostrar tipo de dispensador      
 244              		.loc 1 71 0
 245 00ac 0120     		movs	r0, #1
 246 00ae 16A9     		add	r1, sp, #88
 247 00b0 0022     		movs	r2, #0
 248 00b2 FFF7FEFF 		bl	ShowMessage
 249              	.LVL18:
 250              	.L9:
  72:.\main.c      ****         }
  73:.\main.c      ****         if(UnitType == 1){
 251              		.loc 1 73 0
 252 00b6 714B     		ldr	r3, .L24+16
 253 00b8 1B78     		ldrb	r3, [r3]	@ zero_extendqisi2
 254 00ba 012B     		cmp	r3, #1
 255 00bc 0BD1     		bne	.L10
  74:.\main.c      ****             side.a.hoseNumber = UnitType+1;
 256              		.loc 1 74 0
 257 00be 0133     		adds	r3, r3, #1
 258 00c0 DBB2     		uxtb	r3, r3
 259 00c2 6F4A     		ldr	r2, .L24+20
 260 00c4 82F80231 		strb	r3, [r2, #258]
  75:.\main.c      ****             side.b.hoseNumber = UnitType+1;
 261              		.loc 1 75 0
 262 00c8 82F80532 		strb	r3, [r2, #517]
  76:.\main.c      ****             ShowMessage(1,Unit2,0);
 263              		.loc 1 76 0
 264 00cc 0120     		movs	r0, #1
 265 00ce 13A9     		add	r1, sp, #76
 266 00d0 0022     		movs	r2, #0
ARM GAS  C:\Users\RECEPC~1\AppData\Local\Temp\ccBlh02k.s 			page 7


 267 00d2 FFF7FEFF 		bl	ShowMessage
 268              	.LVL19:
 269              	.L10:
  77:.\main.c      ****         }
  78:.\main.c      ****         if(UnitType == 2){
 270              		.loc 1 78 0
 271 00d6 694B     		ldr	r3, .L24+16
 272 00d8 1B78     		ldrb	r3, [r3]	@ zero_extendqisi2
 273 00da 022B     		cmp	r3, #2
 274 00dc 0BD1     		bne	.L11
  79:.\main.c      ****             side.a.hoseNumber = UnitType+1;
 275              		.loc 1 79 0
 276 00de 0133     		adds	r3, r3, #1
 277 00e0 DBB2     		uxtb	r3, r3
 278 00e2 674A     		ldr	r2, .L24+20
 279 00e4 82F80231 		strb	r3, [r2, #258]
  80:.\main.c      ****             side.b.hoseNumber = UnitType+1;
 280              		.loc 1 80 0
 281 00e8 82F80532 		strb	r3, [r2, #517]
  81:.\main.c      ****            ShowMessage(1,Unit3,0);
 282              		.loc 1 81 0
 283 00ec 0120     		movs	r0, #1
 284 00ee 10A9     		add	r1, sp, #64
 285 00f0 0022     		movs	r2, #0
 286 00f2 FFF7FEFF 		bl	ShowMessage
 287              	.LVL20:
 288              	.L11:
  82:.\main.c      ****         }
  83:.\main.c      ****         if(UnitType == 3){
 289              		.loc 1 83 0
 290 00f6 614B     		ldr	r3, .L24+16
 291 00f8 1B78     		ldrb	r3, [r3]	@ zero_extendqisi2
 292 00fa 032B     		cmp	r3, #3
 293 00fc 0BD1     		bne	.L12
  84:.\main.c      ****             side.a.hoseNumber = UnitType+1;
 294              		.loc 1 84 0
 295 00fe 0133     		adds	r3, r3, #1
 296 0100 DBB2     		uxtb	r3, r3
 297 0102 5F4A     		ldr	r2, .L24+20
 298 0104 82F80231 		strb	r3, [r2, #258]
  85:.\main.c      ****             side.b.hoseNumber = UnitType+1;
 299              		.loc 1 85 0
 300 0108 82F80532 		strb	r3, [r2, #517]
  86:.\main.c      ****             ShowMessage(1,Unit4,0);
 301              		.loc 1 86 0
 302 010c 0120     		movs	r0, #1
 303 010e 0DA9     		add	r1, sp, #52
 304 0110 0022     		movs	r2, #0
 305 0112 FFF7FEFF 		bl	ShowMessage
 306              	.LVL21:
 307              	.L12:
  87:.\main.c      ****         } 
  88:.\main.c      ****         if(DDMode == 0){
 308              		.loc 1 88 0
 309 0116 5B4B     		ldr	r3, .L24+24
 310 0118 1B78     		ldrb	r3, [r3]	@ zero_extendqisi2
 311 011a 3BB9     		cbnz	r3, .L13
ARM GAS  C:\Users\RECEPC~1\AppData\Local\Temp\ccBlh02k.s 			page 8


  89:.\main.c      ****             ShowMessage(1,DisplayMode0,22); //Mostrar modo de display
 312              		.loc 1 89 0
 313 011c 0120     		movs	r0, #1
 314 011e 0AA9     		add	r1, sp, #40
 315 0120 1622     		movs	r2, #22
 316 0122 FFF7FEFF 		bl	ShowMessage
 317              	.LVL22:
  90:.\main.c      ****             digits = 5;
 318              		.loc 1 90 0
 319 0126 0522     		movs	r2, #5
 320 0128 574B     		ldr	r3, .L24+28
 321 012a 1A70     		strb	r2, [r3]
 322              	.L13:
  91:.\main.c      ****         }
  92:.\main.c      ****         if(DDMode == 1){
 323              		.loc 1 92 0
 324 012c 554B     		ldr	r3, .L24+24
 325 012e 1B78     		ldrb	r3, [r3]	@ zero_extendqisi2
 326 0130 012B     		cmp	r3, #1
 327 0132 07D1     		bne	.L14
  93:.\main.c      ****             ShowMessage(1,DisplayMode,22); //Mostrar modo de display
 328              		.loc 1 93 0
 329 0134 0120     		movs	r0, #1
 330 0136 07A9     		add	r1, sp, #28
 331 0138 1622     		movs	r2, #22
 332 013a FFF7FEFF 		bl	ShowMessage
 333              	.LVL23:
  94:.\main.c      ****             digits = 6;
 334              		.loc 1 94 0
 335 013e 0622     		movs	r2, #6
 336 0140 514B     		ldr	r3, .L24+28
 337 0142 1A70     		strb	r2, [r3]
 338              	.L14:
  95:.\main.c      ****         }
  96:.\main.c      ****         if(DDMode == 2){
 339              		.loc 1 96 0
 340 0144 4F4B     		ldr	r3, .L24+24
 341 0146 1B78     		ldrb	r3, [r3]	@ zero_extendqisi2
 342 0148 022B     		cmp	r3, #2
 343 014a 07D1     		bne	.L15
  97:.\main.c      ****            ShowMessage(1,DisplayMode2,22);
 344              		.loc 1 97 0
 345 014c 0120     		movs	r0, #1
 346 014e 04A9     		add	r1, sp, #16
 347 0150 1622     		movs	r2, #22
 348 0152 FFF7FEFF 		bl	ShowMessage
 349              	.LVL24:
  98:.\main.c      ****             digits = 7;
 350              		.loc 1 98 0
 351 0156 0722     		movs	r2, #7
 352 0158 4B4B     		ldr	r3, .L24+28
 353 015a 1A70     		strb	r2, [r3]
 354              	.L15:
  99:.\main.c      ****         }
 100:.\main.c      ****         if(DDMode == 3){
 355              		.loc 1 100 0
 356 015c 494B     		ldr	r3, .L24+24
ARM GAS  C:\Users\RECEPC~1\AppData\Local\Temp\ccBlh02k.s 			page 9


 357 015e 1B78     		ldrb	r3, [r3]	@ zero_extendqisi2
 358 0160 032B     		cmp	r3, #3
 359 0162 07D1     		bne	.L8
 101:.\main.c      ****             ShowMessage(1,DisplayMode3,22);
 360              		.loc 1 101 0
 361 0164 0120     		movs	r0, #1
 362 0166 01A9     		add	r1, sp, #4
 363 0168 1622     		movs	r2, #22
 364 016a FFF7FEFF 		bl	ShowMessage
 365              	.LVL25:
 102:.\main.c      ****             digits = 8;
 366              		.loc 1 102 0
 367 016e 0822     		movs	r2, #8
 368 0170 454B     		ldr	r3, .L24+28
 369 0172 1A70     		strb	r2, [r3]
 370              	.L8:
 103:.\main.c      ****         }        
 104:.\main.c      ****     }
 105:.\main.c      ****     if(NumPositions == 4){
 371              		.loc 1 105 0
 372 0174 404B     		ldr	r3, .L24+12
 373 0176 1B78     		ldrb	r3, [r3]	@ zero_extendqisi2
 374 0178 042B     		cmp	r3, #4
 375 017a 6DD1     		bne	.L16
 106:.\main.c      ****         SetPicture(1,DISPLAY_SELECCIONE_POSICION);        
 376              		.loc 1 106 0
 377 017c 0120     		movs	r0, #1
 378 017e 2E21     		movs	r1, #46
 379 0180 FFF7FEFF 		bl	SetPicture
 380              	.LVL26:
 107:.\main.c      ****         ShowMessage(1,iniText,0);    
 381              		.loc 1 107 0
 382 0184 0120     		movs	r0, #1
 383 0186 19A9     		add	r1, sp, #100
 384 0188 0022     		movs	r2, #0
 385 018a FFF7FEFF 		bl	ShowMessage
 386              	.LVL27:
 108:.\main.c      ****         CyDelay(300);
 387              		.loc 1 108 0
 388 018e 4FF49670 		mov	r0, #300
 389 0192 FFF7FEFF 		bl	CyDelay
 390              	.LVL28:
 109:.\main.c      ****         if(UnitType == 0){
 391              		.loc 1 109 0
 392 0196 394B     		ldr	r3, .L24+16
 393 0198 1B78     		ldrb	r3, [r3]	@ zero_extendqisi2
 394 019a 7BB9     		cbnz	r3, .L17
 110:.\main.c      ****             side.a.hoseNumber = UnitType+1;
 395              		.loc 1 110 0
 396 019c 0133     		adds	r3, r3, #1
 397 019e DBB2     		uxtb	r3, r3
 398 01a0 374A     		ldr	r2, .L24+20
 399 01a2 82F80231 		strb	r3, [r2, #258]
 111:.\main.c      ****             side.b.hoseNumber = UnitType+1;
 400              		.loc 1 111 0
 401 01a6 82F80532 		strb	r3, [r2, #517]
 112:.\main.c      ****             side.c.hoseNumber = UnitType+1;
ARM GAS  C:\Users\RECEPC~1\AppData\Local\Temp\ccBlh02k.s 			page 10


 402              		.loc 1 112 0
 403 01aa 82F80833 		strb	r3, [r2, #776]
 113:.\main.c      ****             side.d.hoseNumber = UnitType+1;
 404              		.loc 1 113 0
 405 01ae 82F80B34 		strb	r3, [r2, #1035]
 114:.\main.c      ****             ShowMessage(1,Unit,0);  //Mostrar tipo de dispensador      
 406              		.loc 1 114 0
 407 01b2 0120     		movs	r0, #1
 408 01b4 16A9     		add	r1, sp, #88
 409 01b6 0022     		movs	r2, #0
 410 01b8 FFF7FEFF 		bl	ShowMessage
 411              	.LVL29:
 412              	.L17:
 115:.\main.c      ****         }
 116:.\main.c      ****         if(UnitType == 1){
 413              		.loc 1 116 0
 414 01bc 2F4B     		ldr	r3, .L24+16
 415 01be 1B78     		ldrb	r3, [r3]	@ zero_extendqisi2
 416 01c0 012B     		cmp	r3, #1
 417 01c2 0FD1     		bne	.L18
 117:.\main.c      ****             side.a.hoseNumber = UnitType+1;
 418              		.loc 1 117 0
 419 01c4 0133     		adds	r3, r3, #1
 420 01c6 DBB2     		uxtb	r3, r3
 421 01c8 2D4A     		ldr	r2, .L24+20
 422 01ca 82F80231 		strb	r3, [r2, #258]
 118:.\main.c      ****             side.b.hoseNumber = UnitType+1;
 423              		.loc 1 118 0
 424 01ce 82F80532 		strb	r3, [r2, #517]
 119:.\main.c      ****             side.c.hoseNumber = UnitType+1;
 425              		.loc 1 119 0
 426 01d2 82F80833 		strb	r3, [r2, #776]
 120:.\main.c      ****             side.d.hoseNumber = UnitType+1;
 427              		.loc 1 120 0
 428 01d6 82F80B34 		strb	r3, [r2, #1035]
 121:.\main.c      ****             ShowMessage(1,Unit2,0);
 429              		.loc 1 121 0
 430 01da 0120     		movs	r0, #1
 431 01dc 13A9     		add	r1, sp, #76
 432 01de 0022     		movs	r2, #0
 433 01e0 FFF7FEFF 		bl	ShowMessage
 434              	.LVL30:
 435              	.L18:
 122:.\main.c      ****         }
 123:.\main.c      ****         if(UnitType == 2){
 436              		.loc 1 123 0
 437 01e4 254B     		ldr	r3, .L24+16
 438 01e6 1B78     		ldrb	r3, [r3]	@ zero_extendqisi2
 439 01e8 022B     		cmp	r3, #2
 440 01ea 0FD1     		bne	.L19
 124:.\main.c      ****             side.a.hoseNumber = UnitType+1;
 441              		.loc 1 124 0
 442 01ec 0133     		adds	r3, r3, #1
 443 01ee DBB2     		uxtb	r3, r3
 444 01f0 234A     		ldr	r2, .L24+20
 445 01f2 82F80231 		strb	r3, [r2, #258]
 125:.\main.c      ****             side.b.hoseNumber = UnitType+1;
ARM GAS  C:\Users\RECEPC~1\AppData\Local\Temp\ccBlh02k.s 			page 11


 446              		.loc 1 125 0
 447 01f6 82F80532 		strb	r3, [r2, #517]
 126:.\main.c      ****             side.c.hoseNumber = UnitType+1;
 448              		.loc 1 126 0
 449 01fa 82F80833 		strb	r3, [r2, #776]
 127:.\main.c      ****             side.d.hoseNumber = UnitType+1;
 450              		.loc 1 127 0
 451 01fe 82F80B34 		strb	r3, [r2, #1035]
 128:.\main.c      ****            ShowMessage(1,Unit3,0);
 452              		.loc 1 128 0
 453 0202 0120     		movs	r0, #1
 454 0204 10A9     		add	r1, sp, #64
 455 0206 0022     		movs	r2, #0
 456 0208 FFF7FEFF 		bl	ShowMessage
 457              	.LVL31:
 458              	.L19:
 129:.\main.c      ****         }
 130:.\main.c      ****         if(UnitType == 3){
 459              		.loc 1 130 0
 460 020c 1B4B     		ldr	r3, .L24+16
 461 020e 1B78     		ldrb	r3, [r3]	@ zero_extendqisi2
 462 0210 032B     		cmp	r3, #3
 463 0212 0FD1     		bne	.L20
 131:.\main.c      ****             side.a.hoseNumber = UnitType+1;
 464              		.loc 1 131 0
 465 0214 0133     		adds	r3, r3, #1
 466 0216 DBB2     		uxtb	r3, r3
 467 0218 194A     		ldr	r2, .L24+20
 468 021a 82F80231 		strb	r3, [r2, #258]
 132:.\main.c      ****             side.b.hoseNumber = UnitType+1;
 469              		.loc 1 132 0
 470 021e 82F80532 		strb	r3, [r2, #517]
 133:.\main.c      ****             side.c.hoseNumber = UnitType+1;
 471              		.loc 1 133 0
 472 0222 82F80833 		strb	r3, [r2, #776]
 134:.\main.c      ****             side.d.hoseNumber = UnitType+1;
 473              		.loc 1 134 0
 474 0226 82F80B34 		strb	r3, [r2, #1035]
 135:.\main.c      ****             ShowMessage(1,Unit4,0);
 475              		.loc 1 135 0
 476 022a 0120     		movs	r0, #1
 477 022c 0DA9     		add	r1, sp, #52
 478 022e 0022     		movs	r2, #0
 479 0230 FFF7FEFF 		bl	ShowMessage
 480              	.LVL32:
 481              	.L20:
 136:.\main.c      ****         }    
 137:.\main.c      ****         if(DDMode == 1){
 482              		.loc 1 137 0
 483 0234 134B     		ldr	r3, .L24+24
 484 0236 1B78     		ldrb	r3, [r3]	@ zero_extendqisi2
 485 0238 012B     		cmp	r3, #1
 486 023a 04D1     		bne	.L21
 138:.\main.c      ****             ShowMessage(1,DisplayMode,22); //Mostrar modo de display
 487              		.loc 1 138 0
 488 023c 0120     		movs	r0, #1
 489 023e 07A9     		add	r1, sp, #28
ARM GAS  C:\Users\RECEPC~1\AppData\Local\Temp\ccBlh02k.s 			page 12


 490 0240 1622     		movs	r2, #22
 491 0242 FFF7FEFF 		bl	ShowMessage
 492              	.LVL33:
 493              	.L21:
 139:.\main.c      ****         }
 140:.\main.c      ****         if(DDMode == 2){
 494              		.loc 1 140 0
 495 0246 0F4B     		ldr	r3, .L24+24
 496 0248 1B78     		ldrb	r3, [r3]	@ zero_extendqisi2
 497 024a 022B     		cmp	r3, #2
 498 024c 04D1     		bne	.L16
 141:.\main.c      ****            ShowMessage(1,DisplayMode2,22);
 499              		.loc 1 141 0
 500 024e 0120     		movs	r0, #1
 501 0250 04A9     		add	r1, sp, #16
 502 0252 1622     		movs	r2, #22
 503 0254 FFF7FEFF 		bl	ShowMessage
 504              	.LVL34:
 505              	.L16:
 142:.\main.c      ****         }
 143:.\main.c      ****     }        
 144:.\main.c      ****     if(NumPositions < 2){
 506              		.loc 1 144 0
 507 0258 074B     		ldr	r3, .L24+12
 508 025a 1B78     		ldrb	r3, [r3]	@ zero_extendqisi2
 509 025c 012B     		cmp	r3, #1
 510 025e 03D8     		bhi	.L7
 145:.\main.c      ****         SetPicture(1,DISPLAY_ERROR);        
 511              		.loc 1 145 0
 512 0260 0120     		movs	r0, #1
 513 0262 0021     		movs	r1, #0
 514 0264 FFF7FEFF 		bl	SetPicture
 515              	.LVL35:
 516              	.L7:
 146:.\main.c      ****     }         
 147:.\main.c      **** }
 517              		.loc 1 147 0
 518 0268 1CB0     		add	sp, sp, #112
 519              		.cfi_def_cfa_offset 8
 520              		@ sp needed
 521 026a 10BD     		pop	{r4, pc}
 522              	.L25:
 523              		.align	2
 524              	.L24:
 525 026c 00000000 		.word	.LC0
 526 0270 00000000 		.word	.LANCHOR0
 527 0274 0C000000 		.word	.LC2
 528 0278 00000000 		.word	NumPositions
 529 027c 00000000 		.word	UnitType
 530 0280 00000000 		.word	side
 531 0284 00000000 		.word	DDMode
 532 0288 00000000 		.word	digits
 533              		.cfi_endproc
 534              	.LFE65:
 535              		.size	InitDisplay1, .-InitDisplay1
 536              		.section	.text.InitDisplay2,"ax",%progbits
 537              		.align	2
ARM GAS  C:\Users\RECEPC~1\AppData\Local\Temp\ccBlh02k.s 			page 13


 538              		.global	InitDisplay2
 539              		.thumb
 540              		.thumb_func
 541              		.type	InitDisplay2, %function
 542              	InitDisplay2:
 543              	.LFB66:
 148:.\main.c      **** 
 149:.\main.c      **** /*
 150:.\main.c      **** ***************************************************************************************************
 151:.\main.c      **** *                                         void InitDisplay1(void)
 152:.\main.c      **** *
 153:.\main.c      **** * Description : Pregunta configuraciones al dispensador 
 154:.\main.c      **** *               
 155:.\main.c      **** *
 156:.\main.c      **** ***************************************************************************************************
 157:.\main.c      **** */
 158:.\main.c      **** void InitDisplay2(){      
 544              		.loc 1 158 0
 545              		.cfi_startproc
 546              		@ args = 0, pretend = 0, frame = 0
 547              		@ frame_needed = 0, uses_anonymous_args = 0
 548 0000 08B5     		push	{r3, lr}
 549              		.cfi_def_cfa_offset 8
 550              		.cfi_offset 3, -8
 551              		.cfi_offset 14, -4
 159:.\main.c      ****     if(NumPositions == 2){        
 552              		.loc 1 159 0
 553 0002 104B     		ldr	r3, .L31
 554 0004 1B78     		ldrb	r3, [r3]	@ zero_extendqisi2
 555 0006 022B     		cmp	r3, #2
 556 0008 06D1     		bne	.L27
 160:.\main.c      ****         SetPicture(2,DISPLAY_INICIO0);  
 557              		.loc 1 160 0
 558 000a 0220     		movs	r0, #2
 559 000c 0121     		movs	r1, #1
 560 000e FFF7FEFF 		bl	SetPicture
 561              	.LVL36:
 161:.\main.c      ****         flowDisplay2 = 0;
 562              		.loc 1 161 0
 563 0012 0022     		movs	r2, #0
 564 0014 0C4B     		ldr	r3, .L31+4
 565 0016 1A60     		str	r2, [r3]
 566              	.L27:
 162:.\main.c      ****     }
 163:.\main.c      ****     if(NumPositions == 4){
 567              		.loc 1 163 0
 568 0018 0A4B     		ldr	r3, .L31
 569 001a 1B78     		ldrb	r3, [r3]	@ zero_extendqisi2
 570 001c 042B     		cmp	r3, #4
 571 001e 03D1     		bne	.L28
 164:.\main.c      ****         SetPicture(2,DISPLAY_SELECCIONE_POSICION);         
 572              		.loc 1 164 0
 573 0020 0220     		movs	r0, #2
 574 0022 2E21     		movs	r1, #46
 575 0024 FFF7FEFF 		bl	SetPicture
 576              	.LVL37:
 577              	.L28:
ARM GAS  C:\Users\RECEPC~1\AppData\Local\Temp\ccBlh02k.s 			page 14


 165:.\main.c      ****     }        
 166:.\main.c      ****     if(NumPositions < 2){        
 578              		.loc 1 166 0
 579 0028 064B     		ldr	r3, .L31
 580 002a 1B78     		ldrb	r3, [r3]	@ zero_extendqisi2
 581 002c 012B     		cmp	r3, #1
 582 002e 03D8     		bhi	.L29
 167:.\main.c      ****         SetPicture(2,DISPLAY_ERROR);
 583              		.loc 1 167 0
 584 0030 0220     		movs	r0, #2
 585 0032 0021     		movs	r1, #0
 586 0034 FFF7FEFF 		bl	SetPicture
 587              	.LVL38:
 588              	.L29:
 168:.\main.c      ****     }     
 169:.\main.c      ****     ShowMessage(2,MuxVersion,0);
 589              		.loc 1 169 0
 590 0038 0220     		movs	r0, #2
 591 003a 0449     		ldr	r1, .L31+8
 592 003c 0022     		movs	r2, #0
 593 003e FFF7FEFF 		bl	ShowMessage
 594              	.LVL39:
 595 0042 08BD     		pop	{r3, pc}
 596              	.L32:
 597              		.align	2
 598              	.L31:
 599 0044 00000000 		.word	NumPositions
 600 0048 00000000 		.word	flowDisplay2
 601 004c 00000000 		.word	.LANCHOR1
 602              		.cfi_endproc
 603              	.LFE66:
 604              		.size	InitDisplay2, .-InitDisplay2
 605              		.section	.text.InitPump,"ax",%progbits
 606              		.align	2
 607              		.global	InitPump
 608              		.thumb
 609              		.thumb_func
 610              		.type	InitPump, %function
 611              	InitPump:
 612              	.LFB67:
 170:.\main.c      **** }
 171:.\main.c      **** 
 172:.\main.c      **** /*
 173:.\main.c      **** ***************************************************************************************************
 174:.\main.c      **** *                                         void InitPump(void)
 175:.\main.c      **** *
 176:.\main.c      **** * Description : Pregunta configuraciones al dispensador 
 177:.\main.c      **** *               
 178:.\main.c      **** *
 179:.\main.c      **** ***************************************************************************************************
 180:.\main.c      **** */
 181:.\main.c      **** void InitPump(){        
 613              		.loc 1 181 0
 614              		.cfi_startproc
 615              		@ args = 0, pretend = 0, frame = 0
 616              		@ frame_needed = 0, uses_anonymous_args = 0
 617 0000 08B5     		push	{r3, lr}
ARM GAS  C:\Users\RECEPC~1\AppData\Local\Temp\ccBlh02k.s 			page 15


 618              		.cfi_def_cfa_offset 8
 619              		.cfi_offset 3, -8
 620              		.cfi_offset 14, -4
 182:.\main.c      ****     NumPositions = get_position();
 621              		.loc 1 182 0
 622 0002 FFF7FEFF 		bl	get_position
 623              	.LVL40:
 624 0006 2D4B     		ldr	r3, .L39
 625 0008 1870     		strb	r0, [r3]
 183:.\main.c      ****     if(NumPositions > 0){
 626              		.loc 1 183 0
 627 000a 0028     		cmp	r0, #0
 628 000c 55D0     		beq	.L33
 184:.\main.c      ****         if(!PumpIsInValidState(get_state(side.a.dir))){
 629              		.loc 1 184 0
 630 000e 2C4B     		ldr	r3, .L39+4
 631 0010 1878     		ldrb	r0, [r3]	@ zero_extendqisi2
 632 0012 FFF7FEFF 		bl	get_state
 633              	.LVL41:
 634 0016 FFF7FEFF 		bl	PumpIsInValidState
 635              	.LVL42:
 636 001a 50B9     		cbnz	r0, .L35
 185:.\main.c      ****             SetPicture(1,DISPLAY_ERROR);
 637              		.loc 1 185 0
 638 001c 0120     		movs	r0, #1
 639 001e 0021     		movs	r1, #0
 640 0020 FFF7FEFF 		bl	SetPicture
 641              	.LVL43:
 186:.\main.c      ****             SetPicture(2,DISPLAY_ERROR);
 642              		.loc 1 186 0
 643 0024 0220     		movs	r0, #2
 644 0026 0021     		movs	r1, #0
 645 0028 FFF7FEFF 		bl	SetPicture
 646              	.LVL44:
 187:.\main.c      ****             NumPositions = 0;
 647              		.loc 1 187 0
 648 002c 0022     		movs	r2, #0
 649 002e 234B     		ldr	r3, .L39
 650 0030 1A70     		strb	r2, [r3]
 651              	.L35:
 188:.\main.c      ****         }
 189:.\main.c      ****         if(!PumpIsInValidState(get_state(side.b.dir))){
 652              		.loc 1 189 0
 653 0032 234B     		ldr	r3, .L39+4
 654 0034 93F80301 		ldrb	r0, [r3, #259]	@ zero_extendqisi2
 655 0038 FFF7FEFF 		bl	get_state
 656              	.LVL45:
 657 003c FFF7FEFF 		bl	PumpIsInValidState
 658              	.LVL46:
 659 0040 50B9     		cbnz	r0, .L36
 190:.\main.c      ****             SetPicture(1,DISPLAY_ERROR);
 660              		.loc 1 190 0
 661 0042 0120     		movs	r0, #1
 662 0044 0021     		movs	r1, #0
 663 0046 FFF7FEFF 		bl	SetPicture
 664              	.LVL47:
 191:.\main.c      ****             SetPicture(2,DISPLAY_ERROR);
ARM GAS  C:\Users\RECEPC~1\AppData\Local\Temp\ccBlh02k.s 			page 16


 665              		.loc 1 191 0
 666 004a 0220     		movs	r0, #2
 667 004c 0021     		movs	r1, #0
 668 004e FFF7FEFF 		bl	SetPicture
 669              	.LVL48:
 192:.\main.c      ****             NumPositions = 0;
 670              		.loc 1 192 0
 671 0052 0022     		movs	r2, #0
 672 0054 194B     		ldr	r3, .L39
 673 0056 1A70     		strb	r2, [r3]
 674              	.L36:
 193:.\main.c      ****         }
 194:.\main.c      ****         if(PumpIsInValidState(get_state(side.a.dir)) && PumpIsInValidState(get_state(side.b.dir))){
 675              		.loc 1 194 0
 676 0058 194B     		ldr	r3, .L39+4
 677 005a 1878     		ldrb	r0, [r3]	@ zero_extendqisi2
 678 005c FFF7FEFF 		bl	get_state
 679              	.LVL49:
 680 0060 FFF7FEFF 		bl	PumpIsInValidState
 681              	.LVL50:
 682 0064 48B3     		cbz	r0, .L33
 683              		.loc 1 194 0 is_stmt 0 discriminator 1
 684 0066 164B     		ldr	r3, .L39+4
 685 0068 93F80301 		ldrb	r0, [r3, #259]	@ zero_extendqisi2
 686 006c FFF7FEFF 		bl	get_state
 687              	.LVL51:
 688 0070 FFF7FEFF 		bl	PumpIsInValidState
 689              	.LVL52:
 690 0074 08B3     		cbz	r0, .L33
 195:.\main.c      ****             NumPositions = get_position();
 691              		.loc 1 195 0 is_stmt 1
 692 0076 FFF7FEFF 		bl	get_position
 693              	.LVL53:
 694 007a 104B     		ldr	r3, .L39
 695 007c 1870     		strb	r0, [r3]
 196:.\main.c      ****             if(get_state(side.a.dir) ==0x06 && get_state(side.b.dir)==0x06){
 696              		.loc 1 196 0
 697 007e 104B     		ldr	r3, .L39+4
 698 0080 1878     		ldrb	r0, [r3]	@ zero_extendqisi2
 699 0082 FFF7FEFF 		bl	get_state
 700              	.LVL54:
 701 0086 0628     		cmp	r0, #6
 702 0088 0DD1     		bne	.L37
 703              		.loc 1 196 0 is_stmt 0 discriminator 1
 704 008a 0D4B     		ldr	r3, .L39+4
 705 008c 93F80301 		ldrb	r0, [r3, #259]	@ zero_extendqisi2
 706 0090 FFF7FEFF 		bl	get_state
 707              	.LVL55:
 708 0094 0628     		cmp	r0, #6
 709 0096 06D1     		bne	.L37
 197:.\main.c      ****                 PumpCompleteConfiguration(side.a.dir);
 710              		.loc 1 197 0 is_stmt 1
 711 0098 094B     		ldr	r3, .L39+4
 712 009a 1878     		ldrb	r0, [r3]	@ zero_extendqisi2
 713 009c FFF7FEFF 		bl	PumpCompleteConfiguration
 714              	.LVL56:
 198:.\main.c      ****                 StoreConfiguration();            
ARM GAS  C:\Users\RECEPC~1\AppData\Local\Temp\ccBlh02k.s 			page 17


 715              		.loc 1 198 0
 716 00a0 FFF7FEFF 		bl	StoreConfiguration
 717              	.LVL57:
 718 00a4 08BD     		pop	{r3, pc}
 719              	.L37:
 199:.\main.c      ****             }else{
 200:.\main.c      ****                 SetPicture(1,DISPLAY_BAJE_MANIJA);
 720              		.loc 1 200 0
 721 00a6 0120     		movs	r0, #1
 722 00a8 0921     		movs	r1, #9
 723 00aa FFF7FEFF 		bl	SetPicture
 724              	.LVL58:
 201:.\main.c      ****                 SetPicture(2,DISPLAY_BAJE_MANIJA);
 725              		.loc 1 201 0
 726 00ae 0220     		movs	r0, #2
 727 00b0 0921     		movs	r1, #9
 728 00b2 FFF7FEFF 		bl	SetPicture
 729              	.LVL59:
 202:.\main.c      ****                 InitPump();                
 730              		.loc 1 202 0
 731 00b6 FFF7FEFF 		bl	InitPump
 732              	.LVL60:
 733              	.L33:
 734 00ba 08BD     		pop	{r3, pc}
 735              	.L40:
 736              		.align	2
 737              	.L39:
 738 00bc 00000000 		.word	NumPositions
 739 00c0 00000000 		.word	side
 740              		.cfi_endproc
 741              	.LFE67:
 742              		.size	InitPump, .-InitPump
 743              		.section	.text.PrintTest,"ax",%progbits
 744              		.align	2
 745              		.global	PrintTest
 746              		.thumb
 747              		.thumb_func
 748              		.type	PrintTest, %function
 749              	PrintTest:
 750              	.LFB68:
 203:.\main.c      ****             }
 204:.\main.c      ****         }        
 205:.\main.c      ****     }
 206:.\main.c      ****     
 207:.\main.c      **** }
 208:.\main.c      **** /*
 209:.\main.c      **** ***************************************************************************************************
 210:.\main.c      **** *                                         void PrintTest(void)
 211:.\main.c      **** *
 212:.\main.c      **** * Description : Pregunta configuraciones al dispensador 
 213:.\main.c      **** *               
 214:.\main.c      **** *
 215:.\main.c      **** ***************************************************************************************************
 216:.\main.c      **** */
 217:.\main.c      **** void PrintTest(){
 751              		.loc 1 217 0
 752              		.cfi_startproc
ARM GAS  C:\Users\RECEPC~1\AppData\Local\Temp\ccBlh02k.s 			page 18


 753              		@ args = 0, pretend = 0, frame = 24
 754              		@ frame_needed = 0, uses_anonymous_args = 0
 755 0000 30B5     		push	{r4, r5, lr}
 756              		.cfi_def_cfa_offset 12
 757              		.cfi_offset 4, -12
 758              		.cfi_offset 5, -8
 759              		.cfi_offset 14, -4
 760 0002 87B0     		sub	sp, sp, #28
 761              		.cfi_def_cfa_offset 40
 218:.\main.c      ****     uint8 dato[17]="Test de Impresion";
 762              		.loc 1 218 0
 763 0004 01AC     		add	r4, sp, #4
 764 0006 1C4D     		ldr	r5, .L47
 765 0008 0FCD     		ldmia	r5!, {r0, r1, r2, r3}
 766 000a 0FC4     		stmia	r4!, {r0, r1, r2, r3}
 767 000c 2B68     		ldr	r3, [r5]
 768 000e 2370     		strb	r3, [r4]
 769              	.LVL61:
 219:.\main.c      ****     uint8 x;
 220:.\main.c      ****     for(x = 0; x<17;x++){
 770              		.loc 1 220 0
 771 0010 0024     		movs	r4, #0
 772 0012 08E0     		b	.L42
 773              	.LVL62:
 774              	.L43:
 221:.\main.c      ****         write_psoc1(1,dato[x]);
 775              		.loc 1 221 0 discriminator 3
 776 0014 06AB     		add	r3, sp, #24
 777 0016 2344     		add	r3, r3, r4
 778 0018 0120     		movs	r0, #1
 779 001a 13F8141C 		ldrb	r1, [r3, #-20]	@ zero_extendqisi2
 780 001e FFF7FEFF 		bl	write_psoc1
 781              	.LVL63:
 220:.\main.c      ****         write_psoc1(1,dato[x]);
 782              		.loc 1 220 0 discriminator 3
 783 0022 0134     		adds	r4, r4, #1
 784              	.LVL64:
 785 0024 E4B2     		uxtb	r4, r4
 786              	.LVL65:
 787              	.L42:
 220:.\main.c      ****         write_psoc1(1,dato[x]);
 788              		.loc 1 220 0 is_stmt 0 discriminator 1
 789 0026 102C     		cmp	r4, #16
 790 0028 F4D9     		bls	.L43
 222:.\main.c      ****     }
 223:.\main.c      ****     write_psoc1(1,10);
 791              		.loc 1 223 0 is_stmt 1
 792 002a 0120     		movs	r0, #1
 793 002c 0A21     		movs	r1, #10
 794 002e FFF7FEFF 		bl	write_psoc1
 795              	.LVL66:
 224:.\main.c      ****     write_psoc1(1,10);
 796              		.loc 1 224 0
 797 0032 0120     		movs	r0, #1
 798 0034 0A21     		movs	r1, #10
 799 0036 FFF7FEFF 		bl	write_psoc1
 800              	.LVL67:
ARM GAS  C:\Users\RECEPC~1\AppData\Local\Temp\ccBlh02k.s 			page 19


 225:.\main.c      ****     write_psoc1(1,10);
 801              		.loc 1 225 0
 802 003a 0120     		movs	r0, #1
 803 003c 0A21     		movs	r1, #10
 804 003e FFF7FEFF 		bl	write_psoc1
 805              	.LVL68:
 226:.\main.c      ****     for(x = 0; x<17;x++){
 806              		.loc 1 226 0
 807 0042 0024     		movs	r4, #0
 808 0044 08E0     		b	.L44
 809              	.LVL69:
 810              	.L45:
 227:.\main.c      ****         write_psoc1(2,dato[x]);
 811              		.loc 1 227 0 discriminator 3
 812 0046 06AB     		add	r3, sp, #24
 813 0048 2344     		add	r3, r3, r4
 814 004a 0220     		movs	r0, #2
 815 004c 13F8141C 		ldrb	r1, [r3, #-20]	@ zero_extendqisi2
 816 0050 FFF7FEFF 		bl	write_psoc1
 817              	.LVL70:
 226:.\main.c      ****     for(x = 0; x<17;x++){
 818              		.loc 1 226 0 discriminator 3
 819 0054 0134     		adds	r4, r4, #1
 820              	.LVL71:
 821 0056 E4B2     		uxtb	r4, r4
 822              	.LVL72:
 823              	.L44:
 226:.\main.c      ****     for(x = 0; x<17;x++){
 824              		.loc 1 226 0 is_stmt 0 discriminator 1
 825 0058 102C     		cmp	r4, #16
 826 005a F4D9     		bls	.L45
 228:.\main.c      ****     }
 229:.\main.c      ****     write_psoc1(2,10);
 827              		.loc 1 229 0 is_stmt 1
 828 005c 0220     		movs	r0, #2
 829 005e 0A21     		movs	r1, #10
 830 0060 FFF7FEFF 		bl	write_psoc1
 831              	.LVL73:
 230:.\main.c      ****     write_psoc1(2,10);
 832              		.loc 1 230 0
 833 0064 0220     		movs	r0, #2
 834 0066 0A21     		movs	r1, #10
 835 0068 FFF7FEFF 		bl	write_psoc1
 836              	.LVL74:
 231:.\main.c      ****     write_psoc1(2,10);
 837              		.loc 1 231 0
 838 006c 0220     		movs	r0, #2
 839 006e 0A21     		movs	r1, #10
 840 0070 FFF7FEFF 		bl	write_psoc1
 841              	.LVL75:
 232:.\main.c      **** }
 842              		.loc 1 232 0
 843 0074 07B0     		add	sp, sp, #28
 844              		.cfi_def_cfa_offset 12
 845              		@ sp needed
 846 0076 30BD     		pop	{r4, r5, pc}
 847              	.LVL76:
ARM GAS  C:\Users\RECEPC~1\AppData\Local\Temp\ccBlh02k.s 			page 20


 848              	.L48:
 849              		.align	2
 850              	.L47:
 851 0078 54000000 		.word	.LANCHOR0+84
 852              		.cfi_endproc
 853              	.LFE68:
 854              		.size	PrintTest, .-PrintTest
 855              		.section	.text.PollingPump,"ax",%progbits
 856              		.align	2
 857              		.global	PollingPump
 858              		.thumb
 859              		.thumb_func
 860              		.type	PollingPump, %function
 861              	PollingPump:
 862              	.LFB69:
 233:.\main.c      **** 
 234:.\main.c      **** /*
 235:.\main.c      **** ***************************************************************************************************
 236:.\main.c      **** *                                         void polling_Pump(void)
 237:.\main.c      **** *
 238:.\main.c      **** * Description : Pregunta estado al surtidor 
 239:.\main.c      **** *               
 240:.\main.c      **** *
 241:.\main.c      **** ***************************************************************************************************
 242:.\main.c      **** */
 243:.\main.c      **** 
 244:.\main.c      **** void PollingPump(void){
 863              		.loc 1 244 0
 864              		.cfi_startproc
 865              		@ args = 0, pretend = 0, frame = 0
 866              		@ frame_needed = 0, uses_anonymous_args = 0
 867 0000 38B5     		push	{r3, r4, r5, lr}
 868              		.cfi_def_cfa_offset 16
 869              		.cfi_offset 3, -16
 870              		.cfi_offset 4, -12
 871              		.cfi_offset 5, -8
 872              		.cfi_offset 14, -4
 245:.\main.c      ****     uint8 x;
 246:.\main.c      ****     if(PumpIsInValidState(get_state(side.a.dir)) && PumpIsInValidState(get_state(side.b.dir)) ){
 873              		.loc 1 246 0
 874 0002 364B     		ldr	r3, .L60
 875 0004 1878     		ldrb	r0, [r3]	@ zero_extendqisi2
 876 0006 FFF7FEFF 		bl	get_state
 877              	.LVL77:
 878 000a FFF7FEFF 		bl	PumpIsInValidState
 879              	.LVL78:
 880 000e 90B1     		cbz	r0, .L50
 881              		.loc 1 246 0 is_stmt 0 discriminator 1
 882 0010 324B     		ldr	r3, .L60
 883 0012 93F80301 		ldrb	r0, [r3, #259]	@ zero_extendqisi2
 884 0016 FFF7FEFF 		bl	get_state
 885              	.LVL79:
 886 001a FFF7FEFF 		bl	PumpIsInValidState
 887              	.LVL80:
 888 001e 38B9     		cbnz	r0, .L58
 889 0020 09E0     		b	.L50
 890              	.LVL81:
ARM GAS  C:\Users\RECEPC~1\AppData\Local\Temp\ccBlh02k.s 			page 21


 891              	.L52:
 247:.\main.c      ****         for(x= 0; x < 4; x++){
 248:.\main.c      ****             PrevStatePump[x] = statePump[x];
 892              		.loc 1 248 0 is_stmt 1 discriminator 3
 893 0022 2F4A     		ldr	r2, .L60+4
 894 0024 D15C     		ldrb	r1, [r2, r3]	@ zero_extendqisi2
 895 0026 2F4A     		ldr	r2, .L60+8
 896 0028 D154     		strb	r1, [r2, r3]
 247:.\main.c      ****         for(x= 0; x < 4; x++){
 897              		.loc 1 247 0 discriminator 3
 898 002a 0133     		adds	r3, r3, #1
 899              	.LVL82:
 900 002c DBB2     		uxtb	r3, r3
 901              	.LVL83:
 902 002e 00E0     		b	.L51
 903              	.LVL84:
 904              	.L58:
 905 0030 0023     		movs	r3, #0
 906              	.L51:
 907              	.LVL85:
 247:.\main.c      ****         for(x= 0; x < 4; x++){
 908              		.loc 1 247 0 is_stmt 0 discriminator 1
 909 0032 032B     		cmp	r3, #3
 910 0034 F5D9     		bls	.L52
 911              	.LVL86:
 912              	.L50:
 249:.\main.c      ****         }
 250:.\main.c      ****     }
 251:.\main.c      ****     if (NumPositions == 2){
 913              		.loc 1 251 0 is_stmt 1
 914 0036 2C4B     		ldr	r3, .L60+12
 915 0038 1B78     		ldrb	r3, [r3]	@ zero_extendqisi2
 916 003a 022B     		cmp	r3, #2
 917 003c 0AD1     		bne	.L53
 252:.\main.c      ****         statePump[0] = get_state(side.a.dir);                 
 918              		.loc 1 252 0
 919 003e 274D     		ldr	r5, .L60
 920 0040 2878     		ldrb	r0, [r5]	@ zero_extendqisi2
 921 0042 FFF7FEFF 		bl	get_state
 922              	.LVL87:
 923 0046 264C     		ldr	r4, .L60+4
 924 0048 2070     		strb	r0, [r4]
 253:.\main.c      ****         statePump[1] = get_state(side.b.dir);          
 925              		.loc 1 253 0
 926 004a 95F80301 		ldrb	r0, [r5, #259]	@ zero_extendqisi2
 927 004e FFF7FEFF 		bl	get_state
 928              	.LVL88:
 929 0052 6070     		strb	r0, [r4, #1]
 930              	.L53:
 254:.\main.c      ****     }
 255:.\main.c      ****     if (NumPositions == 4 ){
 931              		.loc 1 255 0
 932 0054 244B     		ldr	r3, .L60+12
 933 0056 1B78     		ldrb	r3, [r3]	@ zero_extendqisi2
 934 0058 042B     		cmp	r3, #4
 935 005a 14D1     		bne	.L54
 256:.\main.c      ****         statePump[0] = get_state(side.a.dir);               
ARM GAS  C:\Users\RECEPC~1\AppData\Local\Temp\ccBlh02k.s 			page 22


 936              		.loc 1 256 0
 937 005c 1F4D     		ldr	r5, .L60
 938 005e 2878     		ldrb	r0, [r5]	@ zero_extendqisi2
 939 0060 FFF7FEFF 		bl	get_state
 940              	.LVL89:
 941 0064 1E4C     		ldr	r4, .L60+4
 942 0066 2070     		strb	r0, [r4]
 257:.\main.c      ****         statePump[1] = get_state(side.b.dir);          
 943              		.loc 1 257 0
 944 0068 95F80301 		ldrb	r0, [r5, #259]	@ zero_extendqisi2
 945 006c FFF7FEFF 		bl	get_state
 946              	.LVL90:
 947 0070 6070     		strb	r0, [r4, #1]
 258:.\main.c      ****         statePump[2] = get_state(side.c.dir);        
 948              		.loc 1 258 0
 949 0072 95F80602 		ldrb	r0, [r5, #518]	@ zero_extendqisi2
 950 0076 FFF7FEFF 		bl	get_state
 951              	.LVL91:
 952 007a A070     		strb	r0, [r4, #2]
 259:.\main.c      ****         statePump[3] = get_state(side.d.dir);        
 953              		.loc 1 259 0
 954 007c 95F80903 		ldrb	r0, [r5, #777]	@ zero_extendqisi2
 955 0080 FFF7FEFF 		bl	get_state
 956              	.LVL92:
 957 0084 E070     		strb	r0, [r4, #3]
 958              	.L54:
 260:.\main.c      ****     }
 261:.\main.c      ****     if (NumPositions == 0){
 959              		.loc 1 261 0
 960 0086 184B     		ldr	r3, .L60+12
 961 0088 1B78     		ldrb	r3, [r3]	@ zero_extendqisi2
 962 008a 0BB9     		cbnz	r3, .L55
 262:.\main.c      ****         InitPump();
 963              		.loc 1 262 0
 964 008c FFF7FEFF 		bl	InitPump
 965              	.LVL93:
 966              	.L55:
 263:.\main.c      ****     }
 264:.\main.c      ****     if(!PumpIsInValidState(get_state(side.a.dir))){
 967              		.loc 1 264 0
 968 0090 124B     		ldr	r3, .L60
 969 0092 1878     		ldrb	r0, [r3]	@ zero_extendqisi2
 970 0094 FFF7FEFF 		bl	get_state
 971              	.LVL94:
 972 0098 FFF7FEFF 		bl	PumpIsInValidState
 973              	.LVL95:
 974 009c 50B9     		cbnz	r0, .L56
 265:.\main.c      ****         SetPicture(1,DISPLAY_ERROR);
 975              		.loc 1 265 0
 976 009e 0120     		movs	r0, #1
 977 00a0 0021     		movs	r1, #0
 978 00a2 FFF7FEFF 		bl	SetPicture
 979              	.LVL96:
 266:.\main.c      ****         SetPicture(2,DISPLAY_ERROR);
 980              		.loc 1 266 0
 981 00a6 0220     		movs	r0, #2
 982 00a8 0021     		movs	r1, #0
ARM GAS  C:\Users\RECEPC~1\AppData\Local\Temp\ccBlh02k.s 			page 23


 983 00aa FFF7FEFF 		bl	SetPicture
 984              	.LVL97:
 267:.\main.c      ****         NumPositions = 0;
 985              		.loc 1 267 0
 986 00ae 0022     		movs	r2, #0
 987 00b0 0D4B     		ldr	r3, .L60+12
 988 00b2 1A70     		strb	r2, [r3]
 989              	.L56:
 268:.\main.c      ****     }
 269:.\main.c      ****     if(!PumpIsInValidState(get_state(side.b.dir))){
 990              		.loc 1 269 0
 991 00b4 094B     		ldr	r3, .L60
 992 00b6 93F80301 		ldrb	r0, [r3, #259]	@ zero_extendqisi2
 993 00ba FFF7FEFF 		bl	get_state
 994              	.LVL98:
 995 00be FFF7FEFF 		bl	PumpIsInValidState
 996              	.LVL99:
 997 00c2 50B9     		cbnz	r0, .L49
 270:.\main.c      ****         SetPicture(1,DISPLAY_ERROR);
 998              		.loc 1 270 0
 999 00c4 0120     		movs	r0, #1
 1000 00c6 0021     		movs	r1, #0
 1001 00c8 FFF7FEFF 		bl	SetPicture
 1002              	.LVL100:
 271:.\main.c      ****         SetPicture(2,DISPLAY_ERROR);
 1003              		.loc 1 271 0
 1004 00cc 0220     		movs	r0, #2
 1005 00ce 0021     		movs	r1, #0
 1006 00d0 FFF7FEFF 		bl	SetPicture
 1007              	.LVL101:
 272:.\main.c      ****         NumPositions = 0;
 1008              		.loc 1 272 0
 1009 00d4 0022     		movs	r2, #0
 1010 00d6 044B     		ldr	r3, .L60+12
 1011 00d8 1A70     		strb	r2, [r3]
 1012              	.L49:
 1013 00da 38BD     		pop	{r3, r4, r5, pc}
 1014              	.L61:
 1015              		.align	2
 1016              	.L60:
 1017 00dc 00000000 		.word	side
 1018 00e0 00000000 		.word	statePump
 1019 00e4 00000000 		.word	PrevStatePump
 1020 00e8 00000000 		.word	NumPositions
 1021              		.cfi_endproc
 1022              	.LFE69:
 1023              		.size	PollingPump, .-PollingPump
 1024              		.section	.text.PollingDisplay1,"ax",%progbits
 1025              		.align	2
 1026              		.global	PollingDisplay1
 1027              		.thumb
 1028              		.thumb_func
 1029              		.type	PollingDisplay1, %function
 1030              	PollingDisplay1:
 1031              	.LFB70:
 273:.\main.c      ****     }
 274:.\main.c      **** }
ARM GAS  C:\Users\RECEPC~1\AppData\Local\Temp\ccBlh02k.s 			page 24


 275:.\main.c      **** /*
 276:.\main.c      **** ***************************************************************************************************
 277:.\main.c      **** *                                         void polling_Pump(void)
 278:.\main.c      **** *
 279:.\main.c      **** * Description : Pregunta estado al surtidor 
 280:.\main.c      **** *               
 281:.\main.c      **** *
 282:.\main.c      **** ***************************************************************************************************
 283:.\main.c      **** */
 284:.\main.c      **** 
 285:.\main.c      **** void PollingDisplay1(void){ 
 1032              		.loc 1 285 0
 1033              		.cfi_startproc
 1034              		@ args = 0, pretend = 0, frame = 0
 1035              		@ frame_needed = 0, uses_anonymous_args = 0
 1036 0000 70B5     		push	{r4, r5, r6, lr}
 1037              		.cfi_def_cfa_offset 16
 1038              		.cfi_offset 4, -16
 1039              		.cfi_offset 5, -12
 1040              		.cfi_offset 6, -8
 1041              		.cfi_offset 14, -4
 1042 0002 84B0     		sub	sp, sp, #16
 1043              		.cfi_def_cfa_offset 32
 286:.\main.c      ****     uint8 x;     
 287:.\main.c      ****     switch(flowDisplay1){
 1044              		.loc 1 287 0
 1045 0004 B14B     		ldr	r3, .L147
 1046 0006 1B68     		ldr	r3, [r3]
 1047 0008 092B     		cmp	r3, #9
 1048 000a 00F27683 		bhi	.L62
 1049 000e DFE813F0 		tbh	[pc, r3, lsl #1]
 1050              	.L65:
 1051 0012 0A00     		.2byte	(.L64-.L65)/2
 1052 0014 1000     		.2byte	(.L66-.L65)/2
 1053 0016 4100     		.2byte	(.L67-.L65)/2
 1054 0018 9200     		.2byte	(.L68-.L65)/2
 1055 001a 4A01     		.2byte	(.L69-.L65)/2
 1056 001c 8401     		.2byte	(.L70-.L65)/2
 1057 001e 0102     		.2byte	(.L71-.L65)/2
 1058 0020 4702     		.2byte	(.L72-.L65)/2
 1059 0022 B102     		.2byte	(.L73-.L65)/2
 1060 0024 F302     		.2byte	(.L74-.L65)/2
 1061              		.p2align 1
 1062              	.L64:
 288:.\main.c      ****         case 0:
 289:.\main.c      ****             InitDisplay1();
 1063              		.loc 1 289 0
 1064 0026 FFF7FEFF 		bl	InitDisplay1
 1065              	.LVL102:
 290:.\main.c      ****             flowDisplay1 =1;
 1066              		.loc 1 290 0
 1067 002a 0122     		movs	r2, #1
 1068 002c A74B     		ldr	r3, .L147
 1069 002e 1A60     		str	r2, [r3]
 291:.\main.c      ****         break;
 1070              		.loc 1 291 0
 1071 0030 63E3     		b	.L62
ARM GAS  C:\Users\RECEPC~1\AppData\Local\Temp\ccBlh02k.s 			page 25


 1072              	.L66:
 292:.\main.c      ****         case 1: //Menu
 293:.\main.c      ****             if(Display1_GetRxBufferSize()==8){
 1073              		.loc 1 293 0
 1074 0032 FFF7FEFF 		bl	Display1_GetRxBufferSize
 1075              	.LVL103:
 1076 0036 0828     		cmp	r0, #8
 1077 0038 40F05F83 		bne	.L62
 294:.\main.c      ****                 if((Display1_rxBuffer[0]==0xAA) && (Display1_rxBuffer[6]==0xC3) && (Display1_rxBuff
 1078              		.loc 1 294 0
 1079 003c A44B     		ldr	r3, .L147+4
 1080 003e 1B78     		ldrb	r3, [r3]	@ zero_extendqisi2
 1081 0040 DBB2     		uxtb	r3, r3
 1082 0042 AA2B     		cmp	r3, #170
 1083 0044 20D1     		bne	.L75
 1084              		.loc 1 294 0 is_stmt 0 discriminator 1
 1085 0046 A24B     		ldr	r3, .L147+4
 1086 0048 9B79     		ldrb	r3, [r3, #6]	@ zero_extendqisi2
 1087 004a DBB2     		uxtb	r3, r3
 1088 004c C32B     		cmp	r3, #195
 1089 004e 1BD1     		bne	.L75
 1090              		.loc 1 294 0 discriminator 2
 1091 0050 9F4B     		ldr	r3, .L147+4
 1092 0052 DB79     		ldrb	r3, [r3, #7]	@ zero_extendqisi2
 1093 0054 DBB2     		uxtb	r3, r3
 1094 0056 3C2B     		cmp	r3, #60
 1095 0058 16D1     		bne	.L75
 295:.\main.c      ****                     switch(Display1_rxBuffer[3]){
 1096              		.loc 1 295 0 is_stmt 1
 1097 005a 9D4B     		ldr	r3, .L147+4
 1098 005c DB78     		ldrb	r3, [r3, #3]	@ zero_extendqisi2
 1099 005e DBB2     		uxtb	r3, r3
 1100 0060 3A2B     		cmp	r3, #58
 1101 0062 02D0     		beq	.L76
 1102 0064 7E2B     		cmp	r3, #126
 1103 0066 08D0     		beq	.L77
 1104 0068 0EE0     		b	.L75
 1105              	.L76:
 296:.\main.c      ****                         case 0x3A:  //Pantalla forma de pago
 297:.\main.c      ****                             flowDisplay1 = 2;                            
 1106              		.loc 1 297 0
 1107 006a 0222     		movs	r2, #2
 1108 006c 974B     		ldr	r3, .L147
 1109 006e 1A60     		str	r2, [r3]
 298:.\main.c      ****                             SetPicture(1,DISPLAY_FORMA_PAGO_DESEADA);                            
 1110              		.loc 1 298 0
 1111 0070 0120     		movs	r0, #1
 1112 0072 0421     		movs	r1, #4
 1113 0074 FFF7FEFF 		bl	SetPicture
 1114              	.LVL104:
 299:.\main.c      ****                         break;   
 1115              		.loc 1 299 0
 1116 0078 06E0     		b	.L75
 1117              	.L77:
 300:.\main.c      ****                         case 0x7E:  //Pantalla Inicial                                             
 301:.\main.c      ****                             SetPicture(1,DISPLAY_INICIO0);
 1118              		.loc 1 301 0
ARM GAS  C:\Users\RECEPC~1\AppData\Local\Temp\ccBlh02k.s 			page 26


 1119 007a 0120     		movs	r0, #1
 1120 007c 0146     		mov	r1, r0
 1121 007e FFF7FEFF 		bl	SetPicture
 1122              	.LVL105:
 302:.\main.c      ****                             flowDisplay1 = 0;
 1123              		.loc 1 302 0
 1124 0082 0022     		movs	r2, #0
 1125 0084 914B     		ldr	r3, .L147
 1126 0086 1A60     		str	r2, [r3]
 1127              	.L75:
 303:.\main.c      ****                         break;
 304:.\main.c      ****                     }
 305:.\main.c      ****                 }  
 306:.\main.c      ****                 CyDelay(10);         
 1128              		.loc 1 306 0
 1129 0088 0A20     		movs	r0, #10
 1130 008a FFF7FEFF 		bl	CyDelay
 1131              	.LVL106:
 307:.\main.c      ****                 Display1_ClearRxBuffer();
 1132              		.loc 1 307 0
 1133 008e FFF7FEFF 		bl	Display1_ClearRxBuffer
 1134              	.LVL107:
 1135 0092 32E3     		b	.L62
 1136              	.L67:
 308:.\main.c      ****             }
 309:.\main.c      ****         break;
 310:.\main.c      ****         case 2:
 311:.\main.c      ****             if(Display1_GetRxBufferSize()==8){
 1137              		.loc 1 311 0
 1138 0094 FFF7FEFF 		bl	Display1_GetRxBufferSize
 1139              	.LVL108:
 1140 0098 0828     		cmp	r0, #8
 1141 009a 40F02E83 		bne	.L62
 312:.\main.c      ****                 if((Display1_rxBuffer[0]==0xAA) && (Display1_rxBuffer[6]==0xC3) && (Display1_rxBuff
 1142              		.loc 1 312 0
 1143 009e 8C4B     		ldr	r3, .L147+4
 1144 00a0 1B78     		ldrb	r3, [r3]	@ zero_extendqisi2
 1145 00a2 DBB2     		uxtb	r3, r3
 1146 00a4 AA2B     		cmp	r3, #170
 1147 00a6 40D1     		bne	.L78
 1148              		.loc 1 312 0 is_stmt 0 discriminator 1
 1149 00a8 894B     		ldr	r3, .L147+4
 1150 00aa 9B79     		ldrb	r3, [r3, #6]	@ zero_extendqisi2
 1151 00ac DBB2     		uxtb	r3, r3
 1152 00ae C32B     		cmp	r3, #195
 1153 00b0 3BD1     		bne	.L78
 1154              		.loc 1 312 0 discriminator 2
 1155 00b2 874B     		ldr	r3, .L147+4
 1156 00b4 DB79     		ldrb	r3, [r3, #7]	@ zero_extendqisi2
 1157 00b6 DBB2     		uxtb	r3, r3
 1158 00b8 3C2B     		cmp	r3, #60
 1159 00ba 36D1     		bne	.L78
 313:.\main.c      ****                     switch(Display1_rxBuffer[3]){
 1160              		.loc 1 313 0 is_stmt 1
 1161 00bc 844B     		ldr	r3, .L147+4
 1162 00be DB78     		ldrb	r3, [r3, #3]	@ zero_extendqisi2
 1163 00c0 DBB2     		uxtb	r3, r3
ARM GAS  C:\Users\RECEPC~1\AppData\Local\Temp\ccBlh02k.s 			page 27


 1164 00c2 452B     		cmp	r3, #69
 1165 00c4 1AD0     		beq	.L79
 1166 00c6 04D8     		bhi	.L80
 1167 00c8 0D2B     		cmp	r3, #13
 1168 00ca 07D0     		beq	.L81
 1169 00cc 0E2B     		cmp	r3, #14
 1170 00ce 0DD0     		beq	.L82
 1171 00d0 2BE0     		b	.L78
 1172              	.L80:
 1173 00d2 7E2B     		cmp	r3, #126
 1174 00d4 22D0     		beq	.L83
 1175 00d6 942B     		cmp	r3, #148
 1176 00d8 18D0     		beq	.L84
 1177 00da 26E0     		b	.L78
 1178              	.L81:
 314:.\main.c      ****                         case 0x0D:  //Pantalla efectivo              
 315:.\main.c      ****                             flowDisplay1 = 3;                            
 1179              		.loc 1 315 0
 1180 00dc 0322     		movs	r2, #3
 1181 00de 7B4B     		ldr	r3, .L147
 1182 00e0 1A60     		str	r2, [r3]
 316:.\main.c      ****                             SetPicture(1,DISPLAY_FORMA_PROGRAMACION);                            
 1183              		.loc 1 316 0
 1184 00e2 0120     		movs	r0, #1
 1185 00e4 0521     		movs	r1, #5
 1186 00e6 FFF7FEFF 		bl	SetPicture
 1187              	.LVL109:
 317:.\main.c      ****                         break;
 1188              		.loc 1 317 0
 1189 00ea 1EE0     		b	.L78
 1190              	.L82:
 318:.\main.c      ****                         case 0x0E:  //Pantalla credito   
 319:.\main.c      ****                             flowDisplay1 = 4;                                                     
 1191              		.loc 1 319 0
 1192 00ec 0422     		movs	r2, #4
 1193 00ee 774B     		ldr	r3, .L147
 1194 00f0 1A60     		str	r2, [r3]
 320:.\main.c      ****                             SetPicture(1,DISPLAY_ID_DIGITAL);                            
 1195              		.loc 1 320 0
 1196 00f2 0120     		movs	r0, #1
 1197 00f4 8521     		movs	r1, #133
 1198 00f6 FFF7FEFF 		bl	SetPicture
 1199              	.LVL110:
 321:.\main.c      ****                         break;
 1200              		.loc 1 321 0
 1201 00fa 16E0     		b	.L78
 1202              	.L79:
 322:.\main.c      ****                         case 0x45:  //Pantalla otras opciones 
 323:.\main.c      ****                             flowDisplay1 = 5;                            
 1203              		.loc 1 323 0
 1204 00fc 0522     		movs	r2, #5
 1205 00fe 734B     		ldr	r3, .L147
 1206 0100 1A60     		str	r2, [r3]
 324:.\main.c      ****                             SetPicture(1,DISPLAY_OPERACIONES);                            
 1207              		.loc 1 324 0
 1208 0102 0120     		movs	r0, #1
 1209 0104 8321     		movs	r1, #131
ARM GAS  C:\Users\RECEPC~1\AppData\Local\Temp\ccBlh02k.s 			page 28


 1210 0106 FFF7FEFF 		bl	SetPicture
 1211              	.LVL111:
 325:.\main.c      ****                         break;
 1212              		.loc 1 325 0
 1213 010a 0EE0     		b	.L78
 1214              	.L84:
 326:.\main.c      ****                             
 327:.\main.c      ****                         case 0x94:  //Pantalla Inicial    
 328:.\main.c      ****                             flowDisplay1 = 0;
 1215              		.loc 1 328 0
 1216 010c 0022     		movs	r2, #0
 1217 010e 6F4B     		ldr	r3, .L147
 1218 0110 1A60     		str	r2, [r3]
 329:.\main.c      ****                             SetPicture(1,DISPLAY_INICIO0);                            
 1219              		.loc 1 329 0
 1220 0112 0120     		movs	r0, #1
 1221 0114 0146     		mov	r1, r0
 1222 0116 FFF7FEFF 		bl	SetPicture
 1223              	.LVL112:
 330:.\main.c      ****                         break;
 1224              		.loc 1 330 0
 1225 011a 06E0     		b	.L78
 1226              	.L83:
 331:.\main.c      ****                         
 332:.\main.c      ****                         case 0x7E:  //Pantalla Inicial    
 333:.\main.c      ****                             flowDisplay1 = 0;
 1227              		.loc 1 333 0
 1228 011c 0022     		movs	r2, #0
 1229 011e 6B4B     		ldr	r3, .L147
 1230 0120 1A60     		str	r2, [r3]
 334:.\main.c      ****                             SetPicture(1,DISPLAY_INICIO0);                            
 1231              		.loc 1 334 0
 1232 0122 0120     		movs	r0, #1
 1233 0124 0146     		mov	r1, r0
 1234 0126 FFF7FEFF 		bl	SetPicture
 1235              	.LVL113:
 1236              	.L78:
 335:.\main.c      ****                         break;
 336:.\main.c      ****                     }
 337:.\main.c      ****                 }  
 338:.\main.c      ****                 CyDelay(10);         
 1237              		.loc 1 338 0
 1238 012a 0A20     		movs	r0, #10
 1239 012c FFF7FEFF 		bl	CyDelay
 1240              	.LVL114:
 339:.\main.c      ****                 Display1_ClearRxBuffer();
 1241              		.loc 1 339 0
 1242 0130 FFF7FEFF 		bl	Display1_ClearRxBuffer
 1243              	.LVL115:
 1244 0134 E1E2     		b	.L62
 1245              	.L68:
 340:.\main.c      ****             }
 341:.\main.c      ****         break;
 342:.\main.c      ****             
 343:.\main.c      ****         case 3: 
 344:.\main.c      ****             if(Display1_GetRxBufferSize()==8){
 1246              		.loc 1 344 0
ARM GAS  C:\Users\RECEPC~1\AppData\Local\Temp\ccBlh02k.s 			page 29


 1247 0136 FFF7FEFF 		bl	Display1_GetRxBufferSize
 1248              	.LVL116:
 1249 013a 0828     		cmp	r0, #8
 1250 013c 40F0DD82 		bne	.L62
 345:.\main.c      ****                 if((Display1_rxBuffer[0]==0xAA) && (Display1_rxBuffer[6]==0xC3) && (Display1_rxBuff
 1251              		.loc 1 345 0
 1252 0140 634B     		ldr	r3, .L147+4
 1253 0142 1B78     		ldrb	r3, [r3]	@ zero_extendqisi2
 1254 0144 DBB2     		uxtb	r3, r3
 1255 0146 AA2B     		cmp	r3, #170
 1256 0148 40F0A780 		bne	.L85
 1257              		.loc 1 345 0 is_stmt 0 discriminator 1
 1258 014c 604B     		ldr	r3, .L147+4
 1259 014e 9B79     		ldrb	r3, [r3, #6]	@ zero_extendqisi2
 1260 0150 DBB2     		uxtb	r3, r3
 1261 0152 C32B     		cmp	r3, #195
 1262 0154 40F0A180 		bne	.L85
 1263              		.loc 1 345 0 discriminator 2
 1264 0158 5D4B     		ldr	r3, .L147+4
 1265 015a DB79     		ldrb	r3, [r3, #7]	@ zero_extendqisi2
 1266 015c DBB2     		uxtb	r3, r3
 1267 015e 3C2B     		cmp	r3, #60
 1268 0160 40F09B80 		bne	.L85
 346:.\main.c      ****                     switch(Display1_rxBuffer[3]){
 1269              		.loc 1 346 0 is_stmt 1
 1270 0164 5A4B     		ldr	r3, .L147+4
 1271 0166 DB78     		ldrb	r3, [r3, #3]	@ zero_extendqisi2
 1272 0168 DBB2     		uxtb	r3, r3
 1273 016a 3B2B     		cmp	r3, #59
 1274 016c 00F08680 		beq	.L86
 1275 0170 04D8     		bhi	.L87
 1276 0172 0F2B     		cmp	r3, #15
 1277 0174 0BD0     		beq	.L88
 1278 0176 102B     		cmp	r3, #16
 1279 0178 27D0     		beq	.L89
 1280 017a 8EE0     		b	.L85
 1281              	.L87:
 1282 017c 7E2B     		cmp	r3, #126
 1283 017e 00F08580 		beq	.L90
 1284 0182 942B     		cmp	r3, #148
 1285 0184 72D0     		beq	.L91
 1286 0186 432B     		cmp	r3, #67
 1287 0188 40F08780 		bne	.L85
 1288 018c 3BE0     		b	.L92
 1289              	.L88:
 347:.\main.c      ****                         case 0x0F:  //Preset dinero                
 348:.\main.c      ****                             flowDisplay1 = 4;  
 1290              		.loc 1 348 0
 1291 018e 0422     		movs	r2, #4
 1292 0190 4E4B     		ldr	r3, .L147
 1293 0192 1A60     		str	r2, [r3]
 349:.\main.c      ****                             bufferDisplay1.flagKeyboard = 0;
 1294              		.loc 1 349 0
 1295 0194 4F4B     		ldr	r3, .L147+8
 1296 0196 0024     		movs	r4, #0
 1297 0198 83F82541 		strb	r4, [r3, #293]
 350:.\main.c      ****                             bufferDisplay1.presetType[0]=2;
ARM GAS  C:\Users\RECEPC~1\AppData\Local\Temp\ccBlh02k.s 			page 30


 1298              		.loc 1 350 0
 1299 019c 0225     		movs	r5, #2
 1300 019e 83F87C50 		strb	r5, [r3, #124]
 351:.\main.c      ****                             bufferDisplay1.presetType[1]='D';
 1301              		.loc 1 351 0
 1302 01a2 4422     		movs	r2, #68
 1303 01a4 83F87D20 		strb	r2, [r3, #125]
 352:.\main.c      ****                             numberKeys1=0;
 1304              		.loc 1 352 0
 1305 01a8 4B4B     		ldr	r3, .L147+12
 1306 01aa 1C70     		strb	r4, [r3]
 353:.\main.c      ****                             SetPicture(1,DISPLAY_INTRODUZCA_VALOR);   
 1307              		.loc 1 353 0
 1308 01ac 0120     		movs	r0, #1
 1309 01ae 0621     		movs	r1, #6
 1310 01b0 FFF7FEFF 		bl	SetPicture
 1311              	.LVL117:
 354:.\main.c      ****                             WriteLCD(1,'$',3,2,1,0x0000,'N');
 1312              		.loc 1 354 0
 1313 01b4 0120     		movs	r0, #1
 1314 01b6 0090     		str	r0, [sp]
 1315 01b8 0194     		str	r4, [sp, #4]
 1316 01ba 4E23     		movs	r3, #78
 1317 01bc 0293     		str	r3, [sp, #8]
 1318 01be 2421     		movs	r1, #36
 1319 01c0 0322     		movs	r2, #3
 1320 01c2 2B46     		mov	r3, r5
 1321 01c4 FFF7FEFF 		bl	WriteLCD
 1322              	.LVL118:
 355:.\main.c      ****                         break; 
 1323              		.loc 1 355 0
 1324 01c8 67E0     		b	.L85
 1325              	.L89:
 356:.\main.c      ****                         case 0x10:  //Preset volumen                 
 357:.\main.c      ****                             flowDisplay1 = 4;
 1326              		.loc 1 357 0
 1327 01ca 0422     		movs	r2, #4
 1328 01cc 3F4B     		ldr	r3, .L147
 1329 01ce 1A60     		str	r2, [r3]
 358:.\main.c      ****                             bufferDisplay1.flagKeyboard = 0;
 1330              		.loc 1 358 0
 1331 01d0 404B     		ldr	r3, .L147+8
 1332 01d2 0025     		movs	r5, #0
 1333 01d4 83F82551 		strb	r5, [r3, #293]
 359:.\main.c      ****                             bufferDisplay1.presetType[0]=1;
 1334              		.loc 1 359 0
 1335 01d8 0124     		movs	r4, #1
 1336 01da 83F87C40 		strb	r4, [r3, #124]
 360:.\main.c      ****                             bufferDisplay1.presetType[1]='V';
 1337              		.loc 1 360 0
 1338 01de 5626     		movs	r6, #86
 1339 01e0 83F87D60 		strb	r6, [r3, #125]
 361:.\main.c      ****                             numberKeys1=0;                            
 1340              		.loc 1 361 0
 1341 01e4 3C4B     		ldr	r3, .L147+12
 1342 01e6 1D70     		strb	r5, [r3]
 362:.\main.c      ****                             SetPicture(1,DISPLAY_INTRODUZCA_VOLUMEN);                            
ARM GAS  C:\Users\RECEPC~1\AppData\Local\Temp\ccBlh02k.s 			page 31


 1343              		.loc 1 362 0
 1344 01e8 2046     		mov	r0, r4
 1345 01ea 0D21     		movs	r1, #13
 1346 01ec FFF7FEFF 		bl	SetPicture
 1347              	.LVL119:
 363:.\main.c      ****                             WriteLCD(1,'V',3,2,1,0x0000,'N');                            
 1348              		.loc 1 363 0
 1349 01f0 0094     		str	r4, [sp]
 1350 01f2 0195     		str	r5, [sp, #4]
 1351 01f4 4E23     		movs	r3, #78
 1352 01f6 0293     		str	r3, [sp, #8]
 1353 01f8 2046     		mov	r0, r4
 1354 01fa 3146     		mov	r1, r6
 1355 01fc 0322     		movs	r2, #3
 1356 01fe 0223     		movs	r3, #2
 1357 0200 FFF7FEFF 		bl	WriteLCD
 1358              	.LVL120:
 364:.\main.c      ****                         break;
 1359              		.loc 1 364 0
 1360 0204 49E0     		b	.L85
 1361              	.L92:
 365:.\main.c      ****                         case 0x43:  //Preset full 
 366:.\main.c      ****                             bufferDisplay1.presetType[0]=2;
 1362              		.loc 1 366 0
 1363 0206 334B     		ldr	r3, .L147+8
 1364 0208 0222     		movs	r2, #2
 1365 020a 83F87C20 		strb	r2, [r3, #124]
 367:.\main.c      ****                             bufferDisplay1.presetType[1]='F';
 1366              		.loc 1 367 0
 1367 020e 4622     		movs	r2, #70
 1368 0210 83F87D20 		strb	r2, [r3, #125]
 1369              	.LVL121:
 368:.\main.c      ****                             for(x=1;x<(digits-1);x++){
 1370              		.loc 1 368 0
 1371 0214 0123     		movs	r3, #1
 1372 0216 06E0     		b	.L93
 1373              	.LVL122:
 1374              	.L94:
 369:.\main.c      ****                                 bufferDisplay1.presetValue[0][x]='9';
 1375              		.loc 1 369 0 discriminator 3
 1376 0218 2E4A     		ldr	r2, .L147+8
 1377 021a 1A44     		add	r2, r2, r3
 1378 021c 3921     		movs	r1, #57
 1379 021e 82F87E10 		strb	r1, [r2, #126]
 368:.\main.c      ****                             for(x=1;x<(digits-1);x++){
 1380              		.loc 1 368 0 discriminator 3
 1381 0222 0133     		adds	r3, r3, #1
 1382              	.LVL123:
 1383 0224 DBB2     		uxtb	r3, r3
 1384              	.LVL124:
 1385              	.L93:
 368:.\main.c      ****                             for(x=1;x<(digits-1);x++){
 1386              		.loc 1 368 0 is_stmt 0 discriminator 1
 1387 0226 1946     		mov	r1, r3
 1388 0228 2C4A     		ldr	r2, .L147+16
 1389 022a 1278     		ldrb	r2, [r2]	@ zero_extendqisi2
 1390 022c 501E     		subs	r0, r2, #1
ARM GAS  C:\Users\RECEPC~1\AppData\Local\Temp\ccBlh02k.s 			page 32


 1391 022e 8342     		cmp	r3, r0
 1392 0230 F2DB     		blt	.L94
 370:.\main.c      ****                             }
 371:.\main.c      ****                             bufferDisplay1.presetValue[0][x]='0';
 1393              		.loc 1 371 0 is_stmt 1
 1394 0232 284B     		ldr	r3, .L147+8
 1395              	.LVL125:
 1396 0234 5C18     		adds	r4, r3, r1
 1397 0236 3020     		movs	r0, #48
 1398 0238 84F87E00 		strb	r0, [r4, #126]
 372:.\main.c      ****                             bufferDisplay1.presetValue[0][x+1]='0';
 1399              		.loc 1 372 0
 1400 023c 84F87F00 		strb	r0, [r4, #127]
 373:.\main.c      ****                             bufferDisplay1.presetValue[0][0]=digits;
 1401              		.loc 1 373 0
 1402 0240 83F87E20 		strb	r2, [r3, #126]
 1403              	.LVL126:
 374:.\main.c      ****                             for(x=0;x<=bufferDisplay1.presetValue[0][0];x++){
 1404              		.loc 1 374 0
 1405 0244 0023     		movs	r3, #0
 1406 0246 07E0     		b	.L95
 1407              	.LVL127:
 1408              	.L96:
 375:.\main.c      ****                                 bufferDisplay1.presetValue[1][x]=bufferDisplay1.presetValue[0][x];
 1409              		.loc 1 375 0 discriminator 3
 1410 0248 2249     		ldr	r1, .L147+8
 1411 024a 1944     		add	r1, r1, r3
 1412 024c 91F87E00 		ldrb	r0, [r1, #126]	@ zero_extendqisi2
 1413 0250 81F88800 		strb	r0, [r1, #136]
 374:.\main.c      ****                             for(x=0;x<=bufferDisplay1.presetValue[0][0];x++){
 1414              		.loc 1 374 0 discriminator 3
 1415 0254 0133     		adds	r3, r3, #1
 1416              	.LVL128:
 1417 0256 DBB2     		uxtb	r3, r3
 1418              	.LVL129:
 1419              	.L95:
 374:.\main.c      ****                             for(x=0;x<=bufferDisplay1.presetValue[0][0];x++){
 1420              		.loc 1 374 0 is_stmt 0 discriminator 1
 1421 0258 9342     		cmp	r3, r2
 1422 025a F5D9     		bls	.L96
 376:.\main.c      ****                             }
 377:.\main.c      ****                             flowDisplay1 = 5;
 1423              		.loc 1 377 0 is_stmt 1
 1424 025c 0522     		movs	r2, #5
 1425 025e 1B4B     		ldr	r3, .L147
 1426              	.LVL130:
 1427 0260 1A60     		str	r2, [r3]
 378:.\main.c      ****                             SetPicture(1,DISPLAY_SELECCIONE_PRODUCTO4);                          
 1428              		.loc 1 378 0
 1429 0262 0120     		movs	r0, #1
 1430 0264 8621     		movs	r1, #134
 1431 0266 FFF7FEFF 		bl	SetPicture
 1432              	.LVL131:
 379:.\main.c      ****                         break;
 1433              		.loc 1 379 0
 1434 026a 16E0     		b	.L85
 1435              	.L91:
ARM GAS  C:\Users\RECEPC~1\AppData\Local\Temp\ccBlh02k.s 			page 33


 380:.\main.c      ****                         case 0x94:  //Retroceso 
 381:.\main.c      ****                             flowDisplay1 = 0;
 1436              		.loc 1 381 0
 1437 026c 0022     		movs	r2, #0
 1438 026e 174B     		ldr	r3, .L147
 1439 0270 1A60     		str	r2, [r3]
 382:.\main.c      ****                             SetPicture(1,DISPLAY_INICIO0);                                         
 1440              		.loc 1 382 0
 1441 0272 0120     		movs	r0, #1
 1442 0274 0146     		mov	r1, r0
 1443 0276 FFF7FEFF 		bl	SetPicture
 1444              	.LVL132:
 383:.\main.c      ****                         break;
 1445              		.loc 1 383 0
 1446 027a 0EE0     		b	.L85
 1447              	.L86:
 384:.\main.c      ****                         case 0x3B:  //Pantalla Inicial    
 385:.\main.c      ****                             flowDisplay1 = 0;
 1448              		.loc 1 385 0
 1449 027c 0022     		movs	r2, #0
 1450 027e 134B     		ldr	r3, .L147
 1451 0280 1A60     		str	r2, [r3]
 386:.\main.c      ****                             SetPicture(1,DISPLAY_INICIO0);                            
 1452              		.loc 1 386 0
 1453 0282 0120     		movs	r0, #1
 1454 0284 0146     		mov	r1, r0
 1455 0286 FFF7FEFF 		bl	SetPicture
 1456              	.LVL133:
 387:.\main.c      ****                         break;
 1457              		.loc 1 387 0
 1458 028a 06E0     		b	.L85
 1459              	.L90:
 388:.\main.c      ****                         case 0x7E:  //Pantalla Inicial    
 389:.\main.c      ****                             flowDisplay1 = 0;
 1460              		.loc 1 389 0
 1461 028c 0022     		movs	r2, #0
 1462 028e 0F4B     		ldr	r3, .L147
 1463 0290 1A60     		str	r2, [r3]
 390:.\main.c      ****                             SetPicture(1,DISPLAY_INICIO0);                            
 1464              		.loc 1 390 0
 1465 0292 0120     		movs	r0, #1
 1466 0294 0146     		mov	r1, r0
 1467 0296 FFF7FEFF 		bl	SetPicture
 1468              	.LVL134:
 1469              	.L85:
 391:.\main.c      ****                         break;
 392:.\main.c      ****                     }
 393:.\main.c      ****                 }  
 394:.\main.c      ****                 CyDelay(10);         
 1470              		.loc 1 394 0
 1471 029a 0A20     		movs	r0, #10
 1472 029c FFF7FEFF 		bl	CyDelay
 1473              	.LVL135:
 395:.\main.c      ****                 Display1_ClearRxBuffer();
 1474              		.loc 1 395 0
 1475 02a0 FFF7FEFF 		bl	Display1_ClearRxBuffer
 1476              	.LVL136:
ARM GAS  C:\Users\RECEPC~1\AppData\Local\Temp\ccBlh02k.s 			page 34


 1477 02a4 29E2     		b	.L62
 1478              	.L69:
 396:.\main.c      ****             }
 397:.\main.c      ****         break;
 398:.\main.c      ****         
 399:.\main.c      ****         case 4:            
 400:.\main.c      ****             switch (alphanumeric_keyboard(1,digits,0)){
 1479              		.loc 1 400 0
 1480 02a6 0120     		movs	r0, #1
 1481 02a8 0C4B     		ldr	r3, .L147+16
 1482 02aa 1978     		ldrb	r1, [r3]	@ zero_extendqisi2
 1483 02ac 0022     		movs	r2, #0
 1484 02ae FFF7FEFF 		bl	alphanumeric_keyboard
 1485              	.LVL137:
 1486 02b2 10B1     		cbz	r0, .L97
 1487 02b4 0128     		cmp	r0, #1
 1488 02b6 1ED0     		beq	.L139
 1489 02b8 1FE2     		b	.L62
 1490              	.L97:
 401:.\main.c      ****                 case 0:  //Pantalla Inicial    
 402:.\main.c      ****                     flowDisplay1 = 0;
 1491              		.loc 1 402 0
 1492 02ba 0022     		movs	r2, #0
 1493 02bc 034B     		ldr	r3, .L147
 1494 02be 1A60     		str	r2, [r3]
 403:.\main.c      ****                     SetPicture(1,DISPLAY_INICIO0);                            
 1495              		.loc 1 403 0
 1496 02c0 0120     		movs	r0, #1
 1497 02c2 0146     		mov	r1, r0
 1498 02c4 FFF7FEFF 		bl	SetPicture
 1499              	.LVL138:
 404:.\main.c      ****                 break;
 1500              		.loc 1 404 0
 1501 02c8 17E2     		b	.L62
 1502              	.L148:
 1503 02ca 00BF     		.align	2
 1504              	.L147:
 1505 02cc 00000000 		.word	flowDisplay1
 1506 02d0 00000000 		.word	Display1_rxBuffer
 1507 02d4 00000000 		.word	bufferDisplay1
 1508 02d8 00000000 		.word	numberKeys1
 1509 02dc 00000000 		.word	digits
 1510              	.LVL139:
 1511              	.L99:
 405:.\main.c      ****                     
 406:.\main.c      ****                 case 1: //Enter
 407:.\main.c      ****                     for(x=0;x<=bufferDisplay1.valueKeys[0];x++){
 408:.\main.c      ****                         bufferDisplay1.presetValue[0][x]=bufferDisplay1.valueKeys[x];
 1512              		.loc 1 408 0 discriminator 3
 1513 02e0 8B4A     		ldr	r2, .L149
 1514 02e2 1A44     		add	r2, r2, r3
 1515 02e4 92F86410 		ldrb	r1, [r2, #100]	@ zero_extendqisi2
 1516 02e8 82F87E10 		strb	r1, [r2, #126]
 409:.\main.c      ****                         bufferDisplay1.presetValue[1][x]=bufferDisplay1.valueKeys[x];
 1517              		.loc 1 409 0 discriminator 3
 1518 02ec 82F88810 		strb	r1, [r2, #136]
 407:.\main.c      ****                         bufferDisplay1.presetValue[0][x]=bufferDisplay1.valueKeys[x];
ARM GAS  C:\Users\RECEPC~1\AppData\Local\Temp\ccBlh02k.s 			page 35


 1519              		.loc 1 407 0 discriminator 3
 1520 02f0 0133     		adds	r3, r3, #1
 1521              	.LVL140:
 1522 02f2 DBB2     		uxtb	r3, r3
 1523              	.LVL141:
 1524 02f4 00E0     		b	.L98
 1525              	.LVL142:
 1526              	.L139:
 400:.\main.c      ****                 case 0:  //Pantalla Inicial    
 1527              		.loc 1 400 0
 1528 02f6 0023     		movs	r3, #0
 1529              	.L98:
 1530              	.LVL143:
 407:.\main.c      ****                         bufferDisplay1.presetValue[0][x]=bufferDisplay1.valueKeys[x];
 1531              		.loc 1 407 0 discriminator 1
 1532 02f8 854A     		ldr	r2, .L149
 1533 02fa 92F86420 		ldrb	r2, [r2, #100]	@ zero_extendqisi2
 1534 02fe 9A42     		cmp	r2, r3
 1535 0300 EED2     		bcs	.L99
 410:.\main.c      ****                     }
 411:.\main.c      ****                     bufferDisplay1.flagKeyboard = 0;   
 1536              		.loc 1 411 0
 1537 0302 0022     		movs	r2, #0
 1538 0304 824B     		ldr	r3, .L149
 1539              	.LVL144:
 1540 0306 83F82521 		strb	r2, [r3, #293]
 412:.\main.c      ****                     flowDisplay1 = 5;//caso para seleccion de producto
 1541              		.loc 1 412 0
 1542 030a 0522     		movs	r2, #5
 1543 030c 814B     		ldr	r3, .L149+4
 1544 030e 1A60     		str	r2, [r3]
 413:.\main.c      ****                     SetPicture(1,DISPLAY_SELECCIONE_PRODUCTO4);
 1545              		.loc 1 413 0
 1546 0310 0120     		movs	r0, #1
 1547 0312 8621     		movs	r1, #134
 1548 0314 FFF7FEFF 		bl	SetPicture
 1549              	.LVL145:
 414:.\main.c      ****                 break;
 1550              		.loc 1 414 0
 1551 0318 EFE1     		b	.L62
 1552              	.L70:
 415:.\main.c      ****             }
 416:.\main.c      ****         break;
 417:.\main.c      ****             
 418:.\main.c      ****         case 5:
 419:.\main.c      ****             if(Display1_GetRxBufferSize()==8){
 1553              		.loc 1 419 0
 1554 031a FFF7FEFF 		bl	Display1_GetRxBufferSize
 1555              	.LVL146:
 1556 031e 0828     		cmp	r0, #8
 1557 0320 40F0EB81 		bne	.L62
 420:.\main.c      ****                 if((Display1_rxBuffer[0]==0xAA) && (Display1_rxBuffer[6]==0xC3) && (Display1_rxBuff
 1558              		.loc 1 420 0
 1559 0324 7C4B     		ldr	r3, .L149+8
 1560 0326 1B78     		ldrb	r3, [r3]	@ zero_extendqisi2
 1561 0328 DBB2     		uxtb	r3, r3
 1562 032a AA2B     		cmp	r3, #170
ARM GAS  C:\Users\RECEPC~1\AppData\Local\Temp\ccBlh02k.s 			page 36


 1563 032c 6CD1     		bne	.L100
 1564              		.loc 1 420 0 is_stmt 0 discriminator 1
 1565 032e 7A4B     		ldr	r3, .L149+8
 1566 0330 9B79     		ldrb	r3, [r3, #6]	@ zero_extendqisi2
 1567 0332 DBB2     		uxtb	r3, r3
 1568 0334 C32B     		cmp	r3, #195
 1569 0336 67D1     		bne	.L100
 1570              		.loc 1 420 0 discriminator 2
 1571 0338 774B     		ldr	r3, .L149+8
 1572 033a DB79     		ldrb	r3, [r3, #7]	@ zero_extendqisi2
 1573 033c DBB2     		uxtb	r3, r3
 1574 033e 3C2B     		cmp	r3, #60
 1575 0340 62D1     		bne	.L100
 421:.\main.c      ****                     switch(Display1_rxBuffer[3]){
 1576              		.loc 1 421 0 is_stmt 1
 1577 0342 754B     		ldr	r3, .L149+8
 1578 0344 DB78     		ldrb	r3, [r3, #3]	@ zero_extendqisi2
 1579 0346 7E3B     		subs	r3, r3, #126
 1580 0348 3A2B     		cmp	r3, #58
 1581 034a 5DD8     		bhi	.L100
 1582 034c DFE803F0 		tbb	[pc, r3]
 1583              	.L102:
 1584 0350 55       		.byte	(.L101-.L102)/2
 1585 0351 35       		.byte	(.L103-.L102)/2
 1586 0352 1E       		.byte	(.L104-.L102)/2
 1587 0353 29       		.byte	(.L105-.L102)/2
 1588 0354 5C       		.byte	(.L100-.L102)/2
 1589 0355 5C       		.byte	(.L100-.L102)/2
 1590 0356 5C       		.byte	(.L100-.L102)/2
 1591 0357 5C       		.byte	(.L100-.L102)/2
 1592 0358 5C       		.byte	(.L100-.L102)/2
 1593 0359 5C       		.byte	(.L100-.L102)/2
 1594 035a 5C       		.byte	(.L100-.L102)/2
 1595 035b 5C       		.byte	(.L100-.L102)/2
 1596 035c 5C       		.byte	(.L100-.L102)/2
 1597 035d 5C       		.byte	(.L100-.L102)/2
 1598 035e 5C       		.byte	(.L100-.L102)/2
 1599 035f 5C       		.byte	(.L100-.L102)/2
 1600 0360 5C       		.byte	(.L100-.L102)/2
 1601 0361 5C       		.byte	(.L100-.L102)/2
 1602 0362 5C       		.byte	(.L100-.L102)/2
 1603 0363 5C       		.byte	(.L100-.L102)/2
 1604 0364 5C       		.byte	(.L100-.L102)/2
 1605 0365 5C       		.byte	(.L100-.L102)/2
 1606 0366 4D       		.byte	(.L106-.L102)/2
 1607 0367 5C       		.byte	(.L100-.L102)/2
 1608 0368 5C       		.byte	(.L100-.L102)/2
 1609 0369 5C       		.byte	(.L100-.L102)/2
 1610 036a 5C       		.byte	(.L100-.L102)/2
 1611 036b 5C       		.byte	(.L100-.L102)/2
 1612 036c 5C       		.byte	(.L100-.L102)/2
 1613 036d 5C       		.byte	(.L100-.L102)/2
 1614 036e 5C       		.byte	(.L100-.L102)/2
 1615 036f 5C       		.byte	(.L100-.L102)/2
 1616 0370 5C       		.byte	(.L100-.L102)/2
 1617 0371 5C       		.byte	(.L100-.L102)/2
 1618 0372 5C       		.byte	(.L100-.L102)/2
ARM GAS  C:\Users\RECEPC~1\AppData\Local\Temp\ccBlh02k.s 			page 37


 1619 0373 5C       		.byte	(.L100-.L102)/2
 1620 0374 5C       		.byte	(.L100-.L102)/2
 1621 0375 5C       		.byte	(.L100-.L102)/2
 1622 0376 5C       		.byte	(.L100-.L102)/2
 1623 0377 5C       		.byte	(.L100-.L102)/2
 1624 0378 5C       		.byte	(.L100-.L102)/2
 1625 0379 5C       		.byte	(.L100-.L102)/2
 1626 037a 5C       		.byte	(.L100-.L102)/2
 1627 037b 5C       		.byte	(.L100-.L102)/2
 1628 037c 5C       		.byte	(.L100-.L102)/2
 1629 037d 5C       		.byte	(.L100-.L102)/2
 1630 037e 5C       		.byte	(.L100-.L102)/2
 1631 037f 5C       		.byte	(.L100-.L102)/2
 1632 0380 5C       		.byte	(.L100-.L102)/2
 1633 0381 5C       		.byte	(.L100-.L102)/2
 1634 0382 5C       		.byte	(.L100-.L102)/2
 1635 0383 5C       		.byte	(.L100-.L102)/2
 1636 0384 5C       		.byte	(.L100-.L102)/2
 1637 0385 5C       		.byte	(.L100-.L102)/2
 1638 0386 5C       		.byte	(.L100-.L102)/2
 1639 0387 5C       		.byte	(.L100-.L102)/2
 1640 0388 5C       		.byte	(.L100-.L102)/2
 1641 0389 5C       		.byte	(.L100-.L102)/2
 1642 038a 41       		.byte	(.L107-.L102)/2
 1643 038b 00       		.p2align 1
 1644              	.L104:
 422:.\main.c      ****                         case 0x80:  //Grado 1 
 423:.\main.c      ****                             flowDisplay1 = 6;
 1645              		.loc 1 423 0
 1646 038c 0622     		movs	r2, #6
 1647 038e 614B     		ldr	r3, .L149+4
 1648 0390 1A60     		str	r2, [r3]
 424:.\main.c      ****                             side.a.hose = 1;
 1649              		.loc 1 424 0
 1650 0392 0120     		movs	r0, #1
 1651 0394 614B     		ldr	r3, .L149+12
 1652 0396 83F80101 		strb	r0, [r3, #257]
 425:.\main.c      ****                             SetPicture(1,DISPLAY_DESEA_IMPRIMIR_RECIBO);                           
 1653              		.loc 1 425 0
 1654 039a 0B21     		movs	r1, #11
 1655 039c FFF7FEFF 		bl	SetPicture
 1656              	.LVL147:
 426:.\main.c      ****                         break;
 1657              		.loc 1 426 0
 1658 03a0 32E0     		b	.L100
 1659              	.L105:
 427:.\main.c      ****                             
 428:.\main.c      ****                         case 0x81:  //Grado 2 
 429:.\main.c      ****                             flowDisplay1 = 6;
 1660              		.loc 1 429 0
 1661 03a2 0622     		movs	r2, #6
 1662 03a4 5B4B     		ldr	r3, .L149+4
 1663 03a6 1A60     		str	r2, [r3]
 430:.\main.c      ****                             side.a.hose = 2;
 1664              		.loc 1 430 0
 1665 03a8 0222     		movs	r2, #2
 1666 03aa 5C4B     		ldr	r3, .L149+12
ARM GAS  C:\Users\RECEPC~1\AppData\Local\Temp\ccBlh02k.s 			page 38


 1667 03ac 83F80121 		strb	r2, [r3, #257]
 431:.\main.c      ****                             SetPicture(1,DISPLAY_DESEA_IMPRIMIR_RECIBO);                           
 1668              		.loc 1 431 0
 1669 03b0 0120     		movs	r0, #1
 1670 03b2 0B21     		movs	r1, #11
 1671 03b4 FFF7FEFF 		bl	SetPicture
 1672              	.LVL148:
 432:.\main.c      ****                         break;
 1673              		.loc 1 432 0
 1674 03b8 26E0     		b	.L100
 1675              	.L103:
 433:.\main.c      ****                             
 434:.\main.c      ****                         case 0x7F:  //Grado 3
 435:.\main.c      ****                             flowDisplay1 = 6;
 1676              		.loc 1 435 0
 1677 03ba 0622     		movs	r2, #6
 1678 03bc 554B     		ldr	r3, .L149+4
 1679 03be 1A60     		str	r2, [r3]
 436:.\main.c      ****                             side.a.hose = 3;
 1680              		.loc 1 436 0
 1681 03c0 0322     		movs	r2, #3
 1682 03c2 564B     		ldr	r3, .L149+12
 1683 03c4 83F80121 		strb	r2, [r3, #257]
 437:.\main.c      ****                             SetPicture(1,DISPLAY_DESEA_IMPRIMIR_RECIBO);                           
 1684              		.loc 1 437 0
 1685 03c8 0120     		movs	r0, #1
 1686 03ca 0B21     		movs	r1, #11
 1687 03cc FFF7FEFF 		bl	SetPicture
 1688              	.LVL149:
 438:.\main.c      ****                         break;   
 1689              		.loc 1 438 0
 1690 03d0 1AE0     		b	.L100
 1691              	.L107:
 439:.\main.c      ****                         
 440:.\main.c      ****                         case 0xB8:  //Grado 4 
 441:.\main.c      ****                             flowDisplay1 = 6;
 1692              		.loc 1 441 0
 1693 03d2 0622     		movs	r2, #6
 1694 03d4 4F4B     		ldr	r3, .L149+4
 1695 03d6 1A60     		str	r2, [r3]
 442:.\main.c      ****                             side.a.hose = 4;
 1696              		.loc 1 442 0
 1697 03d8 0422     		movs	r2, #4
 1698 03da 504B     		ldr	r3, .L149+12
 1699 03dc 83F80121 		strb	r2, [r3, #257]
 443:.\main.c      ****                             SetPicture(1,DISPLAY_DESEA_IMPRIMIR_RECIBO);                           
 1700              		.loc 1 443 0
 1701 03e0 0120     		movs	r0, #1
 1702 03e2 0B21     		movs	r1, #11
 1703 03e4 FFF7FEFF 		bl	SetPicture
 1704              	.LVL150:
 444:.\main.c      ****                         break;
 1705              		.loc 1 444 0
 1706 03e8 0EE0     		b	.L100
 1707              	.L106:
 445:.\main.c      ****                             
 446:.\main.c      ****                         case 0x94:  //Retroceso 
ARM GAS  C:\Users\RECEPC~1\AppData\Local\Temp\ccBlh02k.s 			page 39


 447:.\main.c      ****                             flowDisplay1 = 0;
 1708              		.loc 1 447 0
 1709 03ea 0022     		movs	r2, #0
 1710 03ec 494B     		ldr	r3, .L149+4
 1711 03ee 1A60     		str	r2, [r3]
 448:.\main.c      ****                             SetPicture(1,DISPLAY_INICIO0);                                         
 1712              		.loc 1 448 0
 1713 03f0 0120     		movs	r0, #1
 1714 03f2 0146     		mov	r1, r0
 1715 03f4 FFF7FEFF 		bl	SetPicture
 1716              	.LVL151:
 449:.\main.c      ****                         break;
 1717              		.loc 1 449 0
 1718 03f8 06E0     		b	.L100
 1719              	.L101:
 450:.\main.c      ****                             
 451:.\main.c      ****                         case 0x7E:  //Pantalla Inicial                                             
 452:.\main.c      ****                             SetPicture(1,DISPLAY_INICIO0);
 1720              		.loc 1 452 0
 1721 03fa 0120     		movs	r0, #1
 1722 03fc 0146     		mov	r1, r0
 1723 03fe FFF7FEFF 		bl	SetPicture
 1724              	.LVL152:
 453:.\main.c      ****                             flowDisplay1 = 0;
 1725              		.loc 1 453 0
 1726 0402 0022     		movs	r2, #0
 1727 0404 434B     		ldr	r3, .L149+4
 1728 0406 1A60     		str	r2, [r3]
 1729              	.L100:
 454:.\main.c      ****                         break;
 455:.\main.c      ****                     }                    
 456:.\main.c      ****                 }
 457:.\main.c      ****                 CyDelay(10);         
 1730              		.loc 1 457 0
 1731 0408 0A20     		movs	r0, #10
 1732 040a FFF7FEFF 		bl	CyDelay
 1733              	.LVL153:
 458:.\main.c      ****                 Display1_ClearRxBuffer();
 1734              		.loc 1 458 0
 1735 040e FFF7FEFF 		bl	Display1_ClearRxBuffer
 1736              	.LVL154:
 1737 0412 72E1     		b	.L62
 1738              	.L71:
 459:.\main.c      ****             }
 460:.\main.c      ****         break;
 461:.\main.c      ****                     
 462:.\main.c      ****         case 6:
 463:.\main.c      ****             if(Display1_GetRxBufferSize()==8){
 1739              		.loc 1 463 0
 1740 0414 FFF7FEFF 		bl	Display1_GetRxBufferSize
 1741              	.LVL155:
 1742 0418 0828     		cmp	r0, #8
 1743 041a 40F06E81 		bne	.L62
 464:.\main.c      ****                 if((Display1_rxBuffer[0]==0xAA) && (Display1_rxBuffer[6]==0xC3) && (Display1_rxBuff
 1744              		.loc 1 464 0
 1745 041e 3E4B     		ldr	r3, .L149+8
 1746 0420 1B78     		ldrb	r3, [r3]	@ zero_extendqisi2
ARM GAS  C:\Users\RECEPC~1\AppData\Local\Temp\ccBlh02k.s 			page 40


 1747 0422 DBB2     		uxtb	r3, r3
 1748 0424 AA2B     		cmp	r3, #170
 1749 0426 35D1     		bne	.L108
 1750              		.loc 1 464 0 is_stmt 0 discriminator 1
 1751 0428 3B4B     		ldr	r3, .L149+8
 1752 042a 9B79     		ldrb	r3, [r3, #6]	@ zero_extendqisi2
 1753 042c DBB2     		uxtb	r3, r3
 1754 042e C32B     		cmp	r3, #195
 1755 0430 30D1     		bne	.L108
 1756              		.loc 1 464 0 discriminator 2
 1757 0432 394B     		ldr	r3, .L149+8
 1758 0434 DB79     		ldrb	r3, [r3, #7]	@ zero_extendqisi2
 1759 0436 DBB2     		uxtb	r3, r3
 1760 0438 3C2B     		cmp	r3, #60
 1761 043a 2BD1     		bne	.L108
 465:.\main.c      ****                     switch(Display1_rxBuffer[3]){
 1762              		.loc 1 465 0 is_stmt 1
 1763 043c 364B     		ldr	r3, .L149+8
 1764 043e DB78     		ldrb	r3, [r3, #3]	@ zero_extendqisi2
 1765 0440 DBB2     		uxtb	r3, r3
 1766 0442 392B     		cmp	r3, #57
 1767 0444 04D0     		beq	.L109
 1768 0446 7E2B     		cmp	r3, #126
 1769 0448 1DD0     		beq	.L110
 1770 044a 382B     		cmp	r3, #56
 1771 044c 22D1     		bne	.L108
 1772 044e 0FE0     		b	.L111
 1773              	.L109:
 466:.\main.c      ****                         case 0x39:  //Si imprimir  
 467:.\main.c      ****                             flowDisplay1 = 9;
 1774              		.loc 1 467 0
 1775 0450 0922     		movs	r2, #9
 1776 0452 304B     		ldr	r3, .L149+4
 1777 0454 1A60     		str	r2, [r3]
 468:.\main.c      ****                             numberKeys1 = 0;
 1778              		.loc 1 468 0
 1779 0456 0022     		movs	r2, #0
 1780 0458 314B     		ldr	r3, .L149+16
 1781 045a 1A70     		strb	r2, [r3]
 469:.\main.c      ****                             bufferDisplay1.flagKeyboard = 1;
 1782              		.loc 1 469 0
 1783 045c 2C4B     		ldr	r3, .L149
 1784 045e 0120     		movs	r0, #1
 1785 0460 83F82501 		strb	r0, [r3, #293]
 470:.\main.c      ****                             bufferDisplay1.flagPrint =  1;
 1786              		.loc 1 470 0
 1787 0464 83F89502 		strb	r0, [r3, #661]
 471:.\main.c      ****                             SetPicture(1,DISPLAY_DIGITE_PLACA);                            
 1788              		.loc 1 471 0
 1789 0468 0A21     		movs	r1, #10
 1790 046a FFF7FEFF 		bl	SetPicture
 1791              	.LVL156:
 472:.\main.c      ****                         break; 
 1792              		.loc 1 472 0
 1793 046e 11E0     		b	.L108
 1794              	.L111:
 473:.\main.c      ****                         case 0x38:  //No imprimir
ARM GAS  C:\Users\RECEPC~1\AppData\Local\Temp\ccBlh02k.s 			page 41


 474:.\main.c      ****                             bufferDisplay1.flagKeyboard = 0;
 1795              		.loc 1 474 0
 1796 0470 0022     		movs	r2, #0
 1797 0472 274B     		ldr	r3, .L149
 1798 0474 83F82521 		strb	r2, [r3, #293]
 475:.\main.c      ****                             flowDisplay1 = 7;//Esperando estado del dispensador                    
 1799              		.loc 1 475 0
 1800 0478 0721     		movs	r1, #7
 1801 047a 264B     		ldr	r3, .L149+4
 1802 047c 1960     		str	r1, [r3]
 476:.\main.c      ****                             SetPicture(1,DISPLAY_SUBA_MANIJA);                            
 1803              		.loc 1 476 0
 1804 047e 0120     		movs	r0, #1
 1805 0480 FFF7FEFF 		bl	SetPicture
 1806              	.LVL157:
 477:.\main.c      ****                         break;
 1807              		.loc 1 477 0
 1808 0484 06E0     		b	.L108
 1809              	.L110:
 478:.\main.c      ****                         case 0x7E:  //Pantalla Inicial                                             
 479:.\main.c      ****                             SetPicture(1,DISPLAY_INICIO0);
 1810              		.loc 1 479 0
 1811 0486 0120     		movs	r0, #1
 1812 0488 0146     		mov	r1, r0
 1813 048a FFF7FEFF 		bl	SetPicture
 1814              	.LVL158:
 480:.\main.c      ****                             flowDisplay1 = 0;
 1815              		.loc 1 480 0
 1816 048e 0022     		movs	r2, #0
 1817 0490 204B     		ldr	r3, .L149+4
 1818 0492 1A60     		str	r2, [r3]
 1819              	.L108:
 481:.\main.c      ****                         break;
 482:.\main.c      ****                     }                    
 483:.\main.c      ****                 }
 484:.\main.c      ****                 CyDelay(10);         
 1820              		.loc 1 484 0
 1821 0494 0A20     		movs	r0, #10
 1822 0496 FFF7FEFF 		bl	CyDelay
 1823              	.LVL159:
 485:.\main.c      ****                 Display1_ClearRxBuffer();
 1824              		.loc 1 485 0
 1825 049a FFF7FEFF 		bl	Display1_ClearRxBuffer
 1826              	.LVL160:
 1827 049e 2CE1     		b	.L62
 1828              	.L72:
 486:.\main.c      ****             }
 487:.\main.c      ****         break;
 488:.\main.c      ****                                         
 489:.\main.c      ****             
 490:.\main.c      ****         case 7:
 491:.\main.c      ****             side.a.activeHose = PumpHoseActiveState(1);  
 1829              		.loc 1 491 0
 1830 04a0 0120     		movs	r0, #1
 1831 04a2 FFF7FEFF 		bl	PumpHoseActiveState
 1832              	.LVL161:
 1833 04a6 0146     		mov	r1, r0
ARM GAS  C:\Users\RECEPC~1\AppData\Local\Temp\ccBlh02k.s 			page 42


 1834 04a8 1C4B     		ldr	r3, .L149+12
 1835 04aa 83F80001 		strb	r0, [r3, #256]
 492:.\main.c      ****             if (side.a.activeHose == side.a.hose){                
 1836              		.loc 1 492 0
 1837 04ae 93F80131 		ldrb	r3, [r3, #257]	@ zero_extendqisi2
 1838 04b2 9842     		cmp	r0, r3
 1839 04b4 36D1     		bne	.L112
 493:.\main.c      ****                 if(PresetData(side.a.dir,side.a.activeHose,bufferDisplay1.presetValue[0],bufferDisp
 1840              		.loc 1 493 0
 1841 04b6 164A     		ldr	r2, .L149
 1842 04b8 92F87C30 		ldrb	r3, [r2, #124]	@ zero_extendqisi2
 1843 04bc 1748     		ldr	r0, .L149+12
 1844 04be 0078     		ldrb	r0, [r0]	@ zero_extendqisi2
 1845 04c0 7E32     		adds	r2, r2, #126
 1846 04c2 03F00303 		and	r3, r3, #3
 1847 04c6 FFF7FEFF 		bl	PresetData
 1848              	.LVL162:
 1849 04ca 0128     		cmp	r0, #1
 1850 04cc 12D1     		bne	.L113
 494:.\main.c      ****                     get_state(side.a.dir);
 1851              		.loc 1 494 0
 1852 04ce 134C     		ldr	r4, .L149+12
 1853 04d0 2078     		ldrb	r0, [r4]	@ zero_extendqisi2
 1854 04d2 FFF7FEFF 		bl	get_state
 1855              	.LVL163:
 495:.\main.c      ****                     Pump_PutChar(0x10|side.a.dir);//Autoriza el surtidor
 1856              		.loc 1 495 0
 1857 04d6 2078     		ldrb	r0, [r4]	@ zero_extendqisi2
 1858 04d8 40F01000 		orr	r0, r0, #16
 1859 04dc FFF7FEFF 		bl	Pump_PutChar
 1860              	.LVL164:
 496:.\main.c      ****                     CyDelay(50);
 1861              		.loc 1 496 0
 1862 04e0 3220     		movs	r0, #50
 1863 04e2 FFF7FEFF 		bl	CyDelay
 1864              	.LVL165:
 497:.\main.c      ****                     flowDisplay1 = 8;
 1865              		.loc 1 497 0
 1866 04e6 0821     		movs	r1, #8
 1867 04e8 0A4B     		ldr	r3, .L149+4
 1868 04ea 1960     		str	r1, [r3]
 498:.\main.c      ****                     SetPicture(1,DISPLAY_DESPACHANDO);
 1869              		.loc 1 498 0
 1870 04ec 0120     		movs	r0, #1
 1871 04ee FFF7FEFF 		bl	SetPicture
 1872              	.LVL166:
 1873 04f2 1AE0     		b	.L114
 1874              	.L113:
 499:.\main.c      ****                 }else{
 500:.\main.c      ****                     flowDisplay1 = 0;
 1875              		.loc 1 500 0
 1876 04f4 0021     		movs	r1, #0
 1877 04f6 074B     		ldr	r3, .L149+4
 1878 04f8 1960     		str	r1, [r3]
 501:.\main.c      ****                     SetPicture(1,DISPLAY_ERROR);
 1879              		.loc 1 501 0
 1880 04fa 0120     		movs	r0, #1
ARM GAS  C:\Users\RECEPC~1\AppData\Local\Temp\ccBlh02k.s 			page 43


 1881 04fc FFF7FEFF 		bl	SetPicture
 1882              	.LVL167:
 502:.\main.c      ****                     CyDelay(200);
 1883              		.loc 1 502 0
 1884 0500 C820     		movs	r0, #200
 1885 0502 FFF7FEFF 		bl	CyDelay
 1886              	.LVL168:
 503:.\main.c      ****                     SetPicture(1,DISPLAY_INICIO0);
 1887              		.loc 1 503 0
 1888 0506 0120     		movs	r0, #1
 1889 0508 0146     		mov	r1, r0
 1890 050a FFF7FEFF 		bl	SetPicture
 1891              	.LVL169:
 1892 050e 0CE0     		b	.L114
 1893              	.L150:
 1894              		.align	2
 1895              	.L149:
 1896 0510 00000000 		.word	bufferDisplay1
 1897 0514 00000000 		.word	flowDisplay1
 1898 0518 00000000 		.word	Display1_rxBuffer
 1899 051c 00000000 		.word	side
 1900 0520 00000000 		.word	numberKeys1
 1901              	.L112:
 504:.\main.c      ****                 }
 505:.\main.c      ****             }else{
 506:.\main.c      ****                 flowDisplay1 = 7;
 1902              		.loc 1 506 0
 1903 0524 0722     		movs	r2, #7
 1904 0526 764B     		ldr	r3, .L151
 1905 0528 1A60     		str	r2, [r3]
 1906              	.L114:
 507:.\main.c      ****             }
 508:.\main.c      ****             if(Display1_GetRxBufferSize()==8){
 1907              		.loc 1 508 0
 1908 052a FFF7FEFF 		bl	Display1_GetRxBufferSize
 1909              	.LVL170:
 1910 052e 0828     		cmp	r0, #8
 1911 0530 1DD1     		bne	.L115
 509:.\main.c      ****                 if((Display1_rxBuffer[0]==0xAA) && (Display1_rxBuffer[6]==0xC3) && (Display1_rxBuff
 1912              		.loc 1 509 0
 1913 0532 744B     		ldr	r3, .L151+4
 1914 0534 1B78     		ldrb	r3, [r3]	@ zero_extendqisi2
 1915 0536 DBB2     		uxtb	r3, r3
 1916 0538 AA2B     		cmp	r3, #170
 1917 053a 15D1     		bne	.L116
 1918              		.loc 1 509 0 is_stmt 0 discriminator 1
 1919 053c 714B     		ldr	r3, .L151+4
 1920 053e 9B79     		ldrb	r3, [r3, #6]	@ zero_extendqisi2
 1921 0540 DBB2     		uxtb	r3, r3
 1922 0542 C32B     		cmp	r3, #195
 1923 0544 10D1     		bne	.L116
 1924              		.loc 1 509 0 discriminator 2
 1925 0546 6F4B     		ldr	r3, .L151+4
 1926 0548 DB79     		ldrb	r3, [r3, #7]	@ zero_extendqisi2
 1927 054a DBB2     		uxtb	r3, r3
 1928 054c 3C2B     		cmp	r3, #60
 1929 054e 0BD1     		bne	.L116
ARM GAS  C:\Users\RECEPC~1\AppData\Local\Temp\ccBlh02k.s 			page 44


 510:.\main.c      ****                     switch(Display1_rxBuffer[3]){                        
 1930              		.loc 1 510 0 is_stmt 1
 1931 0550 6C4B     		ldr	r3, .L151+4
 1932 0552 DB78     		ldrb	r3, [r3, #3]	@ zero_extendqisi2
 1933 0554 DBB2     		uxtb	r3, r3
 1934 0556 7E2B     		cmp	r3, #126
 1935 0558 06D1     		bne	.L116
 511:.\main.c      ****                         case 0x7E:  //Pantalla Inicial                                             
 512:.\main.c      ****                             SetPicture(1,DISPLAY_INICIO0);
 1936              		.loc 1 512 0
 1937 055a 0120     		movs	r0, #1
 1938 055c 0146     		mov	r1, r0
 1939 055e FFF7FEFF 		bl	SetPicture
 1940              	.LVL171:
 513:.\main.c      ****                             flowDisplay1 = 0;
 1941              		.loc 1 513 0
 1942 0562 0022     		movs	r2, #0
 1943 0564 664B     		ldr	r3, .L151
 1944 0566 1A60     		str	r2, [r3]
 1945              	.L116:
 514:.\main.c      ****                         break;
 515:.\main.c      ****                     }                    
 516:.\main.c      ****                 }
 517:.\main.c      ****                 CyDelay(10);                         
 1946              		.loc 1 517 0
 1947 0568 0A20     		movs	r0, #10
 1948 056a FFF7FEFF 		bl	CyDelay
 1949              	.LVL172:
 1950              	.L115:
 518:.\main.c      ****             }
 519:.\main.c      ****             Display1_ClearRxBuffer();
 1951              		.loc 1 519 0
 1952 056e FFF7FEFF 		bl	Display1_ClearRxBuffer
 1953              	.LVL173:
 520:.\main.c      ****         break;
 1954              		.loc 1 520 0
 1955 0572 C2E0     		b	.L62
 1956              	.L73:
 521:.\main.c      ****             
 522:.\main.c      ****         case 8:
 523:.\main.c      ****             switch (get_state(side.a.dir)){
 1957              		.loc 1 523 0
 1958 0574 644B     		ldr	r3, .L151+8
 1959 0576 1878     		ldrb	r0, [r3]	@ zero_extendqisi2
 1960 0578 FFF7FEFF 		bl	get_state
 1961              	.LVL174:
 1962 057c 0A28     		cmp	r0, #10
 1963 057e 05D0     		beq	.L118
 1964 0580 0B28     		cmp	r0, #11
 1965 0582 1AD0     		beq	.L119
 1966 0584 0628     		cmp	r0, #6
 1967 0586 40F0B880 		bne	.L62
 1968 058a 2DE0     		b	.L120
 1969              	.L118:
 524:.\main.c      ****                 case 0x0A: //reporte fin venta
 525:.\main.c      ****                     getSale(side.a.dir);
 1970              		.loc 1 525 0
ARM GAS  C:\Users\RECEPC~1\AppData\Local\Temp\ccBlh02k.s 			page 45


 1971 058c 5E4B     		ldr	r3, .L151+8
 1972 058e 1878     		ldrb	r0, [r3]	@ zero_extendqisi2
 1973 0590 FFF7FEFF 		bl	getSale
 1974              	.LVL175:
 526:.\main.c      ****                     flowDisplay1 = 0;
 1975              		.loc 1 526 0
 1976 0594 0022     		movs	r2, #0
 1977 0596 5A4B     		ldr	r3, .L151
 1978 0598 1A60     		str	r2, [r3]
 527:.\main.c      ****                     if(bufferDisplay1.flagPrint ==1){
 1979              		.loc 1 527 0
 1980 059a 5C4B     		ldr	r3, .L151+12
 1981 059c 93F89532 		ldrb	r3, [r3, #661]	@ zero_extendqisi2
 1982 05a0 012B     		cmp	r3, #1
 1983 05a2 05D1     		bne	.L121
 528:.\main.c      ****                         imprimir(1,1,0,side.a.dir);
 1984              		.loc 1 528 0
 1985 05a4 0120     		movs	r0, #1
 1986 05a6 0146     		mov	r1, r0
 1987 05a8 574B     		ldr	r3, .L151+8
 1988 05aa 1B78     		ldrb	r3, [r3]	@ zero_extendqisi2
 1989 05ac FFF7FEFF 		bl	imprimir
 1990              	.LVL176:
 1991              	.L121:
 529:.\main.c      ****                     }
 530:.\main.c      ****                     SetPicture(1,DISPLAY_INICIO0);                            
 1992              		.loc 1 530 0
 1993 05b0 0120     		movs	r0, #1
 1994 05b2 0146     		mov	r1, r0
 1995 05b4 FFF7FEFF 		bl	SetPicture
 1996              	.LVL177:
 531:.\main.c      ****                 break;
 1997              		.loc 1 531 0
 1998 05b8 9FE0     		b	.L62
 1999              	.L119:
 532:.\main.c      ****                 case 0x0B://Reporte de venta
 533:.\main.c      ****                     getSale(side.a.dir);
 2000              		.loc 1 533 0
 2001 05ba 534B     		ldr	r3, .L151+8
 2002 05bc 1878     		ldrb	r0, [r3]	@ zero_extendqisi2
 2003 05be FFF7FEFF 		bl	getSale
 2004              	.LVL178:
 534:.\main.c      ****                     flowDisplay1 = 0;
 2005              		.loc 1 534 0
 2006 05c2 0022     		movs	r2, #0
 2007 05c4 4E4B     		ldr	r3, .L151
 2008 05c6 1A60     		str	r2, [r3]
 535:.\main.c      ****                     if(bufferDisplay1.flagPrint ==1){
 2009              		.loc 1 535 0
 2010 05c8 504B     		ldr	r3, .L151+12
 2011 05ca 93F89532 		ldrb	r3, [r3, #661]	@ zero_extendqisi2
 2012 05ce 012B     		cmp	r3, #1
 2013 05d0 05D1     		bne	.L122
 536:.\main.c      ****                         imprimir(1,1,0,side.a.dir);
 2014              		.loc 1 536 0
 2015 05d2 0120     		movs	r0, #1
 2016 05d4 0146     		mov	r1, r0
ARM GAS  C:\Users\RECEPC~1\AppData\Local\Temp\ccBlh02k.s 			page 46


 2017 05d6 4C4B     		ldr	r3, .L151+8
 2018 05d8 1B78     		ldrb	r3, [r3]	@ zero_extendqisi2
 2019 05da FFF7FEFF 		bl	imprimir
 2020              	.LVL179:
 2021              	.L122:
 537:.\main.c      ****                     }
 538:.\main.c      ****                     SetPicture(1,DISPLAY_INICIO0);
 2022              		.loc 1 538 0
 2023 05de 0120     		movs	r0, #1
 2024 05e0 0146     		mov	r1, r0
 2025 05e2 FFF7FEFF 		bl	SetPicture
 2026              	.LVL180:
 539:.\main.c      ****                 break;
 2027              		.loc 1 539 0
 2028 05e6 88E0     		b	.L62
 2029              	.L120:
 540:.\main.c      ****                 case 0x06://Espera
 541:.\main.c      ****                     flowDisplay1 = 0;
 2030              		.loc 1 541 0
 2031 05e8 0022     		movs	r2, #0
 2032 05ea 454B     		ldr	r3, .L151
 2033 05ec 1A60     		str	r2, [r3]
 542:.\main.c      ****                     SetPicture(1,DISPLAY_INICIO0);
 2034              		.loc 1 542 0
 2035 05ee 0120     		movs	r0, #1
 2036 05f0 0146     		mov	r1, r0
 2037 05f2 FFF7FEFF 		bl	SetPicture
 2038              	.LVL181:
 543:.\main.c      ****                 break;
 2039              		.loc 1 543 0
 2040 05f6 80E0     		b	.L62
 2041              	.L74:
 544:.\main.c      ****             }
 545:.\main.c      ****             
 546:.\main.c      ****         break;
 547:.\main.c      ****             
 548:.\main.c      ****         case 9: //Teclado Placa            
 549:.\main.c      ****             switch (alphanumeric_keyboard(1,10,0)){
 2042              		.loc 1 549 0
 2043 05f8 0120     		movs	r0, #1
 2044 05fa 0A21     		movs	r1, #10
 2045 05fc 0022     		movs	r2, #0
 2046 05fe FFF7FEFF 		bl	alphanumeric_keyboard
 2047              	.LVL182:
 2048 0602 10B1     		cbz	r0, .L123
 2049 0604 0128     		cmp	r0, #1
 2050 0606 37D0     		beq	.L124
 2051 0608 77E0     		b	.L62
 2052              	.L123:
 550:.\main.c      ****                 case 0: //Cancelar
 551:.\main.c      ****                     switch(bufferDisplay1.flagKeyboard){
 2053              		.loc 1 551 0
 2054 060a 404B     		ldr	r3, .L151+12
 2055 060c 93F82531 		ldrb	r3, [r3, #293]	@ zero_extendqisi2
 2056 0610 022B     		cmp	r3, #2
 2057 0612 1FD0     		beq	.L141
 2058 0614 032B     		cmp	r3, #3
ARM GAS  C:\Users\RECEPC~1\AppData\Local\Temp\ccBlh02k.s 			page 47


 2059 0616 29D0     		beq	.L142
 2060 0618 012B     		cmp	r3, #1
 2061 061a 2AD1     		bne	.L125
 2062 061c 07E0     		b	.L140
 2063              	.LVL183:
 2064              	.L129:
 552:.\main.c      ****                         case 1://Placa
 553:.\main.c      ****                             for(x=0;x<=10;x++){
 554:.\main.c      ****                                 bufferDisplay1.licenceSale[x]=0;
 2065              		.loc 1 554 0 discriminator 3
 2066 061e 3B4A     		ldr	r2, .L151+12
 2067 0620 1A44     		add	r2, r2, r3
 2068 0622 0021     		movs	r1, #0
 2069 0624 82F80411 		strb	r1, [r2, #260]
 553:.\main.c      ****                                 bufferDisplay1.licenceSale[x]=0;
 2070              		.loc 1 553 0 discriminator 3
 2071 0628 0133     		adds	r3, r3, #1
 2072              	.LVL184:
 2073 062a DBB2     		uxtb	r3, r3
 2074              	.LVL185:
 2075 062c 00E0     		b	.L128
 2076              	.LVL186:
 2077              	.L140:
 551:.\main.c      ****                         case 1://Placa
 2078              		.loc 1 551 0
 2079 062e 0023     		movs	r3, #0
 2080              	.L128:
 2081              	.LVL187:
 553:.\main.c      ****                                 bufferDisplay1.licenceSale[x]=0;
 2082              		.loc 1 553 0 discriminator 1
 2083 0630 0A2B     		cmp	r3, #10
 2084 0632 F4D9     		bls	.L129
 555:.\main.c      ****                             }
 556:.\main.c      ****                             flowDisplay1 = 0;//Inicio
 2085              		.loc 1 556 0
 2086 0634 0022     		movs	r2, #0
 2087 0636 324B     		ldr	r3, .L151
 2088              	.LVL188:
 2089 0638 1A60     		str	r2, [r3]
 557:.\main.c      ****                             SetPicture(1,DISPLAY_INICIO0);
 2090              		.loc 1 557 0
 2091 063a 0120     		movs	r0, #1
 2092 063c 0146     		mov	r1, r0
 2093 063e FFF7FEFF 		bl	SetPicture
 2094              	.LVL189:
 558:.\main.c      ****                         break;
 2095              		.loc 1 558 0
 2096 0642 16E0     		b	.L125
 2097              	.LVL190:
 2098              	.L130:
 559:.\main.c      ****                         
 560:.\main.c      ****                         case 2://Kilometraje
 561:.\main.c      ****                             for(x=0;x<=10;x++){
 562:.\main.c      ****                                 bufferDisplay1.mileageSale[x]=0;
 2099              		.loc 1 562 0 discriminator 3
 2100 0644 314A     		ldr	r2, .L151+12
 2101 0646 1A44     		add	r2, r2, r3
ARM GAS  C:\Users\RECEPC~1\AppData\Local\Temp\ccBlh02k.s 			page 48


 2102 0648 0021     		movs	r1, #0
 2103 064a 82F80F11 		strb	r1, [r2, #271]
 561:.\main.c      ****                                 bufferDisplay1.mileageSale[x]=0;
 2104              		.loc 1 561 0 discriminator 3
 2105 064e 0133     		adds	r3, r3, #1
 2106              	.LVL191:
 2107 0650 DBB2     		uxtb	r3, r3
 2108              	.LVL192:
 2109 0652 00E0     		b	.L126
 2110              	.LVL193:
 2111              	.L141:
 551:.\main.c      ****                         case 1://Placa
 2112              		.loc 1 551 0
 2113 0654 0023     		movs	r3, #0
 2114              	.L126:
 2115              	.LVL194:
 561:.\main.c      ****                                 bufferDisplay1.mileageSale[x]=0;
 2116              		.loc 1 561 0 discriminator 1
 2117 0656 0A2B     		cmp	r3, #10
 2118 0658 F4D9     		bls	.L130
 2119 065a 0AE0     		b	.L125
 2120              	.L131:
 563:.\main.c      ****                             }
 564:.\main.c      ****                         break;
 565:.\main.c      ****                         
 566:.\main.c      ****                         case 3://CC/NIT
 567:.\main.c      ****                             for(x=0;x<=10;x++){
 568:.\main.c      ****                                 bufferDisplay1.identySale[x]=0;
 2121              		.loc 1 568 0 discriminator 3
 2122 065c 2B4A     		ldr	r2, .L151+12
 2123 065e 1A44     		add	r2, r2, r3
 2124 0660 0021     		movs	r1, #0
 2125 0662 82F81A11 		strb	r1, [r2, #282]
 567:.\main.c      ****                                 bufferDisplay1.identySale[x]=0;
 2126              		.loc 1 567 0 discriminator 3
 2127 0666 0133     		adds	r3, r3, #1
 2128              	.LVL195:
 2129 0668 DBB2     		uxtb	r3, r3
 2130              	.LVL196:
 2131 066a 00E0     		b	.L127
 2132              	.LVL197:
 2133              	.L142:
 551:.\main.c      ****                         case 1://Placa
 2134              		.loc 1 551 0
 2135 066c 0023     		movs	r3, #0
 2136              	.L127:
 2137              	.LVL198:
 567:.\main.c      ****                                 bufferDisplay1.identySale[x]=0;
 2138              		.loc 1 567 0 discriminator 1
 2139 066e 0A2B     		cmp	r3, #10
 2140 0670 F4D9     		bls	.L131
 2141              	.LVL199:
 2142              	.L125:
 569:.\main.c      ****                             }
 570:.\main.c      ****                         break;
 571:.\main.c      ****                     }                    
 572:.\main.c      ****                     Display1_ClearRxBuffer();
ARM GAS  C:\Users\RECEPC~1\AppData\Local\Temp\ccBlh02k.s 			page 49


 2143              		.loc 1 572 0
 2144 0672 FFF7FEFF 		bl	Display1_ClearRxBuffer
 2145              	.LVL200:
 573:.\main.c      ****                 break;
 2146              		.loc 1 573 0
 2147 0676 40E0     		b	.L62
 2148              	.L124:
 574:.\main.c      ****                     
 575:.\main.c      ****                 case 1: //Enter
 576:.\main.c      ****                     switch(bufferDisplay1.flagKeyboard){
 2149              		.loc 1 576 0
 2150 0678 244B     		ldr	r3, .L151+12
 2151 067a 93F82531 		ldrb	r3, [r3, #293]	@ zero_extendqisi2
 2152 067e 022B     		cmp	r3, #2
 2153 0680 23D0     		beq	.L144
 2154 0682 032B     		cmp	r3, #3
 2155 0684 31D0     		beq	.L145
 2156 0686 012B     		cmp	r3, #1
 2157 0688 35D1     		bne	.L132
 2158 068a 08E0     		b	.L143
 2159              	.LVL201:
 2160              	.L136:
 577:.\main.c      ****                         case 1://Placa
 578:.\main.c      ****                             for(x=0;x<=bufferDisplay1.valueKeys[0];x++){
 579:.\main.c      ****                                 bufferDisplay1.licenceSale[x]=bufferDisplay1.valueKeys[x];
 2161              		.loc 1 579 0 discriminator 3
 2162 068c 1F4A     		ldr	r2, .L151+12
 2163 068e 1A44     		add	r2, r2, r3
 2164 0690 92F86410 		ldrb	r1, [r2, #100]	@ zero_extendqisi2
 2165 0694 82F80411 		strb	r1, [r2, #260]
 578:.\main.c      ****                                 bufferDisplay1.licenceSale[x]=bufferDisplay1.valueKeys[x];
 2166              		.loc 1 578 0 discriminator 3
 2167 0698 0133     		adds	r3, r3, #1
 2168              	.LVL202:
 2169 069a DBB2     		uxtb	r3, r3
 2170              	.LVL203:
 2171 069c 00E0     		b	.L135
 2172              	.LVL204:
 2173              	.L143:
 576:.\main.c      ****                         case 1://Placa
 2174              		.loc 1 576 0
 2175 069e 0023     		movs	r3, #0
 2176              	.L135:
 2177              	.LVL205:
 578:.\main.c      ****                                 bufferDisplay1.licenceSale[x]=bufferDisplay1.valueKeys[x];
 2178              		.loc 1 578 0 discriminator 1
 2179 06a0 1A4A     		ldr	r2, .L151+12
 2180 06a2 92F86420 		ldrb	r2, [r2, #100]	@ zero_extendqisi2
 2181 06a6 9A42     		cmp	r2, r3
 2182 06a8 F0D2     		bcs	.L136
 580:.\main.c      ****                             }
 581:.\main.c      ****                             flowDisplay1 = 7;//Suba manija
 2183              		.loc 1 581 0
 2184 06aa 0721     		movs	r1, #7
 2185 06ac 144B     		ldr	r3, .L151
 2186              	.LVL206:
 2187 06ae 1960     		str	r1, [r3]
ARM GAS  C:\Users\RECEPC~1\AppData\Local\Temp\ccBlh02k.s 			page 50


 582:.\main.c      ****                             SetPicture(1,DISPLAY_SUBA_MANIJA);
 2188              		.loc 1 582 0
 2189 06b0 0120     		movs	r0, #1
 2190 06b2 FFF7FEFF 		bl	SetPicture
 2191              	.LVL207:
 583:.\main.c      ****                         break;
 2192              		.loc 1 583 0
 2193 06b6 1EE0     		b	.L132
 2194              	.LVL208:
 2195              	.L137:
 584:.\main.c      ****                         
 585:.\main.c      ****                         case 2://Kilometraje
 586:.\main.c      ****                             for(x=0;x<=bufferDisplay1.valueKeys[0];x++){
 587:.\main.c      ****                                 bufferDisplay1.mileageSale[x]=bufferDisplay1.valueKeys[x];
 2196              		.loc 1 587 0 discriminator 3
 2197 06b8 144A     		ldr	r2, .L151+12
 2198 06ba 1A44     		add	r2, r2, r3
 2199 06bc 92F86410 		ldrb	r1, [r2, #100]	@ zero_extendqisi2
 2200 06c0 82F80F11 		strb	r1, [r2, #271]
 586:.\main.c      ****                                 bufferDisplay1.mileageSale[x]=bufferDisplay1.valueKeys[x];
 2201              		.loc 1 586 0 discriminator 3
 2202 06c4 0133     		adds	r3, r3, #1
 2203              	.LVL209:
 2204 06c6 DBB2     		uxtb	r3, r3
 2205              	.LVL210:
 2206 06c8 00E0     		b	.L133
 2207              	.LVL211:
 2208              	.L144:
 576:.\main.c      ****                         case 1://Placa
 2209              		.loc 1 576 0
 2210 06ca 0023     		movs	r3, #0
 2211              	.L133:
 2212              	.LVL212:
 586:.\main.c      ****                                 bufferDisplay1.mileageSale[x]=bufferDisplay1.valueKeys[x];
 2213              		.loc 1 586 0 discriminator 1
 2214 06cc 0F4A     		ldr	r2, .L151+12
 2215 06ce 92F86420 		ldrb	r2, [r2, #100]	@ zero_extendqisi2
 2216 06d2 9A42     		cmp	r2, r3
 2217 06d4 F0D2     		bcs	.L137
 2218 06d6 0EE0     		b	.L132
 2219              	.L138:
 588:.\main.c      ****                             }
 589:.\main.c      ****                         break;
 590:.\main.c      ****                         
 591:.\main.c      ****                         case 3://CC/NIT
 592:.\main.c      ****                             for(x=0;x<=bufferDisplay1.valueKeys[0];x++){
 593:.\main.c      ****                                 bufferDisplay1.identySale[x]=bufferDisplay1.valueKeys[x];
 2220              		.loc 1 593 0 discriminator 3
 2221 06d8 0C4A     		ldr	r2, .L151+12
 2222 06da 1A44     		add	r2, r2, r3
 2223 06dc 92F86410 		ldrb	r1, [r2, #100]	@ zero_extendqisi2
 2224 06e0 82F81A11 		strb	r1, [r2, #282]
 592:.\main.c      ****                                 bufferDisplay1.identySale[x]=bufferDisplay1.valueKeys[x];
 2225              		.loc 1 592 0 discriminator 3
 2226 06e4 0133     		adds	r3, r3, #1
 2227              	.LVL213:
 2228 06e6 DBB2     		uxtb	r3, r3
ARM GAS  C:\Users\RECEPC~1\AppData\Local\Temp\ccBlh02k.s 			page 51


 2229              	.LVL214:
 2230 06e8 00E0     		b	.L134
 2231              	.LVL215:
 2232              	.L145:
 576:.\main.c      ****                         case 1://Placa
 2233              		.loc 1 576 0
 2234 06ea 0023     		movs	r3, #0
 2235              	.L134:
 2236              	.LVL216:
 592:.\main.c      ****                                 bufferDisplay1.identySale[x]=bufferDisplay1.valueKeys[x];
 2237              		.loc 1 592 0 discriminator 1
 2238 06ec 074A     		ldr	r2, .L151+12
 2239 06ee 92F86420 		ldrb	r2, [r2, #100]	@ zero_extendqisi2
 2240 06f2 9A42     		cmp	r2, r3
 2241 06f4 F0D2     		bcs	.L138
 2242              	.LVL217:
 2243              	.L132:
 594:.\main.c      ****                             }
 595:.\main.c      ****                         break;
 596:.\main.c      ****                     }                    
 597:.\main.c      ****                     Display1_ClearRxBuffer();
 2244              		.loc 1 597 0
 2245 06f6 FFF7FEFF 		bl	Display1_ClearRxBuffer
 2246              	.LVL218:
 2247              	.L62:
 598:.\main.c      ****                 break;
 599:.\main.c      ****             }            
 600:.\main.c      ****         break;    
 601:.\main.c      ****             
 602:.\main.c      ****             
 603:.\main.c      ****     }
 604:.\main.c      **** }
 2248              		.loc 1 604 0
 2249 06fa 04B0     		add	sp, sp, #16
 2250              		.cfi_def_cfa_offset 16
 2251              		@ sp needed
 2252 06fc 70BD     		pop	{r4, r5, r6, pc}
 2253              	.L152:
 2254 06fe 00BF     		.align	2
 2255              	.L151:
 2256 0700 00000000 		.word	flowDisplay1
 2257 0704 00000000 		.word	Display1_rxBuffer
 2258 0708 00000000 		.word	side
 2259 070c 00000000 		.word	bufferDisplay1
 2260              		.cfi_endproc
 2261              	.LFE70:
 2262              		.size	PollingDisplay1, .-PollingDisplay1
 2263              		.section	.text.PollingDisplay2,"ax",%progbits
 2264              		.align	2
 2265              		.global	PollingDisplay2
 2266              		.thumb
 2267              		.thumb_func
 2268              		.type	PollingDisplay2, %function
 2269              	PollingDisplay2:
 2270              	.LFB71:
 605:.\main.c      **** 
 606:.\main.c      **** 
ARM GAS  C:\Users\RECEPC~1\AppData\Local\Temp\ccBlh02k.s 			page 52


 607:.\main.c      **** 
 608:.\main.c      **** /*
 609:.\main.c      **** ***************************************************************************************************
 610:.\main.c      **** *                                         void polling_Pump(void)
 611:.\main.c      **** *
 612:.\main.c      **** * Description : Pregunta estado al surtidor 
 613:.\main.c      **** *               
 614:.\main.c      **** *
 615:.\main.c      **** ***************************************************************************************************
 616:.\main.c      **** */
 617:.\main.c      **** void PollingDisplay2(void){     
 2271              		.loc 1 617 0
 2272              		.cfi_startproc
 2273              		@ args = 0, pretend = 0, frame = 0
 2274              		@ frame_needed = 0, uses_anonymous_args = 0
 2275 0000 08B5     		push	{r3, lr}
 2276              		.cfi_def_cfa_offset 8
 2277              		.cfi_offset 3, -8
 2278              		.cfi_offset 14, -4
 618:.\main.c      ****     switch(flowDisplay2){
 2279              		.loc 1 618 0
 2280 0002 A94B     		ldr	r3, .L192
 2281 0004 1B68     		ldr	r3, [r3]
 2282 0006 062B     		cmp	r3, #6
 2283 0008 00F28B81 		bhi	.L153
 2284 000c DFE813F0 		tbh	[pc, r3, lsl #1]
 2285              	.L156:
 2286 0010 0700     		.2byte	(.L155-.L156)/2
 2287 0012 0D00     		.2byte	(.L157-.L156)/2
 2288 0014 4100     		.2byte	(.L158-.L156)/2
 2289 0016 9200     		.2byte	(.L159-.L156)/2
 2290 0018 ED00     		.2byte	(.L160-.L156)/2
 2291 001a 1D01     		.2byte	(.L161-.L156)/2
 2292 001c 5001     		.2byte	(.L162-.L156)/2
 2293              		.p2align 1
 2294              	.L155:
 619:.\main.c      ****         case 0:
 620:.\main.c      ****             InitDisplay2();
 2295              		.loc 1 620 0
 2296 001e FFF7FEFF 		bl	InitDisplay2
 2297              	.LVL219:
 621:.\main.c      ****             flowDisplay2 =1;
 2298              		.loc 1 621 0
 2299 0022 0122     		movs	r2, #1
 2300 0024 A04B     		ldr	r3, .L192
 2301 0026 1A60     		str	r2, [r3]
 622:.\main.c      ****         break;
 2302              		.loc 1 622 0
 2303 0028 08BD     		pop	{r3, pc}
 2304              	.L157:
 623:.\main.c      ****         case 1: //Menu
 624:.\main.c      **** 			ShowRectangle(2,35);        
 2305              		.loc 1 624 0
 2306 002a 0220     		movs	r0, #2
 2307 002c 2321     		movs	r1, #35
 2308 002e FFF7FEFF 		bl	ShowRectangle
 2309              	.LVL220:
ARM GAS  C:\Users\RECEPC~1\AppData\Local\Temp\ccBlh02k.s 			page 53


 625:.\main.c      ****             if(Display2_GetRxBufferSize()==8){
 2310              		.loc 1 625 0
 2311 0032 FFF7FEFF 		bl	Display2_GetRxBufferSize
 2312              	.LVL221:
 2313 0036 0828     		cmp	r0, #8
 2314 0038 40F07381 		bne	.L153
 626:.\main.c      ****                 if((Display2_rxBuffer[0]==0xAA) && (Display2_rxBuffer[6]==0xC3) && (Display2_rxBuff
 2315              		.loc 1 626 0
 2316 003c 9B4B     		ldr	r3, .L192+4
 2317 003e 1B78     		ldrb	r3, [r3]	@ zero_extendqisi2
 2318 0040 DBB2     		uxtb	r3, r3
 2319 0042 AA2B     		cmp	r3, #170
 2320 0044 1FD1     		bne	.L163
 2321              		.loc 1 626 0 is_stmt 0 discriminator 1
 2322 0046 994B     		ldr	r3, .L192+4
 2323 0048 9B79     		ldrb	r3, [r3, #6]	@ zero_extendqisi2
 2324 004a DBB2     		uxtb	r3, r3
 2325 004c C32B     		cmp	r3, #195
 2326 004e 1AD1     		bne	.L163
 2327              		.loc 1 626 0 discriminator 2
 2328 0050 964B     		ldr	r3, .L192+4
 2329 0052 DB79     		ldrb	r3, [r3, #7]	@ zero_extendqisi2
 2330 0054 DBB2     		uxtb	r3, r3
 2331 0056 3C2B     		cmp	r3, #60
 2332 0058 15D1     		bne	.L163
 627:.\main.c      ****                     switch(Display2_rxBuffer[3]){
 2333              		.loc 1 627 0 is_stmt 1
 2334 005a 944B     		ldr	r3, .L192+4
 2335 005c DB78     		ldrb	r3, [r3, #3]	@ zero_extendqisi2
 2336 005e DBB2     		uxtb	r3, r3
 2337 0060 3A2B     		cmp	r3, #58
 2338 0062 02D0     		beq	.L164
 2339 0064 7E2B     		cmp	r3, #126
 2340 0066 07D0     		beq	.L165
 2341 0068 0DE0     		b	.L163
 2342              	.L164:
 628:.\main.c      ****                         case 0x3A:  //Pantalla forma de pago
 629:.\main.c      ****                             flowDisplay2 = 2;                            
 2343              		.loc 1 629 0
 2344 006a 0220     		movs	r0, #2
 2345 006c 8E4B     		ldr	r3, .L192
 2346 006e 1860     		str	r0, [r3]
 630:.\main.c      ****                             SetPicture(2,DISPLAY_FORMA_PAGO_DESEADA);                            
 2347              		.loc 1 630 0
 2348 0070 0421     		movs	r1, #4
 2349 0072 FFF7FEFF 		bl	SetPicture
 2350              	.LVL222:
 631:.\main.c      ****                         break;   
 2351              		.loc 1 631 0
 2352 0076 06E0     		b	.L163
 2353              	.L165:
 632:.\main.c      ****                         case 0x7E:  //Pantalla Inicial                                             
 633:.\main.c      ****                             SetPicture(2,DISPLAY_INICIO0);
 2354              		.loc 1 633 0
 2355 0078 0220     		movs	r0, #2
 2356 007a 0121     		movs	r1, #1
 2357 007c FFF7FEFF 		bl	SetPicture
ARM GAS  C:\Users\RECEPC~1\AppData\Local\Temp\ccBlh02k.s 			page 54


 2358              	.LVL223:
 634:.\main.c      ****                             flowDisplay2 = 0;
 2359              		.loc 1 634 0
 2360 0080 0022     		movs	r2, #0
 2361 0082 894B     		ldr	r3, .L192
 2362 0084 1A60     		str	r2, [r3]
 2363              	.L163:
 635:.\main.c      ****                         break;
 636:.\main.c      ****                     }
 637:.\main.c      ****                 }  
 638:.\main.c      ****                 CyDelay(10);         
 2364              		.loc 1 638 0
 2365 0086 0A20     		movs	r0, #10
 2366 0088 FFF7FEFF 		bl	CyDelay
 2367              	.LVL224:
 639:.\main.c      ****                 Display2_ClearRxBuffer();
 2368              		.loc 1 639 0
 2369 008c FFF7FEFF 		bl	Display2_ClearRxBuffer
 2370              	.LVL225:
 2371 0090 08BD     		pop	{r3, pc}
 2372              	.L158:
 640:.\main.c      ****             }
 641:.\main.c      ****         break;
 642:.\main.c      ****         case 2:
 643:.\main.c      ****             if(Display2_GetRxBufferSize()==8){
 2373              		.loc 1 643 0
 2374 0092 FFF7FEFF 		bl	Display2_GetRxBufferSize
 2375              	.LVL226:
 2376 0096 0828     		cmp	r0, #8
 2377 0098 40F04381 		bne	.L153
 644:.\main.c      ****                 if((Display2_rxBuffer[0]==0xAA) && (Display2_rxBuffer[6]==0xC3) && (Display2_rxBuff
 2378              		.loc 1 644 0
 2379 009c 834B     		ldr	r3, .L192+4
 2380 009e 1B78     		ldrb	r3, [r3]	@ zero_extendqisi2
 2381 00a0 DBB2     		uxtb	r3, r3
 2382 00a2 AA2B     		cmp	r3, #170
 2383 00a4 40D1     		bne	.L166
 2384              		.loc 1 644 0 is_stmt 0 discriminator 1
 2385 00a6 814B     		ldr	r3, .L192+4
 2386 00a8 9B79     		ldrb	r3, [r3, #6]	@ zero_extendqisi2
 2387 00aa DBB2     		uxtb	r3, r3
 2388 00ac C32B     		cmp	r3, #195
 2389 00ae 3BD1     		bne	.L166
 2390              		.loc 1 644 0 discriminator 2
 2391 00b0 7E4B     		ldr	r3, .L192+4
 2392 00b2 DB79     		ldrb	r3, [r3, #7]	@ zero_extendqisi2
 2393 00b4 DBB2     		uxtb	r3, r3
 2394 00b6 3C2B     		cmp	r3, #60
 2395 00b8 36D1     		bne	.L166
 645:.\main.c      ****                     switch(Display2_rxBuffer[3]){
 2396              		.loc 1 645 0 is_stmt 1
 2397 00ba 7C4B     		ldr	r3, .L192+4
 2398 00bc DB78     		ldrb	r3, [r3, #3]	@ zero_extendqisi2
 2399 00be DBB2     		uxtb	r3, r3
 2400 00c0 452B     		cmp	r3, #69
 2401 00c2 1AD0     		beq	.L167
 2402 00c4 04D8     		bhi	.L168
ARM GAS  C:\Users\RECEPC~1\AppData\Local\Temp\ccBlh02k.s 			page 55


 2403 00c6 0D2B     		cmp	r3, #13
 2404 00c8 07D0     		beq	.L169
 2405 00ca 0E2B     		cmp	r3, #14
 2406 00cc 0DD0     		beq	.L170
 2407 00ce 2BE0     		b	.L166
 2408              	.L168:
 2409 00d0 7E2B     		cmp	r3, #126
 2410 00d2 22D0     		beq	.L171
 2411 00d4 942B     		cmp	r3, #148
 2412 00d6 18D0     		beq	.L172
 2413 00d8 26E0     		b	.L166
 2414              	.L169:
 646:.\main.c      ****                         case 0x0D:  //Pantalla efectivo              
 647:.\main.c      ****                             flowDisplay2 = 3;                            
 2415              		.loc 1 647 0
 2416 00da 0322     		movs	r2, #3
 2417 00dc 724B     		ldr	r3, .L192
 2418 00de 1A60     		str	r2, [r3]
 648:.\main.c      ****                             SetPicture(2,DISPLAY_FORMA_PROGRAMACION);                            
 2419              		.loc 1 648 0
 2420 00e0 0220     		movs	r0, #2
 2421 00e2 0521     		movs	r1, #5
 2422 00e4 FFF7FEFF 		bl	SetPicture
 2423              	.LVL227:
 649:.\main.c      ****                         break;
 2424              		.loc 1 649 0
 2425 00e8 1EE0     		b	.L166
 2426              	.L170:
 650:.\main.c      ****                         case 0x0E:  //Pantalla credito   
 651:.\main.c      ****                             flowDisplay2 = 4;                                                     
 2427              		.loc 1 651 0
 2428 00ea 0422     		movs	r2, #4
 2429 00ec 6E4B     		ldr	r3, .L192
 2430 00ee 1A60     		str	r2, [r3]
 652:.\main.c      ****                             SetPicture(2,DISPLAY_ID_DIGITAL);                            
 2431              		.loc 1 652 0
 2432 00f0 0220     		movs	r0, #2
 2433 00f2 8521     		movs	r1, #133
 2434 00f4 FFF7FEFF 		bl	SetPicture
 2435              	.LVL228:
 653:.\main.c      ****                         break;
 2436              		.loc 1 653 0
 2437 00f8 16E0     		b	.L166
 2438              	.L167:
 654:.\main.c      ****                         case 0x45:  //Pantalla otras opciones 
 655:.\main.c      ****                             flowDisplay2 = 5;                            
 2439              		.loc 1 655 0
 2440 00fa 0522     		movs	r2, #5
 2441 00fc 6A4B     		ldr	r3, .L192
 2442 00fe 1A60     		str	r2, [r3]
 656:.\main.c      ****                             SetPicture(2,DISPLAY_OPERACIONES);                            
 2443              		.loc 1 656 0
 2444 0100 0220     		movs	r0, #2
 2445 0102 8321     		movs	r1, #131
 2446 0104 FFF7FEFF 		bl	SetPicture
 2447              	.LVL229:
 657:.\main.c      ****                         break;
ARM GAS  C:\Users\RECEPC~1\AppData\Local\Temp\ccBlh02k.s 			page 56


 2448              		.loc 1 657 0
 2449 0108 0EE0     		b	.L166
 2450              	.L172:
 658:.\main.c      ****                             
 659:.\main.c      ****                         case 0x94:  //Pantalla Inicial    
 660:.\main.c      ****                             flowDisplay2 = 0;
 2451              		.loc 1 660 0
 2452 010a 0022     		movs	r2, #0
 2453 010c 664B     		ldr	r3, .L192
 2454 010e 1A60     		str	r2, [r3]
 661:.\main.c      ****                             SetPicture(2,DISPLAY_INICIO0);                            
 2455              		.loc 1 661 0
 2456 0110 0220     		movs	r0, #2
 2457 0112 0121     		movs	r1, #1
 2458 0114 FFF7FEFF 		bl	SetPicture
 2459              	.LVL230:
 662:.\main.c      ****                         break;
 2460              		.loc 1 662 0
 2461 0118 06E0     		b	.L166
 2462              	.L171:
 663:.\main.c      ****                         
 664:.\main.c      ****                         case 0x7E:  //Pantalla Inicial    
 665:.\main.c      ****                             flowDisplay2 = 0;
 2463              		.loc 1 665 0
 2464 011a 0022     		movs	r2, #0
 2465 011c 624B     		ldr	r3, .L192
 2466 011e 1A60     		str	r2, [r3]
 666:.\main.c      ****                             SetPicture(2,DISPLAY_INICIO0);                            
 2467              		.loc 1 666 0
 2468 0120 0220     		movs	r0, #2
 2469 0122 0121     		movs	r1, #1
 2470 0124 FFF7FEFF 		bl	SetPicture
 2471              	.LVL231:
 2472              	.L166:
 667:.\main.c      ****                         break;
 668:.\main.c      ****                     }
 669:.\main.c      ****                 }  
 670:.\main.c      ****                 CyDelay(10);         
 2473              		.loc 1 670 0
 2474 0128 0A20     		movs	r0, #10
 2475 012a FFF7FEFF 		bl	CyDelay
 2476              	.LVL232:
 671:.\main.c      ****                 Display2_ClearRxBuffer();
 2477              		.loc 1 671 0
 2478 012e FFF7FEFF 		bl	Display2_ClearRxBuffer
 2479              	.LVL233:
 2480 0132 08BD     		pop	{r3, pc}
 2481              	.L159:
 672:.\main.c      ****             }
 673:.\main.c      ****         break;
 674:.\main.c      ****             
 675:.\main.c      ****         case 3: 
 676:.\main.c      ****             if(Display2_GetRxBufferSize()==8){
 2482              		.loc 1 676 0
 2483 0134 FFF7FEFF 		bl	Display2_GetRxBufferSize
 2484              	.LVL234:
 2485 0138 0828     		cmp	r0, #8
ARM GAS  C:\Users\RECEPC~1\AppData\Local\Temp\ccBlh02k.s 			page 57


 2486 013a 40F0F280 		bne	.L153
 677:.\main.c      ****                 if((Display2_rxBuffer[0]==0xAA) && (Display2_rxBuffer[6]==0xC3) && (Display2_rxBuff
 2487              		.loc 1 677 0
 2488 013e 5B4B     		ldr	r3, .L192+4
 2489 0140 1B78     		ldrb	r3, [r3]	@ zero_extendqisi2
 2490 0142 DBB2     		uxtb	r3, r3
 2491 0144 AA2B     		cmp	r3, #170
 2492 0146 4AD1     		bne	.L173
 2493              		.loc 1 677 0 is_stmt 0 discriminator 1
 2494 0148 584B     		ldr	r3, .L192+4
 2495 014a 9B79     		ldrb	r3, [r3, #6]	@ zero_extendqisi2
 2496 014c DBB2     		uxtb	r3, r3
 2497 014e C32B     		cmp	r3, #195
 2498 0150 45D1     		bne	.L173
 2499              		.loc 1 677 0 discriminator 2
 2500 0152 564B     		ldr	r3, .L192+4
 2501 0154 DB79     		ldrb	r3, [r3, #7]	@ zero_extendqisi2
 2502 0156 DBB2     		uxtb	r3, r3
 2503 0158 3C2B     		cmp	r3, #60
 2504 015a 40D1     		bne	.L173
 678:.\main.c      ****                     switch(Display2_rxBuffer[3]){
 2505              		.loc 1 678 0 is_stmt 1
 2506 015c 534B     		ldr	r3, .L192+4
 2507 015e DB78     		ldrb	r3, [r3, #3]	@ zero_extendqisi2
 2508 0160 DBB2     		uxtb	r3, r3
 2509 0162 3B2B     		cmp	r3, #59
 2510 0164 2CD0     		beq	.L174
 2511 0166 04D8     		bhi	.L175
 2512 0168 0F2B     		cmp	r3, #15
 2513 016a 09D0     		beq	.L176
 2514 016c 102B     		cmp	r3, #16
 2515 016e 0FD0     		beq	.L177
 2516 0170 35E0     		b	.L173
 2517              	.L175:
 2518 0172 7E2B     		cmp	r3, #126
 2519 0174 2CD0     		beq	.L178
 2520 0176 942B     		cmp	r3, #148
 2521 0178 1AD0     		beq	.L179
 2522 017a 432B     		cmp	r3, #67
 2523 017c 2FD1     		bne	.L173
 2524 017e 0FE0     		b	.L180
 2525              	.L176:
 679:.\main.c      ****                         case 0x0F:  //Preset dinero                
 680:.\main.c      ****                             flowDisplay2 = 4;
 2526              		.loc 1 680 0
 2527 0180 0422     		movs	r2, #4
 2528 0182 494B     		ldr	r3, .L192
 2529 0184 1A60     		str	r2, [r3]
 681:.\main.c      ****                             SetPicture(2,DISPLAY_INTRODUZCA_VALOR);                            
 2530              		.loc 1 681 0
 2531 0186 0220     		movs	r0, #2
 2532 0188 0621     		movs	r1, #6
 2533 018a FFF7FEFF 		bl	SetPicture
 2534              	.LVL235:
 682:.\main.c      ****                         break; 
 2535              		.loc 1 682 0
 2536 018e 26E0     		b	.L173
ARM GAS  C:\Users\RECEPC~1\AppData\Local\Temp\ccBlh02k.s 			page 58


 2537              	.L177:
 683:.\main.c      ****                         case 0x10:  //Preset volumen                 
 684:.\main.c      ****                             flowDisplay2 = 5;
 2538              		.loc 1 684 0
 2539 0190 0522     		movs	r2, #5
 2540 0192 454B     		ldr	r3, .L192
 2541 0194 1A60     		str	r2, [r3]
 685:.\main.c      ****                             SetPicture(2,DISPLAY_INTRODUZCA_VOLUMEN);                            
 2542              		.loc 1 685 0
 2543 0196 0220     		movs	r0, #2
 2544 0198 0D21     		movs	r1, #13
 2545 019a FFF7FEFF 		bl	SetPicture
 2546              	.LVL236:
 686:.\main.c      ****                         break;
 2547              		.loc 1 686 0
 2548 019e 1EE0     		b	.L173
 2549              	.L180:
 687:.\main.c      ****                         case 0x43:  //Preset full                       
 688:.\main.c      ****                             flowDisplay2 = 6;
 2550              		.loc 1 688 0
 2551 01a0 0622     		movs	r2, #6
 2552 01a2 414B     		ldr	r3, .L192
 2553 01a4 1A60     		str	r2, [r3]
 689:.\main.c      ****                             SetPicture(2,DISPLAY_DESEA_IMPRIMIR_RECIBO);                           
 2554              		.loc 1 689 0
 2555 01a6 0220     		movs	r0, #2
 2556 01a8 0B21     		movs	r1, #11
 2557 01aa FFF7FEFF 		bl	SetPicture
 2558              	.LVL237:
 690:.\main.c      ****                         break;
 2559              		.loc 1 690 0
 2560 01ae 16E0     		b	.L173
 2561              	.L179:
 691:.\main.c      ****                         case 0x94:  //Retroceso 
 692:.\main.c      ****                             flowDisplay2 = 0;
 2562              		.loc 1 692 0
 2563 01b0 0022     		movs	r2, #0
 2564 01b2 3D4B     		ldr	r3, .L192
 2565 01b4 1A60     		str	r2, [r3]
 693:.\main.c      ****                             SetPicture(2,DISPLAY_INICIO0);                                         
 2566              		.loc 1 693 0
 2567 01b6 0220     		movs	r0, #2
 2568 01b8 0121     		movs	r1, #1
 2569 01ba FFF7FEFF 		bl	SetPicture
 2570              	.LVL238:
 694:.\main.c      ****                         break;
 2571              		.loc 1 694 0
 2572 01be 0EE0     		b	.L173
 2573              	.L174:
 695:.\main.c      ****                         case 0x3B:  //Pantalla Inicial    
 696:.\main.c      ****                             flowDisplay2 = 0;
 2574              		.loc 1 696 0
 2575 01c0 0022     		movs	r2, #0
 2576 01c2 394B     		ldr	r3, .L192
 2577 01c4 1A60     		str	r2, [r3]
 697:.\main.c      ****                             SetPicture(2,DISPLAY_INICIO0);                            
 2578              		.loc 1 697 0
ARM GAS  C:\Users\RECEPC~1\AppData\Local\Temp\ccBlh02k.s 			page 59


 2579 01c6 0220     		movs	r0, #2
 2580 01c8 0121     		movs	r1, #1
 2581 01ca FFF7FEFF 		bl	SetPicture
 2582              	.LVL239:
 698:.\main.c      ****                         break;
 2583              		.loc 1 698 0
 2584 01ce 06E0     		b	.L173
 2585              	.L178:
 699:.\main.c      ****                         case 0x7E:  //Pantalla Inicial    
 700:.\main.c      ****                             flowDisplay2 = 0;
 2586              		.loc 1 700 0
 2587 01d0 0022     		movs	r2, #0
 2588 01d2 354B     		ldr	r3, .L192
 2589 01d4 1A60     		str	r2, [r3]
 701:.\main.c      ****                             SetPicture(2,DISPLAY_INICIO0);                            
 2590              		.loc 1 701 0
 2591 01d6 0220     		movs	r0, #2
 2592 01d8 0121     		movs	r1, #1
 2593 01da FFF7FEFF 		bl	SetPicture
 2594              	.LVL240:
 2595              	.L173:
 702:.\main.c      ****                         break;
 703:.\main.c      ****                     }
 704:.\main.c      ****                 }  
 705:.\main.c      ****                 CyDelay(10);         
 2596              		.loc 1 705 0
 2597 01de 0A20     		movs	r0, #10
 2598 01e0 FFF7FEFF 		bl	CyDelay
 2599              	.LVL241:
 706:.\main.c      ****                 Display2_ClearRxBuffer();
 2600              		.loc 1 706 0
 2601 01e4 FFF7FEFF 		bl	Display2_ClearRxBuffer
 2602              	.LVL242:
 2603 01e8 08BD     		pop	{r3, pc}
 2604              	.L160:
 707:.\main.c      ****             }
 708:.\main.c      ****         break;
 709:.\main.c      ****         
 710:.\main.c      ****         case 4:
 711:.\main.c      ****             if(Display2_GetRxBufferSize()==8){
 2605              		.loc 1 711 0
 2606 01ea FFF7FEFF 		bl	Display2_GetRxBufferSize
 2607              	.LVL243:
 2608 01ee 0828     		cmp	r0, #8
 2609 01f0 40F09780 		bne	.L153
 712:.\main.c      ****                 if((Display2_rxBuffer[0]==0xAA) && (Display2_rxBuffer[6]==0xC3) && (Display2_rxBuff
 2610              		.loc 1 712 0
 2611 01f4 2D4B     		ldr	r3, .L192+4
 2612 01f6 1B78     		ldrb	r3, [r3]	@ zero_extendqisi2
 2613 01f8 DBB2     		uxtb	r3, r3
 2614 01fa AA2B     		cmp	r3, #170
 2615 01fc 1FD1     		bne	.L181
 2616              		.loc 1 712 0 is_stmt 0 discriminator 1
 2617 01fe 2B4B     		ldr	r3, .L192+4
 2618 0200 9B79     		ldrb	r3, [r3, #6]	@ zero_extendqisi2
 2619 0202 DBB2     		uxtb	r3, r3
 2620 0204 C32B     		cmp	r3, #195
ARM GAS  C:\Users\RECEPC~1\AppData\Local\Temp\ccBlh02k.s 			page 60


 2621 0206 1AD1     		bne	.L181
 2622              		.loc 1 712 0 discriminator 2
 2623 0208 284B     		ldr	r3, .L192+4
 2624 020a DB79     		ldrb	r3, [r3, #7]	@ zero_extendqisi2
 2625 020c DBB2     		uxtb	r3, r3
 2626 020e 3C2B     		cmp	r3, #60
 2627 0210 15D1     		bne	.L181
 713:.\main.c      ****                     switch(Display2_rxBuffer[3]){
 2628              		.loc 1 713 0 is_stmt 1
 2629 0212 264B     		ldr	r3, .L192+4
 2630 0214 DB78     		ldrb	r3, [r3, #3]	@ zero_extendqisi2
 2631 0216 DBB2     		uxtb	r3, r3
 2632 0218 7E2B     		cmp	r3, #126
 2633 021a 09D0     		beq	.L182
 2634 021c 942B     		cmp	r3, #148
 2635 021e 0ED1     		bne	.L181
 714:.\main.c      ****                         case 0x94:  //Retroceso 
 715:.\main.c      ****                             flowDisplay2 = 0;   
 2636              		.loc 1 715 0
 2637 0220 0022     		movs	r2, #0
 2638 0222 214B     		ldr	r3, .L192
 2639 0224 1A60     		str	r2, [r3]
 716:.\main.c      ****                             SetPicture(2,DISPLAY_INICIO0);                                         
 2640              		.loc 1 716 0
 2641 0226 0220     		movs	r0, #2
 2642 0228 0121     		movs	r1, #1
 2643 022a FFF7FEFF 		bl	SetPicture
 2644              	.LVL244:
 717:.\main.c      ****                         break;
 2645              		.loc 1 717 0
 2646 022e 06E0     		b	.L181
 2647              	.L182:
 718:.\main.c      ****                         case 0x7E:  //Pantalla Inicial    
 719:.\main.c      ****                             flowDisplay2 = 0;
 2648              		.loc 1 719 0
 2649 0230 0022     		movs	r2, #0
 2650 0232 1D4B     		ldr	r3, .L192
 2651 0234 1A60     		str	r2, [r3]
 720:.\main.c      ****                             SetPicture(2,DISPLAY_INICIO0);                            
 2652              		.loc 1 720 0
 2653 0236 0220     		movs	r0, #2
 2654 0238 0121     		movs	r1, #1
 2655 023a FFF7FEFF 		bl	SetPicture
 2656              	.LVL245:
 2657              	.L181:
 721:.\main.c      ****                         break;
 722:.\main.c      ****                     }
 723:.\main.c      ****                 }
 724:.\main.c      ****                 CyDelay(10);         
 2658              		.loc 1 724 0
 2659 023e 0A20     		movs	r0, #10
 2660 0240 FFF7FEFF 		bl	CyDelay
 2661              	.LVL246:
 725:.\main.c      ****                 Display2_ClearRxBuffer();
 2662              		.loc 1 725 0
 2663 0244 FFF7FEFF 		bl	Display2_ClearRxBuffer
 2664              	.LVL247:
ARM GAS  C:\Users\RECEPC~1\AppData\Local\Temp\ccBlh02k.s 			page 61


 2665 0248 08BD     		pop	{r3, pc}
 2666              	.L161:
 726:.\main.c      ****             }
 727:.\main.c      ****         break;
 728:.\main.c      ****             
 729:.\main.c      ****         case 5: //Preset por volumen
 730:.\main.c      ****             if(Display2_GetRxBufferSize()==8){
 2667              		.loc 1 730 0
 2668 024a FFF7FEFF 		bl	Display2_GetRxBufferSize
 2669              	.LVL248:
 2670 024e 0828     		cmp	r0, #8
 2671 0250 67D1     		bne	.L153
 731:.\main.c      ****                 if((Display2_rxBuffer[0]==0xAA) && (Display2_rxBuffer[6]==0xC3) && (Display2_rxBuff
 2672              		.loc 1 731 0
 2673 0252 164B     		ldr	r3, .L192+4
 2674 0254 1B78     		ldrb	r3, [r3]	@ zero_extendqisi2
 2675 0256 DBB2     		uxtb	r3, r3
 2676 0258 AA2B     		cmp	r3, #170
 2677 025a 1FD1     		bne	.L184
 2678              		.loc 1 731 0 is_stmt 0 discriminator 1
 2679 025c 134B     		ldr	r3, .L192+4
 2680 025e 9B79     		ldrb	r3, [r3, #6]	@ zero_extendqisi2
 2681 0260 DBB2     		uxtb	r3, r3
 2682 0262 C32B     		cmp	r3, #195
 2683 0264 1AD1     		bne	.L184
 2684              		.loc 1 731 0 discriminator 2
 2685 0266 114B     		ldr	r3, .L192+4
 2686 0268 DB79     		ldrb	r3, [r3, #7]	@ zero_extendqisi2
 2687 026a DBB2     		uxtb	r3, r3
 2688 026c 3C2B     		cmp	r3, #60
 2689 026e 15D1     		bne	.L184
 732:.\main.c      ****                     switch(Display2_rxBuffer[3]){
 2690              		.loc 1 732 0 is_stmt 1
 2691 0270 0E4B     		ldr	r3, .L192+4
 2692 0272 DB78     		ldrb	r3, [r3, #3]	@ zero_extendqisi2
 2693 0274 DBB2     		uxtb	r3, r3
 2694 0276 7E2B     		cmp	r3, #126
 2695 0278 09D0     		beq	.L185
 2696 027a 942B     		cmp	r3, #148
 2697 027c 0ED1     		bne	.L184
 733:.\main.c      ****                         case 0x94:  //Retroceso 
 734:.\main.c      ****                             flowDisplay2 = 0;   
 2698              		.loc 1 734 0
 2699 027e 0022     		movs	r2, #0
 2700 0280 094B     		ldr	r3, .L192
 2701 0282 1A60     		str	r2, [r3]
 735:.\main.c      ****                             SetPicture(2,DISPLAY_INICIO0);                                         
 2702              		.loc 1 735 0
 2703 0284 0220     		movs	r0, #2
 2704 0286 0121     		movs	r1, #1
 2705 0288 FFF7FEFF 		bl	SetPicture
 2706              	.LVL249:
 736:.\main.c      ****                         break;
 2707              		.loc 1 736 0
 2708 028c 06E0     		b	.L184
 2709              	.L185:
 737:.\main.c      ****                         case 0x7E:  //Pantalla Inicial    
ARM GAS  C:\Users\RECEPC~1\AppData\Local\Temp\ccBlh02k.s 			page 62


 738:.\main.c      ****                             flowDisplay2 = 0;
 2710              		.loc 1 738 0
 2711 028e 0022     		movs	r2, #0
 2712 0290 054B     		ldr	r3, .L192
 2713 0292 1A60     		str	r2, [r3]
 739:.\main.c      ****                             SetPicture(2,DISPLAY_INICIO0);                            
 2714              		.loc 1 739 0
 2715 0294 0220     		movs	r0, #2
 2716 0296 0121     		movs	r1, #1
 2717 0298 FFF7FEFF 		bl	SetPicture
 2718              	.LVL250:
 2719              	.L184:
 740:.\main.c      ****                         break;
 741:.\main.c      ****                     }
 742:.\main.c      ****                 }
 743:.\main.c      ****                 CyDelay(10);         
 2720              		.loc 1 743 0
 2721 029c 0A20     		movs	r0, #10
 2722 029e FFF7FEFF 		bl	CyDelay
 2723              	.LVL251:
 744:.\main.c      ****                 Display2_ClearRxBuffer();
 2724              		.loc 1 744 0
 2725 02a2 FFF7FEFF 		bl	Display2_ClearRxBuffer
 2726              	.LVL252:
 2727 02a6 08BD     		pop	{r3, pc}
 2728              	.L193:
 2729              		.align	2
 2730              	.L192:
 2731 02a8 00000000 		.word	flowDisplay2
 2732 02ac 00000000 		.word	Display2_rxBuffer
 2733              	.L162:
 745:.\main.c      ****             }
 746:.\main.c      ****         break;
 747:.\main.c      ****         
 748:.\main.c      ****         case 6:
 749:.\main.c      ****             if(Display2_GetRxBufferSize()==8){
 2734              		.loc 1 749 0
 2735 02b0 FFF7FEFF 		bl	Display2_GetRxBufferSize
 2736              	.LVL253:
 2737 02b4 0828     		cmp	r0, #8
 2738 02b6 34D1     		bne	.L153
 750:.\main.c      ****                 if((Display2_rxBuffer[0]==0xAA) && (Display2_rxBuffer[6]==0xC3) && (Display2_rxBuff
 2739              		.loc 1 750 0
 2740 02b8 1A4B     		ldr	r3, .L194
 2741 02ba 1B78     		ldrb	r3, [r3]	@ zero_extendqisi2
 2742 02bc DBB2     		uxtb	r3, r3
 2743 02be AA2B     		cmp	r3, #170
 2744 02c0 2AD1     		bne	.L187
 2745              		.loc 1 750 0 is_stmt 0 discriminator 1
 2746 02c2 184B     		ldr	r3, .L194
 2747 02c4 9B79     		ldrb	r3, [r3, #6]	@ zero_extendqisi2
 2748 02c6 DBB2     		uxtb	r3, r3
 2749 02c8 C32B     		cmp	r3, #195
 2750 02ca 25D1     		bne	.L187
 2751              		.loc 1 750 0 discriminator 2
 2752 02cc 154B     		ldr	r3, .L194
 2753 02ce DB79     		ldrb	r3, [r3, #7]	@ zero_extendqisi2
ARM GAS  C:\Users\RECEPC~1\AppData\Local\Temp\ccBlh02k.s 			page 63


 2754 02d0 DBB2     		uxtb	r3, r3
 2755 02d2 3C2B     		cmp	r3, #60
 2756 02d4 20D1     		bne	.L187
 751:.\main.c      ****                     switch(Display2_rxBuffer[3]){
 2757              		.loc 1 751 0 is_stmt 1
 2758 02d6 134B     		ldr	r3, .L194
 2759 02d8 DB78     		ldrb	r3, [r3, #3]	@ zero_extendqisi2
 2760 02da DBB2     		uxtb	r3, r3
 2761 02dc 392B     		cmp	r3, #57
 2762 02de 04D0     		beq	.L188
 2763 02e0 7E2B     		cmp	r3, #126
 2764 02e2 12D0     		beq	.L189
 2765 02e4 382B     		cmp	r3, #56
 2766 02e6 17D1     		bne	.L187
 2767 02e8 07E0     		b	.L190
 2768              	.L188:
 752:.\main.c      ****                         case 0x39:  //Si copia                                                     
 753:.\main.c      ****                             SetPicture(2,DISPLAY_DIGITE_PLACA);
 2769              		.loc 1 753 0
 2770 02ea 0220     		movs	r0, #2
 2771 02ec 0A21     		movs	r1, #10
 2772 02ee FFF7FEFF 		bl	SetPicture
 2773              	.LVL254:
 754:.\main.c      ****                             flowDisplay2 = 7;
 2774              		.loc 1 754 0
 2775 02f2 0722     		movs	r2, #7
 2776 02f4 0C4B     		ldr	r3, .L194+4
 2777 02f6 1A60     		str	r2, [r3]
 755:.\main.c      ****                         break; 
 2778              		.loc 1 755 0
 2779 02f8 0EE0     		b	.L187
 2780              	.L190:
 756:.\main.c      ****                         case 0x38:  //No copia                                                     
 757:.\main.c      ****                             SetPicture(2,DISPLAY_SELECCIONE_PRODUCTO4);
 2781              		.loc 1 757 0
 2782 02fa 0220     		movs	r0, #2
 2783 02fc 8621     		movs	r1, #134
 2784 02fe FFF7FEFF 		bl	SetPicture
 2785              	.LVL255:
 758:.\main.c      ****                             flowDisplay2 = 8;//caso para seleccion de producto
 2786              		.loc 1 758 0
 2787 0302 0822     		movs	r2, #8
 2788 0304 084B     		ldr	r3, .L194+4
 2789 0306 1A60     		str	r2, [r3]
 759:.\main.c      ****                         break;
 2790              		.loc 1 759 0
 2791 0308 06E0     		b	.L187
 2792              	.L189:
 760:.\main.c      ****                         case 0x7E:  //Pantalla Inicial                                             
 761:.\main.c      ****                             SetPicture(2,DISPLAY_INICIO0);
 2793              		.loc 1 761 0
 2794 030a 0220     		movs	r0, #2
 2795 030c 0121     		movs	r1, #1
 2796 030e FFF7FEFF 		bl	SetPicture
 2797              	.LVL256:
 762:.\main.c      ****                             flowDisplay2 = 0;
 2798              		.loc 1 762 0
ARM GAS  C:\Users\RECEPC~1\AppData\Local\Temp\ccBlh02k.s 			page 64


 2799 0312 0022     		movs	r2, #0
 2800 0314 044B     		ldr	r3, .L194+4
 2801 0316 1A60     		str	r2, [r3]
 2802              	.L187:
 763:.\main.c      ****                         break;
 764:.\main.c      ****                     }                    
 765:.\main.c      ****                 }
 766:.\main.c      ****                 CyDelay(10);         
 2803              		.loc 1 766 0
 2804 0318 0A20     		movs	r0, #10
 2805 031a FFF7FEFF 		bl	CyDelay
 2806              	.LVL257:
 767:.\main.c      ****                 Display2_ClearRxBuffer();
 2807              		.loc 1 767 0
 2808 031e FFF7FEFF 		bl	Display2_ClearRxBuffer
 2809              	.LVL258:
 2810              	.L153:
 2811 0322 08BD     		pop	{r3, pc}
 2812              	.L195:
 2813              		.align	2
 2814              	.L194:
 2815 0324 00000000 		.word	Display2_rxBuffer
 2816 0328 00000000 		.word	flowDisplay2
 2817              		.cfi_endproc
 2818              	.LFE71:
 2819              		.size	PollingDisplay2, .-PollingDisplay2
 2820              		.section	.text.main,"ax",%progbits
 2821              		.align	2
 2822              		.global	main
 2823              		.thumb
 2824              		.thumb_func
 2825              		.type	main, %function
 2826              	main:
 2827              	.LFB72:
 768:.\main.c      ****             }
 769:.\main.c      ****         break;
 770:.\main.c      ****     }
 771:.\main.c      **** }
 772:.\main.c      **** 
 773:.\main.c      **** int main()
 774:.\main.c      **** {
 2828              		.loc 1 774 0
 2829              		.cfi_startproc
 2830              		@ args = 0, pretend = 0, frame = 0
 2831              		@ frame_needed = 0, uses_anonymous_args = 0
 2832 0000 08B5     		push	{r3, lr}
 2833              		.cfi_def_cfa_offset 8
 2834              		.cfi_offset 3, -8
 2835              		.cfi_offset 14, -4
 775:.\main.c      ****     uint8 x;
 776:.\main.c      ****     CyGlobalIntEnable; /* Enable global interrupts. */
 2836              		.loc 1 776 0
 2837              	@ 776 ".\main.c" 1
 2838 0002 62B6     		CPSIE   i
 2839              	@ 0 "" 2
 2840              	.LVL259:
 777:.\main.c      **** 
ARM GAS  C:\Users\RECEPC~1\AppData\Local\Temp\ccBlh02k.s 			page 65


 778:.\main.c      ****     /* Place your initialization/startup code here (e.g. MyInst_Start()) */
 779:.\main.c      ****     for(x= 0; x < 4; x++){
 2841              		.loc 1 779 0
 2842              		.thumb
 2843 0004 0023     		movs	r3, #0
 2844 0006 04E0     		b	.L197
 2845              	.LVL260:
 2846              	.L198:
 780:.\main.c      ****         statePump[x]=0;
 2847              		.loc 1 780 0 discriminator 3
 2848 0008 0021     		movs	r1, #0
 2849 000a 0B4A     		ldr	r2, .L201
 2850 000c D154     		strb	r1, [r2, r3]
 779:.\main.c      ****         statePump[x]=0;
 2851              		.loc 1 779 0 discriminator 3
 2852 000e 0133     		adds	r3, r3, #1
 2853              	.LVL261:
 2854 0010 DBB2     		uxtb	r3, r3
 2855              	.LVL262:
 2856              	.L197:
 779:.\main.c      ****         statePump[x]=0;
 2857              		.loc 1 779 0 is_stmt 0 discriminator 1
 2858 0012 032B     		cmp	r3, #3
 2859 0014 F8D9     		bls	.L198
 781:.\main.c      ****     }
 782:.\main.c      ****     GlobalInitializer();
 2860              		.loc 1 782 0 is_stmt 1
 2861 0016 FFF7FEFF 		bl	GlobalInitializer
 2862              	.LVL263:
 783:.\main.c      ****     InitPump();      
 2863              		.loc 1 783 0
 2864 001a FFF7FEFF 		bl	InitPump
 2865              	.LVL264:
 784:.\main.c      ****     CyWdtStart(CYWDT_1024_TICKS,CYWDT_LPMODE_NOCHANGE); 
 2866              		.loc 1 784 0
 2867 001e 0320     		movs	r0, #3
 2868 0020 0021     		movs	r1, #0
 2869 0022 FFF7FEFF 		bl	CyWdtStart
 2870              	.LVL265:
 2871              	.L199:
 785:.\main.c      ****     for(;;)
 786:.\main.c      ****     {
 787:.\main.c      ****         CyWdtClear();
 2872              		.loc 1 787 0 discriminator 1
 2873 0026 FFF7FEFF 		bl	CyWdtClear
 2874              	.LVL266:
 788:.\main.c      **** //        PollingPump();
 789:.\main.c      **** //        CyWdtClear();        
 790:.\main.c      ****         PollingDisplay1();
 2875              		.loc 1 790 0 discriminator 1
 2876 002a FFF7FEFF 		bl	PollingDisplay1
 2877              	.LVL267:
 791:.\main.c      ****         CyWdtClear();
 2878              		.loc 1 791 0 discriminator 1
 2879 002e FFF7FEFF 		bl	CyWdtClear
 2880              	.LVL268:
 792:.\main.c      ****         PollingDisplay2();
ARM GAS  C:\Users\RECEPC~1\AppData\Local\Temp\ccBlh02k.s 			page 66


 2881              		.loc 1 792 0 discriminator 1
 2882 0032 FFF7FEFF 		bl	PollingDisplay2
 2883              	.LVL269:
 793:.\main.c      ****     }
 2884              		.loc 1 793 0 discriminator 1
 2885 0036 F6E7     		b	.L199
 2886              	.L202:
 2887              		.align	2
 2888              	.L201:
 2889 0038 00000000 		.word	statePump
 2890              		.cfi_endproc
 2891              	.LFE72:
 2892              		.size	main, .-main
 2893              		.global	MuxVersion
 2894              		.comm	side,1036,4
 2895              		.comm	bufferDisplay4,662,4
 2896              		.comm	bufferDisplay3,662,4
 2897              		.comm	bufferDisplay2,662,4
 2898              		.comm	bufferDisplay1,662,4
 2899              		.comm	digits,1,1
 2900              		.comm	NumPositions,1,1
 2901              		.comm	statePump,4,4
 2902              		.comm	DDMode,1,1
 2903              		.comm	PPUDec,1,1
 2904              		.comm	VolDec,1,1
 2905              		.comm	MoneyDec,1,1
 2906              		.comm	ConversionFactor,1,1
 2907              		.comm	UnitType,1,1
 2908              		.comm	PlateRequest,1,1
 2909              		.comm	PrevStatePump,4,4
 2910              		.comm	stateBeagleSoft,1,1
 2911              		.comm	flagResetMux,1,1
 2912              		.comm	passwordSeller,8,4
 2913              		.comm	typeIdSeller,1,1
 2914              		.comm	idSeller,25,4
 2915              		.comm	lockTurn,1,1
 2916              		.comm	turn,1,1
 2917              		.comm	temporal,30,4
 2918              		.comm	residue,14,4
 2919              		.comm	screen,2,4
 2920              		.comm	date,3,4
 2921              		.comm	time,3,4
 2922              		.comm	symbols,2,4
 2923              		.comm	decimalVolume,1,1
 2924              		.comm	decimalMoney,1,1
 2925              		.comm	ppux10,1,1
 2926              		.comm	delayPicture2,4,4
 2927              		.comm	delayPicture1,4,4
 2928              		.comm	presetFast,30,4
 2929              		.comm	productNumber,1,1
 2930              		.comm	button,960,4
 2931              		.comm	flagPoint2,1,1
 2932              		.comm	flagPoint1,1,1
 2933              		.comm	numberKeys2,1,1
 2934              		.comm	numberKeys1,1,1
 2935              		.comm	ipAdress,12,4
 2936              		.comm	flowDisplay4,4,4
ARM GAS  C:\Users\RECEPC~1\AppData\Local\Temp\ccBlh02k.s 			page 67


 2937              		.comm	flowDisplay3,4,4
 2938              		.comm	flowDisplay2,4,4
 2939              		.comm	flowDisplay1,4,4
 2940              		.comm	countPump,8,8
 2941              		.comm	countBeagleTX,8,8
 2942              		.comm	countAnimation2,8,8
 2943              		.comm	countAnimation1,8,8
 2944              		.section	.rodata
 2945              		.align	2
 2946              		.set	.LANCHOR0,. + 0
 2947              	.LC1:
 2948 0000 532F442F 		.ascii	"S/D/Dupla \000"
 2948      4475706C 
 2948      612000
 2949 000b 00       		.space	1
 2950              	.LC3:
 2951 000c 53657874 		.ascii	"Sextupla\000"
 2951      75706C61 
 2951      00
 2952 0015 00       		.space	1
 2953 0016 0000     		.space	2
 2954              	.LC4:
 2955 0018 4F637475 		.ascii	"Octupla\000"
 2955      706C6100 
 2956 0020 0000     		.space	2
 2957 0022 0000     		.space	2
 2958              	.LC5:
 2959 0024 352D352D 		.ascii	"5-5-4     \000"
 2959      34202020 
 2959      202000
 2960 002f 00       		.space	1
 2961              	.LC6:
 2962 0030 362D362D 		.ascii	"6-6-4     \000"
 2962      34202020 
 2962      202000
 2963 003b 00       		.space	1
 2964              	.LC7:
 2965 003c 372D372D 		.ascii	"7-7-5     \000"
 2965      35202020 
 2965      202000
 2966 0047 00       		.space	1
 2967              	.LC8:
 2968 0048 382D372D 		.ascii	"8-7-5     \000"
 2968      35202020 
 2968      202000
 2969 0053 00       		.space	1
 2970              	.LC9:
 2971 0054 54657374 		.ascii	"Test de Impresion\000"
 2971      20646520 
 2971      496D7072 
 2971      6573696F 
 2971      6E00
 2972 0066 0000     		.data
 2973              		.align	2
 2974              		.set	.LANCHOR1,. + 0
 2975              		.type	MuxVersion, %object
 2976              		.size	MuxVersion, 10
ARM GAS  C:\Users\RECEPC~1\AppData\Local\Temp\ccBlh02k.s 			page 68


 2977              	MuxVersion:
 2978 0000 4D555820 		.ascii	"MUX V. 1.0"
 2978      562E2031 
 2978      2E30
 2979 000a 0000     		.section	.rodata.str1.4,"aMS",%progbits,1
 2980              		.align	2
 2981              	.LC0:
 2982 0000 496E6963 		.ascii	"Iniciando\000"
 2982      69616E64 
 2982      6F00
 2983 000a 0000     		.space	2
 2984              	.LC2:
 2985 000c 51756164 		.ascii	"Quadrupla\000"
 2985      7275706C 
 2985      6100
 2986 0016 0000     		.text
 2987              	.Letext0:
 2988              		.file 2 "c:\\program files (x86)\\cypress\\psoc creator\\3.3\\psoc creator\\import\\gnu\\arm\\4.9.
 2989              		.file 3 "c:\\program files (x86)\\cypress\\psoc creator\\3.3\\psoc creator\\import\\gnu\\arm\\4.9.
 2990              		.file 4 "Generated_Source\\PSoC5/cytypes.h"
 2991              		.file 5 "./variables.h"
 2992              		.file 6 "Generated_Source\\PSoC5/Display1.h"
 2993              		.file 7 "Generated_Source\\PSoC5/Display2.h"
 2994              		.file 8 "Generated_Source\\PSoC5/core_cm3.h"
 2995              		.file 9 "Generated_Source\\PSoC5/EEPROM_1.h"
 2996              		.file 10 "Generated_Source\\PSoC5/Pump.h"
 2997              		.file 11 "Generated_Source\\PSoC5/RF_Physical.h"
 2998              		.file 12 "Generated_Source\\PSoC5/Printer.h"
 2999              		.file 13 "Generated_Source\\PSoC5/I2C_Bus.h"
 3000              		.file 14 "./LCD.h"
 3001              		.file 15 "Generated_Source\\PSoC5/CyLib.h"
 3002              		.file 16 "./protocol.h"
 3003              		.file 17 "./I2C.h"
 3004              		.file 18 "./keyboard.h"
 3005              		.file 19 "./Print.h"
 3006              		.section	.debug_info,"",%progbits
 3007              	.Ldebug_info0:
 3008 0000 321E0000 		.4byte	0x1e32
 3009 0004 0400     		.2byte	0x4
 3010 0006 00000000 		.4byte	.Ldebug_abbrev0
 3011 000a 04       		.byte	0x4
 3012 000b 01       		.uleb128 0x1
 3013 000c A10B0000 		.4byte	.LASF250
 3014 0010 01       		.byte	0x1
 3015 0011 4C0F0000 		.4byte	.LASF251
 3016 0015 BF0C0000 		.4byte	.LASF252
 3017 0019 00000000 		.4byte	.Ldebug_ranges0+0
 3018 001d 00000000 		.4byte	0
 3019 0021 00000000 		.4byte	.Ldebug_line0
 3020 0025 02       		.uleb128 0x2
 3021 0026 01       		.byte	0x1
 3022 0027 06       		.byte	0x6
 3023 0028 A80D0000 		.4byte	.LASF0
 3024 002c 03       		.uleb128 0x3
 3025 002d 350A0000 		.4byte	.LASF3
 3026 0031 02       		.byte	0x2
 3027 0032 1D       		.byte	0x1d
ARM GAS  C:\Users\RECEPC~1\AppData\Local\Temp\ccBlh02k.s 			page 69


 3028 0033 37000000 		.4byte	0x37
 3029 0037 02       		.uleb128 0x2
 3030 0038 01       		.byte	0x1
 3031 0039 08       		.byte	0x8
 3032 003a 560B0000 		.4byte	.LASF1
 3033 003e 02       		.uleb128 0x2
 3034 003f 02       		.byte	0x2
 3035 0040 05       		.byte	0x5
 3036 0041 BC080000 		.4byte	.LASF2
 3037 0045 03       		.uleb128 0x3
 3038 0046 72030000 		.4byte	.LASF4
 3039 004a 02       		.byte	0x2
 3040 004b 2B       		.byte	0x2b
 3041 004c 50000000 		.4byte	0x50
 3042 0050 02       		.uleb128 0x2
 3043 0051 02       		.byte	0x2
 3044 0052 07       		.byte	0x7
 3045 0053 060E0000 		.4byte	.LASF5
 3046 0057 03       		.uleb128 0x3
 3047 0058 3F010000 		.4byte	.LASF6
 3048 005c 02       		.byte	0x2
 3049 005d 3F       		.byte	0x3f
 3050 005e 62000000 		.4byte	0x62
 3051 0062 02       		.uleb128 0x2
 3052 0063 04       		.byte	0x4
 3053 0064 05       		.byte	0x5
 3054 0065 CF080000 		.4byte	.LASF7
 3055 0069 02       		.uleb128 0x2
 3056 006a 04       		.byte	0x4
 3057 006b 07       		.byte	0x7
 3058 006c B30A0000 		.4byte	.LASF8
 3059 0070 02       		.uleb128 0x2
 3060 0071 08       		.byte	0x8
 3061 0072 05       		.byte	0x5
 3062 0073 4D060000 		.4byte	.LASF9
 3063 0077 02       		.uleb128 0x2
 3064 0078 08       		.byte	0x8
 3065 0079 07       		.byte	0x7
 3066 007a 0B030000 		.4byte	.LASF10
 3067 007e 04       		.uleb128 0x4
 3068 007f 04       		.byte	0x4
 3069 0080 05       		.byte	0x5
 3070 0081 696E7400 		.ascii	"int\000"
 3071 0085 02       		.uleb128 0x2
 3072 0086 04       		.byte	0x4
 3073 0087 07       		.byte	0x7
 3074 0088 15010000 		.4byte	.LASF11
 3075 008c 03       		.uleb128 0x3
 3076 008d B5050000 		.4byte	.LASF12
 3077 0091 03       		.byte	0x3
 3078 0092 15       		.byte	0x15
 3079 0093 2C000000 		.4byte	0x2c
 3080 0097 03       		.uleb128 0x3
 3081 0098 0E080000 		.4byte	.LASF13
 3082 009c 03       		.byte	0x3
 3083 009d 21       		.byte	0x21
 3084 009e 45000000 		.4byte	0x45
ARM GAS  C:\Users\RECEPC~1\AppData\Local\Temp\ccBlh02k.s 			page 70


 3085 00a2 03       		.uleb128 0x3
 3086 00a3 FD0A0000 		.4byte	.LASF14
 3087 00a7 03       		.byte	0x3
 3088 00a8 2C       		.byte	0x2c
 3089 00a9 57000000 		.4byte	0x57
 3090 00ad 05       		.uleb128 0x5
 3091 00ae 990E0000 		.4byte	.LASF15
 3092 00b2 04       		.byte	0x4
 3093 00b3 3801     		.2byte	0x138
 3094 00b5 37000000 		.4byte	0x37
 3095 00b9 05       		.uleb128 0x5
 3096 00ba 8E050000 		.4byte	.LASF16
 3097 00be 04       		.byte	0x4
 3098 00bf 3901     		.2byte	0x139
 3099 00c1 50000000 		.4byte	0x50
 3100 00c5 05       		.uleb128 0x5
 3101 00c6 9B070000 		.4byte	.LASF17
 3102 00ca 04       		.byte	0x4
 3103 00cb 3A01     		.2byte	0x13a
 3104 00cd 69000000 		.4byte	0x69
 3105 00d1 02       		.uleb128 0x2
 3106 00d2 04       		.byte	0x4
 3107 00d3 04       		.byte	0x4
 3108 00d4 B8020000 		.4byte	.LASF18
 3109 00d8 02       		.uleb128 0x2
 3110 00d9 08       		.byte	0x8
 3111 00da 04       		.byte	0x4
 3112 00db 9F0E0000 		.4byte	.LASF19
 3113 00df 05       		.uleb128 0x5
 3114 00e0 680A0000 		.4byte	.LASF20
 3115 00e4 04       		.byte	0x4
 3116 00e5 4401     		.2byte	0x144
 3117 00e7 77000000 		.4byte	0x77
 3118 00eb 05       		.uleb128 0x5
 3119 00ec CE050000 		.4byte	.LASF21
 3120 00f0 04       		.byte	0x4
 3121 00f1 4901     		.2byte	0x149
 3122 00f3 F7000000 		.4byte	0xf7
 3123 00f7 02       		.uleb128 0x2
 3124 00f8 01       		.byte	0x1
 3125 00f9 08       		.byte	0x8
 3126 00fa 1A050000 		.4byte	.LASF22
 3127 00fe 05       		.uleb128 0x5
 3128 00ff 240B0000 		.4byte	.LASF23
 3129 0103 04       		.byte	0x4
 3130 0104 DA01     		.2byte	0x1da
 3131 0106 69000000 		.4byte	0x69
 3132 010a 06       		.uleb128 0x6
 3133 010b AD000000 		.4byte	0xad
 3134 010f 06       		.uleb128 0x6
 3135 0110 C5000000 		.4byte	0xc5
 3136 0114 02       		.uleb128 0x2
 3137 0115 04       		.byte	0x4
 3138 0116 07       		.byte	0x7
 3139 0117 AA0A0000 		.4byte	.LASF24
 3140 011b 07       		.uleb128 0x7
 3141 011c AD000000 		.4byte	0xad
ARM GAS  C:\Users\RECEPC~1\AppData\Local\Temp\ccBlh02k.s 			page 71


 3142 0120 2B010000 		.4byte	0x12b
 3143 0124 08       		.uleb128 0x8
 3144 0125 14010000 		.4byte	0x114
 3145 0129 03       		.byte	0x3
 3146 012a 00       		.byte	0
 3147 012b 09       		.uleb128 0x9
 3148 012c EC000000 		.4byte	.LASF76
 3149 0130 9602     		.2byte	0x296
 3150 0132 05       		.byte	0x5
 3151 0133 5E       		.byte	0x5e
 3152 0134 B4030000 		.4byte	0x3b4
 3153 0138 0A       		.uleb128 0xa
 3154 0139 86010000 		.4byte	.LASF25
 3155 013d 05       		.byte	0x5
 3156 013e 5F       		.byte	0x5f
 3157 013f AD000000 		.4byte	0xad
 3158 0143 00       		.byte	0
 3159 0144 0A       		.uleb128 0xa
 3160 0145 E4030000 		.4byte	.LASF26
 3161 0149 05       		.byte	0x5
 3162 014a 60       		.byte	0x60
 3163 014b B4030000 		.4byte	0x3b4
 3164 014f 01       		.byte	0x1
 3165 0150 0A       		.uleb128 0xa
 3166 0151 D4050000 		.4byte	.LASF27
 3167 0155 05       		.byte	0x5
 3168 0156 61       		.byte	0x61
 3169 0157 B4030000 		.4byte	0x3b4
 3170 015b 1A       		.byte	0x1a
 3171 015c 0A       		.uleb128 0xa
 3172 015d A60E0000 		.4byte	.LASF28
 3173 0161 05       		.byte	0x5
 3174 0162 62       		.byte	0x62
 3175 0163 AD000000 		.4byte	0xad
 3176 0167 33       		.byte	0x33
 3177 0168 0A       		.uleb128 0xa
 3178 0169 440B0000 		.4byte	.LASF29
 3179 016d 05       		.byte	0x5
 3180 016e 63       		.byte	0x63
 3181 016f AD000000 		.4byte	0xad
 3182 0173 34       		.byte	0x34
 3183 0174 0A       		.uleb128 0xa
 3184 0175 07020000 		.4byte	.LASF30
 3185 0179 05       		.byte	0x5
 3186 017a 64       		.byte	0x64
 3187 017b C4030000 		.4byte	0x3c4
 3188 017f 35       		.byte	0x35
 3189 0180 0A       		.uleb128 0xa
 3190 0181 62080000 		.4byte	.LASF31
 3191 0185 05       		.byte	0x5
 3192 0186 65       		.byte	0x65
 3193 0187 C4030000 		.4byte	0x3c4
 3194 018b 3F       		.byte	0x3f
 3195 018c 0A       		.uleb128 0xa
 3196 018d 0F0F0000 		.4byte	.LASF32
 3197 0191 05       		.byte	0x5
 3198 0192 66       		.byte	0x66
ARM GAS  C:\Users\RECEPC~1\AppData\Local\Temp\ccBlh02k.s 			page 72


 3199 0193 B4030000 		.4byte	0x3b4
 3200 0197 49       		.byte	0x49
 3201 0198 0A       		.uleb128 0xa
 3202 0199 17080000 		.4byte	.LASF33
 3203 019d 05       		.byte	0x5
 3204 019e 67       		.byte	0x67
 3205 019f AD000000 		.4byte	0xad
 3206 01a3 62       		.byte	0x62
 3207 01a4 0A       		.uleb128 0xa
 3208 01a5 4B0C0000 		.4byte	.LASF34
 3209 01a9 05       		.byte	0x5
 3210 01aa 68       		.byte	0x68
 3211 01ab AD000000 		.4byte	0xad
 3212 01af 63       		.byte	0x63
 3213 01b0 0A       		.uleb128 0xa
 3214 01b1 10050000 		.4byte	.LASF35
 3215 01b5 05       		.byte	0x5
 3216 01b6 69       		.byte	0x69
 3217 01b7 D4030000 		.4byte	0x3d4
 3218 01bb 64       		.byte	0x64
 3219 01bc 0A       		.uleb128 0xa
 3220 01bd 4E070000 		.4byte	.LASF36
 3221 01c1 05       		.byte	0x5
 3222 01c2 6A       		.byte	0x6a
 3223 01c3 AD000000 		.4byte	0xad
 3224 01c7 79       		.byte	0x79
 3225 01c8 0A       		.uleb128 0xa
 3226 01c9 F3040000 		.4byte	.LASF37
 3227 01cd 05       		.byte	0x5
 3228 01ce 6B       		.byte	0x6b
 3229 01cf AD000000 		.4byte	0xad
 3230 01d3 7A       		.byte	0x7a
 3231 01d4 0A       		.uleb128 0xa
 3232 01d5 09010000 		.4byte	.LASF38
 3233 01d9 05       		.byte	0x5
 3234 01da 6C       		.byte	0x6c
 3235 01db AD000000 		.4byte	0xad
 3236 01df 7B       		.byte	0x7b
 3237 01e0 0A       		.uleb128 0xa
 3238 01e1 150D0000 		.4byte	.LASF39
 3239 01e5 05       		.byte	0x5
 3240 01e6 6D       		.byte	0x6d
 3241 01e7 E4030000 		.4byte	0x3e4
 3242 01eb 7C       		.byte	0x7c
 3243 01ec 0A       		.uleb128 0xa
 3244 01ed AE040000 		.4byte	.LASF40
 3245 01f1 05       		.byte	0x5
 3246 01f2 6E       		.byte	0x6e
 3247 01f3 F4030000 		.4byte	0x3f4
 3248 01f7 7E       		.byte	0x7e
 3249 01f8 0A       		.uleb128 0xa
 3250 01f9 BB030000 		.4byte	.LASF41
 3251 01fd 05       		.byte	0x5
 3252 01fe 6F       		.byte	0x6f
 3253 01ff AD000000 		.4byte	0xad
 3254 0203 92       		.byte	0x92
 3255 0204 0A       		.uleb128 0xa
ARM GAS  C:\Users\RECEPC~1\AppData\Local\Temp\ccBlh02k.s 			page 73


 3256 0205 A10A0000 		.4byte	.LASF42
 3257 0209 05       		.byte	0x5
 3258 020a 70       		.byte	0x70
 3259 020b 0A040000 		.4byte	0x40a
 3260 020f 93       		.byte	0x93
 3261 0210 0A       		.uleb128 0xa
 3262 0211 D6090000 		.4byte	.LASF43
 3263 0215 05       		.byte	0x5
 3264 0216 71       		.byte	0x71
 3265 0217 1A040000 		.4byte	0x41a
 3266 021b 98       		.byte	0x98
 3267 021c 0A       		.uleb128 0xa
 3268 021d D5030000 		.4byte	.LASF44
 3269 0221 05       		.byte	0x5
 3270 0222 72       		.byte	0x72
 3271 0223 1A040000 		.4byte	0x41a
 3272 0227 9E       		.byte	0x9e
 3273 0228 0A       		.uleb128 0xa
 3274 0229 D40E0000 		.4byte	.LASF45
 3275 022d 05       		.byte	0x5
 3276 022e 73       		.byte	0x73
 3277 022f 1A040000 		.4byte	0x41a
 3278 0233 A4       		.byte	0xa4
 3279 0234 0A       		.uleb128 0xa
 3280 0235 37070000 		.4byte	.LASF46
 3281 0239 05       		.byte	0x5
 3282 023a 74       		.byte	0x74
 3283 023b 1A040000 		.4byte	0x41a
 3284 023f AA       		.byte	0xaa
 3285 0240 0A       		.uleb128 0xa
 3286 0241 2F080000 		.4byte	.LASF47
 3287 0245 05       		.byte	0x5
 3288 0246 75       		.byte	0x75
 3289 0247 2A040000 		.4byte	0x42a
 3290 024b B0       		.byte	0xb0
 3291 024c 0A       		.uleb128 0xa
 3292 024d 46030000 		.4byte	.LASF48
 3293 0251 05       		.byte	0x5
 3294 0252 76       		.byte	0x76
 3295 0253 2A040000 		.4byte	0x42a
 3296 0257 BE       		.byte	0xbe
 3297 0258 0A       		.uleb128 0xa
 3298 0259 FD060000 		.4byte	.LASF49
 3299 025d 05       		.byte	0x5
 3300 025e 77       		.byte	0x77
 3301 025f 2A040000 		.4byte	0x42a
 3302 0263 CC       		.byte	0xcc
 3303 0264 0A       		.uleb128 0xa
 3304 0265 08060000 		.4byte	.LASF50
 3305 0269 05       		.byte	0x5
 3306 026a 78       		.byte	0x78
 3307 026b 2A040000 		.4byte	0x42a
 3308 026f DA       		.byte	0xda
 3309 0270 0A       		.uleb128 0xa
 3310 0271 4E0A0000 		.4byte	.LASF51
 3311 0275 05       		.byte	0x5
 3312 0276 79       		.byte	0x79
ARM GAS  C:\Users\RECEPC~1\AppData\Local\Temp\ccBlh02k.s 			page 74


 3313 0277 2A040000 		.4byte	0x42a
 3314 027b E8       		.byte	0xe8
 3315 027c 0A       		.uleb128 0xa
 3316 027d 00080000 		.4byte	.LASF52
 3317 0281 05       		.byte	0x5
 3318 0282 7A       		.byte	0x7a
 3319 0283 2A040000 		.4byte	0x42a
 3320 0287 F6       		.byte	0xf6
 3321 0288 0B       		.uleb128 0xb
 3322 0289 A3080000 		.4byte	.LASF53
 3323 028d 05       		.byte	0x5
 3324 028e 7B       		.byte	0x7b
 3325 028f 3A040000 		.4byte	0x43a
 3326 0293 0401     		.2byte	0x104
 3327 0295 0B       		.uleb128 0xb
 3328 0296 F6030000 		.4byte	.LASF54
 3329 029a 05       		.byte	0x5
 3330 029b 7C       		.byte	0x7c
 3331 029c 3A040000 		.4byte	0x43a
 3332 02a0 0F01     		.2byte	0x10f
 3333 02a2 0B       		.uleb128 0xb
 3334 02a3 E8040000 		.4byte	.LASF55
 3335 02a7 05       		.byte	0x5
 3336 02a8 7D       		.byte	0x7d
 3337 02a9 3A040000 		.4byte	0x43a
 3338 02ad 1A01     		.2byte	0x11a
 3339 02af 0B       		.uleb128 0xb
 3340 02b0 5A070000 		.4byte	.LASF56
 3341 02b4 05       		.byte	0x5
 3342 02b5 7E       		.byte	0x7e
 3343 02b6 AD000000 		.4byte	0xad
 3344 02ba 2501     		.2byte	0x125
 3345 02bc 0B       		.uleb128 0xb
 3346 02bd C2050000 		.4byte	.LASF57
 3347 02c1 05       		.byte	0x5
 3348 02c2 7F       		.byte	0x7f
 3349 02c3 AD000000 		.4byte	0xad
 3350 02c7 2601     		.2byte	0x126
 3351 02c9 0B       		.uleb128 0xb
 3352 02ca 4F010000 		.4byte	.LASF58
 3353 02ce 05       		.byte	0x5
 3354 02cf 80       		.byte	0x80
 3355 02d0 AD000000 		.4byte	0xad
 3356 02d4 2701     		.2byte	0x127
 3357 02d6 0B       		.uleb128 0xb
 3358 02d7 95090000 		.4byte	.LASF59
 3359 02db 05       		.byte	0x5
 3360 02dc 81       		.byte	0x81
 3361 02dd AD000000 		.4byte	0xad
 3362 02e1 2801     		.2byte	0x128
 3363 02e3 0B       		.uleb128 0xb
 3364 02e4 C0000000 		.4byte	.LASF60
 3365 02e8 05       		.byte	0x5
 3366 02e9 82       		.byte	0x82
 3367 02ea 4A040000 		.4byte	0x44a
 3368 02ee 2901     		.2byte	0x129
 3369 02f0 0B       		.uleb128 0xb
ARM GAS  C:\Users\RECEPC~1\AppData\Local\Temp\ccBlh02k.s 			page 75


 3370 02f1 18060000 		.4byte	.LASF61
 3371 02f5 05       		.byte	0x5
 3372 02f6 83       		.byte	0x83
 3373 02f7 C4030000 		.4byte	0x3c4
 3374 02fb 6A01     		.2byte	0x16a
 3375 02fd 0B       		.uleb128 0xb
 3376 02fe 57020000 		.4byte	.LASF62
 3377 0302 05       		.byte	0x5
 3378 0303 84       		.byte	0x84
 3379 0304 C4030000 		.4byte	0x3c4
 3380 0308 7401     		.2byte	0x174
 3381 030a 0B       		.uleb128 0xb
 3382 030b FF050000 		.4byte	.LASF63
 3383 030f 05       		.byte	0x5
 3384 0310 85       		.byte	0x85
 3385 0311 C4030000 		.4byte	0x3c4
 3386 0315 7E01     		.2byte	0x17e
 3387 0317 0B       		.uleb128 0xb
 3388 0318 94040000 		.4byte	.LASF64
 3389 031c 05       		.byte	0x5
 3390 031d 86       		.byte	0x86
 3391 031e 5A040000 		.4byte	0x45a
 3392 0322 8801     		.2byte	0x188
 3393 0324 0B       		.uleb128 0xb
 3394 0325 22010000 		.4byte	.LASF65
 3395 0329 05       		.byte	0x5
 3396 032a 87       		.byte	0x87
 3397 032b 5A040000 		.4byte	0x45a
 3398 032f D301     		.2byte	0x1d3
 3399 0331 0B       		.uleb128 0xb
 3400 0332 14020000 		.4byte	.LASF66
 3401 0336 05       		.byte	0x5
 3402 0337 88       		.byte	0x88
 3403 0338 70040000 		.4byte	0x470
 3404 033c 1E02     		.2byte	0x21e
 3405 033e 0B       		.uleb128 0xb
 3406 033f 110B0000 		.4byte	.LASF67
 3407 0343 05       		.byte	0x5
 3408 0344 89       		.byte	0x89
 3409 0345 70040000 		.4byte	0x470
 3410 0349 2D02     		.2byte	0x22d
 3411 034b 0B       		.uleb128 0xb
 3412 034c 5D0C0000 		.4byte	.LASF68
 3413 0350 05       		.byte	0x5
 3414 0351 8A       		.byte	0x8a
 3415 0352 86040000 		.4byte	0x486
 3416 0356 3C02     		.2byte	0x23c
 3417 0358 0B       		.uleb128 0xb
 3418 0359 200D0000 		.4byte	.LASF69
 3419 035d 05       		.byte	0x5
 3420 035e 8B       		.byte	0x8b
 3421 035f 86040000 		.4byte	0x486
 3422 0363 5A02     		.2byte	0x25a
 3423 0365 0B       		.uleb128 0xb
 3424 0366 2B070000 		.4byte	.LASF70
 3425 036a 05       		.byte	0x5
 3426 036b 8C       		.byte	0x8c
ARM GAS  C:\Users\RECEPC~1\AppData\Local\Temp\ccBlh02k.s 			page 76


 3427 036c C4030000 		.4byte	0x3c4
 3428 0370 7802     		.2byte	0x278
 3429 0372 0B       		.uleb128 0xb
 3430 0373 EB0A0000 		.4byte	.LASF71
 3431 0377 05       		.byte	0x5
 3432 0378 8D       		.byte	0x8d
 3433 0379 AD000000 		.4byte	0xad
 3434 037d 8202     		.2byte	0x282
 3435 037f 0B       		.uleb128 0xb
 3436 0380 AF080000 		.4byte	.LASF72
 3437 0384 05       		.byte	0x5
 3438 0385 8E       		.byte	0x8e
 3439 0386 9C040000 		.4byte	0x49c
 3440 038a 8302     		.2byte	0x283
 3441 038c 0B       		.uleb128 0xb
 3442 038d 23060000 		.4byte	.LASF73
 3443 0391 05       		.byte	0x5
 3444 0392 8F       		.byte	0x8f
 3445 0393 E4030000 		.4byte	0x3e4
 3446 0397 9202     		.2byte	0x292
 3447 0399 0B       		.uleb128 0xb
 3448 039a 02040000 		.4byte	.LASF74
 3449 039e 05       		.byte	0x5
 3450 039f 90       		.byte	0x90
 3451 03a0 AD000000 		.4byte	0xad
 3452 03a4 9402     		.2byte	0x294
 3453 03a6 0B       		.uleb128 0xb
 3454 03a7 26040000 		.4byte	.LASF75
 3455 03ab 05       		.byte	0x5
 3456 03ac 91       		.byte	0x91
 3457 03ad AD000000 		.4byte	0xad
 3458 03b1 9502     		.2byte	0x295
 3459 03b3 00       		.byte	0
 3460 03b4 07       		.uleb128 0x7
 3461 03b5 AD000000 		.4byte	0xad
 3462 03b9 C4030000 		.4byte	0x3c4
 3463 03bd 08       		.uleb128 0x8
 3464 03be 14010000 		.4byte	0x114
 3465 03c2 18       		.byte	0x18
 3466 03c3 00       		.byte	0
 3467 03c4 07       		.uleb128 0x7
 3468 03c5 AD000000 		.4byte	0xad
 3469 03c9 D4030000 		.4byte	0x3d4
 3470 03cd 08       		.uleb128 0x8
 3471 03ce 14010000 		.4byte	0x114
 3472 03d2 09       		.byte	0x9
 3473 03d3 00       		.byte	0
 3474 03d4 07       		.uleb128 0x7
 3475 03d5 AD000000 		.4byte	0xad
 3476 03d9 E4030000 		.4byte	0x3e4
 3477 03dd 08       		.uleb128 0x8
 3478 03de 14010000 		.4byte	0x114
 3479 03e2 14       		.byte	0x14
 3480 03e3 00       		.byte	0
 3481 03e4 07       		.uleb128 0x7
 3482 03e5 AD000000 		.4byte	0xad
 3483 03e9 F4030000 		.4byte	0x3f4
ARM GAS  C:\Users\RECEPC~1\AppData\Local\Temp\ccBlh02k.s 			page 77


 3484 03ed 08       		.uleb128 0x8
 3485 03ee 14010000 		.4byte	0x114
 3486 03f2 01       		.byte	0x1
 3487 03f3 00       		.byte	0
 3488 03f4 07       		.uleb128 0x7
 3489 03f5 AD000000 		.4byte	0xad
 3490 03f9 0A040000 		.4byte	0x40a
 3491 03fd 08       		.uleb128 0x8
 3492 03fe 14010000 		.4byte	0x114
 3493 0402 01       		.byte	0x1
 3494 0403 08       		.uleb128 0x8
 3495 0404 14010000 		.4byte	0x114
 3496 0408 09       		.byte	0x9
 3497 0409 00       		.byte	0
 3498 040a 07       		.uleb128 0x7
 3499 040b AD000000 		.4byte	0xad
 3500 040f 1A040000 		.4byte	0x41a
 3501 0413 08       		.uleb128 0x8
 3502 0414 14010000 		.4byte	0x114
 3503 0418 04       		.byte	0x4
 3504 0419 00       		.byte	0
 3505 041a 07       		.uleb128 0x7
 3506 041b AD000000 		.4byte	0xad
 3507 041f 2A040000 		.4byte	0x42a
 3508 0423 08       		.uleb128 0x8
 3509 0424 14010000 		.4byte	0x114
 3510 0428 05       		.byte	0x5
 3511 0429 00       		.byte	0
 3512 042a 07       		.uleb128 0x7
 3513 042b AD000000 		.4byte	0xad
 3514 042f 3A040000 		.4byte	0x43a
 3515 0433 08       		.uleb128 0x8
 3516 0434 14010000 		.4byte	0x114
 3517 0438 0D       		.byte	0xd
 3518 0439 00       		.byte	0
 3519 043a 07       		.uleb128 0x7
 3520 043b AD000000 		.4byte	0xad
 3521 043f 4A040000 		.4byte	0x44a
 3522 0443 08       		.uleb128 0x8
 3523 0444 14010000 		.4byte	0x114
 3524 0448 0A       		.byte	0xa
 3525 0449 00       		.byte	0
 3526 044a 07       		.uleb128 0x7
 3527 044b AD000000 		.4byte	0xad
 3528 044f 5A040000 		.4byte	0x45a
 3529 0453 08       		.uleb128 0x8
 3530 0454 14010000 		.4byte	0x114
 3531 0458 40       		.byte	0x40
 3532 0459 00       		.byte	0
 3533 045a 07       		.uleb128 0x7
 3534 045b AD000000 		.4byte	0xad
 3535 045f 70040000 		.4byte	0x470
 3536 0463 08       		.uleb128 0x8
 3537 0464 14010000 		.4byte	0x114
 3538 0468 02       		.byte	0x2
 3539 0469 08       		.uleb128 0x8
 3540 046a 14010000 		.4byte	0x114
ARM GAS  C:\Users\RECEPC~1\AppData\Local\Temp\ccBlh02k.s 			page 78


 3541 046e 18       		.byte	0x18
 3542 046f 00       		.byte	0
 3543 0470 07       		.uleb128 0x7
 3544 0471 AD000000 		.4byte	0xad
 3545 0475 86040000 		.4byte	0x486
 3546 0479 08       		.uleb128 0x8
 3547 047a 14010000 		.4byte	0x114
 3548 047e 02       		.byte	0x2
 3549 047f 08       		.uleb128 0x8
 3550 0480 14010000 		.4byte	0x114
 3551 0484 04       		.byte	0x4
 3552 0485 00       		.byte	0
 3553 0486 07       		.uleb128 0x7
 3554 0487 AD000000 		.4byte	0xad
 3555 048b 9C040000 		.4byte	0x49c
 3556 048f 08       		.uleb128 0x8
 3557 0490 14010000 		.4byte	0x114
 3558 0494 02       		.byte	0x2
 3559 0495 08       		.uleb128 0x8
 3560 0496 14010000 		.4byte	0x114
 3561 049a 09       		.byte	0x9
 3562 049b 00       		.byte	0
 3563 049c 07       		.uleb128 0x7
 3564 049d AD000000 		.4byte	0xad
 3565 04a1 AC040000 		.4byte	0x4ac
 3566 04a5 08       		.uleb128 0x8
 3567 04a6 14010000 		.4byte	0x114
 3568 04aa 0E       		.byte	0xe
 3569 04ab 00       		.byte	0
 3570 04ac 09       		.uleb128 0x9
 3571 04ad 340F0000 		.4byte	.LASF77
 3572 04b1 0301     		.2byte	0x103
 3573 04b3 05       		.byte	0x5
 3574 04b4 A2       		.byte	0xa2
 3575 04b5 35050000 		.4byte	0x535
 3576 04b9 0C       		.uleb128 0xc
 3577 04ba 64697200 		.ascii	"dir\000"
 3578 04be 05       		.byte	0x5
 3579 04bf A3       		.byte	0xa3
 3580 04c0 AD000000 		.4byte	0xad
 3581 04c4 00       		.byte	0
 3582 04c5 0A       		.uleb128 0xa
 3583 04c6 A1040000 		.4byte	.LASF78
 3584 04ca 05       		.byte	0x5
 3585 04cb A4       		.byte	0xa4
 3586 04cc 35050000 		.4byte	0x535
 3587 04d0 01       		.byte	0x1
 3588 04d1 0A       		.uleb128 0xa
 3589 04d2 010F0000 		.4byte	.LASF79
 3590 04d6 05       		.byte	0x5
 3591 04d7 A5       		.byte	0xa5
 3592 04d8 51050000 		.4byte	0x551
 3593 04dc B5       		.byte	0xb5
 3594 04dd 0A       		.uleb128 0xa
 3595 04de 43060000 		.4byte	.LASF80
 3596 04e2 05       		.byte	0x5
 3597 04e3 A6       		.byte	0xa6
ARM GAS  C:\Users\RECEPC~1\AppData\Local\Temp\ccBlh02k.s 			page 79


 3598 04e4 2A040000 		.4byte	0x42a
 3599 04e8 D5       		.byte	0xd5
 3600 04e9 0A       		.uleb128 0xa
 3601 04ea 560D0000 		.4byte	.LASF81
 3602 04ee 05       		.byte	0x5
 3603 04ef A7       		.byte	0xa7
 3604 04f0 2A040000 		.4byte	0x42a
 3605 04f4 E3       		.byte	0xe3
 3606 04f5 0A       		.uleb128 0xa
 3607 04f6 B4060000 		.4byte	.LASF82
 3608 04fa 05       		.byte	0x5
 3609 04fb A8       		.byte	0xa8
 3610 04fc 2A040000 		.4byte	0x42a
 3611 0500 F1       		.byte	0xf1
 3612 0501 0A       		.uleb128 0xa
 3613 0502 700E0000 		.4byte	.LASF83
 3614 0506 05       		.byte	0x5
 3615 0507 A9       		.byte	0xa9
 3616 0508 AD000000 		.4byte	0xad
 3617 050c FF       		.byte	0xff
 3618 050d 0B       		.uleb128 0xb
 3619 050e E00A0000 		.4byte	.LASF84
 3620 0512 05       		.byte	0x5
 3621 0513 AA       		.byte	0xaa
 3622 0514 AD000000 		.4byte	0xad
 3623 0518 0001     		.2byte	0x100
 3624 051a 0B       		.uleb128 0xb
 3625 051b 01030000 		.4byte	.LASF85
 3626 051f 05       		.byte	0x5
 3627 0520 AB       		.byte	0xab
 3628 0521 AD000000 		.4byte	0xad
 3629 0525 0101     		.2byte	0x101
 3630 0527 0B       		.uleb128 0xb
 3631 0528 E5090000 		.4byte	.LASF86
 3632 052c 05       		.byte	0x5
 3633 052d AC       		.byte	0xac
 3634 052e AD000000 		.4byte	0xad
 3635 0532 0201     		.2byte	0x102
 3636 0534 00       		.byte	0
 3637 0535 07       		.uleb128 0x7
 3638 0536 AD000000 		.4byte	0xad
 3639 053a 51050000 		.4byte	0x551
 3640 053e 08       		.uleb128 0x8
 3641 053f 14010000 		.4byte	0x114
 3642 0543 03       		.byte	0x3
 3643 0544 08       		.uleb128 0x8
 3644 0545 14010000 		.4byte	0x114
 3645 0549 02       		.byte	0x2
 3646 054a 08       		.uleb128 0x8
 3647 054b 14010000 		.4byte	0x114
 3648 054f 0E       		.byte	0xe
 3649 0550 00       		.byte	0
 3650 0551 07       		.uleb128 0x7
 3651 0552 AD000000 		.4byte	0xad
 3652 0556 67050000 		.4byte	0x567
 3653 055a 08       		.uleb128 0x8
 3654 055b 14010000 		.4byte	0x114
ARM GAS  C:\Users\RECEPC~1\AppData\Local\Temp\ccBlh02k.s 			page 80


 3655 055f 03       		.byte	0x3
 3656 0560 08       		.uleb128 0x8
 3657 0561 14010000 		.4byte	0x114
 3658 0565 07       		.byte	0x7
 3659 0566 00       		.byte	0
 3660 0567 09       		.uleb128 0x9
 3661 0568 8C0C0000 		.4byte	.LASF87
 3662 056c 0C04     		.2byte	0x40c
 3663 056e 05       		.byte	0x5
 3664 056f AF       		.byte	0xaf
 3665 0570 A0050000 		.4byte	0x5a0
 3666 0574 0C       		.uleb128 0xc
 3667 0575 6100     		.ascii	"a\000"
 3668 0577 05       		.byte	0x5
 3669 0578 B0       		.byte	0xb0
 3670 0579 AC040000 		.4byte	0x4ac
 3671 057d 00       		.byte	0
 3672 057e 0D       		.uleb128 0xd
 3673 057f 6200     		.ascii	"b\000"
 3674 0581 05       		.byte	0x5
 3675 0582 B1       		.byte	0xb1
 3676 0583 AC040000 		.4byte	0x4ac
 3677 0587 0301     		.2byte	0x103
 3678 0589 0D       		.uleb128 0xd
 3679 058a 6300     		.ascii	"c\000"
 3680 058c 05       		.byte	0x5
 3681 058d B2       		.byte	0xb2
 3682 058e AC040000 		.4byte	0x4ac
 3683 0592 0602     		.2byte	0x206
 3684 0594 0D       		.uleb128 0xd
 3685 0595 6400     		.ascii	"d\000"
 3686 0597 05       		.byte	0x5
 3687 0598 B3       		.byte	0xb3
 3688 0599 AC040000 		.4byte	0x4ac
 3689 059d 0903     		.2byte	0x309
 3690 059f 00       		.byte	0
 3691 05a0 0E       		.uleb128 0xe
 3692 05a1 360E0000 		.4byte	.LASF253
 3693 05a5 01       		.byte	0x1
 3694 05a6 05       		.byte	0x5
 3695 05a7 C9       		.byte	0xc9
 3696 05a8 19070000 		.4byte	0x719
 3697 05ac 0F       		.uleb128 0xf
 3698 05ad 620E0000 		.4byte	.LASF88
 3699 05b1 00       		.sleb128 0
 3700 05b2 0F       		.uleb128 0xf
 3701 05b3 6E050000 		.4byte	.LASF89
 3702 05b7 01       		.sleb128 1
 3703 05b8 0F       		.uleb128 0xf
 3704 05b9 7E050000 		.4byte	.LASF90
 3705 05bd 02       		.sleb128 2
 3706 05be 0F       		.uleb128 0xf
 3707 05bf 10040000 		.4byte	.LASF91
 3708 05c3 03       		.sleb128 3
 3709 05c4 0F       		.uleb128 0xf
 3710 05c5 CD040000 		.4byte	.LASF92
 3711 05c9 04       		.sleb128 4
ARM GAS  C:\Users\RECEPC~1\AppData\Local\Temp\ccBlh02k.s 			page 81


 3712 05ca 0F       		.uleb128 0xf
 3713 05cb 95050000 		.4byte	.LASF93
 3714 05cf 05       		.sleb128 5
 3715 05d0 0F       		.uleb128 0xf
 3716 05d1 8A080000 		.4byte	.LASF94
 3717 05d5 06       		.sleb128 6
 3718 05d6 0F       		.uleb128 0xf
 3719 05d7 CA010000 		.4byte	.LASF95
 3720 05db 0F       		.sleb128 15
 3721 05dc 0F       		.uleb128 0xf
 3722 05dd CC0D0000 		.4byte	.LASF96
 3723 05e1 FE00     		.sleb128 126
 3724 05e3 0F       		.uleb128 0xf
 3725 05e4 E90D0000 		.4byte	.LASF97
 3726 05e8 8601     		.sleb128 134
 3727 05ea 0F       		.uleb128 0xf
 3728 05eb 81060000 		.4byte	.LASF98
 3729 05ef 07       		.sleb128 7
 3730 05f0 0F       		.uleb128 0xf
 3731 05f1 BF070000 		.4byte	.LASF99
 3732 05f5 08       		.sleb128 8
 3733 05f6 0F       		.uleb128 0xf
 3734 05f7 C50A0000 		.4byte	.LASF100
 3735 05fb 09       		.sleb128 9
 3736 05fc 0F       		.uleb128 0xf
 3737 05fd 42080000 		.4byte	.LASF101
 3738 0601 0A       		.sleb128 10
 3739 0602 0F       		.uleb128 0xf
 3740 0603 6F020000 		.4byte	.LASF102
 3741 0607 0B       		.sleb128 11
 3742 0608 0F       		.uleb128 0xf
 3743 0609 15000000 		.4byte	.LASF103
 3744 060d 25       		.sleb128 37
 3745 060e 0F       		.uleb128 0xf
 3746 060f B40D0000 		.4byte	.LASF104
 3747 0613 26       		.sleb128 38
 3748 0614 0F       		.uleb128 0xf
 3749 0615 64010000 		.4byte	.LASF105
 3750 0619 27       		.sleb128 39
 3751 061a 0F       		.uleb128 0xf
 3752 061b 16090000 		.4byte	.LASF106
 3753 061f 2F       		.sleb128 47
 3754 0620 0F       		.uleb128 0xf
 3755 0621 E5080000 		.4byte	.LASF107
 3756 0625 2C       		.sleb128 44
 3757 0626 0F       		.uleb128 0xf
 3758 0627 E30E0000 		.4byte	.LASF108
 3759 062b 0C       		.sleb128 12
 3760 062c 0F       		.uleb128 0xf
 3761 062d 0E0A0000 		.4byte	.LASF109
 3762 0631 8501     		.sleb128 133
 3763 0633 0F       		.uleb128 0xf
 3764 0634 300D0000 		.4byte	.LASF110
 3765 0638 1C       		.sleb128 28
 3766 0639 0F       		.uleb128 0xf
 3767 063a E3020000 		.4byte	.LASF111
 3768 063e 12       		.sleb128 18
ARM GAS  C:\Users\RECEPC~1\AppData\Local\Temp\ccBlh02k.s 			page 82


 3769 063f 0F       		.uleb128 0xf
 3770 0640 EA070000 		.4byte	.LASF112
 3771 0644 13       		.sleb128 19
 3772 0645 0F       		.uleb128 0xf
 3773 0646 A1090000 		.4byte	.LASF113
 3774 064a 24       		.sleb128 36
 3775 064b 0F       		.uleb128 0xf
 3776 064c 2B030000 		.4byte	.LASF114
 3777 0650 0D       		.sleb128 13
 3778 0651 0F       		.uleb128 0xf
 3779 0652 E0050000 		.4byte	.LASF115
 3780 0656 0E       		.sleb128 14
 3781 0657 0F       		.uleb128 0xf
 3782 0658 210A0000 		.4byte	.LASF116
 3783 065c 8301     		.sleb128 131
 3784 065e 0F       		.uleb128 0xf
 3785 065f 5A030000 		.4byte	.LASF117
 3786 0663 DA00     		.sleb128 90
 3787 0665 0F       		.uleb128 0xf
 3788 0666 840E0000 		.4byte	.LASF118
 3789 066a 31       		.sleb128 49
 3790 066b 0F       		.uleb128 0xf
 3791 066c BB090000 		.4byte	.LASF119
 3792 0670 35       		.sleb128 53
 3793 0671 0F       		.uleb128 0xf
 3794 0672 850B0000 		.4byte	.LASF120
 3795 0676 2E       		.sleb128 46
 3796 0677 0F       		.uleb128 0xf
 3797 0678 2F0C0000 		.4byte	.LASF121
 3798 067c 8C01     		.sleb128 140
 3799 067e 0F       		.uleb128 0xf
 3800 067f 7D030000 		.4byte	.LASF122
 3801 0683 9601     		.sleb128 150
 3802 0685 0F       		.uleb128 0xf
 3803 0686 4B090000 		.4byte	.LASF123
 3804 068a 39       		.sleb128 57
 3805 068b 0F       		.uleb128 0xf
 3806 068c 9A020000 		.4byte	.LASF124
 3807 0690 9701     		.sleb128 151
 3808 0692 0F       		.uleb128 0xf
 3809 0693 4F000000 		.4byte	.LASF125
 3810 0697 9801     		.sleb128 152
 3811 0699 0F       		.uleb128 0xf
 3812 069a 2D090000 		.4byte	.LASF126
 3813 069e 3E       		.sleb128 62
 3814 069f 0F       		.uleb128 0xf
 3815 06a0 08000000 		.4byte	.LASF127
 3816 06a4 3F       		.sleb128 63
 3817 06a5 0F       		.uleb128 0xf
 3818 06a6 7C080000 		.4byte	.LASF128
 3819 06aa C000     		.sleb128 64
 3820 06ac 0F       		.uleb128 0xf
 3821 06ad 6E0C0000 		.4byte	.LASF129
 3822 06b1 8D01     		.sleb128 141
 3823 06b3 0F       		.uleb128 0xf
 3824 06b4 E9060000 		.4byte	.LASF130
 3825 06b8 23       		.sleb128 35
ARM GAS  C:\Users\RECEPC~1\AppData\Local\Temp\ccBlh02k.s 			page 83


 3826 06b9 0F       		.uleb128 0xf
 3827 06ba AA0C0000 		.4byte	.LASF131
 3828 06be 2A       		.sleb128 42
 3829 06bf 0F       		.uleb128 0xf
 3830 06c0 2D0B0000 		.4byte	.LASF132
 3831 06c4 2B       		.sleb128 43
 3832 06c5 0F       		.uleb128 0xf
 3833 06c6 640B0000 		.4byte	.LASF133
 3834 06ca 3C       		.sleb128 60
 3835 06cb 0F       		.uleb128 0xf
 3836 06cc FD080000 		.4byte	.LASF134
 3837 06d0 C100     		.sleb128 65
 3838 06d2 0F       		.uleb128 0xf
 3839 06d3 BE020000 		.4byte	.LASF135
 3840 06d7 EB00     		.sleb128 107
 3841 06d9 0F       		.uleb128 0xf
 3842 06da 2E000000 		.4byte	.LASF136
 3843 06de E700     		.sleb128 103
 3844 06e0 0F       		.uleb128 0xf
 3845 06e1 95060000 		.4byte	.LASF137
 3846 06e5 E400     		.sleb128 100
 3847 06e7 0F       		.uleb128 0xf
 3848 06e8 C8000000 		.4byte	.LASF138
 3849 06ec E500     		.sleb128 101
 3850 06ee 0F       		.uleb128 0xf
 3851 06ef 6C0D0000 		.4byte	.LASF139
 3852 06f3 9901     		.sleb128 153
 3853 06f5 0F       		.uleb128 0xf
 3854 06f6 7B0D0000 		.4byte	.LASF140
 3855 06fa 9A01     		.sleb128 154
 3856 06fc 0F       		.uleb128 0xf
 3857 06fd 8A0D0000 		.4byte	.LASF141
 3858 0701 9B01     		.sleb128 155
 3859 0703 0F       		.uleb128 0xf
 3860 0704 990D0000 		.4byte	.LASF142
 3861 0708 9C01     		.sleb128 156
 3862 070a 0F       		.uleb128 0xf
 3863 070b 8D010000 		.4byte	.LASF143
 3864 070f FA01     		.sleb128 250
 3865 0711 0F       		.uleb128 0xf
 3866 0712 1E070000 		.4byte	.LASF144
 3867 0716 FF01     		.sleb128 255
 3868 0718 00       		.byte	0
 3869 0719 10       		.uleb128 0x10
 3870 071a 95000000 		.4byte	.LASF145
 3871 071e 01       		.byte	0x1
 3872 071f 19       		.byte	0x19
 3873 0720 00000000 		.4byte	.LFB63
 3874 0724 20000000 		.4byte	.LFE63-.LFB63
 3875 0728 01       		.uleb128 0x1
 3876 0729 9C       		.byte	0x9c
 3877 072a 6E070000 		.4byte	0x76e
 3878 072e 11       		.uleb128 0x11
 3879 072f 06000000 		.4byte	.LVL0
 3880 0733 131C0000 		.4byte	0x1c13
 3881 0737 11       		.uleb128 0x11
 3882 0738 0A000000 		.4byte	.LVL1
ARM GAS  C:\Users\RECEPC~1\AppData\Local\Temp\ccBlh02k.s 			page 84


 3883 073c 1A1C0000 		.4byte	0x1c1a
 3884 0740 11       		.uleb128 0x11
 3885 0741 0E000000 		.4byte	.LVL2
 3886 0745 211C0000 		.4byte	0x1c21
 3887 0749 11       		.uleb128 0x11
 3888 074a 12000000 		.4byte	.LVL3
 3889 074e 281C0000 		.4byte	0x1c28
 3890 0752 11       		.uleb128 0x11
 3891 0753 16000000 		.4byte	.LVL4
 3892 0757 2F1C0000 		.4byte	0x1c2f
 3893 075b 11       		.uleb128 0x11
 3894 075c 1A000000 		.4byte	.LVL5
 3895 0760 361C0000 		.4byte	0x1c36
 3896 0764 11       		.uleb128 0x11
 3897 0765 1E000000 		.4byte	.LVL6
 3898 0769 3D1C0000 		.4byte	0x1c3d
 3899 076d 00       		.byte	0
 3900 076e 10       		.uleb128 0x10
 3901 076f 230E0000 		.4byte	.LASF146
 3902 0773 01       		.byte	0x1
 3903 0774 23       		.byte	0x23
 3904 0775 00000000 		.4byte	.LFB64
 3905 0779 74000000 		.4byte	.LFE64-.LFB64
 3906 077d 01       		.uleb128 0x1
 3907 077e 9C       		.byte	0x9c
 3908 077f 18080000 		.4byte	0x818
 3909 0783 12       		.uleb128 0x12
 3910 0784 0C000000 		.4byte	.LVL7
 3911 0788 441C0000 		.4byte	0x1c44
 3912 078c 96070000 		.4byte	0x796
 3913 0790 13       		.uleb128 0x13
 3914 0791 01       		.uleb128 0x1
 3915 0792 51       		.byte	0x51
 3916 0793 01       		.uleb128 0x1
 3917 0794 30       		.byte	0x30
 3918 0795 00       		.byte	0
 3919 0796 12       		.uleb128 0x12
 3920 0797 16000000 		.4byte	.LVL8
 3921 079b 441C0000 		.4byte	0x1c44
 3922 079f A9070000 		.4byte	0x7a9
 3923 07a3 13       		.uleb128 0x13
 3924 07a4 01       		.uleb128 0x1
 3925 07a5 51       		.byte	0x51
 3926 07a6 01       		.uleb128 0x1
 3927 07a7 31       		.byte	0x31
 3928 07a8 00       		.byte	0
 3929 07a9 12       		.uleb128 0x12
 3930 07aa 20000000 		.4byte	.LVL9
 3931 07ae 441C0000 		.4byte	0x1c44
 3932 07b2 BC070000 		.4byte	0x7bc
 3933 07b6 13       		.uleb128 0x13
 3934 07b7 01       		.uleb128 0x1
 3935 07b8 51       		.byte	0x51
 3936 07b9 01       		.uleb128 0x1
 3937 07ba 32       		.byte	0x32
 3938 07bb 00       		.byte	0
 3939 07bc 12       		.uleb128 0x12
ARM GAS  C:\Users\RECEPC~1\AppData\Local\Temp\ccBlh02k.s 			page 85


 3940 07bd 2A000000 		.4byte	.LVL10
 3941 07c1 441C0000 		.4byte	0x1c44
 3942 07c5 CF070000 		.4byte	0x7cf
 3943 07c9 13       		.uleb128 0x13
 3944 07ca 01       		.uleb128 0x1
 3945 07cb 51       		.byte	0x51
 3946 07cc 01       		.uleb128 0x1
 3947 07cd 33       		.byte	0x33
 3948 07ce 00       		.byte	0
 3949 07cf 12       		.uleb128 0x12
 3950 07d0 34000000 		.4byte	.LVL11
 3951 07d4 441C0000 		.4byte	0x1c44
 3952 07d8 E2070000 		.4byte	0x7e2
 3953 07dc 13       		.uleb128 0x13
 3954 07dd 01       		.uleb128 0x1
 3955 07de 51       		.byte	0x51
 3956 07df 01       		.uleb128 0x1
 3957 07e0 34       		.byte	0x34
 3958 07e1 00       		.byte	0
 3959 07e2 12       		.uleb128 0x12
 3960 07e3 3E000000 		.4byte	.LVL12
 3961 07e7 441C0000 		.4byte	0x1c44
 3962 07eb F5070000 		.4byte	0x7f5
 3963 07ef 13       		.uleb128 0x13
 3964 07f0 01       		.uleb128 0x1
 3965 07f1 51       		.byte	0x51
 3966 07f2 01       		.uleb128 0x1
 3967 07f3 35       		.byte	0x35
 3968 07f4 00       		.byte	0
 3969 07f5 12       		.uleb128 0x12
 3970 07f6 48000000 		.4byte	.LVL13
 3971 07fa 441C0000 		.4byte	0x1c44
 3972 07fe 08080000 		.4byte	0x808
 3973 0802 13       		.uleb128 0x13
 3974 0803 01       		.uleb128 0x1
 3975 0804 51       		.byte	0x51
 3976 0805 01       		.uleb128 0x1
 3977 0806 36       		.byte	0x36
 3978 0807 00       		.byte	0
 3979 0808 14       		.uleb128 0x14
 3980 0809 54000000 		.4byte	.LVL14
 3981 080d 441C0000 		.4byte	0x1c44
 3982 0811 13       		.uleb128 0x13
 3983 0812 01       		.uleb128 0x1
 3984 0813 51       		.byte	0x51
 3985 0814 01       		.uleb128 0x1
 3986 0815 37       		.byte	0x37
 3987 0816 00       		.byte	0
 3988 0817 00       		.byte	0
 3989 0818 10       		.uleb128 0x10
 3990 0819 67070000 		.4byte	.LASF147
 3991 081d 01       		.byte	0x1
 3992 081e 36       		.byte	0x36
 3993 081f 00000000 		.4byte	.LFB65
 3994 0823 8C020000 		.4byte	.LFE65-.LFB65
 3995 0827 01       		.uleb128 0x1
 3996 0828 9C       		.byte	0x9c
ARM GAS  C:\Users\RECEPC~1\AppData\Local\Temp\ccBlh02k.s 			page 86


 3997 0829 070B0000 		.4byte	0xb07
 3998 082d 15       		.uleb128 0x15
 3999 082e 46070000 		.4byte	.LASF148
 4000 0832 01       		.byte	0x1
 4001 0833 37       		.byte	0x37
 4002 0834 070B0000 		.4byte	0xb07
 4003 0838 02       		.uleb128 0x2
 4004 0839 91       		.byte	0x91
 4005 083a 6C       		.sleb128 -20
 4006 083b 15       		.uleb128 0x15
 4007 083c 06030000 		.4byte	.LASF149
 4008 0840 01       		.byte	0x1
 4009 0841 38       		.byte	0x38
 4010 0842 070B0000 		.4byte	0xb07
 4011 0846 02       		.uleb128 0x2
 4012 0847 91       		.byte	0x91
 4013 0848 60       		.sleb128 -32
 4014 0849 15       		.uleb128 0x15
 4015 084a 49010000 		.4byte	.LASF150
 4016 084e 01       		.byte	0x1
 4017 084f 39       		.byte	0x39
 4018 0850 070B0000 		.4byte	0xb07
 4019 0854 02       		.uleb128 0x2
 4020 0855 91       		.byte	0x91
 4021 0856 54       		.sleb128 -44
 4022 0857 15       		.uleb128 0x15
 4023 0858 F3010000 		.4byte	.LASF151
 4024 085c 01       		.byte	0x1
 4025 085d 3A       		.byte	0x3a
 4026 085e 070B0000 		.4byte	0xb07
 4027 0862 02       		.uleb128 0x2
 4028 0863 91       		.byte	0x91
 4029 0864 48       		.sleb128 -56
 4030 0865 15       		.uleb128 0x15
 4031 0866 5E010000 		.4byte	.LASF152
 4032 086a 01       		.byte	0x1
 4033 086b 3B       		.byte	0x3b
 4034 086c 070B0000 		.4byte	0xb07
 4035 0870 03       		.uleb128 0x3
 4036 0871 91       		.byte	0x91
 4037 0872 BC7F     		.sleb128 -68
 4038 0874 15       		.uleb128 0x15
 4039 0875 37040000 		.4byte	.LASF153
 4040 0879 01       		.byte	0x1
 4041 087a 3C       		.byte	0x3c
 4042 087b 070B0000 		.4byte	0xb07
 4043 087f 03       		.uleb128 0x3
 4044 0880 91       		.byte	0x91
 4045 0881 B07F     		.sleb128 -80
 4046 0883 15       		.uleb128 0x15
 4047 0884 2C060000 		.4byte	.LASF154
 4048 0888 01       		.byte	0x1
 4049 0889 3D       		.byte	0x3d
 4050 088a 070B0000 		.4byte	0xb07
 4051 088e 03       		.uleb128 0x3
 4052 088f 91       		.byte	0x91
 4053 0890 A47F     		.sleb128 -92
ARM GAS  C:\Users\RECEPC~1\AppData\Local\Temp\ccBlh02k.s 			page 87


 4054 0892 15       		.uleb128 0x15
 4055 0893 51040000 		.4byte	.LASF155
 4056 0897 01       		.byte	0x1
 4057 0898 3E       		.byte	0x3e
 4058 0899 070B0000 		.4byte	0xb07
 4059 089d 03       		.uleb128 0x3
 4060 089e 91       		.byte	0x91
 4061 089f 987F     		.sleb128 -104
 4062 08a1 15       		.uleb128 0x15
 4063 08a2 5E040000 		.4byte	.LASF156
 4064 08a6 01       		.byte	0x1
 4065 08a7 3F       		.byte	0x3f
 4066 08a8 070B0000 		.4byte	0xb07
 4067 08ac 03       		.uleb128 0x3
 4068 08ad 91       		.byte	0x91
 4069 08ae 8C7F     		.sleb128 -116
 4070 08b0 12       		.uleb128 0x12
 4071 08b1 86000000 		.4byte	.LVL15
 4072 08b5 5E1C0000 		.4byte	0x1c5e
 4073 08b9 C8080000 		.4byte	0x8c8
 4074 08bd 13       		.uleb128 0x13
 4075 08be 01       		.uleb128 0x1
 4076 08bf 51       		.byte	0x51
 4077 08c0 01       		.uleb128 0x1
 4078 08c1 31       		.byte	0x31
 4079 08c2 13       		.uleb128 0x13
 4080 08c3 01       		.uleb128 0x1
 4081 08c4 50       		.byte	0x50
 4082 08c5 01       		.uleb128 0x1
 4083 08c6 31       		.byte	0x31
 4084 08c7 00       		.byte	0
 4085 08c8 12       		.uleb128 0x12
 4086 08c9 90000000 		.4byte	.LVL16
 4087 08cd 741C0000 		.4byte	0x1c74
 4088 08d1 E6080000 		.4byte	0x8e6
 4089 08d5 13       		.uleb128 0x13
 4090 08d6 01       		.uleb128 0x1
 4091 08d7 52       		.byte	0x52
 4092 08d8 01       		.uleb128 0x1
 4093 08d9 30       		.byte	0x30
 4094 08da 13       		.uleb128 0x13
 4095 08db 01       		.uleb128 0x1
 4096 08dc 51       		.byte	0x51
 4097 08dd 02       		.uleb128 0x2
 4098 08de 91       		.byte	0x91
 4099 08df 6C       		.sleb128 -20
 4100 08e0 13       		.uleb128 0x13
 4101 08e1 01       		.uleb128 0x1
 4102 08e2 50       		.byte	0x50
 4103 08e3 01       		.uleb128 0x1
 4104 08e4 31       		.byte	0x31
 4105 08e5 00       		.byte	0
 4106 08e6 12       		.uleb128 0x12
 4107 08e7 98000000 		.4byte	.LVL17
 4108 08eb 951C0000 		.4byte	0x1c95
 4109 08ef FB080000 		.4byte	0x8fb
 4110 08f3 13       		.uleb128 0x13
ARM GAS  C:\Users\RECEPC~1\AppData\Local\Temp\ccBlh02k.s 			page 88


 4111 08f4 01       		.uleb128 0x1
 4112 08f5 50       		.byte	0x50
 4113 08f6 03       		.uleb128 0x3
 4114 08f7 0A       		.byte	0xa
 4115 08f8 2C01     		.2byte	0x12c
 4116 08fa 00       		.byte	0
 4117 08fb 12       		.uleb128 0x12
 4118 08fc B6000000 		.4byte	.LVL18
 4119 0900 741C0000 		.4byte	0x1c74
 4120 0904 19090000 		.4byte	0x919
 4121 0908 13       		.uleb128 0x13
 4122 0909 01       		.uleb128 0x1
 4123 090a 52       		.byte	0x52
 4124 090b 01       		.uleb128 0x1
 4125 090c 30       		.byte	0x30
 4126 090d 13       		.uleb128 0x13
 4127 090e 01       		.uleb128 0x1
 4128 090f 51       		.byte	0x51
 4129 0910 02       		.uleb128 0x2
 4130 0911 91       		.byte	0x91
 4131 0912 60       		.sleb128 -32
 4132 0913 13       		.uleb128 0x13
 4133 0914 01       		.uleb128 0x1
 4134 0915 50       		.byte	0x50
 4135 0916 01       		.uleb128 0x1
 4136 0917 31       		.byte	0x31
 4137 0918 00       		.byte	0
 4138 0919 12       		.uleb128 0x12
 4139 091a D6000000 		.4byte	.LVL19
 4140 091e 741C0000 		.4byte	0x1c74
 4141 0922 37090000 		.4byte	0x937
 4142 0926 13       		.uleb128 0x13
 4143 0927 01       		.uleb128 0x1
 4144 0928 52       		.byte	0x52
 4145 0929 01       		.uleb128 0x1
 4146 092a 30       		.byte	0x30
 4147 092b 13       		.uleb128 0x13
 4148 092c 01       		.uleb128 0x1
 4149 092d 51       		.byte	0x51
 4150 092e 02       		.uleb128 0x2
 4151 092f 91       		.byte	0x91
 4152 0930 54       		.sleb128 -44
 4153 0931 13       		.uleb128 0x13
 4154 0932 01       		.uleb128 0x1
 4155 0933 50       		.byte	0x50
 4156 0934 01       		.uleb128 0x1
 4157 0935 31       		.byte	0x31
 4158 0936 00       		.byte	0
 4159 0937 12       		.uleb128 0x12
 4160 0938 F6000000 		.4byte	.LVL20
 4161 093c 741C0000 		.4byte	0x1c74
 4162 0940 55090000 		.4byte	0x955
 4163 0944 13       		.uleb128 0x13
 4164 0945 01       		.uleb128 0x1
 4165 0946 52       		.byte	0x52
 4166 0947 01       		.uleb128 0x1
 4167 0948 30       		.byte	0x30
ARM GAS  C:\Users\RECEPC~1\AppData\Local\Temp\ccBlh02k.s 			page 89


 4168 0949 13       		.uleb128 0x13
 4169 094a 01       		.uleb128 0x1
 4170 094b 51       		.byte	0x51
 4171 094c 02       		.uleb128 0x2
 4172 094d 91       		.byte	0x91
 4173 094e 48       		.sleb128 -56
 4174 094f 13       		.uleb128 0x13
 4175 0950 01       		.uleb128 0x1
 4176 0951 50       		.byte	0x50
 4177 0952 01       		.uleb128 0x1
 4178 0953 31       		.byte	0x31
 4179 0954 00       		.byte	0
 4180 0955 12       		.uleb128 0x12
 4181 0956 16010000 		.4byte	.LVL21
 4182 095a 741C0000 		.4byte	0x1c74
 4183 095e 74090000 		.4byte	0x974
 4184 0962 13       		.uleb128 0x13
 4185 0963 01       		.uleb128 0x1
 4186 0964 52       		.byte	0x52
 4187 0965 01       		.uleb128 0x1
 4188 0966 30       		.byte	0x30
 4189 0967 13       		.uleb128 0x13
 4190 0968 01       		.uleb128 0x1
 4191 0969 51       		.byte	0x51
 4192 096a 03       		.uleb128 0x3
 4193 096b 91       		.byte	0x91
 4194 096c BC7F     		.sleb128 -68
 4195 096e 13       		.uleb128 0x13
 4196 096f 01       		.uleb128 0x1
 4197 0970 50       		.byte	0x50
 4198 0971 01       		.uleb128 0x1
 4199 0972 31       		.byte	0x31
 4200 0973 00       		.byte	0
 4201 0974 12       		.uleb128 0x12
 4202 0975 26010000 		.4byte	.LVL22
 4203 0979 741C0000 		.4byte	0x1c74
 4204 097d 93090000 		.4byte	0x993
 4205 0981 13       		.uleb128 0x13
 4206 0982 01       		.uleb128 0x1
 4207 0983 52       		.byte	0x52
 4208 0984 01       		.uleb128 0x1
 4209 0985 46       		.byte	0x46
 4210 0986 13       		.uleb128 0x13
 4211 0987 01       		.uleb128 0x1
 4212 0988 51       		.byte	0x51
 4213 0989 03       		.uleb128 0x3
 4214 098a 91       		.byte	0x91
 4215 098b B07F     		.sleb128 -80
 4216 098d 13       		.uleb128 0x13
 4217 098e 01       		.uleb128 0x1
 4218 098f 50       		.byte	0x50
 4219 0990 01       		.uleb128 0x1
 4220 0991 31       		.byte	0x31
 4221 0992 00       		.byte	0
 4222 0993 12       		.uleb128 0x12
 4223 0994 3E010000 		.4byte	.LVL23
 4224 0998 741C0000 		.4byte	0x1c74
ARM GAS  C:\Users\RECEPC~1\AppData\Local\Temp\ccBlh02k.s 			page 90


 4225 099c B2090000 		.4byte	0x9b2
 4226 09a0 13       		.uleb128 0x13
 4227 09a1 01       		.uleb128 0x1
 4228 09a2 52       		.byte	0x52
 4229 09a3 01       		.uleb128 0x1
 4230 09a4 46       		.byte	0x46
 4231 09a5 13       		.uleb128 0x13
 4232 09a6 01       		.uleb128 0x1
 4233 09a7 51       		.byte	0x51
 4234 09a8 03       		.uleb128 0x3
 4235 09a9 91       		.byte	0x91
 4236 09aa A47F     		.sleb128 -92
 4237 09ac 13       		.uleb128 0x13
 4238 09ad 01       		.uleb128 0x1
 4239 09ae 50       		.byte	0x50
 4240 09af 01       		.uleb128 0x1
 4241 09b0 31       		.byte	0x31
 4242 09b1 00       		.byte	0
 4243 09b2 12       		.uleb128 0x12
 4244 09b3 56010000 		.4byte	.LVL24
 4245 09b7 741C0000 		.4byte	0x1c74
 4246 09bb D1090000 		.4byte	0x9d1
 4247 09bf 13       		.uleb128 0x13
 4248 09c0 01       		.uleb128 0x1
 4249 09c1 52       		.byte	0x52
 4250 09c2 01       		.uleb128 0x1
 4251 09c3 46       		.byte	0x46
 4252 09c4 13       		.uleb128 0x13
 4253 09c5 01       		.uleb128 0x1
 4254 09c6 51       		.byte	0x51
 4255 09c7 03       		.uleb128 0x3
 4256 09c8 91       		.byte	0x91
 4257 09c9 987F     		.sleb128 -104
 4258 09cb 13       		.uleb128 0x13
 4259 09cc 01       		.uleb128 0x1
 4260 09cd 50       		.byte	0x50
 4261 09ce 01       		.uleb128 0x1
 4262 09cf 31       		.byte	0x31
 4263 09d0 00       		.byte	0
 4264 09d1 12       		.uleb128 0x12
 4265 09d2 6E010000 		.4byte	.LVL25
 4266 09d6 741C0000 		.4byte	0x1c74
 4267 09da EF090000 		.4byte	0x9ef
 4268 09de 13       		.uleb128 0x13
 4269 09df 01       		.uleb128 0x1
 4270 09e0 52       		.byte	0x52
 4271 09e1 01       		.uleb128 0x1
 4272 09e2 46       		.byte	0x46
 4273 09e3 13       		.uleb128 0x13
 4274 09e4 01       		.uleb128 0x1
 4275 09e5 51       		.byte	0x51
 4276 09e6 02       		.uleb128 0x2
 4277 09e7 74       		.byte	0x74
 4278 09e8 78       		.sleb128 -8
 4279 09e9 13       		.uleb128 0x13
 4280 09ea 01       		.uleb128 0x1
 4281 09eb 50       		.byte	0x50
ARM GAS  C:\Users\RECEPC~1\AppData\Local\Temp\ccBlh02k.s 			page 91


 4282 09ec 01       		.uleb128 0x1
 4283 09ed 31       		.byte	0x31
 4284 09ee 00       		.byte	0
 4285 09ef 12       		.uleb128 0x12
 4286 09f0 84010000 		.4byte	.LVL26
 4287 09f4 5E1C0000 		.4byte	0x1c5e
 4288 09f8 080A0000 		.4byte	0xa08
 4289 09fc 13       		.uleb128 0x13
 4290 09fd 01       		.uleb128 0x1
 4291 09fe 51       		.byte	0x51
 4292 09ff 02       		.uleb128 0x2
 4293 0a00 08       		.byte	0x8
 4294 0a01 2E       		.byte	0x2e
 4295 0a02 13       		.uleb128 0x13
 4296 0a03 01       		.uleb128 0x1
 4297 0a04 50       		.byte	0x50
 4298 0a05 01       		.uleb128 0x1
 4299 0a06 31       		.byte	0x31
 4300 0a07 00       		.byte	0
 4301 0a08 12       		.uleb128 0x12
 4302 0a09 8E010000 		.4byte	.LVL27
 4303 0a0d 741C0000 		.4byte	0x1c74
 4304 0a11 260A0000 		.4byte	0xa26
 4305 0a15 13       		.uleb128 0x13
 4306 0a16 01       		.uleb128 0x1
 4307 0a17 52       		.byte	0x52
 4308 0a18 01       		.uleb128 0x1
 4309 0a19 30       		.byte	0x30
 4310 0a1a 13       		.uleb128 0x13
 4311 0a1b 01       		.uleb128 0x1
 4312 0a1c 51       		.byte	0x51
 4313 0a1d 02       		.uleb128 0x2
 4314 0a1e 91       		.byte	0x91
 4315 0a1f 6C       		.sleb128 -20
 4316 0a20 13       		.uleb128 0x13
 4317 0a21 01       		.uleb128 0x1
 4318 0a22 50       		.byte	0x50
 4319 0a23 01       		.uleb128 0x1
 4320 0a24 31       		.byte	0x31
 4321 0a25 00       		.byte	0
 4322 0a26 12       		.uleb128 0x12
 4323 0a27 96010000 		.4byte	.LVL28
 4324 0a2b 951C0000 		.4byte	0x1c95
 4325 0a2f 3B0A0000 		.4byte	0xa3b
 4326 0a33 13       		.uleb128 0x13
 4327 0a34 01       		.uleb128 0x1
 4328 0a35 50       		.byte	0x50
 4329 0a36 03       		.uleb128 0x3
 4330 0a37 0A       		.byte	0xa
 4331 0a38 2C01     		.2byte	0x12c
 4332 0a3a 00       		.byte	0
 4333 0a3b 12       		.uleb128 0x12
 4334 0a3c BC010000 		.4byte	.LVL29
 4335 0a40 741C0000 		.4byte	0x1c74
 4336 0a44 590A0000 		.4byte	0xa59
 4337 0a48 13       		.uleb128 0x13
 4338 0a49 01       		.uleb128 0x1
ARM GAS  C:\Users\RECEPC~1\AppData\Local\Temp\ccBlh02k.s 			page 92


 4339 0a4a 52       		.byte	0x52
 4340 0a4b 01       		.uleb128 0x1
 4341 0a4c 30       		.byte	0x30
 4342 0a4d 13       		.uleb128 0x13
 4343 0a4e 01       		.uleb128 0x1
 4344 0a4f 51       		.byte	0x51
 4345 0a50 02       		.uleb128 0x2
 4346 0a51 91       		.byte	0x91
 4347 0a52 60       		.sleb128 -32
 4348 0a53 13       		.uleb128 0x13
 4349 0a54 01       		.uleb128 0x1
 4350 0a55 50       		.byte	0x50
 4351 0a56 01       		.uleb128 0x1
 4352 0a57 31       		.byte	0x31
 4353 0a58 00       		.byte	0
 4354 0a59 12       		.uleb128 0x12
 4355 0a5a E4010000 		.4byte	.LVL30
 4356 0a5e 741C0000 		.4byte	0x1c74
 4357 0a62 770A0000 		.4byte	0xa77
 4358 0a66 13       		.uleb128 0x13
 4359 0a67 01       		.uleb128 0x1
 4360 0a68 52       		.byte	0x52
 4361 0a69 01       		.uleb128 0x1
 4362 0a6a 30       		.byte	0x30
 4363 0a6b 13       		.uleb128 0x13
 4364 0a6c 01       		.uleb128 0x1
 4365 0a6d 51       		.byte	0x51
 4366 0a6e 02       		.uleb128 0x2
 4367 0a6f 91       		.byte	0x91
 4368 0a70 54       		.sleb128 -44
 4369 0a71 13       		.uleb128 0x13
 4370 0a72 01       		.uleb128 0x1
 4371 0a73 50       		.byte	0x50
 4372 0a74 01       		.uleb128 0x1
 4373 0a75 31       		.byte	0x31
 4374 0a76 00       		.byte	0
 4375 0a77 12       		.uleb128 0x12
 4376 0a78 0C020000 		.4byte	.LVL31
 4377 0a7c 741C0000 		.4byte	0x1c74
 4378 0a80 950A0000 		.4byte	0xa95
 4379 0a84 13       		.uleb128 0x13
 4380 0a85 01       		.uleb128 0x1
 4381 0a86 52       		.byte	0x52
 4382 0a87 01       		.uleb128 0x1
 4383 0a88 30       		.byte	0x30
 4384 0a89 13       		.uleb128 0x13
 4385 0a8a 01       		.uleb128 0x1
 4386 0a8b 51       		.byte	0x51
 4387 0a8c 02       		.uleb128 0x2
 4388 0a8d 91       		.byte	0x91
 4389 0a8e 48       		.sleb128 -56
 4390 0a8f 13       		.uleb128 0x13
 4391 0a90 01       		.uleb128 0x1
 4392 0a91 50       		.byte	0x50
 4393 0a92 01       		.uleb128 0x1
 4394 0a93 31       		.byte	0x31
 4395 0a94 00       		.byte	0
ARM GAS  C:\Users\RECEPC~1\AppData\Local\Temp\ccBlh02k.s 			page 93


 4396 0a95 12       		.uleb128 0x12
 4397 0a96 34020000 		.4byte	.LVL32
 4398 0a9a 741C0000 		.4byte	0x1c74
 4399 0a9e B40A0000 		.4byte	0xab4
 4400 0aa2 13       		.uleb128 0x13
 4401 0aa3 01       		.uleb128 0x1
 4402 0aa4 52       		.byte	0x52
 4403 0aa5 01       		.uleb128 0x1
 4404 0aa6 30       		.byte	0x30
 4405 0aa7 13       		.uleb128 0x13
 4406 0aa8 01       		.uleb128 0x1
 4407 0aa9 51       		.byte	0x51
 4408 0aaa 03       		.uleb128 0x3
 4409 0aab 91       		.byte	0x91
 4410 0aac BC7F     		.sleb128 -68
 4411 0aae 13       		.uleb128 0x13
 4412 0aaf 01       		.uleb128 0x1
 4413 0ab0 50       		.byte	0x50
 4414 0ab1 01       		.uleb128 0x1
 4415 0ab2 31       		.byte	0x31
 4416 0ab3 00       		.byte	0
 4417 0ab4 12       		.uleb128 0x12
 4418 0ab5 46020000 		.4byte	.LVL33
 4419 0ab9 741C0000 		.4byte	0x1c74
 4420 0abd D30A0000 		.4byte	0xad3
 4421 0ac1 13       		.uleb128 0x13
 4422 0ac2 01       		.uleb128 0x1
 4423 0ac3 52       		.byte	0x52
 4424 0ac4 01       		.uleb128 0x1
 4425 0ac5 46       		.byte	0x46
 4426 0ac6 13       		.uleb128 0x13
 4427 0ac7 01       		.uleb128 0x1
 4428 0ac8 51       		.byte	0x51
 4429 0ac9 03       		.uleb128 0x3
 4430 0aca 91       		.byte	0x91
 4431 0acb A47F     		.sleb128 -92
 4432 0acd 13       		.uleb128 0x13
 4433 0ace 01       		.uleb128 0x1
 4434 0acf 50       		.byte	0x50
 4435 0ad0 01       		.uleb128 0x1
 4436 0ad1 31       		.byte	0x31
 4437 0ad2 00       		.byte	0
 4438 0ad3 12       		.uleb128 0x12
 4439 0ad4 58020000 		.4byte	.LVL34
 4440 0ad8 741C0000 		.4byte	0x1c74
 4441 0adc F20A0000 		.4byte	0xaf2
 4442 0ae0 13       		.uleb128 0x13
 4443 0ae1 01       		.uleb128 0x1
 4444 0ae2 52       		.byte	0x52
 4445 0ae3 01       		.uleb128 0x1
 4446 0ae4 46       		.byte	0x46
 4447 0ae5 13       		.uleb128 0x13
 4448 0ae6 01       		.uleb128 0x1
 4449 0ae7 51       		.byte	0x51
 4450 0ae8 03       		.uleb128 0x3
 4451 0ae9 91       		.byte	0x91
 4452 0aea 987F     		.sleb128 -104
ARM GAS  C:\Users\RECEPC~1\AppData\Local\Temp\ccBlh02k.s 			page 94


 4453 0aec 13       		.uleb128 0x13
 4454 0aed 01       		.uleb128 0x1
 4455 0aee 50       		.byte	0x50
 4456 0aef 01       		.uleb128 0x1
 4457 0af0 31       		.byte	0x31
 4458 0af1 00       		.byte	0
 4459 0af2 14       		.uleb128 0x14
 4460 0af3 68020000 		.4byte	.LVL35
 4461 0af7 5E1C0000 		.4byte	0x1c5e
 4462 0afb 13       		.uleb128 0x13
 4463 0afc 01       		.uleb128 0x1
 4464 0afd 51       		.byte	0x51
 4465 0afe 01       		.uleb128 0x1
 4466 0aff 30       		.byte	0x30
 4467 0b00 13       		.uleb128 0x13
 4468 0b01 01       		.uleb128 0x1
 4469 0b02 50       		.byte	0x50
 4470 0b03 01       		.uleb128 0x1
 4471 0b04 31       		.byte	0x31
 4472 0b05 00       		.byte	0
 4473 0b06 00       		.byte	0
 4474 0b07 07       		.uleb128 0x7
 4475 0b08 8C000000 		.4byte	0x8c
 4476 0b0c 170B0000 		.4byte	0xb17
 4477 0b10 08       		.uleb128 0x8
 4478 0b11 14010000 		.4byte	0x114
 4479 0b15 09       		.byte	0x9
 4480 0b16 00       		.byte	0
 4481 0b17 10       		.uleb128 0x10
 4482 0b18 74070000 		.4byte	.LASF157
 4483 0b1c 01       		.byte	0x1
 4484 0b1d 9E       		.byte	0x9e
 4485 0b1e 00000000 		.4byte	.LFB66
 4486 0b22 50000000 		.4byte	.LFE66-.LFB66
 4487 0b26 01       		.uleb128 0x1
 4488 0b27 9C       		.byte	0x9c
 4489 0b28 930B0000 		.4byte	0xb93
 4490 0b2c 12       		.uleb128 0x12
 4491 0b2d 12000000 		.4byte	.LVL36
 4492 0b31 5E1C0000 		.4byte	0x1c5e
 4493 0b35 440B0000 		.4byte	0xb44
 4494 0b39 13       		.uleb128 0x13
 4495 0b3a 01       		.uleb128 0x1
 4496 0b3b 51       		.byte	0x51
 4497 0b3c 01       		.uleb128 0x1
 4498 0b3d 31       		.byte	0x31
 4499 0b3e 13       		.uleb128 0x13
 4500 0b3f 01       		.uleb128 0x1
 4501 0b40 50       		.byte	0x50
 4502 0b41 01       		.uleb128 0x1
 4503 0b42 32       		.byte	0x32
 4504 0b43 00       		.byte	0
 4505 0b44 12       		.uleb128 0x12
 4506 0b45 28000000 		.4byte	.LVL37
 4507 0b49 5E1C0000 		.4byte	0x1c5e
 4508 0b4d 5D0B0000 		.4byte	0xb5d
 4509 0b51 13       		.uleb128 0x13
ARM GAS  C:\Users\RECEPC~1\AppData\Local\Temp\ccBlh02k.s 			page 95


 4510 0b52 01       		.uleb128 0x1
 4511 0b53 51       		.byte	0x51
 4512 0b54 02       		.uleb128 0x2
 4513 0b55 08       		.byte	0x8
 4514 0b56 2E       		.byte	0x2e
 4515 0b57 13       		.uleb128 0x13
 4516 0b58 01       		.uleb128 0x1
 4517 0b59 50       		.byte	0x50
 4518 0b5a 01       		.uleb128 0x1
 4519 0b5b 32       		.byte	0x32
 4520 0b5c 00       		.byte	0
 4521 0b5d 12       		.uleb128 0x12
 4522 0b5e 38000000 		.4byte	.LVL38
 4523 0b62 5E1C0000 		.4byte	0x1c5e
 4524 0b66 750B0000 		.4byte	0xb75
 4525 0b6a 13       		.uleb128 0x13
 4526 0b6b 01       		.uleb128 0x1
 4527 0b6c 51       		.byte	0x51
 4528 0b6d 01       		.uleb128 0x1
 4529 0b6e 30       		.byte	0x30
 4530 0b6f 13       		.uleb128 0x13
 4531 0b70 01       		.uleb128 0x1
 4532 0b71 50       		.byte	0x50
 4533 0b72 01       		.uleb128 0x1
 4534 0b73 32       		.byte	0x32
 4535 0b74 00       		.byte	0
 4536 0b75 14       		.uleb128 0x14
 4537 0b76 42000000 		.4byte	.LVL39
 4538 0b7a 741C0000 		.4byte	0x1c74
 4539 0b7e 13       		.uleb128 0x13
 4540 0b7f 01       		.uleb128 0x1
 4541 0b80 52       		.byte	0x52
 4542 0b81 01       		.uleb128 0x1
 4543 0b82 30       		.byte	0x30
 4544 0b83 13       		.uleb128 0x13
 4545 0b84 01       		.uleb128 0x1
 4546 0b85 51       		.byte	0x51
 4547 0b86 05       		.uleb128 0x5
 4548 0b87 03       		.byte	0x3
 4549 0b88 00000000 		.4byte	.LANCHOR1
 4550 0b8c 13       		.uleb128 0x13
 4551 0b8d 01       		.uleb128 0x1
 4552 0b8e 50       		.byte	0x50
 4553 0b8f 01       		.uleb128 0x1
 4554 0b90 32       		.byte	0x32
 4555 0b91 00       		.byte	0
 4556 0b92 00       		.byte	0
 4557 0b93 10       		.uleb128 0x10
 4558 0b94 A3030000 		.4byte	.LASF158
 4559 0b98 01       		.byte	0x1
 4560 0b99 B5       		.byte	0xb5
 4561 0b9a 00000000 		.4byte	.LFB67
 4562 0b9e C4000000 		.4byte	.LFE67-.LFB67
 4563 0ba2 01       		.uleb128 0x1
 4564 0ba3 9C       		.byte	0x9c
 4565 0ba4 C00C0000 		.4byte	0xcc0
 4566 0ba8 11       		.uleb128 0x11
ARM GAS  C:\Users\RECEPC~1\AppData\Local\Temp\ccBlh02k.s 			page 96


 4567 0ba9 06000000 		.4byte	.LVL40
 4568 0bad A61C0000 		.4byte	0x1ca6
 4569 0bb1 11       		.uleb128 0x11
 4570 0bb2 16000000 		.4byte	.LVL41
 4571 0bb6 B11C0000 		.4byte	0x1cb1
 4572 0bba 11       		.uleb128 0x11
 4573 0bbb 1A000000 		.4byte	.LVL42
 4574 0bbf C61C0000 		.4byte	0x1cc6
 4575 0bc3 12       		.uleb128 0x12
 4576 0bc4 24000000 		.4byte	.LVL43
 4577 0bc8 5E1C0000 		.4byte	0x1c5e
 4578 0bcc DB0B0000 		.4byte	0xbdb
 4579 0bd0 13       		.uleb128 0x13
 4580 0bd1 01       		.uleb128 0x1
 4581 0bd2 51       		.byte	0x51
 4582 0bd3 01       		.uleb128 0x1
 4583 0bd4 30       		.byte	0x30
 4584 0bd5 13       		.uleb128 0x13
 4585 0bd6 01       		.uleb128 0x1
 4586 0bd7 50       		.byte	0x50
 4587 0bd8 01       		.uleb128 0x1
 4588 0bd9 31       		.byte	0x31
 4589 0bda 00       		.byte	0
 4590 0bdb 12       		.uleb128 0x12
 4591 0bdc 2C000000 		.4byte	.LVL44
 4592 0be0 5E1C0000 		.4byte	0x1c5e
 4593 0be4 F30B0000 		.4byte	0xbf3
 4594 0be8 13       		.uleb128 0x13
 4595 0be9 01       		.uleb128 0x1
 4596 0bea 51       		.byte	0x51
 4597 0beb 01       		.uleb128 0x1
 4598 0bec 30       		.byte	0x30
 4599 0bed 13       		.uleb128 0x13
 4600 0bee 01       		.uleb128 0x1
 4601 0bef 50       		.byte	0x50
 4602 0bf0 01       		.uleb128 0x1
 4603 0bf1 32       		.byte	0x32
 4604 0bf2 00       		.byte	0
 4605 0bf3 11       		.uleb128 0x11
 4606 0bf4 3C000000 		.4byte	.LVL45
 4607 0bf8 B11C0000 		.4byte	0x1cb1
 4608 0bfc 11       		.uleb128 0x11
 4609 0bfd 40000000 		.4byte	.LVL46
 4610 0c01 C61C0000 		.4byte	0x1cc6
 4611 0c05 12       		.uleb128 0x12
 4612 0c06 4A000000 		.4byte	.LVL47
 4613 0c0a 5E1C0000 		.4byte	0x1c5e
 4614 0c0e 1D0C0000 		.4byte	0xc1d
 4615 0c12 13       		.uleb128 0x13
 4616 0c13 01       		.uleb128 0x1
 4617 0c14 51       		.byte	0x51
 4618 0c15 01       		.uleb128 0x1
 4619 0c16 30       		.byte	0x30
 4620 0c17 13       		.uleb128 0x13
 4621 0c18 01       		.uleb128 0x1
 4622 0c19 50       		.byte	0x50
 4623 0c1a 01       		.uleb128 0x1
ARM GAS  C:\Users\RECEPC~1\AppData\Local\Temp\ccBlh02k.s 			page 97


 4624 0c1b 31       		.byte	0x31
 4625 0c1c 00       		.byte	0
 4626 0c1d 12       		.uleb128 0x12
 4627 0c1e 52000000 		.4byte	.LVL48
 4628 0c22 5E1C0000 		.4byte	0x1c5e
 4629 0c26 350C0000 		.4byte	0xc35
 4630 0c2a 13       		.uleb128 0x13
 4631 0c2b 01       		.uleb128 0x1
 4632 0c2c 51       		.byte	0x51
 4633 0c2d 01       		.uleb128 0x1
 4634 0c2e 30       		.byte	0x30
 4635 0c2f 13       		.uleb128 0x13
 4636 0c30 01       		.uleb128 0x1
 4637 0c31 50       		.byte	0x50
 4638 0c32 01       		.uleb128 0x1
 4639 0c33 32       		.byte	0x32
 4640 0c34 00       		.byte	0
 4641 0c35 11       		.uleb128 0x11
 4642 0c36 60000000 		.4byte	.LVL49
 4643 0c3a B11C0000 		.4byte	0x1cb1
 4644 0c3e 11       		.uleb128 0x11
 4645 0c3f 64000000 		.4byte	.LVL50
 4646 0c43 C61C0000 		.4byte	0x1cc6
 4647 0c47 11       		.uleb128 0x11
 4648 0c48 70000000 		.4byte	.LVL51
 4649 0c4c B11C0000 		.4byte	0x1cb1
 4650 0c50 11       		.uleb128 0x11
 4651 0c51 74000000 		.4byte	.LVL52
 4652 0c55 C61C0000 		.4byte	0x1cc6
 4653 0c59 11       		.uleb128 0x11
 4654 0c5a 7A000000 		.4byte	.LVL53
 4655 0c5e A61C0000 		.4byte	0x1ca6
 4656 0c62 11       		.uleb128 0x11
 4657 0c63 86000000 		.4byte	.LVL54
 4658 0c67 B11C0000 		.4byte	0x1cb1
 4659 0c6b 11       		.uleb128 0x11
 4660 0c6c 94000000 		.4byte	.LVL55
 4661 0c70 B11C0000 		.4byte	0x1cb1
 4662 0c74 11       		.uleb128 0x11
 4663 0c75 A0000000 		.4byte	.LVL56
 4664 0c79 E21C0000 		.4byte	0x1ce2
 4665 0c7d 11       		.uleb128 0x11
 4666 0c7e A4000000 		.4byte	.LVL57
 4667 0c82 6E070000 		.4byte	0x76e
 4668 0c86 12       		.uleb128 0x12
 4669 0c87 AE000000 		.4byte	.LVL58
 4670 0c8b 5E1C0000 		.4byte	0x1c5e
 4671 0c8f 9E0C0000 		.4byte	0xc9e
 4672 0c93 13       		.uleb128 0x13
 4673 0c94 01       		.uleb128 0x1
 4674 0c95 51       		.byte	0x51
 4675 0c96 01       		.uleb128 0x1
 4676 0c97 39       		.byte	0x39
 4677 0c98 13       		.uleb128 0x13
 4678 0c99 01       		.uleb128 0x1
 4679 0c9a 50       		.byte	0x50
 4680 0c9b 01       		.uleb128 0x1
ARM GAS  C:\Users\RECEPC~1\AppData\Local\Temp\ccBlh02k.s 			page 98


 4681 0c9c 31       		.byte	0x31
 4682 0c9d 00       		.byte	0
 4683 0c9e 12       		.uleb128 0x12
 4684 0c9f B6000000 		.4byte	.LVL59
 4685 0ca3 5E1C0000 		.4byte	0x1c5e
 4686 0ca7 B60C0000 		.4byte	0xcb6
 4687 0cab 13       		.uleb128 0x13
 4688 0cac 01       		.uleb128 0x1
 4689 0cad 51       		.byte	0x51
 4690 0cae 01       		.uleb128 0x1
 4691 0caf 39       		.byte	0x39
 4692 0cb0 13       		.uleb128 0x13
 4693 0cb1 01       		.uleb128 0x1
 4694 0cb2 50       		.byte	0x50
 4695 0cb3 01       		.uleb128 0x1
 4696 0cb4 32       		.byte	0x32
 4697 0cb5 00       		.byte	0
 4698 0cb6 11       		.uleb128 0x11
 4699 0cb7 BA000000 		.4byte	.LVL60
 4700 0cbb 930B0000 		.4byte	0xb93
 4701 0cbf 00       		.byte	0
 4702 0cc0 10       		.uleb128 0x10
 4703 0cc1 B1030000 		.4byte	.LASF159
 4704 0cc5 01       		.byte	0x1
 4705 0cc6 D9       		.byte	0xd9
 4706 0cc7 00000000 		.4byte	.LFB68
 4707 0ccb 7C000000 		.4byte	.LFE68-.LFB68
 4708 0ccf 01       		.uleb128 0x1
 4709 0cd0 9C       		.byte	0x9c
 4710 0cd1 BF0D0000 		.4byte	0xdbf
 4711 0cd5 15       		.uleb128 0x15
 4712 0cd6 BD050000 		.4byte	.LASF160
 4713 0cda 01       		.byte	0x1
 4714 0cdb DA       		.byte	0xda
 4715 0cdc BF0D0000 		.4byte	0xdbf
 4716 0ce0 02       		.uleb128 0x2
 4717 0ce1 91       		.byte	0x91
 4718 0ce2 5C       		.sleb128 -36
 4719 0ce3 16       		.uleb128 0x16
 4720 0ce4 7800     		.ascii	"x\000"
 4721 0ce6 01       		.byte	0x1
 4722 0ce7 DB       		.byte	0xdb
 4723 0ce8 AD000000 		.4byte	0xad
 4724 0cec 00000000 		.4byte	.LLST0
 4725 0cf0 12       		.uleb128 0x12
 4726 0cf1 22000000 		.4byte	.LVL63
 4727 0cf5 F71C0000 		.4byte	0x1cf7
 4728 0cf9 110D0000 		.4byte	0xd11
 4729 0cfd 13       		.uleb128 0x13
 4730 0cfe 01       		.uleb128 0x1
 4731 0cff 51       		.byte	0x51
 4732 0d00 0A       		.uleb128 0xa
 4733 0d01 91       		.byte	0x91
 4734 0d02 00       		.sleb128 0
 4735 0d03 74       		.byte	0x74
 4736 0d04 00       		.sleb128 0
 4737 0d05 22       		.byte	0x22
ARM GAS  C:\Users\RECEPC~1\AppData\Local\Temp\ccBlh02k.s 			page 99


 4738 0d06 08       		.byte	0x8
 4739 0d07 24       		.byte	0x24
 4740 0d08 1C       		.byte	0x1c
 4741 0d09 94       		.byte	0x94
 4742 0d0a 01       		.byte	0x1
 4743 0d0b 13       		.uleb128 0x13
 4744 0d0c 01       		.uleb128 0x1
 4745 0d0d 50       		.byte	0x50
 4746 0d0e 01       		.uleb128 0x1
 4747 0d0f 31       		.byte	0x31
 4748 0d10 00       		.byte	0
 4749 0d11 12       		.uleb128 0x12
 4750 0d12 32000000 		.4byte	.LVL66
 4751 0d16 F71C0000 		.4byte	0x1cf7
 4752 0d1a 290D0000 		.4byte	0xd29
 4753 0d1e 13       		.uleb128 0x13
 4754 0d1f 01       		.uleb128 0x1
 4755 0d20 51       		.byte	0x51
 4756 0d21 01       		.uleb128 0x1
 4757 0d22 3A       		.byte	0x3a
 4758 0d23 13       		.uleb128 0x13
 4759 0d24 01       		.uleb128 0x1
 4760 0d25 50       		.byte	0x50
 4761 0d26 01       		.uleb128 0x1
 4762 0d27 31       		.byte	0x31
 4763 0d28 00       		.byte	0
 4764 0d29 12       		.uleb128 0x12
 4765 0d2a 3A000000 		.4byte	.LVL67
 4766 0d2e F71C0000 		.4byte	0x1cf7
 4767 0d32 410D0000 		.4byte	0xd41
 4768 0d36 13       		.uleb128 0x13
 4769 0d37 01       		.uleb128 0x1
 4770 0d38 51       		.byte	0x51
 4771 0d39 01       		.uleb128 0x1
 4772 0d3a 3A       		.byte	0x3a
 4773 0d3b 13       		.uleb128 0x13
 4774 0d3c 01       		.uleb128 0x1
 4775 0d3d 50       		.byte	0x50
 4776 0d3e 01       		.uleb128 0x1
 4777 0d3f 31       		.byte	0x31
 4778 0d40 00       		.byte	0
 4779 0d41 12       		.uleb128 0x12
 4780 0d42 42000000 		.4byte	.LVL68
 4781 0d46 F71C0000 		.4byte	0x1cf7
 4782 0d4a 590D0000 		.4byte	0xd59
 4783 0d4e 13       		.uleb128 0x13
 4784 0d4f 01       		.uleb128 0x1
 4785 0d50 51       		.byte	0x51
 4786 0d51 01       		.uleb128 0x1
 4787 0d52 3A       		.byte	0x3a
 4788 0d53 13       		.uleb128 0x13
 4789 0d54 01       		.uleb128 0x1
 4790 0d55 50       		.byte	0x50
 4791 0d56 01       		.uleb128 0x1
 4792 0d57 31       		.byte	0x31
 4793 0d58 00       		.byte	0
 4794 0d59 12       		.uleb128 0x12
ARM GAS  C:\Users\RECEPC~1\AppData\Local\Temp\ccBlh02k.s 			page 100


 4795 0d5a 54000000 		.4byte	.LVL70
 4796 0d5e F71C0000 		.4byte	0x1cf7
 4797 0d62 7A0D0000 		.4byte	0xd7a
 4798 0d66 13       		.uleb128 0x13
 4799 0d67 01       		.uleb128 0x1
 4800 0d68 51       		.byte	0x51
 4801 0d69 0A       		.uleb128 0xa
 4802 0d6a 91       		.byte	0x91
 4803 0d6b 00       		.sleb128 0
 4804 0d6c 74       		.byte	0x74
 4805 0d6d 00       		.sleb128 0
 4806 0d6e 22       		.byte	0x22
 4807 0d6f 08       		.byte	0x8
 4808 0d70 24       		.byte	0x24
 4809 0d71 1C       		.byte	0x1c
 4810 0d72 94       		.byte	0x94
 4811 0d73 01       		.byte	0x1
 4812 0d74 13       		.uleb128 0x13
 4813 0d75 01       		.uleb128 0x1
 4814 0d76 50       		.byte	0x50
 4815 0d77 01       		.uleb128 0x1
 4816 0d78 32       		.byte	0x32
 4817 0d79 00       		.byte	0
 4818 0d7a 12       		.uleb128 0x12
 4819 0d7b 64000000 		.4byte	.LVL73
 4820 0d7f F71C0000 		.4byte	0x1cf7
 4821 0d83 920D0000 		.4byte	0xd92
 4822 0d87 13       		.uleb128 0x13
 4823 0d88 01       		.uleb128 0x1
 4824 0d89 51       		.byte	0x51
 4825 0d8a 01       		.uleb128 0x1
 4826 0d8b 3A       		.byte	0x3a
 4827 0d8c 13       		.uleb128 0x13
 4828 0d8d 01       		.uleb128 0x1
 4829 0d8e 50       		.byte	0x50
 4830 0d8f 01       		.uleb128 0x1
 4831 0d90 32       		.byte	0x32
 4832 0d91 00       		.byte	0
 4833 0d92 12       		.uleb128 0x12
 4834 0d93 6C000000 		.4byte	.LVL74
 4835 0d97 F71C0000 		.4byte	0x1cf7
 4836 0d9b AA0D0000 		.4byte	0xdaa
 4837 0d9f 13       		.uleb128 0x13
 4838 0da0 01       		.uleb128 0x1
 4839 0da1 51       		.byte	0x51
 4840 0da2 01       		.uleb128 0x1
 4841 0da3 3A       		.byte	0x3a
 4842 0da4 13       		.uleb128 0x13
 4843 0da5 01       		.uleb128 0x1
 4844 0da6 50       		.byte	0x50
 4845 0da7 01       		.uleb128 0x1
 4846 0da8 32       		.byte	0x32
 4847 0da9 00       		.byte	0
 4848 0daa 14       		.uleb128 0x14
 4849 0dab 74000000 		.4byte	.LVL75
 4850 0daf F71C0000 		.4byte	0x1cf7
 4851 0db3 13       		.uleb128 0x13
ARM GAS  C:\Users\RECEPC~1\AppData\Local\Temp\ccBlh02k.s 			page 101


 4852 0db4 01       		.uleb128 0x1
 4853 0db5 51       		.byte	0x51
 4854 0db6 01       		.uleb128 0x1
 4855 0db7 3A       		.byte	0x3a
 4856 0db8 13       		.uleb128 0x13
 4857 0db9 01       		.uleb128 0x1
 4858 0dba 50       		.byte	0x50
 4859 0dbb 01       		.uleb128 0x1
 4860 0dbc 32       		.byte	0x32
 4861 0dbd 00       		.byte	0
 4862 0dbe 00       		.byte	0
 4863 0dbf 07       		.uleb128 0x7
 4864 0dc0 AD000000 		.4byte	0xad
 4865 0dc4 CF0D0000 		.4byte	0xdcf
 4866 0dc8 08       		.uleb128 0x8
 4867 0dc9 14010000 		.4byte	0x114
 4868 0dcd 10       		.byte	0x10
 4869 0dce 00       		.byte	0
 4870 0dcf 17       		.uleb128 0x17
 4871 0dd0 DE070000 		.4byte	.LASF161
 4872 0dd4 01       		.byte	0x1
 4873 0dd5 F4       		.byte	0xf4
 4874 0dd6 00000000 		.4byte	.LFB69
 4875 0dda EC000000 		.4byte	.LFE69-.LFB69
 4876 0dde 01       		.uleb128 0x1
 4877 0ddf 9C       		.byte	0x9c
 4878 0de0 D50E0000 		.4byte	0xed5
 4879 0de4 16       		.uleb128 0x16
 4880 0de5 7800     		.ascii	"x\000"
 4881 0de7 01       		.byte	0x1
 4882 0de8 F5       		.byte	0xf5
 4883 0de9 AD000000 		.4byte	0xad
 4884 0ded 4C000000 		.4byte	.LLST1
 4885 0df1 11       		.uleb128 0x11
 4886 0df2 0A000000 		.4byte	.LVL77
 4887 0df6 B11C0000 		.4byte	0x1cb1
 4888 0dfa 11       		.uleb128 0x11
 4889 0dfb 0E000000 		.4byte	.LVL78
 4890 0dff C61C0000 		.4byte	0x1cc6
 4891 0e03 11       		.uleb128 0x11
 4892 0e04 1A000000 		.4byte	.LVL79
 4893 0e08 B11C0000 		.4byte	0x1cb1
 4894 0e0c 11       		.uleb128 0x11
 4895 0e0d 1E000000 		.4byte	.LVL80
 4896 0e11 C61C0000 		.4byte	0x1cc6
 4897 0e15 11       		.uleb128 0x11
 4898 0e16 46000000 		.4byte	.LVL87
 4899 0e1a B11C0000 		.4byte	0x1cb1
 4900 0e1e 11       		.uleb128 0x11
 4901 0e1f 52000000 		.4byte	.LVL88
 4902 0e23 B11C0000 		.4byte	0x1cb1
 4903 0e27 11       		.uleb128 0x11
 4904 0e28 64000000 		.4byte	.LVL89
 4905 0e2c B11C0000 		.4byte	0x1cb1
 4906 0e30 11       		.uleb128 0x11
 4907 0e31 70000000 		.4byte	.LVL90
 4908 0e35 B11C0000 		.4byte	0x1cb1
ARM GAS  C:\Users\RECEPC~1\AppData\Local\Temp\ccBlh02k.s 			page 102


 4909 0e39 11       		.uleb128 0x11
 4910 0e3a 7A000000 		.4byte	.LVL91
 4911 0e3e B11C0000 		.4byte	0x1cb1
 4912 0e42 11       		.uleb128 0x11
 4913 0e43 84000000 		.4byte	.LVL92
 4914 0e47 B11C0000 		.4byte	0x1cb1
 4915 0e4b 11       		.uleb128 0x11
 4916 0e4c 90000000 		.4byte	.LVL93
 4917 0e50 930B0000 		.4byte	0xb93
 4918 0e54 11       		.uleb128 0x11
 4919 0e55 98000000 		.4byte	.LVL94
 4920 0e59 B11C0000 		.4byte	0x1cb1
 4921 0e5d 11       		.uleb128 0x11
 4922 0e5e 9C000000 		.4byte	.LVL95
 4923 0e62 C61C0000 		.4byte	0x1cc6
 4924 0e66 12       		.uleb128 0x12
 4925 0e67 A6000000 		.4byte	.LVL96
 4926 0e6b 5E1C0000 		.4byte	0x1c5e
 4927 0e6f 7E0E0000 		.4byte	0xe7e
 4928 0e73 13       		.uleb128 0x13
 4929 0e74 01       		.uleb128 0x1
 4930 0e75 51       		.byte	0x51
 4931 0e76 01       		.uleb128 0x1
 4932 0e77 30       		.byte	0x30
 4933 0e78 13       		.uleb128 0x13
 4934 0e79 01       		.uleb128 0x1
 4935 0e7a 50       		.byte	0x50
 4936 0e7b 01       		.uleb128 0x1
 4937 0e7c 31       		.byte	0x31
 4938 0e7d 00       		.byte	0
 4939 0e7e 12       		.uleb128 0x12
 4940 0e7f AE000000 		.4byte	.LVL97
 4941 0e83 5E1C0000 		.4byte	0x1c5e
 4942 0e87 960E0000 		.4byte	0xe96
 4943 0e8b 13       		.uleb128 0x13
 4944 0e8c 01       		.uleb128 0x1
 4945 0e8d 51       		.byte	0x51
 4946 0e8e 01       		.uleb128 0x1
 4947 0e8f 30       		.byte	0x30
 4948 0e90 13       		.uleb128 0x13
 4949 0e91 01       		.uleb128 0x1
 4950 0e92 50       		.byte	0x50
 4951 0e93 01       		.uleb128 0x1
 4952 0e94 32       		.byte	0x32
 4953 0e95 00       		.byte	0
 4954 0e96 11       		.uleb128 0x11
 4955 0e97 BE000000 		.4byte	.LVL98
 4956 0e9b B11C0000 		.4byte	0x1cb1
 4957 0e9f 11       		.uleb128 0x11
 4958 0ea0 C2000000 		.4byte	.LVL99
 4959 0ea4 C61C0000 		.4byte	0x1cc6
 4960 0ea8 12       		.uleb128 0x12
 4961 0ea9 CC000000 		.4byte	.LVL100
 4962 0ead 5E1C0000 		.4byte	0x1c5e
 4963 0eb1 C00E0000 		.4byte	0xec0
 4964 0eb5 13       		.uleb128 0x13
 4965 0eb6 01       		.uleb128 0x1
ARM GAS  C:\Users\RECEPC~1\AppData\Local\Temp\ccBlh02k.s 			page 103


 4966 0eb7 51       		.byte	0x51
 4967 0eb8 01       		.uleb128 0x1
 4968 0eb9 30       		.byte	0x30
 4969 0eba 13       		.uleb128 0x13
 4970 0ebb 01       		.uleb128 0x1
 4971 0ebc 50       		.byte	0x50
 4972 0ebd 01       		.uleb128 0x1
 4973 0ebe 31       		.byte	0x31
 4974 0ebf 00       		.byte	0
 4975 0ec0 14       		.uleb128 0x14
 4976 0ec1 D4000000 		.4byte	.LVL101
 4977 0ec5 5E1C0000 		.4byte	0x1c5e
 4978 0ec9 13       		.uleb128 0x13
 4979 0eca 01       		.uleb128 0x1
 4980 0ecb 51       		.byte	0x51
 4981 0ecc 01       		.uleb128 0x1
 4982 0ecd 30       		.byte	0x30
 4983 0ece 13       		.uleb128 0x13
 4984 0ecf 01       		.uleb128 0x1
 4985 0ed0 50       		.byte	0x50
 4986 0ed1 01       		.uleb128 0x1
 4987 0ed2 32       		.byte	0x32
 4988 0ed3 00       		.byte	0
 4989 0ed4 00       		.byte	0
 4990 0ed5 18       		.uleb128 0x18
 4991 0ed6 47020000 		.4byte	.LASF162
 4992 0eda 01       		.byte	0x1
 4993 0edb 1D01     		.2byte	0x11d
 4994 0edd 00000000 		.4byte	.LFB70
 4995 0ee1 10070000 		.4byte	.LFE70-.LFB70
 4996 0ee5 01       		.uleb128 0x1
 4997 0ee6 9C       		.byte	0x9c
 4998 0ee7 6F140000 		.4byte	0x146f
 4999 0eeb 19       		.uleb128 0x19
 5000 0eec 7800     		.ascii	"x\000"
 5001 0eee 01       		.byte	0x1
 5002 0eef 1E01     		.2byte	0x11e
 5003 0ef1 AD000000 		.4byte	0xad
 5004 0ef5 75000000 		.4byte	.LLST2
 5005 0ef9 11       		.uleb128 0x11
 5006 0efa 2A000000 		.4byte	.LVL102
 5007 0efe 18080000 		.4byte	0x818
 5008 0f02 11       		.uleb128 0x11
 5009 0f03 36000000 		.4byte	.LVL103
 5010 0f07 111D0000 		.4byte	0x1d11
 5011 0f0b 12       		.uleb128 0x12
 5012 0f0c 78000000 		.4byte	.LVL104
 5013 0f10 5E1C0000 		.4byte	0x1c5e
 5014 0f14 230F0000 		.4byte	0xf23
 5015 0f18 13       		.uleb128 0x13
 5016 0f19 01       		.uleb128 0x1
 5017 0f1a 51       		.byte	0x51
 5018 0f1b 01       		.uleb128 0x1
 5019 0f1c 34       		.byte	0x34
 5020 0f1d 13       		.uleb128 0x13
 5021 0f1e 01       		.uleb128 0x1
 5022 0f1f 50       		.byte	0x50
ARM GAS  C:\Users\RECEPC~1\AppData\Local\Temp\ccBlh02k.s 			page 104


 5023 0f20 01       		.uleb128 0x1
 5024 0f21 31       		.byte	0x31
 5025 0f22 00       		.byte	0
 5026 0f23 12       		.uleb128 0x12
 5027 0f24 82000000 		.4byte	.LVL105
 5028 0f28 5E1C0000 		.4byte	0x1c5e
 5029 0f2c 3B0F0000 		.4byte	0xf3b
 5030 0f30 13       		.uleb128 0x13
 5031 0f31 01       		.uleb128 0x1
 5032 0f32 51       		.byte	0x51
 5033 0f33 01       		.uleb128 0x1
 5034 0f34 31       		.byte	0x31
 5035 0f35 13       		.uleb128 0x13
 5036 0f36 01       		.uleb128 0x1
 5037 0f37 50       		.byte	0x50
 5038 0f38 01       		.uleb128 0x1
 5039 0f39 31       		.byte	0x31
 5040 0f3a 00       		.byte	0
 5041 0f3b 12       		.uleb128 0x12
 5042 0f3c 8E000000 		.4byte	.LVL106
 5043 0f40 951C0000 		.4byte	0x1c95
 5044 0f44 4E0F0000 		.4byte	0xf4e
 5045 0f48 13       		.uleb128 0x13
 5046 0f49 01       		.uleb128 0x1
 5047 0f4a 50       		.byte	0x50
 5048 0f4b 01       		.uleb128 0x1
 5049 0f4c 3A       		.byte	0x3a
 5050 0f4d 00       		.byte	0
 5051 0f4e 11       		.uleb128 0x11
 5052 0f4f 92000000 		.4byte	.LVL107
 5053 0f53 1C1D0000 		.4byte	0x1d1c
 5054 0f57 11       		.uleb128 0x11
 5055 0f58 98000000 		.4byte	.LVL108
 5056 0f5c 111D0000 		.4byte	0x1d11
 5057 0f60 12       		.uleb128 0x12
 5058 0f61 EA000000 		.4byte	.LVL109
 5059 0f65 5E1C0000 		.4byte	0x1c5e
 5060 0f69 780F0000 		.4byte	0xf78
 5061 0f6d 13       		.uleb128 0x13
 5062 0f6e 01       		.uleb128 0x1
 5063 0f6f 51       		.byte	0x51
 5064 0f70 01       		.uleb128 0x1
 5065 0f71 35       		.byte	0x35
 5066 0f72 13       		.uleb128 0x13
 5067 0f73 01       		.uleb128 0x1
 5068 0f74 50       		.byte	0x50
 5069 0f75 01       		.uleb128 0x1
 5070 0f76 31       		.byte	0x31
 5071 0f77 00       		.byte	0
 5072 0f78 12       		.uleb128 0x12
 5073 0f79 FA000000 		.4byte	.LVL110
 5074 0f7d 5E1C0000 		.4byte	0x1c5e
 5075 0f81 910F0000 		.4byte	0xf91
 5076 0f85 13       		.uleb128 0x13
 5077 0f86 01       		.uleb128 0x1
 5078 0f87 51       		.byte	0x51
 5079 0f88 02       		.uleb128 0x2
ARM GAS  C:\Users\RECEPC~1\AppData\Local\Temp\ccBlh02k.s 			page 105


 5080 0f89 08       		.byte	0x8
 5081 0f8a 85       		.byte	0x85
 5082 0f8b 13       		.uleb128 0x13
 5083 0f8c 01       		.uleb128 0x1
 5084 0f8d 50       		.byte	0x50
 5085 0f8e 01       		.uleb128 0x1
 5086 0f8f 31       		.byte	0x31
 5087 0f90 00       		.byte	0
 5088 0f91 12       		.uleb128 0x12
 5089 0f92 0A010000 		.4byte	.LVL111
 5090 0f96 5E1C0000 		.4byte	0x1c5e
 5091 0f9a AA0F0000 		.4byte	0xfaa
 5092 0f9e 13       		.uleb128 0x13
 5093 0f9f 01       		.uleb128 0x1
 5094 0fa0 51       		.byte	0x51
 5095 0fa1 02       		.uleb128 0x2
 5096 0fa2 08       		.byte	0x8
 5097 0fa3 83       		.byte	0x83
 5098 0fa4 13       		.uleb128 0x13
 5099 0fa5 01       		.uleb128 0x1
 5100 0fa6 50       		.byte	0x50
 5101 0fa7 01       		.uleb128 0x1
 5102 0fa8 31       		.byte	0x31
 5103 0fa9 00       		.byte	0
 5104 0faa 12       		.uleb128 0x12
 5105 0fab 1A010000 		.4byte	.LVL112
 5106 0faf 5E1C0000 		.4byte	0x1c5e
 5107 0fb3 C20F0000 		.4byte	0xfc2
 5108 0fb7 13       		.uleb128 0x13
 5109 0fb8 01       		.uleb128 0x1
 5110 0fb9 51       		.byte	0x51
 5111 0fba 01       		.uleb128 0x1
 5112 0fbb 31       		.byte	0x31
 5113 0fbc 13       		.uleb128 0x13
 5114 0fbd 01       		.uleb128 0x1
 5115 0fbe 50       		.byte	0x50
 5116 0fbf 01       		.uleb128 0x1
 5117 0fc0 31       		.byte	0x31
 5118 0fc1 00       		.byte	0
 5119 0fc2 12       		.uleb128 0x12
 5120 0fc3 2A010000 		.4byte	.LVL113
 5121 0fc7 5E1C0000 		.4byte	0x1c5e
 5122 0fcb DA0F0000 		.4byte	0xfda
 5123 0fcf 13       		.uleb128 0x13
 5124 0fd0 01       		.uleb128 0x1
 5125 0fd1 51       		.byte	0x51
 5126 0fd2 01       		.uleb128 0x1
 5127 0fd3 31       		.byte	0x31
 5128 0fd4 13       		.uleb128 0x13
 5129 0fd5 01       		.uleb128 0x1
 5130 0fd6 50       		.byte	0x50
 5131 0fd7 01       		.uleb128 0x1
 5132 0fd8 31       		.byte	0x31
 5133 0fd9 00       		.byte	0
 5134 0fda 12       		.uleb128 0x12
 5135 0fdb 30010000 		.4byte	.LVL114
 5136 0fdf 951C0000 		.4byte	0x1c95
ARM GAS  C:\Users\RECEPC~1\AppData\Local\Temp\ccBlh02k.s 			page 106


 5137 0fe3 ED0F0000 		.4byte	0xfed
 5138 0fe7 13       		.uleb128 0x13
 5139 0fe8 01       		.uleb128 0x1
 5140 0fe9 50       		.byte	0x50
 5141 0fea 01       		.uleb128 0x1
 5142 0feb 3A       		.byte	0x3a
 5143 0fec 00       		.byte	0
 5144 0fed 11       		.uleb128 0x11
 5145 0fee 34010000 		.4byte	.LVL115
 5146 0ff2 1C1D0000 		.4byte	0x1d1c
 5147 0ff6 11       		.uleb128 0x11
 5148 0ff7 3A010000 		.4byte	.LVL116
 5149 0ffb 111D0000 		.4byte	0x1d11
 5150 0fff 12       		.uleb128 0x12
 5151 1000 B4010000 		.4byte	.LVL117
 5152 1004 5E1C0000 		.4byte	0x1c5e
 5153 1008 17100000 		.4byte	0x1017
 5154 100c 13       		.uleb128 0x13
 5155 100d 01       		.uleb128 0x1
 5156 100e 51       		.byte	0x51
 5157 100f 01       		.uleb128 0x1
 5158 1010 36       		.byte	0x36
 5159 1011 13       		.uleb128 0x13
 5160 1012 01       		.uleb128 0x1
 5161 1013 50       		.byte	0x50
 5162 1014 01       		.uleb128 0x1
 5163 1015 31       		.byte	0x31
 5164 1016 00       		.byte	0
 5165 1017 12       		.uleb128 0x12
 5166 1018 C8010000 		.4byte	.LVL118
 5167 101c 231D0000 		.4byte	0x1d23
 5168 1020 4F100000 		.4byte	0x104f
 5169 1024 13       		.uleb128 0x13
 5170 1025 01       		.uleb128 0x1
 5171 1026 53       		.byte	0x53
 5172 1027 02       		.uleb128 0x2
 5173 1028 75       		.byte	0x75
 5174 1029 00       		.sleb128 0
 5175 102a 13       		.uleb128 0x13
 5176 102b 01       		.uleb128 0x1
 5177 102c 52       		.byte	0x52
 5178 102d 01       		.uleb128 0x1
 5179 102e 33       		.byte	0x33
 5180 102f 13       		.uleb128 0x13
 5181 1030 01       		.uleb128 0x1
 5182 1031 51       		.byte	0x51
 5183 1032 02       		.uleb128 0x2
 5184 1033 08       		.byte	0x8
 5185 1034 24       		.byte	0x24
 5186 1035 13       		.uleb128 0x13
 5187 1036 01       		.uleb128 0x1
 5188 1037 50       		.byte	0x50
 5189 1038 01       		.uleb128 0x1
 5190 1039 31       		.byte	0x31
 5191 103a 13       		.uleb128 0x13
 5192 103b 02       		.uleb128 0x2
 5193 103c 7D       		.byte	0x7d
ARM GAS  C:\Users\RECEPC~1\AppData\Local\Temp\ccBlh02k.s 			page 107


 5194 103d 08       		.sleb128 8
 5195 103e 02       		.uleb128 0x2
 5196 103f 08       		.byte	0x8
 5197 1040 4E       		.byte	0x4e
 5198 1041 13       		.uleb128 0x13
 5199 1042 02       		.uleb128 0x2
 5200 1043 7D       		.byte	0x7d
 5201 1044 04       		.sleb128 4
 5202 1045 02       		.uleb128 0x2
 5203 1046 74       		.byte	0x74
 5204 1047 00       		.sleb128 0
 5205 1048 13       		.uleb128 0x13
 5206 1049 02       		.uleb128 0x2
 5207 104a 7D       		.byte	0x7d
 5208 104b 00       		.sleb128 0
 5209 104c 01       		.uleb128 0x1
 5210 104d 31       		.byte	0x31
 5211 104e 00       		.byte	0
 5212 104f 12       		.uleb128 0x12
 5213 1050 F0010000 		.4byte	.LVL119
 5214 1054 5E1C0000 		.4byte	0x1c5e
 5215 1058 68100000 		.4byte	0x1068
 5216 105c 13       		.uleb128 0x13
 5217 105d 01       		.uleb128 0x1
 5218 105e 51       		.byte	0x51
 5219 105f 01       		.uleb128 0x1
 5220 1060 3D       		.byte	0x3d
 5221 1061 13       		.uleb128 0x13
 5222 1062 01       		.uleb128 0x1
 5223 1063 50       		.byte	0x50
 5224 1064 02       		.uleb128 0x2
 5225 1065 74       		.byte	0x74
 5226 1066 00       		.sleb128 0
 5227 1067 00       		.byte	0
 5228 1068 12       		.uleb128 0x12
 5229 1069 04020000 		.4byte	.LVL120
 5230 106d 231D0000 		.4byte	0x1d23
 5231 1071 A1100000 		.4byte	0x10a1
 5232 1075 13       		.uleb128 0x13
 5233 1076 01       		.uleb128 0x1
 5234 1077 53       		.byte	0x53
 5235 1078 01       		.uleb128 0x1
 5236 1079 32       		.byte	0x32
 5237 107a 13       		.uleb128 0x13
 5238 107b 01       		.uleb128 0x1
 5239 107c 52       		.byte	0x52
 5240 107d 01       		.uleb128 0x1
 5241 107e 33       		.byte	0x33
 5242 107f 13       		.uleb128 0x13
 5243 1080 01       		.uleb128 0x1
 5244 1081 51       		.byte	0x51
 5245 1082 02       		.uleb128 0x2
 5246 1083 76       		.byte	0x76
 5247 1084 00       		.sleb128 0
 5248 1085 13       		.uleb128 0x13
 5249 1086 01       		.uleb128 0x1
 5250 1087 50       		.byte	0x50
ARM GAS  C:\Users\RECEPC~1\AppData\Local\Temp\ccBlh02k.s 			page 108


 5251 1088 02       		.uleb128 0x2
 5252 1089 74       		.byte	0x74
 5253 108a 00       		.sleb128 0
 5254 108b 13       		.uleb128 0x13
 5255 108c 02       		.uleb128 0x2
 5256 108d 7D       		.byte	0x7d
 5257 108e 08       		.sleb128 8
 5258 108f 02       		.uleb128 0x2
 5259 1090 08       		.byte	0x8
 5260 1091 4E       		.byte	0x4e
 5261 1092 13       		.uleb128 0x13
 5262 1093 02       		.uleb128 0x2
 5263 1094 7D       		.byte	0x7d
 5264 1095 04       		.sleb128 4
 5265 1096 02       		.uleb128 0x2
 5266 1097 75       		.byte	0x75
 5267 1098 00       		.sleb128 0
 5268 1099 13       		.uleb128 0x13
 5269 109a 02       		.uleb128 0x2
 5270 109b 7D       		.byte	0x7d
 5271 109c 00       		.sleb128 0
 5272 109d 02       		.uleb128 0x2
 5273 109e 74       		.byte	0x74
 5274 109f 00       		.sleb128 0
 5275 10a0 00       		.byte	0
 5276 10a1 12       		.uleb128 0x12
 5277 10a2 6A020000 		.4byte	.LVL131
 5278 10a6 5E1C0000 		.4byte	0x1c5e
 5279 10aa BA100000 		.4byte	0x10ba
 5280 10ae 13       		.uleb128 0x13
 5281 10af 01       		.uleb128 0x1
 5282 10b0 51       		.byte	0x51
 5283 10b1 02       		.uleb128 0x2
 5284 10b2 08       		.byte	0x8
 5285 10b3 86       		.byte	0x86
 5286 10b4 13       		.uleb128 0x13
 5287 10b5 01       		.uleb128 0x1
 5288 10b6 50       		.byte	0x50
 5289 10b7 01       		.uleb128 0x1
 5290 10b8 31       		.byte	0x31
 5291 10b9 00       		.byte	0
 5292 10ba 12       		.uleb128 0x12
 5293 10bb 7A020000 		.4byte	.LVL132
 5294 10bf 5E1C0000 		.4byte	0x1c5e
 5295 10c3 D2100000 		.4byte	0x10d2
 5296 10c7 13       		.uleb128 0x13
 5297 10c8 01       		.uleb128 0x1
 5298 10c9 51       		.byte	0x51
 5299 10ca 01       		.uleb128 0x1
 5300 10cb 31       		.byte	0x31
 5301 10cc 13       		.uleb128 0x13
 5302 10cd 01       		.uleb128 0x1
 5303 10ce 50       		.byte	0x50
 5304 10cf 01       		.uleb128 0x1
 5305 10d0 31       		.byte	0x31
 5306 10d1 00       		.byte	0
 5307 10d2 12       		.uleb128 0x12
ARM GAS  C:\Users\RECEPC~1\AppData\Local\Temp\ccBlh02k.s 			page 109


 5308 10d3 8A020000 		.4byte	.LVL133
 5309 10d7 5E1C0000 		.4byte	0x1c5e
 5310 10db EA100000 		.4byte	0x10ea
 5311 10df 13       		.uleb128 0x13
 5312 10e0 01       		.uleb128 0x1
 5313 10e1 51       		.byte	0x51
 5314 10e2 01       		.uleb128 0x1
 5315 10e3 31       		.byte	0x31
 5316 10e4 13       		.uleb128 0x13
 5317 10e5 01       		.uleb128 0x1
 5318 10e6 50       		.byte	0x50
 5319 10e7 01       		.uleb128 0x1
 5320 10e8 31       		.byte	0x31
 5321 10e9 00       		.byte	0
 5322 10ea 12       		.uleb128 0x12
 5323 10eb 9A020000 		.4byte	.LVL134
 5324 10ef 5E1C0000 		.4byte	0x1c5e
 5325 10f3 02110000 		.4byte	0x1102
 5326 10f7 13       		.uleb128 0x13
 5327 10f8 01       		.uleb128 0x1
 5328 10f9 51       		.byte	0x51
 5329 10fa 01       		.uleb128 0x1
 5330 10fb 31       		.byte	0x31
 5331 10fc 13       		.uleb128 0x13
 5332 10fd 01       		.uleb128 0x1
 5333 10fe 50       		.byte	0x50
 5334 10ff 01       		.uleb128 0x1
 5335 1100 31       		.byte	0x31
 5336 1101 00       		.byte	0
 5337 1102 12       		.uleb128 0x12
 5338 1103 A0020000 		.4byte	.LVL135
 5339 1107 951C0000 		.4byte	0x1c95
 5340 110b 15110000 		.4byte	0x1115
 5341 110f 13       		.uleb128 0x13
 5342 1110 01       		.uleb128 0x1
 5343 1111 50       		.byte	0x50
 5344 1112 01       		.uleb128 0x1
 5345 1113 3A       		.byte	0x3a
 5346 1114 00       		.byte	0
 5347 1115 11       		.uleb128 0x11
 5348 1116 A4020000 		.4byte	.LVL136
 5349 111a 1C1D0000 		.4byte	0x1d1c
 5350 111e 12       		.uleb128 0x12
 5351 111f B2020000 		.4byte	.LVL137
 5352 1123 521D0000 		.4byte	0x1d52
 5353 1127 36110000 		.4byte	0x1136
 5354 112b 13       		.uleb128 0x13
 5355 112c 01       		.uleb128 0x1
 5356 112d 52       		.byte	0x52
 5357 112e 01       		.uleb128 0x1
 5358 112f 30       		.byte	0x30
 5359 1130 13       		.uleb128 0x13
 5360 1131 01       		.uleb128 0x1
 5361 1132 50       		.byte	0x50
 5362 1133 01       		.uleb128 0x1
 5363 1134 31       		.byte	0x31
 5364 1135 00       		.byte	0
ARM GAS  C:\Users\RECEPC~1\AppData\Local\Temp\ccBlh02k.s 			page 110


 5365 1136 12       		.uleb128 0x12
 5366 1137 C8020000 		.4byte	.LVL138
 5367 113b 5E1C0000 		.4byte	0x1c5e
 5368 113f 4E110000 		.4byte	0x114e
 5369 1143 13       		.uleb128 0x13
 5370 1144 01       		.uleb128 0x1
 5371 1145 51       		.byte	0x51
 5372 1146 01       		.uleb128 0x1
 5373 1147 31       		.byte	0x31
 5374 1148 13       		.uleb128 0x13
 5375 1149 01       		.uleb128 0x1
 5376 114a 50       		.byte	0x50
 5377 114b 01       		.uleb128 0x1
 5378 114c 31       		.byte	0x31
 5379 114d 00       		.byte	0
 5380 114e 12       		.uleb128 0x12
 5381 114f 18030000 		.4byte	.LVL145
 5382 1153 5E1C0000 		.4byte	0x1c5e
 5383 1157 67110000 		.4byte	0x1167
 5384 115b 13       		.uleb128 0x13
 5385 115c 01       		.uleb128 0x1
 5386 115d 51       		.byte	0x51
 5387 115e 02       		.uleb128 0x2
 5388 115f 08       		.byte	0x8
 5389 1160 86       		.byte	0x86
 5390 1161 13       		.uleb128 0x13
 5391 1162 01       		.uleb128 0x1
 5392 1163 50       		.byte	0x50
 5393 1164 01       		.uleb128 0x1
 5394 1165 31       		.byte	0x31
 5395 1166 00       		.byte	0
 5396 1167 11       		.uleb128 0x11
 5397 1168 1E030000 		.4byte	.LVL146
 5398 116c 111D0000 		.4byte	0x1d11
 5399 1170 12       		.uleb128 0x12
 5400 1171 A0030000 		.4byte	.LVL147
 5401 1175 5E1C0000 		.4byte	0x1c5e
 5402 1179 88110000 		.4byte	0x1188
 5403 117d 13       		.uleb128 0x13
 5404 117e 01       		.uleb128 0x1
 5405 117f 51       		.byte	0x51
 5406 1180 01       		.uleb128 0x1
 5407 1181 3B       		.byte	0x3b
 5408 1182 13       		.uleb128 0x13
 5409 1183 01       		.uleb128 0x1
 5410 1184 50       		.byte	0x50
 5411 1185 01       		.uleb128 0x1
 5412 1186 31       		.byte	0x31
 5413 1187 00       		.byte	0
 5414 1188 12       		.uleb128 0x12
 5415 1189 B8030000 		.4byte	.LVL148
 5416 118d 5E1C0000 		.4byte	0x1c5e
 5417 1191 A0110000 		.4byte	0x11a0
 5418 1195 13       		.uleb128 0x13
 5419 1196 01       		.uleb128 0x1
 5420 1197 51       		.byte	0x51
 5421 1198 01       		.uleb128 0x1
ARM GAS  C:\Users\RECEPC~1\AppData\Local\Temp\ccBlh02k.s 			page 111


 5422 1199 3B       		.byte	0x3b
 5423 119a 13       		.uleb128 0x13
 5424 119b 01       		.uleb128 0x1
 5425 119c 50       		.byte	0x50
 5426 119d 01       		.uleb128 0x1
 5427 119e 31       		.byte	0x31
 5428 119f 00       		.byte	0
 5429 11a0 12       		.uleb128 0x12
 5430 11a1 D0030000 		.4byte	.LVL149
 5431 11a5 5E1C0000 		.4byte	0x1c5e
 5432 11a9 B8110000 		.4byte	0x11b8
 5433 11ad 13       		.uleb128 0x13
 5434 11ae 01       		.uleb128 0x1
 5435 11af 51       		.byte	0x51
 5436 11b0 01       		.uleb128 0x1
 5437 11b1 3B       		.byte	0x3b
 5438 11b2 13       		.uleb128 0x13
 5439 11b3 01       		.uleb128 0x1
 5440 11b4 50       		.byte	0x50
 5441 11b5 01       		.uleb128 0x1
 5442 11b6 31       		.byte	0x31
 5443 11b7 00       		.byte	0
 5444 11b8 12       		.uleb128 0x12
 5445 11b9 E8030000 		.4byte	.LVL150
 5446 11bd 5E1C0000 		.4byte	0x1c5e
 5447 11c1 D0110000 		.4byte	0x11d0
 5448 11c5 13       		.uleb128 0x13
 5449 11c6 01       		.uleb128 0x1
 5450 11c7 51       		.byte	0x51
 5451 11c8 01       		.uleb128 0x1
 5452 11c9 3B       		.byte	0x3b
 5453 11ca 13       		.uleb128 0x13
 5454 11cb 01       		.uleb128 0x1
 5455 11cc 50       		.byte	0x50
 5456 11cd 01       		.uleb128 0x1
 5457 11ce 31       		.byte	0x31
 5458 11cf 00       		.byte	0
 5459 11d0 12       		.uleb128 0x12
 5460 11d1 F8030000 		.4byte	.LVL151
 5461 11d5 5E1C0000 		.4byte	0x1c5e
 5462 11d9 E8110000 		.4byte	0x11e8
 5463 11dd 13       		.uleb128 0x13
 5464 11de 01       		.uleb128 0x1
 5465 11df 51       		.byte	0x51
 5466 11e0 01       		.uleb128 0x1
 5467 11e1 31       		.byte	0x31
 5468 11e2 13       		.uleb128 0x13
 5469 11e3 01       		.uleb128 0x1
 5470 11e4 50       		.byte	0x50
 5471 11e5 01       		.uleb128 0x1
 5472 11e6 31       		.byte	0x31
 5473 11e7 00       		.byte	0
 5474 11e8 12       		.uleb128 0x12
 5475 11e9 02040000 		.4byte	.LVL152
 5476 11ed 5E1C0000 		.4byte	0x1c5e
 5477 11f1 00120000 		.4byte	0x1200
 5478 11f5 13       		.uleb128 0x13
ARM GAS  C:\Users\RECEPC~1\AppData\Local\Temp\ccBlh02k.s 			page 112


 5479 11f6 01       		.uleb128 0x1
 5480 11f7 51       		.byte	0x51
 5481 11f8 01       		.uleb128 0x1
 5482 11f9 31       		.byte	0x31
 5483 11fa 13       		.uleb128 0x13
 5484 11fb 01       		.uleb128 0x1
 5485 11fc 50       		.byte	0x50
 5486 11fd 01       		.uleb128 0x1
 5487 11fe 31       		.byte	0x31
 5488 11ff 00       		.byte	0
 5489 1200 12       		.uleb128 0x12
 5490 1201 0E040000 		.4byte	.LVL153
 5491 1205 951C0000 		.4byte	0x1c95
 5492 1209 13120000 		.4byte	0x1213
 5493 120d 13       		.uleb128 0x13
 5494 120e 01       		.uleb128 0x1
 5495 120f 50       		.byte	0x50
 5496 1210 01       		.uleb128 0x1
 5497 1211 3A       		.byte	0x3a
 5498 1212 00       		.byte	0
 5499 1213 11       		.uleb128 0x11
 5500 1214 12040000 		.4byte	.LVL154
 5501 1218 1C1D0000 		.4byte	0x1d1c
 5502 121c 11       		.uleb128 0x11
 5503 121d 18040000 		.4byte	.LVL155
 5504 1221 111D0000 		.4byte	0x1d11
 5505 1225 12       		.uleb128 0x12
 5506 1226 6E040000 		.4byte	.LVL156
 5507 122a 5E1C0000 		.4byte	0x1c5e
 5508 122e 3D120000 		.4byte	0x123d
 5509 1232 13       		.uleb128 0x13
 5510 1233 01       		.uleb128 0x1
 5511 1234 51       		.byte	0x51
 5512 1235 01       		.uleb128 0x1
 5513 1236 3A       		.byte	0x3a
 5514 1237 13       		.uleb128 0x13
 5515 1238 01       		.uleb128 0x1
 5516 1239 50       		.byte	0x50
 5517 123a 01       		.uleb128 0x1
 5518 123b 31       		.byte	0x31
 5519 123c 00       		.byte	0
 5520 123d 12       		.uleb128 0x12
 5521 123e 84040000 		.4byte	.LVL157
 5522 1242 5E1C0000 		.4byte	0x1c5e
 5523 1246 55120000 		.4byte	0x1255
 5524 124a 13       		.uleb128 0x13
 5525 124b 01       		.uleb128 0x1
 5526 124c 51       		.byte	0x51
 5527 124d 01       		.uleb128 0x1
 5528 124e 37       		.byte	0x37
 5529 124f 13       		.uleb128 0x13
 5530 1250 01       		.uleb128 0x1
 5531 1251 50       		.byte	0x50
 5532 1252 01       		.uleb128 0x1
 5533 1253 31       		.byte	0x31
 5534 1254 00       		.byte	0
 5535 1255 12       		.uleb128 0x12
ARM GAS  C:\Users\RECEPC~1\AppData\Local\Temp\ccBlh02k.s 			page 113


 5536 1256 8E040000 		.4byte	.LVL158
 5537 125a 5E1C0000 		.4byte	0x1c5e
 5538 125e 6D120000 		.4byte	0x126d
 5539 1262 13       		.uleb128 0x13
 5540 1263 01       		.uleb128 0x1
 5541 1264 51       		.byte	0x51
 5542 1265 01       		.uleb128 0x1
 5543 1266 31       		.byte	0x31
 5544 1267 13       		.uleb128 0x13
 5545 1268 01       		.uleb128 0x1
 5546 1269 50       		.byte	0x50
 5547 126a 01       		.uleb128 0x1
 5548 126b 31       		.byte	0x31
 5549 126c 00       		.byte	0
 5550 126d 12       		.uleb128 0x12
 5551 126e 9A040000 		.4byte	.LVL159
 5552 1272 951C0000 		.4byte	0x1c95
 5553 1276 80120000 		.4byte	0x1280
 5554 127a 13       		.uleb128 0x13
 5555 127b 01       		.uleb128 0x1
 5556 127c 50       		.byte	0x50
 5557 127d 01       		.uleb128 0x1
 5558 127e 3A       		.byte	0x3a
 5559 127f 00       		.byte	0
 5560 1280 11       		.uleb128 0x11
 5561 1281 9E040000 		.4byte	.LVL160
 5562 1285 1C1D0000 		.4byte	0x1d1c
 5563 1289 12       		.uleb128 0x12
 5564 128a A6040000 		.4byte	.LVL161
 5565 128e 711D0000 		.4byte	0x1d71
 5566 1292 9C120000 		.4byte	0x129c
 5567 1296 13       		.uleb128 0x13
 5568 1297 01       		.uleb128 0x1
 5569 1298 50       		.byte	0x50
 5570 1299 01       		.uleb128 0x1
 5571 129a 31       		.byte	0x31
 5572 129b 00       		.byte	0
 5573 129c 12       		.uleb128 0x12
 5574 129d CA040000 		.4byte	.LVL162
 5575 12a1 861D0000 		.4byte	0x1d86
 5576 12a5 B3120000 		.4byte	0x12b3
 5577 12a9 13       		.uleb128 0x13
 5578 12aa 01       		.uleb128 0x1
 5579 12ab 52       		.byte	0x52
 5580 12ac 05       		.uleb128 0x5
 5581 12ad 03       		.byte	0x3
 5582 12ae 7E000000 		.4byte	bufferDisplay1+126
 5583 12b2 00       		.byte	0
 5584 12b3 11       		.uleb128 0x11
 5585 12b4 D6040000 		.4byte	.LVL163
 5586 12b8 B11C0000 		.4byte	0x1cb1
 5587 12bc 11       		.uleb128 0x11
 5588 12bd E0040000 		.4byte	.LVL164
 5589 12c1 AA1D0000 		.4byte	0x1daa
 5590 12c5 12       		.uleb128 0x12
 5591 12c6 E6040000 		.4byte	.LVL165
 5592 12ca 951C0000 		.4byte	0x1c95
ARM GAS  C:\Users\RECEPC~1\AppData\Local\Temp\ccBlh02k.s 			page 114


 5593 12ce D9120000 		.4byte	0x12d9
 5594 12d2 13       		.uleb128 0x13
 5595 12d3 01       		.uleb128 0x1
 5596 12d4 50       		.byte	0x50
 5597 12d5 02       		.uleb128 0x2
 5598 12d6 08       		.byte	0x8
 5599 12d7 32       		.byte	0x32
 5600 12d8 00       		.byte	0
 5601 12d9 12       		.uleb128 0x12
 5602 12da F2040000 		.4byte	.LVL166
 5603 12de 5E1C0000 		.4byte	0x1c5e
 5604 12e2 F1120000 		.4byte	0x12f1
 5605 12e6 13       		.uleb128 0x13
 5606 12e7 01       		.uleb128 0x1
 5607 12e8 51       		.byte	0x51
 5608 12e9 01       		.uleb128 0x1
 5609 12ea 38       		.byte	0x38
 5610 12eb 13       		.uleb128 0x13
 5611 12ec 01       		.uleb128 0x1
 5612 12ed 50       		.byte	0x50
 5613 12ee 01       		.uleb128 0x1
 5614 12ef 31       		.byte	0x31
 5615 12f0 00       		.byte	0
 5616 12f1 12       		.uleb128 0x12
 5617 12f2 00050000 		.4byte	.LVL167
 5618 12f6 5E1C0000 		.4byte	0x1c5e
 5619 12fa 09130000 		.4byte	0x1309
 5620 12fe 13       		.uleb128 0x13
 5621 12ff 01       		.uleb128 0x1
 5622 1300 51       		.byte	0x51
 5623 1301 01       		.uleb128 0x1
 5624 1302 30       		.byte	0x30
 5625 1303 13       		.uleb128 0x13
 5626 1304 01       		.uleb128 0x1
 5627 1305 50       		.byte	0x50
 5628 1306 01       		.uleb128 0x1
 5629 1307 31       		.byte	0x31
 5630 1308 00       		.byte	0
 5631 1309 12       		.uleb128 0x12
 5632 130a 06050000 		.4byte	.LVL168
 5633 130e 951C0000 		.4byte	0x1c95
 5634 1312 1D130000 		.4byte	0x131d
 5635 1316 13       		.uleb128 0x13
 5636 1317 01       		.uleb128 0x1
 5637 1318 50       		.byte	0x50
 5638 1319 02       		.uleb128 0x2
 5639 131a 08       		.byte	0x8
 5640 131b C8       		.byte	0xc8
 5641 131c 00       		.byte	0
 5642 131d 12       		.uleb128 0x12
 5643 131e 0E050000 		.4byte	.LVL169
 5644 1322 5E1C0000 		.4byte	0x1c5e
 5645 1326 35130000 		.4byte	0x1335
 5646 132a 13       		.uleb128 0x13
 5647 132b 01       		.uleb128 0x1
 5648 132c 51       		.byte	0x51
 5649 132d 01       		.uleb128 0x1
ARM GAS  C:\Users\RECEPC~1\AppData\Local\Temp\ccBlh02k.s 			page 115


 5650 132e 31       		.byte	0x31
 5651 132f 13       		.uleb128 0x13
 5652 1330 01       		.uleb128 0x1
 5653 1331 50       		.byte	0x50
 5654 1332 01       		.uleb128 0x1
 5655 1333 31       		.byte	0x31
 5656 1334 00       		.byte	0
 5657 1335 11       		.uleb128 0x11
 5658 1336 2E050000 		.4byte	.LVL170
 5659 133a 111D0000 		.4byte	0x1d11
 5660 133e 12       		.uleb128 0x12
 5661 133f 62050000 		.4byte	.LVL171
 5662 1343 5E1C0000 		.4byte	0x1c5e
 5663 1347 56130000 		.4byte	0x1356
 5664 134b 13       		.uleb128 0x13
 5665 134c 01       		.uleb128 0x1
 5666 134d 51       		.byte	0x51
 5667 134e 01       		.uleb128 0x1
 5668 134f 31       		.byte	0x31
 5669 1350 13       		.uleb128 0x13
 5670 1351 01       		.uleb128 0x1
 5671 1352 50       		.byte	0x50
 5672 1353 01       		.uleb128 0x1
 5673 1354 31       		.byte	0x31
 5674 1355 00       		.byte	0
 5675 1356 12       		.uleb128 0x12
 5676 1357 6E050000 		.4byte	.LVL172
 5677 135b 951C0000 		.4byte	0x1c95
 5678 135f 69130000 		.4byte	0x1369
 5679 1363 13       		.uleb128 0x13
 5680 1364 01       		.uleb128 0x1
 5681 1365 50       		.byte	0x50
 5682 1366 01       		.uleb128 0x1
 5683 1367 3A       		.byte	0x3a
 5684 1368 00       		.byte	0
 5685 1369 11       		.uleb128 0x11
 5686 136a 72050000 		.4byte	.LVL173
 5687 136e 1C1D0000 		.4byte	0x1d1c
 5688 1372 11       		.uleb128 0x11
 5689 1373 7C050000 		.4byte	.LVL174
 5690 1377 B11C0000 		.4byte	0x1cb1
 5691 137b 11       		.uleb128 0x11
 5692 137c 94050000 		.4byte	.LVL175
 5693 1380 BB1D0000 		.4byte	0x1dbb
 5694 1384 12       		.uleb128 0x12
 5695 1385 B0050000 		.4byte	.LVL176
 5696 1389 D01D0000 		.4byte	0x1dd0
 5697 138d A1130000 		.4byte	0x13a1
 5698 1391 13       		.uleb128 0x13
 5699 1392 01       		.uleb128 0x1
 5700 1393 52       		.byte	0x52
 5701 1394 01       		.uleb128 0x1
 5702 1395 30       		.byte	0x30
 5703 1396 13       		.uleb128 0x13
 5704 1397 01       		.uleb128 0x1
 5705 1398 51       		.byte	0x51
 5706 1399 01       		.uleb128 0x1
ARM GAS  C:\Users\RECEPC~1\AppData\Local\Temp\ccBlh02k.s 			page 116


 5707 139a 31       		.byte	0x31
 5708 139b 13       		.uleb128 0x13
 5709 139c 01       		.uleb128 0x1
 5710 139d 50       		.byte	0x50
 5711 139e 01       		.uleb128 0x1
 5712 139f 31       		.byte	0x31
 5713 13a0 00       		.byte	0
 5714 13a1 12       		.uleb128 0x12
 5715 13a2 B8050000 		.4byte	.LVL177
 5716 13a6 5E1C0000 		.4byte	0x1c5e
 5717 13aa B9130000 		.4byte	0x13b9
 5718 13ae 13       		.uleb128 0x13
 5719 13af 01       		.uleb128 0x1
 5720 13b0 51       		.byte	0x51
 5721 13b1 01       		.uleb128 0x1
 5722 13b2 31       		.byte	0x31
 5723 13b3 13       		.uleb128 0x13
 5724 13b4 01       		.uleb128 0x1
 5725 13b5 50       		.byte	0x50
 5726 13b6 01       		.uleb128 0x1
 5727 13b7 31       		.byte	0x31
 5728 13b8 00       		.byte	0
 5729 13b9 11       		.uleb128 0x11
 5730 13ba C2050000 		.4byte	.LVL178
 5731 13be BB1D0000 		.4byte	0x1dbb
 5732 13c2 12       		.uleb128 0x12
 5733 13c3 DE050000 		.4byte	.LVL179
 5734 13c7 D01D0000 		.4byte	0x1dd0
 5735 13cb DF130000 		.4byte	0x13df
 5736 13cf 13       		.uleb128 0x13
 5737 13d0 01       		.uleb128 0x1
 5738 13d1 52       		.byte	0x52
 5739 13d2 01       		.uleb128 0x1
 5740 13d3 30       		.byte	0x30
 5741 13d4 13       		.uleb128 0x13
 5742 13d5 01       		.uleb128 0x1
 5743 13d6 51       		.byte	0x51
 5744 13d7 01       		.uleb128 0x1
 5745 13d8 31       		.byte	0x31
 5746 13d9 13       		.uleb128 0x13
 5747 13da 01       		.uleb128 0x1
 5748 13db 50       		.byte	0x50
 5749 13dc 01       		.uleb128 0x1
 5750 13dd 31       		.byte	0x31
 5751 13de 00       		.byte	0
 5752 13df 12       		.uleb128 0x12
 5753 13e0 E6050000 		.4byte	.LVL180
 5754 13e4 5E1C0000 		.4byte	0x1c5e
 5755 13e8 F7130000 		.4byte	0x13f7
 5756 13ec 13       		.uleb128 0x13
 5757 13ed 01       		.uleb128 0x1
 5758 13ee 51       		.byte	0x51
 5759 13ef 01       		.uleb128 0x1
 5760 13f0 31       		.byte	0x31
 5761 13f1 13       		.uleb128 0x13
 5762 13f2 01       		.uleb128 0x1
 5763 13f3 50       		.byte	0x50
ARM GAS  C:\Users\RECEPC~1\AppData\Local\Temp\ccBlh02k.s 			page 117


 5764 13f4 01       		.uleb128 0x1
 5765 13f5 31       		.byte	0x31
 5766 13f6 00       		.byte	0
 5767 13f7 12       		.uleb128 0x12
 5768 13f8 F6050000 		.4byte	.LVL181
 5769 13fc 5E1C0000 		.4byte	0x1c5e
 5770 1400 0F140000 		.4byte	0x140f
 5771 1404 13       		.uleb128 0x13
 5772 1405 01       		.uleb128 0x1
 5773 1406 51       		.byte	0x51
 5774 1407 01       		.uleb128 0x1
 5775 1408 31       		.byte	0x31
 5776 1409 13       		.uleb128 0x13
 5777 140a 01       		.uleb128 0x1
 5778 140b 50       		.byte	0x50
 5779 140c 01       		.uleb128 0x1
 5780 140d 31       		.byte	0x31
 5781 140e 00       		.byte	0
 5782 140f 12       		.uleb128 0x12
 5783 1410 02060000 		.4byte	.LVL182
 5784 1414 521D0000 		.4byte	0x1d52
 5785 1418 2C140000 		.4byte	0x142c
 5786 141c 13       		.uleb128 0x13
 5787 141d 01       		.uleb128 0x1
 5788 141e 52       		.byte	0x52
 5789 141f 01       		.uleb128 0x1
 5790 1420 30       		.byte	0x30
 5791 1421 13       		.uleb128 0x13
 5792 1422 01       		.uleb128 0x1
 5793 1423 51       		.byte	0x51
 5794 1424 01       		.uleb128 0x1
 5795 1425 3A       		.byte	0x3a
 5796 1426 13       		.uleb128 0x13
 5797 1427 01       		.uleb128 0x1
 5798 1428 50       		.byte	0x50
 5799 1429 01       		.uleb128 0x1
 5800 142a 31       		.byte	0x31
 5801 142b 00       		.byte	0
 5802 142c 12       		.uleb128 0x12
 5803 142d 42060000 		.4byte	.LVL189
 5804 1431 5E1C0000 		.4byte	0x1c5e
 5805 1435 44140000 		.4byte	0x1444
 5806 1439 13       		.uleb128 0x13
 5807 143a 01       		.uleb128 0x1
 5808 143b 51       		.byte	0x51
 5809 143c 01       		.uleb128 0x1
 5810 143d 31       		.byte	0x31
 5811 143e 13       		.uleb128 0x13
 5812 143f 01       		.uleb128 0x1
 5813 1440 50       		.byte	0x50
 5814 1441 01       		.uleb128 0x1
 5815 1442 31       		.byte	0x31
 5816 1443 00       		.byte	0
 5817 1444 11       		.uleb128 0x11
 5818 1445 76060000 		.4byte	.LVL200
 5819 1449 1C1D0000 		.4byte	0x1d1c
 5820 144d 12       		.uleb128 0x12
ARM GAS  C:\Users\RECEPC~1\AppData\Local\Temp\ccBlh02k.s 			page 118


 5821 144e B6060000 		.4byte	.LVL207
 5822 1452 5E1C0000 		.4byte	0x1c5e
 5823 1456 65140000 		.4byte	0x1465
 5824 145a 13       		.uleb128 0x13
 5825 145b 01       		.uleb128 0x1
 5826 145c 51       		.byte	0x51
 5827 145d 01       		.uleb128 0x1
 5828 145e 37       		.byte	0x37
 5829 145f 13       		.uleb128 0x13
 5830 1460 01       		.uleb128 0x1
 5831 1461 50       		.byte	0x50
 5832 1462 01       		.uleb128 0x1
 5833 1463 31       		.byte	0x31
 5834 1464 00       		.byte	0
 5835 1465 11       		.uleb128 0x11
 5836 1466 FA060000 		.4byte	.LVL218
 5837 146a 1C1D0000 		.4byte	0x1d1c
 5838 146e 00       		.byte	0
 5839 146f 18       		.uleb128 0x18
 5840 1470 A2070000 		.4byte	.LASF163
 5841 1474 01       		.byte	0x1
 5842 1475 6902     		.2byte	0x269
 5843 1477 00000000 		.4byte	.LFB71
 5844 147b 2C030000 		.4byte	.LFE71-.LFB71
 5845 147f 01       		.uleb128 0x1
 5846 1480 9C       		.byte	0x9c
 5847 1481 69170000 		.4byte	0x1769
 5848 1485 11       		.uleb128 0x11
 5849 1486 22000000 		.4byte	.LVL219
 5850 148a 170B0000 		.4byte	0xb17
 5851 148e 12       		.uleb128 0x12
 5852 148f 32000000 		.4byte	.LVL220
 5853 1493 F01D0000 		.4byte	0x1df0
 5854 1497 A7140000 		.4byte	0x14a7
 5855 149b 13       		.uleb128 0x13
 5856 149c 01       		.uleb128 0x1
 5857 149d 51       		.byte	0x51
 5858 149e 02       		.uleb128 0x2
 5859 149f 08       		.byte	0x8
 5860 14a0 23       		.byte	0x23
 5861 14a1 13       		.uleb128 0x13
 5862 14a2 01       		.uleb128 0x1
 5863 14a3 50       		.byte	0x50
 5864 14a4 01       		.uleb128 0x1
 5865 14a5 32       		.byte	0x32
 5866 14a6 00       		.byte	0
 5867 14a7 11       		.uleb128 0x11
 5868 14a8 36000000 		.4byte	.LVL221
 5869 14ac 061E0000 		.4byte	0x1e06
 5870 14b0 12       		.uleb128 0x12
 5871 14b1 76000000 		.4byte	.LVL222
 5872 14b5 5E1C0000 		.4byte	0x1c5e
 5873 14b9 C8140000 		.4byte	0x14c8
 5874 14bd 13       		.uleb128 0x13
 5875 14be 01       		.uleb128 0x1
 5876 14bf 51       		.byte	0x51
 5877 14c0 01       		.uleb128 0x1
ARM GAS  C:\Users\RECEPC~1\AppData\Local\Temp\ccBlh02k.s 			page 119


 5878 14c1 34       		.byte	0x34
 5879 14c2 13       		.uleb128 0x13
 5880 14c3 01       		.uleb128 0x1
 5881 14c4 50       		.byte	0x50
 5882 14c5 01       		.uleb128 0x1
 5883 14c6 32       		.byte	0x32
 5884 14c7 00       		.byte	0
 5885 14c8 12       		.uleb128 0x12
 5886 14c9 80000000 		.4byte	.LVL223
 5887 14cd 5E1C0000 		.4byte	0x1c5e
 5888 14d1 E0140000 		.4byte	0x14e0
 5889 14d5 13       		.uleb128 0x13
 5890 14d6 01       		.uleb128 0x1
 5891 14d7 51       		.byte	0x51
 5892 14d8 01       		.uleb128 0x1
 5893 14d9 31       		.byte	0x31
 5894 14da 13       		.uleb128 0x13
 5895 14db 01       		.uleb128 0x1
 5896 14dc 50       		.byte	0x50
 5897 14dd 01       		.uleb128 0x1
 5898 14de 32       		.byte	0x32
 5899 14df 00       		.byte	0
 5900 14e0 12       		.uleb128 0x12
 5901 14e1 8C000000 		.4byte	.LVL224
 5902 14e5 951C0000 		.4byte	0x1c95
 5903 14e9 F3140000 		.4byte	0x14f3
 5904 14ed 13       		.uleb128 0x13
 5905 14ee 01       		.uleb128 0x1
 5906 14ef 50       		.byte	0x50
 5907 14f0 01       		.uleb128 0x1
 5908 14f1 3A       		.byte	0x3a
 5909 14f2 00       		.byte	0
 5910 14f3 11       		.uleb128 0x11
 5911 14f4 90000000 		.4byte	.LVL225
 5912 14f8 111E0000 		.4byte	0x1e11
 5913 14fc 11       		.uleb128 0x11
 5914 14fd 96000000 		.4byte	.LVL226
 5915 1501 061E0000 		.4byte	0x1e06
 5916 1505 12       		.uleb128 0x12
 5917 1506 E8000000 		.4byte	.LVL227
 5918 150a 5E1C0000 		.4byte	0x1c5e
 5919 150e 1D150000 		.4byte	0x151d
 5920 1512 13       		.uleb128 0x13
 5921 1513 01       		.uleb128 0x1
 5922 1514 51       		.byte	0x51
 5923 1515 01       		.uleb128 0x1
 5924 1516 35       		.byte	0x35
 5925 1517 13       		.uleb128 0x13
 5926 1518 01       		.uleb128 0x1
 5927 1519 50       		.byte	0x50
 5928 151a 01       		.uleb128 0x1
 5929 151b 32       		.byte	0x32
 5930 151c 00       		.byte	0
 5931 151d 12       		.uleb128 0x12
 5932 151e F8000000 		.4byte	.LVL228
 5933 1522 5E1C0000 		.4byte	0x1c5e
 5934 1526 36150000 		.4byte	0x1536
ARM GAS  C:\Users\RECEPC~1\AppData\Local\Temp\ccBlh02k.s 			page 120


 5935 152a 13       		.uleb128 0x13
 5936 152b 01       		.uleb128 0x1
 5937 152c 51       		.byte	0x51
 5938 152d 02       		.uleb128 0x2
 5939 152e 08       		.byte	0x8
 5940 152f 85       		.byte	0x85
 5941 1530 13       		.uleb128 0x13
 5942 1531 01       		.uleb128 0x1
 5943 1532 50       		.byte	0x50
 5944 1533 01       		.uleb128 0x1
 5945 1534 32       		.byte	0x32
 5946 1535 00       		.byte	0
 5947 1536 12       		.uleb128 0x12
 5948 1537 08010000 		.4byte	.LVL229
 5949 153b 5E1C0000 		.4byte	0x1c5e
 5950 153f 4F150000 		.4byte	0x154f
 5951 1543 13       		.uleb128 0x13
 5952 1544 01       		.uleb128 0x1
 5953 1545 51       		.byte	0x51
 5954 1546 02       		.uleb128 0x2
 5955 1547 08       		.byte	0x8
 5956 1548 83       		.byte	0x83
 5957 1549 13       		.uleb128 0x13
 5958 154a 01       		.uleb128 0x1
 5959 154b 50       		.byte	0x50
 5960 154c 01       		.uleb128 0x1
 5961 154d 32       		.byte	0x32
 5962 154e 00       		.byte	0
 5963 154f 12       		.uleb128 0x12
 5964 1550 18010000 		.4byte	.LVL230
 5965 1554 5E1C0000 		.4byte	0x1c5e
 5966 1558 67150000 		.4byte	0x1567
 5967 155c 13       		.uleb128 0x13
 5968 155d 01       		.uleb128 0x1
 5969 155e 51       		.byte	0x51
 5970 155f 01       		.uleb128 0x1
 5971 1560 31       		.byte	0x31
 5972 1561 13       		.uleb128 0x13
 5973 1562 01       		.uleb128 0x1
 5974 1563 50       		.byte	0x50
 5975 1564 01       		.uleb128 0x1
 5976 1565 32       		.byte	0x32
 5977 1566 00       		.byte	0
 5978 1567 12       		.uleb128 0x12
 5979 1568 28010000 		.4byte	.LVL231
 5980 156c 5E1C0000 		.4byte	0x1c5e
 5981 1570 7F150000 		.4byte	0x157f
 5982 1574 13       		.uleb128 0x13
 5983 1575 01       		.uleb128 0x1
 5984 1576 51       		.byte	0x51
 5985 1577 01       		.uleb128 0x1
 5986 1578 31       		.byte	0x31
 5987 1579 13       		.uleb128 0x13
 5988 157a 01       		.uleb128 0x1
 5989 157b 50       		.byte	0x50
 5990 157c 01       		.uleb128 0x1
 5991 157d 32       		.byte	0x32
ARM GAS  C:\Users\RECEPC~1\AppData\Local\Temp\ccBlh02k.s 			page 121


 5992 157e 00       		.byte	0
 5993 157f 12       		.uleb128 0x12
 5994 1580 2E010000 		.4byte	.LVL232
 5995 1584 951C0000 		.4byte	0x1c95
 5996 1588 92150000 		.4byte	0x1592
 5997 158c 13       		.uleb128 0x13
 5998 158d 01       		.uleb128 0x1
 5999 158e 50       		.byte	0x50
 6000 158f 01       		.uleb128 0x1
 6001 1590 3A       		.byte	0x3a
 6002 1591 00       		.byte	0
 6003 1592 11       		.uleb128 0x11
 6004 1593 32010000 		.4byte	.LVL233
 6005 1597 111E0000 		.4byte	0x1e11
 6006 159b 11       		.uleb128 0x11
 6007 159c 38010000 		.4byte	.LVL234
 6008 15a0 061E0000 		.4byte	0x1e06
 6009 15a4 12       		.uleb128 0x12
 6010 15a5 8E010000 		.4byte	.LVL235
 6011 15a9 5E1C0000 		.4byte	0x1c5e
 6012 15ad BC150000 		.4byte	0x15bc
 6013 15b1 13       		.uleb128 0x13
 6014 15b2 01       		.uleb128 0x1
 6015 15b3 51       		.byte	0x51
 6016 15b4 01       		.uleb128 0x1
 6017 15b5 36       		.byte	0x36
 6018 15b6 13       		.uleb128 0x13
 6019 15b7 01       		.uleb128 0x1
 6020 15b8 50       		.byte	0x50
 6021 15b9 01       		.uleb128 0x1
 6022 15ba 32       		.byte	0x32
 6023 15bb 00       		.byte	0
 6024 15bc 12       		.uleb128 0x12
 6025 15bd 9E010000 		.4byte	.LVL236
 6026 15c1 5E1C0000 		.4byte	0x1c5e
 6027 15c5 D4150000 		.4byte	0x15d4
 6028 15c9 13       		.uleb128 0x13
 6029 15ca 01       		.uleb128 0x1
 6030 15cb 51       		.byte	0x51
 6031 15cc 01       		.uleb128 0x1
 6032 15cd 3D       		.byte	0x3d
 6033 15ce 13       		.uleb128 0x13
 6034 15cf 01       		.uleb128 0x1
 6035 15d0 50       		.byte	0x50
 6036 15d1 01       		.uleb128 0x1
 6037 15d2 32       		.byte	0x32
 6038 15d3 00       		.byte	0
 6039 15d4 12       		.uleb128 0x12
 6040 15d5 AE010000 		.4byte	.LVL237
 6041 15d9 5E1C0000 		.4byte	0x1c5e
 6042 15dd EC150000 		.4byte	0x15ec
 6043 15e1 13       		.uleb128 0x13
 6044 15e2 01       		.uleb128 0x1
 6045 15e3 51       		.byte	0x51
 6046 15e4 01       		.uleb128 0x1
 6047 15e5 3B       		.byte	0x3b
 6048 15e6 13       		.uleb128 0x13
ARM GAS  C:\Users\RECEPC~1\AppData\Local\Temp\ccBlh02k.s 			page 122


 6049 15e7 01       		.uleb128 0x1
 6050 15e8 50       		.byte	0x50
 6051 15e9 01       		.uleb128 0x1
 6052 15ea 32       		.byte	0x32
 6053 15eb 00       		.byte	0
 6054 15ec 12       		.uleb128 0x12
 6055 15ed BE010000 		.4byte	.LVL238
 6056 15f1 5E1C0000 		.4byte	0x1c5e
 6057 15f5 04160000 		.4byte	0x1604
 6058 15f9 13       		.uleb128 0x13
 6059 15fa 01       		.uleb128 0x1
 6060 15fb 51       		.byte	0x51
 6061 15fc 01       		.uleb128 0x1
 6062 15fd 31       		.byte	0x31
 6063 15fe 13       		.uleb128 0x13
 6064 15ff 01       		.uleb128 0x1
 6065 1600 50       		.byte	0x50
 6066 1601 01       		.uleb128 0x1
 6067 1602 32       		.byte	0x32
 6068 1603 00       		.byte	0
 6069 1604 12       		.uleb128 0x12
 6070 1605 CE010000 		.4byte	.LVL239
 6071 1609 5E1C0000 		.4byte	0x1c5e
 6072 160d 1C160000 		.4byte	0x161c
 6073 1611 13       		.uleb128 0x13
 6074 1612 01       		.uleb128 0x1
 6075 1613 51       		.byte	0x51
 6076 1614 01       		.uleb128 0x1
 6077 1615 31       		.byte	0x31
 6078 1616 13       		.uleb128 0x13
 6079 1617 01       		.uleb128 0x1
 6080 1618 50       		.byte	0x50
 6081 1619 01       		.uleb128 0x1
 6082 161a 32       		.byte	0x32
 6083 161b 00       		.byte	0
 6084 161c 12       		.uleb128 0x12
 6085 161d DE010000 		.4byte	.LVL240
 6086 1621 5E1C0000 		.4byte	0x1c5e
 6087 1625 34160000 		.4byte	0x1634
 6088 1629 13       		.uleb128 0x13
 6089 162a 01       		.uleb128 0x1
 6090 162b 51       		.byte	0x51
 6091 162c 01       		.uleb128 0x1
 6092 162d 31       		.byte	0x31
 6093 162e 13       		.uleb128 0x13
 6094 162f 01       		.uleb128 0x1
 6095 1630 50       		.byte	0x50
 6096 1631 01       		.uleb128 0x1
 6097 1632 32       		.byte	0x32
 6098 1633 00       		.byte	0
 6099 1634 12       		.uleb128 0x12
 6100 1635 E4010000 		.4byte	.LVL241
 6101 1639 951C0000 		.4byte	0x1c95
 6102 163d 47160000 		.4byte	0x1647
 6103 1641 13       		.uleb128 0x13
 6104 1642 01       		.uleb128 0x1
 6105 1643 50       		.byte	0x50
ARM GAS  C:\Users\RECEPC~1\AppData\Local\Temp\ccBlh02k.s 			page 123


 6106 1644 01       		.uleb128 0x1
 6107 1645 3A       		.byte	0x3a
 6108 1646 00       		.byte	0
 6109 1647 11       		.uleb128 0x11
 6110 1648 E8010000 		.4byte	.LVL242
 6111 164c 111E0000 		.4byte	0x1e11
 6112 1650 11       		.uleb128 0x11
 6113 1651 EE010000 		.4byte	.LVL243
 6114 1655 061E0000 		.4byte	0x1e06
 6115 1659 12       		.uleb128 0x12
 6116 165a 2E020000 		.4byte	.LVL244
 6117 165e 5E1C0000 		.4byte	0x1c5e
 6118 1662 71160000 		.4byte	0x1671
 6119 1666 13       		.uleb128 0x13
 6120 1667 01       		.uleb128 0x1
 6121 1668 51       		.byte	0x51
 6122 1669 01       		.uleb128 0x1
 6123 166a 31       		.byte	0x31
 6124 166b 13       		.uleb128 0x13
 6125 166c 01       		.uleb128 0x1
 6126 166d 50       		.byte	0x50
 6127 166e 01       		.uleb128 0x1
 6128 166f 32       		.byte	0x32
 6129 1670 00       		.byte	0
 6130 1671 12       		.uleb128 0x12
 6131 1672 3E020000 		.4byte	.LVL245
 6132 1676 5E1C0000 		.4byte	0x1c5e
 6133 167a 89160000 		.4byte	0x1689
 6134 167e 13       		.uleb128 0x13
 6135 167f 01       		.uleb128 0x1
 6136 1680 51       		.byte	0x51
 6137 1681 01       		.uleb128 0x1
 6138 1682 31       		.byte	0x31
 6139 1683 13       		.uleb128 0x13
 6140 1684 01       		.uleb128 0x1
 6141 1685 50       		.byte	0x50
 6142 1686 01       		.uleb128 0x1
 6143 1687 32       		.byte	0x32
 6144 1688 00       		.byte	0
 6145 1689 12       		.uleb128 0x12
 6146 168a 44020000 		.4byte	.LVL246
 6147 168e 951C0000 		.4byte	0x1c95
 6148 1692 9C160000 		.4byte	0x169c
 6149 1696 13       		.uleb128 0x13
 6150 1697 01       		.uleb128 0x1
 6151 1698 50       		.byte	0x50
 6152 1699 01       		.uleb128 0x1
 6153 169a 3A       		.byte	0x3a
 6154 169b 00       		.byte	0
 6155 169c 11       		.uleb128 0x11
 6156 169d 48020000 		.4byte	.LVL247
 6157 16a1 111E0000 		.4byte	0x1e11
 6158 16a5 11       		.uleb128 0x11
 6159 16a6 4E020000 		.4byte	.LVL248
 6160 16aa 061E0000 		.4byte	0x1e06
 6161 16ae 12       		.uleb128 0x12
 6162 16af 8C020000 		.4byte	.LVL249
ARM GAS  C:\Users\RECEPC~1\AppData\Local\Temp\ccBlh02k.s 			page 124


 6163 16b3 5E1C0000 		.4byte	0x1c5e
 6164 16b7 C6160000 		.4byte	0x16c6
 6165 16bb 13       		.uleb128 0x13
 6166 16bc 01       		.uleb128 0x1
 6167 16bd 51       		.byte	0x51
 6168 16be 01       		.uleb128 0x1
 6169 16bf 31       		.byte	0x31
 6170 16c0 13       		.uleb128 0x13
 6171 16c1 01       		.uleb128 0x1
 6172 16c2 50       		.byte	0x50
 6173 16c3 01       		.uleb128 0x1
 6174 16c4 32       		.byte	0x32
 6175 16c5 00       		.byte	0
 6176 16c6 12       		.uleb128 0x12
 6177 16c7 9C020000 		.4byte	.LVL250
 6178 16cb 5E1C0000 		.4byte	0x1c5e
 6179 16cf DE160000 		.4byte	0x16de
 6180 16d3 13       		.uleb128 0x13
 6181 16d4 01       		.uleb128 0x1
 6182 16d5 51       		.byte	0x51
 6183 16d6 01       		.uleb128 0x1
 6184 16d7 31       		.byte	0x31
 6185 16d8 13       		.uleb128 0x13
 6186 16d9 01       		.uleb128 0x1
 6187 16da 50       		.byte	0x50
 6188 16db 01       		.uleb128 0x1
 6189 16dc 32       		.byte	0x32
 6190 16dd 00       		.byte	0
 6191 16de 12       		.uleb128 0x12
 6192 16df A2020000 		.4byte	.LVL251
 6193 16e3 951C0000 		.4byte	0x1c95
 6194 16e7 F1160000 		.4byte	0x16f1
 6195 16eb 13       		.uleb128 0x13
 6196 16ec 01       		.uleb128 0x1
 6197 16ed 50       		.byte	0x50
 6198 16ee 01       		.uleb128 0x1
 6199 16ef 3A       		.byte	0x3a
 6200 16f0 00       		.byte	0
 6201 16f1 11       		.uleb128 0x11
 6202 16f2 A6020000 		.4byte	.LVL252
 6203 16f6 111E0000 		.4byte	0x1e11
 6204 16fa 11       		.uleb128 0x11
 6205 16fb B4020000 		.4byte	.LVL253
 6206 16ff 061E0000 		.4byte	0x1e06
 6207 1703 12       		.uleb128 0x12
 6208 1704 F2020000 		.4byte	.LVL254
 6209 1708 5E1C0000 		.4byte	0x1c5e
 6210 170c 1B170000 		.4byte	0x171b
 6211 1710 13       		.uleb128 0x13
 6212 1711 01       		.uleb128 0x1
 6213 1712 51       		.byte	0x51
 6214 1713 01       		.uleb128 0x1
 6215 1714 3A       		.byte	0x3a
 6216 1715 13       		.uleb128 0x13
 6217 1716 01       		.uleb128 0x1
 6218 1717 50       		.byte	0x50
 6219 1718 01       		.uleb128 0x1
ARM GAS  C:\Users\RECEPC~1\AppData\Local\Temp\ccBlh02k.s 			page 125


 6220 1719 32       		.byte	0x32
 6221 171a 00       		.byte	0
 6222 171b 12       		.uleb128 0x12
 6223 171c 02030000 		.4byte	.LVL255
 6224 1720 5E1C0000 		.4byte	0x1c5e
 6225 1724 34170000 		.4byte	0x1734
 6226 1728 13       		.uleb128 0x13
 6227 1729 01       		.uleb128 0x1
 6228 172a 51       		.byte	0x51
 6229 172b 02       		.uleb128 0x2
 6230 172c 08       		.byte	0x8
 6231 172d 86       		.byte	0x86
 6232 172e 13       		.uleb128 0x13
 6233 172f 01       		.uleb128 0x1
 6234 1730 50       		.byte	0x50
 6235 1731 01       		.uleb128 0x1
 6236 1732 32       		.byte	0x32
 6237 1733 00       		.byte	0
 6238 1734 12       		.uleb128 0x12
 6239 1735 12030000 		.4byte	.LVL256
 6240 1739 5E1C0000 		.4byte	0x1c5e
 6241 173d 4C170000 		.4byte	0x174c
 6242 1741 13       		.uleb128 0x13
 6243 1742 01       		.uleb128 0x1
 6244 1743 51       		.byte	0x51
 6245 1744 01       		.uleb128 0x1
 6246 1745 31       		.byte	0x31
 6247 1746 13       		.uleb128 0x13
 6248 1747 01       		.uleb128 0x1
 6249 1748 50       		.byte	0x50
 6250 1749 01       		.uleb128 0x1
 6251 174a 32       		.byte	0x32
 6252 174b 00       		.byte	0
 6253 174c 12       		.uleb128 0x12
 6254 174d 1E030000 		.4byte	.LVL257
 6255 1751 951C0000 		.4byte	0x1c95
 6256 1755 5F170000 		.4byte	0x175f
 6257 1759 13       		.uleb128 0x13
 6258 175a 01       		.uleb128 0x1
 6259 175b 50       		.byte	0x50
 6260 175c 01       		.uleb128 0x1
 6261 175d 3A       		.byte	0x3a
 6262 175e 00       		.byte	0
 6263 175f 11       		.uleb128 0x11
 6264 1760 22030000 		.4byte	.LVL258
 6265 1764 111E0000 		.4byte	0x1e11
 6266 1768 00       		.byte	0
 6267 1769 1A       		.uleb128 0x1a
 6268 176a 4B0E0000 		.4byte	.LASF164
 6269 176e 01       		.byte	0x1
 6270 176f 0503     		.2byte	0x305
 6271 1771 7E000000 		.4byte	0x7e
 6272 1775 00000000 		.4byte	.LFB72
 6273 1779 3C000000 		.4byte	.LFE72-.LFB72
 6274 177d 01       		.uleb128 0x1
 6275 177e 9C       		.byte	0x9c
 6276 177f E0170000 		.4byte	0x17e0
ARM GAS  C:\Users\RECEPC~1\AppData\Local\Temp\ccBlh02k.s 			page 126


 6277 1783 19       		.uleb128 0x19
 6278 1784 7800     		.ascii	"x\000"
 6279 1786 01       		.byte	0x1
 6280 1787 0703     		.2byte	0x307
 6281 1789 AD000000 		.4byte	0xad
 6282 178d 92010000 		.4byte	.LLST3
 6283 1791 11       		.uleb128 0x11
 6284 1792 1A000000 		.4byte	.LVL263
 6285 1796 19070000 		.4byte	0x719
 6286 179a 11       		.uleb128 0x11
 6287 179b 1E000000 		.4byte	.LVL264
 6288 179f 930B0000 		.4byte	0xb93
 6289 17a3 12       		.uleb128 0x12
 6290 17a4 26000000 		.4byte	.LVL265
 6291 17a8 181E0000 		.4byte	0x1e18
 6292 17ac BB170000 		.4byte	0x17bb
 6293 17b0 13       		.uleb128 0x13
 6294 17b1 01       		.uleb128 0x1
 6295 17b2 51       		.byte	0x51
 6296 17b3 01       		.uleb128 0x1
 6297 17b4 30       		.byte	0x30
 6298 17b5 13       		.uleb128 0x13
 6299 17b6 01       		.uleb128 0x1
 6300 17b7 50       		.byte	0x50
 6301 17b8 01       		.uleb128 0x1
 6302 17b9 33       		.byte	0x33
 6303 17ba 00       		.byte	0
 6304 17bb 11       		.uleb128 0x11
 6305 17bc 2A000000 		.4byte	.LVL266
 6306 17c0 2E1E0000 		.4byte	0x1e2e
 6307 17c4 11       		.uleb128 0x11
 6308 17c5 2E000000 		.4byte	.LVL267
 6309 17c9 D50E0000 		.4byte	0xed5
 6310 17cd 11       		.uleb128 0x11
 6311 17ce 32000000 		.4byte	.LVL268
 6312 17d2 2E1E0000 		.4byte	0x1e2e
 6313 17d6 11       		.uleb128 0x11
 6314 17d7 36000000 		.4byte	.LVL269
 6315 17db 6F140000 		.4byte	0x146f
 6316 17df 00       		.byte	0
 6317 17e0 07       		.uleb128 0x7
 6318 17e1 AD000000 		.4byte	0xad
 6319 17e5 F0170000 		.4byte	0x17f0
 6320 17e9 08       		.uleb128 0x8
 6321 17ea 14010000 		.4byte	0x114
 6322 17ee 1F       		.byte	0x1f
 6323 17ef 00       		.byte	0
 6324 17f0 1B       		.uleb128 0x1b
 6325 17f1 500E0000 		.4byte	.LASF165
 6326 17f5 06       		.byte	0x6
 6327 17f6 3E01     		.2byte	0x13e
 6328 17f8 FC170000 		.4byte	0x17fc
 6329 17fc 06       		.uleb128 0x6
 6330 17fd E0170000 		.4byte	0x17e0
 6331 1801 1B       		.uleb128 0x1b
 6332 1802 23020000 		.4byte	.LASF166
 6333 1806 07       		.byte	0x7
ARM GAS  C:\Users\RECEPC~1\AppData\Local\Temp\ccBlh02k.s 			page 127


 6334 1807 3E01     		.2byte	0x13e
 6335 1809 0D180000 		.4byte	0x180d
 6336 180d 06       		.uleb128 0x6
 6337 180e E0170000 		.4byte	0x17e0
 6338 1812 1B       		.uleb128 0x1b
 6339 1813 D8080000 		.4byte	.LASF167
 6340 1817 08       		.byte	0x8
 6341 1818 5506     		.2byte	0x655
 6342 181a 1E180000 		.4byte	0x181e
 6343 181e 06       		.uleb128 0x6
 6344 181f A2000000 		.4byte	0xa2
 6345 1823 1C       		.uleb128 0x1c
 6346 1824 BC060000 		.4byte	.LASF168
 6347 1828 05       		.byte	0x5
 6348 1829 2C       		.byte	0x2c
 6349 182a 34180000 		.4byte	0x1834
 6350 182e 05       		.uleb128 0x5
 6351 182f 03       		.byte	0x3
 6352 1830 00000000 		.4byte	countAnimation1
 6353 1834 06       		.uleb128 0x6
 6354 1835 DF000000 		.4byte	0xdf
 6355 1839 1C       		.uleb128 0x1c
 6356 183a 0E070000 		.4byte	.LASF169
 6357 183e 05       		.byte	0x5
 6358 183f 2D       		.byte	0x2d
 6359 1840 34180000 		.4byte	0x1834
 6360 1844 05       		.uleb128 0x5
 6361 1845 03       		.byte	0x3
 6362 1846 00000000 		.4byte	countAnimation2
 6363 184a 1C       		.uleb128 0x1c
 6364 184b 55050000 		.4byte	.LASF170
 6365 184f 05       		.byte	0x5
 6366 1850 2E       		.byte	0x2e
 6367 1851 34180000 		.4byte	0x1834
 6368 1855 05       		.uleb128 0x5
 6369 1856 03       		.byte	0x3
 6370 1857 00000000 		.4byte	countBeagleTX
 6371 185b 1C       		.uleb128 0x1c
 6372 185c 190E0000 		.4byte	.LASF171
 6373 1860 05       		.byte	0x5
 6374 1861 2F       		.byte	0x2f
 6375 1862 34180000 		.4byte	0x1834
 6376 1866 05       		.uleb128 0x5
 6377 1867 03       		.byte	0x3
 6378 1868 00000000 		.4byte	countPump
 6379 186c 1C       		.uleb128 0x1c
 6380 186d 44040000 		.4byte	.LASF172
 6381 1871 05       		.byte	0x5
 6382 1872 30       		.byte	0x30
 6383 1873 0F010000 		.4byte	0x10f
 6384 1877 05       		.uleb128 0x5
 6385 1878 03       		.byte	0x3
 6386 1879 00000000 		.4byte	flowDisplay1
 6387 187d 1C       		.uleb128 0x1c
 6388 187e 64090000 		.4byte	.LASF173
 6389 1882 05       		.byte	0x5
 6390 1883 31       		.byte	0x31
ARM GAS  C:\Users\RECEPC~1\AppData\Local\Temp\ccBlh02k.s 			page 128


 6391 1884 0F010000 		.4byte	0x10f
 6392 1888 05       		.uleb128 0x5
 6393 1889 03       		.byte	0x3
 6394 188a 00000000 		.4byte	flowDisplay2
 6395 188e 1C       		.uleb128 0x1c
 6396 188f 88090000 		.4byte	.LASF174
 6397 1893 05       		.byte	0x5
 6398 1894 32       		.byte	0x32
 6399 1895 0F010000 		.4byte	0x10f
 6400 1899 05       		.uleb128 0x5
 6401 189a 03       		.byte	0x3
 6402 189b 00000000 		.4byte	flowDisplay3
 6403 189f 1C       		.uleb128 0x1c
 6404 18a0 6B040000 		.4byte	.LASF175
 6405 18a4 05       		.byte	0x5
 6406 18a5 33       		.byte	0x33
 6407 18a6 0F010000 		.4byte	0x10f
 6408 18aa 05       		.uleb128 0x5
 6409 18ab 03       		.byte	0x3
 6410 18ac 00000000 		.4byte	flowDisplay4
 6411 18b0 07       		.uleb128 0x7
 6412 18b1 AD000000 		.4byte	0xad
 6413 18b5 C0180000 		.4byte	0x18c0
 6414 18b9 08       		.uleb128 0x8
 6415 18ba 14010000 		.4byte	0x114
 6416 18be 0B       		.byte	0xb
 6417 18bf 00       		.byte	0
 6418 18c0 1C       		.uleb128 0x1c
 6419 18c1 F3000000 		.4byte	.LASF176
 6420 18c5 05       		.byte	0x5
 6421 18c6 34       		.byte	0x34
 6422 18c7 D1180000 		.4byte	0x18d1
 6423 18cb 05       		.uleb128 0x5
 6424 18cc 03       		.byte	0x3
 6425 18cd 00000000 		.4byte	ipAdress
 6426 18d1 06       		.uleb128 0x6
 6427 18d2 B0180000 		.4byte	0x18b0
 6428 18d6 1C       		.uleb128 0x1c
 6429 18d7 30050000 		.4byte	.LASF177
 6430 18db 05       		.byte	0x5
 6431 18dc 35       		.byte	0x35
 6432 18dd 0A010000 		.4byte	0x10a
 6433 18e1 05       		.uleb128 0x5
 6434 18e2 03       		.byte	0x3
 6435 18e3 00000000 		.4byte	numberKeys1
 6436 18e7 1C       		.uleb128 0x1c
 6437 18e8 3C050000 		.4byte	.LASF178
 6438 18ec 05       		.byte	0x5
 6439 18ed 36       		.byte	0x36
 6440 18ee 0A010000 		.4byte	0x10a
 6441 18f2 05       		.uleb128 0x5
 6442 18f3 03       		.byte	0x3
 6443 18f4 00000000 		.4byte	numberKeys2
 6444 18f8 1C       		.uleb128 0x1c
 6445 18f9 57080000 		.4byte	.LASF179
 6446 18fd 05       		.byte	0x5
 6447 18fe 37       		.byte	0x37
ARM GAS  C:\Users\RECEPC~1\AppData\Local\Temp\ccBlh02k.s 			page 129


 6448 18ff 0A010000 		.4byte	0x10a
 6449 1903 05       		.uleb128 0x5
 6450 1904 03       		.byte	0x3
 6451 1905 00000000 		.4byte	flagPoint1
 6452 1909 1C       		.uleb128 0x1c
 6453 190a 35020000 		.4byte	.LASF180
 6454 190e 05       		.byte	0x5
 6455 190f 38       		.byte	0x38
 6456 1910 0A010000 		.4byte	0x10a
 6457 1914 05       		.uleb128 0x5
 6458 1915 03       		.byte	0x3
 6459 1916 00000000 		.4byte	flagPoint2
 6460 191a 07       		.uleb128 0x7
 6461 191b AD000000 		.4byte	0xad
 6462 191f 30190000 		.4byte	0x1930
 6463 1923 08       		.uleb128 0x8
 6464 1924 14010000 		.4byte	0x114
 6465 1928 77       		.byte	0x77
 6466 1929 08       		.uleb128 0x8
 6467 192a 14010000 		.4byte	0x114
 6468 192e 07       		.byte	0x7
 6469 192f 00       		.byte	0
 6470 1930 1C       		.uleb128 0x1c
 6471 1931 30040000 		.4byte	.LASF181
 6472 1935 05       		.byte	0x5
 6473 1936 39       		.byte	0x39
 6474 1937 41190000 		.4byte	0x1941
 6475 193b 05       		.uleb128 0x5
 6476 193c 03       		.byte	0x3
 6477 193d 00000000 		.4byte	button
 6478 1941 06       		.uleb128 0x6
 6479 1942 1A190000 		.4byte	0x191a
 6480 1946 1C       		.uleb128 0x1c
 6481 1947 C7030000 		.4byte	.LASF182
 6482 194b 05       		.byte	0x5
 6483 194c 3A       		.byte	0x3a
 6484 194d 0A010000 		.4byte	0x10a
 6485 1951 05       		.uleb128 0x5
 6486 1952 03       		.byte	0x3
 6487 1953 00000000 		.4byte	productNumber
 6488 1957 1C       		.uleb128 0x1c
 6489 1958 38060000 		.4byte	.LASF183
 6490 195c 05       		.byte	0x5
 6491 195d 3B       		.byte	0x3b
 6492 195e 86040000 		.4byte	0x486
 6493 1962 05       		.uleb128 0x5
 6494 1963 03       		.byte	0x3
 6495 1964 00000000 		.4byte	presetFast
 6496 1968 1C       		.uleb128 0x1c
 6497 1969 850A0000 		.4byte	.LASF184
 6498 196d 05       		.byte	0x5
 6499 196e 3C       		.byte	0x3c
 6500 196f 0F010000 		.4byte	0x10f
 6501 1973 05       		.uleb128 0x5
 6502 1974 03       		.byte	0x3
 6503 1975 00000000 		.4byte	delayPicture1
 6504 1979 1C       		.uleb128 0x1c
ARM GAS  C:\Users\RECEPC~1\AppData\Local\Temp\ccBlh02k.s 			page 130


 6505 197a 930A0000 		.4byte	.LASF185
 6506 197e 05       		.byte	0x5
 6507 197f 3D       		.byte	0x3d
 6508 1980 0F010000 		.4byte	0x10f
 6509 1984 05       		.uleb128 0x5
 6510 1985 03       		.byte	0x3
 6511 1986 00000000 		.4byte	delayPicture2
 6512 198a 1C       		.uleb128 0x1c
 6513 198b 28080000 		.4byte	.LASF186
 6514 198f 05       		.byte	0x5
 6515 1990 3E       		.byte	0x3e
 6516 1991 0A010000 		.4byte	0x10a
 6517 1995 05       		.uleb128 0x5
 6518 1996 03       		.byte	0x3
 6519 1997 00000000 		.4byte	ppux10
 6520 199b 1C       		.uleb128 0x1c
 6521 199c FC000000 		.4byte	.LASF187
 6522 19a0 05       		.byte	0x5
 6523 19a1 3F       		.byte	0x3f
 6524 19a2 0A010000 		.4byte	0x10a
 6525 19a6 05       		.uleb128 0x5
 6526 19a7 03       		.byte	0x3
 6527 19a8 00000000 		.4byte	decimalMoney
 6528 19ac 1C       		.uleb128 0x1c
 6529 19ad 79000000 		.4byte	.LASF188
 6530 19b1 05       		.byte	0x5
 6531 19b2 40       		.byte	0x40
 6532 19b3 0A010000 		.4byte	0x10a
 6533 19b7 05       		.uleb128 0x5
 6534 19b8 03       		.byte	0x3
 6535 19b9 00000000 		.4byte	decimalVolume
 6536 19bd 1C       		.uleb128 0x1c
 6537 19be 74080000 		.4byte	.LASF189
 6538 19c2 05       		.byte	0x5
 6539 19c3 41       		.byte	0x41
 6540 19c4 CE190000 		.4byte	0x19ce
 6541 19c8 05       		.uleb128 0x5
 6542 19c9 03       		.byte	0x3
 6543 19ca 00000000 		.4byte	symbols
 6544 19ce 06       		.uleb128 0x6
 6545 19cf E4030000 		.4byte	0x3e4
 6546 19d3 07       		.uleb128 0x7
 6547 19d4 AD000000 		.4byte	0xad
 6548 19d8 E3190000 		.4byte	0x19e3
 6549 19dc 08       		.uleb128 0x8
 6550 19dd 14010000 		.4byte	0x114
 6551 19e1 02       		.byte	0x2
 6552 19e2 00       		.byte	0
 6553 19e3 1C       		.uleb128 0x1c
 6554 19e4 AC030000 		.4byte	.LASF190
 6555 19e8 05       		.byte	0x5
 6556 19e9 42       		.byte	0x42
 6557 19ea F4190000 		.4byte	0x19f4
 6558 19ee 05       		.uleb128 0x5
 6559 19ef 03       		.byte	0x3
 6560 19f0 00000000 		.4byte	time
 6561 19f4 06       		.uleb128 0x6
ARM GAS  C:\Users\RECEPC~1\AppData\Local\Temp\ccBlh02k.s 			page 131


 6562 19f5 D3190000 		.4byte	0x19d3
 6563 19f9 1C       		.uleb128 0x1c
 6564 19fa B0050000 		.4byte	.LASF191
 6565 19fe 05       		.byte	0x5
 6566 19ff 43       		.byte	0x43
 6567 1a00 0A1A0000 		.4byte	0x1a0a
 6568 1a04 05       		.uleb128 0x5
 6569 1a05 03       		.byte	0x3
 6570 1a06 00000000 		.4byte	date
 6571 1a0a 06       		.uleb128 0x6
 6572 1a0b D3190000 		.4byte	0x19d3
 6573 1a0f 1C       		.uleb128 0x1c
 6574 1a10 40020000 		.4byte	.LASF192
 6575 1a14 05       		.byte	0x5
 6576 1a15 44       		.byte	0x44
 6577 1a16 201A0000 		.4byte	0x1a20
 6578 1a1a 05       		.uleb128 0x5
 6579 1a1b 03       		.byte	0x3
 6580 1a1c 00000000 		.4byte	screen
 6581 1a20 06       		.uleb128 0x6
 6582 1a21 E4030000 		.4byte	0x3e4
 6583 1a25 1C       		.uleb128 0x1c
 6584 1a26 7E010000 		.4byte	.LASF193
 6585 1a2a 05       		.byte	0x5
 6586 1a2b 45       		.byte	0x45
 6587 1a2c 361A0000 		.4byte	0x1a36
 6588 1a30 05       		.uleb128 0x5
 6589 1a31 03       		.byte	0x3
 6590 1a32 00000000 		.4byte	residue
 6591 1a36 06       		.uleb128 0x6
 6592 1a37 2A040000 		.4byte	0x42a
 6593 1a3b 07       		.uleb128 0x7
 6594 1a3c AD000000 		.4byte	0xad
 6595 1a40 4B1A0000 		.4byte	0x1a4b
 6596 1a44 08       		.uleb128 0x8
 6597 1a45 14010000 		.4byte	0x114
 6598 1a49 1D       		.byte	0x1d
 6599 1a4a 00       		.byte	0
 6600 1a4b 1C       		.uleb128 0x1c
 6601 1a4c 050D0000 		.4byte	.LASF194
 6602 1a50 05       		.byte	0x5
 6603 1a51 46       		.byte	0x46
 6604 1a52 3B1A0000 		.4byte	0x1a3b
 6605 1a56 05       		.uleb128 0x5
 6606 1a57 03       		.byte	0x3
 6607 1a58 00000000 		.4byte	temporal
 6608 1a5c 1C       		.uleb128 0x1c
 6609 1a5d C8040000 		.4byte	.LASF195
 6610 1a61 05       		.byte	0x5
 6611 1a62 47       		.byte	0x47
 6612 1a63 0A010000 		.4byte	0x10a
 6613 1a67 05       		.uleb128 0x5
 6614 1a68 03       		.byte	0x3
 6615 1a69 00000000 		.4byte	turn
 6616 1a6d 1C       		.uleb128 0x1c
 6617 1a6e ED030000 		.4byte	.LASF196
 6618 1a72 05       		.byte	0x5
ARM GAS  C:\Users\RECEPC~1\AppData\Local\Temp\ccBlh02k.s 			page 132


 6619 1a73 48       		.byte	0x48
 6620 1a74 0A010000 		.4byte	0x10a
 6621 1a78 05       		.uleb128 0x5
 6622 1a79 03       		.byte	0x3
 6623 1a7a 00000000 		.4byte	lockTurn
 6624 1a7e 1C       		.uleb128 0x1c
 6625 1a7f 830C0000 		.4byte	.LASF197
 6626 1a83 05       		.byte	0x5
 6627 1a84 49       		.byte	0x49
 6628 1a85 8F1A0000 		.4byte	0x1a8f
 6629 1a89 05       		.uleb128 0x5
 6630 1a8a 03       		.byte	0x3
 6631 1a8b 00000000 		.4byte	idSeller
 6632 1a8f 06       		.uleb128 0x6
 6633 1a90 B4030000 		.4byte	0x3b4
 6634 1a94 1C       		.uleb128 0x1c
 6635 1a95 490D0000 		.4byte	.LASF198
 6636 1a99 05       		.byte	0x5
 6637 1a9a 4A       		.byte	0x4a
 6638 1a9b 0A010000 		.4byte	0x10a
 6639 1a9f 05       		.uleb128 0x5
 6640 1aa0 03       		.byte	0x3
 6641 1aa1 00000000 		.4byte	typeIdSeller
 6642 1aa5 07       		.uleb128 0x7
 6643 1aa6 AD000000 		.4byte	0xad
 6644 1aaa B51A0000 		.4byte	0x1ab5
 6645 1aae 08       		.uleb128 0x8
 6646 1aaf 14010000 		.4byte	0x114
 6647 1ab3 07       		.byte	0x7
 6648 1ab4 00       		.byte	0
 6649 1ab5 1C       		.uleb128 0x1c
 6650 1ab6 3F0A0000 		.4byte	.LASF199
 6651 1aba 05       		.byte	0x5
 6652 1abb 4B       		.byte	0x4b
 6653 1abc C61A0000 		.4byte	0x1ac6
 6654 1ac0 05       		.uleb128 0x5
 6655 1ac1 03       		.byte	0x3
 6656 1ac2 00000000 		.4byte	passwordSeller
 6657 1ac6 06       		.uleb128 0x6
 6658 1ac7 A51A0000 		.4byte	0x1aa5
 6659 1acb 1C       		.uleb128 0x1c
 6660 1acc B2070000 		.4byte	.LASF200
 6661 1ad0 05       		.byte	0x5
 6662 1ad1 4C       		.byte	0x4c
 6663 1ad2 0A010000 		.4byte	0x10a
 6664 1ad6 05       		.uleb128 0x5
 6665 1ad7 03       		.byte	0x3
 6666 1ad8 00000000 		.4byte	flagResetMux
 6667 1adc 1C       		.uleb128 0x1c
 6668 1add D9060000 		.4byte	.LASF201
 6669 1ae1 05       		.byte	0x5
 6670 1ae2 4D       		.byte	0x4d
 6671 1ae3 0A010000 		.4byte	0x10a
 6672 1ae7 05       		.uleb128 0x5
 6673 1ae8 03       		.byte	0x3
 6674 1ae9 00000000 		.4byte	stateBeagleSoft
 6675 1aed 1C       		.uleb128 0x1c
ARM GAS  C:\Users\RECEPC~1\AppData\Local\Temp\ccBlh02k.s 			page 133


 6676 1aee 87000000 		.4byte	.LASF202
 6677 1af2 05       		.byte	0x5
 6678 1af3 4E       		.byte	0x4e
 6679 1af4 FE1A0000 		.4byte	0x1afe
 6680 1af8 05       		.uleb128 0x5
 6681 1af9 03       		.byte	0x3
 6682 1afa 00000000 		.4byte	PrevStatePump
 6683 1afe 06       		.uleb128 0x6
 6684 1aff 1B010000 		.4byte	0x11b
 6685 1b03 1C       		.uleb128 0x1c
 6686 1b04 8D020000 		.4byte	.LASF203
 6687 1b08 05       		.byte	0x5
 6688 1b09 4F       		.byte	0x4f
 6689 1b0a 0A010000 		.4byte	0x10a
 6690 1b0e 05       		.uleb128 0x5
 6691 1b0f 03       		.byte	0x3
 6692 1b10 00000000 		.4byte	PlateRequest
 6693 1b14 1C       		.uleb128 0x1c
 6694 1b15 5F0A0000 		.4byte	.LASF204
 6695 1b19 05       		.byte	0x5
 6696 1b1a 51       		.byte	0x51
 6697 1b1b AD000000 		.4byte	0xad
 6698 1b1f 05       		.uleb128 0x5
 6699 1b20 03       		.byte	0x3
 6700 1b21 00000000 		.4byte	UnitType
 6701 1b25 1C       		.uleb128 0x1c
 6702 1b26 1F050000 		.4byte	.LASF205
 6703 1b2a 05       		.byte	0x5
 6704 1b2b 51       		.byte	0x51
 6705 1b2c AD000000 		.4byte	0xad
 6706 1b30 05       		.uleb128 0x5
 6707 1b31 03       		.byte	0x3
 6708 1b32 00000000 		.4byte	ConversionFactor
 6709 1b36 1C       		.uleb128 0x1c
 6710 1b37 F8020000 		.4byte	.LASF206
 6711 1b3b 05       		.byte	0x5
 6712 1b3c 51       		.byte	0x51
 6713 1b3d AD000000 		.4byte	0xad
 6714 1b41 05       		.uleb128 0x5
 6715 1b42 03       		.byte	0x3
 6716 1b43 00000000 		.4byte	MoneyDec
 6717 1b47 1C       		.uleb128 0x1c
 6718 1b48 0E0D0000 		.4byte	.LASF207
 6719 1b4c 05       		.byte	0x5
 6720 1b4d 51       		.byte	0x51
 6721 1b4e AD000000 		.4byte	0xad
 6722 1b52 05       		.uleb128 0x5
 6723 1b53 03       		.byte	0x3
 6724 1b54 00000000 		.4byte	VolDec
 6725 1b58 1C       		.uleb128 0x1c
 6726 1b59 D90A0000 		.4byte	.LASF208
 6727 1b5d 05       		.byte	0x5
 6728 1b5e 51       		.byte	0x51
 6729 1b5f AD000000 		.4byte	0xad
 6730 1b63 05       		.uleb128 0x5
 6731 1b64 03       		.byte	0x3
 6732 1b65 00000000 		.4byte	PPUDec
ARM GAS  C:\Users\RECEPC~1\AppData\Local\Temp\ccBlh02k.s 			page 134


 6733 1b69 1C       		.uleb128 0x1c
 6734 1b6a A8010000 		.4byte	.LASF209
 6735 1b6e 05       		.byte	0x5
 6736 1b6f 51       		.byte	0x51
 6737 1b70 AD000000 		.4byte	0xad
 6738 1b74 05       		.uleb128 0x5
 6739 1b75 03       		.byte	0x3
 6740 1b76 00000000 		.4byte	DDMode
 6741 1b7a 1C       		.uleb128 0x1c
 6742 1b7b E2000000 		.4byte	.LASF210
 6743 1b7f 05       		.byte	0x5
 6744 1b80 52       		.byte	0x52
 6745 1b81 1B010000 		.4byte	0x11b
 6746 1b85 05       		.uleb128 0x5
 6747 1b86 03       		.byte	0x3
 6748 1b87 00000000 		.4byte	statePump
 6749 1b8b 1C       		.uleb128 0x1c
 6750 1b8c CC060000 		.4byte	.LASF211
 6751 1b90 05       		.byte	0x5
 6752 1b91 53       		.byte	0x53
 6753 1b92 AD000000 		.4byte	0xad
 6754 1b96 05       		.uleb128 0x5
 6755 1b97 03       		.byte	0x3
 6756 1b98 00000000 		.4byte	NumPositions
 6757 1b9c 1C       		.uleb128 0x1c
 6758 1b9d 9C030000 		.4byte	.LASF212
 6759 1ba1 05       		.byte	0x5
 6760 1ba2 54       		.byte	0x54
 6761 1ba3 AD000000 		.4byte	0xad
 6762 1ba7 05       		.uleb128 0x5
 6763 1ba8 03       		.byte	0x3
 6764 1ba9 00000000 		.4byte	digits
 6765 1bad 1C       		.uleb128 0x1c
 6766 1bae 3D0F0000 		.4byte	.LASF213
 6767 1bb2 05       		.byte	0x5
 6768 1bb3 94       		.byte	0x94
 6769 1bb4 2B010000 		.4byte	0x12b
 6770 1bb8 05       		.uleb128 0x5
 6771 1bb9 03       		.byte	0x3
 6772 1bba 00000000 		.4byte	bufferDisplay1
 6773 1bbe 1C       		.uleb128 0x1c
 6774 1bbf F0090000 		.4byte	.LASF214
 6775 1bc3 05       		.byte	0x5
 6776 1bc4 95       		.byte	0x95
 6777 1bc5 2B010000 		.4byte	0x12b
 6778 1bc9 05       		.uleb128 0x5
 6779 1bca 03       		.byte	0x3
 6780 1bcb 00000000 		.4byte	bufferDisplay2
 6781 1bcf 1C       		.uleb128 0x1c
 6782 1bd0 FF090000 		.4byte	.LASF215
 6783 1bd4 05       		.byte	0x5
 6784 1bd5 96       		.byte	0x96
 6785 1bd6 2B010000 		.4byte	0x12b
 6786 1bda 05       		.uleb128 0x5
 6787 1bdb 03       		.byte	0x3
 6788 1bdc 00000000 		.4byte	bufferDisplay3
 6789 1be0 1C       		.uleb128 0x1c
ARM GAS  C:\Users\RECEPC~1\AppData\Local\Temp\ccBlh02k.s 			page 135


 6790 1be1 550F0000 		.4byte	.LASF216
 6791 1be5 05       		.byte	0x5
 6792 1be6 97       		.byte	0x97
 6793 1be7 2B010000 		.4byte	0x12b
 6794 1beb 05       		.uleb128 0x5
 6795 1bec 03       		.byte	0x3
 6796 1bed 00000000 		.4byte	bufferDisplay4
 6797 1bf1 1C       		.uleb128 0x1c
 6798 1bf2 AF010000 		.4byte	.LASF217
 6799 1bf6 05       		.byte	0x5
 6800 1bf7 B6       		.byte	0xb6
 6801 1bf8 67050000 		.4byte	0x567
 6802 1bfc 05       		.uleb128 0x5
 6803 1bfd 03       		.byte	0x3
 6804 1bfe 00000000 		.4byte	side
 6805 1c02 1C       		.uleb128 0x1c
 6806 1c03 BF010000 		.4byte	.LASF218
 6807 1c07 01       		.byte	0x1
 6808 1c08 17       		.byte	0x17
 6809 1c09 C4030000 		.4byte	0x3c4
 6810 1c0d 05       		.uleb128 0x5
 6811 1c0e 03       		.byte	0x3
 6812 1c0f 00000000 		.4byte	MuxVersion
 6813 1c13 1D       		.uleb128 0x1d
 6814 1c14 78040000 		.4byte	.LASF219
 6815 1c18 09       		.byte	0x9
 6816 1c19 1F       		.byte	0x1f
 6817 1c1a 1D       		.uleb128 0x1d
 6818 1c1b 63050000 		.4byte	.LASF220
 6819 1c1f 0A       		.byte	0xa
 6820 1c20 54       		.byte	0x54
 6821 1c21 1D       		.uleb128 0x1d
 6822 1c22 E4010000 		.4byte	.LASF221
 6823 1c26 06       		.byte	0x6
 6824 1c27 54       		.byte	0x54
 6825 1c28 1D       		.uleb128 0x1d
 6826 1c29 30010000 		.4byte	.LASF222
 6827 1c2d 07       		.byte	0x7
 6828 1c2e 54       		.byte	0x54
 6829 1c2f 1D       		.uleb128 0x1d
 6830 1c30 220F0000 		.4byte	.LASF223
 6831 1c34 0B       		.byte	0xb
 6832 1c35 54       		.byte	0x54
 6833 1c36 1D       		.uleb128 0x1d
 6834 1c37 C60E0000 		.4byte	.LASF224
 6835 1c3b 0C       		.byte	0xc
 6836 1c3c 54       		.byte	0x54
 6837 1c3d 1D       		.uleb128 0x1d
 6838 1c3e F9010000 		.4byte	.LASF225
 6839 1c42 0D       		.byte	0xd
 6840 1c43 AC       		.byte	0xac
 6841 1c44 1E       		.uleb128 0x1e
 6842 1c45 5B060000 		.4byte	.LASF229
 6843 1c49 09       		.byte	0x9
 6844 1c4a 21       		.byte	0x21
 6845 1c4b FE000000 		.4byte	0xfe
 6846 1c4f 5E1C0000 		.4byte	0x1c5e
ARM GAS  C:\Users\RECEPC~1\AppData\Local\Temp\ccBlh02k.s 			page 136


 6847 1c53 1F       		.uleb128 0x1f
 6848 1c54 AD000000 		.4byte	0xad
 6849 1c58 1F       		.uleb128 0x1f
 6850 1c59 B9000000 		.4byte	0xb9
 6851 1c5d 00       		.byte	0
 6852 1c5e 20       		.uleb128 0x20
 6853 1c5f D3070000 		.4byte	.LASF226
 6854 1c63 0E       		.byte	0xe
 6855 1c64 22       		.byte	0x22
 6856 1c65 741C0000 		.4byte	0x1c74
 6857 1c69 1F       		.uleb128 0x1f
 6858 1c6a AD000000 		.4byte	0xad
 6859 1c6e 1F       		.uleb128 0x1f
 6860 1c6f B9000000 		.4byte	0xb9
 6861 1c73 00       		.byte	0
 6862 1c74 20       		.uleb128 0x20
 6863 1c75 050B0000 		.4byte	.LASF227
 6864 1c79 0E       		.byte	0xe
 6865 1c7a 29       		.byte	0x29
 6866 1c7b 8F1C0000 		.4byte	0x1c8f
 6867 1c7f 1F       		.uleb128 0x1f
 6868 1c80 AD000000 		.4byte	0xad
 6869 1c84 1F       		.uleb128 0x1f
 6870 1c85 8F1C0000 		.4byte	0x1c8f
 6871 1c89 1F       		.uleb128 0x1f
 6872 1c8a AD000000 		.4byte	0xad
 6873 1c8e 00       		.byte	0
 6874 1c8f 21       		.uleb128 0x21
 6875 1c90 04       		.byte	0x4
 6876 1c91 AD000000 		.4byte	0xad
 6877 1c95 20       		.uleb128 0x20
 6878 1c96 00000000 		.4byte	.LASF228
 6879 1c9a 0F       		.byte	0xf
 6880 1c9b 77       		.byte	0x77
 6881 1c9c A61C0000 		.4byte	0x1ca6
 6882 1ca0 1F       		.uleb128 0x1f
 6883 1ca1 C5000000 		.4byte	0xc5
 6884 1ca5 00       		.byte	0
 6885 1ca6 22       		.uleb128 0x22
 6886 1ca7 87040000 		.4byte	.LASF235
 6887 1cab 10       		.byte	0x10
 6888 1cac 23       		.byte	0x23
 6889 1cad AD000000 		.4byte	0xad
 6890 1cb1 1E       		.uleb128 0x1e
 6891 1cb2 7B0B0000 		.4byte	.LASF230
 6892 1cb6 10       		.byte	0x10
 6893 1cb7 22       		.byte	0x22
 6894 1cb8 AD000000 		.4byte	0xad
 6895 1cbc C61C0000 		.4byte	0x1cc6
 6896 1cc0 1F       		.uleb128 0x1f
 6897 1cc1 AD000000 		.4byte	0xad
 6898 1cc5 00       		.byte	0
 6899 1cc6 1E       		.uleb128 0x1e
 6900 1cc7 6E060000 		.4byte	.LASF231
 6901 1ccb 10       		.byte	0x10
 6902 1ccc 2D       		.byte	0x2d
 6903 1ccd DB1C0000 		.4byte	0x1cdb
ARM GAS  C:\Users\RECEPC~1\AppData\Local\Temp\ccBlh02k.s 			page 137


 6904 1cd1 DB1C0000 		.4byte	0x1cdb
 6905 1cd5 1F       		.uleb128 0x1f
 6906 1cd6 AD000000 		.4byte	0xad
 6907 1cda 00       		.byte	0
 6908 1cdb 02       		.uleb128 0x2
 6909 1cdc 01       		.byte	0x1
 6910 1cdd 02       		.byte	0x2
 6911 1cde 20040000 		.4byte	.LASF232
 6912 1ce2 1E       		.uleb128 0x1e
 6913 1ce3 81070000 		.4byte	.LASF233
 6914 1ce7 10       		.byte	0x10
 6915 1ce8 29       		.byte	0x29
 6916 1ce9 AD000000 		.4byte	0xad
 6917 1ced F71C0000 		.4byte	0x1cf7
 6918 1cf1 1F       		.uleb128 0x1f
 6919 1cf2 AD000000 		.4byte	0xad
 6920 1cf6 00       		.byte	0
 6921 1cf7 1E       		.uleb128 0x1e
 6922 1cf8 63020000 		.4byte	.LASF234
 6923 1cfc 11       		.byte	0x11
 6924 1cfd 27       		.byte	0x27
 6925 1cfe AD000000 		.4byte	0xad
 6926 1d02 111D0000 		.4byte	0x1d11
 6927 1d06 1F       		.uleb128 0x1f
 6928 1d07 AD000000 		.4byte	0xad
 6929 1d0b 1F       		.uleb128 0x1f
 6930 1d0c AD000000 		.4byte	0xad
 6931 1d10 00       		.byte	0
 6932 1d11 22       		.uleb128 0x22
 6933 1d12 910C0000 		.4byte	.LASF236
 6934 1d16 06       		.byte	0x6
 6935 1d17 73       		.byte	0x73
 6936 1d18 AD000000 		.4byte	0xad
 6937 1d1c 1D       		.uleb128 0x1d
 6938 1d1d AF0E0000 		.4byte	.LASF237
 6939 1d21 06       		.byte	0x6
 6940 1d22 75       		.byte	0x75
 6941 1d23 20       		.uleb128 0x20
 6942 1d24 22030000 		.4byte	.LASF238
 6943 1d28 0E       		.byte	0xe
 6944 1d29 24       		.byte	0x24
 6945 1d2a 521D0000 		.4byte	0x1d52
 6946 1d2e 1F       		.uleb128 0x1f
 6947 1d2f 8C000000 		.4byte	0x8c
 6948 1d33 1F       		.uleb128 0x1f
 6949 1d34 8C000000 		.4byte	0x8c
 6950 1d38 1F       		.uleb128 0x1f
 6951 1d39 97000000 		.4byte	0x97
 6952 1d3d 1F       		.uleb128 0x1f
 6953 1d3e 97000000 		.4byte	0x97
 6954 1d42 1F       		.uleb128 0x1f
 6955 1d43 8C000000 		.4byte	0x8c
 6956 1d47 1F       		.uleb128 0x1f
 6957 1d48 97000000 		.4byte	0x97
 6958 1d4c 1F       		.uleb128 0x1f
 6959 1d4d 8C000000 		.4byte	0x8c
 6960 1d51 00       		.byte	0
ARM GAS  C:\Users\RECEPC~1\AppData\Local\Temp\ccBlh02k.s 			page 138


 6961 1d52 1E       		.uleb128 0x1e
 6962 1d53 6F0A0000 		.4byte	.LASF239
 6963 1d57 12       		.byte	0x12
 6964 1d58 15       		.byte	0x15
 6965 1d59 AD000000 		.4byte	0xad
 6966 1d5d 711D0000 		.4byte	0x1d71
 6967 1d61 1F       		.uleb128 0x1f
 6968 1d62 AD000000 		.4byte	0xad
 6969 1d66 1F       		.uleb128 0x1f
 6970 1d67 AD000000 		.4byte	0xad
 6971 1d6b 1F       		.uleb128 0x1f
 6972 1d6c AD000000 		.4byte	0xad
 6973 1d70 00       		.byte	0
 6974 1d71 1E       		.uleb128 0x1e
 6975 1d72 FC040000 		.4byte	.LASF240
 6976 1d76 10       		.byte	0x10
 6977 1d77 2A       		.byte	0x2a
 6978 1d78 AD000000 		.4byte	0xad
 6979 1d7c 861D0000 		.4byte	0x1d86
 6980 1d80 1F       		.uleb128 0x1f
 6981 1d81 AD000000 		.4byte	0xad
 6982 1d85 00       		.byte	0
 6983 1d86 1E       		.uleb128 0x1e
 6984 1d87 610D0000 		.4byte	.LASF241
 6985 1d8b 10       		.byte	0x10
 6986 1d8c 2B       		.byte	0x2b
 6987 1d8d AD000000 		.4byte	0xad
 6988 1d91 AA1D0000 		.4byte	0x1daa
 6989 1d95 1F       		.uleb128 0x1f
 6990 1d96 AD000000 		.4byte	0xad
 6991 1d9a 1F       		.uleb128 0x1f
 6992 1d9b EB000000 		.4byte	0xeb
 6993 1d9f 1F       		.uleb128 0x1f
 6994 1da0 8F1C0000 		.4byte	0x1c8f
 6995 1da4 1F       		.uleb128 0x1f
 6996 1da5 AD000000 		.4byte	0xad
 6997 1da9 00       		.byte	0
 6998 1daa 20       		.uleb128 0x20
 6999 1dab 48050000 		.4byte	.LASF242
 7000 1daf 0A       		.byte	0xa
 7001 1db0 8A       		.byte	0x8a
 7002 1db1 BB1D0000 		.4byte	0x1dbb
 7003 1db5 1F       		.uleb128 0x1f
 7004 1db6 AD000000 		.4byte	0xad
 7005 1dba 00       		.byte	0
 7006 1dbb 1E       		.uleb128 0x1e
 7007 1dbc 7C0E0000 		.4byte	.LASF243
 7008 1dc0 10       		.byte	0x10
 7009 1dc1 2C       		.byte	0x2c
 7010 1dc2 AD000000 		.4byte	0xad
 7011 1dc6 D01D0000 		.4byte	0x1dd0
 7012 1dca 1F       		.uleb128 0x1f
 7013 1dcb AD000000 		.4byte	0xad
 7014 1dcf 00       		.byte	0
 7015 1dd0 20       		.uleb128 0x20
 7016 1dd1 C6080000 		.4byte	.LASF244
 7017 1dd5 13       		.byte	0x13
ARM GAS  C:\Users\RECEPC~1\AppData\Local\Temp\ccBlh02k.s 			page 139


 7018 1dd6 25       		.byte	0x25
 7019 1dd7 F01D0000 		.4byte	0x1df0
 7020 1ddb 1F       		.uleb128 0x1f
 7021 1ddc AD000000 		.4byte	0xad
 7022 1de0 1F       		.uleb128 0x1f
 7023 1de1 AD000000 		.4byte	0xad
 7024 1de5 1F       		.uleb128 0x1f
 7025 1de6 AD000000 		.4byte	0xad
 7026 1dea 1F       		.uleb128 0x1f
 7027 1deb AD000000 		.4byte	0xad
 7028 1def 00       		.byte	0
 7029 1df0 20       		.uleb128 0x20
 7030 1df1 BA040000 		.4byte	.LASF245
 7031 1df5 0E       		.byte	0xe
 7032 1df6 26       		.byte	0x26
 7033 1df7 061E0000 		.4byte	0x1e06
 7034 1dfb 1F       		.uleb128 0x1f
 7035 1dfc AD000000 		.4byte	0xad
 7036 1e00 1F       		.uleb128 0x1f
 7037 1e01 AD000000 		.4byte	0xad
 7038 1e05 00       		.byte	0
 7039 1e06 22       		.uleb128 0x22
 7040 1e07 A7000000 		.4byte	.LASF246
 7041 1e0b 07       		.byte	0x7
 7042 1e0c 73       		.byte	0x73
 7043 1e0d AD000000 		.4byte	0xad
 7044 1e11 1D       		.uleb128 0x1d
 7045 1e12 71090000 		.4byte	.LASF247
 7046 1e16 07       		.byte	0x7
 7047 1e17 75       		.byte	0x75
 7048 1e18 20       		.uleb128 0x20
 7049 1e19 B4010000 		.4byte	.LASF248
 7050 1e1d 0F       		.byte	0xf
 7051 1e1e 73       		.byte	0x73
 7052 1e1f 2E1E0000 		.4byte	0x1e2e
 7053 1e23 1F       		.uleb128 0x1f
 7054 1e24 AD000000 		.4byte	0xad
 7055 1e28 1F       		.uleb128 0x1f
 7056 1e29 AD000000 		.4byte	0xad
 7057 1e2d 00       		.byte	0
 7058 1e2e 1D       		.uleb128 0x1d
 7059 1e2f 6E000000 		.4byte	.LASF249
 7060 1e33 0F       		.byte	0xf
 7061 1e34 74       		.byte	0x74
 7062 1e35 00       		.byte	0
 7063              		.section	.debug_abbrev,"",%progbits
 7064              	.Ldebug_abbrev0:
 7065 0000 01       		.uleb128 0x1
 7066 0001 11       		.uleb128 0x11
 7067 0002 01       		.byte	0x1
 7068 0003 25       		.uleb128 0x25
 7069 0004 0E       		.uleb128 0xe
 7070 0005 13       		.uleb128 0x13
 7071 0006 0B       		.uleb128 0xb
 7072 0007 03       		.uleb128 0x3
 7073 0008 0E       		.uleb128 0xe
 7074 0009 1B       		.uleb128 0x1b
ARM GAS  C:\Users\RECEPC~1\AppData\Local\Temp\ccBlh02k.s 			page 140


 7075 000a 0E       		.uleb128 0xe
 7076 000b 55       		.uleb128 0x55
 7077 000c 17       		.uleb128 0x17
 7078 000d 11       		.uleb128 0x11
 7079 000e 01       		.uleb128 0x1
 7080 000f 10       		.uleb128 0x10
 7081 0010 17       		.uleb128 0x17
 7082 0011 00       		.byte	0
 7083 0012 00       		.byte	0
 7084 0013 02       		.uleb128 0x2
 7085 0014 24       		.uleb128 0x24
 7086 0015 00       		.byte	0
 7087 0016 0B       		.uleb128 0xb
 7088 0017 0B       		.uleb128 0xb
 7089 0018 3E       		.uleb128 0x3e
 7090 0019 0B       		.uleb128 0xb
 7091 001a 03       		.uleb128 0x3
 7092 001b 0E       		.uleb128 0xe
 7093 001c 00       		.byte	0
 7094 001d 00       		.byte	0
 7095 001e 03       		.uleb128 0x3
 7096 001f 16       		.uleb128 0x16
 7097 0020 00       		.byte	0
 7098 0021 03       		.uleb128 0x3
 7099 0022 0E       		.uleb128 0xe
 7100 0023 3A       		.uleb128 0x3a
 7101 0024 0B       		.uleb128 0xb
 7102 0025 3B       		.uleb128 0x3b
 7103 0026 0B       		.uleb128 0xb
 7104 0027 49       		.uleb128 0x49
 7105 0028 13       		.uleb128 0x13
 7106 0029 00       		.byte	0
 7107 002a 00       		.byte	0
 7108 002b 04       		.uleb128 0x4
 7109 002c 24       		.uleb128 0x24
 7110 002d 00       		.byte	0
 7111 002e 0B       		.uleb128 0xb
 7112 002f 0B       		.uleb128 0xb
 7113 0030 3E       		.uleb128 0x3e
 7114 0031 0B       		.uleb128 0xb
 7115 0032 03       		.uleb128 0x3
 7116 0033 08       		.uleb128 0x8
 7117 0034 00       		.byte	0
 7118 0035 00       		.byte	0
 7119 0036 05       		.uleb128 0x5
 7120 0037 16       		.uleb128 0x16
 7121 0038 00       		.byte	0
 7122 0039 03       		.uleb128 0x3
 7123 003a 0E       		.uleb128 0xe
 7124 003b 3A       		.uleb128 0x3a
 7125 003c 0B       		.uleb128 0xb
 7126 003d 3B       		.uleb128 0x3b
 7127 003e 05       		.uleb128 0x5
 7128 003f 49       		.uleb128 0x49
 7129 0040 13       		.uleb128 0x13
 7130 0041 00       		.byte	0
 7131 0042 00       		.byte	0
ARM GAS  C:\Users\RECEPC~1\AppData\Local\Temp\ccBlh02k.s 			page 141


 7132 0043 06       		.uleb128 0x6
 7133 0044 35       		.uleb128 0x35
 7134 0045 00       		.byte	0
 7135 0046 49       		.uleb128 0x49
 7136 0047 13       		.uleb128 0x13
 7137 0048 00       		.byte	0
 7138 0049 00       		.byte	0
 7139 004a 07       		.uleb128 0x7
 7140 004b 01       		.uleb128 0x1
 7141 004c 01       		.byte	0x1
 7142 004d 49       		.uleb128 0x49
 7143 004e 13       		.uleb128 0x13
 7144 004f 01       		.uleb128 0x1
 7145 0050 13       		.uleb128 0x13
 7146 0051 00       		.byte	0
 7147 0052 00       		.byte	0
 7148 0053 08       		.uleb128 0x8
 7149 0054 21       		.uleb128 0x21
 7150 0055 00       		.byte	0
 7151 0056 49       		.uleb128 0x49
 7152 0057 13       		.uleb128 0x13
 7153 0058 2F       		.uleb128 0x2f
 7154 0059 0B       		.uleb128 0xb
 7155 005a 00       		.byte	0
 7156 005b 00       		.byte	0
 7157 005c 09       		.uleb128 0x9
 7158 005d 13       		.uleb128 0x13
 7159 005e 01       		.byte	0x1
 7160 005f 03       		.uleb128 0x3
 7161 0060 0E       		.uleb128 0xe
 7162 0061 0B       		.uleb128 0xb
 7163 0062 05       		.uleb128 0x5
 7164 0063 3A       		.uleb128 0x3a
 7165 0064 0B       		.uleb128 0xb
 7166 0065 3B       		.uleb128 0x3b
 7167 0066 0B       		.uleb128 0xb
 7168 0067 01       		.uleb128 0x1
 7169 0068 13       		.uleb128 0x13
 7170 0069 00       		.byte	0
 7171 006a 00       		.byte	0
 7172 006b 0A       		.uleb128 0xa
 7173 006c 0D       		.uleb128 0xd
 7174 006d 00       		.byte	0
 7175 006e 03       		.uleb128 0x3
 7176 006f 0E       		.uleb128 0xe
 7177 0070 3A       		.uleb128 0x3a
 7178 0071 0B       		.uleb128 0xb
 7179 0072 3B       		.uleb128 0x3b
 7180 0073 0B       		.uleb128 0xb
 7181 0074 49       		.uleb128 0x49
 7182 0075 13       		.uleb128 0x13
 7183 0076 38       		.uleb128 0x38
 7184 0077 0B       		.uleb128 0xb
 7185 0078 00       		.byte	0
 7186 0079 00       		.byte	0
 7187 007a 0B       		.uleb128 0xb
 7188 007b 0D       		.uleb128 0xd
ARM GAS  C:\Users\RECEPC~1\AppData\Local\Temp\ccBlh02k.s 			page 142


 7189 007c 00       		.byte	0
 7190 007d 03       		.uleb128 0x3
 7191 007e 0E       		.uleb128 0xe
 7192 007f 3A       		.uleb128 0x3a
 7193 0080 0B       		.uleb128 0xb
 7194 0081 3B       		.uleb128 0x3b
 7195 0082 0B       		.uleb128 0xb
 7196 0083 49       		.uleb128 0x49
 7197 0084 13       		.uleb128 0x13
 7198 0085 38       		.uleb128 0x38
 7199 0086 05       		.uleb128 0x5
 7200 0087 00       		.byte	0
 7201 0088 00       		.byte	0
 7202 0089 0C       		.uleb128 0xc
 7203 008a 0D       		.uleb128 0xd
 7204 008b 00       		.byte	0
 7205 008c 03       		.uleb128 0x3
 7206 008d 08       		.uleb128 0x8
 7207 008e 3A       		.uleb128 0x3a
 7208 008f 0B       		.uleb128 0xb
 7209 0090 3B       		.uleb128 0x3b
 7210 0091 0B       		.uleb128 0xb
 7211 0092 49       		.uleb128 0x49
 7212 0093 13       		.uleb128 0x13
 7213 0094 38       		.uleb128 0x38
 7214 0095 0B       		.uleb128 0xb
 7215 0096 00       		.byte	0
 7216 0097 00       		.byte	0
 7217 0098 0D       		.uleb128 0xd
 7218 0099 0D       		.uleb128 0xd
 7219 009a 00       		.byte	0
 7220 009b 03       		.uleb128 0x3
 7221 009c 08       		.uleb128 0x8
 7222 009d 3A       		.uleb128 0x3a
 7223 009e 0B       		.uleb128 0xb
 7224 009f 3B       		.uleb128 0x3b
 7225 00a0 0B       		.uleb128 0xb
 7226 00a1 49       		.uleb128 0x49
 7227 00a2 13       		.uleb128 0x13
 7228 00a3 38       		.uleb128 0x38
 7229 00a4 05       		.uleb128 0x5
 7230 00a5 00       		.byte	0
 7231 00a6 00       		.byte	0
 7232 00a7 0E       		.uleb128 0xe
 7233 00a8 04       		.uleb128 0x4
 7234 00a9 01       		.byte	0x1
 7235 00aa 03       		.uleb128 0x3
 7236 00ab 0E       		.uleb128 0xe
 7237 00ac 0B       		.uleb128 0xb
 7238 00ad 0B       		.uleb128 0xb
 7239 00ae 3A       		.uleb128 0x3a
 7240 00af 0B       		.uleb128 0xb
 7241 00b0 3B       		.uleb128 0x3b
 7242 00b1 0B       		.uleb128 0xb
 7243 00b2 01       		.uleb128 0x1
 7244 00b3 13       		.uleb128 0x13
 7245 00b4 00       		.byte	0
ARM GAS  C:\Users\RECEPC~1\AppData\Local\Temp\ccBlh02k.s 			page 143


 7246 00b5 00       		.byte	0
 7247 00b6 0F       		.uleb128 0xf
 7248 00b7 28       		.uleb128 0x28
 7249 00b8 00       		.byte	0
 7250 00b9 03       		.uleb128 0x3
 7251 00ba 0E       		.uleb128 0xe
 7252 00bb 1C       		.uleb128 0x1c
 7253 00bc 0D       		.uleb128 0xd
 7254 00bd 00       		.byte	0
 7255 00be 00       		.byte	0
 7256 00bf 10       		.uleb128 0x10
 7257 00c0 2E       		.uleb128 0x2e
 7258 00c1 01       		.byte	0x1
 7259 00c2 3F       		.uleb128 0x3f
 7260 00c3 19       		.uleb128 0x19
 7261 00c4 03       		.uleb128 0x3
 7262 00c5 0E       		.uleb128 0xe
 7263 00c6 3A       		.uleb128 0x3a
 7264 00c7 0B       		.uleb128 0xb
 7265 00c8 3B       		.uleb128 0x3b
 7266 00c9 0B       		.uleb128 0xb
 7267 00ca 11       		.uleb128 0x11
 7268 00cb 01       		.uleb128 0x1
 7269 00cc 12       		.uleb128 0x12
 7270 00cd 06       		.uleb128 0x6
 7271 00ce 40       		.uleb128 0x40
 7272 00cf 18       		.uleb128 0x18
 7273 00d0 9742     		.uleb128 0x2117
 7274 00d2 19       		.uleb128 0x19
 7275 00d3 01       		.uleb128 0x1
 7276 00d4 13       		.uleb128 0x13
 7277 00d5 00       		.byte	0
 7278 00d6 00       		.byte	0
 7279 00d7 11       		.uleb128 0x11
 7280 00d8 898201   		.uleb128 0x4109
 7281 00db 00       		.byte	0
 7282 00dc 11       		.uleb128 0x11
 7283 00dd 01       		.uleb128 0x1
 7284 00de 31       		.uleb128 0x31
 7285 00df 13       		.uleb128 0x13
 7286 00e0 00       		.byte	0
 7287 00e1 00       		.byte	0
 7288 00e2 12       		.uleb128 0x12
 7289 00e3 898201   		.uleb128 0x4109
 7290 00e6 01       		.byte	0x1
 7291 00e7 11       		.uleb128 0x11
 7292 00e8 01       		.uleb128 0x1
 7293 00e9 31       		.uleb128 0x31
 7294 00ea 13       		.uleb128 0x13
 7295 00eb 01       		.uleb128 0x1
 7296 00ec 13       		.uleb128 0x13
 7297 00ed 00       		.byte	0
 7298 00ee 00       		.byte	0
 7299 00ef 13       		.uleb128 0x13
 7300 00f0 8A8201   		.uleb128 0x410a
 7301 00f3 00       		.byte	0
 7302 00f4 02       		.uleb128 0x2
ARM GAS  C:\Users\RECEPC~1\AppData\Local\Temp\ccBlh02k.s 			page 144


 7303 00f5 18       		.uleb128 0x18
 7304 00f6 9142     		.uleb128 0x2111
 7305 00f8 18       		.uleb128 0x18
 7306 00f9 00       		.byte	0
 7307 00fa 00       		.byte	0
 7308 00fb 14       		.uleb128 0x14
 7309 00fc 898201   		.uleb128 0x4109
 7310 00ff 01       		.byte	0x1
 7311 0100 11       		.uleb128 0x11
 7312 0101 01       		.uleb128 0x1
 7313 0102 31       		.uleb128 0x31
 7314 0103 13       		.uleb128 0x13
 7315 0104 00       		.byte	0
 7316 0105 00       		.byte	0
 7317 0106 15       		.uleb128 0x15
 7318 0107 34       		.uleb128 0x34
 7319 0108 00       		.byte	0
 7320 0109 03       		.uleb128 0x3
 7321 010a 0E       		.uleb128 0xe
 7322 010b 3A       		.uleb128 0x3a
 7323 010c 0B       		.uleb128 0xb
 7324 010d 3B       		.uleb128 0x3b
 7325 010e 0B       		.uleb128 0xb
 7326 010f 49       		.uleb128 0x49
 7327 0110 13       		.uleb128 0x13
 7328 0111 02       		.uleb128 0x2
 7329 0112 18       		.uleb128 0x18
 7330 0113 00       		.byte	0
 7331 0114 00       		.byte	0
 7332 0115 16       		.uleb128 0x16
 7333 0116 34       		.uleb128 0x34
 7334 0117 00       		.byte	0
 7335 0118 03       		.uleb128 0x3
 7336 0119 08       		.uleb128 0x8
 7337 011a 3A       		.uleb128 0x3a
 7338 011b 0B       		.uleb128 0xb
 7339 011c 3B       		.uleb128 0x3b
 7340 011d 0B       		.uleb128 0xb
 7341 011e 49       		.uleb128 0x49
 7342 011f 13       		.uleb128 0x13
 7343 0120 02       		.uleb128 0x2
 7344 0121 17       		.uleb128 0x17
 7345 0122 00       		.byte	0
 7346 0123 00       		.byte	0
 7347 0124 17       		.uleb128 0x17
 7348 0125 2E       		.uleb128 0x2e
 7349 0126 01       		.byte	0x1
 7350 0127 3F       		.uleb128 0x3f
 7351 0128 19       		.uleb128 0x19
 7352 0129 03       		.uleb128 0x3
 7353 012a 0E       		.uleb128 0xe
 7354 012b 3A       		.uleb128 0x3a
 7355 012c 0B       		.uleb128 0xb
 7356 012d 3B       		.uleb128 0x3b
 7357 012e 0B       		.uleb128 0xb
 7358 012f 27       		.uleb128 0x27
 7359 0130 19       		.uleb128 0x19
ARM GAS  C:\Users\RECEPC~1\AppData\Local\Temp\ccBlh02k.s 			page 145


 7360 0131 11       		.uleb128 0x11
 7361 0132 01       		.uleb128 0x1
 7362 0133 12       		.uleb128 0x12
 7363 0134 06       		.uleb128 0x6
 7364 0135 40       		.uleb128 0x40
 7365 0136 18       		.uleb128 0x18
 7366 0137 9742     		.uleb128 0x2117
 7367 0139 19       		.uleb128 0x19
 7368 013a 01       		.uleb128 0x1
 7369 013b 13       		.uleb128 0x13
 7370 013c 00       		.byte	0
 7371 013d 00       		.byte	0
 7372 013e 18       		.uleb128 0x18
 7373 013f 2E       		.uleb128 0x2e
 7374 0140 01       		.byte	0x1
 7375 0141 3F       		.uleb128 0x3f
 7376 0142 19       		.uleb128 0x19
 7377 0143 03       		.uleb128 0x3
 7378 0144 0E       		.uleb128 0xe
 7379 0145 3A       		.uleb128 0x3a
 7380 0146 0B       		.uleb128 0xb
 7381 0147 3B       		.uleb128 0x3b
 7382 0148 05       		.uleb128 0x5
 7383 0149 27       		.uleb128 0x27
 7384 014a 19       		.uleb128 0x19
 7385 014b 11       		.uleb128 0x11
 7386 014c 01       		.uleb128 0x1
 7387 014d 12       		.uleb128 0x12
 7388 014e 06       		.uleb128 0x6
 7389 014f 40       		.uleb128 0x40
 7390 0150 18       		.uleb128 0x18
 7391 0151 9742     		.uleb128 0x2117
 7392 0153 19       		.uleb128 0x19
 7393 0154 01       		.uleb128 0x1
 7394 0155 13       		.uleb128 0x13
 7395 0156 00       		.byte	0
 7396 0157 00       		.byte	0
 7397 0158 19       		.uleb128 0x19
 7398 0159 34       		.uleb128 0x34
 7399 015a 00       		.byte	0
 7400 015b 03       		.uleb128 0x3
 7401 015c 08       		.uleb128 0x8
 7402 015d 3A       		.uleb128 0x3a
 7403 015e 0B       		.uleb128 0xb
 7404 015f 3B       		.uleb128 0x3b
 7405 0160 05       		.uleb128 0x5
 7406 0161 49       		.uleb128 0x49
 7407 0162 13       		.uleb128 0x13
 7408 0163 02       		.uleb128 0x2
 7409 0164 17       		.uleb128 0x17
 7410 0165 00       		.byte	0
 7411 0166 00       		.byte	0
 7412 0167 1A       		.uleb128 0x1a
 7413 0168 2E       		.uleb128 0x2e
 7414 0169 01       		.byte	0x1
 7415 016a 3F       		.uleb128 0x3f
 7416 016b 19       		.uleb128 0x19
ARM GAS  C:\Users\RECEPC~1\AppData\Local\Temp\ccBlh02k.s 			page 146


 7417 016c 03       		.uleb128 0x3
 7418 016d 0E       		.uleb128 0xe
 7419 016e 3A       		.uleb128 0x3a
 7420 016f 0B       		.uleb128 0xb
 7421 0170 3B       		.uleb128 0x3b
 7422 0171 05       		.uleb128 0x5
 7423 0172 49       		.uleb128 0x49
 7424 0173 13       		.uleb128 0x13
 7425 0174 11       		.uleb128 0x11
 7426 0175 01       		.uleb128 0x1
 7427 0176 12       		.uleb128 0x12
 7428 0177 06       		.uleb128 0x6
 7429 0178 40       		.uleb128 0x40
 7430 0179 18       		.uleb128 0x18
 7431 017a 9742     		.uleb128 0x2117
 7432 017c 19       		.uleb128 0x19
 7433 017d 01       		.uleb128 0x1
 7434 017e 13       		.uleb128 0x13
 7435 017f 00       		.byte	0
 7436 0180 00       		.byte	0
 7437 0181 1B       		.uleb128 0x1b
 7438 0182 34       		.uleb128 0x34
 7439 0183 00       		.byte	0
 7440 0184 03       		.uleb128 0x3
 7441 0185 0E       		.uleb128 0xe
 7442 0186 3A       		.uleb128 0x3a
 7443 0187 0B       		.uleb128 0xb
 7444 0188 3B       		.uleb128 0x3b
 7445 0189 05       		.uleb128 0x5
 7446 018a 49       		.uleb128 0x49
 7447 018b 13       		.uleb128 0x13
 7448 018c 3F       		.uleb128 0x3f
 7449 018d 19       		.uleb128 0x19
 7450 018e 3C       		.uleb128 0x3c
 7451 018f 19       		.uleb128 0x19
 7452 0190 00       		.byte	0
 7453 0191 00       		.byte	0
 7454 0192 1C       		.uleb128 0x1c
 7455 0193 34       		.uleb128 0x34
 7456 0194 00       		.byte	0
 7457 0195 03       		.uleb128 0x3
 7458 0196 0E       		.uleb128 0xe
 7459 0197 3A       		.uleb128 0x3a
 7460 0198 0B       		.uleb128 0xb
 7461 0199 3B       		.uleb128 0x3b
 7462 019a 0B       		.uleb128 0xb
 7463 019b 49       		.uleb128 0x49
 7464 019c 13       		.uleb128 0x13
 7465 019d 3F       		.uleb128 0x3f
 7466 019e 19       		.uleb128 0x19
 7467 019f 02       		.uleb128 0x2
 7468 01a0 18       		.uleb128 0x18
 7469 01a1 00       		.byte	0
 7470 01a2 00       		.byte	0
 7471 01a3 1D       		.uleb128 0x1d
 7472 01a4 2E       		.uleb128 0x2e
 7473 01a5 00       		.byte	0
ARM GAS  C:\Users\RECEPC~1\AppData\Local\Temp\ccBlh02k.s 			page 147


 7474 01a6 3F       		.uleb128 0x3f
 7475 01a7 19       		.uleb128 0x19
 7476 01a8 03       		.uleb128 0x3
 7477 01a9 0E       		.uleb128 0xe
 7478 01aa 3A       		.uleb128 0x3a
 7479 01ab 0B       		.uleb128 0xb
 7480 01ac 3B       		.uleb128 0x3b
 7481 01ad 0B       		.uleb128 0xb
 7482 01ae 27       		.uleb128 0x27
 7483 01af 19       		.uleb128 0x19
 7484 01b0 3C       		.uleb128 0x3c
 7485 01b1 19       		.uleb128 0x19
 7486 01b2 00       		.byte	0
 7487 01b3 00       		.byte	0
 7488 01b4 1E       		.uleb128 0x1e
 7489 01b5 2E       		.uleb128 0x2e
 7490 01b6 01       		.byte	0x1
 7491 01b7 3F       		.uleb128 0x3f
 7492 01b8 19       		.uleb128 0x19
 7493 01b9 03       		.uleb128 0x3
 7494 01ba 0E       		.uleb128 0xe
 7495 01bb 3A       		.uleb128 0x3a
 7496 01bc 0B       		.uleb128 0xb
 7497 01bd 3B       		.uleb128 0x3b
 7498 01be 0B       		.uleb128 0xb
 7499 01bf 27       		.uleb128 0x27
 7500 01c0 19       		.uleb128 0x19
 7501 01c1 49       		.uleb128 0x49
 7502 01c2 13       		.uleb128 0x13
 7503 01c3 3C       		.uleb128 0x3c
 7504 01c4 19       		.uleb128 0x19
 7505 01c5 01       		.uleb128 0x1
 7506 01c6 13       		.uleb128 0x13
 7507 01c7 00       		.byte	0
 7508 01c8 00       		.byte	0
 7509 01c9 1F       		.uleb128 0x1f
 7510 01ca 05       		.uleb128 0x5
 7511 01cb 00       		.byte	0
 7512 01cc 49       		.uleb128 0x49
 7513 01cd 13       		.uleb128 0x13
 7514 01ce 00       		.byte	0
 7515 01cf 00       		.byte	0
 7516 01d0 20       		.uleb128 0x20
 7517 01d1 2E       		.uleb128 0x2e
 7518 01d2 01       		.byte	0x1
 7519 01d3 3F       		.uleb128 0x3f
 7520 01d4 19       		.uleb128 0x19
 7521 01d5 03       		.uleb128 0x3
 7522 01d6 0E       		.uleb128 0xe
 7523 01d7 3A       		.uleb128 0x3a
 7524 01d8 0B       		.uleb128 0xb
 7525 01d9 3B       		.uleb128 0x3b
 7526 01da 0B       		.uleb128 0xb
 7527 01db 27       		.uleb128 0x27
 7528 01dc 19       		.uleb128 0x19
 7529 01dd 3C       		.uleb128 0x3c
 7530 01de 19       		.uleb128 0x19
ARM GAS  C:\Users\RECEPC~1\AppData\Local\Temp\ccBlh02k.s 			page 148


 7531 01df 01       		.uleb128 0x1
 7532 01e0 13       		.uleb128 0x13
 7533 01e1 00       		.byte	0
 7534 01e2 00       		.byte	0
 7535 01e3 21       		.uleb128 0x21
 7536 01e4 0F       		.uleb128 0xf
 7537 01e5 00       		.byte	0
 7538 01e6 0B       		.uleb128 0xb
 7539 01e7 0B       		.uleb128 0xb
 7540 01e8 49       		.uleb128 0x49
 7541 01e9 13       		.uleb128 0x13
 7542 01ea 00       		.byte	0
 7543 01eb 00       		.byte	0
 7544 01ec 22       		.uleb128 0x22
 7545 01ed 2E       		.uleb128 0x2e
 7546 01ee 00       		.byte	0
 7547 01ef 3F       		.uleb128 0x3f
 7548 01f0 19       		.uleb128 0x19
 7549 01f1 03       		.uleb128 0x3
 7550 01f2 0E       		.uleb128 0xe
 7551 01f3 3A       		.uleb128 0x3a
 7552 01f4 0B       		.uleb128 0xb
 7553 01f5 3B       		.uleb128 0x3b
 7554 01f6 0B       		.uleb128 0xb
 7555 01f7 27       		.uleb128 0x27
 7556 01f8 19       		.uleb128 0x19
 7557 01f9 49       		.uleb128 0x49
 7558 01fa 13       		.uleb128 0x13
 7559 01fb 3C       		.uleb128 0x3c
 7560 01fc 19       		.uleb128 0x19
 7561 01fd 00       		.byte	0
 7562 01fe 00       		.byte	0
 7563 01ff 00       		.byte	0
 7564              		.section	.debug_loc,"",%progbits
 7565              	.Ldebug_loc0:
 7566              	.LLST0:
 7567 0000 10000000 		.4byte	.LVL61
 7568 0004 14000000 		.4byte	.LVL62
 7569 0008 0200     		.2byte	0x2
 7570 000a 30       		.byte	0x30
 7571 000b 9F       		.byte	0x9f
 7572 000c 14000000 		.4byte	.LVL62
 7573 0010 24000000 		.4byte	.LVL64
 7574 0014 0100     		.2byte	0x1
 7575 0016 54       		.byte	0x54
 7576 0017 26000000 		.4byte	.LVL65
 7577 001b 42000000 		.4byte	.LVL68
 7578 001f 0100     		.2byte	0x1
 7579 0021 54       		.byte	0x54
 7580 0022 42000000 		.4byte	.LVL68
 7581 0026 46000000 		.4byte	.LVL69
 7582 002a 0200     		.2byte	0x2
 7583 002c 30       		.byte	0x30
 7584 002d 9F       		.byte	0x9f
 7585 002e 46000000 		.4byte	.LVL69
 7586 0032 56000000 		.4byte	.LVL71
 7587 0036 0100     		.2byte	0x1
ARM GAS  C:\Users\RECEPC~1\AppData\Local\Temp\ccBlh02k.s 			page 149


 7588 0038 54       		.byte	0x54
 7589 0039 58000000 		.4byte	.LVL72
 7590 003d 78000000 		.4byte	.LVL76
 7591 0041 0100     		.2byte	0x1
 7592 0043 54       		.byte	0x54
 7593 0044 00000000 		.4byte	0
 7594 0048 00000000 		.4byte	0
 7595              	.LLST1:
 7596 004c 22000000 		.4byte	.LVL81
 7597 0050 2C000000 		.4byte	.LVL82
 7598 0054 0100     		.2byte	0x1
 7599 0056 53       		.byte	0x53
 7600 0057 2E000000 		.4byte	.LVL83
 7601 005b 30000000 		.4byte	.LVL84
 7602 005f 0100     		.2byte	0x1
 7603 0061 53       		.byte	0x53
 7604 0062 32000000 		.4byte	.LVL85
 7605 0066 36000000 		.4byte	.LVL86
 7606 006a 0100     		.2byte	0x1
 7607 006c 53       		.byte	0x53
 7608 006d 00000000 		.4byte	0
 7609 0071 00000000 		.4byte	0
 7610              	.LLST2:
 7611 0075 14020000 		.4byte	.LVL121
 7612 0079 18020000 		.4byte	.LVL122
 7613 007d 0200     		.2byte	0x2
 7614 007f 31       		.byte	0x31
 7615 0080 9F       		.byte	0x9f
 7616 0081 18020000 		.4byte	.LVL122
 7617 0085 24020000 		.4byte	.LVL123
 7618 0089 0100     		.2byte	0x1
 7619 008b 53       		.byte	0x53
 7620 008c 26020000 		.4byte	.LVL124
 7621 0090 34020000 		.4byte	.LVL125
 7622 0094 0100     		.2byte	0x1
 7623 0096 53       		.byte	0x53
 7624 0097 44020000 		.4byte	.LVL126
 7625 009b 48020000 		.4byte	.LVL127
 7626 009f 0200     		.2byte	0x2
 7627 00a1 30       		.byte	0x30
 7628 00a2 9F       		.byte	0x9f
 7629 00a3 48020000 		.4byte	.LVL127
 7630 00a7 56020000 		.4byte	.LVL128
 7631 00ab 0100     		.2byte	0x1
 7632 00ad 53       		.byte	0x53
 7633 00ae 58020000 		.4byte	.LVL129
 7634 00b2 60020000 		.4byte	.LVL130
 7635 00b6 0100     		.2byte	0x1
 7636 00b8 53       		.byte	0x53
 7637 00b9 E0020000 		.4byte	.LVL139
 7638 00bd F2020000 		.4byte	.LVL140
 7639 00c1 0100     		.2byte	0x1
 7640 00c3 53       		.byte	0x53
 7641 00c4 F4020000 		.4byte	.LVL141
 7642 00c8 F6020000 		.4byte	.LVL142
 7643 00cc 0100     		.2byte	0x1
 7644 00ce 53       		.byte	0x53
ARM GAS  C:\Users\RECEPC~1\AppData\Local\Temp\ccBlh02k.s 			page 150


 7645 00cf F8020000 		.4byte	.LVL143
 7646 00d3 06030000 		.4byte	.LVL144
 7647 00d7 0100     		.2byte	0x1
 7648 00d9 53       		.byte	0x53
 7649 00da 1E060000 		.4byte	.LVL183
 7650 00de 2A060000 		.4byte	.LVL184
 7651 00e2 0100     		.2byte	0x1
 7652 00e4 53       		.byte	0x53
 7653 00e5 2C060000 		.4byte	.LVL185
 7654 00e9 2E060000 		.4byte	.LVL186
 7655 00ed 0100     		.2byte	0x1
 7656 00ef 53       		.byte	0x53
 7657 00f0 30060000 		.4byte	.LVL187
 7658 00f4 38060000 		.4byte	.LVL188
 7659 00f8 0100     		.2byte	0x1
 7660 00fa 53       		.byte	0x53
 7661 00fb 44060000 		.4byte	.LVL190
 7662 00ff 50060000 		.4byte	.LVL191
 7663 0103 0100     		.2byte	0x1
 7664 0105 53       		.byte	0x53
 7665 0106 52060000 		.4byte	.LVL192
 7666 010a 54060000 		.4byte	.LVL193
 7667 010e 0100     		.2byte	0x1
 7668 0110 53       		.byte	0x53
 7669 0111 56060000 		.4byte	.LVL194
 7670 0115 68060000 		.4byte	.LVL195
 7671 0119 0100     		.2byte	0x1
 7672 011b 53       		.byte	0x53
 7673 011c 6A060000 		.4byte	.LVL196
 7674 0120 6C060000 		.4byte	.LVL197
 7675 0124 0100     		.2byte	0x1
 7676 0126 53       		.byte	0x53
 7677 0127 6E060000 		.4byte	.LVL198
 7678 012b 72060000 		.4byte	.LVL199
 7679 012f 0100     		.2byte	0x1
 7680 0131 53       		.byte	0x53
 7681 0132 8C060000 		.4byte	.LVL201
 7682 0136 9A060000 		.4byte	.LVL202
 7683 013a 0100     		.2byte	0x1
 7684 013c 53       		.byte	0x53
 7685 013d 9C060000 		.4byte	.LVL203
 7686 0141 9E060000 		.4byte	.LVL204
 7687 0145 0100     		.2byte	0x1
 7688 0147 53       		.byte	0x53
 7689 0148 A0060000 		.4byte	.LVL205
 7690 014c AE060000 		.4byte	.LVL206
 7691 0150 0100     		.2byte	0x1
 7692 0152 53       		.byte	0x53
 7693 0153 B8060000 		.4byte	.LVL208
 7694 0157 C6060000 		.4byte	.LVL209
 7695 015b 0100     		.2byte	0x1
 7696 015d 53       		.byte	0x53
 7697 015e C8060000 		.4byte	.LVL210
 7698 0162 CA060000 		.4byte	.LVL211
 7699 0166 0100     		.2byte	0x1
 7700 0168 53       		.byte	0x53
 7701 0169 CC060000 		.4byte	.LVL212
ARM GAS  C:\Users\RECEPC~1\AppData\Local\Temp\ccBlh02k.s 			page 151


 7702 016d E6060000 		.4byte	.LVL213
 7703 0171 0100     		.2byte	0x1
 7704 0173 53       		.byte	0x53
 7705 0174 E8060000 		.4byte	.LVL214
 7706 0178 EA060000 		.4byte	.LVL215
 7707 017c 0100     		.2byte	0x1
 7708 017e 53       		.byte	0x53
 7709 017f EC060000 		.4byte	.LVL216
 7710 0183 F6060000 		.4byte	.LVL217
 7711 0187 0100     		.2byte	0x1
 7712 0189 53       		.byte	0x53
 7713 018a 00000000 		.4byte	0
 7714 018e 00000000 		.4byte	0
 7715              	.LLST3:
 7716 0192 04000000 		.4byte	.LVL259
 7717 0196 08000000 		.4byte	.LVL260
 7718 019a 0200     		.2byte	0x2
 7719 019c 30       		.byte	0x30
 7720 019d 9F       		.byte	0x9f
 7721 019e 08000000 		.4byte	.LVL260
 7722 01a2 10000000 		.4byte	.LVL261
 7723 01a6 0100     		.2byte	0x1
 7724 01a8 53       		.byte	0x53
 7725 01a9 12000000 		.4byte	.LVL262
 7726 01ad 19000000 		.4byte	.LVL263-1
 7727 01b1 0100     		.2byte	0x1
 7728 01b3 53       		.byte	0x53
 7729 01b4 00000000 		.4byte	0
 7730 01b8 00000000 		.4byte	0
 7731              		.section	.debug_aranges,"",%progbits
 7732 0000 64000000 		.4byte	0x64
 7733 0004 0200     		.2byte	0x2
 7734 0006 00000000 		.4byte	.Ldebug_info0
 7735 000a 04       		.byte	0x4
 7736 000b 00       		.byte	0
 7737 000c 0000     		.2byte	0
 7738 000e 0000     		.2byte	0
 7739 0010 00000000 		.4byte	.LFB63
 7740 0014 20000000 		.4byte	.LFE63-.LFB63
 7741 0018 00000000 		.4byte	.LFB64
 7742 001c 74000000 		.4byte	.LFE64-.LFB64
 7743 0020 00000000 		.4byte	.LFB65
 7744 0024 8C020000 		.4byte	.LFE65-.LFB65
 7745 0028 00000000 		.4byte	.LFB66
 7746 002c 50000000 		.4byte	.LFE66-.LFB66
 7747 0030 00000000 		.4byte	.LFB67
 7748 0034 C4000000 		.4byte	.LFE67-.LFB67
 7749 0038 00000000 		.4byte	.LFB68
 7750 003c 7C000000 		.4byte	.LFE68-.LFB68
 7751 0040 00000000 		.4byte	.LFB69
 7752 0044 EC000000 		.4byte	.LFE69-.LFB69
 7753 0048 00000000 		.4byte	.LFB70
 7754 004c 10070000 		.4byte	.LFE70-.LFB70
 7755 0050 00000000 		.4byte	.LFB71
 7756 0054 2C030000 		.4byte	.LFE71-.LFB71
 7757 0058 00000000 		.4byte	.LFB72
 7758 005c 3C000000 		.4byte	.LFE72-.LFB72
ARM GAS  C:\Users\RECEPC~1\AppData\Local\Temp\ccBlh02k.s 			page 152


 7759 0060 00000000 		.4byte	0
 7760 0064 00000000 		.4byte	0
 7761              		.section	.debug_ranges,"",%progbits
 7762              	.Ldebug_ranges0:
 7763 0000 00000000 		.4byte	.LFB63
 7764 0004 20000000 		.4byte	.LFE63
 7765 0008 00000000 		.4byte	.LFB64
 7766 000c 74000000 		.4byte	.LFE64
 7767 0010 00000000 		.4byte	.LFB65
 7768 0014 8C020000 		.4byte	.LFE65
 7769 0018 00000000 		.4byte	.LFB66
 7770 001c 50000000 		.4byte	.LFE66
 7771 0020 00000000 		.4byte	.LFB67
 7772 0024 C4000000 		.4byte	.LFE67
 7773 0028 00000000 		.4byte	.LFB68
 7774 002c 7C000000 		.4byte	.LFE68
 7775 0030 00000000 		.4byte	.LFB69
 7776 0034 EC000000 		.4byte	.LFE69
 7777 0038 00000000 		.4byte	.LFB70
 7778 003c 10070000 		.4byte	.LFE70
 7779 0040 00000000 		.4byte	.LFB71
 7780 0044 2C030000 		.4byte	.LFE71
 7781 0048 00000000 		.4byte	.LFB72
 7782 004c 3C000000 		.4byte	.LFE72
 7783 0050 00000000 		.4byte	0
 7784 0054 00000000 		.4byte	0
 7785              		.section	.debug_line,"",%progbits
 7786              	.Ldebug_line0:
 7787 0000 F7050000 		.section	.debug_str,"MS",%progbits,1
 7787      02000702 
 7787      00000201 
 7787      FB0E0D00 
 7787      01010101 
 7788              	.LASF228:
 7789 0000 43794465 		.ascii	"CyDelay\000"
 7789      6C617900 
 7790              	.LASF127:
 7791 0008 44495350 		.ascii	"DISPLAY_HORA\000"
 7791      4C41595F 
 7791      484F5241 
 7791      00
 7792              	.LASF103:
 7793 0015 44495350 		.ascii	"DISPLAY_INGRESE_PASSWORD\000"
 7793      4C41595F 
 7793      494E4752 
 7793      4553455F 
 7793      50415353 
 7794              	.LASF136:
 7795 002e 44495350 		.ascii	"DISPLAY_IMPRESORA_NO_FUNCIONANDO\000"
 7795      4C41595F 
 7795      494D5052 
 7795      45534F52 
 7795      415F4E4F 
 7796              	.LASF125:
 7797 004f 44495350 		.ascii	"DISPLAY_AUTORIZACION_RECHAZADA\000"
 7797      4C41595F 
 7797      4155544F 
ARM GAS  C:\Users\RECEPC~1\AppData\Local\Temp\ccBlh02k.s 			page 153


 7797      52495A41 
 7797      43494F4E 
 7798              	.LASF249:
 7799 006e 43795764 		.ascii	"CyWdtClear\000"
 7799      74436C65 
 7799      617200
 7800              	.LASF188:
 7801 0079 64656369 		.ascii	"decimalVolume\000"
 7801      6D616C56 
 7801      6F6C756D 
 7801      6500
 7802              	.LASF202:
 7803 0087 50726576 		.ascii	"PrevStatePump\000"
 7803      53746174 
 7803      6550756D 
 7803      7000
 7804              	.LASF145:
 7805 0095 476C6F62 		.ascii	"GlobalInitializer\000"
 7805      616C496E 
 7805      69746961 
 7805      6C697A65 
 7805      7200
 7806              	.LASF246:
 7807 00a7 44697370 		.ascii	"Display2_GetRxBufferSize\000"
 7807      6C617932 
 7807      5F476574 
 7807      52784275 
 7807      66666572 
 7808              	.LASF60:
 7809 00c0 6D657373 		.ascii	"message\000"
 7809      61676500 
 7810              	.LASF138:
 7811 00c8 44495350 		.ascii	"DISPLAY_PRECIO_POR_UNIDAD\000"
 7811      4C41595F 
 7811      50524543 
 7811      494F5F50 
 7811      4F525F55 
 7812              	.LASF210:
 7813 00e2 73746174 		.ascii	"statePump\000"
 7813      6550756D 
 7813      7000
 7814              	.LASF76:
 7815 00ec 62756666 		.ascii	"buffer\000"
 7815      657200
 7816              	.LASF176:
 7817 00f3 69704164 		.ascii	"ipAdress\000"
 7817      72657373 
 7817      00
 7818              	.LASF187:
 7819 00fc 64656369 		.ascii	"decimalMoney\000"
 7819      6D616C4D 
 7819      6F6E6579 
 7819      00
 7820              	.LASF38:
 7821 0109 73616C65 		.ascii	"salePerform\000"
 7821      50657266 
 7821      6F726D00 
ARM GAS  C:\Users\RECEPC~1\AppData\Local\Temp\ccBlh02k.s 			page 154


 7822              	.LASF11:
 7823 0115 756E7369 		.ascii	"unsigned int\000"
 7823      676E6564 
 7823      20696E74 
 7823      00
 7824              	.LASF65:
 7825 0122 70726F64 		.ascii	"productMarket\000"
 7825      7563744D 
 7825      61726B65 
 7825      7400
 7826              	.LASF222:
 7827 0130 44697370 		.ascii	"Display2_Start\000"
 7827      6C617932 
 7827      5F537461 
 7827      727400
 7828              	.LASF6:
 7829 013f 5F5F696E 		.ascii	"__int32_t\000"
 7829      7433325F 
 7829      7400
 7830              	.LASF150:
 7831 0149 556E6974 		.ascii	"Unit2\000"
 7831      3200
 7832              	.LASF58:
 7833 014f 666C6167 		.ascii	"flagLiftHandle\000"
 7833      4C696674 
 7833      48616E64 
 7833      6C6500
 7834              	.LASF152:
 7835 015e 556E6974 		.ascii	"Unit4\000"
 7835      3400
 7836              	.LASF105:
 7837 0164 44495350 		.ascii	"DISPLAY_PASSWORD_INVALIDO\000"
 7837      4C41595F 
 7837      50415353 
 7837      574F5244 
 7837      5F494E56 
 7838              	.LASF193:
 7839 017e 72657369 		.ascii	"residue\000"
 7839      64756500 
 7840              	.LASF25:
 7841 0186 69645479 		.ascii	"idType\000"
 7841      706500
 7842              	.LASF143:
 7843 018d 44495350 		.ascii	"DISPLAY_SIDE_DUMMY_DISPLAY\000"
 7843      4C41595F 
 7843      53494445 
 7843      5F44554D 
 7843      4D595F44 
 7844              	.LASF209:
 7845 01a8 44444D6F 		.ascii	"DDMode\000"
 7845      646500
 7846              	.LASF217:
 7847 01af 73696465 		.ascii	"side\000"
 7847      00
 7848              	.LASF248:
 7849 01b4 43795764 		.ascii	"CyWdtStart\000"
 7849      74537461 
ARM GAS  C:\Users\RECEPC~1\AppData\Local\Temp\ccBlh02k.s 			page 155


 7849      727400
 7850              	.LASF218:
 7851 01bf 4D757856 		.ascii	"MuxVersion\000"
 7851      65727369 
 7851      6F6E00
 7852              	.LASF95:
 7853 01ca 44495350 		.ascii	"DISPLAY_INTRODUZCA_VALOR2\000"
 7853      4C41595F 
 7853      494E5452 
 7853      4F44555A 
 7853      43415F56 
 7854              	.LASF221:
 7855 01e4 44697370 		.ascii	"Display1_Start\000"
 7855      6C617931 
 7855      5F537461 
 7855      727400
 7856              	.LASF151:
 7857 01f3 556E6974 		.ascii	"Unit3\000"
 7857      3300
 7858              	.LASF225:
 7859 01f9 4932435F 		.ascii	"I2C_Bus_Start\000"
 7859      4275735F 
 7859      53746172 
 7859      7400
 7860              	.LASF30:
 7861 0207 73656C65 		.ascii	"selectedSale\000"
 7861      63746564 
 7861      53616C65 
 7861      00
 7862              	.LASF66:
 7863 0214 7175616E 		.ascii	"quantityMarket\000"
 7863      74697479 
 7863      4D61726B 
 7863      657400
 7864              	.LASF166:
 7865 0223 44697370 		.ascii	"Display2_rxBuffer\000"
 7865      6C617932 
 7865      5F727842 
 7865      75666665 
 7865      7200
 7866              	.LASF180:
 7867 0235 666C6167 		.ascii	"flagPoint2\000"
 7867      506F696E 
 7867      743200
 7868              	.LASF192:
 7869 0240 73637265 		.ascii	"screen\000"
 7869      656E00
 7870              	.LASF162:
 7871 0247 506F6C6C 		.ascii	"PollingDisplay1\000"
 7871      696E6744 
 7871      6973706C 
 7871      61793100 
 7872              	.LASF62:
 7873 0257 766F6C75 		.ascii	"volumeQuota\000"
 7873      6D655175 
 7873      6F746100 
 7874              	.LASF234:
ARM GAS  C:\Users\RECEPC~1\AppData\Local\Temp\ccBlh02k.s 			page 156


 7875 0263 77726974 		.ascii	"write_psoc1\000"
 7875      655F7073 
 7875      6F633100 
 7876              	.LASF102:
 7877 026f 44495350 		.ascii	"DISPLAY_DESEA_IMPRIMIR_RECIBO\000"
 7877      4C41595F 
 7877      44455345 
 7877      415F494D 
 7877      5052494D 
 7878              	.LASF203:
 7879 028d 506C6174 		.ascii	"PlateRequest\000"
 7879      65526571 
 7879      75657374 
 7879      00
 7880              	.LASF124:
 7881 029a 44495350 		.ascii	"DISPLAY_AUTORIZACION_ACEPTADA\000"
 7881      4C41595F 
 7881      4155544F 
 7881      52495A41 
 7881      43494F4E 
 7882              	.LASF18:
 7883 02b8 666C6F61 		.ascii	"float\000"
 7883      7400
 7884              	.LASF135:
 7885 02be 44495350 		.ascii	"DISPLAY_AMBAS_IMPRESORAS_FUNCIONANDO\000"
 7885      4C41595F 
 7885      414D4241 
 7885      535F494D 
 7885      50524553 
 7886              	.LASF111:
 7887 02e3 44495350 		.ascii	"DISPLAY_ESPERANDO_ID\000"
 7887      4C41595F 
 7887      45535045 
 7887      52414E44 
 7887      4F5F4944 
 7888              	.LASF206:
 7889 02f8 4D6F6E65 		.ascii	"MoneyDec\000"
 7889      79446563 
 7889      00
 7890              	.LASF85:
 7891 0301 686F7365 		.ascii	"hose\000"
 7891      00
 7892              	.LASF149:
 7893 0306 556E6974 		.ascii	"Unit\000"
 7893      00
 7894              	.LASF10:
 7895 030b 6C6F6E67 		.ascii	"long long unsigned int\000"
 7895      206C6F6E 
 7895      6720756E 
 7895      7369676E 
 7895      65642069 
 7896              	.LASF238:
 7897 0322 57726974 		.ascii	"WriteLCD\000"
 7897      654C4344 
 7897      00
 7898              	.LASF114:
 7899 032b 44495350 		.ascii	"DISPLAY_INTRODUZCA_VOLUMEN\000"
ARM GAS  C:\Users\RECEPC~1\AppData\Local\Temp\ccBlh02k.s 			page 157


 7899      4C41595F 
 7899      494E5452 
 7899      4F44555A 
 7899      43415F56 
 7900              	.LASF48:
 7901 0346 746F7461 		.ascii	"totalVolumePrevious\000"
 7901      6C566F6C 
 7901      756D6550 
 7901      72657669 
 7901      6F757300 
 7902              	.LASF117:
 7903 035a 44495350 		.ascii	"DISPLAY_CONFIGURACIONES\000"
 7903      4C41595F 
 7903      434F4E46 
 7903      49475552 
 7903      4143494F 
 7904              	.LASF4:
 7905 0372 5F5F7569 		.ascii	"__uint16_t\000"
 7905      6E743136 
 7905      5F7400
 7906              	.LASF122:
 7907 037d 44495350 		.ascii	"DISPLAY_ESPERANDO_AUTORIZACION\000"
 7907      4C41595F 
 7907      45535045 
 7907      52414E44 
 7907      4F5F4155 
 7908              	.LASF212:
 7909 039c 64696769 		.ascii	"digits\000"
 7909      747300
 7910              	.LASF158:
 7911 03a3 496E6974 		.ascii	"InitPump\000"
 7911      50756D70 
 7911      00
 7912              	.LASF190:
 7913 03ac 74696D65 		.ascii	"time\000"
 7913      00
 7914              	.LASF159:
 7915 03b1 5072696E 		.ascii	"PrintTest\000"
 7915      74546573 
 7915      7400
 7916              	.LASF41:
 7917 03bb 70726F64 		.ascii	"productType\000"
 7917      75637454 
 7917      79706500 
 7918              	.LASF182:
 7919 03c7 70726F64 		.ascii	"productNumber\000"
 7919      7563744E 
 7919      756D6265 
 7919      7200
 7920              	.LASF44:
 7921 03d5 64617465 		.ascii	"dateDownHandle\000"
 7921      446F776E 
 7921      48616E64 
 7921      6C6500
 7922              	.LASF26:
 7923 03e4 69645365 		.ascii	"idSerial\000"
 7923      7269616C 
ARM GAS  C:\Users\RECEPC~1\AppData\Local\Temp\ccBlh02k.s 			page 158


 7923      00
 7924              	.LASF196:
 7925 03ed 6C6F636B 		.ascii	"lockTurn\000"
 7925      5475726E 
 7925      00
 7926              	.LASF54:
 7927 03f6 6D696C65 		.ascii	"mileageSale\000"
 7927      61676553 
 7927      616C6500 
 7928              	.LASF74:
 7929 0402 666C6167 		.ascii	"flagChangePPU\000"
 7929      4368616E 
 7929      67655050 
 7929      5500
 7930              	.LASF91:
 7931 0410 44495350 		.ascii	"DISPLAY_INICIO2\000"
 7931      4C41595F 
 7931      494E4943 
 7931      494F3200 
 7932              	.LASF232:
 7933 0420 5F426F6F 		.ascii	"_Bool\000"
 7933      6C00
 7934              	.LASF75:
 7935 0426 666C6167 		.ascii	"flagPrint\000"
 7935      5072696E 
 7935      7400
 7936              	.LASF181:
 7937 0430 62757474 		.ascii	"button\000"
 7937      6F6E00
 7938              	.LASF153:
 7939 0437 44697370 		.ascii	"DisplayMode0\000"
 7939      6C61794D 
 7939      6F646530 
 7939      00
 7940              	.LASF172:
 7941 0444 666C6F77 		.ascii	"flowDisplay1\000"
 7941      44697370 
 7941      6C617931 
 7941      00
 7942              	.LASF155:
 7943 0451 44697370 		.ascii	"DisplayMode2\000"
 7943      6C61794D 
 7943      6F646532 
 7943      00
 7944              	.LASF156:
 7945 045e 44697370 		.ascii	"DisplayMode3\000"
 7945      6C61794D 
 7945      6F646533 
 7945      00
 7946              	.LASF175:
 7947 046b 666C6F77 		.ascii	"flowDisplay4\000"
 7947      44697370 
 7947      6C617934 
 7947      00
 7948              	.LASF219:
 7949 0478 45455052 		.ascii	"EEPROM_1_Start\000"
 7949      4F4D5F31 
ARM GAS  C:\Users\RECEPC~1\AppData\Local\Temp\ccBlh02k.s 			page 159


 7949      5F537461 
 7949      727400
 7950              	.LASF235:
 7951 0487 6765745F 		.ascii	"get_position\000"
 7951      706F7369 
 7951      74696F6E 
 7951      00
 7952              	.LASF64:
 7953 0494 73657269 		.ascii	"serialMarket\000"
 7953      616C4D61 
 7953      726B6574 
 7953      00
 7954              	.LASF78:
 7955 04a1 746F7461 		.ascii	"totalsHandle\000"
 7955      6C734861 
 7955      6E646C65 
 7955      00
 7956              	.LASF40:
 7957 04ae 70726573 		.ascii	"presetValue\000"
 7957      65745661 
 7957      6C756500 
 7958              	.LASF245:
 7959 04ba 53686F77 		.ascii	"ShowRectangle\000"
 7959      52656374 
 7959      616E676C 
 7959      6500
 7960              	.LASF195:
 7961 04c8 7475726E 		.ascii	"turn\000"
 7961      00
 7962              	.LASF92:
 7963 04cd 44495350 		.ascii	"DISPLAY_FORMA_PAGO_DESEADA\000"
 7963      4C41595F 
 7963      464F524D 
 7963      415F5041 
 7963      474F5F44 
 7964              	.LASF55:
 7965 04e8 6964656E 		.ascii	"identySale\000"
 7965      74795361 
 7965      6C6500
 7966              	.LASF37:
 7967 04f3 73616C65 		.ascii	"saleType\000"
 7967      54797065 
 7967      00
 7968              	.LASF240:
 7969 04fc 50756D70 		.ascii	"PumpHoseActiveState\000"
 7969      486F7365 
 7969      41637469 
 7969      76655374 
 7969      61746500 
 7970              	.LASF35:
 7971 0510 76616C75 		.ascii	"valueKeys\000"
 7971      654B6579 
 7971      7300
 7972              	.LASF22:
 7973 051a 63686172 		.ascii	"char\000"
 7973      00
 7974              	.LASF205:
ARM GAS  C:\Users\RECEPC~1\AppData\Local\Temp\ccBlh02k.s 			page 160


 7975 051f 436F6E76 		.ascii	"ConversionFactor\000"
 7975      65727369 
 7975      6F6E4661 
 7975      63746F72 
 7975      00
 7976              	.LASF177:
 7977 0530 6E756D62 		.ascii	"numberKeys1\000"
 7977      65724B65 
 7977      79733100 
 7978              	.LASF178:
 7979 053c 6E756D62 		.ascii	"numberKeys2\000"
 7979      65724B65 
 7979      79733200 
 7980              	.LASF242:
 7981 0548 50756D70 		.ascii	"Pump_PutChar\000"
 7981      5F507574 
 7981      43686172 
 7981      00
 7982              	.LASF170:
 7983 0555 636F756E 		.ascii	"countBeagleTX\000"
 7983      74426561 
 7983      676C6554 
 7983      5800
 7984              	.LASF220:
 7985 0563 50756D70 		.ascii	"Pump_Start\000"
 7985      5F537461 
 7985      727400
 7986              	.LASF89:
 7987 056e 44495350 		.ascii	"DISPLAY_INICIO0\000"
 7987      4C41595F 
 7987      494E4943 
 7987      494F3000 
 7988              	.LASF90:
 7989 057e 44495350 		.ascii	"DISPLAY_INICIO1\000"
 7989      4C41595F 
 7989      494E4943 
 7989      494F3100 
 7990              	.LASF16:
 7991 058e 75696E74 		.ascii	"uint16\000"
 7991      313600
 7992              	.LASF93:
 7993 0595 44495350 		.ascii	"DISPLAY_FORMA_PROGRAMACION\000"
 7993      4C41595F 
 7993      464F524D 
 7993      415F5052 
 7993      4F475241 
 7994              	.LASF191:
 7995 05b0 64617465 		.ascii	"date\000"
 7995      00
 7996              	.LASF12:
 7997 05b5 75696E74 		.ascii	"uint8_t\000"
 7997      385F7400 
 7998              	.LASF160:
 7999 05bd 6461746F 		.ascii	"dato\000"
 7999      00
 8000              	.LASF57:
 8001 05c2 666C6167 		.ascii	"flagPayment\000"
ARM GAS  C:\Users\RECEPC~1\AppData\Local\Temp\ccBlh02k.s 			page 161


 8001      5061796D 
 8001      656E7400 
 8002              	.LASF21:
 8003 05ce 63686172 		.ascii	"char8\000"
 8003      3800
 8004              	.LASF27:
 8005 05d4 69645365 		.ascii	"idSerialCom\000"
 8005      7269616C 
 8005      436F6D00 
 8006              	.LASF115:
 8007 05e0 44495350 		.ascii	"DISPLAY_INTRODUZCA_KILOMETRAJE\000"
 8007      4C41595F 
 8007      494E5452 
 8007      4F44555A 
 8007      43415F4B 
 8008              	.LASF63:
 8009 05ff 70707551 		.ascii	"ppuQuota\000"
 8009      756F7461 
 8009      00
 8010              	.LASF50:
 8011 0608 746F7461 		.ascii	"totalMoneyAfter\000"
 8011      6C4D6F6E 
 8011      65794166 
 8011      74657200 
 8012              	.LASF61:
 8013 0618 6D6F6E65 		.ascii	"moneyQuota\000"
 8013      7951756F 
 8013      746100
 8014              	.LASF73:
 8015 0623 7072696E 		.ascii	"printers\000"
 8015      74657273 
 8015      00
 8016              	.LASF154:
 8017 062c 44697370 		.ascii	"DisplayMode\000"
 8017      6C61794D 
 8017      6F646500 
 8018              	.LASF183:
 8019 0638 70726573 		.ascii	"presetFast\000"
 8019      65744661 
 8019      737400
 8020              	.LASF80:
 8021 0643 6D6F6E65 		.ascii	"moneySale\000"
 8021      7953616C 
 8021      6500
 8022              	.LASF9:
 8023 064d 6C6F6E67 		.ascii	"long long int\000"
 8023      206C6F6E 
 8023      6720696E 
 8023      7400
 8024              	.LASF229:
 8025 065b 45455052 		.ascii	"EEPROM_1_WriteByte\000"
 8025      4F4D5F31 
 8025      5F577269 
 8025      74654279 
 8025      746500
 8026              	.LASF231:
 8027 066e 50756D70 		.ascii	"PumpIsInValidState\000"
ARM GAS  C:\Users\RECEPC~1\AppData\Local\Temp\ccBlh02k.s 			page 162


 8027      4973496E 
 8027      56616C69 
 8027      64537461 
 8027      746500
 8028              	.LASF98:
 8029 0681 44495350 		.ascii	"DISPLAY_SUBA_MANIJA\000"
 8029      4C41595F 
 8029      53554241 
 8029      5F4D414E 
 8029      494A4100 
 8030              	.LASF137:
 8031 0695 44495350 		.ascii	"DISPLAY_IDENTIFICADOR_ESTACION\000"
 8031      4C41595F 
 8031      4944454E 
 8031      54494649 
 8031      4341444F 
 8032              	.LASF82:
 8033 06b4 70707553 		.ascii	"ppuSale\000"
 8033      616C6500 
 8034              	.LASF168:
 8035 06bc 636F756E 		.ascii	"countAnimation1\000"
 8035      74416E69 
 8035      6D617469 
 8035      6F6E3100 
 8036              	.LASF211:
 8037 06cc 4E756D50 		.ascii	"NumPositions\000"
 8037      6F736974 
 8037      696F6E73 
 8037      00
 8038              	.LASF201:
 8039 06d9 73746174 		.ascii	"stateBeagleSoft\000"
 8039      65426561 
 8039      676C6553 
 8039      6F667400 
 8040              	.LASF130:
 8041 06e9 44495350 		.ascii	"DISPLAY_ABRIR_TURNO\000"
 8041      4C41595F 
 8041      41425249 
 8041      525F5455 
 8041      524E4F00 
 8042              	.LASF49:
 8043 06fd 746F7461 		.ascii	"totalPPUPrevious\000"
 8043      6C505055 
 8043      50726576 
 8043      696F7573 
 8043      00
 8044              	.LASF169:
 8045 070e 636F756E 		.ascii	"countAnimation2\000"
 8045      74416E69 
 8045      6D617469 
 8045      6F6E3200 
 8046              	.LASF144:
 8047 071e 44495350 		.ascii	"DISPLAY_NULL\000"
 8047      4C41595F 
 8047      4E554C4C 
 8047      00
 8048              	.LASF70:
ARM GAS  C:\Users\RECEPC~1\AppData\Local\Temp\ccBlh02k.s 			page 163


 8049 072b 746F7461 		.ascii	"totalMarket\000"
 8049      6C4D6172 
 8049      6B657400 
 8050              	.LASF46:
 8051 0737 74696D65 		.ascii	"timeDownHandle\000"
 8051      446F776E 
 8051      48616E64 
 8051      6C6500
 8052              	.LASF148:
 8053 0746 696E6954 		.ascii	"iniText\000"
 8053      65787400 
 8054              	.LASF36:
 8055 074e 76656869 		.ascii	"vehicleType\000"
 8055      636C6554 
 8055      79706500 
 8056              	.LASF56:
 8057 075a 666C6167 		.ascii	"flagKeyboard\000"
 8057      4B657962 
 8057      6F617264 
 8057      00
 8058              	.LASF147:
 8059 0767 496E6974 		.ascii	"InitDisplay1\000"
 8059      44697370 
 8059      6C617931 
 8059      00
 8060              	.LASF157:
 8061 0774 496E6974 		.ascii	"InitDisplay2\000"
 8061      44697370 
 8061      6C617932 
 8061      00
 8062              	.LASF233:
 8063 0781 50756D70 		.ascii	"PumpCompleteConfiguration\000"
 8063      436F6D70 
 8063      6C657465 
 8063      436F6E66 
 8063      69677572 
 8064              	.LASF17:
 8065 079b 75696E74 		.ascii	"uint32\000"
 8065      333200
 8066              	.LASF163:
 8067 07a2 506F6C6C 		.ascii	"PollingDisplay2\000"
 8067      696E6744 
 8067      6973706C 
 8067      61793200 
 8068              	.LASF200:
 8069 07b2 666C6167 		.ascii	"flagResetMux\000"
 8069      52657365 
 8069      744D7578 
 8069      00
 8070              	.LASF99:
 8071 07bf 44495350 		.ascii	"DISPLAY_DESPACHANDO\000"
 8071      4C41595F 
 8071      44455350 
 8071      41434841 
 8071      4E444F00 
 8072              	.LASF226:
 8073 07d3 53657450 		.ascii	"SetPicture\000"
ARM GAS  C:\Users\RECEPC~1\AppData\Local\Temp\ccBlh02k.s 			page 164


 8073      69637475 
 8073      726500
 8074              	.LASF161:
 8075 07de 506F6C6C 		.ascii	"PollingPump\000"
 8075      696E6750 
 8075      756D7000 
 8076              	.LASF112:
 8077 07ea 44495350 		.ascii	"DISPLAY_ID_RECONOCIDO\000"
 8077      4C41595F 
 8077      49445F52 
 8077      45434F4E 
 8077      4F434944 
 8078              	.LASF52:
 8079 0800 746F7461 		.ascii	"totalPPUAfter\000"
 8079      6C505055 
 8079      41667465 
 8079      7200
 8080              	.LASF13:
 8081 080e 75696E74 		.ascii	"uint16_t\000"
 8081      31365F74 
 8081      00
 8082              	.LASF33:
 8083 0817 6B657962 		.ascii	"keyboardWayToPay\000"
 8083      6F617264 
 8083      57617954 
 8083      6F506179 
 8083      00
 8084              	.LASF186:
 8085 0828 70707578 		.ascii	"ppux10\000"
 8085      313000
 8086              	.LASF47:
 8087 082f 746F7461 		.ascii	"totalMoneyPrevious\000"
 8087      6C4D6F6E 
 8087      65795072 
 8087      6576696F 
 8087      757300
 8088              	.LASF101:
 8089 0842 44495350 		.ascii	"DISPLAY_DIGITE_PLACA\000"
 8089      4C41595F 
 8089      44494749 
 8089      54455F50 
 8089      4C414341 
 8090              	.LASF179:
 8091 0857 666C6167 		.ascii	"flagPoint1\000"
 8091      506F696E 
 8091      743100
 8092              	.LASF31:
 8093 0862 6D6F6E65 		.ascii	"moneySelectedSale\000"
 8093      7953656C 
 8093      65637465 
 8093      6453616C 
 8093      6500
 8094              	.LASF189:
 8095 0874 73796D62 		.ascii	"symbols\000"
 8095      6F6C7300 
 8096              	.LASF128:
 8097 087c 44495350 		.ascii	"DISPLAY_FECHA\000"
ARM GAS  C:\Users\RECEPC~1\AppData\Local\Temp\ccBlh02k.s 			page 165


 8097      4C41595F 
 8097      46454348 
 8097      4100
 8098              	.LASF94:
 8099 088a 44495350 		.ascii	"DISPLAY_INTRODUZCA_VALOR\000"
 8099      4C41595F 
 8099      494E5452 
 8099      4F44555A 
 8099      43415F56 
 8100              	.LASF53:
 8101 08a3 6C696365 		.ascii	"licenceSale\000"
 8101      6E636553 
 8101      616C6500 
 8102              	.LASF72:
 8103 08af 70726963 		.ascii	"priceConsign\000"
 8103      65436F6E 
 8103      7369676E 
 8103      00
 8104              	.LASF2:
 8105 08bc 73686F72 		.ascii	"short int\000"
 8105      7420696E 
 8105      7400
 8106              	.LASF244:
 8107 08c6 696D7072 		.ascii	"imprimir\000"
 8107      696D6972 
 8107      00
 8108              	.LASF7:
 8109 08cf 6C6F6E67 		.ascii	"long int\000"
 8109      20696E74 
 8109      00
 8110              	.LASF167:
 8111 08d8 49544D5F 		.ascii	"ITM_RxBuffer\000"
 8111      52784275 
 8111      66666572 
 8111      00
 8112              	.LASF107:
 8113 08e5 44495350 		.ascii	"DISPLAY_TIEMPO_EXPIRADO\000"
 8113      4C41595F 
 8113      5449454D 
 8113      504F5F45 
 8113      58504952 
 8114              	.LASF134:
 8115 08fd 44495350 		.ascii	"DISPLAY_USUARIO_INVALIDO\000"
 8115      4C41595F 
 8115      55535541 
 8115      52494F5F 
 8115      494E5641 
 8116              	.LASF106:
 8117 0916 44495350 		.ascii	"DISPLAY_NUEVO_PASSWORD\000"
 8117      4C41595F 
 8117      4E554556 
 8117      4F5F5041 
 8117      5353574F 
 8118              	.LASF126:
 8119 092d 44495350 		.ascii	"DISPLAY_CONFIGURAR_FECHA_HORA\000"
 8119      4C41595F 
 8119      434F4E46 
ARM GAS  C:\Users\RECEPC~1\AppData\Local\Temp\ccBlh02k.s 			page 166


 8119      49475552 
 8119      41525F46 
 8120              	.LASF123:
 8121 094b 44495350 		.ascii	"DISPLAY_POR_FAVOR_ESPERE\000"
 8121      4C41595F 
 8121      504F525F 
 8121      4641564F 
 8121      525F4553 
 8122              	.LASF173:
 8123 0964 666C6F77 		.ascii	"flowDisplay2\000"
 8123      44697370 
 8123      6C617932 
 8123      00
 8124              	.LASF247:
 8125 0971 44697370 		.ascii	"Display2_ClearRxBuffer\000"
 8125      6C617932 
 8125      5F436C65 
 8125      61725278 
 8125      42756666 
 8126              	.LASF174:
 8127 0988 666C6F77 		.ascii	"flowDisplay3\000"
 8127      44697370 
 8127      6C617933 
 8127      00
 8128              	.LASF59:
 8129 0995 666C6167 		.ascii	"flagEndSale\000"
 8129      456E6453 
 8129      616C6500 
 8130              	.LASF113:
 8131 09a1 44495350 		.ascii	"DISPLAY_INTRODUZCA_CEDULA\000"
 8131      4C41595F 
 8131      494E5452 
 8131      4F44555A 
 8131      43415F43 
 8132              	.LASF119:
 8133 09bb 44495350 		.ascii	"DISPLAY_IMPRIMIENDO_RECIBO\000"
 8133      4C41595F 
 8133      494D5052 
 8133      494D4945 
 8133      4E444F5F 
 8134              	.LASF43:
 8135 09d6 64617465 		.ascii	"dateLiftHandle\000"
 8135      4C696674 
 8135      48616E64 
 8135      6C6500
 8136              	.LASF86:
 8137 09e5 686F7365 		.ascii	"hoseNumber\000"
 8137      4E756D62 
 8137      657200
 8138              	.LASF214:
 8139 09f0 62756666 		.ascii	"bufferDisplay2\000"
 8139      65724469 
 8139      73706C61 
 8139      793200
 8140              	.LASF215:
 8141 09ff 62756666 		.ascii	"bufferDisplay3\000"
 8141      65724469 
ARM GAS  C:\Users\RECEPC~1\AppData\Local\Temp\ccBlh02k.s 			page 167


 8141      73706C61 
 8141      793300
 8142              	.LASF109:
 8143 0a0e 44495350 		.ascii	"DISPLAY_ID_DIGITAL\000"
 8143      4C41595F 
 8143      49445F44 
 8143      49474954 
 8143      414C00
 8144              	.LASF116:
 8145 0a21 44495350 		.ascii	"DISPLAY_OPERACIONES\000"
 8145      4C41595F 
 8145      4F504552 
 8145      4143494F 
 8145      4E455300 
 8146              	.LASF3:
 8147 0a35 5F5F7569 		.ascii	"__uint8_t\000"
 8147      6E74385F 
 8147      7400
 8148              	.LASF199:
 8149 0a3f 70617373 		.ascii	"passwordSeller\000"
 8149      776F7264 
 8149      53656C6C 
 8149      657200
 8150              	.LASF51:
 8151 0a4e 746F7461 		.ascii	"totalVolumeAfter\000"
 8151      6C566F6C 
 8151      756D6541 
 8151      66746572 
 8151      00
 8152              	.LASF204:
 8153 0a5f 556E6974 		.ascii	"UnitType\000"
 8153      54797065 
 8153      00
 8154              	.LASF20:
 8155 0a68 75696E74 		.ascii	"uint64\000"
 8155      363400
 8156              	.LASF239:
 8157 0a6f 616C7068 		.ascii	"alphanumeric_keyboard\000"
 8157      616E756D 
 8157      65726963 
 8157      5F6B6579 
 8157      626F6172 
 8158              	.LASF184:
 8159 0a85 64656C61 		.ascii	"delayPicture1\000"
 8159      79506963 
 8159      74757265 
 8159      3100
 8160              	.LASF185:
 8161 0a93 64656C61 		.ascii	"delayPicture2\000"
 8161      79506963 
 8161      74757265 
 8161      3200
 8162              	.LASF42:
 8163 0aa1 73746174 		.ascii	"stateMux\000"
 8163      654D7578 
 8163      00
 8164              	.LASF24:
ARM GAS  C:\Users\RECEPC~1\AppData\Local\Temp\ccBlh02k.s 			page 168


 8165 0aaa 73697A65 		.ascii	"sizetype\000"
 8165      74797065 
 8165      00
 8166              	.LASF8:
 8167 0ab3 6C6F6E67 		.ascii	"long unsigned int\000"
 8167      20756E73 
 8167      69676E65 
 8167      6420696E 
 8167      7400
 8168              	.LASF100:
 8169 0ac5 44495350 		.ascii	"DISPLAY_BAJE_MANIJA\000"
 8169      4C41595F 
 8169      42414A45 
 8169      5F4D414E 
 8169      494A4100 
 8170              	.LASF208:
 8171 0ad9 50505544 		.ascii	"PPUDec\000"
 8171      656300
 8172              	.LASF84:
 8173 0ae0 61637469 		.ascii	"activeHose\000"
 8173      7665486F 
 8173      736500
 8174              	.LASF71:
 8175 0aeb 666C6167 		.ascii	"flagProductmarket\000"
 8175      50726F64 
 8175      7563746D 
 8175      61726B65 
 8175      7400
 8176              	.LASF14:
 8177 0afd 696E7433 		.ascii	"int32_t\000"
 8177      325F7400 
 8178              	.LASF227:
 8179 0b05 53686F77 		.ascii	"ShowMessage\000"
 8179      4D657373 
 8179      61676500 
 8180              	.LASF67:
 8181 0b11 7175616E 		.ascii	"quantAvailableMark\000"
 8181      74417661 
 8181      696C6162 
 8181      6C654D61 
 8181      726B00
 8182              	.LASF23:
 8183 0b24 63797374 		.ascii	"cystatus\000"
 8183      61747573 
 8183      00
 8184              	.LASF132:
 8185 0b2d 44495350 		.ascii	"DISPLAY_CANCELADO_X_PC\000"
 8185      4C41595F 
 8185      43414E43 
 8185      454C4144 
 8185      4F5F585F 
 8186              	.LASF29:
 8187 0b44 666C6167 		.ascii	"flagWayToPayMixed\000"
 8187      57617954 
 8187      6F506179 
 8187      4D697865 
 8187      6400
ARM GAS  C:\Users\RECEPC~1\AppData\Local\Temp\ccBlh02k.s 			page 169


 8188              	.LASF1:
 8189 0b56 756E7369 		.ascii	"unsigned char\000"
 8189      676E6564 
 8189      20636861 
 8189      7200
 8190              	.LASF133:
 8191 0b64 44495350 		.ascii	"DISPLAY_USUARIO_VALIDO\000"
 8191      4C41595F 
 8191      55535541 
 8191      52494F5F 
 8191      56414C49 
 8192              	.LASF230:
 8193 0b7b 6765745F 		.ascii	"get_state\000"
 8193      73746174 
 8193      6500
 8194              	.LASF120:
 8195 0b85 44495350 		.ascii	"DISPLAY_SELECCIONE_POSICION\000"
 8195      4C41595F 
 8195      53454C45 
 8195      4343494F 
 8195      4E455F50 
 8196              	.LASF250:
 8197 0ba1 474E5520 		.ascii	"GNU C 4.9.3 20150303 (release) [ARM/embedded-4_9-br"
 8197      4320342E 
 8197      392E3320 
 8197      32303135 
 8197      30333033 
 8198 0bd4 616E6368 		.ascii	"anch revision 221220] -mcpu=cortex-m3 -mthumb -g -O"
 8198      20726576 
 8198      6973696F 
 8198      6E203232 
 8198      31323230 
 8199 0c07 67202D66 		.ascii	"g -ffunction-sections -ffat-lto-objects\000"
 8199      66756E63 
 8199      74696F6E 
 8199      2D736563 
 8199      74696F6E 
 8200              	.LASF121:
 8201 0c2f 44495350 		.ascii	"DISPLAY_OPERACION_CANCELADA\000"
 8201      4C41595F 
 8201      4F504552 
 8201      4143494F 
 8201      4E5F4341 
 8202              	.LASF34:
 8203 0c4b 61757468 		.ascii	"authorizationFlag\000"
 8203      6F72697A 
 8203      6174696F 
 8203      6E466C61 
 8203      6700
 8204              	.LASF68:
 8205 0c5d 70726963 		.ascii	"priceTotalMarket\000"
 8205      65546F74 
 8205      616C4D61 
 8205      726B6574 
 8205      00
 8206              	.LASF129:
 8207 0c6e 44495350 		.ascii	"DISPLAY_OPCION_TURNO\000"
ARM GAS  C:\Users\RECEPC~1\AppData\Local\Temp\ccBlh02k.s 			page 170


 8207      4C41595F 
 8207      4F504349 
 8207      4F4E5F54 
 8207      55524E4F 
 8208              	.LASF197:
 8209 0c83 69645365 		.ascii	"idSeller\000"
 8209      6C6C6572 
 8209      00
 8210              	.LASF87:
 8211 0c8c 70756D70 		.ascii	"pump\000"
 8211      00
 8212              	.LASF236:
 8213 0c91 44697370 		.ascii	"Display1_GetRxBufferSize\000"
 8213      6C617931 
 8213      5F476574 
 8213      52784275 
 8213      66666572 
 8214              	.LASF131:
 8215 0caa 44495350 		.ascii	"DISPLAY_CERRAR_TURNO\000"
 8215      4C41595F 
 8215      43455252 
 8215      41525F54 
 8215      55524E4F 
 8216              	.LASF252:
 8217 0cbf 433A5C55 		.ascii	"C:\\Users\\Recepcion\\Documents\\GitHub\\NSY-DH\\Wo"
 8217      73657273 
 8217      5C526563 
 8217      65706369 
 8217      6F6E5C44 
 8218 0cec 726B7370 		.ascii	"rkspace01\\Design01.cydsn\000"
 8218      61636530 
 8218      315C4465 
 8218      7369676E 
 8218      30312E63 
 8219              	.LASF194:
 8220 0d05 74656D70 		.ascii	"temporal\000"
 8220      6F72616C 
 8220      00
 8221              	.LASF207:
 8222 0d0e 566F6C44 		.ascii	"VolDec\000"
 8222      656300
 8223              	.LASF39:
 8224 0d15 70726573 		.ascii	"presetType\000"
 8224      65745479 
 8224      706500
 8225              	.LASF69:
 8226 0d20 70726963 		.ascii	"priceUnitMarket\000"
 8226      65556E69 
 8226      744D6172 
 8226      6B657400 
 8227              	.LASF110:
 8228 0d30 44495350 		.ascii	"DISPLAY_ID_NO_RECONOCIDO\000"
 8228      4C41595F 
 8228      49445F4E 
 8228      4F5F5245 
 8228      434F4E4F 
 8229              	.LASF198:
ARM GAS  C:\Users\RECEPC~1\AppData\Local\Temp\ccBlh02k.s 			page 171


 8230 0d49 74797065 		.ascii	"typeIdSeller\000"
 8230      49645365 
 8230      6C6C6572 
 8230      00
 8231              	.LASF81:
 8232 0d56 766F6C75 		.ascii	"volumeSale\000"
 8232      6D655361 
 8232      6C6500
 8233              	.LASF241:
 8234 0d61 50726573 		.ascii	"PresetData\000"
 8234      65744461 
 8234      746100
 8235              	.LASF139:
 8236 0d6c 44495350 		.ascii	"DISPLAY_DUMMY0\000"
 8236      4C41595F 
 8236      44554D4D 
 8236      593000
 8237              	.LASF140:
 8238 0d7b 44495350 		.ascii	"DISPLAY_DUMMY1\000"
 8238      4C41595F 
 8238      44554D4D 
 8238      593100
 8239              	.LASF141:
 8240 0d8a 44495350 		.ascii	"DISPLAY_DUMMY2\000"
 8240      4C41595F 
 8240      44554D4D 
 8240      593200
 8241              	.LASF142:
 8242 0d99 44495350 		.ascii	"DISPLAY_DUMMY3\000"
 8242      4C41595F 
 8242      44554D4D 
 8242      593300
 8243              	.LASF0:
 8244 0da8 7369676E 		.ascii	"signed char\000"
 8244      65642063 
 8244      68617200 
 8245              	.LASF104:
 8246 0db4 44495350 		.ascii	"DISPLAY_PASSWORD_VALIDO\000"
 8246      4C41595F 
 8246      50415353 
 8246      574F5244 
 8246      5F56414C 
 8247              	.LASF96:
 8248 0dcc 44495350 		.ascii	"DISPLAY_SELECCIONE_PRODUCTO3\000"
 8248      4C41595F 
 8248      53454C45 
 8248      4343494F 
 8248      4E455F50 
 8249              	.LASF97:
 8250 0de9 44495350 		.ascii	"DISPLAY_SELECCIONE_PRODUCTO4\000"
 8250      4C41595F 
 8250      53454C45 
 8250      4343494F 
 8250      4E455F50 
 8251              	.LASF5:
 8252 0e06 73686F72 		.ascii	"short unsigned int\000"
 8252      7420756E 
ARM GAS  C:\Users\RECEPC~1\AppData\Local\Temp\ccBlh02k.s 			page 172


 8252      7369676E 
 8252      65642069 
 8252      6E7400
 8253              	.LASF171:
 8254 0e19 636F756E 		.ascii	"countPump\000"
 8254      7450756D 
 8254      7000
 8255              	.LASF146:
 8256 0e23 53746F72 		.ascii	"StoreConfiguration\000"
 8256      65436F6E 
 8256      66696775 
 8256      72617469 
 8256      6F6E00
 8257              	.LASF253:
 8258 0e36 5F415641 		.ascii	"_AVAILABLE_DISPLAYS_\000"
 8258      494C4142 
 8258      4C455F44 
 8258      4953504C 
 8258      4159535F 
 8259              	.LASF164:
 8260 0e4b 6D61696E 		.ascii	"main\000"
 8260      00
 8261              	.LASF165:
 8262 0e50 44697370 		.ascii	"Display1_rxBuffer\000"
 8262      6C617931 
 8262      5F727842 
 8262      75666665 
 8262      7200
 8263              	.LASF88:
 8264 0e62 44495350 		.ascii	"DISPLAY_ERROR\000"
 8264      4C41595F 
 8264      4552524F 
 8264      5200
 8265              	.LASF83:
 8266 0e70 70726F64 		.ascii	"productSale\000"
 8266      75637453 
 8266      616C6500 
 8267              	.LASF243:
 8268 0e7c 67657453 		.ascii	"getSale\000"
 8268      616C6500 
 8269              	.LASF118:
 8270 0e84 44495350 		.ascii	"DISPLAY_COPIA_RECIBO\000"
 8270      4C41595F 
 8270      434F5049 
 8270      415F5245 
 8270      4349424F 
 8271              	.LASF15:
 8272 0e99 75696E74 		.ascii	"uint8\000"
 8272      3800
 8273              	.LASF19:
 8274 0e9f 646F7562 		.ascii	"double\000"
 8274      6C6500
 8275              	.LASF28:
 8276 0ea6 77617954 		.ascii	"wayToPay\000"
 8276      6F506179 
 8276      00
 8277              	.LASF237:
ARM GAS  C:\Users\RECEPC~1\AppData\Local\Temp\ccBlh02k.s 			page 173


 8278 0eaf 44697370 		.ascii	"Display1_ClearRxBuffer\000"
 8278      6C617931 
 8278      5F436C65 
 8278      61725278 
 8278      42756666 
 8279              	.LASF224:
 8280 0ec6 5072696E 		.ascii	"Printer_Start\000"
 8280      7465725F 
 8280      53746172 
 8280      7400
 8281              	.LASF45:
 8282 0ed4 74696D65 		.ascii	"timeLiftHandle\000"
 8282      4C696674 
 8282      48616E64 
 8282      6C6500
 8283              	.LASF108:
 8284 0ee3 44495350 		.ascii	"DISPLAY_GRACIAS_VUELVA_PRONTO\000"
 8284      4C41595F 
 8284      47524143 
 8284      4941535F 
 8284      5655454C 
 8285              	.LASF79:
 8286 0f01 70707541 		.ascii	"ppuAuthorized\000"
 8286      7574686F 
 8286      72697A65 
 8286      6400
 8287              	.LASF32:
 8288 0f0f 73657269 		.ascii	"serialSelectedSale\000"
 8288      616C5365 
 8288      6C656374 
 8288      65645361 
 8288      6C6500
 8289              	.LASF223:
 8290 0f22 52465F50 		.ascii	"RF_Physical_Start\000"
 8290      68797369 
 8290      63616C5F 
 8290      53746172 
 8290      7400
 8291              	.LASF77:
 8292 0f34 706F7369 		.ascii	"position\000"
 8292      74696F6E 
 8292      00
 8293              	.LASF213:
 8294 0f3d 62756666 		.ascii	"bufferDisplay1\000"
 8294      65724469 
 8294      73706C61 
 8294      793100
 8295              	.LASF251:
 8296 0f4c 2E5C6D61 		.ascii	".\\main.c\000"
 8296      696E2E63 
 8296      00
 8297              	.LASF216:
 8298 0f55 62756666 		.ascii	"bufferDisplay4\000"
 8298      65724469 
 8298      73706C61 
 8298      793400
 8299              		.ident	"GCC: (GNU Tools for ARM Embedded Processors) 4.9.3 20150303 (release) [ARM/embedded-4_9-br
ARM GAS  C:\Users\RECEPC~1\AppData\Local\Temp\ccBlh02k.s 			page 174


