ARM GAS  C:\Users\RECEPC~1\AppData\Local\Temp\ccr4zYAx.s 			page 1


   1              		.syntax unified
   2              		.cpu cortex-m3
   3              		.fpu softvfp
   4              		.eabi_attribute 20, 1
   5              		.eabi_attribute 21, 1
   6              		.eabi_attribute 23, 3
   7              		.eabi_attribute 24, 1
   8              		.eabi_attribute 25, 1
   9              		.eabi_attribute 26, 1
  10              		.eabi_attribute 30, 1
  11              		.eabi_attribute 34, 1
  12              		.eabi_attribute 18, 4
  13              		.thumb
  14              		.file	"main.c"
  15              		.text
  16              	.Ltext0:
  17              		.cfi_sections	.debug_frame
  18              		.section	.text.GlobalInitializer,"ax",%progbits
  19              		.align	2
  20              		.global	GlobalInitializer
  21              		.thumb
  22              		.thumb_func
  23              		.type	GlobalInitializer, %function
  24              	GlobalInitializer:
  25              	.LFB63:
  26              		.file 1 ".\\main.c"
   1:.\main.c      **** /* ========================================
   2:.\main.c      ****  *
   3:.\main.c      ****  * Copyright YOUR COMPANY, THE YEAR
   4:.\main.c      ****  * All Rights Reserved
   5:.\main.c      ****  * UNPUBLISHED, LICENSED SOFTWARE.
   6:.\main.c      ****  *
   7:.\main.c      ****  * CONFIDENTIAL AND PROPRIETARY INFORMATION
   8:.\main.c      ****  * WHICH IS THE PROPERTY OF your company.
   9:.\main.c      ****  *
  10:.\main.c      ****  * ========================================
  11:.\main.c      **** */
  12:.\main.c      **** #include <project.h>
  13:.\main.c      **** #include <protocol.h>
  14:.\main.c      **** #include <variables.h>
  15:.\main.c      **** #include <LCD.h>
  16:.\main.c      **** #include <device.h>
  17:.\main.c      **** 
  18:.\main.c      **** /**********************************/
  19:.\main.c      **** uint8 NumPositions;
  20:.\main.c      **** uint8 MuxVersion [10] = "MUX V. 1.0";
  21:.\main.c      **** 
  22:.\main.c      **** void GlobalInitializer()
  23:.\main.c      **** {
  27              		.loc 1 23 0
  28              		.cfi_startproc
  29              		@ args = 0, pretend = 0, frame = 0
  30              		@ frame_needed = 0, uses_anonymous_args = 0
  31 0000 08B5     		push	{r3, lr}
  32              		.cfi_def_cfa_offset 8
  33              		.cfi_offset 3, -8
  34              		.cfi_offset 14, -4
ARM GAS  C:\Users\RECEPC~1\AppData\Local\Temp\ccr4zYAx.s 			page 2


  24:.\main.c      ****     EEPROM_1_Start();
  35              		.loc 1 24 0
  36 0002 FFF7FEFF 		bl	EEPROM_1_Start
  37              	.LVL0:
  25:.\main.c      ****     Pump_Start(); 
  38              		.loc 1 25 0
  39 0006 FFF7FEFF 		bl	Pump_Start
  40              	.LVL1:
  26:.\main.c      ****     Display1_Start();
  41              		.loc 1 26 0
  42 000a FFF7FEFF 		bl	Display1_Start
  43              	.LVL2:
  27:.\main.c      ****     Display2_Start();
  44              		.loc 1 27 0
  45 000e FFF7FEFF 		bl	Display2_Start
  46              	.LVL3:
  28:.\main.c      ****     RF_Physical_Start();    
  47              		.loc 1 28 0
  48 0012 FFF7FEFF 		bl	RF_Physical_Start
  49              	.LVL4:
  29:.\main.c      ****     Printer_Start();           
  50              		.loc 1 29 0
  51 0016 FFF7FEFF 		bl	Printer_Start
  52              	.LVL5:
  53 001a 08BD     		pop	{r3, pc}
  54              		.cfi_endproc
  55              	.LFE63:
  56              		.size	GlobalInitializer, .-GlobalInitializer
  57              		.section	.text.StoreConfiguration,"ax",%progbits
  58              		.align	2
  59              		.global	StoreConfiguration
  60              		.thumb
  61              		.thumb_func
  62              		.type	StoreConfiguration, %function
  63              	StoreConfiguration:
  64              	.LFB64:
  30:.\main.c      **** }
  31:.\main.c      **** void StoreConfiguration(){
  65              		.loc 1 31 0
  66              		.cfi_startproc
  67              		@ args = 0, pretend = 0, frame = 0
  68              		@ frame_needed = 0, uses_anonymous_args = 0
  69 0000 08B5     		push	{r3, lr}
  70              		.cfi_def_cfa_offset 8
  71              		.cfi_offset 3, -8
  72              		.cfi_offset 14, -4
  32:.\main.c      ****     EEPROM_1_WriteByte(UnitType,0);
  73              		.loc 1 32 0
  74 0002 0F4B     		ldr	r3, .L5
  75 0004 1878     		ldrb	r0, [r3]	@ zero_extendqisi2
  76 0006 0021     		movs	r1, #0
  77 0008 FFF7FEFF 		bl	EEPROM_1_WriteByte
  78              	.LVL6:
  33:.\main.c      ****     EEPROM_1_WriteByte(ConversionFactor,1);
  79              		.loc 1 33 0
  80 000c 0D4B     		ldr	r3, .L5+4
  81 000e 1878     		ldrb	r0, [r3]	@ zero_extendqisi2
ARM GAS  C:\Users\RECEPC~1\AppData\Local\Temp\ccr4zYAx.s 			page 3


  82 0010 0121     		movs	r1, #1
  83 0012 FFF7FEFF 		bl	EEPROM_1_WriteByte
  84              	.LVL7:
  34:.\main.c      ****     EEPROM_1_WriteByte(MoneyDec,2);
  85              		.loc 1 34 0
  86 0016 0C4B     		ldr	r3, .L5+8
  87 0018 1878     		ldrb	r0, [r3]	@ zero_extendqisi2
  88 001a 0221     		movs	r1, #2
  89 001c FFF7FEFF 		bl	EEPROM_1_WriteByte
  90              	.LVL8:
  35:.\main.c      ****     EEPROM_1_WriteByte(VolDec,3);
  91              		.loc 1 35 0
  92 0020 0A4B     		ldr	r3, .L5+12
  93 0022 1878     		ldrb	r0, [r3]	@ zero_extendqisi2
  94 0024 0321     		movs	r1, #3
  95 0026 FFF7FEFF 		bl	EEPROM_1_WriteByte
  96              	.LVL9:
  36:.\main.c      ****     EEPROM_1_WriteByte(PPUDec,4);
  97              		.loc 1 36 0
  98 002a 094B     		ldr	r3, .L5+16
  99 002c 1878     		ldrb	r0, [r3]	@ zero_extendqisi2
 100 002e 0421     		movs	r1, #4
 101 0030 FFF7FEFF 		bl	EEPROM_1_WriteByte
 102              	.LVL10:
  37:.\main.c      ****     EEPROM_1_WriteByte(DDMode,5);
 103              		.loc 1 37 0
 104 0034 074B     		ldr	r3, .L5+20
 105 0036 1878     		ldrb	r0, [r3]	@ zero_extendqisi2
 106 0038 0521     		movs	r1, #5
 107 003a FFF7FEFF 		bl	EEPROM_1_WriteByte
 108              	.LVL11:
 109 003e 08BD     		pop	{r3, pc}
 110              	.L6:
 111              		.align	2
 112              	.L5:
 113 0040 00000000 		.word	UnitType
 114 0044 00000000 		.word	ConversionFactor
 115 0048 00000000 		.word	MoneyDec
 116 004c 00000000 		.word	VolDec
 117 0050 00000000 		.word	PPUDec
 118 0054 00000000 		.word	DDMode
 119              		.cfi_endproc
 120              	.LFE64:
 121              		.size	StoreConfiguration, .-StoreConfiguration
 122              		.section	.text.InitLCD,"ax",%progbits
 123              		.align	2
 124              		.global	InitLCD
 125              		.thumb
 126              		.thumb_func
 127              		.type	InitLCD, %function
 128              	InitLCD:
 129              	.LFB65:
  38:.\main.c      **** }
  39:.\main.c      **** void InitLCD(){      
 130              		.loc 1 39 0
 131              		.cfi_startproc
 132              		@ args = 0, pretend = 0, frame = 88
ARM GAS  C:\Users\RECEPC~1\AppData\Local\Temp\ccr4zYAx.s 			page 4


 133              		@ frame_needed = 0, uses_anonymous_args = 0
 134 0000 10B5     		push	{r4, lr}
 135              		.cfi_def_cfa_offset 8
 136              		.cfi_offset 4, -8
 137              		.cfi_offset 14, -4
 138 0002 96B0     		sub	sp, sp, #88
 139              		.cfi_def_cfa_offset 96
  40:.\main.c      ****     uint8_t iniText[10]="Iniciando"; 
 140              		.loc 1 40 0
 141 0004 434A     		ldr	r2, .L16
 142 0006 13AB     		add	r3, sp, #76
 143 0008 07CA     		ldmia	r2, {r0, r1, r2}
 144 000a 03C3     		stmia	r3!, {r0, r1}
 145 000c 1A80     		strh	r2, [r3]	@ movhi
  41:.\main.c      ****     uint8_t Unit[10] = "S/D/Dupla ";
 146              		.loc 1 41 0
 147 000e 424B     		ldr	r3, .L16+4
 148 0010 10AC     		add	r4, sp, #64
 149 0012 93E80700 		ldmia	r3, {r0, r1, r2}
 150 0016 03C4     		stmia	r4!, {r0, r1}
 151 0018 2280     		strh	r2, [r4]	@ movhi
  42:.\main.c      ****     uint8_t Unit2[10] = "Quadrupla";
 152              		.loc 1 42 0
 153 001a 404A     		ldr	r2, .L16+8
 154 001c 0DAC     		add	r4, sp, #52
 155 001e 07CA     		ldmia	r2, {r0, r1, r2}
 156 0020 03C4     		stmia	r4!, {r0, r1}
 157 0022 2280     		strh	r2, [r4]	@ movhi
  43:.\main.c      ****     uint8_t Unit3[10] = "Sextupla";
 158              		.loc 1 43 0
 159 0024 0AAC     		add	r4, sp, #40
 160 0026 03F10C02 		add	r2, r3, #12
 161 002a 07CA     		ldmia	r2, {r0, r1, r2}
 162 002c 03C4     		stmia	r4!, {r0, r1}
 163 002e 2270     		strb	r2, [r4]
 164 0030 0022     		movs	r2, #0
 165 0032 8DF83120 		strb	r2, [sp, #49]
  44:.\main.c      ****     uint8_t Unit4[10] = "Octupla";
 166              		.loc 1 44 0
 167 0036 07AC     		add	r4, sp, #28
 168 0038 03F11801 		add	r1, r3, #24
 169 003c 03C9     		ldmia	r1, {r0, r1}
 170 003e 84E80300 		stmia	r4, {r0, r1}
 171 0042 ADF82420 		strh	r2, [sp, #36]	@ movhi
  45:.\main.c      ****     uint8_t DisplayMode[10] = "6-6-4     ";
 172              		.loc 1 45 0
 173 0046 04AC     		add	r4, sp, #16
 174 0048 03F12402 		add	r2, r3, #36
 175 004c 07CA     		ldmia	r2, {r0, r1, r2}
 176 004e 03C4     		stmia	r4!, {r0, r1}
 177 0050 2280     		strh	r2, [r4]	@ movhi
  46:.\main.c      ****     uint8_t DisplayMode2[10] = "7-7-5     ";
 178              		.loc 1 46 0
 179 0052 01AC     		add	r4, sp, #4
 180 0054 3033     		adds	r3, r3, #48
 181 0056 93E80700 		ldmia	r3, {r0, r1, r2}
 182 005a 03C4     		stmia	r4!, {r0, r1}
ARM GAS  C:\Users\RECEPC~1\AppData\Local\Temp\ccr4zYAx.s 			page 5


 183 005c 2280     		strh	r2, [r4]	@ movhi
  47:.\main.c      ****     if(NumPositions == 2){
 184              		.loc 1 47 0
 185 005e 304B     		ldr	r3, .L16+12
 186 0060 1B78     		ldrb	r3, [r3]	@ zero_extendqisi2
 187 0062 022B     		cmp	r3, #2
 188 0064 46D1     		bne	.L8
  48:.\main.c      ****         SetPicture(1,DISPLAY_INICIO0);
 189              		.loc 1 48 0
 190 0066 0120     		movs	r0, #1
 191 0068 0146     		mov	r1, r0
 192 006a FFF7FEFF 		bl	SetPicture
 193              	.LVL12:
  49:.\main.c      ****         SetPicture(2,DISPLAY_INICIO0); 
 194              		.loc 1 49 0
 195 006e 0220     		movs	r0, #2
 196 0070 0121     		movs	r1, #1
 197 0072 FFF7FEFF 		bl	SetPicture
 198              	.LVL13:
  50:.\main.c      ****         ShowMessage(1,iniText,0);    
 199              		.loc 1 50 0
 200 0076 0120     		movs	r0, #1
 201 0078 13A9     		add	r1, sp, #76
 202 007a 0022     		movs	r2, #0
 203 007c FFF7FEFF 		bl	ShowMessage
 204              	.LVL14:
  51:.\main.c      ****         CyDelay(500);
 205              		.loc 1 51 0
 206 0080 4FF4FA70 		mov	r0, #500
 207 0084 FFF7FEFF 		bl	CyDelay
 208              	.LVL15:
  52:.\main.c      ****         if(UnitType == 0){
 209              		.loc 1 52 0
 210 0088 264B     		ldr	r3, .L16+16
 211 008a 1B78     		ldrb	r3, [r3]	@ zero_extendqisi2
 212 008c 23B9     		cbnz	r3, .L9
  53:.\main.c      ****             ShowMessage(1,Unit,0);  //Mostrar tipo de dispensador      
 213              		.loc 1 53 0
 214 008e 0120     		movs	r0, #1
 215 0090 10A9     		add	r1, sp, #64
 216 0092 0022     		movs	r2, #0
 217 0094 FFF7FEFF 		bl	ShowMessage
 218              	.LVL16:
 219              	.L9:
  54:.\main.c      ****         }
  55:.\main.c      ****         if(UnitType == 1){
 220              		.loc 1 55 0
 221 0098 224B     		ldr	r3, .L16+16
 222 009a 1B78     		ldrb	r3, [r3]	@ zero_extendqisi2
 223 009c 012B     		cmp	r3, #1
 224 009e 04D1     		bne	.L10
  56:.\main.c      ****             ShowMessage(1,Unit2,0);
 225              		.loc 1 56 0
 226 00a0 0120     		movs	r0, #1
 227 00a2 0DA9     		add	r1, sp, #52
 228 00a4 0022     		movs	r2, #0
 229 00a6 FFF7FEFF 		bl	ShowMessage
ARM GAS  C:\Users\RECEPC~1\AppData\Local\Temp\ccr4zYAx.s 			page 6


 230              	.LVL17:
 231              	.L10:
  57:.\main.c      ****         }
  58:.\main.c      ****         if(UnitType == 2){
 232              		.loc 1 58 0
 233 00aa 1E4B     		ldr	r3, .L16+16
 234 00ac 1B78     		ldrb	r3, [r3]	@ zero_extendqisi2
 235 00ae 022B     		cmp	r3, #2
 236 00b0 04D1     		bne	.L11
  59:.\main.c      ****            ShowMessage(1,Unit3,0);
 237              		.loc 1 59 0
 238 00b2 0120     		movs	r0, #1
 239 00b4 0AA9     		add	r1, sp, #40
 240 00b6 0022     		movs	r2, #0
 241 00b8 FFF7FEFF 		bl	ShowMessage
 242              	.LVL18:
 243              	.L11:
  60:.\main.c      ****         }
  61:.\main.c      ****         if(UnitType == 3){
 244              		.loc 1 61 0
 245 00bc 194B     		ldr	r3, .L16+16
 246 00be 1B78     		ldrb	r3, [r3]	@ zero_extendqisi2
 247 00c0 032B     		cmp	r3, #3
 248 00c2 04D1     		bne	.L12
  62:.\main.c      ****             ShowMessage(1,Unit4,0);
 249              		.loc 1 62 0
 250 00c4 0120     		movs	r0, #1
 251 00c6 07A9     		add	r1, sp, #28
 252 00c8 0022     		movs	r2, #0
 253 00ca FFF7FEFF 		bl	ShowMessage
 254              	.LVL19:
 255              	.L12:
  63:.\main.c      ****         }    
  64:.\main.c      ****         if(DDMode == 1){
 256              		.loc 1 64 0
 257 00ce 164B     		ldr	r3, .L16+20
 258 00d0 1B78     		ldrb	r3, [r3]	@ zero_extendqisi2
 259 00d2 012B     		cmp	r3, #1
 260 00d4 04D1     		bne	.L13
  65:.\main.c      ****             ShowMessage(1,DisplayMode,22); //Mostrar modo de display
 261              		.loc 1 65 0
 262 00d6 0120     		movs	r0, #1
 263 00d8 04A9     		add	r1, sp, #16
 264 00da 1622     		movs	r2, #22
 265 00dc FFF7FEFF 		bl	ShowMessage
 266              	.LVL20:
 267              	.L13:
  66:.\main.c      ****         }
  67:.\main.c      ****         if(DDMode == 2){
 268              		.loc 1 67 0
 269 00e0 114B     		ldr	r3, .L16+20
 270 00e2 1B78     		ldrb	r3, [r3]	@ zero_extendqisi2
 271 00e4 022B     		cmp	r3, #2
 272 00e6 0DD1     		bne	.L14
  68:.\main.c      ****            ShowMessage(1,DisplayMode2,22);
 273              		.loc 1 68 0
 274 00e8 0120     		movs	r0, #1
ARM GAS  C:\Users\RECEPC~1\AppData\Local\Temp\ccr4zYAx.s 			page 7


 275 00ea 01A9     		add	r1, sp, #4
 276 00ec 1622     		movs	r2, #22
 277 00ee FFF7FEFF 		bl	ShowMessage
 278              	.LVL21:
 279 00f2 07E0     		b	.L14
 280              	.L8:
  69:.\main.c      ****         }
  70:.\main.c      ****     }else{
  71:.\main.c      ****         SetPicture(1,DISPLAY_ERROR);
 281              		.loc 1 71 0
 282 00f4 0120     		movs	r0, #1
 283 00f6 0021     		movs	r1, #0
 284 00f8 FFF7FEFF 		bl	SetPicture
 285              	.LVL22:
  72:.\main.c      ****         SetPicture(2,DISPLAY_ERROR);
 286              		.loc 1 72 0
 287 00fc 0220     		movs	r0, #2
 288 00fe 0021     		movs	r1, #0
 289 0100 FFF7FEFF 		bl	SetPicture
 290              	.LVL23:
 291              	.L14:
  73:.\main.c      ****     }     
  74:.\main.c      ****     ShowMessage(2,MuxVersion,0);
 292              		.loc 1 74 0
 293 0104 0220     		movs	r0, #2
 294 0106 0949     		ldr	r1, .L16+24
 295 0108 0022     		movs	r2, #0
 296 010a FFF7FEFF 		bl	ShowMessage
 297              	.LVL24:
  75:.\main.c      **** }
 298              		.loc 1 75 0
 299 010e 16B0     		add	sp, sp, #88
 300              		.cfi_def_cfa_offset 8
 301              		@ sp needed
 302 0110 10BD     		pop	{r4, pc}
 303              	.L17:
 304 0112 00BF     		.align	2
 305              	.L16:
 306 0114 00000000 		.word	.LC0
 307 0118 00000000 		.word	.LANCHOR0
 308 011c 0C000000 		.word	.LC2
 309 0120 00000000 		.word	NumPositions
 310 0124 00000000 		.word	UnitType
 311 0128 00000000 		.word	DDMode
 312 012c 00000000 		.word	.LANCHOR1
 313              		.cfi_endproc
 314              	.LFE65:
 315              		.size	InitLCD, .-InitLCD
 316              		.section	.text.InitPump,"ax",%progbits
 317              		.align	2
 318              		.global	InitPump
 319              		.thumb
 320              		.thumb_func
 321              		.type	InitPump, %function
 322              	InitPump:
 323              	.LFB66:
  76:.\main.c      **** void InitPump(){    
ARM GAS  C:\Users\RECEPC~1\AppData\Local\Temp\ccr4zYAx.s 			page 8


 324              		.loc 1 76 0
 325              		.cfi_startproc
 326              		@ args = 0, pretend = 0, frame = 0
 327              		@ frame_needed = 0, uses_anonymous_args = 0
 328 0000 08B5     		push	{r3, lr}
 329              		.cfi_def_cfa_offset 8
 330              		.cfi_offset 3, -8
 331              		.cfi_offset 14, -4
  77:.\main.c      ****     NumPositions = get_position();
 332              		.loc 1 77 0
 333 0002 FFF7FEFF 		bl	get_position
 334              	.LVL25:
 335 0006 054B     		ldr	r3, .L21
 336 0008 1870     		strb	r0, [r3]
  78:.\main.c      ****     if(NumPositions > 0){
 337              		.loc 1 78 0
 338 000a 28B1     		cbz	r0, .L18
  79:.\main.c      ****         PumpCompleteConfiguration(side.a.dir);
 339              		.loc 1 79 0
 340 000c 044B     		ldr	r3, .L21+4
 341 000e 1878     		ldrb	r0, [r3]	@ zero_extendqisi2
 342 0010 FFF7FEFF 		bl	PumpCompleteConfiguration
 343              	.LVL26:
  80:.\main.c      ****         StoreConfiguration();
 344              		.loc 1 80 0
 345 0014 FFF7FEFF 		bl	StoreConfiguration
 346              	.LVL27:
 347              	.L18:
 348 0018 08BD     		pop	{r3, pc}
 349              	.L22:
 350 001a 00BF     		.align	2
 351              	.L21:
 352 001c 00000000 		.word	NumPositions
 353 0020 00000000 		.word	side
 354              		.cfi_endproc
 355              	.LFE66:
 356              		.size	InitPump, .-InitPump
 357              		.section	.text.PollingPump,"ax",%progbits
 358              		.align	2
 359              		.global	PollingPump
 360              		.thumb
 361              		.thumb_func
 362              		.type	PollingPump, %function
 363              	PollingPump:
 364              	.LFB67:
  81:.\main.c      ****     }
  82:.\main.c      ****     
  83:.\main.c      **** }
  84:.\main.c      **** 
  85:.\main.c      **** /*
  86:.\main.c      **** ***************************************************************************************************
  87:.\main.c      **** *                                         void polling_Pump(void)
  88:.\main.c      **** *
  89:.\main.c      **** * Description : Pregunta estado al surtidor cada segundo
  90:.\main.c      **** *               
  91:.\main.c      **** *
  92:.\main.c      **** * Argument(s) : none
ARM GAS  C:\Users\RECEPC~1\AppData\Local\Temp\ccr4zYAx.s 			page 9


  93:.\main.c      **** *
  94:.\main.c      **** * Return(s)   : none
  95:.\main.c      **** *
  96:.\main.c      **** * Caller(s)   : 
  97:.\main.c      **** *
  98:.\main.c      **** * Note(s)     : none.
  99:.\main.c      **** ***************************************************************************************************
 100:.\main.c      **** */
 101:.\main.c      **** 
 102:.\main.c      **** void PollingPump(void){
 365              		.loc 1 102 0
 366              		.cfi_startproc
 367              		@ args = 0, pretend = 0, frame = 0
 368              		@ frame_needed = 0, uses_anonymous_args = 0
 369 0000 38B5     		push	{r3, r4, r5, lr}
 370              		.cfi_def_cfa_offset 16
 371              		.cfi_offset 3, -16
 372              		.cfi_offset 4, -12
 373              		.cfi_offset 5, -8
 374              		.cfi_offset 14, -4
 375              	.LVL28:
 103:.\main.c      ****     uint8 x;
 104:.\main.c      ****     for(x= 0; x < 4; x++){
 376              		.loc 1 104 0
 377 0002 0023     		movs	r3, #0
 378 0004 05E0     		b	.L24
 379              	.LVL29:
 380              	.L25:
 105:.\main.c      ****         PrevStatePump[x] = statePump[x];
 381              		.loc 1 105 0 discriminator 3
 382 0006 294A     		ldr	r2, .L31
 383 0008 D15C     		ldrb	r1, [r2, r3]	@ zero_extendqisi2
 384 000a 294A     		ldr	r2, .L31+4
 385 000c D154     		strb	r1, [r2, r3]
 104:.\main.c      ****         PrevStatePump[x] = statePump[x];
 386              		.loc 1 104 0 discriminator 3
 387 000e 0133     		adds	r3, r3, #1
 388              	.LVL30:
 389 0010 DBB2     		uxtb	r3, r3
 390              	.LVL31:
 391              	.L24:
 104:.\main.c      ****         PrevStatePump[x] = statePump[x];
 392              		.loc 1 104 0 is_stmt 0 discriminator 1
 393 0012 032B     		cmp	r3, #3
 394 0014 F7D9     		bls	.L25
 106:.\main.c      ****     }
 107:.\main.c      ****     if (NumPositions == 2){
 395              		.loc 1 107 0 is_stmt 1
 396 0016 274B     		ldr	r3, .L31+8
 397              	.LVL32:
 398 0018 1B78     		ldrb	r3, [r3]	@ zero_extendqisi2
 399 001a 022B     		cmp	r3, #2
 400 001c 10D1     		bne	.L26
 108:.\main.c      ****         statePump[0] = get_state(side.a.dir);         
 401              		.loc 1 108 0
 402 001e 264D     		ldr	r5, .L31+12
 403 0020 2878     		ldrb	r0, [r5]	@ zero_extendqisi2
ARM GAS  C:\Users\RECEPC~1\AppData\Local\Temp\ccr4zYAx.s 			page 10


 404 0022 FFF7FEFF 		bl	get_state
 405              	.LVL33:
 406 0026 214C     		ldr	r4, .L31
 407 0028 2070     		strb	r0, [r4]
 109:.\main.c      ****         CyDelay(40);
 408              		.loc 1 109 0
 409 002a 2820     		movs	r0, #40
 410 002c FFF7FEFF 		bl	CyDelay
 411              	.LVL34:
 110:.\main.c      ****         statePump[1] = get_state(side.b.dir);  
 412              		.loc 1 110 0
 413 0030 95F80001 		ldrb	r0, [r5, #256]	@ zero_extendqisi2
 414 0034 FFF7FEFF 		bl	get_state
 415              	.LVL35:
 416 0038 6070     		strb	r0, [r4, #1]
 111:.\main.c      ****         CyDelay(40);
 417              		.loc 1 111 0
 418 003a 2820     		movs	r0, #40
 419 003c FFF7FEFF 		bl	CyDelay
 420              	.LVL36:
 421              	.L26:
 112:.\main.c      ****     }
 113:.\main.c      ****     if (NumPositions == 4 ){
 422              		.loc 1 113 0
 423 0040 1C4B     		ldr	r3, .L31+8
 424 0042 1B78     		ldrb	r3, [r3]	@ zero_extendqisi2
 425 0044 042B     		cmp	r3, #4
 426 0046 20D1     		bne	.L27
 114:.\main.c      ****         statePump[0] = get_state(side.a.dir);         
 427              		.loc 1 114 0
 428 0048 1B4D     		ldr	r5, .L31+12
 429 004a 2878     		ldrb	r0, [r5]	@ zero_extendqisi2
 430 004c FFF7FEFF 		bl	get_state
 431              	.LVL37:
 432 0050 164C     		ldr	r4, .L31
 433 0052 2070     		strb	r0, [r4]
 115:.\main.c      ****         CyDelay(40);
 434              		.loc 1 115 0
 435 0054 2820     		movs	r0, #40
 436 0056 FFF7FEFF 		bl	CyDelay
 437              	.LVL38:
 116:.\main.c      ****         statePump[1] = get_state(side.b.dir);  
 438              		.loc 1 116 0
 439 005a 95F80001 		ldrb	r0, [r5, #256]	@ zero_extendqisi2
 440 005e FFF7FEFF 		bl	get_state
 441              	.LVL39:
 442 0062 6070     		strb	r0, [r4, #1]
 117:.\main.c      ****         CyDelay(40);
 443              		.loc 1 117 0
 444 0064 2820     		movs	r0, #40
 445 0066 FFF7FEFF 		bl	CyDelay
 446              	.LVL40:
 118:.\main.c      ****         statePump[2] = get_state(side.c.dir);
 447              		.loc 1 118 0
 448 006a 95F80002 		ldrb	r0, [r5, #512]	@ zero_extendqisi2
 449 006e FFF7FEFF 		bl	get_state
 450              	.LVL41:
ARM GAS  C:\Users\RECEPC~1\AppData\Local\Temp\ccr4zYAx.s 			page 11


 451 0072 A070     		strb	r0, [r4, #2]
 119:.\main.c      ****         CyDelay(40);
 452              		.loc 1 119 0
 453 0074 2820     		movs	r0, #40
 454 0076 FFF7FEFF 		bl	CyDelay
 455              	.LVL42:
 120:.\main.c      ****         statePump[3] = get_state(side.d.dir);
 456              		.loc 1 120 0
 457 007a 95F80003 		ldrb	r0, [r5, #768]	@ zero_extendqisi2
 458 007e FFF7FEFF 		bl	get_state
 459              	.LVL43:
 460 0082 E070     		strb	r0, [r4, #3]
 121:.\main.c      ****         CyDelay(40);
 461              		.loc 1 121 0
 462 0084 2820     		movs	r0, #40
 463 0086 FFF7FEFF 		bl	CyDelay
 464              	.LVL44:
 465              	.L27:
 122:.\main.c      ****     }
 123:.\main.c      ****     if(NumPositions < 2 || get_state(side.a.dir) == 0x00 ){
 466              		.loc 1 123 0
 467 008a 0A4B     		ldr	r3, .L31+8
 468 008c 1B78     		ldrb	r3, [r3]	@ zero_extendqisi2
 469 008e 012B     		cmp	r3, #1
 470 0090 04D9     		bls	.L28
 471              		.loc 1 123 0 is_stmt 0 discriminator 1
 472 0092 094B     		ldr	r3, .L31+12
 473 0094 1878     		ldrb	r0, [r3]	@ zero_extendqisi2
 474 0096 FFF7FEFF 		bl	get_state
 475              	.LVL45:
 476 009a 30B9     		cbnz	r0, .L23
 477              	.L28:
 124:.\main.c      ****         NumPositions = 0;
 478              		.loc 1 124 0 is_stmt 1
 479 009c 0022     		movs	r2, #0
 480 009e 054B     		ldr	r3, .L31+8
 481 00a0 1A70     		strb	r2, [r3]
 125:.\main.c      ****         InitPump();
 482              		.loc 1 125 0
 483 00a2 FFF7FEFF 		bl	InitPump
 484              	.LVL46:
 126:.\main.c      ****         InitLCD();
 485              		.loc 1 126 0
 486 00a6 FFF7FEFF 		bl	InitLCD
 487              	.LVL47:
 488              	.L23:
 489 00aa 38BD     		pop	{r3, r4, r5, pc}
 490              	.L32:
 491              		.align	2
 492              	.L31:
 493 00ac 00000000 		.word	statePump
 494 00b0 00000000 		.word	PrevStatePump
 495 00b4 00000000 		.word	NumPositions
 496 00b8 00000000 		.word	side
 497              		.cfi_endproc
 498              	.LFE67:
 499              		.size	PollingPump, .-PollingPump
ARM GAS  C:\Users\RECEPC~1\AppData\Local\Temp\ccr4zYAx.s 			page 12


 500              		.section	.text.main,"ax",%progbits
 501              		.align	2
 502              		.global	main
 503              		.thumb
 504              		.thumb_func
 505              		.type	main, %function
 506              	main:
 507              	.LFB68:
 127:.\main.c      ****     }
 128:.\main.c      **** }
 129:.\main.c      **** int main()
 130:.\main.c      **** {
 508              		.loc 1 130 0
 509              		.cfi_startproc
 510              		@ args = 0, pretend = 0, frame = 0
 511              		@ frame_needed = 0, uses_anonymous_args = 0
 512 0000 08B5     		push	{r3, lr}
 513              		.cfi_def_cfa_offset 8
 514              		.cfi_offset 3, -8
 515              		.cfi_offset 14, -4
 131:.\main.c      ****     uint8 x;
 132:.\main.c      ****     CyGlobalIntEnable; /* Enable global interrupts. */
 516              		.loc 1 132 0
 517              	@ 132 ".\main.c" 1
 518 0002 62B6     		CPSIE   i
 519              	@ 0 "" 2
 520              	.LVL48:
 133:.\main.c      **** 
 134:.\main.c      ****     /* Place your initialization/startup code here (e.g. MyInst_Start()) */
 135:.\main.c      ****     for(x= 0; x < 4; x++){
 521              		.loc 1 135 0
 522              		.thumb
 523 0004 0023     		movs	r3, #0
 524 0006 04E0     		b	.L34
 525              	.LVL49:
 526              	.L35:
 136:.\main.c      ****         statePump[x]=0;
 527              		.loc 1 136 0 discriminator 3
 528 0008 0021     		movs	r1, #0
 529 000a 0B4A     		ldr	r2, .L38
 530 000c D154     		strb	r1, [r2, r3]
 135:.\main.c      ****         statePump[x]=0;
 531              		.loc 1 135 0 discriminator 3
 532 000e 0133     		adds	r3, r3, #1
 533              	.LVL50:
 534 0010 DBB2     		uxtb	r3, r3
 535              	.LVL51:
 536              	.L34:
 135:.\main.c      ****         statePump[x]=0;
 537              		.loc 1 135 0 is_stmt 0 discriminator 1
 538 0012 032B     		cmp	r3, #3
 539 0014 F8D9     		bls	.L35
 137:.\main.c      ****     }
 138:.\main.c      ****     GlobalInitializer();
 540              		.loc 1 138 0 is_stmt 1
 541 0016 FFF7FEFF 		bl	GlobalInitializer
 542              	.LVL52:
ARM GAS  C:\Users\RECEPC~1\AppData\Local\Temp\ccr4zYAx.s 			page 13


 139:.\main.c      ****     InitPump();
 543              		.loc 1 139 0
 544 001a FFF7FEFF 		bl	InitPump
 545              	.LVL53:
 140:.\main.c      ****     InitLCD();      
 546              		.loc 1 140 0
 547 001e FFF7FEFF 		bl	InitLCD
 548              	.LVL54:
 549              	.L36:
 141:.\main.c      ****     for(;;)
 142:.\main.c      ****     {
 143:.\main.c      ****         CyWdtClear();
 550              		.loc 1 143 0 discriminator 1
 551 0022 FFF7FEFF 		bl	CyWdtClear
 552              	.LVL55:
 144:.\main.c      ****         PollingPump();
 553              		.loc 1 144 0 discriminator 1
 554 0026 FFF7FEFF 		bl	PollingPump
 555              	.LVL56:
 145:.\main.c      ****         CyWdtClear();
 556              		.loc 1 145 0 discriminator 1
 557 002a FFF7FEFF 		bl	CyWdtClear
 558              	.LVL57:
 146:.\main.c      ****         ShowRectangle(2,35);
 559              		.loc 1 146 0 discriminator 1
 560 002e 0220     		movs	r0, #2
 561 0030 2321     		movs	r1, #35
 562 0032 FFF7FEFF 		bl	ShowRectangle
 563              	.LVL58:
 147:.\main.c      ****     }
 564              		.loc 1 147 0 discriminator 1
 565 0036 F4E7     		b	.L36
 566              	.L39:
 567              		.align	2
 568              	.L38:
 569 0038 00000000 		.word	statePump
 570              		.cfi_endproc
 571              	.LFE68:
 572              		.size	main, .-main
 573              		.global	MuxVersion
 574              		.comm	NumPositions,1,1
 575              		.comm	side,1024,4
 576              		.comm	bufferDisplay4,661,4
 577              		.comm	bufferDisplay3,661,4
 578              		.comm	bufferDisplay2,661,4
 579              		.comm	bufferDisplay1,661,4
 580              		.comm	statePump,4,4
 581              		.comm	DDMode,1,1
 582              		.comm	PPUDec,1,1
 583              		.comm	VolDec,1,1
 584              		.comm	MoneyDec,1,1
 585              		.comm	ConversionFactor,1,1
 586              		.comm	UnitType,1,1
 587              		.comm	PrevStatePump,4,4
 588              		.comm	stateBeagleSoft,1,1
 589              		.comm	flagResetMux,1,1
 590              		.comm	passwordSeller,8,4
ARM GAS  C:\Users\RECEPC~1\AppData\Local\Temp\ccr4zYAx.s 			page 14


 591              		.comm	typeIdSeller,1,1
 592              		.comm	idSeller,25,4
 593              		.comm	lockTurn,1,1
 594              		.comm	turn,1,1
 595              		.comm	temporalCom,30,4
 596              		.comm	temporal,30,4
 597              		.comm	residue,14,4
 598              		.comm	screen,2,4
 599              		.comm	date,3,4
 600              		.comm	time,3,4
 601              		.comm	symbols,2,4
 602              		.comm	decimalVolume,1,1
 603              		.comm	decimalMoney,1,1
 604              		.comm	ppux10,1,1
 605              		.comm	delayPicture2,4,4
 606              		.comm	delayPicture1,4,4
 607              		.comm	presetFast,30,4
 608              		.comm	productNumber,1,1
 609              		.comm	button,960,4
 610              		.comm	flagPoint2,1,1
 611              		.comm	flagPoint1,1,1
 612              		.comm	numberKeys2,1,1
 613              		.comm	numberKeys1,1,1
 614              		.comm	ipAdress,12,4
 615              		.comm	digits,1,1
 616              		.comm	flowDisplay2,4,4
 617              		.comm	flowDisplay1,4,4
 618              		.comm	countPump,8,8
 619              		.comm	countBeagleTX,8,8
 620              		.comm	countAnimation2,8,8
 621              		.comm	countAnimation1,8,8
 622              		.section	.rodata
 623              		.align	2
 624              		.set	.LANCHOR0,. + 0
 625              	.LC1:
 626 0000 532F442F 		.ascii	"S/D/Dupla \000"
 626      4475706C 
 626      612000
 627 000b 00       		.space	1
 628              	.LC3:
 629 000c 53657874 		.ascii	"Sextupla\000"
 629      75706C61 
 629      00
 630 0015 00       		.space	1
 631 0016 0000     		.space	2
 632              	.LC4:
 633 0018 4F637475 		.ascii	"Octupla\000"
 633      706C6100 
 634 0020 0000     		.space	2
 635 0022 0000     		.space	2
 636              	.LC5:
 637 0024 362D362D 		.ascii	"6-6-4     \000"
 637      34202020 
 637      202000
 638 002f 00       		.space	1
 639              	.LC6:
 640 0030 372D372D 		.ascii	"7-7-5     \000"
ARM GAS  C:\Users\RECEPC~1\AppData\Local\Temp\ccr4zYAx.s 			page 15


 640      35202020 
 640      202000
 641 003b 00       		.data
 642              		.align	2
 643              		.set	.LANCHOR1,. + 0
 644              		.type	MuxVersion, %object
 645              		.size	MuxVersion, 10
 646              	MuxVersion:
 647 0000 4D555820 		.ascii	"MUX V. 1.0"
 647      562E2031 
 647      2E30
 648 000a 0000     		.section	.rodata.str1.4,"aMS",%progbits,1
 649              		.align	2
 650              	.LC0:
 651 0000 496E6963 		.ascii	"Iniciando\000"
 651      69616E64 
 651      6F00
 652 000a 0000     		.space	2
 653              	.LC2:
 654 000c 51756164 		.ascii	"Quadrupla\000"
 654      7275706C 
 654      6100
 655 0016 0000     		.text
 656              	.Letext0:
 657              		.file 2 "c:\\program files (x86)\\cypress\\psoc creator\\3.3\\psoc creator\\import\\gnu\\arm\\4.9.
 658              		.file 3 "c:\\program files (x86)\\cypress\\psoc creator\\3.3\\psoc creator\\import\\gnu\\arm\\4.9.
 659              		.file 4 "Generated_Source\\PSoC5/cytypes.h"
 660              		.file 5 "./variables.h"
 661              		.file 6 "Generated_Source\\PSoC5/core_cm3.h"
 662              		.file 7 "Generated_Source\\PSoC5/EEPROM_1.h"
 663              		.file 8 "Generated_Source\\PSoC5/Pump.h"
 664              		.file 9 "Generated_Source\\PSoC5/Display1.h"
 665              		.file 10 "Generated_Source\\PSoC5/Display2.h"
 666              		.file 11 "Generated_Source\\PSoC5/RF_Physical.h"
 667              		.file 12 "Generated_Source\\PSoC5/Printer.h"
 668              		.file 13 "./LCD.h"
 669              		.file 14 "Generated_Source\\PSoC5/CyLib.h"
 670              		.file 15 "./protocol.h"
 671              		.section	.debug_info,"",%progbits
 672              	.Ldebug_info0:
 673 0000 C90F0000 		.4byte	0xfc9
 674 0004 0400     		.2byte	0x4
 675 0006 00000000 		.4byte	.Ldebug_abbrev0
 676 000a 04       		.byte	0x4
 677 000b 01       		.uleb128 0x1
 678 000c 300A0000 		.4byte	.LASF214
 679 0010 01       		.byte	0x1
 680 0011 790D0000 		.4byte	.LASF215
 681 0015 350B0000 		.4byte	.LASF216
 682 0019 00000000 		.4byte	.Ldebug_ranges0+0
 683 001d 00000000 		.4byte	0
 684 0021 00000000 		.4byte	.Ldebug_line0
 685 0025 02       		.uleb128 0x2
 686 0026 01       		.byte	0x1
 687 0027 06       		.byte	0x6
 688 0028 060C0000 		.4byte	.LASF0
 689 002c 03       		.uleb128 0x3
ARM GAS  C:\Users\RECEPC~1\AppData\Local\Temp\ccr4zYAx.s 			page 16


 690 002d D8080000 		.4byte	.LASF4
 691 0031 02       		.byte	0x2
 692 0032 1D       		.byte	0x1d
 693 0033 37000000 		.4byte	0x37
 694 0037 02       		.uleb128 0x2
 695 0038 01       		.byte	0x1
 696 0039 08       		.byte	0x8
 697 003a E5090000 		.4byte	.LASF1
 698 003e 02       		.uleb128 0x2
 699 003f 02       		.byte	0x2
 700 0040 05       		.byte	0x5
 701 0041 8F070000 		.4byte	.LASF2
 702 0045 02       		.uleb128 0x2
 703 0046 02       		.byte	0x2
 704 0047 07       		.byte	0x7
 705 0048 640C0000 		.4byte	.LASF3
 706 004c 03       		.uleb128 0x3
 707 004d 24010000 		.4byte	.LASF5
 708 0051 02       		.byte	0x2
 709 0052 3F       		.byte	0x3f
 710 0053 57000000 		.4byte	0x57
 711 0057 02       		.uleb128 0x2
 712 0058 04       		.byte	0x4
 713 0059 05       		.byte	0x5
 714 005a 99070000 		.4byte	.LASF6
 715 005e 02       		.uleb128 0x2
 716 005f 04       		.byte	0x4
 717 0060 07       		.byte	0x7
 718 0061 40090000 		.4byte	.LASF7
 719 0065 02       		.uleb128 0x2
 720 0066 08       		.byte	0x8
 721 0067 05       		.byte	0x5
 722 0068 66050000 		.4byte	.LASF8
 723 006c 02       		.uleb128 0x2
 724 006d 08       		.byte	0x8
 725 006e 07       		.byte	0x7
 726 006f A5020000 		.4byte	.LASF9
 727 0073 04       		.uleb128 0x4
 728 0074 04       		.byte	0x4
 729 0075 05       		.byte	0x5
 730 0076 696E7400 		.ascii	"int\000"
 731 007a 02       		.uleb128 0x2
 732 007b 04       		.byte	0x4
 733 007c 07       		.byte	0x7
 734 007d FA000000 		.4byte	.LASF10
 735 0081 03       		.uleb128 0x3
 736 0082 D9040000 		.4byte	.LASF11
 737 0086 03       		.byte	0x3
 738 0087 15       		.byte	0x15
 739 0088 2C000000 		.4byte	0x2c
 740 008c 03       		.uleb128 0x3
 741 008d 8C090000 		.4byte	.LASF12
 742 0091 03       		.byte	0x3
 743 0092 2C       		.byte	0x2c
 744 0093 4C000000 		.4byte	0x4c
 745 0097 05       		.uleb128 0x5
 746 0098 DD0C0000 		.4byte	.LASF13
ARM GAS  C:\Users\RECEPC~1\AppData\Local\Temp\ccr4zYAx.s 			page 17


 747 009c 04       		.byte	0x4
 748 009d 3801     		.2byte	0x138
 749 009f 37000000 		.4byte	0x37
 750 00a3 05       		.uleb128 0x5
 751 00a4 B2040000 		.4byte	.LASF14
 752 00a8 04       		.byte	0x4
 753 00a9 3901     		.2byte	0x139
 754 00ab 45000000 		.4byte	0x45
 755 00af 05       		.uleb128 0x5
 756 00b0 87060000 		.4byte	.LASF15
 757 00b4 04       		.byte	0x4
 758 00b5 3A01     		.2byte	0x13a
 759 00b7 5E000000 		.4byte	0x5e
 760 00bb 02       		.uleb128 0x2
 761 00bc 04       		.byte	0x4
 762 00bd 04       		.byte	0x4
 763 00be 49020000 		.4byte	.LASF16
 764 00c2 02       		.uleb128 0x2
 765 00c3 08       		.byte	0x8
 766 00c4 04       		.byte	0x4
 767 00c5 E30C0000 		.4byte	.LASF17
 768 00c9 05       		.uleb128 0x5
 769 00ca 0B090000 		.4byte	.LASF18
 770 00ce 04       		.byte	0x4
 771 00cf 4401     		.2byte	0x144
 772 00d1 6C000000 		.4byte	0x6c
 773 00d5 02       		.uleb128 0x2
 774 00d6 01       		.byte	0x1
 775 00d7 08       		.byte	0x8
 776 00d8 4B040000 		.4byte	.LASF19
 777 00dc 05       		.uleb128 0x5
 778 00dd B3090000 		.4byte	.LASF20
 779 00e1 04       		.byte	0x4
 780 00e2 DA01     		.2byte	0x1da
 781 00e4 5E000000 		.4byte	0x5e
 782 00e8 06       		.uleb128 0x6
 783 00e9 97000000 		.4byte	0x97
 784 00ed 06       		.uleb128 0x6
 785 00ee AF000000 		.4byte	0xaf
 786 00f2 02       		.uleb128 0x2
 787 00f3 04       		.byte	0x4
 788 00f4 07       		.byte	0x7
 789 00f5 37090000 		.4byte	.LASF21
 790 00f9 07       		.uleb128 0x7
 791 00fa 97000000 		.4byte	0x97
 792 00fe 09010000 		.4byte	0x109
 793 0102 08       		.uleb128 0x8
 794 0103 F2000000 		.4byte	0xf2
 795 0107 03       		.byte	0x3
 796 0108 00       		.byte	0
 797 0109 09       		.uleb128 0x9
 798 010a D1000000 		.4byte	.LASF72
 799 010e 9502     		.2byte	0x295
 800 0110 05       		.byte	0x5
 801 0111 5B       		.byte	0x5b
 802 0112 85030000 		.4byte	0x385
 803 0116 0A       		.uleb128 0xa
ARM GAS  C:\Users\RECEPC~1\AppData\Local\Temp\ccr4zYAx.s 			page 18


 804 0117 6B010000 		.4byte	.LASF22
 805 011b 05       		.byte	0x5
 806 011c 5C       		.byte	0x5c
 807 011d 97000000 		.4byte	0x97
 808 0121 00       		.byte	0
 809 0122 0A       		.uleb128 0xa
 810 0123 60030000 		.4byte	.LASF23
 811 0127 05       		.byte	0x5
 812 0128 5D       		.byte	0x5d
 813 0129 85030000 		.4byte	0x385
 814 012d 01       		.byte	0x1
 815 012e 0A       		.uleb128 0xa
 816 012f ED040000 		.4byte	.LASF24
 817 0133 05       		.byte	0x5
 818 0134 5E       		.byte	0x5e
 819 0135 85030000 		.4byte	0x385
 820 0139 1A       		.byte	0x1a
 821 013a 0A       		.uleb128 0xa
 822 013b EA0C0000 		.4byte	.LASF25
 823 013f 05       		.byte	0x5
 824 0140 5F       		.byte	0x5f
 825 0141 97000000 		.4byte	0x97
 826 0145 33       		.byte	0x33
 827 0146 0A       		.uleb128 0xa
 828 0147 D3090000 		.4byte	.LASF26
 829 014b 05       		.byte	0x5
 830 014c 60       		.byte	0x60
 831 014d 97000000 		.4byte	0x97
 832 0151 34       		.byte	0x34
 833 0152 0A       		.uleb128 0xa
 834 0153 D3010000 		.4byte	.LASF27
 835 0157 05       		.byte	0x5
 836 0158 61       		.byte	0x61
 837 0159 95030000 		.4byte	0x395
 838 015d 35       		.byte	0x35
 839 015e 0A       		.uleb128 0xa
 840 015f 35070000 		.4byte	.LASF28
 841 0163 05       		.byte	0x5
 842 0164 62       		.byte	0x62
 843 0165 95030000 		.4byte	0x395
 844 0169 3F       		.byte	0x3f
 845 016a 0A       		.uleb128 0xa
 846 016b 3C0D0000 		.4byte	.LASF29
 847 016f 05       		.byte	0x5
 848 0170 63       		.byte	0x63
 849 0171 85030000 		.4byte	0x385
 850 0175 49       		.byte	0x49
 851 0176 0A       		.uleb128 0xa
 852 0177 EA060000 		.4byte	.LASF30
 853 017b 05       		.byte	0x5
 854 017c 64       		.byte	0x64
 855 017d 97000000 		.4byte	0x97
 856 0181 62       		.byte	0x62
 857 0182 0A       		.uleb128 0xa
 858 0183 DA0A0000 		.4byte	.LASF31
 859 0187 05       		.byte	0x5
 860 0188 65       		.byte	0x65
ARM GAS  C:\Users\RECEPC~1\AppData\Local\Temp\ccr4zYAx.s 			page 19


 861 0189 97000000 		.4byte	0x97
 862 018d 63       		.byte	0x63
 863 018e 0A       		.uleb128 0xa
 864 018f 41040000 		.4byte	.LASF32
 865 0193 05       		.byte	0x5
 866 0194 66       		.byte	0x66
 867 0195 A5030000 		.4byte	0x3a5
 868 0199 64       		.byte	0x64
 869 019a 0A       		.uleb128 0xa
 870 019b 54060000 		.4byte	.LASF33
 871 019f 05       		.byte	0x5
 872 01a0 67       		.byte	0x67
 873 01a1 97000000 		.4byte	0x97
 874 01a5 79       		.byte	0x79
 875 01a6 0A       		.uleb128 0xa
 876 01a7 38040000 		.4byte	.LASF34
 877 01ab 05       		.byte	0x5
 878 01ac 68       		.byte	0x68
 879 01ad 97000000 		.4byte	0x97
 880 01b1 7A       		.byte	0x7a
 881 01b2 0A       		.uleb128 0xa
 882 01b3 EE000000 		.4byte	.LASF35
 883 01b7 05       		.byte	0x5
 884 01b8 69       		.byte	0x69
 885 01b9 97000000 		.4byte	0x97
 886 01bd 7B       		.byte	0x7b
 887 01be 0A       		.uleb128 0xa
 888 01bf 8B0B0000 		.4byte	.LASF36
 889 01c3 05       		.byte	0x5
 890 01c4 6A       		.byte	0x6a
 891 01c5 B5030000 		.4byte	0x3b5
 892 01c9 7C       		.byte	0x7c
 893 01ca 0A       		.uleb128 0xa
 894 01cb F3030000 		.4byte	.LASF37
 895 01cf 05       		.byte	0x5
 896 01d0 6B       		.byte	0x6b
 897 01d1 C5030000 		.4byte	0x3c5
 898 01d5 7E       		.byte	0x7e
 899 01d6 0A       		.uleb128 0xa
 900 01d7 37030000 		.4byte	.LASF38
 901 01db 05       		.byte	0x5
 902 01dc 6C       		.byte	0x6c
 903 01dd 97000000 		.4byte	0x97
 904 01e1 92       		.byte	0x92
 905 01e2 0A       		.uleb128 0xa
 906 01e3 2E090000 		.4byte	.LASF39
 907 01e7 05       		.byte	0x5
 908 01e8 6D       		.byte	0x6d
 909 01e9 DB030000 		.4byte	0x3db
 910 01ed 93       		.byte	0x93
 911 01ee 0A       		.uleb128 0xa
 912 01ef 84080000 		.4byte	.LASF40
 913 01f3 05       		.byte	0x5
 914 01f4 6E       		.byte	0x6e
 915 01f5 EB030000 		.4byte	0x3eb
 916 01f9 98       		.byte	0x98
 917 01fa 0A       		.uleb128 0xa
ARM GAS  C:\Users\RECEPC~1\AppData\Local\Temp\ccr4zYAx.s 			page 20


 918 01fb 51030000 		.4byte	.LASF41
 919 01ff 05       		.byte	0x5
 920 0200 6F       		.byte	0x6f
 921 0201 EB030000 		.4byte	0x3eb
 922 0205 9E       		.byte	0x9e
 923 0206 0A       		.uleb128 0xa
 924 0207 010D0000 		.4byte	.LASF42
 925 020b 05       		.byte	0x5
 926 020c 70       		.byte	0x70
 927 020d EB030000 		.4byte	0x3eb
 928 0211 A4       		.byte	0xa4
 929 0212 0A       		.uleb128 0xa
 930 0213 3D060000 		.4byte	.LASF43
 931 0217 05       		.byte	0x5
 932 0218 71       		.byte	0x71
 933 0219 EB030000 		.4byte	0x3eb
 934 021d AA       		.byte	0xaa
 935 021e 0A       		.uleb128 0xa
 936 021f 02070000 		.4byte	.LASF44
 937 0223 05       		.byte	0x5
 938 0224 72       		.byte	0x72
 939 0225 FB030000 		.4byte	0x3fb
 940 0229 B0       		.byte	0xb0
 941 022a 0A       		.uleb128 0xa
 942 022b D7020000 		.4byte	.LASF45
 943 022f 05       		.byte	0x5
 944 0230 73       		.byte	0x73
 945 0231 FB030000 		.4byte	0x3fb
 946 0235 BE       		.byte	0xbe
 947 0236 0A       		.uleb128 0xa
 948 0237 03060000 		.4byte	.LASF46
 949 023b 05       		.byte	0x5
 950 023c 74       		.byte	0x74
 951 023d FB030000 		.4byte	0x3fb
 952 0241 CC       		.byte	0xcc
 953 0242 0A       		.uleb128 0xa
 954 0243 21050000 		.4byte	.LASF47
 955 0247 05       		.byte	0x5
 956 0248 75       		.byte	0x75
 957 0249 FB030000 		.4byte	0x3fb
 958 024d DA       		.byte	0xda
 959 024e 0A       		.uleb128 0xa
 960 024f F1080000 		.4byte	.LASF48
 961 0253 05       		.byte	0x5
 962 0254 76       		.byte	0x76
 963 0255 FB030000 		.4byte	0x3fb
 964 0259 E8       		.byte	0xe8
 965 025a 0A       		.uleb128 0xa
 966 025b DC060000 		.4byte	.LASF49
 967 025f 05       		.byte	0x5
 968 0260 77       		.byte	0x77
 969 0261 FB030000 		.4byte	0x3fb
 970 0265 F6       		.byte	0xf6
 971 0266 0B       		.uleb128 0xb
 972 0267 76070000 		.4byte	.LASF50
 973 026b 05       		.byte	0x5
 974 026c 78       		.byte	0x78
ARM GAS  C:\Users\RECEPC~1\AppData\Local\Temp\ccr4zYAx.s 			page 21


 975 026d 0B040000 		.4byte	0x40b
 976 0271 0401     		.2byte	0x104
 977 0273 0B       		.uleb128 0xb
 978 0274 72030000 		.4byte	.LASF51
 979 0278 05       		.byte	0x5
 980 0279 79       		.byte	0x79
 981 027a 0B040000 		.4byte	0x40b
 982 027e 0F01     		.2byte	0x10f
 983 0280 0B       		.uleb128 0xb
 984 0281 2D040000 		.4byte	.LASF52
 985 0285 05       		.byte	0x5
 986 0286 7A       		.byte	0x7a
 987 0287 0B040000 		.4byte	0x40b
 988 028b 1A01     		.2byte	0x11a
 989 028d 0B       		.uleb128 0xb
 990 028e 60060000 		.4byte	.LASF53
 991 0292 05       		.byte	0x5
 992 0293 7B       		.byte	0x7b
 993 0294 97000000 		.4byte	0x97
 994 0298 2501     		.2byte	0x125
 995 029a 0B       		.uleb128 0xb
 996 029b E1040000 		.4byte	.LASF54
 997 029f 05       		.byte	0x5
 998 02a0 7C       		.byte	0x7c
 999 02a1 97000000 		.4byte	0x97
 1000 02a5 2601     		.2byte	0x126
 1001 02a7 0B       		.uleb128 0xb
 1002 02a8 34010000 		.4byte	.LASF55
 1003 02ac 05       		.byte	0x5
 1004 02ad 7D       		.byte	0x7d
 1005 02ae 97000000 		.4byte	0x97
 1006 02b2 2701     		.2byte	0x127
 1007 02b4 0B       		.uleb128 0xb
 1008 02b5 3B080000 		.4byte	.LASF56
 1009 02b9 05       		.byte	0x5
 1010 02ba 7E       		.byte	0x7e
 1011 02bb 97000000 		.4byte	0x97
 1012 02bf 2801     		.2byte	0x128
 1013 02c1 0B       		.uleb128 0xb
 1014 02c2 A5000000 		.4byte	.LASF57
 1015 02c6 05       		.byte	0x5
 1016 02c7 7F       		.byte	0x7f
 1017 02c8 1B040000 		.4byte	0x41b
 1018 02cc 2901     		.2byte	0x129
 1019 02ce 0B       		.uleb128 0xb
 1020 02cf 31050000 		.4byte	.LASF58
 1021 02d3 05       		.byte	0x5
 1022 02d4 80       		.byte	0x80
 1023 02d5 95030000 		.4byte	0x395
 1024 02d9 6A01     		.2byte	0x16a
 1025 02db 0B       		.uleb128 0xb
 1026 02dc 01020000 		.4byte	.LASF59
 1027 02e0 05       		.byte	0x5
 1028 02e1 81       		.byte	0x81
 1029 02e2 95030000 		.4byte	0x395
 1030 02e6 7401     		.2byte	0x174
 1031 02e8 0B       		.uleb128 0xb
ARM GAS  C:\Users\RECEPC~1\AppData\Local\Temp\ccr4zYAx.s 			page 22


 1032 02e9 18050000 		.4byte	.LASF60
 1033 02ed 05       		.byte	0x5
 1034 02ee 82       		.byte	0x82
 1035 02ef 95030000 		.4byte	0x395
 1036 02f3 7E01     		.2byte	0x17e
 1037 02f5 0B       		.uleb128 0xb
 1038 02f6 D9030000 		.4byte	.LASF61
 1039 02fa 05       		.byte	0x5
 1040 02fb 83       		.byte	0x83
 1041 02fc 2B040000 		.4byte	0x42b
 1042 0300 8801     		.2byte	0x188
 1043 0302 0B       		.uleb128 0xb
 1044 0303 07010000 		.4byte	.LASF62
 1045 0307 05       		.byte	0x5
 1046 0308 84       		.byte	0x84
 1047 0309 2B040000 		.4byte	0x42b
 1048 030d D301     		.2byte	0x1d3
 1049 030f 0B       		.uleb128 0xb
 1050 0310 E0010000 		.4byte	.LASF63
 1051 0314 05       		.byte	0x5
 1052 0315 85       		.byte	0x85
 1053 0316 41040000 		.4byte	0x441
 1054 031a 1E02     		.2byte	0x21e
 1055 031c 0B       		.uleb128 0xb
 1056 031d A0090000 		.4byte	.LASF64
 1057 0321 05       		.byte	0x5
 1058 0322 86       		.byte	0x86
 1059 0323 41040000 		.4byte	0x441
 1060 0327 2D02     		.2byte	0x22d
 1061 0329 0B       		.uleb128 0xb
 1062 032a EC0A0000 		.4byte	.LASF65
 1063 032e 05       		.byte	0x5
 1064 032f 87       		.byte	0x87
 1065 0330 57040000 		.4byte	0x457
 1066 0334 3C02     		.2byte	0x23c
 1067 0336 0B       		.uleb128 0xb
 1068 0337 960B0000 		.4byte	.LASF66
 1069 033b 05       		.byte	0x5
 1070 033c 88       		.byte	0x88
 1071 033d 57040000 		.4byte	0x457
 1072 0341 5A02     		.2byte	0x25a
 1073 0343 0B       		.uleb128 0xb
 1074 0344 31060000 		.4byte	.LASF67
 1075 0348 05       		.byte	0x5
 1076 0349 89       		.byte	0x89
 1077 034a 95030000 		.4byte	0x395
 1078 034e 7802     		.2byte	0x278
 1079 0350 0B       		.uleb128 0xb
 1080 0351 7A090000 		.4byte	.LASF68
 1081 0355 05       		.byte	0x5
 1082 0356 8A       		.byte	0x8a
 1083 0357 97000000 		.4byte	0x97
 1084 035b 8202     		.2byte	0x282
 1085 035d 0B       		.uleb128 0xb
 1086 035e 82070000 		.4byte	.LASF69
 1087 0362 05       		.byte	0x5
 1088 0363 8B       		.byte	0x8b
ARM GAS  C:\Users\RECEPC~1\AppData\Local\Temp\ccr4zYAx.s 			page 23


 1089 0364 6D040000 		.4byte	0x46d
 1090 0368 8302     		.2byte	0x283
 1091 036a 0B       		.uleb128 0xb
 1092 036b 3C050000 		.4byte	.LASF70
 1093 036f 05       		.byte	0x5
 1094 0370 8C       		.byte	0x8c
 1095 0371 B5030000 		.4byte	0x3b5
 1096 0375 9202     		.2byte	0x292
 1097 0377 0B       		.uleb128 0xb
 1098 0378 7E030000 		.4byte	.LASF71
 1099 037c 05       		.byte	0x5
 1100 037d 8D       		.byte	0x8d
 1101 037e 97000000 		.4byte	0x97
 1102 0382 9402     		.2byte	0x294
 1103 0384 00       		.byte	0
 1104 0385 07       		.uleb128 0x7
 1105 0386 97000000 		.4byte	0x97
 1106 038a 95030000 		.4byte	0x395
 1107 038e 08       		.uleb128 0x8
 1108 038f F2000000 		.4byte	0xf2
 1109 0393 18       		.byte	0x18
 1110 0394 00       		.byte	0
 1111 0395 07       		.uleb128 0x7
 1112 0396 97000000 		.4byte	0x97
 1113 039a A5030000 		.4byte	0x3a5
 1114 039e 08       		.uleb128 0x8
 1115 039f F2000000 		.4byte	0xf2
 1116 03a3 09       		.byte	0x9
 1117 03a4 00       		.byte	0
 1118 03a5 07       		.uleb128 0x7
 1119 03a6 97000000 		.4byte	0x97
 1120 03aa B5030000 		.4byte	0x3b5
 1121 03ae 08       		.uleb128 0x8
 1122 03af F2000000 		.4byte	0xf2
 1123 03b3 14       		.byte	0x14
 1124 03b4 00       		.byte	0
 1125 03b5 07       		.uleb128 0x7
 1126 03b6 97000000 		.4byte	0x97
 1127 03ba C5030000 		.4byte	0x3c5
 1128 03be 08       		.uleb128 0x8
 1129 03bf F2000000 		.4byte	0xf2
 1130 03c3 01       		.byte	0x1
 1131 03c4 00       		.byte	0
 1132 03c5 07       		.uleb128 0x7
 1133 03c6 97000000 		.4byte	0x97
 1134 03ca DB030000 		.4byte	0x3db
 1135 03ce 08       		.uleb128 0x8
 1136 03cf F2000000 		.4byte	0xf2
 1137 03d3 01       		.byte	0x1
 1138 03d4 08       		.uleb128 0x8
 1139 03d5 F2000000 		.4byte	0xf2
 1140 03d9 09       		.byte	0x9
 1141 03da 00       		.byte	0
 1142 03db 07       		.uleb128 0x7
 1143 03dc 97000000 		.4byte	0x97
 1144 03e0 EB030000 		.4byte	0x3eb
 1145 03e4 08       		.uleb128 0x8
ARM GAS  C:\Users\RECEPC~1\AppData\Local\Temp\ccr4zYAx.s 			page 24


 1146 03e5 F2000000 		.4byte	0xf2
 1147 03e9 04       		.byte	0x4
 1148 03ea 00       		.byte	0
 1149 03eb 07       		.uleb128 0x7
 1150 03ec 97000000 		.4byte	0x97
 1151 03f0 FB030000 		.4byte	0x3fb
 1152 03f4 08       		.uleb128 0x8
 1153 03f5 F2000000 		.4byte	0xf2
 1154 03f9 05       		.byte	0x5
 1155 03fa 00       		.byte	0
 1156 03fb 07       		.uleb128 0x7
 1157 03fc 97000000 		.4byte	0x97
 1158 0400 0B040000 		.4byte	0x40b
 1159 0404 08       		.uleb128 0x8
 1160 0405 F2000000 		.4byte	0xf2
 1161 0409 0D       		.byte	0xd
 1162 040a 00       		.byte	0
 1163 040b 07       		.uleb128 0x7
 1164 040c 97000000 		.4byte	0x97
 1165 0410 1B040000 		.4byte	0x41b
 1166 0414 08       		.uleb128 0x8
 1167 0415 F2000000 		.4byte	0xf2
 1168 0419 0A       		.byte	0xa
 1169 041a 00       		.byte	0
 1170 041b 07       		.uleb128 0x7
 1171 041c 97000000 		.4byte	0x97
 1172 0420 2B040000 		.4byte	0x42b
 1173 0424 08       		.uleb128 0x8
 1174 0425 F2000000 		.4byte	0xf2
 1175 0429 40       		.byte	0x40
 1176 042a 00       		.byte	0
 1177 042b 07       		.uleb128 0x7
 1178 042c 97000000 		.4byte	0x97
 1179 0430 41040000 		.4byte	0x441
 1180 0434 08       		.uleb128 0x8
 1181 0435 F2000000 		.4byte	0xf2
 1182 0439 02       		.byte	0x2
 1183 043a 08       		.uleb128 0x8
 1184 043b F2000000 		.4byte	0xf2
 1185 043f 18       		.byte	0x18
 1186 0440 00       		.byte	0
 1187 0441 07       		.uleb128 0x7
 1188 0442 97000000 		.4byte	0x97
 1189 0446 57040000 		.4byte	0x457
 1190 044a 08       		.uleb128 0x8
 1191 044b F2000000 		.4byte	0xf2
 1192 044f 02       		.byte	0x2
 1193 0450 08       		.uleb128 0x8
 1194 0451 F2000000 		.4byte	0xf2
 1195 0455 04       		.byte	0x4
 1196 0456 00       		.byte	0
 1197 0457 07       		.uleb128 0x7
 1198 0458 97000000 		.4byte	0x97
 1199 045c 6D040000 		.4byte	0x46d
 1200 0460 08       		.uleb128 0x8
 1201 0461 F2000000 		.4byte	0xf2
 1202 0465 02       		.byte	0x2
ARM GAS  C:\Users\RECEPC~1\AppData\Local\Temp\ccr4zYAx.s 			page 25


 1203 0466 08       		.uleb128 0x8
 1204 0467 F2000000 		.4byte	0xf2
 1205 046b 09       		.byte	0x9
 1206 046c 00       		.byte	0
 1207 046d 07       		.uleb128 0x7
 1208 046e 97000000 		.4byte	0x97
 1209 0472 7D040000 		.4byte	0x47d
 1210 0476 08       		.uleb128 0x8
 1211 0477 F2000000 		.4byte	0xf2
 1212 047b 0E       		.byte	0xe
 1213 047c 00       		.byte	0
 1214 047d 09       		.uleb128 0x9
 1215 047e 610D0000 		.4byte	.LASF73
 1216 0482 0001     		.2byte	0x100
 1217 0484 05       		.byte	0x5
 1218 0485 9E       		.byte	0x9e
 1219 0486 DF040000 		.4byte	0x4df
 1220 048a 0C       		.uleb128 0xc
 1221 048b 64697200 		.ascii	"dir\000"
 1222 048f 05       		.byte	0x5
 1223 0490 9F       		.byte	0x9f
 1224 0491 97000000 		.4byte	0x97
 1225 0495 00       		.byte	0
 1226 0496 0A       		.uleb128 0xa
 1227 0497 E6030000 		.4byte	.LASF74
 1228 049b 05       		.byte	0x5
 1229 049c A0       		.byte	0xa0
 1230 049d DF040000 		.4byte	0x4df
 1231 04a1 01       		.byte	0x1
 1232 04a2 0A       		.uleb128 0xa
 1233 04a3 2E0D0000 		.4byte	.LASF75
 1234 04a7 05       		.byte	0x5
 1235 04a8 A1       		.byte	0xa1
 1236 04a9 FB040000 		.4byte	0x4fb
 1237 04ad B5       		.byte	0xb5
 1238 04ae 0A       		.uleb128 0xa
 1239 04af 5C050000 		.4byte	.LASF76
 1240 04b3 05       		.byte	0x5
 1241 04b4 A2       		.byte	0xa2
 1242 04b5 FB030000 		.4byte	0x3fb
 1243 04b9 D5       		.byte	0xd5
 1244 04ba 0A       		.uleb128 0xa
 1245 04bb BF0B0000 		.4byte	.LASF77
 1246 04bf 05       		.byte	0x5
 1247 04c0 A3       		.byte	0xa3
 1248 04c1 FB030000 		.4byte	0x3fb
 1249 04c5 E3       		.byte	0xe3
 1250 04c6 0A       		.uleb128 0xa
 1251 04c7 BA050000 		.4byte	.LASF78
 1252 04cb 05       		.byte	0x5
 1253 04cc A4       		.byte	0xa4
 1254 04cd FB030000 		.4byte	0x3fb
 1255 04d1 F1       		.byte	0xf1
 1256 04d2 0A       		.uleb128 0xa
 1257 04d3 BC0C0000 		.4byte	.LASF79
 1258 04d7 05       		.byte	0x5
 1259 04d8 A5       		.byte	0xa5
ARM GAS  C:\Users\RECEPC~1\AppData\Local\Temp\ccr4zYAx.s 			page 26


 1260 04d9 97000000 		.4byte	0x97
 1261 04dd FF       		.byte	0xff
 1262 04de 00       		.byte	0
 1263 04df 07       		.uleb128 0x7
 1264 04e0 97000000 		.4byte	0x97
 1265 04e4 FB040000 		.4byte	0x4fb
 1266 04e8 08       		.uleb128 0x8
 1267 04e9 F2000000 		.4byte	0xf2
 1268 04ed 03       		.byte	0x3
 1269 04ee 08       		.uleb128 0x8
 1270 04ef F2000000 		.4byte	0xf2
 1271 04f3 02       		.byte	0x2
 1272 04f4 08       		.uleb128 0x8
 1273 04f5 F2000000 		.4byte	0xf2
 1274 04f9 0E       		.byte	0xe
 1275 04fa 00       		.byte	0
 1276 04fb 07       		.uleb128 0x7
 1277 04fc 97000000 		.4byte	0x97
 1278 0500 11050000 		.4byte	0x511
 1279 0504 08       		.uleb128 0x8
 1280 0505 F2000000 		.4byte	0xf2
 1281 0509 03       		.byte	0x3
 1282 050a 08       		.uleb128 0x8
 1283 050b F2000000 		.4byte	0xf2
 1284 050f 07       		.byte	0x7
 1285 0510 00       		.byte	0
 1286 0511 09       		.uleb128 0x9
 1287 0512 1B0B0000 		.4byte	.LASF80
 1288 0516 0004     		.2byte	0x400
 1289 0518 05       		.byte	0x5
 1290 0519 A8       		.byte	0xa8
 1291 051a 4A050000 		.4byte	0x54a
 1292 051e 0C       		.uleb128 0xc
 1293 051f 6100     		.ascii	"a\000"
 1294 0521 05       		.byte	0x5
 1295 0522 A9       		.byte	0xa9
 1296 0523 7D040000 		.4byte	0x47d
 1297 0527 00       		.byte	0
 1298 0528 0D       		.uleb128 0xd
 1299 0529 6200     		.ascii	"b\000"
 1300 052b 05       		.byte	0x5
 1301 052c AA       		.byte	0xaa
 1302 052d 7D040000 		.4byte	0x47d
 1303 0531 0001     		.2byte	0x100
 1304 0533 0D       		.uleb128 0xd
 1305 0534 6300     		.ascii	"c\000"
 1306 0536 05       		.byte	0x5
 1307 0537 AB       		.byte	0xab
 1308 0538 7D040000 		.4byte	0x47d
 1309 053c 0002     		.2byte	0x200
 1310 053e 0D       		.uleb128 0xd
 1311 053f 6400     		.ascii	"d\000"
 1312 0541 05       		.byte	0x5
 1313 0542 AC       		.byte	0xac
 1314 0543 7D040000 		.4byte	0x47d
 1315 0547 0003     		.2byte	0x300
 1316 0549 00       		.byte	0
ARM GAS  C:\Users\RECEPC~1\AppData\Local\Temp\ccr4zYAx.s 			page 27


 1317 054a 0E       		.uleb128 0xe
 1318 054b 940C0000 		.4byte	.LASF217
 1319 054f 01       		.byte	0x1
 1320 0550 05       		.byte	0x5
 1321 0551 C2       		.byte	0xc2
 1322 0552 C3060000 		.4byte	0x6c3
 1323 0556 0F       		.uleb128 0xf
 1324 0557 AE0C0000 		.4byte	.LASF81
 1325 055b 00       		.sleb128 0
 1326 055c 0F       		.uleb128 0xf
 1327 055d 92040000 		.4byte	.LASF82
 1328 0561 01       		.sleb128 1
 1329 0562 0F       		.uleb128 0xf
 1330 0563 A2040000 		.4byte	.LASF83
 1331 0567 02       		.sleb128 2
 1332 0568 0F       		.uleb128 0xf
 1333 0569 8C030000 		.4byte	.LASF84
 1334 056d 03       		.sleb128 3
 1335 056e 0F       		.uleb128 0xf
 1336 056f 12040000 		.4byte	.LASF85
 1337 0573 04       		.sleb128 4
 1338 0574 0F       		.uleb128 0xf
 1339 0575 B9040000 		.4byte	.LASF86
 1340 0579 05       		.sleb128 5
 1341 057a 0F       		.uleb128 0xf
 1342 057b 5D070000 		.4byte	.LASF87
 1343 057f 06       		.sleb128 6
 1344 0580 0F       		.uleb128 0xf
 1345 0581 A4010000 		.4byte	.LASF88
 1346 0585 0F       		.sleb128 15
 1347 0586 0F       		.uleb128 0xf
 1348 0587 2A0C0000 		.4byte	.LASF89
 1349 058b FE00     		.sleb128 126
 1350 058d 0F       		.uleb128 0xf
 1351 058e 470C0000 		.4byte	.LASF90
 1352 0592 8601     		.sleb128 134
 1353 0594 0F       		.uleb128 0xf
 1354 0595 87050000 		.4byte	.LASF91
 1355 0599 07       		.sleb128 7
 1356 059a 0F       		.uleb128 0xf
 1357 059b 9B060000 		.4byte	.LASF92
 1358 059f 08       		.sleb128 8
 1359 05a0 0F       		.uleb128 0xf
 1360 05a1 52090000 		.4byte	.LASF93
 1361 05a5 09       		.sleb128 9
 1362 05a6 0F       		.uleb128 0xf
 1363 05a7 15070000 		.4byte	.LASF94
 1364 05ab 0A       		.sleb128 10
 1365 05ac 0F       		.uleb128 0xf
 1366 05ad 0D020000 		.4byte	.LASF95
 1367 05b1 0B       		.sleb128 11
 1368 05b2 0F       		.uleb128 0xf
 1369 05b3 15000000 		.4byte	.LASF96
 1370 05b7 25       		.sleb128 37
 1371 05b8 0F       		.uleb128 0xf
 1372 05b9 120C0000 		.4byte	.LASF97
 1373 05bd 26       		.sleb128 38
ARM GAS  C:\Users\RECEPC~1\AppData\Local\Temp\ccr4zYAx.s 			page 28


 1374 05be 0F       		.uleb128 0xf
 1375 05bf 49010000 		.4byte	.LASF98
 1376 05c3 27       		.sleb128 39
 1377 05c4 0F       		.uleb128 0xf
 1378 05c5 E0070000 		.4byte	.LASF99
 1379 05c9 2F       		.sleb128 47
 1380 05ca 0F       		.uleb128 0xf
 1381 05cb AF070000 		.4byte	.LASF100
 1382 05cf 2C       		.sleb128 44
 1383 05d0 0F       		.uleb128 0xf
 1384 05d1 100D0000 		.4byte	.LASF101
 1385 05d5 0C       		.sleb128 12
 1386 05d6 0F       		.uleb128 0xf
 1387 05d7 B1080000 		.4byte	.LASF102
 1388 05db 8501     		.sleb128 133
 1389 05dd 0F       		.uleb128 0xf
 1390 05de A60B0000 		.4byte	.LASF103
 1391 05e2 1C       		.sleb128 28
 1392 05e3 0F       		.uleb128 0xf
 1393 05e4 74020000 		.4byte	.LASF104
 1394 05e8 12       		.sleb128 18
 1395 05e9 0F       		.uleb128 0xf
 1396 05ea C6060000 		.4byte	.LASF105
 1397 05ee 13       		.sleb128 19
 1398 05ef 0F       		.uleb128 0xf
 1399 05f0 47080000 		.4byte	.LASF106
 1400 05f4 24       		.sleb128 36
 1401 05f5 0F       		.uleb128 0xf
 1402 05f6 BC020000 		.4byte	.LASF107
 1403 05fa 0D       		.sleb128 13
 1404 05fb 0F       		.uleb128 0xf
 1405 05fc F9040000 		.4byte	.LASF108
 1406 0600 0E       		.sleb128 14
 1407 0601 0F       		.uleb128 0xf
 1408 0602 C4080000 		.4byte	.LASF109
 1409 0606 8301     		.sleb128 131
 1410 0608 0F       		.uleb128 0xf
 1411 0609 EB020000 		.4byte	.LASF110
 1412 060d DA00     		.sleb128 90
 1413 060f 0F       		.uleb128 0xf
 1414 0610 C80C0000 		.4byte	.LASF111
 1415 0614 31       		.sleb128 49
 1416 0615 0F       		.uleb128 0xf
 1417 0616 69080000 		.4byte	.LASF112
 1418 061a 35       		.sleb128 53
 1419 061b 0F       		.uleb128 0xf
 1420 061c 140A0000 		.4byte	.LASF113
 1421 0620 2E       		.sleb128 46
 1422 0621 0F       		.uleb128 0xf
 1423 0622 BE0A0000 		.4byte	.LASF114
 1424 0626 8C01     		.sleb128 140
 1425 0628 0F       		.uleb128 0xf
 1426 0629 03030000 		.4byte	.LASF115
 1427 062d 9601     		.sleb128 150
 1428 062f 0F       		.uleb128 0xf
 1429 0630 15080000 		.4byte	.LASF116
 1430 0634 39       		.sleb128 57
ARM GAS  C:\Users\RECEPC~1\AppData\Local\Temp\ccr4zYAx.s 			page 29


 1431 0635 0F       		.uleb128 0xf
 1432 0636 2B020000 		.4byte	.LASF117
 1433 063a 9701     		.sleb128 151
 1434 063c 0F       		.uleb128 0xf
 1435 063d 4F000000 		.4byte	.LASF118
 1436 0641 9801     		.sleb128 152
 1437 0643 0F       		.uleb128 0xf
 1438 0644 F7070000 		.4byte	.LASF119
 1439 0648 3E       		.sleb128 62
 1440 0649 0F       		.uleb128 0xf
 1441 064a 08000000 		.4byte	.LASF120
 1442 064e 3F       		.sleb128 63
 1443 064f 0F       		.uleb128 0xf
 1444 0650 4F070000 		.4byte	.LASF121
 1445 0654 C000     		.sleb128 64
 1446 0656 0F       		.uleb128 0xf
 1447 0657 FD0A0000 		.4byte	.LASF122
 1448 065b 8D01     		.sleb128 141
 1449 065d 0F       		.uleb128 0xf
 1450 065e EF050000 		.4byte	.LASF123
 1451 0662 23       		.sleb128 35
 1452 0663 0F       		.uleb128 0xf
 1453 0664 200B0000 		.4byte	.LASF124
 1454 0668 2A       		.sleb128 42
 1455 0669 0F       		.uleb128 0xf
 1456 066a BC090000 		.4byte	.LASF125
 1457 066e 2B       		.sleb128 43
 1458 066f 0F       		.uleb128 0xf
 1459 0670 F3090000 		.4byte	.LASF126
 1460 0674 3C       		.sleb128 60
 1461 0675 0F       		.uleb128 0xf
 1462 0676 C7070000 		.4byte	.LASF127
 1463 067a C100     		.sleb128 65
 1464 067c 0F       		.uleb128 0xf
 1465 067d 4F020000 		.4byte	.LASF128
 1466 0681 EB00     		.sleb128 107
 1467 0683 0F       		.uleb128 0xf
 1468 0684 2E000000 		.4byte	.LASF129
 1469 0688 E700     		.sleb128 103
 1470 068a 0F       		.uleb128 0xf
 1471 068b 9B050000 		.4byte	.LASF130
 1472 068f E400     		.sleb128 100
 1473 0691 0F       		.uleb128 0xf
 1474 0692 AD000000 		.4byte	.LASF131
 1475 0696 E500     		.sleb128 101
 1476 0698 0F       		.uleb128 0xf
 1477 0699 CA0B0000 		.4byte	.LASF132
 1478 069d 9901     		.sleb128 153
 1479 069f 0F       		.uleb128 0xf
 1480 06a0 D90B0000 		.4byte	.LASF133
 1481 06a4 9A01     		.sleb128 154
 1482 06a6 0F       		.uleb128 0xf
 1483 06a7 E80B0000 		.4byte	.LASF134
 1484 06ab 9B01     		.sleb128 155
 1485 06ad 0F       		.uleb128 0xf
 1486 06ae F70B0000 		.4byte	.LASF135
 1487 06b2 9C01     		.sleb128 156
ARM GAS  C:\Users\RECEPC~1\AppData\Local\Temp\ccr4zYAx.s 			page 30


 1488 06b4 0F       		.uleb128 0xf
 1489 06b5 72010000 		.4byte	.LASF136
 1490 06b9 FA01     		.sleb128 250
 1491 06bb 0F       		.uleb128 0xf
 1492 06bc 24060000 		.4byte	.LASF137
 1493 06c0 FF01     		.sleb128 255
 1494 06c2 00       		.byte	0
 1495 06c3 10       		.uleb128 0x10
 1496 06c4 93000000 		.4byte	.LASF138
 1497 06c8 01       		.byte	0x1
 1498 06c9 16       		.byte	0x16
 1499 06ca 00000000 		.4byte	.LFB63
 1500 06ce 1C000000 		.4byte	.LFE63-.LFB63
 1501 06d2 01       		.uleb128 0x1
 1502 06d3 9C       		.byte	0x9c
 1503 06d4 0F070000 		.4byte	0x70f
 1504 06d8 11       		.uleb128 0x11
 1505 06d9 06000000 		.4byte	.LVL0
 1506 06dd F20E0000 		.4byte	0xef2
 1507 06e1 11       		.uleb128 0x11
 1508 06e2 0A000000 		.4byte	.LVL1
 1509 06e6 F90E0000 		.4byte	0xef9
 1510 06ea 11       		.uleb128 0x11
 1511 06eb 0E000000 		.4byte	.LVL2
 1512 06ef 000F0000 		.4byte	0xf00
 1513 06f3 11       		.uleb128 0x11
 1514 06f4 12000000 		.4byte	.LVL3
 1515 06f8 070F0000 		.4byte	0xf07
 1516 06fc 11       		.uleb128 0x11
 1517 06fd 16000000 		.4byte	.LVL4
 1518 0701 0E0F0000 		.4byte	0xf0e
 1519 0705 11       		.uleb128 0x11
 1520 0706 1A000000 		.4byte	.LVL5
 1521 070a 150F0000 		.4byte	0xf15
 1522 070e 00       		.byte	0
 1523 070f 10       		.uleb128 0x10
 1524 0710 810C0000 		.4byte	.LASF139
 1525 0714 01       		.byte	0x1
 1526 0715 1F       		.byte	0x1f
 1527 0716 00000000 		.4byte	.LFB64
 1528 071a 58000000 		.4byte	.LFE64-.LFB64
 1529 071e 01       		.uleb128 0x1
 1530 071f 9C       		.byte	0x9c
 1531 0720 93070000 		.4byte	0x793
 1532 0724 12       		.uleb128 0x12
 1533 0725 0C000000 		.4byte	.LVL6
 1534 0729 1C0F0000 		.4byte	0xf1c
 1535 072d 37070000 		.4byte	0x737
 1536 0731 13       		.uleb128 0x13
 1537 0732 01       		.uleb128 0x1
 1538 0733 51       		.byte	0x51
 1539 0734 01       		.uleb128 0x1
 1540 0735 30       		.byte	0x30
 1541 0736 00       		.byte	0
 1542 0737 12       		.uleb128 0x12
 1543 0738 16000000 		.4byte	.LVL7
 1544 073c 1C0F0000 		.4byte	0xf1c
ARM GAS  C:\Users\RECEPC~1\AppData\Local\Temp\ccr4zYAx.s 			page 31


 1545 0740 4A070000 		.4byte	0x74a
 1546 0744 13       		.uleb128 0x13
 1547 0745 01       		.uleb128 0x1
 1548 0746 51       		.byte	0x51
 1549 0747 01       		.uleb128 0x1
 1550 0748 31       		.byte	0x31
 1551 0749 00       		.byte	0
 1552 074a 12       		.uleb128 0x12
 1553 074b 20000000 		.4byte	.LVL8
 1554 074f 1C0F0000 		.4byte	0xf1c
 1555 0753 5D070000 		.4byte	0x75d
 1556 0757 13       		.uleb128 0x13
 1557 0758 01       		.uleb128 0x1
 1558 0759 51       		.byte	0x51
 1559 075a 01       		.uleb128 0x1
 1560 075b 32       		.byte	0x32
 1561 075c 00       		.byte	0
 1562 075d 12       		.uleb128 0x12
 1563 075e 2A000000 		.4byte	.LVL9
 1564 0762 1C0F0000 		.4byte	0xf1c
 1565 0766 70070000 		.4byte	0x770
 1566 076a 13       		.uleb128 0x13
 1567 076b 01       		.uleb128 0x1
 1568 076c 51       		.byte	0x51
 1569 076d 01       		.uleb128 0x1
 1570 076e 33       		.byte	0x33
 1571 076f 00       		.byte	0
 1572 0770 12       		.uleb128 0x12
 1573 0771 34000000 		.4byte	.LVL10
 1574 0775 1C0F0000 		.4byte	0xf1c
 1575 0779 83070000 		.4byte	0x783
 1576 077d 13       		.uleb128 0x13
 1577 077e 01       		.uleb128 0x1
 1578 077f 51       		.byte	0x51
 1579 0780 01       		.uleb128 0x1
 1580 0781 34       		.byte	0x34
 1581 0782 00       		.byte	0
 1582 0783 14       		.uleb128 0x14
 1583 0784 3E000000 		.4byte	.LVL11
 1584 0788 1C0F0000 		.4byte	0xf1c
 1585 078c 13       		.uleb128 0x13
 1586 078d 01       		.uleb128 0x1
 1587 078e 51       		.byte	0x51
 1588 078f 01       		.uleb128 0x1
 1589 0790 35       		.byte	0x35
 1590 0791 00       		.byte	0
 1591 0792 00       		.byte	0
 1592 0793 10       		.uleb128 0x10
 1593 0794 61080000 		.4byte	.LASF140
 1594 0798 01       		.byte	0x1
 1595 0799 27       		.byte	0x27
 1596 079a 00000000 		.4byte	.LFB65
 1597 079e 30010000 		.4byte	.LFE65-.LFB65
 1598 07a2 01       		.uleb128 0x1
 1599 07a3 9C       		.byte	0x9c
 1600 07a4 74090000 		.4byte	0x974
 1601 07a8 15       		.uleb128 0x15
ARM GAS  C:\Users\RECEPC~1\AppData\Local\Temp\ccr4zYAx.s 			page 32


 1602 07a9 4C060000 		.4byte	.LASF141
 1603 07ad 01       		.byte	0x1
 1604 07ae 28       		.byte	0x28
 1605 07af 74090000 		.4byte	0x974
 1606 07b3 02       		.uleb128 0x2
 1607 07b4 91       		.byte	0x91
 1608 07b5 6C       		.sleb128 -20
 1609 07b6 15       		.uleb128 0x15
 1610 07b7 A0020000 		.4byte	.LASF142
 1611 07bb 01       		.byte	0x1
 1612 07bc 29       		.byte	0x29
 1613 07bd 74090000 		.4byte	0x974
 1614 07c1 02       		.uleb128 0x2
 1615 07c2 91       		.byte	0x91
 1616 07c3 60       		.sleb128 -32
 1617 07c4 15       		.uleb128 0x15
 1618 07c5 2E010000 		.4byte	.LASF143
 1619 07c9 01       		.byte	0x1
 1620 07ca 2A       		.byte	0x2a
 1621 07cb 74090000 		.4byte	0x974
 1622 07cf 02       		.uleb128 0x2
 1623 07d0 91       		.byte	0x91
 1624 07d1 54       		.sleb128 -44
 1625 07d2 15       		.uleb128 0x15
 1626 07d3 CD010000 		.4byte	.LASF144
 1627 07d7 01       		.byte	0x1
 1628 07d8 2B       		.byte	0x2b
 1629 07d9 74090000 		.4byte	0x974
 1630 07dd 02       		.uleb128 0x2
 1631 07de 91       		.byte	0x91
 1632 07df 48       		.sleb128 -56
 1633 07e0 15       		.uleb128 0x15
 1634 07e1 43010000 		.4byte	.LASF145
 1635 07e5 01       		.byte	0x1
 1636 07e6 2C       		.byte	0x2c
 1637 07e7 74090000 		.4byte	0x974
 1638 07eb 03       		.uleb128 0x3
 1639 07ec 91       		.byte	0x91
 1640 07ed BC7F     		.sleb128 -68
 1641 07ef 15       		.uleb128 0x15
 1642 07f0 45050000 		.4byte	.LASF146
 1643 07f4 01       		.byte	0x1
 1644 07f5 2D       		.byte	0x2d
 1645 07f6 74090000 		.4byte	0x974
 1646 07fa 03       		.uleb128 0x3
 1647 07fb 91       		.byte	0x91
 1648 07fc B07F     		.sleb128 -80
 1649 07fe 15       		.uleb128 0x15
 1650 07ff B0030000 		.4byte	.LASF147
 1651 0803 01       		.byte	0x1
 1652 0804 2E       		.byte	0x2e
 1653 0805 74090000 		.4byte	0x974
 1654 0809 03       		.uleb128 0x3
 1655 080a 91       		.byte	0x91
 1656 080b A47F     		.sleb128 -92
 1657 080d 12       		.uleb128 0x12
 1658 080e 6E000000 		.4byte	.LVL12
ARM GAS  C:\Users\RECEPC~1\AppData\Local\Temp\ccr4zYAx.s 			page 33


 1659 0812 360F0000 		.4byte	0xf36
 1660 0816 25080000 		.4byte	0x825
 1661 081a 13       		.uleb128 0x13
 1662 081b 01       		.uleb128 0x1
 1663 081c 51       		.byte	0x51
 1664 081d 01       		.uleb128 0x1
 1665 081e 31       		.byte	0x31
 1666 081f 13       		.uleb128 0x13
 1667 0820 01       		.uleb128 0x1
 1668 0821 50       		.byte	0x50
 1669 0822 01       		.uleb128 0x1
 1670 0823 31       		.byte	0x31
 1671 0824 00       		.byte	0
 1672 0825 12       		.uleb128 0x12
 1673 0826 76000000 		.4byte	.LVL13
 1674 082a 360F0000 		.4byte	0xf36
 1675 082e 3D080000 		.4byte	0x83d
 1676 0832 13       		.uleb128 0x13
 1677 0833 01       		.uleb128 0x1
 1678 0834 51       		.byte	0x51
 1679 0835 01       		.uleb128 0x1
 1680 0836 31       		.byte	0x31
 1681 0837 13       		.uleb128 0x13
 1682 0838 01       		.uleb128 0x1
 1683 0839 50       		.byte	0x50
 1684 083a 01       		.uleb128 0x1
 1685 083b 32       		.byte	0x32
 1686 083c 00       		.byte	0
 1687 083d 12       		.uleb128 0x12
 1688 083e 80000000 		.4byte	.LVL14
 1689 0842 4C0F0000 		.4byte	0xf4c
 1690 0846 5B080000 		.4byte	0x85b
 1691 084a 13       		.uleb128 0x13
 1692 084b 01       		.uleb128 0x1
 1693 084c 52       		.byte	0x52
 1694 084d 01       		.uleb128 0x1
 1695 084e 30       		.byte	0x30
 1696 084f 13       		.uleb128 0x13
 1697 0850 01       		.uleb128 0x1
 1698 0851 51       		.byte	0x51
 1699 0852 02       		.uleb128 0x2
 1700 0853 91       		.byte	0x91
 1701 0854 6C       		.sleb128 -20
 1702 0855 13       		.uleb128 0x13
 1703 0856 01       		.uleb128 0x1
 1704 0857 50       		.byte	0x50
 1705 0858 01       		.uleb128 0x1
 1706 0859 31       		.byte	0x31
 1707 085a 00       		.byte	0
 1708 085b 12       		.uleb128 0x12
 1709 085c 88000000 		.4byte	.LVL15
 1710 0860 6D0F0000 		.4byte	0xf6d
 1711 0864 70080000 		.4byte	0x870
 1712 0868 13       		.uleb128 0x13
 1713 0869 01       		.uleb128 0x1
 1714 086a 50       		.byte	0x50
 1715 086b 03       		.uleb128 0x3
ARM GAS  C:\Users\RECEPC~1\AppData\Local\Temp\ccr4zYAx.s 			page 34


 1716 086c 0A       		.byte	0xa
 1717 086d F401     		.2byte	0x1f4
 1718 086f 00       		.byte	0
 1719 0870 12       		.uleb128 0x12
 1720 0871 98000000 		.4byte	.LVL16
 1721 0875 4C0F0000 		.4byte	0xf4c
 1722 0879 8E080000 		.4byte	0x88e
 1723 087d 13       		.uleb128 0x13
 1724 087e 01       		.uleb128 0x1
 1725 087f 52       		.byte	0x52
 1726 0880 01       		.uleb128 0x1
 1727 0881 30       		.byte	0x30
 1728 0882 13       		.uleb128 0x13
 1729 0883 01       		.uleb128 0x1
 1730 0884 51       		.byte	0x51
 1731 0885 02       		.uleb128 0x2
 1732 0886 91       		.byte	0x91
 1733 0887 60       		.sleb128 -32
 1734 0888 13       		.uleb128 0x13
 1735 0889 01       		.uleb128 0x1
 1736 088a 50       		.byte	0x50
 1737 088b 01       		.uleb128 0x1
 1738 088c 31       		.byte	0x31
 1739 088d 00       		.byte	0
 1740 088e 12       		.uleb128 0x12
 1741 088f AA000000 		.4byte	.LVL17
 1742 0893 4C0F0000 		.4byte	0xf4c
 1743 0897 AC080000 		.4byte	0x8ac
 1744 089b 13       		.uleb128 0x13
 1745 089c 01       		.uleb128 0x1
 1746 089d 52       		.byte	0x52
 1747 089e 01       		.uleb128 0x1
 1748 089f 30       		.byte	0x30
 1749 08a0 13       		.uleb128 0x13
 1750 08a1 01       		.uleb128 0x1
 1751 08a2 51       		.byte	0x51
 1752 08a3 02       		.uleb128 0x2
 1753 08a4 91       		.byte	0x91
 1754 08a5 54       		.sleb128 -44
 1755 08a6 13       		.uleb128 0x13
 1756 08a7 01       		.uleb128 0x1
 1757 08a8 50       		.byte	0x50
 1758 08a9 01       		.uleb128 0x1
 1759 08aa 31       		.byte	0x31
 1760 08ab 00       		.byte	0
 1761 08ac 12       		.uleb128 0x12
 1762 08ad BC000000 		.4byte	.LVL18
 1763 08b1 4C0F0000 		.4byte	0xf4c
 1764 08b5 CA080000 		.4byte	0x8ca
 1765 08b9 13       		.uleb128 0x13
 1766 08ba 01       		.uleb128 0x1
 1767 08bb 52       		.byte	0x52
 1768 08bc 01       		.uleb128 0x1
 1769 08bd 30       		.byte	0x30
 1770 08be 13       		.uleb128 0x13
 1771 08bf 01       		.uleb128 0x1
 1772 08c0 51       		.byte	0x51
ARM GAS  C:\Users\RECEPC~1\AppData\Local\Temp\ccr4zYAx.s 			page 35


 1773 08c1 02       		.uleb128 0x2
 1774 08c2 91       		.byte	0x91
 1775 08c3 48       		.sleb128 -56
 1776 08c4 13       		.uleb128 0x13
 1777 08c5 01       		.uleb128 0x1
 1778 08c6 50       		.byte	0x50
 1779 08c7 01       		.uleb128 0x1
 1780 08c8 31       		.byte	0x31
 1781 08c9 00       		.byte	0
 1782 08ca 12       		.uleb128 0x12
 1783 08cb CE000000 		.4byte	.LVL19
 1784 08cf 4C0F0000 		.4byte	0xf4c
 1785 08d3 E9080000 		.4byte	0x8e9
 1786 08d7 13       		.uleb128 0x13
 1787 08d8 01       		.uleb128 0x1
 1788 08d9 52       		.byte	0x52
 1789 08da 01       		.uleb128 0x1
 1790 08db 30       		.byte	0x30
 1791 08dc 13       		.uleb128 0x13
 1792 08dd 01       		.uleb128 0x1
 1793 08de 51       		.byte	0x51
 1794 08df 03       		.uleb128 0x3
 1795 08e0 91       		.byte	0x91
 1796 08e1 BC7F     		.sleb128 -68
 1797 08e3 13       		.uleb128 0x13
 1798 08e4 01       		.uleb128 0x1
 1799 08e5 50       		.byte	0x50
 1800 08e6 01       		.uleb128 0x1
 1801 08e7 31       		.byte	0x31
 1802 08e8 00       		.byte	0
 1803 08e9 12       		.uleb128 0x12
 1804 08ea E0000000 		.4byte	.LVL20
 1805 08ee 4C0F0000 		.4byte	0xf4c
 1806 08f2 08090000 		.4byte	0x908
 1807 08f6 13       		.uleb128 0x13
 1808 08f7 01       		.uleb128 0x1
 1809 08f8 52       		.byte	0x52
 1810 08f9 01       		.uleb128 0x1
 1811 08fa 46       		.byte	0x46
 1812 08fb 13       		.uleb128 0x13
 1813 08fc 01       		.uleb128 0x1
 1814 08fd 51       		.byte	0x51
 1815 08fe 03       		.uleb128 0x3
 1816 08ff 91       		.byte	0x91
 1817 0900 B07F     		.sleb128 -80
 1818 0902 13       		.uleb128 0x13
 1819 0903 01       		.uleb128 0x1
 1820 0904 50       		.byte	0x50
 1821 0905 01       		.uleb128 0x1
 1822 0906 31       		.byte	0x31
 1823 0907 00       		.byte	0
 1824 0908 12       		.uleb128 0x12
 1825 0909 F2000000 		.4byte	.LVL21
 1826 090d 4C0F0000 		.4byte	0xf4c
 1827 0911 26090000 		.4byte	0x926
 1828 0915 13       		.uleb128 0x13
 1829 0916 01       		.uleb128 0x1
ARM GAS  C:\Users\RECEPC~1\AppData\Local\Temp\ccr4zYAx.s 			page 36


 1830 0917 52       		.byte	0x52
 1831 0918 01       		.uleb128 0x1
 1832 0919 46       		.byte	0x46
 1833 091a 13       		.uleb128 0x13
 1834 091b 01       		.uleb128 0x1
 1835 091c 51       		.byte	0x51
 1836 091d 02       		.uleb128 0x2
 1837 091e 74       		.byte	0x74
 1838 091f 78       		.sleb128 -8
 1839 0920 13       		.uleb128 0x13
 1840 0921 01       		.uleb128 0x1
 1841 0922 50       		.byte	0x50
 1842 0923 01       		.uleb128 0x1
 1843 0924 31       		.byte	0x31
 1844 0925 00       		.byte	0
 1845 0926 12       		.uleb128 0x12
 1846 0927 FC000000 		.4byte	.LVL22
 1847 092b 360F0000 		.4byte	0xf36
 1848 092f 3E090000 		.4byte	0x93e
 1849 0933 13       		.uleb128 0x13
 1850 0934 01       		.uleb128 0x1
 1851 0935 51       		.byte	0x51
 1852 0936 01       		.uleb128 0x1
 1853 0937 30       		.byte	0x30
 1854 0938 13       		.uleb128 0x13
 1855 0939 01       		.uleb128 0x1
 1856 093a 50       		.byte	0x50
 1857 093b 01       		.uleb128 0x1
 1858 093c 31       		.byte	0x31
 1859 093d 00       		.byte	0
 1860 093e 12       		.uleb128 0x12
 1861 093f 04010000 		.4byte	.LVL23
 1862 0943 360F0000 		.4byte	0xf36
 1863 0947 56090000 		.4byte	0x956
 1864 094b 13       		.uleb128 0x13
 1865 094c 01       		.uleb128 0x1
 1866 094d 51       		.byte	0x51
 1867 094e 01       		.uleb128 0x1
 1868 094f 30       		.byte	0x30
 1869 0950 13       		.uleb128 0x13
 1870 0951 01       		.uleb128 0x1
 1871 0952 50       		.byte	0x50
 1872 0953 01       		.uleb128 0x1
 1873 0954 32       		.byte	0x32
 1874 0955 00       		.byte	0
 1875 0956 14       		.uleb128 0x14
 1876 0957 0E010000 		.4byte	.LVL24
 1877 095b 4C0F0000 		.4byte	0xf4c
 1878 095f 13       		.uleb128 0x13
 1879 0960 01       		.uleb128 0x1
 1880 0961 52       		.byte	0x52
 1881 0962 01       		.uleb128 0x1
 1882 0963 30       		.byte	0x30
 1883 0964 13       		.uleb128 0x13
 1884 0965 01       		.uleb128 0x1
 1885 0966 51       		.byte	0x51
 1886 0967 05       		.uleb128 0x5
ARM GAS  C:\Users\RECEPC~1\AppData\Local\Temp\ccr4zYAx.s 			page 37


 1887 0968 03       		.byte	0x3
 1888 0969 00000000 		.4byte	.LANCHOR1
 1889 096d 13       		.uleb128 0x13
 1890 096e 01       		.uleb128 0x1
 1891 096f 50       		.byte	0x50
 1892 0970 01       		.uleb128 0x1
 1893 0971 32       		.byte	0x32
 1894 0972 00       		.byte	0
 1895 0973 00       		.byte	0
 1896 0974 07       		.uleb128 0x7
 1897 0975 81000000 		.4byte	0x81
 1898 0979 84090000 		.4byte	0x984
 1899 097d 08       		.uleb128 0x8
 1900 097e F2000000 		.4byte	0xf2
 1901 0982 09       		.byte	0x9
 1902 0983 00       		.byte	0
 1903 0984 10       		.uleb128 0x10
 1904 0985 29030000 		.4byte	.LASF148
 1905 0989 01       		.byte	0x1
 1906 098a 4C       		.byte	0x4c
 1907 098b 00000000 		.4byte	.LFB66
 1908 098f 24000000 		.4byte	.LFE66-.LFB66
 1909 0993 01       		.uleb128 0x1
 1910 0994 9C       		.byte	0x9c
 1911 0995 B5090000 		.4byte	0x9b5
 1912 0999 11       		.uleb128 0x11
 1913 099a 06000000 		.4byte	.LVL25
 1914 099e 7E0F0000 		.4byte	0xf7e
 1915 09a2 11       		.uleb128 0x11
 1916 09a3 14000000 		.4byte	.LVL26
 1917 09a7 890F0000 		.4byte	0xf89
 1918 09ab 11       		.uleb128 0x11
 1919 09ac 18000000 		.4byte	.LVL27
 1920 09b0 0F070000 		.4byte	0x70f
 1921 09b4 00       		.byte	0
 1922 09b5 16       		.uleb128 0x16
 1923 09b6 BA060000 		.4byte	.LASF149
 1924 09ba 01       		.byte	0x1
 1925 09bb 66       		.byte	0x66
 1926 09bc 00000000 		.4byte	.LFB67
 1927 09c0 BC000000 		.4byte	.LFE67-.LFB67
 1928 09c4 01       		.uleb128 0x1
 1929 09c5 9C       		.byte	0x9c
 1930 09c6 A10A0000 		.4byte	0xaa1
 1931 09ca 17       		.uleb128 0x17
 1932 09cb 7800     		.ascii	"x\000"
 1933 09cd 01       		.byte	0x1
 1934 09ce 67       		.byte	0x67
 1935 09cf 97000000 		.4byte	0x97
 1936 09d3 00000000 		.4byte	.LLST0
 1937 09d7 11       		.uleb128 0x11
 1938 09d8 26000000 		.4byte	.LVL33
 1939 09dc 9E0F0000 		.4byte	0xf9e
 1940 09e0 12       		.uleb128 0x12
 1941 09e1 30000000 		.4byte	.LVL34
 1942 09e5 6D0F0000 		.4byte	0xf6d
 1943 09e9 F4090000 		.4byte	0x9f4
ARM GAS  C:\Users\RECEPC~1\AppData\Local\Temp\ccr4zYAx.s 			page 38


 1944 09ed 13       		.uleb128 0x13
 1945 09ee 01       		.uleb128 0x1
 1946 09ef 50       		.byte	0x50
 1947 09f0 02       		.uleb128 0x2
 1948 09f1 08       		.byte	0x8
 1949 09f2 28       		.byte	0x28
 1950 09f3 00       		.byte	0
 1951 09f4 11       		.uleb128 0x11
 1952 09f5 38000000 		.4byte	.LVL35
 1953 09f9 9E0F0000 		.4byte	0xf9e
 1954 09fd 12       		.uleb128 0x12
 1955 09fe 40000000 		.4byte	.LVL36
 1956 0a02 6D0F0000 		.4byte	0xf6d
 1957 0a06 110A0000 		.4byte	0xa11
 1958 0a0a 13       		.uleb128 0x13
 1959 0a0b 01       		.uleb128 0x1
 1960 0a0c 50       		.byte	0x50
 1961 0a0d 02       		.uleb128 0x2
 1962 0a0e 08       		.byte	0x8
 1963 0a0f 28       		.byte	0x28
 1964 0a10 00       		.byte	0
 1965 0a11 11       		.uleb128 0x11
 1966 0a12 50000000 		.4byte	.LVL37
 1967 0a16 9E0F0000 		.4byte	0xf9e
 1968 0a1a 12       		.uleb128 0x12
 1969 0a1b 5A000000 		.4byte	.LVL38
 1970 0a1f 6D0F0000 		.4byte	0xf6d
 1971 0a23 2E0A0000 		.4byte	0xa2e
 1972 0a27 13       		.uleb128 0x13
 1973 0a28 01       		.uleb128 0x1
 1974 0a29 50       		.byte	0x50
 1975 0a2a 02       		.uleb128 0x2
 1976 0a2b 08       		.byte	0x8
 1977 0a2c 28       		.byte	0x28
 1978 0a2d 00       		.byte	0
 1979 0a2e 11       		.uleb128 0x11
 1980 0a2f 62000000 		.4byte	.LVL39
 1981 0a33 9E0F0000 		.4byte	0xf9e
 1982 0a37 12       		.uleb128 0x12
 1983 0a38 6A000000 		.4byte	.LVL40
 1984 0a3c 6D0F0000 		.4byte	0xf6d
 1985 0a40 4B0A0000 		.4byte	0xa4b
 1986 0a44 13       		.uleb128 0x13
 1987 0a45 01       		.uleb128 0x1
 1988 0a46 50       		.byte	0x50
 1989 0a47 02       		.uleb128 0x2
 1990 0a48 08       		.byte	0x8
 1991 0a49 28       		.byte	0x28
 1992 0a4a 00       		.byte	0
 1993 0a4b 11       		.uleb128 0x11
 1994 0a4c 72000000 		.4byte	.LVL41
 1995 0a50 9E0F0000 		.4byte	0xf9e
 1996 0a54 12       		.uleb128 0x12
 1997 0a55 7A000000 		.4byte	.LVL42
 1998 0a59 6D0F0000 		.4byte	0xf6d
 1999 0a5d 680A0000 		.4byte	0xa68
 2000 0a61 13       		.uleb128 0x13
ARM GAS  C:\Users\RECEPC~1\AppData\Local\Temp\ccr4zYAx.s 			page 39


 2001 0a62 01       		.uleb128 0x1
 2002 0a63 50       		.byte	0x50
 2003 0a64 02       		.uleb128 0x2
 2004 0a65 08       		.byte	0x8
 2005 0a66 28       		.byte	0x28
 2006 0a67 00       		.byte	0
 2007 0a68 11       		.uleb128 0x11
 2008 0a69 82000000 		.4byte	.LVL43
 2009 0a6d 9E0F0000 		.4byte	0xf9e
 2010 0a71 12       		.uleb128 0x12
 2011 0a72 8A000000 		.4byte	.LVL44
 2012 0a76 6D0F0000 		.4byte	0xf6d
 2013 0a7a 850A0000 		.4byte	0xa85
 2014 0a7e 13       		.uleb128 0x13
 2015 0a7f 01       		.uleb128 0x1
 2016 0a80 50       		.byte	0x50
 2017 0a81 02       		.uleb128 0x2
 2018 0a82 08       		.byte	0x8
 2019 0a83 28       		.byte	0x28
 2020 0a84 00       		.byte	0
 2021 0a85 11       		.uleb128 0x11
 2022 0a86 9A000000 		.4byte	.LVL45
 2023 0a8a 9E0F0000 		.4byte	0xf9e
 2024 0a8e 11       		.uleb128 0x11
 2025 0a8f A6000000 		.4byte	.LVL46
 2026 0a93 84090000 		.4byte	0x984
 2027 0a97 11       		.uleb128 0x11
 2028 0a98 AA000000 		.4byte	.LVL47
 2029 0a9c 93070000 		.4byte	0x793
 2030 0aa0 00       		.byte	0
 2031 0aa1 18       		.uleb128 0x18
 2032 0aa2 A90C0000 		.4byte	.LASF150
 2033 0aa6 01       		.byte	0x1
 2034 0aa7 81       		.byte	0x81
 2035 0aa8 73000000 		.4byte	0x73
 2036 0aac 00000000 		.4byte	.LFB68
 2037 0ab0 3C000000 		.4byte	.LFE68-.LFB68
 2038 0ab4 01       		.uleb128 0x1
 2039 0ab5 9C       		.byte	0x9c
 2040 0ab6 130B0000 		.4byte	0xb13
 2041 0aba 17       		.uleb128 0x17
 2042 0abb 7800     		.ascii	"x\000"
 2043 0abd 01       		.byte	0x1
 2044 0abe 83       		.byte	0x83
 2045 0abf 97000000 		.4byte	0x97
 2046 0ac3 2A000000 		.4byte	.LLST1
 2047 0ac7 11       		.uleb128 0x11
 2048 0ac8 1A000000 		.4byte	.LVL52
 2049 0acc C3060000 		.4byte	0x6c3
 2050 0ad0 11       		.uleb128 0x11
 2051 0ad1 1E000000 		.4byte	.LVL53
 2052 0ad5 84090000 		.4byte	0x984
 2053 0ad9 11       		.uleb128 0x11
 2054 0ada 22000000 		.4byte	.LVL54
 2055 0ade 93070000 		.4byte	0x793
 2056 0ae2 11       		.uleb128 0x11
 2057 0ae3 26000000 		.4byte	.LVL55
ARM GAS  C:\Users\RECEPC~1\AppData\Local\Temp\ccr4zYAx.s 			page 40


 2058 0ae7 B30F0000 		.4byte	0xfb3
 2059 0aeb 11       		.uleb128 0x11
 2060 0aec 2A000000 		.4byte	.LVL56
 2061 0af0 B5090000 		.4byte	0x9b5
 2062 0af4 11       		.uleb128 0x11
 2063 0af5 2E000000 		.4byte	.LVL57
 2064 0af9 B30F0000 		.4byte	0xfb3
 2065 0afd 14       		.uleb128 0x14
 2066 0afe 36000000 		.4byte	.LVL58
 2067 0b02 BA0F0000 		.4byte	0xfba
 2068 0b06 13       		.uleb128 0x13
 2069 0b07 01       		.uleb128 0x1
 2070 0b08 51       		.byte	0x51
 2071 0b09 02       		.uleb128 0x2
 2072 0b0a 08       		.byte	0x8
 2073 0b0b 23       		.byte	0x23
 2074 0b0c 13       		.uleb128 0x13
 2075 0b0d 01       		.uleb128 0x1
 2076 0b0e 50       		.byte	0x50
 2077 0b0f 01       		.uleb128 0x1
 2078 0b10 32       		.byte	0x32
 2079 0b11 00       		.byte	0
 2080 0b12 00       		.byte	0
 2081 0b13 19       		.uleb128 0x19
 2082 0b14 A2070000 		.4byte	.LASF151
 2083 0b18 06       		.byte	0x6
 2084 0b19 5506     		.2byte	0x655
 2085 0b1b 1F0B0000 		.4byte	0xb1f
 2086 0b1f 06       		.uleb128 0x6
 2087 0b20 8C000000 		.4byte	0x8c
 2088 0b24 1A       		.uleb128 0x1a
 2089 0b25 C2050000 		.4byte	.LASF152
 2090 0b29 05       		.byte	0x5
 2091 0b2a 2C       		.byte	0x2c
 2092 0b2b 350B0000 		.4byte	0xb35
 2093 0b2f 05       		.uleb128 0x5
 2094 0b30 03       		.byte	0x3
 2095 0b31 00000000 		.4byte	countAnimation1
 2096 0b35 06       		.uleb128 0x6
 2097 0b36 C9000000 		.4byte	0xc9
 2098 0b3a 1A       		.uleb128 0x1a
 2099 0b3b 14060000 		.4byte	.LASF153
 2100 0b3f 05       		.byte	0x5
 2101 0b40 2D       		.byte	0x2d
 2102 0b41 350B0000 		.4byte	0xb35
 2103 0b45 05       		.uleb128 0x5
 2104 0b46 03       		.byte	0x3
 2105 0b47 00000000 		.4byte	countAnimation2
 2106 0b4b 1A       		.uleb128 0x1a
 2107 0b4c 79040000 		.4byte	.LASF154
 2108 0b50 05       		.byte	0x5
 2109 0b51 2E       		.byte	0x2e
 2110 0b52 350B0000 		.4byte	0xb35
 2111 0b56 05       		.uleb128 0x5
 2112 0b57 03       		.byte	0x3
 2113 0b58 00000000 		.4byte	countBeagleTX
 2114 0b5c 1A       		.uleb128 0x1a
ARM GAS  C:\Users\RECEPC~1\AppData\Local\Temp\ccr4zYAx.s 			page 41


 2115 0b5d 770C0000 		.4byte	.LASF155
 2116 0b61 05       		.byte	0x5
 2117 0b62 2F       		.byte	0x2f
 2118 0b63 350B0000 		.4byte	0xb35
 2119 0b67 05       		.uleb128 0x5
 2120 0b68 03       		.byte	0x3
 2121 0b69 00000000 		.4byte	countPump
 2122 0b6d 1A       		.uleb128 0x1a
 2123 0b6e A3030000 		.4byte	.LASF156
 2124 0b72 05       		.byte	0x5
 2125 0b73 30       		.byte	0x30
 2126 0b74 ED000000 		.4byte	0xed
 2127 0b78 05       		.uleb128 0x5
 2128 0b79 03       		.byte	0x3
 2129 0b7a 00000000 		.4byte	flowDisplay1
 2130 0b7e 1A       		.uleb128 0x1a
 2131 0b7f 2E080000 		.4byte	.LASF157
 2132 0b83 05       		.byte	0x5
 2133 0b84 31       		.byte	0x31
 2134 0b85 ED000000 		.4byte	0xed
 2135 0b89 05       		.uleb128 0x5
 2136 0b8a 03       		.byte	0x3
 2137 0b8b 00000000 		.4byte	flowDisplay2
 2138 0b8f 1A       		.uleb128 0x1a
 2139 0b90 22030000 		.4byte	.LASF158
 2140 0b94 05       		.byte	0x5
 2141 0b95 32       		.byte	0x32
 2142 0b96 E8000000 		.4byte	0xe8
 2143 0b9a 05       		.uleb128 0x5
 2144 0b9b 03       		.byte	0x3
 2145 0b9c 00000000 		.4byte	digits
 2146 0ba0 07       		.uleb128 0x7
 2147 0ba1 97000000 		.4byte	0x97
 2148 0ba5 B00B0000 		.4byte	0xbb0
 2149 0ba9 08       		.uleb128 0x8
 2150 0baa F2000000 		.4byte	0xf2
 2151 0bae 0B       		.byte	0xb
 2152 0baf 00       		.byte	0
 2153 0bb0 1A       		.uleb128 0x1a
 2154 0bb1 D8000000 		.4byte	.LASF159
 2155 0bb5 05       		.byte	0x5
 2156 0bb6 33       		.byte	0x33
 2157 0bb7 C10B0000 		.4byte	0xbc1
 2158 0bbb 05       		.uleb128 0x5
 2159 0bbc 03       		.byte	0x3
 2160 0bbd 00000000 		.4byte	ipAdress
 2161 0bc1 06       		.uleb128 0x6
 2162 0bc2 A00B0000 		.4byte	0xba0
 2163 0bc6 1A       		.uleb128 0x1a
 2164 0bc7 61040000 		.4byte	.LASF160
 2165 0bcb 05       		.byte	0x5
 2166 0bcc 34       		.byte	0x34
 2167 0bcd E8000000 		.4byte	0xe8
 2168 0bd1 05       		.uleb128 0x5
 2169 0bd2 03       		.byte	0x3
 2170 0bd3 00000000 		.4byte	numberKeys1
 2171 0bd7 1A       		.uleb128 0x1a
ARM GAS  C:\Users\RECEPC~1\AppData\Local\Temp\ccr4zYAx.s 			page 42


 2172 0bd8 6D040000 		.4byte	.LASF161
 2173 0bdc 05       		.byte	0x5
 2174 0bdd 35       		.byte	0x35
 2175 0bde E8000000 		.4byte	0xe8
 2176 0be2 05       		.uleb128 0x5
 2177 0be3 03       		.byte	0x3
 2178 0be4 00000000 		.4byte	numberKeys2
 2179 0be8 1A       		.uleb128 0x1a
 2180 0be9 2A070000 		.4byte	.LASF162
 2181 0bed 05       		.byte	0x5
 2182 0bee 36       		.byte	0x36
 2183 0bef E8000000 		.4byte	0xe8
 2184 0bf3 05       		.uleb128 0x5
 2185 0bf4 03       		.byte	0x3
 2186 0bf5 00000000 		.4byte	flagPoint1
 2187 0bf9 1A       		.uleb128 0x1a
 2188 0bfa EF010000 		.4byte	.LASF163
 2189 0bfe 05       		.byte	0x5
 2190 0bff 37       		.byte	0x37
 2191 0c00 E8000000 		.4byte	0xe8
 2192 0c04 05       		.uleb128 0x5
 2193 0c05 03       		.byte	0x3
 2194 0c06 00000000 		.4byte	flagPoint2
 2195 0c0a 07       		.uleb128 0x7
 2196 0c0b 97000000 		.4byte	0x97
 2197 0c0f 200C0000 		.4byte	0xc20
 2198 0c13 08       		.uleb128 0x8
 2199 0c14 F2000000 		.4byte	0xf2
 2200 0c18 77       		.byte	0x77
 2201 0c19 08       		.uleb128 0x8
 2202 0c1a F2000000 		.4byte	0xf2
 2203 0c1e 07       		.byte	0x7
 2204 0c1f 00       		.byte	0
 2205 0c20 1A       		.uleb128 0x1a
 2206 0c21 9C030000 		.4byte	.LASF164
 2207 0c25 05       		.byte	0x5
 2208 0c26 38       		.byte	0x38
 2209 0c27 310C0000 		.4byte	0xc31
 2210 0c2b 05       		.uleb128 0x5
 2211 0c2c 03       		.byte	0x3
 2212 0c2d 00000000 		.4byte	button
 2213 0c31 06       		.uleb128 0x6
 2214 0c32 0A0C0000 		.4byte	0xc0a
 2215 0c36 1A       		.uleb128 0x1a
 2216 0c37 43030000 		.4byte	.LASF165
 2217 0c3b 05       		.byte	0x5
 2218 0c3c 39       		.byte	0x39
 2219 0c3d E8000000 		.4byte	0xe8
 2220 0c41 05       		.uleb128 0x5
 2221 0c42 03       		.byte	0x3
 2222 0c43 00000000 		.4byte	productNumber
 2223 0c47 1A       		.uleb128 0x1a
 2224 0c48 51050000 		.4byte	.LASF166
 2225 0c4c 05       		.byte	0x5
 2226 0c4d 3A       		.byte	0x3a
 2227 0c4e 57040000 		.4byte	0x457
 2228 0c52 05       		.uleb128 0x5
ARM GAS  C:\Users\RECEPC~1\AppData\Local\Temp\ccr4zYAx.s 			page 43


 2229 0c53 03       		.byte	0x3
 2230 0c54 00000000 		.4byte	presetFast
 2231 0c58 1A       		.uleb128 0x1a
 2232 0c59 12090000 		.4byte	.LASF167
 2233 0c5d 05       		.byte	0x5
 2234 0c5e 3B       		.byte	0x3b
 2235 0c5f ED000000 		.4byte	0xed
 2236 0c63 05       		.uleb128 0x5
 2237 0c64 03       		.byte	0x3
 2238 0c65 00000000 		.4byte	delayPicture1
 2239 0c69 1A       		.uleb128 0x1a
 2240 0c6a 20090000 		.4byte	.LASF168
 2241 0c6e 05       		.byte	0x5
 2242 0c6f 3C       		.byte	0x3c
 2243 0c70 ED000000 		.4byte	0xed
 2244 0c74 05       		.uleb128 0x5
 2245 0c75 03       		.byte	0x3
 2246 0c76 00000000 		.4byte	delayPicture2
 2247 0c7a 1A       		.uleb128 0x1a
 2248 0c7b FB060000 		.4byte	.LASF169
 2249 0c7f 05       		.byte	0x5
 2250 0c80 3D       		.byte	0x3d
 2251 0c81 E8000000 		.4byte	0xe8
 2252 0c85 05       		.uleb128 0x5
 2253 0c86 03       		.byte	0x3
 2254 0c87 00000000 		.4byte	ppux10
 2255 0c8b 1A       		.uleb128 0x1a
 2256 0c8c E1000000 		.4byte	.LASF170
 2257 0c90 05       		.byte	0x5
 2258 0c91 3E       		.byte	0x3e
 2259 0c92 E8000000 		.4byte	0xe8
 2260 0c96 05       		.uleb128 0x5
 2261 0c97 03       		.byte	0x3
 2262 0c98 00000000 		.4byte	decimalMoney
 2263 0c9c 1A       		.uleb128 0x1a
 2264 0c9d 79000000 		.4byte	.LASF171
 2265 0ca1 05       		.byte	0x5
 2266 0ca2 3F       		.byte	0x3f
 2267 0ca3 E8000000 		.4byte	0xe8
 2268 0ca7 05       		.uleb128 0x5
 2269 0ca8 03       		.byte	0x3
 2270 0ca9 00000000 		.4byte	decimalVolume
 2271 0cad 1A       		.uleb128 0x1a
 2272 0cae 47070000 		.4byte	.LASF172
 2273 0cb2 05       		.byte	0x5
 2274 0cb3 40       		.byte	0x40
 2275 0cb4 BE0C0000 		.4byte	0xcbe
 2276 0cb8 05       		.uleb128 0x5
 2277 0cb9 03       		.byte	0x3
 2278 0cba 00000000 		.4byte	symbols
 2279 0cbe 06       		.uleb128 0x6
 2280 0cbf B5030000 		.4byte	0x3b5
 2281 0cc3 07       		.uleb128 0x7
 2282 0cc4 97000000 		.4byte	0x97
 2283 0cc8 D30C0000 		.4byte	0xcd3
 2284 0ccc 08       		.uleb128 0x8
 2285 0ccd F2000000 		.4byte	0xf2
ARM GAS  C:\Users\RECEPC~1\AppData\Local\Temp\ccr4zYAx.s 			page 44


 2286 0cd1 02       		.byte	0x2
 2287 0cd2 00       		.byte	0
 2288 0cd3 1A       		.uleb128 0x1a
 2289 0cd4 32030000 		.4byte	.LASF173
 2290 0cd8 05       		.byte	0x5
 2291 0cd9 41       		.byte	0x41
 2292 0cda E40C0000 		.4byte	0xce4
 2293 0cde 05       		.uleb128 0x5
 2294 0cdf 03       		.byte	0x3
 2295 0ce0 00000000 		.4byte	time
 2296 0ce4 06       		.uleb128 0x6
 2297 0ce5 C30C0000 		.4byte	0xcc3
 2298 0ce9 1A       		.uleb128 0x1a
 2299 0cea D4040000 		.4byte	.LASF174
 2300 0cee 05       		.byte	0x5
 2301 0cef 42       		.byte	0x42
 2302 0cf0 FA0C0000 		.4byte	0xcfa
 2303 0cf4 05       		.uleb128 0x5
 2304 0cf5 03       		.byte	0x3
 2305 0cf6 00000000 		.4byte	date
 2306 0cfa 06       		.uleb128 0x6
 2307 0cfb C30C0000 		.4byte	0xcc3
 2308 0cff 1A       		.uleb128 0x1a
 2309 0d00 FA010000 		.4byte	.LASF175
 2310 0d04 05       		.byte	0x5
 2311 0d05 43       		.byte	0x43
 2312 0d06 100D0000 		.4byte	0xd10
 2313 0d0a 05       		.uleb128 0x5
 2314 0d0b 03       		.byte	0x3
 2315 0d0c 00000000 		.4byte	screen
 2316 0d10 06       		.uleb128 0x6
 2317 0d11 B5030000 		.4byte	0x3b5
 2318 0d15 1A       		.uleb128 0x1a
 2319 0d16 63010000 		.4byte	.LASF176
 2320 0d1a 05       		.byte	0x5
 2321 0d1b 44       		.byte	0x44
 2322 0d1c 260D0000 		.4byte	0xd26
 2323 0d20 05       		.uleb128 0x5
 2324 0d21 03       		.byte	0x3
 2325 0d22 00000000 		.4byte	residue
 2326 0d26 06       		.uleb128 0x6
 2327 0d27 FB030000 		.4byte	0x3fb
 2328 0d2b 07       		.uleb128 0x7
 2329 0d2c 97000000 		.4byte	0x97
 2330 0d30 3B0D0000 		.4byte	0xd3b
 2331 0d34 08       		.uleb128 0x8
 2332 0d35 F2000000 		.4byte	0xf2
 2333 0d39 1D       		.byte	0x1d
 2334 0d3a 00       		.byte	0
 2335 0d3b 1A       		.uleb128 0x1a
 2336 0d3c 7B0B0000 		.4byte	.LASF177
 2337 0d40 05       		.byte	0x5
 2338 0d41 45       		.byte	0x45
 2339 0d42 2B0D0000 		.4byte	0xd2b
 2340 0d46 05       		.uleb128 0x5
 2341 0d47 03       		.byte	0x3
 2342 0d48 00000000 		.4byte	temporal
ARM GAS  C:\Users\RECEPC~1\AppData\Local\Temp\ccr4zYAx.s 			page 45


 2343 0d4c 1A       		.uleb128 0x1a
 2344 0d4d 87000000 		.4byte	.LASF178
 2345 0d51 05       		.byte	0x5
 2346 0d52 46       		.byte	0x46
 2347 0d53 2B0D0000 		.4byte	0xd2b
 2348 0d57 05       		.uleb128 0x5
 2349 0d58 03       		.byte	0x3
 2350 0d59 00000000 		.4byte	temporalCom
 2351 0d5d 1A       		.uleb128 0x1a
 2352 0d5e 0D040000 		.4byte	.LASF179
 2353 0d62 05       		.byte	0x5
 2354 0d63 47       		.byte	0x47
 2355 0d64 E8000000 		.4byte	0xe8
 2356 0d68 05       		.uleb128 0x5
 2357 0d69 03       		.byte	0x3
 2358 0d6a 00000000 		.4byte	turn
 2359 0d6e 1A       		.uleb128 0x1a
 2360 0d6f 69030000 		.4byte	.LASF180
 2361 0d73 05       		.byte	0x5
 2362 0d74 48       		.byte	0x48
 2363 0d75 E8000000 		.4byte	0xe8
 2364 0d79 05       		.uleb128 0x5
 2365 0d7a 03       		.byte	0x3
 2366 0d7b 00000000 		.4byte	lockTurn
 2367 0d7f 1A       		.uleb128 0x1a
 2368 0d80 120B0000 		.4byte	.LASF181
 2369 0d84 05       		.byte	0x5
 2370 0d85 49       		.byte	0x49
 2371 0d86 900D0000 		.4byte	0xd90
 2372 0d8a 05       		.uleb128 0x5
 2373 0d8b 03       		.byte	0x3
 2374 0d8c 00000000 		.4byte	idSeller
 2375 0d90 06       		.uleb128 0x6
 2376 0d91 85030000 		.4byte	0x385
 2377 0d95 1A       		.uleb128 0x1a
 2378 0d96 6D090000 		.4byte	.LASF182
 2379 0d9a 05       		.byte	0x5
 2380 0d9b 4A       		.byte	0x4a
 2381 0d9c E8000000 		.4byte	0xe8
 2382 0da0 05       		.uleb128 0x5
 2383 0da1 03       		.byte	0x3
 2384 0da2 00000000 		.4byte	typeIdSeller
 2385 0da6 07       		.uleb128 0x7
 2386 0da7 97000000 		.4byte	0x97
 2387 0dab B60D0000 		.4byte	0xdb6
 2388 0daf 08       		.uleb128 0x8
 2389 0db0 F2000000 		.4byte	0xf2
 2390 0db4 07       		.byte	0x7
 2391 0db5 00       		.byte	0
 2392 0db6 1A       		.uleb128 0x1a
 2393 0db7 E2080000 		.4byte	.LASF183
 2394 0dbb 05       		.byte	0x5
 2395 0dbc 4B       		.byte	0x4b
 2396 0dbd C70D0000 		.4byte	0xdc7
 2397 0dc1 05       		.uleb128 0x5
 2398 0dc2 03       		.byte	0x3
 2399 0dc3 00000000 		.4byte	passwordSeller
ARM GAS  C:\Users\RECEPC~1\AppData\Local\Temp\ccr4zYAx.s 			page 46


 2400 0dc7 06       		.uleb128 0x6
 2401 0dc8 A60D0000 		.4byte	0xda6
 2402 0dcc 1A       		.uleb128 0x1a
 2403 0dcd 8E060000 		.4byte	.LASF184
 2404 0dd1 05       		.byte	0x5
 2405 0dd2 4C       		.byte	0x4c
 2406 0dd3 E8000000 		.4byte	0xe8
 2407 0dd7 05       		.uleb128 0x5
 2408 0dd8 03       		.byte	0x3
 2409 0dd9 00000000 		.4byte	flagResetMux
 2410 0ddd 1A       		.uleb128 0x1a
 2411 0dde DF050000 		.4byte	.LASF185
 2412 0de2 05       		.byte	0x5
 2413 0de3 4D       		.byte	0x4d
 2414 0de4 E8000000 		.4byte	0xe8
 2415 0de8 05       		.uleb128 0x5
 2416 0de9 03       		.byte	0x3
 2417 0dea 00000000 		.4byte	stateBeagleSoft
 2418 0dee 1A       		.uleb128 0x1a
 2419 0def 92020000 		.4byte	.LASF186
 2420 0df3 05       		.byte	0x5
 2421 0df4 4E       		.byte	0x4e
 2422 0df5 FF0D0000 		.4byte	0xdff
 2423 0df9 05       		.uleb128 0x5
 2424 0dfa 03       		.byte	0x3
 2425 0dfb 00000000 		.4byte	PrevStatePump
 2426 0dff 06       		.uleb128 0x6
 2427 0e00 F9000000 		.4byte	0xf9
 2428 0e04 1A       		.uleb128 0x1a
 2429 0e05 02090000 		.4byte	.LASF187
 2430 0e09 05       		.byte	0x5
 2431 0e0a 50       		.byte	0x50
 2432 0e0b 97000000 		.4byte	0x97
 2433 0e0f 05       		.uleb128 0x5
 2434 0e10 03       		.byte	0x3
 2435 0e11 00000000 		.4byte	UnitType
 2436 0e15 1A       		.uleb128 0x1a
 2437 0e16 50040000 		.4byte	.LASF188
 2438 0e1a 05       		.byte	0x5
 2439 0e1b 50       		.byte	0x50
 2440 0e1c 97000000 		.4byte	0x97
 2441 0e20 05       		.uleb128 0x5
 2442 0e21 03       		.byte	0x3
 2443 0e22 00000000 		.4byte	ConversionFactor
 2444 0e26 1A       		.uleb128 0x1a
 2445 0e27 89020000 		.4byte	.LASF189
 2446 0e2b 05       		.byte	0x5
 2447 0e2c 50       		.byte	0x50
 2448 0e2d 97000000 		.4byte	0x97
 2449 0e31 05       		.uleb128 0x5
 2450 0e32 03       		.byte	0x3
 2451 0e33 00000000 		.4byte	MoneyDec
 2452 0e37 1A       		.uleb128 0x1a
 2453 0e38 840B0000 		.4byte	.LASF190
 2454 0e3c 05       		.byte	0x5
 2455 0e3d 50       		.byte	0x50
 2456 0e3e 97000000 		.4byte	0x97
ARM GAS  C:\Users\RECEPC~1\AppData\Local\Temp\ccr4zYAx.s 			page 47


 2457 0e42 05       		.uleb128 0x5
 2458 0e43 03       		.byte	0x3
 2459 0e44 00000000 		.4byte	VolDec
 2460 0e48 1A       		.uleb128 0x1a
 2461 0e49 66090000 		.4byte	.LASF191
 2462 0e4d 05       		.byte	0x5
 2463 0e4e 50       		.byte	0x50
 2464 0e4f 97000000 		.4byte	0x97
 2465 0e53 05       		.uleb128 0x5
 2466 0e54 03       		.byte	0x3
 2467 0e55 00000000 		.4byte	PPUDec
 2468 0e59 1A       		.uleb128 0x1a
 2469 0e5a 8D010000 		.4byte	.LASF192
 2470 0e5e 05       		.byte	0x5
 2471 0e5f 50       		.byte	0x50
 2472 0e60 97000000 		.4byte	0x97
 2473 0e64 05       		.uleb128 0x5
 2474 0e65 03       		.byte	0x3
 2475 0e66 00000000 		.4byte	DDMode
 2476 0e6a 1A       		.uleb128 0x1a
 2477 0e6b C7000000 		.4byte	.LASF193
 2478 0e6f 05       		.byte	0x5
 2479 0e70 51       		.byte	0x51
 2480 0e71 F9000000 		.4byte	0xf9
 2481 0e75 05       		.uleb128 0x5
 2482 0e76 03       		.byte	0x3
 2483 0e77 00000000 		.4byte	statePump
 2484 0e7b 1A       		.uleb128 0x1a
 2485 0e7c 6A0D0000 		.4byte	.LASF194
 2486 0e80 05       		.byte	0x5
 2487 0e81 90       		.byte	0x90
 2488 0e82 09010000 		.4byte	0x109
 2489 0e86 05       		.uleb128 0x5
 2490 0e87 03       		.byte	0x3
 2491 0e88 00000000 		.4byte	bufferDisplay1
 2492 0e8c 1A       		.uleb128 0x1a
 2493 0e8d 93080000 		.4byte	.LASF195
 2494 0e91 05       		.byte	0x5
 2495 0e92 91       		.byte	0x91
 2496 0e93 09010000 		.4byte	0x109
 2497 0e97 05       		.uleb128 0x5
 2498 0e98 03       		.byte	0x3
 2499 0e99 00000000 		.4byte	bufferDisplay2
 2500 0e9d 1A       		.uleb128 0x1a
 2501 0e9e A2080000 		.4byte	.LASF196
 2502 0ea2 05       		.byte	0x5
 2503 0ea3 92       		.byte	0x92
 2504 0ea4 09010000 		.4byte	0x109
 2505 0ea8 05       		.uleb128 0x5
 2506 0ea9 03       		.byte	0x3
 2507 0eaa 00000000 		.4byte	bufferDisplay3
 2508 0eae 1A       		.uleb128 0x1a
 2509 0eaf 820D0000 		.4byte	.LASF197
 2510 0eb3 05       		.byte	0x5
 2511 0eb4 93       		.byte	0x93
 2512 0eb5 09010000 		.4byte	0x109
 2513 0eb9 05       		.uleb128 0x5
ARM GAS  C:\Users\RECEPC~1\AppData\Local\Temp\ccr4zYAx.s 			page 48


 2514 0eba 03       		.byte	0x3
 2515 0ebb 00000000 		.4byte	bufferDisplay4
 2516 0ebf 1A       		.uleb128 0x1a
 2517 0ec0 94010000 		.4byte	.LASF198
 2518 0ec4 05       		.byte	0x5
 2519 0ec5 AF       		.byte	0xaf
 2520 0ec6 11050000 		.4byte	0x511
 2521 0eca 05       		.uleb128 0x5
 2522 0ecb 03       		.byte	0x3
 2523 0ecc 00000000 		.4byte	side
 2524 0ed0 1A       		.uleb128 0x1a
 2525 0ed1 D2050000 		.4byte	.LASF199
 2526 0ed5 01       		.byte	0x1
 2527 0ed6 13       		.byte	0x13
 2528 0ed7 97000000 		.4byte	0x97
 2529 0edb 05       		.uleb128 0x5
 2530 0edc 03       		.byte	0x3
 2531 0edd 00000000 		.4byte	NumPositions
 2532 0ee1 1A       		.uleb128 0x1a
 2533 0ee2 99010000 		.4byte	.LASF200
 2534 0ee6 01       		.byte	0x1
 2535 0ee7 14       		.byte	0x14
 2536 0ee8 95030000 		.4byte	0x395
 2537 0eec 05       		.uleb128 0x5
 2538 0eed 03       		.byte	0x3
 2539 0eee 00000000 		.4byte	MuxVersion
 2540 0ef2 1B       		.uleb128 0x1b
 2541 0ef3 BD030000 		.4byte	.LASF201
 2542 0ef7 07       		.byte	0x7
 2543 0ef8 1F       		.byte	0x1f
 2544 0ef9 1B       		.uleb128 0x1b
 2545 0efa 87040000 		.4byte	.LASF202
 2546 0efe 08       		.byte	0x8
 2547 0eff 54       		.byte	0x54
 2548 0f00 1B       		.uleb128 0x1b
 2549 0f01 BE010000 		.4byte	.LASF203
 2550 0f05 09       		.byte	0x9
 2551 0f06 54       		.byte	0x54
 2552 0f07 1B       		.uleb128 0x1b
 2553 0f08 15010000 		.4byte	.LASF204
 2554 0f0c 0A       		.byte	0xa
 2555 0f0d 54       		.byte	0x54
 2556 0f0e 1B       		.uleb128 0x1b
 2557 0f0f 4F0D0000 		.4byte	.LASF205
 2558 0f13 0B       		.byte	0xb
 2559 0f14 54       		.byte	0x54
 2560 0f15 1B       		.uleb128 0x1b
 2561 0f16 F30C0000 		.4byte	.LASF206
 2562 0f1a 0C       		.byte	0xc
 2563 0f1b 54       		.byte	0x54
 2564 0f1c 1C       		.uleb128 0x1c
 2565 0f1d 74050000 		.4byte	.LASF210
 2566 0f21 07       		.byte	0x7
 2567 0f22 21       		.byte	0x21
 2568 0f23 DC000000 		.4byte	0xdc
 2569 0f27 360F0000 		.4byte	0xf36
 2570 0f2b 1D       		.uleb128 0x1d
ARM GAS  C:\Users\RECEPC~1\AppData\Local\Temp\ccr4zYAx.s 			page 49


 2571 0f2c 97000000 		.4byte	0x97
 2572 0f30 1D       		.uleb128 0x1d
 2573 0f31 A3000000 		.4byte	0xa3
 2574 0f35 00       		.byte	0
 2575 0f36 1E       		.uleb128 0x1e
 2576 0f37 AF060000 		.4byte	.LASF207
 2577 0f3b 0D       		.byte	0xd
 2578 0f3c 22       		.byte	0x22
 2579 0f3d 4C0F0000 		.4byte	0xf4c
 2580 0f41 1D       		.uleb128 0x1d
 2581 0f42 97000000 		.4byte	0x97
 2582 0f46 1D       		.uleb128 0x1d
 2583 0f47 A3000000 		.4byte	0xa3
 2584 0f4b 00       		.byte	0
 2585 0f4c 1E       		.uleb128 0x1e
 2586 0f4d 94090000 		.4byte	.LASF208
 2587 0f51 0D       		.byte	0xd
 2588 0f52 28       		.byte	0x28
 2589 0f53 670F0000 		.4byte	0xf67
 2590 0f57 1D       		.uleb128 0x1d
 2591 0f58 97000000 		.4byte	0x97
 2592 0f5c 1D       		.uleb128 0x1d
 2593 0f5d 670F0000 		.4byte	0xf67
 2594 0f61 1D       		.uleb128 0x1d
 2595 0f62 97000000 		.4byte	0x97
 2596 0f66 00       		.byte	0
 2597 0f67 1F       		.uleb128 0x1f
 2598 0f68 04       		.byte	0x4
 2599 0f69 97000000 		.4byte	0x97
 2600 0f6d 1E       		.uleb128 0x1e
 2601 0f6e 00000000 		.4byte	.LASF209
 2602 0f72 0E       		.byte	0xe
 2603 0f73 77       		.byte	0x77
 2604 0f74 7E0F0000 		.4byte	0xf7e
 2605 0f78 1D       		.uleb128 0x1d
 2606 0f79 AF000000 		.4byte	0xaf
 2607 0f7d 00       		.byte	0
 2608 0f7e 20       		.uleb128 0x20
 2609 0f7f CC030000 		.4byte	.LASF218
 2610 0f83 0F       		.byte	0xf
 2611 0f84 22       		.byte	0x22
 2612 0f85 97000000 		.4byte	0x97
 2613 0f89 1C       		.uleb128 0x1c
 2614 0f8a 6D060000 		.4byte	.LASF211
 2615 0f8e 0F       		.byte	0xf
 2616 0f8f 28       		.byte	0x28
 2617 0f90 97000000 		.4byte	0x97
 2618 0f94 9E0F0000 		.4byte	0xf9e
 2619 0f98 1D       		.uleb128 0x1d
 2620 0f99 97000000 		.4byte	0x97
 2621 0f9d 00       		.byte	0
 2622 0f9e 1C       		.uleb128 0x1c
 2623 0f9f 0A0A0000 		.4byte	.LASF212
 2624 0fa3 0F       		.byte	0xf
 2625 0fa4 21       		.byte	0x21
 2626 0fa5 97000000 		.4byte	0x97
 2627 0fa9 B30F0000 		.4byte	0xfb3
ARM GAS  C:\Users\RECEPC~1\AppData\Local\Temp\ccr4zYAx.s 			page 50


 2628 0fad 1D       		.uleb128 0x1d
 2629 0fae 97000000 		.4byte	0x97
 2630 0fb2 00       		.byte	0
 2631 0fb3 1B       		.uleb128 0x1b
 2632 0fb4 6E000000 		.4byte	.LASF213
 2633 0fb8 0E       		.byte	0xe
 2634 0fb9 74       		.byte	0x74
 2635 0fba 21       		.uleb128 0x21
 2636 0fbb FF030000 		.4byte	.LASF219
 2637 0fbf 0D       		.byte	0xd
 2638 0fc0 25       		.byte	0x25
 2639 0fc1 1D       		.uleb128 0x1d
 2640 0fc2 97000000 		.4byte	0x97
 2641 0fc6 1D       		.uleb128 0x1d
 2642 0fc7 97000000 		.4byte	0x97
 2643 0fcb 00       		.byte	0
 2644 0fcc 00       		.byte	0
 2645              		.section	.debug_abbrev,"",%progbits
 2646              	.Ldebug_abbrev0:
 2647 0000 01       		.uleb128 0x1
 2648 0001 11       		.uleb128 0x11
 2649 0002 01       		.byte	0x1
 2650 0003 25       		.uleb128 0x25
 2651 0004 0E       		.uleb128 0xe
 2652 0005 13       		.uleb128 0x13
 2653 0006 0B       		.uleb128 0xb
 2654 0007 03       		.uleb128 0x3
 2655 0008 0E       		.uleb128 0xe
 2656 0009 1B       		.uleb128 0x1b
 2657 000a 0E       		.uleb128 0xe
 2658 000b 55       		.uleb128 0x55
 2659 000c 17       		.uleb128 0x17
 2660 000d 11       		.uleb128 0x11
 2661 000e 01       		.uleb128 0x1
 2662 000f 10       		.uleb128 0x10
 2663 0010 17       		.uleb128 0x17
 2664 0011 00       		.byte	0
 2665 0012 00       		.byte	0
 2666 0013 02       		.uleb128 0x2
 2667 0014 24       		.uleb128 0x24
 2668 0015 00       		.byte	0
 2669 0016 0B       		.uleb128 0xb
 2670 0017 0B       		.uleb128 0xb
 2671 0018 3E       		.uleb128 0x3e
 2672 0019 0B       		.uleb128 0xb
 2673 001a 03       		.uleb128 0x3
 2674 001b 0E       		.uleb128 0xe
 2675 001c 00       		.byte	0
 2676 001d 00       		.byte	0
 2677 001e 03       		.uleb128 0x3
 2678 001f 16       		.uleb128 0x16
 2679 0020 00       		.byte	0
 2680 0021 03       		.uleb128 0x3
 2681 0022 0E       		.uleb128 0xe
 2682 0023 3A       		.uleb128 0x3a
 2683 0024 0B       		.uleb128 0xb
 2684 0025 3B       		.uleb128 0x3b
ARM GAS  C:\Users\RECEPC~1\AppData\Local\Temp\ccr4zYAx.s 			page 51


 2685 0026 0B       		.uleb128 0xb
 2686 0027 49       		.uleb128 0x49
 2687 0028 13       		.uleb128 0x13
 2688 0029 00       		.byte	0
 2689 002a 00       		.byte	0
 2690 002b 04       		.uleb128 0x4
 2691 002c 24       		.uleb128 0x24
 2692 002d 00       		.byte	0
 2693 002e 0B       		.uleb128 0xb
 2694 002f 0B       		.uleb128 0xb
 2695 0030 3E       		.uleb128 0x3e
 2696 0031 0B       		.uleb128 0xb
 2697 0032 03       		.uleb128 0x3
 2698 0033 08       		.uleb128 0x8
 2699 0034 00       		.byte	0
 2700 0035 00       		.byte	0
 2701 0036 05       		.uleb128 0x5
 2702 0037 16       		.uleb128 0x16
 2703 0038 00       		.byte	0
 2704 0039 03       		.uleb128 0x3
 2705 003a 0E       		.uleb128 0xe
 2706 003b 3A       		.uleb128 0x3a
 2707 003c 0B       		.uleb128 0xb
 2708 003d 3B       		.uleb128 0x3b
 2709 003e 05       		.uleb128 0x5
 2710 003f 49       		.uleb128 0x49
 2711 0040 13       		.uleb128 0x13
 2712 0041 00       		.byte	0
 2713 0042 00       		.byte	0
 2714 0043 06       		.uleb128 0x6
 2715 0044 35       		.uleb128 0x35
 2716 0045 00       		.byte	0
 2717 0046 49       		.uleb128 0x49
 2718 0047 13       		.uleb128 0x13
 2719 0048 00       		.byte	0
 2720 0049 00       		.byte	0
 2721 004a 07       		.uleb128 0x7
 2722 004b 01       		.uleb128 0x1
 2723 004c 01       		.byte	0x1
 2724 004d 49       		.uleb128 0x49
 2725 004e 13       		.uleb128 0x13
 2726 004f 01       		.uleb128 0x1
 2727 0050 13       		.uleb128 0x13
 2728 0051 00       		.byte	0
 2729 0052 00       		.byte	0
 2730 0053 08       		.uleb128 0x8
 2731 0054 21       		.uleb128 0x21
 2732 0055 00       		.byte	0
 2733 0056 49       		.uleb128 0x49
 2734 0057 13       		.uleb128 0x13
 2735 0058 2F       		.uleb128 0x2f
 2736 0059 0B       		.uleb128 0xb
 2737 005a 00       		.byte	0
 2738 005b 00       		.byte	0
 2739 005c 09       		.uleb128 0x9
 2740 005d 13       		.uleb128 0x13
 2741 005e 01       		.byte	0x1
ARM GAS  C:\Users\RECEPC~1\AppData\Local\Temp\ccr4zYAx.s 			page 52


 2742 005f 03       		.uleb128 0x3
 2743 0060 0E       		.uleb128 0xe
 2744 0061 0B       		.uleb128 0xb
 2745 0062 05       		.uleb128 0x5
 2746 0063 3A       		.uleb128 0x3a
 2747 0064 0B       		.uleb128 0xb
 2748 0065 3B       		.uleb128 0x3b
 2749 0066 0B       		.uleb128 0xb
 2750 0067 01       		.uleb128 0x1
 2751 0068 13       		.uleb128 0x13
 2752 0069 00       		.byte	0
 2753 006a 00       		.byte	0
 2754 006b 0A       		.uleb128 0xa
 2755 006c 0D       		.uleb128 0xd
 2756 006d 00       		.byte	0
 2757 006e 03       		.uleb128 0x3
 2758 006f 0E       		.uleb128 0xe
 2759 0070 3A       		.uleb128 0x3a
 2760 0071 0B       		.uleb128 0xb
 2761 0072 3B       		.uleb128 0x3b
 2762 0073 0B       		.uleb128 0xb
 2763 0074 49       		.uleb128 0x49
 2764 0075 13       		.uleb128 0x13
 2765 0076 38       		.uleb128 0x38
 2766 0077 0B       		.uleb128 0xb
 2767 0078 00       		.byte	0
 2768 0079 00       		.byte	0
 2769 007a 0B       		.uleb128 0xb
 2770 007b 0D       		.uleb128 0xd
 2771 007c 00       		.byte	0
 2772 007d 03       		.uleb128 0x3
 2773 007e 0E       		.uleb128 0xe
 2774 007f 3A       		.uleb128 0x3a
 2775 0080 0B       		.uleb128 0xb
 2776 0081 3B       		.uleb128 0x3b
 2777 0082 0B       		.uleb128 0xb
 2778 0083 49       		.uleb128 0x49
 2779 0084 13       		.uleb128 0x13
 2780 0085 38       		.uleb128 0x38
 2781 0086 05       		.uleb128 0x5
 2782 0087 00       		.byte	0
 2783 0088 00       		.byte	0
 2784 0089 0C       		.uleb128 0xc
 2785 008a 0D       		.uleb128 0xd
 2786 008b 00       		.byte	0
 2787 008c 03       		.uleb128 0x3
 2788 008d 08       		.uleb128 0x8
 2789 008e 3A       		.uleb128 0x3a
 2790 008f 0B       		.uleb128 0xb
 2791 0090 3B       		.uleb128 0x3b
 2792 0091 0B       		.uleb128 0xb
 2793 0092 49       		.uleb128 0x49
 2794 0093 13       		.uleb128 0x13
 2795 0094 38       		.uleb128 0x38
 2796 0095 0B       		.uleb128 0xb
 2797 0096 00       		.byte	0
 2798 0097 00       		.byte	0
ARM GAS  C:\Users\RECEPC~1\AppData\Local\Temp\ccr4zYAx.s 			page 53


 2799 0098 0D       		.uleb128 0xd
 2800 0099 0D       		.uleb128 0xd
 2801 009a 00       		.byte	0
 2802 009b 03       		.uleb128 0x3
 2803 009c 08       		.uleb128 0x8
 2804 009d 3A       		.uleb128 0x3a
 2805 009e 0B       		.uleb128 0xb
 2806 009f 3B       		.uleb128 0x3b
 2807 00a0 0B       		.uleb128 0xb
 2808 00a1 49       		.uleb128 0x49
 2809 00a2 13       		.uleb128 0x13
 2810 00a3 38       		.uleb128 0x38
 2811 00a4 05       		.uleb128 0x5
 2812 00a5 00       		.byte	0
 2813 00a6 00       		.byte	0
 2814 00a7 0E       		.uleb128 0xe
 2815 00a8 04       		.uleb128 0x4
 2816 00a9 01       		.byte	0x1
 2817 00aa 03       		.uleb128 0x3
 2818 00ab 0E       		.uleb128 0xe
 2819 00ac 0B       		.uleb128 0xb
 2820 00ad 0B       		.uleb128 0xb
 2821 00ae 3A       		.uleb128 0x3a
 2822 00af 0B       		.uleb128 0xb
 2823 00b0 3B       		.uleb128 0x3b
 2824 00b1 0B       		.uleb128 0xb
 2825 00b2 01       		.uleb128 0x1
 2826 00b3 13       		.uleb128 0x13
 2827 00b4 00       		.byte	0
 2828 00b5 00       		.byte	0
 2829 00b6 0F       		.uleb128 0xf
 2830 00b7 28       		.uleb128 0x28
 2831 00b8 00       		.byte	0
 2832 00b9 03       		.uleb128 0x3
 2833 00ba 0E       		.uleb128 0xe
 2834 00bb 1C       		.uleb128 0x1c
 2835 00bc 0D       		.uleb128 0xd
 2836 00bd 00       		.byte	0
 2837 00be 00       		.byte	0
 2838 00bf 10       		.uleb128 0x10
 2839 00c0 2E       		.uleb128 0x2e
 2840 00c1 01       		.byte	0x1
 2841 00c2 3F       		.uleb128 0x3f
 2842 00c3 19       		.uleb128 0x19
 2843 00c4 03       		.uleb128 0x3
 2844 00c5 0E       		.uleb128 0xe
 2845 00c6 3A       		.uleb128 0x3a
 2846 00c7 0B       		.uleb128 0xb
 2847 00c8 3B       		.uleb128 0x3b
 2848 00c9 0B       		.uleb128 0xb
 2849 00ca 11       		.uleb128 0x11
 2850 00cb 01       		.uleb128 0x1
 2851 00cc 12       		.uleb128 0x12
 2852 00cd 06       		.uleb128 0x6
 2853 00ce 40       		.uleb128 0x40
 2854 00cf 18       		.uleb128 0x18
 2855 00d0 9742     		.uleb128 0x2117
ARM GAS  C:\Users\RECEPC~1\AppData\Local\Temp\ccr4zYAx.s 			page 54


 2856 00d2 19       		.uleb128 0x19
 2857 00d3 01       		.uleb128 0x1
 2858 00d4 13       		.uleb128 0x13
 2859 00d5 00       		.byte	0
 2860 00d6 00       		.byte	0
 2861 00d7 11       		.uleb128 0x11
 2862 00d8 898201   		.uleb128 0x4109
 2863 00db 00       		.byte	0
 2864 00dc 11       		.uleb128 0x11
 2865 00dd 01       		.uleb128 0x1
 2866 00de 31       		.uleb128 0x31
 2867 00df 13       		.uleb128 0x13
 2868 00e0 00       		.byte	0
 2869 00e1 00       		.byte	0
 2870 00e2 12       		.uleb128 0x12
 2871 00e3 898201   		.uleb128 0x4109
 2872 00e6 01       		.byte	0x1
 2873 00e7 11       		.uleb128 0x11
 2874 00e8 01       		.uleb128 0x1
 2875 00e9 31       		.uleb128 0x31
 2876 00ea 13       		.uleb128 0x13
 2877 00eb 01       		.uleb128 0x1
 2878 00ec 13       		.uleb128 0x13
 2879 00ed 00       		.byte	0
 2880 00ee 00       		.byte	0
 2881 00ef 13       		.uleb128 0x13
 2882 00f0 8A8201   		.uleb128 0x410a
 2883 00f3 00       		.byte	0
 2884 00f4 02       		.uleb128 0x2
 2885 00f5 18       		.uleb128 0x18
 2886 00f6 9142     		.uleb128 0x2111
 2887 00f8 18       		.uleb128 0x18
 2888 00f9 00       		.byte	0
 2889 00fa 00       		.byte	0
 2890 00fb 14       		.uleb128 0x14
 2891 00fc 898201   		.uleb128 0x4109
 2892 00ff 01       		.byte	0x1
 2893 0100 11       		.uleb128 0x11
 2894 0101 01       		.uleb128 0x1
 2895 0102 31       		.uleb128 0x31
 2896 0103 13       		.uleb128 0x13
 2897 0104 00       		.byte	0
 2898 0105 00       		.byte	0
 2899 0106 15       		.uleb128 0x15
 2900 0107 34       		.uleb128 0x34
 2901 0108 00       		.byte	0
 2902 0109 03       		.uleb128 0x3
 2903 010a 0E       		.uleb128 0xe
 2904 010b 3A       		.uleb128 0x3a
 2905 010c 0B       		.uleb128 0xb
 2906 010d 3B       		.uleb128 0x3b
 2907 010e 0B       		.uleb128 0xb
 2908 010f 49       		.uleb128 0x49
 2909 0110 13       		.uleb128 0x13
 2910 0111 02       		.uleb128 0x2
 2911 0112 18       		.uleb128 0x18
 2912 0113 00       		.byte	0
ARM GAS  C:\Users\RECEPC~1\AppData\Local\Temp\ccr4zYAx.s 			page 55


 2913 0114 00       		.byte	0
 2914 0115 16       		.uleb128 0x16
 2915 0116 2E       		.uleb128 0x2e
 2916 0117 01       		.byte	0x1
 2917 0118 3F       		.uleb128 0x3f
 2918 0119 19       		.uleb128 0x19
 2919 011a 03       		.uleb128 0x3
 2920 011b 0E       		.uleb128 0xe
 2921 011c 3A       		.uleb128 0x3a
 2922 011d 0B       		.uleb128 0xb
 2923 011e 3B       		.uleb128 0x3b
 2924 011f 0B       		.uleb128 0xb
 2925 0120 27       		.uleb128 0x27
 2926 0121 19       		.uleb128 0x19
 2927 0122 11       		.uleb128 0x11
 2928 0123 01       		.uleb128 0x1
 2929 0124 12       		.uleb128 0x12
 2930 0125 06       		.uleb128 0x6
 2931 0126 40       		.uleb128 0x40
 2932 0127 18       		.uleb128 0x18
 2933 0128 9742     		.uleb128 0x2117
 2934 012a 19       		.uleb128 0x19
 2935 012b 01       		.uleb128 0x1
 2936 012c 13       		.uleb128 0x13
 2937 012d 00       		.byte	0
 2938 012e 00       		.byte	0
 2939 012f 17       		.uleb128 0x17
 2940 0130 34       		.uleb128 0x34
 2941 0131 00       		.byte	0
 2942 0132 03       		.uleb128 0x3
 2943 0133 08       		.uleb128 0x8
 2944 0134 3A       		.uleb128 0x3a
 2945 0135 0B       		.uleb128 0xb
 2946 0136 3B       		.uleb128 0x3b
 2947 0137 0B       		.uleb128 0xb
 2948 0138 49       		.uleb128 0x49
 2949 0139 13       		.uleb128 0x13
 2950 013a 02       		.uleb128 0x2
 2951 013b 17       		.uleb128 0x17
 2952 013c 00       		.byte	0
 2953 013d 00       		.byte	0
 2954 013e 18       		.uleb128 0x18
 2955 013f 2E       		.uleb128 0x2e
 2956 0140 01       		.byte	0x1
 2957 0141 3F       		.uleb128 0x3f
 2958 0142 19       		.uleb128 0x19
 2959 0143 03       		.uleb128 0x3
 2960 0144 0E       		.uleb128 0xe
 2961 0145 3A       		.uleb128 0x3a
 2962 0146 0B       		.uleb128 0xb
 2963 0147 3B       		.uleb128 0x3b
 2964 0148 0B       		.uleb128 0xb
 2965 0149 49       		.uleb128 0x49
 2966 014a 13       		.uleb128 0x13
 2967 014b 11       		.uleb128 0x11
 2968 014c 01       		.uleb128 0x1
 2969 014d 12       		.uleb128 0x12
ARM GAS  C:\Users\RECEPC~1\AppData\Local\Temp\ccr4zYAx.s 			page 56


 2970 014e 06       		.uleb128 0x6
 2971 014f 40       		.uleb128 0x40
 2972 0150 18       		.uleb128 0x18
 2973 0151 9742     		.uleb128 0x2117
 2974 0153 19       		.uleb128 0x19
 2975 0154 01       		.uleb128 0x1
 2976 0155 13       		.uleb128 0x13
 2977 0156 00       		.byte	0
 2978 0157 00       		.byte	0
 2979 0158 19       		.uleb128 0x19
 2980 0159 34       		.uleb128 0x34
 2981 015a 00       		.byte	0
 2982 015b 03       		.uleb128 0x3
 2983 015c 0E       		.uleb128 0xe
 2984 015d 3A       		.uleb128 0x3a
 2985 015e 0B       		.uleb128 0xb
 2986 015f 3B       		.uleb128 0x3b
 2987 0160 05       		.uleb128 0x5
 2988 0161 49       		.uleb128 0x49
 2989 0162 13       		.uleb128 0x13
 2990 0163 3F       		.uleb128 0x3f
 2991 0164 19       		.uleb128 0x19
 2992 0165 3C       		.uleb128 0x3c
 2993 0166 19       		.uleb128 0x19
 2994 0167 00       		.byte	0
 2995 0168 00       		.byte	0
 2996 0169 1A       		.uleb128 0x1a
 2997 016a 34       		.uleb128 0x34
 2998 016b 00       		.byte	0
 2999 016c 03       		.uleb128 0x3
 3000 016d 0E       		.uleb128 0xe
 3001 016e 3A       		.uleb128 0x3a
 3002 016f 0B       		.uleb128 0xb
 3003 0170 3B       		.uleb128 0x3b
 3004 0171 0B       		.uleb128 0xb
 3005 0172 49       		.uleb128 0x49
 3006 0173 13       		.uleb128 0x13
 3007 0174 3F       		.uleb128 0x3f
 3008 0175 19       		.uleb128 0x19
 3009 0176 02       		.uleb128 0x2
 3010 0177 18       		.uleb128 0x18
 3011 0178 00       		.byte	0
 3012 0179 00       		.byte	0
 3013 017a 1B       		.uleb128 0x1b
 3014 017b 2E       		.uleb128 0x2e
 3015 017c 00       		.byte	0
 3016 017d 3F       		.uleb128 0x3f
 3017 017e 19       		.uleb128 0x19
 3018 017f 03       		.uleb128 0x3
 3019 0180 0E       		.uleb128 0xe
 3020 0181 3A       		.uleb128 0x3a
 3021 0182 0B       		.uleb128 0xb
 3022 0183 3B       		.uleb128 0x3b
 3023 0184 0B       		.uleb128 0xb
 3024 0185 27       		.uleb128 0x27
 3025 0186 19       		.uleb128 0x19
 3026 0187 3C       		.uleb128 0x3c
ARM GAS  C:\Users\RECEPC~1\AppData\Local\Temp\ccr4zYAx.s 			page 57


 3027 0188 19       		.uleb128 0x19
 3028 0189 00       		.byte	0
 3029 018a 00       		.byte	0
 3030 018b 1C       		.uleb128 0x1c
 3031 018c 2E       		.uleb128 0x2e
 3032 018d 01       		.byte	0x1
 3033 018e 3F       		.uleb128 0x3f
 3034 018f 19       		.uleb128 0x19
 3035 0190 03       		.uleb128 0x3
 3036 0191 0E       		.uleb128 0xe
 3037 0192 3A       		.uleb128 0x3a
 3038 0193 0B       		.uleb128 0xb
 3039 0194 3B       		.uleb128 0x3b
 3040 0195 0B       		.uleb128 0xb
 3041 0196 27       		.uleb128 0x27
 3042 0197 19       		.uleb128 0x19
 3043 0198 49       		.uleb128 0x49
 3044 0199 13       		.uleb128 0x13
 3045 019a 3C       		.uleb128 0x3c
 3046 019b 19       		.uleb128 0x19
 3047 019c 01       		.uleb128 0x1
 3048 019d 13       		.uleb128 0x13
 3049 019e 00       		.byte	0
 3050 019f 00       		.byte	0
 3051 01a0 1D       		.uleb128 0x1d
 3052 01a1 05       		.uleb128 0x5
 3053 01a2 00       		.byte	0
 3054 01a3 49       		.uleb128 0x49
 3055 01a4 13       		.uleb128 0x13
 3056 01a5 00       		.byte	0
 3057 01a6 00       		.byte	0
 3058 01a7 1E       		.uleb128 0x1e
 3059 01a8 2E       		.uleb128 0x2e
 3060 01a9 01       		.byte	0x1
 3061 01aa 3F       		.uleb128 0x3f
 3062 01ab 19       		.uleb128 0x19
 3063 01ac 03       		.uleb128 0x3
 3064 01ad 0E       		.uleb128 0xe
 3065 01ae 3A       		.uleb128 0x3a
 3066 01af 0B       		.uleb128 0xb
 3067 01b0 3B       		.uleb128 0x3b
 3068 01b1 0B       		.uleb128 0xb
 3069 01b2 27       		.uleb128 0x27
 3070 01b3 19       		.uleb128 0x19
 3071 01b4 3C       		.uleb128 0x3c
 3072 01b5 19       		.uleb128 0x19
 3073 01b6 01       		.uleb128 0x1
 3074 01b7 13       		.uleb128 0x13
 3075 01b8 00       		.byte	0
 3076 01b9 00       		.byte	0
 3077 01ba 1F       		.uleb128 0x1f
 3078 01bb 0F       		.uleb128 0xf
 3079 01bc 00       		.byte	0
 3080 01bd 0B       		.uleb128 0xb
 3081 01be 0B       		.uleb128 0xb
 3082 01bf 49       		.uleb128 0x49
 3083 01c0 13       		.uleb128 0x13
ARM GAS  C:\Users\RECEPC~1\AppData\Local\Temp\ccr4zYAx.s 			page 58


 3084 01c1 00       		.byte	0
 3085 01c2 00       		.byte	0
 3086 01c3 20       		.uleb128 0x20
 3087 01c4 2E       		.uleb128 0x2e
 3088 01c5 00       		.byte	0
 3089 01c6 3F       		.uleb128 0x3f
 3090 01c7 19       		.uleb128 0x19
 3091 01c8 03       		.uleb128 0x3
 3092 01c9 0E       		.uleb128 0xe
 3093 01ca 3A       		.uleb128 0x3a
 3094 01cb 0B       		.uleb128 0xb
 3095 01cc 3B       		.uleb128 0x3b
 3096 01cd 0B       		.uleb128 0xb
 3097 01ce 27       		.uleb128 0x27
 3098 01cf 19       		.uleb128 0x19
 3099 01d0 49       		.uleb128 0x49
 3100 01d1 13       		.uleb128 0x13
 3101 01d2 3C       		.uleb128 0x3c
 3102 01d3 19       		.uleb128 0x19
 3103 01d4 00       		.byte	0
 3104 01d5 00       		.byte	0
 3105 01d6 21       		.uleb128 0x21
 3106 01d7 2E       		.uleb128 0x2e
 3107 01d8 01       		.byte	0x1
 3108 01d9 3F       		.uleb128 0x3f
 3109 01da 19       		.uleb128 0x19
 3110 01db 03       		.uleb128 0x3
 3111 01dc 0E       		.uleb128 0xe
 3112 01dd 3A       		.uleb128 0x3a
 3113 01de 0B       		.uleb128 0xb
 3114 01df 3B       		.uleb128 0x3b
 3115 01e0 0B       		.uleb128 0xb
 3116 01e1 27       		.uleb128 0x27
 3117 01e2 19       		.uleb128 0x19
 3118 01e3 3C       		.uleb128 0x3c
 3119 01e4 19       		.uleb128 0x19
 3120 01e5 00       		.byte	0
 3121 01e6 00       		.byte	0
 3122 01e7 00       		.byte	0
 3123              		.section	.debug_loc,"",%progbits
 3124              	.Ldebug_loc0:
 3125              	.LLST0:
 3126 0000 02000000 		.4byte	.LVL28
 3127 0004 06000000 		.4byte	.LVL29
 3128 0008 0200     		.2byte	0x2
 3129 000a 30       		.byte	0x30
 3130 000b 9F       		.byte	0x9f
 3131 000c 06000000 		.4byte	.LVL29
 3132 0010 10000000 		.4byte	.LVL30
 3133 0014 0100     		.2byte	0x1
 3134 0016 53       		.byte	0x53
 3135 0017 12000000 		.4byte	.LVL31
 3136 001b 18000000 		.4byte	.LVL32
 3137 001f 0100     		.2byte	0x1
 3138 0021 53       		.byte	0x53
 3139 0022 00000000 		.4byte	0
 3140 0026 00000000 		.4byte	0
ARM GAS  C:\Users\RECEPC~1\AppData\Local\Temp\ccr4zYAx.s 			page 59


 3141              	.LLST1:
 3142 002a 04000000 		.4byte	.LVL48
 3143 002e 08000000 		.4byte	.LVL49
 3144 0032 0200     		.2byte	0x2
 3145 0034 30       		.byte	0x30
 3146 0035 9F       		.byte	0x9f
 3147 0036 08000000 		.4byte	.LVL49
 3148 003a 10000000 		.4byte	.LVL50
 3149 003e 0100     		.2byte	0x1
 3150 0040 53       		.byte	0x53
 3151 0041 12000000 		.4byte	.LVL51
 3152 0045 19000000 		.4byte	.LVL52-1
 3153 0049 0100     		.2byte	0x1
 3154 004b 53       		.byte	0x53
 3155 004c 00000000 		.4byte	0
 3156 0050 00000000 		.4byte	0
 3157              		.section	.debug_aranges,"",%progbits
 3158 0000 44000000 		.4byte	0x44
 3159 0004 0200     		.2byte	0x2
 3160 0006 00000000 		.4byte	.Ldebug_info0
 3161 000a 04       		.byte	0x4
 3162 000b 00       		.byte	0
 3163 000c 0000     		.2byte	0
 3164 000e 0000     		.2byte	0
 3165 0010 00000000 		.4byte	.LFB63
 3166 0014 1C000000 		.4byte	.LFE63-.LFB63
 3167 0018 00000000 		.4byte	.LFB64
 3168 001c 58000000 		.4byte	.LFE64-.LFB64
 3169 0020 00000000 		.4byte	.LFB65
 3170 0024 30010000 		.4byte	.LFE65-.LFB65
 3171 0028 00000000 		.4byte	.LFB66
 3172 002c 24000000 		.4byte	.LFE66-.LFB66
 3173 0030 00000000 		.4byte	.LFB67
 3174 0034 BC000000 		.4byte	.LFE67-.LFB67
 3175 0038 00000000 		.4byte	.LFB68
 3176 003c 3C000000 		.4byte	.LFE68-.LFB68
 3177 0040 00000000 		.4byte	0
 3178 0044 00000000 		.4byte	0
 3179              		.section	.debug_ranges,"",%progbits
 3180              	.Ldebug_ranges0:
 3181 0000 00000000 		.4byte	.LFB63
 3182 0004 1C000000 		.4byte	.LFE63
 3183 0008 00000000 		.4byte	.LFB64
 3184 000c 58000000 		.4byte	.LFE64
 3185 0010 00000000 		.4byte	.LFB65
 3186 0014 30010000 		.4byte	.LFE65
 3187 0018 00000000 		.4byte	.LFB66
 3188 001c 24000000 		.4byte	.LFE66
 3189 0020 00000000 		.4byte	.LFB67
 3190 0024 BC000000 		.4byte	.LFE67
 3191 0028 00000000 		.4byte	.LFB68
 3192 002c 3C000000 		.4byte	.LFE68
 3193 0030 00000000 		.4byte	0
 3194 0034 00000000 		.4byte	0
 3195              		.section	.debug_line,"",%progbits
 3196              	.Ldebug_line0:
 3197 0000 BA020000 		.section	.debug_str,"MS",%progbits,1
ARM GAS  C:\Users\RECEPC~1\AppData\Local\Temp\ccr4zYAx.s 			page 60


 3197      0200D201 
 3197      00000201 
 3197      FB0E0D00 
 3197      01010101 
 3198              	.LASF209:
 3199 0000 43794465 		.ascii	"CyDelay\000"
 3199      6C617900 
 3200              	.LASF120:
 3201 0008 44495350 		.ascii	"DISPLAY_HORA\000"
 3201      4C41595F 
 3201      484F5241 
 3201      00
 3202              	.LASF96:
 3203 0015 44495350 		.ascii	"DISPLAY_INGRESE_PASSWORD\000"
 3203      4C41595F 
 3203      494E4752 
 3203      4553455F 
 3203      50415353 
 3204              	.LASF129:
 3205 002e 44495350 		.ascii	"DISPLAY_IMPRESORA_NO_FUNCIONANDO\000"
 3205      4C41595F 
 3205      494D5052 
 3205      45534F52 
 3205      415F4E4F 
 3206              	.LASF118:
 3207 004f 44495350 		.ascii	"DISPLAY_AUTORIZACION_RECHAZADA\000"
 3207      4C41595F 
 3207      4155544F 
 3207      52495A41 
 3207      43494F4E 
 3208              	.LASF213:
 3209 006e 43795764 		.ascii	"CyWdtClear\000"
 3209      74436C65 
 3209      617200
 3210              	.LASF171:
 3211 0079 64656369 		.ascii	"decimalVolume\000"
 3211      6D616C56 
 3211      6F6C756D 
 3211      6500
 3212              	.LASF178:
 3213 0087 74656D70 		.ascii	"temporalCom\000"
 3213      6F72616C 
 3213      436F6D00 
 3214              	.LASF138:
 3215 0093 476C6F62 		.ascii	"GlobalInitializer\000"
 3215      616C496E 
 3215      69746961 
 3215      6C697A65 
 3215      7200
 3216              	.LASF57:
 3217 00a5 6D657373 		.ascii	"message\000"
 3217      61676500 
 3218              	.LASF131:
 3219 00ad 44495350 		.ascii	"DISPLAY_PRECIO_POR_UNIDAD\000"
 3219      4C41595F 
 3219      50524543 
 3219      494F5F50 
ARM GAS  C:\Users\RECEPC~1\AppData\Local\Temp\ccr4zYAx.s 			page 61


 3219      4F525F55 
 3220              	.LASF193:
 3221 00c7 73746174 		.ascii	"statePump\000"
 3221      6550756D 
 3221      7000
 3222              	.LASF72:
 3223 00d1 62756666 		.ascii	"buffer\000"
 3223      657200
 3224              	.LASF159:
 3225 00d8 69704164 		.ascii	"ipAdress\000"
 3225      72657373 
 3225      00
 3226              	.LASF170:
 3227 00e1 64656369 		.ascii	"decimalMoney\000"
 3227      6D616C4D 
 3227      6F6E6579 
 3227      00
 3228              	.LASF35:
 3229 00ee 73616C65 		.ascii	"salePerform\000"
 3229      50657266 
 3229      6F726D00 
 3230              	.LASF10:
 3231 00fa 756E7369 		.ascii	"unsigned int\000"
 3231      676E6564 
 3231      20696E74 
 3231      00
 3232              	.LASF62:
 3233 0107 70726F64 		.ascii	"productMarket\000"
 3233      7563744D 
 3233      61726B65 
 3233      7400
 3234              	.LASF204:
 3235 0115 44697370 		.ascii	"Display2_Start\000"
 3235      6C617932 
 3235      5F537461 
 3235      727400
 3236              	.LASF5:
 3237 0124 5F5F696E 		.ascii	"__int32_t\000"
 3237      7433325F 
 3237      7400
 3238              	.LASF143:
 3239 012e 556E6974 		.ascii	"Unit2\000"
 3239      3200
 3240              	.LASF55:
 3241 0134 666C6167 		.ascii	"flagLiftHandle\000"
 3241      4C696674 
 3241      48616E64 
 3241      6C6500
 3242              	.LASF145:
 3243 0143 556E6974 		.ascii	"Unit4\000"
 3243      3400
 3244              	.LASF98:
 3245 0149 44495350 		.ascii	"DISPLAY_PASSWORD_INVALIDO\000"
 3245      4C41595F 
 3245      50415353 
 3245      574F5244 
 3245      5F494E56 
ARM GAS  C:\Users\RECEPC~1\AppData\Local\Temp\ccr4zYAx.s 			page 62


 3246              	.LASF176:
 3247 0163 72657369 		.ascii	"residue\000"
 3247      64756500 
 3248              	.LASF22:
 3249 016b 69645479 		.ascii	"idType\000"
 3249      706500
 3250              	.LASF136:
 3251 0172 44495350 		.ascii	"DISPLAY_SIDE_DUMMY_DISPLAY\000"
 3251      4C41595F 
 3251      53494445 
 3251      5F44554D 
 3251      4D595F44 
 3252              	.LASF192:
 3253 018d 44444D6F 		.ascii	"DDMode\000"
 3253      646500
 3254              	.LASF198:
 3255 0194 73696465 		.ascii	"side\000"
 3255      00
 3256              	.LASF200:
 3257 0199 4D757856 		.ascii	"MuxVersion\000"
 3257      65727369 
 3257      6F6E00
 3258              	.LASF88:
 3259 01a4 44495350 		.ascii	"DISPLAY_INTRODUZCA_VALOR2\000"
 3259      4C41595F 
 3259      494E5452 
 3259      4F44555A 
 3259      43415F56 
 3260              	.LASF203:
 3261 01be 44697370 		.ascii	"Display1_Start\000"
 3261      6C617931 
 3261      5F537461 
 3261      727400
 3262              	.LASF144:
 3263 01cd 556E6974 		.ascii	"Unit3\000"
 3263      3300
 3264              	.LASF27:
 3265 01d3 73656C65 		.ascii	"selectedSale\000"
 3265      63746564 
 3265      53616C65 
 3265      00
 3266              	.LASF63:
 3267 01e0 7175616E 		.ascii	"quantityMarket\000"
 3267      74697479 
 3267      4D61726B 
 3267      657400
 3268              	.LASF163:
 3269 01ef 666C6167 		.ascii	"flagPoint2\000"
 3269      506F696E 
 3269      743200
 3270              	.LASF175:
 3271 01fa 73637265 		.ascii	"screen\000"
 3271      656E00
 3272              	.LASF59:
 3273 0201 766F6C75 		.ascii	"volumeQuota\000"
 3273      6D655175 
 3273      6F746100 
ARM GAS  C:\Users\RECEPC~1\AppData\Local\Temp\ccr4zYAx.s 			page 63


 3274              	.LASF95:
 3275 020d 44495350 		.ascii	"DISPLAY_DESEA_IMPRIMIR_RECIBO\000"
 3275      4C41595F 
 3275      44455345 
 3275      415F494D 
 3275      5052494D 
 3276              	.LASF117:
 3277 022b 44495350 		.ascii	"DISPLAY_AUTORIZACION_ACEPTADA\000"
 3277      4C41595F 
 3277      4155544F 
 3277      52495A41 
 3277      43494F4E 
 3278              	.LASF16:
 3279 0249 666C6F61 		.ascii	"float\000"
 3279      7400
 3280              	.LASF128:
 3281 024f 44495350 		.ascii	"DISPLAY_AMBAS_IMPRESORAS_FUNCIONANDO\000"
 3281      4C41595F 
 3281      414D4241 
 3281      535F494D 
 3281      50524553 
 3282              	.LASF104:
 3283 0274 44495350 		.ascii	"DISPLAY_ESPERANDO_ID\000"
 3283      4C41595F 
 3283      45535045 
 3283      52414E44 
 3283      4F5F4944 
 3284              	.LASF189:
 3285 0289 4D6F6E65 		.ascii	"MoneyDec\000"
 3285      79446563 
 3285      00
 3286              	.LASF186:
 3287 0292 50726576 		.ascii	"PrevStatePump\000"
 3287      53746174 
 3287      6550756D 
 3287      7000
 3288              	.LASF142:
 3289 02a0 556E6974 		.ascii	"Unit\000"
 3289      00
 3290              	.LASF9:
 3291 02a5 6C6F6E67 		.ascii	"long long unsigned int\000"
 3291      206C6F6E 
 3291      6720756E 
 3291      7369676E 
 3291      65642069 
 3292              	.LASF107:
 3293 02bc 44495350 		.ascii	"DISPLAY_INTRODUZCA_VOLUMEN\000"
 3293      4C41595F 
 3293      494E5452 
 3293      4F44555A 
 3293      43415F56 
 3294              	.LASF45:
 3295 02d7 746F7461 		.ascii	"totalVolumePrevious\000"
 3295      6C566F6C 
 3295      756D6550 
 3295      72657669 
 3295      6F757300 
ARM GAS  C:\Users\RECEPC~1\AppData\Local\Temp\ccr4zYAx.s 			page 64


 3296              	.LASF110:
 3297 02eb 44495350 		.ascii	"DISPLAY_CONFIGURACIONES\000"
 3297      4C41595F 
 3297      434F4E46 
 3297      49475552 
 3297      4143494F 
 3298              	.LASF115:
 3299 0303 44495350 		.ascii	"DISPLAY_ESPERANDO_AUTORIZACION\000"
 3299      4C41595F 
 3299      45535045 
 3299      52414E44 
 3299      4F5F4155 
 3300              	.LASF158:
 3301 0322 64696769 		.ascii	"digits\000"
 3301      747300
 3302              	.LASF148:
 3303 0329 496E6974 		.ascii	"InitPump\000"
 3303      50756D70 
 3303      00
 3304              	.LASF173:
 3305 0332 74696D65 		.ascii	"time\000"
 3305      00
 3306              	.LASF38:
 3307 0337 70726F64 		.ascii	"productType\000"
 3307      75637454 
 3307      79706500 
 3308              	.LASF165:
 3309 0343 70726F64 		.ascii	"productNumber\000"
 3309      7563744E 
 3309      756D6265 
 3309      7200
 3310              	.LASF41:
 3311 0351 64617465 		.ascii	"dateDownHandle\000"
 3311      446F776E 
 3311      48616E64 
 3311      6C6500
 3312              	.LASF23:
 3313 0360 69645365 		.ascii	"idSerial\000"
 3313      7269616C 
 3313      00
 3314              	.LASF180:
 3315 0369 6C6F636B 		.ascii	"lockTurn\000"
 3315      5475726E 
 3315      00
 3316              	.LASF51:
 3317 0372 6D696C65 		.ascii	"mileageSale\000"
 3317      61676553 
 3317      616C6500 
 3318              	.LASF71:
 3319 037e 666C6167 		.ascii	"flagChangePPU\000"
 3319      4368616E 
 3319      67655050 
 3319      5500
 3320              	.LASF84:
 3321 038c 44495350 		.ascii	"DISPLAY_INICIO2\000"
 3321      4C41595F 
 3321      494E4943 
ARM GAS  C:\Users\RECEPC~1\AppData\Local\Temp\ccr4zYAx.s 			page 65


 3321      494F3200 
 3322              	.LASF164:
 3323 039c 62757474 		.ascii	"button\000"
 3323      6F6E00
 3324              	.LASF156:
 3325 03a3 666C6F77 		.ascii	"flowDisplay1\000"
 3325      44697370 
 3325      6C617931 
 3325      00
 3326              	.LASF147:
 3327 03b0 44697370 		.ascii	"DisplayMode2\000"
 3327      6C61794D 
 3327      6F646532 
 3327      00
 3328              	.LASF201:
 3329 03bd 45455052 		.ascii	"EEPROM_1_Start\000"
 3329      4F4D5F31 
 3329      5F537461 
 3329      727400
 3330              	.LASF218:
 3331 03cc 6765745F 		.ascii	"get_position\000"
 3331      706F7369 
 3331      74696F6E 
 3331      00
 3332              	.LASF61:
 3333 03d9 73657269 		.ascii	"serialMarket\000"
 3333      616C4D61 
 3333      726B6574 
 3333      00
 3334              	.LASF74:
 3335 03e6 746F7461 		.ascii	"totalsHandle\000"
 3335      6C734861 
 3335      6E646C65 
 3335      00
 3336              	.LASF37:
 3337 03f3 70726573 		.ascii	"presetValue\000"
 3337      65745661 
 3337      6C756500 
 3338              	.LASF219:
 3339 03ff 53686F77 		.ascii	"ShowRectangle\000"
 3339      52656374 
 3339      616E676C 
 3339      6500
 3340              	.LASF179:
 3341 040d 7475726E 		.ascii	"turn\000"
 3341      00
 3342              	.LASF85:
 3343 0412 44495350 		.ascii	"DISPLAY_FORMA_PAGO_DESEADA\000"
 3343      4C41595F 
 3343      464F524D 
 3343      415F5041 
 3343      474F5F44 
 3344              	.LASF52:
 3345 042d 6964656E 		.ascii	"identySale\000"
 3345      74795361 
 3345      6C6500
 3346              	.LASF34:
ARM GAS  C:\Users\RECEPC~1\AppData\Local\Temp\ccr4zYAx.s 			page 66


 3347 0438 73616C65 		.ascii	"saleType\000"
 3347      54797065 
 3347      00
 3348              	.LASF32:
 3349 0441 76616C75 		.ascii	"valueKeys\000"
 3349      654B6579 
 3349      7300
 3350              	.LASF19:
 3351 044b 63686172 		.ascii	"char\000"
 3351      00
 3352              	.LASF188:
 3353 0450 436F6E76 		.ascii	"ConversionFactor\000"
 3353      65727369 
 3353      6F6E4661 
 3353      63746F72 
 3353      00
 3354              	.LASF160:
 3355 0461 6E756D62 		.ascii	"numberKeys1\000"
 3355      65724B65 
 3355      79733100 
 3356              	.LASF161:
 3357 046d 6E756D62 		.ascii	"numberKeys2\000"
 3357      65724B65 
 3357      79733200 
 3358              	.LASF154:
 3359 0479 636F756E 		.ascii	"countBeagleTX\000"
 3359      74426561 
 3359      676C6554 
 3359      5800
 3360              	.LASF202:
 3361 0487 50756D70 		.ascii	"Pump_Start\000"
 3361      5F537461 
 3361      727400
 3362              	.LASF82:
 3363 0492 44495350 		.ascii	"DISPLAY_INICIO0\000"
 3363      4C41595F 
 3363      494E4943 
 3363      494F3000 
 3364              	.LASF83:
 3365 04a2 44495350 		.ascii	"DISPLAY_INICIO1\000"
 3365      4C41595F 
 3365      494E4943 
 3365      494F3100 
 3366              	.LASF14:
 3367 04b2 75696E74 		.ascii	"uint16\000"
 3367      313600
 3368              	.LASF86:
 3369 04b9 44495350 		.ascii	"DISPLAY_FORMA_PROGRAMACION\000"
 3369      4C41595F 
 3369      464F524D 
 3369      415F5052 
 3369      4F475241 
 3370              	.LASF174:
 3371 04d4 64617465 		.ascii	"date\000"
 3371      00
 3372              	.LASF11:
 3373 04d9 75696E74 		.ascii	"uint8_t\000"
ARM GAS  C:\Users\RECEPC~1\AppData\Local\Temp\ccr4zYAx.s 			page 67


 3373      385F7400 
 3374              	.LASF54:
 3375 04e1 666C6167 		.ascii	"flagPayment\000"
 3375      5061796D 
 3375      656E7400 
 3376              	.LASF24:
 3377 04ed 69645365 		.ascii	"idSerialCom\000"
 3377      7269616C 
 3377      436F6D00 
 3378              	.LASF108:
 3379 04f9 44495350 		.ascii	"DISPLAY_INTRODUZCA_KILOMETRAJE\000"
 3379      4C41595F 
 3379      494E5452 
 3379      4F44555A 
 3379      43415F4B 
 3380              	.LASF60:
 3381 0518 70707551 		.ascii	"ppuQuota\000"
 3381      756F7461 
 3381      00
 3382              	.LASF47:
 3383 0521 746F7461 		.ascii	"totalMoneyAfter\000"
 3383      6C4D6F6E 
 3383      65794166 
 3383      74657200 
 3384              	.LASF58:
 3385 0531 6D6F6E65 		.ascii	"moneyQuota\000"
 3385      7951756F 
 3385      746100
 3386              	.LASF70:
 3387 053c 7072696E 		.ascii	"printers\000"
 3387      74657273 
 3387      00
 3388              	.LASF146:
 3389 0545 44697370 		.ascii	"DisplayMode\000"
 3389      6C61794D 
 3389      6F646500 
 3390              	.LASF166:
 3391 0551 70726573 		.ascii	"presetFast\000"
 3391      65744661 
 3391      737400
 3392              	.LASF76:
 3393 055c 6D6F6E65 		.ascii	"moneySale\000"
 3393      7953616C 
 3393      6500
 3394              	.LASF8:
 3395 0566 6C6F6E67 		.ascii	"long long int\000"
 3395      206C6F6E 
 3395      6720696E 
 3395      7400
 3396              	.LASF210:
 3397 0574 45455052 		.ascii	"EEPROM_1_WriteByte\000"
 3397      4F4D5F31 
 3397      5F577269 
 3397      74654279 
 3397      746500
 3398              	.LASF91:
 3399 0587 44495350 		.ascii	"DISPLAY_SUBA_MANIJA\000"
ARM GAS  C:\Users\RECEPC~1\AppData\Local\Temp\ccr4zYAx.s 			page 68


 3399      4C41595F 
 3399      53554241 
 3399      5F4D414E 
 3399      494A4100 
 3400              	.LASF130:
 3401 059b 44495350 		.ascii	"DISPLAY_IDENTIFICADOR_ESTACION\000"
 3401      4C41595F 
 3401      4944454E 
 3401      54494649 
 3401      4341444F 
 3402              	.LASF78:
 3403 05ba 70707553 		.ascii	"ppuSale\000"
 3403      616C6500 
 3404              	.LASF152:
 3405 05c2 636F756E 		.ascii	"countAnimation1\000"
 3405      74416E69 
 3405      6D617469 
 3405      6F6E3100 
 3406              	.LASF199:
 3407 05d2 4E756D50 		.ascii	"NumPositions\000"
 3407      6F736974 
 3407      696F6E73 
 3407      00
 3408              	.LASF185:
 3409 05df 73746174 		.ascii	"stateBeagleSoft\000"
 3409      65426561 
 3409      676C6553 
 3409      6F667400 
 3410              	.LASF123:
 3411 05ef 44495350 		.ascii	"DISPLAY_ABRIR_TURNO\000"
 3411      4C41595F 
 3411      41425249 
 3411      525F5455 
 3411      524E4F00 
 3412              	.LASF46:
 3413 0603 746F7461 		.ascii	"totalPPUPrevious\000"
 3413      6C505055 
 3413      50726576 
 3413      696F7573 
 3413      00
 3414              	.LASF153:
 3415 0614 636F756E 		.ascii	"countAnimation2\000"
 3415      74416E69 
 3415      6D617469 
 3415      6F6E3200 
 3416              	.LASF137:
 3417 0624 44495350 		.ascii	"DISPLAY_NULL\000"
 3417      4C41595F 
 3417      4E554C4C 
 3417      00
 3418              	.LASF67:
 3419 0631 746F7461 		.ascii	"totalMarket\000"
 3419      6C4D6172 
 3419      6B657400 
 3420              	.LASF43:
 3421 063d 74696D65 		.ascii	"timeDownHandle\000"
 3421      446F776E 
ARM GAS  C:\Users\RECEPC~1\AppData\Local\Temp\ccr4zYAx.s 			page 69


 3421      48616E64 
 3421      6C6500
 3422              	.LASF141:
 3423 064c 696E6954 		.ascii	"iniText\000"
 3423      65787400 
 3424              	.LASF33:
 3425 0654 76656869 		.ascii	"vehicleType\000"
 3425      636C6554 
 3425      79706500 
 3426              	.LASF53:
 3427 0660 666C6167 		.ascii	"flagKeyboard\000"
 3427      4B657962 
 3427      6F617264 
 3427      00
 3428              	.LASF211:
 3429 066d 50756D70 		.ascii	"PumpCompleteConfiguration\000"
 3429      436F6D70 
 3429      6C657465 
 3429      436F6E66 
 3429      69677572 
 3430              	.LASF15:
 3431 0687 75696E74 		.ascii	"uint32\000"
 3431      333200
 3432              	.LASF184:
 3433 068e 666C6167 		.ascii	"flagResetMux\000"
 3433      52657365 
 3433      744D7578 
 3433      00
 3434              	.LASF92:
 3435 069b 44495350 		.ascii	"DISPLAY_DESPACHANDO\000"
 3435      4C41595F 
 3435      44455350 
 3435      41434841 
 3435      4E444F00 
 3436              	.LASF207:
 3437 06af 53657450 		.ascii	"SetPicture\000"
 3437      69637475 
 3437      726500
 3438              	.LASF149:
 3439 06ba 506F6C6C 		.ascii	"PollingPump\000"
 3439      696E6750 
 3439      756D7000 
 3440              	.LASF105:
 3441 06c6 44495350 		.ascii	"DISPLAY_ID_RECONOCIDO\000"
 3441      4C41595F 
 3441      49445F52 
 3441      45434F4E 
 3441      4F434944 
 3442              	.LASF49:
 3443 06dc 746F7461 		.ascii	"totalPPUAfter\000"
 3443      6C505055 
 3443      41667465 
 3443      7200
 3444              	.LASF30:
 3445 06ea 6B657962 		.ascii	"keyboardWayToPay\000"
 3445      6F617264 
 3445      57617954 
ARM GAS  C:\Users\RECEPC~1\AppData\Local\Temp\ccr4zYAx.s 			page 70


 3445      6F506179 
 3445      00
 3446              	.LASF169:
 3447 06fb 70707578 		.ascii	"ppux10\000"
 3447      313000
 3448              	.LASF44:
 3449 0702 746F7461 		.ascii	"totalMoneyPrevious\000"
 3449      6C4D6F6E 
 3449      65795072 
 3449      6576696F 
 3449      757300
 3450              	.LASF94:
 3451 0715 44495350 		.ascii	"DISPLAY_DIGITE_PLACA\000"
 3451      4C41595F 
 3451      44494749 
 3451      54455F50 
 3451      4C414341 
 3452              	.LASF162:
 3453 072a 666C6167 		.ascii	"flagPoint1\000"
 3453      506F696E 
 3453      743100
 3454              	.LASF28:
 3455 0735 6D6F6E65 		.ascii	"moneySelectedSale\000"
 3455      7953656C 
 3455      65637465 
 3455      6453616C 
 3455      6500
 3456              	.LASF172:
 3457 0747 73796D62 		.ascii	"symbols\000"
 3457      6F6C7300 
 3458              	.LASF121:
 3459 074f 44495350 		.ascii	"DISPLAY_FECHA\000"
 3459      4C41595F 
 3459      46454348 
 3459      4100
 3460              	.LASF87:
 3461 075d 44495350 		.ascii	"DISPLAY_INTRODUZCA_VALOR\000"
 3461      4C41595F 
 3461      494E5452 
 3461      4F44555A 
 3461      43415F56 
 3462              	.LASF50:
 3463 0776 6C696365 		.ascii	"licenceSale\000"
 3463      6E636553 
 3463      616C6500 
 3464              	.LASF69:
 3465 0782 70726963 		.ascii	"priceConsign\000"
 3465      65436F6E 
 3465      7369676E 
 3465      00
 3466              	.LASF2:
 3467 078f 73686F72 		.ascii	"short int\000"
 3467      7420696E 
 3467      7400
 3468              	.LASF6:
 3469 0799 6C6F6E67 		.ascii	"long int\000"
 3469      20696E74 
ARM GAS  C:\Users\RECEPC~1\AppData\Local\Temp\ccr4zYAx.s 			page 71


 3469      00
 3470              	.LASF151:
 3471 07a2 49544D5F 		.ascii	"ITM_RxBuffer\000"
 3471      52784275 
 3471      66666572 
 3471      00
 3472              	.LASF100:
 3473 07af 44495350 		.ascii	"DISPLAY_TIEMPO_EXPIRADO\000"
 3473      4C41595F 
 3473      5449454D 
 3473      504F5F45 
 3473      58504952 
 3474              	.LASF127:
 3475 07c7 44495350 		.ascii	"DISPLAY_USUARIO_INVALIDO\000"
 3475      4C41595F 
 3475      55535541 
 3475      52494F5F 
 3475      494E5641 
 3476              	.LASF99:
 3477 07e0 44495350 		.ascii	"DISPLAY_NUEVO_PASSWORD\000"
 3477      4C41595F 
 3477      4E554556 
 3477      4F5F5041 
 3477      5353574F 
 3478              	.LASF119:
 3479 07f7 44495350 		.ascii	"DISPLAY_CONFIGURAR_FECHA_HORA\000"
 3479      4C41595F 
 3479      434F4E46 
 3479      49475552 
 3479      41525F46 
 3480              	.LASF116:
 3481 0815 44495350 		.ascii	"DISPLAY_POR_FAVOR_ESPERE\000"
 3481      4C41595F 
 3481      504F525F 
 3481      4641564F 
 3481      525F4553 
 3482              	.LASF157:
 3483 082e 666C6F77 		.ascii	"flowDisplay2\000"
 3483      44697370 
 3483      6C617932 
 3483      00
 3484              	.LASF56:
 3485 083b 666C6167 		.ascii	"flagEndSale\000"
 3485      456E6453 
 3485      616C6500 
 3486              	.LASF106:
 3487 0847 44495350 		.ascii	"DISPLAY_INTRODUZCA_CEDULA\000"
 3487      4C41595F 
 3487      494E5452 
 3487      4F44555A 
 3487      43415F43 
 3488              	.LASF140:
 3489 0861 496E6974 		.ascii	"InitLCD\000"
 3489      4C434400 
 3490              	.LASF112:
 3491 0869 44495350 		.ascii	"DISPLAY_IMPRIMIENDO_RECIBO\000"
 3491      4C41595F 
ARM GAS  C:\Users\RECEPC~1\AppData\Local\Temp\ccr4zYAx.s 			page 72


 3491      494D5052 
 3491      494D4945 
 3491      4E444F5F 
 3492              	.LASF40:
 3493 0884 64617465 		.ascii	"dateLiftHandle\000"
 3493      4C696674 
 3493      48616E64 
 3493      6C6500
 3494              	.LASF195:
 3495 0893 62756666 		.ascii	"bufferDisplay2\000"
 3495      65724469 
 3495      73706C61 
 3495      793200
 3496              	.LASF196:
 3497 08a2 62756666 		.ascii	"bufferDisplay3\000"
 3497      65724469 
 3497      73706C61 
 3497      793300
 3498              	.LASF102:
 3499 08b1 44495350 		.ascii	"DISPLAY_ID_DIGITAL\000"
 3499      4C41595F 
 3499      49445F44 
 3499      49474954 
 3499      414C00
 3500              	.LASF109:
 3501 08c4 44495350 		.ascii	"DISPLAY_OPERACIONES\000"
 3501      4C41595F 
 3501      4F504552 
 3501      4143494F 
 3501      4E455300 
 3502              	.LASF4:
 3503 08d8 5F5F7569 		.ascii	"__uint8_t\000"
 3503      6E74385F 
 3503      7400
 3504              	.LASF183:
 3505 08e2 70617373 		.ascii	"passwordSeller\000"
 3505      776F7264 
 3505      53656C6C 
 3505      657200
 3506              	.LASF48:
 3507 08f1 746F7461 		.ascii	"totalVolumeAfter\000"
 3507      6C566F6C 
 3507      756D6541 
 3507      66746572 
 3507      00
 3508              	.LASF187:
 3509 0902 556E6974 		.ascii	"UnitType\000"
 3509      54797065 
 3509      00
 3510              	.LASF18:
 3511 090b 75696E74 		.ascii	"uint64\000"
 3511      363400
 3512              	.LASF167:
 3513 0912 64656C61 		.ascii	"delayPicture1\000"
 3513      79506963 
 3513      74757265 
 3513      3100
ARM GAS  C:\Users\RECEPC~1\AppData\Local\Temp\ccr4zYAx.s 			page 73


 3514              	.LASF168:
 3515 0920 64656C61 		.ascii	"delayPicture2\000"
 3515      79506963 
 3515      74757265 
 3515      3200
 3516              	.LASF39:
 3517 092e 73746174 		.ascii	"stateMux\000"
 3517      654D7578 
 3517      00
 3518              	.LASF21:
 3519 0937 73697A65 		.ascii	"sizetype\000"
 3519      74797065 
 3519      00
 3520              	.LASF7:
 3521 0940 6C6F6E67 		.ascii	"long unsigned int\000"
 3521      20756E73 
 3521      69676E65 
 3521      6420696E 
 3521      7400
 3522              	.LASF93:
 3523 0952 44495350 		.ascii	"DISPLAY_BAJE_MANIJA\000"
 3523      4C41595F 
 3523      42414A45 
 3523      5F4D414E 
 3523      494A4100 
 3524              	.LASF191:
 3525 0966 50505544 		.ascii	"PPUDec\000"
 3525      656300
 3526              	.LASF182:
 3527 096d 74797065 		.ascii	"typeIdSeller\000"
 3527      49645365 
 3527      6C6C6572 
 3527      00
 3528              	.LASF68:
 3529 097a 666C6167 		.ascii	"flagProductmarket\000"
 3529      50726F64 
 3529      7563746D 
 3529      61726B65 
 3529      7400
 3530              	.LASF12:
 3531 098c 696E7433 		.ascii	"int32_t\000"
 3531      325F7400 
 3532              	.LASF208:
 3533 0994 53686F77 		.ascii	"ShowMessage\000"
 3533      4D657373 
 3533      61676500 
 3534              	.LASF64:
 3535 09a0 7175616E 		.ascii	"quantAvailableMark\000"
 3535      74417661 
 3535      696C6162 
 3535      6C654D61 
 3535      726B00
 3536              	.LASF20:
 3537 09b3 63797374 		.ascii	"cystatus\000"
 3537      61747573 
 3537      00
 3538              	.LASF125:
ARM GAS  C:\Users\RECEPC~1\AppData\Local\Temp\ccr4zYAx.s 			page 74


 3539 09bc 44495350 		.ascii	"DISPLAY_CANCELADO_X_PC\000"
 3539      4C41595F 
 3539      43414E43 
 3539      454C4144 
 3539      4F5F585F 
 3540              	.LASF26:
 3541 09d3 666C6167 		.ascii	"flagWayToPayMixed\000"
 3541      57617954 
 3541      6F506179 
 3541      4D697865 
 3541      6400
 3542              	.LASF1:
 3543 09e5 756E7369 		.ascii	"unsigned char\000"
 3543      676E6564 
 3543      20636861 
 3543      7200
 3544              	.LASF126:
 3545 09f3 44495350 		.ascii	"DISPLAY_USUARIO_VALIDO\000"
 3545      4C41595F 
 3545      55535541 
 3545      52494F5F 
 3545      56414C49 
 3546              	.LASF212:
 3547 0a0a 6765745F 		.ascii	"get_state\000"
 3547      73746174 
 3547      6500
 3548              	.LASF113:
 3549 0a14 44495350 		.ascii	"DISPLAY_SELECCIONE_POSICION\000"
 3549      4C41595F 
 3549      53454C45 
 3549      4343494F 
 3549      4E455F50 
 3550              	.LASF214:
 3551 0a30 474E5520 		.ascii	"GNU C 4.9.3 20150303 (release) [ARM/embedded-4_9-br"
 3551      4320342E 
 3551      392E3320 
 3551      32303135 
 3551      30333033 
 3552 0a63 616E6368 		.ascii	"anch revision 221220] -mcpu=cortex-m3 -mthumb -g -O"
 3552      20726576 
 3552      6973696F 
 3552      6E203232 
 3552      31323230 
 3553 0a96 67202D66 		.ascii	"g -ffunction-sections -ffat-lto-objects\000"
 3553      66756E63 
 3553      74696F6E 
 3553      2D736563 
 3553      74696F6E 
 3554              	.LASF114:
 3555 0abe 44495350 		.ascii	"DISPLAY_OPERACION_CANCELADA\000"
 3555      4C41595F 
 3555      4F504552 
 3555      4143494F 
 3555      4E5F4341 
 3556              	.LASF31:
 3557 0ada 61757468 		.ascii	"authorizationFlag\000"
 3557      6F72697A 
ARM GAS  C:\Users\RECEPC~1\AppData\Local\Temp\ccr4zYAx.s 			page 75


 3557      6174696F 
 3557      6E466C61 
 3557      6700
 3558              	.LASF65:
 3559 0aec 70726963 		.ascii	"priceTotalMarket\000"
 3559      65546F74 
 3559      616C4D61 
 3559      726B6574 
 3559      00
 3560              	.LASF122:
 3561 0afd 44495350 		.ascii	"DISPLAY_OPCION_TURNO\000"
 3561      4C41595F 
 3561      4F504349 
 3561      4F4E5F54 
 3561      55524E4F 
 3562              	.LASF181:
 3563 0b12 69645365 		.ascii	"idSeller\000"
 3563      6C6C6572 
 3563      00
 3564              	.LASF80:
 3565 0b1b 70756D70 		.ascii	"pump\000"
 3565      00
 3566              	.LASF124:
 3567 0b20 44495350 		.ascii	"DISPLAY_CERRAR_TURNO\000"
 3567      4C41595F 
 3567      43455252 
 3567      41525F54 
 3567      55524E4F 
 3568              	.LASF216:
 3569 0b35 433A5C55 		.ascii	"C:\\Users\\Recepcion\\Documents\\GitHub\\NSY-DH\\Wo"
 3569      73657273 
 3569      5C526563 
 3569      65706369 
 3569      6F6E5C44 
 3570 0b62 726B7370 		.ascii	"rkspace01\\Design01.cydsn\000"
 3570      61636530 
 3570      315C4465 
 3570      7369676E 
 3570      30312E63 
 3571              	.LASF177:
 3572 0b7b 74656D70 		.ascii	"temporal\000"
 3572      6F72616C 
 3572      00
 3573              	.LASF190:
 3574 0b84 566F6C44 		.ascii	"VolDec\000"
 3574      656300
 3575              	.LASF36:
 3576 0b8b 70726573 		.ascii	"presetType\000"
 3576      65745479 
 3576      706500
 3577              	.LASF66:
 3578 0b96 70726963 		.ascii	"priceUnitMarket\000"
 3578      65556E69 
 3578      744D6172 
 3578      6B657400 
 3579              	.LASF103:
 3580 0ba6 44495350 		.ascii	"DISPLAY_ID_NO_RECONOCIDO\000"
ARM GAS  C:\Users\RECEPC~1\AppData\Local\Temp\ccr4zYAx.s 			page 76


 3580      4C41595F 
 3580      49445F4E 
 3580      4F5F5245 
 3580      434F4E4F 
 3581              	.LASF77:
 3582 0bbf 766F6C75 		.ascii	"volumeSale\000"
 3582      6D655361 
 3582      6C6500
 3583              	.LASF132:
 3584 0bca 44495350 		.ascii	"DISPLAY_DUMMY0\000"
 3584      4C41595F 
 3584      44554D4D 
 3584      593000
 3585              	.LASF133:
 3586 0bd9 44495350 		.ascii	"DISPLAY_DUMMY1\000"
 3586      4C41595F 
 3586      44554D4D 
 3586      593100
 3587              	.LASF134:
 3588 0be8 44495350 		.ascii	"DISPLAY_DUMMY2\000"
 3588      4C41595F 
 3588      44554D4D 
 3588      593200
 3589              	.LASF135:
 3590 0bf7 44495350 		.ascii	"DISPLAY_DUMMY3\000"
 3590      4C41595F 
 3590      44554D4D 
 3590      593300
 3591              	.LASF0:
 3592 0c06 7369676E 		.ascii	"signed char\000"
 3592      65642063 
 3592      68617200 
 3593              	.LASF97:
 3594 0c12 44495350 		.ascii	"DISPLAY_PASSWORD_VALIDO\000"
 3594      4C41595F 
 3594      50415353 
 3594      574F5244 
 3594      5F56414C 
 3595              	.LASF89:
 3596 0c2a 44495350 		.ascii	"DISPLAY_SELECCIONE_PRODUCTO3\000"
 3596      4C41595F 
 3596      53454C45 
 3596      4343494F 
 3596      4E455F50 
 3597              	.LASF90:
 3598 0c47 44495350 		.ascii	"DISPLAY_SELECCIONE_PRODUCTO4\000"
 3598      4C41595F 
 3598      53454C45 
 3598      4343494F 
 3598      4E455F50 
 3599              	.LASF3:
 3600 0c64 73686F72 		.ascii	"short unsigned int\000"
 3600      7420756E 
 3600      7369676E 
 3600      65642069 
 3600      6E7400
 3601              	.LASF155:
ARM GAS  C:\Users\RECEPC~1\AppData\Local\Temp\ccr4zYAx.s 			page 77


 3602 0c77 636F756E 		.ascii	"countPump\000"
 3602      7450756D 
 3602      7000
 3603              	.LASF139:
 3604 0c81 53746F72 		.ascii	"StoreConfiguration\000"
 3604      65436F6E 
 3604      66696775 
 3604      72617469 
 3604      6F6E00
 3605              	.LASF217:
 3606 0c94 5F415641 		.ascii	"_AVAILABLE_DISPLAYS_\000"
 3606      494C4142 
 3606      4C455F44 
 3606      4953504C 
 3606      4159535F 
 3607              	.LASF150:
 3608 0ca9 6D61696E 		.ascii	"main\000"
 3608      00
 3609              	.LASF81:
 3610 0cae 44495350 		.ascii	"DISPLAY_ERROR\000"
 3610      4C41595F 
 3610      4552524F 
 3610      5200
 3611              	.LASF79:
 3612 0cbc 70726F64 		.ascii	"productSale\000"
 3612      75637453 
 3612      616C6500 
 3613              	.LASF111:
 3614 0cc8 44495350 		.ascii	"DISPLAY_COPIA_RECIBO\000"
 3614      4C41595F 
 3614      434F5049 
 3614      415F5245 
 3614      4349424F 
 3615              	.LASF13:
 3616 0cdd 75696E74 		.ascii	"uint8\000"
 3616      3800
 3617              	.LASF17:
 3618 0ce3 646F7562 		.ascii	"double\000"
 3618      6C6500
 3619              	.LASF25:
 3620 0cea 77617954 		.ascii	"wayToPay\000"
 3620      6F506179 
 3620      00
 3621              	.LASF206:
 3622 0cf3 5072696E 		.ascii	"Printer_Start\000"
 3622      7465725F 
 3622      53746172 
 3622      7400
 3623              	.LASF42:
 3624 0d01 74696D65 		.ascii	"timeLiftHandle\000"
 3624      4C696674 
 3624      48616E64 
 3624      6C6500
 3625              	.LASF101:
 3626 0d10 44495350 		.ascii	"DISPLAY_GRACIAS_VUELVA_PRONTO\000"
 3626      4C41595F 
 3626      47524143 
ARM GAS  C:\Users\RECEPC~1\AppData\Local\Temp\ccr4zYAx.s 			page 78


 3626      4941535F 
 3626      5655454C 
 3627              	.LASF75:
 3628 0d2e 70707541 		.ascii	"ppuAuthorized\000"
 3628      7574686F 
 3628      72697A65 
 3628      6400
 3629              	.LASF29:
 3630 0d3c 73657269 		.ascii	"serialSelectedSale\000"
 3630      616C5365 
 3630      6C656374 
 3630      65645361 
 3630      6C6500
 3631              	.LASF205:
 3632 0d4f 52465F50 		.ascii	"RF_Physical_Start\000"
 3632      68797369 
 3632      63616C5F 
 3632      53746172 
 3632      7400
 3633              	.LASF73:
 3634 0d61 706F7369 		.ascii	"position\000"
 3634      74696F6E 
 3634      00
 3635              	.LASF194:
 3636 0d6a 62756666 		.ascii	"bufferDisplay1\000"
 3636      65724469 
 3636      73706C61 
 3636      793100
 3637              	.LASF215:
 3638 0d79 2E5C6D61 		.ascii	".\\main.c\000"
 3638      696E2E63 
 3638      00
 3639              	.LASF197:
 3640 0d82 62756666 		.ascii	"bufferDisplay4\000"
 3640      65724469 
 3640      73706C61 
 3640      793400
 3641              		.ident	"GCC: (GNU Tools for ARM Embedded Processors) 4.9.3 20150303 (release) [ARM/embedded-4_9-br
