ARM GAS  C:\Users\Diego\AppData\Local\Temp\cc9VkXHl.s 			page 1


   1              		.syntax unified
   2              		.cpu cortex-m3
   3              		.fpu softvfp
   4              		.eabi_attribute 20, 1
   5              		.eabi_attribute 21, 1
   6              		.eabi_attribute 23, 3
   7              		.eabi_attribute 24, 1
   8              		.eabi_attribute 25, 1
   9              		.eabi_attribute 26, 1
  10              		.eabi_attribute 30, 1
  11              		.eabi_attribute 34, 1
  12              		.eabi_attribute 18, 4
  13              		.thumb
  14              		.file	"main.c"
  15              		.text
  16              	.Ltext0:
  17              		.cfi_sections	.debug_frame
  18              		.section	.text.animacion,"ax",%progbits
  19              		.align	2
  20              		.global	animacion
  21              		.thumb
  22              		.thumb_func
  23              		.type	animacion, %function
  24              	animacion:
  25              	.LFB72:
  26              		.file 1 ".\\main.c"
   1:.\main.c      **** /* ========================================
   2:.\main.c      ****  *
   3:.\main.c      ****  * Copyright YOUR COMPANY, THE YEAR
   4:.\main.c      ****  * All Rights Reserved
   5:.\main.c      ****  * UNPUBLISHED, LICENSED SOFTWARE.
   6:.\main.c      ****  *
   7:.\main.c      ****  * CONFIDENTIAL AND PROPRIETARY INFORMATION
   8:.\main.c      ****  * WHICH IS THE PROPERTY OF your company.
   9:.\main.c      ****  *
  10:.\main.c      ****  * ========================================
  11:.\main.c      **** */
  12:.\main.c      **** #include <project.h>
  13:.\main.c      **** #include <protocol.h>
  14:.\main.c      **** #include <variables.h>
  15:.\main.c      **** #include <keyboard.h>
  16:.\main.c      **** #include <ibutton.h>
  17:.\main.c      **** #include <LCD.h>
  18:.\main.c      **** #include <I2C.h>
  19:.\main.c      **** #include <Print.h>
  20:.\main.c      **** #include <device.h>
  21:.\main.c      **** 
  22:.\main.c      **** /**********************************/
  23:.\main.c      **** 
  24:.\main.c      **** uint8 MuxVersion [10] = "MUX V. 1.0";
  25:.\main.c      **** CY_ISR(animacion2);
  26:.\main.c      **** CY_ISR(animacion);
  27:.\main.c      **** 
  28:.\main.c      **** void GlobalInitializer()
  29:.\main.c      **** {
  30:.\main.c      ****     EEPROM_1_Start();
  31:.\main.c      ****     Pump_Start(); 
ARM GAS  C:\Users\Diego\AppData\Local\Temp\cc9VkXHl.s 			page 2


  32:.\main.c      ****     Display1_Start();
  33:.\main.c      ****     Display2_Start();
  34:.\main.c      ****     RF_Physical_Start();    
  35:.\main.c      ****     Printer_Start();   
  36:.\main.c      ****     I2C_Bus_Start();
  37:.\main.c      **** }
  38:.\main.c      **** void StoreConfiguration(){
  39:.\main.c      ****     EEPROM_1_WriteByte(UnitType,0);
  40:.\main.c      ****     EEPROM_1_WriteByte(ConversionFactor,1);
  41:.\main.c      ****     EEPROM_1_WriteByte(MoneyDec,2);
  42:.\main.c      ****     EEPROM_1_WriteByte(VolDec,3);
  43:.\main.c      ****     EEPROM_1_WriteByte(PPUDec,4);
  44:.\main.c      ****     EEPROM_1_WriteByte(DDMode,5);
  45:.\main.c      ****     EEPROM_1_WriteByte(digits,6);
  46:.\main.c      ****     EEPROM_1_WriteByte(UnitType+1,7);
  47:.\main.c      **** }
  48:.\main.c      **** /*
  49:.\main.c      **** ***************************************************************************************************
  50:.\main.c      **** *                                         void InitDisplay1(void)
  51:.\main.c      **** *
  52:.\main.c      **** * Description : Pregunta configuraciones al dispensador 
  53:.\main.c      **** *               
  54:.\main.c      **** *
  55:.\main.c      **** ***************************************************************************************************
  56:.\main.c      **** */
  57:.\main.c      **** void InitDisplay1(){      
  58:.\main.c      ****     uint8_t iniText[10]="Iniciando"; 
  59:.\main.c      ****     uint8_t Unit[10] = "S/D/Dupla ";
  60:.\main.c      ****     uint8_t Unit2[10] = "Quadrupla";
  61:.\main.c      ****     uint8_t Unit3[10] = "Sextupla";
  62:.\main.c      ****     uint8_t Unit4[10] = "Octupla";
  63:.\main.c      ****     uint8_t DisplayMode0[10] = "5-5-4     ";
  64:.\main.c      ****     uint8_t DisplayMode[10] = "6-6-4     ";
  65:.\main.c      ****     uint8_t DisplayMode2[10] = "7-7-5     ";
  66:.\main.c      ****     uint8_t DisplayMode3[10] = "8-7-5     ";
  67:.\main.c      ****     if(NumPositions == 2){
  68:.\main.c      ****         SetPicture(1,DISPLAY_INICIO0);         
  69:.\main.c      ****         ShowMessage(1,iniText,0);    
  70:.\main.c      ****         CyDelay(300);
  71:.\main.c      ****         if(UnitType == 0){
  72:.\main.c      ****             side.a.hoseNumber = UnitType+1;
  73:.\main.c      ****             side.b.hoseNumber = UnitType+1;
  74:.\main.c      ****             ShowMessage(1,Unit,0);  //Mostrar tipo de dispensador      
  75:.\main.c      ****         }
  76:.\main.c      ****         if(UnitType == 1){
  77:.\main.c      ****             side.a.hoseNumber = UnitType+1;
  78:.\main.c      ****             side.b.hoseNumber = UnitType+1;
  79:.\main.c      ****             ShowMessage(1,Unit2,0);
  80:.\main.c      ****         }
  81:.\main.c      ****         if(UnitType == 2){
  82:.\main.c      ****             side.a.hoseNumber = UnitType+1;
  83:.\main.c      ****             side.b.hoseNumber = UnitType+1;
  84:.\main.c      ****            ShowMessage(1,Unit3,0);
  85:.\main.c      ****         }
  86:.\main.c      ****         if(UnitType == 3){
  87:.\main.c      ****             side.a.hoseNumber = UnitType+1;
  88:.\main.c      ****             side.b.hoseNumber = UnitType+1;
ARM GAS  C:\Users\Diego\AppData\Local\Temp\cc9VkXHl.s 			page 3


  89:.\main.c      ****             ShowMessage(1,Unit4,0);
  90:.\main.c      ****         } 
  91:.\main.c      ****         if(DDMode == 0){
  92:.\main.c      ****             ShowMessage(1,DisplayMode0,22); //Mostrar modo de display
  93:.\main.c      ****             digits = 5;
  94:.\main.c      ****         }
  95:.\main.c      ****         if(DDMode == 1){
  96:.\main.c      ****             ShowMessage(1,DisplayMode,22); //Mostrar modo de display
  97:.\main.c      ****             digits = 6;
  98:.\main.c      ****         }
  99:.\main.c      ****         if(DDMode == 2){
 100:.\main.c      ****            ShowMessage(1,DisplayMode2,22);
 101:.\main.c      ****             digits = 7;
 102:.\main.c      ****         }
 103:.\main.c      ****         if(DDMode == 3){
 104:.\main.c      ****             ShowMessage(1,DisplayMode3,22);
 105:.\main.c      ****             digits = 8;
 106:.\main.c      ****         }        
 107:.\main.c      ****     }
 108:.\main.c      ****     if(NumPositions == 4){
 109:.\main.c      ****         SetPicture(1,DISPLAY_SELECCIONE_POSICION);        
 110:.\main.c      ****         ShowMessage(1,iniText,0);    
 111:.\main.c      ****         CyDelay(300);
 112:.\main.c      ****         if(UnitType == 0){
 113:.\main.c      ****             side.a.hoseNumber = UnitType+1;
 114:.\main.c      ****             side.b.hoseNumber = UnitType+1;
 115:.\main.c      ****             side.c.hoseNumber = UnitType+1;
 116:.\main.c      ****             side.d.hoseNumber = UnitType+1;
 117:.\main.c      ****             ShowMessage(1,Unit,0);  //Mostrar tipo de dispensador      
 118:.\main.c      ****         }
 119:.\main.c      ****         if(UnitType == 1){
 120:.\main.c      ****             side.a.hoseNumber = UnitType+1;
 121:.\main.c      ****             side.b.hoseNumber = UnitType+1;
 122:.\main.c      ****             side.c.hoseNumber = UnitType+1;
 123:.\main.c      ****             side.d.hoseNumber = UnitType+1;
 124:.\main.c      ****             ShowMessage(1,Unit2,0);
 125:.\main.c      ****         }
 126:.\main.c      ****         if(UnitType == 2){
 127:.\main.c      ****             side.a.hoseNumber = UnitType+1;
 128:.\main.c      ****             side.b.hoseNumber = UnitType+1;
 129:.\main.c      ****             side.c.hoseNumber = UnitType+1;
 130:.\main.c      ****             side.d.hoseNumber = UnitType+1;
 131:.\main.c      ****            ShowMessage(1,Unit3,0);
 132:.\main.c      ****         }
 133:.\main.c      ****         if(UnitType == 3){
 134:.\main.c      ****             side.a.hoseNumber = UnitType+1;
 135:.\main.c      ****             side.b.hoseNumber = UnitType+1;
 136:.\main.c      ****             side.c.hoseNumber = UnitType+1;
 137:.\main.c      ****             side.d.hoseNumber = UnitType+1;
 138:.\main.c      ****             ShowMessage(1,Unit4,0);
 139:.\main.c      ****         }    
 140:.\main.c      ****         if(DDMode == 1){
 141:.\main.c      ****             ShowMessage(1,DisplayMode,22); //Mostrar modo de display
 142:.\main.c      ****         }
 143:.\main.c      ****         if(DDMode == 2){
 144:.\main.c      ****            ShowMessage(1,DisplayMode2,22);
 145:.\main.c      ****         }
ARM GAS  C:\Users\Diego\AppData\Local\Temp\cc9VkXHl.s 			page 4


 146:.\main.c      ****     }        
 147:.\main.c      ****     if(NumPositions < 2){
 148:.\main.c      ****         SetPicture(1,DISPLAY_ERROR);        
 149:.\main.c      ****     }         
 150:.\main.c      **** }
 151:.\main.c      **** 
 152:.\main.c      **** /*
 153:.\main.c      **** ***************************************************************************************************
 154:.\main.c      **** *                                         void InitDisplay1(void)
 155:.\main.c      **** *
 156:.\main.c      **** * Description : Pregunta configuraciones al dispensador 
 157:.\main.c      **** *               
 158:.\main.c      **** *
 159:.\main.c      **** ***************************************************************************************************
 160:.\main.c      **** */
 161:.\main.c      **** void InitDisplay2(){      
 162:.\main.c      ****     if(NumPositions == 2){        
 163:.\main.c      ****         SetPicture(2,DISPLAY_INICIO0);  
 164:.\main.c      ****         flowDisplay2 = 0;
 165:.\main.c      ****     }
 166:.\main.c      ****     if(NumPositions == 4){
 167:.\main.c      ****         SetPicture(2,DISPLAY_SELECCIONE_POSICION);         
 168:.\main.c      ****     }        
 169:.\main.c      ****     if(NumPositions < 2){        
 170:.\main.c      ****         SetPicture(2,DISPLAY_ERROR);
 171:.\main.c      ****     }     
 172:.\main.c      ****     ShowMessage(2,MuxVersion,0);
 173:.\main.c      **** }
 174:.\main.c      **** 
 175:.\main.c      **** /*
 176:.\main.c      **** ***************************************************************************************************
 177:.\main.c      **** *                                         void InitPump(void)
 178:.\main.c      **** *
 179:.\main.c      **** * Description : Pregunta configuraciones al dispensador 
 180:.\main.c      **** *               
 181:.\main.c      **** *
 182:.\main.c      **** ***************************************************************************************************
 183:.\main.c      **** */
 184:.\main.c      **** void InitPump(){        
 185:.\main.c      ****     NumPositions = get_position();
 186:.\main.c      ****     if(NumPositions > 0){
 187:.\main.c      ****         if(!PumpIsInValidState(get_state(side.a.dir))){
 188:.\main.c      ****             SetPicture(1,DISPLAY_ERROR);
 189:.\main.c      ****             SetPicture(2,DISPLAY_ERROR);
 190:.\main.c      ****             NumPositions = 0;
 191:.\main.c      ****         }
 192:.\main.c      ****         if(!PumpIsInValidState(get_state(side.b.dir))){
 193:.\main.c      ****             SetPicture(1,DISPLAY_ERROR);
 194:.\main.c      ****             SetPicture(2,DISPLAY_ERROR);
 195:.\main.c      ****             NumPositions = 0;
 196:.\main.c      ****         }
 197:.\main.c      ****         if(PumpIsInValidState(get_state(side.a.dir)) && PumpIsInValidState(get_state(side.b.dir))){
 198:.\main.c      ****             NumPositions = get_position();
 199:.\main.c      ****             if(get_state(side.a.dir) ==0x06 && get_state(side.b.dir)==0x06){
 200:.\main.c      ****                 PumpCompleteConfiguration(side.a.dir);
 201:.\main.c      ****                 StoreConfiguration();            
 202:.\main.c      ****             }else{
ARM GAS  C:\Users\Diego\AppData\Local\Temp\cc9VkXHl.s 			page 5


 203:.\main.c      ****                 SetPicture(1,DISPLAY_BAJE_MANIJA);
 204:.\main.c      ****                 SetPicture(2,DISPLAY_BAJE_MANIJA);
 205:.\main.c      ****                 InitPump();                
 206:.\main.c      ****             }
 207:.\main.c      ****         }        
 208:.\main.c      ****     }
 209:.\main.c      ****     
 210:.\main.c      **** }
 211:.\main.c      **** /*
 212:.\main.c      **** ***************************************************************************************************
 213:.\main.c      **** *                                         void PrintTest(void)
 214:.\main.c      **** *
 215:.\main.c      **** * Description : Pregunta configuraciones al dispensador 
 216:.\main.c      **** *               
 217:.\main.c      **** *
 218:.\main.c      **** ***************************************************************************************************
 219:.\main.c      **** */
 220:.\main.c      **** void PrintTest(){
 221:.\main.c      ****     uint8 dato[17]="Test de Impresion";
 222:.\main.c      ****     uint8 x;
 223:.\main.c      ****     for(x = 0; x<17;x++){
 224:.\main.c      ****         write_psoc1(1,dato[x]);
 225:.\main.c      ****     }
 226:.\main.c      ****     write_psoc1(1,10);
 227:.\main.c      ****     write_psoc1(1,10);
 228:.\main.c      ****     write_psoc1(1,10);
 229:.\main.c      ****     for(x = 0; x<17;x++){
 230:.\main.c      ****         write_psoc1(2,dato[x]);
 231:.\main.c      ****     }
 232:.\main.c      ****     write_psoc1(2,10);
 233:.\main.c      ****     write_psoc1(2,10);
 234:.\main.c      ****     write_psoc1(2,10);
 235:.\main.c      **** }
 236:.\main.c      **** 
 237:.\main.c      **** /*
 238:.\main.c      **** ***************************************************************************************************
 239:.\main.c      **** *                                         void polling_Pump(void)
 240:.\main.c      **** *
 241:.\main.c      **** * Description : Pregunta estado al surtidor 
 242:.\main.c      **** *               
 243:.\main.c      **** *
 244:.\main.c      **** ***************************************************************************************************
 245:.\main.c      **** */
 246:.\main.c      **** 
 247:.\main.c      **** void PollingPump(void){
 248:.\main.c      ****     uint8 x;
 249:.\main.c      ****     if(PumpIsInValidState(get_state(side.a.dir)) && PumpIsInValidState(get_state(side.b.dir)) ){
 250:.\main.c      ****         for(x= 0; x < 4; x++){
 251:.\main.c      ****             PrevStatePump[x] = statePump[x];
 252:.\main.c      ****         }
 253:.\main.c      ****     }
 254:.\main.c      ****     if (NumPositions == 2){
 255:.\main.c      ****         statePump[0] = get_state(side.a.dir);                 
 256:.\main.c      ****         statePump[1] = get_state(side.b.dir);          
 257:.\main.c      ****     }
 258:.\main.c      ****     if (NumPositions == 4 ){
 259:.\main.c      ****         statePump[0] = get_state(side.a.dir);               
ARM GAS  C:\Users\Diego\AppData\Local\Temp\cc9VkXHl.s 			page 6


 260:.\main.c      ****         statePump[1] = get_state(side.b.dir);          
 261:.\main.c      ****         statePump[2] = get_state(side.c.dir);        
 262:.\main.c      ****         statePump[3] = get_state(side.d.dir);        
 263:.\main.c      ****     }
 264:.\main.c      ****     if (NumPositions == 0){
 265:.\main.c      ****         InitPump();
 266:.\main.c      ****     }
 267:.\main.c      ****     if(!PumpIsInValidState(get_state(side.a.dir))){
 268:.\main.c      ****         SetPicture(1,DISPLAY_ERROR);
 269:.\main.c      ****         SetPicture(2,DISPLAY_ERROR);
 270:.\main.c      ****         NumPositions = 0;
 271:.\main.c      ****     }
 272:.\main.c      ****     if(!PumpIsInValidState(get_state(side.b.dir))){
 273:.\main.c      ****         SetPicture(1,DISPLAY_ERROR);
 274:.\main.c      ****         SetPicture(2,DISPLAY_ERROR);
 275:.\main.c      ****         NumPositions = 0;
 276:.\main.c      ****     }
 277:.\main.c      **** }
 278:.\main.c      **** /*
 279:.\main.c      **** ***************************************************************************************************
 280:.\main.c      **** *                                         void polling_Pump(void)
 281:.\main.c      **** *
 282:.\main.c      **** * Description : Pregunta estado al surtidor 
 283:.\main.c      **** *               
 284:.\main.c      **** *
 285:.\main.c      **** ***************************************************************************************************
 286:.\main.c      **** */
 287:.\main.c      **** 
 288:.\main.c      **** void PollingDisplay1(void){ 
 289:.\main.c      ****     uint8 x,y;     
 290:.\main.c      ****     switch(flowDisplay1){
 291:.\main.c      ****         case 0:
 292:.\main.c      ****             InitDisplay1();
 293:.\main.c      ****             flowDisplay1 =1;
 294:.\main.c      ****             isr_3_Stop(); 
 295:.\main.c      ****             Timer_Animacion_Stop();
 296:.\main.c      ****             bufferDisplay1.saleType = 0;
 297:.\main.c      ****         break;
 298:.\main.c      ****         case 1: //Menu
 299:.\main.c      ****             if(Display1_GetRxBufferSize()==8){
 300:.\main.c      ****                 if((Display1_rxBuffer[0]==0xAA) && (Display1_rxBuffer[6]==0xC3) && (Display1_rxBuff
 301:.\main.c      ****                     switch(Display1_rxBuffer[3]){
 302:.\main.c      ****                         case 0x3A:  //Pantalla forma de pago
 303:.\main.c      ****                             flowDisplay1 = 2;                            
 304:.\main.c      ****                             SetPicture(1,DISPLAY_FORMA_PAGO_DESEADA);                            
 305:.\main.c      ****                         break;   
 306:.\main.c      ****                         case 0x7E:  //Pantalla Inicial                                             
 307:.\main.c      ****                             SetPicture(1,DISPLAY_INICIO0);
 308:.\main.c      ****                             flowDisplay1 = 0;
 309:.\main.c      ****                         break;
 310:.\main.c      ****                     }
 311:.\main.c      ****                 }  
 312:.\main.c      ****                 CyDelay(10);         
 313:.\main.c      ****                 Display1_ClearRxBuffer();
 314:.\main.c      ****             }
 315:.\main.c      ****         break;
 316:.\main.c      ****         case 2:
ARM GAS  C:\Users\Diego\AppData\Local\Temp\cc9VkXHl.s 			page 7


 317:.\main.c      ****             if(Display1_GetRxBufferSize()==8){
 318:.\main.c      ****                 if((Display1_rxBuffer[0]==0xAA) && (Display1_rxBuffer[6]==0xC3) && (Display1_rxBuff
 319:.\main.c      ****                     switch(Display1_rxBuffer[3]){
 320:.\main.c      ****                         case 0x0D:  //Pantalla efectivo              
 321:.\main.c      ****                             flowDisplay1 = 3; 
 322:.\main.c      ****                             bufferDisplay1.saleType = 1;
 323:.\main.c      ****                             SetPicture(1,DISPLAY_FORMA_PROGRAMACION);                            
 324:.\main.c      ****                         break;
 325:.\main.c      ****                         case 0x0E:  //Pantalla credito  
 326:.\main.c      ****                             flowDisplay1 = 10;
 327:.\main.c      ****                             bufferDisplay1.saleType = 2;
 328:.\main.c      ****                             count_protector = 0;
 329:.\main.c      ****                             SetPicture(1,DISPLAY_ID_DIGITAL);                            
 330:.\main.c      ****                         break;
 331:.\main.c      ****                         case 0x45:  //Pantalla otras opciones 
 332:.\main.c      ****                             flowDisplay1 = 5;                            
 333:.\main.c      ****                             SetPicture(1,DISPLAY_OPERACIONES);                            
 334:.\main.c      ****                         break;
 335:.\main.c      ****                             
 336:.\main.c      ****                         case 0x94:  //Pantalla Inicial    
 337:.\main.c      ****                             flowDisplay1 = 0;
 338:.\main.c      ****                             SetPicture(1,DISPLAY_INICIO0);                            
 339:.\main.c      ****                         break;
 340:.\main.c      ****                         
 341:.\main.c      ****                         case 0x7E:  //Pantalla Inicial    
 342:.\main.c      ****                             flowDisplay1 = 0;
 343:.\main.c      ****                             SetPicture(1,DISPLAY_INICIO0);                            
 344:.\main.c      ****                         break;
 345:.\main.c      ****                     }
 346:.\main.c      ****                 }  
 347:.\main.c      ****                 CyDelay(10);         
 348:.\main.c      ****                 Display1_ClearRxBuffer();
 349:.\main.c      ****             }
 350:.\main.c      ****         break;
 351:.\main.c      ****             
 352:.\main.c      ****         case 3: 
 353:.\main.c      ****             if(Display1_GetRxBufferSize()==8){
 354:.\main.c      ****                 if((Display1_rxBuffer[0]==0xAA) && (Display1_rxBuffer[6]==0xC3) && (Display1_rxBuff
 355:.\main.c      ****                     switch(Display1_rxBuffer[3]){
 356:.\main.c      ****                         case 0x0F:  //Preset dinero                
 357:.\main.c      ****                             flowDisplay1 = 4;  
 358:.\main.c      ****                             bufferDisplay1.flagKeyboard = 0;
 359:.\main.c      ****                             bufferDisplay1.presetType[0]=2;
 360:.\main.c      ****                             bufferDisplay1.presetType[1]='D';
 361:.\main.c      ****                             numberKeys1=0;
 362:.\main.c      ****                             SetPicture(1,DISPLAY_INTRODUZCA_VALOR);   
 363:.\main.c      ****                             WriteLCD(1,'$',3,2,1,0x0000,'N');
 364:.\main.c      ****                         break; 
 365:.\main.c      ****                         case 0x10:  //Preset volumen                 
 366:.\main.c      ****                             flowDisplay1 = 4;
 367:.\main.c      ****                             bufferDisplay1.flagKeyboard = 0;
 368:.\main.c      ****                             bufferDisplay1.presetType[0]=1;
 369:.\main.c      ****                             bufferDisplay1.presetType[1]='V';
 370:.\main.c      ****                             numberKeys1=0;                            
 371:.\main.c      ****                             SetPicture(1,DISPLAY_INTRODUZCA_VOLUMEN);                            
 372:.\main.c      ****                             WriteLCD(1,'V',3,2,1,0x0000,'N');                            
 373:.\main.c      ****                         break;
ARM GAS  C:\Users\Diego\AppData\Local\Temp\cc9VkXHl.s 			page 8


 374:.\main.c      ****                         case 0x43:  //Preset full 
 375:.\main.c      ****                             bufferDisplay1.presetType[0]=2;
 376:.\main.c      ****                             bufferDisplay1.presetType[1]='F';
 377:.\main.c      ****                             for(x=1;x<(digits-1);x++){
 378:.\main.c      ****                                 bufferDisplay1.presetValue[0][x]='9';
 379:.\main.c      ****                             }
 380:.\main.c      ****                             bufferDisplay1.presetValue[0][x]='0';
 381:.\main.c      ****                             bufferDisplay1.presetValue[0][x+1]='0';
 382:.\main.c      ****                             bufferDisplay1.presetValue[0][0]=digits;
 383:.\main.c      ****                             for(x=0;x<=bufferDisplay1.presetValue[0][0];x++){
 384:.\main.c      ****                                 bufferDisplay1.presetValue[1][x]=bufferDisplay1.presetValue[0][x];
 385:.\main.c      ****                             }
 386:.\main.c      ****                             flowDisplay1 = 5;
 387:.\main.c      ****                             SetPicture(1,DISPLAY_SELECCIONE_PRODUCTO4);                          
 388:.\main.c      ****                         break;
 389:.\main.c      ****                         case 0x94:  //Retroceso 
 390:.\main.c      ****                             flowDisplay1 = 0;
 391:.\main.c      ****                             SetPicture(1,DISPLAY_INICIO0);                                         
 392:.\main.c      ****                         break;
 393:.\main.c      ****                         case 0x3B:  //Pantalla Inicial    
 394:.\main.c      ****                             flowDisplay1 = 0;
 395:.\main.c      ****                             SetPicture(1,DISPLAY_INICIO0);                            
 396:.\main.c      ****                         break;
 397:.\main.c      ****                         case 0x7E:  //Pantalla Inicial    
 398:.\main.c      ****                             flowDisplay1 = 0;
 399:.\main.c      ****                             SetPicture(1,DISPLAY_INICIO0);                            
 400:.\main.c      ****                         break;
 401:.\main.c      ****                     }
 402:.\main.c      ****                 }  
 403:.\main.c      ****                 CyDelay(10);         
 404:.\main.c      ****                 Display1_ClearRxBuffer();
 405:.\main.c      ****             }
 406:.\main.c      ****         break;
 407:.\main.c      ****         
 408:.\main.c      ****         case 4:            
 409:.\main.c      ****             switch (alphanumeric_keyboard(1,digits,0)){
 410:.\main.c      ****                 case 0:  //Pantalla Inicial    
 411:.\main.c      ****                     flowDisplay1 = 0;
 412:.\main.c      ****                     SetPicture(1,DISPLAY_INICIO0);                            
 413:.\main.c      ****                 break;
 414:.\main.c      ****                     
 415:.\main.c      ****                 case 1: //Enter
 416:.\main.c      ****                     for(x=0;x<=bufferDisplay1.valueKeys[0];x++){
 417:.\main.c      ****                         bufferDisplay1.presetValue[0][x]=bufferDisplay1.valueKeys[x];
 418:.\main.c      ****                         bufferDisplay1.presetValue[1][x]=bufferDisplay1.valueKeys[x];
 419:.\main.c      ****                     }
 420:.\main.c      ****                     bufferDisplay1.flagKeyboard = 0;   
 421:.\main.c      ****                     flowDisplay1 = 5;//caso para seleccion de producto
 422:.\main.c      ****                     SetPicture(1,DISPLAY_SELECCIONE_PRODUCTO4);
 423:.\main.c      ****                 break;
 424:.\main.c      ****             }
 425:.\main.c      ****         break;
 426:.\main.c      ****             
 427:.\main.c      ****         case 5:
 428:.\main.c      ****             if(Display1_GetRxBufferSize()==8){
 429:.\main.c      ****                 if((Display1_rxBuffer[0]==0xAA) && (Display1_rxBuffer[6]==0xC3) && (Display1_rxBuff
 430:.\main.c      ****                     switch(Display1_rxBuffer[3]){
ARM GAS  C:\Users\Diego\AppData\Local\Temp\cc9VkXHl.s 			page 9


 431:.\main.c      ****                         case 0x80:  //Grado 1 
 432:.\main.c      ****                             flowDisplay1 = 6;
 433:.\main.c      ****                             side.a.hose = 1;
 434:.\main.c      ****                             SetPicture(1,DISPLAY_DESEA_IMPRIMIR_RECIBO);                           
 435:.\main.c      ****                         break;
 436:.\main.c      ****                             
 437:.\main.c      ****                         case 0x81:  //Grado 2 
 438:.\main.c      ****                             flowDisplay1 = 6;
 439:.\main.c      ****                             side.a.hose = 2;
 440:.\main.c      ****                             SetPicture(1,DISPLAY_DESEA_IMPRIMIR_RECIBO);                           
 441:.\main.c      ****                         break;
 442:.\main.c      ****                             
 443:.\main.c      ****                         case 0x7F:  //Grado 3
 444:.\main.c      ****                             flowDisplay1 = 6;
 445:.\main.c      ****                             side.a.hose = 3;
 446:.\main.c      ****                             SetPicture(1,DISPLAY_DESEA_IMPRIMIR_RECIBO);                           
 447:.\main.c      ****                         break;   
 448:.\main.c      ****                         
 449:.\main.c      ****                         case 0xB8:  //Grado 4 
 450:.\main.c      ****                             flowDisplay1 = 6;
 451:.\main.c      ****                             side.a.hose = 4;
 452:.\main.c      ****                             SetPicture(1,DISPLAY_DESEA_IMPRIMIR_RECIBO);                           
 453:.\main.c      ****                         break;
 454:.\main.c      ****                             
 455:.\main.c      ****                         case 0x94:  //Retroceso 
 456:.\main.c      ****                             flowDisplay1 = 0;
 457:.\main.c      ****                             SetPicture(1,DISPLAY_INICIO0);                                         
 458:.\main.c      ****                         break;
 459:.\main.c      ****                             
 460:.\main.c      ****                         case 0x7E:  //Pantalla Inicial                                             
 461:.\main.c      ****                             SetPicture(1,DISPLAY_INICIO0);
 462:.\main.c      ****                             flowDisplay1 = 0;
 463:.\main.c      ****                         break;
 464:.\main.c      ****                     }                    
 465:.\main.c      ****                 }
 466:.\main.c      ****                 CyDelay(10);         
 467:.\main.c      ****                 Display1_ClearRxBuffer();
 468:.\main.c      ****             }
 469:.\main.c      ****         break;
 470:.\main.c      ****                     
 471:.\main.c      ****         case 6:
 472:.\main.c      ****             if(Display1_GetRxBufferSize()==8){
 473:.\main.c      ****                 if((Display1_rxBuffer[0]==0xAA) && (Display1_rxBuffer[6]==0xC3) && (Display1_rxBuff
 474:.\main.c      ****                     switch(Display1_rxBuffer[3]){
 475:.\main.c      ****                         case 0x39:  //Si imprimir  
 476:.\main.c      ****                             flowDisplay1 = 9;
 477:.\main.c      ****                             numberKeys1 = 0;
 478:.\main.c      ****                             bufferDisplay1.flagKeyboard = 1;
 479:.\main.c      ****                             bufferDisplay1.flagPrint =  1;
 480:.\main.c      ****                             SetPicture(1,DISPLAY_DIGITE_PLACA);                            
 481:.\main.c      ****                         break; 
 482:.\main.c      ****                         case 0x38:  //No imprimir
 483:.\main.c      ****                             bufferDisplay1.flagKeyboard = 0;
 484:.\main.c      ****                             flowDisplay1 = 7;//Esperando estado del dispensador  
 485:.\main.c      ****                             count_protector=0;
 486:.\main.c      ****                             SetPicture(1,DISPLAY_SUBA_MANIJA);                            
 487:.\main.c      ****                         break;
ARM GAS  C:\Users\Diego\AppData\Local\Temp\cc9VkXHl.s 			page 10


 488:.\main.c      ****                         case 0x7E:  //Pantalla Inicial                                             
 489:.\main.c      ****                             SetPicture(1,DISPLAY_INICIO0);
 490:.\main.c      ****                             flowDisplay1 = 0;
 491:.\main.c      ****                         break;
 492:.\main.c      ****                     }                    
 493:.\main.c      ****                 }
 494:.\main.c      ****                 CyDelay(10);         
 495:.\main.c      ****                 Display1_ClearRxBuffer();
 496:.\main.c      ****             }
 497:.\main.c      ****         break;
 498:.\main.c      ****                                         
 499:.\main.c      ****             
 500:.\main.c      ****         case 7:
 501:.\main.c      ****             isr_3_StartEx(animacion);
 502:.\main.c      ****             Timer_Animacion_Start();
 503:.\main.c      ****             side.a.activeHose = PumpHoseActiveState(1);  
 504:.\main.c      ****             if (side.a.activeHose == side.a.hose){                
 505:.\main.c      ****                 if(PresetData(side.a.dir,side.a.activeHose,bufferDisplay1.presetValue[0],bufferDisp
 506:.\main.c      ****                     get_state(side.a.dir);
 507:.\main.c      ****                     Pump_PutChar(0x10|side.a.dir);//Autoriza el surtidor
 508:.\main.c      ****                     CyDelay(50);
 509:.\main.c      ****                     flowDisplay1 = 8;
 510:.\main.c      ****                     SetPicture(1,DISPLAY_DESPACHANDO);
 511:.\main.c      ****                 }else{
 512:.\main.c      ****                     flowDisplay1 = 0;
 513:.\main.c      ****                     SetPicture(1,DISPLAY_ERROR);
 514:.\main.c      ****                     CyDelay(200);
 515:.\main.c      ****                     SetPicture(1,DISPLAY_INICIO0);
 516:.\main.c      ****                 }
 517:.\main.c      ****             }else{
 518:.\main.c      ****                 flowDisplay1 = 7;
 519:.\main.c      ****                 if(count_protector>=30){
 520:.\main.c      ****                     flowDisplay1 = 0;	
 521:.\main.c      ****         			count_protector=0;
 522:.\main.c      ****                     SetPicture(1,DISPLAY_INICIO0);
 523:.\main.c      ****         		 }
 524:.\main.c      ****             }
 525:.\main.c      ****             if(Display1_GetRxBufferSize()==8){
 526:.\main.c      ****                 if((Display1_rxBuffer[0]==0xAA) && (Display1_rxBuffer[6]==0xC3) && (Display1_rxBuff
 527:.\main.c      ****                     switch(Display1_rxBuffer[3]){                        
 528:.\main.c      ****                         case 0x7E:  //Pantalla Inicial                                             
 529:.\main.c      ****                             SetPicture(1,DISPLAY_INICIO0);
 530:.\main.c      ****                             flowDisplay1 = 0;
 531:.\main.c      ****                         break;
 532:.\main.c      ****                     }                    
 533:.\main.c      ****                 }
 534:.\main.c      ****                 CyDelay(10);                         
 535:.\main.c      ****             }
 536:.\main.c      ****             Display1_ClearRxBuffer();
 537:.\main.c      ****         break;
 538:.\main.c      ****             
 539:.\main.c      ****         case 8:
 540:.\main.c      ****             switch (get_state(side.a.dir)){
 541:.\main.c      ****                 case 0x0A: //reporte fin venta
 542:.\main.c      ****                     getSale(side.a.dir);
 543:.\main.c      ****                     flowDisplay1 = 0;
 544:.\main.c      ****                     if(bufferDisplay1.flagPrint ==1){
ARM GAS  C:\Users\Diego\AppData\Local\Temp\cc9VkXHl.s 			page 11


 545:.\main.c      ****                         imprimir(1,side.a.dir);
 546:.\main.c      ****                     }
 547:.\main.c      ****                     SetPicture(1,DISPLAY_INICIO0);                            
 548:.\main.c      ****                 break;
 549:.\main.c      ****                 case 0x0B://Reporte de venta
 550:.\main.c      ****                     getSale(side.a.dir);
 551:.\main.c      ****                     flowDisplay1 = 0;
 552:.\main.c      ****                     if(bufferDisplay1.flagPrint ==1){
 553:.\main.c      ****                         imprimir(1,side.a.dir);
 554:.\main.c      ****                     }
 555:.\main.c      ****                     SetPicture(1,DISPLAY_INICIO0);
 556:.\main.c      ****                 break;
 557:.\main.c      ****                 case 0x06://Espera
 558:.\main.c      ****                     flowDisplay1 = 0;
 559:.\main.c      ****                     SetPicture(1,DISPLAY_INICIO0);
 560:.\main.c      ****                 break;
 561:.\main.c      ****             }
 562:.\main.c      ****             
 563:.\main.c      ****         break;
 564:.\main.c      ****             
 565:.\main.c      ****         case 9: //Teclado Placa            
 566:.\main.c      ****             switch (alphanumeric_keyboard(1,10,0)){
 567:.\main.c      ****                 case 0: //Cancelar
 568:.\main.c      ****                     switch(bufferDisplay1.flagKeyboard){
 569:.\main.c      ****                         case 1://Placa
 570:.\main.c      ****                             for(x=0;x<=10;x++){
 571:.\main.c      ****                                 bufferDisplay1.licenceSale[x]=0;
 572:.\main.c      ****                             }
 573:.\main.c      ****                             flowDisplay1 = 0;//Inicio
 574:.\main.c      ****                             SetPicture(1,DISPLAY_INICIO0);
 575:.\main.c      ****                         break;
 576:.\main.c      ****                         
 577:.\main.c      ****                         case 2://Kilometraje
 578:.\main.c      ****                             for(x=0;x<=10;x++){
 579:.\main.c      ****                                 bufferDisplay1.mileageSale[x]=0;
 580:.\main.c      ****                             }
 581:.\main.c      ****                         break;
 582:.\main.c      ****                         
 583:.\main.c      ****                         case 3://CC/NIT
 584:.\main.c      ****                             for(x=0;x<=10;x++){
 585:.\main.c      ****                                 bufferDisplay1.identySale[x]=0;
 586:.\main.c      ****                             }
 587:.\main.c      ****                         break;
 588:.\main.c      ****                     }                    
 589:.\main.c      ****                     Display1_ClearRxBuffer();
 590:.\main.c      ****                 break;
 591:.\main.c      ****                     
 592:.\main.c      ****                 case 1: //Enter
 593:.\main.c      ****                     switch(bufferDisplay1.flagKeyboard){
 594:.\main.c      ****                         case 1://Placa
 595:.\main.c      ****                             for(x=0;x<=bufferDisplay1.valueKeys[0];x++){
 596:.\main.c      ****                                 bufferDisplay1.licenceSale[x]=bufferDisplay1.valueKeys[x];
 597:.\main.c      ****                             }
 598:.\main.c      ****                             flowDisplay1 = 7;//Suba manija
 599:.\main.c      ****                             SetPicture(1,DISPLAY_SUBA_MANIJA);
 600:.\main.c      ****                         break;
 601:.\main.c      ****                         
ARM GAS  C:\Users\Diego\AppData\Local\Temp\cc9VkXHl.s 			page 12


 602:.\main.c      ****                         case 2://Kilometraje
 603:.\main.c      ****                             for(x=0;x<=bufferDisplay1.valueKeys[0];x++){
 604:.\main.c      ****                                 bufferDisplay1.mileageSale[x]=bufferDisplay1.valueKeys[x];
 605:.\main.c      ****                             }
 606:.\main.c      ****                             flowDisplay1 = 7;//Suba manija
 607:.\main.c      ****                             SetPicture(1,DISPLAY_SUBA_MANIJA);
 608:.\main.c      ****                         break;
 609:.\main.c      ****                         
 610:.\main.c      ****                         case 3://CC/NIT
 611:.\main.c      ****                             for(x=0;x<=bufferDisplay1.valueKeys[0];x++){
 612:.\main.c      ****                                 bufferDisplay1.identySale[x]=bufferDisplay1.valueKeys[x];
 613:.\main.c      ****                             }
 614:.\main.c      ****                         break;
 615:.\main.c      ****                     }                    
 616:.\main.c      ****                     Display1_ClearRxBuffer();
 617:.\main.c      ****                 break;
 618:.\main.c      ****             }            
 619:.\main.c      ****         break;    
 620:.\main.c      ****     ////////////////// CASOS PARA CRÉDITO  /////////////////////
 621:.\main.c      ****         case 10:
 622:.\main.c      ****             if(Display1_GetRxBufferSize()==8){
 623:.\main.c      ****                 if((Display1_rxBuffer[0]==0xAA) && (Display1_rxBuffer[6]==0xC3) && (Display1_rxBuff
 624:.\main.c      ****                     switch(Display1_rxBuffer[3]){
 625:.\main.c      ****                         case 0xB6:  //Solicitud ibutton  
 626:.\main.c      ****                             flowDisplay1 = 11;
 627:.\main.c      ****                             numberKeys1 = 0;
 628:.\main.c      ****                             bufferDisplay1.flagKeyboard = 1;
 629:.\main.c      ****                             bufferDisplay1.flagPrint =  1;
 630:.\main.c      ****                             SetPicture(1,DISPLAY_ESPERANDO_ID);                            
 631:.\main.c      ****                         break; 
 632:.\main.c      ****                         case 0xB7:  //ID por número
 633:.\main.c      ****                             bufferDisplay1.flagKeyboard = 0;
 634:.\main.c      ****                             flowDisplay1 = 7;//Esperando estado del dispensador  
 635:.\main.c      ****                             count_protector=0;
 636:.\main.c      ****                             SetPicture(1,DISPLAY_SUBA_MANIJA);                            
 637:.\main.c      ****                         break;
 638:.\main.c      ****                         case 0x7E:  //Pantalla Inicial                                             
 639:.\main.c      ****                             SetPicture(1,DISPLAY_INICIO0);
 640:.\main.c      ****                             flowDisplay1 = 0;
 641:.\main.c      ****                         break;
 642:.\main.c      ****                     }                    
 643:.\main.c      ****                 }
 644:.\main.c      ****                 CyDelay(10);         
 645:.\main.c      ****                 Display1_ClearRxBuffer();
 646:.\main.c      ****             }                        
 647:.\main.c      ****         break;
 648:.\main.c      ****         
 649:.\main.c      ****         case 11:
 650:.\main.c      ****             isr_3_StartEx(animacion);
 651:.\main.c      ****             Timer_Animacion_Start();
 652:.\main.c      ****             if(touch_present(1)==1){
 653:.\main.c      **** 				if(touch_write(1,0x33)){
 654:.\main.c      **** 					for(x=1;x<=8;x++){
 655:.\main.c      **** 						temporal[x]=touch_read_byte(1);
 656:.\main.c      **** 					}
 657:.\main.c      **** 					y=0;
 658:.\main.c      **** 					for(x=1;x<8;x++){
ARM GAS  C:\Users\Diego\AppData\Local\Temp\cc9VkXHl.s 			page 13


 659:.\main.c      ****                         y=crc_check(y,temporal[x]);
 660:.\main.c      ****                     }
 661:.\main.c      **** 					if(y==temporal[8]){
 662:.\main.c      **** 						bufferDisplay1.idSerial[0]=16;
 663:.\main.c      **** 						y=16;
 664:.\main.c      **** 						for(x=1;x<=8;x++){
 665:.\main.c      **** 							if((temporal[x]&0x0F)>=10){
 666:.\main.c      **** 								bufferDisplay1.idSerial[y]=(temporal[x]&0x0F)+55;
 667:.\main.c      **** 							}else{
 668:.\main.c      **** 								bufferDisplay1.idSerial[y]=(temporal[x]&0x0F)+48;				
 669:.\main.c      **** 							}
 670:.\main.c      ****                             y--;
 671:.\main.c      **** 							if(((temporal[x]>>4)&0x0F)>=10){
 672:.\main.c      **** 								bufferDisplay1.idSerial[y]=((temporal[x]>>4)&0x0F)+55;
 673:.\main.c      **** 							}else{
 674:.\main.c      **** 								bufferDisplay1.idSerial[y]=((temporal[x]>>4)&0x0F)+48;				
 675:.\main.c      **** 							}
 676:.\main.c      ****                             y--;
 677:.\main.c      **** 						}                        
 678:.\main.c      ****                         SetPicture(1,DISPLAY_ID_RECONOCIDO);                                       
 679:.\main.c      ****                         Display1_ClearRxBuffer();
 680:.\main.c      ****                         CyDelay(700);
 681:.\main.c      ****                         bufferDisplay1.flagKeyboard = 1;
 682:.\main.c      ****                         flowDisplay1 = 9;
 683:.\main.c      ****                         SetPicture(1,DISPLAY_INTRODUZCA_KILOMETRAJE);
 684:.\main.c      ****                         
 685:.\main.c      **** 					}
 686:.\main.c      **** 				}
 687:.\main.c      **** 			}
 688:.\main.c      ****             if(count_protector>=60){
 689:.\main.c      ****                 flowDisplay1 = 0;	
 690:.\main.c      ****     			count_protector=0;
 691:.\main.c      ****                 SetPicture(1,DISPLAY_INICIO0);
 692:.\main.c      ****     		}
 693:.\main.c      ****                                     
 694:.\main.c      ****         break;    
 695:.\main.c      ****             
 696:.\main.c      ****     }
 697:.\main.c      **** }
 698:.\main.c      **** 
 699:.\main.c      **** 
 700:.\main.c      **** 
 701:.\main.c      **** /*
 702:.\main.c      **** ***************************************************************************************************
 703:.\main.c      **** *                                         void polling_Pump(void)
 704:.\main.c      **** *
 705:.\main.c      **** * Description : Pregunta estado al surtidor 
 706:.\main.c      **** *               
 707:.\main.c      **** *
 708:.\main.c      **** ***************************************************************************************************
 709:.\main.c      **** */
 710:.\main.c      **** void PollingDisplay2(void){     
 711:.\main.c      ****     switch(flowDisplay2){
 712:.\main.c      ****         case 0:
 713:.\main.c      ****             InitDisplay2();
 714:.\main.c      ****             flowDisplay2 =1;
 715:.\main.c      ****         break;
ARM GAS  C:\Users\Diego\AppData\Local\Temp\cc9VkXHl.s 			page 14


 716:.\main.c      ****         case 1: //Menu
 717:.\main.c      **** 			ShowRectangle(2,35);        
 718:.\main.c      ****             if(Display2_GetRxBufferSize()==8){
 719:.\main.c      ****                 if((Display2_rxBuffer[0]==0xAA) && (Display2_rxBuffer[6]==0xC3) && (Display2_rxBuff
 720:.\main.c      ****                     switch(Display2_rxBuffer[3]){
 721:.\main.c      ****                         case 0x3A:  //Pantalla forma de pago
 722:.\main.c      ****                             flowDisplay2 = 2;                            
 723:.\main.c      ****                             SetPicture(2,DISPLAY_FORMA_PAGO_DESEADA);                            
 724:.\main.c      ****                         break;   
 725:.\main.c      ****                         case 0x7E:  //Pantalla Inicial                                             
 726:.\main.c      ****                             SetPicture(2,DISPLAY_INICIO0);
 727:.\main.c      ****                             flowDisplay2 = 0;
 728:.\main.c      ****                         break;
 729:.\main.c      ****                     }
 730:.\main.c      ****                 }  
 731:.\main.c      ****                 CyDelay(10);         
 732:.\main.c      ****                 Display2_ClearRxBuffer();
 733:.\main.c      ****             }
 734:.\main.c      ****         break;
 735:.\main.c      ****         case 2:
 736:.\main.c      ****             if(Display2_GetRxBufferSize()==8){
 737:.\main.c      ****                 if((Display2_rxBuffer[0]==0xAA) && (Display2_rxBuffer[6]==0xC3) && (Display2_rxBuff
 738:.\main.c      ****                     switch(Display2_rxBuffer[3]){
 739:.\main.c      ****                         case 0x0D:  //Pantalla efectivo              
 740:.\main.c      ****                             flowDisplay2 = 3;                            
 741:.\main.c      ****                             SetPicture(2,DISPLAY_FORMA_PROGRAMACION);                            
 742:.\main.c      ****                         break;
 743:.\main.c      ****                         case 0x0E:  //Pantalla credito   
 744:.\main.c      ****                             flowDisplay2 = 4;                                                     
 745:.\main.c      ****                             SetPicture(2,DISPLAY_ID_DIGITAL);                            
 746:.\main.c      ****                         break;
 747:.\main.c      ****                         case 0x45:  //Pantalla otras opciones 
 748:.\main.c      ****                             flowDisplay2 = 5;                            
 749:.\main.c      ****                             SetPicture(2,DISPLAY_OPERACIONES);                            
 750:.\main.c      ****                         break;
 751:.\main.c      ****                             
 752:.\main.c      ****                         case 0x94:  //Pantalla Inicial    
 753:.\main.c      ****                             flowDisplay2 = 0;
 754:.\main.c      ****                             SetPicture(2,DISPLAY_INICIO0);                            
 755:.\main.c      ****                         break;
 756:.\main.c      ****                         
 757:.\main.c      ****                         case 0x7E:  //Pantalla Inicial    
 758:.\main.c      ****                             flowDisplay2 = 0;
 759:.\main.c      ****                             SetPicture(2,DISPLAY_INICIO0);                            
 760:.\main.c      ****                         break;
 761:.\main.c      ****                     }
 762:.\main.c      ****                 }  
 763:.\main.c      ****                 CyDelay(10);         
 764:.\main.c      ****                 Display2_ClearRxBuffer();
 765:.\main.c      ****             }
 766:.\main.c      ****         break;
 767:.\main.c      ****             
 768:.\main.c      ****         case 3: 
 769:.\main.c      ****             if(Display2_GetRxBufferSize()==8){
 770:.\main.c      ****                 if((Display2_rxBuffer[0]==0xAA) && (Display2_rxBuffer[6]==0xC3) && (Display2_rxBuff
 771:.\main.c      ****                     switch(Display2_rxBuffer[3]){
 772:.\main.c      ****                         case 0x0F:  //Preset dinero                
ARM GAS  C:\Users\Diego\AppData\Local\Temp\cc9VkXHl.s 			page 15


 773:.\main.c      ****                             flowDisplay2 = 4;
 774:.\main.c      ****                             SetPicture(2,DISPLAY_INTRODUZCA_VALOR);                            
 775:.\main.c      ****                         break; 
 776:.\main.c      ****                         case 0x10:  //Preset volumen                 
 777:.\main.c      ****                             flowDisplay2 = 5;
 778:.\main.c      ****                             SetPicture(2,DISPLAY_INTRODUZCA_VOLUMEN);                            
 779:.\main.c      ****                         break;
 780:.\main.c      ****                         case 0x43:  //Preset full                       
 781:.\main.c      ****                             flowDisplay2 = 6;
 782:.\main.c      ****                             SetPicture(2,DISPLAY_DESEA_IMPRIMIR_RECIBO);                           
 783:.\main.c      ****                         break;
 784:.\main.c      ****                         case 0x94:  //Retroceso 
 785:.\main.c      ****                             flowDisplay2 = 0;
 786:.\main.c      ****                             SetPicture(2,DISPLAY_INICIO0);                                         
 787:.\main.c      ****                         break;
 788:.\main.c      ****                         case 0x3B:  //Pantalla Inicial    
 789:.\main.c      ****                             flowDisplay2 = 0;
 790:.\main.c      ****                             SetPicture(2,DISPLAY_INICIO0);                            
 791:.\main.c      ****                         break;
 792:.\main.c      ****                         case 0x7E:  //Pantalla Inicial    
 793:.\main.c      ****                             flowDisplay2 = 0;
 794:.\main.c      ****                             SetPicture(2,DISPLAY_INICIO0);                            
 795:.\main.c      ****                         break;
 796:.\main.c      ****                     }
 797:.\main.c      ****                 }  
 798:.\main.c      ****                 CyDelay(10);         
 799:.\main.c      ****                 Display2_ClearRxBuffer();
 800:.\main.c      ****             }
 801:.\main.c      ****         break;
 802:.\main.c      ****         
 803:.\main.c      ****         case 4:
 804:.\main.c      ****             if(Display2_GetRxBufferSize()==8){
 805:.\main.c      ****                 if((Display2_rxBuffer[0]==0xAA) && (Display2_rxBuffer[6]==0xC3) && (Display2_rxBuff
 806:.\main.c      ****                     switch(Display2_rxBuffer[3]){
 807:.\main.c      ****                         case 0x94:  //Retroceso 
 808:.\main.c      ****                             flowDisplay2 = 0;   
 809:.\main.c      ****                             SetPicture(2,DISPLAY_INICIO0);                                         
 810:.\main.c      ****                         break;
 811:.\main.c      ****                         case 0x7E:  //Pantalla Inicial    
 812:.\main.c      ****                             flowDisplay2 = 0;
 813:.\main.c      ****                             SetPicture(2,DISPLAY_INICIO0);                            
 814:.\main.c      ****                         break;
 815:.\main.c      ****                     }
 816:.\main.c      ****                 }
 817:.\main.c      ****                 CyDelay(10);         
 818:.\main.c      ****                 Display2_ClearRxBuffer();
 819:.\main.c      ****             }
 820:.\main.c      ****         break;
 821:.\main.c      ****             
 822:.\main.c      ****         case 5: //Preset por volumen
 823:.\main.c      ****             if(Display2_GetRxBufferSize()==8){
 824:.\main.c      ****                 if((Display2_rxBuffer[0]==0xAA) && (Display2_rxBuffer[6]==0xC3) && (Display2_rxBuff
 825:.\main.c      ****                     switch(Display2_rxBuffer[3]){
 826:.\main.c      ****                         case 0x94:  //Retroceso 
 827:.\main.c      ****                             flowDisplay2 = 0;   
 828:.\main.c      ****                             SetPicture(2,DISPLAY_INICIO0);                                         
 829:.\main.c      ****                         break;
ARM GAS  C:\Users\Diego\AppData\Local\Temp\cc9VkXHl.s 			page 16


 830:.\main.c      ****                         case 0x7E:  //Pantalla Inicial    
 831:.\main.c      ****                             flowDisplay2 = 0;
 832:.\main.c      ****                             SetPicture(2,DISPLAY_INICIO0);                            
 833:.\main.c      ****                         break;
 834:.\main.c      ****                     }
 835:.\main.c      ****                 }
 836:.\main.c      ****                 CyDelay(10);         
 837:.\main.c      ****                 Display2_ClearRxBuffer();
 838:.\main.c      ****             }
 839:.\main.c      ****         break;
 840:.\main.c      ****         
 841:.\main.c      ****         case 6:
 842:.\main.c      ****             if(Display2_GetRxBufferSize()==8){
 843:.\main.c      ****                 if((Display2_rxBuffer[0]==0xAA) && (Display2_rxBuffer[6]==0xC3) && (Display2_rxBuff
 844:.\main.c      ****                     switch(Display2_rxBuffer[3]){
 845:.\main.c      ****                         case 0x39:  //Si copia                                                     
 846:.\main.c      ****                             SetPicture(2,DISPLAY_DIGITE_PLACA);
 847:.\main.c      ****                             flowDisplay2 = 7;
 848:.\main.c      ****                         break; 
 849:.\main.c      ****                         case 0x38:  //No copia                                                     
 850:.\main.c      ****                             SetPicture(2,DISPLAY_SELECCIONE_PRODUCTO4);
 851:.\main.c      ****                             flowDisplay2 = 8;//caso para seleccion de producto
 852:.\main.c      ****                         break;
 853:.\main.c      ****                         case 0x7E:  //Pantalla Inicial                                             
 854:.\main.c      ****                             SetPicture(2,DISPLAY_INICIO0);
 855:.\main.c      ****                             flowDisplay2 = 0;
 856:.\main.c      ****                         break;
 857:.\main.c      ****                     }                    
 858:.\main.c      ****                 }
 859:.\main.c      ****                 CyDelay(10);         
 860:.\main.c      ****                 Display2_ClearRxBuffer();
 861:.\main.c      ****             }
 862:.\main.c      ****         break;
 863:.\main.c      ****     }
 864:.\main.c      **** }
 865:.\main.c      **** 
 866:.\main.c      **** 
 867:.\main.c      **** 
 868:.\main.c      **** /*
 869:.\main.c      **** ***************************************************************************************************
 870:.\main.c      **** *                                         CY_ISR(animacion)
 871:.\main.c      **** *
 872:.\main.c      **** * Description : Interrupcion que temporiza las imagenes informativas que aparecen en la pantalla 1
 873:.\main.c      **** *               
 874:.\main.c      **** *
 875:.\main.c      **** * Argument(s) : none
 876:.\main.c      **** *
 877:.\main.c      **** * Return(s)   : none
 878:.\main.c      **** *
 879:.\main.c      **** * Caller(s)   : 
 880:.\main.c      **** *
 881:.\main.c      **** * Note(s)     : none.
 882:.\main.c      **** ***************************************************************************************************
 883:.\main.c      **** */
 884:.\main.c      **** CY_ISR(animacion){
  27              		.loc 1 884 0
  28              		.cfi_startproc
ARM GAS  C:\Users\Diego\AppData\Local\Temp\cc9VkXHl.s 			page 17


  29              		@ args = 0, pretend = 0, frame = 0
  30              		@ frame_needed = 0, uses_anonymous_args = 0
  31 0000 08B5     		push	{r3, lr}
  32              		.cfi_def_cfa_offset 8
  33              		.cfi_offset 3, -8
  34              		.cfi_offset 14, -4
 885:.\main.c      ****     Timer_Animacion_ReadStatusRegister();    					
  35              		.loc 1 885 0
  36 0002 FFF7FEFF 		bl	Timer_Animacion_ReadStatusRegister
  37              	.LVL0:
 886:.\main.c      ****     count_protector++; 							//Incrementa el contador 
  38              		.loc 1 886 0
  39 0006 024A     		ldr	r2, .L3
  40 0008 1378     		ldrb	r3, [r2]	@ zero_extendqisi2
  41 000a 0133     		adds	r3, r3, #1
  42 000c 1370     		strb	r3, [r2]
  43 000e 08BD     		pop	{r3, pc}
  44              	.L4:
  45              		.align	2
  46              	.L3:
  47 0010 00000000 		.word	count_protector
  48              		.cfi_endproc
  49              	.LFE72:
  50              		.size	animacion, .-animacion
  51              		.section	.text.GlobalInitializer,"ax",%progbits
  52              		.align	2
  53              		.global	GlobalInitializer
  54              		.thumb
  55              		.thumb_func
  56              		.type	GlobalInitializer, %function
  57              	GlobalInitializer:
  58              	.LFB63:
  29:.\main.c      ****     EEPROM_1_Start();
  59              		.loc 1 29 0
  60              		.cfi_startproc
  61              		@ args = 0, pretend = 0, frame = 0
  62              		@ frame_needed = 0, uses_anonymous_args = 0
  63 0000 08B5     		push	{r3, lr}
  64              		.cfi_def_cfa_offset 8
  65              		.cfi_offset 3, -8
  66              		.cfi_offset 14, -4
  30:.\main.c      ****     Pump_Start(); 
  67              		.loc 1 30 0
  68 0002 FFF7FEFF 		bl	EEPROM_1_Start
  69              	.LVL1:
  31:.\main.c      ****     Display1_Start();
  70              		.loc 1 31 0
  71 0006 FFF7FEFF 		bl	Pump_Start
  72              	.LVL2:
  32:.\main.c      ****     Display2_Start();
  73              		.loc 1 32 0
  74 000a FFF7FEFF 		bl	Display1_Start
  75              	.LVL3:
  33:.\main.c      ****     RF_Physical_Start();    
  76              		.loc 1 33 0
  77 000e FFF7FEFF 		bl	Display2_Start
  78              	.LVL4:
ARM GAS  C:\Users\Diego\AppData\Local\Temp\cc9VkXHl.s 			page 18


  34:.\main.c      ****     Printer_Start();   
  79              		.loc 1 34 0
  80 0012 FFF7FEFF 		bl	RF_Physical_Start
  81              	.LVL5:
  35:.\main.c      ****     I2C_Bus_Start();
  82              		.loc 1 35 0
  83 0016 FFF7FEFF 		bl	Printer_Start
  84              	.LVL6:
  36:.\main.c      **** }
  85              		.loc 1 36 0
  86 001a FFF7FEFF 		bl	I2C_Bus_Start
  87              	.LVL7:
  88 001e 08BD     		pop	{r3, pc}
  89              		.cfi_endproc
  90              	.LFE63:
  91              		.size	GlobalInitializer, .-GlobalInitializer
  92              		.section	.text.StoreConfiguration,"ax",%progbits
  93              		.align	2
  94              		.global	StoreConfiguration
  95              		.thumb
  96              		.thumb_func
  97              		.type	StoreConfiguration, %function
  98              	StoreConfiguration:
  99              	.LFB64:
  38:.\main.c      ****     EEPROM_1_WriteByte(UnitType,0);
 100              		.loc 1 38 0
 101              		.cfi_startproc
 102              		@ args = 0, pretend = 0, frame = 0
 103              		@ frame_needed = 0, uses_anonymous_args = 0
 104 0000 10B5     		push	{r4, lr}
 105              		.cfi_def_cfa_offset 8
 106              		.cfi_offset 4, -8
 107              		.cfi_offset 14, -4
  39:.\main.c      ****     EEPROM_1_WriteByte(ConversionFactor,1);
 108              		.loc 1 39 0
 109 0002 154C     		ldr	r4, .L9
 110 0004 2078     		ldrb	r0, [r4]	@ zero_extendqisi2
 111 0006 0021     		movs	r1, #0
 112 0008 FFF7FEFF 		bl	EEPROM_1_WriteByte
 113              	.LVL8:
  40:.\main.c      ****     EEPROM_1_WriteByte(MoneyDec,2);
 114              		.loc 1 40 0
 115 000c 134B     		ldr	r3, .L9+4
 116 000e 1878     		ldrb	r0, [r3]	@ zero_extendqisi2
 117 0010 0121     		movs	r1, #1
 118 0012 FFF7FEFF 		bl	EEPROM_1_WriteByte
 119              	.LVL9:
  41:.\main.c      ****     EEPROM_1_WriteByte(VolDec,3);
 120              		.loc 1 41 0
 121 0016 124B     		ldr	r3, .L9+8
 122 0018 1878     		ldrb	r0, [r3]	@ zero_extendqisi2
 123 001a 0221     		movs	r1, #2
 124 001c FFF7FEFF 		bl	EEPROM_1_WriteByte
 125              	.LVL10:
  42:.\main.c      ****     EEPROM_1_WriteByte(PPUDec,4);
 126              		.loc 1 42 0
 127 0020 104B     		ldr	r3, .L9+12
ARM GAS  C:\Users\Diego\AppData\Local\Temp\cc9VkXHl.s 			page 19


 128 0022 1878     		ldrb	r0, [r3]	@ zero_extendqisi2
 129 0024 0321     		movs	r1, #3
 130 0026 FFF7FEFF 		bl	EEPROM_1_WriteByte
 131              	.LVL11:
  43:.\main.c      ****     EEPROM_1_WriteByte(DDMode,5);
 132              		.loc 1 43 0
 133 002a 0F4B     		ldr	r3, .L9+16
 134 002c 1878     		ldrb	r0, [r3]	@ zero_extendqisi2
 135 002e 0421     		movs	r1, #4
 136 0030 FFF7FEFF 		bl	EEPROM_1_WriteByte
 137              	.LVL12:
  44:.\main.c      ****     EEPROM_1_WriteByte(digits,6);
 138              		.loc 1 44 0
 139 0034 0D4B     		ldr	r3, .L9+20
 140 0036 1878     		ldrb	r0, [r3]	@ zero_extendqisi2
 141 0038 0521     		movs	r1, #5
 142 003a FFF7FEFF 		bl	EEPROM_1_WriteByte
 143              	.LVL13:
  45:.\main.c      ****     EEPROM_1_WriteByte(UnitType+1,7);
 144              		.loc 1 45 0
 145 003e 0C4B     		ldr	r3, .L9+24
 146 0040 1878     		ldrb	r0, [r3]	@ zero_extendqisi2
 147 0042 0621     		movs	r1, #6
 148 0044 FFF7FEFF 		bl	EEPROM_1_WriteByte
 149              	.LVL14:
  46:.\main.c      **** }
 150              		.loc 1 46 0
 151 0048 2078     		ldrb	r0, [r4]	@ zero_extendqisi2
 152 004a 0130     		adds	r0, r0, #1
 153 004c C0B2     		uxtb	r0, r0
 154 004e 0721     		movs	r1, #7
 155 0050 FFF7FEFF 		bl	EEPROM_1_WriteByte
 156              	.LVL15:
 157 0054 10BD     		pop	{r4, pc}
 158              	.L10:
 159 0056 00BF     		.align	2
 160              	.L9:
 161 0058 00000000 		.word	UnitType
 162 005c 00000000 		.word	ConversionFactor
 163 0060 00000000 		.word	MoneyDec
 164 0064 00000000 		.word	VolDec
 165 0068 00000000 		.word	PPUDec
 166 006c 00000000 		.word	DDMode
 167 0070 00000000 		.word	digits
 168              		.cfi_endproc
 169              	.LFE64:
 170              		.size	StoreConfiguration, .-StoreConfiguration
 171              		.section	.text.InitDisplay1,"ax",%progbits
 172              		.align	2
 173              		.global	InitDisplay1
 174              		.thumb
 175              		.thumb_func
 176              		.type	InitDisplay1, %function
 177              	InitDisplay1:
 178              	.LFB65:
  57:.\main.c      ****     uint8_t iniText[10]="Iniciando"; 
 179              		.loc 1 57 0
ARM GAS  C:\Users\Diego\AppData\Local\Temp\cc9VkXHl.s 			page 20


 180              		.cfi_startproc
 181              		@ args = 0, pretend = 0, frame = 112
 182              		@ frame_needed = 0, uses_anonymous_args = 0
 183 0000 10B5     		push	{r4, lr}
 184              		.cfi_def_cfa_offset 8
 185              		.cfi_offset 4, -8
 186              		.cfi_offset 14, -4
 187 0002 9CB0     		sub	sp, sp, #112
 188              		.cfi_def_cfa_offset 120
  58:.\main.c      ****     uint8_t Unit[10] = "S/D/Dupla ";
 189              		.loc 1 58 0
 190 0004 994A     		ldr	r2, .L28
 191 0006 19AB     		add	r3, sp, #100
 192 0008 07CA     		ldmia	r2, {r0, r1, r2}
 193 000a 03C3     		stmia	r3!, {r0, r1}
 194 000c 1A80     		strh	r2, [r3]	@ movhi
  59:.\main.c      ****     uint8_t Unit2[10] = "Quadrupla";
 195              		.loc 1 59 0
 196 000e 984B     		ldr	r3, .L28+4
 197 0010 16AC     		add	r4, sp, #88
 198 0012 93E80700 		ldmia	r3, {r0, r1, r2}
 199 0016 03C4     		stmia	r4!, {r0, r1}
 200 0018 2280     		strh	r2, [r4]	@ movhi
  60:.\main.c      ****     uint8_t Unit3[10] = "Sextupla";
 201              		.loc 1 60 0
 202 001a 964A     		ldr	r2, .L28+8
 203 001c 13AC     		add	r4, sp, #76
 204 001e 07CA     		ldmia	r2, {r0, r1, r2}
 205 0020 03C4     		stmia	r4!, {r0, r1}
 206 0022 2280     		strh	r2, [r4]	@ movhi
  61:.\main.c      ****     uint8_t Unit4[10] = "Octupla";
 207              		.loc 1 61 0
 208 0024 10AC     		add	r4, sp, #64
 209 0026 03F10C02 		add	r2, r3, #12
 210 002a 07CA     		ldmia	r2, {r0, r1, r2}
 211 002c 03C4     		stmia	r4!, {r0, r1}
 212 002e 2270     		strb	r2, [r4]
 213 0030 0022     		movs	r2, #0
 214 0032 8DF84920 		strb	r2, [sp, #73]
  62:.\main.c      ****     uint8_t DisplayMode0[10] = "5-5-4     ";
 215              		.loc 1 62 0
 216 0036 0DAC     		add	r4, sp, #52
 217 0038 03F11801 		add	r1, r3, #24
 218 003c 03C9     		ldmia	r1, {r0, r1}
 219 003e 84E80300 		stmia	r4, {r0, r1}
 220 0042 ADF83C20 		strh	r2, [sp, #60]	@ movhi
  63:.\main.c      ****     uint8_t DisplayMode[10] = "6-6-4     ";
 221              		.loc 1 63 0
 222 0046 0AAC     		add	r4, sp, #40
 223 0048 03F12402 		add	r2, r3, #36
 224 004c 07CA     		ldmia	r2, {r0, r1, r2}
 225 004e 03C4     		stmia	r4!, {r0, r1}
 226 0050 2280     		strh	r2, [r4]	@ movhi
  64:.\main.c      ****     uint8_t DisplayMode2[10] = "7-7-5     ";
 227              		.loc 1 64 0
 228 0052 07AC     		add	r4, sp, #28
 229 0054 03F13002 		add	r2, r3, #48
ARM GAS  C:\Users\Diego\AppData\Local\Temp\cc9VkXHl.s 			page 21


 230 0058 07CA     		ldmia	r2, {r0, r1, r2}
 231 005a 03C4     		stmia	r4!, {r0, r1}
 232 005c 2280     		strh	r2, [r4]	@ movhi
  65:.\main.c      ****     uint8_t DisplayMode3[10] = "8-7-5     ";
 233              		.loc 1 65 0
 234 005e 04AC     		add	r4, sp, #16
 235 0060 03F13C02 		add	r2, r3, #60
 236 0064 07CA     		ldmia	r2, {r0, r1, r2}
 237 0066 03C4     		stmia	r4!, {r0, r1}
 238 0068 2280     		strh	r2, [r4]	@ movhi
  66:.\main.c      ****     if(NumPositions == 2){
 239              		.loc 1 66 0
 240 006a 01AC     		add	r4, sp, #4
 241 006c 4833     		adds	r3, r3, #72
 242 006e 93E80700 		ldmia	r3, {r0, r1, r2}
 243 0072 03C4     		stmia	r4!, {r0, r1}
 244 0074 2280     		strh	r2, [r4]	@ movhi
  67:.\main.c      ****         SetPicture(1,DISPLAY_INICIO0);         
 245              		.loc 1 67 0
 246 0076 804B     		ldr	r3, .L28+12
 247 0078 1B78     		ldrb	r3, [r3]	@ zero_extendqisi2
 248 007a 022B     		cmp	r3, #2
 249 007c 7AD1     		bne	.L12
  68:.\main.c      ****         ShowMessage(1,iniText,0);    
 250              		.loc 1 68 0
 251 007e 0120     		movs	r0, #1
 252 0080 0146     		mov	r1, r0
 253 0082 FFF7FEFF 		bl	SetPicture
 254              	.LVL16:
  69:.\main.c      ****         CyDelay(300);
 255              		.loc 1 69 0
 256 0086 0120     		movs	r0, #1
 257 0088 19A9     		add	r1, sp, #100
 258 008a 0022     		movs	r2, #0
 259 008c FFF7FEFF 		bl	ShowMessage
 260              	.LVL17:
  70:.\main.c      ****         if(UnitType == 0){
 261              		.loc 1 70 0
 262 0090 4FF49670 		mov	r0, #300
 263 0094 FFF7FEFF 		bl	CyDelay
 264              	.LVL18:
  71:.\main.c      ****             side.a.hoseNumber = UnitType+1;
 265              		.loc 1 71 0
 266 0098 784B     		ldr	r3, .L28+16
 267 009a 1B78     		ldrb	r3, [r3]	@ zero_extendqisi2
 268 009c 5BB9     		cbnz	r3, .L13
  72:.\main.c      ****             side.b.hoseNumber = UnitType+1;
 269              		.loc 1 72 0
 270 009e 0133     		adds	r3, r3, #1
 271 00a0 DBB2     		uxtb	r3, r3
 272 00a2 774A     		ldr	r2, .L28+20
 273 00a4 82F80231 		strb	r3, [r2, #258]
  73:.\main.c      ****             ShowMessage(1,Unit,0);  //Mostrar tipo de dispensador      
 274              		.loc 1 73 0
 275 00a8 82F80532 		strb	r3, [r2, #517]
  74:.\main.c      ****         }
 276              		.loc 1 74 0
ARM GAS  C:\Users\Diego\AppData\Local\Temp\cc9VkXHl.s 			page 22


 277 00ac 0120     		movs	r0, #1
 278 00ae 16A9     		add	r1, sp, #88
 279 00b0 0022     		movs	r2, #0
 280 00b2 FFF7FEFF 		bl	ShowMessage
 281              	.LVL19:
 282              	.L13:
  76:.\main.c      ****             side.a.hoseNumber = UnitType+1;
 283              		.loc 1 76 0
 284 00b6 714B     		ldr	r3, .L28+16
 285 00b8 1B78     		ldrb	r3, [r3]	@ zero_extendqisi2
 286 00ba 012B     		cmp	r3, #1
 287 00bc 0BD1     		bne	.L14
  77:.\main.c      ****             side.b.hoseNumber = UnitType+1;
 288              		.loc 1 77 0
 289 00be 0133     		adds	r3, r3, #1
 290 00c0 DBB2     		uxtb	r3, r3
 291 00c2 6F4A     		ldr	r2, .L28+20
 292 00c4 82F80231 		strb	r3, [r2, #258]
  78:.\main.c      ****             ShowMessage(1,Unit2,0);
 293              		.loc 1 78 0
 294 00c8 82F80532 		strb	r3, [r2, #517]
  79:.\main.c      ****         }
 295              		.loc 1 79 0
 296 00cc 0120     		movs	r0, #1
 297 00ce 13A9     		add	r1, sp, #76
 298 00d0 0022     		movs	r2, #0
 299 00d2 FFF7FEFF 		bl	ShowMessage
 300              	.LVL20:
 301              	.L14:
  81:.\main.c      ****             side.a.hoseNumber = UnitType+1;
 302              		.loc 1 81 0
 303 00d6 694B     		ldr	r3, .L28+16
 304 00d8 1B78     		ldrb	r3, [r3]	@ zero_extendqisi2
 305 00da 022B     		cmp	r3, #2
 306 00dc 0BD1     		bne	.L15
  82:.\main.c      ****             side.b.hoseNumber = UnitType+1;
 307              		.loc 1 82 0
 308 00de 0133     		adds	r3, r3, #1
 309 00e0 DBB2     		uxtb	r3, r3
 310 00e2 674A     		ldr	r2, .L28+20
 311 00e4 82F80231 		strb	r3, [r2, #258]
  83:.\main.c      ****            ShowMessage(1,Unit3,0);
 312              		.loc 1 83 0
 313 00e8 82F80532 		strb	r3, [r2, #517]
  84:.\main.c      ****         }
 314              		.loc 1 84 0
 315 00ec 0120     		movs	r0, #1
 316 00ee 10A9     		add	r1, sp, #64
 317 00f0 0022     		movs	r2, #0
 318 00f2 FFF7FEFF 		bl	ShowMessage
 319              	.LVL21:
 320              	.L15:
  86:.\main.c      ****             side.a.hoseNumber = UnitType+1;
 321              		.loc 1 86 0
 322 00f6 614B     		ldr	r3, .L28+16
 323 00f8 1B78     		ldrb	r3, [r3]	@ zero_extendqisi2
 324 00fa 032B     		cmp	r3, #3
ARM GAS  C:\Users\Diego\AppData\Local\Temp\cc9VkXHl.s 			page 23


 325 00fc 0BD1     		bne	.L16
  87:.\main.c      ****             side.b.hoseNumber = UnitType+1;
 326              		.loc 1 87 0
 327 00fe 0133     		adds	r3, r3, #1
 328 0100 DBB2     		uxtb	r3, r3
 329 0102 5F4A     		ldr	r2, .L28+20
 330 0104 82F80231 		strb	r3, [r2, #258]
  88:.\main.c      ****             ShowMessage(1,Unit4,0);
 331              		.loc 1 88 0
 332 0108 82F80532 		strb	r3, [r2, #517]
  89:.\main.c      ****         } 
 333              		.loc 1 89 0
 334 010c 0120     		movs	r0, #1
 335 010e 0DA9     		add	r1, sp, #52
 336 0110 0022     		movs	r2, #0
 337 0112 FFF7FEFF 		bl	ShowMessage
 338              	.LVL22:
 339              	.L16:
  91:.\main.c      ****             ShowMessage(1,DisplayMode0,22); //Mostrar modo de display
 340              		.loc 1 91 0
 341 0116 5B4B     		ldr	r3, .L28+24
 342 0118 1B78     		ldrb	r3, [r3]	@ zero_extendqisi2
 343 011a 3BB9     		cbnz	r3, .L17
  92:.\main.c      ****             digits = 5;
 344              		.loc 1 92 0
 345 011c 0120     		movs	r0, #1
 346 011e 0AA9     		add	r1, sp, #40
 347 0120 1622     		movs	r2, #22
 348 0122 FFF7FEFF 		bl	ShowMessage
 349              	.LVL23:
  93:.\main.c      ****         }
 350              		.loc 1 93 0
 351 0126 0522     		movs	r2, #5
 352 0128 574B     		ldr	r3, .L28+28
 353 012a 1A70     		strb	r2, [r3]
 354              	.L17:
  95:.\main.c      ****             ShowMessage(1,DisplayMode,22); //Mostrar modo de display
 355              		.loc 1 95 0
 356 012c 554B     		ldr	r3, .L28+24
 357 012e 1B78     		ldrb	r3, [r3]	@ zero_extendqisi2
 358 0130 012B     		cmp	r3, #1
 359 0132 07D1     		bne	.L18
  96:.\main.c      ****             digits = 6;
 360              		.loc 1 96 0
 361 0134 0120     		movs	r0, #1
 362 0136 07A9     		add	r1, sp, #28
 363 0138 1622     		movs	r2, #22
 364 013a FFF7FEFF 		bl	ShowMessage
 365              	.LVL24:
  97:.\main.c      ****         }
 366              		.loc 1 97 0
 367 013e 0622     		movs	r2, #6
 368 0140 514B     		ldr	r3, .L28+28
 369 0142 1A70     		strb	r2, [r3]
 370              	.L18:
  99:.\main.c      ****            ShowMessage(1,DisplayMode2,22);
 371              		.loc 1 99 0
ARM GAS  C:\Users\Diego\AppData\Local\Temp\cc9VkXHl.s 			page 24


 372 0144 4F4B     		ldr	r3, .L28+24
 373 0146 1B78     		ldrb	r3, [r3]	@ zero_extendqisi2
 374 0148 022B     		cmp	r3, #2
 375 014a 07D1     		bne	.L19
 100:.\main.c      ****             digits = 7;
 376              		.loc 1 100 0
 377 014c 0120     		movs	r0, #1
 378 014e 04A9     		add	r1, sp, #16
 379 0150 1622     		movs	r2, #22
 380 0152 FFF7FEFF 		bl	ShowMessage
 381              	.LVL25:
 101:.\main.c      ****         }
 382              		.loc 1 101 0
 383 0156 0722     		movs	r2, #7
 384 0158 4B4B     		ldr	r3, .L28+28
 385 015a 1A70     		strb	r2, [r3]
 386              	.L19:
 103:.\main.c      ****             ShowMessage(1,DisplayMode3,22);
 387              		.loc 1 103 0
 388 015c 494B     		ldr	r3, .L28+24
 389 015e 1B78     		ldrb	r3, [r3]	@ zero_extendqisi2
 390 0160 032B     		cmp	r3, #3
 391 0162 07D1     		bne	.L12
 104:.\main.c      ****             digits = 8;
 392              		.loc 1 104 0
 393 0164 0120     		movs	r0, #1
 394 0166 01A9     		add	r1, sp, #4
 395 0168 1622     		movs	r2, #22
 396 016a FFF7FEFF 		bl	ShowMessage
 397              	.LVL26:
 105:.\main.c      ****         }        
 398              		.loc 1 105 0
 399 016e 0822     		movs	r2, #8
 400 0170 454B     		ldr	r3, .L28+28
 401 0172 1A70     		strb	r2, [r3]
 402              	.L12:
 108:.\main.c      ****         SetPicture(1,DISPLAY_SELECCIONE_POSICION);        
 403              		.loc 1 108 0
 404 0174 404B     		ldr	r3, .L28+12
 405 0176 1B78     		ldrb	r3, [r3]	@ zero_extendqisi2
 406 0178 042B     		cmp	r3, #4
 407 017a 6DD1     		bne	.L20
 109:.\main.c      ****         ShowMessage(1,iniText,0);    
 408              		.loc 1 109 0
 409 017c 0120     		movs	r0, #1
 410 017e 2E21     		movs	r1, #46
 411 0180 FFF7FEFF 		bl	SetPicture
 412              	.LVL27:
 110:.\main.c      ****         CyDelay(300);
 413              		.loc 1 110 0
 414 0184 0120     		movs	r0, #1
 415 0186 19A9     		add	r1, sp, #100
 416 0188 0022     		movs	r2, #0
 417 018a FFF7FEFF 		bl	ShowMessage
 418              	.LVL28:
 111:.\main.c      ****         if(UnitType == 0){
 419              		.loc 1 111 0
ARM GAS  C:\Users\Diego\AppData\Local\Temp\cc9VkXHl.s 			page 25


 420 018e 4FF49670 		mov	r0, #300
 421 0192 FFF7FEFF 		bl	CyDelay
 422              	.LVL29:
 112:.\main.c      ****             side.a.hoseNumber = UnitType+1;
 423              		.loc 1 112 0
 424 0196 394B     		ldr	r3, .L28+16
 425 0198 1B78     		ldrb	r3, [r3]	@ zero_extendqisi2
 426 019a 7BB9     		cbnz	r3, .L21
 113:.\main.c      ****             side.b.hoseNumber = UnitType+1;
 427              		.loc 1 113 0
 428 019c 0133     		adds	r3, r3, #1
 429 019e DBB2     		uxtb	r3, r3
 430 01a0 374A     		ldr	r2, .L28+20
 431 01a2 82F80231 		strb	r3, [r2, #258]
 114:.\main.c      ****             side.c.hoseNumber = UnitType+1;
 432              		.loc 1 114 0
 433 01a6 82F80532 		strb	r3, [r2, #517]
 115:.\main.c      ****             side.d.hoseNumber = UnitType+1;
 434              		.loc 1 115 0
 435 01aa 82F80833 		strb	r3, [r2, #776]
 116:.\main.c      ****             ShowMessage(1,Unit,0);  //Mostrar tipo de dispensador      
 436              		.loc 1 116 0
 437 01ae 82F80B34 		strb	r3, [r2, #1035]
 117:.\main.c      ****         }
 438              		.loc 1 117 0
 439 01b2 0120     		movs	r0, #1
 440 01b4 16A9     		add	r1, sp, #88
 441 01b6 0022     		movs	r2, #0
 442 01b8 FFF7FEFF 		bl	ShowMessage
 443              	.LVL30:
 444              	.L21:
 119:.\main.c      ****             side.a.hoseNumber = UnitType+1;
 445              		.loc 1 119 0
 446 01bc 2F4B     		ldr	r3, .L28+16
 447 01be 1B78     		ldrb	r3, [r3]	@ zero_extendqisi2
 448 01c0 012B     		cmp	r3, #1
 449 01c2 0FD1     		bne	.L22
 120:.\main.c      ****             side.b.hoseNumber = UnitType+1;
 450              		.loc 1 120 0
 451 01c4 0133     		adds	r3, r3, #1
 452 01c6 DBB2     		uxtb	r3, r3
 453 01c8 2D4A     		ldr	r2, .L28+20
 454 01ca 82F80231 		strb	r3, [r2, #258]
 121:.\main.c      ****             side.c.hoseNumber = UnitType+1;
 455              		.loc 1 121 0
 456 01ce 82F80532 		strb	r3, [r2, #517]
 122:.\main.c      ****             side.d.hoseNumber = UnitType+1;
 457              		.loc 1 122 0
 458 01d2 82F80833 		strb	r3, [r2, #776]
 123:.\main.c      ****             ShowMessage(1,Unit2,0);
 459              		.loc 1 123 0
 460 01d6 82F80B34 		strb	r3, [r2, #1035]
 124:.\main.c      ****         }
 461              		.loc 1 124 0
 462 01da 0120     		movs	r0, #1
 463 01dc 13A9     		add	r1, sp, #76
 464 01de 0022     		movs	r2, #0
ARM GAS  C:\Users\Diego\AppData\Local\Temp\cc9VkXHl.s 			page 26


 465 01e0 FFF7FEFF 		bl	ShowMessage
 466              	.LVL31:
 467              	.L22:
 126:.\main.c      ****             side.a.hoseNumber = UnitType+1;
 468              		.loc 1 126 0
 469 01e4 254B     		ldr	r3, .L28+16
 470 01e6 1B78     		ldrb	r3, [r3]	@ zero_extendqisi2
 471 01e8 022B     		cmp	r3, #2
 472 01ea 0FD1     		bne	.L23
 127:.\main.c      ****             side.b.hoseNumber = UnitType+1;
 473              		.loc 1 127 0
 474 01ec 0133     		adds	r3, r3, #1
 475 01ee DBB2     		uxtb	r3, r3
 476 01f0 234A     		ldr	r2, .L28+20
 477 01f2 82F80231 		strb	r3, [r2, #258]
 128:.\main.c      ****             side.c.hoseNumber = UnitType+1;
 478              		.loc 1 128 0
 479 01f6 82F80532 		strb	r3, [r2, #517]
 129:.\main.c      ****             side.d.hoseNumber = UnitType+1;
 480              		.loc 1 129 0
 481 01fa 82F80833 		strb	r3, [r2, #776]
 130:.\main.c      ****            ShowMessage(1,Unit3,0);
 482              		.loc 1 130 0
 483 01fe 82F80B34 		strb	r3, [r2, #1035]
 131:.\main.c      ****         }
 484              		.loc 1 131 0
 485 0202 0120     		movs	r0, #1
 486 0204 10A9     		add	r1, sp, #64
 487 0206 0022     		movs	r2, #0
 488 0208 FFF7FEFF 		bl	ShowMessage
 489              	.LVL32:
 490              	.L23:
 133:.\main.c      ****             side.a.hoseNumber = UnitType+1;
 491              		.loc 1 133 0
 492 020c 1B4B     		ldr	r3, .L28+16
 493 020e 1B78     		ldrb	r3, [r3]	@ zero_extendqisi2
 494 0210 032B     		cmp	r3, #3
 495 0212 0FD1     		bne	.L24
 134:.\main.c      ****             side.b.hoseNumber = UnitType+1;
 496              		.loc 1 134 0
 497 0214 0133     		adds	r3, r3, #1
 498 0216 DBB2     		uxtb	r3, r3
 499 0218 194A     		ldr	r2, .L28+20
 500 021a 82F80231 		strb	r3, [r2, #258]
 135:.\main.c      ****             side.c.hoseNumber = UnitType+1;
 501              		.loc 1 135 0
 502 021e 82F80532 		strb	r3, [r2, #517]
 136:.\main.c      ****             side.d.hoseNumber = UnitType+1;
 503              		.loc 1 136 0
 504 0222 82F80833 		strb	r3, [r2, #776]
 137:.\main.c      ****             ShowMessage(1,Unit4,0);
 505              		.loc 1 137 0
 506 0226 82F80B34 		strb	r3, [r2, #1035]
 138:.\main.c      ****         }    
 507              		.loc 1 138 0
 508 022a 0120     		movs	r0, #1
 509 022c 0DA9     		add	r1, sp, #52
ARM GAS  C:\Users\Diego\AppData\Local\Temp\cc9VkXHl.s 			page 27


 510 022e 0022     		movs	r2, #0
 511 0230 FFF7FEFF 		bl	ShowMessage
 512              	.LVL33:
 513              	.L24:
 140:.\main.c      ****             ShowMessage(1,DisplayMode,22); //Mostrar modo de display
 514              		.loc 1 140 0
 515 0234 134B     		ldr	r3, .L28+24
 516 0236 1B78     		ldrb	r3, [r3]	@ zero_extendqisi2
 517 0238 012B     		cmp	r3, #1
 518 023a 04D1     		bne	.L25
 141:.\main.c      ****         }
 519              		.loc 1 141 0
 520 023c 0120     		movs	r0, #1
 521 023e 07A9     		add	r1, sp, #28
 522 0240 1622     		movs	r2, #22
 523 0242 FFF7FEFF 		bl	ShowMessage
 524              	.LVL34:
 525              	.L25:
 143:.\main.c      ****            ShowMessage(1,DisplayMode2,22);
 526              		.loc 1 143 0
 527 0246 0F4B     		ldr	r3, .L28+24
 528 0248 1B78     		ldrb	r3, [r3]	@ zero_extendqisi2
 529 024a 022B     		cmp	r3, #2
 530 024c 04D1     		bne	.L20
 144:.\main.c      ****         }
 531              		.loc 1 144 0
 532 024e 0120     		movs	r0, #1
 533 0250 04A9     		add	r1, sp, #16
 534 0252 1622     		movs	r2, #22
 535 0254 FFF7FEFF 		bl	ShowMessage
 536              	.LVL35:
 537              	.L20:
 147:.\main.c      ****         SetPicture(1,DISPLAY_ERROR);        
 538              		.loc 1 147 0
 539 0258 074B     		ldr	r3, .L28+12
 540 025a 1B78     		ldrb	r3, [r3]	@ zero_extendqisi2
 541 025c 012B     		cmp	r3, #1
 542 025e 03D8     		bhi	.L11
 148:.\main.c      ****     }         
 543              		.loc 1 148 0
 544 0260 0120     		movs	r0, #1
 545 0262 0021     		movs	r1, #0
 546 0264 FFF7FEFF 		bl	SetPicture
 547              	.LVL36:
 548              	.L11:
 150:.\main.c      **** 
 549              		.loc 1 150 0
 550 0268 1CB0     		add	sp, sp, #112
 551              		.cfi_def_cfa_offset 8
 552              		@ sp needed
 553 026a 10BD     		pop	{r4, pc}
 554              	.L29:
 555              		.align	2
 556              	.L28:
 557 026c 00000000 		.word	.LC0
 558 0270 00000000 		.word	.LANCHOR0
 559 0274 0C000000 		.word	.LC2
ARM GAS  C:\Users\Diego\AppData\Local\Temp\cc9VkXHl.s 			page 28


 560 0278 00000000 		.word	NumPositions
 561 027c 00000000 		.word	UnitType
 562 0280 00000000 		.word	side
 563 0284 00000000 		.word	DDMode
 564 0288 00000000 		.word	digits
 565              		.cfi_endproc
 566              	.LFE65:
 567              		.size	InitDisplay1, .-InitDisplay1
 568              		.section	.text.InitDisplay2,"ax",%progbits
 569              		.align	2
 570              		.global	InitDisplay2
 571              		.thumb
 572              		.thumb_func
 573              		.type	InitDisplay2, %function
 574              	InitDisplay2:
 575              	.LFB66:
 161:.\main.c      ****     if(NumPositions == 2){        
 576              		.loc 1 161 0
 577              		.cfi_startproc
 578              		@ args = 0, pretend = 0, frame = 0
 579              		@ frame_needed = 0, uses_anonymous_args = 0
 580 0000 08B5     		push	{r3, lr}
 581              		.cfi_def_cfa_offset 8
 582              		.cfi_offset 3, -8
 583              		.cfi_offset 14, -4
 162:.\main.c      ****         SetPicture(2,DISPLAY_INICIO0);  
 584              		.loc 1 162 0
 585 0002 104B     		ldr	r3, .L35
 586 0004 1B78     		ldrb	r3, [r3]	@ zero_extendqisi2
 587 0006 022B     		cmp	r3, #2
 588 0008 06D1     		bne	.L31
 163:.\main.c      ****         flowDisplay2 = 0;
 589              		.loc 1 163 0
 590 000a 0220     		movs	r0, #2
 591 000c 0121     		movs	r1, #1
 592 000e FFF7FEFF 		bl	SetPicture
 593              	.LVL37:
 164:.\main.c      ****     }
 594              		.loc 1 164 0
 595 0012 0022     		movs	r2, #0
 596 0014 0C4B     		ldr	r3, .L35+4
 597 0016 1A60     		str	r2, [r3]
 598              	.L31:
 166:.\main.c      ****         SetPicture(2,DISPLAY_SELECCIONE_POSICION);         
 599              		.loc 1 166 0
 600 0018 0A4B     		ldr	r3, .L35
 601 001a 1B78     		ldrb	r3, [r3]	@ zero_extendqisi2
 602 001c 042B     		cmp	r3, #4
 603 001e 03D1     		bne	.L32
 167:.\main.c      ****     }        
 604              		.loc 1 167 0
 605 0020 0220     		movs	r0, #2
 606 0022 2E21     		movs	r1, #46
 607 0024 FFF7FEFF 		bl	SetPicture
 608              	.LVL38:
 609              	.L32:
 169:.\main.c      ****         SetPicture(2,DISPLAY_ERROR);
ARM GAS  C:\Users\Diego\AppData\Local\Temp\cc9VkXHl.s 			page 29


 610              		.loc 1 169 0
 611 0028 064B     		ldr	r3, .L35
 612 002a 1B78     		ldrb	r3, [r3]	@ zero_extendqisi2
 613 002c 012B     		cmp	r3, #1
 614 002e 03D8     		bhi	.L33
 170:.\main.c      ****     }     
 615              		.loc 1 170 0
 616 0030 0220     		movs	r0, #2
 617 0032 0021     		movs	r1, #0
 618 0034 FFF7FEFF 		bl	SetPicture
 619              	.LVL39:
 620              	.L33:
 172:.\main.c      **** }
 621              		.loc 1 172 0
 622 0038 0220     		movs	r0, #2
 623 003a 0449     		ldr	r1, .L35+8
 624 003c 0022     		movs	r2, #0
 625 003e FFF7FEFF 		bl	ShowMessage
 626              	.LVL40:
 627 0042 08BD     		pop	{r3, pc}
 628              	.L36:
 629              		.align	2
 630              	.L35:
 631 0044 00000000 		.word	NumPositions
 632 0048 00000000 		.word	flowDisplay2
 633 004c 00000000 		.word	.LANCHOR1
 634              		.cfi_endproc
 635              	.LFE66:
 636              		.size	InitDisplay2, .-InitDisplay2
 637              		.section	.text.InitPump,"ax",%progbits
 638              		.align	2
 639              		.global	InitPump
 640              		.thumb
 641              		.thumb_func
 642              		.type	InitPump, %function
 643              	InitPump:
 644              	.LFB67:
 184:.\main.c      ****     NumPositions = get_position();
 645              		.loc 1 184 0
 646              		.cfi_startproc
 647              		@ args = 0, pretend = 0, frame = 0
 648              		@ frame_needed = 0, uses_anonymous_args = 0
 649 0000 08B5     		push	{r3, lr}
 650              		.cfi_def_cfa_offset 8
 651              		.cfi_offset 3, -8
 652              		.cfi_offset 14, -4
 185:.\main.c      ****     if(NumPositions > 0){
 653              		.loc 1 185 0
 654 0002 FFF7FEFF 		bl	get_position
 655              	.LVL41:
 656 0006 2D4B     		ldr	r3, .L43
 657 0008 1870     		strb	r0, [r3]
 186:.\main.c      ****         if(!PumpIsInValidState(get_state(side.a.dir))){
 658              		.loc 1 186 0
 659 000a 0028     		cmp	r0, #0
 660 000c 55D0     		beq	.L37
 187:.\main.c      ****             SetPicture(1,DISPLAY_ERROR);
ARM GAS  C:\Users\Diego\AppData\Local\Temp\cc9VkXHl.s 			page 30


 661              		.loc 1 187 0
 662 000e 2C4B     		ldr	r3, .L43+4
 663 0010 1878     		ldrb	r0, [r3]	@ zero_extendqisi2
 664 0012 FFF7FEFF 		bl	get_state
 665              	.LVL42:
 666 0016 FFF7FEFF 		bl	PumpIsInValidState
 667              	.LVL43:
 668 001a 50B9     		cbnz	r0, .L39
 188:.\main.c      ****             SetPicture(2,DISPLAY_ERROR);
 669              		.loc 1 188 0
 670 001c 0120     		movs	r0, #1
 671 001e 0021     		movs	r1, #0
 672 0020 FFF7FEFF 		bl	SetPicture
 673              	.LVL44:
 189:.\main.c      ****             NumPositions = 0;
 674              		.loc 1 189 0
 675 0024 0220     		movs	r0, #2
 676 0026 0021     		movs	r1, #0
 677 0028 FFF7FEFF 		bl	SetPicture
 678              	.LVL45:
 190:.\main.c      ****         }
 679              		.loc 1 190 0
 680 002c 0022     		movs	r2, #0
 681 002e 234B     		ldr	r3, .L43
 682 0030 1A70     		strb	r2, [r3]
 683              	.L39:
 192:.\main.c      ****             SetPicture(1,DISPLAY_ERROR);
 684              		.loc 1 192 0
 685 0032 234B     		ldr	r3, .L43+4
 686 0034 93F80301 		ldrb	r0, [r3, #259]	@ zero_extendqisi2
 687 0038 FFF7FEFF 		bl	get_state
 688              	.LVL46:
 689 003c FFF7FEFF 		bl	PumpIsInValidState
 690              	.LVL47:
 691 0040 50B9     		cbnz	r0, .L40
 193:.\main.c      ****             SetPicture(2,DISPLAY_ERROR);
 692              		.loc 1 193 0
 693 0042 0120     		movs	r0, #1
 694 0044 0021     		movs	r1, #0
 695 0046 FFF7FEFF 		bl	SetPicture
 696              	.LVL48:
 194:.\main.c      ****             NumPositions = 0;
 697              		.loc 1 194 0
 698 004a 0220     		movs	r0, #2
 699 004c 0021     		movs	r1, #0
 700 004e FFF7FEFF 		bl	SetPicture
 701              	.LVL49:
 195:.\main.c      ****         }
 702              		.loc 1 195 0
 703 0052 0022     		movs	r2, #0
 704 0054 194B     		ldr	r3, .L43
 705 0056 1A70     		strb	r2, [r3]
 706              	.L40:
 197:.\main.c      ****             NumPositions = get_position();
 707              		.loc 1 197 0
 708 0058 194B     		ldr	r3, .L43+4
 709 005a 1878     		ldrb	r0, [r3]	@ zero_extendqisi2
ARM GAS  C:\Users\Diego\AppData\Local\Temp\cc9VkXHl.s 			page 31


 710 005c FFF7FEFF 		bl	get_state
 711              	.LVL50:
 712 0060 FFF7FEFF 		bl	PumpIsInValidState
 713              	.LVL51:
 714 0064 48B3     		cbz	r0, .L37
 197:.\main.c      ****             NumPositions = get_position();
 715              		.loc 1 197 0 is_stmt 0 discriminator 1
 716 0066 164B     		ldr	r3, .L43+4
 717 0068 93F80301 		ldrb	r0, [r3, #259]	@ zero_extendqisi2
 718 006c FFF7FEFF 		bl	get_state
 719              	.LVL52:
 720 0070 FFF7FEFF 		bl	PumpIsInValidState
 721              	.LVL53:
 722 0074 08B3     		cbz	r0, .L37
 198:.\main.c      ****             if(get_state(side.a.dir) ==0x06 && get_state(side.b.dir)==0x06){
 723              		.loc 1 198 0 is_stmt 1
 724 0076 FFF7FEFF 		bl	get_position
 725              	.LVL54:
 726 007a 104B     		ldr	r3, .L43
 727 007c 1870     		strb	r0, [r3]
 199:.\main.c      ****                 PumpCompleteConfiguration(side.a.dir);
 728              		.loc 1 199 0
 729 007e 104B     		ldr	r3, .L43+4
 730 0080 1878     		ldrb	r0, [r3]	@ zero_extendqisi2
 731 0082 FFF7FEFF 		bl	get_state
 732              	.LVL55:
 733 0086 0628     		cmp	r0, #6
 734 0088 0DD1     		bne	.L41
 199:.\main.c      ****                 PumpCompleteConfiguration(side.a.dir);
 735              		.loc 1 199 0 is_stmt 0 discriminator 1
 736 008a 0D4B     		ldr	r3, .L43+4
 737 008c 93F80301 		ldrb	r0, [r3, #259]	@ zero_extendqisi2
 738 0090 FFF7FEFF 		bl	get_state
 739              	.LVL56:
 740 0094 0628     		cmp	r0, #6
 741 0096 06D1     		bne	.L41
 200:.\main.c      ****                 StoreConfiguration();            
 742              		.loc 1 200 0 is_stmt 1
 743 0098 094B     		ldr	r3, .L43+4
 744 009a 1878     		ldrb	r0, [r3]	@ zero_extendqisi2
 745 009c FFF7FEFF 		bl	PumpCompleteConfiguration
 746              	.LVL57:
 201:.\main.c      ****             }else{
 747              		.loc 1 201 0
 748 00a0 FFF7FEFF 		bl	StoreConfiguration
 749              	.LVL58:
 750 00a4 08BD     		pop	{r3, pc}
 751              	.L41:
 203:.\main.c      ****                 SetPicture(2,DISPLAY_BAJE_MANIJA);
 752              		.loc 1 203 0
 753 00a6 0120     		movs	r0, #1
 754 00a8 0921     		movs	r1, #9
 755 00aa FFF7FEFF 		bl	SetPicture
 756              	.LVL59:
 204:.\main.c      ****                 InitPump();                
 757              		.loc 1 204 0
 758 00ae 0220     		movs	r0, #2
ARM GAS  C:\Users\Diego\AppData\Local\Temp\cc9VkXHl.s 			page 32


 759 00b0 0921     		movs	r1, #9
 760 00b2 FFF7FEFF 		bl	SetPicture
 761              	.LVL60:
 205:.\main.c      ****             }
 762              		.loc 1 205 0
 763 00b6 FFF7FEFF 		bl	InitPump
 764              	.LVL61:
 765              	.L37:
 766 00ba 08BD     		pop	{r3, pc}
 767              	.L44:
 768              		.align	2
 769              	.L43:
 770 00bc 00000000 		.word	NumPositions
 771 00c0 00000000 		.word	side
 772              		.cfi_endproc
 773              	.LFE67:
 774              		.size	InitPump, .-InitPump
 775              		.section	.text.PrintTest,"ax",%progbits
 776              		.align	2
 777              		.global	PrintTest
 778              		.thumb
 779              		.thumb_func
 780              		.type	PrintTest, %function
 781              	PrintTest:
 782              	.LFB68:
 220:.\main.c      ****     uint8 dato[17]="Test de Impresion";
 783              		.loc 1 220 0
 784              		.cfi_startproc
 785              		@ args = 0, pretend = 0, frame = 24
 786              		@ frame_needed = 0, uses_anonymous_args = 0
 787 0000 30B5     		push	{r4, r5, lr}
 788              		.cfi_def_cfa_offset 12
 789              		.cfi_offset 4, -12
 790              		.cfi_offset 5, -8
 791              		.cfi_offset 14, -4
 792 0002 87B0     		sub	sp, sp, #28
 793              		.cfi_def_cfa_offset 40
 221:.\main.c      ****     uint8 x;
 794              		.loc 1 221 0
 795 0004 01AC     		add	r4, sp, #4
 796 0006 1C4D     		ldr	r5, .L51
 797 0008 0FCD     		ldmia	r5!, {r0, r1, r2, r3}
 798 000a 0FC4     		stmia	r4!, {r0, r1, r2, r3}
 799 000c 2B68     		ldr	r3, [r5]
 800 000e 2370     		strb	r3, [r4]
 801              	.LVL62:
 223:.\main.c      ****         write_psoc1(1,dato[x]);
 802              		.loc 1 223 0
 803 0010 0024     		movs	r4, #0
 804 0012 08E0     		b	.L46
 805              	.LVL63:
 806              	.L47:
 224:.\main.c      ****     }
 807              		.loc 1 224 0 discriminator 3
 808 0014 06AB     		add	r3, sp, #24
 809 0016 2344     		add	r3, r3, r4
 810 0018 0120     		movs	r0, #1
ARM GAS  C:\Users\Diego\AppData\Local\Temp\cc9VkXHl.s 			page 33


 811 001a 13F8141C 		ldrb	r1, [r3, #-20]	@ zero_extendqisi2
 812 001e FFF7FEFF 		bl	write_psoc1
 813              	.LVL64:
 223:.\main.c      ****         write_psoc1(1,dato[x]);
 814              		.loc 1 223 0 discriminator 3
 815 0022 0134     		adds	r4, r4, #1
 816              	.LVL65:
 817 0024 E4B2     		uxtb	r4, r4
 818              	.LVL66:
 819              	.L46:
 223:.\main.c      ****         write_psoc1(1,dato[x]);
 820              		.loc 1 223 0 is_stmt 0 discriminator 1
 821 0026 102C     		cmp	r4, #16
 822 0028 F4D9     		bls	.L47
 226:.\main.c      ****     write_psoc1(1,10);
 823              		.loc 1 226 0 is_stmt 1
 824 002a 0120     		movs	r0, #1
 825 002c 0A21     		movs	r1, #10
 826 002e FFF7FEFF 		bl	write_psoc1
 827              	.LVL67:
 227:.\main.c      ****     write_psoc1(1,10);
 828              		.loc 1 227 0
 829 0032 0120     		movs	r0, #1
 830 0034 0A21     		movs	r1, #10
 831 0036 FFF7FEFF 		bl	write_psoc1
 832              	.LVL68:
 228:.\main.c      ****     for(x = 0; x<17;x++){
 833              		.loc 1 228 0
 834 003a 0120     		movs	r0, #1
 835 003c 0A21     		movs	r1, #10
 836 003e FFF7FEFF 		bl	write_psoc1
 837              	.LVL69:
 229:.\main.c      ****         write_psoc1(2,dato[x]);
 838              		.loc 1 229 0
 839 0042 0024     		movs	r4, #0
 840 0044 08E0     		b	.L48
 841              	.LVL70:
 842              	.L49:
 230:.\main.c      ****     }
 843              		.loc 1 230 0 discriminator 3
 844 0046 06AB     		add	r3, sp, #24
 845 0048 2344     		add	r3, r3, r4
 846 004a 0220     		movs	r0, #2
 847 004c 13F8141C 		ldrb	r1, [r3, #-20]	@ zero_extendqisi2
 848 0050 FFF7FEFF 		bl	write_psoc1
 849              	.LVL71:
 229:.\main.c      ****         write_psoc1(2,dato[x]);
 850              		.loc 1 229 0 discriminator 3
 851 0054 0134     		adds	r4, r4, #1
 852              	.LVL72:
 853 0056 E4B2     		uxtb	r4, r4
 854              	.LVL73:
 855              	.L48:
 229:.\main.c      ****         write_psoc1(2,dato[x]);
 856              		.loc 1 229 0 is_stmt 0 discriminator 1
 857 0058 102C     		cmp	r4, #16
 858 005a F4D9     		bls	.L49
ARM GAS  C:\Users\Diego\AppData\Local\Temp\cc9VkXHl.s 			page 34


 232:.\main.c      ****     write_psoc1(2,10);
 859              		.loc 1 232 0 is_stmt 1
 860 005c 0220     		movs	r0, #2
 861 005e 0A21     		movs	r1, #10
 862 0060 FFF7FEFF 		bl	write_psoc1
 863              	.LVL74:
 233:.\main.c      ****     write_psoc1(2,10);
 864              		.loc 1 233 0
 865 0064 0220     		movs	r0, #2
 866 0066 0A21     		movs	r1, #10
 867 0068 FFF7FEFF 		bl	write_psoc1
 868              	.LVL75:
 234:.\main.c      **** }
 869              		.loc 1 234 0
 870 006c 0220     		movs	r0, #2
 871 006e 0A21     		movs	r1, #10
 872 0070 FFF7FEFF 		bl	write_psoc1
 873              	.LVL76:
 235:.\main.c      **** 
 874              		.loc 1 235 0
 875 0074 07B0     		add	sp, sp, #28
 876              		.cfi_def_cfa_offset 12
 877              		@ sp needed
 878 0076 30BD     		pop	{r4, r5, pc}
 879              	.LVL77:
 880              	.L52:
 881              		.align	2
 882              	.L51:
 883 0078 54000000 		.word	.LANCHOR0+84
 884              		.cfi_endproc
 885              	.LFE68:
 886              		.size	PrintTest, .-PrintTest
 887              		.section	.text.PollingPump,"ax",%progbits
 888              		.align	2
 889              		.global	PollingPump
 890              		.thumb
 891              		.thumb_func
 892              		.type	PollingPump, %function
 893              	PollingPump:
 894              	.LFB69:
 247:.\main.c      ****     uint8 x;
 895              		.loc 1 247 0
 896              		.cfi_startproc
 897              		@ args = 0, pretend = 0, frame = 0
 898              		@ frame_needed = 0, uses_anonymous_args = 0
 899 0000 38B5     		push	{r3, r4, r5, lr}
 900              		.cfi_def_cfa_offset 16
 901              		.cfi_offset 3, -16
 902              		.cfi_offset 4, -12
 903              		.cfi_offset 5, -8
 904              		.cfi_offset 14, -4
 249:.\main.c      ****         for(x= 0; x < 4; x++){
 905              		.loc 1 249 0
 906 0002 364B     		ldr	r3, .L64
 907 0004 1878     		ldrb	r0, [r3]	@ zero_extendqisi2
 908 0006 FFF7FEFF 		bl	get_state
 909              	.LVL78:
ARM GAS  C:\Users\Diego\AppData\Local\Temp\cc9VkXHl.s 			page 35


 910 000a FFF7FEFF 		bl	PumpIsInValidState
 911              	.LVL79:
 912 000e 90B1     		cbz	r0, .L54
 249:.\main.c      ****         for(x= 0; x < 4; x++){
 913              		.loc 1 249 0 is_stmt 0 discriminator 1
 914 0010 324B     		ldr	r3, .L64
 915 0012 93F80301 		ldrb	r0, [r3, #259]	@ zero_extendqisi2
 916 0016 FFF7FEFF 		bl	get_state
 917              	.LVL80:
 918 001a FFF7FEFF 		bl	PumpIsInValidState
 919              	.LVL81:
 920 001e 38B9     		cbnz	r0, .L62
 921 0020 09E0     		b	.L54
 922              	.LVL82:
 923              	.L56:
 251:.\main.c      ****         }
 924              		.loc 1 251 0 is_stmt 1 discriminator 3
 925 0022 2F4A     		ldr	r2, .L64+4
 926 0024 D15C     		ldrb	r1, [r2, r3]	@ zero_extendqisi2
 927 0026 2F4A     		ldr	r2, .L64+8
 928 0028 D154     		strb	r1, [r2, r3]
 250:.\main.c      ****             PrevStatePump[x] = statePump[x];
 929              		.loc 1 250 0 discriminator 3
 930 002a 0133     		adds	r3, r3, #1
 931              	.LVL83:
 932 002c DBB2     		uxtb	r3, r3
 933              	.LVL84:
 934 002e 00E0     		b	.L55
 935              	.LVL85:
 936              	.L62:
 937 0030 0023     		movs	r3, #0
 938              	.L55:
 939              	.LVL86:
 250:.\main.c      ****             PrevStatePump[x] = statePump[x];
 940              		.loc 1 250 0 is_stmt 0 discriminator 1
 941 0032 032B     		cmp	r3, #3
 942 0034 F5D9     		bls	.L56
 943              	.LVL87:
 944              	.L54:
 254:.\main.c      ****         statePump[0] = get_state(side.a.dir);                 
 945              		.loc 1 254 0 is_stmt 1
 946 0036 2C4B     		ldr	r3, .L64+12
 947 0038 1B78     		ldrb	r3, [r3]	@ zero_extendqisi2
 948 003a 022B     		cmp	r3, #2
 949 003c 0AD1     		bne	.L57
 255:.\main.c      ****         statePump[1] = get_state(side.b.dir);          
 950              		.loc 1 255 0
 951 003e 274D     		ldr	r5, .L64
 952 0040 2878     		ldrb	r0, [r5]	@ zero_extendqisi2
 953 0042 FFF7FEFF 		bl	get_state
 954              	.LVL88:
 955 0046 264C     		ldr	r4, .L64+4
 956 0048 2070     		strb	r0, [r4]
 256:.\main.c      ****     }
 957              		.loc 1 256 0
 958 004a 95F80301 		ldrb	r0, [r5, #259]	@ zero_extendqisi2
 959 004e FFF7FEFF 		bl	get_state
ARM GAS  C:\Users\Diego\AppData\Local\Temp\cc9VkXHl.s 			page 36


 960              	.LVL89:
 961 0052 6070     		strb	r0, [r4, #1]
 962              	.L57:
 258:.\main.c      ****         statePump[0] = get_state(side.a.dir);               
 963              		.loc 1 258 0
 964 0054 244B     		ldr	r3, .L64+12
 965 0056 1B78     		ldrb	r3, [r3]	@ zero_extendqisi2
 966 0058 042B     		cmp	r3, #4
 967 005a 14D1     		bne	.L58
 259:.\main.c      ****         statePump[1] = get_state(side.b.dir);          
 968              		.loc 1 259 0
 969 005c 1F4D     		ldr	r5, .L64
 970 005e 2878     		ldrb	r0, [r5]	@ zero_extendqisi2
 971 0060 FFF7FEFF 		bl	get_state
 972              	.LVL90:
 973 0064 1E4C     		ldr	r4, .L64+4
 974 0066 2070     		strb	r0, [r4]
 260:.\main.c      ****         statePump[2] = get_state(side.c.dir);        
 975              		.loc 1 260 0
 976 0068 95F80301 		ldrb	r0, [r5, #259]	@ zero_extendqisi2
 977 006c FFF7FEFF 		bl	get_state
 978              	.LVL91:
 979 0070 6070     		strb	r0, [r4, #1]
 261:.\main.c      ****         statePump[3] = get_state(side.d.dir);        
 980              		.loc 1 261 0
 981 0072 95F80602 		ldrb	r0, [r5, #518]	@ zero_extendqisi2
 982 0076 FFF7FEFF 		bl	get_state
 983              	.LVL92:
 984 007a A070     		strb	r0, [r4, #2]
 262:.\main.c      ****     }
 985              		.loc 1 262 0
 986 007c 95F80903 		ldrb	r0, [r5, #777]	@ zero_extendqisi2
 987 0080 FFF7FEFF 		bl	get_state
 988              	.LVL93:
 989 0084 E070     		strb	r0, [r4, #3]
 990              	.L58:
 264:.\main.c      ****         InitPump();
 991              		.loc 1 264 0
 992 0086 184B     		ldr	r3, .L64+12
 993 0088 1B78     		ldrb	r3, [r3]	@ zero_extendqisi2
 994 008a 0BB9     		cbnz	r3, .L59
 265:.\main.c      ****     }
 995              		.loc 1 265 0
 996 008c FFF7FEFF 		bl	InitPump
 997              	.LVL94:
 998              	.L59:
 267:.\main.c      ****         SetPicture(1,DISPLAY_ERROR);
 999              		.loc 1 267 0
 1000 0090 124B     		ldr	r3, .L64
 1001 0092 1878     		ldrb	r0, [r3]	@ zero_extendqisi2
 1002 0094 FFF7FEFF 		bl	get_state
 1003              	.LVL95:
 1004 0098 FFF7FEFF 		bl	PumpIsInValidState
 1005              	.LVL96:
 1006 009c 50B9     		cbnz	r0, .L60
 268:.\main.c      ****         SetPicture(2,DISPLAY_ERROR);
 1007              		.loc 1 268 0
ARM GAS  C:\Users\Diego\AppData\Local\Temp\cc9VkXHl.s 			page 37


 1008 009e 0120     		movs	r0, #1
 1009 00a0 0021     		movs	r1, #0
 1010 00a2 FFF7FEFF 		bl	SetPicture
 1011              	.LVL97:
 269:.\main.c      ****         NumPositions = 0;
 1012              		.loc 1 269 0
 1013 00a6 0220     		movs	r0, #2
 1014 00a8 0021     		movs	r1, #0
 1015 00aa FFF7FEFF 		bl	SetPicture
 1016              	.LVL98:
 270:.\main.c      ****     }
 1017              		.loc 1 270 0
 1018 00ae 0022     		movs	r2, #0
 1019 00b0 0D4B     		ldr	r3, .L64+12
 1020 00b2 1A70     		strb	r2, [r3]
 1021              	.L60:
 272:.\main.c      ****         SetPicture(1,DISPLAY_ERROR);
 1022              		.loc 1 272 0
 1023 00b4 094B     		ldr	r3, .L64
 1024 00b6 93F80301 		ldrb	r0, [r3, #259]	@ zero_extendqisi2
 1025 00ba FFF7FEFF 		bl	get_state
 1026              	.LVL99:
 1027 00be FFF7FEFF 		bl	PumpIsInValidState
 1028              	.LVL100:
 1029 00c2 50B9     		cbnz	r0, .L53
 273:.\main.c      ****         SetPicture(2,DISPLAY_ERROR);
 1030              		.loc 1 273 0
 1031 00c4 0120     		movs	r0, #1
 1032 00c6 0021     		movs	r1, #0
 1033 00c8 FFF7FEFF 		bl	SetPicture
 1034              	.LVL101:
 274:.\main.c      ****         NumPositions = 0;
 1035              		.loc 1 274 0
 1036 00cc 0220     		movs	r0, #2
 1037 00ce 0021     		movs	r1, #0
 1038 00d0 FFF7FEFF 		bl	SetPicture
 1039              	.LVL102:
 275:.\main.c      ****     }
 1040              		.loc 1 275 0
 1041 00d4 0022     		movs	r2, #0
 1042 00d6 044B     		ldr	r3, .L64+12
 1043 00d8 1A70     		strb	r2, [r3]
 1044              	.L53:
 1045 00da 38BD     		pop	{r3, r4, r5, pc}
 1046              	.L65:
 1047              		.align	2
 1048              	.L64:
 1049 00dc 00000000 		.word	side
 1050 00e0 00000000 		.word	statePump
 1051 00e4 00000000 		.word	PrevStatePump
 1052 00e8 00000000 		.word	NumPositions
 1053              		.cfi_endproc
 1054              	.LFE69:
 1055              		.size	PollingPump, .-PollingPump
 1056              		.section	.text.PollingDisplay1,"ax",%progbits
 1057              		.align	2
 1058              		.global	PollingDisplay1
ARM GAS  C:\Users\Diego\AppData\Local\Temp\cc9VkXHl.s 			page 38


 1059              		.thumb
 1060              		.thumb_func
 1061              		.type	PollingDisplay1, %function
 1062              	PollingDisplay1:
 1063              	.LFB70:
 288:.\main.c      ****     uint8 x,y;     
 1064              		.loc 1 288 0
 1065              		.cfi_startproc
 1066              		@ args = 0, pretend = 0, frame = 0
 1067              		@ frame_needed = 0, uses_anonymous_args = 0
 1068 0000 70B5     		push	{r4, r5, r6, lr}
 1069              		.cfi_def_cfa_offset 16
 1070              		.cfi_offset 4, -16
 1071              		.cfi_offset 5, -12
 1072              		.cfi_offset 6, -8
 1073              		.cfi_offset 14, -4
 1074 0002 84B0     		sub	sp, sp, #16
 1075              		.cfi_def_cfa_offset 32
 290:.\main.c      ****         case 0:
 1076              		.loc 1 290 0
 1077 0004 B34B     		ldr	r3, .L169
 1078 0006 1B68     		ldr	r3, [r3]
 1079 0008 0B2B     		cmp	r3, #11
 1080 000a 00F27884 		bhi	.L66
 1081 000e DFE813F0 		tbh	[pc, r3, lsl #1]
 1082              	.L69:
 1083 0012 0C00     		.2byte	(.L68-.L69)/2
 1084 0014 1B00     		.2byte	(.L70-.L69)/2
 1085 0016 4D00     		.2byte	(.L71-.L69)/2
 1086 0018 A800     		.2byte	(.L72-.L69)/2
 1087 001a 6D01     		.2byte	(.L73-.L69)/2
 1088 001c 9C01     		.2byte	(.L74-.L69)/2
 1089 001e 1902     		.2byte	(.L75-.L69)/2
 1090 0020 6102     		.2byte	(.L76-.L69)/2
 1091 0022 E402     		.2byte	(.L77-.L69)/2
 1092 0024 2403     		.2byte	(.L78-.L69)/2
 1093 0026 AC03     		.2byte	(.L79-.L69)/2
 1094 0028 F403     		.2byte	(.L80-.L69)/2
 1095              		.p2align 1
 1096              	.L68:
 292:.\main.c      ****             flowDisplay1 =1;
 1097              		.loc 1 292 0
 1098 002a FFF7FEFF 		bl	InitDisplay1
 1099              	.LVL103:
 293:.\main.c      ****             isr_3_Stop(); 
 1100              		.loc 1 293 0
 1101 002e 0122     		movs	r2, #1
 1102 0030 A84B     		ldr	r3, .L169
 1103 0032 1A60     		str	r2, [r3]
 294:.\main.c      ****             Timer_Animacion_Stop();
 1104              		.loc 1 294 0
 1105 0034 FFF7FEFF 		bl	isr_3_Stop
 1106              	.LVL104:
 295:.\main.c      ****             bufferDisplay1.saleType = 0;
 1107              		.loc 1 295 0
 1108 0038 FFF7FEFF 		bl	Timer_Animacion_Stop
 1109              	.LVL105:
ARM GAS  C:\Users\Diego\AppData\Local\Temp\cc9VkXHl.s 			page 39


 296:.\main.c      ****         break;
 1110              		.loc 1 296 0
 1111 003c 0022     		movs	r2, #0
 1112 003e A64B     		ldr	r3, .L169+4
 1113 0040 83F86120 		strb	r2, [r3, #97]
 297:.\main.c      ****         case 1: //Menu
 1114              		.loc 1 297 0
 1115 0044 00F05BBC 		b	.L66
 1116              	.L70:
 299:.\main.c      ****                 if((Display1_rxBuffer[0]==0xAA) && (Display1_rxBuffer[6]==0xC3) && (Display1_rxBuff
 1117              		.loc 1 299 0
 1118 0048 FFF7FEFF 		bl	Display1_GetRxBufferSize
 1119              	.LVL106:
 1120 004c 0828     		cmp	r0, #8
 1121 004e 40F05684 		bne	.L66
 300:.\main.c      ****                     switch(Display1_rxBuffer[3]){
 1122              		.loc 1 300 0
 1123 0052 A24B     		ldr	r3, .L169+8
 1124 0054 1B78     		ldrb	r3, [r3]	@ zero_extendqisi2
 1125 0056 DBB2     		uxtb	r3, r3
 1126 0058 AA2B     		cmp	r3, #170
 1127 005a 20D1     		bne	.L81
 300:.\main.c      ****                     switch(Display1_rxBuffer[3]){
 1128              		.loc 1 300 0 is_stmt 0 discriminator 1
 1129 005c 9F4B     		ldr	r3, .L169+8
 1130 005e 9B79     		ldrb	r3, [r3, #6]	@ zero_extendqisi2
 1131 0060 DBB2     		uxtb	r3, r3
 1132 0062 C32B     		cmp	r3, #195
 1133 0064 1BD1     		bne	.L81
 300:.\main.c      ****                     switch(Display1_rxBuffer[3]){
 1134              		.loc 1 300 0 discriminator 2
 1135 0066 9D4B     		ldr	r3, .L169+8
 1136 0068 DB79     		ldrb	r3, [r3, #7]	@ zero_extendqisi2
 1137 006a DBB2     		uxtb	r3, r3
 1138 006c 3C2B     		cmp	r3, #60
 1139 006e 16D1     		bne	.L81
 301:.\main.c      ****                         case 0x3A:  //Pantalla forma de pago
 1140              		.loc 1 301 0 is_stmt 1
 1141 0070 9A4B     		ldr	r3, .L169+8
 1142 0072 DB78     		ldrb	r3, [r3, #3]	@ zero_extendqisi2
 1143 0074 DBB2     		uxtb	r3, r3
 1144 0076 3A2B     		cmp	r3, #58
 1145 0078 02D0     		beq	.L82
 1146 007a 7E2B     		cmp	r3, #126
 1147 007c 08D0     		beq	.L83
 1148 007e 0EE0     		b	.L81
 1149              	.L82:
 303:.\main.c      ****                             SetPicture(1,DISPLAY_FORMA_PAGO_DESEADA);                            
 1150              		.loc 1 303 0
 1151 0080 0222     		movs	r2, #2
 1152 0082 944B     		ldr	r3, .L169
 1153 0084 1A60     		str	r2, [r3]
 304:.\main.c      ****                         break;   
 1154              		.loc 1 304 0
 1155 0086 0120     		movs	r0, #1
 1156 0088 0421     		movs	r1, #4
 1157 008a FFF7FEFF 		bl	SetPicture
ARM GAS  C:\Users\Diego\AppData\Local\Temp\cc9VkXHl.s 			page 40


 1158              	.LVL107:
 305:.\main.c      ****                         case 0x7E:  //Pantalla Inicial                                             
 1159              		.loc 1 305 0
 1160 008e 06E0     		b	.L81
 1161              	.L83:
 307:.\main.c      ****                             flowDisplay1 = 0;
 1162              		.loc 1 307 0
 1163 0090 0120     		movs	r0, #1
 1164 0092 0146     		mov	r1, r0
 1165 0094 FFF7FEFF 		bl	SetPicture
 1166              	.LVL108:
 308:.\main.c      ****                         break;
 1167              		.loc 1 308 0
 1168 0098 0022     		movs	r2, #0
 1169 009a 8E4B     		ldr	r3, .L169
 1170 009c 1A60     		str	r2, [r3]
 1171              	.L81:
 312:.\main.c      ****                 Display1_ClearRxBuffer();
 1172              		.loc 1 312 0
 1173 009e 0A20     		movs	r0, #10
 1174 00a0 FFF7FEFF 		bl	CyDelay
 1175              	.LVL109:
 313:.\main.c      ****             }
 1176              		.loc 1 313 0
 1177 00a4 FFF7FEFF 		bl	Display1_ClearRxBuffer
 1178              	.LVL110:
 1179 00a8 00F029BC 		b	.L66
 1180              	.L71:
 317:.\main.c      ****                 if((Display1_rxBuffer[0]==0xAA) && (Display1_rxBuffer[6]==0xC3) && (Display1_rxBuff
 1181              		.loc 1 317 0
 1182 00ac FFF7FEFF 		bl	Display1_GetRxBufferSize
 1183              	.LVL111:
 1184 00b0 0828     		cmp	r0, #8
 1185 00b2 40F02484 		bne	.L66
 318:.\main.c      ****                     switch(Display1_rxBuffer[3]){
 1186              		.loc 1 318 0
 1187 00b6 894B     		ldr	r3, .L169+8
 1188 00b8 1B78     		ldrb	r3, [r3]	@ zero_extendqisi2
 1189 00ba DBB2     		uxtb	r3, r3
 1190 00bc AA2B     		cmp	r3, #170
 1191 00be 4AD1     		bne	.L84
 318:.\main.c      ****                     switch(Display1_rxBuffer[3]){
 1192              		.loc 1 318 0 is_stmt 0 discriminator 1
 1193 00c0 864B     		ldr	r3, .L169+8
 1194 00c2 9B79     		ldrb	r3, [r3, #6]	@ zero_extendqisi2
 1195 00c4 DBB2     		uxtb	r3, r3
 1196 00c6 C32B     		cmp	r3, #195
 1197 00c8 45D1     		bne	.L84
 318:.\main.c      ****                     switch(Display1_rxBuffer[3]){
 1198              		.loc 1 318 0 discriminator 2
 1199 00ca 844B     		ldr	r3, .L169+8
 1200 00cc DB79     		ldrb	r3, [r3, #7]	@ zero_extendqisi2
 1201 00ce DBB2     		uxtb	r3, r3
 1202 00d0 3C2B     		cmp	r3, #60
 1203 00d2 40D1     		bne	.L84
 319:.\main.c      ****                         case 0x0D:  //Pantalla efectivo              
 1204              		.loc 1 319 0 is_stmt 1
ARM GAS  C:\Users\Diego\AppData\Local\Temp\cc9VkXHl.s 			page 41


 1205 00d4 814B     		ldr	r3, .L169+8
 1206 00d6 DB78     		ldrb	r3, [r3, #3]	@ zero_extendqisi2
 1207 00d8 DBB2     		uxtb	r3, r3
 1208 00da 452B     		cmp	r3, #69
 1209 00dc 24D0     		beq	.L85
 1210 00de 04D8     		bhi	.L86
 1211 00e0 0D2B     		cmp	r3, #13
 1212 00e2 07D0     		beq	.L87
 1213 00e4 0E2B     		cmp	r3, #14
 1214 00e6 10D0     		beq	.L88
 1215 00e8 35E0     		b	.L84
 1216              	.L86:
 1217 00ea 7E2B     		cmp	r3, #126
 1218 00ec 2CD0     		beq	.L89
 1219 00ee 942B     		cmp	r3, #148
 1220 00f0 22D0     		beq	.L90
 1221 00f2 30E0     		b	.L84
 1222              	.L87:
 321:.\main.c      ****                             bufferDisplay1.saleType = 1;
 1223              		.loc 1 321 0
 1224 00f4 0322     		movs	r2, #3
 1225 00f6 774B     		ldr	r3, .L169
 1226 00f8 1A60     		str	r2, [r3]
 322:.\main.c      ****                             SetPicture(1,DISPLAY_FORMA_PROGRAMACION);                            
 1227              		.loc 1 322 0
 1228 00fa 0120     		movs	r0, #1
 1229 00fc 764B     		ldr	r3, .L169+4
 1230 00fe 83F86100 		strb	r0, [r3, #97]
 323:.\main.c      ****                         break;
 1231              		.loc 1 323 0
 1232 0102 0521     		movs	r1, #5
 1233 0104 FFF7FEFF 		bl	SetPicture
 1234              	.LVL112:
 324:.\main.c      ****                         case 0x0E:  //Pantalla credito  
 1235              		.loc 1 324 0
 1236 0108 25E0     		b	.L84
 1237              	.L88:
 326:.\main.c      ****                             bufferDisplay1.saleType = 2;
 1238              		.loc 1 326 0
 1239 010a 0A22     		movs	r2, #10
 1240 010c 714B     		ldr	r3, .L169
 1241 010e 1A60     		str	r2, [r3]
 327:.\main.c      ****                             count_protector = 0;
 1242              		.loc 1 327 0
 1243 0110 0222     		movs	r2, #2
 1244 0112 714B     		ldr	r3, .L169+4
 1245 0114 83F86120 		strb	r2, [r3, #97]
 328:.\main.c      ****                             SetPicture(1,DISPLAY_ID_DIGITAL);                            
 1246              		.loc 1 328 0
 1247 0118 0022     		movs	r2, #0
 1248 011a 714B     		ldr	r3, .L169+12
 1249 011c 1A70     		strb	r2, [r3]
 329:.\main.c      ****                         break;
 1250              		.loc 1 329 0
 1251 011e 0120     		movs	r0, #1
 1252 0120 8521     		movs	r1, #133
 1253 0122 FFF7FEFF 		bl	SetPicture
ARM GAS  C:\Users\Diego\AppData\Local\Temp\cc9VkXHl.s 			page 42


 1254              	.LVL113:
 330:.\main.c      ****                         case 0x45:  //Pantalla otras opciones 
 1255              		.loc 1 330 0
 1256 0126 16E0     		b	.L84
 1257              	.L85:
 332:.\main.c      ****                             SetPicture(1,DISPLAY_OPERACIONES);                            
 1258              		.loc 1 332 0
 1259 0128 0522     		movs	r2, #5
 1260 012a 6A4B     		ldr	r3, .L169
 1261 012c 1A60     		str	r2, [r3]
 333:.\main.c      ****                         break;
 1262              		.loc 1 333 0
 1263 012e 0120     		movs	r0, #1
 1264 0130 8321     		movs	r1, #131
 1265 0132 FFF7FEFF 		bl	SetPicture
 1266              	.LVL114:
 334:.\main.c      ****                             
 1267              		.loc 1 334 0
 1268 0136 0EE0     		b	.L84
 1269              	.L90:
 337:.\main.c      ****                             SetPicture(1,DISPLAY_INICIO0);                            
 1270              		.loc 1 337 0
 1271 0138 0022     		movs	r2, #0
 1272 013a 664B     		ldr	r3, .L169
 1273 013c 1A60     		str	r2, [r3]
 338:.\main.c      ****                         break;
 1274              		.loc 1 338 0
 1275 013e 0120     		movs	r0, #1
 1276 0140 0146     		mov	r1, r0
 1277 0142 FFF7FEFF 		bl	SetPicture
 1278              	.LVL115:
 339:.\main.c      ****                         
 1279              		.loc 1 339 0
 1280 0146 06E0     		b	.L84
 1281              	.L89:
 342:.\main.c      ****                             SetPicture(1,DISPLAY_INICIO0);                            
 1282              		.loc 1 342 0
 1283 0148 0022     		movs	r2, #0
 1284 014a 624B     		ldr	r3, .L169
 1285 014c 1A60     		str	r2, [r3]
 343:.\main.c      ****                         break;
 1286              		.loc 1 343 0
 1287 014e 0120     		movs	r0, #1
 1288 0150 0146     		mov	r1, r0
 1289 0152 FFF7FEFF 		bl	SetPicture
 1290              	.LVL116:
 1291              	.L84:
 347:.\main.c      ****                 Display1_ClearRxBuffer();
 1292              		.loc 1 347 0
 1293 0156 0A20     		movs	r0, #10
 1294 0158 FFF7FEFF 		bl	CyDelay
 1295              	.LVL117:
 348:.\main.c      ****             }
 1296              		.loc 1 348 0
 1297 015c FFF7FEFF 		bl	Display1_ClearRxBuffer
 1298              	.LVL118:
 1299 0160 CDE3     		b	.L66
ARM GAS  C:\Users\Diego\AppData\Local\Temp\cc9VkXHl.s 			page 43


 1300              	.L72:
 353:.\main.c      ****                 if((Display1_rxBuffer[0]==0xAA) && (Display1_rxBuffer[6]==0xC3) && (Display1_rxBuff
 1301              		.loc 1 353 0
 1302 0162 FFF7FEFF 		bl	Display1_GetRxBufferSize
 1303              	.LVL119:
 1304 0166 0828     		cmp	r0, #8
 1305 0168 40F0C983 		bne	.L66
 354:.\main.c      ****                     switch(Display1_rxBuffer[3]){
 1306              		.loc 1 354 0
 1307 016c 5B4B     		ldr	r3, .L169+8
 1308 016e 1B78     		ldrb	r3, [r3]	@ zero_extendqisi2
 1309 0170 DBB2     		uxtb	r3, r3
 1310 0172 AA2B     		cmp	r3, #170
 1311 0174 40F0A780 		bne	.L91
 354:.\main.c      ****                     switch(Display1_rxBuffer[3]){
 1312              		.loc 1 354 0 is_stmt 0 discriminator 1
 1313 0178 584B     		ldr	r3, .L169+8
 1314 017a 9B79     		ldrb	r3, [r3, #6]	@ zero_extendqisi2
 1315 017c DBB2     		uxtb	r3, r3
 1316 017e C32B     		cmp	r3, #195
 1317 0180 40F0A180 		bne	.L91
 354:.\main.c      ****                     switch(Display1_rxBuffer[3]){
 1318              		.loc 1 354 0 discriminator 2
 1319 0184 554B     		ldr	r3, .L169+8
 1320 0186 DB79     		ldrb	r3, [r3, #7]	@ zero_extendqisi2
 1321 0188 DBB2     		uxtb	r3, r3
 1322 018a 3C2B     		cmp	r3, #60
 1323 018c 40F09B80 		bne	.L91
 355:.\main.c      ****                         case 0x0F:  //Preset dinero                
 1324              		.loc 1 355 0 is_stmt 1
 1325 0190 524B     		ldr	r3, .L169+8
 1326 0192 DB78     		ldrb	r3, [r3, #3]	@ zero_extendqisi2
 1327 0194 DBB2     		uxtb	r3, r3
 1328 0196 3B2B     		cmp	r3, #59
 1329 0198 00F08680 		beq	.L92
 1330 019c 04D8     		bhi	.L93
 1331 019e 0F2B     		cmp	r3, #15
 1332 01a0 0BD0     		beq	.L94
 1333 01a2 102B     		cmp	r3, #16
 1334 01a4 27D0     		beq	.L95
 1335 01a6 8EE0     		b	.L91
 1336              	.L93:
 1337 01a8 7E2B     		cmp	r3, #126
 1338 01aa 00F08580 		beq	.L96
 1339 01ae 942B     		cmp	r3, #148
 1340 01b0 72D0     		beq	.L97
 1341 01b2 432B     		cmp	r3, #67
 1342 01b4 40F08780 		bne	.L91
 1343 01b8 3BE0     		b	.L98
 1344              	.L94:
 357:.\main.c      ****                             bufferDisplay1.flagKeyboard = 0;
 1345              		.loc 1 357 0
 1346 01ba 0422     		movs	r2, #4
 1347 01bc 454B     		ldr	r3, .L169
 1348 01be 1A60     		str	r2, [r3]
 358:.\main.c      ****                             bufferDisplay1.presetType[0]=2;
 1349              		.loc 1 358 0
ARM GAS  C:\Users\Diego\AppData\Local\Temp\cc9VkXHl.s 			page 44


 1350 01c0 454B     		ldr	r3, .L169+4
 1351 01c2 0024     		movs	r4, #0
 1352 01c4 83F80041 		strb	r4, [r3, #256]
 359:.\main.c      ****                             bufferDisplay1.presetType[1]='D';
 1353              		.loc 1 359 0
 1354 01c8 0225     		movs	r5, #2
 1355 01ca 83F86350 		strb	r5, [r3, #99]
 360:.\main.c      ****                             numberKeys1=0;
 1356              		.loc 1 360 0
 1357 01ce 4422     		movs	r2, #68
 1358 01d0 83F86420 		strb	r2, [r3, #100]
 361:.\main.c      ****                             SetPicture(1,DISPLAY_INTRODUZCA_VALOR);   
 1359              		.loc 1 361 0
 1360 01d4 434B     		ldr	r3, .L169+16
 1361 01d6 1C70     		strb	r4, [r3]
 362:.\main.c      ****                             WriteLCD(1,'$',3,2,1,0x0000,'N');
 1362              		.loc 1 362 0
 1363 01d8 0120     		movs	r0, #1
 1364 01da 0621     		movs	r1, #6
 1365 01dc FFF7FEFF 		bl	SetPicture
 1366              	.LVL120:
 363:.\main.c      ****                         break; 
 1367              		.loc 1 363 0
 1368 01e0 0120     		movs	r0, #1
 1369 01e2 0090     		str	r0, [sp]
 1370 01e4 0194     		str	r4, [sp, #4]
 1371 01e6 4E23     		movs	r3, #78
 1372 01e8 0293     		str	r3, [sp, #8]
 1373 01ea 2421     		movs	r1, #36
 1374 01ec 0322     		movs	r2, #3
 1375 01ee 2B46     		mov	r3, r5
 1376 01f0 FFF7FEFF 		bl	WriteLCD
 1377              	.LVL121:
 364:.\main.c      ****                         case 0x10:  //Preset volumen                 
 1378              		.loc 1 364 0
 1379 01f4 67E0     		b	.L91
 1380              	.L95:
 366:.\main.c      ****                             bufferDisplay1.flagKeyboard = 0;
 1381              		.loc 1 366 0
 1382 01f6 0422     		movs	r2, #4
 1383 01f8 364B     		ldr	r3, .L169
 1384 01fa 1A60     		str	r2, [r3]
 367:.\main.c      ****                             bufferDisplay1.presetType[0]=1;
 1385              		.loc 1 367 0
 1386 01fc 364B     		ldr	r3, .L169+4
 1387 01fe 0025     		movs	r5, #0
 1388 0200 83F80051 		strb	r5, [r3, #256]
 368:.\main.c      ****                             bufferDisplay1.presetType[1]='V';
 1389              		.loc 1 368 0
 1390 0204 0124     		movs	r4, #1
 1391 0206 83F86340 		strb	r4, [r3, #99]
 369:.\main.c      ****                             numberKeys1=0;                            
 1392              		.loc 1 369 0
 1393 020a 5626     		movs	r6, #86
 1394 020c 83F86460 		strb	r6, [r3, #100]
 370:.\main.c      ****                             SetPicture(1,DISPLAY_INTRODUZCA_VOLUMEN);                            
 1395              		.loc 1 370 0
ARM GAS  C:\Users\Diego\AppData\Local\Temp\cc9VkXHl.s 			page 45


 1396 0210 344B     		ldr	r3, .L169+16
 1397 0212 1D70     		strb	r5, [r3]
 371:.\main.c      ****                             WriteLCD(1,'V',3,2,1,0x0000,'N');                            
 1398              		.loc 1 371 0
 1399 0214 2046     		mov	r0, r4
 1400 0216 0D21     		movs	r1, #13
 1401 0218 FFF7FEFF 		bl	SetPicture
 1402              	.LVL122:
 372:.\main.c      ****                         break;
 1403              		.loc 1 372 0
 1404 021c 0094     		str	r4, [sp]
 1405 021e 0195     		str	r5, [sp, #4]
 1406 0220 4E23     		movs	r3, #78
 1407 0222 0293     		str	r3, [sp, #8]
 1408 0224 2046     		mov	r0, r4
 1409 0226 3146     		mov	r1, r6
 1410 0228 0322     		movs	r2, #3
 1411 022a 0223     		movs	r3, #2
 1412 022c FFF7FEFF 		bl	WriteLCD
 1413              	.LVL123:
 373:.\main.c      ****                         case 0x43:  //Preset full 
 1414              		.loc 1 373 0
 1415 0230 49E0     		b	.L91
 1416              	.L98:
 375:.\main.c      ****                             bufferDisplay1.presetType[1]='F';
 1417              		.loc 1 375 0
 1418 0232 294B     		ldr	r3, .L169+4
 1419 0234 0222     		movs	r2, #2
 1420 0236 83F86320 		strb	r2, [r3, #99]
 376:.\main.c      ****                             for(x=1;x<(digits-1);x++){
 1421              		.loc 1 376 0
 1422 023a 4622     		movs	r2, #70
 1423 023c 83F86420 		strb	r2, [r3, #100]
 1424              	.LVL124:
 377:.\main.c      ****                                 bufferDisplay1.presetValue[0][x]='9';
 1425              		.loc 1 377 0
 1426 0240 0123     		movs	r3, #1
 1427 0242 06E0     		b	.L99
 1428              	.LVL125:
 1429              	.L100:
 378:.\main.c      ****                             }
 1430              		.loc 1 378 0 discriminator 3
 1431 0244 244A     		ldr	r2, .L169+4
 1432 0246 1A44     		add	r2, r2, r3
 1433 0248 3921     		movs	r1, #57
 1434 024a 82F86510 		strb	r1, [r2, #101]
 377:.\main.c      ****                                 bufferDisplay1.presetValue[0][x]='9';
 1435              		.loc 1 377 0 discriminator 3
 1436 024e 0133     		adds	r3, r3, #1
 1437              	.LVL126:
 1438 0250 DBB2     		uxtb	r3, r3
 1439              	.LVL127:
 1440              	.L99:
 377:.\main.c      ****                                 bufferDisplay1.presetValue[0][x]='9';
 1441              		.loc 1 377 0 is_stmt 0 discriminator 1
 1442 0252 1A46     		mov	r2, r3
 1443 0254 2449     		ldr	r1, .L169+20
ARM GAS  C:\Users\Diego\AppData\Local\Temp\cc9VkXHl.s 			page 46


 1444 0256 0978     		ldrb	r1, [r1]	@ zero_extendqisi2
 1445 0258 481E     		subs	r0, r1, #1
 1446 025a 8342     		cmp	r3, r0
 1447 025c F2DB     		blt	.L100
 380:.\main.c      ****                             bufferDisplay1.presetValue[0][x+1]='0';
 1448              		.loc 1 380 0 is_stmt 1
 1449 025e 1E4B     		ldr	r3, .L169+4
 1450              	.LVL128:
 1451 0260 9C18     		adds	r4, r3, r2
 1452 0262 3020     		movs	r0, #48
 1453 0264 84F86500 		strb	r0, [r4, #101]
 381:.\main.c      ****                             bufferDisplay1.presetValue[0][0]=digits;
 1454              		.loc 1 381 0
 1455 0268 84F86600 		strb	r0, [r4, #102]
 382:.\main.c      ****                             for(x=0;x<=bufferDisplay1.presetValue[0][0];x++){
 1456              		.loc 1 382 0
 1457 026c 83F86510 		strb	r1, [r3, #101]
 1458              	.LVL129:
 383:.\main.c      ****                                 bufferDisplay1.presetValue[1][x]=bufferDisplay1.presetValue[0][x];
 1459              		.loc 1 383 0
 1460 0270 0023     		movs	r3, #0
 1461 0272 07E0     		b	.L101
 1462              	.LVL130:
 1463              	.L102:
 384:.\main.c      ****                             }
 1464              		.loc 1 384 0 discriminator 3
 1465 0274 184A     		ldr	r2, .L169+4
 1466 0276 1A44     		add	r2, r2, r3
 1467 0278 92F86500 		ldrb	r0, [r2, #101]	@ zero_extendqisi2
 1468 027c 82F86F00 		strb	r0, [r2, #111]
 383:.\main.c      ****                                 bufferDisplay1.presetValue[1][x]=bufferDisplay1.presetValue[0][x];
 1469              		.loc 1 383 0 discriminator 3
 1470 0280 0133     		adds	r3, r3, #1
 1471              	.LVL131:
 1472 0282 DBB2     		uxtb	r3, r3
 1473              	.LVL132:
 1474              	.L101:
 383:.\main.c      ****                                 bufferDisplay1.presetValue[1][x]=bufferDisplay1.presetValue[0][x];
 1475              		.loc 1 383 0 is_stmt 0 discriminator 1
 1476 0284 8B42     		cmp	r3, r1
 1477 0286 F5D9     		bls	.L102
 386:.\main.c      ****                             SetPicture(1,DISPLAY_SELECCIONE_PRODUCTO4);                          
 1478              		.loc 1 386 0 is_stmt 1
 1479 0288 0522     		movs	r2, #5
 1480 028a 124B     		ldr	r3, .L169
 1481              	.LVL133:
 1482 028c 1A60     		str	r2, [r3]
 387:.\main.c      ****                         break;
 1483              		.loc 1 387 0
 1484 028e 0120     		movs	r0, #1
 1485 0290 8621     		movs	r1, #134
 1486 0292 FFF7FEFF 		bl	SetPicture
 1487              	.LVL134:
 388:.\main.c      ****                         case 0x94:  //Retroceso 
 1488              		.loc 1 388 0
 1489 0296 16E0     		b	.L91
 1490              	.L97:
ARM GAS  C:\Users\Diego\AppData\Local\Temp\cc9VkXHl.s 			page 47


 390:.\main.c      ****                             SetPicture(1,DISPLAY_INICIO0);                                         
 1491              		.loc 1 390 0
 1492 0298 0022     		movs	r2, #0
 1493 029a 0E4B     		ldr	r3, .L169
 1494 029c 1A60     		str	r2, [r3]
 391:.\main.c      ****                         break;
 1495              		.loc 1 391 0
 1496 029e 0120     		movs	r0, #1
 1497 02a0 0146     		mov	r1, r0
 1498 02a2 FFF7FEFF 		bl	SetPicture
 1499              	.LVL135:
 392:.\main.c      ****                         case 0x3B:  //Pantalla Inicial    
 1500              		.loc 1 392 0
 1501 02a6 0EE0     		b	.L91
 1502              	.L92:
 394:.\main.c      ****                             SetPicture(1,DISPLAY_INICIO0);                            
 1503              		.loc 1 394 0
 1504 02a8 0022     		movs	r2, #0
 1505 02aa 0A4B     		ldr	r3, .L169
 1506 02ac 1A60     		str	r2, [r3]
 395:.\main.c      ****                         break;
 1507              		.loc 1 395 0
 1508 02ae 0120     		movs	r0, #1
 1509 02b0 0146     		mov	r1, r0
 1510 02b2 FFF7FEFF 		bl	SetPicture
 1511              	.LVL136:
 396:.\main.c      ****                         case 0x7E:  //Pantalla Inicial    
 1512              		.loc 1 396 0
 1513 02b6 06E0     		b	.L91
 1514              	.L96:
 398:.\main.c      ****                             SetPicture(1,DISPLAY_INICIO0);                            
 1515              		.loc 1 398 0
 1516 02b8 0022     		movs	r2, #0
 1517 02ba 064B     		ldr	r3, .L169
 1518 02bc 1A60     		str	r2, [r3]
 399:.\main.c      ****                         break;
 1519              		.loc 1 399 0
 1520 02be 0120     		movs	r0, #1
 1521 02c0 0146     		mov	r1, r0
 1522 02c2 FFF7FEFF 		bl	SetPicture
 1523              	.LVL137:
 1524              	.L91:
 403:.\main.c      ****                 Display1_ClearRxBuffer();
 1525              		.loc 1 403 0
 1526 02c6 0A20     		movs	r0, #10
 1527 02c8 FFF7FEFF 		bl	CyDelay
 1528              	.LVL138:
 404:.\main.c      ****             }
 1529              		.loc 1 404 0
 1530 02cc FFF7FEFF 		bl	Display1_ClearRxBuffer
 1531              	.LVL139:
 1532 02d0 15E3     		b	.L66
 1533              	.L170:
 1534 02d2 00BF     		.align	2
 1535              	.L169:
 1536 02d4 00000000 		.word	flowDisplay1
 1537 02d8 00000000 		.word	bufferDisplay1
ARM GAS  C:\Users\Diego\AppData\Local\Temp\cc9VkXHl.s 			page 48


 1538 02dc 00000000 		.word	Display1_rxBuffer
 1539 02e0 00000000 		.word	count_protector
 1540 02e4 00000000 		.word	numberKeys1
 1541 02e8 00000000 		.word	digits
 1542              	.L73:
 409:.\main.c      ****                 case 0:  //Pantalla Inicial    
 1543              		.loc 1 409 0
 1544 02ec 0120     		movs	r0, #1
 1545 02ee 984B     		ldr	r3, .L171
 1546 02f0 1978     		ldrb	r1, [r3]	@ zero_extendqisi2
 1547 02f2 0022     		movs	r2, #0
 1548 02f4 FFF7FEFF 		bl	alphanumeric_keyboard
 1549              	.LVL140:
 1550 02f8 10B1     		cbz	r0, .L103
 1551 02fa 0128     		cmp	r0, #1
 1552 02fc 13D0     		beq	.L160
 1553 02fe FEE2     		b	.L66
 1554              	.L103:
 411:.\main.c      ****                     SetPicture(1,DISPLAY_INICIO0);                            
 1555              		.loc 1 411 0
 1556 0300 0022     		movs	r2, #0
 1557 0302 944B     		ldr	r3, .L171+4
 1558 0304 1A60     		str	r2, [r3]
 412:.\main.c      ****                 break;
 1559              		.loc 1 412 0
 1560 0306 0120     		movs	r0, #1
 1561 0308 0146     		mov	r1, r0
 1562 030a FFF7FEFF 		bl	SetPicture
 1563              	.LVL141:
 413:.\main.c      ****                     
 1564              		.loc 1 413 0
 1565 030e F6E2     		b	.L66
 1566              	.LVL142:
 1567              	.L105:
 417:.\main.c      ****                         bufferDisplay1.presetValue[1][x]=bufferDisplay1.valueKeys[x];
 1568              		.loc 1 417 0 discriminator 3
 1569 0310 914A     		ldr	r2, .L171+8
 1570 0312 1A44     		add	r2, r2, r3
 1571 0314 92F84B10 		ldrb	r1, [r2, #75]	@ zero_extendqisi2
 1572 0318 82F86510 		strb	r1, [r2, #101]
 418:.\main.c      ****                     }
 1573              		.loc 1 418 0 discriminator 3
 1574 031c 82F86F10 		strb	r1, [r2, #111]
 416:.\main.c      ****                         bufferDisplay1.presetValue[0][x]=bufferDisplay1.valueKeys[x];
 1575              		.loc 1 416 0 discriminator 3
 1576 0320 0133     		adds	r3, r3, #1
 1577              	.LVL143:
 1578 0322 DBB2     		uxtb	r3, r3
 1579              	.LVL144:
 1580 0324 00E0     		b	.L104
 1581              	.LVL145:
 1582              	.L160:
 409:.\main.c      ****                 case 0:  //Pantalla Inicial    
 1583              		.loc 1 409 0
 1584 0326 0023     		movs	r3, #0
 1585              	.L104:
 1586              	.LVL146:
ARM GAS  C:\Users\Diego\AppData\Local\Temp\cc9VkXHl.s 			page 49


 416:.\main.c      ****                         bufferDisplay1.presetValue[0][x]=bufferDisplay1.valueKeys[x];
 1587              		.loc 1 416 0 discriminator 1
 1588 0328 8B4A     		ldr	r2, .L171+8
 1589 032a 92F84B20 		ldrb	r2, [r2, #75]	@ zero_extendqisi2
 1590 032e 9A42     		cmp	r2, r3
 1591 0330 EED2     		bcs	.L105
 420:.\main.c      ****                     flowDisplay1 = 5;//caso para seleccion de producto
 1592              		.loc 1 420 0
 1593 0332 0022     		movs	r2, #0
 1594 0334 884B     		ldr	r3, .L171+8
 1595              	.LVL147:
 1596 0336 83F80021 		strb	r2, [r3, #256]
 421:.\main.c      ****                     SetPicture(1,DISPLAY_SELECCIONE_PRODUCTO4);
 1597              		.loc 1 421 0
 1598 033a 0522     		movs	r2, #5
 1599 033c 854B     		ldr	r3, .L171+4
 1600 033e 1A60     		str	r2, [r3]
 422:.\main.c      ****                 break;
 1601              		.loc 1 422 0
 1602 0340 0120     		movs	r0, #1
 1603 0342 8621     		movs	r1, #134
 1604 0344 FFF7FEFF 		bl	SetPicture
 1605              	.LVL148:
 423:.\main.c      ****             }
 1606              		.loc 1 423 0
 1607 0348 D9E2     		b	.L66
 1608              	.L74:
 428:.\main.c      ****                 if((Display1_rxBuffer[0]==0xAA) && (Display1_rxBuffer[6]==0xC3) && (Display1_rxBuff
 1609              		.loc 1 428 0
 1610 034a FFF7FEFF 		bl	Display1_GetRxBufferSize
 1611              	.LVL149:
 1612 034e 0828     		cmp	r0, #8
 1613 0350 40F0D582 		bne	.L66
 429:.\main.c      ****                     switch(Display1_rxBuffer[3]){
 1614              		.loc 1 429 0
 1615 0354 814B     		ldr	r3, .L171+12
 1616 0356 1B78     		ldrb	r3, [r3]	@ zero_extendqisi2
 1617 0358 DBB2     		uxtb	r3, r3
 1618 035a AA2B     		cmp	r3, #170
 1619 035c 6CD1     		bne	.L106
 429:.\main.c      ****                     switch(Display1_rxBuffer[3]){
 1620              		.loc 1 429 0 is_stmt 0 discriminator 1
 1621 035e 7F4B     		ldr	r3, .L171+12
 1622 0360 9B79     		ldrb	r3, [r3, #6]	@ zero_extendqisi2
 1623 0362 DBB2     		uxtb	r3, r3
 1624 0364 C32B     		cmp	r3, #195
 1625 0366 67D1     		bne	.L106
 429:.\main.c      ****                     switch(Display1_rxBuffer[3]){
 1626              		.loc 1 429 0 discriminator 2
 1627 0368 7C4B     		ldr	r3, .L171+12
 1628 036a DB79     		ldrb	r3, [r3, #7]	@ zero_extendqisi2
 1629 036c DBB2     		uxtb	r3, r3
 1630 036e 3C2B     		cmp	r3, #60
 1631 0370 62D1     		bne	.L106
 430:.\main.c      ****                         case 0x80:  //Grado 1 
 1632              		.loc 1 430 0 is_stmt 1
 1633 0372 7A4B     		ldr	r3, .L171+12
ARM GAS  C:\Users\Diego\AppData\Local\Temp\cc9VkXHl.s 			page 50


 1634 0374 DB78     		ldrb	r3, [r3, #3]	@ zero_extendqisi2
 1635 0376 7E3B     		subs	r3, r3, #126
 1636 0378 3A2B     		cmp	r3, #58
 1637 037a 5DD8     		bhi	.L106
 1638 037c DFE803F0 		tbb	[pc, r3]
 1639              	.L108:
 1640 0380 55       		.byte	(.L107-.L108)/2
 1641 0381 35       		.byte	(.L109-.L108)/2
 1642 0382 1E       		.byte	(.L110-.L108)/2
 1643 0383 29       		.byte	(.L111-.L108)/2
 1644 0384 5C       		.byte	(.L106-.L108)/2
 1645 0385 5C       		.byte	(.L106-.L108)/2
 1646 0386 5C       		.byte	(.L106-.L108)/2
 1647 0387 5C       		.byte	(.L106-.L108)/2
 1648 0388 5C       		.byte	(.L106-.L108)/2
 1649 0389 5C       		.byte	(.L106-.L108)/2
 1650 038a 5C       		.byte	(.L106-.L108)/2
 1651 038b 5C       		.byte	(.L106-.L108)/2
 1652 038c 5C       		.byte	(.L106-.L108)/2
 1653 038d 5C       		.byte	(.L106-.L108)/2
 1654 038e 5C       		.byte	(.L106-.L108)/2
 1655 038f 5C       		.byte	(.L106-.L108)/2
 1656 0390 5C       		.byte	(.L106-.L108)/2
 1657 0391 5C       		.byte	(.L106-.L108)/2
 1658 0392 5C       		.byte	(.L106-.L108)/2
 1659 0393 5C       		.byte	(.L106-.L108)/2
 1660 0394 5C       		.byte	(.L106-.L108)/2
 1661 0395 5C       		.byte	(.L106-.L108)/2
 1662 0396 4D       		.byte	(.L112-.L108)/2
 1663 0397 5C       		.byte	(.L106-.L108)/2
 1664 0398 5C       		.byte	(.L106-.L108)/2
 1665 0399 5C       		.byte	(.L106-.L108)/2
 1666 039a 5C       		.byte	(.L106-.L108)/2
 1667 039b 5C       		.byte	(.L106-.L108)/2
 1668 039c 5C       		.byte	(.L106-.L108)/2
 1669 039d 5C       		.byte	(.L106-.L108)/2
 1670 039e 5C       		.byte	(.L106-.L108)/2
 1671 039f 5C       		.byte	(.L106-.L108)/2
 1672 03a0 5C       		.byte	(.L106-.L108)/2
 1673 03a1 5C       		.byte	(.L106-.L108)/2
 1674 03a2 5C       		.byte	(.L106-.L108)/2
 1675 03a3 5C       		.byte	(.L106-.L108)/2
 1676 03a4 5C       		.byte	(.L106-.L108)/2
 1677 03a5 5C       		.byte	(.L106-.L108)/2
 1678 03a6 5C       		.byte	(.L106-.L108)/2
 1679 03a7 5C       		.byte	(.L106-.L108)/2
 1680 03a8 5C       		.byte	(.L106-.L108)/2
 1681 03a9 5C       		.byte	(.L106-.L108)/2
 1682 03aa 5C       		.byte	(.L106-.L108)/2
 1683 03ab 5C       		.byte	(.L106-.L108)/2
 1684 03ac 5C       		.byte	(.L106-.L108)/2
 1685 03ad 5C       		.byte	(.L106-.L108)/2
 1686 03ae 5C       		.byte	(.L106-.L108)/2
 1687 03af 5C       		.byte	(.L106-.L108)/2
 1688 03b0 5C       		.byte	(.L106-.L108)/2
 1689 03b1 5C       		.byte	(.L106-.L108)/2
 1690 03b2 5C       		.byte	(.L106-.L108)/2
ARM GAS  C:\Users\Diego\AppData\Local\Temp\cc9VkXHl.s 			page 51


 1691 03b3 5C       		.byte	(.L106-.L108)/2
 1692 03b4 5C       		.byte	(.L106-.L108)/2
 1693 03b5 5C       		.byte	(.L106-.L108)/2
 1694 03b6 5C       		.byte	(.L106-.L108)/2
 1695 03b7 5C       		.byte	(.L106-.L108)/2
 1696 03b8 5C       		.byte	(.L106-.L108)/2
 1697 03b9 5C       		.byte	(.L106-.L108)/2
 1698 03ba 41       		.byte	(.L113-.L108)/2
 1699 03bb 00       		.p2align 1
 1700              	.L110:
 432:.\main.c      ****                             side.a.hose = 1;
 1701              		.loc 1 432 0
 1702 03bc 0622     		movs	r2, #6
 1703 03be 654B     		ldr	r3, .L171+4
 1704 03c0 1A60     		str	r2, [r3]
 433:.\main.c      ****                             SetPicture(1,DISPLAY_DESEA_IMPRIMIR_RECIBO);                           
 1705              		.loc 1 433 0
 1706 03c2 0120     		movs	r0, #1
 1707 03c4 664B     		ldr	r3, .L171+16
 1708 03c6 83F80101 		strb	r0, [r3, #257]
 434:.\main.c      ****                         break;
 1709              		.loc 1 434 0
 1710 03ca 0B21     		movs	r1, #11
 1711 03cc FFF7FEFF 		bl	SetPicture
 1712              	.LVL150:
 435:.\main.c      ****                             
 1713              		.loc 1 435 0
 1714 03d0 32E0     		b	.L106
 1715              	.L111:
 438:.\main.c      ****                             side.a.hose = 2;
 1716              		.loc 1 438 0
 1717 03d2 0622     		movs	r2, #6
 1718 03d4 5F4B     		ldr	r3, .L171+4
 1719 03d6 1A60     		str	r2, [r3]
 439:.\main.c      ****                             SetPicture(1,DISPLAY_DESEA_IMPRIMIR_RECIBO);                           
 1720              		.loc 1 439 0
 1721 03d8 0222     		movs	r2, #2
 1722 03da 614B     		ldr	r3, .L171+16
 1723 03dc 83F80121 		strb	r2, [r3, #257]
 440:.\main.c      ****                         break;
 1724              		.loc 1 440 0
 1725 03e0 0120     		movs	r0, #1
 1726 03e2 0B21     		movs	r1, #11
 1727 03e4 FFF7FEFF 		bl	SetPicture
 1728              	.LVL151:
 441:.\main.c      ****                             
 1729              		.loc 1 441 0
 1730 03e8 26E0     		b	.L106
 1731              	.L109:
 444:.\main.c      ****                             side.a.hose = 3;
 1732              		.loc 1 444 0
 1733 03ea 0622     		movs	r2, #6
 1734 03ec 594B     		ldr	r3, .L171+4
 1735 03ee 1A60     		str	r2, [r3]
 445:.\main.c      ****                             SetPicture(1,DISPLAY_DESEA_IMPRIMIR_RECIBO);                           
 1736              		.loc 1 445 0
 1737 03f0 0322     		movs	r2, #3
ARM GAS  C:\Users\Diego\AppData\Local\Temp\cc9VkXHl.s 			page 52


 1738 03f2 5B4B     		ldr	r3, .L171+16
 1739 03f4 83F80121 		strb	r2, [r3, #257]
 446:.\main.c      ****                         break;   
 1740              		.loc 1 446 0
 1741 03f8 0120     		movs	r0, #1
 1742 03fa 0B21     		movs	r1, #11
 1743 03fc FFF7FEFF 		bl	SetPicture
 1744              	.LVL152:
 447:.\main.c      ****                         
 1745              		.loc 1 447 0
 1746 0400 1AE0     		b	.L106
 1747              	.L113:
 450:.\main.c      ****                             side.a.hose = 4;
 1748              		.loc 1 450 0
 1749 0402 0622     		movs	r2, #6
 1750 0404 534B     		ldr	r3, .L171+4
 1751 0406 1A60     		str	r2, [r3]
 451:.\main.c      ****                             SetPicture(1,DISPLAY_DESEA_IMPRIMIR_RECIBO);                           
 1752              		.loc 1 451 0
 1753 0408 0422     		movs	r2, #4
 1754 040a 554B     		ldr	r3, .L171+16
 1755 040c 83F80121 		strb	r2, [r3, #257]
 452:.\main.c      ****                         break;
 1756              		.loc 1 452 0
 1757 0410 0120     		movs	r0, #1
 1758 0412 0B21     		movs	r1, #11
 1759 0414 FFF7FEFF 		bl	SetPicture
 1760              	.LVL153:
 453:.\main.c      ****                             
 1761              		.loc 1 453 0
 1762 0418 0EE0     		b	.L106
 1763              	.L112:
 456:.\main.c      ****                             SetPicture(1,DISPLAY_INICIO0);                                         
 1764              		.loc 1 456 0
 1765 041a 0022     		movs	r2, #0
 1766 041c 4D4B     		ldr	r3, .L171+4
 1767 041e 1A60     		str	r2, [r3]
 457:.\main.c      ****                         break;
 1768              		.loc 1 457 0
 1769 0420 0120     		movs	r0, #1
 1770 0422 0146     		mov	r1, r0
 1771 0424 FFF7FEFF 		bl	SetPicture
 1772              	.LVL154:
 458:.\main.c      ****                             
 1773              		.loc 1 458 0
 1774 0428 06E0     		b	.L106
 1775              	.L107:
 461:.\main.c      ****                             flowDisplay1 = 0;
 1776              		.loc 1 461 0
 1777 042a 0120     		movs	r0, #1
 1778 042c 0146     		mov	r1, r0
 1779 042e FFF7FEFF 		bl	SetPicture
 1780              	.LVL155:
 462:.\main.c      ****                         break;
 1781              		.loc 1 462 0
 1782 0432 0022     		movs	r2, #0
 1783 0434 474B     		ldr	r3, .L171+4
ARM GAS  C:\Users\Diego\AppData\Local\Temp\cc9VkXHl.s 			page 53


 1784 0436 1A60     		str	r2, [r3]
 1785              	.L106:
 466:.\main.c      ****                 Display1_ClearRxBuffer();
 1786              		.loc 1 466 0
 1787 0438 0A20     		movs	r0, #10
 1788 043a FFF7FEFF 		bl	CyDelay
 1789              	.LVL156:
 467:.\main.c      ****             }
 1790              		.loc 1 467 0
 1791 043e FFF7FEFF 		bl	Display1_ClearRxBuffer
 1792              	.LVL157:
 1793 0442 5CE2     		b	.L66
 1794              	.L75:
 472:.\main.c      ****                 if((Display1_rxBuffer[0]==0xAA) && (Display1_rxBuffer[6]==0xC3) && (Display1_rxBuff
 1795              		.loc 1 472 0
 1796 0444 FFF7FEFF 		bl	Display1_GetRxBufferSize
 1797              	.LVL158:
 1798 0448 0828     		cmp	r0, #8
 1799 044a 40F05882 		bne	.L66
 473:.\main.c      ****                     switch(Display1_rxBuffer[3]){
 1800              		.loc 1 473 0
 1801 044e 434B     		ldr	r3, .L171+12
 1802 0450 1B78     		ldrb	r3, [r3]	@ zero_extendqisi2
 1803 0452 DBB2     		uxtb	r3, r3
 1804 0454 AA2B     		cmp	r3, #170
 1805 0456 37D1     		bne	.L114
 473:.\main.c      ****                     switch(Display1_rxBuffer[3]){
 1806              		.loc 1 473 0 is_stmt 0 discriminator 1
 1807 0458 404B     		ldr	r3, .L171+12
 1808 045a 9B79     		ldrb	r3, [r3, #6]	@ zero_extendqisi2
 1809 045c DBB2     		uxtb	r3, r3
 1810 045e C32B     		cmp	r3, #195
 1811 0460 32D1     		bne	.L114
 473:.\main.c      ****                     switch(Display1_rxBuffer[3]){
 1812              		.loc 1 473 0 discriminator 2
 1813 0462 3E4B     		ldr	r3, .L171+12
 1814 0464 DB79     		ldrb	r3, [r3, #7]	@ zero_extendqisi2
 1815 0466 DBB2     		uxtb	r3, r3
 1816 0468 3C2B     		cmp	r3, #60
 1817 046a 2DD1     		bne	.L114
 474:.\main.c      ****                         case 0x39:  //Si imprimir  
 1818              		.loc 1 474 0 is_stmt 1
 1819 046c 3B4B     		ldr	r3, .L171+12
 1820 046e DB78     		ldrb	r3, [r3, #3]	@ zero_extendqisi2
 1821 0470 DBB2     		uxtb	r3, r3
 1822 0472 392B     		cmp	r3, #57
 1823 0474 04D0     		beq	.L115
 1824 0476 7E2B     		cmp	r3, #126
 1825 0478 1FD0     		beq	.L116
 1826 047a 382B     		cmp	r3, #56
 1827 047c 24D1     		bne	.L114
 1828 047e 0FE0     		b	.L117
 1829              	.L115:
 476:.\main.c      ****                             numberKeys1 = 0;
 1830              		.loc 1 476 0
 1831 0480 0922     		movs	r2, #9
 1832 0482 344B     		ldr	r3, .L171+4
ARM GAS  C:\Users\Diego\AppData\Local\Temp\cc9VkXHl.s 			page 54


 1833 0484 1A60     		str	r2, [r3]
 477:.\main.c      ****                             bufferDisplay1.flagKeyboard = 1;
 1834              		.loc 1 477 0
 1835 0486 0022     		movs	r2, #0
 1836 0488 364B     		ldr	r3, .L171+20
 1837 048a 1A70     		strb	r2, [r3]
 478:.\main.c      ****                             bufferDisplay1.flagPrint =  1;
 1838              		.loc 1 478 0
 1839 048c 324B     		ldr	r3, .L171+8
 1840 048e 0120     		movs	r0, #1
 1841 0490 83F80001 		strb	r0, [r3, #256]
 479:.\main.c      ****                             SetPicture(1,DISPLAY_DIGITE_PLACA);                            
 1842              		.loc 1 479 0
 1843 0494 83F87002 		strb	r0, [r3, #624]
 480:.\main.c      ****                         break; 
 1844              		.loc 1 480 0
 1845 0498 0A21     		movs	r1, #10
 1846 049a FFF7FEFF 		bl	SetPicture
 1847              	.LVL159:
 481:.\main.c      ****                         case 0x38:  //No imprimir
 1848              		.loc 1 481 0
 1849 049e 13E0     		b	.L114
 1850              	.L117:
 483:.\main.c      ****                             flowDisplay1 = 7;//Esperando estado del dispensador  
 1851              		.loc 1 483 0
 1852 04a0 0023     		movs	r3, #0
 1853 04a2 2D4A     		ldr	r2, .L171+8
 1854 04a4 82F80031 		strb	r3, [r2, #256]
 484:.\main.c      ****                             count_protector=0;
 1855              		.loc 1 484 0
 1856 04a8 0721     		movs	r1, #7
 1857 04aa 2A4A     		ldr	r2, .L171+4
 1858 04ac 1160     		str	r1, [r2]
 485:.\main.c      ****                             SetPicture(1,DISPLAY_SUBA_MANIJA);                            
 1859              		.loc 1 485 0
 1860 04ae 2E4A     		ldr	r2, .L171+24
 1861 04b0 1370     		strb	r3, [r2]
 486:.\main.c      ****                         break;
 1862              		.loc 1 486 0
 1863 04b2 0120     		movs	r0, #1
 1864 04b4 FFF7FEFF 		bl	SetPicture
 1865              	.LVL160:
 487:.\main.c      ****                         case 0x7E:  //Pantalla Inicial                                             
 1866              		.loc 1 487 0
 1867 04b8 06E0     		b	.L114
 1868              	.L116:
 489:.\main.c      ****                             flowDisplay1 = 0;
 1869              		.loc 1 489 0
 1870 04ba 0120     		movs	r0, #1
 1871 04bc 0146     		mov	r1, r0
 1872 04be FFF7FEFF 		bl	SetPicture
 1873              	.LVL161:
 490:.\main.c      ****                         break;
 1874              		.loc 1 490 0
 1875 04c2 0022     		movs	r2, #0
 1876 04c4 234B     		ldr	r3, .L171+4
 1877 04c6 1A60     		str	r2, [r3]
ARM GAS  C:\Users\Diego\AppData\Local\Temp\cc9VkXHl.s 			page 55


 1878              	.L114:
 494:.\main.c      ****                 Display1_ClearRxBuffer();
 1879              		.loc 1 494 0
 1880 04c8 0A20     		movs	r0, #10
 1881 04ca FFF7FEFF 		bl	CyDelay
 1882              	.LVL162:
 495:.\main.c      ****             }
 1883              		.loc 1 495 0
 1884 04ce FFF7FEFF 		bl	Display1_ClearRxBuffer
 1885              	.LVL163:
 1886 04d2 14E2     		b	.L66
 1887              	.L76:
 501:.\main.c      ****             Timer_Animacion_Start();
 1888              		.loc 1 501 0
 1889 04d4 2548     		ldr	r0, .L171+28
 1890 04d6 FFF7FEFF 		bl	isr_3_StartEx
 1891              	.LVL164:
 502:.\main.c      ****             side.a.activeHose = PumpHoseActiveState(1);  
 1892              		.loc 1 502 0
 1893 04da FFF7FEFF 		bl	Timer_Animacion_Start
 1894              	.LVL165:
 503:.\main.c      ****             if (side.a.activeHose == side.a.hose){                
 1895              		.loc 1 503 0
 1896 04de 0120     		movs	r0, #1
 1897 04e0 FFF7FEFF 		bl	PumpHoseActiveState
 1898              	.LVL166:
 1899 04e4 0146     		mov	r1, r0
 1900 04e6 1E4B     		ldr	r3, .L171+16
 1901 04e8 83F80001 		strb	r0, [r3, #256]
 504:.\main.c      ****                 if(PresetData(side.a.dir,side.a.activeHose,bufferDisplay1.presetValue[0],bufferDisp
 1902              		.loc 1 504 0
 1903 04ec 93F80131 		ldrb	r3, [r3, #257]	@ zero_extendqisi2
 1904 04f0 9842     		cmp	r0, r3
 1905 04f2 3DD1     		bne	.L118
 505:.\main.c      ****                     get_state(side.a.dir);
 1906              		.loc 1 505 0
 1907 04f4 184A     		ldr	r2, .L171+8
 1908 04f6 92F86330 		ldrb	r3, [r2, #99]	@ zero_extendqisi2
 1909 04fa 1948     		ldr	r0, .L171+16
 1910 04fc 0078     		ldrb	r0, [r0]	@ zero_extendqisi2
 1911 04fe 6532     		adds	r2, r2, #101
 1912 0500 03F00303 		and	r3, r3, #3
 1913 0504 FFF7FEFF 		bl	PresetData
 1914              	.LVL167:
 1915 0508 0128     		cmp	r0, #1
 1916 050a 12D1     		bne	.L119
 506:.\main.c      ****                     Pump_PutChar(0x10|side.a.dir);//Autoriza el surtidor
 1917              		.loc 1 506 0
 1918 050c 144C     		ldr	r4, .L171+16
 1919 050e 2078     		ldrb	r0, [r4]	@ zero_extendqisi2
 1920 0510 FFF7FEFF 		bl	get_state
 1921              	.LVL168:
 507:.\main.c      ****                     CyDelay(50);
 1922              		.loc 1 507 0
 1923 0514 2078     		ldrb	r0, [r4]	@ zero_extendqisi2
 1924 0516 40F01000 		orr	r0, r0, #16
 1925 051a FFF7FEFF 		bl	Pump_PutChar
ARM GAS  C:\Users\Diego\AppData\Local\Temp\cc9VkXHl.s 			page 56


 1926              	.LVL169:
 508:.\main.c      ****                     flowDisplay1 = 8;
 1927              		.loc 1 508 0
 1928 051e 3220     		movs	r0, #50
 1929 0520 FFF7FEFF 		bl	CyDelay
 1930              	.LVL170:
 509:.\main.c      ****                     SetPicture(1,DISPLAY_DESPACHANDO);
 1931              		.loc 1 509 0
 1932 0524 0821     		movs	r1, #8
 1933 0526 0B4B     		ldr	r3, .L171+4
 1934 0528 1960     		str	r1, [r3]
 510:.\main.c      ****                 }else{
 1935              		.loc 1 510 0
 1936 052a 0120     		movs	r0, #1
 1937 052c FFF7FEFF 		bl	SetPicture
 1938              	.LVL171:
 1939 0530 2EE0     		b	.L120
 1940              	.L119:
 512:.\main.c      ****                     SetPicture(1,DISPLAY_ERROR);
 1941              		.loc 1 512 0
 1942 0532 0021     		movs	r1, #0
 1943 0534 074B     		ldr	r3, .L171+4
 1944 0536 1960     		str	r1, [r3]
 513:.\main.c      ****                     CyDelay(200);
 1945              		.loc 1 513 0
 1946 0538 0120     		movs	r0, #1
 1947 053a FFF7FEFF 		bl	SetPicture
 1948              	.LVL172:
 514:.\main.c      ****                     SetPicture(1,DISPLAY_INICIO0);
 1949              		.loc 1 514 0
 1950 053e C820     		movs	r0, #200
 1951 0540 FFF7FEFF 		bl	CyDelay
 1952              	.LVL173:
 515:.\main.c      ****                 }
 1953              		.loc 1 515 0
 1954 0544 0120     		movs	r0, #1
 1955 0546 0146     		mov	r1, r0
 1956 0548 FFF7FEFF 		bl	SetPicture
 1957              	.LVL174:
 1958 054c 20E0     		b	.L120
 1959              	.L172:
 1960 054e 00BF     		.align	2
 1961              	.L171:
 1962 0550 00000000 		.word	digits
 1963 0554 00000000 		.word	flowDisplay1
 1964 0558 00000000 		.word	bufferDisplay1
 1965 055c 00000000 		.word	Display1_rxBuffer
 1966 0560 00000000 		.word	side
 1967 0564 00000000 		.word	numberKeys1
 1968 0568 00000000 		.word	count_protector
 1969 056c 00000000 		.word	animacion
 1970              	.L118:
 518:.\main.c      ****                 if(count_protector>=30){
 1971              		.loc 1 518 0
 1972 0570 0722     		movs	r2, #7
 1973 0572 B04B     		ldr	r3, .L173
 1974 0574 1A60     		str	r2, [r3]
ARM GAS  C:\Users\Diego\AppData\Local\Temp\cc9VkXHl.s 			page 57


 519:.\main.c      ****                     flowDisplay1 = 0;	
 1975              		.loc 1 519 0
 1976 0576 B04B     		ldr	r3, .L173+4
 1977 0578 1B78     		ldrb	r3, [r3]	@ zero_extendqisi2
 1978 057a 1D2B     		cmp	r3, #29
 1979 057c 08D9     		bls	.L120
 520:.\main.c      ****         			count_protector=0;
 1980              		.loc 1 520 0
 1981 057e 0023     		movs	r3, #0
 1982 0580 AC4A     		ldr	r2, .L173
 1983 0582 1360     		str	r3, [r2]
 521:.\main.c      ****                     SetPicture(1,DISPLAY_INICIO0);
 1984              		.loc 1 521 0
 1985 0584 AC4A     		ldr	r2, .L173+4
 1986 0586 1370     		strb	r3, [r2]
 522:.\main.c      ****         		 }
 1987              		.loc 1 522 0
 1988 0588 0120     		movs	r0, #1
 1989 058a 0146     		mov	r1, r0
 1990 058c FFF7FEFF 		bl	SetPicture
 1991              	.LVL175:
 1992              	.L120:
 525:.\main.c      ****                 if((Display1_rxBuffer[0]==0xAA) && (Display1_rxBuffer[6]==0xC3) && (Display1_rxBuff
 1993              		.loc 1 525 0
 1994 0590 FFF7FEFF 		bl	Display1_GetRxBufferSize
 1995              	.LVL176:
 1996 0594 0828     		cmp	r0, #8
 1997 0596 1DD1     		bne	.L121
 526:.\main.c      ****                     switch(Display1_rxBuffer[3]){                        
 1998              		.loc 1 526 0
 1999 0598 A84B     		ldr	r3, .L173+8
 2000 059a 1B78     		ldrb	r3, [r3]	@ zero_extendqisi2
 2001 059c DBB2     		uxtb	r3, r3
 2002 059e AA2B     		cmp	r3, #170
 2003 05a0 15D1     		bne	.L122
 526:.\main.c      ****                     switch(Display1_rxBuffer[3]){                        
 2004              		.loc 1 526 0 is_stmt 0 discriminator 1
 2005 05a2 A64B     		ldr	r3, .L173+8
 2006 05a4 9B79     		ldrb	r3, [r3, #6]	@ zero_extendqisi2
 2007 05a6 DBB2     		uxtb	r3, r3
 2008 05a8 C32B     		cmp	r3, #195
 2009 05aa 10D1     		bne	.L122
 526:.\main.c      ****                     switch(Display1_rxBuffer[3]){                        
 2010              		.loc 1 526 0 discriminator 2
 2011 05ac A34B     		ldr	r3, .L173+8
 2012 05ae DB79     		ldrb	r3, [r3, #7]	@ zero_extendqisi2
 2013 05b0 DBB2     		uxtb	r3, r3
 2014 05b2 3C2B     		cmp	r3, #60
 2015 05b4 0BD1     		bne	.L122
 527:.\main.c      ****                         case 0x7E:  //Pantalla Inicial                                             
 2016              		.loc 1 527 0 is_stmt 1
 2017 05b6 A14B     		ldr	r3, .L173+8
 2018 05b8 DB78     		ldrb	r3, [r3, #3]	@ zero_extendqisi2
 2019 05ba DBB2     		uxtb	r3, r3
 2020 05bc 7E2B     		cmp	r3, #126
 2021 05be 06D1     		bne	.L122
 529:.\main.c      ****                             flowDisplay1 = 0;
ARM GAS  C:\Users\Diego\AppData\Local\Temp\cc9VkXHl.s 			page 58


 2022              		.loc 1 529 0
 2023 05c0 0120     		movs	r0, #1
 2024 05c2 0146     		mov	r1, r0
 2025 05c4 FFF7FEFF 		bl	SetPicture
 2026              	.LVL177:
 530:.\main.c      ****                         break;
 2027              		.loc 1 530 0
 2028 05c8 0022     		movs	r2, #0
 2029 05ca 9A4B     		ldr	r3, .L173
 2030 05cc 1A60     		str	r2, [r3]
 2031              	.L122:
 534:.\main.c      ****             }
 2032              		.loc 1 534 0
 2033 05ce 0A20     		movs	r0, #10
 2034 05d0 FFF7FEFF 		bl	CyDelay
 2035              	.LVL178:
 2036              	.L121:
 536:.\main.c      ****         break;
 2037              		.loc 1 536 0
 2038 05d4 FFF7FEFF 		bl	Display1_ClearRxBuffer
 2039              	.LVL179:
 537:.\main.c      ****             
 2040              		.loc 1 537 0
 2041 05d8 91E1     		b	.L66
 2042              	.L77:
 540:.\main.c      ****                 case 0x0A: //reporte fin venta
 2043              		.loc 1 540 0
 2044 05da 994B     		ldr	r3, .L173+12
 2045 05dc 1878     		ldrb	r0, [r3]	@ zero_extendqisi2
 2046 05de FFF7FEFF 		bl	get_state
 2047              	.LVL180:
 2048 05e2 0A28     		cmp	r0, #10
 2049 05e4 05D0     		beq	.L124
 2050 05e6 0B28     		cmp	r0, #11
 2051 05e8 19D0     		beq	.L125
 2052 05ea 0628     		cmp	r0, #6
 2053 05ec 40F08781 		bne	.L66
 2054 05f0 2BE0     		b	.L126
 2055              	.L124:
 542:.\main.c      ****                     flowDisplay1 = 0;
 2056              		.loc 1 542 0
 2057 05f2 934B     		ldr	r3, .L173+12
 2058 05f4 1878     		ldrb	r0, [r3]	@ zero_extendqisi2
 2059 05f6 FFF7FEFF 		bl	getSale
 2060              	.LVL181:
 543:.\main.c      ****                     if(bufferDisplay1.flagPrint ==1){
 2061              		.loc 1 543 0
 2062 05fa 0022     		movs	r2, #0
 2063 05fc 8D4B     		ldr	r3, .L173
 2064 05fe 1A60     		str	r2, [r3]
 544:.\main.c      ****                         imprimir(1,side.a.dir);
 2065              		.loc 1 544 0
 2066 0600 904B     		ldr	r3, .L173+16
 2067 0602 93F87032 		ldrb	r3, [r3, #624]	@ zero_extendqisi2
 2068 0606 012B     		cmp	r3, #1
 2069 0608 04D1     		bne	.L127
 545:.\main.c      ****                     }
ARM GAS  C:\Users\Diego\AppData\Local\Temp\cc9VkXHl.s 			page 59


 2070              		.loc 1 545 0
 2071 060a 0120     		movs	r0, #1
 2072 060c 8C4B     		ldr	r3, .L173+12
 2073 060e 1978     		ldrb	r1, [r3]	@ zero_extendqisi2
 2074 0610 FFF7FEFF 		bl	imprimir
 2075              	.LVL182:
 2076              	.L127:
 547:.\main.c      ****                 break;
 2077              		.loc 1 547 0
 2078 0614 0120     		movs	r0, #1
 2079 0616 0146     		mov	r1, r0
 2080 0618 FFF7FEFF 		bl	SetPicture
 2081              	.LVL183:
 548:.\main.c      ****                 case 0x0B://Reporte de venta
 2082              		.loc 1 548 0
 2083 061c 6FE1     		b	.L66
 2084              	.L125:
 550:.\main.c      ****                     flowDisplay1 = 0;
 2085              		.loc 1 550 0
 2086 061e 884B     		ldr	r3, .L173+12
 2087 0620 1878     		ldrb	r0, [r3]	@ zero_extendqisi2
 2088 0622 FFF7FEFF 		bl	getSale
 2089              	.LVL184:
 551:.\main.c      ****                     if(bufferDisplay1.flagPrint ==1){
 2090              		.loc 1 551 0
 2091 0626 0022     		movs	r2, #0
 2092 0628 824B     		ldr	r3, .L173
 2093 062a 1A60     		str	r2, [r3]
 552:.\main.c      ****                         imprimir(1,side.a.dir);
 2094              		.loc 1 552 0
 2095 062c 854B     		ldr	r3, .L173+16
 2096 062e 93F87032 		ldrb	r3, [r3, #624]	@ zero_extendqisi2
 2097 0632 012B     		cmp	r3, #1
 2098 0634 04D1     		bne	.L128
 553:.\main.c      ****                     }
 2099              		.loc 1 553 0
 2100 0636 0120     		movs	r0, #1
 2101 0638 814B     		ldr	r3, .L173+12
 2102 063a 1978     		ldrb	r1, [r3]	@ zero_extendqisi2
 2103 063c FFF7FEFF 		bl	imprimir
 2104              	.LVL185:
 2105              	.L128:
 555:.\main.c      ****                 break;
 2106              		.loc 1 555 0
 2107 0640 0120     		movs	r0, #1
 2108 0642 0146     		mov	r1, r0
 2109 0644 FFF7FEFF 		bl	SetPicture
 2110              	.LVL186:
 556:.\main.c      ****                 case 0x06://Espera
 2111              		.loc 1 556 0
 2112 0648 59E1     		b	.L66
 2113              	.L126:
 558:.\main.c      ****                     SetPicture(1,DISPLAY_INICIO0);
 2114              		.loc 1 558 0
 2115 064a 0022     		movs	r2, #0
 2116 064c 794B     		ldr	r3, .L173
 2117 064e 1A60     		str	r2, [r3]
ARM GAS  C:\Users\Diego\AppData\Local\Temp\cc9VkXHl.s 			page 60


 559:.\main.c      ****                 break;
 2118              		.loc 1 559 0
 2119 0650 0120     		movs	r0, #1
 2120 0652 0146     		mov	r1, r0
 2121 0654 FFF7FEFF 		bl	SetPicture
 2122              	.LVL187:
 560:.\main.c      ****             }
 2123              		.loc 1 560 0
 2124 0658 51E1     		b	.L66
 2125              	.L78:
 566:.\main.c      ****                 case 0: //Cancelar
 2126              		.loc 1 566 0
 2127 065a 0120     		movs	r0, #1
 2128 065c 0A21     		movs	r1, #10
 2129 065e 0022     		movs	r2, #0
 2130 0660 FFF7FEFF 		bl	alphanumeric_keyboard
 2131              	.LVL188:
 2132 0664 10B1     		cbz	r0, .L129
 2133 0666 0128     		cmp	r0, #1
 2134 0668 37D0     		beq	.L130
 2135 066a 48E1     		b	.L66
 2136              	.L129:
 568:.\main.c      ****                         case 1://Placa
 2137              		.loc 1 568 0
 2138 066c 754B     		ldr	r3, .L173+16
 2139 066e 93F80031 		ldrb	r3, [r3, #256]	@ zero_extendqisi2
 2140 0672 022B     		cmp	r3, #2
 2141 0674 1FD0     		beq	.L162
 2142 0676 032B     		cmp	r3, #3
 2143 0678 29D0     		beq	.L163
 2144 067a 012B     		cmp	r3, #1
 2145 067c 2AD1     		bne	.L131
 2146 067e 07E0     		b	.L161
 2147              	.LVL189:
 2148              	.L135:
 571:.\main.c      ****                             }
 2149              		.loc 1 571 0 discriminator 3
 2150 0680 704A     		ldr	r2, .L173+16
 2151 0682 1A44     		add	r2, r2, r3
 2152 0684 0021     		movs	r1, #0
 2153 0686 82F8DF10 		strb	r1, [r2, #223]
 570:.\main.c      ****                                 bufferDisplay1.licenceSale[x]=0;
 2154              		.loc 1 570 0 discriminator 3
 2155 068a 0133     		adds	r3, r3, #1
 2156              	.LVL190:
 2157 068c DBB2     		uxtb	r3, r3
 2158              	.LVL191:
 2159 068e 00E0     		b	.L134
 2160              	.LVL192:
 2161              	.L161:
 568:.\main.c      ****                         case 1://Placa
 2162              		.loc 1 568 0
 2163 0690 0023     		movs	r3, #0
 2164              	.L134:
 2165              	.LVL193:
 570:.\main.c      ****                                 bufferDisplay1.licenceSale[x]=0;
 2166              		.loc 1 570 0 discriminator 1
ARM GAS  C:\Users\Diego\AppData\Local\Temp\cc9VkXHl.s 			page 61


 2167 0692 0A2B     		cmp	r3, #10
 2168 0694 F4D9     		bls	.L135
 573:.\main.c      ****                             SetPicture(1,DISPLAY_INICIO0);
 2169              		.loc 1 573 0
 2170 0696 0022     		movs	r2, #0
 2171 0698 664B     		ldr	r3, .L173
 2172              	.LVL194:
 2173 069a 1A60     		str	r2, [r3]
 574:.\main.c      ****                         break;
 2174              		.loc 1 574 0
 2175 069c 0120     		movs	r0, #1
 2176 069e 0146     		mov	r1, r0
 2177 06a0 FFF7FEFF 		bl	SetPicture
 2178              	.LVL195:
 575:.\main.c      ****                         
 2179              		.loc 1 575 0
 2180 06a4 16E0     		b	.L131
 2181              	.LVL196:
 2182              	.L136:
 579:.\main.c      ****                             }
 2183              		.loc 1 579 0 discriminator 3
 2184 06a6 674A     		ldr	r2, .L173+16
 2185 06a8 1A44     		add	r2, r2, r3
 2186 06aa 0021     		movs	r1, #0
 2187 06ac 82F8EA10 		strb	r1, [r2, #234]
 578:.\main.c      ****                                 bufferDisplay1.mileageSale[x]=0;
 2188              		.loc 1 578 0 discriminator 3
 2189 06b0 0133     		adds	r3, r3, #1
 2190              	.LVL197:
 2191 06b2 DBB2     		uxtb	r3, r3
 2192              	.LVL198:
 2193 06b4 00E0     		b	.L132
 2194              	.LVL199:
 2195              	.L162:
 568:.\main.c      ****                         case 1://Placa
 2196              		.loc 1 568 0
 2197 06b6 0023     		movs	r3, #0
 2198              	.L132:
 2199              	.LVL200:
 578:.\main.c      ****                                 bufferDisplay1.mileageSale[x]=0;
 2200              		.loc 1 578 0 discriminator 1
 2201 06b8 0A2B     		cmp	r3, #10
 2202 06ba F4D9     		bls	.L136
 2203 06bc 0AE0     		b	.L131
 2204              	.L137:
 585:.\main.c      ****                             }
 2205              		.loc 1 585 0 discriminator 3
 2206 06be 614A     		ldr	r2, .L173+16
 2207 06c0 1A44     		add	r2, r2, r3
 2208 06c2 0021     		movs	r1, #0
 2209 06c4 82F8F510 		strb	r1, [r2, #245]
 584:.\main.c      ****                                 bufferDisplay1.identySale[x]=0;
 2210              		.loc 1 584 0 discriminator 3
 2211 06c8 0133     		adds	r3, r3, #1
 2212              	.LVL201:
 2213 06ca DBB2     		uxtb	r3, r3
 2214              	.LVL202:
ARM GAS  C:\Users\Diego\AppData\Local\Temp\cc9VkXHl.s 			page 62


 2215 06cc 00E0     		b	.L133
 2216              	.LVL203:
 2217              	.L163:
 568:.\main.c      ****                         case 1://Placa
 2218              		.loc 1 568 0
 2219 06ce 0023     		movs	r3, #0
 2220              	.L133:
 2221              	.LVL204:
 584:.\main.c      ****                                 bufferDisplay1.identySale[x]=0;
 2222              		.loc 1 584 0 discriminator 1
 2223 06d0 0A2B     		cmp	r3, #10
 2224 06d2 F4D9     		bls	.L137
 2225              	.LVL205:
 2226              	.L131:
 589:.\main.c      ****                 break;
 2227              		.loc 1 589 0
 2228 06d4 FFF7FEFF 		bl	Display1_ClearRxBuffer
 2229              	.LVL206:
 590:.\main.c      ****                     
 2230              		.loc 1 590 0
 2231 06d8 11E1     		b	.L66
 2232              	.L130:
 593:.\main.c      ****                         case 1://Placa
 2233              		.loc 1 593 0
 2234 06da 5A4B     		ldr	r3, .L173+16
 2235 06dc 93F80031 		ldrb	r3, [r3, #256]	@ zero_extendqisi2
 2236 06e0 022B     		cmp	r3, #2
 2237 06e2 23D0     		beq	.L165
 2238 06e4 032B     		cmp	r3, #3
 2239 06e6 37D0     		beq	.L166
 2240 06e8 012B     		cmp	r3, #1
 2241 06ea 3BD1     		bne	.L138
 2242 06ec 08E0     		b	.L164
 2243              	.LVL207:
 2244              	.L142:
 596:.\main.c      ****                             }
 2245              		.loc 1 596 0 discriminator 3
 2246 06ee 554A     		ldr	r2, .L173+16
 2247 06f0 1A44     		add	r2, r2, r3
 2248 06f2 92F84B10 		ldrb	r1, [r2, #75]	@ zero_extendqisi2
 2249 06f6 82F8DF10 		strb	r1, [r2, #223]
 595:.\main.c      ****                                 bufferDisplay1.licenceSale[x]=bufferDisplay1.valueKeys[x];
 2250              		.loc 1 595 0 discriminator 3
 2251 06fa 0133     		adds	r3, r3, #1
 2252              	.LVL208:
 2253 06fc DBB2     		uxtb	r3, r3
 2254              	.LVL209:
 2255 06fe 00E0     		b	.L141
 2256              	.LVL210:
 2257              	.L164:
 593:.\main.c      ****                         case 1://Placa
 2258              		.loc 1 593 0
 2259 0700 0023     		movs	r3, #0
 2260              	.L141:
 2261              	.LVL211:
 595:.\main.c      ****                                 bufferDisplay1.licenceSale[x]=bufferDisplay1.valueKeys[x];
 2262              		.loc 1 595 0 discriminator 1
ARM GAS  C:\Users\Diego\AppData\Local\Temp\cc9VkXHl.s 			page 63


 2263 0702 504A     		ldr	r2, .L173+16
 2264 0704 92F84B20 		ldrb	r2, [r2, #75]	@ zero_extendqisi2
 2265 0708 9A42     		cmp	r2, r3
 2266 070a F0D2     		bcs	.L142
 598:.\main.c      ****                             SetPicture(1,DISPLAY_SUBA_MANIJA);
 2267              		.loc 1 598 0
 2268 070c 0721     		movs	r1, #7
 2269 070e 494B     		ldr	r3, .L173
 2270              	.LVL212:
 2271 0710 1960     		str	r1, [r3]
 599:.\main.c      ****                         break;
 2272              		.loc 1 599 0
 2273 0712 0120     		movs	r0, #1
 2274 0714 FFF7FEFF 		bl	SetPicture
 2275              	.LVL213:
 600:.\main.c      ****                         
 2276              		.loc 1 600 0
 2277 0718 24E0     		b	.L138
 2278              	.LVL214:
 2279              	.L143:
 604:.\main.c      ****                             }
 2280              		.loc 1 604 0 discriminator 3
 2281 071a 4A4A     		ldr	r2, .L173+16
 2282 071c 1A44     		add	r2, r2, r3
 2283 071e 92F84B10 		ldrb	r1, [r2, #75]	@ zero_extendqisi2
 2284 0722 82F8EA10 		strb	r1, [r2, #234]
 603:.\main.c      ****                                 bufferDisplay1.mileageSale[x]=bufferDisplay1.valueKeys[x];
 2285              		.loc 1 603 0 discriminator 3
 2286 0726 0133     		adds	r3, r3, #1
 2287              	.LVL215:
 2288 0728 DBB2     		uxtb	r3, r3
 2289              	.LVL216:
 2290 072a 00E0     		b	.L139
 2291              	.LVL217:
 2292              	.L165:
 593:.\main.c      ****                         case 1://Placa
 2293              		.loc 1 593 0
 2294 072c 0023     		movs	r3, #0
 2295              	.L139:
 2296              	.LVL218:
 603:.\main.c      ****                                 bufferDisplay1.mileageSale[x]=bufferDisplay1.valueKeys[x];
 2297              		.loc 1 603 0 discriminator 1
 2298 072e 454A     		ldr	r2, .L173+16
 2299 0730 92F84B20 		ldrb	r2, [r2, #75]	@ zero_extendqisi2
 2300 0734 9A42     		cmp	r2, r3
 2301 0736 F0D2     		bcs	.L143
 606:.\main.c      ****                             SetPicture(1,DISPLAY_SUBA_MANIJA);
 2302              		.loc 1 606 0
 2303 0738 0721     		movs	r1, #7
 2304 073a 3E4B     		ldr	r3, .L173
 2305              	.LVL219:
 2306 073c 1960     		str	r1, [r3]
 607:.\main.c      ****                         break;
 2307              		.loc 1 607 0
 2308 073e 0120     		movs	r0, #1
 2309 0740 FFF7FEFF 		bl	SetPicture
 2310              	.LVL220:
ARM GAS  C:\Users\Diego\AppData\Local\Temp\cc9VkXHl.s 			page 64


 608:.\main.c      ****                         
 2311              		.loc 1 608 0
 2312 0744 0EE0     		b	.L138
 2313              	.LVL221:
 2314              	.L144:
 612:.\main.c      ****                             }
 2315              		.loc 1 612 0 discriminator 3
 2316 0746 3F4A     		ldr	r2, .L173+16
 2317 0748 1A44     		add	r2, r2, r3
 2318 074a 92F84B10 		ldrb	r1, [r2, #75]	@ zero_extendqisi2
 2319 074e 82F8F510 		strb	r1, [r2, #245]
 611:.\main.c      ****                                 bufferDisplay1.identySale[x]=bufferDisplay1.valueKeys[x];
 2320              		.loc 1 611 0 discriminator 3
 2321 0752 0133     		adds	r3, r3, #1
 2322              	.LVL222:
 2323 0754 DBB2     		uxtb	r3, r3
 2324              	.LVL223:
 2325 0756 00E0     		b	.L140
 2326              	.LVL224:
 2327              	.L166:
 593:.\main.c      ****                         case 1://Placa
 2328              		.loc 1 593 0
 2329 0758 0023     		movs	r3, #0
 2330              	.L140:
 2331              	.LVL225:
 611:.\main.c      ****                                 bufferDisplay1.identySale[x]=bufferDisplay1.valueKeys[x];
 2332              		.loc 1 611 0 discriminator 1
 2333 075a 3A4A     		ldr	r2, .L173+16
 2334 075c 92F84B20 		ldrb	r2, [r2, #75]	@ zero_extendqisi2
 2335 0760 9A42     		cmp	r2, r3
 2336 0762 F0D2     		bcs	.L144
 2337              	.LVL226:
 2338              	.L138:
 616:.\main.c      ****                 break;
 2339              		.loc 1 616 0
 2340 0764 FFF7FEFF 		bl	Display1_ClearRxBuffer
 2341              	.LVL227:
 617:.\main.c      ****             }            
 2342              		.loc 1 617 0
 2343 0768 C9E0     		b	.L66
 2344              	.L79:
 622:.\main.c      ****                 if((Display1_rxBuffer[0]==0xAA) && (Display1_rxBuffer[6]==0xC3) && (Display1_rxBuff
 2345              		.loc 1 622 0
 2346 076a FFF7FEFF 		bl	Display1_GetRxBufferSize
 2347              	.LVL228:
 2348 076e 0828     		cmp	r0, #8
 2349 0770 40F0C580 		bne	.L66
 623:.\main.c      ****                     switch(Display1_rxBuffer[3]){
 2350              		.loc 1 623 0
 2351 0774 314B     		ldr	r3, .L173+8
 2352 0776 1B78     		ldrb	r3, [r3]	@ zero_extendqisi2
 2353 0778 DBB2     		uxtb	r3, r3
 2354 077a AA2B     		cmp	r3, #170
 2355 077c 37D1     		bne	.L145
 623:.\main.c      ****                     switch(Display1_rxBuffer[3]){
 2356              		.loc 1 623 0 is_stmt 0 discriminator 1
 2357 077e 2F4B     		ldr	r3, .L173+8
ARM GAS  C:\Users\Diego\AppData\Local\Temp\cc9VkXHl.s 			page 65


 2358 0780 9B79     		ldrb	r3, [r3, #6]	@ zero_extendqisi2
 2359 0782 DBB2     		uxtb	r3, r3
 2360 0784 C32B     		cmp	r3, #195
 2361 0786 32D1     		bne	.L145
 623:.\main.c      ****                     switch(Display1_rxBuffer[3]){
 2362              		.loc 1 623 0 discriminator 2
 2363 0788 2C4B     		ldr	r3, .L173+8
 2364 078a DB79     		ldrb	r3, [r3, #7]	@ zero_extendqisi2
 2365 078c DBB2     		uxtb	r3, r3
 2366 078e 3C2B     		cmp	r3, #60
 2367 0790 2DD1     		bne	.L145
 624:.\main.c      ****                         case 0xB6:  //Solicitud ibutton  
 2368              		.loc 1 624 0 is_stmt 1
 2369 0792 2A4B     		ldr	r3, .L173+8
 2370 0794 DB78     		ldrb	r3, [r3, #3]	@ zero_extendqisi2
 2371 0796 DBB2     		uxtb	r3, r3
 2372 0798 B62B     		cmp	r3, #182
 2373 079a 04D0     		beq	.L146
 2374 079c B72B     		cmp	r3, #183
 2375 079e 12D0     		beq	.L147
 2376 07a0 7E2B     		cmp	r3, #126
 2377 07a2 24D1     		bne	.L145
 2378 07a4 1CE0     		b	.L148
 2379              	.L146:
 626:.\main.c      ****                             numberKeys1 = 0;
 2380              		.loc 1 626 0
 2381 07a6 0B22     		movs	r2, #11
 2382 07a8 224B     		ldr	r3, .L173
 2383 07aa 1A60     		str	r2, [r3]
 627:.\main.c      ****                             bufferDisplay1.flagKeyboard = 1;
 2384              		.loc 1 627 0
 2385 07ac 0022     		movs	r2, #0
 2386 07ae 264B     		ldr	r3, .L173+20
 2387 07b0 1A70     		strb	r2, [r3]
 628:.\main.c      ****                             bufferDisplay1.flagPrint =  1;
 2388              		.loc 1 628 0
 2389 07b2 244B     		ldr	r3, .L173+16
 2390 07b4 0120     		movs	r0, #1
 2391 07b6 83F80001 		strb	r0, [r3, #256]
 629:.\main.c      ****                             SetPicture(1,DISPLAY_ESPERANDO_ID);                            
 2392              		.loc 1 629 0
 2393 07ba 83F87002 		strb	r0, [r3, #624]
 630:.\main.c      ****                         break; 
 2394              		.loc 1 630 0
 2395 07be 1221     		movs	r1, #18
 2396 07c0 FFF7FEFF 		bl	SetPicture
 2397              	.LVL229:
 631:.\main.c      ****                         case 0xB7:  //ID por número
 2398              		.loc 1 631 0
 2399 07c4 13E0     		b	.L145
 2400              	.L147:
 633:.\main.c      ****                             flowDisplay1 = 7;//Esperando estado del dispensador  
 2401              		.loc 1 633 0
 2402 07c6 0023     		movs	r3, #0
 2403 07c8 1E4A     		ldr	r2, .L173+16
 2404 07ca 82F80031 		strb	r3, [r2, #256]
 634:.\main.c      ****                             count_protector=0;
ARM GAS  C:\Users\Diego\AppData\Local\Temp\cc9VkXHl.s 			page 66


 2405              		.loc 1 634 0
 2406 07ce 0721     		movs	r1, #7
 2407 07d0 184A     		ldr	r2, .L173
 2408 07d2 1160     		str	r1, [r2]
 635:.\main.c      ****                             SetPicture(1,DISPLAY_SUBA_MANIJA);                            
 2409              		.loc 1 635 0
 2410 07d4 184A     		ldr	r2, .L173+4
 2411 07d6 1370     		strb	r3, [r2]
 636:.\main.c      ****                         break;
 2412              		.loc 1 636 0
 2413 07d8 0120     		movs	r0, #1
 2414 07da FFF7FEFF 		bl	SetPicture
 2415              	.LVL230:
 637:.\main.c      ****                         case 0x7E:  //Pantalla Inicial                                             
 2416              		.loc 1 637 0
 2417 07de 06E0     		b	.L145
 2418              	.L148:
 639:.\main.c      ****                             flowDisplay1 = 0;
 2419              		.loc 1 639 0
 2420 07e0 0120     		movs	r0, #1
 2421 07e2 0146     		mov	r1, r0
 2422 07e4 FFF7FEFF 		bl	SetPicture
 2423              	.LVL231:
 640:.\main.c      ****                         break;
 2424              		.loc 1 640 0
 2425 07e8 0022     		movs	r2, #0
 2426 07ea 124B     		ldr	r3, .L173
 2427 07ec 1A60     		str	r2, [r3]
 2428              	.L145:
 644:.\main.c      ****                 Display1_ClearRxBuffer();
 2429              		.loc 1 644 0
 2430 07ee 0A20     		movs	r0, #10
 2431 07f0 FFF7FEFF 		bl	CyDelay
 2432              	.LVL232:
 645:.\main.c      ****             }                        
 2433              		.loc 1 645 0
 2434 07f4 FFF7FEFF 		bl	Display1_ClearRxBuffer
 2435              	.LVL233:
 2436 07f8 81E0     		b	.L66
 2437              	.L80:
 650:.\main.c      ****             Timer_Animacion_Start();
 2438              		.loc 1 650 0
 2439 07fa 1448     		ldr	r0, .L173+24
 2440 07fc FFF7FEFF 		bl	isr_3_StartEx
 2441              	.LVL234:
 651:.\main.c      ****             if(touch_present(1)==1){
 2442              		.loc 1 651 0
 2443 0800 FFF7FEFF 		bl	Timer_Animacion_Start
 2444              	.LVL235:
 652:.\main.c      **** 				if(touch_write(1,0x33)){
 2445              		.loc 1 652 0
 2446 0804 0120     		movs	r0, #1
 2447 0806 FFF7FEFF 		bl	touch_present
 2448              	.LVL236:
 2449 080a 0128     		cmp	r0, #1
 2450 080c 6AD1     		bne	.L149
 653:.\main.c      **** 					for(x=1;x<=8;x++){
ARM GAS  C:\Users\Diego\AppData\Local\Temp\cc9VkXHl.s 			page 67


 2451              		.loc 1 653 0
 2452 080e 3321     		movs	r1, #51
 2453 0810 FFF7FEFF 		bl	touch_write
 2454              	.LVL237:
 2455 0814 40B9     		cbnz	r0, .L167
 2456 0816 65E0     		b	.L149
 2457              	.LVL238:
 2458              	.L151:
 655:.\main.c      **** 					}
 2459              		.loc 1 655 0 discriminator 3
 2460 0818 0120     		movs	r0, #1
 2461 081a FFF7FEFF 		bl	touch_read_byte
 2462              	.LVL239:
 2463 081e 0C4B     		ldr	r3, .L173+28
 2464 0820 1855     		strb	r0, [r3, r4]
 654:.\main.c      **** 						temporal[x]=touch_read_byte(1);
 2465              		.loc 1 654 0 discriminator 3
 2466 0822 0134     		adds	r4, r4, #1
 2467              	.LVL240:
 2468 0824 E4B2     		uxtb	r4, r4
 2469              	.LVL241:
 2470 0826 00E0     		b	.L150
 2471              	.LVL242:
 2472              	.L167:
 2473 0828 0124     		movs	r4, #1
 2474              	.L150:
 2475              	.LVL243:
 654:.\main.c      **** 						temporal[x]=touch_read_byte(1);
 2476              		.loc 1 654 0 is_stmt 0 discriminator 1
 2477 082a 082C     		cmp	r4, #8
 2478 082c F4D9     		bls	.L151
 2479 082e 0020     		movs	r0, #0
 2480 0830 0124     		movs	r4, #1
 2481              	.LVL244:
 2482 0832 15E0     		b	.L152
 2483              	.L174:
 2484              		.align	2
 2485              	.L173:
 2486 0834 00000000 		.word	flowDisplay1
 2487 0838 00000000 		.word	count_protector
 2488 083c 00000000 		.word	Display1_rxBuffer
 2489 0840 00000000 		.word	side
 2490 0844 00000000 		.word	bufferDisplay1
 2491 0848 00000000 		.word	numberKeys1
 2492 084c 00000000 		.word	animacion
 2493 0850 00000000 		.word	temporal
 2494              	.LVL245:
 2495              	.L153:
 659:.\main.c      ****                     }
 2496              		.loc 1 659 0 is_stmt 1 discriminator 3
 2497 0854 2B4B     		ldr	r3, .L175
 2498 0856 195D     		ldrb	r1, [r3, r4]	@ zero_extendqisi2
 2499 0858 FFF7FEFF 		bl	crc_check
 2500              	.LVL246:
 658:.\main.c      ****                         y=crc_check(y,temporal[x]);
 2501              		.loc 1 658 0 discriminator 3
 2502 085c 0134     		adds	r4, r4, #1
ARM GAS  C:\Users\Diego\AppData\Local\Temp\cc9VkXHl.s 			page 68


 2503              	.LVL247:
 2504 085e E4B2     		uxtb	r4, r4
 2505              	.LVL248:
 2506              	.L152:
 658:.\main.c      ****                         y=crc_check(y,temporal[x]);
 2507              		.loc 1 658 0 is_stmt 0 discriminator 1
 2508 0860 072C     		cmp	r4, #7
 2509 0862 F7D9     		bls	.L153
 661:.\main.c      **** 						bufferDisplay1.idSerial[0]=16;
 2510              		.loc 1 661 0 is_stmt 1
 2511 0864 274B     		ldr	r3, .L175
 2512 0866 1B7A     		ldrb	r3, [r3, #8]	@ zero_extendqisi2
 2513 0868 8342     		cmp	r3, r0
 2514 086a 3BD1     		bne	.L149
 662:.\main.c      **** 						y=16;
 2515              		.loc 1 662 0
 2516 086c 1023     		movs	r3, #16
 2517 086e 264A     		ldr	r2, .L175+4
 2518 0870 5370     		strb	r3, [r2, #1]
 2519              	.LVL249:
 664:.\main.c      **** 							if((temporal[x]&0x0F)>=10){
 2520              		.loc 1 664 0
 2521 0872 0121     		movs	r1, #1
 2522 0874 20E0     		b	.L154
 2523              	.LVL250:
 2524              	.L159:
 665:.\main.c      **** 								bufferDisplay1.idSerial[y]=(temporal[x]&0x0F)+55;
 2525              		.loc 1 665 0
 2526 0876 234A     		ldr	r2, .L175
 2527 0878 525C     		ldrb	r2, [r2, r1]	@ zero_extendqisi2
 2528 087a 02F00F00 		and	r0, r2, #15
 2529 087e 0928     		cmp	r0, #9
 2530 0880 04DD     		ble	.L155
 666:.\main.c      **** 							}else{
 2531              		.loc 1 666 0
 2532 0882 214C     		ldr	r4, .L175+4
 2533 0884 1C44     		add	r4, r4, r3
 2534 0886 3730     		adds	r0, r0, #55
 2535 0888 6070     		strb	r0, [r4, #1]
 2536 088a 03E0     		b	.L156
 2537              	.L155:
 668:.\main.c      **** 							}
 2538              		.loc 1 668 0
 2539 088c 1E4C     		ldr	r4, .L175+4
 2540 088e 1C44     		add	r4, r4, r3
 2541 0890 3030     		adds	r0, r0, #48
 2542 0892 6070     		strb	r0, [r4, #1]
 2543              	.L156:
 670:.\main.c      **** 							if(((temporal[x]>>4)&0x0F)>=10){
 2544              		.loc 1 670 0
 2545 0894 013B     		subs	r3, r3, #1
 2546              	.LVL251:
 2547 0896 DBB2     		uxtb	r3, r3
 2548              	.LVL252:
 671:.\main.c      **** 								bufferDisplay1.idSerial[y]=((temporal[x]>>4)&0x0F)+55;
 2549              		.loc 1 671 0
 2550 0898 1209     		lsrs	r2, r2, #4
ARM GAS  C:\Users\Diego\AppData\Local\Temp\cc9VkXHl.s 			page 69


 2551 089a 092A     		cmp	r2, #9
 2552 089c 04DD     		ble	.L157
 672:.\main.c      **** 							}else{
 2553              		.loc 1 672 0
 2554 089e 1A48     		ldr	r0, .L175+4
 2555 08a0 1844     		add	r0, r0, r3
 2556 08a2 3732     		adds	r2, r2, #55
 2557 08a4 4270     		strb	r2, [r0, #1]
 2558 08a6 03E0     		b	.L158
 2559              	.L157:
 674:.\main.c      **** 							}
 2560              		.loc 1 674 0
 2561 08a8 1748     		ldr	r0, .L175+4
 2562 08aa 1844     		add	r0, r0, r3
 2563 08ac 3032     		adds	r2, r2, #48
 2564 08ae 4270     		strb	r2, [r0, #1]
 2565              	.L158:
 676:.\main.c      **** 						}                        
 2566              		.loc 1 676 0 discriminator 2
 2567 08b0 013B     		subs	r3, r3, #1
 2568              	.LVL253:
 2569 08b2 DBB2     		uxtb	r3, r3
 2570              	.LVL254:
 664:.\main.c      **** 							if((temporal[x]&0x0F)>=10){
 2571              		.loc 1 664 0 discriminator 2
 2572 08b4 0131     		adds	r1, r1, #1
 2573              	.LVL255:
 2574 08b6 C9B2     		uxtb	r1, r1
 2575              	.LVL256:
 2576              	.L154:
 664:.\main.c      **** 							if((temporal[x]&0x0F)>=10){
 2577              		.loc 1 664 0 is_stmt 0 discriminator 1
 2578 08b8 0829     		cmp	r1, #8
 2579 08ba DCD9     		bls	.L159
 678:.\main.c      ****                         Display1_ClearRxBuffer();
 2580              		.loc 1 678 0 is_stmt 1
 2581 08bc 0120     		movs	r0, #1
 2582 08be 1321     		movs	r1, #19
 2583              	.LVL257:
 2584 08c0 FFF7FEFF 		bl	SetPicture
 2585              	.LVL258:
 679:.\main.c      ****                         CyDelay(700);
 2586              		.loc 1 679 0
 2587 08c4 FFF7FEFF 		bl	Display1_ClearRxBuffer
 2588              	.LVL259:
 680:.\main.c      ****                         bufferDisplay1.flagKeyboard = 1;
 2589              		.loc 1 680 0
 2590 08c8 4FF42F70 		mov	r0, #700
 2591 08cc FFF7FEFF 		bl	CyDelay
 2592              	.LVL260:
 681:.\main.c      ****                         flowDisplay1 = 9;
 2593              		.loc 1 681 0
 2594 08d0 0120     		movs	r0, #1
 2595 08d2 0D4B     		ldr	r3, .L175+4
 2596 08d4 83F80001 		strb	r0, [r3, #256]
 682:.\main.c      ****                         SetPicture(1,DISPLAY_INTRODUZCA_KILOMETRAJE);
 2597              		.loc 1 682 0
ARM GAS  C:\Users\Diego\AppData\Local\Temp\cc9VkXHl.s 			page 70


 2598 08d8 0922     		movs	r2, #9
 2599 08da 0C4B     		ldr	r3, .L175+8
 2600 08dc 1A60     		str	r2, [r3]
 683:.\main.c      ****                         
 2601              		.loc 1 683 0
 2602 08de 0E21     		movs	r1, #14
 2603 08e0 FFF7FEFF 		bl	SetPicture
 2604              	.LVL261:
 2605              	.L149:
 688:.\main.c      ****                 flowDisplay1 = 0;	
 2606              		.loc 1 688 0
 2607 08e4 0A4B     		ldr	r3, .L175+12
 2608 08e6 1B78     		ldrb	r3, [r3]	@ zero_extendqisi2
 2609 08e8 3B2B     		cmp	r3, #59
 2610 08ea 08D9     		bls	.L66
 689:.\main.c      ****     			count_protector=0;
 2611              		.loc 1 689 0
 2612 08ec 0023     		movs	r3, #0
 2613 08ee 074A     		ldr	r2, .L175+8
 2614 08f0 1360     		str	r3, [r2]
 690:.\main.c      ****                 SetPicture(1,DISPLAY_INICIO0);
 2615              		.loc 1 690 0
 2616 08f2 074A     		ldr	r2, .L175+12
 2617 08f4 1370     		strb	r3, [r2]
 691:.\main.c      ****     		}
 2618              		.loc 1 691 0
 2619 08f6 0120     		movs	r0, #1
 2620 08f8 0146     		mov	r1, r0
 2621 08fa FFF7FEFF 		bl	SetPicture
 2622              	.LVL262:
 2623              	.L66:
 697:.\main.c      **** 
 2624              		.loc 1 697 0
 2625 08fe 04B0     		add	sp, sp, #16
 2626              		.cfi_def_cfa_offset 16
 2627              		@ sp needed
 2628 0900 70BD     		pop	{r4, r5, r6, pc}
 2629              	.L176:
 2630 0902 00BF     		.align	2
 2631              	.L175:
 2632 0904 00000000 		.word	temporal
 2633 0908 00000000 		.word	bufferDisplay1
 2634 090c 00000000 		.word	flowDisplay1
 2635 0910 00000000 		.word	count_protector
 2636              		.cfi_endproc
 2637              	.LFE70:
 2638              		.size	PollingDisplay1, .-PollingDisplay1
 2639              		.section	.text.PollingDisplay2,"ax",%progbits
 2640              		.align	2
 2641              		.global	PollingDisplay2
 2642              		.thumb
 2643              		.thumb_func
 2644              		.type	PollingDisplay2, %function
 2645              	PollingDisplay2:
 2646              	.LFB71:
 710:.\main.c      ****     switch(flowDisplay2){
 2647              		.loc 1 710 0
ARM GAS  C:\Users\Diego\AppData\Local\Temp\cc9VkXHl.s 			page 71


 2648              		.cfi_startproc
 2649              		@ args = 0, pretend = 0, frame = 0
 2650              		@ frame_needed = 0, uses_anonymous_args = 0
 2651 0000 08B5     		push	{r3, lr}
 2652              		.cfi_def_cfa_offset 8
 2653              		.cfi_offset 3, -8
 2654              		.cfi_offset 14, -4
 711:.\main.c      ****         case 0:
 2655              		.loc 1 711 0
 2656 0002 A94B     		ldr	r3, .L216
 2657 0004 1B68     		ldr	r3, [r3]
 2658 0006 062B     		cmp	r3, #6
 2659 0008 00F28B81 		bhi	.L177
 2660 000c DFE813F0 		tbh	[pc, r3, lsl #1]
 2661              	.L180:
 2662 0010 0700     		.2byte	(.L179-.L180)/2
 2663 0012 0D00     		.2byte	(.L181-.L180)/2
 2664 0014 4100     		.2byte	(.L182-.L180)/2
 2665 0016 9200     		.2byte	(.L183-.L180)/2
 2666 0018 ED00     		.2byte	(.L184-.L180)/2
 2667 001a 1D01     		.2byte	(.L185-.L180)/2
 2668 001c 5001     		.2byte	(.L186-.L180)/2
 2669              		.p2align 1
 2670              	.L179:
 713:.\main.c      ****             flowDisplay2 =1;
 2671              		.loc 1 713 0
 2672 001e FFF7FEFF 		bl	InitDisplay2
 2673              	.LVL263:
 714:.\main.c      ****         break;
 2674              		.loc 1 714 0
 2675 0022 0122     		movs	r2, #1
 2676 0024 A04B     		ldr	r3, .L216
 2677 0026 1A60     		str	r2, [r3]
 715:.\main.c      ****         case 1: //Menu
 2678              		.loc 1 715 0
 2679 0028 08BD     		pop	{r3, pc}
 2680              	.L181:
 717:.\main.c      ****             if(Display2_GetRxBufferSize()==8){
 2681              		.loc 1 717 0
 2682 002a 0220     		movs	r0, #2
 2683 002c 2321     		movs	r1, #35
 2684 002e FFF7FEFF 		bl	ShowRectangle
 2685              	.LVL264:
 718:.\main.c      ****                 if((Display2_rxBuffer[0]==0xAA) && (Display2_rxBuffer[6]==0xC3) && (Display2_rxBuff
 2686              		.loc 1 718 0
 2687 0032 FFF7FEFF 		bl	Display2_GetRxBufferSize
 2688              	.LVL265:
 2689 0036 0828     		cmp	r0, #8
 2690 0038 40F07381 		bne	.L177
 719:.\main.c      ****                     switch(Display2_rxBuffer[3]){
 2691              		.loc 1 719 0
 2692 003c 9B4B     		ldr	r3, .L216+4
 2693 003e 1B78     		ldrb	r3, [r3]	@ zero_extendqisi2
 2694 0040 DBB2     		uxtb	r3, r3
 2695 0042 AA2B     		cmp	r3, #170
 2696 0044 1FD1     		bne	.L187
 719:.\main.c      ****                     switch(Display2_rxBuffer[3]){
ARM GAS  C:\Users\Diego\AppData\Local\Temp\cc9VkXHl.s 			page 72


 2697              		.loc 1 719 0 is_stmt 0 discriminator 1
 2698 0046 994B     		ldr	r3, .L216+4
 2699 0048 9B79     		ldrb	r3, [r3, #6]	@ zero_extendqisi2
 2700 004a DBB2     		uxtb	r3, r3
 2701 004c C32B     		cmp	r3, #195
 2702 004e 1AD1     		bne	.L187
 719:.\main.c      ****                     switch(Display2_rxBuffer[3]){
 2703              		.loc 1 719 0 discriminator 2
 2704 0050 964B     		ldr	r3, .L216+4
 2705 0052 DB79     		ldrb	r3, [r3, #7]	@ zero_extendqisi2
 2706 0054 DBB2     		uxtb	r3, r3
 2707 0056 3C2B     		cmp	r3, #60
 2708 0058 15D1     		bne	.L187
 720:.\main.c      ****                         case 0x3A:  //Pantalla forma de pago
 2709              		.loc 1 720 0 is_stmt 1
 2710 005a 944B     		ldr	r3, .L216+4
 2711 005c DB78     		ldrb	r3, [r3, #3]	@ zero_extendqisi2
 2712 005e DBB2     		uxtb	r3, r3
 2713 0060 3A2B     		cmp	r3, #58
 2714 0062 02D0     		beq	.L188
 2715 0064 7E2B     		cmp	r3, #126
 2716 0066 07D0     		beq	.L189
 2717 0068 0DE0     		b	.L187
 2718              	.L188:
 722:.\main.c      ****                             SetPicture(2,DISPLAY_FORMA_PAGO_DESEADA);                            
 2719              		.loc 1 722 0
 2720 006a 0220     		movs	r0, #2
 2721 006c 8E4B     		ldr	r3, .L216
 2722 006e 1860     		str	r0, [r3]
 723:.\main.c      ****                         break;   
 2723              		.loc 1 723 0
 2724 0070 0421     		movs	r1, #4
 2725 0072 FFF7FEFF 		bl	SetPicture
 2726              	.LVL266:
 724:.\main.c      ****                         case 0x7E:  //Pantalla Inicial                                             
 2727              		.loc 1 724 0
 2728 0076 06E0     		b	.L187
 2729              	.L189:
 726:.\main.c      ****                             flowDisplay2 = 0;
 2730              		.loc 1 726 0
 2731 0078 0220     		movs	r0, #2
 2732 007a 0121     		movs	r1, #1
 2733 007c FFF7FEFF 		bl	SetPicture
 2734              	.LVL267:
 727:.\main.c      ****                         break;
 2735              		.loc 1 727 0
 2736 0080 0022     		movs	r2, #0
 2737 0082 894B     		ldr	r3, .L216
 2738 0084 1A60     		str	r2, [r3]
 2739              	.L187:
 731:.\main.c      ****                 Display2_ClearRxBuffer();
 2740              		.loc 1 731 0
 2741 0086 0A20     		movs	r0, #10
 2742 0088 FFF7FEFF 		bl	CyDelay
 2743              	.LVL268:
 732:.\main.c      ****             }
 2744              		.loc 1 732 0
ARM GAS  C:\Users\Diego\AppData\Local\Temp\cc9VkXHl.s 			page 73


 2745 008c FFF7FEFF 		bl	Display2_ClearRxBuffer
 2746              	.LVL269:
 2747 0090 08BD     		pop	{r3, pc}
 2748              	.L182:
 736:.\main.c      ****                 if((Display2_rxBuffer[0]==0xAA) && (Display2_rxBuffer[6]==0xC3) && (Display2_rxBuff
 2749              		.loc 1 736 0
 2750 0092 FFF7FEFF 		bl	Display2_GetRxBufferSize
 2751              	.LVL270:
 2752 0096 0828     		cmp	r0, #8
 2753 0098 40F04381 		bne	.L177
 737:.\main.c      ****                     switch(Display2_rxBuffer[3]){
 2754              		.loc 1 737 0
 2755 009c 834B     		ldr	r3, .L216+4
 2756 009e 1B78     		ldrb	r3, [r3]	@ zero_extendqisi2
 2757 00a0 DBB2     		uxtb	r3, r3
 2758 00a2 AA2B     		cmp	r3, #170
 2759 00a4 40D1     		bne	.L190
 737:.\main.c      ****                     switch(Display2_rxBuffer[3]){
 2760              		.loc 1 737 0 is_stmt 0 discriminator 1
 2761 00a6 814B     		ldr	r3, .L216+4
 2762 00a8 9B79     		ldrb	r3, [r3, #6]	@ zero_extendqisi2
 2763 00aa DBB2     		uxtb	r3, r3
 2764 00ac C32B     		cmp	r3, #195
 2765 00ae 3BD1     		bne	.L190
 737:.\main.c      ****                     switch(Display2_rxBuffer[3]){
 2766              		.loc 1 737 0 discriminator 2
 2767 00b0 7E4B     		ldr	r3, .L216+4
 2768 00b2 DB79     		ldrb	r3, [r3, #7]	@ zero_extendqisi2
 2769 00b4 DBB2     		uxtb	r3, r3
 2770 00b6 3C2B     		cmp	r3, #60
 2771 00b8 36D1     		bne	.L190
 738:.\main.c      ****                         case 0x0D:  //Pantalla efectivo              
 2772              		.loc 1 738 0 is_stmt 1
 2773 00ba 7C4B     		ldr	r3, .L216+4
 2774 00bc DB78     		ldrb	r3, [r3, #3]	@ zero_extendqisi2
 2775 00be DBB2     		uxtb	r3, r3
 2776 00c0 452B     		cmp	r3, #69
 2777 00c2 1AD0     		beq	.L191
 2778 00c4 04D8     		bhi	.L192
 2779 00c6 0D2B     		cmp	r3, #13
 2780 00c8 07D0     		beq	.L193
 2781 00ca 0E2B     		cmp	r3, #14
 2782 00cc 0DD0     		beq	.L194
 2783 00ce 2BE0     		b	.L190
 2784              	.L192:
 2785 00d0 7E2B     		cmp	r3, #126
 2786 00d2 22D0     		beq	.L195
 2787 00d4 942B     		cmp	r3, #148
 2788 00d6 18D0     		beq	.L196
 2789 00d8 26E0     		b	.L190
 2790              	.L193:
 740:.\main.c      ****                             SetPicture(2,DISPLAY_FORMA_PROGRAMACION);                            
 2791              		.loc 1 740 0
 2792 00da 0322     		movs	r2, #3
 2793 00dc 724B     		ldr	r3, .L216
 2794 00de 1A60     		str	r2, [r3]
 741:.\main.c      ****                         break;
ARM GAS  C:\Users\Diego\AppData\Local\Temp\cc9VkXHl.s 			page 74


 2795              		.loc 1 741 0
 2796 00e0 0220     		movs	r0, #2
 2797 00e2 0521     		movs	r1, #5
 2798 00e4 FFF7FEFF 		bl	SetPicture
 2799              	.LVL271:
 742:.\main.c      ****                         case 0x0E:  //Pantalla credito   
 2800              		.loc 1 742 0
 2801 00e8 1EE0     		b	.L190
 2802              	.L194:
 744:.\main.c      ****                             SetPicture(2,DISPLAY_ID_DIGITAL);                            
 2803              		.loc 1 744 0
 2804 00ea 0422     		movs	r2, #4
 2805 00ec 6E4B     		ldr	r3, .L216
 2806 00ee 1A60     		str	r2, [r3]
 745:.\main.c      ****                         break;
 2807              		.loc 1 745 0
 2808 00f0 0220     		movs	r0, #2
 2809 00f2 8521     		movs	r1, #133
 2810 00f4 FFF7FEFF 		bl	SetPicture
 2811              	.LVL272:
 746:.\main.c      ****                         case 0x45:  //Pantalla otras opciones 
 2812              		.loc 1 746 0
 2813 00f8 16E0     		b	.L190
 2814              	.L191:
 748:.\main.c      ****                             SetPicture(2,DISPLAY_OPERACIONES);                            
 2815              		.loc 1 748 0
 2816 00fa 0522     		movs	r2, #5
 2817 00fc 6A4B     		ldr	r3, .L216
 2818 00fe 1A60     		str	r2, [r3]
 749:.\main.c      ****                         break;
 2819              		.loc 1 749 0
 2820 0100 0220     		movs	r0, #2
 2821 0102 8321     		movs	r1, #131
 2822 0104 FFF7FEFF 		bl	SetPicture
 2823              	.LVL273:
 750:.\main.c      ****                             
 2824              		.loc 1 750 0
 2825 0108 0EE0     		b	.L190
 2826              	.L196:
 753:.\main.c      ****                             SetPicture(2,DISPLAY_INICIO0);                            
 2827              		.loc 1 753 0
 2828 010a 0022     		movs	r2, #0
 2829 010c 664B     		ldr	r3, .L216
 2830 010e 1A60     		str	r2, [r3]
 754:.\main.c      ****                         break;
 2831              		.loc 1 754 0
 2832 0110 0220     		movs	r0, #2
 2833 0112 0121     		movs	r1, #1
 2834 0114 FFF7FEFF 		bl	SetPicture
 2835              	.LVL274:
 755:.\main.c      ****                         
 2836              		.loc 1 755 0
 2837 0118 06E0     		b	.L190
 2838              	.L195:
 758:.\main.c      ****                             SetPicture(2,DISPLAY_INICIO0);                            
 2839              		.loc 1 758 0
 2840 011a 0022     		movs	r2, #0
ARM GAS  C:\Users\Diego\AppData\Local\Temp\cc9VkXHl.s 			page 75


 2841 011c 624B     		ldr	r3, .L216
 2842 011e 1A60     		str	r2, [r3]
 759:.\main.c      ****                         break;
 2843              		.loc 1 759 0
 2844 0120 0220     		movs	r0, #2
 2845 0122 0121     		movs	r1, #1
 2846 0124 FFF7FEFF 		bl	SetPicture
 2847              	.LVL275:
 2848              	.L190:
 763:.\main.c      ****                 Display2_ClearRxBuffer();
 2849              		.loc 1 763 0
 2850 0128 0A20     		movs	r0, #10
 2851 012a FFF7FEFF 		bl	CyDelay
 2852              	.LVL276:
 764:.\main.c      ****             }
 2853              		.loc 1 764 0
 2854 012e FFF7FEFF 		bl	Display2_ClearRxBuffer
 2855              	.LVL277:
 2856 0132 08BD     		pop	{r3, pc}
 2857              	.L183:
 769:.\main.c      ****                 if((Display2_rxBuffer[0]==0xAA) && (Display2_rxBuffer[6]==0xC3) && (Display2_rxBuff
 2858              		.loc 1 769 0
 2859 0134 FFF7FEFF 		bl	Display2_GetRxBufferSize
 2860              	.LVL278:
 2861 0138 0828     		cmp	r0, #8
 2862 013a 40F0F280 		bne	.L177
 770:.\main.c      ****                     switch(Display2_rxBuffer[3]){
 2863              		.loc 1 770 0
 2864 013e 5B4B     		ldr	r3, .L216+4
 2865 0140 1B78     		ldrb	r3, [r3]	@ zero_extendqisi2
 2866 0142 DBB2     		uxtb	r3, r3
 2867 0144 AA2B     		cmp	r3, #170
 2868 0146 4AD1     		bne	.L197
 770:.\main.c      ****                     switch(Display2_rxBuffer[3]){
 2869              		.loc 1 770 0 is_stmt 0 discriminator 1
 2870 0148 584B     		ldr	r3, .L216+4
 2871 014a 9B79     		ldrb	r3, [r3, #6]	@ zero_extendqisi2
 2872 014c DBB2     		uxtb	r3, r3
 2873 014e C32B     		cmp	r3, #195
 2874 0150 45D1     		bne	.L197
 770:.\main.c      ****                     switch(Display2_rxBuffer[3]){
 2875              		.loc 1 770 0 discriminator 2
 2876 0152 564B     		ldr	r3, .L216+4
 2877 0154 DB79     		ldrb	r3, [r3, #7]	@ zero_extendqisi2
 2878 0156 DBB2     		uxtb	r3, r3
 2879 0158 3C2B     		cmp	r3, #60
 2880 015a 40D1     		bne	.L197
 771:.\main.c      ****                         case 0x0F:  //Preset dinero                
 2881              		.loc 1 771 0 is_stmt 1
 2882 015c 534B     		ldr	r3, .L216+4
 2883 015e DB78     		ldrb	r3, [r3, #3]	@ zero_extendqisi2
 2884 0160 DBB2     		uxtb	r3, r3
 2885 0162 3B2B     		cmp	r3, #59
 2886 0164 2CD0     		beq	.L198
 2887 0166 04D8     		bhi	.L199
 2888 0168 0F2B     		cmp	r3, #15
 2889 016a 09D0     		beq	.L200
ARM GAS  C:\Users\Diego\AppData\Local\Temp\cc9VkXHl.s 			page 76


 2890 016c 102B     		cmp	r3, #16
 2891 016e 0FD0     		beq	.L201
 2892 0170 35E0     		b	.L197
 2893              	.L199:
 2894 0172 7E2B     		cmp	r3, #126
 2895 0174 2CD0     		beq	.L202
 2896 0176 942B     		cmp	r3, #148
 2897 0178 1AD0     		beq	.L203
 2898 017a 432B     		cmp	r3, #67
 2899 017c 2FD1     		bne	.L197
 2900 017e 0FE0     		b	.L204
 2901              	.L200:
 773:.\main.c      ****                             SetPicture(2,DISPLAY_INTRODUZCA_VALOR);                            
 2902              		.loc 1 773 0
 2903 0180 0422     		movs	r2, #4
 2904 0182 494B     		ldr	r3, .L216
 2905 0184 1A60     		str	r2, [r3]
 774:.\main.c      ****                         break; 
 2906              		.loc 1 774 0
 2907 0186 0220     		movs	r0, #2
 2908 0188 0621     		movs	r1, #6
 2909 018a FFF7FEFF 		bl	SetPicture
 2910              	.LVL279:
 775:.\main.c      ****                         case 0x10:  //Preset volumen                 
 2911              		.loc 1 775 0
 2912 018e 26E0     		b	.L197
 2913              	.L201:
 777:.\main.c      ****                             SetPicture(2,DISPLAY_INTRODUZCA_VOLUMEN);                            
 2914              		.loc 1 777 0
 2915 0190 0522     		movs	r2, #5
 2916 0192 454B     		ldr	r3, .L216
 2917 0194 1A60     		str	r2, [r3]
 778:.\main.c      ****                         break;
 2918              		.loc 1 778 0
 2919 0196 0220     		movs	r0, #2
 2920 0198 0D21     		movs	r1, #13
 2921 019a FFF7FEFF 		bl	SetPicture
 2922              	.LVL280:
 779:.\main.c      ****                         case 0x43:  //Preset full                       
 2923              		.loc 1 779 0
 2924 019e 1EE0     		b	.L197
 2925              	.L204:
 781:.\main.c      ****                             SetPicture(2,DISPLAY_DESEA_IMPRIMIR_RECIBO);                           
 2926              		.loc 1 781 0
 2927 01a0 0622     		movs	r2, #6
 2928 01a2 414B     		ldr	r3, .L216
 2929 01a4 1A60     		str	r2, [r3]
 782:.\main.c      ****                         break;
 2930              		.loc 1 782 0
 2931 01a6 0220     		movs	r0, #2
 2932 01a8 0B21     		movs	r1, #11
 2933 01aa FFF7FEFF 		bl	SetPicture
 2934              	.LVL281:
 783:.\main.c      ****                         case 0x94:  //Retroceso 
 2935              		.loc 1 783 0
 2936 01ae 16E0     		b	.L197
 2937              	.L203:
ARM GAS  C:\Users\Diego\AppData\Local\Temp\cc9VkXHl.s 			page 77


 785:.\main.c      ****                             SetPicture(2,DISPLAY_INICIO0);                                         
 2938              		.loc 1 785 0
 2939 01b0 0022     		movs	r2, #0
 2940 01b2 3D4B     		ldr	r3, .L216
 2941 01b4 1A60     		str	r2, [r3]
 786:.\main.c      ****                         break;
 2942              		.loc 1 786 0
 2943 01b6 0220     		movs	r0, #2
 2944 01b8 0121     		movs	r1, #1
 2945 01ba FFF7FEFF 		bl	SetPicture
 2946              	.LVL282:
 787:.\main.c      ****                         case 0x3B:  //Pantalla Inicial    
 2947              		.loc 1 787 0
 2948 01be 0EE0     		b	.L197
 2949              	.L198:
 789:.\main.c      ****                             SetPicture(2,DISPLAY_INICIO0);                            
 2950              		.loc 1 789 0
 2951 01c0 0022     		movs	r2, #0
 2952 01c2 394B     		ldr	r3, .L216
 2953 01c4 1A60     		str	r2, [r3]
 790:.\main.c      ****                         break;
 2954              		.loc 1 790 0
 2955 01c6 0220     		movs	r0, #2
 2956 01c8 0121     		movs	r1, #1
 2957 01ca FFF7FEFF 		bl	SetPicture
 2958              	.LVL283:
 791:.\main.c      ****                         case 0x7E:  //Pantalla Inicial    
 2959              		.loc 1 791 0
 2960 01ce 06E0     		b	.L197
 2961              	.L202:
 793:.\main.c      ****                             SetPicture(2,DISPLAY_INICIO0);                            
 2962              		.loc 1 793 0
 2963 01d0 0022     		movs	r2, #0
 2964 01d2 354B     		ldr	r3, .L216
 2965 01d4 1A60     		str	r2, [r3]
 794:.\main.c      ****                         break;
 2966              		.loc 1 794 0
 2967 01d6 0220     		movs	r0, #2
 2968 01d8 0121     		movs	r1, #1
 2969 01da FFF7FEFF 		bl	SetPicture
 2970              	.LVL284:
 2971              	.L197:
 798:.\main.c      ****                 Display2_ClearRxBuffer();
 2972              		.loc 1 798 0
 2973 01de 0A20     		movs	r0, #10
 2974 01e0 FFF7FEFF 		bl	CyDelay
 2975              	.LVL285:
 799:.\main.c      ****             }
 2976              		.loc 1 799 0
 2977 01e4 FFF7FEFF 		bl	Display2_ClearRxBuffer
 2978              	.LVL286:
 2979 01e8 08BD     		pop	{r3, pc}
 2980              	.L184:
 804:.\main.c      ****                 if((Display2_rxBuffer[0]==0xAA) && (Display2_rxBuffer[6]==0xC3) && (Display2_rxBuff
 2981              		.loc 1 804 0
 2982 01ea FFF7FEFF 		bl	Display2_GetRxBufferSize
 2983              	.LVL287:
ARM GAS  C:\Users\Diego\AppData\Local\Temp\cc9VkXHl.s 			page 78


 2984 01ee 0828     		cmp	r0, #8
 2985 01f0 40F09780 		bne	.L177
 805:.\main.c      ****                     switch(Display2_rxBuffer[3]){
 2986              		.loc 1 805 0
 2987 01f4 2D4B     		ldr	r3, .L216+4
 2988 01f6 1B78     		ldrb	r3, [r3]	@ zero_extendqisi2
 2989 01f8 DBB2     		uxtb	r3, r3
 2990 01fa AA2B     		cmp	r3, #170
 2991 01fc 1FD1     		bne	.L205
 805:.\main.c      ****                     switch(Display2_rxBuffer[3]){
 2992              		.loc 1 805 0 is_stmt 0 discriminator 1
 2993 01fe 2B4B     		ldr	r3, .L216+4
 2994 0200 9B79     		ldrb	r3, [r3, #6]	@ zero_extendqisi2
 2995 0202 DBB2     		uxtb	r3, r3
 2996 0204 C32B     		cmp	r3, #195
 2997 0206 1AD1     		bne	.L205
 805:.\main.c      ****                     switch(Display2_rxBuffer[3]){
 2998              		.loc 1 805 0 discriminator 2
 2999 0208 284B     		ldr	r3, .L216+4
 3000 020a DB79     		ldrb	r3, [r3, #7]	@ zero_extendqisi2
 3001 020c DBB2     		uxtb	r3, r3
 3002 020e 3C2B     		cmp	r3, #60
 3003 0210 15D1     		bne	.L205
 806:.\main.c      ****                         case 0x94:  //Retroceso 
 3004              		.loc 1 806 0 is_stmt 1
 3005 0212 264B     		ldr	r3, .L216+4
 3006 0214 DB78     		ldrb	r3, [r3, #3]	@ zero_extendqisi2
 3007 0216 DBB2     		uxtb	r3, r3
 3008 0218 7E2B     		cmp	r3, #126
 3009 021a 09D0     		beq	.L206
 3010 021c 942B     		cmp	r3, #148
 3011 021e 0ED1     		bne	.L205
 808:.\main.c      ****                             SetPicture(2,DISPLAY_INICIO0);                                         
 3012              		.loc 1 808 0
 3013 0220 0022     		movs	r2, #0
 3014 0222 214B     		ldr	r3, .L216
 3015 0224 1A60     		str	r2, [r3]
 809:.\main.c      ****                         break;
 3016              		.loc 1 809 0
 3017 0226 0220     		movs	r0, #2
 3018 0228 0121     		movs	r1, #1
 3019 022a FFF7FEFF 		bl	SetPicture
 3020              	.LVL288:
 810:.\main.c      ****                         case 0x7E:  //Pantalla Inicial    
 3021              		.loc 1 810 0
 3022 022e 06E0     		b	.L205
 3023              	.L206:
 812:.\main.c      ****                             SetPicture(2,DISPLAY_INICIO0);                            
 3024              		.loc 1 812 0
 3025 0230 0022     		movs	r2, #0
 3026 0232 1D4B     		ldr	r3, .L216
 3027 0234 1A60     		str	r2, [r3]
 813:.\main.c      ****                         break;
 3028              		.loc 1 813 0
 3029 0236 0220     		movs	r0, #2
 3030 0238 0121     		movs	r1, #1
 3031 023a FFF7FEFF 		bl	SetPicture
ARM GAS  C:\Users\Diego\AppData\Local\Temp\cc9VkXHl.s 			page 79


 3032              	.LVL289:
 3033              	.L205:
 817:.\main.c      ****                 Display2_ClearRxBuffer();
 3034              		.loc 1 817 0
 3035 023e 0A20     		movs	r0, #10
 3036 0240 FFF7FEFF 		bl	CyDelay
 3037              	.LVL290:
 818:.\main.c      ****             }
 3038              		.loc 1 818 0
 3039 0244 FFF7FEFF 		bl	Display2_ClearRxBuffer
 3040              	.LVL291:
 3041 0248 08BD     		pop	{r3, pc}
 3042              	.L185:
 823:.\main.c      ****                 if((Display2_rxBuffer[0]==0xAA) && (Display2_rxBuffer[6]==0xC3) && (Display2_rxBuff
 3043              		.loc 1 823 0
 3044 024a FFF7FEFF 		bl	Display2_GetRxBufferSize
 3045              	.LVL292:
 3046 024e 0828     		cmp	r0, #8
 3047 0250 67D1     		bne	.L177
 824:.\main.c      ****                     switch(Display2_rxBuffer[3]){
 3048              		.loc 1 824 0
 3049 0252 164B     		ldr	r3, .L216+4
 3050 0254 1B78     		ldrb	r3, [r3]	@ zero_extendqisi2
 3051 0256 DBB2     		uxtb	r3, r3
 3052 0258 AA2B     		cmp	r3, #170
 3053 025a 1FD1     		bne	.L208
 824:.\main.c      ****                     switch(Display2_rxBuffer[3]){
 3054              		.loc 1 824 0 is_stmt 0 discriminator 1
 3055 025c 134B     		ldr	r3, .L216+4
 3056 025e 9B79     		ldrb	r3, [r3, #6]	@ zero_extendqisi2
 3057 0260 DBB2     		uxtb	r3, r3
 3058 0262 C32B     		cmp	r3, #195
 3059 0264 1AD1     		bne	.L208
 824:.\main.c      ****                     switch(Display2_rxBuffer[3]){
 3060              		.loc 1 824 0 discriminator 2
 3061 0266 114B     		ldr	r3, .L216+4
 3062 0268 DB79     		ldrb	r3, [r3, #7]	@ zero_extendqisi2
 3063 026a DBB2     		uxtb	r3, r3
 3064 026c 3C2B     		cmp	r3, #60
 3065 026e 15D1     		bne	.L208
 825:.\main.c      ****                         case 0x94:  //Retroceso 
 3066              		.loc 1 825 0 is_stmt 1
 3067 0270 0E4B     		ldr	r3, .L216+4
 3068 0272 DB78     		ldrb	r3, [r3, #3]	@ zero_extendqisi2
 3069 0274 DBB2     		uxtb	r3, r3
 3070 0276 7E2B     		cmp	r3, #126
 3071 0278 09D0     		beq	.L209
 3072 027a 942B     		cmp	r3, #148
 3073 027c 0ED1     		bne	.L208
 827:.\main.c      ****                             SetPicture(2,DISPLAY_INICIO0);                                         
 3074              		.loc 1 827 0
 3075 027e 0022     		movs	r2, #0
 3076 0280 094B     		ldr	r3, .L216
 3077 0282 1A60     		str	r2, [r3]
 828:.\main.c      ****                         break;
 3078              		.loc 1 828 0
 3079 0284 0220     		movs	r0, #2
ARM GAS  C:\Users\Diego\AppData\Local\Temp\cc9VkXHl.s 			page 80


 3080 0286 0121     		movs	r1, #1
 3081 0288 FFF7FEFF 		bl	SetPicture
 3082              	.LVL293:
 829:.\main.c      ****                         case 0x7E:  //Pantalla Inicial    
 3083              		.loc 1 829 0
 3084 028c 06E0     		b	.L208
 3085              	.L209:
 831:.\main.c      ****                             SetPicture(2,DISPLAY_INICIO0);                            
 3086              		.loc 1 831 0
 3087 028e 0022     		movs	r2, #0
 3088 0290 054B     		ldr	r3, .L216
 3089 0292 1A60     		str	r2, [r3]
 832:.\main.c      ****                         break;
 3090              		.loc 1 832 0
 3091 0294 0220     		movs	r0, #2
 3092 0296 0121     		movs	r1, #1
 3093 0298 FFF7FEFF 		bl	SetPicture
 3094              	.LVL294:
 3095              	.L208:
 836:.\main.c      ****                 Display2_ClearRxBuffer();
 3096              		.loc 1 836 0
 3097 029c 0A20     		movs	r0, #10
 3098 029e FFF7FEFF 		bl	CyDelay
 3099              	.LVL295:
 837:.\main.c      ****             }
 3100              		.loc 1 837 0
 3101 02a2 FFF7FEFF 		bl	Display2_ClearRxBuffer
 3102              	.LVL296:
 3103 02a6 08BD     		pop	{r3, pc}
 3104              	.L217:
 3105              		.align	2
 3106              	.L216:
 3107 02a8 00000000 		.word	flowDisplay2
 3108 02ac 00000000 		.word	Display2_rxBuffer
 3109              	.L186:
 842:.\main.c      ****                 if((Display2_rxBuffer[0]==0xAA) && (Display2_rxBuffer[6]==0xC3) && (Display2_rxBuff
 3110              		.loc 1 842 0
 3111 02b0 FFF7FEFF 		bl	Display2_GetRxBufferSize
 3112              	.LVL297:
 3113 02b4 0828     		cmp	r0, #8
 3114 02b6 34D1     		bne	.L177
 843:.\main.c      ****                     switch(Display2_rxBuffer[3]){
 3115              		.loc 1 843 0
 3116 02b8 1A4B     		ldr	r3, .L218
 3117 02ba 1B78     		ldrb	r3, [r3]	@ zero_extendqisi2
 3118 02bc DBB2     		uxtb	r3, r3
 3119 02be AA2B     		cmp	r3, #170
 3120 02c0 2AD1     		bne	.L211
 843:.\main.c      ****                     switch(Display2_rxBuffer[3]){
 3121              		.loc 1 843 0 is_stmt 0 discriminator 1
 3122 02c2 184B     		ldr	r3, .L218
 3123 02c4 9B79     		ldrb	r3, [r3, #6]	@ zero_extendqisi2
 3124 02c6 DBB2     		uxtb	r3, r3
 3125 02c8 C32B     		cmp	r3, #195
 3126 02ca 25D1     		bne	.L211
 843:.\main.c      ****                     switch(Display2_rxBuffer[3]){
 3127              		.loc 1 843 0 discriminator 2
ARM GAS  C:\Users\Diego\AppData\Local\Temp\cc9VkXHl.s 			page 81


 3128 02cc 154B     		ldr	r3, .L218
 3129 02ce DB79     		ldrb	r3, [r3, #7]	@ zero_extendqisi2
 3130 02d0 DBB2     		uxtb	r3, r3
 3131 02d2 3C2B     		cmp	r3, #60
 3132 02d4 20D1     		bne	.L211
 844:.\main.c      ****                         case 0x39:  //Si copia                                                     
 3133              		.loc 1 844 0 is_stmt 1
 3134 02d6 134B     		ldr	r3, .L218
 3135 02d8 DB78     		ldrb	r3, [r3, #3]	@ zero_extendqisi2
 3136 02da DBB2     		uxtb	r3, r3
 3137 02dc 392B     		cmp	r3, #57
 3138 02de 04D0     		beq	.L212
 3139 02e0 7E2B     		cmp	r3, #126
 3140 02e2 12D0     		beq	.L213
 3141 02e4 382B     		cmp	r3, #56
 3142 02e6 17D1     		bne	.L211
 3143 02e8 07E0     		b	.L214
 3144              	.L212:
 846:.\main.c      ****                             flowDisplay2 = 7;
 3145              		.loc 1 846 0
 3146 02ea 0220     		movs	r0, #2
 3147 02ec 0A21     		movs	r1, #10
 3148 02ee FFF7FEFF 		bl	SetPicture
 3149              	.LVL298:
 847:.\main.c      ****                         break; 
 3150              		.loc 1 847 0
 3151 02f2 0722     		movs	r2, #7
 3152 02f4 0C4B     		ldr	r3, .L218+4
 3153 02f6 1A60     		str	r2, [r3]
 848:.\main.c      ****                         case 0x38:  //No copia                                                     
 3154              		.loc 1 848 0
 3155 02f8 0EE0     		b	.L211
 3156              	.L214:
 850:.\main.c      ****                             flowDisplay2 = 8;//caso para seleccion de producto
 3157              		.loc 1 850 0
 3158 02fa 0220     		movs	r0, #2
 3159 02fc 8621     		movs	r1, #134
 3160 02fe FFF7FEFF 		bl	SetPicture
 3161              	.LVL299:
 851:.\main.c      ****                         break;
 3162              		.loc 1 851 0
 3163 0302 0822     		movs	r2, #8
 3164 0304 084B     		ldr	r3, .L218+4
 3165 0306 1A60     		str	r2, [r3]
 852:.\main.c      ****                         case 0x7E:  //Pantalla Inicial                                             
 3166              		.loc 1 852 0
 3167 0308 06E0     		b	.L211
 3168              	.L213:
 854:.\main.c      ****                             flowDisplay2 = 0;
 3169              		.loc 1 854 0
 3170 030a 0220     		movs	r0, #2
 3171 030c 0121     		movs	r1, #1
 3172 030e FFF7FEFF 		bl	SetPicture
 3173              	.LVL300:
 855:.\main.c      ****                         break;
 3174              		.loc 1 855 0
 3175 0312 0022     		movs	r2, #0
ARM GAS  C:\Users\Diego\AppData\Local\Temp\cc9VkXHl.s 			page 82


 3176 0314 044B     		ldr	r3, .L218+4
 3177 0316 1A60     		str	r2, [r3]
 3178              	.L211:
 859:.\main.c      ****                 Display2_ClearRxBuffer();
 3179              		.loc 1 859 0
 3180 0318 0A20     		movs	r0, #10
 3181 031a FFF7FEFF 		bl	CyDelay
 3182              	.LVL301:
 860:.\main.c      ****             }
 3183              		.loc 1 860 0
 3184 031e FFF7FEFF 		bl	Display2_ClearRxBuffer
 3185              	.LVL302:
 3186              	.L177:
 3187 0322 08BD     		pop	{r3, pc}
 3188              	.L219:
 3189              		.align	2
 3190              	.L218:
 3191 0324 00000000 		.word	Display2_rxBuffer
 3192 0328 00000000 		.word	flowDisplay2
 3193              		.cfi_endproc
 3194              	.LFE71:
 3195              		.size	PollingDisplay2, .-PollingDisplay2
 3196              		.section	.text.animacion2,"ax",%progbits
 3197              		.align	2
 3198              		.global	animacion2
 3199              		.thumb
 3200              		.thumb_func
 3201              		.type	animacion2, %function
 3202              	animacion2:
 3203              	.LFB73:
 887:.\main.c      **** }
 888:.\main.c      **** 
 889:.\main.c      **** /*
 890:.\main.c      **** ***************************************************************************************************
 891:.\main.c      **** *                                         CY_ISR(animacion2)
 892:.\main.c      **** *
 893:.\main.c      **** * Description : Interrupcion que temporiza las imagenes informativas que aparecen en la pantalla 2
 894:.\main.c      **** *               
 895:.\main.c      **** *
 896:.\main.c      **** * Argument(s) : none
 897:.\main.c      **** *
 898:.\main.c      **** * Return(s)   : none
 899:.\main.c      **** *
 900:.\main.c      **** * Caller(s)   : 
 901:.\main.c      **** *
 902:.\main.c      **** * Note(s)     : none.
 903:.\main.c      **** ***************************************************************************************************
 904:.\main.c      **** */
 905:.\main.c      **** CY_ISR(animacion2){
 3204              		.loc 1 905 0
 3205              		.cfi_startproc
 3206              		@ args = 0, pretend = 0, frame = 0
 3207              		@ frame_needed = 0, uses_anonymous_args = 0
 3208 0000 08B5     		push	{r3, lr}
 3209              		.cfi_def_cfa_offset 8
 3210              		.cfi_offset 3, -8
 3211              		.cfi_offset 14, -4
ARM GAS  C:\Users\Diego\AppData\Local\Temp\cc9VkXHl.s 			page 83


 906:.\main.c      ****     Timer_Animacion2_ReadStatusRegister();
 3212              		.loc 1 906 0
 3213 0002 FFF7FEFF 		bl	Timer_Animacion2_ReadStatusRegister
 3214              	.LVL303:
 907:.\main.c      ****     count_protector2++;
 3215              		.loc 1 907 0
 3216 0006 024A     		ldr	r2, .L222
 3217 0008 1378     		ldrb	r3, [r2]	@ zero_extendqisi2
 3218 000a 0133     		adds	r3, r3, #1
 3219 000c 1370     		strb	r3, [r2]
 3220 000e 08BD     		pop	{r3, pc}
 3221              	.L223:
 3222              		.align	2
 3223              	.L222:
 3224 0010 00000000 		.word	count_protector2
 3225              		.cfi_endproc
 3226              	.LFE73:
 3227              		.size	animacion2, .-animacion2
 3228              		.section	.text.main,"ax",%progbits
 3229              		.align	2
 3230              		.global	main
 3231              		.thumb
 3232              		.thumb_func
 3233              		.type	main, %function
 3234              	main:
 3235              	.LFB74:
 908:.\main.c      **** }
 909:.\main.c      **** 
 910:.\main.c      **** 
 911:.\main.c      **** int main()
 912:.\main.c      **** {
 3236              		.loc 1 912 0
 3237              		.cfi_startproc
 3238              		@ args = 0, pretend = 0, frame = 0
 3239              		@ frame_needed = 0, uses_anonymous_args = 0
 3240 0000 08B5     		push	{r3, lr}
 3241              		.cfi_def_cfa_offset 8
 3242              		.cfi_offset 3, -8
 3243              		.cfi_offset 14, -4
 913:.\main.c      ****     uint8 x;
 914:.\main.c      ****     CyGlobalIntEnable; /* Enable global interrupts. */
 3244              		.loc 1 914 0
 3245              	@ 914 ".\main.c" 1
 3246 0002 62B6     		CPSIE   i
 3247              	@ 0 "" 2
 3248              	.LVL304:
 915:.\main.c      **** 
 916:.\main.c      ****     /* Place your initialization/startup code here (e.g. MyInst_Start()) */
 917:.\main.c      ****     for(x= 0; x < 4; x++){
 3249              		.loc 1 917 0
 3250              		.thumb
 3251 0004 0023     		movs	r3, #0
 3252 0006 04E0     		b	.L225
 3253              	.LVL305:
 3254              	.L226:
 918:.\main.c      ****         statePump[x]=0;
 3255              		.loc 1 918 0 discriminator 3
ARM GAS  C:\Users\Diego\AppData\Local\Temp\cc9VkXHl.s 			page 84


 3256 0008 0021     		movs	r1, #0
 3257 000a 0D4A     		ldr	r2, .L229
 3258 000c D154     		strb	r1, [r2, r3]
 917:.\main.c      ****         statePump[x]=0;
 3259              		.loc 1 917 0 discriminator 3
 3260 000e 0133     		adds	r3, r3, #1
 3261              	.LVL306:
 3262 0010 DBB2     		uxtb	r3, r3
 3263              	.LVL307:
 3264              	.L225:
 917:.\main.c      ****         statePump[x]=0;
 3265              		.loc 1 917 0 is_stmt 0 discriminator 1
 3266 0012 032B     		cmp	r3, #3
 3267 0014 F8D9     		bls	.L226
 919:.\main.c      ****     }
 920:.\main.c      ****     GlobalInitializer();
 3268              		.loc 1 920 0 is_stmt 1
 3269 0016 FFF7FEFF 		bl	GlobalInitializer
 3270              	.LVL308:
 921:.\main.c      ****     InitPump();      
 3271              		.loc 1 921 0
 3272 001a FFF7FEFF 		bl	InitPump
 3273              	.LVL309:
 922:.\main.c      ****     PrinterType = 1;
 3274              		.loc 1 922 0
 3275 001e 0122     		movs	r2, #1
 3276 0020 084B     		ldr	r3, .L229+4
 3277 0022 1A70     		strb	r2, [r3]
 923:.\main.c      ****     CyWdtStart(CYWDT_1024_TICKS,CYWDT_LPMODE_NOCHANGE); 
 3278              		.loc 1 923 0
 3279 0024 0320     		movs	r0, #3
 3280 0026 0021     		movs	r1, #0
 3281 0028 FFF7FEFF 		bl	CyWdtStart
 3282              	.LVL310:
 3283              	.L227:
 924:.\main.c      ****     for(;;)
 925:.\main.c      ****     {
 926:.\main.c      ****         CyWdtClear();
 3284              		.loc 1 926 0 discriminator 1
 3285 002c FFF7FEFF 		bl	CyWdtClear
 3286              	.LVL311:
 927:.\main.c      **** //        PollingPump();
 928:.\main.c      **** //        CyWdtClear();        
 929:.\main.c      ****         PollingDisplay1();
 3287              		.loc 1 929 0 discriminator 1
 3288 0030 FFF7FEFF 		bl	PollingDisplay1
 3289              	.LVL312:
 930:.\main.c      ****         CyWdtClear();
 3290              		.loc 1 930 0 discriminator 1
 3291 0034 FFF7FEFF 		bl	CyWdtClear
 3292              	.LVL313:
 931:.\main.c      ****         PollingDisplay2();
 3293              		.loc 1 931 0 discriminator 1
 3294 0038 FFF7FEFF 		bl	PollingDisplay2
 3295              	.LVL314:
 932:.\main.c      ****     }
 3296              		.loc 1 932 0 discriminator 1
ARM GAS  C:\Users\Diego\AppData\Local\Temp\cc9VkXHl.s 			page 85


 3297 003c F6E7     		b	.L227
 3298              	.L230:
 3299 003e 00BF     		.align	2
 3300              	.L229:
 3301 0040 00000000 		.word	statePump
 3302 0044 00000000 		.word	PrinterType
 3303              		.cfi_endproc
 3304              	.LFE74:
 3305              		.size	main, .-main
 3306              		.global	MuxVersion
 3307              		.comm	side,1036,4
 3308              		.comm	bufferDisplay4,625,4
 3309              		.comm	bufferDisplay3,625,4
 3310              		.comm	bufferDisplay2,625,4
 3311              		.comm	bufferDisplay1,625,4
 3312              		.comm	count_protector2,1,1
 3313              		.comm	count_protector,1,1
 3314              		.comm	timeDownHandle,2,4
 3315              		.comm	dateDownHandle,3,4
 3316              		.comm	VolUnit,6,4
 3317              		.comm	turn,1,1
 3318              		.comm	PrinterType,1,1
 3319              		.comm	digits,1,1
 3320              		.comm	NumPositions,1,1
 3321              		.comm	statePump,4,4
 3322              		.comm	DDMode,1,1
 3323              		.comm	PPUDec,1,1
 3324              		.comm	VolDec,1,1
 3325              		.comm	MoneyDec,1,1
 3326              		.comm	ConversionFactor,1,1
 3327              		.comm	UnitType,1,1
 3328              		.comm	PlateRequest,1,1
 3329              		.comm	PrevStatePump,4,4
 3330              		.comm	stateBeagleSoft,1,1
 3331              		.comm	flagResetMux,1,1
 3332              		.comm	passwordSeller,8,4
 3333              		.comm	typeIdSeller,1,1
 3334              		.comm	idSeller,25,4
 3335              		.comm	lockTurn,1,1
 3336              		.comm	temporal,30,4
 3337              		.comm	residue,14,4
 3338              		.comm	screen,2,4
 3339              		.comm	date,3,4
 3340              		.comm	time,3,4
 3341              		.comm	symbols,2,4
 3342              		.comm	decimalVolume,1,1
 3343              		.comm	decimalMoney,1,1
 3344              		.comm	ppux10,1,1
 3345              		.comm	delayPicture2,4,4
 3346              		.comm	delayPicture1,4,4
 3347              		.comm	productNumber,1,1
 3348              		.comm	flagPoint2,1,1
 3349              		.comm	flagPoint1,1,1
 3350              		.comm	numberKeys2,1,1
 3351              		.comm	numberKeys1,1,1
 3352              		.comm	flowDisplay4,4,4
 3353              		.comm	flowDisplay3,4,4
ARM GAS  C:\Users\Diego\AppData\Local\Temp\cc9VkXHl.s 			page 86


 3354              		.comm	flowDisplay2,4,4
 3355              		.comm	flowDisplay1,4,4
 3356              		.comm	countPump,8,8
 3357              		.comm	countBeagleTX,8,8
 3358              		.comm	countAnimation2,8,8
 3359              		.comm	countAnimation1,8,8
 3360              		.section	.rodata
 3361              		.align	2
 3362              		.set	.LANCHOR0,. + 0
 3363              	.LC1:
 3364 0000 532F442F 		.ascii	"S/D/Dupla \000"
 3364      4475706C 
 3364      612000
 3365 000b 00       		.space	1
 3366              	.LC3:
 3367 000c 53657874 		.ascii	"Sextupla\000"
 3367      75706C61 
 3367      00
 3368 0015 00       		.space	1
 3369 0016 0000     		.space	2
 3370              	.LC4:
 3371 0018 4F637475 		.ascii	"Octupla\000"
 3371      706C6100 
 3372 0020 0000     		.space	2
 3373 0022 0000     		.space	2
 3374              	.LC5:
 3375 0024 352D352D 		.ascii	"5-5-4     \000"
 3375      34202020 
 3375      202000
 3376 002f 00       		.space	1
 3377              	.LC6:
 3378 0030 362D362D 		.ascii	"6-6-4     \000"
 3378      34202020 
 3378      202000
 3379 003b 00       		.space	1
 3380              	.LC7:
 3381 003c 372D372D 		.ascii	"7-7-5     \000"
 3381      35202020 
 3381      202000
 3382 0047 00       		.space	1
 3383              	.LC8:
 3384 0048 382D372D 		.ascii	"8-7-5     \000"
 3384      35202020 
 3384      202000
 3385 0053 00       		.space	1
 3386              	.LC9:
 3387 0054 54657374 		.ascii	"Test de Impresion\000"
 3387      20646520 
 3387      496D7072 
 3387      6573696F 
 3387      6E00
 3388 0066 0000     		.data
 3389              		.align	2
 3390              		.set	.LANCHOR1,. + 0
 3391              		.type	MuxVersion, %object
 3392              		.size	MuxVersion, 10
 3393              	MuxVersion:
ARM GAS  C:\Users\Diego\AppData\Local\Temp\cc9VkXHl.s 			page 87


 3394 0000 4D555820 		.ascii	"MUX V. 1.0"
 3394      562E2031 
 3394      2E30
 3395 000a 0000     		.section	.rodata.str1.4,"aMS",%progbits,1
 3396              		.align	2
 3397              	.LC0:
 3398 0000 496E6963 		.ascii	"Iniciando\000"
 3398      69616E64 
 3398      6F00
 3399 000a 0000     		.space	2
 3400              	.LC2:
 3401 000c 51756164 		.ascii	"Quadrupla\000"
 3401      7275706C 
 3401      6100
 3402 0016 0000     		.text
 3403              	.Letext0:
 3404              		.file 2 "c:\\program files (x86)\\cypress\\psoc creator\\3.3\\psoc creator\\import\\gnu\\arm\\4.9.
 3405              		.file 3 "c:\\program files (x86)\\cypress\\psoc creator\\3.3\\psoc creator\\import\\gnu\\arm\\4.9.
 3406              		.file 4 "Generated_Source\\PSoC5/cytypes.h"
 3407              		.file 5 "./variables.h"
 3408              		.file 6 "Generated_Source\\PSoC5/Display1.h"
 3409              		.file 7 "Generated_Source\\PSoC5/Display2.h"
 3410              		.file 8 "Generated_Source\\PSoC5/core_cm3.h"
 3411              		.file 9 "Generated_Source\\PSoC5/EEPROM_1.h"
 3412              		.file 10 "Generated_Source\\PSoC5/Pump.h"
 3413              		.file 11 "Generated_Source\\PSoC5/RF_Physical.h"
 3414              		.file 12 "Generated_Source\\PSoC5/Printer.h"
 3415              		.file 13 "Generated_Source\\PSoC5/I2C_Bus.h"
 3416              		.file 14 "./LCD.h"
 3417              		.file 15 "Generated_Source\\PSoC5/CyLib.h"
 3418              		.file 16 "Generated_Source\\PSoC5/Timer_Animacion.h"
 3419              		.file 17 "./protocol.h"
 3420              		.file 18 "./I2C.h"
 3421              		.file 19 "Generated_Source\\PSoC5/isr_3.h"
 3422              		.file 20 "./keyboard.h"
 3423              		.file 21 "./Print.h"
 3424              		.file 22 "./ibutton.h"
 3425              		.file 23 "Generated_Source\\PSoC5/Timer_Animacion2.h"
 3426              		.section	.debug_info,"",%progbits
 3427              	.Ldebug_info0:
 3428 0000 8F200000 		.4byte	0x208f
 3429 0004 0400     		.2byte	0x4
 3430 0006 00000000 		.4byte	.Ldebug_abbrev0
 3431 000a 04       		.byte	0x4
 3432 000b 01       		.uleb128 0x1
 3433 000c D50C0000 		.4byte	.LASF263
 3434 0010 01       		.byte	0x1
 3435 0011 37100000 		.4byte	.LASF264
 3436 0015 5B080000 		.4byte	.LASF265
 3437 0019 00000000 		.4byte	.Ldebug_ranges0+0
 3438 001d 00000000 		.4byte	0
 3439 0021 00000000 		.4byte	.Ldebug_line0
 3440 0025 02       		.uleb128 0x2
 3441 0026 01       		.byte	0x1
 3442 0027 06       		.byte	0x6
 3443 0028 9B0E0000 		.4byte	.LASF0
 3444 002c 03       		.uleb128 0x3
ARM GAS  C:\Users\Diego\AppData\Local\Temp\cc9VkXHl.s 			page 88


 3445 002d 400B0000 		.4byte	.LASF3
 3446 0031 02       		.byte	0x2
 3447 0032 1D       		.byte	0x1d
 3448 0033 37000000 		.4byte	0x37
 3449 0037 02       		.uleb128 0x2
 3450 0038 01       		.byte	0x1
 3451 0039 08       		.byte	0x8
 3452 003a 8A0C0000 		.4byte	.LASF1
 3453 003e 02       		.uleb128 0x2
 3454 003f 02       		.byte	0x2
 3455 0040 05       		.byte	0x5
 3456 0041 B5090000 		.4byte	.LASF2
 3457 0045 03       		.uleb128 0x3
 3458 0046 BF030000 		.4byte	.LASF4
 3459 004a 02       		.byte	0x2
 3460 004b 2B       		.byte	0x2b
 3461 004c 50000000 		.4byte	0x50
 3462 0050 02       		.uleb128 0x2
 3463 0051 02       		.byte	0x2
 3464 0052 07       		.byte	0x7
 3465 0053 F10E0000 		.4byte	.LASF5
 3466 0057 03       		.uleb128 0x3
 3467 0058 80010000 		.4byte	.LASF6
 3468 005c 02       		.byte	0x2
 3469 005d 3F       		.byte	0x3f
 3470 005e 62000000 		.4byte	0x62
 3471 0062 02       		.uleb128 0x2
 3472 0063 04       		.byte	0x4
 3473 0064 05       		.byte	0x5
 3474 0065 C8090000 		.4byte	.LASF7
 3475 0069 02       		.uleb128 0x2
 3476 006a 04       		.byte	0x4
 3477 006b 07       		.byte	0x7
 3478 006c B30B0000 		.4byte	.LASF8
 3479 0070 02       		.uleb128 0x2
 3480 0071 08       		.byte	0x8
 3481 0072 05       		.byte	0x5
 3482 0073 A5060000 		.4byte	.LASF9
 3483 0077 02       		.uleb128 0x2
 3484 0078 08       		.byte	0x8
 3485 0079 07       		.byte	0x7
 3486 007a 58030000 		.4byte	.LASF10
 3487 007e 04       		.uleb128 0x4
 3488 007f 04       		.byte	0x4
 3489 0080 05       		.byte	0x5
 3490 0081 696E7400 		.ascii	"int\000"
 3491 0085 02       		.uleb128 0x2
 3492 0086 04       		.byte	0x4
 3493 0087 07       		.byte	0x7
 3494 0088 59010000 		.4byte	.LASF11
 3495 008c 03       		.uleb128 0x3
 3496 008d FF050000 		.4byte	.LASF12
 3497 0091 03       		.byte	0x3
 3498 0092 15       		.byte	0x15
 3499 0093 2C000000 		.4byte	0x2c
 3500 0097 03       		.uleb128 0x3
 3501 0098 E3080000 		.4byte	.LASF13
ARM GAS  C:\Users\Diego\AppData\Local\Temp\cc9VkXHl.s 			page 89


 3502 009c 03       		.byte	0x3
 3503 009d 21       		.byte	0x21
 3504 009e 45000000 		.4byte	0x45
 3505 00a2 03       		.uleb128 0x3
 3506 00a3 210C0000 		.4byte	.LASF14
 3507 00a7 03       		.byte	0x3
 3508 00a8 2C       		.byte	0x2c
 3509 00a9 57000000 		.4byte	0x57
 3510 00ad 05       		.uleb128 0x5
 3511 00ae 840F0000 		.4byte	.LASF15
 3512 00b2 04       		.byte	0x4
 3513 00b3 3801     		.2byte	0x138
 3514 00b5 37000000 		.4byte	0x37
 3515 00b9 05       		.uleb128 0x5
 3516 00ba D8050000 		.4byte	.LASF16
 3517 00be 04       		.byte	0x4
 3518 00bf 3901     		.2byte	0x139
 3519 00c1 50000000 		.4byte	0x50
 3520 00c5 05       		.uleb128 0x5
 3521 00c6 23080000 		.4byte	.LASF17
 3522 00ca 04       		.byte	0x4
 3523 00cb 3A01     		.2byte	0x13a
 3524 00cd 69000000 		.4byte	0x69
 3525 00d1 02       		.uleb128 0x2
 3526 00d2 04       		.byte	0x4
 3527 00d3 04       		.byte	0x4
 3528 00d4 05030000 		.4byte	.LASF18
 3529 00d8 02       		.uleb128 0x2
 3530 00d9 08       		.byte	0x8
 3531 00da 04       		.byte	0x4
 3532 00db 8A0F0000 		.4byte	.LASF19
 3533 00df 05       		.uleb128 0x5
 3534 00e0 730B0000 		.4byte	.LASF20
 3535 00e4 04       		.byte	0x4
 3536 00e5 4401     		.2byte	0x144
 3537 00e7 77000000 		.4byte	0x77
 3538 00eb 05       		.uleb128 0x5
 3539 00ec 18060000 		.4byte	.LASF21
 3540 00f0 04       		.byte	0x4
 3541 00f1 4901     		.2byte	0x149
 3542 00f3 F7000000 		.4byte	0xf7
 3543 00f7 02       		.uleb128 0x2
 3544 00f8 01       		.byte	0x1
 3545 00f9 08       		.byte	0x8
 3546 00fa 64050000 		.4byte	.LASF22
 3547 00fe 05       		.uleb128 0x5
 3548 00ff 580C0000 		.4byte	.LASF23
 3549 0103 04       		.byte	0x4
 3550 0104 DA01     		.2byte	0x1da
 3551 0106 69000000 		.4byte	0x69
 3552 010a 06       		.uleb128 0x6
 3553 010b AD000000 		.4byte	0xad
 3554 010f 06       		.uleb128 0x6
 3555 0110 C5000000 		.4byte	0xc5
 3556 0114 05       		.uleb128 0x5
 3557 0115 C6070000 		.4byte	.LASF24
 3558 0119 04       		.byte	0x4
ARM GAS  C:\Users\Diego\AppData\Local\Temp\cc9VkXHl.s 			page 90


 3559 011a F401     		.2byte	0x1f4
 3560 011c 20010000 		.4byte	0x120
 3561 0120 07       		.uleb128 0x7
 3562 0121 04       		.byte	0x4
 3563 0122 26010000 		.4byte	0x126
 3564 0126 08       		.uleb128 0x8
 3565 0127 02       		.uleb128 0x2
 3566 0128 04       		.byte	0x4
 3567 0129 07       		.byte	0x7
 3568 012a AA0B0000 		.4byte	.LASF25
 3569 012e 09       		.uleb128 0x9
 3570 012f AD000000 		.4byte	0xad
 3571 0133 3E010000 		.4byte	0x13e
 3572 0137 0A       		.uleb128 0xa
 3573 0138 27010000 		.4byte	0x127
 3574 013c 03       		.byte	0x3
 3575 013d 00       		.byte	0
 3576 013e 0B       		.uleb128 0xb
 3577 013f 23010000 		.4byte	.LASF74
 3578 0143 7102     		.2byte	0x271
 3579 0145 05       		.byte	0x5
 3580 0146 60       		.byte	0x60
 3581 0147 A0030000 		.4byte	0x3a0
 3582 014b 0C       		.uleb128 0xc
 3583 014c C7010000 		.4byte	.LASF26
 3584 0150 05       		.byte	0x5
 3585 0151 61       		.byte	0x61
 3586 0152 AD000000 		.4byte	0xad
 3587 0156 00       		.byte	0
 3588 0157 0C       		.uleb128 0xc
 3589 0158 2B040000 		.4byte	.LASF27
 3590 015c 05       		.byte	0x5
 3591 015d 62       		.byte	0x62
 3592 015e A0030000 		.4byte	0x3a0
 3593 0162 01       		.byte	0x1
 3594 0163 0C       		.uleb128 0xc
 3595 0164 910F0000 		.4byte	.LASF28
 3596 0168 05       		.byte	0x5
 3597 0169 63       		.byte	0x63
 3598 016a AD000000 		.4byte	0xad
 3599 016e 1A       		.byte	0x1a
 3600 016f 0C       		.uleb128 0xc
 3601 0170 780C0000 		.4byte	.LASF29
 3602 0174 05       		.byte	0x5
 3603 0175 64       		.byte	0x64
 3604 0176 AD000000 		.4byte	0xad
 3605 017a 1B       		.byte	0x1b
 3606 017b 0C       		.uleb128 0xc
 3607 017c 48020000 		.4byte	.LASF30
 3608 0180 05       		.byte	0x5
 3609 0181 65       		.byte	0x65
 3610 0182 B0030000 		.4byte	0x3b0
 3611 0186 1C       		.byte	0x1c
 3612 0187 0C       		.uleb128 0xc
 3613 0188 37090000 		.4byte	.LASF31
 3614 018c 05       		.byte	0x5
 3615 018d 66       		.byte	0x66
ARM GAS  C:\Users\Diego\AppData\Local\Temp\cc9VkXHl.s 			page 91


 3616 018e B0030000 		.4byte	0x3b0
 3617 0192 26       		.byte	0x26
 3618 0193 0C       		.uleb128 0xc
 3619 0194 FA0F0000 		.4byte	.LASF32
 3620 0198 05       		.byte	0x5
 3621 0199 67       		.byte	0x67
 3622 019a A0030000 		.4byte	0x3a0
 3623 019e 30       		.byte	0x30
 3624 019f 0C       		.uleb128 0xc
 3625 01a0 EC080000 		.4byte	.LASF33
 3626 01a4 05       		.byte	0x5
 3627 01a5 68       		.byte	0x68
 3628 01a6 AD000000 		.4byte	0xad
 3629 01aa 49       		.byte	0x49
 3630 01ab 0C       		.uleb128 0xc
 3631 01ac 7F0D0000 		.4byte	.LASF34
 3632 01b0 05       		.byte	0x5
 3633 01b1 69       		.byte	0x69
 3634 01b2 AD000000 		.4byte	0xad
 3635 01b6 4A       		.byte	0x4a
 3636 01b7 0C       		.uleb128 0xc
 3637 01b8 5A050000 		.4byte	.LASF35
 3638 01bc 05       		.byte	0x5
 3639 01bd 6A       		.byte	0x6a
 3640 01be C0030000 		.4byte	0x3c0
 3641 01c2 4B       		.byte	0x4b
 3642 01c3 0C       		.uleb128 0xc
 3643 01c4 BA070000 		.4byte	.LASF36
 3644 01c8 05       		.byte	0x5
 3645 01c9 6B       		.byte	0x6b
 3646 01ca AD000000 		.4byte	0xad
 3647 01ce 60       		.byte	0x60
 3648 01cf 0C       		.uleb128 0xc
 3649 01d0 33050000 		.4byte	.LASF37
 3650 01d4 05       		.byte	0x5
 3651 01d5 6C       		.byte	0x6c
 3652 01d6 AD000000 		.4byte	0xad
 3653 01da 61       		.byte	0x61
 3654 01db 0C       		.uleb128 0xc
 3655 01dc 4D010000 		.4byte	.LASF38
 3656 01e0 05       		.byte	0x5
 3657 01e1 6D       		.byte	0x6d
 3658 01e2 AD000000 		.4byte	0xad
 3659 01e6 62       		.byte	0x62
 3660 01e7 0C       		.uleb128 0xc
 3661 01e8 080E0000 		.4byte	.LASF39
 3662 01ec 05       		.byte	0x5
 3663 01ed 6E       		.byte	0x6e
 3664 01ee D0030000 		.4byte	0x3d0
 3665 01f2 63       		.byte	0x63
 3666 01f3 0C       		.uleb128 0xc
 3667 01f4 EE040000 		.4byte	.LASF40
 3668 01f8 05       		.byte	0x5
 3669 01f9 6F       		.byte	0x6f
 3670 01fa E0030000 		.4byte	0x3e0
 3671 01fe 65       		.byte	0x65
 3672 01ff 0C       		.uleb128 0xc
ARM GAS  C:\Users\Diego\AppData\Local\Temp\cc9VkXHl.s 			page 92


 3673 0200 08040000 		.4byte	.LASF41
 3674 0204 05       		.byte	0x5
 3675 0205 70       		.byte	0x70
 3676 0206 AD000000 		.4byte	0xad
 3677 020a 79       		.byte	0x79
 3678 020b 0C       		.uleb128 0xc
 3679 020c A10B0000 		.4byte	.LASF42
 3680 0210 05       		.byte	0x5
 3681 0211 71       		.byte	0x71
 3682 0212 F6030000 		.4byte	0x3f6
 3683 0216 7A       		.byte	0x7a
 3684 0217 0C       		.uleb128 0xc
 3685 0218 E10A0000 		.4byte	.LASF43
 3686 021c 05       		.byte	0x5
 3687 021d 72       		.byte	0x72
 3688 021e 06040000 		.4byte	0x406
 3689 0222 7F       		.byte	0x7f
 3690 0223 0C       		.uleb128 0xc
 3691 0224 BF0F0000 		.4byte	.LASF44
 3692 0228 05       		.byte	0x5
 3693 0229 73       		.byte	0x73
 3694 022a 06040000 		.4byte	0x406
 3695 022e 85       		.byte	0x85
 3696 022f 0C       		.uleb128 0xc
 3697 0230 04090000 		.4byte	.LASF45
 3698 0234 05       		.byte	0x5
 3699 0235 74       		.byte	0x74
 3700 0236 16040000 		.4byte	0x416
 3701 023a 8B       		.byte	0x8b
 3702 023b 0C       		.uleb128 0xc
 3703 023c 93030000 		.4byte	.LASF46
 3704 0240 05       		.byte	0x5
 3705 0241 75       		.byte	0x75
 3706 0242 16040000 		.4byte	0x416
 3707 0246 99       		.byte	0x99
 3708 0247 0C       		.uleb128 0xc
 3709 0248 60070000 		.4byte	.LASF47
 3710 024c 05       		.byte	0x5
 3711 024d 76       		.byte	0x76
 3712 024e 16040000 		.4byte	0x416
 3713 0252 A7       		.byte	0xa7
 3714 0253 0C       		.uleb128 0xc
 3715 0254 46060000 		.4byte	.LASF48
 3716 0258 05       		.byte	0x5
 3717 0259 77       		.byte	0x77
 3718 025a 16040000 		.4byte	0x416
 3719 025e B5       		.byte	0xb5
 3720 025f 0C       		.uleb128 0xc
 3721 0260 590B0000 		.4byte	.LASF49
 3722 0264 05       		.byte	0x5
 3723 0265 78       		.byte	0x78
 3724 0266 16040000 		.4byte	0x416
 3725 026a C3       		.byte	0xc3
 3726 026b 0C       		.uleb128 0xc
 3727 026c D5080000 		.4byte	.LASF50
 3728 0270 05       		.byte	0x5
 3729 0271 79       		.byte	0x79
ARM GAS  C:\Users\Diego\AppData\Local\Temp\cc9VkXHl.s 			page 93


 3730 0272 16040000 		.4byte	0x416
 3731 0276 D1       		.byte	0xd1
 3732 0277 0C       		.uleb128 0xc
 3733 0278 9C090000 		.4byte	.LASF51
 3734 027c 05       		.byte	0x5
 3735 027d 7A       		.byte	0x7a
 3736 027e 26040000 		.4byte	0x426
 3737 0282 DF       		.byte	0xdf
 3738 0283 0C       		.uleb128 0xc
 3739 0284 3D040000 		.4byte	.LASF52
 3740 0288 05       		.byte	0x5
 3741 0289 7B       		.byte	0x7b
 3742 028a 26040000 		.4byte	0x426
 3743 028e EA       		.byte	0xea
 3744 028f 0C       		.uleb128 0xc
 3745 0290 28050000 		.4byte	.LASF53
 3746 0294 05       		.byte	0x5
 3747 0295 7C       		.byte	0x7c
 3748 0296 26040000 		.4byte	0x426
 3749 029a F5       		.byte	0xf5
 3750 029b 0D       		.uleb128 0xd
 3751 029c D3070000 		.4byte	.LASF54
 3752 02a0 05       		.byte	0x5
 3753 02a1 7D       		.byte	0x7d
 3754 02a2 AD000000 		.4byte	0xad
 3755 02a6 0001     		.2byte	0x100
 3756 02a8 0D       		.uleb128 0xd
 3757 02a9 0C060000 		.4byte	.LASF55
 3758 02ad 05       		.byte	0x5
 3759 02ae 7E       		.byte	0x7e
 3760 02af AD000000 		.4byte	0xad
 3761 02b3 0101     		.2byte	0x101
 3762 02b5 0D       		.uleb128 0xd
 3763 02b6 90010000 		.4byte	.LASF56
 3764 02ba 05       		.byte	0x5
 3765 02bb 7F       		.byte	0x7f
 3766 02bc AD000000 		.4byte	0xad
 3767 02c0 0201     		.2byte	0x102
 3768 02c2 0D       		.uleb128 0xd
 3769 02c3 A00A0000 		.4byte	.LASF57
 3770 02c7 05       		.byte	0x5
 3771 02c8 80       		.byte	0x80
 3772 02c9 AD000000 		.4byte	0xad
 3773 02cd 0301     		.2byte	0x103
 3774 02cf 0D       		.uleb128 0xd
 3775 02d0 E9000000 		.4byte	.LASF58
 3776 02d4 05       		.byte	0x5
 3777 02d5 81       		.byte	0x81
 3778 02d6 36040000 		.4byte	0x436
 3779 02da 0401     		.2byte	0x104
 3780 02dc 0D       		.uleb128 0xd
 3781 02dd 56060000 		.4byte	.LASF59
 3782 02e1 05       		.byte	0x5
 3783 02e2 82       		.byte	0x82
 3784 02e3 B0030000 		.4byte	0x3b0
 3785 02e7 4501     		.2byte	0x145
 3786 02e9 0D       		.uleb128 0xd
ARM GAS  C:\Users\Diego\AppData\Local\Temp\cc9VkXHl.s 			page 94


 3787 02ea A4020000 		.4byte	.LASF60
 3788 02ee 05       		.byte	0x5
 3789 02ef 83       		.byte	0x83
 3790 02f0 B0030000 		.4byte	0x3b0
 3791 02f4 4F01     		.2byte	0x14f
 3792 02f6 0D       		.uleb128 0xd
 3793 02f7 3D060000 		.4byte	.LASF61
 3794 02fb 05       		.byte	0x5
 3795 02fc 84       		.byte	0x84
 3796 02fd B0030000 		.4byte	0x3b0
 3797 0301 5901     		.2byte	0x159
 3798 0303 0D       		.uleb128 0xd
 3799 0304 D4040000 		.4byte	.LASF62
 3800 0308 05       		.byte	0x5
 3801 0309 85       		.byte	0x85
 3802 030a 46040000 		.4byte	0x446
 3803 030e 6301     		.2byte	0x163
 3804 0310 0D       		.uleb128 0xd
 3805 0311 66010000 		.4byte	.LASF63
 3806 0315 05       		.byte	0x5
 3807 0316 86       		.byte	0x86
 3808 0317 46040000 		.4byte	0x446
 3809 031b AE01     		.2byte	0x1ae
 3810 031d 0D       		.uleb128 0xd
 3811 031e 55020000 		.4byte	.LASF64
 3812 0322 05       		.byte	0x5
 3813 0323 87       		.byte	0x87
 3814 0324 5C040000 		.4byte	0x45c
 3815 0328 F901     		.2byte	0x1f9
 3816 032a 0D       		.uleb128 0xd
 3817 032b 450C0000 		.4byte	.LASF65
 3818 032f 05       		.byte	0x5
 3819 0330 88       		.byte	0x88
 3820 0331 5C040000 		.4byte	0x45c
 3821 0335 0802     		.2byte	0x208
 3822 0337 0D       		.uleb128 0xd
 3823 0338 910D0000 		.4byte	.LASF66
 3824 033c 05       		.byte	0x5
 3825 033d 89       		.byte	0x89
 3826 033e 72040000 		.4byte	0x472
 3827 0342 1702     		.2byte	0x217
 3828 0344 0D       		.uleb128 0xd
 3829 0345 130E0000 		.4byte	.LASF67
 3830 0349 05       		.byte	0x5
 3831 034a 8A       		.byte	0x8a
 3832 034b 72040000 		.4byte	0x472
 3833 034f 3502     		.2byte	0x235
 3834 0351 0D       		.uleb128 0xd
 3835 0352 8E070000 		.4byte	.LASF68
 3836 0356 05       		.byte	0x5
 3837 0357 8B       		.byte	0x8b
 3838 0358 B0030000 		.4byte	0x3b0
 3839 035c 5302     		.2byte	0x253
 3840 035e 0D       		.uleb128 0xd
 3841 035f 0F0C0000 		.4byte	.LASF69
 3842 0363 05       		.byte	0x5
 3843 0364 8C       		.byte	0x8c
ARM GAS  C:\Users\Diego\AppData\Local\Temp\cc9VkXHl.s 			page 95


 3844 0365 AD000000 		.4byte	0xad
 3845 0369 5D02     		.2byte	0x25d
 3846 036b 0D       		.uleb128 0xd
 3847 036c A8090000 		.4byte	.LASF70
 3848 0370 05       		.byte	0x5
 3849 0371 8D       		.byte	0x8d
 3850 0372 88040000 		.4byte	0x488
 3851 0376 5E02     		.2byte	0x25e
 3852 0378 0D       		.uleb128 0xd
 3853 0379 77060000 		.4byte	.LASF71
 3854 037d 05       		.byte	0x5
 3855 037e 8E       		.byte	0x8e
 3856 037f D0030000 		.4byte	0x3d0
 3857 0383 6D02     		.2byte	0x26d
 3858 0385 0D       		.uleb128 0xd
 3859 0386 49040000 		.4byte	.LASF72
 3860 038a 05       		.byte	0x5
 3861 038b 8F       		.byte	0x8f
 3862 038c AD000000 		.4byte	0xad
 3863 0390 6F02     		.2byte	0x26f
 3864 0392 0D       		.uleb128 0xd
 3865 0393 6D040000 		.4byte	.LASF73
 3866 0397 05       		.byte	0x5
 3867 0398 90       		.byte	0x90
 3868 0399 AD000000 		.4byte	0xad
 3869 039d 7002     		.2byte	0x270
 3870 039f 00       		.byte	0
 3871 03a0 09       		.uleb128 0x9
 3872 03a1 AD000000 		.4byte	0xad
 3873 03a5 B0030000 		.4byte	0x3b0
 3874 03a9 0A       		.uleb128 0xa
 3875 03aa 27010000 		.4byte	0x127
 3876 03ae 18       		.byte	0x18
 3877 03af 00       		.byte	0
 3878 03b0 09       		.uleb128 0x9
 3879 03b1 AD000000 		.4byte	0xad
 3880 03b5 C0030000 		.4byte	0x3c0
 3881 03b9 0A       		.uleb128 0xa
 3882 03ba 27010000 		.4byte	0x127
 3883 03be 09       		.byte	0x9
 3884 03bf 00       		.byte	0
 3885 03c0 09       		.uleb128 0x9
 3886 03c1 AD000000 		.4byte	0xad
 3887 03c5 D0030000 		.4byte	0x3d0
 3888 03c9 0A       		.uleb128 0xa
 3889 03ca 27010000 		.4byte	0x127
 3890 03ce 14       		.byte	0x14
 3891 03cf 00       		.byte	0
 3892 03d0 09       		.uleb128 0x9
 3893 03d1 AD000000 		.4byte	0xad
 3894 03d5 E0030000 		.4byte	0x3e0
 3895 03d9 0A       		.uleb128 0xa
 3896 03da 27010000 		.4byte	0x127
 3897 03de 01       		.byte	0x1
 3898 03df 00       		.byte	0
 3899 03e0 09       		.uleb128 0x9
 3900 03e1 AD000000 		.4byte	0xad
ARM GAS  C:\Users\Diego\AppData\Local\Temp\cc9VkXHl.s 			page 96


 3901 03e5 F6030000 		.4byte	0x3f6
 3902 03e9 0A       		.uleb128 0xa
 3903 03ea 27010000 		.4byte	0x127
 3904 03ee 01       		.byte	0x1
 3905 03ef 0A       		.uleb128 0xa
 3906 03f0 27010000 		.4byte	0x127
 3907 03f4 09       		.byte	0x9
 3908 03f5 00       		.byte	0
 3909 03f6 09       		.uleb128 0x9
 3910 03f7 AD000000 		.4byte	0xad
 3911 03fb 06040000 		.4byte	0x406
 3912 03ff 0A       		.uleb128 0xa
 3913 0400 27010000 		.4byte	0x127
 3914 0404 04       		.byte	0x4
 3915 0405 00       		.byte	0
 3916 0406 09       		.uleb128 0x9
 3917 0407 AD000000 		.4byte	0xad
 3918 040b 16040000 		.4byte	0x416
 3919 040f 0A       		.uleb128 0xa
 3920 0410 27010000 		.4byte	0x127
 3921 0414 05       		.byte	0x5
 3922 0415 00       		.byte	0
 3923 0416 09       		.uleb128 0x9
 3924 0417 AD000000 		.4byte	0xad
 3925 041b 26040000 		.4byte	0x426
 3926 041f 0A       		.uleb128 0xa
 3927 0420 27010000 		.4byte	0x127
 3928 0424 0D       		.byte	0xd
 3929 0425 00       		.byte	0
 3930 0426 09       		.uleb128 0x9
 3931 0427 AD000000 		.4byte	0xad
 3932 042b 36040000 		.4byte	0x436
 3933 042f 0A       		.uleb128 0xa
 3934 0430 27010000 		.4byte	0x127
 3935 0434 0A       		.byte	0xa
 3936 0435 00       		.byte	0
 3937 0436 09       		.uleb128 0x9
 3938 0437 AD000000 		.4byte	0xad
 3939 043b 46040000 		.4byte	0x446
 3940 043f 0A       		.uleb128 0xa
 3941 0440 27010000 		.4byte	0x127
 3942 0444 40       		.byte	0x40
 3943 0445 00       		.byte	0
 3944 0446 09       		.uleb128 0x9
 3945 0447 AD000000 		.4byte	0xad
 3946 044b 5C040000 		.4byte	0x45c
 3947 044f 0A       		.uleb128 0xa
 3948 0450 27010000 		.4byte	0x127
 3949 0454 02       		.byte	0x2
 3950 0455 0A       		.uleb128 0xa
 3951 0456 27010000 		.4byte	0x127
 3952 045a 18       		.byte	0x18
 3953 045b 00       		.byte	0
 3954 045c 09       		.uleb128 0x9
 3955 045d AD000000 		.4byte	0xad
 3956 0461 72040000 		.4byte	0x472
 3957 0465 0A       		.uleb128 0xa
ARM GAS  C:\Users\Diego\AppData\Local\Temp\cc9VkXHl.s 			page 97


 3958 0466 27010000 		.4byte	0x127
 3959 046a 02       		.byte	0x2
 3960 046b 0A       		.uleb128 0xa
 3961 046c 27010000 		.4byte	0x127
 3962 0470 04       		.byte	0x4
 3963 0471 00       		.byte	0
 3964 0472 09       		.uleb128 0x9
 3965 0473 AD000000 		.4byte	0xad
 3966 0477 88040000 		.4byte	0x488
 3967 047b 0A       		.uleb128 0xa
 3968 047c 27010000 		.4byte	0x127
 3969 0480 02       		.byte	0x2
 3970 0481 0A       		.uleb128 0xa
 3971 0482 27010000 		.4byte	0x127
 3972 0486 09       		.byte	0x9
 3973 0487 00       		.byte	0
 3974 0488 09       		.uleb128 0x9
 3975 0489 AD000000 		.4byte	0xad
 3976 048d 98040000 		.4byte	0x498
 3977 0491 0A       		.uleb128 0xa
 3978 0492 27010000 		.4byte	0x127
 3979 0496 0E       		.byte	0xe
 3980 0497 00       		.byte	0
 3981 0498 0B       		.uleb128 0xb
 3982 0499 1F100000 		.4byte	.LASF75
 3983 049d 0301     		.2byte	0x103
 3984 049f 05       		.byte	0x5
 3985 04a0 A1       		.byte	0xa1
 3986 04a1 21050000 		.4byte	0x521
 3987 04a5 0E       		.uleb128 0xe
 3988 04a6 64697200 		.ascii	"dir\000"
 3989 04aa 05       		.byte	0x5
 3990 04ab A2       		.byte	0xa2
 3991 04ac AD000000 		.4byte	0xad
 3992 04b0 00       		.byte	0
 3993 04b1 0C       		.uleb128 0xc
 3994 04b2 E1040000 		.4byte	.LASF76
 3995 04b6 05       		.byte	0x5
 3996 04b7 A3       		.byte	0xa3
 3997 04b8 21050000 		.4byte	0x521
 3998 04bc 01       		.byte	0x1
 3999 04bd 0C       		.uleb128 0xc
 4000 04be EC0F0000 		.4byte	.LASF77
 4001 04c2 05       		.byte	0x5
 4002 04c3 A4       		.byte	0xa4
 4003 04c4 3D050000 		.4byte	0x53d
 4004 04c8 B5       		.byte	0xb5
 4005 04c9 0C       		.uleb128 0xc
 4006 04ca 9B060000 		.4byte	.LASF78
 4007 04ce 05       		.byte	0x5
 4008 04cf A5       		.byte	0xa5
 4009 04d0 16040000 		.4byte	0x416
 4010 04d4 D5       		.byte	0xd5
 4011 04d5 0C       		.uleb128 0xc
 4012 04d6 490E0000 		.4byte	.LASF79
 4013 04da 05       		.byte	0x5
 4014 04db A6       		.byte	0xa6
ARM GAS  C:\Users\Diego\AppData\Local\Temp\cc9VkXHl.s 			page 98


 4015 04dc 16040000 		.4byte	0x416
 4016 04e0 E3       		.byte	0xe3
 4017 04e1 0C       		.uleb128 0xc
 4018 04e2 0C070000 		.4byte	.LASF80
 4019 04e6 05       		.byte	0x5
 4020 04e7 A7       		.byte	0xa7
 4021 04e8 16040000 		.4byte	0x416
 4022 04ec F1       		.byte	0xf1
 4023 04ed 0C       		.uleb128 0xc
 4024 04ee 5B0F0000 		.4byte	.LASF81
 4025 04f2 05       		.byte	0x5
 4026 04f3 A8       		.byte	0xa8
 4027 04f4 AD000000 		.4byte	0xad
 4028 04f8 FF       		.byte	0xff
 4029 04f9 0D       		.uleb128 0xd
 4030 04fa E00B0000 		.4byte	.LASF82
 4031 04fe 05       		.byte	0x5
 4032 04ff A9       		.byte	0xa9
 4033 0500 AD000000 		.4byte	0xad
 4034 0504 0001     		.2byte	0x100
 4035 0506 0D       		.uleb128 0xd
 4036 0507 4E030000 		.4byte	.LASF83
 4037 050b 05       		.byte	0x5
 4038 050c AA       		.byte	0xaa
 4039 050d AD000000 		.4byte	0xad
 4040 0511 0101     		.2byte	0x101
 4041 0513 0D       		.uleb128 0xd
 4042 0514 F00A0000 		.4byte	.LASF84
 4043 0518 05       		.byte	0x5
 4044 0519 AB       		.byte	0xab
 4045 051a AD000000 		.4byte	0xad
 4046 051e 0201     		.2byte	0x102
 4047 0520 00       		.byte	0
 4048 0521 09       		.uleb128 0x9
 4049 0522 AD000000 		.4byte	0xad
 4050 0526 3D050000 		.4byte	0x53d
 4051 052a 0A       		.uleb128 0xa
 4052 052b 27010000 		.4byte	0x127
 4053 052f 03       		.byte	0x3
 4054 0530 0A       		.uleb128 0xa
 4055 0531 27010000 		.4byte	0x127
 4056 0535 02       		.byte	0x2
 4057 0536 0A       		.uleb128 0xa
 4058 0537 27010000 		.4byte	0x127
 4059 053b 0E       		.byte	0xe
 4060 053c 00       		.byte	0
 4061 053d 09       		.uleb128 0x9
 4062 053e AD000000 		.4byte	0xad
 4063 0542 53050000 		.4byte	0x553
 4064 0546 0A       		.uleb128 0xa
 4065 0547 27010000 		.4byte	0x127
 4066 054b 03       		.byte	0x3
 4067 054c 0A       		.uleb128 0xa
 4068 054d 27010000 		.4byte	0x127
 4069 0551 07       		.byte	0x7
 4070 0552 00       		.byte	0
 4071 0553 0B       		.uleb128 0xb
ARM GAS  C:\Users\Diego\AppData\Local\Temp\cc9VkXHl.s 			page 99


 4072 0554 DE0D0000 		.4byte	.LASF85
 4073 0558 0C04     		.2byte	0x40c
 4074 055a 05       		.byte	0x5
 4075 055b AE       		.byte	0xae
 4076 055c 8C050000 		.4byte	0x58c
 4077 0560 0E       		.uleb128 0xe
 4078 0561 6100     		.ascii	"a\000"
 4079 0563 05       		.byte	0x5
 4080 0564 AF       		.byte	0xaf
 4081 0565 98040000 		.4byte	0x498
 4082 0569 00       		.byte	0
 4083 056a 0F       		.uleb128 0xf
 4084 056b 6200     		.ascii	"b\000"
 4085 056d 05       		.byte	0x5
 4086 056e B0       		.byte	0xb0
 4087 056f 98040000 		.4byte	0x498
 4088 0573 0301     		.2byte	0x103
 4089 0575 0F       		.uleb128 0xf
 4090 0576 6300     		.ascii	"c\000"
 4091 0578 05       		.byte	0x5
 4092 0579 B1       		.byte	0xb1
 4093 057a 98040000 		.4byte	0x498
 4094 057e 0602     		.2byte	0x206
 4095 0580 0F       		.uleb128 0xf
 4096 0581 6400     		.ascii	"d\000"
 4097 0583 05       		.byte	0x5
 4098 0584 B2       		.byte	0xb2
 4099 0585 98040000 		.4byte	0x498
 4100 0589 0903     		.2byte	0x309
 4101 058b 00       		.byte	0
 4102 058c 10       		.uleb128 0x10
 4103 058d 210F0000 		.4byte	.LASF266
 4104 0591 01       		.byte	0x1
 4105 0592 05       		.byte	0x5
 4106 0593 C8       		.byte	0xc8
 4107 0594 05070000 		.4byte	0x705
 4108 0598 11       		.uleb128 0x11
 4109 0599 4D0F0000 		.4byte	.LASF86
 4110 059d 00       		.sleb128 0
 4111 059e 11       		.uleb128 0x11
 4112 059f B8050000 		.4byte	.LASF87
 4113 05a3 01       		.sleb128 1
 4114 05a4 11       		.uleb128 0x11
 4115 05a5 C8050000 		.4byte	.LASF88
 4116 05a9 02       		.sleb128 2
 4117 05aa 11       		.uleb128 0x11
 4118 05ab 57040000 		.4byte	.LASF89
 4119 05af 03       		.sleb128 3
 4120 05b0 11       		.uleb128 0x11
 4121 05b1 0D050000 		.4byte	.LASF90
 4122 05b5 04       		.sleb128 4
 4123 05b6 11       		.uleb128 0x11
 4124 05b7 DF050000 		.4byte	.LASF91
 4125 05bb 05       		.sleb128 5
 4126 05bc 11       		.uleb128 0x11
 4127 05bd 5F090000 		.4byte	.LASF92
 4128 05c1 06       		.sleb128 6
ARM GAS  C:\Users\Diego\AppData\Local\Temp\cc9VkXHl.s 			page 100


 4129 05c2 11       		.uleb128 0x11
 4130 05c3 0B020000 		.4byte	.LASF93
 4131 05c7 0F       		.sleb128 15
 4132 05c8 11       		.uleb128 0x11
 4133 05c9 A70E0000 		.4byte	.LASF94
 4134 05cd FE00     		.sleb128 126
 4135 05cf 11       		.uleb128 0x11
 4136 05d0 C40E0000 		.4byte	.LASF95
 4137 05d4 8601     		.sleb128 134
 4138 05d6 11       		.uleb128 0x11
 4139 05d7 D9060000 		.4byte	.LASF96
 4140 05db 07       		.sleb128 7
 4141 05dc 11       		.uleb128 0x11
 4142 05dd 47080000 		.4byte	.LASF97
 4143 05e1 08       		.sleb128 8
 4144 05e2 11       		.uleb128 0x11
 4145 05e3 C50B0000 		.4byte	.LASF98
 4146 05e7 09       		.sleb128 9
 4147 05e8 11       		.uleb128 0x11
 4148 05e9 17090000 		.4byte	.LASF99
 4149 05ed 0A       		.sleb128 10
 4150 05ee 11       		.uleb128 0x11
 4151 05ef BC020000 		.4byte	.LASF100
 4152 05f3 0B       		.sleb128 11
 4153 05f4 11       		.uleb128 0x11
 4154 05f5 15000000 		.4byte	.LASF101
 4155 05f9 25       		.sleb128 37
 4156 05fa 11       		.uleb128 0x11
 4157 05fb 9A070000 		.4byte	.LASF102
 4158 05ff 26       		.sleb128 38
 4159 0600 11       		.uleb128 0x11
 4160 0601 A5010000 		.4byte	.LASF103
 4161 0605 27       		.sleb128 39
 4162 0606 11       		.uleb128 0x11
 4163 0607 170A0000 		.4byte	.LASF104
 4164 060b 2F       		.sleb128 47
 4165 060c 11       		.uleb128 0x11
 4166 060d E6090000 		.4byte	.LASF105
 4167 0611 2C       		.sleb128 44
 4168 0612 11       		.uleb128 0x11
 4169 0613 CE0F0000 		.4byte	.LASF106
 4170 0617 0C       		.sleb128 12
 4171 0618 11       		.uleb128 0x11
 4172 0619 190B0000 		.4byte	.LASF107
 4173 061d 8501     		.sleb128 133
 4174 061f 11       		.uleb128 0x11
 4175 0620 230E0000 		.4byte	.LASF108
 4176 0624 1C       		.sleb128 28
 4177 0625 11       		.uleb128 0x11
 4178 0626 30030000 		.4byte	.LASF109
 4179 062a 12       		.sleb128 18
 4180 062b 11       		.uleb128 0x11
 4181 062c BF080000 		.4byte	.LASF110
 4182 0630 13       		.sleb128 19
 4183 0631 11       		.uleb128 0x11
 4184 0632 AC0A0000 		.4byte	.LASF111
 4185 0636 24       		.sleb128 36
ARM GAS  C:\Users\Diego\AppData\Local\Temp\cc9VkXHl.s 			page 101


 4186 0637 11       		.uleb128 0x11
 4187 0638 78030000 		.4byte	.LASF112
 4188 063c 0D       		.sleb128 13
 4189 063d 11       		.uleb128 0x11
 4190 063e 1E060000 		.4byte	.LASF113
 4191 0642 0E       		.sleb128 14
 4192 0643 11       		.uleb128 0x11
 4193 0644 2C0B0000 		.4byte	.LASF114
 4194 0648 8301     		.sleb128 131
 4195 064a 11       		.uleb128 0x11
 4196 064b A7030000 		.4byte	.LASF115
 4197 064f DA00     		.sleb128 90
 4198 0651 11       		.uleb128 0x11
 4199 0652 6F0F0000 		.4byte	.LASF116
 4200 0656 31       		.sleb128 49
 4201 0657 11       		.uleb128 0x11
 4202 0658 C60A0000 		.4byte	.LASF117
 4203 065c 35       		.sleb128 53
 4204 065d 11       		.uleb128 0x11
 4205 065e B90C0000 		.4byte	.LASF118
 4206 0662 2E       		.sleb128 46
 4207 0663 11       		.uleb128 0x11
 4208 0664 630D0000 		.4byte	.LASF119
 4209 0668 8C01     		.sleb128 140
 4210 066a 11       		.uleb128 0x11
 4211 066b CA030000 		.4byte	.LASF120
 4212 066f 9601     		.sleb128 150
 4213 0671 11       		.uleb128 0x11
 4214 0672 4C0A0000 		.4byte	.LASF121
 4215 0676 39       		.sleb128 57
 4216 0677 11       		.uleb128 0x11
 4217 0678 E7020000 		.4byte	.LASF122
 4218 067c 9701     		.sleb128 151
 4219 067e 11       		.uleb128 0x11
 4220 067f 4F000000 		.4byte	.LASF123
 4221 0683 9801     		.sleb128 152
 4222 0685 11       		.uleb128 0x11
 4223 0686 2E0A0000 		.4byte	.LASF124
 4224 068a 3E       		.sleb128 62
 4225 068b 11       		.uleb128 0x11
 4226 068c 08000000 		.4byte	.LASF125
 4227 0690 3F       		.sleb128 63
 4228 0691 11       		.uleb128 0x11
 4229 0692 51090000 		.4byte	.LASF126
 4230 0696 C000     		.sleb128 64
 4231 0698 11       		.uleb128 0x11
 4232 0699 A20D0000 		.4byte	.LASF127
 4233 069d 8D01     		.sleb128 141
 4234 069f 11       		.uleb128 0x11
 4235 06a0 4C070000 		.4byte	.LASF128
 4236 06a4 23       		.sleb128 35
 4237 06a5 11       		.uleb128 0x11
 4238 06a6 E30D0000 		.4byte	.LASF129
 4239 06aa 2A       		.sleb128 42
 4240 06ab 11       		.uleb128 0x11
 4241 06ac 610C0000 		.4byte	.LASF130
 4242 06b0 2B       		.sleb128 43
ARM GAS  C:\Users\Diego\AppData\Local\Temp\cc9VkXHl.s 			page 102


 4243 06b1 11       		.uleb128 0x11
 4244 06b2 980C0000 		.4byte	.LASF131
 4245 06b6 3C       		.sleb128 60
 4246 06b7 11       		.uleb128 0x11
 4247 06b8 FE090000 		.4byte	.LASF132
 4248 06bc C100     		.sleb128 65
 4249 06be 11       		.uleb128 0x11
 4250 06bf 0B030000 		.4byte	.LASF133
 4251 06c3 EB00     		.sleb128 107
 4252 06c5 11       		.uleb128 0x11
 4253 06c6 2E000000 		.4byte	.LASF134
 4254 06ca E700     		.sleb128 103
 4255 06cc 11       		.uleb128 0x11
 4256 06cd ED060000 		.4byte	.LASF135
 4257 06d1 E400     		.sleb128 100
 4258 06d3 11       		.uleb128 0x11
 4259 06d4 F1000000 		.4byte	.LASF136
 4260 06d8 E500     		.sleb128 101
 4261 06da 11       		.uleb128 0x11
 4262 06db 5F0E0000 		.4byte	.LASF137
 4263 06df 9901     		.sleb128 153
 4264 06e1 11       		.uleb128 0x11
 4265 06e2 6E0E0000 		.4byte	.LASF138
 4266 06e6 9A01     		.sleb128 154
 4267 06e8 11       		.uleb128 0x11
 4268 06e9 7D0E0000 		.4byte	.LASF139
 4269 06ed 9B01     		.sleb128 155
 4270 06ef 11       		.uleb128 0x11
 4271 06f0 8C0E0000 		.4byte	.LASF140
 4272 06f4 9C01     		.sleb128 156
 4273 06f6 11       		.uleb128 0x11
 4274 06f7 CE010000 		.4byte	.LASF141
 4275 06fb FA01     		.sleb128 250
 4276 06fd 11       		.uleb128 0x11
 4277 06fe 81070000 		.4byte	.LASF142
 4278 0702 FF01     		.sleb128 255
 4279 0704 00       		.byte	0
 4280 0705 12       		.uleb128 0x12
 4281 0706 3C050000 		.4byte	.LASF159
 4282 070a 01       		.byte	0x1
 4283 070b 7403     		.2byte	0x374
 4284 070d 00000000 		.4byte	.LFB72
 4285 0711 14000000 		.4byte	.LFE72-.LFB72
 4286 0715 01       		.uleb128 0x1
 4287 0716 9C       		.byte	0x9c
 4288 0717 25070000 		.4byte	0x725
 4289 071b 13       		.uleb128 0x13
 4290 071c 06000000 		.4byte	.LVL0
 4291 0720 E01D0000 		.4byte	0x1de0
 4292 0724 00       		.byte	0
 4293 0725 14       		.uleb128 0x14
 4294 0726 BE000000 		.4byte	.LASF143
 4295 072a 01       		.byte	0x1
 4296 072b 1C       		.byte	0x1c
 4297 072c 00000000 		.4byte	.LFB63
 4298 0730 20000000 		.4byte	.LFE63-.LFB63
 4299 0734 01       		.uleb128 0x1
ARM GAS  C:\Users\Diego\AppData\Local\Temp\cc9VkXHl.s 			page 103


 4300 0735 9C       		.byte	0x9c
 4301 0736 7A070000 		.4byte	0x77a
 4302 073a 13       		.uleb128 0x13
 4303 073b 06000000 		.4byte	.LVL1
 4304 073f EB1D0000 		.4byte	0x1deb
 4305 0743 13       		.uleb128 0x13
 4306 0744 0A000000 		.4byte	.LVL2
 4307 0748 F21D0000 		.4byte	0x1df2
 4308 074c 13       		.uleb128 0x13
 4309 074d 0E000000 		.4byte	.LVL3
 4310 0751 F91D0000 		.4byte	0x1df9
 4311 0755 13       		.uleb128 0x13
 4312 0756 12000000 		.4byte	.LVL4
 4313 075a 001E0000 		.4byte	0x1e00
 4314 075e 13       		.uleb128 0x13
 4315 075f 16000000 		.4byte	.LVL5
 4316 0763 071E0000 		.4byte	0x1e07
 4317 0767 13       		.uleb128 0x13
 4318 0768 1A000000 		.4byte	.LVL6
 4319 076c 0E1E0000 		.4byte	0x1e0e
 4320 0770 13       		.uleb128 0x13
 4321 0771 1E000000 		.4byte	.LVL7
 4322 0775 151E0000 		.4byte	0x1e15
 4323 0779 00       		.byte	0
 4324 077a 14       		.uleb128 0x14
 4325 077b 0E0F0000 		.4byte	.LASF144
 4326 077f 01       		.byte	0x1
 4327 0780 26       		.byte	0x26
 4328 0781 00000000 		.4byte	.LFB64
 4329 0785 74000000 		.4byte	.LFE64-.LFB64
 4330 0789 01       		.uleb128 0x1
 4331 078a 9C       		.byte	0x9c
 4332 078b 24080000 		.4byte	0x824
 4333 078f 15       		.uleb128 0x15
 4334 0790 0C000000 		.4byte	.LVL8
 4335 0794 1C1E0000 		.4byte	0x1e1c
 4336 0798 A2070000 		.4byte	0x7a2
 4337 079c 16       		.uleb128 0x16
 4338 079d 01       		.uleb128 0x1
 4339 079e 51       		.byte	0x51
 4340 079f 01       		.uleb128 0x1
 4341 07a0 30       		.byte	0x30
 4342 07a1 00       		.byte	0
 4343 07a2 15       		.uleb128 0x15
 4344 07a3 16000000 		.4byte	.LVL9
 4345 07a7 1C1E0000 		.4byte	0x1e1c
 4346 07ab B5070000 		.4byte	0x7b5
 4347 07af 16       		.uleb128 0x16
 4348 07b0 01       		.uleb128 0x1
 4349 07b1 51       		.byte	0x51
 4350 07b2 01       		.uleb128 0x1
 4351 07b3 31       		.byte	0x31
 4352 07b4 00       		.byte	0
 4353 07b5 15       		.uleb128 0x15
 4354 07b6 20000000 		.4byte	.LVL10
 4355 07ba 1C1E0000 		.4byte	0x1e1c
 4356 07be C8070000 		.4byte	0x7c8
ARM GAS  C:\Users\Diego\AppData\Local\Temp\cc9VkXHl.s 			page 104


 4357 07c2 16       		.uleb128 0x16
 4358 07c3 01       		.uleb128 0x1
 4359 07c4 51       		.byte	0x51
 4360 07c5 01       		.uleb128 0x1
 4361 07c6 32       		.byte	0x32
 4362 07c7 00       		.byte	0
 4363 07c8 15       		.uleb128 0x15
 4364 07c9 2A000000 		.4byte	.LVL11
 4365 07cd 1C1E0000 		.4byte	0x1e1c
 4366 07d1 DB070000 		.4byte	0x7db
 4367 07d5 16       		.uleb128 0x16
 4368 07d6 01       		.uleb128 0x1
 4369 07d7 51       		.byte	0x51
 4370 07d8 01       		.uleb128 0x1
 4371 07d9 33       		.byte	0x33
 4372 07da 00       		.byte	0
 4373 07db 15       		.uleb128 0x15
 4374 07dc 34000000 		.4byte	.LVL12
 4375 07e0 1C1E0000 		.4byte	0x1e1c
 4376 07e4 EE070000 		.4byte	0x7ee
 4377 07e8 16       		.uleb128 0x16
 4378 07e9 01       		.uleb128 0x1
 4379 07ea 51       		.byte	0x51
 4380 07eb 01       		.uleb128 0x1
 4381 07ec 34       		.byte	0x34
 4382 07ed 00       		.byte	0
 4383 07ee 15       		.uleb128 0x15
 4384 07ef 3E000000 		.4byte	.LVL13
 4385 07f3 1C1E0000 		.4byte	0x1e1c
 4386 07f7 01080000 		.4byte	0x801
 4387 07fb 16       		.uleb128 0x16
 4388 07fc 01       		.uleb128 0x1
 4389 07fd 51       		.byte	0x51
 4390 07fe 01       		.uleb128 0x1
 4391 07ff 35       		.byte	0x35
 4392 0800 00       		.byte	0
 4393 0801 15       		.uleb128 0x15
 4394 0802 48000000 		.4byte	.LVL14
 4395 0806 1C1E0000 		.4byte	0x1e1c
 4396 080a 14080000 		.4byte	0x814
 4397 080e 16       		.uleb128 0x16
 4398 080f 01       		.uleb128 0x1
 4399 0810 51       		.byte	0x51
 4400 0811 01       		.uleb128 0x1
 4401 0812 36       		.byte	0x36
 4402 0813 00       		.byte	0
 4403 0814 17       		.uleb128 0x17
 4404 0815 54000000 		.4byte	.LVL15
 4405 0819 1C1E0000 		.4byte	0x1e1c
 4406 081d 16       		.uleb128 0x16
 4407 081e 01       		.uleb128 0x1
 4408 081f 51       		.byte	0x51
 4409 0820 01       		.uleb128 0x1
 4410 0821 37       		.byte	0x37
 4411 0822 00       		.byte	0
 4412 0823 00       		.byte	0
 4413 0824 14       		.uleb128 0x14
ARM GAS  C:\Users\Diego\AppData\Local\Temp\cc9VkXHl.s 			page 105


 4414 0825 E0070000 		.4byte	.LASF145
 4415 0829 01       		.byte	0x1
 4416 082a 39       		.byte	0x39
 4417 082b 00000000 		.4byte	.LFB65
 4418 082f 8C020000 		.4byte	.LFE65-.LFB65
 4419 0833 01       		.uleb128 0x1
 4420 0834 9C       		.byte	0x9c
 4421 0835 130B0000 		.4byte	0xb13
 4422 0839 18       		.uleb128 0x18
 4423 083a B2070000 		.4byte	.LASF146
 4424 083e 01       		.byte	0x1
 4425 083f 3A       		.byte	0x3a
 4426 0840 130B0000 		.4byte	0xb13
 4427 0844 02       		.uleb128 0x2
 4428 0845 91       		.byte	0x91
 4429 0846 6C       		.sleb128 -20
 4430 0847 18       		.uleb128 0x18
 4431 0848 53030000 		.4byte	.LASF147
 4432 084c 01       		.byte	0x1
 4433 084d 3B       		.byte	0x3b
 4434 084e 130B0000 		.4byte	0xb13
 4435 0852 02       		.uleb128 0x2
 4436 0853 91       		.byte	0x91
 4437 0854 60       		.sleb128 -32
 4438 0855 18       		.uleb128 0x18
 4439 0856 8A010000 		.4byte	.LASF148
 4440 085a 01       		.byte	0x1
 4441 085b 3C       		.byte	0x3c
 4442 085c 130B0000 		.4byte	0xb13
 4443 0860 02       		.uleb128 0x2
 4444 0861 91       		.byte	0x91
 4445 0862 54       		.sleb128 -44
 4446 0863 18       		.uleb128 0x18
 4447 0864 34020000 		.4byte	.LASF149
 4448 0868 01       		.byte	0x1
 4449 0869 3D       		.byte	0x3d
 4450 086a 130B0000 		.4byte	0xb13
 4451 086e 02       		.uleb128 0x2
 4452 086f 91       		.byte	0x91
 4453 0870 48       		.sleb128 -56
 4454 0871 18       		.uleb128 0x18
 4455 0872 9F010000 		.4byte	.LASF150
 4456 0876 01       		.byte	0x1
 4457 0877 3E       		.byte	0x3e
 4458 0878 130B0000 		.4byte	0xb13
 4459 087c 03       		.uleb128 0x3
 4460 087d 91       		.byte	0x91
 4461 087e BC7F     		.sleb128 -68
 4462 0880 18       		.uleb128 0x18
 4463 0881 77040000 		.4byte	.LASF151
 4464 0885 01       		.byte	0x1
 4465 0886 3F       		.byte	0x3f
 4466 0887 130B0000 		.4byte	0xb13
 4467 088b 03       		.uleb128 0x3
 4468 088c 91       		.byte	0x91
 4469 088d B07F     		.sleb128 -80
 4470 088f 18       		.uleb128 0x18
ARM GAS  C:\Users\Diego\AppData\Local\Temp\cc9VkXHl.s 			page 106


 4471 0890 80060000 		.4byte	.LASF152
 4472 0894 01       		.byte	0x1
 4473 0895 40       		.byte	0x40
 4474 0896 130B0000 		.4byte	0xb13
 4475 089a 03       		.uleb128 0x3
 4476 089b 91       		.byte	0x91
 4477 089c A47F     		.sleb128 -92
 4478 089e 18       		.uleb128 0x18
 4479 089f 91040000 		.4byte	.LASF153
 4480 08a3 01       		.byte	0x1
 4481 08a4 41       		.byte	0x41
 4482 08a5 130B0000 		.4byte	0xb13
 4483 08a9 03       		.uleb128 0x3
 4484 08aa 91       		.byte	0x91
 4485 08ab 987F     		.sleb128 -104
 4486 08ad 18       		.uleb128 0x18
 4487 08ae 9E040000 		.4byte	.LASF154
 4488 08b2 01       		.byte	0x1
 4489 08b3 42       		.byte	0x42
 4490 08b4 130B0000 		.4byte	0xb13
 4491 08b8 03       		.uleb128 0x3
 4492 08b9 91       		.byte	0x91
 4493 08ba 8C7F     		.sleb128 -116
 4494 08bc 15       		.uleb128 0x15
 4495 08bd 86000000 		.4byte	.LVL16
 4496 08c1 361E0000 		.4byte	0x1e36
 4497 08c5 D4080000 		.4byte	0x8d4
 4498 08c9 16       		.uleb128 0x16
 4499 08ca 01       		.uleb128 0x1
 4500 08cb 51       		.byte	0x51
 4501 08cc 01       		.uleb128 0x1
 4502 08cd 31       		.byte	0x31
 4503 08ce 16       		.uleb128 0x16
 4504 08cf 01       		.uleb128 0x1
 4505 08d0 50       		.byte	0x50
 4506 08d1 01       		.uleb128 0x1
 4507 08d2 31       		.byte	0x31
 4508 08d3 00       		.byte	0
 4509 08d4 15       		.uleb128 0x15
 4510 08d5 90000000 		.4byte	.LVL17
 4511 08d9 4C1E0000 		.4byte	0x1e4c
 4512 08dd F2080000 		.4byte	0x8f2
 4513 08e1 16       		.uleb128 0x16
 4514 08e2 01       		.uleb128 0x1
 4515 08e3 52       		.byte	0x52
 4516 08e4 01       		.uleb128 0x1
 4517 08e5 30       		.byte	0x30
 4518 08e6 16       		.uleb128 0x16
 4519 08e7 01       		.uleb128 0x1
 4520 08e8 51       		.byte	0x51
 4521 08e9 02       		.uleb128 0x2
 4522 08ea 91       		.byte	0x91
 4523 08eb 6C       		.sleb128 -20
 4524 08ec 16       		.uleb128 0x16
 4525 08ed 01       		.uleb128 0x1
 4526 08ee 50       		.byte	0x50
 4527 08ef 01       		.uleb128 0x1
ARM GAS  C:\Users\Diego\AppData\Local\Temp\cc9VkXHl.s 			page 107


 4528 08f0 31       		.byte	0x31
 4529 08f1 00       		.byte	0
 4530 08f2 15       		.uleb128 0x15
 4531 08f3 98000000 		.4byte	.LVL18
 4532 08f7 6D1E0000 		.4byte	0x1e6d
 4533 08fb 07090000 		.4byte	0x907
 4534 08ff 16       		.uleb128 0x16
 4535 0900 01       		.uleb128 0x1
 4536 0901 50       		.byte	0x50
 4537 0902 03       		.uleb128 0x3
 4538 0903 0A       		.byte	0xa
 4539 0904 2C01     		.2byte	0x12c
 4540 0906 00       		.byte	0
 4541 0907 15       		.uleb128 0x15
 4542 0908 B6000000 		.4byte	.LVL19
 4543 090c 4C1E0000 		.4byte	0x1e4c
 4544 0910 25090000 		.4byte	0x925
 4545 0914 16       		.uleb128 0x16
 4546 0915 01       		.uleb128 0x1
 4547 0916 52       		.byte	0x52
 4548 0917 01       		.uleb128 0x1
 4549 0918 30       		.byte	0x30
 4550 0919 16       		.uleb128 0x16
 4551 091a 01       		.uleb128 0x1
 4552 091b 51       		.byte	0x51
 4553 091c 02       		.uleb128 0x2
 4554 091d 91       		.byte	0x91
 4555 091e 60       		.sleb128 -32
 4556 091f 16       		.uleb128 0x16
 4557 0920 01       		.uleb128 0x1
 4558 0921 50       		.byte	0x50
 4559 0922 01       		.uleb128 0x1
 4560 0923 31       		.byte	0x31
 4561 0924 00       		.byte	0
 4562 0925 15       		.uleb128 0x15
 4563 0926 D6000000 		.4byte	.LVL20
 4564 092a 4C1E0000 		.4byte	0x1e4c
 4565 092e 43090000 		.4byte	0x943
 4566 0932 16       		.uleb128 0x16
 4567 0933 01       		.uleb128 0x1
 4568 0934 52       		.byte	0x52
 4569 0935 01       		.uleb128 0x1
 4570 0936 30       		.byte	0x30
 4571 0937 16       		.uleb128 0x16
 4572 0938 01       		.uleb128 0x1
 4573 0939 51       		.byte	0x51
 4574 093a 02       		.uleb128 0x2
 4575 093b 91       		.byte	0x91
 4576 093c 54       		.sleb128 -44
 4577 093d 16       		.uleb128 0x16
 4578 093e 01       		.uleb128 0x1
 4579 093f 50       		.byte	0x50
 4580 0940 01       		.uleb128 0x1
 4581 0941 31       		.byte	0x31
 4582 0942 00       		.byte	0
 4583 0943 15       		.uleb128 0x15
 4584 0944 F6000000 		.4byte	.LVL21
ARM GAS  C:\Users\Diego\AppData\Local\Temp\cc9VkXHl.s 			page 108


 4585 0948 4C1E0000 		.4byte	0x1e4c
 4586 094c 61090000 		.4byte	0x961
 4587 0950 16       		.uleb128 0x16
 4588 0951 01       		.uleb128 0x1
 4589 0952 52       		.byte	0x52
 4590 0953 01       		.uleb128 0x1
 4591 0954 30       		.byte	0x30
 4592 0955 16       		.uleb128 0x16
 4593 0956 01       		.uleb128 0x1
 4594 0957 51       		.byte	0x51
 4595 0958 02       		.uleb128 0x2
 4596 0959 91       		.byte	0x91
 4597 095a 48       		.sleb128 -56
 4598 095b 16       		.uleb128 0x16
 4599 095c 01       		.uleb128 0x1
 4600 095d 50       		.byte	0x50
 4601 095e 01       		.uleb128 0x1
 4602 095f 31       		.byte	0x31
 4603 0960 00       		.byte	0
 4604 0961 15       		.uleb128 0x15
 4605 0962 16010000 		.4byte	.LVL22
 4606 0966 4C1E0000 		.4byte	0x1e4c
 4607 096a 80090000 		.4byte	0x980
 4608 096e 16       		.uleb128 0x16
 4609 096f 01       		.uleb128 0x1
 4610 0970 52       		.byte	0x52
 4611 0971 01       		.uleb128 0x1
 4612 0972 30       		.byte	0x30
 4613 0973 16       		.uleb128 0x16
 4614 0974 01       		.uleb128 0x1
 4615 0975 51       		.byte	0x51
 4616 0976 03       		.uleb128 0x3
 4617 0977 91       		.byte	0x91
 4618 0978 BC7F     		.sleb128 -68
 4619 097a 16       		.uleb128 0x16
 4620 097b 01       		.uleb128 0x1
 4621 097c 50       		.byte	0x50
 4622 097d 01       		.uleb128 0x1
 4623 097e 31       		.byte	0x31
 4624 097f 00       		.byte	0
 4625 0980 15       		.uleb128 0x15
 4626 0981 26010000 		.4byte	.LVL23
 4627 0985 4C1E0000 		.4byte	0x1e4c
 4628 0989 9F090000 		.4byte	0x99f
 4629 098d 16       		.uleb128 0x16
 4630 098e 01       		.uleb128 0x1
 4631 098f 52       		.byte	0x52
 4632 0990 01       		.uleb128 0x1
 4633 0991 46       		.byte	0x46
 4634 0992 16       		.uleb128 0x16
 4635 0993 01       		.uleb128 0x1
 4636 0994 51       		.byte	0x51
 4637 0995 03       		.uleb128 0x3
 4638 0996 91       		.byte	0x91
 4639 0997 B07F     		.sleb128 -80
 4640 0999 16       		.uleb128 0x16
 4641 099a 01       		.uleb128 0x1
ARM GAS  C:\Users\Diego\AppData\Local\Temp\cc9VkXHl.s 			page 109


 4642 099b 50       		.byte	0x50
 4643 099c 01       		.uleb128 0x1
 4644 099d 31       		.byte	0x31
 4645 099e 00       		.byte	0
 4646 099f 15       		.uleb128 0x15
 4647 09a0 3E010000 		.4byte	.LVL24
 4648 09a4 4C1E0000 		.4byte	0x1e4c
 4649 09a8 BE090000 		.4byte	0x9be
 4650 09ac 16       		.uleb128 0x16
 4651 09ad 01       		.uleb128 0x1
 4652 09ae 52       		.byte	0x52
 4653 09af 01       		.uleb128 0x1
 4654 09b0 46       		.byte	0x46
 4655 09b1 16       		.uleb128 0x16
 4656 09b2 01       		.uleb128 0x1
 4657 09b3 51       		.byte	0x51
 4658 09b4 03       		.uleb128 0x3
 4659 09b5 91       		.byte	0x91
 4660 09b6 A47F     		.sleb128 -92
 4661 09b8 16       		.uleb128 0x16
 4662 09b9 01       		.uleb128 0x1
 4663 09ba 50       		.byte	0x50
 4664 09bb 01       		.uleb128 0x1
 4665 09bc 31       		.byte	0x31
 4666 09bd 00       		.byte	0
 4667 09be 15       		.uleb128 0x15
 4668 09bf 56010000 		.4byte	.LVL25
 4669 09c3 4C1E0000 		.4byte	0x1e4c
 4670 09c7 DD090000 		.4byte	0x9dd
 4671 09cb 16       		.uleb128 0x16
 4672 09cc 01       		.uleb128 0x1
 4673 09cd 52       		.byte	0x52
 4674 09ce 01       		.uleb128 0x1
 4675 09cf 46       		.byte	0x46
 4676 09d0 16       		.uleb128 0x16
 4677 09d1 01       		.uleb128 0x1
 4678 09d2 51       		.byte	0x51
 4679 09d3 03       		.uleb128 0x3
 4680 09d4 91       		.byte	0x91
 4681 09d5 987F     		.sleb128 -104
 4682 09d7 16       		.uleb128 0x16
 4683 09d8 01       		.uleb128 0x1
 4684 09d9 50       		.byte	0x50
 4685 09da 01       		.uleb128 0x1
 4686 09db 31       		.byte	0x31
 4687 09dc 00       		.byte	0
 4688 09dd 15       		.uleb128 0x15
 4689 09de 6E010000 		.4byte	.LVL26
 4690 09e2 4C1E0000 		.4byte	0x1e4c
 4691 09e6 FB090000 		.4byte	0x9fb
 4692 09ea 16       		.uleb128 0x16
 4693 09eb 01       		.uleb128 0x1
 4694 09ec 52       		.byte	0x52
 4695 09ed 01       		.uleb128 0x1
 4696 09ee 46       		.byte	0x46
 4697 09ef 16       		.uleb128 0x16
 4698 09f0 01       		.uleb128 0x1
ARM GAS  C:\Users\Diego\AppData\Local\Temp\cc9VkXHl.s 			page 110


 4699 09f1 51       		.byte	0x51
 4700 09f2 02       		.uleb128 0x2
 4701 09f3 74       		.byte	0x74
 4702 09f4 78       		.sleb128 -8
 4703 09f5 16       		.uleb128 0x16
 4704 09f6 01       		.uleb128 0x1
 4705 09f7 50       		.byte	0x50
 4706 09f8 01       		.uleb128 0x1
 4707 09f9 31       		.byte	0x31
 4708 09fa 00       		.byte	0
 4709 09fb 15       		.uleb128 0x15
 4710 09fc 84010000 		.4byte	.LVL27
 4711 0a00 361E0000 		.4byte	0x1e36
 4712 0a04 140A0000 		.4byte	0xa14
 4713 0a08 16       		.uleb128 0x16
 4714 0a09 01       		.uleb128 0x1
 4715 0a0a 51       		.byte	0x51
 4716 0a0b 02       		.uleb128 0x2
 4717 0a0c 08       		.byte	0x8
 4718 0a0d 2E       		.byte	0x2e
 4719 0a0e 16       		.uleb128 0x16
 4720 0a0f 01       		.uleb128 0x1
 4721 0a10 50       		.byte	0x50
 4722 0a11 01       		.uleb128 0x1
 4723 0a12 31       		.byte	0x31
 4724 0a13 00       		.byte	0
 4725 0a14 15       		.uleb128 0x15
 4726 0a15 8E010000 		.4byte	.LVL28
 4727 0a19 4C1E0000 		.4byte	0x1e4c
 4728 0a1d 320A0000 		.4byte	0xa32
 4729 0a21 16       		.uleb128 0x16
 4730 0a22 01       		.uleb128 0x1
 4731 0a23 52       		.byte	0x52
 4732 0a24 01       		.uleb128 0x1
 4733 0a25 30       		.byte	0x30
 4734 0a26 16       		.uleb128 0x16
 4735 0a27 01       		.uleb128 0x1
 4736 0a28 51       		.byte	0x51
 4737 0a29 02       		.uleb128 0x2
 4738 0a2a 91       		.byte	0x91
 4739 0a2b 6C       		.sleb128 -20
 4740 0a2c 16       		.uleb128 0x16
 4741 0a2d 01       		.uleb128 0x1
 4742 0a2e 50       		.byte	0x50
 4743 0a2f 01       		.uleb128 0x1
 4744 0a30 31       		.byte	0x31
 4745 0a31 00       		.byte	0
 4746 0a32 15       		.uleb128 0x15
 4747 0a33 96010000 		.4byte	.LVL29
 4748 0a37 6D1E0000 		.4byte	0x1e6d
 4749 0a3b 470A0000 		.4byte	0xa47
 4750 0a3f 16       		.uleb128 0x16
 4751 0a40 01       		.uleb128 0x1
 4752 0a41 50       		.byte	0x50
 4753 0a42 03       		.uleb128 0x3
 4754 0a43 0A       		.byte	0xa
 4755 0a44 2C01     		.2byte	0x12c
ARM GAS  C:\Users\Diego\AppData\Local\Temp\cc9VkXHl.s 			page 111


 4756 0a46 00       		.byte	0
 4757 0a47 15       		.uleb128 0x15
 4758 0a48 BC010000 		.4byte	.LVL30
 4759 0a4c 4C1E0000 		.4byte	0x1e4c
 4760 0a50 650A0000 		.4byte	0xa65
 4761 0a54 16       		.uleb128 0x16
 4762 0a55 01       		.uleb128 0x1
 4763 0a56 52       		.byte	0x52
 4764 0a57 01       		.uleb128 0x1
 4765 0a58 30       		.byte	0x30
 4766 0a59 16       		.uleb128 0x16
 4767 0a5a 01       		.uleb128 0x1
 4768 0a5b 51       		.byte	0x51
 4769 0a5c 02       		.uleb128 0x2
 4770 0a5d 91       		.byte	0x91
 4771 0a5e 60       		.sleb128 -32
 4772 0a5f 16       		.uleb128 0x16
 4773 0a60 01       		.uleb128 0x1
 4774 0a61 50       		.byte	0x50
 4775 0a62 01       		.uleb128 0x1
 4776 0a63 31       		.byte	0x31
 4777 0a64 00       		.byte	0
 4778 0a65 15       		.uleb128 0x15
 4779 0a66 E4010000 		.4byte	.LVL31
 4780 0a6a 4C1E0000 		.4byte	0x1e4c
 4781 0a6e 830A0000 		.4byte	0xa83
 4782 0a72 16       		.uleb128 0x16
 4783 0a73 01       		.uleb128 0x1
 4784 0a74 52       		.byte	0x52
 4785 0a75 01       		.uleb128 0x1
 4786 0a76 30       		.byte	0x30
 4787 0a77 16       		.uleb128 0x16
 4788 0a78 01       		.uleb128 0x1
 4789 0a79 51       		.byte	0x51
 4790 0a7a 02       		.uleb128 0x2
 4791 0a7b 91       		.byte	0x91
 4792 0a7c 54       		.sleb128 -44
 4793 0a7d 16       		.uleb128 0x16
 4794 0a7e 01       		.uleb128 0x1
 4795 0a7f 50       		.byte	0x50
 4796 0a80 01       		.uleb128 0x1
 4797 0a81 31       		.byte	0x31
 4798 0a82 00       		.byte	0
 4799 0a83 15       		.uleb128 0x15
 4800 0a84 0C020000 		.4byte	.LVL32
 4801 0a88 4C1E0000 		.4byte	0x1e4c
 4802 0a8c A10A0000 		.4byte	0xaa1
 4803 0a90 16       		.uleb128 0x16
 4804 0a91 01       		.uleb128 0x1
 4805 0a92 52       		.byte	0x52
 4806 0a93 01       		.uleb128 0x1
 4807 0a94 30       		.byte	0x30
 4808 0a95 16       		.uleb128 0x16
 4809 0a96 01       		.uleb128 0x1
 4810 0a97 51       		.byte	0x51
 4811 0a98 02       		.uleb128 0x2
 4812 0a99 91       		.byte	0x91
ARM GAS  C:\Users\Diego\AppData\Local\Temp\cc9VkXHl.s 			page 112


 4813 0a9a 48       		.sleb128 -56
 4814 0a9b 16       		.uleb128 0x16
 4815 0a9c 01       		.uleb128 0x1
 4816 0a9d 50       		.byte	0x50
 4817 0a9e 01       		.uleb128 0x1
 4818 0a9f 31       		.byte	0x31
 4819 0aa0 00       		.byte	0
 4820 0aa1 15       		.uleb128 0x15
 4821 0aa2 34020000 		.4byte	.LVL33
 4822 0aa6 4C1E0000 		.4byte	0x1e4c
 4823 0aaa C00A0000 		.4byte	0xac0
 4824 0aae 16       		.uleb128 0x16
 4825 0aaf 01       		.uleb128 0x1
 4826 0ab0 52       		.byte	0x52
 4827 0ab1 01       		.uleb128 0x1
 4828 0ab2 30       		.byte	0x30
 4829 0ab3 16       		.uleb128 0x16
 4830 0ab4 01       		.uleb128 0x1
 4831 0ab5 51       		.byte	0x51
 4832 0ab6 03       		.uleb128 0x3
 4833 0ab7 91       		.byte	0x91
 4834 0ab8 BC7F     		.sleb128 -68
 4835 0aba 16       		.uleb128 0x16
 4836 0abb 01       		.uleb128 0x1
 4837 0abc 50       		.byte	0x50
 4838 0abd 01       		.uleb128 0x1
 4839 0abe 31       		.byte	0x31
 4840 0abf 00       		.byte	0
 4841 0ac0 15       		.uleb128 0x15
 4842 0ac1 46020000 		.4byte	.LVL34
 4843 0ac5 4C1E0000 		.4byte	0x1e4c
 4844 0ac9 DF0A0000 		.4byte	0xadf
 4845 0acd 16       		.uleb128 0x16
 4846 0ace 01       		.uleb128 0x1
 4847 0acf 52       		.byte	0x52
 4848 0ad0 01       		.uleb128 0x1
 4849 0ad1 46       		.byte	0x46
 4850 0ad2 16       		.uleb128 0x16
 4851 0ad3 01       		.uleb128 0x1
 4852 0ad4 51       		.byte	0x51
 4853 0ad5 03       		.uleb128 0x3
 4854 0ad6 91       		.byte	0x91
 4855 0ad7 A47F     		.sleb128 -92
 4856 0ad9 16       		.uleb128 0x16
 4857 0ada 01       		.uleb128 0x1
 4858 0adb 50       		.byte	0x50
 4859 0adc 01       		.uleb128 0x1
 4860 0add 31       		.byte	0x31
 4861 0ade 00       		.byte	0
 4862 0adf 15       		.uleb128 0x15
 4863 0ae0 58020000 		.4byte	.LVL35
 4864 0ae4 4C1E0000 		.4byte	0x1e4c
 4865 0ae8 FE0A0000 		.4byte	0xafe
 4866 0aec 16       		.uleb128 0x16
 4867 0aed 01       		.uleb128 0x1
 4868 0aee 52       		.byte	0x52
 4869 0aef 01       		.uleb128 0x1
ARM GAS  C:\Users\Diego\AppData\Local\Temp\cc9VkXHl.s 			page 113


 4870 0af0 46       		.byte	0x46
 4871 0af1 16       		.uleb128 0x16
 4872 0af2 01       		.uleb128 0x1
 4873 0af3 51       		.byte	0x51
 4874 0af4 03       		.uleb128 0x3
 4875 0af5 91       		.byte	0x91
 4876 0af6 987F     		.sleb128 -104
 4877 0af8 16       		.uleb128 0x16
 4878 0af9 01       		.uleb128 0x1
 4879 0afa 50       		.byte	0x50
 4880 0afb 01       		.uleb128 0x1
 4881 0afc 31       		.byte	0x31
 4882 0afd 00       		.byte	0
 4883 0afe 17       		.uleb128 0x17
 4884 0aff 68020000 		.4byte	.LVL36
 4885 0b03 361E0000 		.4byte	0x1e36
 4886 0b07 16       		.uleb128 0x16
 4887 0b08 01       		.uleb128 0x1
 4888 0b09 51       		.byte	0x51
 4889 0b0a 01       		.uleb128 0x1
 4890 0b0b 30       		.byte	0x30
 4891 0b0c 16       		.uleb128 0x16
 4892 0b0d 01       		.uleb128 0x1
 4893 0b0e 50       		.byte	0x50
 4894 0b0f 01       		.uleb128 0x1
 4895 0b10 31       		.byte	0x31
 4896 0b11 00       		.byte	0
 4897 0b12 00       		.byte	0
 4898 0b13 09       		.uleb128 0x9
 4899 0b14 8C000000 		.4byte	0x8c
 4900 0b18 230B0000 		.4byte	0xb23
 4901 0b1c 0A       		.uleb128 0xa
 4902 0b1d 27010000 		.4byte	0x127
 4903 0b21 09       		.byte	0x9
 4904 0b22 00       		.byte	0
 4905 0b23 14       		.uleb128 0x14
 4906 0b24 ED070000 		.4byte	.LASF155
 4907 0b28 01       		.byte	0x1
 4908 0b29 A1       		.byte	0xa1
 4909 0b2a 00000000 		.4byte	.LFB66
 4910 0b2e 50000000 		.4byte	.LFE66-.LFB66
 4911 0b32 01       		.uleb128 0x1
 4912 0b33 9C       		.byte	0x9c
 4913 0b34 9F0B0000 		.4byte	0xb9f
 4914 0b38 15       		.uleb128 0x15
 4915 0b39 12000000 		.4byte	.LVL37
 4916 0b3d 361E0000 		.4byte	0x1e36
 4917 0b41 500B0000 		.4byte	0xb50
 4918 0b45 16       		.uleb128 0x16
 4919 0b46 01       		.uleb128 0x1
 4920 0b47 51       		.byte	0x51
 4921 0b48 01       		.uleb128 0x1
 4922 0b49 31       		.byte	0x31
 4923 0b4a 16       		.uleb128 0x16
 4924 0b4b 01       		.uleb128 0x1
 4925 0b4c 50       		.byte	0x50
 4926 0b4d 01       		.uleb128 0x1
ARM GAS  C:\Users\Diego\AppData\Local\Temp\cc9VkXHl.s 			page 114


 4927 0b4e 32       		.byte	0x32
 4928 0b4f 00       		.byte	0
 4929 0b50 15       		.uleb128 0x15
 4930 0b51 28000000 		.4byte	.LVL38
 4931 0b55 361E0000 		.4byte	0x1e36
 4932 0b59 690B0000 		.4byte	0xb69
 4933 0b5d 16       		.uleb128 0x16
 4934 0b5e 01       		.uleb128 0x1
 4935 0b5f 51       		.byte	0x51
 4936 0b60 02       		.uleb128 0x2
 4937 0b61 08       		.byte	0x8
 4938 0b62 2E       		.byte	0x2e
 4939 0b63 16       		.uleb128 0x16
 4940 0b64 01       		.uleb128 0x1
 4941 0b65 50       		.byte	0x50
 4942 0b66 01       		.uleb128 0x1
 4943 0b67 32       		.byte	0x32
 4944 0b68 00       		.byte	0
 4945 0b69 15       		.uleb128 0x15
 4946 0b6a 38000000 		.4byte	.LVL39
 4947 0b6e 361E0000 		.4byte	0x1e36
 4948 0b72 810B0000 		.4byte	0xb81
 4949 0b76 16       		.uleb128 0x16
 4950 0b77 01       		.uleb128 0x1
 4951 0b78 51       		.byte	0x51
 4952 0b79 01       		.uleb128 0x1
 4953 0b7a 30       		.byte	0x30
 4954 0b7b 16       		.uleb128 0x16
 4955 0b7c 01       		.uleb128 0x1
 4956 0b7d 50       		.byte	0x50
 4957 0b7e 01       		.uleb128 0x1
 4958 0b7f 32       		.byte	0x32
 4959 0b80 00       		.byte	0
 4960 0b81 17       		.uleb128 0x17
 4961 0b82 42000000 		.4byte	.LVL40
 4962 0b86 4C1E0000 		.4byte	0x1e4c
 4963 0b8a 16       		.uleb128 0x16
 4964 0b8b 01       		.uleb128 0x1
 4965 0b8c 52       		.byte	0x52
 4966 0b8d 01       		.uleb128 0x1
 4967 0b8e 30       		.byte	0x30
 4968 0b8f 16       		.uleb128 0x16
 4969 0b90 01       		.uleb128 0x1
 4970 0b91 51       		.byte	0x51
 4971 0b92 05       		.uleb128 0x5
 4972 0b93 03       		.byte	0x3
 4973 0b94 00000000 		.4byte	.LANCHOR1
 4974 0b98 16       		.uleb128 0x16
 4975 0b99 01       		.uleb128 0x1
 4976 0b9a 50       		.byte	0x50
 4977 0b9b 01       		.uleb128 0x1
 4978 0b9c 32       		.byte	0x32
 4979 0b9d 00       		.byte	0
 4980 0b9e 00       		.byte	0
 4981 0b9f 14       		.uleb128 0x14
 4982 0ba0 F0030000 		.4byte	.LASF156
 4983 0ba4 01       		.byte	0x1
ARM GAS  C:\Users\Diego\AppData\Local\Temp\cc9VkXHl.s 			page 115


 4984 0ba5 B8       		.byte	0xb8
 4985 0ba6 00000000 		.4byte	.LFB67
 4986 0baa C4000000 		.4byte	.LFE67-.LFB67
 4987 0bae 01       		.uleb128 0x1
 4988 0baf 9C       		.byte	0x9c
 4989 0bb0 CC0C0000 		.4byte	0xccc
 4990 0bb4 13       		.uleb128 0x13
 4991 0bb5 06000000 		.4byte	.LVL41
 4992 0bb9 7E1E0000 		.4byte	0x1e7e
 4993 0bbd 13       		.uleb128 0x13
 4994 0bbe 16000000 		.4byte	.LVL42
 4995 0bc2 891E0000 		.4byte	0x1e89
 4996 0bc6 13       		.uleb128 0x13
 4997 0bc7 1A000000 		.4byte	.LVL43
 4998 0bcb 9E1E0000 		.4byte	0x1e9e
 4999 0bcf 15       		.uleb128 0x15
 5000 0bd0 24000000 		.4byte	.LVL44
 5001 0bd4 361E0000 		.4byte	0x1e36
 5002 0bd8 E70B0000 		.4byte	0xbe7
 5003 0bdc 16       		.uleb128 0x16
 5004 0bdd 01       		.uleb128 0x1
 5005 0bde 51       		.byte	0x51
 5006 0bdf 01       		.uleb128 0x1
 5007 0be0 30       		.byte	0x30
 5008 0be1 16       		.uleb128 0x16
 5009 0be2 01       		.uleb128 0x1
 5010 0be3 50       		.byte	0x50
 5011 0be4 01       		.uleb128 0x1
 5012 0be5 31       		.byte	0x31
 5013 0be6 00       		.byte	0
 5014 0be7 15       		.uleb128 0x15
 5015 0be8 2C000000 		.4byte	.LVL45
 5016 0bec 361E0000 		.4byte	0x1e36
 5017 0bf0 FF0B0000 		.4byte	0xbff
 5018 0bf4 16       		.uleb128 0x16
 5019 0bf5 01       		.uleb128 0x1
 5020 0bf6 51       		.byte	0x51
 5021 0bf7 01       		.uleb128 0x1
 5022 0bf8 30       		.byte	0x30
 5023 0bf9 16       		.uleb128 0x16
 5024 0bfa 01       		.uleb128 0x1
 5025 0bfb 50       		.byte	0x50
 5026 0bfc 01       		.uleb128 0x1
 5027 0bfd 32       		.byte	0x32
 5028 0bfe 00       		.byte	0
 5029 0bff 13       		.uleb128 0x13
 5030 0c00 3C000000 		.4byte	.LVL46
 5031 0c04 891E0000 		.4byte	0x1e89
 5032 0c08 13       		.uleb128 0x13
 5033 0c09 40000000 		.4byte	.LVL47
 5034 0c0d 9E1E0000 		.4byte	0x1e9e
 5035 0c11 15       		.uleb128 0x15
 5036 0c12 4A000000 		.4byte	.LVL48
 5037 0c16 361E0000 		.4byte	0x1e36
 5038 0c1a 290C0000 		.4byte	0xc29
 5039 0c1e 16       		.uleb128 0x16
 5040 0c1f 01       		.uleb128 0x1
ARM GAS  C:\Users\Diego\AppData\Local\Temp\cc9VkXHl.s 			page 116


 5041 0c20 51       		.byte	0x51
 5042 0c21 01       		.uleb128 0x1
 5043 0c22 30       		.byte	0x30
 5044 0c23 16       		.uleb128 0x16
 5045 0c24 01       		.uleb128 0x1
 5046 0c25 50       		.byte	0x50
 5047 0c26 01       		.uleb128 0x1
 5048 0c27 31       		.byte	0x31
 5049 0c28 00       		.byte	0
 5050 0c29 15       		.uleb128 0x15
 5051 0c2a 52000000 		.4byte	.LVL49
 5052 0c2e 361E0000 		.4byte	0x1e36
 5053 0c32 410C0000 		.4byte	0xc41
 5054 0c36 16       		.uleb128 0x16
 5055 0c37 01       		.uleb128 0x1
 5056 0c38 51       		.byte	0x51
 5057 0c39 01       		.uleb128 0x1
 5058 0c3a 30       		.byte	0x30
 5059 0c3b 16       		.uleb128 0x16
 5060 0c3c 01       		.uleb128 0x1
 5061 0c3d 50       		.byte	0x50
 5062 0c3e 01       		.uleb128 0x1
 5063 0c3f 32       		.byte	0x32
 5064 0c40 00       		.byte	0
 5065 0c41 13       		.uleb128 0x13
 5066 0c42 60000000 		.4byte	.LVL50
 5067 0c46 891E0000 		.4byte	0x1e89
 5068 0c4a 13       		.uleb128 0x13
 5069 0c4b 64000000 		.4byte	.LVL51
 5070 0c4f 9E1E0000 		.4byte	0x1e9e
 5071 0c53 13       		.uleb128 0x13
 5072 0c54 70000000 		.4byte	.LVL52
 5073 0c58 891E0000 		.4byte	0x1e89
 5074 0c5c 13       		.uleb128 0x13
 5075 0c5d 74000000 		.4byte	.LVL53
 5076 0c61 9E1E0000 		.4byte	0x1e9e
 5077 0c65 13       		.uleb128 0x13
 5078 0c66 7A000000 		.4byte	.LVL54
 5079 0c6a 7E1E0000 		.4byte	0x1e7e
 5080 0c6e 13       		.uleb128 0x13
 5081 0c6f 86000000 		.4byte	.LVL55
 5082 0c73 891E0000 		.4byte	0x1e89
 5083 0c77 13       		.uleb128 0x13
 5084 0c78 94000000 		.4byte	.LVL56
 5085 0c7c 891E0000 		.4byte	0x1e89
 5086 0c80 13       		.uleb128 0x13
 5087 0c81 A0000000 		.4byte	.LVL57
 5088 0c85 BA1E0000 		.4byte	0x1eba
 5089 0c89 13       		.uleb128 0x13
 5090 0c8a A4000000 		.4byte	.LVL58
 5091 0c8e 7A070000 		.4byte	0x77a
 5092 0c92 15       		.uleb128 0x15
 5093 0c93 AE000000 		.4byte	.LVL59
 5094 0c97 361E0000 		.4byte	0x1e36
 5095 0c9b AA0C0000 		.4byte	0xcaa
 5096 0c9f 16       		.uleb128 0x16
 5097 0ca0 01       		.uleb128 0x1
ARM GAS  C:\Users\Diego\AppData\Local\Temp\cc9VkXHl.s 			page 117


 5098 0ca1 51       		.byte	0x51
 5099 0ca2 01       		.uleb128 0x1
 5100 0ca3 39       		.byte	0x39
 5101 0ca4 16       		.uleb128 0x16
 5102 0ca5 01       		.uleb128 0x1
 5103 0ca6 50       		.byte	0x50
 5104 0ca7 01       		.uleb128 0x1
 5105 0ca8 31       		.byte	0x31
 5106 0ca9 00       		.byte	0
 5107 0caa 15       		.uleb128 0x15
 5108 0cab B6000000 		.4byte	.LVL60
 5109 0caf 361E0000 		.4byte	0x1e36
 5110 0cb3 C20C0000 		.4byte	0xcc2
 5111 0cb7 16       		.uleb128 0x16
 5112 0cb8 01       		.uleb128 0x1
 5113 0cb9 51       		.byte	0x51
 5114 0cba 01       		.uleb128 0x1
 5115 0cbb 39       		.byte	0x39
 5116 0cbc 16       		.uleb128 0x16
 5117 0cbd 01       		.uleb128 0x1
 5118 0cbe 50       		.byte	0x50
 5119 0cbf 01       		.uleb128 0x1
 5120 0cc0 32       		.byte	0x32
 5121 0cc1 00       		.byte	0
 5122 0cc2 13       		.uleb128 0x13
 5123 0cc3 BA000000 		.4byte	.LVL61
 5124 0cc7 9F0B0000 		.4byte	0xb9f
 5125 0ccb 00       		.byte	0
 5126 0ccc 14       		.uleb128 0x14
 5127 0ccd FE030000 		.4byte	.LASF157
 5128 0cd1 01       		.byte	0x1
 5129 0cd2 DC       		.byte	0xdc
 5130 0cd3 00000000 		.4byte	.LFB68
 5131 0cd7 7C000000 		.4byte	.LFE68-.LFB68
 5132 0cdb 01       		.uleb128 0x1
 5133 0cdc 9C       		.byte	0x9c
 5134 0cdd CB0D0000 		.4byte	0xdcb
 5135 0ce1 18       		.uleb128 0x18
 5136 0ce2 07060000 		.4byte	.LASF158
 5137 0ce6 01       		.byte	0x1
 5138 0ce7 DD       		.byte	0xdd
 5139 0ce8 CB0D0000 		.4byte	0xdcb
 5140 0cec 02       		.uleb128 0x2
 5141 0ced 91       		.byte	0x91
 5142 0cee 5C       		.sleb128 -36
 5143 0cef 19       		.uleb128 0x19
 5144 0cf0 7800     		.ascii	"x\000"
 5145 0cf2 01       		.byte	0x1
 5146 0cf3 DE       		.byte	0xde
 5147 0cf4 AD000000 		.4byte	0xad
 5148 0cf8 00000000 		.4byte	.LLST0
 5149 0cfc 15       		.uleb128 0x15
 5150 0cfd 22000000 		.4byte	.LVL64
 5151 0d01 CF1E0000 		.4byte	0x1ecf
 5152 0d05 1D0D0000 		.4byte	0xd1d
 5153 0d09 16       		.uleb128 0x16
 5154 0d0a 01       		.uleb128 0x1
ARM GAS  C:\Users\Diego\AppData\Local\Temp\cc9VkXHl.s 			page 118


 5155 0d0b 51       		.byte	0x51
 5156 0d0c 0A       		.uleb128 0xa
 5157 0d0d 91       		.byte	0x91
 5158 0d0e 00       		.sleb128 0
 5159 0d0f 74       		.byte	0x74
 5160 0d10 00       		.sleb128 0
 5161 0d11 22       		.byte	0x22
 5162 0d12 08       		.byte	0x8
 5163 0d13 24       		.byte	0x24
 5164 0d14 1C       		.byte	0x1c
 5165 0d15 94       		.byte	0x94
 5166 0d16 01       		.byte	0x1
 5167 0d17 16       		.uleb128 0x16
 5168 0d18 01       		.uleb128 0x1
 5169 0d19 50       		.byte	0x50
 5170 0d1a 01       		.uleb128 0x1
 5171 0d1b 31       		.byte	0x31
 5172 0d1c 00       		.byte	0
 5173 0d1d 15       		.uleb128 0x15
 5174 0d1e 32000000 		.4byte	.LVL67
 5175 0d22 CF1E0000 		.4byte	0x1ecf
 5176 0d26 350D0000 		.4byte	0xd35
 5177 0d2a 16       		.uleb128 0x16
 5178 0d2b 01       		.uleb128 0x1
 5179 0d2c 51       		.byte	0x51
 5180 0d2d 01       		.uleb128 0x1
 5181 0d2e 3A       		.byte	0x3a
 5182 0d2f 16       		.uleb128 0x16
 5183 0d30 01       		.uleb128 0x1
 5184 0d31 50       		.byte	0x50
 5185 0d32 01       		.uleb128 0x1
 5186 0d33 31       		.byte	0x31
 5187 0d34 00       		.byte	0
 5188 0d35 15       		.uleb128 0x15
 5189 0d36 3A000000 		.4byte	.LVL68
 5190 0d3a CF1E0000 		.4byte	0x1ecf
 5191 0d3e 4D0D0000 		.4byte	0xd4d
 5192 0d42 16       		.uleb128 0x16
 5193 0d43 01       		.uleb128 0x1
 5194 0d44 51       		.byte	0x51
 5195 0d45 01       		.uleb128 0x1
 5196 0d46 3A       		.byte	0x3a
 5197 0d47 16       		.uleb128 0x16
 5198 0d48 01       		.uleb128 0x1
 5199 0d49 50       		.byte	0x50
 5200 0d4a 01       		.uleb128 0x1
 5201 0d4b 31       		.byte	0x31
 5202 0d4c 00       		.byte	0
 5203 0d4d 15       		.uleb128 0x15
 5204 0d4e 42000000 		.4byte	.LVL69
 5205 0d52 CF1E0000 		.4byte	0x1ecf
 5206 0d56 650D0000 		.4byte	0xd65
 5207 0d5a 16       		.uleb128 0x16
 5208 0d5b 01       		.uleb128 0x1
 5209 0d5c 51       		.byte	0x51
 5210 0d5d 01       		.uleb128 0x1
 5211 0d5e 3A       		.byte	0x3a
ARM GAS  C:\Users\Diego\AppData\Local\Temp\cc9VkXHl.s 			page 119


 5212 0d5f 16       		.uleb128 0x16
 5213 0d60 01       		.uleb128 0x1
 5214 0d61 50       		.byte	0x50
 5215 0d62 01       		.uleb128 0x1
 5216 0d63 31       		.byte	0x31
 5217 0d64 00       		.byte	0
 5218 0d65 15       		.uleb128 0x15
 5219 0d66 54000000 		.4byte	.LVL71
 5220 0d6a CF1E0000 		.4byte	0x1ecf
 5221 0d6e 860D0000 		.4byte	0xd86
 5222 0d72 16       		.uleb128 0x16
 5223 0d73 01       		.uleb128 0x1
 5224 0d74 51       		.byte	0x51
 5225 0d75 0A       		.uleb128 0xa
 5226 0d76 91       		.byte	0x91
 5227 0d77 00       		.sleb128 0
 5228 0d78 74       		.byte	0x74
 5229 0d79 00       		.sleb128 0
 5230 0d7a 22       		.byte	0x22
 5231 0d7b 08       		.byte	0x8
 5232 0d7c 24       		.byte	0x24
 5233 0d7d 1C       		.byte	0x1c
 5234 0d7e 94       		.byte	0x94
 5235 0d7f 01       		.byte	0x1
 5236 0d80 16       		.uleb128 0x16
 5237 0d81 01       		.uleb128 0x1
 5238 0d82 50       		.byte	0x50
 5239 0d83 01       		.uleb128 0x1
 5240 0d84 32       		.byte	0x32
 5241 0d85 00       		.byte	0
 5242 0d86 15       		.uleb128 0x15
 5243 0d87 64000000 		.4byte	.LVL74
 5244 0d8b CF1E0000 		.4byte	0x1ecf
 5245 0d8f 9E0D0000 		.4byte	0xd9e
 5246 0d93 16       		.uleb128 0x16
 5247 0d94 01       		.uleb128 0x1
 5248 0d95 51       		.byte	0x51
 5249 0d96 01       		.uleb128 0x1
 5250 0d97 3A       		.byte	0x3a
 5251 0d98 16       		.uleb128 0x16
 5252 0d99 01       		.uleb128 0x1
 5253 0d9a 50       		.byte	0x50
 5254 0d9b 01       		.uleb128 0x1
 5255 0d9c 32       		.byte	0x32
 5256 0d9d 00       		.byte	0
 5257 0d9e 15       		.uleb128 0x15
 5258 0d9f 6C000000 		.4byte	.LVL75
 5259 0da3 CF1E0000 		.4byte	0x1ecf
 5260 0da7 B60D0000 		.4byte	0xdb6
 5261 0dab 16       		.uleb128 0x16
 5262 0dac 01       		.uleb128 0x1
 5263 0dad 51       		.byte	0x51
 5264 0dae 01       		.uleb128 0x1
 5265 0daf 3A       		.byte	0x3a
 5266 0db0 16       		.uleb128 0x16
 5267 0db1 01       		.uleb128 0x1
 5268 0db2 50       		.byte	0x50
ARM GAS  C:\Users\Diego\AppData\Local\Temp\cc9VkXHl.s 			page 120


 5269 0db3 01       		.uleb128 0x1
 5270 0db4 32       		.byte	0x32
 5271 0db5 00       		.byte	0
 5272 0db6 17       		.uleb128 0x17
 5273 0db7 74000000 		.4byte	.LVL76
 5274 0dbb CF1E0000 		.4byte	0x1ecf
 5275 0dbf 16       		.uleb128 0x16
 5276 0dc0 01       		.uleb128 0x1
 5277 0dc1 51       		.byte	0x51
 5278 0dc2 01       		.uleb128 0x1
 5279 0dc3 3A       		.byte	0x3a
 5280 0dc4 16       		.uleb128 0x16
 5281 0dc5 01       		.uleb128 0x1
 5282 0dc6 50       		.byte	0x50
 5283 0dc7 01       		.uleb128 0x1
 5284 0dc8 32       		.byte	0x32
 5285 0dc9 00       		.byte	0
 5286 0dca 00       		.byte	0
 5287 0dcb 09       		.uleb128 0x9
 5288 0dcc AD000000 		.4byte	0xad
 5289 0dd0 DB0D0000 		.4byte	0xddb
 5290 0dd4 0A       		.uleb128 0xa
 5291 0dd5 27010000 		.4byte	0x127
 5292 0dd9 10       		.byte	0x10
 5293 0dda 00       		.byte	0
 5294 0ddb 1A       		.uleb128 0x1a
 5295 0ddc B3080000 		.4byte	.LASF160
 5296 0de0 01       		.byte	0x1
 5297 0de1 F7       		.byte	0xf7
 5298 0de2 00000000 		.4byte	.LFB69
 5299 0de6 EC000000 		.4byte	.LFE69-.LFB69
 5300 0dea 01       		.uleb128 0x1
 5301 0deb 9C       		.byte	0x9c
 5302 0dec E10E0000 		.4byte	0xee1
 5303 0df0 19       		.uleb128 0x19
 5304 0df1 7800     		.ascii	"x\000"
 5305 0df3 01       		.byte	0x1
 5306 0df4 F8       		.byte	0xf8
 5307 0df5 AD000000 		.4byte	0xad
 5308 0df9 4C000000 		.4byte	.LLST1
 5309 0dfd 13       		.uleb128 0x13
 5310 0dfe 0A000000 		.4byte	.LVL78
 5311 0e02 891E0000 		.4byte	0x1e89
 5312 0e06 13       		.uleb128 0x13
 5313 0e07 0E000000 		.4byte	.LVL79
 5314 0e0b 9E1E0000 		.4byte	0x1e9e
 5315 0e0f 13       		.uleb128 0x13
 5316 0e10 1A000000 		.4byte	.LVL80
 5317 0e14 891E0000 		.4byte	0x1e89
 5318 0e18 13       		.uleb128 0x13
 5319 0e19 1E000000 		.4byte	.LVL81
 5320 0e1d 9E1E0000 		.4byte	0x1e9e
 5321 0e21 13       		.uleb128 0x13
 5322 0e22 46000000 		.4byte	.LVL88
 5323 0e26 891E0000 		.4byte	0x1e89
 5324 0e2a 13       		.uleb128 0x13
 5325 0e2b 52000000 		.4byte	.LVL89
ARM GAS  C:\Users\Diego\AppData\Local\Temp\cc9VkXHl.s 			page 121


 5326 0e2f 891E0000 		.4byte	0x1e89
 5327 0e33 13       		.uleb128 0x13
 5328 0e34 64000000 		.4byte	.LVL90
 5329 0e38 891E0000 		.4byte	0x1e89
 5330 0e3c 13       		.uleb128 0x13
 5331 0e3d 70000000 		.4byte	.LVL91
 5332 0e41 891E0000 		.4byte	0x1e89
 5333 0e45 13       		.uleb128 0x13
 5334 0e46 7A000000 		.4byte	.LVL92
 5335 0e4a 891E0000 		.4byte	0x1e89
 5336 0e4e 13       		.uleb128 0x13
 5337 0e4f 84000000 		.4byte	.LVL93
 5338 0e53 891E0000 		.4byte	0x1e89
 5339 0e57 13       		.uleb128 0x13
 5340 0e58 90000000 		.4byte	.LVL94
 5341 0e5c 9F0B0000 		.4byte	0xb9f
 5342 0e60 13       		.uleb128 0x13
 5343 0e61 98000000 		.4byte	.LVL95
 5344 0e65 891E0000 		.4byte	0x1e89
 5345 0e69 13       		.uleb128 0x13
 5346 0e6a 9C000000 		.4byte	.LVL96
 5347 0e6e 9E1E0000 		.4byte	0x1e9e
 5348 0e72 15       		.uleb128 0x15
 5349 0e73 A6000000 		.4byte	.LVL97
 5350 0e77 361E0000 		.4byte	0x1e36
 5351 0e7b 8A0E0000 		.4byte	0xe8a
 5352 0e7f 16       		.uleb128 0x16
 5353 0e80 01       		.uleb128 0x1
 5354 0e81 51       		.byte	0x51
 5355 0e82 01       		.uleb128 0x1
 5356 0e83 30       		.byte	0x30
 5357 0e84 16       		.uleb128 0x16
 5358 0e85 01       		.uleb128 0x1
 5359 0e86 50       		.byte	0x50
 5360 0e87 01       		.uleb128 0x1
 5361 0e88 31       		.byte	0x31
 5362 0e89 00       		.byte	0
 5363 0e8a 15       		.uleb128 0x15
 5364 0e8b AE000000 		.4byte	.LVL98
 5365 0e8f 361E0000 		.4byte	0x1e36
 5366 0e93 A20E0000 		.4byte	0xea2
 5367 0e97 16       		.uleb128 0x16
 5368 0e98 01       		.uleb128 0x1
 5369 0e99 51       		.byte	0x51
 5370 0e9a 01       		.uleb128 0x1
 5371 0e9b 30       		.byte	0x30
 5372 0e9c 16       		.uleb128 0x16
 5373 0e9d 01       		.uleb128 0x1
 5374 0e9e 50       		.byte	0x50
 5375 0e9f 01       		.uleb128 0x1
 5376 0ea0 32       		.byte	0x32
 5377 0ea1 00       		.byte	0
 5378 0ea2 13       		.uleb128 0x13
 5379 0ea3 BE000000 		.4byte	.LVL99
 5380 0ea7 891E0000 		.4byte	0x1e89
 5381 0eab 13       		.uleb128 0x13
 5382 0eac C2000000 		.4byte	.LVL100
ARM GAS  C:\Users\Diego\AppData\Local\Temp\cc9VkXHl.s 			page 122


 5383 0eb0 9E1E0000 		.4byte	0x1e9e
 5384 0eb4 15       		.uleb128 0x15
 5385 0eb5 CC000000 		.4byte	.LVL101
 5386 0eb9 361E0000 		.4byte	0x1e36
 5387 0ebd CC0E0000 		.4byte	0xecc
 5388 0ec1 16       		.uleb128 0x16
 5389 0ec2 01       		.uleb128 0x1
 5390 0ec3 51       		.byte	0x51
 5391 0ec4 01       		.uleb128 0x1
 5392 0ec5 30       		.byte	0x30
 5393 0ec6 16       		.uleb128 0x16
 5394 0ec7 01       		.uleb128 0x1
 5395 0ec8 50       		.byte	0x50
 5396 0ec9 01       		.uleb128 0x1
 5397 0eca 31       		.byte	0x31
 5398 0ecb 00       		.byte	0
 5399 0ecc 17       		.uleb128 0x17
 5400 0ecd D4000000 		.4byte	.LVL102
 5401 0ed1 361E0000 		.4byte	0x1e36
 5402 0ed5 16       		.uleb128 0x16
 5403 0ed6 01       		.uleb128 0x1
 5404 0ed7 51       		.byte	0x51
 5405 0ed8 01       		.uleb128 0x1
 5406 0ed9 30       		.byte	0x30
 5407 0eda 16       		.uleb128 0x16
 5408 0edb 01       		.uleb128 0x1
 5409 0edc 50       		.byte	0x50
 5410 0edd 01       		.uleb128 0x1
 5411 0ede 32       		.byte	0x32
 5412 0edf 00       		.byte	0
 5413 0ee0 00       		.byte	0
 5414 0ee1 12       		.uleb128 0x12
 5415 0ee2 94020000 		.4byte	.LASF161
 5416 0ee6 01       		.byte	0x1
 5417 0ee7 2001     		.2byte	0x120
 5418 0ee9 00000000 		.4byte	.LFB70
 5419 0eed 14090000 		.4byte	.LFE70-.LFB70
 5420 0ef1 01       		.uleb128 0x1
 5421 0ef2 9C       		.byte	0x9c
 5422 0ef3 09160000 		.4byte	0x1609
 5423 0ef7 1B       		.uleb128 0x1b
 5424 0ef8 7800     		.ascii	"x\000"
 5425 0efa 01       		.byte	0x1
 5426 0efb 2101     		.2byte	0x121
 5427 0efd AD000000 		.4byte	0xad
 5428 0f01 75000000 		.4byte	.LLST2
 5429 0f05 1B       		.uleb128 0x1b
 5430 0f06 7900     		.ascii	"y\000"
 5431 0f08 01       		.byte	0x1
 5432 0f09 2101     		.2byte	0x121
 5433 0f0b AD000000 		.4byte	0xad
 5434 0f0f F6010000 		.4byte	.LLST3
 5435 0f13 13       		.uleb128 0x13
 5436 0f14 2E000000 		.4byte	.LVL103
 5437 0f18 24080000 		.4byte	0x824
 5438 0f1c 13       		.uleb128 0x13
 5439 0f1d 38000000 		.4byte	.LVL104
ARM GAS  C:\Users\Diego\AppData\Local\Temp\cc9VkXHl.s 			page 123


 5440 0f21 E91E0000 		.4byte	0x1ee9
 5441 0f25 13       		.uleb128 0x13
 5442 0f26 3C000000 		.4byte	.LVL105
 5443 0f2a F01E0000 		.4byte	0x1ef0
 5444 0f2e 13       		.uleb128 0x13
 5445 0f2f 4C000000 		.4byte	.LVL106
 5446 0f33 F71E0000 		.4byte	0x1ef7
 5447 0f37 15       		.uleb128 0x15
 5448 0f38 8E000000 		.4byte	.LVL107
 5449 0f3c 361E0000 		.4byte	0x1e36
 5450 0f40 4F0F0000 		.4byte	0xf4f
 5451 0f44 16       		.uleb128 0x16
 5452 0f45 01       		.uleb128 0x1
 5453 0f46 51       		.byte	0x51
 5454 0f47 01       		.uleb128 0x1
 5455 0f48 34       		.byte	0x34
 5456 0f49 16       		.uleb128 0x16
 5457 0f4a 01       		.uleb128 0x1
 5458 0f4b 50       		.byte	0x50
 5459 0f4c 01       		.uleb128 0x1
 5460 0f4d 31       		.byte	0x31
 5461 0f4e 00       		.byte	0
 5462 0f4f 15       		.uleb128 0x15
 5463 0f50 98000000 		.4byte	.LVL108
 5464 0f54 361E0000 		.4byte	0x1e36
 5465 0f58 670F0000 		.4byte	0xf67
 5466 0f5c 16       		.uleb128 0x16
 5467 0f5d 01       		.uleb128 0x1
 5468 0f5e 51       		.byte	0x51
 5469 0f5f 01       		.uleb128 0x1
 5470 0f60 31       		.byte	0x31
 5471 0f61 16       		.uleb128 0x16
 5472 0f62 01       		.uleb128 0x1
 5473 0f63 50       		.byte	0x50
 5474 0f64 01       		.uleb128 0x1
 5475 0f65 31       		.byte	0x31
 5476 0f66 00       		.byte	0
 5477 0f67 15       		.uleb128 0x15
 5478 0f68 A4000000 		.4byte	.LVL109
 5479 0f6c 6D1E0000 		.4byte	0x1e6d
 5480 0f70 7A0F0000 		.4byte	0xf7a
 5481 0f74 16       		.uleb128 0x16
 5482 0f75 01       		.uleb128 0x1
 5483 0f76 50       		.byte	0x50
 5484 0f77 01       		.uleb128 0x1
 5485 0f78 3A       		.byte	0x3a
 5486 0f79 00       		.byte	0
 5487 0f7a 13       		.uleb128 0x13
 5488 0f7b A8000000 		.4byte	.LVL110
 5489 0f7f 021F0000 		.4byte	0x1f02
 5490 0f83 13       		.uleb128 0x13
 5491 0f84 B0000000 		.4byte	.LVL111
 5492 0f88 F71E0000 		.4byte	0x1ef7
 5493 0f8c 15       		.uleb128 0x15
 5494 0f8d 08010000 		.4byte	.LVL112
 5495 0f91 361E0000 		.4byte	0x1e36
 5496 0f95 A40F0000 		.4byte	0xfa4
ARM GAS  C:\Users\Diego\AppData\Local\Temp\cc9VkXHl.s 			page 124


 5497 0f99 16       		.uleb128 0x16
 5498 0f9a 01       		.uleb128 0x1
 5499 0f9b 51       		.byte	0x51
 5500 0f9c 01       		.uleb128 0x1
 5501 0f9d 35       		.byte	0x35
 5502 0f9e 16       		.uleb128 0x16
 5503 0f9f 01       		.uleb128 0x1
 5504 0fa0 50       		.byte	0x50
 5505 0fa1 01       		.uleb128 0x1
 5506 0fa2 31       		.byte	0x31
 5507 0fa3 00       		.byte	0
 5508 0fa4 15       		.uleb128 0x15
 5509 0fa5 26010000 		.4byte	.LVL113
 5510 0fa9 361E0000 		.4byte	0x1e36
 5511 0fad BD0F0000 		.4byte	0xfbd
 5512 0fb1 16       		.uleb128 0x16
 5513 0fb2 01       		.uleb128 0x1
 5514 0fb3 51       		.byte	0x51
 5515 0fb4 02       		.uleb128 0x2
 5516 0fb5 08       		.byte	0x8
 5517 0fb6 85       		.byte	0x85
 5518 0fb7 16       		.uleb128 0x16
 5519 0fb8 01       		.uleb128 0x1
 5520 0fb9 50       		.byte	0x50
 5521 0fba 01       		.uleb128 0x1
 5522 0fbb 31       		.byte	0x31
 5523 0fbc 00       		.byte	0
 5524 0fbd 15       		.uleb128 0x15
 5525 0fbe 36010000 		.4byte	.LVL114
 5526 0fc2 361E0000 		.4byte	0x1e36
 5527 0fc6 D60F0000 		.4byte	0xfd6
 5528 0fca 16       		.uleb128 0x16
 5529 0fcb 01       		.uleb128 0x1
 5530 0fcc 51       		.byte	0x51
 5531 0fcd 02       		.uleb128 0x2
 5532 0fce 08       		.byte	0x8
 5533 0fcf 83       		.byte	0x83
 5534 0fd0 16       		.uleb128 0x16
 5535 0fd1 01       		.uleb128 0x1
 5536 0fd2 50       		.byte	0x50
 5537 0fd3 01       		.uleb128 0x1
 5538 0fd4 31       		.byte	0x31
 5539 0fd5 00       		.byte	0
 5540 0fd6 15       		.uleb128 0x15
 5541 0fd7 46010000 		.4byte	.LVL115
 5542 0fdb 361E0000 		.4byte	0x1e36
 5543 0fdf EE0F0000 		.4byte	0xfee
 5544 0fe3 16       		.uleb128 0x16
 5545 0fe4 01       		.uleb128 0x1
 5546 0fe5 51       		.byte	0x51
 5547 0fe6 01       		.uleb128 0x1
 5548 0fe7 31       		.byte	0x31
 5549 0fe8 16       		.uleb128 0x16
 5550 0fe9 01       		.uleb128 0x1
 5551 0fea 50       		.byte	0x50
 5552 0feb 01       		.uleb128 0x1
 5553 0fec 31       		.byte	0x31
ARM GAS  C:\Users\Diego\AppData\Local\Temp\cc9VkXHl.s 			page 125


 5554 0fed 00       		.byte	0
 5555 0fee 15       		.uleb128 0x15
 5556 0fef 56010000 		.4byte	.LVL116
 5557 0ff3 361E0000 		.4byte	0x1e36
 5558 0ff7 06100000 		.4byte	0x1006
 5559 0ffb 16       		.uleb128 0x16
 5560 0ffc 01       		.uleb128 0x1
 5561 0ffd 51       		.byte	0x51
 5562 0ffe 01       		.uleb128 0x1
 5563 0fff 31       		.byte	0x31
 5564 1000 16       		.uleb128 0x16
 5565 1001 01       		.uleb128 0x1
 5566 1002 50       		.byte	0x50
 5567 1003 01       		.uleb128 0x1
 5568 1004 31       		.byte	0x31
 5569 1005 00       		.byte	0
 5570 1006 15       		.uleb128 0x15
 5571 1007 5C010000 		.4byte	.LVL117
 5572 100b 6D1E0000 		.4byte	0x1e6d
 5573 100f 19100000 		.4byte	0x1019
 5574 1013 16       		.uleb128 0x16
 5575 1014 01       		.uleb128 0x1
 5576 1015 50       		.byte	0x50
 5577 1016 01       		.uleb128 0x1
 5578 1017 3A       		.byte	0x3a
 5579 1018 00       		.byte	0
 5580 1019 13       		.uleb128 0x13
 5581 101a 60010000 		.4byte	.LVL118
 5582 101e 021F0000 		.4byte	0x1f02
 5583 1022 13       		.uleb128 0x13
 5584 1023 66010000 		.4byte	.LVL119
 5585 1027 F71E0000 		.4byte	0x1ef7
 5586 102b 15       		.uleb128 0x15
 5587 102c E0010000 		.4byte	.LVL120
 5588 1030 361E0000 		.4byte	0x1e36
 5589 1034 43100000 		.4byte	0x1043
 5590 1038 16       		.uleb128 0x16
 5591 1039 01       		.uleb128 0x1
 5592 103a 51       		.byte	0x51
 5593 103b 01       		.uleb128 0x1
 5594 103c 36       		.byte	0x36
 5595 103d 16       		.uleb128 0x16
 5596 103e 01       		.uleb128 0x1
 5597 103f 50       		.byte	0x50
 5598 1040 01       		.uleb128 0x1
 5599 1041 31       		.byte	0x31
 5600 1042 00       		.byte	0
 5601 1043 15       		.uleb128 0x15
 5602 1044 F4010000 		.4byte	.LVL121
 5603 1048 091F0000 		.4byte	0x1f09
 5604 104c 7B100000 		.4byte	0x107b
 5605 1050 16       		.uleb128 0x16
 5606 1051 01       		.uleb128 0x1
 5607 1052 53       		.byte	0x53
 5608 1053 02       		.uleb128 0x2
 5609 1054 75       		.byte	0x75
 5610 1055 00       		.sleb128 0
ARM GAS  C:\Users\Diego\AppData\Local\Temp\cc9VkXHl.s 			page 126


 5611 1056 16       		.uleb128 0x16
 5612 1057 01       		.uleb128 0x1
 5613 1058 52       		.byte	0x52
 5614 1059 01       		.uleb128 0x1
 5615 105a 33       		.byte	0x33
 5616 105b 16       		.uleb128 0x16
 5617 105c 01       		.uleb128 0x1
 5618 105d 51       		.byte	0x51
 5619 105e 02       		.uleb128 0x2
 5620 105f 08       		.byte	0x8
 5621 1060 24       		.byte	0x24
 5622 1061 16       		.uleb128 0x16
 5623 1062 01       		.uleb128 0x1
 5624 1063 50       		.byte	0x50
 5625 1064 01       		.uleb128 0x1
 5626 1065 31       		.byte	0x31
 5627 1066 16       		.uleb128 0x16
 5628 1067 02       		.uleb128 0x2
 5629 1068 7D       		.byte	0x7d
 5630 1069 08       		.sleb128 8
 5631 106a 02       		.uleb128 0x2
 5632 106b 08       		.byte	0x8
 5633 106c 4E       		.byte	0x4e
 5634 106d 16       		.uleb128 0x16
 5635 106e 02       		.uleb128 0x2
 5636 106f 7D       		.byte	0x7d
 5637 1070 04       		.sleb128 4
 5638 1071 02       		.uleb128 0x2
 5639 1072 74       		.byte	0x74
 5640 1073 00       		.sleb128 0
 5641 1074 16       		.uleb128 0x16
 5642 1075 02       		.uleb128 0x2
 5643 1076 7D       		.byte	0x7d
 5644 1077 00       		.sleb128 0
 5645 1078 01       		.uleb128 0x1
 5646 1079 31       		.byte	0x31
 5647 107a 00       		.byte	0
 5648 107b 15       		.uleb128 0x15
 5649 107c 1C020000 		.4byte	.LVL122
 5650 1080 361E0000 		.4byte	0x1e36
 5651 1084 94100000 		.4byte	0x1094
 5652 1088 16       		.uleb128 0x16
 5653 1089 01       		.uleb128 0x1
 5654 108a 51       		.byte	0x51
 5655 108b 01       		.uleb128 0x1
 5656 108c 3D       		.byte	0x3d
 5657 108d 16       		.uleb128 0x16
 5658 108e 01       		.uleb128 0x1
 5659 108f 50       		.byte	0x50
 5660 1090 02       		.uleb128 0x2
 5661 1091 74       		.byte	0x74
 5662 1092 00       		.sleb128 0
 5663 1093 00       		.byte	0
 5664 1094 15       		.uleb128 0x15
 5665 1095 30020000 		.4byte	.LVL123
 5666 1099 091F0000 		.4byte	0x1f09
 5667 109d CD100000 		.4byte	0x10cd
ARM GAS  C:\Users\Diego\AppData\Local\Temp\cc9VkXHl.s 			page 127


 5668 10a1 16       		.uleb128 0x16
 5669 10a2 01       		.uleb128 0x1
 5670 10a3 53       		.byte	0x53
 5671 10a4 01       		.uleb128 0x1
 5672 10a5 32       		.byte	0x32
 5673 10a6 16       		.uleb128 0x16
 5674 10a7 01       		.uleb128 0x1
 5675 10a8 52       		.byte	0x52
 5676 10a9 01       		.uleb128 0x1
 5677 10aa 33       		.byte	0x33
 5678 10ab 16       		.uleb128 0x16
 5679 10ac 01       		.uleb128 0x1
 5680 10ad 51       		.byte	0x51
 5681 10ae 02       		.uleb128 0x2
 5682 10af 76       		.byte	0x76
 5683 10b0 00       		.sleb128 0
 5684 10b1 16       		.uleb128 0x16
 5685 10b2 01       		.uleb128 0x1
 5686 10b3 50       		.byte	0x50
 5687 10b4 02       		.uleb128 0x2
 5688 10b5 74       		.byte	0x74
 5689 10b6 00       		.sleb128 0
 5690 10b7 16       		.uleb128 0x16
 5691 10b8 02       		.uleb128 0x2
 5692 10b9 7D       		.byte	0x7d
 5693 10ba 08       		.sleb128 8
 5694 10bb 02       		.uleb128 0x2
 5695 10bc 08       		.byte	0x8
 5696 10bd 4E       		.byte	0x4e
 5697 10be 16       		.uleb128 0x16
 5698 10bf 02       		.uleb128 0x2
 5699 10c0 7D       		.byte	0x7d
 5700 10c1 04       		.sleb128 4
 5701 10c2 02       		.uleb128 0x2
 5702 10c3 75       		.byte	0x75
 5703 10c4 00       		.sleb128 0
 5704 10c5 16       		.uleb128 0x16
 5705 10c6 02       		.uleb128 0x2
 5706 10c7 7D       		.byte	0x7d
 5707 10c8 00       		.sleb128 0
 5708 10c9 02       		.uleb128 0x2
 5709 10ca 74       		.byte	0x74
 5710 10cb 00       		.sleb128 0
 5711 10cc 00       		.byte	0
 5712 10cd 15       		.uleb128 0x15
 5713 10ce 96020000 		.4byte	.LVL134
 5714 10d2 361E0000 		.4byte	0x1e36
 5715 10d6 E6100000 		.4byte	0x10e6
 5716 10da 16       		.uleb128 0x16
 5717 10db 01       		.uleb128 0x1
 5718 10dc 51       		.byte	0x51
 5719 10dd 02       		.uleb128 0x2
 5720 10de 08       		.byte	0x8
 5721 10df 86       		.byte	0x86
 5722 10e0 16       		.uleb128 0x16
 5723 10e1 01       		.uleb128 0x1
 5724 10e2 50       		.byte	0x50
ARM GAS  C:\Users\Diego\AppData\Local\Temp\cc9VkXHl.s 			page 128


 5725 10e3 01       		.uleb128 0x1
 5726 10e4 31       		.byte	0x31
 5727 10e5 00       		.byte	0
 5728 10e6 15       		.uleb128 0x15
 5729 10e7 A6020000 		.4byte	.LVL135
 5730 10eb 361E0000 		.4byte	0x1e36
 5731 10ef FE100000 		.4byte	0x10fe
 5732 10f3 16       		.uleb128 0x16
 5733 10f4 01       		.uleb128 0x1
 5734 10f5 51       		.byte	0x51
 5735 10f6 01       		.uleb128 0x1
 5736 10f7 31       		.byte	0x31
 5737 10f8 16       		.uleb128 0x16
 5738 10f9 01       		.uleb128 0x1
 5739 10fa 50       		.byte	0x50
 5740 10fb 01       		.uleb128 0x1
 5741 10fc 31       		.byte	0x31
 5742 10fd 00       		.byte	0
 5743 10fe 15       		.uleb128 0x15
 5744 10ff B6020000 		.4byte	.LVL136
 5745 1103 361E0000 		.4byte	0x1e36
 5746 1107 16110000 		.4byte	0x1116
 5747 110b 16       		.uleb128 0x16
 5748 110c 01       		.uleb128 0x1
 5749 110d 51       		.byte	0x51
 5750 110e 01       		.uleb128 0x1
 5751 110f 31       		.byte	0x31
 5752 1110 16       		.uleb128 0x16
 5753 1111 01       		.uleb128 0x1
 5754 1112 50       		.byte	0x50
 5755 1113 01       		.uleb128 0x1
 5756 1114 31       		.byte	0x31
 5757 1115 00       		.byte	0
 5758 1116 15       		.uleb128 0x15
 5759 1117 C6020000 		.4byte	.LVL137
 5760 111b 361E0000 		.4byte	0x1e36
 5761 111f 2E110000 		.4byte	0x112e
 5762 1123 16       		.uleb128 0x16
 5763 1124 01       		.uleb128 0x1
 5764 1125 51       		.byte	0x51
 5765 1126 01       		.uleb128 0x1
 5766 1127 31       		.byte	0x31
 5767 1128 16       		.uleb128 0x16
 5768 1129 01       		.uleb128 0x1
 5769 112a 50       		.byte	0x50
 5770 112b 01       		.uleb128 0x1
 5771 112c 31       		.byte	0x31
 5772 112d 00       		.byte	0
 5773 112e 15       		.uleb128 0x15
 5774 112f CC020000 		.4byte	.LVL138
 5775 1133 6D1E0000 		.4byte	0x1e6d
 5776 1137 41110000 		.4byte	0x1141
 5777 113b 16       		.uleb128 0x16
 5778 113c 01       		.uleb128 0x1
 5779 113d 50       		.byte	0x50
 5780 113e 01       		.uleb128 0x1
 5781 113f 3A       		.byte	0x3a
ARM GAS  C:\Users\Diego\AppData\Local\Temp\cc9VkXHl.s 			page 129


 5782 1140 00       		.byte	0
 5783 1141 13       		.uleb128 0x13
 5784 1142 D0020000 		.4byte	.LVL139
 5785 1146 021F0000 		.4byte	0x1f02
 5786 114a 15       		.uleb128 0x15
 5787 114b F8020000 		.4byte	.LVL140
 5788 114f 381F0000 		.4byte	0x1f38
 5789 1153 62110000 		.4byte	0x1162
 5790 1157 16       		.uleb128 0x16
 5791 1158 01       		.uleb128 0x1
 5792 1159 52       		.byte	0x52
 5793 115a 01       		.uleb128 0x1
 5794 115b 30       		.byte	0x30
 5795 115c 16       		.uleb128 0x16
 5796 115d 01       		.uleb128 0x1
 5797 115e 50       		.byte	0x50
 5798 115f 01       		.uleb128 0x1
 5799 1160 31       		.byte	0x31
 5800 1161 00       		.byte	0
 5801 1162 15       		.uleb128 0x15
 5802 1163 0E030000 		.4byte	.LVL141
 5803 1167 361E0000 		.4byte	0x1e36
 5804 116b 7A110000 		.4byte	0x117a
 5805 116f 16       		.uleb128 0x16
 5806 1170 01       		.uleb128 0x1
 5807 1171 51       		.byte	0x51
 5808 1172 01       		.uleb128 0x1
 5809 1173 31       		.byte	0x31
 5810 1174 16       		.uleb128 0x16
 5811 1175 01       		.uleb128 0x1
 5812 1176 50       		.byte	0x50
 5813 1177 01       		.uleb128 0x1
 5814 1178 31       		.byte	0x31
 5815 1179 00       		.byte	0
 5816 117a 15       		.uleb128 0x15
 5817 117b 48030000 		.4byte	.LVL148
 5818 117f 361E0000 		.4byte	0x1e36
 5819 1183 93110000 		.4byte	0x1193
 5820 1187 16       		.uleb128 0x16
 5821 1188 01       		.uleb128 0x1
 5822 1189 51       		.byte	0x51
 5823 118a 02       		.uleb128 0x2
 5824 118b 08       		.byte	0x8
 5825 118c 86       		.byte	0x86
 5826 118d 16       		.uleb128 0x16
 5827 118e 01       		.uleb128 0x1
 5828 118f 50       		.byte	0x50
 5829 1190 01       		.uleb128 0x1
 5830 1191 31       		.byte	0x31
 5831 1192 00       		.byte	0
 5832 1193 13       		.uleb128 0x13
 5833 1194 4E030000 		.4byte	.LVL149
 5834 1198 F71E0000 		.4byte	0x1ef7
 5835 119c 15       		.uleb128 0x15
 5836 119d D0030000 		.4byte	.LVL150
 5837 11a1 361E0000 		.4byte	0x1e36
 5838 11a5 B4110000 		.4byte	0x11b4
ARM GAS  C:\Users\Diego\AppData\Local\Temp\cc9VkXHl.s 			page 130


 5839 11a9 16       		.uleb128 0x16
 5840 11aa 01       		.uleb128 0x1
 5841 11ab 51       		.byte	0x51
 5842 11ac 01       		.uleb128 0x1
 5843 11ad 3B       		.byte	0x3b
 5844 11ae 16       		.uleb128 0x16
 5845 11af 01       		.uleb128 0x1
 5846 11b0 50       		.byte	0x50
 5847 11b1 01       		.uleb128 0x1
 5848 11b2 31       		.byte	0x31
 5849 11b3 00       		.byte	0
 5850 11b4 15       		.uleb128 0x15
 5851 11b5 E8030000 		.4byte	.LVL151
 5852 11b9 361E0000 		.4byte	0x1e36
 5853 11bd CC110000 		.4byte	0x11cc
 5854 11c1 16       		.uleb128 0x16
 5855 11c2 01       		.uleb128 0x1
 5856 11c3 51       		.byte	0x51
 5857 11c4 01       		.uleb128 0x1
 5858 11c5 3B       		.byte	0x3b
 5859 11c6 16       		.uleb128 0x16
 5860 11c7 01       		.uleb128 0x1
 5861 11c8 50       		.byte	0x50
 5862 11c9 01       		.uleb128 0x1
 5863 11ca 31       		.byte	0x31
 5864 11cb 00       		.byte	0
 5865 11cc 15       		.uleb128 0x15
 5866 11cd 00040000 		.4byte	.LVL152
 5867 11d1 361E0000 		.4byte	0x1e36
 5868 11d5 E4110000 		.4byte	0x11e4
 5869 11d9 16       		.uleb128 0x16
 5870 11da 01       		.uleb128 0x1
 5871 11db 51       		.byte	0x51
 5872 11dc 01       		.uleb128 0x1
 5873 11dd 3B       		.byte	0x3b
 5874 11de 16       		.uleb128 0x16
 5875 11df 01       		.uleb128 0x1
 5876 11e0 50       		.byte	0x50
 5877 11e1 01       		.uleb128 0x1
 5878 11e2 31       		.byte	0x31
 5879 11e3 00       		.byte	0
 5880 11e4 15       		.uleb128 0x15
 5881 11e5 18040000 		.4byte	.LVL153
 5882 11e9 361E0000 		.4byte	0x1e36
 5883 11ed FC110000 		.4byte	0x11fc
 5884 11f1 16       		.uleb128 0x16
 5885 11f2 01       		.uleb128 0x1
 5886 11f3 51       		.byte	0x51
 5887 11f4 01       		.uleb128 0x1
 5888 11f5 3B       		.byte	0x3b
 5889 11f6 16       		.uleb128 0x16
 5890 11f7 01       		.uleb128 0x1
 5891 11f8 50       		.byte	0x50
 5892 11f9 01       		.uleb128 0x1
 5893 11fa 31       		.byte	0x31
 5894 11fb 00       		.byte	0
 5895 11fc 15       		.uleb128 0x15
ARM GAS  C:\Users\Diego\AppData\Local\Temp\cc9VkXHl.s 			page 131


 5896 11fd 28040000 		.4byte	.LVL154
 5897 1201 361E0000 		.4byte	0x1e36
 5898 1205 14120000 		.4byte	0x1214
 5899 1209 16       		.uleb128 0x16
 5900 120a 01       		.uleb128 0x1
 5901 120b 51       		.byte	0x51
 5902 120c 01       		.uleb128 0x1
 5903 120d 31       		.byte	0x31
 5904 120e 16       		.uleb128 0x16
 5905 120f 01       		.uleb128 0x1
 5906 1210 50       		.byte	0x50
 5907 1211 01       		.uleb128 0x1
 5908 1212 31       		.byte	0x31
 5909 1213 00       		.byte	0
 5910 1214 15       		.uleb128 0x15
 5911 1215 32040000 		.4byte	.LVL155
 5912 1219 361E0000 		.4byte	0x1e36
 5913 121d 2C120000 		.4byte	0x122c
 5914 1221 16       		.uleb128 0x16
 5915 1222 01       		.uleb128 0x1
 5916 1223 51       		.byte	0x51
 5917 1224 01       		.uleb128 0x1
 5918 1225 31       		.byte	0x31
 5919 1226 16       		.uleb128 0x16
 5920 1227 01       		.uleb128 0x1
 5921 1228 50       		.byte	0x50
 5922 1229 01       		.uleb128 0x1
 5923 122a 31       		.byte	0x31
 5924 122b 00       		.byte	0
 5925 122c 15       		.uleb128 0x15
 5926 122d 3E040000 		.4byte	.LVL156
 5927 1231 6D1E0000 		.4byte	0x1e6d
 5928 1235 3F120000 		.4byte	0x123f
 5929 1239 16       		.uleb128 0x16
 5930 123a 01       		.uleb128 0x1
 5931 123b 50       		.byte	0x50
 5932 123c 01       		.uleb128 0x1
 5933 123d 3A       		.byte	0x3a
 5934 123e 00       		.byte	0
 5935 123f 13       		.uleb128 0x13
 5936 1240 42040000 		.4byte	.LVL157
 5937 1244 021F0000 		.4byte	0x1f02
 5938 1248 13       		.uleb128 0x13
 5939 1249 48040000 		.4byte	.LVL158
 5940 124d F71E0000 		.4byte	0x1ef7
 5941 1251 15       		.uleb128 0x15
 5942 1252 9E040000 		.4byte	.LVL159
 5943 1256 361E0000 		.4byte	0x1e36
 5944 125a 69120000 		.4byte	0x1269
 5945 125e 16       		.uleb128 0x16
 5946 125f 01       		.uleb128 0x1
 5947 1260 51       		.byte	0x51
 5948 1261 01       		.uleb128 0x1
 5949 1262 3A       		.byte	0x3a
 5950 1263 16       		.uleb128 0x16
 5951 1264 01       		.uleb128 0x1
 5952 1265 50       		.byte	0x50
ARM GAS  C:\Users\Diego\AppData\Local\Temp\cc9VkXHl.s 			page 132


 5953 1266 01       		.uleb128 0x1
 5954 1267 31       		.byte	0x31
 5955 1268 00       		.byte	0
 5956 1269 15       		.uleb128 0x15
 5957 126a B8040000 		.4byte	.LVL160
 5958 126e 361E0000 		.4byte	0x1e36
 5959 1272 81120000 		.4byte	0x1281
 5960 1276 16       		.uleb128 0x16
 5961 1277 01       		.uleb128 0x1
 5962 1278 51       		.byte	0x51
 5963 1279 01       		.uleb128 0x1
 5964 127a 37       		.byte	0x37
 5965 127b 16       		.uleb128 0x16
 5966 127c 01       		.uleb128 0x1
 5967 127d 50       		.byte	0x50
 5968 127e 01       		.uleb128 0x1
 5969 127f 31       		.byte	0x31
 5970 1280 00       		.byte	0
 5971 1281 15       		.uleb128 0x15
 5972 1282 C2040000 		.4byte	.LVL161
 5973 1286 361E0000 		.4byte	0x1e36
 5974 128a 99120000 		.4byte	0x1299
 5975 128e 16       		.uleb128 0x16
 5976 128f 01       		.uleb128 0x1
 5977 1290 51       		.byte	0x51
 5978 1291 01       		.uleb128 0x1
 5979 1292 31       		.byte	0x31
 5980 1293 16       		.uleb128 0x16
 5981 1294 01       		.uleb128 0x1
 5982 1295 50       		.byte	0x50
 5983 1296 01       		.uleb128 0x1
 5984 1297 31       		.byte	0x31
 5985 1298 00       		.byte	0
 5986 1299 15       		.uleb128 0x15
 5987 129a CE040000 		.4byte	.LVL162
 5988 129e 6D1E0000 		.4byte	0x1e6d
 5989 12a2 AC120000 		.4byte	0x12ac
 5990 12a6 16       		.uleb128 0x16
 5991 12a7 01       		.uleb128 0x1
 5992 12a8 50       		.byte	0x50
 5993 12a9 01       		.uleb128 0x1
 5994 12aa 3A       		.byte	0x3a
 5995 12ab 00       		.byte	0
 5996 12ac 13       		.uleb128 0x13
 5997 12ad D2040000 		.4byte	.LVL163
 5998 12b1 021F0000 		.4byte	0x1f02
 5999 12b5 15       		.uleb128 0x15
 6000 12b6 DA040000 		.4byte	.LVL164
 6001 12ba 571F0000 		.4byte	0x1f57
 6002 12be CC120000 		.4byte	0x12cc
 6003 12c2 16       		.uleb128 0x16
 6004 12c3 01       		.uleb128 0x1
 6005 12c4 50       		.byte	0x50
 6006 12c5 05       		.uleb128 0x5
 6007 12c6 03       		.byte	0x3
 6008 12c7 00000000 		.4byte	animacion
 6009 12cb 00       		.byte	0
ARM GAS  C:\Users\Diego\AppData\Local\Temp\cc9VkXHl.s 			page 133


 6010 12cc 13       		.uleb128 0x13
 6011 12cd DE040000 		.4byte	.LVL165
 6012 12d1 681F0000 		.4byte	0x1f68
 6013 12d5 15       		.uleb128 0x15
 6014 12d6 E4040000 		.4byte	.LVL166
 6015 12da 6F1F0000 		.4byte	0x1f6f
 6016 12de E8120000 		.4byte	0x12e8
 6017 12e2 16       		.uleb128 0x16
 6018 12e3 01       		.uleb128 0x1
 6019 12e4 50       		.byte	0x50
 6020 12e5 01       		.uleb128 0x1
 6021 12e6 31       		.byte	0x31
 6022 12e7 00       		.byte	0
 6023 12e8 15       		.uleb128 0x15
 6024 12e9 08050000 		.4byte	.LVL167
 6025 12ed 841F0000 		.4byte	0x1f84
 6026 12f1 FF120000 		.4byte	0x12ff
 6027 12f5 16       		.uleb128 0x16
 6028 12f6 01       		.uleb128 0x1
 6029 12f7 52       		.byte	0x52
 6030 12f8 05       		.uleb128 0x5
 6031 12f9 03       		.byte	0x3
 6032 12fa 65000000 		.4byte	bufferDisplay1+101
 6033 12fe 00       		.byte	0
 6034 12ff 13       		.uleb128 0x13
 6035 1300 14050000 		.4byte	.LVL168
 6036 1304 891E0000 		.4byte	0x1e89
 6037 1308 13       		.uleb128 0x13
 6038 1309 1E050000 		.4byte	.LVL169
 6039 130d A81F0000 		.4byte	0x1fa8
 6040 1311 15       		.uleb128 0x15
 6041 1312 24050000 		.4byte	.LVL170
 6042 1316 6D1E0000 		.4byte	0x1e6d
 6043 131a 25130000 		.4byte	0x1325
 6044 131e 16       		.uleb128 0x16
 6045 131f 01       		.uleb128 0x1
 6046 1320 50       		.byte	0x50
 6047 1321 02       		.uleb128 0x2
 6048 1322 08       		.byte	0x8
 6049 1323 32       		.byte	0x32
 6050 1324 00       		.byte	0
 6051 1325 15       		.uleb128 0x15
 6052 1326 30050000 		.4byte	.LVL171
 6053 132a 361E0000 		.4byte	0x1e36
 6054 132e 3D130000 		.4byte	0x133d
 6055 1332 16       		.uleb128 0x16
 6056 1333 01       		.uleb128 0x1
 6057 1334 51       		.byte	0x51
 6058 1335 01       		.uleb128 0x1
 6059 1336 38       		.byte	0x38
 6060 1337 16       		.uleb128 0x16
 6061 1338 01       		.uleb128 0x1
 6062 1339 50       		.byte	0x50
 6063 133a 01       		.uleb128 0x1
 6064 133b 31       		.byte	0x31
 6065 133c 00       		.byte	0
 6066 133d 15       		.uleb128 0x15
ARM GAS  C:\Users\Diego\AppData\Local\Temp\cc9VkXHl.s 			page 134


 6067 133e 3E050000 		.4byte	.LVL172
 6068 1342 361E0000 		.4byte	0x1e36
 6069 1346 55130000 		.4byte	0x1355
 6070 134a 16       		.uleb128 0x16
 6071 134b 01       		.uleb128 0x1
 6072 134c 51       		.byte	0x51
 6073 134d 01       		.uleb128 0x1
 6074 134e 30       		.byte	0x30
 6075 134f 16       		.uleb128 0x16
 6076 1350 01       		.uleb128 0x1
 6077 1351 50       		.byte	0x50
 6078 1352 01       		.uleb128 0x1
 6079 1353 31       		.byte	0x31
 6080 1354 00       		.byte	0
 6081 1355 15       		.uleb128 0x15
 6082 1356 44050000 		.4byte	.LVL173
 6083 135a 6D1E0000 		.4byte	0x1e6d
 6084 135e 69130000 		.4byte	0x1369
 6085 1362 16       		.uleb128 0x16
 6086 1363 01       		.uleb128 0x1
 6087 1364 50       		.byte	0x50
 6088 1365 02       		.uleb128 0x2
 6089 1366 08       		.byte	0x8
 6090 1367 C8       		.byte	0xc8
 6091 1368 00       		.byte	0
 6092 1369 15       		.uleb128 0x15
 6093 136a 4C050000 		.4byte	.LVL174
 6094 136e 361E0000 		.4byte	0x1e36
 6095 1372 81130000 		.4byte	0x1381
 6096 1376 16       		.uleb128 0x16
 6097 1377 01       		.uleb128 0x1
 6098 1378 51       		.byte	0x51
 6099 1379 01       		.uleb128 0x1
 6100 137a 31       		.byte	0x31
 6101 137b 16       		.uleb128 0x16
 6102 137c 01       		.uleb128 0x1
 6103 137d 50       		.byte	0x50
 6104 137e 01       		.uleb128 0x1
 6105 137f 31       		.byte	0x31
 6106 1380 00       		.byte	0
 6107 1381 15       		.uleb128 0x15
 6108 1382 90050000 		.4byte	.LVL175
 6109 1386 361E0000 		.4byte	0x1e36
 6110 138a 99130000 		.4byte	0x1399
 6111 138e 16       		.uleb128 0x16
 6112 138f 01       		.uleb128 0x1
 6113 1390 51       		.byte	0x51
 6114 1391 01       		.uleb128 0x1
 6115 1392 31       		.byte	0x31
 6116 1393 16       		.uleb128 0x16
 6117 1394 01       		.uleb128 0x1
 6118 1395 50       		.byte	0x50
 6119 1396 01       		.uleb128 0x1
 6120 1397 31       		.byte	0x31
 6121 1398 00       		.byte	0
 6122 1399 13       		.uleb128 0x13
 6123 139a 94050000 		.4byte	.LVL176
ARM GAS  C:\Users\Diego\AppData\Local\Temp\cc9VkXHl.s 			page 135


 6124 139e F71E0000 		.4byte	0x1ef7
 6125 13a2 15       		.uleb128 0x15
 6126 13a3 C8050000 		.4byte	.LVL177
 6127 13a7 361E0000 		.4byte	0x1e36
 6128 13ab BA130000 		.4byte	0x13ba
 6129 13af 16       		.uleb128 0x16
 6130 13b0 01       		.uleb128 0x1
 6131 13b1 51       		.byte	0x51
 6132 13b2 01       		.uleb128 0x1
 6133 13b3 31       		.byte	0x31
 6134 13b4 16       		.uleb128 0x16
 6135 13b5 01       		.uleb128 0x1
 6136 13b6 50       		.byte	0x50
 6137 13b7 01       		.uleb128 0x1
 6138 13b8 31       		.byte	0x31
 6139 13b9 00       		.byte	0
 6140 13ba 15       		.uleb128 0x15
 6141 13bb D4050000 		.4byte	.LVL178
 6142 13bf 6D1E0000 		.4byte	0x1e6d
 6143 13c3 CD130000 		.4byte	0x13cd
 6144 13c7 16       		.uleb128 0x16
 6145 13c8 01       		.uleb128 0x1
 6146 13c9 50       		.byte	0x50
 6147 13ca 01       		.uleb128 0x1
 6148 13cb 3A       		.byte	0x3a
 6149 13cc 00       		.byte	0
 6150 13cd 13       		.uleb128 0x13
 6151 13ce D8050000 		.4byte	.LVL179
 6152 13d2 021F0000 		.4byte	0x1f02
 6153 13d6 13       		.uleb128 0x13
 6154 13d7 E2050000 		.4byte	.LVL180
 6155 13db 891E0000 		.4byte	0x1e89
 6156 13df 13       		.uleb128 0x13
 6157 13e0 FA050000 		.4byte	.LVL181
 6158 13e4 B91F0000 		.4byte	0x1fb9
 6159 13e8 15       		.uleb128 0x15
 6160 13e9 14060000 		.4byte	.LVL182
 6161 13ed CE1F0000 		.4byte	0x1fce
 6162 13f1 FB130000 		.4byte	0x13fb
 6163 13f5 16       		.uleb128 0x16
 6164 13f6 01       		.uleb128 0x1
 6165 13f7 50       		.byte	0x50
 6166 13f8 01       		.uleb128 0x1
 6167 13f9 31       		.byte	0x31
 6168 13fa 00       		.byte	0
 6169 13fb 15       		.uleb128 0x15
 6170 13fc 1C060000 		.4byte	.LVL183
 6171 1400 361E0000 		.4byte	0x1e36
 6172 1404 13140000 		.4byte	0x1413
 6173 1408 16       		.uleb128 0x16
 6174 1409 01       		.uleb128 0x1
 6175 140a 51       		.byte	0x51
 6176 140b 01       		.uleb128 0x1
 6177 140c 31       		.byte	0x31
 6178 140d 16       		.uleb128 0x16
 6179 140e 01       		.uleb128 0x1
 6180 140f 50       		.byte	0x50
ARM GAS  C:\Users\Diego\AppData\Local\Temp\cc9VkXHl.s 			page 136


 6181 1410 01       		.uleb128 0x1
 6182 1411 31       		.byte	0x31
 6183 1412 00       		.byte	0
 6184 1413 13       		.uleb128 0x13
 6185 1414 26060000 		.4byte	.LVL184
 6186 1418 B91F0000 		.4byte	0x1fb9
 6187 141c 15       		.uleb128 0x15
 6188 141d 40060000 		.4byte	.LVL185
 6189 1421 CE1F0000 		.4byte	0x1fce
 6190 1425 2F140000 		.4byte	0x142f
 6191 1429 16       		.uleb128 0x16
 6192 142a 01       		.uleb128 0x1
 6193 142b 50       		.byte	0x50
 6194 142c 01       		.uleb128 0x1
 6195 142d 31       		.byte	0x31
 6196 142e 00       		.byte	0
 6197 142f 15       		.uleb128 0x15
 6198 1430 48060000 		.4byte	.LVL186
 6199 1434 361E0000 		.4byte	0x1e36
 6200 1438 47140000 		.4byte	0x1447
 6201 143c 16       		.uleb128 0x16
 6202 143d 01       		.uleb128 0x1
 6203 143e 51       		.byte	0x51
 6204 143f 01       		.uleb128 0x1
 6205 1440 31       		.byte	0x31
 6206 1441 16       		.uleb128 0x16
 6207 1442 01       		.uleb128 0x1
 6208 1443 50       		.byte	0x50
 6209 1444 01       		.uleb128 0x1
 6210 1445 31       		.byte	0x31
 6211 1446 00       		.byte	0
 6212 1447 15       		.uleb128 0x15
 6213 1448 58060000 		.4byte	.LVL187
 6214 144c 361E0000 		.4byte	0x1e36
 6215 1450 5F140000 		.4byte	0x145f
 6216 1454 16       		.uleb128 0x16
 6217 1455 01       		.uleb128 0x1
 6218 1456 51       		.byte	0x51
 6219 1457 01       		.uleb128 0x1
 6220 1458 31       		.byte	0x31
 6221 1459 16       		.uleb128 0x16
 6222 145a 01       		.uleb128 0x1
 6223 145b 50       		.byte	0x50
 6224 145c 01       		.uleb128 0x1
 6225 145d 31       		.byte	0x31
 6226 145e 00       		.byte	0
 6227 145f 15       		.uleb128 0x15
 6228 1460 64060000 		.4byte	.LVL188
 6229 1464 381F0000 		.4byte	0x1f38
 6230 1468 7C140000 		.4byte	0x147c
 6231 146c 16       		.uleb128 0x16
 6232 146d 01       		.uleb128 0x1
 6233 146e 52       		.byte	0x52
 6234 146f 01       		.uleb128 0x1
 6235 1470 30       		.byte	0x30
 6236 1471 16       		.uleb128 0x16
 6237 1472 01       		.uleb128 0x1
ARM GAS  C:\Users\Diego\AppData\Local\Temp\cc9VkXHl.s 			page 137


 6238 1473 51       		.byte	0x51
 6239 1474 01       		.uleb128 0x1
 6240 1475 3A       		.byte	0x3a
 6241 1476 16       		.uleb128 0x16
 6242 1477 01       		.uleb128 0x1
 6243 1478 50       		.byte	0x50
 6244 1479 01       		.uleb128 0x1
 6245 147a 31       		.byte	0x31
 6246 147b 00       		.byte	0
 6247 147c 15       		.uleb128 0x15
 6248 147d A4060000 		.4byte	.LVL195
 6249 1481 361E0000 		.4byte	0x1e36
 6250 1485 94140000 		.4byte	0x1494
 6251 1489 16       		.uleb128 0x16
 6252 148a 01       		.uleb128 0x1
 6253 148b 51       		.byte	0x51
 6254 148c 01       		.uleb128 0x1
 6255 148d 31       		.byte	0x31
 6256 148e 16       		.uleb128 0x16
 6257 148f 01       		.uleb128 0x1
 6258 1490 50       		.byte	0x50
 6259 1491 01       		.uleb128 0x1
 6260 1492 31       		.byte	0x31
 6261 1493 00       		.byte	0
 6262 1494 13       		.uleb128 0x13
 6263 1495 D8060000 		.4byte	.LVL206
 6264 1499 021F0000 		.4byte	0x1f02
 6265 149d 15       		.uleb128 0x15
 6266 149e 18070000 		.4byte	.LVL213
 6267 14a2 361E0000 		.4byte	0x1e36
 6268 14a6 B5140000 		.4byte	0x14b5
 6269 14aa 16       		.uleb128 0x16
 6270 14ab 01       		.uleb128 0x1
 6271 14ac 51       		.byte	0x51
 6272 14ad 01       		.uleb128 0x1
 6273 14ae 37       		.byte	0x37
 6274 14af 16       		.uleb128 0x16
 6275 14b0 01       		.uleb128 0x1
 6276 14b1 50       		.byte	0x50
 6277 14b2 01       		.uleb128 0x1
 6278 14b3 31       		.byte	0x31
 6279 14b4 00       		.byte	0
 6280 14b5 15       		.uleb128 0x15
 6281 14b6 44070000 		.4byte	.LVL220
 6282 14ba 361E0000 		.4byte	0x1e36
 6283 14be CD140000 		.4byte	0x14cd
 6284 14c2 16       		.uleb128 0x16
 6285 14c3 01       		.uleb128 0x1
 6286 14c4 51       		.byte	0x51
 6287 14c5 01       		.uleb128 0x1
 6288 14c6 37       		.byte	0x37
 6289 14c7 16       		.uleb128 0x16
 6290 14c8 01       		.uleb128 0x1
 6291 14c9 50       		.byte	0x50
 6292 14ca 01       		.uleb128 0x1
 6293 14cb 31       		.byte	0x31
 6294 14cc 00       		.byte	0
ARM GAS  C:\Users\Diego\AppData\Local\Temp\cc9VkXHl.s 			page 138


 6295 14cd 13       		.uleb128 0x13
 6296 14ce 68070000 		.4byte	.LVL227
 6297 14d2 021F0000 		.4byte	0x1f02
 6298 14d6 13       		.uleb128 0x13
 6299 14d7 6E070000 		.4byte	.LVL228
 6300 14db F71E0000 		.4byte	0x1ef7
 6301 14df 15       		.uleb128 0x15
 6302 14e0 C4070000 		.4byte	.LVL229
 6303 14e4 361E0000 		.4byte	0x1e36
 6304 14e8 F7140000 		.4byte	0x14f7
 6305 14ec 16       		.uleb128 0x16
 6306 14ed 01       		.uleb128 0x1
 6307 14ee 51       		.byte	0x51
 6308 14ef 01       		.uleb128 0x1
 6309 14f0 42       		.byte	0x42
 6310 14f1 16       		.uleb128 0x16
 6311 14f2 01       		.uleb128 0x1
 6312 14f3 50       		.byte	0x50
 6313 14f4 01       		.uleb128 0x1
 6314 14f5 31       		.byte	0x31
 6315 14f6 00       		.byte	0
 6316 14f7 15       		.uleb128 0x15
 6317 14f8 DE070000 		.4byte	.LVL230
 6318 14fc 361E0000 		.4byte	0x1e36
 6319 1500 0F150000 		.4byte	0x150f
 6320 1504 16       		.uleb128 0x16
 6321 1505 01       		.uleb128 0x1
 6322 1506 51       		.byte	0x51
 6323 1507 01       		.uleb128 0x1
 6324 1508 37       		.byte	0x37
 6325 1509 16       		.uleb128 0x16
 6326 150a 01       		.uleb128 0x1
 6327 150b 50       		.byte	0x50
 6328 150c 01       		.uleb128 0x1
 6329 150d 31       		.byte	0x31
 6330 150e 00       		.byte	0
 6331 150f 15       		.uleb128 0x15
 6332 1510 E8070000 		.4byte	.LVL231
 6333 1514 361E0000 		.4byte	0x1e36
 6334 1518 27150000 		.4byte	0x1527
 6335 151c 16       		.uleb128 0x16
 6336 151d 01       		.uleb128 0x1
 6337 151e 51       		.byte	0x51
 6338 151f 01       		.uleb128 0x1
 6339 1520 31       		.byte	0x31
 6340 1521 16       		.uleb128 0x16
 6341 1522 01       		.uleb128 0x1
 6342 1523 50       		.byte	0x50
 6343 1524 01       		.uleb128 0x1
 6344 1525 31       		.byte	0x31
 6345 1526 00       		.byte	0
 6346 1527 15       		.uleb128 0x15
 6347 1528 F4070000 		.4byte	.LVL232
 6348 152c 6D1E0000 		.4byte	0x1e6d
 6349 1530 3A150000 		.4byte	0x153a
 6350 1534 16       		.uleb128 0x16
 6351 1535 01       		.uleb128 0x1
ARM GAS  C:\Users\Diego\AppData\Local\Temp\cc9VkXHl.s 			page 139


 6352 1536 50       		.byte	0x50
 6353 1537 01       		.uleb128 0x1
 6354 1538 3A       		.byte	0x3a
 6355 1539 00       		.byte	0
 6356 153a 13       		.uleb128 0x13
 6357 153b F8070000 		.4byte	.LVL233
 6358 153f 021F0000 		.4byte	0x1f02
 6359 1543 15       		.uleb128 0x15
 6360 1544 00080000 		.4byte	.LVL234
 6361 1548 571F0000 		.4byte	0x1f57
 6362 154c 5A150000 		.4byte	0x155a
 6363 1550 16       		.uleb128 0x16
 6364 1551 01       		.uleb128 0x1
 6365 1552 50       		.byte	0x50
 6366 1553 05       		.uleb128 0x5
 6367 1554 03       		.byte	0x3
 6368 1555 00000000 		.4byte	animacion
 6369 1559 00       		.byte	0
 6370 155a 13       		.uleb128 0x13
 6371 155b 04080000 		.4byte	.LVL235
 6372 155f 681F0000 		.4byte	0x1f68
 6373 1563 15       		.uleb128 0x15
 6374 1564 0A080000 		.4byte	.LVL236
 6375 1568 E41F0000 		.4byte	0x1fe4
 6376 156c 76150000 		.4byte	0x1576
 6377 1570 16       		.uleb128 0x16
 6378 1571 01       		.uleb128 0x1
 6379 1572 50       		.byte	0x50
 6380 1573 01       		.uleb128 0x1
 6381 1574 31       		.byte	0x31
 6382 1575 00       		.byte	0
 6383 1576 15       		.uleb128 0x15
 6384 1577 14080000 		.4byte	.LVL237
 6385 157b F91F0000 		.4byte	0x1ff9
 6386 157f 8A150000 		.4byte	0x158a
 6387 1583 16       		.uleb128 0x16
 6388 1584 01       		.uleb128 0x1
 6389 1585 51       		.byte	0x51
 6390 1586 02       		.uleb128 0x2
 6391 1587 08       		.byte	0x8
 6392 1588 33       		.byte	0x33
 6393 1589 00       		.byte	0
 6394 158a 15       		.uleb128 0x15
 6395 158b 1E080000 		.4byte	.LVL239
 6396 158f 13200000 		.4byte	0x2013
 6397 1593 9D150000 		.4byte	0x159d
 6398 1597 16       		.uleb128 0x16
 6399 1598 01       		.uleb128 0x1
 6400 1599 50       		.byte	0x50
 6401 159a 01       		.uleb128 0x1
 6402 159b 31       		.byte	0x31
 6403 159c 00       		.byte	0
 6404 159d 13       		.uleb128 0x13
 6405 159e 5C080000 		.4byte	.LVL246
 6406 15a2 28200000 		.4byte	0x2028
 6407 15a6 15       		.uleb128 0x15
 6408 15a7 C4080000 		.4byte	.LVL258
ARM GAS  C:\Users\Diego\AppData\Local\Temp\cc9VkXHl.s 			page 140


 6409 15ab 361E0000 		.4byte	0x1e36
 6410 15af BE150000 		.4byte	0x15be
 6411 15b3 16       		.uleb128 0x16
 6412 15b4 01       		.uleb128 0x1
 6413 15b5 51       		.byte	0x51
 6414 15b6 01       		.uleb128 0x1
 6415 15b7 43       		.byte	0x43
 6416 15b8 16       		.uleb128 0x16
 6417 15b9 01       		.uleb128 0x1
 6418 15ba 50       		.byte	0x50
 6419 15bb 01       		.uleb128 0x1
 6420 15bc 31       		.byte	0x31
 6421 15bd 00       		.byte	0
 6422 15be 13       		.uleb128 0x13
 6423 15bf C8080000 		.4byte	.LVL259
 6424 15c3 021F0000 		.4byte	0x1f02
 6425 15c7 15       		.uleb128 0x15
 6426 15c8 D0080000 		.4byte	.LVL260
 6427 15cc 6D1E0000 		.4byte	0x1e6d
 6428 15d0 DC150000 		.4byte	0x15dc
 6429 15d4 16       		.uleb128 0x16
 6430 15d5 01       		.uleb128 0x1
 6431 15d6 50       		.byte	0x50
 6432 15d7 03       		.uleb128 0x3
 6433 15d8 0A       		.byte	0xa
 6434 15d9 BC02     		.2byte	0x2bc
 6435 15db 00       		.byte	0
 6436 15dc 15       		.uleb128 0x15
 6437 15dd E4080000 		.4byte	.LVL261
 6438 15e1 361E0000 		.4byte	0x1e36
 6439 15e5 F4150000 		.4byte	0x15f4
 6440 15e9 16       		.uleb128 0x16
 6441 15ea 01       		.uleb128 0x1
 6442 15eb 51       		.byte	0x51
 6443 15ec 01       		.uleb128 0x1
 6444 15ed 3E       		.byte	0x3e
 6445 15ee 16       		.uleb128 0x16
 6446 15ef 01       		.uleb128 0x1
 6447 15f0 50       		.byte	0x50
 6448 15f1 01       		.uleb128 0x1
 6449 15f2 31       		.byte	0x31
 6450 15f3 00       		.byte	0
 6451 15f4 17       		.uleb128 0x17
 6452 15f5 FE080000 		.4byte	.LVL262
 6453 15f9 361E0000 		.4byte	0x1e36
 6454 15fd 16       		.uleb128 0x16
 6455 15fe 01       		.uleb128 0x1
 6456 15ff 51       		.byte	0x51
 6457 1600 01       		.uleb128 0x1
 6458 1601 31       		.byte	0x31
 6459 1602 16       		.uleb128 0x16
 6460 1603 01       		.uleb128 0x1
 6461 1604 50       		.byte	0x50
 6462 1605 01       		.uleb128 0x1
 6463 1606 31       		.byte	0x31
 6464 1607 00       		.byte	0
 6465 1608 00       		.byte	0
ARM GAS  C:\Users\Diego\AppData\Local\Temp\cc9VkXHl.s 			page 141


 6466 1609 12       		.uleb128 0x12
 6467 160a 2A080000 		.4byte	.LASF162
 6468 160e 01       		.byte	0x1
 6469 160f C602     		.2byte	0x2c6
 6470 1611 00000000 		.4byte	.LFB71
 6471 1615 2C030000 		.4byte	.LFE71-.LFB71
 6472 1619 01       		.uleb128 0x1
 6473 161a 9C       		.byte	0x9c
 6474 161b 03190000 		.4byte	0x1903
 6475 161f 13       		.uleb128 0x13
 6476 1620 22000000 		.4byte	.LVL263
 6477 1624 230B0000 		.4byte	0xb23
 6478 1628 15       		.uleb128 0x15
 6479 1629 32000000 		.4byte	.LVL264
 6480 162d 42200000 		.4byte	0x2042
 6481 1631 41160000 		.4byte	0x1641
 6482 1635 16       		.uleb128 0x16
 6483 1636 01       		.uleb128 0x1
 6484 1637 51       		.byte	0x51
 6485 1638 02       		.uleb128 0x2
 6486 1639 08       		.byte	0x8
 6487 163a 23       		.byte	0x23
 6488 163b 16       		.uleb128 0x16
 6489 163c 01       		.uleb128 0x1
 6490 163d 50       		.byte	0x50
 6491 163e 01       		.uleb128 0x1
 6492 163f 32       		.byte	0x32
 6493 1640 00       		.byte	0
 6494 1641 13       		.uleb128 0x13
 6495 1642 36000000 		.4byte	.LVL265
 6496 1646 58200000 		.4byte	0x2058
 6497 164a 15       		.uleb128 0x15
 6498 164b 76000000 		.4byte	.LVL266
 6499 164f 361E0000 		.4byte	0x1e36
 6500 1653 62160000 		.4byte	0x1662
 6501 1657 16       		.uleb128 0x16
 6502 1658 01       		.uleb128 0x1
 6503 1659 51       		.byte	0x51
 6504 165a 01       		.uleb128 0x1
 6505 165b 34       		.byte	0x34
 6506 165c 16       		.uleb128 0x16
 6507 165d 01       		.uleb128 0x1
 6508 165e 50       		.byte	0x50
 6509 165f 01       		.uleb128 0x1
 6510 1660 32       		.byte	0x32
 6511 1661 00       		.byte	0
 6512 1662 15       		.uleb128 0x15
 6513 1663 80000000 		.4byte	.LVL267
 6514 1667 361E0000 		.4byte	0x1e36
 6515 166b 7A160000 		.4byte	0x167a
 6516 166f 16       		.uleb128 0x16
 6517 1670 01       		.uleb128 0x1
 6518 1671 51       		.byte	0x51
 6519 1672 01       		.uleb128 0x1
 6520 1673 31       		.byte	0x31
 6521 1674 16       		.uleb128 0x16
 6522 1675 01       		.uleb128 0x1
ARM GAS  C:\Users\Diego\AppData\Local\Temp\cc9VkXHl.s 			page 142


 6523 1676 50       		.byte	0x50
 6524 1677 01       		.uleb128 0x1
 6525 1678 32       		.byte	0x32
 6526 1679 00       		.byte	0
 6527 167a 15       		.uleb128 0x15
 6528 167b 8C000000 		.4byte	.LVL268
 6529 167f 6D1E0000 		.4byte	0x1e6d
 6530 1683 8D160000 		.4byte	0x168d
 6531 1687 16       		.uleb128 0x16
 6532 1688 01       		.uleb128 0x1
 6533 1689 50       		.byte	0x50
 6534 168a 01       		.uleb128 0x1
 6535 168b 3A       		.byte	0x3a
 6536 168c 00       		.byte	0
 6537 168d 13       		.uleb128 0x13
 6538 168e 90000000 		.4byte	.LVL269
 6539 1692 63200000 		.4byte	0x2063
 6540 1696 13       		.uleb128 0x13
 6541 1697 96000000 		.4byte	.LVL270
 6542 169b 58200000 		.4byte	0x2058
 6543 169f 15       		.uleb128 0x15
 6544 16a0 E8000000 		.4byte	.LVL271
 6545 16a4 361E0000 		.4byte	0x1e36
 6546 16a8 B7160000 		.4byte	0x16b7
 6547 16ac 16       		.uleb128 0x16
 6548 16ad 01       		.uleb128 0x1
 6549 16ae 51       		.byte	0x51
 6550 16af 01       		.uleb128 0x1
 6551 16b0 35       		.byte	0x35
 6552 16b1 16       		.uleb128 0x16
 6553 16b2 01       		.uleb128 0x1
 6554 16b3 50       		.byte	0x50
 6555 16b4 01       		.uleb128 0x1
 6556 16b5 32       		.byte	0x32
 6557 16b6 00       		.byte	0
 6558 16b7 15       		.uleb128 0x15
 6559 16b8 F8000000 		.4byte	.LVL272
 6560 16bc 361E0000 		.4byte	0x1e36
 6561 16c0 D0160000 		.4byte	0x16d0
 6562 16c4 16       		.uleb128 0x16
 6563 16c5 01       		.uleb128 0x1
 6564 16c6 51       		.byte	0x51
 6565 16c7 02       		.uleb128 0x2
 6566 16c8 08       		.byte	0x8
 6567 16c9 85       		.byte	0x85
 6568 16ca 16       		.uleb128 0x16
 6569 16cb 01       		.uleb128 0x1
 6570 16cc 50       		.byte	0x50
 6571 16cd 01       		.uleb128 0x1
 6572 16ce 32       		.byte	0x32
 6573 16cf 00       		.byte	0
 6574 16d0 15       		.uleb128 0x15
 6575 16d1 08010000 		.4byte	.LVL273
 6576 16d5 361E0000 		.4byte	0x1e36
 6577 16d9 E9160000 		.4byte	0x16e9
 6578 16dd 16       		.uleb128 0x16
 6579 16de 01       		.uleb128 0x1
ARM GAS  C:\Users\Diego\AppData\Local\Temp\cc9VkXHl.s 			page 143


 6580 16df 51       		.byte	0x51
 6581 16e0 02       		.uleb128 0x2
 6582 16e1 08       		.byte	0x8
 6583 16e2 83       		.byte	0x83
 6584 16e3 16       		.uleb128 0x16
 6585 16e4 01       		.uleb128 0x1
 6586 16e5 50       		.byte	0x50
 6587 16e6 01       		.uleb128 0x1
 6588 16e7 32       		.byte	0x32
 6589 16e8 00       		.byte	0
 6590 16e9 15       		.uleb128 0x15
 6591 16ea 18010000 		.4byte	.LVL274
 6592 16ee 361E0000 		.4byte	0x1e36
 6593 16f2 01170000 		.4byte	0x1701
 6594 16f6 16       		.uleb128 0x16
 6595 16f7 01       		.uleb128 0x1
 6596 16f8 51       		.byte	0x51
 6597 16f9 01       		.uleb128 0x1
 6598 16fa 31       		.byte	0x31
 6599 16fb 16       		.uleb128 0x16
 6600 16fc 01       		.uleb128 0x1
 6601 16fd 50       		.byte	0x50
 6602 16fe 01       		.uleb128 0x1
 6603 16ff 32       		.byte	0x32
 6604 1700 00       		.byte	0
 6605 1701 15       		.uleb128 0x15
 6606 1702 28010000 		.4byte	.LVL275
 6607 1706 361E0000 		.4byte	0x1e36
 6608 170a 19170000 		.4byte	0x1719
 6609 170e 16       		.uleb128 0x16
 6610 170f 01       		.uleb128 0x1
 6611 1710 51       		.byte	0x51
 6612 1711 01       		.uleb128 0x1
 6613 1712 31       		.byte	0x31
 6614 1713 16       		.uleb128 0x16
 6615 1714 01       		.uleb128 0x1
 6616 1715 50       		.byte	0x50
 6617 1716 01       		.uleb128 0x1
 6618 1717 32       		.byte	0x32
 6619 1718 00       		.byte	0
 6620 1719 15       		.uleb128 0x15
 6621 171a 2E010000 		.4byte	.LVL276
 6622 171e 6D1E0000 		.4byte	0x1e6d
 6623 1722 2C170000 		.4byte	0x172c
 6624 1726 16       		.uleb128 0x16
 6625 1727 01       		.uleb128 0x1
 6626 1728 50       		.byte	0x50
 6627 1729 01       		.uleb128 0x1
 6628 172a 3A       		.byte	0x3a
 6629 172b 00       		.byte	0
 6630 172c 13       		.uleb128 0x13
 6631 172d 32010000 		.4byte	.LVL277
 6632 1731 63200000 		.4byte	0x2063
 6633 1735 13       		.uleb128 0x13
 6634 1736 38010000 		.4byte	.LVL278
 6635 173a 58200000 		.4byte	0x2058
 6636 173e 15       		.uleb128 0x15
ARM GAS  C:\Users\Diego\AppData\Local\Temp\cc9VkXHl.s 			page 144


 6637 173f 8E010000 		.4byte	.LVL279
 6638 1743 361E0000 		.4byte	0x1e36
 6639 1747 56170000 		.4byte	0x1756
 6640 174b 16       		.uleb128 0x16
 6641 174c 01       		.uleb128 0x1
 6642 174d 51       		.byte	0x51
 6643 174e 01       		.uleb128 0x1
 6644 174f 36       		.byte	0x36
 6645 1750 16       		.uleb128 0x16
 6646 1751 01       		.uleb128 0x1
 6647 1752 50       		.byte	0x50
 6648 1753 01       		.uleb128 0x1
 6649 1754 32       		.byte	0x32
 6650 1755 00       		.byte	0
 6651 1756 15       		.uleb128 0x15
 6652 1757 9E010000 		.4byte	.LVL280
 6653 175b 361E0000 		.4byte	0x1e36
 6654 175f 6E170000 		.4byte	0x176e
 6655 1763 16       		.uleb128 0x16
 6656 1764 01       		.uleb128 0x1
 6657 1765 51       		.byte	0x51
 6658 1766 01       		.uleb128 0x1
 6659 1767 3D       		.byte	0x3d
 6660 1768 16       		.uleb128 0x16
 6661 1769 01       		.uleb128 0x1
 6662 176a 50       		.byte	0x50
 6663 176b 01       		.uleb128 0x1
 6664 176c 32       		.byte	0x32
 6665 176d 00       		.byte	0
 6666 176e 15       		.uleb128 0x15
 6667 176f AE010000 		.4byte	.LVL281
 6668 1773 361E0000 		.4byte	0x1e36
 6669 1777 86170000 		.4byte	0x1786
 6670 177b 16       		.uleb128 0x16
 6671 177c 01       		.uleb128 0x1
 6672 177d 51       		.byte	0x51
 6673 177e 01       		.uleb128 0x1
 6674 177f 3B       		.byte	0x3b
 6675 1780 16       		.uleb128 0x16
 6676 1781 01       		.uleb128 0x1
 6677 1782 50       		.byte	0x50
 6678 1783 01       		.uleb128 0x1
 6679 1784 32       		.byte	0x32
 6680 1785 00       		.byte	0
 6681 1786 15       		.uleb128 0x15
 6682 1787 BE010000 		.4byte	.LVL282
 6683 178b 361E0000 		.4byte	0x1e36
 6684 178f 9E170000 		.4byte	0x179e
 6685 1793 16       		.uleb128 0x16
 6686 1794 01       		.uleb128 0x1
 6687 1795 51       		.byte	0x51
 6688 1796 01       		.uleb128 0x1
 6689 1797 31       		.byte	0x31
 6690 1798 16       		.uleb128 0x16
 6691 1799 01       		.uleb128 0x1
 6692 179a 50       		.byte	0x50
 6693 179b 01       		.uleb128 0x1
ARM GAS  C:\Users\Diego\AppData\Local\Temp\cc9VkXHl.s 			page 145


 6694 179c 32       		.byte	0x32
 6695 179d 00       		.byte	0
 6696 179e 15       		.uleb128 0x15
 6697 179f CE010000 		.4byte	.LVL283
 6698 17a3 361E0000 		.4byte	0x1e36
 6699 17a7 B6170000 		.4byte	0x17b6
 6700 17ab 16       		.uleb128 0x16
 6701 17ac 01       		.uleb128 0x1
 6702 17ad 51       		.byte	0x51
 6703 17ae 01       		.uleb128 0x1
 6704 17af 31       		.byte	0x31
 6705 17b0 16       		.uleb128 0x16
 6706 17b1 01       		.uleb128 0x1
 6707 17b2 50       		.byte	0x50
 6708 17b3 01       		.uleb128 0x1
 6709 17b4 32       		.byte	0x32
 6710 17b5 00       		.byte	0
 6711 17b6 15       		.uleb128 0x15
 6712 17b7 DE010000 		.4byte	.LVL284
 6713 17bb 361E0000 		.4byte	0x1e36
 6714 17bf CE170000 		.4byte	0x17ce
 6715 17c3 16       		.uleb128 0x16
 6716 17c4 01       		.uleb128 0x1
 6717 17c5 51       		.byte	0x51
 6718 17c6 01       		.uleb128 0x1
 6719 17c7 31       		.byte	0x31
 6720 17c8 16       		.uleb128 0x16
 6721 17c9 01       		.uleb128 0x1
 6722 17ca 50       		.byte	0x50
 6723 17cb 01       		.uleb128 0x1
 6724 17cc 32       		.byte	0x32
 6725 17cd 00       		.byte	0
 6726 17ce 15       		.uleb128 0x15
 6727 17cf E4010000 		.4byte	.LVL285
 6728 17d3 6D1E0000 		.4byte	0x1e6d
 6729 17d7 E1170000 		.4byte	0x17e1
 6730 17db 16       		.uleb128 0x16
 6731 17dc 01       		.uleb128 0x1
 6732 17dd 50       		.byte	0x50
 6733 17de 01       		.uleb128 0x1
 6734 17df 3A       		.byte	0x3a
 6735 17e0 00       		.byte	0
 6736 17e1 13       		.uleb128 0x13
 6737 17e2 E8010000 		.4byte	.LVL286
 6738 17e6 63200000 		.4byte	0x2063
 6739 17ea 13       		.uleb128 0x13
 6740 17eb EE010000 		.4byte	.LVL287
 6741 17ef 58200000 		.4byte	0x2058
 6742 17f3 15       		.uleb128 0x15
 6743 17f4 2E020000 		.4byte	.LVL288
 6744 17f8 361E0000 		.4byte	0x1e36
 6745 17fc 0B180000 		.4byte	0x180b
 6746 1800 16       		.uleb128 0x16
 6747 1801 01       		.uleb128 0x1
 6748 1802 51       		.byte	0x51
 6749 1803 01       		.uleb128 0x1
 6750 1804 31       		.byte	0x31
ARM GAS  C:\Users\Diego\AppData\Local\Temp\cc9VkXHl.s 			page 146


 6751 1805 16       		.uleb128 0x16
 6752 1806 01       		.uleb128 0x1
 6753 1807 50       		.byte	0x50
 6754 1808 01       		.uleb128 0x1
 6755 1809 32       		.byte	0x32
 6756 180a 00       		.byte	0
 6757 180b 15       		.uleb128 0x15
 6758 180c 3E020000 		.4byte	.LVL289
 6759 1810 361E0000 		.4byte	0x1e36
 6760 1814 23180000 		.4byte	0x1823
 6761 1818 16       		.uleb128 0x16
 6762 1819 01       		.uleb128 0x1
 6763 181a 51       		.byte	0x51
 6764 181b 01       		.uleb128 0x1
 6765 181c 31       		.byte	0x31
 6766 181d 16       		.uleb128 0x16
 6767 181e 01       		.uleb128 0x1
 6768 181f 50       		.byte	0x50
 6769 1820 01       		.uleb128 0x1
 6770 1821 32       		.byte	0x32
 6771 1822 00       		.byte	0
 6772 1823 15       		.uleb128 0x15
 6773 1824 44020000 		.4byte	.LVL290
 6774 1828 6D1E0000 		.4byte	0x1e6d
 6775 182c 36180000 		.4byte	0x1836
 6776 1830 16       		.uleb128 0x16
 6777 1831 01       		.uleb128 0x1
 6778 1832 50       		.byte	0x50
 6779 1833 01       		.uleb128 0x1
 6780 1834 3A       		.byte	0x3a
 6781 1835 00       		.byte	0
 6782 1836 13       		.uleb128 0x13
 6783 1837 48020000 		.4byte	.LVL291
 6784 183b 63200000 		.4byte	0x2063
 6785 183f 13       		.uleb128 0x13
 6786 1840 4E020000 		.4byte	.LVL292
 6787 1844 58200000 		.4byte	0x2058
 6788 1848 15       		.uleb128 0x15
 6789 1849 8C020000 		.4byte	.LVL293
 6790 184d 361E0000 		.4byte	0x1e36
 6791 1851 60180000 		.4byte	0x1860
 6792 1855 16       		.uleb128 0x16
 6793 1856 01       		.uleb128 0x1
 6794 1857 51       		.byte	0x51
 6795 1858 01       		.uleb128 0x1
 6796 1859 31       		.byte	0x31
 6797 185a 16       		.uleb128 0x16
 6798 185b 01       		.uleb128 0x1
 6799 185c 50       		.byte	0x50
 6800 185d 01       		.uleb128 0x1
 6801 185e 32       		.byte	0x32
 6802 185f 00       		.byte	0
 6803 1860 15       		.uleb128 0x15
 6804 1861 9C020000 		.4byte	.LVL294
 6805 1865 361E0000 		.4byte	0x1e36
 6806 1869 78180000 		.4byte	0x1878
 6807 186d 16       		.uleb128 0x16
ARM GAS  C:\Users\Diego\AppData\Local\Temp\cc9VkXHl.s 			page 147


 6808 186e 01       		.uleb128 0x1
 6809 186f 51       		.byte	0x51
 6810 1870 01       		.uleb128 0x1
 6811 1871 31       		.byte	0x31
 6812 1872 16       		.uleb128 0x16
 6813 1873 01       		.uleb128 0x1
 6814 1874 50       		.byte	0x50
 6815 1875 01       		.uleb128 0x1
 6816 1876 32       		.byte	0x32
 6817 1877 00       		.byte	0
 6818 1878 15       		.uleb128 0x15
 6819 1879 A2020000 		.4byte	.LVL295
 6820 187d 6D1E0000 		.4byte	0x1e6d
 6821 1881 8B180000 		.4byte	0x188b
 6822 1885 16       		.uleb128 0x16
 6823 1886 01       		.uleb128 0x1
 6824 1887 50       		.byte	0x50
 6825 1888 01       		.uleb128 0x1
 6826 1889 3A       		.byte	0x3a
 6827 188a 00       		.byte	0
 6828 188b 13       		.uleb128 0x13
 6829 188c A6020000 		.4byte	.LVL296
 6830 1890 63200000 		.4byte	0x2063
 6831 1894 13       		.uleb128 0x13
 6832 1895 B4020000 		.4byte	.LVL297
 6833 1899 58200000 		.4byte	0x2058
 6834 189d 15       		.uleb128 0x15
 6835 189e F2020000 		.4byte	.LVL298
 6836 18a2 361E0000 		.4byte	0x1e36
 6837 18a6 B5180000 		.4byte	0x18b5
 6838 18aa 16       		.uleb128 0x16
 6839 18ab 01       		.uleb128 0x1
 6840 18ac 51       		.byte	0x51
 6841 18ad 01       		.uleb128 0x1
 6842 18ae 3A       		.byte	0x3a
 6843 18af 16       		.uleb128 0x16
 6844 18b0 01       		.uleb128 0x1
 6845 18b1 50       		.byte	0x50
 6846 18b2 01       		.uleb128 0x1
 6847 18b3 32       		.byte	0x32
 6848 18b4 00       		.byte	0
 6849 18b5 15       		.uleb128 0x15
 6850 18b6 02030000 		.4byte	.LVL299
 6851 18ba 361E0000 		.4byte	0x1e36
 6852 18be CE180000 		.4byte	0x18ce
 6853 18c2 16       		.uleb128 0x16
 6854 18c3 01       		.uleb128 0x1
 6855 18c4 51       		.byte	0x51
 6856 18c5 02       		.uleb128 0x2
 6857 18c6 08       		.byte	0x8
 6858 18c7 86       		.byte	0x86
 6859 18c8 16       		.uleb128 0x16
 6860 18c9 01       		.uleb128 0x1
 6861 18ca 50       		.byte	0x50
 6862 18cb 01       		.uleb128 0x1
 6863 18cc 32       		.byte	0x32
 6864 18cd 00       		.byte	0
ARM GAS  C:\Users\Diego\AppData\Local\Temp\cc9VkXHl.s 			page 148


 6865 18ce 15       		.uleb128 0x15
 6866 18cf 12030000 		.4byte	.LVL300
 6867 18d3 361E0000 		.4byte	0x1e36
 6868 18d7 E6180000 		.4byte	0x18e6
 6869 18db 16       		.uleb128 0x16
 6870 18dc 01       		.uleb128 0x1
 6871 18dd 51       		.byte	0x51
 6872 18de 01       		.uleb128 0x1
 6873 18df 31       		.byte	0x31
 6874 18e0 16       		.uleb128 0x16
 6875 18e1 01       		.uleb128 0x1
 6876 18e2 50       		.byte	0x50
 6877 18e3 01       		.uleb128 0x1
 6878 18e4 32       		.byte	0x32
 6879 18e5 00       		.byte	0
 6880 18e6 15       		.uleb128 0x15
 6881 18e7 1E030000 		.4byte	.LVL301
 6882 18eb 6D1E0000 		.4byte	0x1e6d
 6883 18ef F9180000 		.4byte	0x18f9
 6884 18f3 16       		.uleb128 0x16
 6885 18f4 01       		.uleb128 0x1
 6886 18f5 50       		.byte	0x50
 6887 18f6 01       		.uleb128 0x1
 6888 18f7 3A       		.byte	0x3a
 6889 18f8 00       		.byte	0
 6890 18f9 13       		.uleb128 0x13
 6891 18fa 22030000 		.4byte	.LVL302
 6892 18fe 63200000 		.4byte	0x2063
 6893 1902 00       		.byte	0
 6894 1903 12       		.uleb128 0x12
 6895 1904 7A0B0000 		.4byte	.LASF163
 6896 1908 01       		.byte	0x1
 6897 1909 8903     		.2byte	0x389
 6898 190b 00000000 		.4byte	.LFB73
 6899 190f 14000000 		.4byte	.LFE73-.LFB73
 6900 1913 01       		.uleb128 0x1
 6901 1914 9C       		.byte	0x9c
 6902 1915 23190000 		.4byte	0x1923
 6903 1919 13       		.uleb128 0x13
 6904 191a 06000000 		.4byte	.LVL303
 6905 191e 6A200000 		.4byte	0x206a
 6906 1922 00       		.byte	0
 6907 1923 1C       		.uleb128 0x1c
 6908 1924 360F0000 		.4byte	.LASF164
 6909 1928 01       		.byte	0x1
 6910 1929 8F03     		.2byte	0x38f
 6911 192b 7E000000 		.4byte	0x7e
 6912 192f 00000000 		.4byte	.LFB74
 6913 1933 48000000 		.4byte	.LFE74-.LFB74
 6914 1937 01       		.uleb128 0x1
 6915 1938 9C       		.byte	0x9c
 6916 1939 9A190000 		.4byte	0x199a
 6917 193d 1B       		.uleb128 0x1b
 6918 193e 7800     		.ascii	"x\000"
 6919 1940 01       		.byte	0x1
 6920 1941 9103     		.2byte	0x391
 6921 1943 AD000000 		.4byte	0xad
ARM GAS  C:\Users\Diego\AppData\Local\Temp\cc9VkXHl.s 			page 149


 6922 1947 4E020000 		.4byte	.LLST4
 6923 194b 13       		.uleb128 0x13
 6924 194c 1A000000 		.4byte	.LVL308
 6925 1950 25070000 		.4byte	0x725
 6926 1954 13       		.uleb128 0x13
 6927 1955 1E000000 		.4byte	.LVL309
 6928 1959 9F0B0000 		.4byte	0xb9f
 6929 195d 15       		.uleb128 0x15
 6930 195e 2C000000 		.4byte	.LVL310
 6931 1962 75200000 		.4byte	0x2075
 6932 1966 75190000 		.4byte	0x1975
 6933 196a 16       		.uleb128 0x16
 6934 196b 01       		.uleb128 0x1
 6935 196c 51       		.byte	0x51
 6936 196d 01       		.uleb128 0x1
 6937 196e 30       		.byte	0x30
 6938 196f 16       		.uleb128 0x16
 6939 1970 01       		.uleb128 0x1
 6940 1971 50       		.byte	0x50
 6941 1972 01       		.uleb128 0x1
 6942 1973 33       		.byte	0x33
 6943 1974 00       		.byte	0
 6944 1975 13       		.uleb128 0x13
 6945 1976 30000000 		.4byte	.LVL311
 6946 197a 8B200000 		.4byte	0x208b
 6947 197e 13       		.uleb128 0x13
 6948 197f 34000000 		.4byte	.LVL312
 6949 1983 E10E0000 		.4byte	0xee1
 6950 1987 13       		.uleb128 0x13
 6951 1988 38000000 		.4byte	.LVL313
 6952 198c 8B200000 		.4byte	0x208b
 6953 1990 13       		.uleb128 0x13
 6954 1991 3C000000 		.4byte	.LVL314
 6955 1995 09160000 		.4byte	0x1609
 6956 1999 00       		.byte	0
 6957 199a 09       		.uleb128 0x9
 6958 199b AD000000 		.4byte	0xad
 6959 199f AA190000 		.4byte	0x19aa
 6960 19a3 0A       		.uleb128 0xa
 6961 19a4 27010000 		.4byte	0x127
 6962 19a8 1F       		.byte	0x1f
 6963 19a9 00       		.byte	0
 6964 19aa 1D       		.uleb128 0x1d
 6965 19ab 3B0F0000 		.4byte	.LASF165
 6966 19af 06       		.byte	0x6
 6967 19b0 3E01     		.2byte	0x13e
 6968 19b2 B6190000 		.4byte	0x19b6
 6969 19b6 06       		.uleb128 0x6
 6970 19b7 9A190000 		.4byte	0x199a
 6971 19bb 1D       		.uleb128 0x1d
 6972 19bc 64020000 		.4byte	.LASF166
 6973 19c0 07       		.byte	0x7
 6974 19c1 3E01     		.2byte	0x13e
 6975 19c3 C7190000 		.4byte	0x19c7
 6976 19c7 06       		.uleb128 0x6
 6977 19c8 9A190000 		.4byte	0x199a
 6978 19cc 1D       		.uleb128 0x1d
ARM GAS  C:\Users\Diego\AppData\Local\Temp\cc9VkXHl.s 			page 150


 6979 19cd D9090000 		.4byte	.LASF167
 6980 19d1 08       		.byte	0x8
 6981 19d2 5506     		.2byte	0x655
 6982 19d4 D8190000 		.4byte	0x19d8
 6983 19d8 06       		.uleb128 0x6
 6984 19d9 A2000000 		.4byte	0xa2
 6985 19dd 1E       		.uleb128 0x1e
 6986 19de 14070000 		.4byte	.LASF168
 6987 19e2 05       		.byte	0x5
 6988 19e3 2C       		.byte	0x2c
 6989 19e4 EE190000 		.4byte	0x19ee
 6990 19e8 05       		.uleb128 0x5
 6991 19e9 03       		.byte	0x3
 6992 19ea 00000000 		.4byte	countAnimation1
 6993 19ee 06       		.uleb128 0x6
 6994 19ef DF000000 		.4byte	0xdf
 6995 19f3 1E       		.uleb128 0x1e
 6996 19f4 71070000 		.4byte	.LASF169
 6997 19f8 05       		.byte	0x5
 6998 19f9 2D       		.byte	0x2d
 6999 19fa EE190000 		.4byte	0x19ee
 7000 19fe 05       		.uleb128 0x5
 7001 19ff 03       		.byte	0x3
 7002 1a00 00000000 		.4byte	countAnimation2
 7003 1a04 1E       		.uleb128 0x1e
 7004 1a05 9F050000 		.4byte	.LASF170
 7005 1a09 05       		.byte	0x5
 7006 1a0a 2E       		.byte	0x2e
 7007 1a0b EE190000 		.4byte	0x19ee
 7008 1a0f 05       		.uleb128 0x5
 7009 1a10 03       		.byte	0x3
 7010 1a11 00000000 		.4byte	countBeagleTX
 7011 1a15 1E       		.uleb128 0x1e
 7012 1a16 040F0000 		.4byte	.LASF171
 7013 1a1a 05       		.byte	0x5
 7014 1a1b 2F       		.byte	0x2f
 7015 1a1c EE190000 		.4byte	0x19ee
 7016 1a20 05       		.uleb128 0x5
 7017 1a21 03       		.byte	0x3
 7018 1a22 00000000 		.4byte	countPump
 7019 1a26 1E       		.uleb128 0x1e
 7020 1a27 84040000 		.4byte	.LASF172
 7021 1a2b 05       		.byte	0x5
 7022 1a2c 30       		.byte	0x30
 7023 1a2d 0F010000 		.4byte	0x10f
 7024 1a31 05       		.uleb128 0x5
 7025 1a32 03       		.byte	0x3
 7026 1a33 00000000 		.4byte	flowDisplay1
 7027 1a37 1E       		.uleb128 0x1e
 7028 1a38 6F0A0000 		.4byte	.LASF173
 7029 1a3c 05       		.byte	0x5
 7030 1a3d 31       		.byte	0x31
 7031 1a3e 0F010000 		.4byte	0x10f
 7032 1a42 05       		.uleb128 0x5
 7033 1a43 03       		.byte	0x3
 7034 1a44 00000000 		.4byte	flowDisplay2
 7035 1a48 1E       		.uleb128 0x1e
ARM GAS  C:\Users\Diego\AppData\Local\Temp\cc9VkXHl.s 			page 151


 7036 1a49 930A0000 		.4byte	.LASF174
 7037 1a4d 05       		.byte	0x5
 7038 1a4e 32       		.byte	0x32
 7039 1a4f 0F010000 		.4byte	0x10f
 7040 1a53 05       		.uleb128 0x5
 7041 1a54 03       		.byte	0x3
 7042 1a55 00000000 		.4byte	flowDisplay3
 7043 1a59 1E       		.uleb128 0x1e
 7044 1a5a AB040000 		.4byte	.LASF175
 7045 1a5e 05       		.byte	0x5
 7046 1a5f 33       		.byte	0x33
 7047 1a60 0F010000 		.4byte	0x10f
 7048 1a64 05       		.uleb128 0x5
 7049 1a65 03       		.byte	0x3
 7050 1a66 00000000 		.4byte	flowDisplay4
 7051 1a6a 1E       		.uleb128 0x1e
 7052 1a6b 7A050000 		.4byte	.LASF176
 7053 1a6f 05       		.byte	0x5
 7054 1a70 34       		.byte	0x34
 7055 1a71 0A010000 		.4byte	0x10a
 7056 1a75 05       		.uleb128 0x5
 7057 1a76 03       		.byte	0x3
 7058 1a77 00000000 		.4byte	numberKeys1
 7059 1a7b 1E       		.uleb128 0x1e
 7060 1a7c 86050000 		.4byte	.LASF177
 7061 1a80 05       		.byte	0x5
 7062 1a81 35       		.byte	0x35
 7063 1a82 0A010000 		.4byte	0x10a
 7064 1a86 05       		.uleb128 0x5
 7065 1a87 03       		.byte	0x3
 7066 1a88 00000000 		.4byte	numberKeys2
 7067 1a8c 1E       		.uleb128 0x1e
 7068 1a8d 2C090000 		.4byte	.LASF178
 7069 1a91 05       		.byte	0x5
 7070 1a92 36       		.byte	0x36
 7071 1a93 0A010000 		.4byte	0x10a
 7072 1a97 05       		.uleb128 0x5
 7073 1a98 03       		.byte	0x3
 7074 1a99 00000000 		.4byte	flagPoint1
 7075 1a9d 1E       		.uleb128 0x1e
 7076 1a9e 76020000 		.4byte	.LASF179
 7077 1aa2 05       		.byte	0x5
 7078 1aa3 37       		.byte	0x37
 7079 1aa4 0A010000 		.4byte	0x10a
 7080 1aa8 05       		.uleb128 0x5
 7081 1aa9 03       		.byte	0x3
 7082 1aaa 00000000 		.4byte	flagPoint2
 7083 1aae 1E       		.uleb128 0x1e
 7084 1aaf 14040000 		.4byte	.LASF180
 7085 1ab3 05       		.byte	0x5
 7086 1ab4 38       		.byte	0x38
 7087 1ab5 0A010000 		.4byte	0x10a
 7088 1ab9 05       		.uleb128 0x5
 7089 1aba 03       		.byte	0x3
 7090 1abb 00000000 		.4byte	productNumber
 7091 1abf 1E       		.uleb128 0x1e
 7092 1ac0 850B0000 		.4byte	.LASF181
ARM GAS  C:\Users\Diego\AppData\Local\Temp\cc9VkXHl.s 			page 152


 7093 1ac4 05       		.byte	0x5
 7094 1ac5 39       		.byte	0x39
 7095 1ac6 0F010000 		.4byte	0x10f
 7096 1aca 05       		.uleb128 0x5
 7097 1acb 03       		.byte	0x3
 7098 1acc 00000000 		.4byte	delayPicture1
 7099 1ad0 1E       		.uleb128 0x1e
 7100 1ad1 930B0000 		.4byte	.LASF182
 7101 1ad5 05       		.byte	0x5
 7102 1ad6 3A       		.byte	0x3a
 7103 1ad7 0F010000 		.4byte	0x10f
 7104 1adb 05       		.uleb128 0x5
 7105 1adc 03       		.byte	0x3
 7106 1add 00000000 		.4byte	delayPicture2
 7107 1ae1 1E       		.uleb128 0x1e
 7108 1ae2 FD080000 		.4byte	.LASF183
 7109 1ae6 05       		.byte	0x5
 7110 1ae7 3B       		.byte	0x3b
 7111 1ae8 0A010000 		.4byte	0x10a
 7112 1aec 05       		.uleb128 0x5
 7113 1aed 03       		.byte	0x3
 7114 1aee 00000000 		.4byte	ppux10
 7115 1af2 1E       		.uleb128 0x1e
 7116 1af3 40010000 		.4byte	.LASF184
 7117 1af7 05       		.byte	0x5
 7118 1af8 3C       		.byte	0x3c
 7119 1af9 0A010000 		.4byte	0x10a
 7120 1afd 05       		.uleb128 0x5
 7121 1afe 03       		.byte	0x3
 7122 1aff 00000000 		.4byte	decimalMoney
 7123 1b03 1E       		.uleb128 0x1e
 7124 1b04 7F000000 		.4byte	.LASF185
 7125 1b08 05       		.byte	0x5
 7126 1b09 3D       		.byte	0x3d
 7127 1b0a 0A010000 		.4byte	0x10a
 7128 1b0e 05       		.uleb128 0x5
 7129 1b0f 03       		.byte	0x3
 7130 1b10 00000000 		.4byte	decimalVolume
 7131 1b14 1E       		.uleb128 0x1e
 7132 1b15 49090000 		.4byte	.LASF186
 7133 1b19 05       		.byte	0x5
 7134 1b1a 3E       		.byte	0x3e
 7135 1b1b 251B0000 		.4byte	0x1b25
 7136 1b1f 05       		.uleb128 0x5
 7137 1b20 03       		.byte	0x3
 7138 1b21 00000000 		.4byte	symbols
 7139 1b25 06       		.uleb128 0x6
 7140 1b26 D0030000 		.4byte	0x3d0
 7141 1b2a 09       		.uleb128 0x9
 7142 1b2b AD000000 		.4byte	0xad
 7143 1b2f 3A1B0000 		.4byte	0x1b3a
 7144 1b33 0A       		.uleb128 0xa
 7145 1b34 27010000 		.4byte	0x127
 7146 1b38 02       		.byte	0x2
 7147 1b39 00       		.byte	0
 7148 1b3a 1E       		.uleb128 0x1e
 7149 1b3b F9030000 		.4byte	.LASF187
ARM GAS  C:\Users\Diego\AppData\Local\Temp\cc9VkXHl.s 			page 153


 7150 1b3f 05       		.byte	0x5
 7151 1b40 3F       		.byte	0x3f
 7152 1b41 4B1B0000 		.4byte	0x1b4b
 7153 1b45 05       		.uleb128 0x5
 7154 1b46 03       		.byte	0x3
 7155 1b47 00000000 		.4byte	time
 7156 1b4b 06       		.uleb128 0x6
 7157 1b4c 2A1B0000 		.4byte	0x1b2a
 7158 1b50 1E       		.uleb128 0x1e
 7159 1b51 FA050000 		.4byte	.LASF188
 7160 1b55 05       		.byte	0x5
 7161 1b56 40       		.byte	0x40
 7162 1b57 611B0000 		.4byte	0x1b61
 7163 1b5b 05       		.uleb128 0x5
 7164 1b5c 03       		.byte	0x3
 7165 1b5d 00000000 		.4byte	date
 7166 1b61 06       		.uleb128 0x6
 7167 1b62 2A1B0000 		.4byte	0x1b2a
 7168 1b66 1E       		.uleb128 0x1e
 7169 1b67 81020000 		.4byte	.LASF189
 7170 1b6b 05       		.byte	0x5
 7171 1b6c 41       		.byte	0x41
 7172 1b6d 771B0000 		.4byte	0x1b77
 7173 1b71 05       		.uleb128 0x5
 7174 1b72 03       		.byte	0x3
 7175 1b73 00000000 		.4byte	screen
 7176 1b77 06       		.uleb128 0x6
 7177 1b78 D0030000 		.4byte	0x3d0
 7178 1b7c 1E       		.uleb128 0x1e
 7179 1b7d BF010000 		.4byte	.LASF190
 7180 1b81 05       		.byte	0x5
 7181 1b82 42       		.byte	0x42
 7182 1b83 8D1B0000 		.4byte	0x1b8d
 7183 1b87 05       		.uleb128 0x5
 7184 1b88 03       		.byte	0x3
 7185 1b89 00000000 		.4byte	residue
 7186 1b8d 06       		.uleb128 0x6
 7187 1b8e 16040000 		.4byte	0x416
 7188 1b92 09       		.uleb128 0x9
 7189 1b93 AD000000 		.4byte	0xad
 7190 1b97 A21B0000 		.4byte	0x1ba2
 7191 1b9b 0A       		.uleb128 0xa
 7192 1b9c 27010000 		.4byte	0x127
 7193 1ba0 1D       		.byte	0x1d
 7194 1ba1 00       		.byte	0
 7195 1ba2 1E       		.uleb128 0x1e
 7196 1ba3 F80D0000 		.4byte	.LASF191
 7197 1ba7 05       		.byte	0x5
 7198 1ba8 43       		.byte	0x43
 7199 1ba9 921B0000 		.4byte	0x1b92
 7200 1bad 05       		.uleb128 0x5
 7201 1bae 03       		.byte	0x3
 7202 1baf 00000000 		.4byte	temporal
 7203 1bb3 1E       		.uleb128 0x1e
 7204 1bb4 34040000 		.4byte	.LASF192
 7205 1bb8 05       		.byte	0x5
 7206 1bb9 44       		.byte	0x44
ARM GAS  C:\Users\Diego\AppData\Local\Temp\cc9VkXHl.s 			page 154


 7207 1bba 0A010000 		.4byte	0x10a
 7208 1bbe 05       		.uleb128 0x5
 7209 1bbf 03       		.byte	0x3
 7210 1bc0 00000000 		.4byte	lockTurn
 7211 1bc4 1E       		.uleb128 0x1e
 7212 1bc5 22040000 		.4byte	.LASF193
 7213 1bc9 05       		.byte	0x5
 7214 1bca 45       		.byte	0x45
 7215 1bcb D51B0000 		.4byte	0x1bd5
 7216 1bcf 05       		.uleb128 0x5
 7217 1bd0 03       		.byte	0x3
 7218 1bd1 00000000 		.4byte	idSeller
 7219 1bd5 06       		.uleb128 0x6
 7220 1bd6 A0030000 		.4byte	0x3a0
 7221 1bda 1E       		.uleb128 0x1e
 7222 1bdb 3C0E0000 		.4byte	.LASF194
 7223 1bdf 05       		.byte	0x5
 7224 1be0 46       		.byte	0x46
 7225 1be1 0A010000 		.4byte	0x10a
 7226 1be5 05       		.uleb128 0x5
 7227 1be6 03       		.byte	0x3
 7228 1be7 00000000 		.4byte	typeIdSeller
 7229 1beb 09       		.uleb128 0x9
 7230 1bec AD000000 		.4byte	0xad
 7231 1bf0 FB1B0000 		.4byte	0x1bfb
 7232 1bf4 0A       		.uleb128 0xa
 7233 1bf5 27010000 		.4byte	0x127
 7234 1bf9 07       		.byte	0x7
 7235 1bfa 00       		.byte	0
 7236 1bfb 1E       		.uleb128 0x1e
 7237 1bfc 4A0B0000 		.4byte	.LASF195
 7238 1c00 05       		.byte	0x5
 7239 1c01 47       		.byte	0x47
 7240 1c02 0C1C0000 		.4byte	0x1c0c
 7241 1c06 05       		.uleb128 0x5
 7242 1c07 03       		.byte	0x3
 7243 1c08 00000000 		.4byte	passwordSeller
 7244 1c0c 06       		.uleb128 0x6
 7245 1c0d EB1B0000 		.4byte	0x1beb
 7246 1c11 1E       		.uleb128 0x1e
 7247 1c12 3A080000 		.4byte	.LASF196
 7248 1c16 05       		.byte	0x5
 7249 1c17 48       		.byte	0x48
 7250 1c18 0A010000 		.4byte	0x10a
 7251 1c1c 05       		.uleb128 0x5
 7252 1c1d 03       		.byte	0x3
 7253 1c1e 00000000 		.4byte	flagResetMux
 7254 1c22 1E       		.uleb128 0x1e
 7255 1c23 3C070000 		.4byte	.LASF197
 7256 1c27 05       		.byte	0x5
 7257 1c28 49       		.byte	0x49
 7258 1c29 0A010000 		.4byte	0x10a
 7259 1c2d 05       		.uleb128 0x5
 7260 1c2e 03       		.byte	0x3
 7261 1c2f 00000000 		.4byte	stateBeagleSoft
 7262 1c33 1E       		.uleb128 0x1e
 7263 1c34 8D000000 		.4byte	.LASF198
ARM GAS  C:\Users\Diego\AppData\Local\Temp\cc9VkXHl.s 			page 155


 7264 1c38 05       		.byte	0x5
 7265 1c39 4A       		.byte	0x4a
 7266 1c3a 441C0000 		.4byte	0x1c44
 7267 1c3e 05       		.uleb128 0x5
 7268 1c3f 03       		.byte	0x3
 7269 1c40 00000000 		.4byte	PrevStatePump
 7270 1c44 06       		.uleb128 0x6
 7271 1c45 2E010000 		.4byte	0x12e
 7272 1c49 1E       		.uleb128 0x1e
 7273 1c4a DA020000 		.4byte	.LASF199
 7274 1c4e 05       		.byte	0x5
 7275 1c4f 4B       		.byte	0x4b
 7276 1c50 0A010000 		.4byte	0x10a
 7277 1c54 05       		.uleb128 0x5
 7278 1c55 03       		.byte	0x3
 7279 1c56 00000000 		.4byte	PlateRequest
 7280 1c5a 1E       		.uleb128 0x1e
 7281 1c5b 6A0B0000 		.4byte	.LASF200
 7282 1c5f 05       		.byte	0x5
 7283 1c60 4D       		.byte	0x4d
 7284 1c61 AD000000 		.4byte	0xad
 7285 1c65 05       		.uleb128 0x5
 7286 1c66 03       		.byte	0x3
 7287 1c67 00000000 		.4byte	UnitType
 7288 1c6b 1E       		.uleb128 0x1e
 7289 1c6c 69050000 		.4byte	.LASF201
 7290 1c70 05       		.byte	0x5
 7291 1c71 4D       		.byte	0x4d
 7292 1c72 AD000000 		.4byte	0xad
 7293 1c76 05       		.uleb128 0x5
 7294 1c77 03       		.byte	0x3
 7295 1c78 00000000 		.4byte	ConversionFactor
 7296 1c7c 1E       		.uleb128 0x1e
 7297 1c7d 45030000 		.4byte	.LASF202
 7298 1c81 05       		.byte	0x5
 7299 1c82 4D       		.byte	0x4d
 7300 1c83 AD000000 		.4byte	0xad
 7301 1c87 05       		.uleb128 0x5
 7302 1c88 03       		.byte	0x3
 7303 1c89 00000000 		.4byte	MoneyDec
 7304 1c8d 1E       		.uleb128 0x1e
 7305 1c8e 010E0000 		.4byte	.LASF203
 7306 1c92 05       		.byte	0x5
 7307 1c93 4D       		.byte	0x4d
 7308 1c94 AD000000 		.4byte	0xad
 7309 1c98 05       		.uleb128 0x5
 7310 1c99 03       		.byte	0x3
 7311 1c9a 00000000 		.4byte	VolDec
 7312 1c9e 1E       		.uleb128 0x1e
 7313 1c9f D90B0000 		.4byte	.LASF204
 7314 1ca3 05       		.byte	0x5
 7315 1ca4 4D       		.byte	0x4d
 7316 1ca5 AD000000 		.4byte	0xad
 7317 1ca9 05       		.uleb128 0x5
 7318 1caa 03       		.byte	0x3
 7319 1cab 00000000 		.4byte	PPUDec
 7320 1caf 1E       		.uleb128 0x1e
ARM GAS  C:\Users\Diego\AppData\Local\Temp\cc9VkXHl.s 			page 156


 7321 1cb0 E9010000 		.4byte	.LASF205
 7322 1cb4 05       		.byte	0x5
 7323 1cb5 4D       		.byte	0x4d
 7324 1cb6 AD000000 		.4byte	0xad
 7325 1cba 05       		.uleb128 0x5
 7326 1cbb 03       		.byte	0x3
 7327 1cbc 00000000 		.4byte	DDMode
 7328 1cc0 1E       		.uleb128 0x1e
 7329 1cc1 19010000 		.4byte	.LASF206
 7330 1cc5 05       		.byte	0x5
 7331 1cc6 4E       		.byte	0x4e
 7332 1cc7 2E010000 		.4byte	0x12e
 7333 1ccb 05       		.uleb128 0x5
 7334 1ccc 03       		.byte	0x3
 7335 1ccd 00000000 		.4byte	statePump
 7336 1cd1 1E       		.uleb128 0x1e
 7337 1cd2 24070000 		.4byte	.LASF207
 7338 1cd6 05       		.byte	0x5
 7339 1cd7 4F       		.byte	0x4f
 7340 1cd8 AD000000 		.4byte	0xad
 7341 1cdc 05       		.uleb128 0x5
 7342 1cdd 03       		.byte	0x3
 7343 1cde 00000000 		.4byte	NumPositions
 7344 1ce2 1E       		.uleb128 0x1e
 7345 1ce3 E9030000 		.4byte	.LASF208
 7346 1ce7 05       		.byte	0x5
 7347 1ce8 50       		.byte	0x50
 7348 1ce9 AD000000 		.4byte	0xad
 7349 1ced 05       		.uleb128 0x5
 7350 1cee 03       		.byte	0x3
 7351 1cef 00000000 		.4byte	digits
 7352 1cf3 1E       		.uleb128 0x1e
 7353 1cf4 74010000 		.4byte	.LASF209
 7354 1cf8 05       		.byte	0x5
 7355 1cf9 51       		.byte	0x51
 7356 1cfa AD000000 		.4byte	0xad
 7357 1cfe 05       		.uleb128 0x5
 7358 1cff 03       		.byte	0x3
 7359 1d00 00000000 		.4byte	PrinterType
 7360 1d04 1E       		.uleb128 0x1e
 7361 1d05 08050000 		.4byte	.LASF210
 7362 1d09 05       		.byte	0x5
 7363 1d0a 52       		.byte	0x52
 7364 1d0b AD000000 		.4byte	0xad
 7365 1d0f 05       		.uleb128 0x5
 7366 1d10 03       		.byte	0x3
 7367 1d11 00000000 		.4byte	turn
 7368 1d15 09       		.uleb128 0x9
 7369 1d16 EB000000 		.4byte	0xeb
 7370 1d1a 251D0000 		.4byte	0x1d25
 7371 1d1e 0A       		.uleb128 0xa
 7372 1d1f 27010000 		.4byte	0x127
 7373 1d23 05       		.byte	0x5
 7374 1d24 00       		.byte	0
 7375 1d25 1E       		.uleb128 0x1e
 7376 1d26 D1090000 		.4byte	.LASF211
 7377 1d2a 05       		.byte	0x5
ARM GAS  C:\Users\Diego\AppData\Local\Temp\cc9VkXHl.s 			page 157


 7378 1d2b 53       		.byte	0x53
 7379 1d2c 151D0000 		.4byte	0x1d15
 7380 1d30 05       		.uleb128 0x5
 7381 1d31 03       		.byte	0x3
 7382 1d32 00000000 		.4byte	VolUnit
 7383 1d36 1E       		.uleb128 0x1e
 7384 1d37 8D090000 		.4byte	.LASF212
 7385 1d3b 05       		.byte	0x5
 7386 1d3c 54       		.byte	0x54
 7387 1d3d 2A1B0000 		.4byte	0x1b2a
 7388 1d41 05       		.uleb128 0x5
 7389 1d42 03       		.byte	0x3
 7390 1d43 00000000 		.4byte	dateDownHandle
 7391 1d47 1E       		.uleb128 0x1e
 7392 1d48 FA070000 		.4byte	.LASF213
 7393 1d4c 05       		.byte	0x5
 7394 1d4d 55       		.byte	0x55
 7395 1d4e D0030000 		.4byte	0x3d0
 7396 1d52 05       		.uleb128 0x5
 7397 1d53 03       		.byte	0x3
 7398 1d54 00000000 		.4byte	timeDownHandle
 7399 1d58 1E       		.uleb128 0x1e
 7400 1d59 E10E0000 		.4byte	.LASF214
 7401 1d5d 05       		.byte	0x5
 7402 1d5e 56       		.byte	0x56
 7403 1d5f AD000000 		.4byte	0xad
 7404 1d63 05       		.uleb128 0x5
 7405 1d64 03       		.byte	0x3
 7406 1d65 00000000 		.4byte	count_protector
 7407 1d69 1E       		.uleb128 0x1e
 7408 1d6a 6E000000 		.4byte	.LASF215
 7409 1d6e 05       		.byte	0x5
 7410 1d6f 56       		.byte	0x56
 7411 1d70 AD000000 		.4byte	0xad
 7412 1d74 05       		.uleb128 0x5
 7413 1d75 03       		.byte	0x3
 7414 1d76 00000000 		.4byte	count_protector2
 7415 1d7a 1E       		.uleb128 0x1e
 7416 1d7b 28100000 		.4byte	.LASF216
 7417 1d7f 05       		.byte	0x5
 7418 1d80 93       		.byte	0x93
 7419 1d81 3E010000 		.4byte	0x13e
 7420 1d85 05       		.uleb128 0x5
 7421 1d86 03       		.byte	0x3
 7422 1d87 00000000 		.4byte	bufferDisplay1
 7423 1d8b 1E       		.uleb128 0x1e
 7424 1d8c FB0A0000 		.4byte	.LASF217
 7425 1d90 05       		.byte	0x5
 7426 1d91 94       		.byte	0x94
 7427 1d92 3E010000 		.4byte	0x13e
 7428 1d96 05       		.uleb128 0x5
 7429 1d97 03       		.byte	0x3
 7430 1d98 00000000 		.4byte	bufferDisplay2
 7431 1d9c 1E       		.uleb128 0x1e
 7432 1d9d 0A0B0000 		.4byte	.LASF218
 7433 1da1 05       		.byte	0x5
 7434 1da2 95       		.byte	0x95
ARM GAS  C:\Users\Diego\AppData\Local\Temp\cc9VkXHl.s 			page 158


 7435 1da3 3E010000 		.4byte	0x13e
 7436 1da7 05       		.uleb128 0x5
 7437 1da8 03       		.byte	0x3
 7438 1da9 00000000 		.4byte	bufferDisplay3
 7439 1dad 1E       		.uleb128 0x1e
 7440 1dae 40100000 		.4byte	.LASF219
 7441 1db2 05       		.byte	0x5
 7442 1db3 96       		.byte	0x96
 7443 1db4 3E010000 		.4byte	0x13e
 7444 1db8 05       		.uleb128 0x5
 7445 1db9 03       		.byte	0x3
 7446 1dba 00000000 		.4byte	bufferDisplay4
 7447 1dbe 1E       		.uleb128 0x1e
 7448 1dbf F0010000 		.4byte	.LASF220
 7449 1dc3 05       		.byte	0x5
 7450 1dc4 B5       		.byte	0xb5
 7451 1dc5 53050000 		.4byte	0x553
 7452 1dc9 05       		.uleb128 0x5
 7453 1dca 03       		.byte	0x3
 7454 1dcb 00000000 		.4byte	side
 7455 1dcf 1E       		.uleb128 0x1e
 7456 1dd0 00020000 		.4byte	.LASF221
 7457 1dd4 01       		.byte	0x1
 7458 1dd5 18       		.byte	0x18
 7459 1dd6 B0030000 		.4byte	0x3b0
 7460 1dda 05       		.uleb128 0x5
 7461 1ddb 03       		.byte	0x3
 7462 1ddc 00000000 		.4byte	MuxVersion
 7463 1de0 1F       		.uleb128 0x1f
 7464 1de1 9B000000 		.4byte	.LASF232
 7465 1de5 10       		.byte	0x10
 7466 1de6 5E       		.byte	0x5e
 7467 1de7 AD000000 		.4byte	0xad
 7468 1deb 20       		.uleb128 0x20
 7469 1dec B8040000 		.4byte	.LASF222
 7470 1df0 09       		.byte	0x9
 7471 1df1 1F       		.byte	0x1f
 7472 1df2 20       		.uleb128 0x20
 7473 1df3 AD050000 		.4byte	.LASF223
 7474 1df7 0A       		.byte	0xa
 7475 1df8 54       		.byte	0x54
 7476 1df9 20       		.uleb128 0x20
 7477 1dfa 25020000 		.4byte	.LASF224
 7478 1dfe 06       		.byte	0x6
 7479 1dff 54       		.byte	0x54
 7480 1e00 20       		.uleb128 0x20
 7481 1e01 8C060000 		.4byte	.LASF225
 7482 1e05 07       		.byte	0x7
 7483 1e06 54       		.byte	0x54
 7484 1e07 20       		.uleb128 0x20
 7485 1e08 0D100000 		.4byte	.LASF226
 7486 1e0c 0B       		.byte	0xb
 7487 1e0d 54       		.byte	0x54
 7488 1e0e 20       		.uleb128 0x20
 7489 1e0f B10F0000 		.4byte	.LASF227
 7490 1e13 0C       		.byte	0xc
 7491 1e14 54       		.byte	0x54
ARM GAS  C:\Users\Diego\AppData\Local\Temp\cc9VkXHl.s 			page 159


 7492 1e15 20       		.uleb128 0x20
 7493 1e16 3A020000 		.4byte	.LASF228
 7494 1e1a 0D       		.byte	0xd
 7495 1e1b AC       		.byte	0xac
 7496 1e1c 21       		.uleb128 0x21
 7497 1e1d B3060000 		.4byte	.LASF234
 7498 1e21 09       		.byte	0x9
 7499 1e22 21       		.byte	0x21
 7500 1e23 FE000000 		.4byte	0xfe
 7501 1e27 361E0000 		.4byte	0x1e36
 7502 1e2b 22       		.uleb128 0x22
 7503 1e2c AD000000 		.4byte	0xad
 7504 1e30 22       		.uleb128 0x22
 7505 1e31 B9000000 		.4byte	0xb9
 7506 1e35 00       		.byte	0
 7507 1e36 23       		.uleb128 0x23
 7508 1e37 A8080000 		.4byte	.LASF229
 7509 1e3b 0E       		.byte	0xe
 7510 1e3c 22       		.byte	0x22
 7511 1e3d 4C1E0000 		.4byte	0x1e4c
 7512 1e41 22       		.uleb128 0x22
 7513 1e42 AD000000 		.4byte	0xad
 7514 1e46 22       		.uleb128 0x22
 7515 1e47 B9000000 		.4byte	0xb9
 7516 1e4b 00       		.byte	0
 7517 1e4c 23       		.uleb128 0x23
 7518 1e4d 390C0000 		.4byte	.LASF230
 7519 1e51 0E       		.byte	0xe
 7520 1e52 29       		.byte	0x29
 7521 1e53 671E0000 		.4byte	0x1e67
 7522 1e57 22       		.uleb128 0x22
 7523 1e58 AD000000 		.4byte	0xad
 7524 1e5c 22       		.uleb128 0x22
 7525 1e5d 671E0000 		.4byte	0x1e67
 7526 1e61 22       		.uleb128 0x22
 7527 1e62 AD000000 		.4byte	0xad
 7528 1e66 00       		.byte	0
 7529 1e67 07       		.uleb128 0x7
 7530 1e68 04       		.byte	0x4
 7531 1e69 AD000000 		.4byte	0xad
 7532 1e6d 23       		.uleb128 0x23
 7533 1e6e 00000000 		.4byte	.LASF231
 7534 1e72 0F       		.byte	0xf
 7535 1e73 77       		.byte	0x77
 7536 1e74 7E1E0000 		.4byte	0x1e7e
 7537 1e78 22       		.uleb128 0x22
 7538 1e79 C5000000 		.4byte	0xc5
 7539 1e7d 00       		.byte	0
 7540 1e7e 1F       		.uleb128 0x1f
 7541 1e7f C7040000 		.4byte	.LASF233
 7542 1e83 11       		.byte	0x11
 7543 1e84 23       		.byte	0x23
 7544 1e85 AD000000 		.4byte	0xad
 7545 1e89 21       		.uleb128 0x21
 7546 1e8a AF0C0000 		.4byte	.LASF235
 7547 1e8e 11       		.byte	0x11
 7548 1e8f 22       		.byte	0x22
ARM GAS  C:\Users\Diego\AppData\Local\Temp\cc9VkXHl.s 			page 160


 7549 1e90 AD000000 		.4byte	0xad
 7550 1e94 9E1E0000 		.4byte	0x1e9e
 7551 1e98 22       		.uleb128 0x22
 7552 1e99 AD000000 		.4byte	0xad
 7553 1e9d 00       		.byte	0
 7554 1e9e 21       		.uleb128 0x21
 7555 1e9f C6060000 		.4byte	.LASF236
 7556 1ea3 11       		.byte	0x11
 7557 1ea4 2D       		.byte	0x2d
 7558 1ea5 B31E0000 		.4byte	0x1eb3
 7559 1ea9 B31E0000 		.4byte	0x1eb3
 7560 1ead 22       		.uleb128 0x22
 7561 1eae AD000000 		.4byte	0xad
 7562 1eb2 00       		.byte	0
 7563 1eb3 02       		.uleb128 0x2
 7564 1eb4 01       		.byte	0x1
 7565 1eb5 02       		.byte	0x2
 7566 1eb6 67040000 		.4byte	.LASF237
 7567 1eba 21       		.uleb128 0x21
 7568 1ebb 09080000 		.4byte	.LASF238
 7569 1ebf 11       		.byte	0x11
 7570 1ec0 29       		.byte	0x29
 7571 1ec1 AD000000 		.4byte	0xad
 7572 1ec5 CF1E0000 		.4byte	0x1ecf
 7573 1ec9 22       		.uleb128 0x22
 7574 1eca AD000000 		.4byte	0xad
 7575 1ece 00       		.byte	0
 7576 1ecf 21       		.uleb128 0x21
 7577 1ed0 B0020000 		.4byte	.LASF239
 7578 1ed4 12       		.byte	0x12
 7579 1ed5 27       		.byte	0x27
 7580 1ed6 AD000000 		.4byte	0xad
 7581 1eda E91E0000 		.4byte	0x1ee9
 7582 1ede 22       		.uleb128 0x22
 7583 1edf AD000000 		.4byte	0xad
 7584 1ee3 22       		.uleb128 0x22
 7585 1ee4 AD000000 		.4byte	0xad
 7586 1ee8 00       		.byte	0
 7587 1ee9 20       		.uleb128 0x20
 7588 1eea 31070000 		.4byte	.LASF240
 7589 1eee 13       		.byte	0x13
 7590 1eef 19       		.byte	0x19
 7591 1ef0 20       		.uleb128 0x20
 7592 1ef1 78090000 		.4byte	.LASF241
 7593 1ef5 10       		.byte	0x10
 7594 1ef6 5B       		.byte	0x5b
 7595 1ef7 1F       		.uleb128 0x1f
 7596 1ef8 C50D0000 		.4byte	.LASF242
 7597 1efc 06       		.byte	0x6
 7598 1efd 73       		.byte	0x73
 7599 1efe AD000000 		.4byte	0xad
 7600 1f02 20       		.uleb128 0x20
 7601 1f03 9A0F0000 		.4byte	.LASF243
 7602 1f07 06       		.byte	0x6
 7603 1f08 75       		.byte	0x75
 7604 1f09 23       		.uleb128 0x23
 7605 1f0a 6F030000 		.4byte	.LASF244
ARM GAS  C:\Users\Diego\AppData\Local\Temp\cc9VkXHl.s 			page 161


 7606 1f0e 0E       		.byte	0xe
 7607 1f0f 24       		.byte	0x24
 7608 1f10 381F0000 		.4byte	0x1f38
 7609 1f14 22       		.uleb128 0x22
 7610 1f15 8C000000 		.4byte	0x8c
 7611 1f19 22       		.uleb128 0x22
 7612 1f1a 8C000000 		.4byte	0x8c
 7613 1f1e 22       		.uleb128 0x22
 7614 1f1f 97000000 		.4byte	0x97
 7615 1f23 22       		.uleb128 0x22
 7616 1f24 97000000 		.4byte	0x97
 7617 1f28 22       		.uleb128 0x22
 7618 1f29 8C000000 		.4byte	0x8c
 7619 1f2d 22       		.uleb128 0x22
 7620 1f2e 97000000 		.4byte	0x97
 7621 1f32 22       		.uleb128 0x22
 7622 1f33 8C000000 		.4byte	0x8c
 7623 1f37 00       		.byte	0
 7624 1f38 21       		.uleb128 0x21
 7625 1f39 2A010000 		.4byte	.LASF245
 7626 1f3d 14       		.byte	0x14
 7627 1f3e 15       		.byte	0x15
 7628 1f3f AD000000 		.4byte	0xad
 7629 1f43 571F0000 		.4byte	0x1f57
 7630 1f47 22       		.uleb128 0x22
 7631 1f48 AD000000 		.4byte	0xad
 7632 1f4c 22       		.uleb128 0x22
 7633 1f4d AD000000 		.4byte	0xad
 7634 1f51 22       		.uleb128 0x22
 7635 1f52 AD000000 		.4byte	0xad
 7636 1f56 00       		.byte	0
 7637 1f57 23       		.uleb128 0x23
 7638 1f58 B70D0000 		.4byte	.LASF246
 7639 1f5c 13       		.byte	0x13
 7640 1f5d 18       		.byte	0x18
 7641 1f5e 681F0000 		.4byte	0x1f68
 7642 1f62 22       		.uleb128 0x22
 7643 1f63 14010000 		.4byte	0x114
 7644 1f67 00       		.byte	0
 7645 1f68 20       		.uleb128 0x20
 7646 1f69 61060000 		.4byte	.LASF247
 7647 1f6d 10       		.byte	0x10
 7648 1f6e 5A       		.byte	0x5a
 7649 1f6f 21       		.uleb128 0x21
 7650 1f70 46050000 		.4byte	.LASF248
 7651 1f74 11       		.byte	0x11
 7652 1f75 2A       		.byte	0x2a
 7653 1f76 AD000000 		.4byte	0xad
 7654 1f7a 841F0000 		.4byte	0x1f84
 7655 1f7e 22       		.uleb128 0x22
 7656 1f7f AD000000 		.4byte	0xad
 7657 1f83 00       		.byte	0
 7658 1f84 21       		.uleb128 0x21
 7659 1f85 540E0000 		.4byte	.LASF249
 7660 1f89 11       		.byte	0x11
 7661 1f8a 2B       		.byte	0x2b
 7662 1f8b AD000000 		.4byte	0xad
ARM GAS  C:\Users\Diego\AppData\Local\Temp\cc9VkXHl.s 			page 162


 7663 1f8f A81F0000 		.4byte	0x1fa8
 7664 1f93 22       		.uleb128 0x22
 7665 1f94 AD000000 		.4byte	0xad
 7666 1f98 22       		.uleb128 0x22
 7667 1f99 EB000000 		.4byte	0xeb
 7668 1f9d 22       		.uleb128 0x22
 7669 1f9e 671E0000 		.4byte	0x1e67
 7670 1fa2 22       		.uleb128 0x22
 7671 1fa3 AD000000 		.4byte	0xad
 7672 1fa7 00       		.byte	0
 7673 1fa8 23       		.uleb128 0x23
 7674 1fa9 92050000 		.4byte	.LASF250
 7675 1fad 0A       		.byte	0xa
 7676 1fae 8A       		.byte	0x8a
 7677 1faf B91F0000 		.4byte	0x1fb9
 7678 1fb3 22       		.uleb128 0x22
 7679 1fb4 AD000000 		.4byte	0xad
 7680 1fb8 00       		.byte	0
 7681 1fb9 21       		.uleb128 0x21
 7682 1fba 670F0000 		.4byte	.LASF251
 7683 1fbe 11       		.byte	0x11
 7684 1fbf 2C       		.byte	0x2c
 7685 1fc0 AD000000 		.4byte	0xad
 7686 1fc4 CE1F0000 		.4byte	0x1fce
 7687 1fc8 22       		.uleb128 0x22
 7688 1fc9 AD000000 		.4byte	0xad
 7689 1fcd 00       		.byte	0
 7690 1fce 23       		.uleb128 0x23
 7691 1fcf BF090000 		.4byte	.LASF252
 7692 1fd3 15       		.byte	0x15
 7693 1fd4 25       		.byte	0x25
 7694 1fd5 E41F0000 		.4byte	0x1fe4
 7695 1fd9 22       		.uleb128 0x22
 7696 1fda AD000000 		.4byte	0xad
 7697 1fde 22       		.uleb128 0x22
 7698 1fdf AD000000 		.4byte	0xad
 7699 1fe3 00       		.byte	0
 7700 1fe4 21       		.uleb128 0x21
 7701 1fe5 0B010000 		.4byte	.LASF253
 7702 1fe9 16       		.byte	0x16
 7703 1fea 21       		.byte	0x21
 7704 1feb AD000000 		.4byte	0xad
 7705 1fef F91F0000 		.4byte	0x1ff9
 7706 1ff3 22       		.uleb128 0x22
 7707 1ff4 AD000000 		.4byte	0xad
 7708 1ff8 00       		.byte	0
 7709 1ff9 21       		.uleb128 0x21
 7710 1ffa 88020000 		.4byte	.LASF254
 7711 1ffe 16       		.byte	0x16
 7712 1fff 22       		.byte	0x22
 7713 2000 AD000000 		.4byte	0xad
 7714 2004 13200000 		.4byte	0x2013
 7715 2008 22       		.uleb128 0x22
 7716 2009 AD000000 		.4byte	0xad
 7717 200d 22       		.uleb128 0x22
 7718 200e AD000000 		.4byte	0xad
 7719 2012 00       		.byte	0
ARM GAS  C:\Users\Diego\AppData\Local\Temp\cc9VkXHl.s 			page 163


 7720 2013 21       		.uleb128 0x21
 7721 2014 290C0000 		.4byte	.LASF255
 7722 2018 16       		.byte	0x16
 7723 2019 23       		.byte	0x23
 7724 201a AD000000 		.4byte	0xad
 7725 201e 28200000 		.4byte	0x2028
 7726 2022 22       		.uleb128 0x22
 7727 2023 AD000000 		.4byte	0xad
 7728 2027 00       		.byte	0
 7729 2028 21       		.uleb128 0x21
 7730 2029 650A0000 		.4byte	.LASF256
 7731 202d 16       		.byte	0x16
 7732 202e 24       		.byte	0x24
 7733 202f AD000000 		.4byte	0xad
 7734 2033 42200000 		.4byte	0x2042
 7735 2037 22       		.uleb128 0x22
 7736 2038 AD000000 		.4byte	0xad
 7737 203c 22       		.uleb128 0x22
 7738 203d AD000000 		.4byte	0xad
 7739 2041 00       		.byte	0
 7740 2042 23       		.uleb128 0x23
 7741 2043 FA040000 		.4byte	.LASF257
 7742 2047 0E       		.byte	0xe
 7743 2048 26       		.byte	0x26
 7744 2049 58200000 		.4byte	0x2058
 7745 204d 22       		.uleb128 0x22
 7746 204e AD000000 		.4byte	0xad
 7747 2052 22       		.uleb128 0x22
 7748 2053 AD000000 		.4byte	0xad
 7749 2057 00       		.byte	0
 7750 2058 1F       		.uleb128 0x1f
 7751 2059 D0000000 		.4byte	.LASF258
 7752 205d 07       		.byte	0x7
 7753 205e 73       		.byte	0x73
 7754 205f AD000000 		.4byte	0xad
 7755 2063 20       		.uleb128 0x20
 7756 2064 7C0A0000 		.4byte	.LASF259
 7757 2068 07       		.byte	0x7
 7758 2069 75       		.byte	0x75
 7759 206a 1F       		.uleb128 0x1f
 7760 206b EB0B0000 		.4byte	.LASF260
 7761 206f 17       		.byte	0x17
 7762 2070 5E       		.byte	0x5e
 7763 2071 AD000000 		.4byte	0xad
 7764 2075 23       		.uleb128 0x23
 7765 2076 F5010000 		.4byte	.LASF261
 7766 207a 0F       		.byte	0xf
 7767 207b 73       		.byte	0x73
 7768 207c 8B200000 		.4byte	0x208b
 7769 2080 22       		.uleb128 0x22
 7770 2081 AD000000 		.4byte	0xad
 7771 2085 22       		.uleb128 0x22
 7772 2086 AD000000 		.4byte	0xad
 7773 208a 00       		.byte	0
 7774 208b 20       		.uleb128 0x20
 7775 208c 9D080000 		.4byte	.LASF262
 7776 2090 0F       		.byte	0xf
ARM GAS  C:\Users\Diego\AppData\Local\Temp\cc9VkXHl.s 			page 164


 7777 2091 74       		.byte	0x74
 7778 2092 00       		.byte	0
 7779              		.section	.debug_abbrev,"",%progbits
 7780              	.Ldebug_abbrev0:
 7781 0000 01       		.uleb128 0x1
 7782 0001 11       		.uleb128 0x11
 7783 0002 01       		.byte	0x1
 7784 0003 25       		.uleb128 0x25
 7785 0004 0E       		.uleb128 0xe
 7786 0005 13       		.uleb128 0x13
 7787 0006 0B       		.uleb128 0xb
 7788 0007 03       		.uleb128 0x3
 7789 0008 0E       		.uleb128 0xe
 7790 0009 1B       		.uleb128 0x1b
 7791 000a 0E       		.uleb128 0xe
 7792 000b 55       		.uleb128 0x55
 7793 000c 17       		.uleb128 0x17
 7794 000d 11       		.uleb128 0x11
 7795 000e 01       		.uleb128 0x1
 7796 000f 10       		.uleb128 0x10
 7797 0010 17       		.uleb128 0x17
 7798 0011 00       		.byte	0
 7799 0012 00       		.byte	0
 7800 0013 02       		.uleb128 0x2
 7801 0014 24       		.uleb128 0x24
 7802 0015 00       		.byte	0
 7803 0016 0B       		.uleb128 0xb
 7804 0017 0B       		.uleb128 0xb
 7805 0018 3E       		.uleb128 0x3e
 7806 0019 0B       		.uleb128 0xb
 7807 001a 03       		.uleb128 0x3
 7808 001b 0E       		.uleb128 0xe
 7809 001c 00       		.byte	0
 7810 001d 00       		.byte	0
 7811 001e 03       		.uleb128 0x3
 7812 001f 16       		.uleb128 0x16
 7813 0020 00       		.byte	0
 7814 0021 03       		.uleb128 0x3
 7815 0022 0E       		.uleb128 0xe
 7816 0023 3A       		.uleb128 0x3a
 7817 0024 0B       		.uleb128 0xb
 7818 0025 3B       		.uleb128 0x3b
 7819 0026 0B       		.uleb128 0xb
 7820 0027 49       		.uleb128 0x49
 7821 0028 13       		.uleb128 0x13
 7822 0029 00       		.byte	0
 7823 002a 00       		.byte	0
 7824 002b 04       		.uleb128 0x4
 7825 002c 24       		.uleb128 0x24
 7826 002d 00       		.byte	0
 7827 002e 0B       		.uleb128 0xb
 7828 002f 0B       		.uleb128 0xb
 7829 0030 3E       		.uleb128 0x3e
 7830 0031 0B       		.uleb128 0xb
 7831 0032 03       		.uleb128 0x3
 7832 0033 08       		.uleb128 0x8
 7833 0034 00       		.byte	0
ARM GAS  C:\Users\Diego\AppData\Local\Temp\cc9VkXHl.s 			page 165


 7834 0035 00       		.byte	0
 7835 0036 05       		.uleb128 0x5
 7836 0037 16       		.uleb128 0x16
 7837 0038 00       		.byte	0
 7838 0039 03       		.uleb128 0x3
 7839 003a 0E       		.uleb128 0xe
 7840 003b 3A       		.uleb128 0x3a
 7841 003c 0B       		.uleb128 0xb
 7842 003d 3B       		.uleb128 0x3b
 7843 003e 05       		.uleb128 0x5
 7844 003f 49       		.uleb128 0x49
 7845 0040 13       		.uleb128 0x13
 7846 0041 00       		.byte	0
 7847 0042 00       		.byte	0
 7848 0043 06       		.uleb128 0x6
 7849 0044 35       		.uleb128 0x35
 7850 0045 00       		.byte	0
 7851 0046 49       		.uleb128 0x49
 7852 0047 13       		.uleb128 0x13
 7853 0048 00       		.byte	0
 7854 0049 00       		.byte	0
 7855 004a 07       		.uleb128 0x7
 7856 004b 0F       		.uleb128 0xf
 7857 004c 00       		.byte	0
 7858 004d 0B       		.uleb128 0xb
 7859 004e 0B       		.uleb128 0xb
 7860 004f 49       		.uleb128 0x49
 7861 0050 13       		.uleb128 0x13
 7862 0051 00       		.byte	0
 7863 0052 00       		.byte	0
 7864 0053 08       		.uleb128 0x8
 7865 0054 15       		.uleb128 0x15
 7866 0055 00       		.byte	0
 7867 0056 27       		.uleb128 0x27
 7868 0057 19       		.uleb128 0x19
 7869 0058 00       		.byte	0
 7870 0059 00       		.byte	0
 7871 005a 09       		.uleb128 0x9
 7872 005b 01       		.uleb128 0x1
 7873 005c 01       		.byte	0x1
 7874 005d 49       		.uleb128 0x49
 7875 005e 13       		.uleb128 0x13
 7876 005f 01       		.uleb128 0x1
 7877 0060 13       		.uleb128 0x13
 7878 0061 00       		.byte	0
 7879 0062 00       		.byte	0
 7880 0063 0A       		.uleb128 0xa
 7881 0064 21       		.uleb128 0x21
 7882 0065 00       		.byte	0
 7883 0066 49       		.uleb128 0x49
 7884 0067 13       		.uleb128 0x13
 7885 0068 2F       		.uleb128 0x2f
 7886 0069 0B       		.uleb128 0xb
 7887 006a 00       		.byte	0
 7888 006b 00       		.byte	0
 7889 006c 0B       		.uleb128 0xb
 7890 006d 13       		.uleb128 0x13
ARM GAS  C:\Users\Diego\AppData\Local\Temp\cc9VkXHl.s 			page 166


 7891 006e 01       		.byte	0x1
 7892 006f 03       		.uleb128 0x3
 7893 0070 0E       		.uleb128 0xe
 7894 0071 0B       		.uleb128 0xb
 7895 0072 05       		.uleb128 0x5
 7896 0073 3A       		.uleb128 0x3a
 7897 0074 0B       		.uleb128 0xb
 7898 0075 3B       		.uleb128 0x3b
 7899 0076 0B       		.uleb128 0xb
 7900 0077 01       		.uleb128 0x1
 7901 0078 13       		.uleb128 0x13
 7902 0079 00       		.byte	0
 7903 007a 00       		.byte	0
 7904 007b 0C       		.uleb128 0xc
 7905 007c 0D       		.uleb128 0xd
 7906 007d 00       		.byte	0
 7907 007e 03       		.uleb128 0x3
 7908 007f 0E       		.uleb128 0xe
 7909 0080 3A       		.uleb128 0x3a
 7910 0081 0B       		.uleb128 0xb
 7911 0082 3B       		.uleb128 0x3b
 7912 0083 0B       		.uleb128 0xb
 7913 0084 49       		.uleb128 0x49
 7914 0085 13       		.uleb128 0x13
 7915 0086 38       		.uleb128 0x38
 7916 0087 0B       		.uleb128 0xb
 7917 0088 00       		.byte	0
 7918 0089 00       		.byte	0
 7919 008a 0D       		.uleb128 0xd
 7920 008b 0D       		.uleb128 0xd
 7921 008c 00       		.byte	0
 7922 008d 03       		.uleb128 0x3
 7923 008e 0E       		.uleb128 0xe
 7924 008f 3A       		.uleb128 0x3a
 7925 0090 0B       		.uleb128 0xb
 7926 0091 3B       		.uleb128 0x3b
 7927 0092 0B       		.uleb128 0xb
 7928 0093 49       		.uleb128 0x49
 7929 0094 13       		.uleb128 0x13
 7930 0095 38       		.uleb128 0x38
 7931 0096 05       		.uleb128 0x5
 7932 0097 00       		.byte	0
 7933 0098 00       		.byte	0
 7934 0099 0E       		.uleb128 0xe
 7935 009a 0D       		.uleb128 0xd
 7936 009b 00       		.byte	0
 7937 009c 03       		.uleb128 0x3
 7938 009d 08       		.uleb128 0x8
 7939 009e 3A       		.uleb128 0x3a
 7940 009f 0B       		.uleb128 0xb
 7941 00a0 3B       		.uleb128 0x3b
 7942 00a1 0B       		.uleb128 0xb
 7943 00a2 49       		.uleb128 0x49
 7944 00a3 13       		.uleb128 0x13
 7945 00a4 38       		.uleb128 0x38
 7946 00a5 0B       		.uleb128 0xb
 7947 00a6 00       		.byte	0
ARM GAS  C:\Users\Diego\AppData\Local\Temp\cc9VkXHl.s 			page 167


 7948 00a7 00       		.byte	0
 7949 00a8 0F       		.uleb128 0xf
 7950 00a9 0D       		.uleb128 0xd
 7951 00aa 00       		.byte	0
 7952 00ab 03       		.uleb128 0x3
 7953 00ac 08       		.uleb128 0x8
 7954 00ad 3A       		.uleb128 0x3a
 7955 00ae 0B       		.uleb128 0xb
 7956 00af 3B       		.uleb128 0x3b
 7957 00b0 0B       		.uleb128 0xb
 7958 00b1 49       		.uleb128 0x49
 7959 00b2 13       		.uleb128 0x13
 7960 00b3 38       		.uleb128 0x38
 7961 00b4 05       		.uleb128 0x5
 7962 00b5 00       		.byte	0
 7963 00b6 00       		.byte	0
 7964 00b7 10       		.uleb128 0x10
 7965 00b8 04       		.uleb128 0x4
 7966 00b9 01       		.byte	0x1
 7967 00ba 03       		.uleb128 0x3
 7968 00bb 0E       		.uleb128 0xe
 7969 00bc 0B       		.uleb128 0xb
 7970 00bd 0B       		.uleb128 0xb
 7971 00be 3A       		.uleb128 0x3a
 7972 00bf 0B       		.uleb128 0xb
 7973 00c0 3B       		.uleb128 0x3b
 7974 00c1 0B       		.uleb128 0xb
 7975 00c2 01       		.uleb128 0x1
 7976 00c3 13       		.uleb128 0x13
 7977 00c4 00       		.byte	0
 7978 00c5 00       		.byte	0
 7979 00c6 11       		.uleb128 0x11
 7980 00c7 28       		.uleb128 0x28
 7981 00c8 00       		.byte	0
 7982 00c9 03       		.uleb128 0x3
 7983 00ca 0E       		.uleb128 0xe
 7984 00cb 1C       		.uleb128 0x1c
 7985 00cc 0D       		.uleb128 0xd
 7986 00cd 00       		.byte	0
 7987 00ce 00       		.byte	0
 7988 00cf 12       		.uleb128 0x12
 7989 00d0 2E       		.uleb128 0x2e
 7990 00d1 01       		.byte	0x1
 7991 00d2 3F       		.uleb128 0x3f
 7992 00d3 19       		.uleb128 0x19
 7993 00d4 03       		.uleb128 0x3
 7994 00d5 0E       		.uleb128 0xe
 7995 00d6 3A       		.uleb128 0x3a
 7996 00d7 0B       		.uleb128 0xb
 7997 00d8 3B       		.uleb128 0x3b
 7998 00d9 05       		.uleb128 0x5
 7999 00da 27       		.uleb128 0x27
 8000 00db 19       		.uleb128 0x19
 8001 00dc 11       		.uleb128 0x11
 8002 00dd 01       		.uleb128 0x1
 8003 00de 12       		.uleb128 0x12
 8004 00df 06       		.uleb128 0x6
ARM GAS  C:\Users\Diego\AppData\Local\Temp\cc9VkXHl.s 			page 168


 8005 00e0 40       		.uleb128 0x40
 8006 00e1 18       		.uleb128 0x18
 8007 00e2 9742     		.uleb128 0x2117
 8008 00e4 19       		.uleb128 0x19
 8009 00e5 01       		.uleb128 0x1
 8010 00e6 13       		.uleb128 0x13
 8011 00e7 00       		.byte	0
 8012 00e8 00       		.byte	0
 8013 00e9 13       		.uleb128 0x13
 8014 00ea 898201   		.uleb128 0x4109
 8015 00ed 00       		.byte	0
 8016 00ee 11       		.uleb128 0x11
 8017 00ef 01       		.uleb128 0x1
 8018 00f0 31       		.uleb128 0x31
 8019 00f1 13       		.uleb128 0x13
 8020 00f2 00       		.byte	0
 8021 00f3 00       		.byte	0
 8022 00f4 14       		.uleb128 0x14
 8023 00f5 2E       		.uleb128 0x2e
 8024 00f6 01       		.byte	0x1
 8025 00f7 3F       		.uleb128 0x3f
 8026 00f8 19       		.uleb128 0x19
 8027 00f9 03       		.uleb128 0x3
 8028 00fa 0E       		.uleb128 0xe
 8029 00fb 3A       		.uleb128 0x3a
 8030 00fc 0B       		.uleb128 0xb
 8031 00fd 3B       		.uleb128 0x3b
 8032 00fe 0B       		.uleb128 0xb
 8033 00ff 11       		.uleb128 0x11
 8034 0100 01       		.uleb128 0x1
 8035 0101 12       		.uleb128 0x12
 8036 0102 06       		.uleb128 0x6
 8037 0103 40       		.uleb128 0x40
 8038 0104 18       		.uleb128 0x18
 8039 0105 9742     		.uleb128 0x2117
 8040 0107 19       		.uleb128 0x19
 8041 0108 01       		.uleb128 0x1
 8042 0109 13       		.uleb128 0x13
 8043 010a 00       		.byte	0
 8044 010b 00       		.byte	0
 8045 010c 15       		.uleb128 0x15
 8046 010d 898201   		.uleb128 0x4109
 8047 0110 01       		.byte	0x1
 8048 0111 11       		.uleb128 0x11
 8049 0112 01       		.uleb128 0x1
 8050 0113 31       		.uleb128 0x31
 8051 0114 13       		.uleb128 0x13
 8052 0115 01       		.uleb128 0x1
 8053 0116 13       		.uleb128 0x13
 8054 0117 00       		.byte	0
 8055 0118 00       		.byte	0
 8056 0119 16       		.uleb128 0x16
 8057 011a 8A8201   		.uleb128 0x410a
 8058 011d 00       		.byte	0
 8059 011e 02       		.uleb128 0x2
 8060 011f 18       		.uleb128 0x18
 8061 0120 9142     		.uleb128 0x2111
ARM GAS  C:\Users\Diego\AppData\Local\Temp\cc9VkXHl.s 			page 169


 8062 0122 18       		.uleb128 0x18
 8063 0123 00       		.byte	0
 8064 0124 00       		.byte	0
 8065 0125 17       		.uleb128 0x17
 8066 0126 898201   		.uleb128 0x4109
 8067 0129 01       		.byte	0x1
 8068 012a 11       		.uleb128 0x11
 8069 012b 01       		.uleb128 0x1
 8070 012c 31       		.uleb128 0x31
 8071 012d 13       		.uleb128 0x13
 8072 012e 00       		.byte	0
 8073 012f 00       		.byte	0
 8074 0130 18       		.uleb128 0x18
 8075 0131 34       		.uleb128 0x34
 8076 0132 00       		.byte	0
 8077 0133 03       		.uleb128 0x3
 8078 0134 0E       		.uleb128 0xe
 8079 0135 3A       		.uleb128 0x3a
 8080 0136 0B       		.uleb128 0xb
 8081 0137 3B       		.uleb128 0x3b
 8082 0138 0B       		.uleb128 0xb
 8083 0139 49       		.uleb128 0x49
 8084 013a 13       		.uleb128 0x13
 8085 013b 02       		.uleb128 0x2
 8086 013c 18       		.uleb128 0x18
 8087 013d 00       		.byte	0
 8088 013e 00       		.byte	0
 8089 013f 19       		.uleb128 0x19
 8090 0140 34       		.uleb128 0x34
 8091 0141 00       		.byte	0
 8092 0142 03       		.uleb128 0x3
 8093 0143 08       		.uleb128 0x8
 8094 0144 3A       		.uleb128 0x3a
 8095 0145 0B       		.uleb128 0xb
 8096 0146 3B       		.uleb128 0x3b
 8097 0147 0B       		.uleb128 0xb
 8098 0148 49       		.uleb128 0x49
 8099 0149 13       		.uleb128 0x13
 8100 014a 02       		.uleb128 0x2
 8101 014b 17       		.uleb128 0x17
 8102 014c 00       		.byte	0
 8103 014d 00       		.byte	0
 8104 014e 1A       		.uleb128 0x1a
 8105 014f 2E       		.uleb128 0x2e
 8106 0150 01       		.byte	0x1
 8107 0151 3F       		.uleb128 0x3f
 8108 0152 19       		.uleb128 0x19
 8109 0153 03       		.uleb128 0x3
 8110 0154 0E       		.uleb128 0xe
 8111 0155 3A       		.uleb128 0x3a
 8112 0156 0B       		.uleb128 0xb
 8113 0157 3B       		.uleb128 0x3b
 8114 0158 0B       		.uleb128 0xb
 8115 0159 27       		.uleb128 0x27
 8116 015a 19       		.uleb128 0x19
 8117 015b 11       		.uleb128 0x11
 8118 015c 01       		.uleb128 0x1
ARM GAS  C:\Users\Diego\AppData\Local\Temp\cc9VkXHl.s 			page 170


 8119 015d 12       		.uleb128 0x12
 8120 015e 06       		.uleb128 0x6
 8121 015f 40       		.uleb128 0x40
 8122 0160 18       		.uleb128 0x18
 8123 0161 9742     		.uleb128 0x2117
 8124 0163 19       		.uleb128 0x19
 8125 0164 01       		.uleb128 0x1
 8126 0165 13       		.uleb128 0x13
 8127 0166 00       		.byte	0
 8128 0167 00       		.byte	0
 8129 0168 1B       		.uleb128 0x1b
 8130 0169 34       		.uleb128 0x34
 8131 016a 00       		.byte	0
 8132 016b 03       		.uleb128 0x3
 8133 016c 08       		.uleb128 0x8
 8134 016d 3A       		.uleb128 0x3a
 8135 016e 0B       		.uleb128 0xb
 8136 016f 3B       		.uleb128 0x3b
 8137 0170 05       		.uleb128 0x5
 8138 0171 49       		.uleb128 0x49
 8139 0172 13       		.uleb128 0x13
 8140 0173 02       		.uleb128 0x2
 8141 0174 17       		.uleb128 0x17
 8142 0175 00       		.byte	0
 8143 0176 00       		.byte	0
 8144 0177 1C       		.uleb128 0x1c
 8145 0178 2E       		.uleb128 0x2e
 8146 0179 01       		.byte	0x1
 8147 017a 3F       		.uleb128 0x3f
 8148 017b 19       		.uleb128 0x19
 8149 017c 03       		.uleb128 0x3
 8150 017d 0E       		.uleb128 0xe
 8151 017e 3A       		.uleb128 0x3a
 8152 017f 0B       		.uleb128 0xb
 8153 0180 3B       		.uleb128 0x3b
 8154 0181 05       		.uleb128 0x5
 8155 0182 49       		.uleb128 0x49
 8156 0183 13       		.uleb128 0x13
 8157 0184 11       		.uleb128 0x11
 8158 0185 01       		.uleb128 0x1
 8159 0186 12       		.uleb128 0x12
 8160 0187 06       		.uleb128 0x6
 8161 0188 40       		.uleb128 0x40
 8162 0189 18       		.uleb128 0x18
 8163 018a 9742     		.uleb128 0x2117
 8164 018c 19       		.uleb128 0x19
 8165 018d 01       		.uleb128 0x1
 8166 018e 13       		.uleb128 0x13
 8167 018f 00       		.byte	0
 8168 0190 00       		.byte	0
 8169 0191 1D       		.uleb128 0x1d
 8170 0192 34       		.uleb128 0x34
 8171 0193 00       		.byte	0
 8172 0194 03       		.uleb128 0x3
 8173 0195 0E       		.uleb128 0xe
 8174 0196 3A       		.uleb128 0x3a
 8175 0197 0B       		.uleb128 0xb
ARM GAS  C:\Users\Diego\AppData\Local\Temp\cc9VkXHl.s 			page 171


 8176 0198 3B       		.uleb128 0x3b
 8177 0199 05       		.uleb128 0x5
 8178 019a 49       		.uleb128 0x49
 8179 019b 13       		.uleb128 0x13
 8180 019c 3F       		.uleb128 0x3f
 8181 019d 19       		.uleb128 0x19
 8182 019e 3C       		.uleb128 0x3c
 8183 019f 19       		.uleb128 0x19
 8184 01a0 00       		.byte	0
 8185 01a1 00       		.byte	0
 8186 01a2 1E       		.uleb128 0x1e
 8187 01a3 34       		.uleb128 0x34
 8188 01a4 00       		.byte	0
 8189 01a5 03       		.uleb128 0x3
 8190 01a6 0E       		.uleb128 0xe
 8191 01a7 3A       		.uleb128 0x3a
 8192 01a8 0B       		.uleb128 0xb
 8193 01a9 3B       		.uleb128 0x3b
 8194 01aa 0B       		.uleb128 0xb
 8195 01ab 49       		.uleb128 0x49
 8196 01ac 13       		.uleb128 0x13
 8197 01ad 3F       		.uleb128 0x3f
 8198 01ae 19       		.uleb128 0x19
 8199 01af 02       		.uleb128 0x2
 8200 01b0 18       		.uleb128 0x18
 8201 01b1 00       		.byte	0
 8202 01b2 00       		.byte	0
 8203 01b3 1F       		.uleb128 0x1f
 8204 01b4 2E       		.uleb128 0x2e
 8205 01b5 00       		.byte	0
 8206 01b6 3F       		.uleb128 0x3f
 8207 01b7 19       		.uleb128 0x19
 8208 01b8 03       		.uleb128 0x3
 8209 01b9 0E       		.uleb128 0xe
 8210 01ba 3A       		.uleb128 0x3a
 8211 01bb 0B       		.uleb128 0xb
 8212 01bc 3B       		.uleb128 0x3b
 8213 01bd 0B       		.uleb128 0xb
 8214 01be 27       		.uleb128 0x27
 8215 01bf 19       		.uleb128 0x19
 8216 01c0 49       		.uleb128 0x49
 8217 01c1 13       		.uleb128 0x13
 8218 01c2 3C       		.uleb128 0x3c
 8219 01c3 19       		.uleb128 0x19
 8220 01c4 00       		.byte	0
 8221 01c5 00       		.byte	0
 8222 01c6 20       		.uleb128 0x20
 8223 01c7 2E       		.uleb128 0x2e
 8224 01c8 00       		.byte	0
 8225 01c9 3F       		.uleb128 0x3f
 8226 01ca 19       		.uleb128 0x19
 8227 01cb 03       		.uleb128 0x3
 8228 01cc 0E       		.uleb128 0xe
 8229 01cd 3A       		.uleb128 0x3a
 8230 01ce 0B       		.uleb128 0xb
 8231 01cf 3B       		.uleb128 0x3b
 8232 01d0 0B       		.uleb128 0xb
ARM GAS  C:\Users\Diego\AppData\Local\Temp\cc9VkXHl.s 			page 172


 8233 01d1 27       		.uleb128 0x27
 8234 01d2 19       		.uleb128 0x19
 8235 01d3 3C       		.uleb128 0x3c
 8236 01d4 19       		.uleb128 0x19
 8237 01d5 00       		.byte	0
 8238 01d6 00       		.byte	0
 8239 01d7 21       		.uleb128 0x21
 8240 01d8 2E       		.uleb128 0x2e
 8241 01d9 01       		.byte	0x1
 8242 01da 3F       		.uleb128 0x3f
 8243 01db 19       		.uleb128 0x19
 8244 01dc 03       		.uleb128 0x3
 8245 01dd 0E       		.uleb128 0xe
 8246 01de 3A       		.uleb128 0x3a
 8247 01df 0B       		.uleb128 0xb
 8248 01e0 3B       		.uleb128 0x3b
 8249 01e1 0B       		.uleb128 0xb
 8250 01e2 27       		.uleb128 0x27
 8251 01e3 19       		.uleb128 0x19
 8252 01e4 49       		.uleb128 0x49
 8253 01e5 13       		.uleb128 0x13
 8254 01e6 3C       		.uleb128 0x3c
 8255 01e7 19       		.uleb128 0x19
 8256 01e8 01       		.uleb128 0x1
 8257 01e9 13       		.uleb128 0x13
 8258 01ea 00       		.byte	0
 8259 01eb 00       		.byte	0
 8260 01ec 22       		.uleb128 0x22
 8261 01ed 05       		.uleb128 0x5
 8262 01ee 00       		.byte	0
 8263 01ef 49       		.uleb128 0x49
 8264 01f0 13       		.uleb128 0x13
 8265 01f1 00       		.byte	0
 8266 01f2 00       		.byte	0
 8267 01f3 23       		.uleb128 0x23
 8268 01f4 2E       		.uleb128 0x2e
 8269 01f5 01       		.byte	0x1
 8270 01f6 3F       		.uleb128 0x3f
 8271 01f7 19       		.uleb128 0x19
 8272 01f8 03       		.uleb128 0x3
 8273 01f9 0E       		.uleb128 0xe
 8274 01fa 3A       		.uleb128 0x3a
 8275 01fb 0B       		.uleb128 0xb
 8276 01fc 3B       		.uleb128 0x3b
 8277 01fd 0B       		.uleb128 0xb
 8278 01fe 27       		.uleb128 0x27
 8279 01ff 19       		.uleb128 0x19
 8280 0200 3C       		.uleb128 0x3c
 8281 0201 19       		.uleb128 0x19
 8282 0202 01       		.uleb128 0x1
 8283 0203 13       		.uleb128 0x13
 8284 0204 00       		.byte	0
 8285 0205 00       		.byte	0
 8286 0206 00       		.byte	0
 8287              		.section	.debug_loc,"",%progbits
 8288              	.Ldebug_loc0:
 8289              	.LLST0:
ARM GAS  C:\Users\Diego\AppData\Local\Temp\cc9VkXHl.s 			page 173


 8290 0000 10000000 		.4byte	.LVL62
 8291 0004 14000000 		.4byte	.LVL63
 8292 0008 0200     		.2byte	0x2
 8293 000a 30       		.byte	0x30
 8294 000b 9F       		.byte	0x9f
 8295 000c 14000000 		.4byte	.LVL63
 8296 0010 24000000 		.4byte	.LVL65
 8297 0014 0100     		.2byte	0x1
 8298 0016 54       		.byte	0x54
 8299 0017 26000000 		.4byte	.LVL66
 8300 001b 42000000 		.4byte	.LVL69
 8301 001f 0100     		.2byte	0x1
 8302 0021 54       		.byte	0x54
 8303 0022 42000000 		.4byte	.LVL69
 8304 0026 46000000 		.4byte	.LVL70
 8305 002a 0200     		.2byte	0x2
 8306 002c 30       		.byte	0x30
 8307 002d 9F       		.byte	0x9f
 8308 002e 46000000 		.4byte	.LVL70
 8309 0032 56000000 		.4byte	.LVL72
 8310 0036 0100     		.2byte	0x1
 8311 0038 54       		.byte	0x54
 8312 0039 58000000 		.4byte	.LVL73
 8313 003d 78000000 		.4byte	.LVL77
 8314 0041 0100     		.2byte	0x1
 8315 0043 54       		.byte	0x54
 8316 0044 00000000 		.4byte	0
 8317 0048 00000000 		.4byte	0
 8318              	.LLST1:
 8319 004c 22000000 		.4byte	.LVL82
 8320 0050 2C000000 		.4byte	.LVL83
 8321 0054 0100     		.2byte	0x1
 8322 0056 53       		.byte	0x53
 8323 0057 2E000000 		.4byte	.LVL84
 8324 005b 30000000 		.4byte	.LVL85
 8325 005f 0100     		.2byte	0x1
 8326 0061 53       		.byte	0x53
 8327 0062 32000000 		.4byte	.LVL86
 8328 0066 36000000 		.4byte	.LVL87
 8329 006a 0100     		.2byte	0x1
 8330 006c 53       		.byte	0x53
 8331 006d 00000000 		.4byte	0
 8332 0071 00000000 		.4byte	0
 8333              	.LLST2:
 8334 0075 40020000 		.4byte	.LVL124
 8335 0079 44020000 		.4byte	.LVL125
 8336 007d 0200     		.2byte	0x2
 8337 007f 31       		.byte	0x31
 8338 0080 9F       		.byte	0x9f
 8339 0081 44020000 		.4byte	.LVL125
 8340 0085 50020000 		.4byte	.LVL126
 8341 0089 0100     		.2byte	0x1
 8342 008b 53       		.byte	0x53
 8343 008c 52020000 		.4byte	.LVL127
 8344 0090 60020000 		.4byte	.LVL128
 8345 0094 0100     		.2byte	0x1
 8346 0096 53       		.byte	0x53
ARM GAS  C:\Users\Diego\AppData\Local\Temp\cc9VkXHl.s 			page 174


 8347 0097 70020000 		.4byte	.LVL129
 8348 009b 74020000 		.4byte	.LVL130
 8349 009f 0200     		.2byte	0x2
 8350 00a1 30       		.byte	0x30
 8351 00a2 9F       		.byte	0x9f
 8352 00a3 74020000 		.4byte	.LVL130
 8353 00a7 82020000 		.4byte	.LVL131
 8354 00ab 0100     		.2byte	0x1
 8355 00ad 53       		.byte	0x53
 8356 00ae 84020000 		.4byte	.LVL132
 8357 00b2 8C020000 		.4byte	.LVL133
 8358 00b6 0100     		.2byte	0x1
 8359 00b8 53       		.byte	0x53
 8360 00b9 10030000 		.4byte	.LVL142
 8361 00bd 22030000 		.4byte	.LVL143
 8362 00c1 0100     		.2byte	0x1
 8363 00c3 53       		.byte	0x53
 8364 00c4 24030000 		.4byte	.LVL144
 8365 00c8 26030000 		.4byte	.LVL145
 8366 00cc 0100     		.2byte	0x1
 8367 00ce 53       		.byte	0x53
 8368 00cf 28030000 		.4byte	.LVL146
 8369 00d3 36030000 		.4byte	.LVL147
 8370 00d7 0100     		.2byte	0x1
 8371 00d9 53       		.byte	0x53
 8372 00da 80060000 		.4byte	.LVL189
 8373 00de 8C060000 		.4byte	.LVL190
 8374 00e2 0100     		.2byte	0x1
 8375 00e4 53       		.byte	0x53
 8376 00e5 8E060000 		.4byte	.LVL191
 8377 00e9 90060000 		.4byte	.LVL192
 8378 00ed 0100     		.2byte	0x1
 8379 00ef 53       		.byte	0x53
 8380 00f0 92060000 		.4byte	.LVL193
 8381 00f4 9A060000 		.4byte	.LVL194
 8382 00f8 0100     		.2byte	0x1
 8383 00fa 53       		.byte	0x53
 8384 00fb A6060000 		.4byte	.LVL196
 8385 00ff B2060000 		.4byte	.LVL197
 8386 0103 0100     		.2byte	0x1
 8387 0105 53       		.byte	0x53
 8388 0106 B4060000 		.4byte	.LVL198
 8389 010a B6060000 		.4byte	.LVL199
 8390 010e 0100     		.2byte	0x1
 8391 0110 53       		.byte	0x53
 8392 0111 B8060000 		.4byte	.LVL200
 8393 0115 CA060000 		.4byte	.LVL201
 8394 0119 0100     		.2byte	0x1
 8395 011b 53       		.byte	0x53
 8396 011c CC060000 		.4byte	.LVL202
 8397 0120 CE060000 		.4byte	.LVL203
 8398 0124 0100     		.2byte	0x1
 8399 0126 53       		.byte	0x53
 8400 0127 D0060000 		.4byte	.LVL204
 8401 012b D4060000 		.4byte	.LVL205
 8402 012f 0100     		.2byte	0x1
 8403 0131 53       		.byte	0x53
ARM GAS  C:\Users\Diego\AppData\Local\Temp\cc9VkXHl.s 			page 175


 8404 0132 EE060000 		.4byte	.LVL207
 8405 0136 FC060000 		.4byte	.LVL208
 8406 013a 0100     		.2byte	0x1
 8407 013c 53       		.byte	0x53
 8408 013d FE060000 		.4byte	.LVL209
 8409 0141 00070000 		.4byte	.LVL210
 8410 0145 0100     		.2byte	0x1
 8411 0147 53       		.byte	0x53
 8412 0148 02070000 		.4byte	.LVL211
 8413 014c 10070000 		.4byte	.LVL212
 8414 0150 0100     		.2byte	0x1
 8415 0152 53       		.byte	0x53
 8416 0153 1A070000 		.4byte	.LVL214
 8417 0157 28070000 		.4byte	.LVL215
 8418 015b 0100     		.2byte	0x1
 8419 015d 53       		.byte	0x53
 8420 015e 2A070000 		.4byte	.LVL216
 8421 0162 2C070000 		.4byte	.LVL217
 8422 0166 0100     		.2byte	0x1
 8423 0168 53       		.byte	0x53
 8424 0169 2E070000 		.4byte	.LVL218
 8425 016d 3C070000 		.4byte	.LVL219
 8426 0171 0100     		.2byte	0x1
 8427 0173 53       		.byte	0x53
 8428 0174 46070000 		.4byte	.LVL221
 8429 0178 54070000 		.4byte	.LVL222
 8430 017c 0100     		.2byte	0x1
 8431 017e 53       		.byte	0x53
 8432 017f 56070000 		.4byte	.LVL223
 8433 0183 58070000 		.4byte	.LVL224
 8434 0187 0100     		.2byte	0x1
 8435 0189 53       		.byte	0x53
 8436 018a 5A070000 		.4byte	.LVL225
 8437 018e 64070000 		.4byte	.LVL226
 8438 0192 0100     		.2byte	0x1
 8439 0194 53       		.byte	0x53
 8440 0195 18080000 		.4byte	.LVL238
 8441 0199 24080000 		.4byte	.LVL240
 8442 019d 0100     		.2byte	0x1
 8443 019f 54       		.byte	0x54
 8444 01a0 26080000 		.4byte	.LVL241
 8445 01a4 28080000 		.4byte	.LVL242
 8446 01a8 0100     		.2byte	0x1
 8447 01aa 54       		.byte	0x54
 8448 01ab 2A080000 		.4byte	.LVL243
 8449 01af 32080000 		.4byte	.LVL244
 8450 01b3 0100     		.2byte	0x1
 8451 01b5 54       		.byte	0x54
 8452 01b6 54080000 		.4byte	.LVL245
 8453 01ba 5E080000 		.4byte	.LVL247
 8454 01be 0100     		.2byte	0x1
 8455 01c0 54       		.byte	0x54
 8456 01c1 60080000 		.4byte	.LVL248
 8457 01c5 72080000 		.4byte	.LVL249
 8458 01c9 0100     		.2byte	0x1
 8459 01cb 54       		.byte	0x54
 8460 01cc 72080000 		.4byte	.LVL249
ARM GAS  C:\Users\Diego\AppData\Local\Temp\cc9VkXHl.s 			page 176


 8461 01d0 76080000 		.4byte	.LVL250
 8462 01d4 0200     		.2byte	0x2
 8463 01d6 31       		.byte	0x31
 8464 01d7 9F       		.byte	0x9f
 8465 01d8 76080000 		.4byte	.LVL250
 8466 01dc B6080000 		.4byte	.LVL255
 8467 01e0 0100     		.2byte	0x1
 8468 01e2 51       		.byte	0x51
 8469 01e3 B8080000 		.4byte	.LVL256
 8470 01e7 C0080000 		.4byte	.LVL257
 8471 01eb 0100     		.2byte	0x1
 8472 01ed 51       		.byte	0x51
 8473 01ee 00000000 		.4byte	0
 8474 01f2 00000000 		.4byte	0
 8475              	.LLST3:
 8476 01f6 54080000 		.4byte	.LVL245
 8477 01fa 5B080000 		.4byte	.LVL246-1
 8478 01fe 0100     		.2byte	0x1
 8479 0200 50       		.byte	0x50
 8480 0201 5C080000 		.4byte	.LVL246
 8481 0205 72080000 		.4byte	.LVL249
 8482 0209 0100     		.2byte	0x1
 8483 020b 50       		.byte	0x50
 8484 020c 72080000 		.4byte	.LVL249
 8485 0210 76080000 		.4byte	.LVL250
 8486 0214 0200     		.2byte	0x2
 8487 0216 40       		.byte	0x40
 8488 0217 9F       		.byte	0x9f
 8489 0218 76080000 		.4byte	.LVL250
 8490 021c 96080000 		.4byte	.LVL251
 8491 0220 0100     		.2byte	0x1
 8492 0222 53       		.byte	0x53
 8493 0223 98080000 		.4byte	.LVL252
 8494 0227 B2080000 		.4byte	.LVL253
 8495 022b 0100     		.2byte	0x1
 8496 022d 53       		.byte	0x53
 8497 022e B2080000 		.4byte	.LVL253
 8498 0232 B4080000 		.4byte	.LVL254
 8499 0236 0300     		.2byte	0x3
 8500 0238 73       		.byte	0x73
 8501 0239 01       		.sleb128 1
 8502 023a 9F       		.byte	0x9f
 8503 023b B4080000 		.4byte	.LVL254
 8504 023f C3080000 		.4byte	.LVL258-1
 8505 0243 0100     		.2byte	0x1
 8506 0245 53       		.byte	0x53
 8507 0246 00000000 		.4byte	0
 8508 024a 00000000 		.4byte	0
 8509              	.LLST4:
 8510 024e 04000000 		.4byte	.LVL304
 8511 0252 08000000 		.4byte	.LVL305
 8512 0256 0200     		.2byte	0x2
 8513 0258 30       		.byte	0x30
 8514 0259 9F       		.byte	0x9f
 8515 025a 08000000 		.4byte	.LVL305
 8516 025e 10000000 		.4byte	.LVL306
 8517 0262 0100     		.2byte	0x1
ARM GAS  C:\Users\Diego\AppData\Local\Temp\cc9VkXHl.s 			page 177


 8518 0264 53       		.byte	0x53
 8519 0265 12000000 		.4byte	.LVL307
 8520 0269 19000000 		.4byte	.LVL308-1
 8521 026d 0100     		.2byte	0x1
 8522 026f 53       		.byte	0x53
 8523 0270 00000000 		.4byte	0
 8524 0274 00000000 		.4byte	0
 8525              		.section	.debug_aranges,"",%progbits
 8526 0000 74000000 		.4byte	0x74
 8527 0004 0200     		.2byte	0x2
 8528 0006 00000000 		.4byte	.Ldebug_info0
 8529 000a 04       		.byte	0x4
 8530 000b 00       		.byte	0
 8531 000c 0000     		.2byte	0
 8532 000e 0000     		.2byte	0
 8533 0010 00000000 		.4byte	.LFB72
 8534 0014 14000000 		.4byte	.LFE72-.LFB72
 8535 0018 00000000 		.4byte	.LFB63
 8536 001c 20000000 		.4byte	.LFE63-.LFB63
 8537 0020 00000000 		.4byte	.LFB64
 8538 0024 74000000 		.4byte	.LFE64-.LFB64
 8539 0028 00000000 		.4byte	.LFB65
 8540 002c 8C020000 		.4byte	.LFE65-.LFB65
 8541 0030 00000000 		.4byte	.LFB66
 8542 0034 50000000 		.4byte	.LFE66-.LFB66
 8543 0038 00000000 		.4byte	.LFB67
 8544 003c C4000000 		.4byte	.LFE67-.LFB67
 8545 0040 00000000 		.4byte	.LFB68
 8546 0044 7C000000 		.4byte	.LFE68-.LFB68
 8547 0048 00000000 		.4byte	.LFB69
 8548 004c EC000000 		.4byte	.LFE69-.LFB69
 8549 0050 00000000 		.4byte	.LFB70
 8550 0054 14090000 		.4byte	.LFE70-.LFB70
 8551 0058 00000000 		.4byte	.LFB71
 8552 005c 2C030000 		.4byte	.LFE71-.LFB71
 8553 0060 00000000 		.4byte	.LFB73
 8554 0064 14000000 		.4byte	.LFE73-.LFB73
 8555 0068 00000000 		.4byte	.LFB74
 8556 006c 48000000 		.4byte	.LFE74-.LFB74
 8557 0070 00000000 		.4byte	0
 8558 0074 00000000 		.4byte	0
 8559              		.section	.debug_ranges,"",%progbits
 8560              	.Ldebug_ranges0:
 8561 0000 00000000 		.4byte	.LFB72
 8562 0004 14000000 		.4byte	.LFE72
 8563 0008 00000000 		.4byte	.LFB63
 8564 000c 20000000 		.4byte	.LFE63
 8565 0010 00000000 		.4byte	.LFB64
 8566 0014 74000000 		.4byte	.LFE64
 8567 0018 00000000 		.4byte	.LFB65
 8568 001c 8C020000 		.4byte	.LFE65
 8569 0020 00000000 		.4byte	.LFB66
 8570 0024 50000000 		.4byte	.LFE66
 8571 0028 00000000 		.4byte	.LFB67
 8572 002c C4000000 		.4byte	.LFE67
 8573 0030 00000000 		.4byte	.LFB68
 8574 0034 7C000000 		.4byte	.LFE68
ARM GAS  C:\Users\Diego\AppData\Local\Temp\cc9VkXHl.s 			page 178


 8575 0038 00000000 		.4byte	.LFB69
 8576 003c EC000000 		.4byte	.LFE69
 8577 0040 00000000 		.4byte	.LFB70
 8578 0044 14090000 		.4byte	.LFE70
 8579 0048 00000000 		.4byte	.LFB71
 8580 004c 2C030000 		.4byte	.LFE71
 8581 0050 00000000 		.4byte	.LFB73
 8582 0054 14000000 		.4byte	.LFE73
 8583 0058 00000000 		.4byte	.LFB74
 8584 005c 48000000 		.4byte	.LFE74
 8585 0060 00000000 		.4byte	0
 8586 0064 00000000 		.4byte	0
 8587              		.section	.debug_line,"",%progbits
 8588              	.Ldebug_line0:
 8589 0000 E1060000 		.section	.debug_str,"MS",%progbits,1
 8589      02004C02 
 8589      00000201 
 8589      FB0E0D00 
 8589      01010101 
 8590              	.LASF231:
 8591 0000 43794465 		.ascii	"CyDelay\000"
 8591      6C617900 
 8592              	.LASF125:
 8593 0008 44495350 		.ascii	"DISPLAY_HORA\000"
 8593      4C41595F 
 8593      484F5241 
 8593      00
 8594              	.LASF101:
 8595 0015 44495350 		.ascii	"DISPLAY_INGRESE_PASSWORD\000"
 8595      4C41595F 
 8595      494E4752 
 8595      4553455F 
 8595      50415353 
 8596              	.LASF134:
 8597 002e 44495350 		.ascii	"DISPLAY_IMPRESORA_NO_FUNCIONANDO\000"
 8597      4C41595F 
 8597      494D5052 
 8597      45534F52 
 8597      415F4E4F 
 8598              	.LASF123:
 8599 004f 44495350 		.ascii	"DISPLAY_AUTORIZACION_RECHAZADA\000"
 8599      4C41595F 
 8599      4155544F 
 8599      52495A41 
 8599      43494F4E 
 8600              	.LASF215:
 8601 006e 636F756E 		.ascii	"count_protector2\000"
 8601      745F7072 
 8601      6F746563 
 8601      746F7232 
 8601      00
 8602              	.LASF185:
 8603 007f 64656369 		.ascii	"decimalVolume\000"
 8603      6D616C56 
 8603      6F6C756D 
 8603      6500
 8604              	.LASF198:
ARM GAS  C:\Users\Diego\AppData\Local\Temp\cc9VkXHl.s 			page 179


 8605 008d 50726576 		.ascii	"PrevStatePump\000"
 8605      53746174 
 8605      6550756D 
 8605      7000
 8606              	.LASF232:
 8607 009b 54696D65 		.ascii	"Timer_Animacion_ReadStatusRegister\000"
 8607      725F416E 
 8607      696D6163 
 8607      696F6E5F 
 8607      52656164 
 8608              	.LASF143:
 8609 00be 476C6F62 		.ascii	"GlobalInitializer\000"
 8609      616C496E 
 8609      69746961 
 8609      6C697A65 
 8609      7200
 8610              	.LASF258:
 8611 00d0 44697370 		.ascii	"Display2_GetRxBufferSize\000"
 8611      6C617932 
 8611      5F476574 
 8611      52784275 
 8611      66666572 
 8612              	.LASF58:
 8613 00e9 6D657373 		.ascii	"message\000"
 8613      61676500 
 8614              	.LASF136:
 8615 00f1 44495350 		.ascii	"DISPLAY_PRECIO_POR_UNIDAD\000"
 8615      4C41595F 
 8615      50524543 
 8615      494F5F50 
 8615      4F525F55 
 8616              	.LASF253:
 8617 010b 746F7563 		.ascii	"touch_present\000"
 8617      685F7072 
 8617      6573656E 
 8617      7400
 8618              	.LASF206:
 8619 0119 73746174 		.ascii	"statePump\000"
 8619      6550756D 
 8619      7000
 8620              	.LASF74:
 8621 0123 62756666 		.ascii	"buffer\000"
 8621      657200
 8622              	.LASF245:
 8623 012a 616C7068 		.ascii	"alphanumeric_keyboard\000"
 8623      616E756D 
 8623      65726963 
 8623      5F6B6579 
 8623      626F6172 
 8624              	.LASF184:
 8625 0140 64656369 		.ascii	"decimalMoney\000"
 8625      6D616C4D 
 8625      6F6E6579 
 8625      00
 8626              	.LASF38:
 8627 014d 73616C65 		.ascii	"salePerform\000"
 8627      50657266 
ARM GAS  C:\Users\Diego\AppData\Local\Temp\cc9VkXHl.s 			page 180


 8627      6F726D00 
 8628              	.LASF11:
 8629 0159 756E7369 		.ascii	"unsigned int\000"
 8629      676E6564 
 8629      20696E74 
 8629      00
 8630              	.LASF63:
 8631 0166 70726F64 		.ascii	"productMarket\000"
 8631      7563744D 
 8631      61726B65 
 8631      7400
 8632              	.LASF209:
 8633 0174 5072696E 		.ascii	"PrinterType\000"
 8633      74657254 
 8633      79706500 
 8634              	.LASF6:
 8635 0180 5F5F696E 		.ascii	"__int32_t\000"
 8635      7433325F 
 8635      7400
 8636              	.LASF148:
 8637 018a 556E6974 		.ascii	"Unit2\000"
 8637      3200
 8638              	.LASF56:
 8639 0190 666C6167 		.ascii	"flagLiftHandle\000"
 8639      4C696674 
 8639      48616E64 
 8639      6C6500
 8640              	.LASF150:
 8641 019f 556E6974 		.ascii	"Unit4\000"
 8641      3400
 8642              	.LASF103:
 8643 01a5 44495350 		.ascii	"DISPLAY_PASSWORD_INVALIDO\000"
 8643      4C41595F 
 8643      50415353 
 8643      574F5244 
 8643      5F494E56 
 8644              	.LASF190:
 8645 01bf 72657369 		.ascii	"residue\000"
 8645      64756500 
 8646              	.LASF26:
 8647 01c7 69645479 		.ascii	"idType\000"
 8647      706500
 8648              	.LASF141:
 8649 01ce 44495350 		.ascii	"DISPLAY_SIDE_DUMMY_DISPLAY\000"
 8649      4C41595F 
 8649      53494445 
 8649      5F44554D 
 8649      4D595F44 
 8650              	.LASF205:
 8651 01e9 44444D6F 		.ascii	"DDMode\000"
 8651      646500
 8652              	.LASF220:
 8653 01f0 73696465 		.ascii	"side\000"
 8653      00
 8654              	.LASF261:
 8655 01f5 43795764 		.ascii	"CyWdtStart\000"
 8655      74537461 
ARM GAS  C:\Users\Diego\AppData\Local\Temp\cc9VkXHl.s 			page 181


 8655      727400
 8656              	.LASF221:
 8657 0200 4D757856 		.ascii	"MuxVersion\000"
 8657      65727369 
 8657      6F6E00
 8658              	.LASF93:
 8659 020b 44495350 		.ascii	"DISPLAY_INTRODUZCA_VALOR2\000"
 8659      4C41595F 
 8659      494E5452 
 8659      4F44555A 
 8659      43415F56 
 8660              	.LASF224:
 8661 0225 44697370 		.ascii	"Display1_Start\000"
 8661      6C617931 
 8661      5F537461 
 8661      727400
 8662              	.LASF149:
 8663 0234 556E6974 		.ascii	"Unit3\000"
 8663      3300
 8664              	.LASF228:
 8665 023a 4932435F 		.ascii	"I2C_Bus_Start\000"
 8665      4275735F 
 8665      53746172 
 8665      7400
 8666              	.LASF30:
 8667 0248 73656C65 		.ascii	"selectedSale\000"
 8667      63746564 
 8667      53616C65 
 8667      00
 8668              	.LASF64:
 8669 0255 7175616E 		.ascii	"quantityMarket\000"
 8669      74697479 
 8669      4D61726B 
 8669      657400
 8670              	.LASF166:
 8671 0264 44697370 		.ascii	"Display2_rxBuffer\000"
 8671      6C617932 
 8671      5F727842 
 8671      75666665 
 8671      7200
 8672              	.LASF179:
 8673 0276 666C6167 		.ascii	"flagPoint2\000"
 8673      506F696E 
 8673      743200
 8674              	.LASF189:
 8675 0281 73637265 		.ascii	"screen\000"
 8675      656E00
 8676              	.LASF254:
 8677 0288 746F7563 		.ascii	"touch_write\000"
 8677      685F7772 
 8677      69746500 
 8678              	.LASF161:
 8679 0294 506F6C6C 		.ascii	"PollingDisplay1\000"
 8679      696E6744 
 8679      6973706C 
 8679      61793100 
 8680              	.LASF60:
ARM GAS  C:\Users\Diego\AppData\Local\Temp\cc9VkXHl.s 			page 182


 8681 02a4 766F6C75 		.ascii	"volumeQuota\000"
 8681      6D655175 
 8681      6F746100 
 8682              	.LASF239:
 8683 02b0 77726974 		.ascii	"write_psoc1\000"
 8683      655F7073 
 8683      6F633100 
 8684              	.LASF100:
 8685 02bc 44495350 		.ascii	"DISPLAY_DESEA_IMPRIMIR_RECIBO\000"
 8685      4C41595F 
 8685      44455345 
 8685      415F494D 
 8685      5052494D 
 8686              	.LASF199:
 8687 02da 506C6174 		.ascii	"PlateRequest\000"
 8687      65526571 
 8687      75657374 
 8687      00
 8688              	.LASF122:
 8689 02e7 44495350 		.ascii	"DISPLAY_AUTORIZACION_ACEPTADA\000"
 8689      4C41595F 
 8689      4155544F 
 8689      52495A41 
 8689      43494F4E 
 8690              	.LASF18:
 8691 0305 666C6F61 		.ascii	"float\000"
 8691      7400
 8692              	.LASF133:
 8693 030b 44495350 		.ascii	"DISPLAY_AMBAS_IMPRESORAS_FUNCIONANDO\000"
 8693      4C41595F 
 8693      414D4241 
 8693      535F494D 
 8693      50524553 
 8694              	.LASF109:
 8695 0330 44495350 		.ascii	"DISPLAY_ESPERANDO_ID\000"
 8695      4C41595F 
 8695      45535045 
 8695      52414E44 
 8695      4F5F4944 
 8696              	.LASF202:
 8697 0345 4D6F6E65 		.ascii	"MoneyDec\000"
 8697      79446563 
 8697      00
 8698              	.LASF83:
 8699 034e 686F7365 		.ascii	"hose\000"
 8699      00
 8700              	.LASF147:
 8701 0353 556E6974 		.ascii	"Unit\000"
 8701      00
 8702              	.LASF10:
 8703 0358 6C6F6E67 		.ascii	"long long unsigned int\000"
 8703      206C6F6E 
 8703      6720756E 
 8703      7369676E 
 8703      65642069 
 8704              	.LASF244:
 8705 036f 57726974 		.ascii	"WriteLCD\000"
ARM GAS  C:\Users\Diego\AppData\Local\Temp\cc9VkXHl.s 			page 183


 8705      654C4344 
 8705      00
 8706              	.LASF112:
 8707 0378 44495350 		.ascii	"DISPLAY_INTRODUZCA_VOLUMEN\000"
 8707      4C41595F 
 8707      494E5452 
 8707      4F44555A 
 8707      43415F56 
 8708              	.LASF46:
 8709 0393 746F7461 		.ascii	"totalVolumePrevious\000"
 8709      6C566F6C 
 8709      756D6550 
 8709      72657669 
 8709      6F757300 
 8710              	.LASF115:
 8711 03a7 44495350 		.ascii	"DISPLAY_CONFIGURACIONES\000"
 8711      4C41595F 
 8711      434F4E46 
 8711      49475552 
 8711      4143494F 
 8712              	.LASF4:
 8713 03bf 5F5F7569 		.ascii	"__uint16_t\000"
 8713      6E743136 
 8713      5F7400
 8714              	.LASF120:
 8715 03ca 44495350 		.ascii	"DISPLAY_ESPERANDO_AUTORIZACION\000"
 8715      4C41595F 
 8715      45535045 
 8715      52414E44 
 8715      4F5F4155 
 8716              	.LASF208:
 8717 03e9 64696769 		.ascii	"digits\000"
 8717      747300
 8718              	.LASF156:
 8719 03f0 496E6974 		.ascii	"InitPump\000"
 8719      50756D70 
 8719      00
 8720              	.LASF187:
 8721 03f9 74696D65 		.ascii	"time\000"
 8721      00
 8722              	.LASF157:
 8723 03fe 5072696E 		.ascii	"PrintTest\000"
 8723      74546573 
 8723      7400
 8724              	.LASF41:
 8725 0408 70726F64 		.ascii	"productType\000"
 8725      75637454 
 8725      79706500 
 8726              	.LASF180:
 8727 0414 70726F64 		.ascii	"productNumber\000"
 8727      7563744E 
 8727      756D6265 
 8727      7200
 8728              	.LASF193:
 8729 0422 69645365 		.ascii	"idSeller\000"
 8729      6C6C6572 
 8729      00
ARM GAS  C:\Users\Diego\AppData\Local\Temp\cc9VkXHl.s 			page 184


 8730              	.LASF27:
 8731 042b 69645365 		.ascii	"idSerial\000"
 8731      7269616C 
 8731      00
 8732              	.LASF192:
 8733 0434 6C6F636B 		.ascii	"lockTurn\000"
 8733      5475726E 
 8733      00
 8734              	.LASF52:
 8735 043d 6D696C65 		.ascii	"mileageSale\000"
 8735      61676553 
 8735      616C6500 
 8736              	.LASF72:
 8737 0449 666C6167 		.ascii	"flagChangePPU\000"
 8737      4368616E 
 8737      67655050 
 8737      5500
 8738              	.LASF89:
 8739 0457 44495350 		.ascii	"DISPLAY_INICIO2\000"
 8739      4C41595F 
 8739      494E4943 
 8739      494F3200 
 8740              	.LASF237:
 8741 0467 5F426F6F 		.ascii	"_Bool\000"
 8741      6C00
 8742              	.LASF73:
 8743 046d 666C6167 		.ascii	"flagPrint\000"
 8743      5072696E 
 8743      7400
 8744              	.LASF151:
 8745 0477 44697370 		.ascii	"DisplayMode0\000"
 8745      6C61794D 
 8745      6F646530 
 8745      00
 8746              	.LASF172:
 8747 0484 666C6F77 		.ascii	"flowDisplay1\000"
 8747      44697370 
 8747      6C617931 
 8747      00
 8748              	.LASF153:
 8749 0491 44697370 		.ascii	"DisplayMode2\000"
 8749      6C61794D 
 8749      6F646532 
 8749      00
 8750              	.LASF154:
 8751 049e 44697370 		.ascii	"DisplayMode3\000"
 8751      6C61794D 
 8751      6F646533 
 8751      00
 8752              	.LASF175:
 8753 04ab 666C6F77 		.ascii	"flowDisplay4\000"
 8753      44697370 
 8753      6C617934 
 8753      00
 8754              	.LASF222:
 8755 04b8 45455052 		.ascii	"EEPROM_1_Start\000"
 8755      4F4D5F31 
ARM GAS  C:\Users\Diego\AppData\Local\Temp\cc9VkXHl.s 			page 185


 8755      5F537461 
 8755      727400
 8756              	.LASF233:
 8757 04c7 6765745F 		.ascii	"get_position\000"
 8757      706F7369 
 8757      74696F6E 
 8757      00
 8758              	.LASF62:
 8759 04d4 73657269 		.ascii	"serialMarket\000"
 8759      616C4D61 
 8759      726B6574 
 8759      00
 8760              	.LASF76:
 8761 04e1 746F7461 		.ascii	"totalsHandle\000"
 8761      6C734861 
 8761      6E646C65 
 8761      00
 8762              	.LASF40:
 8763 04ee 70726573 		.ascii	"presetValue\000"
 8763      65745661 
 8763      6C756500 
 8764              	.LASF257:
 8765 04fa 53686F77 		.ascii	"ShowRectangle\000"
 8765      52656374 
 8765      616E676C 
 8765      6500
 8766              	.LASF210:
 8767 0508 7475726E 		.ascii	"turn\000"
 8767      00
 8768              	.LASF90:
 8769 050d 44495350 		.ascii	"DISPLAY_FORMA_PAGO_DESEADA\000"
 8769      4C41595F 
 8769      464F524D 
 8769      415F5041 
 8769      474F5F44 
 8770              	.LASF53:
 8771 0528 6964656E 		.ascii	"identySale\000"
 8771      74795361 
 8771      6C6500
 8772              	.LASF37:
 8773 0533 73616C65 		.ascii	"saleType\000"
 8773      54797065 
 8773      00
 8774              	.LASF159:
 8775 053c 616E696D 		.ascii	"animacion\000"
 8775      6163696F 
 8775      6E00
 8776              	.LASF248:
 8777 0546 50756D70 		.ascii	"PumpHoseActiveState\000"
 8777      486F7365 
 8777      41637469 
 8777      76655374 
 8777      61746500 
 8778              	.LASF35:
 8779 055a 76616C75 		.ascii	"valueKeys\000"
 8779      654B6579 
 8779      7300
ARM GAS  C:\Users\Diego\AppData\Local\Temp\cc9VkXHl.s 			page 186


 8780              	.LASF22:
 8781 0564 63686172 		.ascii	"char\000"
 8781      00
 8782              	.LASF201:
 8783 0569 436F6E76 		.ascii	"ConversionFactor\000"
 8783      65727369 
 8783      6F6E4661 
 8783      63746F72 
 8783      00
 8784              	.LASF176:
 8785 057a 6E756D62 		.ascii	"numberKeys1\000"
 8785      65724B65 
 8785      79733100 
 8786              	.LASF177:
 8787 0586 6E756D62 		.ascii	"numberKeys2\000"
 8787      65724B65 
 8787      79733200 
 8788              	.LASF250:
 8789 0592 50756D70 		.ascii	"Pump_PutChar\000"
 8789      5F507574 
 8789      43686172 
 8789      00
 8790              	.LASF170:
 8791 059f 636F756E 		.ascii	"countBeagleTX\000"
 8791      74426561 
 8791      676C6554 
 8791      5800
 8792              	.LASF223:
 8793 05ad 50756D70 		.ascii	"Pump_Start\000"
 8793      5F537461 
 8793      727400
 8794              	.LASF87:
 8795 05b8 44495350 		.ascii	"DISPLAY_INICIO0\000"
 8795      4C41595F 
 8795      494E4943 
 8795      494F3000 
 8796              	.LASF88:
 8797 05c8 44495350 		.ascii	"DISPLAY_INICIO1\000"
 8797      4C41595F 
 8797      494E4943 
 8797      494F3100 
 8798              	.LASF16:
 8799 05d8 75696E74 		.ascii	"uint16\000"
 8799      313600
 8800              	.LASF91:
 8801 05df 44495350 		.ascii	"DISPLAY_FORMA_PROGRAMACION\000"
 8801      4C41595F 
 8801      464F524D 
 8801      415F5052 
 8801      4F475241 
 8802              	.LASF188:
 8803 05fa 64617465 		.ascii	"date\000"
 8803      00
 8804              	.LASF12:
 8805 05ff 75696E74 		.ascii	"uint8_t\000"
 8805      385F7400 
 8806              	.LASF158:
ARM GAS  C:\Users\Diego\AppData\Local\Temp\cc9VkXHl.s 			page 187


 8807 0607 6461746F 		.ascii	"dato\000"
 8807      00
 8808              	.LASF55:
 8809 060c 666C6167 		.ascii	"flagPayment\000"
 8809      5061796D 
 8809      656E7400 
 8810              	.LASF21:
 8811 0618 63686172 		.ascii	"char8\000"
 8811      3800
 8812              	.LASF113:
 8813 061e 44495350 		.ascii	"DISPLAY_INTRODUZCA_KILOMETRAJE\000"
 8813      4C41595F 
 8813      494E5452 
 8813      4F44555A 
 8813      43415F4B 
 8814              	.LASF61:
 8815 063d 70707551 		.ascii	"ppuQuota\000"
 8815      756F7461 
 8815      00
 8816              	.LASF48:
 8817 0646 746F7461 		.ascii	"totalMoneyAfter\000"
 8817      6C4D6F6E 
 8817      65794166 
 8817      74657200 
 8818              	.LASF59:
 8819 0656 6D6F6E65 		.ascii	"moneyQuota\000"
 8819      7951756F 
 8819      746100
 8820              	.LASF247:
 8821 0661 54696D65 		.ascii	"Timer_Animacion_Start\000"
 8821      725F416E 
 8821      696D6163 
 8821      696F6E5F 
 8821      53746172 
 8822              	.LASF71:
 8823 0677 7072696E 		.ascii	"printers\000"
 8823      74657273 
 8823      00
 8824              	.LASF152:
 8825 0680 44697370 		.ascii	"DisplayMode\000"
 8825      6C61794D 
 8825      6F646500 
 8826              	.LASF225:
 8827 068c 44697370 		.ascii	"Display2_Start\000"
 8827      6C617932 
 8827      5F537461 
 8827      727400
 8828              	.LASF78:
 8829 069b 6D6F6E65 		.ascii	"moneySale\000"
 8829      7953616C 
 8829      6500
 8830              	.LASF9:
 8831 06a5 6C6F6E67 		.ascii	"long long int\000"
 8831      206C6F6E 
 8831      6720696E 
 8831      7400
 8832              	.LASF234:
ARM GAS  C:\Users\Diego\AppData\Local\Temp\cc9VkXHl.s 			page 188


 8833 06b3 45455052 		.ascii	"EEPROM_1_WriteByte\000"
 8833      4F4D5F31 
 8833      5F577269 
 8833      74654279 
 8833      746500
 8834              	.LASF236:
 8835 06c6 50756D70 		.ascii	"PumpIsInValidState\000"
 8835      4973496E 
 8835      56616C69 
 8835      64537461 
 8835      746500
 8836              	.LASF96:
 8837 06d9 44495350 		.ascii	"DISPLAY_SUBA_MANIJA\000"
 8837      4C41595F 
 8837      53554241 
 8837      5F4D414E 
 8837      494A4100 
 8838              	.LASF135:
 8839 06ed 44495350 		.ascii	"DISPLAY_IDENTIFICADOR_ESTACION\000"
 8839      4C41595F 
 8839      4944454E 
 8839      54494649 
 8839      4341444F 
 8840              	.LASF80:
 8841 070c 70707553 		.ascii	"ppuSale\000"
 8841      616C6500 
 8842              	.LASF168:
 8843 0714 636F756E 		.ascii	"countAnimation1\000"
 8843      74416E69 
 8843      6D617469 
 8843      6F6E3100 
 8844              	.LASF207:
 8845 0724 4E756D50 		.ascii	"NumPositions\000"
 8845      6F736974 
 8845      696F6E73 
 8845      00
 8846              	.LASF240:
 8847 0731 6973725F 		.ascii	"isr_3_Stop\000"
 8847      335F5374 
 8847      6F7000
 8848              	.LASF197:
 8849 073c 73746174 		.ascii	"stateBeagleSoft\000"
 8849      65426561 
 8849      676C6553 
 8849      6F667400 
 8850              	.LASF128:
 8851 074c 44495350 		.ascii	"DISPLAY_ABRIR_TURNO\000"
 8851      4C41595F 
 8851      41425249 
 8851      525F5455 
 8851      524E4F00 
 8852              	.LASF47:
 8853 0760 746F7461 		.ascii	"totalPPUPrevious\000"
 8853      6C505055 
 8853      50726576 
 8853      696F7573 
 8853      00
ARM GAS  C:\Users\Diego\AppData\Local\Temp\cc9VkXHl.s 			page 189


 8854              	.LASF169:
 8855 0771 636F756E 		.ascii	"countAnimation2\000"
 8855      74416E69 
 8855      6D617469 
 8855      6F6E3200 
 8856              	.LASF142:
 8857 0781 44495350 		.ascii	"DISPLAY_NULL\000"
 8857      4C41595F 
 8857      4E554C4C 
 8857      00
 8858              	.LASF68:
 8859 078e 746F7461 		.ascii	"totalMarket\000"
 8859      6C4D6172 
 8859      6B657400 
 8860              	.LASF102:
 8861 079a 44495350 		.ascii	"DISPLAY_PASSWORD_VALIDO\000"
 8861      4C41595F 
 8861      50415353 
 8861      574F5244 
 8861      5F56414C 
 8862              	.LASF146:
 8863 07b2 696E6954 		.ascii	"iniText\000"
 8863      65787400 
 8864              	.LASF36:
 8865 07ba 76656869 		.ascii	"vehicleType\000"
 8865      636C6554 
 8865      79706500 
 8866              	.LASF24:
 8867 07c6 63796973 		.ascii	"cyisraddress\000"
 8867      72616464 
 8867      72657373 
 8867      00
 8868              	.LASF54:
 8869 07d3 666C6167 		.ascii	"flagKeyboard\000"
 8869      4B657962 
 8869      6F617264 
 8869      00
 8870              	.LASF145:
 8871 07e0 496E6974 		.ascii	"InitDisplay1\000"
 8871      44697370 
 8871      6C617931 
 8871      00
 8872              	.LASF155:
 8873 07ed 496E6974 		.ascii	"InitDisplay2\000"
 8873      44697370 
 8873      6C617932 
 8873      00
 8874              	.LASF213:
 8875 07fa 74696D65 		.ascii	"timeDownHandle\000"
 8875      446F776E 
 8875      48616E64 
 8875      6C6500
 8876              	.LASF238:
 8877 0809 50756D70 		.ascii	"PumpCompleteConfiguration\000"
 8877      436F6D70 
 8877      6C657465 
 8877      436F6E66 
ARM GAS  C:\Users\Diego\AppData\Local\Temp\cc9VkXHl.s 			page 190


 8877      69677572 
 8878              	.LASF17:
 8879 0823 75696E74 		.ascii	"uint32\000"
 8879      333200
 8880              	.LASF162:
 8881 082a 506F6C6C 		.ascii	"PollingDisplay2\000"
 8881      696E6744 
 8881      6973706C 
 8881      61793200 
 8882              	.LASF196:
 8883 083a 666C6167 		.ascii	"flagResetMux\000"
 8883      52657365 
 8883      744D7578 
 8883      00
 8884              	.LASF97:
 8885 0847 44495350 		.ascii	"DISPLAY_DESPACHANDO\000"
 8885      4C41595F 
 8885      44455350 
 8885      41434841 
 8885      4E444F00 
 8886              	.LASF265:
 8887 085b 433A5C55 		.ascii	"C:\\Users\\Diego\\Documents\\GitHub\\NSY-DH\\Worksp"
 8887      73657273 
 8887      5C446965 
 8887      676F5C44 
 8887      6F63756D 
 8888 0888 61636530 		.ascii	"ace01\\Design01.cydsn\000"
 8888      315C4465 
 8888      7369676E 
 8888      30312E63 
 8888      7964736E 
 8889              	.LASF262:
 8890 089d 43795764 		.ascii	"CyWdtClear\000"
 8890      74436C65 
 8890      617200
 8891              	.LASF229:
 8892 08a8 53657450 		.ascii	"SetPicture\000"
 8892      69637475 
 8892      726500
 8893              	.LASF160:
 8894 08b3 506F6C6C 		.ascii	"PollingPump\000"
 8894      696E6750 
 8894      756D7000 
 8895              	.LASF110:
 8896 08bf 44495350 		.ascii	"DISPLAY_ID_RECONOCIDO\000"
 8896      4C41595F 
 8896      49445F52 
 8896      45434F4E 
 8896      4F434944 
 8897              	.LASF50:
 8898 08d5 746F7461 		.ascii	"totalPPUAfter\000"
 8898      6C505055 
 8898      41667465 
 8898      7200
 8899              	.LASF13:
 8900 08e3 75696E74 		.ascii	"uint16_t\000"
 8900      31365F74 
ARM GAS  C:\Users\Diego\AppData\Local\Temp\cc9VkXHl.s 			page 191


 8900      00
 8901              	.LASF33:
 8902 08ec 6B657962 		.ascii	"keyboardWayToPay\000"
 8902      6F617264 
 8902      57617954 
 8902      6F506179 
 8902      00
 8903              	.LASF183:
 8904 08fd 70707578 		.ascii	"ppux10\000"
 8904      313000
 8905              	.LASF45:
 8906 0904 746F7461 		.ascii	"totalMoneyPrevious\000"
 8906      6C4D6F6E 
 8906      65795072 
 8906      6576696F 
 8906      757300
 8907              	.LASF99:
 8908 0917 44495350 		.ascii	"DISPLAY_DIGITE_PLACA\000"
 8908      4C41595F 
 8908      44494749 
 8908      54455F50 
 8908      4C414341 
 8909              	.LASF178:
 8910 092c 666C6167 		.ascii	"flagPoint1\000"
 8910      506F696E 
 8910      743100
 8911              	.LASF31:
 8912 0937 6D6F6E65 		.ascii	"moneySelectedSale\000"
 8912      7953656C 
 8912      65637465 
 8912      6453616C 
 8912      6500
 8913              	.LASF186:
 8914 0949 73796D62 		.ascii	"symbols\000"
 8914      6F6C7300 
 8915              	.LASF126:
 8916 0951 44495350 		.ascii	"DISPLAY_FECHA\000"
 8916      4C41595F 
 8916      46454348 
 8916      4100
 8917              	.LASF92:
 8918 095f 44495350 		.ascii	"DISPLAY_INTRODUZCA_VALOR\000"
 8918      4C41595F 
 8918      494E5452 
 8918      4F44555A 
 8918      43415F56 
 8919              	.LASF241:
 8920 0978 54696D65 		.ascii	"Timer_Animacion_Stop\000"
 8920      725F416E 
 8920      696D6163 
 8920      696F6E5F 
 8920      53746F70 
 8921              	.LASF212:
 8922 098d 64617465 		.ascii	"dateDownHandle\000"
 8922      446F776E 
 8922      48616E64 
 8922      6C6500
ARM GAS  C:\Users\Diego\AppData\Local\Temp\cc9VkXHl.s 			page 192


 8923              	.LASF51:
 8924 099c 6C696365 		.ascii	"licenceSale\000"
 8924      6E636553 
 8924      616C6500 
 8925              	.LASF70:
 8926 09a8 70726963 		.ascii	"priceConsign\000"
 8926      65436F6E 
 8926      7369676E 
 8926      00
 8927              	.LASF2:
 8928 09b5 73686F72 		.ascii	"short int\000"
 8928      7420696E 
 8928      7400
 8929              	.LASF252:
 8930 09bf 696D7072 		.ascii	"imprimir\000"
 8930      696D6972 
 8930      00
 8931              	.LASF7:
 8932 09c8 6C6F6E67 		.ascii	"long int\000"
 8932      20696E74 
 8932      00
 8933              	.LASF211:
 8934 09d1 566F6C55 		.ascii	"VolUnit\000"
 8934      6E697400 
 8935              	.LASF167:
 8936 09d9 49544D5F 		.ascii	"ITM_RxBuffer\000"
 8936      52784275 
 8936      66666572 
 8936      00
 8937              	.LASF105:
 8938 09e6 44495350 		.ascii	"DISPLAY_TIEMPO_EXPIRADO\000"
 8938      4C41595F 
 8938      5449454D 
 8938      504F5F45 
 8938      58504952 
 8939              	.LASF132:
 8940 09fe 44495350 		.ascii	"DISPLAY_USUARIO_INVALIDO\000"
 8940      4C41595F 
 8940      55535541 
 8940      52494F5F 
 8940      494E5641 
 8941              	.LASF104:
 8942 0a17 44495350 		.ascii	"DISPLAY_NUEVO_PASSWORD\000"
 8942      4C41595F 
 8942      4E554556 
 8942      4F5F5041 
 8942      5353574F 
 8943              	.LASF124:
 8944 0a2e 44495350 		.ascii	"DISPLAY_CONFIGURAR_FECHA_HORA\000"
 8944      4C41595F 
 8944      434F4E46 
 8944      49475552 
 8944      41525F46 
 8945              	.LASF121:
 8946 0a4c 44495350 		.ascii	"DISPLAY_POR_FAVOR_ESPERE\000"
 8946      4C41595F 
 8946      504F525F 
ARM GAS  C:\Users\Diego\AppData\Local\Temp\cc9VkXHl.s 			page 193


 8946      4641564F 
 8946      525F4553 
 8947              	.LASF256:
 8948 0a65 6372635F 		.ascii	"crc_check\000"
 8948      63686563 
 8948      6B00
 8949              	.LASF173:
 8950 0a6f 666C6F77 		.ascii	"flowDisplay2\000"
 8950      44697370 
 8950      6C617932 
 8950      00
 8951              	.LASF259:
 8952 0a7c 44697370 		.ascii	"Display2_ClearRxBuffer\000"
 8952      6C617932 
 8952      5F436C65 
 8952      61725278 
 8952      42756666 
 8953              	.LASF174:
 8954 0a93 666C6F77 		.ascii	"flowDisplay3\000"
 8954      44697370 
 8954      6C617933 
 8954      00
 8955              	.LASF57:
 8956 0aa0 666C6167 		.ascii	"flagEndSale\000"
 8956      456E6453 
 8956      616C6500 
 8957              	.LASF111:
 8958 0aac 44495350 		.ascii	"DISPLAY_INTRODUZCA_CEDULA\000"
 8958      4C41595F 
 8958      494E5452 
 8958      4F44555A 
 8958      43415F43 
 8959              	.LASF117:
 8960 0ac6 44495350 		.ascii	"DISPLAY_IMPRIMIENDO_RECIBO\000"
 8960      4C41595F 
 8960      494D5052 
 8960      494D4945 
 8960      4E444F5F 
 8961              	.LASF43:
 8962 0ae1 64617465 		.ascii	"dateLiftHandle\000"
 8962      4C696674 
 8962      48616E64 
 8962      6C6500
 8963              	.LASF84:
 8964 0af0 686F7365 		.ascii	"hoseNumber\000"
 8964      4E756D62 
 8964      657200
 8965              	.LASF217:
 8966 0afb 62756666 		.ascii	"bufferDisplay2\000"
 8966      65724469 
 8966      73706C61 
 8966      793200
 8967              	.LASF218:
 8968 0b0a 62756666 		.ascii	"bufferDisplay3\000"
 8968      65724469 
 8968      73706C61 
 8968      793300
ARM GAS  C:\Users\Diego\AppData\Local\Temp\cc9VkXHl.s 			page 194


 8969              	.LASF107:
 8970 0b19 44495350 		.ascii	"DISPLAY_ID_DIGITAL\000"
 8970      4C41595F 
 8970      49445F44 
 8970      49474954 
 8970      414C00
 8971              	.LASF114:
 8972 0b2c 44495350 		.ascii	"DISPLAY_OPERACIONES\000"
 8972      4C41595F 
 8972      4F504552 
 8972      4143494F 
 8972      4E455300 
 8973              	.LASF3:
 8974 0b40 5F5F7569 		.ascii	"__uint8_t\000"
 8974      6E74385F 
 8974      7400
 8975              	.LASF195:
 8976 0b4a 70617373 		.ascii	"passwordSeller\000"
 8976      776F7264 
 8976      53656C6C 
 8976      657200
 8977              	.LASF49:
 8978 0b59 746F7461 		.ascii	"totalVolumeAfter\000"
 8978      6C566F6C 
 8978      756D6541 
 8978      66746572 
 8978      00
 8979              	.LASF200:
 8980 0b6a 556E6974 		.ascii	"UnitType\000"
 8980      54797065 
 8980      00
 8981              	.LASF20:
 8982 0b73 75696E74 		.ascii	"uint64\000"
 8982      363400
 8983              	.LASF163:
 8984 0b7a 616E696D 		.ascii	"animacion2\000"
 8984      6163696F 
 8984      6E3200
 8985              	.LASF181:
 8986 0b85 64656C61 		.ascii	"delayPicture1\000"
 8986      79506963 
 8986      74757265 
 8986      3100
 8987              	.LASF182:
 8988 0b93 64656C61 		.ascii	"delayPicture2\000"
 8988      79506963 
 8988      74757265 
 8988      3200
 8989              	.LASF42:
 8990 0ba1 73746174 		.ascii	"stateMux\000"
 8990      654D7578 
 8990      00
 8991              	.LASF25:
 8992 0baa 73697A65 		.ascii	"sizetype\000"
 8992      74797065 
 8992      00
 8993              	.LASF8:
ARM GAS  C:\Users\Diego\AppData\Local\Temp\cc9VkXHl.s 			page 195


 8994 0bb3 6C6F6E67 		.ascii	"long unsigned int\000"
 8994      20756E73 
 8994      69676E65 
 8994      6420696E 
 8994      7400
 8995              	.LASF98:
 8996 0bc5 44495350 		.ascii	"DISPLAY_BAJE_MANIJA\000"
 8996      4C41595F 
 8996      42414A45 
 8996      5F4D414E 
 8996      494A4100 
 8997              	.LASF204:
 8998 0bd9 50505544 		.ascii	"PPUDec\000"
 8998      656300
 8999              	.LASF82:
 9000 0be0 61637469 		.ascii	"activeHose\000"
 9000      7665486F 
 9000      736500
 9001              	.LASF260:
 9002 0beb 54696D65 		.ascii	"Timer_Animacion2_ReadStatusRegister\000"
 9002      725F416E 
 9002      696D6163 
 9002      696F6E32 
 9002      5F526561 
 9003              	.LASF69:
 9004 0c0f 666C6167 		.ascii	"flagProductmarket\000"
 9004      50726F64 
 9004      7563746D 
 9004      61726B65 
 9004      7400
 9005              	.LASF14:
 9006 0c21 696E7433 		.ascii	"int32_t\000"
 9006      325F7400 
 9007              	.LASF255:
 9008 0c29 746F7563 		.ascii	"touch_read_byte\000"
 9008      685F7265 
 9008      61645F62 
 9008      79746500 
 9009              	.LASF230:
 9010 0c39 53686F77 		.ascii	"ShowMessage\000"
 9010      4D657373 
 9010      61676500 
 9011              	.LASF65:
 9012 0c45 7175616E 		.ascii	"quantAvailableMark\000"
 9012      74417661 
 9012      696C6162 
 9012      6C654D61 
 9012      726B00
 9013              	.LASF23:
 9014 0c58 63797374 		.ascii	"cystatus\000"
 9014      61747573 
 9014      00
 9015              	.LASF130:
 9016 0c61 44495350 		.ascii	"DISPLAY_CANCELADO_X_PC\000"
 9016      4C41595F 
 9016      43414E43 
 9016      454C4144 
ARM GAS  C:\Users\Diego\AppData\Local\Temp\cc9VkXHl.s 			page 196


 9016      4F5F585F 
 9017              	.LASF29:
 9018 0c78 666C6167 		.ascii	"flagWayToPayMixed\000"
 9018      57617954 
 9018      6F506179 
 9018      4D697865 
 9018      6400
 9019              	.LASF1:
 9020 0c8a 756E7369 		.ascii	"unsigned char\000"
 9020      676E6564 
 9020      20636861 
 9020      7200
 9021              	.LASF131:
 9022 0c98 44495350 		.ascii	"DISPLAY_USUARIO_VALIDO\000"
 9022      4C41595F 
 9022      55535541 
 9022      52494F5F 
 9022      56414C49 
 9023              	.LASF235:
 9024 0caf 6765745F 		.ascii	"get_state\000"
 9024      73746174 
 9024      6500
 9025              	.LASF118:
 9026 0cb9 44495350 		.ascii	"DISPLAY_SELECCIONE_POSICION\000"
 9026      4C41595F 
 9026      53454C45 
 9026      4343494F 
 9026      4E455F50 
 9027              	.LASF263:
 9028 0cd5 474E5520 		.ascii	"GNU C 4.9.3 20150303 (release) [ARM/embedded-4_9-br"
 9028      4320342E 
 9028      392E3320 
 9028      32303135 
 9028      30333033 
 9029 0d08 616E6368 		.ascii	"anch revision 221220] -mcpu=cortex-m3 -mthumb -g -O"
 9029      20726576 
 9029      6973696F 
 9029      6E203232 
 9029      31323230 
 9030 0d3b 67202D66 		.ascii	"g -ffunction-sections -ffat-lto-objects\000"
 9030      66756E63 
 9030      74696F6E 
 9030      2D736563 
 9030      74696F6E 
 9031              	.LASF119:
 9032 0d63 44495350 		.ascii	"DISPLAY_OPERACION_CANCELADA\000"
 9032      4C41595F 
 9032      4F504552 
 9032      4143494F 
 9032      4E5F4341 
 9033              	.LASF34:
 9034 0d7f 61757468 		.ascii	"authorizationFlag\000"
 9034      6F72697A 
 9034      6174696F 
 9034      6E466C61 
 9034      6700
 9035              	.LASF66:
ARM GAS  C:\Users\Diego\AppData\Local\Temp\cc9VkXHl.s 			page 197


 9036 0d91 70726963 		.ascii	"priceTotalMarket\000"
 9036      65546F74 
 9036      616C4D61 
 9036      726B6574 
 9036      00
 9037              	.LASF127:
 9038 0da2 44495350 		.ascii	"DISPLAY_OPCION_TURNO\000"
 9038      4C41595F 
 9038      4F504349 
 9038      4F4E5F54 
 9038      55524E4F 
 9039              	.LASF246:
 9040 0db7 6973725F 		.ascii	"isr_3_StartEx\000"
 9040      335F5374 
 9040      61727445 
 9040      7800
 9041              	.LASF242:
 9042 0dc5 44697370 		.ascii	"Display1_GetRxBufferSize\000"
 9042      6C617931 
 9042      5F476574 
 9042      52784275 
 9042      66666572 
 9043              	.LASF85:
 9044 0dde 70756D70 		.ascii	"pump\000"
 9044      00
 9045              	.LASF129:
 9046 0de3 44495350 		.ascii	"DISPLAY_CERRAR_TURNO\000"
 9046      4C41595F 
 9046      43455252 
 9046      41525F54 
 9046      55524E4F 
 9047              	.LASF191:
 9048 0df8 74656D70 		.ascii	"temporal\000"
 9048      6F72616C 
 9048      00
 9049              	.LASF203:
 9050 0e01 566F6C44 		.ascii	"VolDec\000"
 9050      656300
 9051              	.LASF39:
 9052 0e08 70726573 		.ascii	"presetType\000"
 9052      65745479 
 9052      706500
 9053              	.LASF67:
 9054 0e13 70726963 		.ascii	"priceUnitMarket\000"
 9054      65556E69 
 9054      744D6172 
 9054      6B657400 
 9055              	.LASF108:
 9056 0e23 44495350 		.ascii	"DISPLAY_ID_NO_RECONOCIDO\000"
 9056      4C41595F 
 9056      49445F4E 
 9056      4F5F5245 
 9056      434F4E4F 
 9057              	.LASF194:
 9058 0e3c 74797065 		.ascii	"typeIdSeller\000"
 9058      49645365 
 9058      6C6C6572 
ARM GAS  C:\Users\Diego\AppData\Local\Temp\cc9VkXHl.s 			page 198


 9058      00
 9059              	.LASF79:
 9060 0e49 766F6C75 		.ascii	"volumeSale\000"
 9060      6D655361 
 9060      6C6500
 9061              	.LASF249:
 9062 0e54 50726573 		.ascii	"PresetData\000"
 9062      65744461 
 9062      746100
 9063              	.LASF137:
 9064 0e5f 44495350 		.ascii	"DISPLAY_DUMMY0\000"
 9064      4C41595F 
 9064      44554D4D 
 9064      593000
 9065              	.LASF138:
 9066 0e6e 44495350 		.ascii	"DISPLAY_DUMMY1\000"
 9066      4C41595F 
 9066      44554D4D 
 9066      593100
 9067              	.LASF139:
 9068 0e7d 44495350 		.ascii	"DISPLAY_DUMMY2\000"
 9068      4C41595F 
 9068      44554D4D 
 9068      593200
 9069              	.LASF140:
 9070 0e8c 44495350 		.ascii	"DISPLAY_DUMMY3\000"
 9070      4C41595F 
 9070      44554D4D 
 9070      593300
 9071              	.LASF0:
 9072 0e9b 7369676E 		.ascii	"signed char\000"
 9072      65642063 
 9072      68617200 
 9073              	.LASF94:
 9074 0ea7 44495350 		.ascii	"DISPLAY_SELECCIONE_PRODUCTO3\000"
 9074      4C41595F 
 9074      53454C45 
 9074      4343494F 
 9074      4E455F50 
 9075              	.LASF95:
 9076 0ec4 44495350 		.ascii	"DISPLAY_SELECCIONE_PRODUCTO4\000"
 9076      4C41595F 
 9076      53454C45 
 9076      4343494F 
 9076      4E455F50 
 9077              	.LASF214:
 9078 0ee1 636F756E 		.ascii	"count_protector\000"
 9078      745F7072 
 9078      6F746563 
 9078      746F7200 
 9079              	.LASF5:
 9080 0ef1 73686F72 		.ascii	"short unsigned int\000"
 9080      7420756E 
 9080      7369676E 
 9080      65642069 
 9080      6E7400
 9081              	.LASF171:
ARM GAS  C:\Users\Diego\AppData\Local\Temp\cc9VkXHl.s 			page 199


 9082 0f04 636F756E 		.ascii	"countPump\000"
 9082      7450756D 
 9082      7000
 9083              	.LASF144:
 9084 0f0e 53746F72 		.ascii	"StoreConfiguration\000"
 9084      65436F6E 
 9084      66696775 
 9084      72617469 
 9084      6F6E00
 9085              	.LASF266:
 9086 0f21 5F415641 		.ascii	"_AVAILABLE_DISPLAYS_\000"
 9086      494C4142 
 9086      4C455F44 
 9086      4953504C 
 9086      4159535F 
 9087              	.LASF164:
 9088 0f36 6D61696E 		.ascii	"main\000"
 9088      00
 9089              	.LASF165:
 9090 0f3b 44697370 		.ascii	"Display1_rxBuffer\000"
 9090      6C617931 
 9090      5F727842 
 9090      75666665 
 9090      7200
 9091              	.LASF86:
 9092 0f4d 44495350 		.ascii	"DISPLAY_ERROR\000"
 9092      4C41595F 
 9092      4552524F 
 9092      5200
 9093              	.LASF81:
 9094 0f5b 70726F64 		.ascii	"productSale\000"
 9094      75637453 
 9094      616C6500 
 9095              	.LASF251:
 9096 0f67 67657453 		.ascii	"getSale\000"
 9096      616C6500 
 9097              	.LASF116:
 9098 0f6f 44495350 		.ascii	"DISPLAY_COPIA_RECIBO\000"
 9098      4C41595F 
 9098      434F5049 
 9098      415F5245 
 9098      4349424F 
 9099              	.LASF15:
 9100 0f84 75696E74 		.ascii	"uint8\000"
 9100      3800
 9101              	.LASF19:
 9102 0f8a 646F7562 		.ascii	"double\000"
 9102      6C6500
 9103              	.LASF28:
 9104 0f91 77617954 		.ascii	"wayToPay\000"
 9104      6F506179 
 9104      00
 9105              	.LASF243:
 9106 0f9a 44697370 		.ascii	"Display1_ClearRxBuffer\000"
 9106      6C617931 
 9106      5F436C65 
 9106      61725278 
ARM GAS  C:\Users\Diego\AppData\Local\Temp\cc9VkXHl.s 			page 200


 9106      42756666 
 9107              	.LASF227:
 9108 0fb1 5072696E 		.ascii	"Printer_Start\000"
 9108      7465725F 
 9108      53746172 
 9108      7400
 9109              	.LASF44:
 9110 0fbf 74696D65 		.ascii	"timeLiftHandle\000"
 9110      4C696674 
 9110      48616E64 
 9110      6C6500
 9111              	.LASF106:
 9112 0fce 44495350 		.ascii	"DISPLAY_GRACIAS_VUELVA_PRONTO\000"
 9112      4C41595F 
 9112      47524143 
 9112      4941535F 
 9112      5655454C 
 9113              	.LASF77:
 9114 0fec 70707541 		.ascii	"ppuAuthorized\000"
 9114      7574686F 
 9114      72697A65 
 9114      6400
 9115              	.LASF32:
 9116 0ffa 73657269 		.ascii	"serialSelectedSale\000"
 9116      616C5365 
 9116      6C656374 
 9116      65645361 
 9116      6C6500
 9117              	.LASF226:
 9118 100d 52465F50 		.ascii	"RF_Physical_Start\000"
 9118      68797369 
 9118      63616C5F 
 9118      53746172 
 9118      7400
 9119              	.LASF75:
 9120 101f 706F7369 		.ascii	"position\000"
 9120      74696F6E 
 9120      00
 9121              	.LASF216:
 9122 1028 62756666 		.ascii	"bufferDisplay1\000"
 9122      65724469 
 9122      73706C61 
 9122      793100
 9123              	.LASF264:
 9124 1037 2E5C6D61 		.ascii	".\\main.c\000"
 9124      696E2E63 
 9124      00
 9125              	.LASF219:
 9126 1040 62756666 		.ascii	"bufferDisplay4\000"
 9126      65724469 
 9126      73706C61 
 9126      793400
 9127              		.ident	"GCC: (GNU Tools for ARM Embedded Processors) 4.9.3 20150303 (release) [ARM/embedded-4_9-br
