ARM GAS  C:\Users\RECEPC~1\AppData\Local\Temp\ccp152bc.s 			page 1


   1              		.syntax unified
   2              		.cpu cortex-m3
   3              		.fpu softvfp
   4              		.eabi_attribute 20, 1
   5              		.eabi_attribute 21, 1
   6              		.eabi_attribute 23, 3
   7              		.eabi_attribute 24, 1
   8              		.eabi_attribute 25, 1
   9              		.eabi_attribute 26, 1
  10              		.eabi_attribute 30, 1
  11              		.eabi_attribute 34, 1
  12              		.eabi_attribute 18, 4
  13              		.thumb
  14              		.file	"main.c"
  15              		.text
  16              	.Ltext0:
  17              		.cfi_sections	.debug_frame
  18              		.section	.text.animacion,"ax",%progbits
  19              		.align	2
  20              		.global	animacion
  21              		.thumb
  22              		.thumb_func
  23              		.type	animacion, %function
  24              	animacion:
  25              	.LFB73:
  26              		.file 1 ".\\main.c"
   1:.\main.c      **** /* ========================================
   2:.\main.c      ****  *
   3:.\main.c      ****  * Copyright YOUR COMPANY, THE YEAR
   4:.\main.c      ****  * All Rights Reserved
   5:.\main.c      ****  * UNPUBLISHED, LICENSED SOFTWARE.
   6:.\main.c      ****  *
   7:.\main.c      ****  * CONFIDENTIAL AND PROPRIETARY INFORMATION
   8:.\main.c      ****  * WHICH IS THE PROPERTY OF your company.
   9:.\main.c      ****  *
  10:.\main.c      ****  * ========================================
  11:.\main.c      **** */
  12:.\main.c      **** #include <project.h>
  13:.\main.c      **** #include <protocol.h>
  14:.\main.c      **** #include <variables.h>
  15:.\main.c      **** #include <keyboard.h>
  16:.\main.c      **** #include <ibutton.h>
  17:.\main.c      **** #include <RFPoll.h>
  18:.\main.c      **** #include <LCD.h>
  19:.\main.c      **** #include <I2C.h>
  20:.\main.c      **** #include <Print.h>
  21:.\main.c      **** #include <device.h>
  22:.\main.c      **** #include <string.h>
  23:.\main.c      **** #include <stdio.h>
  24:.\main.c      **** #include <stdlib.h>
  25:.\main.c      **** 
  26:.\main.c      **** /**********************************/
  27:.\main.c      **** 
  28:.\main.c      **** uint8 MuxVersion [10] = "MUX V. 1.0";
  29:.\main.c      **** uint8 passwordPump[5] = "00204";  
  30:.\main.c      **** 
  31:.\main.c      **** 
ARM GAS  C:\Users\RECEPC~1\AppData\Local\Temp\ccp152bc.s 			page 2


  32:.\main.c      ****       
  33:.\main.c      **** CY_ISR(animacion2);
  34:.\main.c      **** CY_ISR(animacion);
  35:.\main.c      **** //CY_ISR(timerPump);
  36:.\main.c      **** //CY_ISR(timerRFRX);
  37:.\main.c      **** //CY_ISR(pollingRF_Tx);
  38:.\main.c      **** void GlobalInitializer()
  39:.\main.c      **** {
  40:.\main.c      ****     EEPROM_1_Start();
  41:.\main.c      ****     Pump_Start(); 
  42:.\main.c      ****     Display1_Start();
  43:.\main.c      ****     Display2_Start();    
  44:.\main.c      ****     Printer_Start();   
  45:.\main.c      ****     I2C_Bus_Start();
  46:.\main.c      ****     RF_Connection_Start();
  47:.\main.c      ****     //isr_1_StartEx(timerRFRX); 
  48:.\main.c      ****     Waitable_3_Start();
  49:.\main.c      ****     //isr_2_StartEx(timerPump); 
  50:.\main.c      ****     Waitable_4_Start();
  51:.\main.c      ****     //isr_6_StartEx(pollingRF_Tx);
  52:.\main.c      **** }
  53:.\main.c      **** void StoreConfiguration(){
  54:.\main.c      ****     EEPROM_1_WriteByte(UnitType,0);
  55:.\main.c      ****     EEPROM_1_WriteByte(ConversionFactor,1);
  56:.\main.c      ****     EEPROM_1_WriteByte(MoneyDec,2);
  57:.\main.c      ****     EEPROM_1_WriteByte(VolDec,3);
  58:.\main.c      ****     EEPROM_1_WriteByte(PPUDec,4);
  59:.\main.c      ****     EEPROM_1_WriteByte(DDMode,5);
  60:.\main.c      ****     EEPROM_1_WriteByte(digits,6); 
  61:.\main.c      ****     EEPROM_1_WriteByte(side.a.dir,12);
  62:.\main.c      ****     EEPROM_1_WriteByte(side.b.dir,13);
  63:.\main.c      ****     EEPROM_1_WriteByte(side.c.dir,14);
  64:.\main.c      ****     EEPROM_1_WriteByte(side.d.dir,15);
  65:.\main.c      **** }
  66:.\main.c      **** void loadConfiguration(){
  67:.\main.c      ****     //uint8 x;
  68:.\main.c      ****     MoneyDec   = EEPROM_1_ReadByte(2);
  69:.\main.c      ****     VolDec     = EEPROM_1_ReadByte(3);
  70:.\main.c      ****     PPUDec     = EEPROM_1_ReadByte(4);
  71:.\main.c      ****     DDMode     = EEPROM_1_ReadByte(5);
  72:.\main.c      ****     digits     = EEPROM_1_ReadByte(6);
  73:.\main.c      ****     lockTurn   = EEPROM_1_ReadByte(7);  //Fijo turno abierto para pruebas
  74:.\main.c      ****     printPortA = EEPROM_1_ReadByte(8);  //Puertos de impresion
  75:.\main.c      ****     printPortB = EEPROM_1_ReadByte(9); //Puertos de impresion
  76:.\main.c      ****     IDCast[0]  = EEPROM_1_ReadByte(10); //ID Estacion1
  77:.\main.c      ****     IDCast[1]  = EEPROM_1_ReadByte(11); //ID Estacion2    
  78:.\main.c      ****     passwordPump[0] = 0x04;
  79:.\main.c      ****     configAccess[0] = 0x04; 
  80:.\main.c      ****     side.a.dir = EEPROM_1_ReadByte(12);
  81:.\main.c      ****     side.b.dir = EEPROM_1_ReadByte(13);
  82:.\main.c      ****     side.c.dir = EEPROM_1_ReadByte(14);
  83:.\main.c      ****     side.d.dir = EEPROM_1_ReadByte(15);
  84:.\main.c      **** //    for(x=0; x<30;x++){
  85:.\main.c      **** //        Encabezado1[x]=EEPROM_1_ReadByte(16+x);
  86:.\main.c      **** //    }
  87:.\main.c      **** //    for(x=30; x<60;x++){
  88:.\main.c      **** //        Encabezado2[x]=EEPROM_1_ReadByte(16+x);
ARM GAS  C:\Users\RECEPC~1\AppData\Local\Temp\ccp152bc.s 			page 3


  89:.\main.c      **** //    }
  90:.\main.c      **** //    for(x=60; x<90;x++){
  91:.\main.c      **** //        Encabezado3[x]=EEPROM_1_ReadByte(16+x);
  92:.\main.c      **** //    }
  93:.\main.c      **** //    for(x=90; x<120;x++){
  94:.\main.c      **** //        Encabezado4[x]=EEPROM_1_ReadByte(16+x);
  95:.\main.c      **** //    }
  96:.\main.c      **** }
  97:.\main.c      **** 
  98:.\main.c      **** 
  99:.\main.c      **** /*
 100:.\main.c      **** ***************************************************************************************************
 101:.\main.c      **** *                                         void InitDisplay1(void)
 102:.\main.c      **** *
 103:.\main.c      **** * Description : Pregunta configuraciones al dispensador 
 104:.\main.c      **** *               
 105:.\main.c      **** *
 106:.\main.c      **** ***************************************************************************************************
 107:.\main.c      **** */
 108:.\main.c      **** void InitDisplay1(){      
 109:.\main.c      ****     uint8_t iniText[10]="Iniciando"; 
 110:.\main.c      ****     uint8_t Unit[10] = "S/D/Dupla ";
 111:.\main.c      ****     uint8_t Unit2[10] = "Quadrupla";
 112:.\main.c      ****     uint8_t Unit3[10] = "Sextupla";
 113:.\main.c      ****     uint8_t Unit4[10] = "Octupla";
 114:.\main.c      ****     uint8_t DisplayMode0[10] = "5-5-4     ";
 115:.\main.c      ****     uint8_t DisplayMode[10] = "6-6-4     ";
 116:.\main.c      ****     uint8_t DisplayMode2[10] = "7-7-5     ";
 117:.\main.c      ****     uint8_t DisplayMode3[10] = "8-7-5     ";
 118:.\main.c      ****     if(NumPositions == 2){
 119:.\main.c      ****         SetPicture(1,DISPLAY_INICIO0);         
 120:.\main.c      ****         ShowMessage(1,iniText,0);    
 121:.\main.c      ****         CyDelay(300);
 122:.\main.c      ****         if(UnitType == 0){
 123:.\main.c      ****             side.a.hoseNumber = UnitType+1;
 124:.\main.c      ****             side.b.hoseNumber = UnitType+1;
 125:.\main.c      ****             ShowMessage(1,Unit,0);  //Mostrar tipo de dispensador      
 126:.\main.c      ****         }
 127:.\main.c      ****         if(UnitType == 1){
 128:.\main.c      ****             side.a.hoseNumber = UnitType+1;
 129:.\main.c      ****             side.b.hoseNumber = UnitType+1;
 130:.\main.c      ****             ShowMessage(1,Unit2,0);
 131:.\main.c      ****         }
 132:.\main.c      ****         if(UnitType == 2){
 133:.\main.c      ****             side.a.hoseNumber = UnitType+1;
 134:.\main.c      ****             side.b.hoseNumber = UnitType+1;
 135:.\main.c      ****             ShowMessage(1,Unit3,0);
 136:.\main.c      ****         }
 137:.\main.c      ****         if(UnitType == 3){
 138:.\main.c      ****             side.a.hoseNumber = UnitType+1;
 139:.\main.c      ****             side.b.hoseNumber = UnitType+1;
 140:.\main.c      ****             ShowMessage(1,Unit4,0);
 141:.\main.c      ****         } 
 142:.\main.c      ****         if(DDMode == 0){
 143:.\main.c      ****             ShowMessage(1,DisplayMode0,22); //Mostrar modo de display
 144:.\main.c      ****             digits = 5;
 145:.\main.c      ****         }
ARM GAS  C:\Users\RECEPC~1\AppData\Local\Temp\ccp152bc.s 			page 4


 146:.\main.c      ****         if(DDMode == 1){
 147:.\main.c      ****             ShowMessage(1,DisplayMode,22); //Mostrar modo de display
 148:.\main.c      ****             digits = 6;
 149:.\main.c      ****         }
 150:.\main.c      ****         if(DDMode == 2){
 151:.\main.c      ****            ShowMessage(1,DisplayMode2,22);
 152:.\main.c      ****             digits = 7;
 153:.\main.c      ****         }
 154:.\main.c      ****         if(DDMode == 3){
 155:.\main.c      ****             ShowMessage(1,DisplayMode3,22);
 156:.\main.c      ****             digits = 8;
 157:.\main.c      ****         }        
 158:.\main.c      ****     }
 159:.\main.c      ****     if(NumPositions == 4){
 160:.\main.c      ****         SetPicture(1,DISPLAY_SELECCIONE_POSICION);        
 161:.\main.c      ****         ShowMessage(1,iniText,0);    
 162:.\main.c      ****         CyDelay(300);
 163:.\main.c      ****         if(UnitType == 0){
 164:.\main.c      ****             side.a.hoseNumber = UnitType+1;
 165:.\main.c      ****             side.b.hoseNumber = UnitType+1;
 166:.\main.c      ****             side.c.hoseNumber = UnitType+1;
 167:.\main.c      ****             side.d.hoseNumber = UnitType+1;
 168:.\main.c      ****             ShowMessage(1,Unit,0);  //Mostrar tipo de dispensador      
 169:.\main.c      ****         }
 170:.\main.c      ****         if(UnitType == 1){
 171:.\main.c      ****             side.a.hoseNumber = UnitType+1;
 172:.\main.c      ****             side.b.hoseNumber = UnitType+1;
 173:.\main.c      ****             side.c.hoseNumber = UnitType+1;
 174:.\main.c      ****             side.d.hoseNumber = UnitType+1;
 175:.\main.c      ****             ShowMessage(1,Unit2,0);
 176:.\main.c      ****         }
 177:.\main.c      ****         if(UnitType == 2){
 178:.\main.c      ****             side.a.hoseNumber = UnitType+1;
 179:.\main.c      ****             side.b.hoseNumber = UnitType+1;
 180:.\main.c      ****             side.c.hoseNumber = UnitType+1;
 181:.\main.c      ****             side.d.hoseNumber = UnitType+1;
 182:.\main.c      ****            ShowMessage(1,Unit3,0);
 183:.\main.c      ****         }
 184:.\main.c      ****         if(UnitType == 3){
 185:.\main.c      ****             side.a.hoseNumber = UnitType+1;
 186:.\main.c      ****             side.b.hoseNumber = UnitType+1;
 187:.\main.c      ****             side.c.hoseNumber = UnitType+1;
 188:.\main.c      ****             side.d.hoseNumber = UnitType+1;
 189:.\main.c      ****             ShowMessage(1,Unit4,0);
 190:.\main.c      ****         }    
 191:.\main.c      ****         if(DDMode == 1){
 192:.\main.c      ****             ShowMessage(1,DisplayMode,22); //Mostrar modo de display
 193:.\main.c      ****         }
 194:.\main.c      ****         if(DDMode == 2){
 195:.\main.c      ****            ShowMessage(1,DisplayMode2,22);
 196:.\main.c      ****         }
 197:.\main.c      ****     }        
 198:.\main.c      ****     if(NumPositions < 2){
 199:.\main.c      ****         SetPicture(1,DISPLAY_ERROR);        
 200:.\main.c      ****     }         
 201:.\main.c      **** }
 202:.\main.c      **** 
ARM GAS  C:\Users\RECEPC~1\AppData\Local\Temp\ccp152bc.s 			page 5


 203:.\main.c      **** /*
 204:.\main.c      **** ***************************************************************************************************
 205:.\main.c      **** *                                         void InitDisplay1(void)
 206:.\main.c      **** *
 207:.\main.c      **** * Description : Pregunta configuraciones al dispensador 
 208:.\main.c      **** *               
 209:.\main.c      **** *
 210:.\main.c      **** ***************************************************************************************************
 211:.\main.c      **** */
 212:.\main.c      **** void InitDisplay2(){      
 213:.\main.c      ****     if(NumPositions == 2){        
 214:.\main.c      ****         SetPicture(2,DISPLAY_INICIO0);  
 215:.\main.c      ****         flowDisplay2 = 0;
 216:.\main.c      ****     }
 217:.\main.c      ****     if(NumPositions == 4){
 218:.\main.c      ****         SetPicture(2,DISPLAY_SELECCIONE_POSICION);         
 219:.\main.c      ****     }        
 220:.\main.c      ****     if(NumPositions < 2){        
 221:.\main.c      ****         SetPicture(2,DISPLAY_ERROR);
 222:.\main.c      ****     }     
 223:.\main.c      ****     ShowMessage(2,MuxVersion,0);
 224:.\main.c      **** }
 225:.\main.c      **** 
 226:.\main.c      **** /*
 227:.\main.c      **** ***************************************************************************************************
 228:.\main.c      **** *                                         void InitPump(void)
 229:.\main.c      **** *
 230:.\main.c      **** * Description : Pregunta configuraciones al dispensador 
 231:.\main.c      **** *               
 232:.\main.c      **** *
 233:.\main.c      **** ***************************************************************************************************
 234:.\main.c      **** */
 235:.\main.c      **** void InitPump(){        
 236:.\main.c      ****     NumPositions = get_position();
 237:.\main.c      ****     if(NumPositions > 0){
 238:.\main.c      ****         if(!PumpIsInValidState(get_state(side.a.dir))){
 239:.\main.c      ****             SetPicture(1,DISPLAY_ERROR);
 240:.\main.c      ****             SetPicture(2,DISPLAY_ERROR);
 241:.\main.c      ****             NumPositions = 0;
 242:.\main.c      ****         }
 243:.\main.c      ****         if(!PumpIsInValidState(get_state(side.b.dir))){
 244:.\main.c      ****             SetPicture(1,DISPLAY_ERROR);
 245:.\main.c      ****             SetPicture(2,DISPLAY_ERROR);
 246:.\main.c      ****             NumPositions = 0;
 247:.\main.c      ****         }
 248:.\main.c      ****         if(PumpIsInValidState(get_state(side.a.dir)) && PumpIsInValidState(get_state(side.b.dir))){
 249:.\main.c      ****             NumPositions = get_position();
 250:.\main.c      ****             if(get_state(side.a.dir) ==0x06 && get_state(side.b.dir)==0x06){
 251:.\main.c      ****                 PumpCompleteConfiguration(side.a.dir);
 252:.\main.c      ****                 StoreConfiguration();            
 253:.\main.c      ****             }else{
 254:.\main.c      ****                 SetPicture(1,DISPLAY_BAJE_MANIJA);
 255:.\main.c      ****                 SetPicture(2,DISPLAY_BAJE_MANIJA);
 256:.\main.c      ****                 InitPump();                
 257:.\main.c      ****             }
 258:.\main.c      ****         }        
 259:.\main.c      ****     }
ARM GAS  C:\Users\RECEPC~1\AppData\Local\Temp\ccp152bc.s 			page 6


 260:.\main.c      ****     
 261:.\main.c      **** }
 262:.\main.c      **** /*
 263:.\main.c      **** ***************************************************************************************************
 264:.\main.c      **** *                                         void PrintTest(void)
 265:.\main.c      **** *
 266:.\main.c      **** * Description : Pregunta configuraciones al dispensador 
 267:.\main.c      **** *               
 268:.\main.c      **** *
 269:.\main.c      **** ***************************************************************************************************
 270:.\main.c      **** */
 271:.\main.c      **** void PrintTest(){
 272:.\main.c      ****     uint8 datoA[26]="Test de Impresion Puerto 1";
 273:.\main.c      ****     uint8 datoB[26]="Test de Impresion Puerto 2";
 274:.\main.c      ****     uint8 x;
 275:.\main.c      ****     for(x = 0; x<26;x++){
 276:.\main.c      ****         write_psoc1(1,datoA[x]);
 277:.\main.c      ****     }
 278:.\main.c      ****     write_psoc1(1,10);
 279:.\main.c      ****     write_psoc1(1,10);
 280:.\main.c      ****     write_psoc1(1,10);
 281:.\main.c      ****     write_psoc1(1,10);
 282:.\main.c      ****     write_psoc1(1,10);
 283:.\main.c      ****     write_psoc1(1,10);
 284:.\main.c      ****     for(x = 0; x<26;x++){
 285:.\main.c      ****         write_psoc1(2,datoB[x]);
 286:.\main.c      ****     }
 287:.\main.c      ****     write_psoc1(2,10);
 288:.\main.c      ****     write_psoc1(2,10);
 289:.\main.c      ****     write_psoc1(2,10);
 290:.\main.c      ****     write_psoc1(2,10);
 291:.\main.c      ****     write_psoc1(2,10);
 292:.\main.c      ****     write_psoc1(2,10);
 293:.\main.c      **** }
 294:.\main.c      **** 
 295:.\main.c      **** /*
 296:.\main.c      **** ***************************************************************************************************
 297:.\main.c      **** *                                         void polling_Pump(void)
 298:.\main.c      **** *
 299:.\main.c      **** * Description : Pregunta estado al surtidor 
 300:.\main.c      **** *               
 301:.\main.c      **** *
 302:.\main.c      **** ***************************************************************************************************
 303:.\main.c      **** */
 304:.\main.c      **** 
 305:.\main.c      **** void PollingPump(void){
 306:.\main.c      ****     uint8 x;
 307:.\main.c      ****     if(countPump>8){
 308:.\main.c      ****         if(flowDisplay1 == 0){
 309:.\main.c      ****             if(PumpIsInValidState(get_state(side.a.dir)) && PumpIsInValidState(get_state(side.b.dir
 310:.\main.c      ****                 for(x= 0; x < 4; x++){
 311:.\main.c      ****                     PrevStatePump[x] = statePump[x];
 312:.\main.c      ****                 }
 313:.\main.c      ****             }
 314:.\main.c      ****             if (NumPositions == 2){
 315:.\main.c      ****                 statePump[0] = get_state(side.a.dir);                 
 316:.\main.c      ****                 statePump[1] = get_state(side.b.dir);          
ARM GAS  C:\Users\RECEPC~1\AppData\Local\Temp\ccp152bc.s 			page 7


 317:.\main.c      ****             }
 318:.\main.c      ****             if (NumPositions == 4 ){
 319:.\main.c      ****                 statePump[0] = get_state(side.a.dir);               
 320:.\main.c      ****                 statePump[1] = get_state(side.b.dir);          
 321:.\main.c      ****                 statePump[2] = get_state(side.c.dir);        
 322:.\main.c      ****                 statePump[3] = get_state(side.d.dir);        
 323:.\main.c      ****             }
 324:.\main.c      ****             if (NumPositions == 0){
 325:.\main.c      ****                 InitPump();
 326:.\main.c      ****             }
 327:.\main.c      ****             if(!PumpIsInValidState(get_state(side.a.dir))){
 328:.\main.c      ****                 SetPicture(1,DISPLAY_ERROR);
 329:.\main.c      ****                 SetPicture(2,DISPLAY_ERROR);
 330:.\main.c      ****                 NumPositions = 0;
 331:.\main.c      ****                 flowDisplay1 = 0;
 332:.\main.c      ****                 flowDisplay2 = 0;
 333:.\main.c      ****             }
 334:.\main.c      ****             if(!PumpIsInValidState(get_state(side.b.dir))){
 335:.\main.c      ****                 SetPicture(1,DISPLAY_ERROR);
 336:.\main.c      ****                 SetPicture(2,DISPLAY_ERROR);
 337:.\main.c      ****                 NumPositions = 0;
 338:.\main.c      ****                 flowDisplay1 = 0;
 339:.\main.c      ****                 flowDisplay2 = 0;
 340:.\main.c      ****             }
 341:.\main.c      ****         }
 342:.\main.c      ****         if(ActiveRF == 0 && flowDisplay1 == 0){
 343:.\main.c      ****             if(get_state(side.a.dir)== PUMP_IDLE)
 344:.\main.c      ****                 getTotals(side.a.dir);
 345:.\main.c      ****             if(get_state(side.b.dir)== PUMP_IDLE)
 346:.\main.c      ****                 getTotals(side.b.dir);
 347:.\main.c      ****         }        
 348:.\main.c      ****         countPump=0;
 349:.\main.c      ****     }
 350:.\main.c      **** }
 351:.\main.c      **** /*
 352:.\main.c      **** ***************************************************************************************************
 353:.\main.c      **** *                                         void polling_Pump(void)
 354:.\main.c      **** *
 355:.\main.c      **** * Description : Pregunta estado al surtidor 
 356:.\main.c      **** *               
 357:.\main.c      **** *
 358:.\main.c      **** ***************************************************************************************************
 359:.\main.c      **** */
 360:.\main.c      **** 
 361:.\main.c      **** void PollingDisplay1(void){
 362:.\main.c      ****     //if(countLCD >10){
 363:.\main.c      ****     uint8 x,y;     
 364:.\main.c      ****     switch(flowDisplay1){
 365:.\main.c      ****         case 0:
 366:.\main.c      ****             InitDisplay1();
 367:.\main.c      ****             flowDisplay1 =1;
 368:.\main.c      ****             isr_3_Stop(); 
 369:.\main.c      ****             Timer_Animacion_Stop();
 370:.\main.c      ****             count_protector = 0;
 371:.\main.c      ****             bufferDisplay1.saleType = 0;
 372:.\main.c      ****             bufferDisplay1.flagEndSale = false;  
 373:.\main.c      ****             side.a.RFstateReport = 0;
ARM GAS  C:\Users\RECEPC~1\AppData\Local\Temp\ccp152bc.s 			page 8


 374:.\main.c      ****         break;
 375:.\main.c      ****         case 1: //Menu
 376:.\main.c      ****             side.a.rfState = RF_IDLE;
 377:.\main.c      ****             if(Display1_GetRxBufferSize()==8){
 378:.\main.c      ****                 if((Display1_rxBuffer[0]==0xAA) && (Display1_rxBuffer[6]==0xC3) && (Display1_rxBuff
 379:.\main.c      ****                     flowDisplay1 = 2;      //Pantalla forma de pago                      
 380:.\main.c      ****                     SetPicture(1,DISPLAY_FORMA_PAGO_DESEADA);                                      
 381:.\main.c      ****                 }  
 382:.\main.c      ****                 CyDelay(10);         
 383:.\main.c      ****                 Display1_ClearRxBuffer();
 384:.\main.c      ****             }
 385:.\main.c      ****         break;
 386:.\main.c      ****         case 2:
 387:.\main.c      ****             if(Display1_GetRxBufferSize()==8){
 388:.\main.c      ****                 if((Display1_rxBuffer[0]==0xAA) && (Display1_rxBuffer[6]==0xC3) && (Display1_rxBuff
 389:.\main.c      ****                     switch(Display1_rxBuffer[3]){
 390:.\main.c      ****                         case 0x0D:  //Pantalla efectivo              
 391:.\main.c      ****                             flowDisplay1 = 3; 
 392:.\main.c      ****                             bufferDisplay1.saleType = 1;
 393:.\main.c      ****                             SetPicture(1,DISPLAY_FORMA_PROGRAMACION);                            
 394:.\main.c      ****                         break;
 395:.\main.c      ****                         case 0x0E:  //Pantalla credito  
 396:.\main.c      ****                             flowDisplay1 = 10;
 397:.\main.c      ****                             bufferDisplay1.saleType = 2;
 398:.\main.c      ****                             count_protector = 0;
 399:.\main.c      ****                             SetPicture(1,DISPLAY_ID_DIGITAL);                            
 400:.\main.c      ****                         break;
 401:.\main.c      ****                         case 0x45:  //Pantalla otras opciones 
 402:.\main.c      ****                             flowDisplay1 = 12;                            
 403:.\main.c      ****                             SetPicture(1,DISPLAY_OPERACIONES);                            
 404:.\main.c      ****                         break;
 405:.\main.c      ****                             
 406:.\main.c      ****                         case 0x94:  //Pantalla Inicial    
 407:.\main.c      ****                             flowDisplay1 = 0;
 408:.\main.c      ****                             SetPicture(1,DISPLAY_INICIO0);                            
 409:.\main.c      ****                         break;
 410:.\main.c      ****                         
 411:.\main.c      ****                         case 0x7E:  //Pantalla Inicial    
 412:.\main.c      ****                             flowDisplay1 = 0;
 413:.\main.c      ****                             SetPicture(1,DISPLAY_INICIO0);                            
 414:.\main.c      ****                         break;
 415:.\main.c      ****                     }
 416:.\main.c      ****                 }  
 417:.\main.c      ****                 CyDelay(10);         
 418:.\main.c      ****                 Display1_ClearRxBuffer();
 419:.\main.c      ****             }
 420:.\main.c      ****         break;
 421:.\main.c      ****             
 422:.\main.c      ****         case 3: 
 423:.\main.c      ****             if(Display1_GetRxBufferSize()==8){
 424:.\main.c      ****                 if((Display1_rxBuffer[0]==0xAA) && (Display1_rxBuffer[6]==0xC3) && (Display1_rxBuff
 425:.\main.c      ****                     switch(Display1_rxBuffer[3]){
 426:.\main.c      ****                         case 0x0F:  //Preset dinero                
 427:.\main.c      ****                             flowDisplay1 = 4;                              
 428:.\main.c      ****                             bufferDisplay1.presetType[0]=2;
 429:.\main.c      ****                             bufferDisplay1.presetType[1]='D';
 430:.\main.c      ****                             numberKeys1=0;
ARM GAS  C:\Users\RECEPC~1\AppData\Local\Temp\ccp152bc.s 			page 9


 431:.\main.c      ****                             SetPicture(1,DISPLAY_INTRODUZCA_VALOR);   
 432:.\main.c      ****                             WriteLCD(1,'$',3,2,1,0x0000,'N');
 433:.\main.c      ****                         break; 
 434:.\main.c      ****                         case 0x10:  //Preset volumen                 
 435:.\main.c      ****                             flowDisplay1 = 4;                            
 436:.\main.c      ****                             bufferDisplay1.presetType[0]=1;
 437:.\main.c      ****                             bufferDisplay1.presetType[1]='V';
 438:.\main.c      ****                             numberKeys1=0;                            
 439:.\main.c      ****                             SetPicture(1,DISPLAY_INTRODUZCA_VOLUMEN);                            
 440:.\main.c      ****                             WriteLCD(1,'V',3,2,1,0x0000,'N');                            
 441:.\main.c      ****                         break;
 442:.\main.c      ****                         case 0x43:  //Preset full 
 443:.\main.c      ****                             bufferDisplay1.presetType[0]=2;
 444:.\main.c      ****                             bufferDisplay1.presetType[1]='F';
 445:.\main.c      ****                             for(x=1;x<(digits-1);x++){
 446:.\main.c      ****                                 bufferDisplay1.presetValue[0][x]='9';
 447:.\main.c      ****                             }
 448:.\main.c      ****                             bufferDisplay1.presetValue[0][x]='0';
 449:.\main.c      ****                             bufferDisplay1.presetValue[0][x+1]='0';
 450:.\main.c      ****                             bufferDisplay1.presetValue[0][0]=digits;
 451:.\main.c      ****                             for(x=0;x<=bufferDisplay1.presetValue[0][0];x++){
 452:.\main.c      ****                                 bufferDisplay1.presetValue[1][x]=bufferDisplay1.presetValue[0][x];
 453:.\main.c      ****                             }
 454:.\main.c      ****                             flowDisplay1 = 5;
 455:.\main.c      ****                             SetPicture(1,DISPLAY_SELECCIONE_PRODUCTO4);                          
 456:.\main.c      ****                         break;
 457:.\main.c      ****                         case 0x94:  //Retroceso 
 458:.\main.c      ****                             flowDisplay1 = 0;
 459:.\main.c      ****                             SetPicture(1,DISPLAY_INICIO0);                                         
 460:.\main.c      ****                         break;
 461:.\main.c      ****                         case 0x3B:  //Pantalla Inicial    
 462:.\main.c      ****                             flowDisplay1 = 0;
 463:.\main.c      ****                             SetPicture(1,DISPLAY_INICIO0);                            
 464:.\main.c      ****                         break;
 465:.\main.c      ****                         case 0x7E:  //Pantalla Inicial    
 466:.\main.c      ****                             flowDisplay1 = 0;
 467:.\main.c      ****                             SetPicture(1,DISPLAY_INICIO0);                            
 468:.\main.c      ****                         break;
 469:.\main.c      ****                     }
 470:.\main.c      ****                 }  
 471:.\main.c      ****                 CyDelay(10);         
 472:.\main.c      ****                 Display1_ClearRxBuffer();
 473:.\main.c      ****             }
 474:.\main.c      ****         break;
 475:.\main.c      ****         
 476:.\main.c      ****         case 4:            
 477:.\main.c      ****             switch (alphanumeric_keyboard(1,digits,0)){
 478:.\main.c      ****                 case 0:  //Pantalla Inicial    
 479:.\main.c      ****                     flowDisplay1 = 0;
 480:.\main.c      ****                     SetPicture(1,DISPLAY_INICIO0);                            
 481:.\main.c      ****                 break;
 482:.\main.c      ****                     
 483:.\main.c      ****                 case 1: //Enter
 484:.\main.c      ****                     for(x=0;x<=bufferDisplay1.valueKeys[0];x++){
 485:.\main.c      ****                         bufferDisplay1.presetValue[0][x]=bufferDisplay1.valueKeys[x];
 486:.\main.c      ****                         bufferDisplay1.presetValue[1][x]=bufferDisplay1.valueKeys[x];
 487:.\main.c      ****                     }  
ARM GAS  C:\Users\RECEPC~1\AppData\Local\Temp\ccp152bc.s 			page 10


 488:.\main.c      ****                     flowDisplay1 = 5;//caso para seleccion de producto
 489:.\main.c      ****                     SetPicture(1,DISPLAY_SELECCIONE_PRODUCTO4);
 490:.\main.c      ****                 break;
 491:.\main.c      ****             }
 492:.\main.c      ****         break;
 493:.\main.c      ****             
 494:.\main.c      ****         case 5:
 495:.\main.c      ****             if(Display1_GetRxBufferSize()==8){
 496:.\main.c      ****                 if((Display1_rxBuffer[0]==0xAA) && (Display1_rxBuffer[6]==0xC3) && (Display1_rxBuff
 497:.\main.c      ****                     switch(Display1_rxBuffer[3]){
 498:.\main.c      ****                         case 0x80:  //Grado 1 
 499:.\main.c      ****                             flowDisplay1 = 6;
 500:.\main.c      ****                             side.a.hose = 1;
 501:.\main.c      ****                             SetPicture(1,DISPLAY_DESEA_IMPRIMIR_RECIBO);                           
 502:.\main.c      ****                         break;
 503:.\main.c      ****                             
 504:.\main.c      ****                         case 0x81:  //Grado 2 
 505:.\main.c      ****                             flowDisplay1 = 6;
 506:.\main.c      ****                             side.a.hose = 2;
 507:.\main.c      ****                             SetPicture(1,DISPLAY_DESEA_IMPRIMIR_RECIBO);                           
 508:.\main.c      ****                         break;
 509:.\main.c      ****                             
 510:.\main.c      ****                         case 0x7F:  //Grado 3
 511:.\main.c      ****                             flowDisplay1 = 6;
 512:.\main.c      ****                             side.a.hose = 3;
 513:.\main.c      ****                             SetPicture(1,DISPLAY_DESEA_IMPRIMIR_RECIBO);                           
 514:.\main.c      ****                         break;   
 515:.\main.c      ****                         
 516:.\main.c      ****                         case 0xB8:  //Grado 4 
 517:.\main.c      ****                             flowDisplay1 = 6;
 518:.\main.c      ****                             side.a.hose = 4;
 519:.\main.c      ****                             SetPicture(1,DISPLAY_DESEA_IMPRIMIR_RECIBO);                           
 520:.\main.c      ****                         break;
 521:.\main.c      ****                             
 522:.\main.c      ****                         case 0x94:  //Retroceso 
 523:.\main.c      ****                             flowDisplay1 = 0;
 524:.\main.c      ****                             SetPicture(1,DISPLAY_INICIO0);                                         
 525:.\main.c      ****                         break;
 526:.\main.c      ****                             
 527:.\main.c      ****                         case 0x7E:  //Pantalla Inicial                                             
 528:.\main.c      ****                             SetPicture(1,DISPLAY_INICIO0);
 529:.\main.c      ****                             flowDisplay1 = 0;
 530:.\main.c      ****                         break;
 531:.\main.c      ****                     }                    
 532:.\main.c      ****                 }
 533:.\main.c      ****                 CyDelay(10);         
 534:.\main.c      ****                 Display1_ClearRxBuffer();
 535:.\main.c      ****             }
 536:.\main.c      ****         break;
 537:.\main.c      ****                     
 538:.\main.c      ****         case 6:
 539:.\main.c      ****             isr_3_StartEx(animacion);
 540:.\main.c      ****             Timer_Animacion_Start();
 541:.\main.c      ****             if(Display1_GetRxBufferSize()==8){
 542:.\main.c      ****                 if((Display1_rxBuffer[0]==0xAA) && (Display1_rxBuffer[6]==0xC3) && (Display1_rxBuff
 543:.\main.c      ****                     switch(Display1_rxBuffer[3]){
 544:.\main.c      ****                         case 0x39:  //Si imprimir  
ARM GAS  C:\Users\RECEPC~1\AppData\Local\Temp\ccp152bc.s 			page 11


 545:.\main.c      ****                             flowDisplay1 = 9;
 546:.\main.c      ****                             numberKeys1 = 0;
 547:.\main.c      ****                             bufferDisplay1.flagKeyboard = 1;
 548:.\main.c      ****                             bufferDisplay1.flagPrint =  1;
 549:.\main.c      ****                             SetPicture(1,DISPLAY_DIGITE_PLACA);                            
 550:.\main.c      ****                         break; 
 551:.\main.c      ****                         case 0x38:  //No imprimir 
 552:.\main.c      ****                             if(bufferDisplay1.flagEndSale){
 553:.\main.c      ****                                 flowDisplay1 = 0;
 554:.\main.c      ****                                 SetPicture(1,DISPLAY_INICIO0);
 555:.\main.c      ****                             }else{
 556:.\main.c      ****                                 flowDisplay1 = 7;//Esperando estado del dispensador 
 557:.\main.c      ****                                 bufferDisplay1.flagPrint =  0;
 558:.\main.c      ****                                 count_protector=0;
 559:.\main.c      ****                                 SetPicture(1,DISPLAY_SUBA_MANIJA);
 560:.\main.c      ****                             }
 561:.\main.c      ****                         break;
 562:.\main.c      ****                         case 0x7E:  //Pantalla Inicial                                             
 563:.\main.c      ****                             flowDisplay1 = 0;
 564:.\main.c      ****                             SetPicture(1,DISPLAY_INICIO0);
 565:.\main.c      ****                         break;
 566:.\main.c      ****                     }                    
 567:.\main.c      ****                 }
 568:.\main.c      ****                 CyDelay(10);         
 569:.\main.c      ****                 Display1_ClearRxBuffer();
 570:.\main.c      ****             }
 571:.\main.c      ****             if(count_protector>=30){
 572:.\main.c      ****                 flowDisplay1 = 0;	
 573:.\main.c      ****     			count_protector=0;
 574:.\main.c      ****                 SetPicture(1,DISPLAY_INICIO0);
 575:.\main.c      ****     		}
 576:.\main.c      ****         break;
 577:.\main.c      ****                                         
 578:.\main.c      ****             
 579:.\main.c      ****         case 7:
 580:.\main.c      ****             //isr_3_StartEx(animacion);
 581:.\main.c      ****             //Timer_Animacion_Start();
 582:.\main.c      ****             side.a.activeHose = PumpHoseActiveState(side.a.dir);  
 583:.\main.c      ****             if (side.a.activeHose == side.a.hose){                
 584:.\main.c      ****                 if(PresetData(side.a.dir,side.a.activeHose,bufferDisplay1.presetValue[0],bufferDisp
 585:.\main.c      ****                     isr_3_Stop(); 
 586:.\main.c      ****                     Timer_Animacion_Stop();
 587:.\main.c      ****                     get_state(side.a.dir);
 588:.\main.c      ****                     //CyDelay(20);
 589:.\main.c      ****                     Pump_PutChar(0x10|side.a.dir);//Autoriza el surtidor
 590:.\main.c      ****                     //CyDelay(50);
 591:.\main.c      ****                     side.a.RFstateReport = 1;
 592:.\main.c      ****                     flowDisplay1 = 8;                    
 593:.\main.c      ****                     count_protector = 0;                    
 594:.\main.c      ****                     bufferDisplay1.flagActiveSale = true;
 595:.\main.c      ****                     SetPicture(1,DISPLAY_DESPACHANDO);   
 596:.\main.c      ****                     ShowMessage(1,(bufferDisplay1.presetValue[0]),18);
 597:.\main.c      ****                 }else{
 598:.\main.c      ****                     flowDisplay1 = 0;
 599:.\main.c      ****                     SetPicture(1,DISPLAY_ERROR);
 600:.\main.c      ****                     CyDelay(200);
 601:.\main.c      ****                     SetPicture(1,DISPLAY_INICIO0);
ARM GAS  C:\Users\RECEPC~1\AppData\Local\Temp\ccp152bc.s 			page 12


 602:.\main.c      ****                 }
 603:.\main.c      ****             }else{
 604:.\main.c      ****                 flowDisplay1 = 7;                
 605:.\main.c      **** //                if(count_protector>=60){
 606:.\main.c      **** //                    flowDisplay1 = 0;	
 607:.\main.c      **** //        			count_protector=0;
 608:.\main.c      **** //                    SetPicture(1,DISPLAY_INICIO0);
 609:.\main.c      **** //        		}
 610:.\main.c      ****             }
 611:.\main.c      ****             if(Display1_GetRxBufferSize()==8){
 612:.\main.c      ****                 if((Display1_rxBuffer[0]==0xAA) && (Display1_rxBuffer[6]==0xC3) && (Display1_rxBuff
 613:.\main.c      ****                     switch(Display1_rxBuffer[3]){                        
 614:.\main.c      ****                         case 0x7E:  //Pantalla Inicial                                             
 615:.\main.c      ****                             SetPicture(1,DISPLAY_INICIO0);
 616:.\main.c      ****                             flowDisplay1 = 0;
 617:.\main.c      ****                         break;
 618:.\main.c      ****                     }                    
 619:.\main.c      ****                 }
 620:.\main.c      ****                 CyDelay(10);                         
 621:.\main.c      ****             }
 622:.\main.c      ****             Display1_ClearRxBuffer();
 623:.\main.c      ****         break;
 624:.\main.c      ****             
 625:.\main.c      ****         case 8:            
 626:.\main.c      ****             side.a.pumpState = get_state(side.a.dir);
 627:.\main.c      ****             switch (side.a.pumpState){
 628:.\main.c      ****                 case PUMP_IDLE://Espera - venta cero
 629:.\main.c      ****                     flowDisplay1 = 0;
 630:.\main.c      ****                     side.a.rfState = RF_ZERO_SALE;
 631:.\main.c      ****                     bufferDisplay1.flagActiveSale = false;
 632:.\main.c      ****                     SetPicture(1,DISPLAY_INICIO0);
 633:.\main.c      ****                 break;
 634:.\main.c      ****                 case PUMP_BUSY://Surtiendo                    
 635:.\main.c      ****                     bufferDisplay1.flagActiveSale = true;
 636:.\main.c      ****                     bufferDisplay1.flagEndSale = false;
 637:.\main.c      ****                     //side.a.rfState = RF_DELIVERING;
 638:.\main.c      ****                 break;
 639:.\main.c      ****                 case PUMP_PEOT: //reporte fin venta                    
 640:.\main.c      ****                     if(getSale(side.a.dir)){
 641:.\main.c      ****                         if(bufferDisplay1.flagPrint ==1){
 642:.\main.c      ****                             imprimir(printPortA,side.a.dir);
 643:.\main.c      ****                             flowDisplay1 = 0;                            
 644:.\main.c      ****                             SetPicture(1,DISPLAY_INICIO0); 
 645:.\main.c      ****                         }else{
 646:.\main.c      ****                             flowDisplay1 = 6;
 647:.\main.c      ****                             bufferDisplay1.flagEndSale = true;
 648:.\main.c      ****                             SetPicture(1,DISPLAY_DESEA_IMPRIMIR_RECIBO); 
 649:.\main.c      ****                         }
 650:.\main.c      ****                         bufferDisplay1.flagActiveSale = false;
 651:.\main.c      ****                         side.a.RFstateReport = 1;
 652:.\main.c      ****                     }                                         
 653:.\main.c      ****                 break;
 654:.\main.c      ****                 case PUMP_FEOT://Reporte de venta
 655:.\main.c      ****                     if(getSale(side.a.dir)){
 656:.\main.c      ****                         if(bufferDisplay1.flagPrint ==1){
 657:.\main.c      ****                             imprimir(printPortA,side.a.dir);
 658:.\main.c      ****                             flowDisplay1 = 0;
ARM GAS  C:\Users\RECEPC~1\AppData\Local\Temp\ccp152bc.s 			page 13


 659:.\main.c      ****                             SetPicture(1,DISPLAY_INICIO0); 
 660:.\main.c      ****                         }else{
 661:.\main.c      ****                             flowDisplay1 = 6;
 662:.\main.c      ****                             bufferDisplay1.flagEndSale = true;
 663:.\main.c      ****                             SetPicture(1,DISPLAY_DESEA_IMPRIMIR_RECIBO); 
 664:.\main.c      ****                         }
 665:.\main.c      ****                         bufferDisplay1.flagActiveSale = false;
 666:.\main.c      ****                         side.a.RFstateReport = 1;
 667:.\main.c      ****                     }
 668:.\main.c      ****                 break;
 669:.\main.c      ****                 
 670:.\main.c      ****             }
 671:.\main.c      ****             
 672:.\main.c      ****         break;
 673:.\main.c      ****             
 674:.\main.c      ****         case 9: //Teclado           
 675:.\main.c      ****             switch (alphanumeric_keyboard(1,10,0)){
 676:.\main.c      ****                 case 0: //Cancelar
 677:.\main.c      ****                     switch(bufferDisplay1.flagKeyboard){
 678:.\main.c      ****                         case 1://Placa
 679:.\main.c      ****                             for(x=0;x<=10;x++){
 680:.\main.c      ****                                 bufferDisplay1.licenceSale[x]=0;
 681:.\main.c      ****                             }
 682:.\main.c      ****                             flowDisplay1 = 0;//Inicio
 683:.\main.c      ****                             SetPicture(1,DISPLAY_INICIO0);
 684:.\main.c      ****                         break;
 685:.\main.c      ****                         
 686:.\main.c      ****                         case 2://Kilometraje
 687:.\main.c      ****                             for(x=0;x<=10;x++){
 688:.\main.c      ****                                 bufferDisplay1.mileageSale[x]=0;
 689:.\main.c      ****                             }
 690:.\main.c      ****                         break;
 691:.\main.c      ****                         
 692:.\main.c      ****                         case 3://CC/NIT
 693:.\main.c      ****                             for(x=0;x<=10;x++){
 694:.\main.c      ****                                 bufferDisplay1.identySale[x]=0;
 695:.\main.c      ****                             }
 696:.\main.c      ****                         break;
 697:.\main.c      ****                         case 4://ID
 698:.\main.c      ****                             for(x=0;x<=10;x++){
 699:.\main.c      ****                                 bufferDisplay1.shiftId[x]=0;
 700:.\main.c      ****                             }
 701:.\main.c      ****                         break;
 702:.\main.c      ****                     }                    
 703:.\main.c      ****                     Display1_ClearRxBuffer();
 704:.\main.c      ****                 break;
 705:.\main.c      ****                     
 706:.\main.c      ****                 case 1: //Enter
 707:.\main.c      ****                     switch(bufferDisplay1.flagKeyboard){
 708:.\main.c      ****                         case 1://Placa
 709:.\main.c      ****                             for(x=0;x<=bufferDisplay1.valueKeys[0];x++){
 710:.\main.c      ****                                 bufferDisplay1.licenceSale[x]=bufferDisplay1.valueKeys[x];
 711:.\main.c      ****                             }
 712:.\main.c      ****                             if(bufferDisplay1.flagEndSale){
 713:.\main.c      ****                                 imprimir(printPortA,side.a.dir);
 714:.\main.c      ****                                 flowDisplay1 = 0;
 715:.\main.c      ****                                 SetPicture(1,DISPLAY_INICIO0); 
ARM GAS  C:\Users\RECEPC~1\AppData\Local\Temp\ccp152bc.s 			page 14


 716:.\main.c      ****                             }else{
 717:.\main.c      ****                                 flowDisplay1 = 7;//Suba manija
 718:.\main.c      ****                                 SetPicture(1,DISPLAY_SUBA_MANIJA);
 719:.\main.c      ****                             }
 720:.\main.c      ****                         break;
 721:.\main.c      ****                         
 722:.\main.c      ****                         case 2://Kilometraje
 723:.\main.c      ****                             for(x=0;x<=bufferDisplay1.valueKeys[0];x++){
 724:.\main.c      ****                                 bufferDisplay1.mileageSale[x]=bufferDisplay1.valueKeys[x];
 725:.\main.c      ****                             }
 726:.\main.c      ****                             flowDisplay1 = 7;//Suba manija
 727:.\main.c      ****                             SetPicture(1,DISPLAY_SUBA_MANIJA);
 728:.\main.c      ****                         break;
 729:.\main.c      ****                         
 730:.\main.c      ****                         case 3://CC/NIT
 731:.\main.c      ****                             for(x=0;x<=bufferDisplay1.valueKeys[0];x++){
 732:.\main.c      ****                                 bufferDisplay1.identySale[x]=bufferDisplay1.valueKeys[x];
 733:.\main.c      ****                             }
 734:.\main.c      ****                         case 4://ID
 735:.\main.c      ****                             for(x=0;x<=10;x++){
 736:.\main.c      ****                                 bufferDisplay1.shiftId[x] =bufferDisplay1.valueKeys[x];
 737:.\main.c      ****                             }
 738:.\main.c      ****                             flowDisplay1 = 14;//Pide clave                            
 739:.\main.c      ****                             numberKeys1 = 0;
 740:.\main.c      ****                             hiddenKeys = 10;
 741:.\main.c      ****                             controlChar ='*';
 742:.\main.c      ****                             bufferDisplay1.flagKeyboard = 3;
 743:.\main.c      ****                             SetPicture(1,DISPLAY_INGRESE_PASSWORD);
 744:.\main.c      ****                         break;
 745:.\main.c      ****                     }                    
 746:.\main.c      ****                     Display1_ClearRxBuffer();
 747:.\main.c      ****                 break;
 748:.\main.c      ****             }            
 749:.\main.c      ****         break;    
 750:.\main.c      ****     ////////////////// CASOS PARA CRÉDITO  /////////////////////
 751:.\main.c      ****         case 10:
 752:.\main.c      ****             if(Display1_GetRxBufferSize()==8){
 753:.\main.c      ****                 if((Display1_rxBuffer[0]==0xAA) && (Display1_rxBuffer[6]==0xC3) && (Display1_rxBuff
 754:.\main.c      ****                     switch(Display1_rxBuffer[3]){
 755:.\main.c      ****                         case 0xB6:  //Solicitud ibutton  
 756:.\main.c      ****                             flowDisplay1 = 11;
 757:.\main.c      ****                             numberKeys1 = 0;                            
 758:.\main.c      ****                             bufferDisplay1.flagPrint =  1;
 759:.\main.c      ****                             SetPicture(1,DISPLAY_ESPERANDO_ID);                            
 760:.\main.c      ****                         break; 
 761:.\main.c      ****                         case 0xB7:  //ID por número
 762:.\main.c      ****                             bufferDisplay1.flagKeyboard = 0;
 763:.\main.c      ****                             flowDisplay1 = 7;//Esperando estado del dispensador  
 764:.\main.c      ****                             count_protector=0;
 765:.\main.c      ****                             SetPicture(1,DISPLAY_SUBA_MANIJA);                            
 766:.\main.c      ****                         break;
 767:.\main.c      ****                         case 0x94:  //Pantalla Inicial    
 768:.\main.c      ****                             flowDisplay1 = 0;
 769:.\main.c      ****                             SetPicture(1,DISPLAY_INICIO0);                            
 770:.\main.c      ****                         break;
 771:.\main.c      ****                         case 0x7E:  //Pantalla Inicial                                             
 772:.\main.c      ****                             SetPicture(1,DISPLAY_INICIO0);
ARM GAS  C:\Users\RECEPC~1\AppData\Local\Temp\ccp152bc.s 			page 15


 773:.\main.c      ****                             flowDisplay1 = 0;
 774:.\main.c      ****                         break;
 775:.\main.c      ****                     }                    
 776:.\main.c      ****                 }
 777:.\main.c      ****                 CyDelay(10);         
 778:.\main.c      ****                 Display1_ClearRxBuffer();
 779:.\main.c      ****             }                        
 780:.\main.c      ****         break;
 781:.\main.c      ****         
 782:.\main.c      ****         case 11:
 783:.\main.c      ****             isr_3_StartEx(animacion);
 784:.\main.c      ****             Timer_Animacion_Start();
 785:.\main.c      ****             if(touch_present(1)==1){
 786:.\main.c      **** 				if(touch_write(1,0x33)){
 787:.\main.c      **** 					for(x=1;x<=8;x++){
 788:.\main.c      **** 						temporal[x]=touch_read_byte(1);
 789:.\main.c      **** 					}
 790:.\main.c      **** 					y=0;
 791:.\main.c      **** 					for(x=1;x<8;x++){
 792:.\main.c      ****                         y=crc_check(y,temporal[x]);
 793:.\main.c      ****                     }
 794:.\main.c      **** 					if(y==temporal[8]){
 795:.\main.c      **** 						bufferDisplay1.idSerial[0]=16;
 796:.\main.c      **** 						y=16;
 797:.\main.c      **** 						for(x=1;x<=8;x++){
 798:.\main.c      **** 							if((temporal[x]&0x0F)>=10){
 799:.\main.c      **** 								bufferDisplay1.idSerial[y]=(temporal[x]&0x0F)+55;
 800:.\main.c      **** 							}else{
 801:.\main.c      **** 								bufferDisplay1.idSerial[y]=(temporal[x]&0x0F)+48;				
 802:.\main.c      **** 							}
 803:.\main.c      ****                             y--;
 804:.\main.c      **** 							if(((temporal[x]>>4)&0x0F)>=10){
 805:.\main.c      **** 								bufferDisplay1.idSerial[y]=((temporal[x]>>4)&0x0F)+55;
 806:.\main.c      **** 							}else{
 807:.\main.c      **** 								bufferDisplay1.idSerial[y]=((temporal[x]>>4)&0x0F)+48;				
 808:.\main.c      **** 							}
 809:.\main.c      ****                             y--;
 810:.\main.c      **** 						}                        
 811:.\main.c      ****                         SetPicture(1,DISPLAY_ID_RECONOCIDO);                                       
 812:.\main.c      ****                         Display1_ClearRxBuffer();
 813:.\main.c      ****                         CyDelay(700);
 814:.\main.c      ****                         bufferDisplay1.flagKeyboard = 2;
 815:.\main.c      ****                         flowDisplay1 = 9;
 816:.\main.c      ****                         SetPicture(1,DISPLAY_INTRODUZCA_KILOMETRAJE);
 817:.\main.c      ****                         
 818:.\main.c      **** 					}
 819:.\main.c      **** 				}
 820:.\main.c      **** 			}
 821:.\main.c      ****             if(count_protector>=60){
 822:.\main.c      ****                 flowDisplay1 = 0;	
 823:.\main.c      ****     			count_protector=0;
 824:.\main.c      ****                 SetPicture(1,DISPLAY_INICIO0);
 825:.\main.c      ****     		}
 826:.\main.c      ****                                     
 827:.\main.c      ****         break;    
 828:.\main.c      ****     ///////////////FIN CASOS PARA CRÉDITO  /////////////////////  
 829:.\main.c      ****     
ARM GAS  C:\Users\RECEPC~1\AppData\Local\Temp\ccp152bc.s 			page 16


 830:.\main.c      ****     //////////// CASOS PARA CONFIGURACIONES  ///////////////////
 831:.\main.c      ****         case 12:
 832:.\main.c      ****             if(Display1_GetRxBufferSize()==8){
 833:.\main.c      ****                 if((Display1_rxBuffer[0]==0xAA) && (Display1_rxBuffer[6]==0xC3) && (Display1_rxBuff
 834:.\main.c      ****                     switch(Display1_rxBuffer[3]){
 835:.\main.c      ****                         case 0x46:  //Turnos              
 836:.\main.c      ****                             flowDisplay1 = 13; 
 837:.\main.c      ****                             if(lockTurn ==1){
 838:.\main.c      ****                                 SetPicture(1,DISPLAY_CERRAR_TURNO);
 839:.\main.c      ****                             }else{
 840:.\main.c      ****                                 SetPicture(1,DISPLAY_ABRIR_TURNO);
 841:.\main.c      ****                             }                            
 842:.\main.c      ****                         break;
 843:.\main.c      ****                         case 0x55:  //Configurar módulo 
 844:.\main.c      ****                             flowDisplay1 = 14;
 845:.\main.c      ****                             bufferDisplay1.flagKeyboard = 6;
 846:.\main.c      ****                             numberKeys1 = 0;
 847:.\main.c      ****                             hiddenKeys = 5;
 848:.\main.c      ****                             controlChar ='*';
 849:.\main.c      ****                             SetPicture(1,DISPLAY_INGRESE_PASSWORD);                           
 850:.\main.c      ****                         break;
 851:.\main.c      ****                         case 0xB5:  //Copia de recibo 
 852:.\main.c      ****                             flowDisplay1  = 0;
 853:.\main.c      ****                             side.a.RFstateReport = 1;
 854:.\main.c      ****                             side.a.rfState = RF_COPY_RECEIPT;
 855:.\main.c      ****                             SetPicture(1,DISPLAY_INICIO0);                            
 856:.\main.c      ****                         break;
 857:.\main.c      ****                         
 858:.\main.c      ****                         case 0x3B:  //Pantalla Inicial    
 859:.\main.c      ****                             flowDisplay1 = 0;
 860:.\main.c      ****                             SetPicture(1,DISPLAY_INICIO0);                            
 861:.\main.c      ****                         break;
 862:.\main.c      ****                             
 863:.\main.c      ****                         case 0x94:  //Pantalla Inicial    
 864:.\main.c      ****                             flowDisplay1 = 0;
 865:.\main.c      ****                             SetPicture(1,DISPLAY_INICIO0);                            
 866:.\main.c      ****                         break;
 867:.\main.c      ****                         
 868:.\main.c      ****                         case 0x7E:  //Pantalla Inicial    
 869:.\main.c      ****                             flowDisplay1 = 0;
 870:.\main.c      ****                             SetPicture(1,DISPLAY_INICIO0);                            
 871:.\main.c      ****                         break;
 872:.\main.c      ****                     }
 873:.\main.c      ****                 }  
 874:.\main.c      ****                 CyDelay(10);         
 875:.\main.c      ****                 Display1_ClearRxBuffer();
 876:.\main.c      ****             }
 877:.\main.c      ****         break;
 878:.\main.c      **** 
 879:.\main.c      ****         case 13:
 880:.\main.c      ****             if(Display1_GetRxBufferSize()==8){
 881:.\main.c      ****                 if((Display1_rxBuffer[0]==0xAA) && (Display1_rxBuffer[6]==0xC3) && (Display1_rxBuff
 882:.\main.c      ****                     switch(Display1_rxBuffer[3]){
 883:.\main.c      ****                         case 0x47:  //Cambio de turno: Abrir  
 884:.\main.c      ****                             flowDisplay1 = 9;
 885:.\main.c      ****                             numberKeys1 = 0;    
 886:.\main.c      ****                             bufferDisplay1.flagKeyboard = 4;
ARM GAS  C:\Users\RECEPC~1\AppData\Local\Temp\ccp152bc.s 			page 17


 887:.\main.c      ****                             SetPicture(1,DISPLAY_INTRODUZCA_CEDULA);                            
 888:.\main.c      ****                         break;
 889:.\main.c      ****                         case 0x48:  //Cambio de turno: Cerrar 
 890:.\main.c      ****                             flowDisplay1 = 9;
 891:.\main.c      ****                             numberKeys1 = 0;   
 892:.\main.c      ****                             bufferDisplay1.flagKeyboard = 4;
 893:.\main.c      ****                             SetPicture(1,DISPLAY_INTRODUZCA_CEDULA);                           
 894:.\main.c      ****                         break;                         
 895:.\main.c      ****                         case 0x7E:  //Pantalla Inicial                                             
 896:.\main.c      ****                             SetPicture(1,DISPLAY_INICIO0);
 897:.\main.c      ****                             flowDisplay1 = 0;
 898:.\main.c      ****                         break;
 899:.\main.c      ****                         case 0x94:  //Pantalla Inicial                                             
 900:.\main.c      ****                             SetPicture(1,DISPLAY_INICIO0);
 901:.\main.c      ****                             flowDisplay1 = 0;
 902:.\main.c      ****                         break;
 903:.\main.c      ****                     }                    
 904:.\main.c      ****                 }
 905:.\main.c      ****                 CyDelay(10);         
 906:.\main.c      ****                 Display1_ClearRxBuffer();
 907:.\main.c      ****             }                        
 908:.\main.c      ****         break; 
 909:.\main.c      ****             
 910:.\main.c      ****         case 14: //Teclado general      
 911:.\main.c      ****             switch (alphanumeric_keyboard(1,hiddenKeys,controlChar)){
 912:.\main.c      ****                 case 0: //Cancelar
 913:.\main.c      ****                     switch(bufferDisplay1.flagKeyboard){
 914:.\main.c      ****                         case 1://ID Estacion
 915:.\main.c      ****                             for(x=0;x<=4;x++){
 916:.\main.c      ****                                 idStation[x]=0;
 917:.\main.c      ****                             }
 918:.\main.c      ****                             flowDisplay1 = 0;
 919:.\main.c      ****                             SetPicture(1,DISPLAY_INICIO0);
 920:.\main.c      ****                         break;
 921:.\main.c      ****                         case 2://Umbral
 922:.\main.c      ****                             for(x=0;x< hiddenKeys;x++){
 923:.\main.c      ****                                 pumpGap[x]=0;
 924:.\main.c      ****                             }
 925:.\main.c      ****                             flowDisplay1 = 0;
 926:.\main.c      ****                             SetPicture(1,DISPLAY_INICIO0);
 927:.\main.c      ****                         break;
 928:.\main.c      ****                         case 3://Pass turno
 929:.\main.c      ****                             for(x=0;x< hiddenKeys;x++){
 930:.\main.c      ****                                 bufferDisplay1.shiftPassword[x]=0;
 931:.\main.c      ****                             }
 932:.\main.c      ****                             flowDisplay1 = 0;
 933:.\main.c      ****                             SetPicture(1,DISPLAY_INICIO0);
 934:.\main.c      ****                         break;
 935:.\main.c      ****                         case 5://Pass
 936:.\main.c      ****                             for(x=0;x< hiddenKeys;x++){
 937:.\main.c      ****                                 bufferDisplay1.shiftPassword[x]=0;
 938:.\main.c      ****                             }
 939:.\main.c      ****                             flowDisplay1 = 0;
 940:.\main.c      ****                             SetPicture(1,DISPLAY_INICIO0);
 941:.\main.c      ****                         break;
 942:.\main.c      ****                             
 943:.\main.c      ****                         case 6://Pass
ARM GAS  C:\Users\RECEPC~1\AppData\Local\Temp\ccp152bc.s 			page 18


 944:.\main.c      ****                             for(x=1;x<=configAccess[0];x++){
 945:.\main.c      ****                                 configAccess[x]=0;
 946:.\main.c      ****                             }
 947:.\main.c      ****                             flowDisplay1 = 0;
 948:.\main.c      ****                             SetPicture(1,DISPLAY_INICIO0);
 949:.\main.c      ****                         break;
 950:.\main.c      ****                     }                    
 951:.\main.c      ****                     Display1_ClearRxBuffer();
 952:.\main.c      ****                 break;
 953:.\main.c      ****                     
 954:.\main.c      ****                 case 1: //Enter
 955:.\main.c      ****                     switch(bufferDisplay1.flagKeyboard){   
 956:.\main.c      ****                         case 1://ID Estacion
 957:.\main.c      ****                             for(x=0;x <=4;x++){
 958:.\main.c      ****                                 idStation[x] =bufferDisplay1.valueKeys[x+1];                       
 959:.\main.c      ****                             }
 960:.\main.c      ****                             idStation[4] = 0x00;
 961:.\main.c      ****                             intIDStation = atoi(idStation);
 962:.\main.c      ****                             IDCast[0] = intIDStation;
 963:.\main.c      ****                             IDCast[1] = intIDStation>>8;
 964:.\main.c      ****                             EEPROM_1_WriteByte(IDCast[0],10);
 965:.\main.c      ****                             EEPROM_1_WriteByte(IDCast[1],11);
 966:.\main.c      ****                             flowDisplay1 = 15;
 967:.\main.c      ****                             SetPicture(1,DISPLAY_CONFIGURACIONES);
 968:.\main.c      ****                         break;
 969:.\main.c      ****                         case 2://Pass
 970:.\main.c      ****                             for(x=0;x < hiddenKeys;x++){
 971:.\main.c      ****                                 pumpGap[x] =bufferDisplay1.valueKeys[x];
 972:.\main.c      ****                             }
 973:.\main.c      ****                             flowDisplay1 = 15;
 974:.\main.c      ****                             SetPicture(1,DISPLAY_CONFIGURACIONES);
 975:.\main.c      ****                         break;
 976:.\main.c      ****                         case 3://Pass turno
 977:.\main.c      ****                             for(x=0;x < hiddenKeys;x++){
 978:.\main.c      ****                                 bufferDisplay1.shiftPassword[x] =bufferDisplay1.valueKeys[x];
 979:.\main.c      ****                             }
 980:.\main.c      ****                             flowDisplay1 = 19;
 981:.\main.c      ****                             SetPicture(1,DISPLAY_POR_FAVOR_ESPERE);
 982:.\main.c      ****                         break;
 983:.\main.c      ****                         case 5://Pass
 984:.\main.c      ****                             for(x=0;x < hiddenKeys;x++){
 985:.\main.c      ****                                 bufferDisplay1.shiftPassword[x] =bufferDisplay1.valueKeys[x];
 986:.\main.c      ****                             }
 987:.\main.c      ****                             flowDisplay1 = 15;
 988:.\main.c      ****                             SetPicture(1,DISPLAY_CONFIGURACIONES);
 989:.\main.c      ****                         break; 
 990:.\main.c      ****                         case 6://Pass
 991:.\main.c      ****                             for(x=1;x<=configAccess[0];x++){
 992:.\main.c      ****                                 configAccess[x] =bufferDisplay1.valueKeys[x];
 993:.\main.c      ****                             }
 994:.\main.c      ****                             if(configAccess[1] == passwordPump[1] && configAccess[2] == passwordPum
 995:.\main.c      ****                                 SetPicture(1,DISPLAY_PASSWORD_VALIDO);
 996:.\main.c      ****                                 CyDelay(700);
 997:.\main.c      ****                                 flowDisplay1 = 15;
 998:.\main.c      ****                                 SetPicture(1,DISPLAY_CONFIGURACIONES);
 999:.\main.c      ****                             }else{
1000:.\main.c      ****                                 SetPicture(1,DISPLAY_PASSWORD_INVALIDO);
ARM GAS  C:\Users\RECEPC~1\AppData\Local\Temp\ccp152bc.s 			page 19


1001:.\main.c      ****                                 CyDelay(700);
1002:.\main.c      ****                                 flowDisplay1 = 0;
1003:.\main.c      ****                                 SetPicture(1,DISPLAY_INICIO0);
1004:.\main.c      ****                             }
1005:.\main.c      ****                         break;
1006:.\main.c      ****                     }                    
1007:.\main.c      ****                     Display1_ClearRxBuffer();
1008:.\main.c      ****                 break;
1009:.\main.c      ****             }            
1010:.\main.c      ****         break;
1011:.\main.c      ****             
1012:.\main.c      ****         case 15:
1013:.\main.c      ****             if(Display1_GetRxBufferSize()==8){
1014:.\main.c      ****                 if((Display1_rxBuffer[0]==0xAA) && (Display1_rxBuffer[6]==0xC3) && (Display1_rxBuff
1015:.\main.c      ****                     switch(Display1_rxBuffer[3]){
1016:.\main.c      ****                         case 0x82:  //ID Estacion  
1017:.\main.c      ****                             flowDisplay1 = 14;
1018:.\main.c      ****                             numberKeys1 = 0; 
1019:.\main.c      ****                             controlChar = 0;
1020:.\main.c      ****                             hiddenKeys  = 5;
1021:.\main.c      ****                             bufferDisplay1.flagKeyboard = 1;
1022:.\main.c      ****                             SetPicture(1,DISPLAY_INTRODUZCA_VALOR);                            
1023:.\main.c      ****                         break;
1024:.\main.c      ****                         case 0x65:  //Test Impresoras 
1025:.\main.c      ****                             flowDisplay1 = 16; 
1026:.\main.c      ****                             PrintTest();
1027:.\main.c      ****                             SetPicture(1,DISPLAY_AMBAS_IMPRESORAS_FUNCIONANDO);                    
1028:.\main.c      ****                         break;
1029:.\main.c      ****                         
1030:.\main.c      ****                         case 0x5A:  //Umbral 
1031:.\main.c      ****                             flowDisplay1 = 14;
1032:.\main.c      ****                             numberKeys1 = 0;
1033:.\main.c      ****                             controlChar = 0;
1034:.\main.c      ****                             hiddenKeys  = 3;
1035:.\main.c      ****                             pumpGap[0]  = 2;
1036:.\main.c      ****                             bufferDisplay1.flagKeyboard = 2;
1037:.\main.c      ****                             SetPicture(1,DISPLAY_INTRODUZCA_VALOR);                            
1038:.\main.c      ****                         break;
1039:.\main.c      ****                         case 0x58:  //Hora y Fecha
1040:.\main.c      ****                             flowDisplay1 = 18;
1041:.\main.c      ****                             numberKeys1 = 0;   
1042:.\main.c      ****                             bufferDisplay1.flagKeyboard = 4;
1043:.\main.c      ****                             SetPicture(1,DISPLAY_CONFIGURAR_FECHA_HORA);                           
1044:.\main.c      ****                         break;
1045:.\main.c      ****                         case 0x7E:  //Pantalla Inicial                                             
1046:.\main.c      ****                             SetPicture(1,DISPLAY_INICIO0);
1047:.\main.c      ****                             flowDisplay1 = 0;
1048:.\main.c      ****                         break;
1049:.\main.c      ****                         case 0x94:  //Pantalla Inicial                                             
1050:.\main.c      ****                             SetPicture(1,DISPLAY_INICIO0);
1051:.\main.c      ****                             flowDisplay1 = 0;
1052:.\main.c      ****                         break;
1053:.\main.c      ****                     }                    
1054:.\main.c      ****                 }
1055:.\main.c      ****                 CyDelay(10);         
1056:.\main.c      ****                 Display1_ClearRxBuffer();
1057:.\main.c      ****             }                        
ARM GAS  C:\Users\RECEPC~1\AppData\Local\Temp\ccp152bc.s 			page 20


1058:.\main.c      ****         break; 
1059:.\main.c      ****             
1060:.\main.c      ****         case 16:
1061:.\main.c      ****             if(Display1_GetRxBufferSize()==8){
1062:.\main.c      ****                 if((Display1_rxBuffer[0]==0xAA) && (Display1_rxBuffer[6]==0xC3) && (Display1_rxBuff
1063:.\main.c      ****                     switch(Display1_rxBuffer[3]){
1064:.\main.c      ****                         case 0x38:  //No funcionan  
1065:.\main.c      ****                             flowDisplay1 = 17;
1066:.\main.c      ****                             SetPicture(1,DISPLAY_IMPRESORA_NO_FUNCIONANDO);                        
1067:.\main.c      ****                         break;
1068:.\main.c      ****                         case 0x39:  //Si funcionan
1069:.\main.c      ****                             flowDisplay1 = 15; 
1070:.\main.c      ****                             printPortA = 1;
1071:.\main.c      ****                             printPortB = 2;
1072:.\main.c      ****                             EEPROM_1_WriteByte(printPortA,8);
1073:.\main.c      ****                             EEPROM_1_WriteByte(printPortB,9);
1074:.\main.c      ****                             SetPicture(1,DISPLAY_CONFIGURACIONES);
1075:.\main.c      ****                         break;
1076:.\main.c      ****                                                
1077:.\main.c      ****                         case 0x7E:  //Pantalla Inicial                                             
1078:.\main.c      ****                             SetPicture(1,DISPLAY_INICIO0);
1079:.\main.c      ****                             flowDisplay1 = 0;
1080:.\main.c      ****                         break;
1081:.\main.c      ****                         case 0x94:  //Pantalla Inicial                                             
1082:.\main.c      ****                             SetPicture(1,DISPLAY_INICIO0);
1083:.\main.c      ****                             flowDisplay1 = 0;
1084:.\main.c      ****                         break;
1085:.\main.c      ****                     }                    
1086:.\main.c      ****                 }
1087:.\main.c      ****                 CyDelay(10);         
1088:.\main.c      ****                 Display1_ClearRxBuffer();
1089:.\main.c      ****             }                        
1090:.\main.c      ****         break;
1091:.\main.c      ****             
1092:.\main.c      ****         case 17:
1093:.\main.c      ****             if(Display1_GetRxBufferSize()==8){
1094:.\main.c      ****                 if((Display1_rxBuffer[0]==0xAA) && (Display1_rxBuffer[6]==0xC3) && (Display1_rxBuff
1095:.\main.c      ****                     switch(Display1_rxBuffer[3]){
1096:.\main.c      ****                         case 0x8C:  //1 no funciona  
1097:.\main.c      ****                             flowDisplay1 = 15; 
1098:.\main.c      ****                             printPortA = 2;
1099:.\main.c      ****                             printPortB = 2;
1100:.\main.c      ****                             EEPROM_1_WriteByte(printPortA,8);
1101:.\main.c      ****                             EEPROM_1_WriteByte(printPortB,9);
1102:.\main.c      ****                             SetPicture(1,DISPLAY_CONFIGURACIONES);                            
1103:.\main.c      ****                         break;
1104:.\main.c      ****                         case 0x8D:  //2 no funciona
1105:.\main.c      ****                             flowDisplay1 = 15; 
1106:.\main.c      ****                             printPortA = 1;
1107:.\main.c      ****                             printPortB = 1;
1108:.\main.c      ****                             EEPROM_1_WriteByte(printPortA,8);
1109:.\main.c      ****                             EEPROM_1_WriteByte(printPortB,9);
1110:.\main.c      ****                             SetPicture(1,DISPLAY_CONFIGURACIONES); 
1111:.\main.c      ****                         break;
1112:.\main.c      ****                             
1113:.\main.c      ****                         case 0x8E:  //ninguna funciona
1114:.\main.c      ****                             flowDisplay1 = 15; 
ARM GAS  C:\Users\RECEPC~1\AppData\Local\Temp\ccp152bc.s 			page 21


1115:.\main.c      ****                             printPortA = 0;
1116:.\main.c      ****                             printPortB = 0;
1117:.\main.c      ****                             EEPROM_1_WriteByte(printPortA,8);
1118:.\main.c      ****                             EEPROM_1_WriteByte(printPortB,9);
1119:.\main.c      ****                             SetPicture(1,DISPLAY_CONFIGURACIONES); 
1120:.\main.c      ****                         break;
1121:.\main.c      ****                                                
1122:.\main.c      ****                         case 0x7E:  //Pantalla Inicial                                             
1123:.\main.c      ****                             SetPicture(1,DISPLAY_INICIO0);
1124:.\main.c      ****                             flowDisplay1 = 0;
1125:.\main.c      ****                         break;
1126:.\main.c      ****                         case 0x94:  //Pantalla Inicial                                             
1127:.\main.c      ****                             SetPicture(1,DISPLAY_INICIO0);
1128:.\main.c      ****                             flowDisplay1 = 0;
1129:.\main.c      ****                         break;
1130:.\main.c      ****                     }                    
1131:.\main.c      ****                 }
1132:.\main.c      ****                 CyDelay(10);         
1133:.\main.c      ****                 Display1_ClearRxBuffer();
1134:.\main.c      ****             }                        
1135:.\main.c      ****         break;
1136:.\main.c      ****             
1137:.\main.c      ****         case 18:
1138:.\main.c      ****             if(leer_hora()==1){
1139:.\main.c      ****                 WriteLCD(1,(((timeDownHandle[1]&0x10)>>4)+48),13,8,1,0x0000,'N');
1140:.\main.c      ****                 WriteLCD(1,((timeDownHandle[1]&0x0F)+48),13,9,1,0x0000,'N');
1141:.\main.c      ****                 WriteLCD(1,':',13,10,1,0x0000,'N');
1142:.\main.c      ****                 WriteLCD(1,(((timeDownHandle[0]&0xF0)>>4)+48),13,11,1,0x0000,'N');
1143:.\main.c      ****                 WriteLCD(1,((timeDownHandle[0]&0x0F)+48),13,12,1,0x0000,'N');               
1144:.\main.c      ****             }
1145:.\main.c      ****             if(leer_fecha()==1){                
1146:.\main.c      ****                 WriteLCD(1,(((dateDownHandle[0]&0x30)>>4)+48),21,8,1,0x0000,'N');
1147:.\main.c      ****                 WriteLCD(1,((dateDownHandle[0]&0x0F)+48),21,9,1,0x0000,'N');
1148:.\main.c      ****                 WriteLCD(1,'/',21,10,1,0x0000,'N');
1149:.\main.c      ****                 WriteLCD(1,(((dateDownHandle[1]&0x10)>>4)+48),21,11,1,0x0000,'N');
1150:.\main.c      ****                 WriteLCD(1,((dateDownHandle[1]&0x0F)+48),21,12,1,0x0000,'N');
1151:.\main.c      ****                 WriteLCD(1,'/',21,13,1,0x0000,'N');
1152:.\main.c      ****                 WriteLCD(1,(((dateDownHandle[2]&0xF0)>>4)+48),21,14,1,0x0000,'N');
1153:.\main.c      ****                 WriteLCD(1,((dateDownHandle[2]&0x0F)+48),21,15,1,0x0000,'N');
1154:.\main.c      ****             }
1155:.\main.c      ****             if(Display1_GetRxBufferSize()==8){
1156:.\main.c      ****                 if((Display1_rxBuffer[0]==0xAA) && (Display1_rxBuffer[6]==0xC3) && (Display1_rxBuff
1157:.\main.c      ****                     switch(Display1_rxBuffer[3]){                                                  
1158:.\main.c      ****                         case 0x7E:  //Pantalla Inicial  
1159:.\main.c      ****                             flowDisplay1 = 0;
1160:.\main.c      ****                             SetPicture(1,DISPLAY_INICIO0);                            
1161:.\main.c      ****                         break;
1162:.\main.c      ****                         case 0x94:  //Pantalla Inicial    
1163:.\main.c      ****                             flowDisplay1 = 0;
1164:.\main.c      ****                             SetPicture(1,DISPLAY_INICIO0);                            
1165:.\main.c      ****                         break;
1166:.\main.c      ****                     }                    
1167:.\main.c      ****                 }
1168:.\main.c      ****                 CyDelay(10);         
1169:.\main.c      ****                 Display1_ClearRxBuffer();
1170:.\main.c      ****             }                        
1171:.\main.c      ****         break;
ARM GAS  C:\Users\RECEPC~1\AppData\Local\Temp\ccp152bc.s 			page 22


1172:.\main.c      ****             
1173:.\main.c      ****         case 19:            
1174:.\main.c      ****             side.a.RFstateReport = 1;
1175:.\main.c      ****             ShiftState =1;
1176:.\main.c      ****         break;
1177:.\main.c      ****     countLCD = 0;       
1178:.\main.c      ****     }    
1179:.\main.c      ****     }
1180:.\main.c      **** 
1181:.\main.c      **** 
1182:.\main.c      **** /*
1183:.\main.c      **** ***************************************************************************************************
1184:.\main.c      **** *                                         void polling_Pump(void)
1185:.\main.c      **** *
1186:.\main.c      **** * Description : Pregunta estado al surtidor 
1187:.\main.c      **** *               
1188:.\main.c      **** *
1189:.\main.c      **** ***************************************************************************************************
1190:.\main.c      **** */
1191:.\main.c      **** void PollingDisplay2(void){
1192:.\main.c      ****     //if(countLCD >10){
1193:.\main.c      ****     uint8 x,y;     
1194:.\main.c      ****     switch(flowDisplay2){
1195:.\main.c      ****         case 0:
1196:.\main.c      **** 			InitDisplay2();
1197:.\main.c      ****             flowDisplay2 =1;
1198:.\main.c      ****             side.b.rfState = RF_IDLE;
1199:.\main.c      ****             isr_4_Stop(); 
1200:.\main.c      ****             Timer_Animacion2_Stop();
1201:.\main.c      ****             count_protector2 = 0;
1202:.\main.c      ****             bufferDisplay2.saleType = 0;
1203:.\main.c      ****             bufferDisplay2.flagEndSale = false;            
1204:.\main.c      ****         break;
1205:.\main.c      ****         case 1: //Menu
1206:.\main.c      ****             ShowRectangle(2,35);
1207:.\main.c      ****             side.b.rfState = RF_IDLE;
1208:.\main.c      ****             if(Display2_GetRxBufferSize()==8){
1209:.\main.c      ****                 if((Display2_rxBuffer[0]==0xAA) && (Display2_rxBuffer[6]==0xC3) && (Display2_rxBuff
1210:.\main.c      ****                     flowDisplay2 = 2;      //Pantalla forma de pago                      
1211:.\main.c      ****                     SetPicture(2,DISPLAY_FORMA_PAGO_DESEADA);                                      
1212:.\main.c      ****                 }  
1213:.\main.c      ****                 CyDelay(10);         
1214:.\main.c      ****                 Display2_ClearRxBuffer();
1215:.\main.c      ****             }
1216:.\main.c      ****         break;
1217:.\main.c      ****         case 2:
1218:.\main.c      ****             if(Display2_GetRxBufferSize()==8){
1219:.\main.c      ****                 if((Display2_rxBuffer[0]==0xAA) && (Display2_rxBuffer[6]==0xC3) && (Display2_rxBuff
1220:.\main.c      ****                     switch(Display2_rxBuffer[3]){
1221:.\main.c      ****                         case 0x0D:  //Pantalla efectivo              
1222:.\main.c      ****                             flowDisplay2 = 3; 
1223:.\main.c      ****                             bufferDisplay2.saleType = 1;
1224:.\main.c      ****                             SetPicture(2,DISPLAY_FORMA_PROGRAMACION);                            
1225:.\main.c      ****                         break;
1226:.\main.c      ****                         case 0x0E:  //Pantalla credito  
1227:.\main.c      ****                             flowDisplay2 = 10;
1228:.\main.c      ****                             bufferDisplay2.saleType = 2;
ARM GAS  C:\Users\RECEPC~1\AppData\Local\Temp\ccp152bc.s 			page 23


1229:.\main.c      ****                             count_protector = 0;
1230:.\main.c      ****                             SetPicture(2,DISPLAY_ID_DIGITAL);                            
1231:.\main.c      ****                         break;
1232:.\main.c      ****                         case 0x45:  //Pantalla otras opciones 
1233:.\main.c      ****                             flowDisplay2 = 12;                            
1234:.\main.c      ****                             SetPicture(2,DISPLAY_OPERACIONES);                            
1235:.\main.c      ****                         break;
1236:.\main.c      ****                             
1237:.\main.c      ****                         case 0x94:  //Pantalla Inicial    
1238:.\main.c      ****                             flowDisplay2 = 0;
1239:.\main.c      ****                             SetPicture(2,DISPLAY_INICIO0);                            
1240:.\main.c      ****                         break;
1241:.\main.c      ****                         
1242:.\main.c      ****                         case 0x7E:  //Pantalla Inicial    
1243:.\main.c      ****                             flowDisplay2 = 0;
1244:.\main.c      ****                             SetPicture(2,DISPLAY_INICIO0);                            
1245:.\main.c      ****                         break;
1246:.\main.c      ****                     }
1247:.\main.c      ****                 }  
1248:.\main.c      ****                 CyDelay(10);         
1249:.\main.c      ****                 Display2_ClearRxBuffer();
1250:.\main.c      ****             }
1251:.\main.c      ****         break;
1252:.\main.c      ****             
1253:.\main.c      ****         case 3: 
1254:.\main.c      ****             if(Display2_GetRxBufferSize()==8){
1255:.\main.c      ****                 if((Display2_rxBuffer[0]==0xAA) && (Display2_rxBuffer[6]==0xC3) && (Display2_rxBuff
1256:.\main.c      ****                     switch(Display2_rxBuffer[3]){
1257:.\main.c      ****                         case 0x0F:  //Preset dinero                
1258:.\main.c      ****                             flowDisplay2 = 4;                              
1259:.\main.c      ****                             bufferDisplay2.presetType[0]=2;
1260:.\main.c      ****                             bufferDisplay2.presetType[1]='D';
1261:.\main.c      ****                             numberKeys1=0;
1262:.\main.c      ****                             SetPicture(2,DISPLAY_INTRODUZCA_VALOR);   
1263:.\main.c      ****                             WriteLCD(2,'$',3,2,1,0x0000,'N');
1264:.\main.c      ****                         break; 
1265:.\main.c      ****                         case 0x10:  //Preset volumen                 
1266:.\main.c      ****                             flowDisplay2 = 4;                            
1267:.\main.c      ****                             bufferDisplay2.presetType[0]=1;
1268:.\main.c      ****                             bufferDisplay2.presetType[1]='V';
1269:.\main.c      ****                             numberKeys1=0;                            
1270:.\main.c      ****                             SetPicture(2,DISPLAY_INTRODUZCA_VOLUMEN);                            
1271:.\main.c      ****                             WriteLCD(2,'V',3,2,1,0x0000,'N');                            
1272:.\main.c      ****                         break;
1273:.\main.c      ****                         case 0x43:  //Preset full 
1274:.\main.c      ****                             bufferDisplay2.presetType[0]=2;
1275:.\main.c      ****                             bufferDisplay2.presetType[1]='F';
1276:.\main.c      ****                             for(x=1;x<(digits-1);x++){
1277:.\main.c      ****                                 bufferDisplay2.presetValue[0][x]='9';
1278:.\main.c      ****                             }
1279:.\main.c      ****                             bufferDisplay2.presetValue[0][x]='0';
1280:.\main.c      ****                             bufferDisplay2.presetValue[0][x+1]='0';
1281:.\main.c      ****                             bufferDisplay2.presetValue[0][0]=digits;
1282:.\main.c      ****                             for(x=0;x<=bufferDisplay2.presetValue[0][0];x++){
1283:.\main.c      ****                                 bufferDisplay2.presetValue[1][x]=bufferDisplay2.presetValue[0][x];
1284:.\main.c      ****                             }
1285:.\main.c      ****                             flowDisplay2 = 5;
ARM GAS  C:\Users\RECEPC~1\AppData\Local\Temp\ccp152bc.s 			page 24


1286:.\main.c      ****                             SetPicture(2,DISPLAY_SELECCIONE_PRODUCTO4);                          
1287:.\main.c      ****                         break;
1288:.\main.c      ****                         case 0x94:  //Retroceso 
1289:.\main.c      ****                             flowDisplay2 = 0;
1290:.\main.c      ****                             SetPicture(2,DISPLAY_INICIO0);                                         
1291:.\main.c      ****                         break;
1292:.\main.c      ****                         case 0x3B:  //Pantalla Inicial    
1293:.\main.c      ****                             flowDisplay2 = 0;
1294:.\main.c      ****                             SetPicture(2,DISPLAY_INICIO0);                            
1295:.\main.c      ****                         break;
1296:.\main.c      ****                         case 0x7E:  //Pantalla Inicial    
1297:.\main.c      ****                             flowDisplay2 = 0;
1298:.\main.c      ****                             SetPicture(2,DISPLAY_INICIO0);                            
1299:.\main.c      ****                         break;
1300:.\main.c      ****                     }
1301:.\main.c      ****                 }  
1302:.\main.c      ****                 CyDelay(10);         
1303:.\main.c      ****                 Display2_ClearRxBuffer();
1304:.\main.c      ****             }
1305:.\main.c      ****         break;
1306:.\main.c      ****         
1307:.\main.c      ****         case 4:            
1308:.\main.c      ****             switch (alphanumeric_keyboard(2,digits,0)){
1309:.\main.c      ****                 case 0:  //Pantalla Inicial    
1310:.\main.c      ****                     flowDisplay2 = 0;
1311:.\main.c      ****                     SetPicture(2,DISPLAY_INICIO0);                            
1312:.\main.c      ****                 break;
1313:.\main.c      ****                     
1314:.\main.c      ****                 case 1: //Enter
1315:.\main.c      ****                     for(x=0;x<=bufferDisplay2.valueKeys[0];x++){
1316:.\main.c      ****                         bufferDisplay2.presetValue[0][x]=bufferDisplay2.valueKeys[x];
1317:.\main.c      ****                         bufferDisplay2.presetValue[1][x]=bufferDisplay2.valueKeys[x];
1318:.\main.c      ****                     }  
1319:.\main.c      ****                     flowDisplay2 = 5;//caso para seleccion de producto
1320:.\main.c      ****                     SetPicture(2,DISPLAY_SELECCIONE_PRODUCTO4);
1321:.\main.c      ****                 break;
1322:.\main.c      ****             }
1323:.\main.c      ****         break;
1324:.\main.c      ****             
1325:.\main.c      ****         case 5:
1326:.\main.c      ****             if(Display2_GetRxBufferSize()==8){
1327:.\main.c      ****                 if((Display2_rxBuffer[0]==0xAA) && (Display2_rxBuffer[6]==0xC3) && (Display2_rxBuff
1328:.\main.c      ****                     switch(Display2_rxBuffer[3]){
1329:.\main.c      ****                         case 0x80:  //Grado 1 
1330:.\main.c      ****                             flowDisplay2 = 6;
1331:.\main.c      ****                             side.b.hose = 1;
1332:.\main.c      ****                             SetPicture(2,DISPLAY_DESEA_IMPRIMIR_RECIBO);                           
1333:.\main.c      ****                         break;
1334:.\main.c      ****                             
1335:.\main.c      ****                         case 0x81:  //Grado 2 
1336:.\main.c      ****                             flowDisplay2 = 6;
1337:.\main.c      ****                             side.b.hose = 2;
1338:.\main.c      ****                             SetPicture(2,DISPLAY_DESEA_IMPRIMIR_RECIBO);                           
1339:.\main.c      ****                         break;
1340:.\main.c      ****                             
1341:.\main.c      ****                         case 0x7F:  //Grado 3
1342:.\main.c      ****                             flowDisplay2 = 6;
ARM GAS  C:\Users\RECEPC~1\AppData\Local\Temp\ccp152bc.s 			page 25


1343:.\main.c      ****                             side.b.hose = 3;
1344:.\main.c      ****                             SetPicture(2,DISPLAY_DESEA_IMPRIMIR_RECIBO);                           
1345:.\main.c      ****                         break;   
1346:.\main.c      ****                         
1347:.\main.c      ****                         case 0xB8:  //Grado 4 
1348:.\main.c      ****                             flowDisplay2 = 6;
1349:.\main.c      ****                             side.b.hose = 4;
1350:.\main.c      ****                             SetPicture(2,DISPLAY_DESEA_IMPRIMIR_RECIBO);                           
1351:.\main.c      ****                         break;
1352:.\main.c      ****                             
1353:.\main.c      ****                         case 0x94:  //Retroceso 
1354:.\main.c      ****                             flowDisplay2 = 0;
1355:.\main.c      ****                             SetPicture(2,DISPLAY_INICIO0);                                         
1356:.\main.c      ****                         break;
1357:.\main.c      ****                             
1358:.\main.c      ****                         case 0x7E:  //Pantalla Inicial                                             
1359:.\main.c      ****                             SetPicture(2,DISPLAY_INICIO0);
1360:.\main.c      ****                             flowDisplay2 = 0;
1361:.\main.c      ****                         break;
1362:.\main.c      ****                     }                    
1363:.\main.c      ****                 }
1364:.\main.c      ****                 CyDelay(10);         
1365:.\main.c      ****                 Display2_ClearRxBuffer();
1366:.\main.c      ****             }
1367:.\main.c      ****         break;
1368:.\main.c      ****                     
1369:.\main.c      ****         case 6:
1370:.\main.c      ****             isr_3_StartEx(animacion);
1371:.\main.c      ****             Timer_Animacion_Start();
1372:.\main.c      ****             if(Display2_GetRxBufferSize()==8){
1373:.\main.c      ****                 if((Display2_rxBuffer[0]==0xAA) && (Display2_rxBuffer[6]==0xC3) && (Display2_rxBuff
1374:.\main.c      ****                     switch(Display2_rxBuffer[3]){
1375:.\main.c      ****                         case 0x39:  //Si imprimir  
1376:.\main.c      ****                             flowDisplay2 = 9;
1377:.\main.c      ****                             numberKeys1 = 0;
1378:.\main.c      ****                             bufferDisplay2.flagKeyboard = 1;
1379:.\main.c      ****                             bufferDisplay2.flagPrint =  1;
1380:.\main.c      ****                             SetPicture(2,DISPLAY_DIGITE_PLACA);                            
1381:.\main.c      ****                         break; 
1382:.\main.c      ****                         case 0x38:  //No imprimir 
1383:.\main.c      ****                             if(bufferDisplay2.flagEndSale){
1384:.\main.c      ****                                 flowDisplay2 = 0;
1385:.\main.c      ****                                 SetPicture(2,DISPLAY_INICIO0);
1386:.\main.c      ****                             }else{
1387:.\main.c      ****                                 flowDisplay2 = 7;//Esperando estado del dispensador 
1388:.\main.c      ****                                 bufferDisplay2.flagPrint =  0;
1389:.\main.c      ****                                 count_protector=0;
1390:.\main.c      ****                                 SetPicture(2,DISPLAY_SUBA_MANIJA);
1391:.\main.c      ****                             }
1392:.\main.c      ****                         break;
1393:.\main.c      ****                         case 0x7E:  //Pantalla Inicial                                             
1394:.\main.c      ****                             flowDisplay2 = 0;
1395:.\main.c      ****                             SetPicture(2,DISPLAY_INICIO0);
1396:.\main.c      ****                         break;
1397:.\main.c      ****                     }                    
1398:.\main.c      ****                 }
1399:.\main.c      ****                 CyDelay(10);         
ARM GAS  C:\Users\RECEPC~1\AppData\Local\Temp\ccp152bc.s 			page 26


1400:.\main.c      ****                 Display2_ClearRxBuffer();
1401:.\main.c      ****             }
1402:.\main.c      ****             if(count_protector>=30){
1403:.\main.c      ****                 flowDisplay2 = 0;	
1404:.\main.c      ****     			count_protector=0;
1405:.\main.c      ****                 SetPicture(2,DISPLAY_INICIO0);
1406:.\main.c      ****     		}
1407:.\main.c      ****         break;
1408:.\main.c      ****                                         
1409:.\main.c      ****             
1410:.\main.c      ****         case 7:
1411:.\main.c      ****             //isr_3_StartEx(animacion);
1412:.\main.c      ****             //Timer_Animacion_Start();
1413:.\main.c      ****             side.b.activeHose = PumpHoseActiveState(side.b.dir);  
1414:.\main.c      ****             if (side.b.activeHose == side.b.hose){                
1415:.\main.c      ****                 if(PresetData(side.b.dir,side.b.activeHose,bufferDisplay2.presetValue[0],bufferDisp
1416:.\main.c      ****                     isr_4_Stop(); 
1417:.\main.c      ****                     Timer_Animacion2_Stop();
1418:.\main.c      ****                     get_state(side.b.dir);
1419:.\main.c      ****                     //CyDelay(20);
1420:.\main.c      ****                     Pump_PutChar(0x10|side.b.dir);//Autoriza el surtidor
1421:.\main.c      ****                     //CyDelay(50);
1422:.\main.c      ****                     side.b.RFstateReport = 1;                    
1423:.\main.c      ****                     flowDisplay2 = 8;                    
1424:.\main.c      ****                     count_protector2 = 0;                                            
1425:.\main.c      ****                     SetPicture(2,DISPLAY_DESPACHANDO);   
1426:.\main.c      ****                     ShowMessage(2,(bufferDisplay2.presetValue[0]),18);
1427:.\main.c      ****                 }else{
1428:.\main.c      ****                     flowDisplay2 = 0;
1429:.\main.c      ****                     SetPicture(2,DISPLAY_ERROR);
1430:.\main.c      ****                     CyDelay(200);
1431:.\main.c      ****                     SetPicture(2,DISPLAY_INICIO0);
1432:.\main.c      ****                 }
1433:.\main.c      ****             }else{
1434:.\main.c      ****                 flowDisplay2 = 7;                
1435:.\main.c      **** //                if(count_protector>=60){
1436:.\main.c      **** //                    flowDisplay2 = 0;	
1437:.\main.c      **** //        			count_protector=0;
1438:.\main.c      **** //                    SetPicture(2,DISPLAY_INICIO0);
1439:.\main.c      **** //        		}
1440:.\main.c      ****             }
1441:.\main.c      ****             if(Display2_GetRxBufferSize()==8){
1442:.\main.c      ****                 if((Display2_rxBuffer[0]==0xAA) && (Display2_rxBuffer[6]==0xC3) && (Display2_rxBuff
1443:.\main.c      ****                     switch(Display2_rxBuffer[3]){                        
1444:.\main.c      ****                         case 0x7E:  //Pantalla Inicial                                             
1445:.\main.c      ****                             SetPicture(2,DISPLAY_INICIO0);
1446:.\main.c      ****                             flowDisplay2 = 0;
1447:.\main.c      ****                         break;
1448:.\main.c      ****                     }                    
1449:.\main.c      ****                 }
1450:.\main.c      ****                 CyDelay(10);                         
1451:.\main.c      ****             }
1452:.\main.c      ****             Display2_ClearRxBuffer();
1453:.\main.c      ****         break;
1454:.\main.c      ****             
1455:.\main.c      ****         case 8:            
1456:.\main.c      ****             side.b.pumpState = get_state(side.b.dir);
ARM GAS  C:\Users\RECEPC~1\AppData\Local\Temp\ccp152bc.s 			page 27


1457:.\main.c      ****             switch (side.b.pumpState){
1458:.\main.c      ****                 case PUMP_IDLE: //Espera - venta cero
1459:.\main.c      ****                     flowDisplay2 = 0;
1460:.\main.c      ****                     side.b.rfState = RF_ZERO_SALE;
1461:.\main.c      ****                     bufferDisplay2.flagActiveSale = false;
1462:.\main.c      ****                     SetPicture(2,DISPLAY_INICIO0);
1463:.\main.c      ****                 break;
1464:.\main.c      ****                 case PUMP_BUSY: //Surtiendo                    
1465:.\main.c      ****                     bufferDisplay2.flagActiveSale = true;
1466:.\main.c      ****                     bufferDisplay2.flagEndSale = false;
1467:.\main.c      ****                     //side.a.rfState = RF_DELIVERING;
1468:.\main.c      ****                 break;
1469:.\main.c      ****                 case PUMP_PEOT: //reporte fin venta                    
1470:.\main.c      ****                     if(getSale(side.b.dir)){
1471:.\main.c      ****                         if(bufferDisplay2.flagPrint ==1){
1472:.\main.c      ****                             imprimir(printPortB,side.b.dir);
1473:.\main.c      ****                             flowDisplay2 = 0;
1474:.\main.c      ****                             SetPicture(2,DISPLAY_INICIO0); 
1475:.\main.c      ****                         }else{
1476:.\main.c      ****                             flowDisplay2 = 6;
1477:.\main.c      ****                             bufferDisplay2.flagEndSale = true;
1478:.\main.c      ****                             SetPicture(2,DISPLAY_DESEA_IMPRIMIR_RECIBO); 
1479:.\main.c      ****                         }
1480:.\main.c      ****                         bufferDisplay2.flagActiveSale = false;
1481:.\main.c      ****                         side.b.RFstateReport = 1;
1482:.\main.c      ****                     }                                         
1483:.\main.c      ****                 break;
1484:.\main.c      ****                 case PUMP_FEOT: //Reporte de venta
1485:.\main.c      ****                     if(getSale(side.b.dir)){
1486:.\main.c      ****                         if(bufferDisplay2.flagPrint ==1){
1487:.\main.c      ****                             imprimir(printPortB,side.b.dir);
1488:.\main.c      ****                             flowDisplay2 = 0;
1489:.\main.c      ****                             SetPicture(2,DISPLAY_INICIO0); 
1490:.\main.c      ****                         }else{
1491:.\main.c      ****                             flowDisplay2 = 6;
1492:.\main.c      ****                             bufferDisplay2.flagEndSale = true;
1493:.\main.c      ****                             SetPicture(2,DISPLAY_DESEA_IMPRIMIR_RECIBO); 
1494:.\main.c      ****                         }
1495:.\main.c      ****                         bufferDisplay2.flagActiveSale = false;
1496:.\main.c      ****                         side.b.RFstateReport = 1;
1497:.\main.c      ****                     }
1498:.\main.c      ****                 break;
1499:.\main.c      ****                 
1500:.\main.c      ****             }
1501:.\main.c      ****             
1502:.\main.c      ****         break;
1503:.\main.c      ****             
1504:.\main.c      ****         case 9: //Teclado           
1505:.\main.c      ****             switch (alphanumeric_keyboard(2,10,0)){
1506:.\main.c      ****                 case 0: //Cancelar
1507:.\main.c      ****                     switch(bufferDisplay2.flagKeyboard){
1508:.\main.c      ****                         case 1://Placa
1509:.\main.c      ****                             for(x=0;x<=10;x++){
1510:.\main.c      ****                                 bufferDisplay2.licenceSale[x]=0;
1511:.\main.c      ****                             }
1512:.\main.c      ****                             flowDisplay2 = 0;//Inicio
1513:.\main.c      ****                             SetPicture(2,DISPLAY_INICIO0);
ARM GAS  C:\Users\RECEPC~1\AppData\Local\Temp\ccp152bc.s 			page 28


1514:.\main.c      ****                         break;
1515:.\main.c      ****                         
1516:.\main.c      ****                         case 2://Kilometraje
1517:.\main.c      ****                             for(x=0;x<=10;x++){
1518:.\main.c      ****                                 bufferDisplay2.mileageSale[x]=0;
1519:.\main.c      ****                             }
1520:.\main.c      ****                         break;
1521:.\main.c      ****                         
1522:.\main.c      ****                         case 3://CC/NIT
1523:.\main.c      ****                             for(x=0;x<=10;x++){
1524:.\main.c      ****                                 bufferDisplay2.identySale[x]=0;
1525:.\main.c      ****                             }
1526:.\main.c      ****                         break;
1527:.\main.c      ****                         case 4://ID
1528:.\main.c      ****                             for(x=0;x<=10;x++){
1529:.\main.c      ****                                 bufferDisplay2.shiftId[x]=0;
1530:.\main.c      ****                             }
1531:.\main.c      ****                         break;
1532:.\main.c      ****                     }                    
1533:.\main.c      ****                     Display2_ClearRxBuffer();
1534:.\main.c      ****                 break;
1535:.\main.c      ****                     
1536:.\main.c      ****                 case 1: //Enter
1537:.\main.c      ****                     switch(bufferDisplay2.flagKeyboard){
1538:.\main.c      ****                         case 1://Placa
1539:.\main.c      ****                             for(x=0;x<=bufferDisplay2.valueKeys[0];x++){
1540:.\main.c      ****                                 bufferDisplay2.licenceSale[x]=bufferDisplay2.valueKeys[x];
1541:.\main.c      ****                             }
1542:.\main.c      ****                             if(bufferDisplay2.flagEndSale){
1543:.\main.c      ****                                 imprimir(printPortB,side.b.dir);
1544:.\main.c      ****                                 flowDisplay2 = 0;
1545:.\main.c      ****                                 SetPicture(2,DISPLAY_INICIO0); 
1546:.\main.c      ****                             }else{
1547:.\main.c      ****                                 flowDisplay2 = 7;//Suba manija
1548:.\main.c      ****                                 SetPicture(2,DISPLAY_SUBA_MANIJA);
1549:.\main.c      ****                             }
1550:.\main.c      ****                         break;
1551:.\main.c      ****                         
1552:.\main.c      ****                         case 2://Kilometraje
1553:.\main.c      ****                             for(x=0;x<=bufferDisplay2.valueKeys[0];x++){
1554:.\main.c      ****                                 bufferDisplay2.mileageSale[x]=bufferDisplay2.valueKeys[x];
1555:.\main.c      ****                             }
1556:.\main.c      ****                             flowDisplay2 = 7;//Suba manija
1557:.\main.c      ****                             SetPicture(2,DISPLAY_SUBA_MANIJA);
1558:.\main.c      ****                         break;
1559:.\main.c      ****                         
1560:.\main.c      ****                         case 3://CC/NIT
1561:.\main.c      ****                             for(x=0;x<=bufferDisplay2.valueKeys[0];x++){
1562:.\main.c      ****                                 bufferDisplay2.identySale[x]=bufferDisplay2.valueKeys[x];
1563:.\main.c      ****                             }
1564:.\main.c      ****                         case 4://ID
1565:.\main.c      ****                             for(x=0;x<=10;x++){
1566:.\main.c      ****                                 bufferDisplay2.shiftId[x] =bufferDisplay2.valueKeys[x];
1567:.\main.c      ****                             }
1568:.\main.c      ****                             flowDisplay2 = 14;//Pide clave                            
1569:.\main.c      ****                             numberKeys1 = 0;
1570:.\main.c      ****                             hiddenKeys = 10;
ARM GAS  C:\Users\RECEPC~1\AppData\Local\Temp\ccp152bc.s 			page 29


1571:.\main.c      ****                             controlChar ='*';
1572:.\main.c      ****                             bufferDisplay2.flagKeyboard = 3;
1573:.\main.c      ****                             SetPicture(2,DISPLAY_INGRESE_PASSWORD);
1574:.\main.c      ****                         break;
1575:.\main.c      ****                     }                    
1576:.\main.c      ****                     Display2_ClearRxBuffer();
1577:.\main.c      ****                 break;
1578:.\main.c      ****             }            
1579:.\main.c      ****         break;    
1580:.\main.c      ****     ////////////////// CASOS PARA CRÉDITO  /////////////////////
1581:.\main.c      ****         case 10:
1582:.\main.c      ****             if(Display2_GetRxBufferSize()==8){
1583:.\main.c      ****                 if((Display2_rxBuffer[0]==0xAA) && (Display2_rxBuffer[6]==0xC3) && (Display2_rxBuff
1584:.\main.c      ****                     switch(Display2_rxBuffer[3]){
1585:.\main.c      ****                         case 0xB6:  //Solicitud ibutton  
1586:.\main.c      ****                             flowDisplay2 = 11;
1587:.\main.c      ****                             numberKeys1 = 0;                            
1588:.\main.c      ****                             bufferDisplay2.flagPrint =  1;
1589:.\main.c      ****                             SetPicture(2,DISPLAY_ESPERANDO_ID);                            
1590:.\main.c      ****                         break; 
1591:.\main.c      ****                         case 0xB7:  //ID por número
1592:.\main.c      ****                             bufferDisplay2.flagKeyboard = 0;
1593:.\main.c      ****                             flowDisplay2 = 7;//Esperando estado del dispensador  
1594:.\main.c      ****                             count_protector=0;
1595:.\main.c      ****                             SetPicture(2,DISPLAY_SUBA_MANIJA);                            
1596:.\main.c      ****                         break;
1597:.\main.c      ****                         case 0x94:  //Pantalla Inicial    
1598:.\main.c      ****                             flowDisplay2 = 0;
1599:.\main.c      ****                             SetPicture(2,DISPLAY_INICIO0);                            
1600:.\main.c      ****                         break;
1601:.\main.c      ****                         case 0x7E:  //Pantalla Inicial                                             
1602:.\main.c      ****                             SetPicture(2,DISPLAY_INICIO0);
1603:.\main.c      ****                             flowDisplay2 = 0;
1604:.\main.c      ****                         break;
1605:.\main.c      ****                     }                    
1606:.\main.c      ****                 }
1607:.\main.c      ****                 CyDelay(10);         
1608:.\main.c      ****                 Display2_ClearRxBuffer();
1609:.\main.c      ****             }                        
1610:.\main.c      ****         break;
1611:.\main.c      ****         
1612:.\main.c      ****         case 11:
1613:.\main.c      ****             isr_3_StartEx(animacion);
1614:.\main.c      ****             Timer_Animacion_Start();
1615:.\main.c      ****             if(touch_present(2)==1){
1616:.\main.c      **** 				if(touch_write(1,0x33)){
1617:.\main.c      **** 					for(x=1;x<=8;x++){
1618:.\main.c      **** 						temporal[x]=touch_read_byte(2);
1619:.\main.c      **** 					}
1620:.\main.c      **** 					y=0;
1621:.\main.c      **** 					for(x=1;x<8;x++){
1622:.\main.c      ****                         y=crc_check(y,temporal[x]);
1623:.\main.c      ****                     }
1624:.\main.c      **** 					if(y==temporal[8]){
1625:.\main.c      **** 						bufferDisplay2.idSerial[0]=16;
1626:.\main.c      **** 						y=16;
1627:.\main.c      **** 						for(x=1;x<=8;x++){
ARM GAS  C:\Users\RECEPC~1\AppData\Local\Temp\ccp152bc.s 			page 30


1628:.\main.c      **** 							if((temporal[x]&0x0F)>=10){
1629:.\main.c      **** 								bufferDisplay2.idSerial[y]=(temporal[x]&0x0F)+55;
1630:.\main.c      **** 							}else{
1631:.\main.c      **** 								bufferDisplay2.idSerial[y]=(temporal[x]&0x0F)+48;				
1632:.\main.c      **** 							}
1633:.\main.c      ****                             y--;
1634:.\main.c      **** 							if(((temporal[x]>>4)&0x0F)>=10){
1635:.\main.c      **** 								bufferDisplay2.idSerial[y]=((temporal[x]>>4)&0x0F)+55;
1636:.\main.c      **** 							}else{
1637:.\main.c      **** 								bufferDisplay2.idSerial[y]=((temporal[x]>>4)&0x0F)+48;				
1638:.\main.c      **** 							}
1639:.\main.c      ****                             y--;
1640:.\main.c      **** 						}                        
1641:.\main.c      ****                         SetPicture(2,DISPLAY_ID_RECONOCIDO);                                       
1642:.\main.c      ****                         Display2_ClearRxBuffer();
1643:.\main.c      ****                         CyDelay(700);
1644:.\main.c      ****                         bufferDisplay2.flagKeyboard = 2;
1645:.\main.c      ****                         flowDisplay2 = 9;
1646:.\main.c      ****                         SetPicture(2,DISPLAY_INTRODUZCA_KILOMETRAJE);
1647:.\main.c      ****                         
1648:.\main.c      **** 					}
1649:.\main.c      **** 				}
1650:.\main.c      **** 			}
1651:.\main.c      ****             if(count_protector>=60){
1652:.\main.c      ****                 flowDisplay2 = 0;	
1653:.\main.c      ****     			count_protector=0;
1654:.\main.c      ****                 SetPicture(2,DISPLAY_INICIO0);
1655:.\main.c      ****     		}
1656:.\main.c      ****                                     
1657:.\main.c      ****         break;    
1658:.\main.c      ****     ///////////////FIN CASOS PARA CRÉDITO  /////////////////////  
1659:.\main.c      ****     
1660:.\main.c      ****     //////////// CASOS PARA CONFIGURACIONES  ///////////////////
1661:.\main.c      ****         case 12:
1662:.\main.c      ****             if(Display2_GetRxBufferSize()==8){
1663:.\main.c      ****                 if((Display2_rxBuffer[0]==0xAA) && (Display2_rxBuffer[6]==0xC3) && (Display2_rxBuff
1664:.\main.c      ****                     switch(Display2_rxBuffer[3]){
1665:.\main.c      ****                         case 0x46:  //Turnos              
1666:.\main.c      ****                             flowDisplay2 = 13; 
1667:.\main.c      ****                             if(lockTurn ==1){
1668:.\main.c      ****                                 SetPicture(2,DISPLAY_CERRAR_TURNO);
1669:.\main.c      ****                             }else{
1670:.\main.c      ****                                 SetPicture(2,DISPLAY_ABRIR_TURNO);
1671:.\main.c      ****                             }                            
1672:.\main.c      ****                         break;
1673:.\main.c      ****                         case 0x55:  //Configurar módulo 
1674:.\main.c      ****                             flowDisplay2 = 14;
1675:.\main.c      ****                             bufferDisplay2.flagKeyboard = 6;
1676:.\main.c      ****                             numberKeys1 = 0;
1677:.\main.c      ****                             hiddenKeys = 5;
1678:.\main.c      ****                             controlChar ='*';
1679:.\main.c      ****                             SetPicture(2,DISPLAY_INGRESE_PASSWORD);                           
1680:.\main.c      ****                         break;
1681:.\main.c      ****                         case 0xB5:  //Copia de recibo 
1682:.\main.c      ****                             flowDisplay2  = 0;
1683:.\main.c      ****                             side.b.RFstateReport = 1;
1684:.\main.c      ****                             side.b.rfState = RF_COPY_RECEIPT;
ARM GAS  C:\Users\RECEPC~1\AppData\Local\Temp\ccp152bc.s 			page 31


1685:.\main.c      ****                             SetPicture(2,DISPLAY_INICIO0);                            
1686:.\main.c      ****                         break;
1687:.\main.c      ****                         
1688:.\main.c      ****                         case 0x3B:  //Pantalla Inicial    
1689:.\main.c      ****                             flowDisplay2 = 0;
1690:.\main.c      ****                             SetPicture(2,DISPLAY_INICIO0);                            
1691:.\main.c      ****                         break;
1692:.\main.c      ****                             
1693:.\main.c      ****                         case 0x94:  //Pantalla Inicial    
1694:.\main.c      ****                             flowDisplay2 = 0;
1695:.\main.c      ****                             SetPicture(2,DISPLAY_INICIO0);                            
1696:.\main.c      ****                         break;
1697:.\main.c      ****                         
1698:.\main.c      ****                         case 0x7E:  //Pantalla Inicial    
1699:.\main.c      ****                             flowDisplay2 = 0;
1700:.\main.c      ****                             SetPicture(2,DISPLAY_INICIO0);                            
1701:.\main.c      ****                         break;
1702:.\main.c      ****                     }
1703:.\main.c      ****                 }  
1704:.\main.c      ****                 CyDelay(10);         
1705:.\main.c      ****                 Display2_ClearRxBuffer();
1706:.\main.c      ****             }
1707:.\main.c      ****         break;
1708:.\main.c      **** 
1709:.\main.c      ****         case 13:
1710:.\main.c      ****             if(Display2_GetRxBufferSize()==8){
1711:.\main.c      ****                 if((Display2_rxBuffer[0]==0xAA) && (Display2_rxBuffer[6]==0xC3) && (Display2_rxBuff
1712:.\main.c      ****                     switch(Display2_rxBuffer[3]){
1713:.\main.c      ****                         case 0x47:  //Cambio de turno: Abrir  
1714:.\main.c      ****                             flowDisplay2 = 9;
1715:.\main.c      ****                             numberKeys1 = 0;    
1716:.\main.c      ****                             bufferDisplay2.flagKeyboard = 4;
1717:.\main.c      ****                             SetPicture(2,DISPLAY_INTRODUZCA_CEDULA);                            
1718:.\main.c      ****                         break;
1719:.\main.c      ****                         case 0x48:  //Cambio de turno: Cerrar 
1720:.\main.c      ****                             flowDisplay2 = 9;
1721:.\main.c      ****                             numberKeys1 = 0;   
1722:.\main.c      ****                             bufferDisplay2.flagKeyboard = 4;
1723:.\main.c      ****                             SetPicture(2,DISPLAY_INTRODUZCA_CEDULA);                           
1724:.\main.c      ****                         break;                         
1725:.\main.c      ****                         case 0x7E:  //Pantalla Inicial                                             
1726:.\main.c      ****                             SetPicture(2,DISPLAY_INICIO0);
1727:.\main.c      ****                             flowDisplay2 = 0;
1728:.\main.c      ****                         break;
1729:.\main.c      ****                         case 0x94:  //Pantalla Inicial                                             
1730:.\main.c      ****                             SetPicture(2,DISPLAY_INICIO0);
1731:.\main.c      ****                             flowDisplay2 = 0;
1732:.\main.c      ****                         break;
1733:.\main.c      ****                     }                    
1734:.\main.c      ****                 }
1735:.\main.c      ****                 CyDelay(10);         
1736:.\main.c      ****                 Display2_ClearRxBuffer();
1737:.\main.c      ****             }                        
1738:.\main.c      ****         break; 
1739:.\main.c      ****             
1740:.\main.c      ****         case 14: //Teclado general      
1741:.\main.c      ****             switch (alphanumeric_keyboard(2,hiddenKeys,controlChar)){
ARM GAS  C:\Users\RECEPC~1\AppData\Local\Temp\ccp152bc.s 			page 32


1742:.\main.c      ****                 case 0: //Cancelar
1743:.\main.c      ****                     switch(bufferDisplay2.flagKeyboard){
1744:.\main.c      ****                         case 1://ID Estacion
1745:.\main.c      ****                             for(x=0;x<=4;x++){
1746:.\main.c      ****                                 idStation[x]=0;
1747:.\main.c      ****                             }
1748:.\main.c      ****                             flowDisplay2 = 0;
1749:.\main.c      ****                             SetPicture(2,DISPLAY_INICIO0);
1750:.\main.c      ****                         break;
1751:.\main.c      ****                         case 2://Umbral
1752:.\main.c      ****                             for(x=0;x< hiddenKeys;x++){
1753:.\main.c      ****                                 pumpGap[x]=0;
1754:.\main.c      ****                             }
1755:.\main.c      ****                             flowDisplay2 = 0;
1756:.\main.c      ****                             SetPicture(2,DISPLAY_INICIO0);
1757:.\main.c      ****                         break;
1758:.\main.c      ****                         case 3://Pass turno
1759:.\main.c      ****                             for(x=0;x< hiddenKeys;x++){
1760:.\main.c      ****                                 bufferDisplay2.shiftPassword[x]=0;
1761:.\main.c      ****                             }
1762:.\main.c      ****                             flowDisplay2 = 0;
1763:.\main.c      ****                             SetPicture(2,DISPLAY_INICIO0);
1764:.\main.c      ****                         break;
1765:.\main.c      ****                         case 5://Pass
1766:.\main.c      ****                             for(x=0;x< hiddenKeys;x++){
1767:.\main.c      ****                                 bufferDisplay2.shiftPassword[x]=0;
1768:.\main.c      ****                             }
1769:.\main.c      ****                             flowDisplay2 = 0;
1770:.\main.c      ****                             SetPicture(2,DISPLAY_INICIO0);
1771:.\main.c      ****                         break;
1772:.\main.c      ****                             
1773:.\main.c      ****                         case 6://Pass
1774:.\main.c      ****                             for(x=1;x<=configAccess[0];x++){
1775:.\main.c      ****                                 configAccess[x]=0;
1776:.\main.c      ****                             }
1777:.\main.c      ****                             flowDisplay2 = 0;
1778:.\main.c      ****                             SetPicture(2,DISPLAY_INICIO0);
1779:.\main.c      ****                         break;
1780:.\main.c      ****                     }                    
1781:.\main.c      ****                     Display2_ClearRxBuffer();
1782:.\main.c      ****                 break;
1783:.\main.c      ****                     
1784:.\main.c      ****                 case 1: //Enter
1785:.\main.c      ****                     switch(bufferDisplay2.flagKeyboard){   
1786:.\main.c      ****                         case 1://ID Estacion
1787:.\main.c      ****                             for(x=0;x <=4;x++){
1788:.\main.c      ****                                 idStation[x] =bufferDisplay2.valueKeys[x+1];                       
1789:.\main.c      ****                             }
1790:.\main.c      ****                             idStation[4] = 0x00;
1791:.\main.c      ****                             intIDStation = atoi(idStation);
1792:.\main.c      ****                             IDCast[0] = intIDStation;
1793:.\main.c      ****                             IDCast[1] = intIDStation>>8;
1794:.\main.c      ****                             EEPROM_1_WriteByte(IDCast[0],10);
1795:.\main.c      ****                             EEPROM_1_WriteByte(IDCast[1],11);
1796:.\main.c      ****                             flowDisplay2 = 15;
1797:.\main.c      ****                             SetPicture(2,DISPLAY_CONFIGURACIONES);
1798:.\main.c      ****                         break;
ARM GAS  C:\Users\RECEPC~1\AppData\Local\Temp\ccp152bc.s 			page 33


1799:.\main.c      ****                         case 2://Pass
1800:.\main.c      ****                             for(x=0;x < hiddenKeys;x++){
1801:.\main.c      ****                                 pumpGap[x] =bufferDisplay2.valueKeys[x];
1802:.\main.c      ****                             }
1803:.\main.c      ****                             flowDisplay2 = 15;
1804:.\main.c      ****                             SetPicture(2,DISPLAY_CONFIGURACIONES);
1805:.\main.c      ****                         break;
1806:.\main.c      ****                         case 3://Pass turno
1807:.\main.c      ****                             for(x=0;x < hiddenKeys;x++){
1808:.\main.c      ****                                 bufferDisplay2.shiftPassword[x] =bufferDisplay2.valueKeys[x];
1809:.\main.c      ****                             }
1810:.\main.c      ****                             flowDisplay2 = 19;
1811:.\main.c      ****                             SetPicture(2,DISPLAY_POR_FAVOR_ESPERE);
1812:.\main.c      ****                         break;
1813:.\main.c      ****                         case 5://Pass
1814:.\main.c      ****                             for(x=0;x < hiddenKeys;x++){
1815:.\main.c      ****                                 bufferDisplay2.shiftPassword[x] =bufferDisplay2.valueKeys[x];
1816:.\main.c      ****                             }
1817:.\main.c      ****                             flowDisplay2 = 15;
1818:.\main.c      ****                             SetPicture(2,DISPLAY_CONFIGURACIONES);
1819:.\main.c      ****                         break; 
1820:.\main.c      ****                         case 6://Pass
1821:.\main.c      ****                             for(x=1;x<=configAccess[0];x++){
1822:.\main.c      ****                                 configAccess[x] =bufferDisplay2.valueKeys[x];
1823:.\main.c      ****                             }
1824:.\main.c      ****                             if(configAccess[1] == passwordPump[1] && configAccess[2] == passwordPum
1825:.\main.c      ****                                 SetPicture(2,DISPLAY_PASSWORD_VALIDO);
1826:.\main.c      ****                                 CyDelay(700);
1827:.\main.c      ****                                 flowDisplay2 = 15;
1828:.\main.c      ****                                 SetPicture(2,DISPLAY_CONFIGURACIONES);
1829:.\main.c      ****                             }else{
1830:.\main.c      ****                                 SetPicture(2,DISPLAY_PASSWORD_INVALIDO);
1831:.\main.c      ****                                 CyDelay(700);
1832:.\main.c      ****                                 flowDisplay2 = 0;
1833:.\main.c      ****                                 SetPicture(2,DISPLAY_INICIO0);
1834:.\main.c      ****                             }
1835:.\main.c      ****                         break;
1836:.\main.c      ****                     }                    
1837:.\main.c      ****                     Display2_ClearRxBuffer();
1838:.\main.c      ****                 break;
1839:.\main.c      ****             }            
1840:.\main.c      ****         break;
1841:.\main.c      ****             
1842:.\main.c      ****         case 15:
1843:.\main.c      ****             if(Display2_GetRxBufferSize()==8){
1844:.\main.c      ****                 if((Display2_rxBuffer[0]==0xAA) && (Display2_rxBuffer[6]==0xC3) && (Display2_rxBuff
1845:.\main.c      ****                     switch(Display2_rxBuffer[3]){
1846:.\main.c      ****                         case 0x82:  //ID Estacion  
1847:.\main.c      ****                             flowDisplay2 = 14;
1848:.\main.c      ****                             numberKeys1 = 0; 
1849:.\main.c      ****                             controlChar = 0;
1850:.\main.c      ****                             hiddenKeys  = 5;
1851:.\main.c      ****                             bufferDisplay2.flagKeyboard = 1;
1852:.\main.c      ****                             SetPicture(2,DISPLAY_INTRODUZCA_VALOR);                            
1853:.\main.c      ****                         break;
1854:.\main.c      ****                         case 0x65:  //Test Impresoras 
1855:.\main.c      ****                             flowDisplay2 = 16; 
ARM GAS  C:\Users\RECEPC~1\AppData\Local\Temp\ccp152bc.s 			page 34


1856:.\main.c      ****                             PrintTest();
1857:.\main.c      ****                             SetPicture(2,DISPLAY_AMBAS_IMPRESORAS_FUNCIONANDO);                    
1858:.\main.c      ****                         break;
1859:.\main.c      ****                         
1860:.\main.c      ****                         case 0x5A:  //Umbral 
1861:.\main.c      ****                             flowDisplay2 = 14;
1862:.\main.c      ****                             numberKeys1 = 0;
1863:.\main.c      ****                             controlChar = 0;
1864:.\main.c      ****                             hiddenKeys  = 3;
1865:.\main.c      ****                             pumpGap[0]  = 2;
1866:.\main.c      ****                             bufferDisplay2.flagKeyboard = 2;
1867:.\main.c      ****                             SetPicture(2,DISPLAY_INTRODUZCA_VALOR);                            
1868:.\main.c      ****                         break;
1869:.\main.c      ****                         case 0x58:  //Hora y Fecha
1870:.\main.c      ****                             flowDisplay2 = 18;
1871:.\main.c      ****                             numberKeys1 = 0;   
1872:.\main.c      ****                             bufferDisplay2.flagKeyboard = 4;
1873:.\main.c      ****                             SetPicture(2,DISPLAY_CONFIGURAR_FECHA_HORA);                           
1874:.\main.c      ****                         break;
1875:.\main.c      ****                         case 0x7E:  //Pantalla Inicial                                             
1876:.\main.c      ****                             SetPicture(2,DISPLAY_INICIO0);
1877:.\main.c      ****                             flowDisplay2 = 0;
1878:.\main.c      ****                         break;
1879:.\main.c      ****                         case 0x94:  //Pantalla Inicial                                             
1880:.\main.c      ****                             SetPicture(2,DISPLAY_INICIO0);
1881:.\main.c      ****                             flowDisplay2 = 0;
1882:.\main.c      ****                         break;
1883:.\main.c      ****                     }                    
1884:.\main.c      ****                 }
1885:.\main.c      ****                 CyDelay(10);         
1886:.\main.c      ****                 Display2_ClearRxBuffer();
1887:.\main.c      ****             }                        
1888:.\main.c      ****         break; 
1889:.\main.c      ****             
1890:.\main.c      ****         case 16:
1891:.\main.c      ****             if(Display2_GetRxBufferSize()==8){
1892:.\main.c      ****                 if((Display2_rxBuffer[0]==0xAA) && (Display2_rxBuffer[6]==0xC3) && (Display2_rxBuff
1893:.\main.c      ****                     switch(Display2_rxBuffer[3]){
1894:.\main.c      ****                         case 0x38:  //No funcionan  
1895:.\main.c      ****                             flowDisplay2 = 17;
1896:.\main.c      ****                             SetPicture(2,DISPLAY_IMPRESORA_NO_FUNCIONANDO);                        
1897:.\main.c      ****                         break;
1898:.\main.c      ****                         case 0x39:  //Si funcionan
1899:.\main.c      ****                             flowDisplay2 = 15; 
1900:.\main.c      ****                             printPortA = 1;
1901:.\main.c      ****                             printPortB = 2;
1902:.\main.c      ****                             EEPROM_1_WriteByte(printPortA,8);
1903:.\main.c      ****                             EEPROM_1_WriteByte(printPortB,9);
1904:.\main.c      ****                             SetPicture(2,DISPLAY_CONFIGURACIONES);
1905:.\main.c      ****                         break;
1906:.\main.c      ****                                                
1907:.\main.c      ****                         case 0x7E:  //Pantalla Inicial                                             
1908:.\main.c      ****                             SetPicture(2,DISPLAY_INICIO0);
1909:.\main.c      ****                             flowDisplay2 = 0;
1910:.\main.c      ****                         break;
1911:.\main.c      ****                         case 0x94:  //Pantalla Inicial                                             
1912:.\main.c      ****                             SetPicture(2,DISPLAY_INICIO0);
ARM GAS  C:\Users\RECEPC~1\AppData\Local\Temp\ccp152bc.s 			page 35


1913:.\main.c      ****                             flowDisplay2 = 0;
1914:.\main.c      ****                         break;
1915:.\main.c      ****                     }                    
1916:.\main.c      ****                 }
1917:.\main.c      ****                 CyDelay(10);         
1918:.\main.c      ****                 Display2_ClearRxBuffer();
1919:.\main.c      ****             }                        
1920:.\main.c      ****         break;
1921:.\main.c      ****             
1922:.\main.c      ****         case 17:
1923:.\main.c      ****             if(Display2_GetRxBufferSize()==8){
1924:.\main.c      ****                 if((Display2_rxBuffer[0]==0xAA) && (Display2_rxBuffer[6]==0xC3) && (Display2_rxBuff
1925:.\main.c      ****                     switch(Display2_rxBuffer[3]){
1926:.\main.c      ****                         case 0x8C:  //1 no funciona  
1927:.\main.c      ****                             flowDisplay2 = 15; 
1928:.\main.c      ****                             printPortA = 2;
1929:.\main.c      ****                             printPortB = 2;
1930:.\main.c      ****                             EEPROM_1_WriteByte(printPortA,8);
1931:.\main.c      ****                             EEPROM_1_WriteByte(printPortB,9);
1932:.\main.c      ****                             SetPicture(2,DISPLAY_CONFIGURACIONES);                            
1933:.\main.c      ****                         break;
1934:.\main.c      ****                         case 0x8D:  //2 no funciona
1935:.\main.c      ****                             flowDisplay2 = 15; 
1936:.\main.c      ****                             printPortA = 1;
1937:.\main.c      ****                             printPortB = 1;
1938:.\main.c      ****                             EEPROM_1_WriteByte(printPortA,8);
1939:.\main.c      ****                             EEPROM_1_WriteByte(printPortB,9);
1940:.\main.c      ****                             SetPicture(2,DISPLAY_CONFIGURACIONES); 
1941:.\main.c      ****                         break;
1942:.\main.c      ****                             
1943:.\main.c      ****                         case 0x8E:  //ninguna funciona
1944:.\main.c      ****                             flowDisplay2 = 15; 
1945:.\main.c      ****                             printPortA = 0;
1946:.\main.c      ****                             printPortB = 0;
1947:.\main.c      ****                             EEPROM_1_WriteByte(printPortA,8);
1948:.\main.c      ****                             EEPROM_1_WriteByte(printPortB,9);
1949:.\main.c      ****                             SetPicture(2,DISPLAY_CONFIGURACIONES); 
1950:.\main.c      ****                         break;
1951:.\main.c      ****                                                
1952:.\main.c      ****                         case 0x7E:  //Pantalla Inicial                                             
1953:.\main.c      ****                             SetPicture(2,DISPLAY_INICIO0);
1954:.\main.c      ****                             flowDisplay2 = 0;
1955:.\main.c      ****                         break;
1956:.\main.c      ****                         case 0x94:  //Pantalla Inicial                                             
1957:.\main.c      ****                             SetPicture(2,DISPLAY_INICIO0);
1958:.\main.c      ****                             flowDisplay2 = 0;
1959:.\main.c      ****                         break;
1960:.\main.c      ****                     }                    
1961:.\main.c      ****                 }
1962:.\main.c      ****                 CyDelay(10);         
1963:.\main.c      ****                 Display2_ClearRxBuffer();
1964:.\main.c      ****             }                        
1965:.\main.c      ****         break;
1966:.\main.c      ****             
1967:.\main.c      ****         case 18:
1968:.\main.c      ****             if(leer_hora()==1){
1969:.\main.c      ****                 WriteLCD(2,(((timeDownHandle[1]&0x10)>>4)+48),13,8,1,0x0000,'N');
ARM GAS  C:\Users\RECEPC~1\AppData\Local\Temp\ccp152bc.s 			page 36


1970:.\main.c      ****                 WriteLCD(2,((timeDownHandle[1]&0x0F)+48),13,9,1,0x0000,'N');
1971:.\main.c      ****                 WriteLCD(2,':',13,10,1,0x0000,'N');
1972:.\main.c      ****                 WriteLCD(2,(((timeDownHandle[0]&0xF0)>>4)+48),13,11,1,0x0000,'N');
1973:.\main.c      ****                 WriteLCD(2,((timeDownHandle[0]&0x0F)+48),13,12,1,0x0000,'N');               
1974:.\main.c      ****             }
1975:.\main.c      ****             if(leer_fecha()==1){                
1976:.\main.c      ****                 WriteLCD(2,(((dateDownHandle[0]&0x30)>>4)+48),21,8,1,0x0000,'N');
1977:.\main.c      ****                 WriteLCD(2,((dateDownHandle[0]&0x0F)+48),21,9,1,0x0000,'N');
1978:.\main.c      ****                 WriteLCD(2,'/',21,10,1,0x0000,'N');
1979:.\main.c      ****                 WriteLCD(2,(((dateDownHandle[1]&0x10)>>4)+48),21,11,1,0x0000,'N');
1980:.\main.c      ****                 WriteLCD(2,((dateDownHandle[1]&0x0F)+48),21,12,1,0x0000,'N');
1981:.\main.c      ****                 WriteLCD(2,'/',21,13,1,0x0000,'N');
1982:.\main.c      ****                 WriteLCD(2,(((dateDownHandle[2]&0xF0)>>4)+48),21,14,1,0x0000,'N');
1983:.\main.c      ****                 WriteLCD(2,((dateDownHandle[2]&0x0F)+48),21,15,1,0x0000,'N');
1984:.\main.c      ****             }
1985:.\main.c      ****             if(Display2_GetRxBufferSize()==8){
1986:.\main.c      ****                 if((Display2_rxBuffer[0]==0xAA) && (Display2_rxBuffer[6]==0xC3) && (Display2_rxBuff
1987:.\main.c      ****                     switch(Display2_rxBuffer[3]){                                                  
1988:.\main.c      ****                         case 0x7E:  //Pantalla Inicial  
1989:.\main.c      ****                             flowDisplay2 = 0;
1990:.\main.c      ****                             SetPicture(2,DISPLAY_INICIO0);                            
1991:.\main.c      ****                         break;
1992:.\main.c      ****                         case 0x94:  //Pantalla Inicial    
1993:.\main.c      ****                             flowDisplay2 = 0;
1994:.\main.c      ****                             SetPicture(2,DISPLAY_INICIO0);                            
1995:.\main.c      ****                         break;
1996:.\main.c      ****                     }                    
1997:.\main.c      ****                 }
1998:.\main.c      ****                 CyDelay(10);         
1999:.\main.c      ****                 Display2_ClearRxBuffer();
2000:.\main.c      ****             }                        
2001:.\main.c      ****         break;
2002:.\main.c      ****             
2003:.\main.c      ****         case 19:            
2004:.\main.c      ****             side.b.RFstateReport = 1;
2005:.\main.c      ****             ShiftState =1;
2006:.\main.c      ****         break;
2007:.\main.c      ****     countLCD = 0;       
2008:.\main.c      ****     }    
2009:.\main.c      ****     }
2010:.\main.c      **** 
2011:.\main.c      **** 
2012:.\main.c      **** /*
2013:.\main.c      **** ***************************************************************************************************
2014:.\main.c      **** *                                         CY_ISR(animacion)
2015:.\main.c      **** *
2016:.\main.c      **** * Description : Interrupcion que temporiza las imagenes informativas que aparecen en la pantalla 1
2017:.\main.c      **** *               
2018:.\main.c      **** *
2019:.\main.c      **** ***************************************************************************************************
2020:.\main.c      **** */
2021:.\main.c      **** CY_ISR(animacion){
  27              		.loc 1 2021 0
  28              		.cfi_startproc
  29              		@ args = 0, pretend = 0, frame = 0
  30              		@ frame_needed = 0, uses_anonymous_args = 0
  31 0000 08B5     		push	{r3, lr}
ARM GAS  C:\Users\RECEPC~1\AppData\Local\Temp\ccp152bc.s 			page 37


  32              		.cfi_def_cfa_offset 8
  33              		.cfi_offset 3, -8
  34              		.cfi_offset 14, -4
2022:.\main.c      ****     Timer_Animacion_ReadStatusRegister();    					
  35              		.loc 1 2022 0
  36 0002 FFF7FEFF 		bl	Timer_Animacion_ReadStatusRegister
  37              	.LVL0:
2023:.\main.c      ****     count_protector++; 							//Incrementa el contador 
  38              		.loc 1 2023 0
  39 0006 024A     		ldr	r2, .L3
  40 0008 1378     		ldrb	r3, [r2]	@ zero_extendqisi2
  41 000a 0133     		adds	r3, r3, #1
  42 000c 1370     		strb	r3, [r2]
  43 000e 08BD     		pop	{r3, pc}
  44              	.L4:
  45              		.align	2
  46              	.L3:
  47 0010 00000000 		.word	count_protector
  48              		.cfi_endproc
  49              	.LFE73:
  50              		.size	animacion, .-animacion
  51              		.section	.text.GlobalInitializer,"ax",%progbits
  52              		.align	2
  53              		.global	GlobalInitializer
  54              		.thumb
  55              		.thumb_func
  56              		.type	GlobalInitializer, %function
  57              	GlobalInitializer:
  58              	.LFB63:
  39:.\main.c      ****     EEPROM_1_Start();
  59              		.loc 1 39 0
  60              		.cfi_startproc
  61              		@ args = 0, pretend = 0, frame = 0
  62              		@ frame_needed = 0, uses_anonymous_args = 0
  63 0000 08B5     		push	{r3, lr}
  64              		.cfi_def_cfa_offset 8
  65              		.cfi_offset 3, -8
  66              		.cfi_offset 14, -4
  40:.\main.c      ****     Pump_Start(); 
  67              		.loc 1 40 0
  68 0002 FFF7FEFF 		bl	EEPROM_1_Start
  69              	.LVL1:
  41:.\main.c      ****     Display1_Start();
  70              		.loc 1 41 0
  71 0006 FFF7FEFF 		bl	Pump_Start
  72              	.LVL2:
  42:.\main.c      ****     Display2_Start();    
  73              		.loc 1 42 0
  74 000a FFF7FEFF 		bl	Display1_Start
  75              	.LVL3:
  43:.\main.c      ****     Printer_Start();   
  76              		.loc 1 43 0
  77 000e FFF7FEFF 		bl	Display2_Start
  78              	.LVL4:
  44:.\main.c      ****     I2C_Bus_Start();
  79              		.loc 1 44 0
  80 0012 FFF7FEFF 		bl	Printer_Start
ARM GAS  C:\Users\RECEPC~1\AppData\Local\Temp\ccp152bc.s 			page 38


  81              	.LVL5:
  45:.\main.c      ****     RF_Connection_Start();
  82              		.loc 1 45 0
  83 0016 FFF7FEFF 		bl	I2C_Bus_Start
  84              	.LVL6:
  46:.\main.c      ****     //isr_1_StartEx(timerRFRX); 
  85              		.loc 1 46 0
  86 001a FFF7FEFF 		bl	RF_Connection_Start
  87              	.LVL7:
  48:.\main.c      ****     //isr_2_StartEx(timerPump); 
  88              		.loc 1 48 0
  89 001e FFF7FEFF 		bl	Waitable_3_Start
  90              	.LVL8:
  50:.\main.c      ****     //isr_6_StartEx(pollingRF_Tx);
  91              		.loc 1 50 0
  92 0022 FFF7FEFF 		bl	Waitable_4_Start
  93              	.LVL9:
  94 0026 08BD     		pop	{r3, pc}
  95              		.cfi_endproc
  96              	.LFE63:
  97              		.size	GlobalInitializer, .-GlobalInitializer
  98              		.section	.text.StoreConfiguration,"ax",%progbits
  99              		.align	2
 100              		.global	StoreConfiguration
 101              		.thumb
 102              		.thumb_func
 103              		.type	StoreConfiguration, %function
 104              	StoreConfiguration:
 105              	.LFB64:
  53:.\main.c      ****     EEPROM_1_WriteByte(UnitType,0);
 106              		.loc 1 53 0
 107              		.cfi_startproc
 108              		@ args = 0, pretend = 0, frame = 0
 109              		@ frame_needed = 0, uses_anonymous_args = 0
 110 0000 10B5     		push	{r4, lr}
 111              		.cfi_def_cfa_offset 8
 112              		.cfi_offset 4, -8
 113              		.cfi_offset 14, -4
  54:.\main.c      ****     EEPROM_1_WriteByte(ConversionFactor,1);
 114              		.loc 1 54 0
 115 0002 1C4B     		ldr	r3, .L9
 116 0004 1878     		ldrb	r0, [r3]	@ zero_extendqisi2
 117 0006 0021     		movs	r1, #0
 118 0008 FFF7FEFF 		bl	EEPROM_1_WriteByte
 119              	.LVL10:
  55:.\main.c      ****     EEPROM_1_WriteByte(MoneyDec,2);
 120              		.loc 1 55 0
 121 000c 1A4B     		ldr	r3, .L9+4
 122 000e 1878     		ldrb	r0, [r3]	@ zero_extendqisi2
 123 0010 0121     		movs	r1, #1
 124 0012 FFF7FEFF 		bl	EEPROM_1_WriteByte
 125              	.LVL11:
  56:.\main.c      ****     EEPROM_1_WriteByte(VolDec,3);
 126              		.loc 1 56 0
 127 0016 194B     		ldr	r3, .L9+8
 128 0018 1878     		ldrb	r0, [r3]	@ zero_extendqisi2
 129 001a 0221     		movs	r1, #2
ARM GAS  C:\Users\RECEPC~1\AppData\Local\Temp\ccp152bc.s 			page 39


 130 001c FFF7FEFF 		bl	EEPROM_1_WriteByte
 131              	.LVL12:
  57:.\main.c      ****     EEPROM_1_WriteByte(PPUDec,4);
 132              		.loc 1 57 0
 133 0020 174B     		ldr	r3, .L9+12
 134 0022 1878     		ldrb	r0, [r3]	@ zero_extendqisi2
 135 0024 0321     		movs	r1, #3
 136 0026 FFF7FEFF 		bl	EEPROM_1_WriteByte
 137              	.LVL13:
  58:.\main.c      ****     EEPROM_1_WriteByte(DDMode,5);
 138              		.loc 1 58 0
 139 002a 164B     		ldr	r3, .L9+16
 140 002c 1878     		ldrb	r0, [r3]	@ zero_extendqisi2
 141 002e 0421     		movs	r1, #4
 142 0030 FFF7FEFF 		bl	EEPROM_1_WriteByte
 143              	.LVL14:
  59:.\main.c      ****     EEPROM_1_WriteByte(digits,6); 
 144              		.loc 1 59 0
 145 0034 144B     		ldr	r3, .L9+20
 146 0036 1878     		ldrb	r0, [r3]	@ zero_extendqisi2
 147 0038 0521     		movs	r1, #5
 148 003a FFF7FEFF 		bl	EEPROM_1_WriteByte
 149              	.LVL15:
  60:.\main.c      ****     EEPROM_1_WriteByte(side.a.dir,12);
 150              		.loc 1 60 0
 151 003e 134B     		ldr	r3, .L9+24
 152 0040 1878     		ldrb	r0, [r3]	@ zero_extendqisi2
 153 0042 0621     		movs	r1, #6
 154 0044 FFF7FEFF 		bl	EEPROM_1_WriteByte
 155              	.LVL16:
  61:.\main.c      ****     EEPROM_1_WriteByte(side.b.dir,13);
 156              		.loc 1 61 0
 157 0048 114C     		ldr	r4, .L9+28
 158 004a 2078     		ldrb	r0, [r4]	@ zero_extendqisi2
 159 004c 0C21     		movs	r1, #12
 160 004e FFF7FEFF 		bl	EEPROM_1_WriteByte
 161              	.LVL17:
  62:.\main.c      ****     EEPROM_1_WriteByte(side.c.dir,14);
 162              		.loc 1 62 0
 163 0052 94F80801 		ldrb	r0, [r4, #264]	@ zero_extendqisi2
 164 0056 0D21     		movs	r1, #13
 165 0058 FFF7FEFF 		bl	EEPROM_1_WriteByte
 166              	.LVL18:
  63:.\main.c      ****     EEPROM_1_WriteByte(side.d.dir,15);
 167              		.loc 1 63 0
 168 005c 94F81002 		ldrb	r0, [r4, #528]	@ zero_extendqisi2
 169 0060 0E21     		movs	r1, #14
 170 0062 FFF7FEFF 		bl	EEPROM_1_WriteByte
 171              	.LVL19:
  64:.\main.c      **** }
 172              		.loc 1 64 0
 173 0066 94F81803 		ldrb	r0, [r4, #792]	@ zero_extendqisi2
 174 006a 0F21     		movs	r1, #15
 175 006c FFF7FEFF 		bl	EEPROM_1_WriteByte
 176              	.LVL20:
 177 0070 10BD     		pop	{r4, pc}
 178              	.L10:
ARM GAS  C:\Users\RECEPC~1\AppData\Local\Temp\ccp152bc.s 			page 40


 179 0072 00BF     		.align	2
 180              	.L9:
 181 0074 00000000 		.word	UnitType
 182 0078 00000000 		.word	ConversionFactor
 183 007c 00000000 		.word	MoneyDec
 184 0080 00000000 		.word	VolDec
 185 0084 00000000 		.word	PPUDec
 186 0088 00000000 		.word	DDMode
 187 008c 00000000 		.word	digits
 188 0090 00000000 		.word	side
 189              		.cfi_endproc
 190              	.LFE64:
 191              		.size	StoreConfiguration, .-StoreConfiguration
 192              		.section	.text.loadConfiguration,"ax",%progbits
 193              		.align	2
 194              		.global	loadConfiguration
 195              		.thumb
 196              		.thumb_func
 197              		.type	loadConfiguration, %function
 198              	loadConfiguration:
 199              	.LFB65:
  66:.\main.c      ****     //uint8 x;
 200              		.loc 1 66 0
 201              		.cfi_startproc
 202              		@ args = 0, pretend = 0, frame = 0
 203              		@ frame_needed = 0, uses_anonymous_args = 0
 204 0000 10B5     		push	{r4, lr}
 205              		.cfi_def_cfa_offset 8
 206              		.cfi_offset 4, -8
 207              		.cfi_offset 14, -4
  68:.\main.c      ****     VolDec     = EEPROM_1_ReadByte(3);
 208              		.loc 1 68 0
 209 0002 0220     		movs	r0, #2
 210 0004 FFF7FEFF 		bl	EEPROM_1_ReadByte
 211              	.LVL21:
 212 0008 234B     		ldr	r3, .L13
 213 000a 1870     		strb	r0, [r3]
  69:.\main.c      ****     PPUDec     = EEPROM_1_ReadByte(4);
 214              		.loc 1 69 0
 215 000c 0320     		movs	r0, #3
 216 000e FFF7FEFF 		bl	EEPROM_1_ReadByte
 217              	.LVL22:
 218 0012 224B     		ldr	r3, .L13+4
 219 0014 1870     		strb	r0, [r3]
  70:.\main.c      ****     DDMode     = EEPROM_1_ReadByte(5);
 220              		.loc 1 70 0
 221 0016 0420     		movs	r0, #4
 222 0018 FFF7FEFF 		bl	EEPROM_1_ReadByte
 223              	.LVL23:
 224 001c 204B     		ldr	r3, .L13+8
 225 001e 1870     		strb	r0, [r3]
  71:.\main.c      ****     digits     = EEPROM_1_ReadByte(6);
 226              		.loc 1 71 0
 227 0020 0520     		movs	r0, #5
 228 0022 FFF7FEFF 		bl	EEPROM_1_ReadByte
 229              	.LVL24:
 230 0026 1F4B     		ldr	r3, .L13+12
ARM GAS  C:\Users\RECEPC~1\AppData\Local\Temp\ccp152bc.s 			page 41


 231 0028 1870     		strb	r0, [r3]
  72:.\main.c      ****     lockTurn   = EEPROM_1_ReadByte(7);  //Fijo turno abierto para pruebas
 232              		.loc 1 72 0
 233 002a 0620     		movs	r0, #6
 234 002c FFF7FEFF 		bl	EEPROM_1_ReadByte
 235              	.LVL25:
 236 0030 1D4B     		ldr	r3, .L13+16
 237 0032 1870     		strb	r0, [r3]
  73:.\main.c      ****     printPortA = EEPROM_1_ReadByte(8);  //Puertos de impresion
 238              		.loc 1 73 0
 239 0034 0720     		movs	r0, #7
 240 0036 FFF7FEFF 		bl	EEPROM_1_ReadByte
 241              	.LVL26:
 242 003a 1C4B     		ldr	r3, .L13+20
 243 003c 1870     		strb	r0, [r3]
  74:.\main.c      ****     printPortB = EEPROM_1_ReadByte(9); //Puertos de impresion
 244              		.loc 1 74 0
 245 003e 0820     		movs	r0, #8
 246 0040 FFF7FEFF 		bl	EEPROM_1_ReadByte
 247              	.LVL27:
 248 0044 1A4B     		ldr	r3, .L13+24
 249 0046 1870     		strb	r0, [r3]
  75:.\main.c      ****     IDCast[0]  = EEPROM_1_ReadByte(10); //ID Estacion1
 250              		.loc 1 75 0
 251 0048 0920     		movs	r0, #9
 252 004a FFF7FEFF 		bl	EEPROM_1_ReadByte
 253              	.LVL28:
 254 004e 194B     		ldr	r3, .L13+28
 255 0050 1870     		strb	r0, [r3]
  76:.\main.c      ****     IDCast[1]  = EEPROM_1_ReadByte(11); //ID Estacion2    
 256              		.loc 1 76 0
 257 0052 0A20     		movs	r0, #10
 258 0054 FFF7FEFF 		bl	EEPROM_1_ReadByte
 259              	.LVL29:
 260 0058 174C     		ldr	r4, .L13+32
 261 005a 2070     		strb	r0, [r4]
  77:.\main.c      ****     passwordPump[0] = 0x04;
 262              		.loc 1 77 0
 263 005c 0B20     		movs	r0, #11
 264 005e FFF7FEFF 		bl	EEPROM_1_ReadByte
 265              	.LVL30:
 266 0062 6070     		strb	r0, [r4, #1]
  78:.\main.c      ****     configAccess[0] = 0x04; 
 267              		.loc 1 78 0
 268 0064 0423     		movs	r3, #4
 269 0066 154A     		ldr	r2, .L13+36
 270 0068 1370     		strb	r3, [r2]
  79:.\main.c      ****     side.a.dir = EEPROM_1_ReadByte(12);
 271              		.loc 1 79 0
 272 006a 154A     		ldr	r2, .L13+40
 273 006c 1370     		strb	r3, [r2]
  80:.\main.c      ****     side.b.dir = EEPROM_1_ReadByte(13);
 274              		.loc 1 80 0
 275 006e 0C20     		movs	r0, #12
 276 0070 FFF7FEFF 		bl	EEPROM_1_ReadByte
 277              	.LVL31:
 278 0074 134C     		ldr	r4, .L13+44
ARM GAS  C:\Users\RECEPC~1\AppData\Local\Temp\ccp152bc.s 			page 42


 279 0076 2070     		strb	r0, [r4]
  81:.\main.c      ****     side.c.dir = EEPROM_1_ReadByte(14);
 280              		.loc 1 81 0
 281 0078 0D20     		movs	r0, #13
 282 007a FFF7FEFF 		bl	EEPROM_1_ReadByte
 283              	.LVL32:
 284 007e 84F80801 		strb	r0, [r4, #264]
  82:.\main.c      ****     side.d.dir = EEPROM_1_ReadByte(15);
 285              		.loc 1 82 0
 286 0082 0E20     		movs	r0, #14
 287 0084 FFF7FEFF 		bl	EEPROM_1_ReadByte
 288              	.LVL33:
 289 0088 84F81002 		strb	r0, [r4, #528]
  83:.\main.c      **** //    for(x=0; x<30;x++){
 290              		.loc 1 83 0
 291 008c 0F20     		movs	r0, #15
 292 008e FFF7FEFF 		bl	EEPROM_1_ReadByte
 293              	.LVL34:
 294 0092 84F81803 		strb	r0, [r4, #792]
 295 0096 10BD     		pop	{r4, pc}
 296              	.L14:
 297              		.align	2
 298              	.L13:
 299 0098 00000000 		.word	MoneyDec
 300 009c 00000000 		.word	VolDec
 301 00a0 00000000 		.word	PPUDec
 302 00a4 00000000 		.word	DDMode
 303 00a8 00000000 		.word	digits
 304 00ac 00000000 		.word	lockTurn
 305 00b0 00000000 		.word	printPortA
 306 00b4 00000000 		.word	printPortB
 307 00b8 00000000 		.word	IDCast
 308 00bc 00000000 		.word	.LANCHOR0
 309 00c0 00000000 		.word	configAccess
 310 00c4 00000000 		.word	side
 311              		.cfi_endproc
 312              	.LFE65:
 313              		.size	loadConfiguration, .-loadConfiguration
 314              		.section	.text.InitDisplay1,"ax",%progbits
 315              		.align	2
 316              		.global	InitDisplay1
 317              		.thumb
 318              		.thumb_func
 319              		.type	InitDisplay1, %function
 320              	InitDisplay1:
 321              	.LFB66:
 108:.\main.c      ****     uint8_t iniText[10]="Iniciando"; 
 322              		.loc 1 108 0
 323              		.cfi_startproc
 324              		@ args = 0, pretend = 0, frame = 112
 325              		@ frame_needed = 0, uses_anonymous_args = 0
 326 0000 10B5     		push	{r4, lr}
 327              		.cfi_def_cfa_offset 8
 328              		.cfi_offset 4, -8
 329              		.cfi_offset 14, -4
 330 0002 9CB0     		sub	sp, sp, #112
 331              		.cfi_def_cfa_offset 120
ARM GAS  C:\Users\RECEPC~1\AppData\Local\Temp\ccp152bc.s 			page 43


 109:.\main.c      ****     uint8_t Unit[10] = "S/D/Dupla ";
 332              		.loc 1 109 0
 333 0004 994A     		ldr	r2, .L32
 334 0006 19AB     		add	r3, sp, #100
 335 0008 07CA     		ldmia	r2, {r0, r1, r2}
 336 000a 03C3     		stmia	r3!, {r0, r1}
 337 000c 1A80     		strh	r2, [r3]	@ movhi
 110:.\main.c      ****     uint8_t Unit2[10] = "Quadrupla";
 338              		.loc 1 110 0
 339 000e 984B     		ldr	r3, .L32+4
 340 0010 16AC     		add	r4, sp, #88
 341 0012 93E80700 		ldmia	r3, {r0, r1, r2}
 342 0016 03C4     		stmia	r4!, {r0, r1}
 343 0018 2280     		strh	r2, [r4]	@ movhi
 111:.\main.c      ****     uint8_t Unit3[10] = "Sextupla";
 344              		.loc 1 111 0
 345 001a 964A     		ldr	r2, .L32+8
 346 001c 13AC     		add	r4, sp, #76
 347 001e 07CA     		ldmia	r2, {r0, r1, r2}
 348 0020 03C4     		stmia	r4!, {r0, r1}
 349 0022 2280     		strh	r2, [r4]	@ movhi
 112:.\main.c      ****     uint8_t Unit4[10] = "Octupla";
 350              		.loc 1 112 0
 351 0024 10AC     		add	r4, sp, #64
 352 0026 03F10C02 		add	r2, r3, #12
 353 002a 07CA     		ldmia	r2, {r0, r1, r2}
 354 002c 03C4     		stmia	r4!, {r0, r1}
 355 002e 2270     		strb	r2, [r4]
 356 0030 0022     		movs	r2, #0
 357 0032 8DF84920 		strb	r2, [sp, #73]
 113:.\main.c      ****     uint8_t DisplayMode0[10] = "5-5-4     ";
 358              		.loc 1 113 0
 359 0036 0DAC     		add	r4, sp, #52
 360 0038 03F11801 		add	r1, r3, #24
 361 003c 03C9     		ldmia	r1, {r0, r1}
 362 003e 84E80300 		stmia	r4, {r0, r1}
 363 0042 ADF83C20 		strh	r2, [sp, #60]	@ movhi
 114:.\main.c      ****     uint8_t DisplayMode[10] = "6-6-4     ";
 364              		.loc 1 114 0
 365 0046 0AAC     		add	r4, sp, #40
 366 0048 03F12402 		add	r2, r3, #36
 367 004c 07CA     		ldmia	r2, {r0, r1, r2}
 368 004e 03C4     		stmia	r4!, {r0, r1}
 369 0050 2280     		strh	r2, [r4]	@ movhi
 115:.\main.c      ****     uint8_t DisplayMode2[10] = "7-7-5     ";
 370              		.loc 1 115 0
 371 0052 07AC     		add	r4, sp, #28
 372 0054 03F13002 		add	r2, r3, #48
 373 0058 07CA     		ldmia	r2, {r0, r1, r2}
 374 005a 03C4     		stmia	r4!, {r0, r1}
 375 005c 2280     		strh	r2, [r4]	@ movhi
 116:.\main.c      ****     uint8_t DisplayMode3[10] = "8-7-5     ";
 376              		.loc 1 116 0
 377 005e 04AC     		add	r4, sp, #16
 378 0060 03F13C02 		add	r2, r3, #60
 379 0064 07CA     		ldmia	r2, {r0, r1, r2}
 380 0066 03C4     		stmia	r4!, {r0, r1}
ARM GAS  C:\Users\RECEPC~1\AppData\Local\Temp\ccp152bc.s 			page 44


 381 0068 2280     		strh	r2, [r4]	@ movhi
 117:.\main.c      ****     if(NumPositions == 2){
 382              		.loc 1 117 0
 383 006a 01AC     		add	r4, sp, #4
 384 006c 4833     		adds	r3, r3, #72
 385 006e 93E80700 		ldmia	r3, {r0, r1, r2}
 386 0072 03C4     		stmia	r4!, {r0, r1}
 387 0074 2280     		strh	r2, [r4]	@ movhi
 118:.\main.c      ****         SetPicture(1,DISPLAY_INICIO0);         
 388              		.loc 1 118 0
 389 0076 804B     		ldr	r3, .L32+12
 390 0078 1B78     		ldrb	r3, [r3]	@ zero_extendqisi2
 391 007a 022B     		cmp	r3, #2
 392 007c 7AD1     		bne	.L16
 119:.\main.c      ****         ShowMessage(1,iniText,0);    
 393              		.loc 1 119 0
 394 007e 0120     		movs	r0, #1
 395 0080 0146     		mov	r1, r0
 396 0082 FFF7FEFF 		bl	SetPicture
 397              	.LVL35:
 120:.\main.c      ****         CyDelay(300);
 398              		.loc 1 120 0
 399 0086 0120     		movs	r0, #1
 400 0088 19A9     		add	r1, sp, #100
 401 008a 0022     		movs	r2, #0
 402 008c FFF7FEFF 		bl	ShowMessage
 403              	.LVL36:
 121:.\main.c      ****         if(UnitType == 0){
 404              		.loc 1 121 0
 405 0090 4FF49670 		mov	r0, #300
 406 0094 FFF7FEFF 		bl	CyDelay
 407              	.LVL37:
 122:.\main.c      ****             side.a.hoseNumber = UnitType+1;
 408              		.loc 1 122 0
 409 0098 784B     		ldr	r3, .L32+16
 410 009a 1B78     		ldrb	r3, [r3]	@ zero_extendqisi2
 411 009c 5BB9     		cbnz	r3, .L17
 123:.\main.c      ****             side.b.hoseNumber = UnitType+1;
 412              		.loc 1 123 0
 413 009e 0133     		adds	r3, r3, #1
 414 00a0 DBB2     		uxtb	r3, r3
 415 00a2 774A     		ldr	r2, .L32+20
 416 00a4 82F80231 		strb	r3, [r2, #258]
 124:.\main.c      ****             ShowMessage(1,Unit,0);  //Mostrar tipo de dispensador      
 417              		.loc 1 124 0
 418 00a8 82F80A32 		strb	r3, [r2, #522]
 125:.\main.c      ****         }
 419              		.loc 1 125 0
 420 00ac 0120     		movs	r0, #1
 421 00ae 16A9     		add	r1, sp, #88
 422 00b0 0022     		movs	r2, #0
 423 00b2 FFF7FEFF 		bl	ShowMessage
 424              	.LVL38:
 425              	.L17:
 127:.\main.c      ****             side.a.hoseNumber = UnitType+1;
 426              		.loc 1 127 0
 427 00b6 714B     		ldr	r3, .L32+16
ARM GAS  C:\Users\RECEPC~1\AppData\Local\Temp\ccp152bc.s 			page 45


 428 00b8 1B78     		ldrb	r3, [r3]	@ zero_extendqisi2
 429 00ba 012B     		cmp	r3, #1
 430 00bc 0BD1     		bne	.L18
 128:.\main.c      ****             side.b.hoseNumber = UnitType+1;
 431              		.loc 1 128 0
 432 00be 0133     		adds	r3, r3, #1
 433 00c0 DBB2     		uxtb	r3, r3
 434 00c2 6F4A     		ldr	r2, .L32+20
 435 00c4 82F80231 		strb	r3, [r2, #258]
 129:.\main.c      ****             ShowMessage(1,Unit2,0);
 436              		.loc 1 129 0
 437 00c8 82F80A32 		strb	r3, [r2, #522]
 130:.\main.c      ****         }
 438              		.loc 1 130 0
 439 00cc 0120     		movs	r0, #1
 440 00ce 13A9     		add	r1, sp, #76
 441 00d0 0022     		movs	r2, #0
 442 00d2 FFF7FEFF 		bl	ShowMessage
 443              	.LVL39:
 444              	.L18:
 132:.\main.c      ****             side.a.hoseNumber = UnitType+1;
 445              		.loc 1 132 0
 446 00d6 694B     		ldr	r3, .L32+16
 447 00d8 1B78     		ldrb	r3, [r3]	@ zero_extendqisi2
 448 00da 022B     		cmp	r3, #2
 449 00dc 0BD1     		bne	.L19
 133:.\main.c      ****             side.b.hoseNumber = UnitType+1;
 450              		.loc 1 133 0
 451 00de 0133     		adds	r3, r3, #1
 452 00e0 DBB2     		uxtb	r3, r3
 453 00e2 674A     		ldr	r2, .L32+20
 454 00e4 82F80231 		strb	r3, [r2, #258]
 134:.\main.c      ****             ShowMessage(1,Unit3,0);
 455              		.loc 1 134 0
 456 00e8 82F80A32 		strb	r3, [r2, #522]
 135:.\main.c      ****         }
 457              		.loc 1 135 0
 458 00ec 0120     		movs	r0, #1
 459 00ee 10A9     		add	r1, sp, #64
 460 00f0 0022     		movs	r2, #0
 461 00f2 FFF7FEFF 		bl	ShowMessage
 462              	.LVL40:
 463              	.L19:
 137:.\main.c      ****             side.a.hoseNumber = UnitType+1;
 464              		.loc 1 137 0
 465 00f6 614B     		ldr	r3, .L32+16
 466 00f8 1B78     		ldrb	r3, [r3]	@ zero_extendqisi2
 467 00fa 032B     		cmp	r3, #3
 468 00fc 0BD1     		bne	.L20
 138:.\main.c      ****             side.b.hoseNumber = UnitType+1;
 469              		.loc 1 138 0
 470 00fe 0133     		adds	r3, r3, #1
 471 0100 DBB2     		uxtb	r3, r3
 472 0102 5F4A     		ldr	r2, .L32+20
 473 0104 82F80231 		strb	r3, [r2, #258]
 139:.\main.c      ****             ShowMessage(1,Unit4,0);
 474              		.loc 1 139 0
ARM GAS  C:\Users\RECEPC~1\AppData\Local\Temp\ccp152bc.s 			page 46


 475 0108 82F80A32 		strb	r3, [r2, #522]
 140:.\main.c      ****         } 
 476              		.loc 1 140 0
 477 010c 0120     		movs	r0, #1
 478 010e 0DA9     		add	r1, sp, #52
 479 0110 0022     		movs	r2, #0
 480 0112 FFF7FEFF 		bl	ShowMessage
 481              	.LVL41:
 482              	.L20:
 142:.\main.c      ****             ShowMessage(1,DisplayMode0,22); //Mostrar modo de display
 483              		.loc 1 142 0
 484 0116 5B4B     		ldr	r3, .L32+24
 485 0118 1B78     		ldrb	r3, [r3]	@ zero_extendqisi2
 486 011a 3BB9     		cbnz	r3, .L21
 143:.\main.c      ****             digits = 5;
 487              		.loc 1 143 0
 488 011c 0120     		movs	r0, #1
 489 011e 0AA9     		add	r1, sp, #40
 490 0120 1622     		movs	r2, #22
 491 0122 FFF7FEFF 		bl	ShowMessage
 492              	.LVL42:
 144:.\main.c      ****         }
 493              		.loc 1 144 0
 494 0126 0522     		movs	r2, #5
 495 0128 574B     		ldr	r3, .L32+28
 496 012a 1A70     		strb	r2, [r3]
 497              	.L21:
 146:.\main.c      ****             ShowMessage(1,DisplayMode,22); //Mostrar modo de display
 498              		.loc 1 146 0
 499 012c 554B     		ldr	r3, .L32+24
 500 012e 1B78     		ldrb	r3, [r3]	@ zero_extendqisi2
 501 0130 012B     		cmp	r3, #1
 502 0132 07D1     		bne	.L22
 147:.\main.c      ****             digits = 6;
 503              		.loc 1 147 0
 504 0134 0120     		movs	r0, #1
 505 0136 07A9     		add	r1, sp, #28
 506 0138 1622     		movs	r2, #22
 507 013a FFF7FEFF 		bl	ShowMessage
 508              	.LVL43:
 148:.\main.c      ****         }
 509              		.loc 1 148 0
 510 013e 0622     		movs	r2, #6
 511 0140 514B     		ldr	r3, .L32+28
 512 0142 1A70     		strb	r2, [r3]
 513              	.L22:
 150:.\main.c      ****            ShowMessage(1,DisplayMode2,22);
 514              		.loc 1 150 0
 515 0144 4F4B     		ldr	r3, .L32+24
 516 0146 1B78     		ldrb	r3, [r3]	@ zero_extendqisi2
 517 0148 022B     		cmp	r3, #2
 518 014a 07D1     		bne	.L23
 151:.\main.c      ****             digits = 7;
 519              		.loc 1 151 0
 520 014c 0120     		movs	r0, #1
 521 014e 04A9     		add	r1, sp, #16
 522 0150 1622     		movs	r2, #22
ARM GAS  C:\Users\RECEPC~1\AppData\Local\Temp\ccp152bc.s 			page 47


 523 0152 FFF7FEFF 		bl	ShowMessage
 524              	.LVL44:
 152:.\main.c      ****         }
 525              		.loc 1 152 0
 526 0156 0722     		movs	r2, #7
 527 0158 4B4B     		ldr	r3, .L32+28
 528 015a 1A70     		strb	r2, [r3]
 529              	.L23:
 154:.\main.c      ****             ShowMessage(1,DisplayMode3,22);
 530              		.loc 1 154 0
 531 015c 494B     		ldr	r3, .L32+24
 532 015e 1B78     		ldrb	r3, [r3]	@ zero_extendqisi2
 533 0160 032B     		cmp	r3, #3
 534 0162 07D1     		bne	.L16
 155:.\main.c      ****             digits = 8;
 535              		.loc 1 155 0
 536 0164 0120     		movs	r0, #1
 537 0166 01A9     		add	r1, sp, #4
 538 0168 1622     		movs	r2, #22
 539 016a FFF7FEFF 		bl	ShowMessage
 540              	.LVL45:
 156:.\main.c      ****         }        
 541              		.loc 1 156 0
 542 016e 0822     		movs	r2, #8
 543 0170 454B     		ldr	r3, .L32+28
 544 0172 1A70     		strb	r2, [r3]
 545              	.L16:
 159:.\main.c      ****         SetPicture(1,DISPLAY_SELECCIONE_POSICION);        
 546              		.loc 1 159 0
 547 0174 404B     		ldr	r3, .L32+12
 548 0176 1B78     		ldrb	r3, [r3]	@ zero_extendqisi2
 549 0178 042B     		cmp	r3, #4
 550 017a 6DD1     		bne	.L24
 160:.\main.c      ****         ShowMessage(1,iniText,0);    
 551              		.loc 1 160 0
 552 017c 0120     		movs	r0, #1
 553 017e 2E21     		movs	r1, #46
 554 0180 FFF7FEFF 		bl	SetPicture
 555              	.LVL46:
 161:.\main.c      ****         CyDelay(300);
 556              		.loc 1 161 0
 557 0184 0120     		movs	r0, #1
 558 0186 19A9     		add	r1, sp, #100
 559 0188 0022     		movs	r2, #0
 560 018a FFF7FEFF 		bl	ShowMessage
 561              	.LVL47:
 162:.\main.c      ****         if(UnitType == 0){
 562              		.loc 1 162 0
 563 018e 4FF49670 		mov	r0, #300
 564 0192 FFF7FEFF 		bl	CyDelay
 565              	.LVL48:
 163:.\main.c      ****             side.a.hoseNumber = UnitType+1;
 566              		.loc 1 163 0
 567 0196 394B     		ldr	r3, .L32+16
 568 0198 1B78     		ldrb	r3, [r3]	@ zero_extendqisi2
 569 019a 7BB9     		cbnz	r3, .L25
 164:.\main.c      ****             side.b.hoseNumber = UnitType+1;
ARM GAS  C:\Users\RECEPC~1\AppData\Local\Temp\ccp152bc.s 			page 48


 570              		.loc 1 164 0
 571 019c 0133     		adds	r3, r3, #1
 572 019e DBB2     		uxtb	r3, r3
 573 01a0 374A     		ldr	r2, .L32+20
 574 01a2 82F80231 		strb	r3, [r2, #258]
 165:.\main.c      ****             side.c.hoseNumber = UnitType+1;
 575              		.loc 1 165 0
 576 01a6 82F80A32 		strb	r3, [r2, #522]
 166:.\main.c      ****             side.d.hoseNumber = UnitType+1;
 577              		.loc 1 166 0
 578 01aa 82F81233 		strb	r3, [r2, #786]
 167:.\main.c      ****             ShowMessage(1,Unit,0);  //Mostrar tipo de dispensador      
 579              		.loc 1 167 0
 580 01ae 82F81A34 		strb	r3, [r2, #1050]
 168:.\main.c      ****         }
 581              		.loc 1 168 0
 582 01b2 0120     		movs	r0, #1
 583 01b4 16A9     		add	r1, sp, #88
 584 01b6 0022     		movs	r2, #0
 585 01b8 FFF7FEFF 		bl	ShowMessage
 586              	.LVL49:
 587              	.L25:
 170:.\main.c      ****             side.a.hoseNumber = UnitType+1;
 588              		.loc 1 170 0
 589 01bc 2F4B     		ldr	r3, .L32+16
 590 01be 1B78     		ldrb	r3, [r3]	@ zero_extendqisi2
 591 01c0 012B     		cmp	r3, #1
 592 01c2 0FD1     		bne	.L26
 171:.\main.c      ****             side.b.hoseNumber = UnitType+1;
 593              		.loc 1 171 0
 594 01c4 0133     		adds	r3, r3, #1
 595 01c6 DBB2     		uxtb	r3, r3
 596 01c8 2D4A     		ldr	r2, .L32+20
 597 01ca 82F80231 		strb	r3, [r2, #258]
 172:.\main.c      ****             side.c.hoseNumber = UnitType+1;
 598              		.loc 1 172 0
 599 01ce 82F80A32 		strb	r3, [r2, #522]
 173:.\main.c      ****             side.d.hoseNumber = UnitType+1;
 600              		.loc 1 173 0
 601 01d2 82F81233 		strb	r3, [r2, #786]
 174:.\main.c      ****             ShowMessage(1,Unit2,0);
 602              		.loc 1 174 0
 603 01d6 82F81A34 		strb	r3, [r2, #1050]
 175:.\main.c      ****         }
 604              		.loc 1 175 0
 605 01da 0120     		movs	r0, #1
 606 01dc 13A9     		add	r1, sp, #76
 607 01de 0022     		movs	r2, #0
 608 01e0 FFF7FEFF 		bl	ShowMessage
 609              	.LVL50:
 610              	.L26:
 177:.\main.c      ****             side.a.hoseNumber = UnitType+1;
 611              		.loc 1 177 0
 612 01e4 254B     		ldr	r3, .L32+16
 613 01e6 1B78     		ldrb	r3, [r3]	@ zero_extendqisi2
 614 01e8 022B     		cmp	r3, #2
 615 01ea 0FD1     		bne	.L27
ARM GAS  C:\Users\RECEPC~1\AppData\Local\Temp\ccp152bc.s 			page 49


 178:.\main.c      ****             side.b.hoseNumber = UnitType+1;
 616              		.loc 1 178 0
 617 01ec 0133     		adds	r3, r3, #1
 618 01ee DBB2     		uxtb	r3, r3
 619 01f0 234A     		ldr	r2, .L32+20
 620 01f2 82F80231 		strb	r3, [r2, #258]
 179:.\main.c      ****             side.c.hoseNumber = UnitType+1;
 621              		.loc 1 179 0
 622 01f6 82F80A32 		strb	r3, [r2, #522]
 180:.\main.c      ****             side.d.hoseNumber = UnitType+1;
 623              		.loc 1 180 0
 624 01fa 82F81233 		strb	r3, [r2, #786]
 181:.\main.c      ****            ShowMessage(1,Unit3,0);
 625              		.loc 1 181 0
 626 01fe 82F81A34 		strb	r3, [r2, #1050]
 182:.\main.c      ****         }
 627              		.loc 1 182 0
 628 0202 0120     		movs	r0, #1
 629 0204 10A9     		add	r1, sp, #64
 630 0206 0022     		movs	r2, #0
 631 0208 FFF7FEFF 		bl	ShowMessage
 632              	.LVL51:
 633              	.L27:
 184:.\main.c      ****             side.a.hoseNumber = UnitType+1;
 634              		.loc 1 184 0
 635 020c 1B4B     		ldr	r3, .L32+16
 636 020e 1B78     		ldrb	r3, [r3]	@ zero_extendqisi2
 637 0210 032B     		cmp	r3, #3
 638 0212 0FD1     		bne	.L28
 185:.\main.c      ****             side.b.hoseNumber = UnitType+1;
 639              		.loc 1 185 0
 640 0214 0133     		adds	r3, r3, #1
 641 0216 DBB2     		uxtb	r3, r3
 642 0218 194A     		ldr	r2, .L32+20
 643 021a 82F80231 		strb	r3, [r2, #258]
 186:.\main.c      ****             side.c.hoseNumber = UnitType+1;
 644              		.loc 1 186 0
 645 021e 82F80A32 		strb	r3, [r2, #522]
 187:.\main.c      ****             side.d.hoseNumber = UnitType+1;
 646              		.loc 1 187 0
 647 0222 82F81233 		strb	r3, [r2, #786]
 188:.\main.c      ****             ShowMessage(1,Unit4,0);
 648              		.loc 1 188 0
 649 0226 82F81A34 		strb	r3, [r2, #1050]
 189:.\main.c      ****         }    
 650              		.loc 1 189 0
 651 022a 0120     		movs	r0, #1
 652 022c 0DA9     		add	r1, sp, #52
 653 022e 0022     		movs	r2, #0
 654 0230 FFF7FEFF 		bl	ShowMessage
 655              	.LVL52:
 656              	.L28:
 191:.\main.c      ****             ShowMessage(1,DisplayMode,22); //Mostrar modo de display
 657              		.loc 1 191 0
 658 0234 134B     		ldr	r3, .L32+24
 659 0236 1B78     		ldrb	r3, [r3]	@ zero_extendqisi2
 660 0238 012B     		cmp	r3, #1
ARM GAS  C:\Users\RECEPC~1\AppData\Local\Temp\ccp152bc.s 			page 50


 661 023a 04D1     		bne	.L29
 192:.\main.c      ****         }
 662              		.loc 1 192 0
 663 023c 0120     		movs	r0, #1
 664 023e 07A9     		add	r1, sp, #28
 665 0240 1622     		movs	r2, #22
 666 0242 FFF7FEFF 		bl	ShowMessage
 667              	.LVL53:
 668              	.L29:
 194:.\main.c      ****            ShowMessage(1,DisplayMode2,22);
 669              		.loc 1 194 0
 670 0246 0F4B     		ldr	r3, .L32+24
 671 0248 1B78     		ldrb	r3, [r3]	@ zero_extendqisi2
 672 024a 022B     		cmp	r3, #2
 673 024c 04D1     		bne	.L24
 195:.\main.c      ****         }
 674              		.loc 1 195 0
 675 024e 0120     		movs	r0, #1
 676 0250 04A9     		add	r1, sp, #16
 677 0252 1622     		movs	r2, #22
 678 0254 FFF7FEFF 		bl	ShowMessage
 679              	.LVL54:
 680              	.L24:
 198:.\main.c      ****         SetPicture(1,DISPLAY_ERROR);        
 681              		.loc 1 198 0
 682 0258 074B     		ldr	r3, .L32+12
 683 025a 1B78     		ldrb	r3, [r3]	@ zero_extendqisi2
 684 025c 012B     		cmp	r3, #1
 685 025e 03D8     		bhi	.L15
 199:.\main.c      ****     }         
 686              		.loc 1 199 0
 687 0260 0120     		movs	r0, #1
 688 0262 0021     		movs	r1, #0
 689 0264 FFF7FEFF 		bl	SetPicture
 690              	.LVL55:
 691              	.L15:
 201:.\main.c      **** 
 692              		.loc 1 201 0
 693 0268 1CB0     		add	sp, sp, #112
 694              		.cfi_def_cfa_offset 8
 695              		@ sp needed
 696 026a 10BD     		pop	{r4, pc}
 697              	.L33:
 698              		.align	2
 699              	.L32:
 700 026c 00000000 		.word	.LC0
 701 0270 00000000 		.word	.LANCHOR1
 702 0274 0C000000 		.word	.LC2
 703 0278 00000000 		.word	NumPositions
 704 027c 00000000 		.word	UnitType
 705 0280 00000000 		.word	side
 706 0284 00000000 		.word	DDMode
 707 0288 00000000 		.word	digits
 708              		.cfi_endproc
 709              	.LFE66:
 710              		.size	InitDisplay1, .-InitDisplay1
 711              		.section	.text.InitDisplay2,"ax",%progbits
ARM GAS  C:\Users\RECEPC~1\AppData\Local\Temp\ccp152bc.s 			page 51


 712              		.align	2
 713              		.global	InitDisplay2
 714              		.thumb
 715              		.thumb_func
 716              		.type	InitDisplay2, %function
 717              	InitDisplay2:
 718              	.LFB67:
 212:.\main.c      ****     if(NumPositions == 2){        
 719              		.loc 1 212 0
 720              		.cfi_startproc
 721              		@ args = 0, pretend = 0, frame = 0
 722              		@ frame_needed = 0, uses_anonymous_args = 0
 723 0000 08B5     		push	{r3, lr}
 724              		.cfi_def_cfa_offset 8
 725              		.cfi_offset 3, -8
 726              		.cfi_offset 14, -4
 213:.\main.c      ****         SetPicture(2,DISPLAY_INICIO0);  
 727              		.loc 1 213 0
 728 0002 104B     		ldr	r3, .L39
 729 0004 1B78     		ldrb	r3, [r3]	@ zero_extendqisi2
 730 0006 022B     		cmp	r3, #2
 731 0008 06D1     		bne	.L35
 214:.\main.c      ****         flowDisplay2 = 0;
 732              		.loc 1 214 0
 733 000a 0220     		movs	r0, #2
 734 000c 0121     		movs	r1, #1
 735 000e FFF7FEFF 		bl	SetPicture
 736              	.LVL56:
 215:.\main.c      ****     }
 737              		.loc 1 215 0
 738 0012 0022     		movs	r2, #0
 739 0014 0C4B     		ldr	r3, .L39+4
 740 0016 1A60     		str	r2, [r3]
 741              	.L35:
 217:.\main.c      ****         SetPicture(2,DISPLAY_SELECCIONE_POSICION);         
 742              		.loc 1 217 0
 743 0018 0A4B     		ldr	r3, .L39
 744 001a 1B78     		ldrb	r3, [r3]	@ zero_extendqisi2
 745 001c 042B     		cmp	r3, #4
 746 001e 03D1     		bne	.L36
 218:.\main.c      ****     }        
 747              		.loc 1 218 0
 748 0020 0220     		movs	r0, #2
 749 0022 2E21     		movs	r1, #46
 750 0024 FFF7FEFF 		bl	SetPicture
 751              	.LVL57:
 752              	.L36:
 220:.\main.c      ****         SetPicture(2,DISPLAY_ERROR);
 753              		.loc 1 220 0
 754 0028 064B     		ldr	r3, .L39
 755 002a 1B78     		ldrb	r3, [r3]	@ zero_extendqisi2
 756 002c 012B     		cmp	r3, #1
 757 002e 03D8     		bhi	.L37
 221:.\main.c      ****     }     
 758              		.loc 1 221 0
 759 0030 0220     		movs	r0, #2
 760 0032 0021     		movs	r1, #0
ARM GAS  C:\Users\RECEPC~1\AppData\Local\Temp\ccp152bc.s 			page 52


 761 0034 FFF7FEFF 		bl	SetPicture
 762              	.LVL58:
 763              	.L37:
 223:.\main.c      **** }
 764              		.loc 1 223 0
 765 0038 0220     		movs	r0, #2
 766 003a 0449     		ldr	r1, .L39+8
 767 003c 0022     		movs	r2, #0
 768 003e FFF7FEFF 		bl	ShowMessage
 769              	.LVL59:
 770 0042 08BD     		pop	{r3, pc}
 771              	.L40:
 772              		.align	2
 773              	.L39:
 774 0044 00000000 		.word	NumPositions
 775 0048 00000000 		.word	flowDisplay2
 776 004c 08000000 		.word	.LANCHOR0+8
 777              		.cfi_endproc
 778              	.LFE67:
 779              		.size	InitDisplay2, .-InitDisplay2
 780              		.section	.text.InitPump,"ax",%progbits
 781              		.align	2
 782              		.global	InitPump
 783              		.thumb
 784              		.thumb_func
 785              		.type	InitPump, %function
 786              	InitPump:
 787              	.LFB68:
 235:.\main.c      ****     NumPositions = get_position();
 788              		.loc 1 235 0
 789              		.cfi_startproc
 790              		@ args = 0, pretend = 0, frame = 0
 791              		@ frame_needed = 0, uses_anonymous_args = 0
 792 0000 08B5     		push	{r3, lr}
 793              		.cfi_def_cfa_offset 8
 794              		.cfi_offset 3, -8
 795              		.cfi_offset 14, -4
 236:.\main.c      ****     if(NumPositions > 0){
 796              		.loc 1 236 0
 797 0002 FFF7FEFF 		bl	get_position
 798              	.LVL60:
 799 0006 2D4B     		ldr	r3, .L47
 800 0008 1870     		strb	r0, [r3]
 237:.\main.c      ****         if(!PumpIsInValidState(get_state(side.a.dir))){
 801              		.loc 1 237 0
 802 000a 0028     		cmp	r0, #0
 803 000c 55D0     		beq	.L41
 238:.\main.c      ****             SetPicture(1,DISPLAY_ERROR);
 804              		.loc 1 238 0
 805 000e 2C4B     		ldr	r3, .L47+4
 806 0010 1878     		ldrb	r0, [r3]	@ zero_extendqisi2
 807 0012 FFF7FEFF 		bl	get_state
 808              	.LVL61:
 809 0016 FFF7FEFF 		bl	PumpIsInValidState
 810              	.LVL62:
 811 001a 50B9     		cbnz	r0, .L43
 239:.\main.c      ****             SetPicture(2,DISPLAY_ERROR);
ARM GAS  C:\Users\RECEPC~1\AppData\Local\Temp\ccp152bc.s 			page 53


 812              		.loc 1 239 0
 813 001c 0120     		movs	r0, #1
 814 001e 0021     		movs	r1, #0
 815 0020 FFF7FEFF 		bl	SetPicture
 816              	.LVL63:
 240:.\main.c      ****             NumPositions = 0;
 817              		.loc 1 240 0
 818 0024 0220     		movs	r0, #2
 819 0026 0021     		movs	r1, #0
 820 0028 FFF7FEFF 		bl	SetPicture
 821              	.LVL64:
 241:.\main.c      ****         }
 822              		.loc 1 241 0
 823 002c 0022     		movs	r2, #0
 824 002e 234B     		ldr	r3, .L47
 825 0030 1A70     		strb	r2, [r3]
 826              	.L43:
 243:.\main.c      ****             SetPicture(1,DISPLAY_ERROR);
 827              		.loc 1 243 0
 828 0032 234B     		ldr	r3, .L47+4
 829 0034 93F80801 		ldrb	r0, [r3, #264]	@ zero_extendqisi2
 830 0038 FFF7FEFF 		bl	get_state
 831              	.LVL65:
 832 003c FFF7FEFF 		bl	PumpIsInValidState
 833              	.LVL66:
 834 0040 50B9     		cbnz	r0, .L44
 244:.\main.c      ****             SetPicture(2,DISPLAY_ERROR);
 835              		.loc 1 244 0
 836 0042 0120     		movs	r0, #1
 837 0044 0021     		movs	r1, #0
 838 0046 FFF7FEFF 		bl	SetPicture
 839              	.LVL67:
 245:.\main.c      ****             NumPositions = 0;
 840              		.loc 1 245 0
 841 004a 0220     		movs	r0, #2
 842 004c 0021     		movs	r1, #0
 843 004e FFF7FEFF 		bl	SetPicture
 844              	.LVL68:
 246:.\main.c      ****         }
 845              		.loc 1 246 0
 846 0052 0022     		movs	r2, #0
 847 0054 194B     		ldr	r3, .L47
 848 0056 1A70     		strb	r2, [r3]
 849              	.L44:
 248:.\main.c      ****             NumPositions = get_position();
 850              		.loc 1 248 0
 851 0058 194B     		ldr	r3, .L47+4
 852 005a 1878     		ldrb	r0, [r3]	@ zero_extendqisi2
 853 005c FFF7FEFF 		bl	get_state
 854              	.LVL69:
 855 0060 FFF7FEFF 		bl	PumpIsInValidState
 856              	.LVL70:
 857 0064 48B3     		cbz	r0, .L41
 248:.\main.c      ****             NumPositions = get_position();
 858              		.loc 1 248 0 is_stmt 0 discriminator 1
 859 0066 164B     		ldr	r3, .L47+4
 860 0068 93F80801 		ldrb	r0, [r3, #264]	@ zero_extendqisi2
ARM GAS  C:\Users\RECEPC~1\AppData\Local\Temp\ccp152bc.s 			page 54


 861 006c FFF7FEFF 		bl	get_state
 862              	.LVL71:
 863 0070 FFF7FEFF 		bl	PumpIsInValidState
 864              	.LVL72:
 865 0074 08B3     		cbz	r0, .L41
 249:.\main.c      ****             if(get_state(side.a.dir) ==0x06 && get_state(side.b.dir)==0x06){
 866              		.loc 1 249 0 is_stmt 1
 867 0076 FFF7FEFF 		bl	get_position
 868              	.LVL73:
 869 007a 104B     		ldr	r3, .L47
 870 007c 1870     		strb	r0, [r3]
 250:.\main.c      ****                 PumpCompleteConfiguration(side.a.dir);
 871              		.loc 1 250 0
 872 007e 104B     		ldr	r3, .L47+4
 873 0080 1878     		ldrb	r0, [r3]	@ zero_extendqisi2
 874 0082 FFF7FEFF 		bl	get_state
 875              	.LVL74:
 876 0086 0628     		cmp	r0, #6
 877 0088 0DD1     		bne	.L45
 250:.\main.c      ****                 PumpCompleteConfiguration(side.a.dir);
 878              		.loc 1 250 0 is_stmt 0 discriminator 1
 879 008a 0D4B     		ldr	r3, .L47+4
 880 008c 93F80801 		ldrb	r0, [r3, #264]	@ zero_extendqisi2
 881 0090 FFF7FEFF 		bl	get_state
 882              	.LVL75:
 883 0094 0628     		cmp	r0, #6
 884 0096 06D1     		bne	.L45
 251:.\main.c      ****                 StoreConfiguration();            
 885              		.loc 1 251 0 is_stmt 1
 886 0098 094B     		ldr	r3, .L47+4
 887 009a 1878     		ldrb	r0, [r3]	@ zero_extendqisi2
 888 009c FFF7FEFF 		bl	PumpCompleteConfiguration
 889              	.LVL76:
 252:.\main.c      ****             }else{
 890              		.loc 1 252 0
 891 00a0 FFF7FEFF 		bl	StoreConfiguration
 892              	.LVL77:
 893 00a4 08BD     		pop	{r3, pc}
 894              	.L45:
 254:.\main.c      ****                 SetPicture(2,DISPLAY_BAJE_MANIJA);
 895              		.loc 1 254 0
 896 00a6 0120     		movs	r0, #1
 897 00a8 0921     		movs	r1, #9
 898 00aa FFF7FEFF 		bl	SetPicture
 899              	.LVL78:
 255:.\main.c      ****                 InitPump();                
 900              		.loc 1 255 0
 901 00ae 0220     		movs	r0, #2
 902 00b0 0921     		movs	r1, #9
 903 00b2 FFF7FEFF 		bl	SetPicture
 904              	.LVL79:
 256:.\main.c      ****             }
 905              		.loc 1 256 0
 906 00b6 FFF7FEFF 		bl	InitPump
 907              	.LVL80:
 908              	.L41:
 909 00ba 08BD     		pop	{r3, pc}
ARM GAS  C:\Users\RECEPC~1\AppData\Local\Temp\ccp152bc.s 			page 55


 910              	.L48:
 911              		.align	2
 912              	.L47:
 913 00bc 00000000 		.word	NumPositions
 914 00c0 00000000 		.word	side
 915              		.cfi_endproc
 916              	.LFE68:
 917              		.size	InitPump, .-InitPump
 918              		.section	.text.PrintTest,"ax",%progbits
 919              		.align	2
 920              		.global	PrintTest
 921              		.thumb
 922              		.thumb_func
 923              		.type	PrintTest, %function
 924              	PrintTest:
 925              	.LFB69:
 271:.\main.c      ****     uint8 datoA[26]="Test de Impresion Puerto 1";
 926              		.loc 1 271 0
 927              		.cfi_startproc
 928              		@ args = 0, pretend = 0, frame = 56
 929              		@ frame_needed = 0, uses_anonymous_args = 0
 930 0000 70B5     		push	{r4, r5, r6, lr}
 931              		.cfi_def_cfa_offset 16
 932              		.cfi_offset 4, -16
 933              		.cfi_offset 5, -12
 934              		.cfi_offset 6, -8
 935              		.cfi_offset 14, -4
 936 0002 8EB0     		sub	sp, sp, #56
 937              		.cfi_def_cfa_offset 72
 272:.\main.c      ****     uint8 datoB[26]="Test de Impresion Puerto 2";
 938              		.loc 1 272 0
 939 0004 2E4C     		ldr	r4, .L55
 940 0006 07AD     		add	r5, sp, #28
 941 0008 04F15406 		add	r6, r4, #84
 942 000c 0FCE     		ldmia	r6!, {r0, r1, r2, r3}
 943 000e 0FC5     		stmia	r5!, {r0, r1, r2, r3}
 944 0010 96E80700 		ldmia	r6, {r0, r1, r2}
 945 0014 03C5     		stmia	r5!, {r0, r1}
 946 0016 2A80     		strh	r2, [r5]	@ movhi
 273:.\main.c      ****     uint8 x;
 947              		.loc 1 273 0
 948 0018 6D46     		mov	r5, sp
 949 001a 7034     		adds	r4, r4, #112
 950 001c 0FCC     		ldmia	r4!, {r0, r1, r2, r3}
 951 001e 0FC5     		stmia	r5!, {r0, r1, r2, r3}
 952 0020 94E80700 		ldmia	r4, {r0, r1, r2}
 953 0024 03C5     		stmia	r5!, {r0, r1}
 954 0026 2A80     		strh	r2, [r5]	@ movhi
 955              	.LVL81:
 275:.\main.c      ****         write_psoc1(1,datoA[x]);
 956              		.loc 1 275 0
 957 0028 0024     		movs	r4, #0
 958 002a 08E0     		b	.L50
 959              	.LVL82:
 960              	.L51:
 276:.\main.c      ****     }
 961              		.loc 1 276 0 discriminator 3
ARM GAS  C:\Users\RECEPC~1\AppData\Local\Temp\ccp152bc.s 			page 56


 962 002c 0EAB     		add	r3, sp, #56
 963 002e 2344     		add	r3, r3, r4
 964 0030 0120     		movs	r0, #1
 965 0032 13F81C1C 		ldrb	r1, [r3, #-28]	@ zero_extendqisi2
 966 0036 FFF7FEFF 		bl	write_psoc1
 967              	.LVL83:
 275:.\main.c      ****         write_psoc1(1,datoA[x]);
 968              		.loc 1 275 0 discriminator 3
 969 003a 0134     		adds	r4, r4, #1
 970              	.LVL84:
 971 003c E4B2     		uxtb	r4, r4
 972              	.LVL85:
 973              	.L50:
 275:.\main.c      ****         write_psoc1(1,datoA[x]);
 974              		.loc 1 275 0 is_stmt 0 discriminator 1
 975 003e 192C     		cmp	r4, #25
 976 0040 F4D9     		bls	.L51
 278:.\main.c      ****     write_psoc1(1,10);
 977              		.loc 1 278 0 is_stmt 1
 978 0042 0120     		movs	r0, #1
 979 0044 0A21     		movs	r1, #10
 980 0046 FFF7FEFF 		bl	write_psoc1
 981              	.LVL86:
 279:.\main.c      ****     write_psoc1(1,10);
 982              		.loc 1 279 0
 983 004a 0120     		movs	r0, #1
 984 004c 0A21     		movs	r1, #10
 985 004e FFF7FEFF 		bl	write_psoc1
 986              	.LVL87:
 280:.\main.c      ****     write_psoc1(1,10);
 987              		.loc 1 280 0
 988 0052 0120     		movs	r0, #1
 989 0054 0A21     		movs	r1, #10
 990 0056 FFF7FEFF 		bl	write_psoc1
 991              	.LVL88:
 281:.\main.c      ****     write_psoc1(1,10);
 992              		.loc 1 281 0
 993 005a 0120     		movs	r0, #1
 994 005c 0A21     		movs	r1, #10
 995 005e FFF7FEFF 		bl	write_psoc1
 996              	.LVL89:
 282:.\main.c      ****     write_psoc1(1,10);
 997              		.loc 1 282 0
 998 0062 0120     		movs	r0, #1
 999 0064 0A21     		movs	r1, #10
 1000 0066 FFF7FEFF 		bl	write_psoc1
 1001              	.LVL90:
 283:.\main.c      ****     for(x = 0; x<26;x++){
 1002              		.loc 1 283 0
 1003 006a 0120     		movs	r0, #1
 1004 006c 0A21     		movs	r1, #10
 1005 006e FFF7FEFF 		bl	write_psoc1
 1006              	.LVL91:
 284:.\main.c      ****         write_psoc1(2,datoB[x]);
 1007              		.loc 1 284 0
 1008 0072 0024     		movs	r4, #0
 1009 0074 08E0     		b	.L52
ARM GAS  C:\Users\RECEPC~1\AppData\Local\Temp\ccp152bc.s 			page 57


 1010              	.LVL92:
 1011              	.L53:
 285:.\main.c      ****     }
 1012              		.loc 1 285 0 discriminator 3
 1013 0076 0EAB     		add	r3, sp, #56
 1014 0078 2344     		add	r3, r3, r4
 1015 007a 0220     		movs	r0, #2
 1016 007c 13F8381C 		ldrb	r1, [r3, #-56]	@ zero_extendqisi2
 1017 0080 FFF7FEFF 		bl	write_psoc1
 1018              	.LVL93:
 284:.\main.c      ****         write_psoc1(2,datoB[x]);
 1019              		.loc 1 284 0 discriminator 3
 1020 0084 0134     		adds	r4, r4, #1
 1021              	.LVL94:
 1022 0086 E4B2     		uxtb	r4, r4
 1023              	.LVL95:
 1024              	.L52:
 284:.\main.c      ****         write_psoc1(2,datoB[x]);
 1025              		.loc 1 284 0 is_stmt 0 discriminator 1
 1026 0088 192C     		cmp	r4, #25
 1027 008a F4D9     		bls	.L53
 287:.\main.c      ****     write_psoc1(2,10);
 1028              		.loc 1 287 0 is_stmt 1
 1029 008c 0220     		movs	r0, #2
 1030 008e 0A21     		movs	r1, #10
 1031 0090 FFF7FEFF 		bl	write_psoc1
 1032              	.LVL96:
 288:.\main.c      ****     write_psoc1(2,10);
 1033              		.loc 1 288 0
 1034 0094 0220     		movs	r0, #2
 1035 0096 0A21     		movs	r1, #10
 1036 0098 FFF7FEFF 		bl	write_psoc1
 1037              	.LVL97:
 289:.\main.c      ****     write_psoc1(2,10);
 1038              		.loc 1 289 0
 1039 009c 0220     		movs	r0, #2
 1040 009e 0A21     		movs	r1, #10
 1041 00a0 FFF7FEFF 		bl	write_psoc1
 1042              	.LVL98:
 290:.\main.c      ****     write_psoc1(2,10);
 1043              		.loc 1 290 0
 1044 00a4 0220     		movs	r0, #2
 1045 00a6 0A21     		movs	r1, #10
 1046 00a8 FFF7FEFF 		bl	write_psoc1
 1047              	.LVL99:
 291:.\main.c      ****     write_psoc1(2,10);
 1048              		.loc 1 291 0
 1049 00ac 0220     		movs	r0, #2
 1050 00ae 0A21     		movs	r1, #10
 1051 00b0 FFF7FEFF 		bl	write_psoc1
 1052              	.LVL100:
 292:.\main.c      **** }
 1053              		.loc 1 292 0
 1054 00b4 0220     		movs	r0, #2
 1055 00b6 0A21     		movs	r1, #10
 1056 00b8 FFF7FEFF 		bl	write_psoc1
 1057              	.LVL101:
ARM GAS  C:\Users\RECEPC~1\AppData\Local\Temp\ccp152bc.s 			page 58


 293:.\main.c      **** 
 1058              		.loc 1 293 0
 1059 00bc 0EB0     		add	sp, sp, #56
 1060              		.cfi_def_cfa_offset 16
 1061              		@ sp needed
 1062 00be 70BD     		pop	{r4, r5, r6, pc}
 1063              	.LVL102:
 1064              	.L56:
 1065              		.align	2
 1066              	.L55:
 1067 00c0 00000000 		.word	.LANCHOR1
 1068              		.cfi_endproc
 1069              	.LFE69:
 1070              		.size	PrintTest, .-PrintTest
 1071              		.section	.text.PollingPump,"ax",%progbits
 1072              		.align	2
 1073              		.global	PollingPump
 1074              		.thumb
 1075              		.thumb_func
 1076              		.type	PollingPump, %function
 1077              	PollingPump:
 1078              	.LFB70:
 305:.\main.c      ****     uint8 x;
 1079              		.loc 1 305 0
 1080              		.cfi_startproc
 1081              		@ args = 0, pretend = 0, frame = 0
 1082              		@ frame_needed = 0, uses_anonymous_args = 0
 1083 0000 38B5     		push	{r3, r4, r5, lr}
 1084              		.cfi_def_cfa_offset 16
 1085              		.cfi_offset 3, -16
 1086              		.cfi_offset 4, -12
 1087              		.cfi_offset 5, -8
 1088              		.cfi_offset 14, -4
 307:.\main.c      ****         if(flowDisplay1 == 0){
 1089              		.loc 1 307 0
 1090 0002 524B     		ldr	r3, .L71
 1091 0004 D3E90023 		ldrd	r2, [r3]
 1092 0008 002B     		cmp	r3, #0
 1093 000a 08BF     		it	eq
 1094 000c 092A     		cmpeq	r2, #9
 1095 000e C0F09B80 		bcc	.L57
 308:.\main.c      ****             if(PumpIsInValidState(get_state(side.a.dir)) && PumpIsInValidState(get_state(side.b.dir
 1096              		.loc 1 308 0
 1097 0012 4F4B     		ldr	r3, .L71+4
 1098 0014 1B68     		ldr	r3, [r3]
 1099 0016 002B     		cmp	r3, #0
 1100 0018 73D1     		bne	.L59
 309:.\main.c      ****                 for(x= 0; x < 4; x++){
 1101              		.loc 1 309 0
 1102 001a 4E4B     		ldr	r3, .L71+8
 1103 001c 1878     		ldrb	r0, [r3]	@ zero_extendqisi2
 1104 001e FFF7FEFF 		bl	get_state
 1105              	.LVL103:
 1106 0022 FFF7FEFF 		bl	PumpIsInValidState
 1107              	.LVL104:
 1108 0026 90B1     		cbz	r0, .L60
 309:.\main.c      ****                 for(x= 0; x < 4; x++){
ARM GAS  C:\Users\RECEPC~1\AppData\Local\Temp\ccp152bc.s 			page 59


 1109              		.loc 1 309 0 is_stmt 0 discriminator 1
 1110 0028 4A4B     		ldr	r3, .L71+8
 1111 002a 93F80801 		ldrb	r0, [r3, #264]	@ zero_extendqisi2
 1112 002e FFF7FEFF 		bl	get_state
 1113              	.LVL105:
 1114 0032 FFF7FEFF 		bl	PumpIsInValidState
 1115              	.LVL106:
 1116 0036 38B9     		cbnz	r0, .L69
 1117 0038 09E0     		b	.L60
 1118              	.LVL107:
 1119              	.L62:
 311:.\main.c      ****                 }
 1120              		.loc 1 311 0 is_stmt 1 discriminator 3
 1121 003a 474A     		ldr	r2, .L71+12
 1122 003c D15C     		ldrb	r1, [r2, r3]	@ zero_extendqisi2
 1123 003e 474A     		ldr	r2, .L71+16
 1124 0040 D154     		strb	r1, [r2, r3]
 310:.\main.c      ****                     PrevStatePump[x] = statePump[x];
 1125              		.loc 1 310 0 discriminator 3
 1126 0042 0133     		adds	r3, r3, #1
 1127              	.LVL108:
 1128 0044 DBB2     		uxtb	r3, r3
 1129              	.LVL109:
 1130 0046 00E0     		b	.L61
 1131              	.LVL110:
 1132              	.L69:
 1133 0048 0023     		movs	r3, #0
 1134              	.L61:
 1135              	.LVL111:
 310:.\main.c      ****                     PrevStatePump[x] = statePump[x];
 1136              		.loc 1 310 0 is_stmt 0 discriminator 1
 1137 004a 032B     		cmp	r3, #3
 1138 004c F5D9     		bls	.L62
 1139              	.LVL112:
 1140              	.L60:
 314:.\main.c      ****                 statePump[0] = get_state(side.a.dir);                 
 1141              		.loc 1 314 0 is_stmt 1
 1142 004e 444B     		ldr	r3, .L71+20
 1143 0050 1B78     		ldrb	r3, [r3]	@ zero_extendqisi2
 1144 0052 022B     		cmp	r3, #2
 1145 0054 0AD1     		bne	.L63
 315:.\main.c      ****                 statePump[1] = get_state(side.b.dir);          
 1146              		.loc 1 315 0
 1147 0056 3F4D     		ldr	r5, .L71+8
 1148 0058 2878     		ldrb	r0, [r5]	@ zero_extendqisi2
 1149 005a FFF7FEFF 		bl	get_state
 1150              	.LVL113:
 1151 005e 3E4C     		ldr	r4, .L71+12
 1152 0060 2070     		strb	r0, [r4]
 316:.\main.c      ****             }
 1153              		.loc 1 316 0
 1154 0062 95F80801 		ldrb	r0, [r5, #264]	@ zero_extendqisi2
 1155 0066 FFF7FEFF 		bl	get_state
 1156              	.LVL114:
 1157 006a 6070     		strb	r0, [r4, #1]
 1158              	.L63:
 318:.\main.c      ****                 statePump[0] = get_state(side.a.dir);               
ARM GAS  C:\Users\RECEPC~1\AppData\Local\Temp\ccp152bc.s 			page 60


 1159              		.loc 1 318 0
 1160 006c 3C4B     		ldr	r3, .L71+20
 1161 006e 1B78     		ldrb	r3, [r3]	@ zero_extendqisi2
 1162 0070 042B     		cmp	r3, #4
 1163 0072 14D1     		bne	.L64
 319:.\main.c      ****                 statePump[1] = get_state(side.b.dir);          
 1164              		.loc 1 319 0
 1165 0074 374D     		ldr	r5, .L71+8
 1166 0076 2878     		ldrb	r0, [r5]	@ zero_extendqisi2
 1167 0078 FFF7FEFF 		bl	get_state
 1168              	.LVL115:
 1169 007c 364C     		ldr	r4, .L71+12
 1170 007e 2070     		strb	r0, [r4]
 320:.\main.c      ****                 statePump[2] = get_state(side.c.dir);        
 1171              		.loc 1 320 0
 1172 0080 95F80801 		ldrb	r0, [r5, #264]	@ zero_extendqisi2
 1173 0084 FFF7FEFF 		bl	get_state
 1174              	.LVL116:
 1175 0088 6070     		strb	r0, [r4, #1]
 321:.\main.c      ****                 statePump[3] = get_state(side.d.dir);        
 1176              		.loc 1 321 0
 1177 008a 95F81002 		ldrb	r0, [r5, #528]	@ zero_extendqisi2
 1178 008e FFF7FEFF 		bl	get_state
 1179              	.LVL117:
 1180 0092 A070     		strb	r0, [r4, #2]
 322:.\main.c      ****             }
 1181              		.loc 1 322 0
 1182 0094 95F81803 		ldrb	r0, [r5, #792]	@ zero_extendqisi2
 1183 0098 FFF7FEFF 		bl	get_state
 1184              	.LVL118:
 1185 009c E070     		strb	r0, [r4, #3]
 1186              	.L64:
 324:.\main.c      ****                 InitPump();
 1187              		.loc 1 324 0
 1188 009e 304B     		ldr	r3, .L71+20
 1189 00a0 1B78     		ldrb	r3, [r3]	@ zero_extendqisi2
 1190 00a2 0BB9     		cbnz	r3, .L65
 325:.\main.c      ****             }
 1191              		.loc 1 325 0
 1192 00a4 FFF7FEFF 		bl	InitPump
 1193              	.LVL119:
 1194              	.L65:
 327:.\main.c      ****                 SetPicture(1,DISPLAY_ERROR);
 1195              		.loc 1 327 0
 1196 00a8 2A4B     		ldr	r3, .L71+8
 1197 00aa 1878     		ldrb	r0, [r3]	@ zero_extendqisi2
 1198 00ac FFF7FEFF 		bl	get_state
 1199              	.LVL120:
 1200 00b0 FFF7FEFF 		bl	PumpIsInValidState
 1201              	.LVL121:
 1202 00b4 70B9     		cbnz	r0, .L66
 328:.\main.c      ****                 SetPicture(2,DISPLAY_ERROR);
 1203              		.loc 1 328 0
 1204 00b6 0120     		movs	r0, #1
 1205 00b8 0021     		movs	r1, #0
 1206 00ba FFF7FEFF 		bl	SetPicture
 1207              	.LVL122:
ARM GAS  C:\Users\RECEPC~1\AppData\Local\Temp\ccp152bc.s 			page 61


 329:.\main.c      ****                 NumPositions = 0;
 1208              		.loc 1 329 0
 1209 00be 0220     		movs	r0, #2
 1210 00c0 0021     		movs	r1, #0
 1211 00c2 FFF7FEFF 		bl	SetPicture
 1212              	.LVL123:
 330:.\main.c      ****                 flowDisplay1 = 0;
 1213              		.loc 1 330 0
 1214 00c6 0023     		movs	r3, #0
 1215 00c8 254A     		ldr	r2, .L71+20
 1216 00ca 1370     		strb	r3, [r2]
 331:.\main.c      ****                 flowDisplay2 = 0;
 1217              		.loc 1 331 0
 1218 00cc 204A     		ldr	r2, .L71+4
 1219 00ce 1360     		str	r3, [r2]
 332:.\main.c      ****             }
 1220              		.loc 1 332 0
 1221 00d0 244A     		ldr	r2, .L71+24
 1222 00d2 1360     		str	r3, [r2]
 1223              	.L66:
 334:.\main.c      ****                 SetPicture(1,DISPLAY_ERROR);
 1224              		.loc 1 334 0
 1225 00d4 1F4B     		ldr	r3, .L71+8
 1226 00d6 93F80801 		ldrb	r0, [r3, #264]	@ zero_extendqisi2
 1227 00da FFF7FEFF 		bl	get_state
 1228              	.LVL124:
 1229 00de FFF7FEFF 		bl	PumpIsInValidState
 1230              	.LVL125:
 1231 00e2 70B9     		cbnz	r0, .L59
 335:.\main.c      ****                 SetPicture(2,DISPLAY_ERROR);
 1232              		.loc 1 335 0
 1233 00e4 0120     		movs	r0, #1
 1234 00e6 0021     		movs	r1, #0
 1235 00e8 FFF7FEFF 		bl	SetPicture
 1236              	.LVL126:
 336:.\main.c      ****                 NumPositions = 0;
 1237              		.loc 1 336 0
 1238 00ec 0220     		movs	r0, #2
 1239 00ee 0021     		movs	r1, #0
 1240 00f0 FFF7FEFF 		bl	SetPicture
 1241              	.LVL127:
 337:.\main.c      ****                 flowDisplay1 = 0;
 1242              		.loc 1 337 0
 1243 00f4 0023     		movs	r3, #0
 1244 00f6 1A4A     		ldr	r2, .L71+20
 1245 00f8 1370     		strb	r3, [r2]
 338:.\main.c      ****                 flowDisplay2 = 0;
 1246              		.loc 1 338 0
 1247 00fa 154A     		ldr	r2, .L71+4
 1248 00fc 1360     		str	r3, [r2]
 339:.\main.c      ****             }
 1249              		.loc 1 339 0
 1250 00fe 194A     		ldr	r2, .L71+24
 1251 0100 1360     		str	r3, [r2]
 1252              	.L59:
 342:.\main.c      ****             if(get_state(side.a.dir)== PUMP_IDLE)
 1253              		.loc 1 342 0
ARM GAS  C:\Users\RECEPC~1\AppData\Local\Temp\ccp152bc.s 			page 62


 1254 0102 194B     		ldr	r3, .L71+28
 1255 0104 1B78     		ldrb	r3, [r3]	@ zero_extendqisi2
 1256 0106 13F0FF0F 		tst	r3, #255
 1257 010a 18D1     		bne	.L67
 342:.\main.c      ****             if(get_state(side.a.dir)== PUMP_IDLE)
 1258              		.loc 1 342 0 is_stmt 0 discriminator 1
 1259 010c 104B     		ldr	r3, .L71+4
 1260 010e 1B68     		ldr	r3, [r3]
 1261 0110 ABB9     		cbnz	r3, .L67
 343:.\main.c      ****                 getTotals(side.a.dir);
 1262              		.loc 1 343 0 is_stmt 1
 1263 0112 104B     		ldr	r3, .L71+8
 1264 0114 1878     		ldrb	r0, [r3]	@ zero_extendqisi2
 1265 0116 FFF7FEFF 		bl	get_state
 1266              	.LVL128:
 1267 011a 0628     		cmp	r0, #6
 1268 011c 03D1     		bne	.L68
 344:.\main.c      ****             if(get_state(side.b.dir)== PUMP_IDLE)
 1269              		.loc 1 344 0
 1270 011e 0D4B     		ldr	r3, .L71+8
 1271 0120 1878     		ldrb	r0, [r3]	@ zero_extendqisi2
 1272 0122 FFF7FEFF 		bl	getTotals
 1273              	.LVL129:
 1274              	.L68:
 345:.\main.c      ****                 getTotals(side.b.dir);
 1275              		.loc 1 345 0
 1276 0126 0B4B     		ldr	r3, .L71+8
 1277 0128 93F80801 		ldrb	r0, [r3, #264]	@ zero_extendqisi2
 1278 012c FFF7FEFF 		bl	get_state
 1279              	.LVL130:
 1280 0130 0628     		cmp	r0, #6
 1281 0132 04D1     		bne	.L67
 346:.\main.c      ****         }        
 1282              		.loc 1 346 0
 1283 0134 074B     		ldr	r3, .L71+8
 1284 0136 93F80801 		ldrb	r0, [r3, #264]	@ zero_extendqisi2
 1285 013a FFF7FEFF 		bl	getTotals
 1286              	.LVL131:
 1287              	.L67:
 348:.\main.c      ****     }
 1288              		.loc 1 348 0
 1289 013e 0020     		movs	r0, #0
 1290 0140 0021     		movs	r1, #0
 1291 0142 024B     		ldr	r3, .L71
 1292 0144 C3E90001 		strd	r0, [r3]
 1293              	.L57:
 1294 0148 38BD     		pop	{r3, r4, r5, pc}
 1295              	.L72:
 1296 014a 00BF     		.align	2
 1297              	.L71:
 1298 014c 00000000 		.word	countPump
 1299 0150 00000000 		.word	flowDisplay1
 1300 0154 00000000 		.word	side
 1301 0158 00000000 		.word	statePump
 1302 015c 00000000 		.word	PrevStatePump
 1303 0160 00000000 		.word	NumPositions
 1304 0164 00000000 		.word	flowDisplay2
ARM GAS  C:\Users\RECEPC~1\AppData\Local\Temp\ccp152bc.s 			page 63


 1305 0168 00000000 		.word	ActiveRF
 1306              		.cfi_endproc
 1307              	.LFE70:
 1308              		.size	PollingPump, .-PollingPump
 1309              		.section	.text.PollingDisplay1,"ax",%progbits
 1310              		.align	2
 1311              		.global	PollingDisplay1
 1312              		.thumb
 1313              		.thumb_func
 1314              		.type	PollingDisplay1, %function
 1315              	PollingDisplay1:
 1316              	.LFB71:
 361:.\main.c      ****     //if(countLCD >10){
 1317              		.loc 1 361 0
 1318              		.cfi_startproc
 1319              		@ args = 0, pretend = 0, frame = 0
 1320              		@ frame_needed = 0, uses_anonymous_args = 0
 1321 0000 F0B5     		push	{r4, r5, r6, r7, lr}
 1322              		.cfi_def_cfa_offset 20
 1323              		.cfi_offset 4, -20
 1324              		.cfi_offset 5, -16
 1325              		.cfi_offset 6, -12
 1326              		.cfi_offset 7, -8
 1327              		.cfi_offset 14, -4
 1328 0002 85B0     		sub	sp, sp, #20
 1329              		.cfi_def_cfa_offset 40
 364:.\main.c      ****         case 0:
 1330              		.loc 1 364 0
 1331 0004 B34B     		ldr	r3, .L277
 1332 0006 1B68     		ldr	r3, [r3]
 1333 0008 132B     		cmp	r3, #19
 1334 000a 01F2C681 		bhi	.L73
 1335 000e DFE813F0 		tbh	[pc, r3, lsl #1]
 1336              	.L76:
 1337 0012 1400     		.2byte	(.L75-.L76)/2
 1338 0014 2A00     		.2byte	(.L77-.L76)/2
 1339 0016 5000     		.2byte	(.L78-.L76)/2
 1340 0018 AC00     		.2byte	(.L79-.L76)/2
 1341 001a 6F01     		.2byte	(.L80-.L76)/2
 1342 001c 9D01     		.2byte	(.L81-.L76)/2
 1343 001e 1B02     		.2byte	(.L82-.L76)/2
 1344 0020 9302     		.2byte	(.L83-.L76)/2
 1345 0022 0303     		.2byte	(.L84-.L76)/2
 1346 0024 8A03     		.2byte	(.L85-.L76)/2
 1347 0026 5F04     		.2byte	(.L86-.L76)/2
 1348 0028 B204     		.2byte	(.L87-.L76)/2
 1349 002a 3905     		.2byte	(.L88-.L76)/2
 1350 002c C705     		.2byte	(.L89-.L76)/2
 1351 002e 1C06     		.2byte	(.L90-.L76)/2
 1352 0030 7107     		.2byte	(.L91-.L76)/2
 1353 0032 1508     		.2byte	(.L92-.L76)/2
 1354 0034 6A08     		.2byte	(.L93-.L76)/2
 1355 0036 EB08     		.2byte	(.L94-.L76)/2
 1356 0038 BE09     		.2byte	(.L95-.L76)/2
 1357              		.p2align 1
 1358              	.L75:
 366:.\main.c      ****             flowDisplay1 =1;
ARM GAS  C:\Users\RECEPC~1\AppData\Local\Temp\ccp152bc.s 			page 64


 1359              		.loc 1 366 0
 1360 003a FFF7FEFF 		bl	InitDisplay1
 1361              	.LVL132:
 367:.\main.c      ****             isr_3_Stop(); 
 1362              		.loc 1 367 0
 1363 003e 0122     		movs	r2, #1
 1364 0040 A44B     		ldr	r3, .L277
 1365 0042 1A60     		str	r2, [r3]
 368:.\main.c      ****             Timer_Animacion_Stop();
 1366              		.loc 1 368 0
 1367 0044 FFF7FEFF 		bl	isr_3_Stop
 1368              	.LVL133:
 369:.\main.c      ****             count_protector = 0;
 1369              		.loc 1 369 0
 1370 0048 FFF7FEFF 		bl	Timer_Animacion_Stop
 1371              	.LVL134:
 370:.\main.c      ****             bufferDisplay1.saleType = 0;
 1372              		.loc 1 370 0
 1373 004c 0023     		movs	r3, #0
 1374 004e A24A     		ldr	r2, .L277+4
 1375 0050 1370     		strb	r3, [r2]
 371:.\main.c      ****             bufferDisplay1.flagEndSale = false;  
 1376              		.loc 1 371 0
 1377 0052 A24A     		ldr	r2, .L277+8
 1378 0054 82F86130 		strb	r3, [r2, #97]
 372:.\main.c      ****             side.a.RFstateReport = 0;
 1379              		.loc 1 372 0
 1380 0058 82F80331 		strb	r3, [r2, #259]
 373:.\main.c      ****         break;
 1381              		.loc 1 373 0
 1382 005c A04A     		ldr	r2, .L277+12
 1383 005e 82F80731 		strb	r3, [r2, #263]
 374:.\main.c      ****         case 1: //Menu
 1384              		.loc 1 374 0
 1385 0062 01F09AB9 		b	.L73
 1386              	.L77:
 376:.\main.c      ****             if(Display1_GetRxBufferSize()==8){
 1387              		.loc 1 376 0
 1388 0066 0822     		movs	r2, #8
 1389 0068 9D4B     		ldr	r3, .L277+12
 1390 006a 83F80321 		strb	r2, [r3, #259]
 377:.\main.c      ****                 if((Display1_rxBuffer[0]==0xAA) && (Display1_rxBuffer[6]==0xC3) && (Display1_rxBuff
 1391              		.loc 1 377 0
 1392 006e FFF7FEFF 		bl	Display1_GetRxBufferSize
 1393              	.LVL135:
 1394 0072 0828     		cmp	r0, #8
 1395 0074 41F09181 		bne	.L73
 378:.\main.c      ****                     flowDisplay1 = 2;      //Pantalla forma de pago                      
 1396              		.loc 1 378 0
 1397 0078 9A4B     		ldr	r3, .L277+16
 1398 007a 1B78     		ldrb	r3, [r3]	@ zero_extendqisi2
 1399 007c DBB2     		uxtb	r3, r3
 1400 007e AA2B     		cmp	r3, #170
 1401 0080 10D1     		bne	.L96
 378:.\main.c      ****                     flowDisplay1 = 2;      //Pantalla forma de pago                      
 1402              		.loc 1 378 0 is_stmt 0 discriminator 1
 1403 0082 984B     		ldr	r3, .L277+16
ARM GAS  C:\Users\RECEPC~1\AppData\Local\Temp\ccp152bc.s 			page 65


 1404 0084 9B79     		ldrb	r3, [r3, #6]	@ zero_extendqisi2
 1405 0086 DBB2     		uxtb	r3, r3
 1406 0088 C32B     		cmp	r3, #195
 1407 008a 0BD1     		bne	.L96
 378:.\main.c      ****                     flowDisplay1 = 2;      //Pantalla forma de pago                      
 1408              		.loc 1 378 0 discriminator 2
 1409 008c 954B     		ldr	r3, .L277+16
 1410 008e DB79     		ldrb	r3, [r3, #7]	@ zero_extendqisi2
 1411 0090 DBB2     		uxtb	r3, r3
 1412 0092 3C2B     		cmp	r3, #60
 1413 0094 06D1     		bne	.L96
 379:.\main.c      ****                     SetPicture(1,DISPLAY_FORMA_PAGO_DESEADA);                                      
 1414              		.loc 1 379 0 is_stmt 1
 1415 0096 0222     		movs	r2, #2
 1416 0098 8E4B     		ldr	r3, .L277
 1417 009a 1A60     		str	r2, [r3]
 380:.\main.c      ****                 }  
 1418              		.loc 1 380 0
 1419 009c 0120     		movs	r0, #1
 1420 009e 0421     		movs	r1, #4
 1421 00a0 FFF7FEFF 		bl	SetPicture
 1422              	.LVL136:
 1423              	.L96:
 382:.\main.c      ****                 Display1_ClearRxBuffer();
 1424              		.loc 1 382 0
 1425 00a4 0A20     		movs	r0, #10
 1426 00a6 FFF7FEFF 		bl	CyDelay
 1427              	.LVL137:
 383:.\main.c      ****             }
 1428              		.loc 1 383 0
 1429 00aa FFF7FEFF 		bl	Display1_ClearRxBuffer
 1430              	.LVL138:
 1431 00ae 01F074B9 		b	.L73
 1432              	.L78:
 387:.\main.c      ****                 if((Display1_rxBuffer[0]==0xAA) && (Display1_rxBuffer[6]==0xC3) && (Display1_rxBuff
 1433              		.loc 1 387 0
 1434 00b2 FFF7FEFF 		bl	Display1_GetRxBufferSize
 1435              	.LVL139:
 1436 00b6 0828     		cmp	r0, #8
 1437 00b8 41F06F81 		bne	.L73
 388:.\main.c      ****                     switch(Display1_rxBuffer[3]){
 1438              		.loc 1 388 0
 1439 00bc 894B     		ldr	r3, .L277+16
 1440 00be 1B78     		ldrb	r3, [r3]	@ zero_extendqisi2
 1441 00c0 DBB2     		uxtb	r3, r3
 1442 00c2 AA2B     		cmp	r3, #170
 1443 00c4 4AD1     		bne	.L97
 388:.\main.c      ****                     switch(Display1_rxBuffer[3]){
 1444              		.loc 1 388 0 is_stmt 0 discriminator 1
 1445 00c6 874B     		ldr	r3, .L277+16
 1446 00c8 9B79     		ldrb	r3, [r3, #6]	@ zero_extendqisi2
 1447 00ca DBB2     		uxtb	r3, r3
 1448 00cc C32B     		cmp	r3, #195
 1449 00ce 45D1     		bne	.L97
 388:.\main.c      ****                     switch(Display1_rxBuffer[3]){
 1450              		.loc 1 388 0 discriminator 2
 1451 00d0 844B     		ldr	r3, .L277+16
ARM GAS  C:\Users\RECEPC~1\AppData\Local\Temp\ccp152bc.s 			page 66


 1452 00d2 DB79     		ldrb	r3, [r3, #7]	@ zero_extendqisi2
 1453 00d4 DBB2     		uxtb	r3, r3
 1454 00d6 3C2B     		cmp	r3, #60
 1455 00d8 40D1     		bne	.L97
 389:.\main.c      ****                         case 0x0D:  //Pantalla efectivo              
 1456              		.loc 1 389 0 is_stmt 1
 1457 00da 824B     		ldr	r3, .L277+16
 1458 00dc DB78     		ldrb	r3, [r3, #3]	@ zero_extendqisi2
 1459 00de DBB2     		uxtb	r3, r3
 1460 00e0 452B     		cmp	r3, #69
 1461 00e2 24D0     		beq	.L98
 1462 00e4 04D8     		bhi	.L99
 1463 00e6 0D2B     		cmp	r3, #13
 1464 00e8 07D0     		beq	.L100
 1465 00ea 0E2B     		cmp	r3, #14
 1466 00ec 10D0     		beq	.L101
 1467 00ee 35E0     		b	.L97
 1468              	.L99:
 1469 00f0 7E2B     		cmp	r3, #126
 1470 00f2 2CD0     		beq	.L102
 1471 00f4 942B     		cmp	r3, #148
 1472 00f6 22D0     		beq	.L103
 1473 00f8 30E0     		b	.L97
 1474              	.L100:
 391:.\main.c      ****                             bufferDisplay1.saleType = 1;
 1475              		.loc 1 391 0
 1476 00fa 0322     		movs	r2, #3
 1477 00fc 754B     		ldr	r3, .L277
 1478 00fe 1A60     		str	r2, [r3]
 392:.\main.c      ****                             SetPicture(1,DISPLAY_FORMA_PROGRAMACION);                            
 1479              		.loc 1 392 0
 1480 0100 0120     		movs	r0, #1
 1481 0102 764B     		ldr	r3, .L277+8
 1482 0104 83F86100 		strb	r0, [r3, #97]
 393:.\main.c      ****                         break;
 1483              		.loc 1 393 0
 1484 0108 0521     		movs	r1, #5
 1485 010a FFF7FEFF 		bl	SetPicture
 1486              	.LVL140:
 394:.\main.c      ****                         case 0x0E:  //Pantalla credito  
 1487              		.loc 1 394 0
 1488 010e 25E0     		b	.L97
 1489              	.L101:
 396:.\main.c      ****                             bufferDisplay1.saleType = 2;
 1490              		.loc 1 396 0
 1491 0110 0A22     		movs	r2, #10
 1492 0112 704B     		ldr	r3, .L277
 1493 0114 1A60     		str	r2, [r3]
 397:.\main.c      ****                             count_protector = 0;
 1494              		.loc 1 397 0
 1495 0116 0222     		movs	r2, #2
 1496 0118 704B     		ldr	r3, .L277+8
 1497 011a 83F86120 		strb	r2, [r3, #97]
 398:.\main.c      ****                             SetPicture(1,DISPLAY_ID_DIGITAL);                            
 1498              		.loc 1 398 0
 1499 011e 0022     		movs	r2, #0
 1500 0120 6D4B     		ldr	r3, .L277+4
ARM GAS  C:\Users\RECEPC~1\AppData\Local\Temp\ccp152bc.s 			page 67


 1501 0122 1A70     		strb	r2, [r3]
 399:.\main.c      ****                         break;
 1502              		.loc 1 399 0
 1503 0124 0120     		movs	r0, #1
 1504 0126 8521     		movs	r1, #133
 1505 0128 FFF7FEFF 		bl	SetPicture
 1506              	.LVL141:
 400:.\main.c      ****                         case 0x45:  //Pantalla otras opciones 
 1507              		.loc 1 400 0
 1508 012c 16E0     		b	.L97
 1509              	.L98:
 402:.\main.c      ****                             SetPicture(1,DISPLAY_OPERACIONES);                            
 1510              		.loc 1 402 0
 1511 012e 0C22     		movs	r2, #12
 1512 0130 684B     		ldr	r3, .L277
 1513 0132 1A60     		str	r2, [r3]
 403:.\main.c      ****                         break;
 1514              		.loc 1 403 0
 1515 0134 0120     		movs	r0, #1
 1516 0136 8321     		movs	r1, #131
 1517 0138 FFF7FEFF 		bl	SetPicture
 1518              	.LVL142:
 404:.\main.c      ****                             
 1519              		.loc 1 404 0
 1520 013c 0EE0     		b	.L97
 1521              	.L103:
 407:.\main.c      ****                             SetPicture(1,DISPLAY_INICIO0);                            
 1522              		.loc 1 407 0
 1523 013e 0022     		movs	r2, #0
 1524 0140 644B     		ldr	r3, .L277
 1525 0142 1A60     		str	r2, [r3]
 408:.\main.c      ****                         break;
 1526              		.loc 1 408 0
 1527 0144 0120     		movs	r0, #1
 1528 0146 0146     		mov	r1, r0
 1529 0148 FFF7FEFF 		bl	SetPicture
 1530              	.LVL143:
 409:.\main.c      ****                         
 1531              		.loc 1 409 0
 1532 014c 06E0     		b	.L97
 1533              	.L102:
 412:.\main.c      ****                             SetPicture(1,DISPLAY_INICIO0);                            
 1534              		.loc 1 412 0
 1535 014e 0022     		movs	r2, #0
 1536 0150 604B     		ldr	r3, .L277
 1537 0152 1A60     		str	r2, [r3]
 413:.\main.c      ****                         break;
 1538              		.loc 1 413 0
 1539 0154 0120     		movs	r0, #1
 1540 0156 0146     		mov	r1, r0
 1541 0158 FFF7FEFF 		bl	SetPicture
 1542              	.LVL144:
 1543              	.L97:
 417:.\main.c      ****                 Display1_ClearRxBuffer();
 1544              		.loc 1 417 0
 1545 015c 0A20     		movs	r0, #10
 1546 015e FFF7FEFF 		bl	CyDelay
ARM GAS  C:\Users\RECEPC~1\AppData\Local\Temp\ccp152bc.s 			page 68


 1547              	.LVL145:
 418:.\main.c      ****             }
 1548              		.loc 1 418 0
 1549 0162 FFF7FEFF 		bl	Display1_ClearRxBuffer
 1550              	.LVL146:
 1551 0166 01F018B9 		b	.L73
 1552              	.L79:
 423:.\main.c      ****                 if((Display1_rxBuffer[0]==0xAA) && (Display1_rxBuffer[6]==0xC3) && (Display1_rxBuff
 1553              		.loc 1 423 0
 1554 016a FFF7FEFF 		bl	Display1_GetRxBufferSize
 1555              	.LVL147:
 1556 016e 0828     		cmp	r0, #8
 1557 0170 41F01381 		bne	.L73
 424:.\main.c      ****                     switch(Display1_rxBuffer[3]){
 1558              		.loc 1 424 0
 1559 0174 5B4B     		ldr	r3, .L277+16
 1560 0176 1B78     		ldrb	r3, [r3]	@ zero_extendqisi2
 1561 0178 DBB2     		uxtb	r3, r3
 1562 017a AA2B     		cmp	r3, #170
 1563 017c 40F0A380 		bne	.L104
 424:.\main.c      ****                     switch(Display1_rxBuffer[3]){
 1564              		.loc 1 424 0 is_stmt 0 discriminator 1
 1565 0180 584B     		ldr	r3, .L277+16
 1566 0182 9B79     		ldrb	r3, [r3, #6]	@ zero_extendqisi2
 1567 0184 DBB2     		uxtb	r3, r3
 1568 0186 C32B     		cmp	r3, #195
 1569 0188 40F09D80 		bne	.L104
 424:.\main.c      ****                     switch(Display1_rxBuffer[3]){
 1570              		.loc 1 424 0 discriminator 2
 1571 018c 554B     		ldr	r3, .L277+16
 1572 018e DB79     		ldrb	r3, [r3, #7]	@ zero_extendqisi2
 1573 0190 DBB2     		uxtb	r3, r3
 1574 0192 3C2B     		cmp	r3, #60
 1575 0194 40F09780 		bne	.L104
 425:.\main.c      ****                         case 0x0F:  //Preset dinero                
 1576              		.loc 1 425 0 is_stmt 1
 1577 0198 524B     		ldr	r3, .L277+16
 1578 019a DB78     		ldrb	r3, [r3, #3]	@ zero_extendqisi2
 1579 019c DBB2     		uxtb	r3, r3
 1580 019e 3B2B     		cmp	r3, #59
 1581 01a0 00F08280 		beq	.L105
 1582 01a4 04D8     		bhi	.L106
 1583 01a6 0F2B     		cmp	r3, #15
 1584 01a8 0BD0     		beq	.L107
 1585 01aa 102B     		cmp	r3, #16
 1586 01ac 25D0     		beq	.L108
 1587 01ae 8AE0     		b	.L104
 1588              	.L106:
 1589 01b0 7E2B     		cmp	r3, #126
 1590 01b2 00F08180 		beq	.L109
 1591 01b6 942B     		cmp	r3, #148
 1592 01b8 6ED0     		beq	.L110
 1593 01ba 432B     		cmp	r3, #67
 1594 01bc 40F08380 		bne	.L104
 1595 01c0 37E0     		b	.L111
 1596              	.L107:
 427:.\main.c      ****                             bufferDisplay1.presetType[0]=2;
ARM GAS  C:\Users\RECEPC~1\AppData\Local\Temp\ccp152bc.s 			page 69


 1597              		.loc 1 427 0
 1598 01c2 0422     		movs	r2, #4
 1599 01c4 434B     		ldr	r3, .L277
 1600 01c6 1A60     		str	r2, [r3]
 428:.\main.c      ****                             bufferDisplay1.presetType[1]='D';
 1601              		.loc 1 428 0
 1602 01c8 444B     		ldr	r3, .L277+8
 1603 01ca 0224     		movs	r4, #2
 1604 01cc 83F86340 		strb	r4, [r3, #99]
 429:.\main.c      ****                             numberKeys1=0;
 1605              		.loc 1 429 0
 1606 01d0 4422     		movs	r2, #68
 1607 01d2 83F86420 		strb	r2, [r3, #100]
 430:.\main.c      ****                             SetPicture(1,DISPLAY_INTRODUZCA_VALOR);   
 1608              		.loc 1 430 0
 1609 01d6 0025     		movs	r5, #0
 1610 01d8 434B     		ldr	r3, .L277+20
 1611 01da 1D70     		strb	r5, [r3]
 431:.\main.c      ****                             WriteLCD(1,'$',3,2,1,0x0000,'N');
 1612              		.loc 1 431 0
 1613 01dc 0120     		movs	r0, #1
 1614 01de 0621     		movs	r1, #6
 1615 01e0 FFF7FEFF 		bl	SetPicture
 1616              	.LVL148:
 432:.\main.c      ****                         break; 
 1617              		.loc 1 432 0
 1618 01e4 0120     		movs	r0, #1
 1619 01e6 0090     		str	r0, [sp]
 1620 01e8 0195     		str	r5, [sp, #4]
 1621 01ea 4E23     		movs	r3, #78
 1622 01ec 0293     		str	r3, [sp, #8]
 1623 01ee 2421     		movs	r1, #36
 1624 01f0 0322     		movs	r2, #3
 1625 01f2 2346     		mov	r3, r4
 1626 01f4 FFF7FEFF 		bl	WriteLCD
 1627              	.LVL149:
 433:.\main.c      ****                         case 0x10:  //Preset volumen                 
 1628              		.loc 1 433 0
 1629 01f8 65E0     		b	.L104
 1630              	.L108:
 435:.\main.c      ****                             bufferDisplay1.presetType[0]=1;
 1631              		.loc 1 435 0
 1632 01fa 0422     		movs	r2, #4
 1633 01fc 354B     		ldr	r3, .L277
 1634 01fe 1A60     		str	r2, [r3]
 436:.\main.c      ****                             bufferDisplay1.presetType[1]='V';
 1635              		.loc 1 436 0
 1636 0200 364B     		ldr	r3, .L277+8
 1637 0202 0124     		movs	r4, #1
 1638 0204 83F86340 		strb	r4, [r3, #99]
 437:.\main.c      ****                             numberKeys1=0;                            
 1639              		.loc 1 437 0
 1640 0208 5625     		movs	r5, #86
 1641 020a 83F86450 		strb	r5, [r3, #100]
 438:.\main.c      ****                             SetPicture(1,DISPLAY_INTRODUZCA_VOLUMEN);                            
 1642              		.loc 1 438 0
 1643 020e 0026     		movs	r6, #0
ARM GAS  C:\Users\RECEPC~1\AppData\Local\Temp\ccp152bc.s 			page 70


 1644 0210 354B     		ldr	r3, .L277+20
 1645 0212 1E70     		strb	r6, [r3]
 439:.\main.c      ****                             WriteLCD(1,'V',3,2,1,0x0000,'N');                            
 1646              		.loc 1 439 0
 1647 0214 2046     		mov	r0, r4
 1648 0216 0D21     		movs	r1, #13
 1649 0218 FFF7FEFF 		bl	SetPicture
 1650              	.LVL150:
 440:.\main.c      ****                         break;
 1651              		.loc 1 440 0
 1652 021c 0094     		str	r4, [sp]
 1653 021e 0196     		str	r6, [sp, #4]
 1654 0220 4E23     		movs	r3, #78
 1655 0222 0293     		str	r3, [sp, #8]
 1656 0224 2046     		mov	r0, r4
 1657 0226 2946     		mov	r1, r5
 1658 0228 0322     		movs	r2, #3
 1659 022a 0223     		movs	r3, #2
 1660 022c FFF7FEFF 		bl	WriteLCD
 1661              	.LVL151:
 441:.\main.c      ****                         case 0x43:  //Preset full 
 1662              		.loc 1 441 0
 1663 0230 49E0     		b	.L104
 1664              	.L111:
 443:.\main.c      ****                             bufferDisplay1.presetType[1]='F';
 1665              		.loc 1 443 0
 1666 0232 2A4B     		ldr	r3, .L277+8
 1667 0234 0222     		movs	r2, #2
 1668 0236 83F86320 		strb	r2, [r3, #99]
 444:.\main.c      ****                             for(x=1;x<(digits-1);x++){
 1669              		.loc 1 444 0
 1670 023a 4622     		movs	r2, #70
 1671 023c 83F86420 		strb	r2, [r3, #100]
 1672              	.LVL152:
 445:.\main.c      ****                                 bufferDisplay1.presetValue[0][x]='9';
 1673              		.loc 1 445 0
 1674 0240 0123     		movs	r3, #1
 1675 0242 06E0     		b	.L112
 1676              	.LVL153:
 1677              	.L113:
 446:.\main.c      ****                             }
 1678              		.loc 1 446 0 discriminator 3
 1679 0244 254A     		ldr	r2, .L277+8
 1680 0246 1A44     		add	r2, r2, r3
 1681 0248 3921     		movs	r1, #57
 1682 024a 82F86510 		strb	r1, [r2, #101]
 445:.\main.c      ****                                 bufferDisplay1.presetValue[0][x]='9';
 1683              		.loc 1 445 0 discriminator 3
 1684 024e 0133     		adds	r3, r3, #1
 1685              	.LVL154:
 1686 0250 DBB2     		uxtb	r3, r3
 1687              	.LVL155:
 1688              	.L112:
 445:.\main.c      ****                                 bufferDisplay1.presetValue[0][x]='9';
 1689              		.loc 1 445 0 is_stmt 0 discriminator 1
 1690 0252 1A46     		mov	r2, r3
 1691 0254 2549     		ldr	r1, .L277+24
ARM GAS  C:\Users\RECEPC~1\AppData\Local\Temp\ccp152bc.s 			page 71


 1692 0256 0978     		ldrb	r1, [r1]	@ zero_extendqisi2
 1693 0258 481E     		subs	r0, r1, #1
 1694 025a 8342     		cmp	r3, r0
 1695 025c F2DB     		blt	.L113
 448:.\main.c      ****                             bufferDisplay1.presetValue[0][x+1]='0';
 1696              		.loc 1 448 0 is_stmt 1
 1697 025e 1F4B     		ldr	r3, .L277+8
 1698              	.LVL156:
 1699 0260 9C18     		adds	r4, r3, r2
 1700 0262 3020     		movs	r0, #48
 1701 0264 84F86500 		strb	r0, [r4, #101]
 449:.\main.c      ****                             bufferDisplay1.presetValue[0][0]=digits;
 1702              		.loc 1 449 0
 1703 0268 84F86600 		strb	r0, [r4, #102]
 450:.\main.c      ****                             for(x=0;x<=bufferDisplay1.presetValue[0][0];x++){
 1704              		.loc 1 450 0
 1705 026c 83F86510 		strb	r1, [r3, #101]
 1706              	.LVL157:
 451:.\main.c      ****                                 bufferDisplay1.presetValue[1][x]=bufferDisplay1.presetValue[0][x];
 1707              		.loc 1 451 0
 1708 0270 0023     		movs	r3, #0
 1709 0272 07E0     		b	.L114
 1710              	.LVL158:
 1711              	.L115:
 452:.\main.c      ****                             }
 1712              		.loc 1 452 0 discriminator 3
 1713 0274 194A     		ldr	r2, .L277+8
 1714 0276 1A44     		add	r2, r2, r3
 1715 0278 92F86500 		ldrb	r0, [r2, #101]	@ zero_extendqisi2
 1716 027c 82F86F00 		strb	r0, [r2, #111]
 451:.\main.c      ****                                 bufferDisplay1.presetValue[1][x]=bufferDisplay1.presetValue[0][x];
 1717              		.loc 1 451 0 discriminator 3
 1718 0280 0133     		adds	r3, r3, #1
 1719              	.LVL159:
 1720 0282 DBB2     		uxtb	r3, r3
 1721              	.LVL160:
 1722              	.L114:
 451:.\main.c      ****                                 bufferDisplay1.presetValue[1][x]=bufferDisplay1.presetValue[0][x];
 1723              		.loc 1 451 0 is_stmt 0 discriminator 1
 1724 0284 8B42     		cmp	r3, r1
 1725 0286 F5D9     		bls	.L115
 454:.\main.c      ****                             SetPicture(1,DISPLAY_SELECCIONE_PRODUCTO4);                          
 1726              		.loc 1 454 0 is_stmt 1
 1727 0288 0522     		movs	r2, #5
 1728 028a 124B     		ldr	r3, .L277
 1729              	.LVL161:
 1730 028c 1A60     		str	r2, [r3]
 455:.\main.c      ****                         break;
 1731              		.loc 1 455 0
 1732 028e 0120     		movs	r0, #1
 1733 0290 8621     		movs	r1, #134
 1734 0292 FFF7FEFF 		bl	SetPicture
 1735              	.LVL162:
 456:.\main.c      ****                         case 0x94:  //Retroceso 
 1736              		.loc 1 456 0
 1737 0296 16E0     		b	.L104
 1738              	.L110:
ARM GAS  C:\Users\RECEPC~1\AppData\Local\Temp\ccp152bc.s 			page 72


 458:.\main.c      ****                             SetPicture(1,DISPLAY_INICIO0);                                         
 1739              		.loc 1 458 0
 1740 0298 0022     		movs	r2, #0
 1741 029a 0E4B     		ldr	r3, .L277
 1742 029c 1A60     		str	r2, [r3]
 459:.\main.c      ****                         break;
 1743              		.loc 1 459 0
 1744 029e 0120     		movs	r0, #1
 1745 02a0 0146     		mov	r1, r0
 1746 02a2 FFF7FEFF 		bl	SetPicture
 1747              	.LVL163:
 460:.\main.c      ****                         case 0x3B:  //Pantalla Inicial    
 1748              		.loc 1 460 0
 1749 02a6 0EE0     		b	.L104
 1750              	.L105:
 462:.\main.c      ****                             SetPicture(1,DISPLAY_INICIO0);                            
 1751              		.loc 1 462 0
 1752 02a8 0022     		movs	r2, #0
 1753 02aa 0A4B     		ldr	r3, .L277
 1754 02ac 1A60     		str	r2, [r3]
 463:.\main.c      ****                         break;
 1755              		.loc 1 463 0
 1756 02ae 0120     		movs	r0, #1
 1757 02b0 0146     		mov	r1, r0
 1758 02b2 FFF7FEFF 		bl	SetPicture
 1759              	.LVL164:
 464:.\main.c      ****                         case 0x7E:  //Pantalla Inicial    
 1760              		.loc 1 464 0
 1761 02b6 06E0     		b	.L104
 1762              	.L109:
 466:.\main.c      ****                             SetPicture(1,DISPLAY_INICIO0);                            
 1763              		.loc 1 466 0
 1764 02b8 0022     		movs	r2, #0
 1765 02ba 064B     		ldr	r3, .L277
 1766 02bc 1A60     		str	r2, [r3]
 467:.\main.c      ****                         break;
 1767              		.loc 1 467 0
 1768 02be 0120     		movs	r0, #1
 1769 02c0 0146     		mov	r1, r0
 1770 02c2 FFF7FEFF 		bl	SetPicture
 1771              	.LVL165:
 1772              	.L104:
 471:.\main.c      ****                 Display1_ClearRxBuffer();
 1773              		.loc 1 471 0
 1774 02c6 0A20     		movs	r0, #10
 1775 02c8 FFF7FEFF 		bl	CyDelay
 1776              	.LVL166:
 472:.\main.c      ****             }
 1777              		.loc 1 472 0
 1778 02cc FFF7FEFF 		bl	Display1_ClearRxBuffer
 1779              	.LVL167:
 1780 02d0 01F063B8 		b	.L73
 1781              	.L278:
 1782              		.align	2
 1783              	.L277:
 1784 02d4 00000000 		.word	flowDisplay1
 1785 02d8 00000000 		.word	count_protector
ARM GAS  C:\Users\RECEPC~1\AppData\Local\Temp\ccp152bc.s 			page 73


 1786 02dc 00000000 		.word	bufferDisplay1
 1787 02e0 00000000 		.word	side
 1788 02e4 00000000 		.word	Display1_rxBuffer
 1789 02e8 00000000 		.word	numberKeys1
 1790 02ec 00000000 		.word	digits
 1791              	.L80:
 477:.\main.c      ****                 case 0:  //Pantalla Inicial    
 1792              		.loc 1 477 0
 1793 02f0 0120     		movs	r0, #1
 1794 02f2 894B     		ldr	r3, .L279
 1795 02f4 1978     		ldrb	r1, [r3]	@ zero_extendqisi2
 1796 02f6 0022     		movs	r2, #0
 1797 02f8 FFF7FEFF 		bl	alphanumeric_keyboard
 1798              	.LVL168:
 1799 02fc 18B1     		cbz	r0, .L116
 1800 02fe 0128     		cmp	r0, #1
 1801 0300 15D0     		beq	.L257
 1802 0302 01F04AB8 		b	.L73
 1803              	.L116:
 479:.\main.c      ****                     SetPicture(1,DISPLAY_INICIO0);                            
 1804              		.loc 1 479 0
 1805 0306 0022     		movs	r2, #0
 1806 0308 844B     		ldr	r3, .L279+4
 1807 030a 1A60     		str	r2, [r3]
 480:.\main.c      ****                 break;
 1808              		.loc 1 480 0
 1809 030c 0120     		movs	r0, #1
 1810 030e 0146     		mov	r1, r0
 1811 0310 FFF7FEFF 		bl	SetPicture
 1812              	.LVL169:
 481:.\main.c      ****                     
 1813              		.loc 1 481 0
 1814 0314 01F041B8 		b	.L73
 1815              	.LVL170:
 1816              	.L118:
 485:.\main.c      ****                         bufferDisplay1.presetValue[1][x]=bufferDisplay1.valueKeys[x];
 1817              		.loc 1 485 0 discriminator 3
 1818 0318 814A     		ldr	r2, .L279+8
 1819 031a 1A44     		add	r2, r2, r3
 1820 031c 92F84B10 		ldrb	r1, [r2, #75]	@ zero_extendqisi2
 1821 0320 82F86510 		strb	r1, [r2, #101]
 486:.\main.c      ****                     }  
 1822              		.loc 1 486 0 discriminator 3
 1823 0324 82F86F10 		strb	r1, [r2, #111]
 484:.\main.c      ****                         bufferDisplay1.presetValue[0][x]=bufferDisplay1.valueKeys[x];
 1824              		.loc 1 484 0 discriminator 3
 1825 0328 0133     		adds	r3, r3, #1
 1826              	.LVL171:
 1827 032a DBB2     		uxtb	r3, r3
 1828              	.LVL172:
 1829 032c 00E0     		b	.L117
 1830              	.LVL173:
 1831              	.L257:
 477:.\main.c      ****                 case 0:  //Pantalla Inicial    
 1832              		.loc 1 477 0
 1833 032e 0023     		movs	r3, #0
 1834              	.L117:
ARM GAS  C:\Users\RECEPC~1\AppData\Local\Temp\ccp152bc.s 			page 74


 1835              	.LVL174:
 484:.\main.c      ****                         bufferDisplay1.presetValue[0][x]=bufferDisplay1.valueKeys[x];
 1836              		.loc 1 484 0 discriminator 1
 1837 0330 7B4A     		ldr	r2, .L279+8
 1838 0332 92F84B20 		ldrb	r2, [r2, #75]	@ zero_extendqisi2
 1839 0336 9A42     		cmp	r2, r3
 1840 0338 EED2     		bcs	.L118
 488:.\main.c      ****                     SetPicture(1,DISPLAY_SELECCIONE_PRODUCTO4);
 1841              		.loc 1 488 0
 1842 033a 0522     		movs	r2, #5
 1843 033c 774B     		ldr	r3, .L279+4
 1844              	.LVL175:
 1845 033e 1A60     		str	r2, [r3]
 489:.\main.c      ****                 break;
 1846              		.loc 1 489 0
 1847 0340 0120     		movs	r0, #1
 1848 0342 8621     		movs	r1, #134
 1849 0344 FFF7FEFF 		bl	SetPicture
 1850              	.LVL176:
 490:.\main.c      ****             }
 1851              		.loc 1 490 0
 1852 0348 01F027B8 		b	.L73
 1853              	.L81:
 495:.\main.c      ****                 if((Display1_rxBuffer[0]==0xAA) && (Display1_rxBuffer[6]==0xC3) && (Display1_rxBuff
 1854              		.loc 1 495 0
 1855 034c FFF7FEFF 		bl	Display1_GetRxBufferSize
 1856              	.LVL177:
 1857 0350 0828     		cmp	r0, #8
 1858 0352 41F02280 		bne	.L73
 496:.\main.c      ****                     switch(Display1_rxBuffer[3]){
 1859              		.loc 1 496 0
 1860 0356 734B     		ldr	r3, .L279+12
 1861 0358 1B78     		ldrb	r3, [r3]	@ zero_extendqisi2
 1862 035a DBB2     		uxtb	r3, r3
 1863 035c AA2B     		cmp	r3, #170
 1864 035e 6CD1     		bne	.L119
 496:.\main.c      ****                     switch(Display1_rxBuffer[3]){
 1865              		.loc 1 496 0 is_stmt 0 discriminator 1
 1866 0360 704B     		ldr	r3, .L279+12
 1867 0362 9B79     		ldrb	r3, [r3, #6]	@ zero_extendqisi2
 1868 0364 DBB2     		uxtb	r3, r3
 1869 0366 C32B     		cmp	r3, #195
 1870 0368 67D1     		bne	.L119
 496:.\main.c      ****                     switch(Display1_rxBuffer[3]){
 1871              		.loc 1 496 0 discriminator 2
 1872 036a 6E4B     		ldr	r3, .L279+12
 1873 036c DB79     		ldrb	r3, [r3, #7]	@ zero_extendqisi2
 1874 036e DBB2     		uxtb	r3, r3
 1875 0370 3C2B     		cmp	r3, #60
 1876 0372 62D1     		bne	.L119
 497:.\main.c      ****                         case 0x80:  //Grado 1 
 1877              		.loc 1 497 0 is_stmt 1
 1878 0374 6B4B     		ldr	r3, .L279+12
 1879 0376 DB78     		ldrb	r3, [r3, #3]	@ zero_extendqisi2
 1880 0378 7E3B     		subs	r3, r3, #126
 1881 037a 3A2B     		cmp	r3, #58
 1882 037c 5DD8     		bhi	.L119
ARM GAS  C:\Users\RECEPC~1\AppData\Local\Temp\ccp152bc.s 			page 75


 1883 037e DFE803F0 		tbb	[pc, r3]
 1884              	.L121:
 1885 0382 55       		.byte	(.L120-.L121)/2
 1886 0383 35       		.byte	(.L122-.L121)/2
 1887 0384 1E       		.byte	(.L123-.L121)/2
 1888 0385 29       		.byte	(.L124-.L121)/2
 1889 0386 5C       		.byte	(.L119-.L121)/2
 1890 0387 5C       		.byte	(.L119-.L121)/2
 1891 0388 5C       		.byte	(.L119-.L121)/2
 1892 0389 5C       		.byte	(.L119-.L121)/2
 1893 038a 5C       		.byte	(.L119-.L121)/2
 1894 038b 5C       		.byte	(.L119-.L121)/2
 1895 038c 5C       		.byte	(.L119-.L121)/2
 1896 038d 5C       		.byte	(.L119-.L121)/2
 1897 038e 5C       		.byte	(.L119-.L121)/2
 1898 038f 5C       		.byte	(.L119-.L121)/2
 1899 0390 5C       		.byte	(.L119-.L121)/2
 1900 0391 5C       		.byte	(.L119-.L121)/2
 1901 0392 5C       		.byte	(.L119-.L121)/2
 1902 0393 5C       		.byte	(.L119-.L121)/2
 1903 0394 5C       		.byte	(.L119-.L121)/2
 1904 0395 5C       		.byte	(.L119-.L121)/2
 1905 0396 5C       		.byte	(.L119-.L121)/2
 1906 0397 5C       		.byte	(.L119-.L121)/2
 1907 0398 4D       		.byte	(.L125-.L121)/2
 1908 0399 5C       		.byte	(.L119-.L121)/2
 1909 039a 5C       		.byte	(.L119-.L121)/2
 1910 039b 5C       		.byte	(.L119-.L121)/2
 1911 039c 5C       		.byte	(.L119-.L121)/2
 1912 039d 5C       		.byte	(.L119-.L121)/2
 1913 039e 5C       		.byte	(.L119-.L121)/2
 1914 039f 5C       		.byte	(.L119-.L121)/2
 1915 03a0 5C       		.byte	(.L119-.L121)/2
 1916 03a1 5C       		.byte	(.L119-.L121)/2
 1917 03a2 5C       		.byte	(.L119-.L121)/2
 1918 03a3 5C       		.byte	(.L119-.L121)/2
 1919 03a4 5C       		.byte	(.L119-.L121)/2
 1920 03a5 5C       		.byte	(.L119-.L121)/2
 1921 03a6 5C       		.byte	(.L119-.L121)/2
 1922 03a7 5C       		.byte	(.L119-.L121)/2
 1923 03a8 5C       		.byte	(.L119-.L121)/2
 1924 03a9 5C       		.byte	(.L119-.L121)/2
 1925 03aa 5C       		.byte	(.L119-.L121)/2
 1926 03ab 5C       		.byte	(.L119-.L121)/2
 1927 03ac 5C       		.byte	(.L119-.L121)/2
 1928 03ad 5C       		.byte	(.L119-.L121)/2
 1929 03ae 5C       		.byte	(.L119-.L121)/2
 1930 03af 5C       		.byte	(.L119-.L121)/2
 1931 03b0 5C       		.byte	(.L119-.L121)/2
 1932 03b1 5C       		.byte	(.L119-.L121)/2
 1933 03b2 5C       		.byte	(.L119-.L121)/2
 1934 03b3 5C       		.byte	(.L119-.L121)/2
 1935 03b4 5C       		.byte	(.L119-.L121)/2
 1936 03b5 5C       		.byte	(.L119-.L121)/2
 1937 03b6 5C       		.byte	(.L119-.L121)/2
 1938 03b7 5C       		.byte	(.L119-.L121)/2
 1939 03b8 5C       		.byte	(.L119-.L121)/2
ARM GAS  C:\Users\RECEPC~1\AppData\Local\Temp\ccp152bc.s 			page 76


 1940 03b9 5C       		.byte	(.L119-.L121)/2
 1941 03ba 5C       		.byte	(.L119-.L121)/2
 1942 03bb 5C       		.byte	(.L119-.L121)/2
 1943 03bc 41       		.byte	(.L126-.L121)/2
 1944 03bd 00       		.p2align 1
 1945              	.L123:
 499:.\main.c      ****                             side.a.hose = 1;
 1946              		.loc 1 499 0
 1947 03be 0622     		movs	r2, #6
 1948 03c0 564B     		ldr	r3, .L279+4
 1949 03c2 1A60     		str	r2, [r3]
 500:.\main.c      ****                             SetPicture(1,DISPLAY_DESEA_IMPRIMIR_RECIBO);                           
 1950              		.loc 1 500 0
 1951 03c4 0120     		movs	r0, #1
 1952 03c6 584B     		ldr	r3, .L279+16
 1953 03c8 83F80101 		strb	r0, [r3, #257]
 501:.\main.c      ****                         break;
 1954              		.loc 1 501 0
 1955 03cc 0B21     		movs	r1, #11
 1956 03ce FFF7FEFF 		bl	SetPicture
 1957              	.LVL178:
 502:.\main.c      ****                             
 1958              		.loc 1 502 0
 1959 03d2 32E0     		b	.L119
 1960              	.L124:
 505:.\main.c      ****                             side.a.hose = 2;
 1961              		.loc 1 505 0
 1962 03d4 0622     		movs	r2, #6
 1963 03d6 514B     		ldr	r3, .L279+4
 1964 03d8 1A60     		str	r2, [r3]
 506:.\main.c      ****                             SetPicture(1,DISPLAY_DESEA_IMPRIMIR_RECIBO);                           
 1965              		.loc 1 506 0
 1966 03da 0222     		movs	r2, #2
 1967 03dc 524B     		ldr	r3, .L279+16
 1968 03de 83F80121 		strb	r2, [r3, #257]
 507:.\main.c      ****                         break;
 1969              		.loc 1 507 0
 1970 03e2 0120     		movs	r0, #1
 1971 03e4 0B21     		movs	r1, #11
 1972 03e6 FFF7FEFF 		bl	SetPicture
 1973              	.LVL179:
 508:.\main.c      ****                             
 1974              		.loc 1 508 0
 1975 03ea 26E0     		b	.L119
 1976              	.L122:
 511:.\main.c      ****                             side.a.hose = 3;
 1977              		.loc 1 511 0
 1978 03ec 0622     		movs	r2, #6
 1979 03ee 4B4B     		ldr	r3, .L279+4
 1980 03f0 1A60     		str	r2, [r3]
 512:.\main.c      ****                             SetPicture(1,DISPLAY_DESEA_IMPRIMIR_RECIBO);                           
 1981              		.loc 1 512 0
 1982 03f2 0322     		movs	r2, #3
 1983 03f4 4C4B     		ldr	r3, .L279+16
 1984 03f6 83F80121 		strb	r2, [r3, #257]
 513:.\main.c      ****                         break;   
 1985              		.loc 1 513 0
ARM GAS  C:\Users\RECEPC~1\AppData\Local\Temp\ccp152bc.s 			page 77


 1986 03fa 0120     		movs	r0, #1
 1987 03fc 0B21     		movs	r1, #11
 1988 03fe FFF7FEFF 		bl	SetPicture
 1989              	.LVL180:
 514:.\main.c      ****                         
 1990              		.loc 1 514 0
 1991 0402 1AE0     		b	.L119
 1992              	.L126:
 517:.\main.c      ****                             side.a.hose = 4;
 1993              		.loc 1 517 0
 1994 0404 0622     		movs	r2, #6
 1995 0406 454B     		ldr	r3, .L279+4
 1996 0408 1A60     		str	r2, [r3]
 518:.\main.c      ****                             SetPicture(1,DISPLAY_DESEA_IMPRIMIR_RECIBO);                           
 1997              		.loc 1 518 0
 1998 040a 0422     		movs	r2, #4
 1999 040c 464B     		ldr	r3, .L279+16
 2000 040e 83F80121 		strb	r2, [r3, #257]
 519:.\main.c      ****                         break;
 2001              		.loc 1 519 0
 2002 0412 0120     		movs	r0, #1
 2003 0414 0B21     		movs	r1, #11
 2004 0416 FFF7FEFF 		bl	SetPicture
 2005              	.LVL181:
 520:.\main.c      ****                             
 2006              		.loc 1 520 0
 2007 041a 0EE0     		b	.L119
 2008              	.L125:
 523:.\main.c      ****                             SetPicture(1,DISPLAY_INICIO0);                                         
 2009              		.loc 1 523 0
 2010 041c 0022     		movs	r2, #0
 2011 041e 3F4B     		ldr	r3, .L279+4
 2012 0420 1A60     		str	r2, [r3]
 524:.\main.c      ****                         break;
 2013              		.loc 1 524 0
 2014 0422 0120     		movs	r0, #1
 2015 0424 0146     		mov	r1, r0
 2016 0426 FFF7FEFF 		bl	SetPicture
 2017              	.LVL182:
 525:.\main.c      ****                             
 2018              		.loc 1 525 0
 2019 042a 06E0     		b	.L119
 2020              	.L120:
 528:.\main.c      ****                             flowDisplay1 = 0;
 2021              		.loc 1 528 0
 2022 042c 0120     		movs	r0, #1
 2023 042e 0146     		mov	r1, r0
 2024 0430 FFF7FEFF 		bl	SetPicture
 2025              	.LVL183:
 529:.\main.c      ****                         break;
 2026              		.loc 1 529 0
 2027 0434 0022     		movs	r2, #0
 2028 0436 394B     		ldr	r3, .L279+4
 2029 0438 1A60     		str	r2, [r3]
 2030              	.L119:
 533:.\main.c      ****                 Display1_ClearRxBuffer();
 2031              		.loc 1 533 0
ARM GAS  C:\Users\RECEPC~1\AppData\Local\Temp\ccp152bc.s 			page 78


 2032 043a 0A20     		movs	r0, #10
 2033 043c FFF7FEFF 		bl	CyDelay
 2034              	.LVL184:
 534:.\main.c      ****             }
 2035              		.loc 1 534 0
 2036 0440 FFF7FEFF 		bl	Display1_ClearRxBuffer
 2037              	.LVL185:
 2038 0444 00F0A9BF 		b	.L73
 2039              	.L82:
 539:.\main.c      ****             Timer_Animacion_Start();
 2040              		.loc 1 539 0
 2041 0448 3848     		ldr	r0, .L279+20
 2042 044a FFF7FEFF 		bl	isr_3_StartEx
 2043              	.LVL186:
 540:.\main.c      ****             if(Display1_GetRxBufferSize()==8){
 2044              		.loc 1 540 0
 2045 044e FFF7FEFF 		bl	Timer_Animacion_Start
 2046              	.LVL187:
 541:.\main.c      ****                 if((Display1_rxBuffer[0]==0xAA) && (Display1_rxBuffer[6]==0xC3) && (Display1_rxBuff
 2047              		.loc 1 541 0
 2048 0452 FFF7FEFF 		bl	Display1_GetRxBufferSize
 2049              	.LVL188:
 2050 0456 0828     		cmp	r0, #8
 2051 0458 4DD1     		bne	.L127
 542:.\main.c      ****                     switch(Display1_rxBuffer[3]){
 2052              		.loc 1 542 0
 2053 045a 324B     		ldr	r3, .L279+12
 2054 045c 1B78     		ldrb	r3, [r3]	@ zero_extendqisi2
 2055 045e DBB2     		uxtb	r3, r3
 2056 0460 AA2B     		cmp	r3, #170
 2057 0462 43D1     		bne	.L128
 542:.\main.c      ****                     switch(Display1_rxBuffer[3]){
 2058              		.loc 1 542 0 is_stmt 0 discriminator 1
 2059 0464 2F4B     		ldr	r3, .L279+12
 2060 0466 9B79     		ldrb	r3, [r3, #6]	@ zero_extendqisi2
 2061 0468 DBB2     		uxtb	r3, r3
 2062 046a C32B     		cmp	r3, #195
 2063 046c 3ED1     		bne	.L128
 542:.\main.c      ****                     switch(Display1_rxBuffer[3]){
 2064              		.loc 1 542 0 discriminator 2
 2065 046e 2D4B     		ldr	r3, .L279+12
 2066 0470 DB79     		ldrb	r3, [r3, #7]	@ zero_extendqisi2
 2067 0472 DBB2     		uxtb	r3, r3
 2068 0474 3C2B     		cmp	r3, #60
 2069 0476 39D1     		bne	.L128
 543:.\main.c      ****                         case 0x39:  //Si imprimir  
 2070              		.loc 1 543 0 is_stmt 1
 2071 0478 2A4B     		ldr	r3, .L279+12
 2072 047a DB78     		ldrb	r3, [r3, #3]	@ zero_extendqisi2
 2073 047c DBB2     		uxtb	r3, r3
 2074 047e 392B     		cmp	r3, #57
 2075 0480 04D0     		beq	.L129
 2076 0482 7E2B     		cmp	r3, #126
 2077 0484 2BD0     		beq	.L130
 2078 0486 382B     		cmp	r3, #56
 2079 0488 30D1     		bne	.L128
 2080 048a 0FE0     		b	.L131
ARM GAS  C:\Users\RECEPC~1\AppData\Local\Temp\ccp152bc.s 			page 79


 2081              	.L129:
 545:.\main.c      ****                             numberKeys1 = 0;
 2082              		.loc 1 545 0
 2083 048c 0922     		movs	r2, #9
 2084 048e 234B     		ldr	r3, .L279+4
 2085 0490 1A60     		str	r2, [r3]
 546:.\main.c      ****                             bufferDisplay1.flagKeyboard = 1;
 2086              		.loc 1 546 0
 2087 0492 0022     		movs	r2, #0
 2088 0494 264B     		ldr	r3, .L279+24
 2089 0496 1A70     		strb	r2, [r3]
 547:.\main.c      ****                             bufferDisplay1.flagPrint =  1;
 2090              		.loc 1 547 0
 2091 0498 214B     		ldr	r3, .L279+8
 2092 049a 0120     		movs	r0, #1
 2093 049c 83F80001 		strb	r0, [r3, #256]
 548:.\main.c      ****                             SetPicture(1,DISPLAY_DIGITE_PLACA);                            
 2094              		.loc 1 548 0
 2095 04a0 83F83401 		strb	r0, [r3, #308]
 549:.\main.c      ****                         break; 
 2096              		.loc 1 549 0
 2097 04a4 0A21     		movs	r1, #10
 2098 04a6 FFF7FEFF 		bl	SetPicture
 2099              	.LVL189:
 550:.\main.c      ****                         case 0x38:  //No imprimir 
 2100              		.loc 1 550 0
 2101 04aa 1FE0     		b	.L128
 2102              	.L131:
 552:.\main.c      ****                                 flowDisplay1 = 0;
 2103              		.loc 1 552 0
 2104 04ac 1C4B     		ldr	r3, .L279+8
 2105 04ae 93F80331 		ldrb	r3, [r3, #259]	@ zero_extendqisi2
 2106 04b2 3BB1     		cbz	r3, .L132
 553:.\main.c      ****                                 SetPicture(1,DISPLAY_INICIO0);
 2107              		.loc 1 553 0
 2108 04b4 0022     		movs	r2, #0
 2109 04b6 194B     		ldr	r3, .L279+4
 2110 04b8 1A60     		str	r2, [r3]
 554:.\main.c      ****                             }else{
 2111              		.loc 1 554 0
 2112 04ba 0120     		movs	r0, #1
 2113 04bc 0146     		mov	r1, r0
 2114 04be FFF7FEFF 		bl	SetPicture
 2115              	.LVL190:
 2116 04c2 13E0     		b	.L128
 2117              	.L132:
 556:.\main.c      ****                                 bufferDisplay1.flagPrint =  0;
 2118              		.loc 1 556 0
 2119 04c4 0721     		movs	r1, #7
 2120 04c6 154B     		ldr	r3, .L279+4
 2121 04c8 1960     		str	r1, [r3]
 557:.\main.c      ****                                 count_protector=0;
 2122              		.loc 1 557 0
 2123 04ca 0023     		movs	r3, #0
 2124 04cc 144A     		ldr	r2, .L279+8
 2125 04ce 82F83431 		strb	r3, [r2, #308]
 558:.\main.c      ****                                 SetPicture(1,DISPLAY_SUBA_MANIJA);
ARM GAS  C:\Users\RECEPC~1\AppData\Local\Temp\ccp152bc.s 			page 80


 2126              		.loc 1 558 0
 2127 04d2 184A     		ldr	r2, .L279+28
 2128 04d4 1370     		strb	r3, [r2]
 559:.\main.c      ****                             }
 2129              		.loc 1 559 0
 2130 04d6 0120     		movs	r0, #1
 2131 04d8 FFF7FEFF 		bl	SetPicture
 2132              	.LVL191:
 2133 04dc 06E0     		b	.L128
 2134              	.L130:
 563:.\main.c      ****                             SetPicture(1,DISPLAY_INICIO0);
 2135              		.loc 1 563 0
 2136 04de 0022     		movs	r2, #0
 2137 04e0 0E4B     		ldr	r3, .L279+4
 2138 04e2 1A60     		str	r2, [r3]
 564:.\main.c      ****                         break;
 2139              		.loc 1 564 0
 2140 04e4 0120     		movs	r0, #1
 2141 04e6 0146     		mov	r1, r0
 2142 04e8 FFF7FEFF 		bl	SetPicture
 2143              	.LVL192:
 2144              	.L128:
 568:.\main.c      ****                 Display1_ClearRxBuffer();
 2145              		.loc 1 568 0
 2146 04ec 0A20     		movs	r0, #10
 2147 04ee FFF7FEFF 		bl	CyDelay
 2148              	.LVL193:
 569:.\main.c      ****             }
 2149              		.loc 1 569 0
 2150 04f2 FFF7FEFF 		bl	Display1_ClearRxBuffer
 2151              	.LVL194:
 2152              	.L127:
 571:.\main.c      ****                 flowDisplay1 = 0;	
 2153              		.loc 1 571 0
 2154 04f6 0F4B     		ldr	r3, .L279+28
 2155 04f8 1B78     		ldrb	r3, [r3]	@ zero_extendqisi2
 2156 04fa 1D2B     		cmp	r3, #29
 2157 04fc 40F24D87 		bls	.L73
 572:.\main.c      ****     			count_protector=0;
 2158              		.loc 1 572 0
 2159 0500 0023     		movs	r3, #0
 2160 0502 064A     		ldr	r2, .L279+4
 2161 0504 1360     		str	r3, [r2]
 573:.\main.c      ****                 SetPicture(1,DISPLAY_INICIO0);
 2162              		.loc 1 573 0
 2163 0506 0B4A     		ldr	r2, .L279+28
 2164 0508 1370     		strb	r3, [r2]
 574:.\main.c      ****     		}
 2165              		.loc 1 574 0
 2166 050a 0120     		movs	r0, #1
 2167 050c 0146     		mov	r1, r0
 2168 050e FFF7FEFF 		bl	SetPicture
 2169              	.LVL195:
 2170 0512 00F042BF 		b	.L73
 2171              	.L280:
 2172 0516 00BF     		.align	2
 2173              	.L279:
ARM GAS  C:\Users\RECEPC~1\AppData\Local\Temp\ccp152bc.s 			page 81


 2174 0518 00000000 		.word	digits
 2175 051c 00000000 		.word	flowDisplay1
 2176 0520 00000000 		.word	bufferDisplay1
 2177 0524 00000000 		.word	Display1_rxBuffer
 2178 0528 00000000 		.word	side
 2179 052c 00000000 		.word	animacion
 2180 0530 00000000 		.word	numberKeys1
 2181 0534 00000000 		.word	count_protector
 2182              	.L83:
 582:.\main.c      ****             if (side.a.activeHose == side.a.hose){                
 2183              		.loc 1 582 0
 2184 0538 AB4C     		ldr	r4, .L281
 2185 053a 2078     		ldrb	r0, [r4]	@ zero_extendqisi2
 2186 053c FFF7FEFF 		bl	PumpHoseActiveState
 2187              	.LVL196:
 2188 0540 0146     		mov	r1, r0
 2189 0542 84F80001 		strb	r0, [r4, #256]
 583:.\main.c      ****                 if(PresetData(side.a.dir,side.a.activeHose,bufferDisplay1.presetValue[0],bufferDisp
 2190              		.loc 1 583 0
 2191 0546 94F80131 		ldrb	r3, [r4, #257]	@ zero_extendqisi2
 2192 054a 9842     		cmp	r0, r3
 2193 054c 3BD1     		bne	.L133
 584:.\main.c      ****                     isr_3_Stop(); 
 2194              		.loc 1 584 0
 2195 054e A74A     		ldr	r2, .L281+4
 2196 0550 92F86330 		ldrb	r3, [r2, #99]	@ zero_extendqisi2
 2197 0554 2078     		ldrb	r0, [r4]	@ zero_extendqisi2
 2198 0556 6532     		adds	r2, r2, #101
 2199 0558 03F00303 		and	r3, r3, #3
 2200 055c FFF7FEFF 		bl	PresetData
 2201              	.LVL197:
 2202 0560 0128     		cmp	r0, #1
 2203 0562 22D1     		bne	.L134
 585:.\main.c      ****                     Timer_Animacion_Stop();
 2204              		.loc 1 585 0
 2205 0564 FFF7FEFF 		bl	isr_3_Stop
 2206              	.LVL198:
 586:.\main.c      ****                     get_state(side.a.dir);
 2207              		.loc 1 586 0
 2208 0568 FFF7FEFF 		bl	Timer_Animacion_Stop
 2209              	.LVL199:
 587:.\main.c      ****                     //CyDelay(20);
 2210              		.loc 1 587 0
 2211 056c 2546     		mov	r5, r4
 2212 056e 2078     		ldrb	r0, [r4]	@ zero_extendqisi2
 2213 0570 FFF7FEFF 		bl	get_state
 2214              	.LVL200:
 589:.\main.c      ****                     //CyDelay(50);
 2215              		.loc 1 589 0
 2216 0574 2078     		ldrb	r0, [r4]	@ zero_extendqisi2
 2217 0576 40F01000 		orr	r0, r0, #16
 2218 057a FFF7FEFF 		bl	Pump_PutChar
 2219              	.LVL201:
 591:.\main.c      ****                     flowDisplay1 = 8;                    
 2220              		.loc 1 591 0
 2221 057e 0124     		movs	r4, #1
 2222 0580 85F80741 		strb	r4, [r5, #263]
ARM GAS  C:\Users\RECEPC~1\AppData\Local\Temp\ccp152bc.s 			page 82


 592:.\main.c      ****                     count_protector = 0;                    
 2223              		.loc 1 592 0
 2224 0584 0821     		movs	r1, #8
 2225 0586 9A4B     		ldr	r3, .L281+8
 2226 0588 1960     		str	r1, [r3]
 593:.\main.c      ****                     bufferDisplay1.flagActiveSale = true;
 2227              		.loc 1 593 0
 2228 058a 0022     		movs	r2, #0
 2229 058c 994B     		ldr	r3, .L281+12
 2230 058e 1A70     		strb	r2, [r3]
 594:.\main.c      ****                     SetPicture(1,DISPLAY_DESPACHANDO);   
 2231              		.loc 1 594 0
 2232 0590 964D     		ldr	r5, .L281+4
 2233 0592 85F83541 		strb	r4, [r5, #309]
 595:.\main.c      ****                     ShowMessage(1,(bufferDisplay1.presetValue[0]),18);
 2234              		.loc 1 595 0
 2235 0596 2046     		mov	r0, r4
 2236 0598 FFF7FEFF 		bl	SetPicture
 2237              	.LVL202:
 596:.\main.c      ****                 }else{
 2238              		.loc 1 596 0
 2239 059c 2046     		mov	r0, r4
 2240 059e 05F16501 		add	r1, r5, #101
 2241 05a2 1222     		movs	r2, #18
 2242 05a4 FFF7FEFF 		bl	ShowMessage
 2243              	.LVL203:
 2244 05a8 10E0     		b	.L135
 2245              	.L134:
 598:.\main.c      ****                     SetPicture(1,DISPLAY_ERROR);
 2246              		.loc 1 598 0
 2247 05aa 0021     		movs	r1, #0
 2248 05ac 904B     		ldr	r3, .L281+8
 2249 05ae 1960     		str	r1, [r3]
 599:.\main.c      ****                     CyDelay(200);
 2250              		.loc 1 599 0
 2251 05b0 0120     		movs	r0, #1
 2252 05b2 FFF7FEFF 		bl	SetPicture
 2253              	.LVL204:
 600:.\main.c      ****                     SetPicture(1,DISPLAY_INICIO0);
 2254              		.loc 1 600 0
 2255 05b6 C820     		movs	r0, #200
 2256 05b8 FFF7FEFF 		bl	CyDelay
 2257              	.LVL205:
 601:.\main.c      ****                 }
 2258              		.loc 1 601 0
 2259 05bc 0120     		movs	r0, #1
 2260 05be 0146     		mov	r1, r0
 2261 05c0 FFF7FEFF 		bl	SetPicture
 2262              	.LVL206:
 2263 05c4 02E0     		b	.L135
 2264              	.L133:
 604:.\main.c      **** //                if(count_protector>=60){
 2265              		.loc 1 604 0
 2266 05c6 0722     		movs	r2, #7
 2267 05c8 894B     		ldr	r3, .L281+8
 2268 05ca 1A60     		str	r2, [r3]
 2269              	.L135:
ARM GAS  C:\Users\RECEPC~1\AppData\Local\Temp\ccp152bc.s 			page 83


 611:.\main.c      ****                 if((Display1_rxBuffer[0]==0xAA) && (Display1_rxBuffer[6]==0xC3) && (Display1_rxBuff
 2270              		.loc 1 611 0
 2271 05cc FFF7FEFF 		bl	Display1_GetRxBufferSize
 2272              	.LVL207:
 2273 05d0 0828     		cmp	r0, #8
 2274 05d2 1DD1     		bne	.L136
 612:.\main.c      ****                     switch(Display1_rxBuffer[3]){                        
 2275              		.loc 1 612 0
 2276 05d4 884B     		ldr	r3, .L281+16
 2277 05d6 1B78     		ldrb	r3, [r3]	@ zero_extendqisi2
 2278 05d8 DBB2     		uxtb	r3, r3
 2279 05da AA2B     		cmp	r3, #170
 2280 05dc 15D1     		bne	.L137
 612:.\main.c      ****                     switch(Display1_rxBuffer[3]){                        
 2281              		.loc 1 612 0 is_stmt 0 discriminator 1
 2282 05de 864B     		ldr	r3, .L281+16
 2283 05e0 9B79     		ldrb	r3, [r3, #6]	@ zero_extendqisi2
 2284 05e2 DBB2     		uxtb	r3, r3
 2285 05e4 C32B     		cmp	r3, #195
 2286 05e6 10D1     		bne	.L137
 612:.\main.c      ****                     switch(Display1_rxBuffer[3]){                        
 2287              		.loc 1 612 0 discriminator 2
 2288 05e8 834B     		ldr	r3, .L281+16
 2289 05ea DB79     		ldrb	r3, [r3, #7]	@ zero_extendqisi2
 2290 05ec DBB2     		uxtb	r3, r3
 2291 05ee 3C2B     		cmp	r3, #60
 2292 05f0 0BD1     		bne	.L137
 613:.\main.c      ****                         case 0x7E:  //Pantalla Inicial                                             
 2293              		.loc 1 613 0 is_stmt 1
 2294 05f2 814B     		ldr	r3, .L281+16
 2295 05f4 DB78     		ldrb	r3, [r3, #3]	@ zero_extendqisi2
 2296 05f6 DBB2     		uxtb	r3, r3
 2297 05f8 7E2B     		cmp	r3, #126
 2298 05fa 06D1     		bne	.L137
 615:.\main.c      ****                             flowDisplay1 = 0;
 2299              		.loc 1 615 0
 2300 05fc 0120     		movs	r0, #1
 2301 05fe 0146     		mov	r1, r0
 2302 0600 FFF7FEFF 		bl	SetPicture
 2303              	.LVL208:
 616:.\main.c      ****                         break;
 2304              		.loc 1 616 0
 2305 0604 0022     		movs	r2, #0
 2306 0606 7A4B     		ldr	r3, .L281+8
 2307 0608 1A60     		str	r2, [r3]
 2308              	.L137:
 620:.\main.c      ****             }
 2309              		.loc 1 620 0
 2310 060a 0A20     		movs	r0, #10
 2311 060c FFF7FEFF 		bl	CyDelay
 2312              	.LVL209:
 2313              	.L136:
 622:.\main.c      ****         break;
 2314              		.loc 1 622 0
 2315 0610 FFF7FEFF 		bl	Display1_ClearRxBuffer
 2316              	.LVL210:
 623:.\main.c      ****             
ARM GAS  C:\Users\RECEPC~1\AppData\Local\Temp\ccp152bc.s 			page 84


 2317              		.loc 1 623 0
 2318 0614 00F0C1BE 		b	.L73
 2319              	.L84:
 626:.\main.c      ****             switch (side.a.pumpState){
 2320              		.loc 1 626 0
 2321 0618 734C     		ldr	r4, .L281
 2322 061a 2078     		ldrb	r0, [r4]	@ zero_extendqisi2
 2323 061c FFF7FEFF 		bl	get_state
 2324              	.LVL211:
 2325 0620 84F80401 		strb	r0, [r4, #260]
 627:.\main.c      ****                 case PUMP_IDLE://Espera - venta cero
 2326              		.loc 1 627 0
 2327 0624 0638     		subs	r0, r0, #6
 2328 0626 0528     		cmp	r0, #5
 2329 0628 00F2B786 		bhi	.L73
 2330 062c DFE810F0 		tbh	[pc, r0, lsl #1]
 2331              	.L140:
 2332 0630 0600     		.2byte	(.L139-.L140)/2
 2333 0632 B506     		.2byte	(.L73-.L140)/2
 2334 0634 B506     		.2byte	(.L73-.L140)/2
 2335 0636 1600     		.2byte	(.L141-.L140)/2
 2336 0638 1F00     		.2byte	(.L142-.L140)/2
 2337 063a 4D00     		.2byte	(.L143-.L140)/2
 2338              		.p2align 1
 2339              	.L139:
 629:.\main.c      ****                     side.a.rfState = RF_ZERO_SALE;
 2340              		.loc 1 629 0
 2341 063c 0023     		movs	r3, #0
 2342 063e 6C4A     		ldr	r2, .L281+8
 2343 0640 1360     		str	r3, [r2]
 630:.\main.c      ****                     bufferDisplay1.flagActiveSale = false;
 2344              		.loc 1 630 0
 2345 0642 0C21     		movs	r1, #12
 2346 0644 684A     		ldr	r2, .L281
 2347 0646 82F80311 		strb	r1, [r2, #259]
 631:.\main.c      ****                     SetPicture(1,DISPLAY_INICIO0);
 2348              		.loc 1 631 0
 2349 064a 684A     		ldr	r2, .L281+4
 2350 064c 82F83531 		strb	r3, [r2, #309]
 632:.\main.c      ****                 break;
 2351              		.loc 1 632 0
 2352 0650 0120     		movs	r0, #1
 2353 0652 0146     		mov	r1, r0
 2354 0654 FFF7FEFF 		bl	SetPicture
 2355              	.LVL212:
 633:.\main.c      ****                 case PUMP_BUSY://Surtiendo                    
 2356              		.loc 1 633 0
 2357 0658 00F09FBE 		b	.L73
 2358              	.L141:
 635:.\main.c      ****                     bufferDisplay1.flagEndSale = false;
 2359              		.loc 1 635 0
 2360 065c 634B     		ldr	r3, .L281+4
 2361 065e 0122     		movs	r2, #1
 2362 0660 83F83521 		strb	r2, [r3, #309]
 636:.\main.c      ****                     //side.a.rfState = RF_DELIVERING;
 2363              		.loc 1 636 0
 2364 0664 0022     		movs	r2, #0
ARM GAS  C:\Users\RECEPC~1\AppData\Local\Temp\ccp152bc.s 			page 85


 2365 0666 83F80321 		strb	r2, [r3, #259]
 638:.\main.c      ****                 case PUMP_PEOT: //reporte fin venta                    
 2366              		.loc 1 638 0
 2367 066a 00F096BE 		b	.L73
 2368              	.L142:
 640:.\main.c      ****                         if(bufferDisplay1.flagPrint ==1){
 2369              		.loc 1 640 0
 2370 066e 5E4B     		ldr	r3, .L281
 2371 0670 1878     		ldrb	r0, [r3]	@ zero_extendqisi2
 2372 0672 FFF7FEFF 		bl	getSale
 2373              	.LVL213:
 2374 0676 0028     		cmp	r0, #0
 2375 0678 00F08F86 		beq	.L73
 641:.\main.c      ****                             imprimir(printPortA,side.a.dir);
 2376              		.loc 1 641 0
 2377 067c 5B4B     		ldr	r3, .L281+4
 2378 067e 93F83431 		ldrb	r3, [r3, #308]	@ zero_extendqisi2
 2379 0682 012B     		cmp	r3, #1
 2380 0684 0DD1     		bne	.L144
 642:.\main.c      ****                             flowDisplay1 = 0;                            
 2381              		.loc 1 642 0
 2382 0686 5D4B     		ldr	r3, .L281+20
 2383 0688 1878     		ldrb	r0, [r3]	@ zero_extendqisi2
 2384 068a 574B     		ldr	r3, .L281
 2385 068c 1978     		ldrb	r1, [r3]	@ zero_extendqisi2
 2386 068e FFF7FEFF 		bl	imprimir
 2387              	.LVL214:
 643:.\main.c      ****                             SetPicture(1,DISPLAY_INICIO0); 
 2388              		.loc 1 643 0
 2389 0692 0022     		movs	r2, #0
 2390 0694 564B     		ldr	r3, .L281+8
 2391 0696 1A60     		str	r2, [r3]
 644:.\main.c      ****                         }else{
 2392              		.loc 1 644 0
 2393 0698 0120     		movs	r0, #1
 2394 069a 0146     		mov	r1, r0
 2395 069c FFF7FEFF 		bl	SetPicture
 2396              	.LVL215:
 2397 06a0 09E0     		b	.L145
 2398              	.L144:
 646:.\main.c      ****                             bufferDisplay1.flagEndSale = true;
 2399              		.loc 1 646 0
 2400 06a2 0622     		movs	r2, #6
 2401 06a4 524B     		ldr	r3, .L281+8
 2402 06a6 1A60     		str	r2, [r3]
 647:.\main.c      ****                             SetPicture(1,DISPLAY_DESEA_IMPRIMIR_RECIBO); 
 2403              		.loc 1 647 0
 2404 06a8 0120     		movs	r0, #1
 2405 06aa 504B     		ldr	r3, .L281+4
 2406 06ac 83F80301 		strb	r0, [r3, #259]
 648:.\main.c      ****                         }
 2407              		.loc 1 648 0
 2408 06b0 0B21     		movs	r1, #11
 2409 06b2 FFF7FEFF 		bl	SetPicture
 2410              	.LVL216:
 2411              	.L145:
 650:.\main.c      ****                         side.a.RFstateReport = 1;
ARM GAS  C:\Users\RECEPC~1\AppData\Local\Temp\ccp152bc.s 			page 86


 2412              		.loc 1 650 0
 2413 06b6 0022     		movs	r2, #0
 2414 06b8 4C4B     		ldr	r3, .L281+4
 2415 06ba 83F83521 		strb	r2, [r3, #309]
 651:.\main.c      ****                     }                                         
 2416              		.loc 1 651 0
 2417 06be 0122     		movs	r2, #1
 2418 06c0 494B     		ldr	r3, .L281
 2419 06c2 83F80721 		strb	r2, [r3, #263]
 2420 06c6 00F068BE 		b	.L73
 2421              	.L143:
 655:.\main.c      ****                         if(bufferDisplay1.flagPrint ==1){
 2422              		.loc 1 655 0
 2423 06ca 474B     		ldr	r3, .L281
 2424 06cc 1878     		ldrb	r0, [r3]	@ zero_extendqisi2
 2425 06ce FFF7FEFF 		bl	getSale
 2426              	.LVL217:
 2427 06d2 0028     		cmp	r0, #0
 2428 06d4 00F06186 		beq	.L73
 656:.\main.c      ****                             imprimir(printPortA,side.a.dir);
 2429              		.loc 1 656 0
 2430 06d8 444B     		ldr	r3, .L281+4
 2431 06da 93F83431 		ldrb	r3, [r3, #308]	@ zero_extendqisi2
 2432 06de 012B     		cmp	r3, #1
 2433 06e0 0DD1     		bne	.L146
 657:.\main.c      ****                             flowDisplay1 = 0;
 2434              		.loc 1 657 0
 2435 06e2 464B     		ldr	r3, .L281+20
 2436 06e4 1878     		ldrb	r0, [r3]	@ zero_extendqisi2
 2437 06e6 404B     		ldr	r3, .L281
 2438 06e8 1978     		ldrb	r1, [r3]	@ zero_extendqisi2
 2439 06ea FFF7FEFF 		bl	imprimir
 2440              	.LVL218:
 658:.\main.c      ****                             SetPicture(1,DISPLAY_INICIO0); 
 2441              		.loc 1 658 0
 2442 06ee 0022     		movs	r2, #0
 2443 06f0 3F4B     		ldr	r3, .L281+8
 2444 06f2 1A60     		str	r2, [r3]
 659:.\main.c      ****                         }else{
 2445              		.loc 1 659 0
 2446 06f4 0120     		movs	r0, #1
 2447 06f6 0146     		mov	r1, r0
 2448 06f8 FFF7FEFF 		bl	SetPicture
 2449              	.LVL219:
 2450 06fc 09E0     		b	.L147
 2451              	.L146:
 661:.\main.c      ****                             bufferDisplay1.flagEndSale = true;
 2452              		.loc 1 661 0
 2453 06fe 0622     		movs	r2, #6
 2454 0700 3B4B     		ldr	r3, .L281+8
 2455 0702 1A60     		str	r2, [r3]
 662:.\main.c      ****                             SetPicture(1,DISPLAY_DESEA_IMPRIMIR_RECIBO); 
 2456              		.loc 1 662 0
 2457 0704 0120     		movs	r0, #1
 2458 0706 394B     		ldr	r3, .L281+4
 2459 0708 83F80301 		strb	r0, [r3, #259]
 663:.\main.c      ****                         }
ARM GAS  C:\Users\RECEPC~1\AppData\Local\Temp\ccp152bc.s 			page 87


 2460              		.loc 1 663 0
 2461 070c 0B21     		movs	r1, #11
 2462 070e FFF7FEFF 		bl	SetPicture
 2463              	.LVL220:
 2464              	.L147:
 665:.\main.c      ****                         side.a.RFstateReport = 1;
 2465              		.loc 1 665 0
 2466 0712 0022     		movs	r2, #0
 2467 0714 354B     		ldr	r3, .L281+4
 2468 0716 83F83521 		strb	r2, [r3, #309]
 666:.\main.c      ****                     }
 2469              		.loc 1 666 0
 2470 071a 0122     		movs	r2, #1
 2471 071c 324B     		ldr	r3, .L281
 2472 071e 83F80721 		strb	r2, [r3, #263]
 2473 0722 00F03ABE 		b	.L73
 2474              	.L85:
 675:.\main.c      ****                 case 0: //Cancelar
 2475              		.loc 1 675 0
 2476 0726 0120     		movs	r0, #1
 2477 0728 0A21     		movs	r1, #10
 2478 072a 0022     		movs	r2, #0
 2479 072c FFF7FEFF 		bl	alphanumeric_keyboard
 2480              	.LVL221:
 2481 0730 18B1     		cbz	r0, .L148
 2482 0732 0128     		cmp	r0, #1
 2483 0734 45D0     		beq	.L149
 2484 0736 00F030BE 		b	.L73
 2485              	.L148:
 677:.\main.c      ****                         case 1://Placa
 2486              		.loc 1 677 0
 2487 073a 2C4B     		ldr	r3, .L281+4
 2488 073c 93F80031 		ldrb	r3, [r3, #256]	@ zero_extendqisi2
 2489 0740 013B     		subs	r3, r3, #1
 2490 0742 032B     		cmp	r3, #3
 2491 0744 39D8     		bhi	.L150
 2492 0746 DFE803F0 		tbb	[pc, r3]
 2493              	.L152:
 2494 074a 0A       		.byte	(.L258-.L152)/2
 2495 074b 1D       		.byte	(.L259-.L152)/2
 2496 074c 29       		.byte	(.L260-.L152)/2
 2497 074d 35       		.byte	(.L261-.L152)/2
 2498              	.LVL222:
 2499              		.p2align 1
 2500              	.L156:
 680:.\main.c      ****                             }
 2501              		.loc 1 680 0 discriminator 3
 2502 074e 274A     		ldr	r2, .L281+4
 2503 0750 1A44     		add	r2, r2, r3
 2504 0752 0021     		movs	r1, #0
 2505 0754 82F8DF10 		strb	r1, [r2, #223]
 679:.\main.c      ****                                 bufferDisplay1.licenceSale[x]=0;
 2506              		.loc 1 679 0 discriminator 3
 2507 0758 0133     		adds	r3, r3, #1
 2508              	.LVL223:
 2509 075a DBB2     		uxtb	r3, r3
 2510              	.LVL224:
ARM GAS  C:\Users\RECEPC~1\AppData\Local\Temp\ccp152bc.s 			page 88


 2511 075c 00E0     		b	.L151
 2512              	.LVL225:
 2513              	.L258:
 677:.\main.c      ****                         case 1://Placa
 2514              		.loc 1 677 0
 2515 075e 0023     		movs	r3, #0
 2516              	.L151:
 2517              	.LVL226:
 679:.\main.c      ****                                 bufferDisplay1.licenceSale[x]=0;
 2518              		.loc 1 679 0 discriminator 1
 2519 0760 0A2B     		cmp	r3, #10
 2520 0762 F4D9     		bls	.L156
 682:.\main.c      ****                             SetPicture(1,DISPLAY_INICIO0);
 2521              		.loc 1 682 0
 2522 0764 0022     		movs	r2, #0
 2523 0766 224B     		ldr	r3, .L281+8
 2524              	.LVL227:
 2525 0768 1A60     		str	r2, [r3]
 683:.\main.c      ****                         break;
 2526              		.loc 1 683 0
 2527 076a 0120     		movs	r0, #1
 2528 076c 0146     		mov	r1, r0
 2529 076e FFF7FEFF 		bl	SetPicture
 2530              	.LVL228:
 684:.\main.c      ****                         
 2531              		.loc 1 684 0
 2532 0772 22E0     		b	.L150
 2533              	.LVL229:
 2534              	.L157:
 688:.\main.c      ****                             }
 2535              		.loc 1 688 0 discriminator 3
 2536 0774 1D4A     		ldr	r2, .L281+4
 2537 0776 1A44     		add	r2, r2, r3
 2538 0778 0021     		movs	r1, #0
 2539 077a 82F8EA10 		strb	r1, [r2, #234]
 687:.\main.c      ****                                 bufferDisplay1.mileageSale[x]=0;
 2540              		.loc 1 687 0 discriminator 3
 2541 077e 0133     		adds	r3, r3, #1
 2542              	.LVL230:
 2543 0780 DBB2     		uxtb	r3, r3
 2544              	.LVL231:
 2545 0782 00E0     		b	.L153
 2546              	.LVL232:
 2547              	.L259:
 677:.\main.c      ****                         case 1://Placa
 2548              		.loc 1 677 0
 2549 0784 0023     		movs	r3, #0
 2550              	.L153:
 2551              	.LVL233:
 687:.\main.c      ****                                 bufferDisplay1.mileageSale[x]=0;
 2552              		.loc 1 687 0 discriminator 1
 2553 0786 0A2B     		cmp	r3, #10
 2554 0788 F4D9     		bls	.L157
 2555 078a 16E0     		b	.L150
 2556              	.L158:
 694:.\main.c      ****                             }
 2557              		.loc 1 694 0 discriminator 3
ARM GAS  C:\Users\RECEPC~1\AppData\Local\Temp\ccp152bc.s 			page 89


 2558 078c 174A     		ldr	r2, .L281+4
 2559 078e 1A44     		add	r2, r2, r3
 2560 0790 0021     		movs	r1, #0
 2561 0792 82F8F510 		strb	r1, [r2, #245]
 693:.\main.c      ****                                 bufferDisplay1.identySale[x]=0;
 2562              		.loc 1 693 0 discriminator 3
 2563 0796 0133     		adds	r3, r3, #1
 2564              	.LVL234:
 2565 0798 DBB2     		uxtb	r3, r3
 2566              	.LVL235:
 2567 079a 00E0     		b	.L154
 2568              	.LVL236:
 2569              	.L260:
 677:.\main.c      ****                         case 1://Placa
 2570              		.loc 1 677 0
 2571 079c 0023     		movs	r3, #0
 2572              	.L154:
 2573              	.LVL237:
 693:.\main.c      ****                                 bufferDisplay1.identySale[x]=0;
 2574              		.loc 1 693 0 discriminator 1
 2575 079e 0A2B     		cmp	r3, #10
 2576 07a0 F4D9     		bls	.L158
 2577 07a2 0AE0     		b	.L150
 2578              	.L159:
 699:.\main.c      ****                             }
 2579              		.loc 1 699 0 discriminator 3
 2580 07a4 114A     		ldr	r2, .L281+4
 2581 07a6 1A44     		add	r2, r2, r3
 2582 07a8 0021     		movs	r1, #0
 2583 07aa 82F83611 		strb	r1, [r2, #310]
 698:.\main.c      ****                                 bufferDisplay1.shiftId[x]=0;
 2584              		.loc 1 698 0 discriminator 3
 2585 07ae 0133     		adds	r3, r3, #1
 2586              	.LVL238:
 2587 07b0 DBB2     		uxtb	r3, r3
 2588              	.LVL239:
 2589 07b2 00E0     		b	.L155
 2590              	.LVL240:
 2591              	.L261:
 677:.\main.c      ****                         case 1://Placa
 2592              		.loc 1 677 0
 2593 07b4 0023     		movs	r3, #0
 2594              	.L155:
 2595              	.LVL241:
 698:.\main.c      ****                                 bufferDisplay1.shiftId[x]=0;
 2596              		.loc 1 698 0 discriminator 1
 2597 07b6 0A2B     		cmp	r3, #10
 2598 07b8 F4D9     		bls	.L159
 2599              	.LVL242:
 2600              	.L150:
 703:.\main.c      ****                 break;
 2601              		.loc 1 703 0
 2602 07ba FFF7FEFF 		bl	Display1_ClearRxBuffer
 2603              	.LVL243:
 704:.\main.c      ****                     
 2604              		.loc 1 704 0
 2605 07be 00F0ECBD 		b	.L73
ARM GAS  C:\Users\RECEPC~1\AppData\Local\Temp\ccp152bc.s 			page 90


 2606              	.L149:
 707:.\main.c      ****                         case 1://Placa
 2607              		.loc 1 707 0
 2608 07c2 0A4B     		ldr	r3, .L281+4
 2609 07c4 93F80031 		ldrb	r3, [r3, #256]	@ zero_extendqisi2
 2610 07c8 013B     		subs	r3, r3, #1
 2611 07ca 032B     		cmp	r3, #3
 2612 07cc 7CD8     		bhi	.L160
 2613 07ce DFE803F0 		tbb	[pc, r3]
 2614              	.L162:
 2615 07d2 17       		.byte	(.L262-.L162)/2
 2616 07d3 3F       		.byte	(.L263-.L162)/2
 2617 07d4 55       		.byte	(.L264-.L162)/2
 2618 07d5 5B       		.byte	(.L165-.L162)/2
 2619              	.LVL244:
 2620              		.p2align 1
 2621              	.L166:
 710:.\main.c      ****                             }
 2622              		.loc 1 710 0 discriminator 3
 2623 07d6 054A     		ldr	r2, .L281+4
 2624 07d8 1A44     		add	r2, r2, r3
 2625 07da 92F84B10 		ldrb	r1, [r2, #75]	@ zero_extendqisi2
 2626 07de 82F8DF10 		strb	r1, [r2, #223]
 709:.\main.c      ****                                 bufferDisplay1.licenceSale[x]=bufferDisplay1.valueKeys[x];
 2627              		.loc 1 709 0 discriminator 3
 2628 07e2 0133     		adds	r3, r3, #1
 2629              	.LVL245:
 2630 07e4 DBB2     		uxtb	r3, r3
 2631              	.LVL246:
 2632 07e6 0CE0     		b	.L161
 2633              	.L282:
 2634              		.align	2
 2635              	.L281:
 2636 07e8 00000000 		.word	side
 2637 07ec 00000000 		.word	bufferDisplay1
 2638 07f0 00000000 		.word	flowDisplay1
 2639 07f4 00000000 		.word	count_protector
 2640 07f8 00000000 		.word	Display1_rxBuffer
 2641 07fc 00000000 		.word	printPortA
 2642              	.LVL247:
 2643              	.L262:
 707:.\main.c      ****                         case 1://Placa
 2644              		.loc 1 707 0
 2645 0800 0023     		movs	r3, #0
 2646              	.L161:
 2647              	.LVL248:
 709:.\main.c      ****                                 bufferDisplay1.licenceSale[x]=bufferDisplay1.valueKeys[x];
 2648              		.loc 1 709 0 discriminator 1
 2649 0802 B04A     		ldr	r2, .L283
 2650 0804 92F84B20 		ldrb	r2, [r2, #75]	@ zero_extendqisi2
 2651 0808 9A42     		cmp	r2, r3
 2652 080a E4D2     		bcs	.L166
 712:.\main.c      ****                                 imprimir(printPortA,side.a.dir);
 2653              		.loc 1 712 0
 2654 080c AD4B     		ldr	r3, .L283
 2655              	.LVL249:
 2656 080e 93F80331 		ldrb	r3, [r3, #259]	@ zero_extendqisi2
ARM GAS  C:\Users\RECEPC~1\AppData\Local\Temp\ccp152bc.s 			page 91


 2657 0812 6BB1     		cbz	r3, .L167
 713:.\main.c      ****                                 flowDisplay1 = 0;
 2658              		.loc 1 713 0
 2659 0814 AC4B     		ldr	r3, .L283+4
 2660 0816 1878     		ldrb	r0, [r3]	@ zero_extendqisi2
 2661 0818 AC4B     		ldr	r3, .L283+8
 2662 081a 1978     		ldrb	r1, [r3]	@ zero_extendqisi2
 2663 081c FFF7FEFF 		bl	imprimir
 2664              	.LVL250:
 714:.\main.c      ****                                 SetPicture(1,DISPLAY_INICIO0); 
 2665              		.loc 1 714 0
 2666 0820 0022     		movs	r2, #0
 2667 0822 AB4B     		ldr	r3, .L283+12
 2668 0824 1A60     		str	r2, [r3]
 715:.\main.c      ****                             }else{
 2669              		.loc 1 715 0
 2670 0826 0120     		movs	r0, #1
 2671 0828 0146     		mov	r1, r0
 2672 082a FFF7FEFF 		bl	SetPicture
 2673              	.LVL251:
 2674 082e 4BE0     		b	.L160
 2675              	.L167:
 717:.\main.c      ****                                 SetPicture(1,DISPLAY_SUBA_MANIJA);
 2676              		.loc 1 717 0
 2677 0830 0721     		movs	r1, #7
 2678 0832 A74B     		ldr	r3, .L283+12
 2679 0834 1960     		str	r1, [r3]
 718:.\main.c      ****                             }
 2680              		.loc 1 718 0
 2681 0836 0120     		movs	r0, #1
 2682 0838 FFF7FEFF 		bl	SetPicture
 2683              	.LVL252:
 2684 083c 44E0     		b	.L160
 2685              	.LVL253:
 2686              	.L168:
 724:.\main.c      ****                             }
 2687              		.loc 1 724 0 discriminator 3
 2688 083e A14A     		ldr	r2, .L283
 2689 0840 1A44     		add	r2, r2, r3
 2690 0842 92F84B10 		ldrb	r1, [r2, #75]	@ zero_extendqisi2
 2691 0846 82F8EA10 		strb	r1, [r2, #234]
 723:.\main.c      ****                                 bufferDisplay1.mileageSale[x]=bufferDisplay1.valueKeys[x];
 2692              		.loc 1 723 0 discriminator 3
 2693 084a 0133     		adds	r3, r3, #1
 2694              	.LVL254:
 2695 084c DBB2     		uxtb	r3, r3
 2696              	.LVL255:
 2697 084e 00E0     		b	.L163
 2698              	.LVL256:
 2699              	.L263:
 707:.\main.c      ****                         case 1://Placa
 2700              		.loc 1 707 0
 2701 0850 0023     		movs	r3, #0
 2702              	.L163:
 2703              	.LVL257:
 723:.\main.c      ****                                 bufferDisplay1.mileageSale[x]=bufferDisplay1.valueKeys[x];
 2704              		.loc 1 723 0 discriminator 1
ARM GAS  C:\Users\RECEPC~1\AppData\Local\Temp\ccp152bc.s 			page 92


 2705 0852 9C4A     		ldr	r2, .L283
 2706 0854 92F84B20 		ldrb	r2, [r2, #75]	@ zero_extendqisi2
 2707 0858 9A42     		cmp	r2, r3
 2708 085a F0D2     		bcs	.L168
 726:.\main.c      ****                             SetPicture(1,DISPLAY_SUBA_MANIJA);
 2709              		.loc 1 726 0
 2710 085c 0721     		movs	r1, #7
 2711 085e 9C4B     		ldr	r3, .L283+12
 2712              	.LVL258:
 2713 0860 1960     		str	r1, [r3]
 727:.\main.c      ****                         break;
 2714              		.loc 1 727 0
 2715 0862 0120     		movs	r0, #1
 2716 0864 FFF7FEFF 		bl	SetPicture
 2717              	.LVL259:
 728:.\main.c      ****                         
 2718              		.loc 1 728 0
 2719 0868 2EE0     		b	.L160
 2720              	.LVL260:
 2721              	.L169:
 732:.\main.c      ****                             }
 2722              		.loc 1 732 0 discriminator 3
 2723 086a 964A     		ldr	r2, .L283
 2724 086c 1A44     		add	r2, r2, r3
 2725 086e 92F84B10 		ldrb	r1, [r2, #75]	@ zero_extendqisi2
 2726 0872 82F8F510 		strb	r1, [r2, #245]
 731:.\main.c      ****                                 bufferDisplay1.identySale[x]=bufferDisplay1.valueKeys[x];
 2727              		.loc 1 731 0 discriminator 3
 2728 0876 0133     		adds	r3, r3, #1
 2729              	.LVL261:
 2730 0878 DBB2     		uxtb	r3, r3
 2731              	.LVL262:
 2732 087a 00E0     		b	.L164
 2733              	.LVL263:
 2734              	.L264:
 707:.\main.c      ****                         case 1://Placa
 2735              		.loc 1 707 0
 2736 087c 0023     		movs	r3, #0
 2737              	.L164:
 2738              	.LVL264:
 731:.\main.c      ****                                 bufferDisplay1.identySale[x]=bufferDisplay1.valueKeys[x];
 2739              		.loc 1 731 0 discriminator 1
 2740 087e 914A     		ldr	r2, .L283
 2741 0880 92F84B20 		ldrb	r2, [r2, #75]	@ zero_extendqisi2
 2742 0884 9A42     		cmp	r2, r3
 2743 0886 F0D2     		bcs	.L169
 2744              	.LVL265:
 2745              	.L165:
 707:.\main.c      ****                         case 1://Placa
 2746              		.loc 1 707 0 discriminator 1
 2747 0888 0023     		movs	r3, #0
 2748 088a 07E0     		b	.L170
 2749              	.LVL266:
 2750              	.L171:
 736:.\main.c      ****                             }
 2751              		.loc 1 736 0 discriminator 3
 2752 088c 8D4A     		ldr	r2, .L283
ARM GAS  C:\Users\RECEPC~1\AppData\Local\Temp\ccp152bc.s 			page 93


 2753 088e 1A44     		add	r2, r2, r3
 2754 0890 92F84B10 		ldrb	r1, [r2, #75]	@ zero_extendqisi2
 2755 0894 82F83611 		strb	r1, [r2, #310]
 735:.\main.c      ****                                 bufferDisplay1.shiftId[x] =bufferDisplay1.valueKeys[x];
 2756              		.loc 1 735 0 discriminator 3
 2757 0898 0133     		adds	r3, r3, #1
 2758              	.LVL267:
 2759 089a DBB2     		uxtb	r3, r3
 2760              	.LVL268:
 2761              	.L170:
 735:.\main.c      ****                                 bufferDisplay1.shiftId[x] =bufferDisplay1.valueKeys[x];
 2762              		.loc 1 735 0 is_stmt 0 discriminator 1
 2763 089c 0A2B     		cmp	r3, #10
 2764 089e F5D9     		bls	.L171
 738:.\main.c      ****                             numberKeys1 = 0;
 2765              		.loc 1 738 0 is_stmt 1
 2766 08a0 0E22     		movs	r2, #14
 2767 08a2 8B4B     		ldr	r3, .L283+12
 2768              	.LVL269:
 2769 08a4 1A60     		str	r2, [r3]
 739:.\main.c      ****                             hiddenKeys = 10;
 2770              		.loc 1 739 0
 2771 08a6 0022     		movs	r2, #0
 2772 08a8 8A4B     		ldr	r3, .L283+16
 2773 08aa 1A70     		strb	r2, [r3]
 740:.\main.c      ****                             controlChar ='*';
 2774              		.loc 1 740 0
 2775 08ac 0A22     		movs	r2, #10
 2776 08ae 8A4B     		ldr	r3, .L283+20
 2777 08b0 1A70     		strb	r2, [r3]
 741:.\main.c      ****                             bufferDisplay1.flagKeyboard = 3;
 2778              		.loc 1 741 0
 2779 08b2 2A22     		movs	r2, #42
 2780 08b4 894B     		ldr	r3, .L283+24
 2781 08b6 1A70     		strb	r2, [r3]
 742:.\main.c      ****                             SetPicture(1,DISPLAY_INGRESE_PASSWORD);
 2782              		.loc 1 742 0
 2783 08b8 0322     		movs	r2, #3
 2784 08ba 824B     		ldr	r3, .L283
 2785 08bc 83F80021 		strb	r2, [r3, #256]
 743:.\main.c      ****                         break;
 2786              		.loc 1 743 0
 2787 08c0 0120     		movs	r0, #1
 2788 08c2 2521     		movs	r1, #37
 2789 08c4 FFF7FEFF 		bl	SetPicture
 2790              	.LVL270:
 2791              	.L160:
 746:.\main.c      ****                 break;
 2792              		.loc 1 746 0
 2793 08c8 FFF7FEFF 		bl	Display1_ClearRxBuffer
 2794              	.LVL271:
 747:.\main.c      ****             }            
 2795              		.loc 1 747 0
 2796 08cc 00F065BD 		b	.L73
 2797              	.L86:
 752:.\main.c      ****                 if((Display1_rxBuffer[0]==0xAA) && (Display1_rxBuffer[6]==0xC3) && (Display1_rxBuff
 2798              		.loc 1 752 0
ARM GAS  C:\Users\RECEPC~1\AppData\Local\Temp\ccp152bc.s 			page 94


 2799 08d0 FFF7FEFF 		bl	Display1_GetRxBufferSize
 2800              	.LVL272:
 2801 08d4 0828     		cmp	r0, #8
 2802 08d6 40F06085 		bne	.L73
 753:.\main.c      ****                     switch(Display1_rxBuffer[3]){
 2803              		.loc 1 753 0
 2804 08da 814B     		ldr	r3, .L283+28
 2805 08dc 1B78     		ldrb	r3, [r3]	@ zero_extendqisi2
 2806 08de DBB2     		uxtb	r3, r3
 2807 08e0 AA2B     		cmp	r3, #170
 2808 08e2 41D1     		bne	.L172
 753:.\main.c      ****                     switch(Display1_rxBuffer[3]){
 2809              		.loc 1 753 0 is_stmt 0 discriminator 1
 2810 08e4 7E4B     		ldr	r3, .L283+28
 2811 08e6 9B79     		ldrb	r3, [r3, #6]	@ zero_extendqisi2
 2812 08e8 DBB2     		uxtb	r3, r3
 2813 08ea C32B     		cmp	r3, #195
 2814 08ec 3CD1     		bne	.L172
 753:.\main.c      ****                     switch(Display1_rxBuffer[3]){
 2815              		.loc 1 753 0 discriminator 2
 2816 08ee 7C4B     		ldr	r3, .L283+28
 2817 08f0 DB79     		ldrb	r3, [r3, #7]	@ zero_extendqisi2
 2818 08f2 DBB2     		uxtb	r3, r3
 2819 08f4 3C2B     		cmp	r3, #60
 2820 08f6 37D1     		bne	.L172
 754:.\main.c      ****                         case 0xB6:  //Solicitud ibutton  
 2821              		.loc 1 754 0 is_stmt 1
 2822 08f8 794B     		ldr	r3, .L283+28
 2823 08fa DB78     		ldrb	r3, [r3, #3]	@ zero_extendqisi2
 2824 08fc DBB2     		uxtb	r3, r3
 2825 08fe 942B     		cmp	r3, #148
 2826 0900 23D0     		beq	.L173
 2827 0902 02D8     		bhi	.L174
 2828 0904 7E2B     		cmp	r3, #126
 2829 0906 28D0     		beq	.L175
 2830 0908 2EE0     		b	.L172
 2831              	.L174:
 2832 090a B62B     		cmp	r3, #182
 2833 090c 02D0     		beq	.L176
 2834 090e B72B     		cmp	r3, #183
 2835 0910 0ED0     		beq	.L177
 2836 0912 29E0     		b	.L172
 2837              	.L176:
 756:.\main.c      ****                             numberKeys1 = 0;                            
 2838              		.loc 1 756 0
 2839 0914 0B22     		movs	r2, #11
 2840 0916 6E4B     		ldr	r3, .L283+12
 2841 0918 1A60     		str	r2, [r3]
 757:.\main.c      ****                             bufferDisplay1.flagPrint =  1;
 2842              		.loc 1 757 0
 2843 091a 0022     		movs	r2, #0
 2844 091c 6D4B     		ldr	r3, .L283+16
 2845 091e 1A70     		strb	r2, [r3]
 758:.\main.c      ****                             SetPicture(1,DISPLAY_ESPERANDO_ID);                            
 2846              		.loc 1 758 0
 2847 0920 0120     		movs	r0, #1
 2848 0922 684B     		ldr	r3, .L283
ARM GAS  C:\Users\RECEPC~1\AppData\Local\Temp\ccp152bc.s 			page 95


 2849 0924 83F83401 		strb	r0, [r3, #308]
 759:.\main.c      ****                         break; 
 2850              		.loc 1 759 0
 2851 0928 1221     		movs	r1, #18
 2852 092a FFF7FEFF 		bl	SetPicture
 2853              	.LVL273:
 760:.\main.c      ****                         case 0xB7:  //ID por número
 2854              		.loc 1 760 0
 2855 092e 1BE0     		b	.L172
 2856              	.L177:
 762:.\main.c      ****                             flowDisplay1 = 7;//Esperando estado del dispensador  
 2857              		.loc 1 762 0
 2858 0930 0023     		movs	r3, #0
 2859 0932 644A     		ldr	r2, .L283
 2860 0934 82F80031 		strb	r3, [r2, #256]
 763:.\main.c      ****                             count_protector=0;
 2861              		.loc 1 763 0
 2862 0938 0721     		movs	r1, #7
 2863 093a 654A     		ldr	r2, .L283+12
 2864 093c 1160     		str	r1, [r2]
 764:.\main.c      ****                             SetPicture(1,DISPLAY_SUBA_MANIJA);                            
 2865              		.loc 1 764 0
 2866 093e 694A     		ldr	r2, .L283+32
 2867 0940 1370     		strb	r3, [r2]
 765:.\main.c      ****                         break;
 2868              		.loc 1 765 0
 2869 0942 0120     		movs	r0, #1
 2870 0944 FFF7FEFF 		bl	SetPicture
 2871              	.LVL274:
 766:.\main.c      ****                         case 0x94:  //Pantalla Inicial    
 2872              		.loc 1 766 0
 2873 0948 0EE0     		b	.L172
 2874              	.L173:
 768:.\main.c      ****                             SetPicture(1,DISPLAY_INICIO0);                            
 2875              		.loc 1 768 0
 2876 094a 0022     		movs	r2, #0
 2877 094c 604B     		ldr	r3, .L283+12
 2878 094e 1A60     		str	r2, [r3]
 769:.\main.c      ****                         break;
 2879              		.loc 1 769 0
 2880 0950 0120     		movs	r0, #1
 2881 0952 0146     		mov	r1, r0
 2882 0954 FFF7FEFF 		bl	SetPicture
 2883              	.LVL275:
 770:.\main.c      ****                         case 0x7E:  //Pantalla Inicial                                             
 2884              		.loc 1 770 0
 2885 0958 06E0     		b	.L172
 2886              	.L175:
 772:.\main.c      ****                             flowDisplay1 = 0;
 2887              		.loc 1 772 0
 2888 095a 0120     		movs	r0, #1
 2889 095c 0146     		mov	r1, r0
 2890 095e FFF7FEFF 		bl	SetPicture
 2891              	.LVL276:
 773:.\main.c      ****                         break;
 2892              		.loc 1 773 0
 2893 0962 0022     		movs	r2, #0
ARM GAS  C:\Users\RECEPC~1\AppData\Local\Temp\ccp152bc.s 			page 96


 2894 0964 5A4B     		ldr	r3, .L283+12
 2895 0966 1A60     		str	r2, [r3]
 2896              	.L172:
 777:.\main.c      ****                 Display1_ClearRxBuffer();
 2897              		.loc 1 777 0
 2898 0968 0A20     		movs	r0, #10
 2899 096a FFF7FEFF 		bl	CyDelay
 2900              	.LVL277:
 778:.\main.c      ****             }                        
 2901              		.loc 1 778 0
 2902 096e FFF7FEFF 		bl	Display1_ClearRxBuffer
 2903              	.LVL278:
 2904 0972 00F012BD 		b	.L73
 2905              	.L87:
 783:.\main.c      ****             Timer_Animacion_Start();
 2906              		.loc 1 783 0
 2907 0976 5C48     		ldr	r0, .L283+36
 2908 0978 FFF7FEFF 		bl	isr_3_StartEx
 2909              	.LVL279:
 784:.\main.c      ****             if(touch_present(1)==1){
 2910              		.loc 1 784 0
 2911 097c FFF7FEFF 		bl	Timer_Animacion_Start
 2912              	.LVL280:
 785:.\main.c      **** 				if(touch_write(1,0x33)){
 2913              		.loc 1 785 0
 2914 0980 0120     		movs	r0, #1
 2915 0982 FFF7FEFF 		bl	touch_present
 2916              	.LVL281:
 2917 0986 0128     		cmp	r0, #1
 2918 0988 6CD1     		bne	.L178
 786:.\main.c      **** 					for(x=1;x<=8;x++){
 2919              		.loc 1 786 0
 2920 098a 3321     		movs	r1, #51
 2921 098c FFF7FEFF 		bl	touch_write
 2922              	.LVL282:
 2923 0990 40B9     		cbnz	r0, .L265
 2924 0992 67E0     		b	.L178
 2925              	.LVL283:
 2926              	.L180:
 788:.\main.c      **** 					}
 2927              		.loc 1 788 0 discriminator 3
 2928 0994 0120     		movs	r0, #1
 2929 0996 FFF7FEFF 		bl	touch_read_byte
 2930              	.LVL284:
 2931 099a 544B     		ldr	r3, .L283+40
 2932 099c 1855     		strb	r0, [r3, r4]
 787:.\main.c      **** 						temporal[x]=touch_read_byte(1);
 2933              		.loc 1 787 0 discriminator 3
 2934 099e 0134     		adds	r4, r4, #1
 2935              	.LVL285:
 2936 09a0 E4B2     		uxtb	r4, r4
 2937              	.LVL286:
 2938 09a2 00E0     		b	.L179
 2939              	.LVL287:
 2940              	.L265:
 2941 09a4 0124     		movs	r4, #1
 2942              	.L179:
ARM GAS  C:\Users\RECEPC~1\AppData\Local\Temp\ccp152bc.s 			page 97


 2943              	.LVL288:
 787:.\main.c      **** 						temporal[x]=touch_read_byte(1);
 2944              		.loc 1 787 0 is_stmt 0 discriminator 1
 2945 09a6 082C     		cmp	r4, #8
 2946 09a8 F4D9     		bls	.L180
 2947 09aa 0020     		movs	r0, #0
 2948 09ac 0124     		movs	r4, #1
 2949              	.LVL289:
 2950 09ae 05E0     		b	.L181
 2951              	.LVL290:
 2952              	.L182:
 792:.\main.c      ****                     }
 2953              		.loc 1 792 0 is_stmt 1 discriminator 3
 2954 09b0 4E4B     		ldr	r3, .L283+40
 2955 09b2 195D     		ldrb	r1, [r3, r4]	@ zero_extendqisi2
 2956 09b4 FFF7FEFF 		bl	crc_check
 2957              	.LVL291:
 791:.\main.c      ****                         y=crc_check(y,temporal[x]);
 2958              		.loc 1 791 0 discriminator 3
 2959 09b8 0134     		adds	r4, r4, #1
 2960              	.LVL292:
 2961 09ba E4B2     		uxtb	r4, r4
 2962              	.LVL293:
 2963              	.L181:
 791:.\main.c      ****                         y=crc_check(y,temporal[x]);
 2964              		.loc 1 791 0 is_stmt 0 discriminator 1
 2965 09bc 072C     		cmp	r4, #7
 2966 09be F7D9     		bls	.L182
 794:.\main.c      **** 						bufferDisplay1.idSerial[0]=16;
 2967              		.loc 1 794 0 is_stmt 1
 2968 09c0 4A4B     		ldr	r3, .L283+40
 2969 09c2 1B7A     		ldrb	r3, [r3, #8]	@ zero_extendqisi2
 2970 09c4 DBB2     		uxtb	r3, r3
 2971 09c6 8342     		cmp	r3, r0
 2972 09c8 4CD1     		bne	.L178
 795:.\main.c      **** 						y=16;
 2973              		.loc 1 795 0
 2974 09ca 1023     		movs	r3, #16
 2975 09cc 3D4A     		ldr	r2, .L283
 2976 09ce 5370     		strb	r3, [r2, #1]
 2977              	.LVL294:
 797:.\main.c      **** 							if((temporal[x]&0x0F)>=10){
 2978              		.loc 1 797 0
 2979 09d0 0122     		movs	r2, #1
 2980 09d2 30E0     		b	.L183
 2981              	.LVL295:
 2982              	.L188:
 798:.\main.c      **** 								bufferDisplay1.idSerial[y]=(temporal[x]&0x0F)+55;
 2983              		.loc 1 798 0
 2984 09d4 1046     		mov	r0, r2
 2985 09d6 4549     		ldr	r1, .L283+40
 2986 09d8 895C     		ldrb	r1, [r1, r2]	@ zero_extendqisi2
 2987 09da 01F00F01 		and	r1, r1, #15
 2988 09de 0929     		cmp	r1, #9
 2989 09e0 08DD     		ble	.L184
 799:.\main.c      **** 							}else{
 2990              		.loc 1 799 0
ARM GAS  C:\Users\RECEPC~1\AppData\Local\Temp\ccp152bc.s 			page 98


 2991 09e2 4249     		ldr	r1, .L283+40
 2992 09e4 895C     		ldrb	r1, [r1, r2]	@ zero_extendqisi2
 2993 09e6 374C     		ldr	r4, .L283
 2994 09e8 1C44     		add	r4, r4, r3
 2995 09ea 01F00F01 		and	r1, r1, #15
 2996 09ee 3731     		adds	r1, r1, #55
 2997 09f0 6170     		strb	r1, [r4, #1]
 2998 09f2 07E0     		b	.L185
 2999              	.L184:
 801:.\main.c      **** 							}
 3000              		.loc 1 801 0
 3001 09f4 3D49     		ldr	r1, .L283+40
 3002 09f6 895C     		ldrb	r1, [r1, r2]	@ zero_extendqisi2
 3003 09f8 324C     		ldr	r4, .L283
 3004 09fa 1C44     		add	r4, r4, r3
 3005 09fc 01F00F01 		and	r1, r1, #15
 3006 0a00 3031     		adds	r1, r1, #48
 3007 0a02 6170     		strb	r1, [r4, #1]
 3008              	.L185:
 803:.\main.c      **** 							if(((temporal[x]>>4)&0x0F)>=10){
 3009              		.loc 1 803 0
 3010 0a04 013B     		subs	r3, r3, #1
 3011              	.LVL296:
 3012 0a06 DBB2     		uxtb	r3, r3
 3013              	.LVL297:
 804:.\main.c      **** 								bufferDisplay1.idSerial[y]=((temporal[x]>>4)&0x0F)+55;
 3014              		.loc 1 804 0
 3015 0a08 3849     		ldr	r1, .L283+40
 3016 0a0a 095C     		ldrb	r1, [r1, r0]	@ zero_extendqisi2
 3017 0a0c 9F29     		cmp	r1, #159
 3018 0a0e 07D9     		bls	.L186
 805:.\main.c      **** 							}else{
 3019              		.loc 1 805 0
 3020 0a10 3649     		ldr	r1, .L283+40
 3021 0a12 095C     		ldrb	r1, [r1, r0]	@ zero_extendqisi2
 3022 0a14 2B48     		ldr	r0, .L283
 3023 0a16 1844     		add	r0, r0, r3
 3024 0a18 0909     		lsrs	r1, r1, #4
 3025 0a1a 3731     		adds	r1, r1, #55
 3026 0a1c 4170     		strb	r1, [r0, #1]
 3027 0a1e 06E0     		b	.L187
 3028              	.L186:
 807:.\main.c      **** 							}
 3029              		.loc 1 807 0
 3030 0a20 3249     		ldr	r1, .L283+40
 3031 0a22 095C     		ldrb	r1, [r1, r0]	@ zero_extendqisi2
 3032 0a24 2748     		ldr	r0, .L283
 3033 0a26 1844     		add	r0, r0, r3
 3034 0a28 0909     		lsrs	r1, r1, #4
 3035 0a2a 3031     		adds	r1, r1, #48
 3036 0a2c 4170     		strb	r1, [r0, #1]
 3037              	.L187:
 809:.\main.c      **** 						}                        
 3038              		.loc 1 809 0 discriminator 2
 3039 0a2e 013B     		subs	r3, r3, #1
 3040              	.LVL298:
 3041 0a30 DBB2     		uxtb	r3, r3
ARM GAS  C:\Users\RECEPC~1\AppData\Local\Temp\ccp152bc.s 			page 99


 3042              	.LVL299:
 797:.\main.c      **** 							if((temporal[x]&0x0F)>=10){
 3043              		.loc 1 797 0 discriminator 2
 3044 0a32 0132     		adds	r2, r2, #1
 3045              	.LVL300:
 3046 0a34 D2B2     		uxtb	r2, r2
 3047              	.LVL301:
 3048              	.L183:
 797:.\main.c      **** 							if((temporal[x]&0x0F)>=10){
 3049              		.loc 1 797 0 is_stmt 0 discriminator 1
 3050 0a36 082A     		cmp	r2, #8
 3051 0a38 CCD9     		bls	.L188
 811:.\main.c      ****                         Display1_ClearRxBuffer();
 3052              		.loc 1 811 0 is_stmt 1
 3053 0a3a 0120     		movs	r0, #1
 3054 0a3c 1321     		movs	r1, #19
 3055 0a3e FFF7FEFF 		bl	SetPicture
 3056              	.LVL302:
 812:.\main.c      ****                         CyDelay(700);
 3057              		.loc 1 812 0
 3058 0a42 FFF7FEFF 		bl	Display1_ClearRxBuffer
 3059              	.LVL303:
 813:.\main.c      ****                         bufferDisplay1.flagKeyboard = 2;
 3060              		.loc 1 813 0
 3061 0a46 4FF42F70 		mov	r0, #700
 3062 0a4a FFF7FEFF 		bl	CyDelay
 3063              	.LVL304:
 814:.\main.c      ****                         flowDisplay1 = 9;
 3064              		.loc 1 814 0
 3065 0a4e 0222     		movs	r2, #2
 3066 0a50 1C4B     		ldr	r3, .L283
 3067 0a52 83F80021 		strb	r2, [r3, #256]
 815:.\main.c      ****                         SetPicture(1,DISPLAY_INTRODUZCA_KILOMETRAJE);
 3068              		.loc 1 815 0
 3069 0a56 0922     		movs	r2, #9
 3070 0a58 1D4B     		ldr	r3, .L283+12
 3071 0a5a 1A60     		str	r2, [r3]
 816:.\main.c      ****                         
 3072              		.loc 1 816 0
 3073 0a5c 0120     		movs	r0, #1
 3074 0a5e 0E21     		movs	r1, #14
 3075 0a60 FFF7FEFF 		bl	SetPicture
 3076              	.LVL305:
 3077              	.L178:
 821:.\main.c      ****                 flowDisplay1 = 0;	
 3078              		.loc 1 821 0
 3079 0a64 1F4B     		ldr	r3, .L283+32
 3080 0a66 1B78     		ldrb	r3, [r3]	@ zero_extendqisi2
 3081 0a68 3B2B     		cmp	r3, #59
 3082 0a6a 40F29684 		bls	.L73
 822:.\main.c      ****     			count_protector=0;
 3083              		.loc 1 822 0
 3084 0a6e 0023     		movs	r3, #0
 3085 0a70 174A     		ldr	r2, .L283+12
 3086 0a72 1360     		str	r3, [r2]
 823:.\main.c      ****                 SetPicture(1,DISPLAY_INICIO0);
 3087              		.loc 1 823 0
ARM GAS  C:\Users\RECEPC~1\AppData\Local\Temp\ccp152bc.s 			page 100


 3088 0a74 1B4A     		ldr	r2, .L283+32
 3089 0a76 1370     		strb	r3, [r2]
 824:.\main.c      ****     		}
 3090              		.loc 1 824 0
 3091 0a78 0120     		movs	r0, #1
 3092 0a7a 0146     		mov	r1, r0
 3093 0a7c FFF7FEFF 		bl	SetPicture
 3094              	.LVL306:
 3095 0a80 00F08BBC 		b	.L73
 3096              	.L88:
 832:.\main.c      ****                 if((Display1_rxBuffer[0]==0xAA) && (Display1_rxBuffer[6]==0xC3) && (Display1_rxBuff
 3097              		.loc 1 832 0
 3098 0a84 FFF7FEFF 		bl	Display1_GetRxBufferSize
 3099              	.LVL307:
 3100 0a88 0828     		cmp	r0, #8
 3101 0a8a 40F08684 		bne	.L73
 833:.\main.c      ****                     switch(Display1_rxBuffer[3]){
 3102              		.loc 1 833 0
 3103 0a8e 144B     		ldr	r3, .L283+28
 3104 0a90 1B78     		ldrb	r3, [r3]	@ zero_extendqisi2
 3105 0a92 DBB2     		uxtb	r3, r3
 3106 0a94 AA2B     		cmp	r3, #170
 3107 0a96 7DD1     		bne	.L189
 833:.\main.c      ****                     switch(Display1_rxBuffer[3]){
 3108              		.loc 1 833 0 is_stmt 0 discriminator 1
 3109 0a98 114B     		ldr	r3, .L283+28
 3110 0a9a 9B79     		ldrb	r3, [r3, #6]	@ zero_extendqisi2
 3111 0a9c DBB2     		uxtb	r3, r3
 3112 0a9e C32B     		cmp	r3, #195
 3113 0aa0 78D1     		bne	.L189
 833:.\main.c      ****                     switch(Display1_rxBuffer[3]){
 3114              		.loc 1 833 0 discriminator 2
 3115 0aa2 0F4B     		ldr	r3, .L283+28
 3116 0aa4 DB79     		ldrb	r3, [r3, #7]	@ zero_extendqisi2
 3117 0aa6 DBB2     		uxtb	r3, r3
 3118 0aa8 3C2B     		cmp	r3, #60
 3119 0aaa 73D1     		bne	.L189
 834:.\main.c      ****                         case 0x46:  //Turnos              
 3120              		.loc 1 834 0 is_stmt 1
 3121 0aac 0C4B     		ldr	r3, .L283+28
 3122 0aae DB78     		ldrb	r3, [r3, #3]	@ zero_extendqisi2
 3123 0ab0 DBB2     		uxtb	r3, r3
 3124 0ab2 552B     		cmp	r3, #85
 3125 0ab4 34D0     		beq	.L190
 3126 0ab6 1BD8     		bhi	.L191
 3127 0ab8 3B2B     		cmp	r3, #59
 3128 0aba 54D0     		beq	.L192
 3129 0abc 462B     		cmp	r3, #70
 3130 0abe 1ED0     		beq	.L193
 3131 0ac0 68E0     		b	.L189
 3132              	.L284:
 3133 0ac2 00BF     		.align	2
 3134              	.L283:
 3135 0ac4 00000000 		.word	bufferDisplay1
 3136 0ac8 00000000 		.word	printPortA
 3137 0acc 00000000 		.word	side
 3138 0ad0 00000000 		.word	flowDisplay1
ARM GAS  C:\Users\RECEPC~1\AppData\Local\Temp\ccp152bc.s 			page 101


 3139 0ad4 00000000 		.word	numberKeys1
 3140 0ad8 00000000 		.word	hiddenKeys
 3141 0adc 00000000 		.word	controlChar
 3142 0ae0 00000000 		.word	Display1_rxBuffer
 3143 0ae4 00000000 		.word	count_protector
 3144 0ae8 00000000 		.word	animacion
 3145 0aec 00000000 		.word	temporal
 3146              	.L191:
 3147 0af0 942B     		cmp	r3, #148
 3148 0af2 40D0     		beq	.L194
 3149 0af4 B52B     		cmp	r3, #181
 3150 0af6 28D0     		beq	.L195
 3151 0af8 7E2B     		cmp	r3, #126
 3152 0afa 4BD1     		bne	.L189
 3153 0afc 43E0     		b	.L196
 3154              	.L193:
 836:.\main.c      ****                             if(lockTurn ==1){
 3155              		.loc 1 836 0
 3156 0afe 0D22     		movs	r2, #13
 3157 0b00 AA4B     		ldr	r3, .L285
 3158 0b02 1A60     		str	r2, [r3]
 837:.\main.c      ****                                 SetPicture(1,DISPLAY_CERRAR_TURNO);
 3159              		.loc 1 837 0
 3160 0b04 AA4B     		ldr	r3, .L285+4
 3161 0b06 1B78     		ldrb	r3, [r3]	@ zero_extendqisi2
 3162 0b08 012B     		cmp	r3, #1
 3163 0b0a 04D1     		bne	.L197
 838:.\main.c      ****                             }else{
 3164              		.loc 1 838 0
 3165 0b0c 0120     		movs	r0, #1
 3166 0b0e 2A21     		movs	r1, #42
 3167 0b10 FFF7FEFF 		bl	SetPicture
 3168              	.LVL308:
 3169 0b14 3EE0     		b	.L189
 3170              	.L197:
 840:.\main.c      ****                             }                            
 3171              		.loc 1 840 0
 3172 0b16 0120     		movs	r0, #1
 3173 0b18 2321     		movs	r1, #35
 3174 0b1a FFF7FEFF 		bl	SetPicture
 3175              	.LVL309:
 3176 0b1e 39E0     		b	.L189
 3177              	.L190:
 844:.\main.c      ****                             bufferDisplay1.flagKeyboard = 6;
 3178              		.loc 1 844 0
 3179 0b20 0E22     		movs	r2, #14
 3180 0b22 A24B     		ldr	r3, .L285
 3181 0b24 1A60     		str	r2, [r3]
 845:.\main.c      ****                             numberKeys1 = 0;
 3182              		.loc 1 845 0
 3183 0b26 0622     		movs	r2, #6
 3184 0b28 A24B     		ldr	r3, .L285+8
 3185 0b2a 83F80021 		strb	r2, [r3, #256]
 846:.\main.c      ****                             hiddenKeys = 5;
 3186              		.loc 1 846 0
 3187 0b2e 0022     		movs	r2, #0
 3188 0b30 A14B     		ldr	r3, .L285+12
ARM GAS  C:\Users\RECEPC~1\AppData\Local\Temp\ccp152bc.s 			page 102


 3189 0b32 1A70     		strb	r2, [r3]
 847:.\main.c      ****                             controlChar ='*';
 3190              		.loc 1 847 0
 3191 0b34 0522     		movs	r2, #5
 3192 0b36 A14B     		ldr	r3, .L285+16
 3193 0b38 1A70     		strb	r2, [r3]
 848:.\main.c      ****                             SetPicture(1,DISPLAY_INGRESE_PASSWORD);                           
 3194              		.loc 1 848 0
 3195 0b3a 2A22     		movs	r2, #42
 3196 0b3c A04B     		ldr	r3, .L285+20
 3197 0b3e 1A70     		strb	r2, [r3]
 849:.\main.c      ****                         break;
 3198              		.loc 1 849 0
 3199 0b40 0120     		movs	r0, #1
 3200 0b42 2521     		movs	r1, #37
 3201 0b44 FFF7FEFF 		bl	SetPicture
 3202              	.LVL310:
 850:.\main.c      ****                         case 0xB5:  //Copia de recibo 
 3203              		.loc 1 850 0
 3204 0b48 24E0     		b	.L189
 3205              	.L195:
 852:.\main.c      ****                             side.a.RFstateReport = 1;
 3206              		.loc 1 852 0
 3207 0b4a 0022     		movs	r2, #0
 3208 0b4c 974B     		ldr	r3, .L285
 3209 0b4e 1A60     		str	r2, [r3]
 853:.\main.c      ****                             side.a.rfState = RF_COPY_RECEIPT;
 3210              		.loc 1 853 0
 3211 0b50 9C4B     		ldr	r3, .L285+24
 3212 0b52 0121     		movs	r1, #1
 3213 0b54 83F80711 		strb	r1, [r3, #263]
 854:.\main.c      ****                             SetPicture(1,DISPLAY_INICIO0);                            
 3214              		.loc 1 854 0
 3215 0b58 0B22     		movs	r2, #11
 3216 0b5a 83F80321 		strb	r2, [r3, #259]
 855:.\main.c      ****                         break;
 3217              		.loc 1 855 0
 3218 0b5e 0846     		mov	r0, r1
 3219 0b60 FFF7FEFF 		bl	SetPicture
 3220              	.LVL311:
 856:.\main.c      ****                         
 3221              		.loc 1 856 0
 3222 0b64 16E0     		b	.L189
 3223              	.L192:
 859:.\main.c      ****                             SetPicture(1,DISPLAY_INICIO0);                            
 3224              		.loc 1 859 0
 3225 0b66 0022     		movs	r2, #0
 3226 0b68 904B     		ldr	r3, .L285
 3227 0b6a 1A60     		str	r2, [r3]
 860:.\main.c      ****                         break;
 3228              		.loc 1 860 0
 3229 0b6c 0120     		movs	r0, #1
 3230 0b6e 0146     		mov	r1, r0
 3231 0b70 FFF7FEFF 		bl	SetPicture
 3232              	.LVL312:
 861:.\main.c      ****                             
 3233              		.loc 1 861 0
ARM GAS  C:\Users\RECEPC~1\AppData\Local\Temp\ccp152bc.s 			page 103


 3234 0b74 0EE0     		b	.L189
 3235              	.L194:
 864:.\main.c      ****                             SetPicture(1,DISPLAY_INICIO0);                            
 3236              		.loc 1 864 0
 3237 0b76 0022     		movs	r2, #0
 3238 0b78 8C4B     		ldr	r3, .L285
 3239 0b7a 1A60     		str	r2, [r3]
 865:.\main.c      ****                         break;
 3240              		.loc 1 865 0
 3241 0b7c 0120     		movs	r0, #1
 3242 0b7e 0146     		mov	r1, r0
 3243 0b80 FFF7FEFF 		bl	SetPicture
 3244              	.LVL313:
 866:.\main.c      ****                         
 3245              		.loc 1 866 0
 3246 0b84 06E0     		b	.L189
 3247              	.L196:
 869:.\main.c      ****                             SetPicture(1,DISPLAY_INICIO0);                            
 3248              		.loc 1 869 0
 3249 0b86 0022     		movs	r2, #0
 3250 0b88 884B     		ldr	r3, .L285
 3251 0b8a 1A60     		str	r2, [r3]
 870:.\main.c      ****                         break;
 3252              		.loc 1 870 0
 3253 0b8c 0120     		movs	r0, #1
 3254 0b8e 0146     		mov	r1, r0
 3255 0b90 FFF7FEFF 		bl	SetPicture
 3256              	.LVL314:
 3257              	.L189:
 874:.\main.c      ****                 Display1_ClearRxBuffer();
 3258              		.loc 1 874 0
 3259 0b94 0A20     		movs	r0, #10
 3260 0b96 FFF7FEFF 		bl	CyDelay
 3261              	.LVL315:
 875:.\main.c      ****             }
 3262              		.loc 1 875 0
 3263 0b9a FFF7FEFF 		bl	Display1_ClearRxBuffer
 3264              	.LVL316:
 3265 0b9e FCE3     		b	.L73
 3266              	.L89:
 880:.\main.c      ****                 if((Display1_rxBuffer[0]==0xAA) && (Display1_rxBuffer[6]==0xC3) && (Display1_rxBuff
 3267              		.loc 1 880 0
 3268 0ba0 FFF7FEFF 		bl	Display1_GetRxBufferSize
 3269              	.LVL317:
 3270 0ba4 0828     		cmp	r0, #8
 3271 0ba6 40F0F883 		bne	.L73
 881:.\main.c      ****                     switch(Display1_rxBuffer[3]){
 3272              		.loc 1 881 0
 3273 0baa 874B     		ldr	r3, .L285+28
 3274 0bac 1B78     		ldrb	r3, [r3]	@ zero_extendqisi2
 3275 0bae DBB2     		uxtb	r3, r3
 3276 0bb0 AA2B     		cmp	r3, #170
 3277 0bb2 44D1     		bne	.L198
 881:.\main.c      ****                     switch(Display1_rxBuffer[3]){
 3278              		.loc 1 881 0 is_stmt 0 discriminator 1
 3279 0bb4 844B     		ldr	r3, .L285+28
 3280 0bb6 9B79     		ldrb	r3, [r3, #6]	@ zero_extendqisi2
ARM GAS  C:\Users\RECEPC~1\AppData\Local\Temp\ccp152bc.s 			page 104


 3281 0bb8 DBB2     		uxtb	r3, r3
 3282 0bba C32B     		cmp	r3, #195
 3283 0bbc 3FD1     		bne	.L198
 881:.\main.c      ****                     switch(Display1_rxBuffer[3]){
 3284              		.loc 1 881 0 discriminator 2
 3285 0bbe 824B     		ldr	r3, .L285+28
 3286 0bc0 DB79     		ldrb	r3, [r3, #7]	@ zero_extendqisi2
 3287 0bc2 DBB2     		uxtb	r3, r3
 3288 0bc4 3C2B     		cmp	r3, #60
 3289 0bc6 3AD1     		bne	.L198
 882:.\main.c      ****                         case 0x47:  //Cambio de turno: Abrir  
 3290              		.loc 1 882 0 is_stmt 1
 3291 0bc8 7F4B     		ldr	r3, .L285+28
 3292 0bca DB78     		ldrb	r3, [r3, #3]	@ zero_extendqisi2
 3293 0bcc DBB2     		uxtb	r3, r3
 3294 0bce 482B     		cmp	r3, #72
 3295 0bd0 17D0     		beq	.L199
 3296 0bd2 02D8     		bhi	.L200
 3297 0bd4 472B     		cmp	r3, #71
 3298 0bd6 05D0     		beq	.L201
 3299 0bd8 31E0     		b	.L198
 3300              	.L200:
 3301 0bda 7E2B     		cmp	r3, #126
 3302 0bdc 20D0     		beq	.L202
 3303 0bde 942B     		cmp	r3, #148
 3304 0be0 26D0     		beq	.L203
 3305 0be2 2CE0     		b	.L198
 3306              	.L201:
 884:.\main.c      ****                             numberKeys1 = 0;    
 3307              		.loc 1 884 0
 3308 0be4 0922     		movs	r2, #9
 3309 0be6 714B     		ldr	r3, .L285
 3310 0be8 1A60     		str	r2, [r3]
 885:.\main.c      ****                             bufferDisplay1.flagKeyboard = 4;
 3311              		.loc 1 885 0
 3312 0bea 0022     		movs	r2, #0
 3313 0bec 724B     		ldr	r3, .L285+12
 3314 0bee 1A70     		strb	r2, [r3]
 886:.\main.c      ****                             SetPicture(1,DISPLAY_INTRODUZCA_CEDULA);                            
 3315              		.loc 1 886 0
 3316 0bf0 0422     		movs	r2, #4
 3317 0bf2 704B     		ldr	r3, .L285+8
 3318 0bf4 83F80021 		strb	r2, [r3, #256]
 887:.\main.c      ****                         break;
 3319              		.loc 1 887 0
 3320 0bf8 0120     		movs	r0, #1
 3321 0bfa 2421     		movs	r1, #36
 3322 0bfc FFF7FEFF 		bl	SetPicture
 3323              	.LVL318:
 888:.\main.c      ****                         case 0x48:  //Cambio de turno: Cerrar 
 3324              		.loc 1 888 0
 3325 0c00 1DE0     		b	.L198
 3326              	.L199:
 890:.\main.c      ****                             numberKeys1 = 0;   
 3327              		.loc 1 890 0
 3328 0c02 0922     		movs	r2, #9
 3329 0c04 694B     		ldr	r3, .L285
ARM GAS  C:\Users\RECEPC~1\AppData\Local\Temp\ccp152bc.s 			page 105


 3330 0c06 1A60     		str	r2, [r3]
 891:.\main.c      ****                             bufferDisplay1.flagKeyboard = 4;
 3331              		.loc 1 891 0
 3332 0c08 0022     		movs	r2, #0
 3333 0c0a 6B4B     		ldr	r3, .L285+12
 3334 0c0c 1A70     		strb	r2, [r3]
 892:.\main.c      ****                             SetPicture(1,DISPLAY_INTRODUZCA_CEDULA);                           
 3335              		.loc 1 892 0
 3336 0c0e 0422     		movs	r2, #4
 3337 0c10 684B     		ldr	r3, .L285+8
 3338 0c12 83F80021 		strb	r2, [r3, #256]
 893:.\main.c      ****                         break;                         
 3339              		.loc 1 893 0
 3340 0c16 0120     		movs	r0, #1
 3341 0c18 2421     		movs	r1, #36
 3342 0c1a FFF7FEFF 		bl	SetPicture
 3343              	.LVL319:
 894:.\main.c      ****                         case 0x7E:  //Pantalla Inicial                                             
 3344              		.loc 1 894 0
 3345 0c1e 0EE0     		b	.L198
 3346              	.L202:
 896:.\main.c      ****                             flowDisplay1 = 0;
 3347              		.loc 1 896 0
 3348 0c20 0120     		movs	r0, #1
 3349 0c22 0146     		mov	r1, r0
 3350 0c24 FFF7FEFF 		bl	SetPicture
 3351              	.LVL320:
 897:.\main.c      ****                         break;
 3352              		.loc 1 897 0
 3353 0c28 0022     		movs	r2, #0
 3354 0c2a 604B     		ldr	r3, .L285
 3355 0c2c 1A60     		str	r2, [r3]
 898:.\main.c      ****                         case 0x94:  //Pantalla Inicial                                             
 3356              		.loc 1 898 0
 3357 0c2e 06E0     		b	.L198
 3358              	.L203:
 900:.\main.c      ****                             flowDisplay1 = 0;
 3359              		.loc 1 900 0
 3360 0c30 0120     		movs	r0, #1
 3361 0c32 0146     		mov	r1, r0
 3362 0c34 FFF7FEFF 		bl	SetPicture
 3363              	.LVL321:
 901:.\main.c      ****                         break;
 3364              		.loc 1 901 0
 3365 0c38 0022     		movs	r2, #0
 3366 0c3a 5C4B     		ldr	r3, .L285
 3367 0c3c 1A60     		str	r2, [r3]
 3368              	.L198:
 905:.\main.c      ****                 Display1_ClearRxBuffer();
 3369              		.loc 1 905 0
 3370 0c3e 0A20     		movs	r0, #10
 3371 0c40 FFF7FEFF 		bl	CyDelay
 3372              	.LVL322:
 906:.\main.c      ****             }                        
 3373              		.loc 1 906 0
 3374 0c44 FFF7FEFF 		bl	Display1_ClearRxBuffer
 3375              	.LVL323:
ARM GAS  C:\Users\RECEPC~1\AppData\Local\Temp\ccp152bc.s 			page 106


 3376 0c48 A7E3     		b	.L73
 3377              	.L90:
 911:.\main.c      ****                 case 0: //Cancelar
 3378              		.loc 1 911 0
 3379 0c4a 0120     		movs	r0, #1
 3380 0c4c 5B4B     		ldr	r3, .L285+16
 3381 0c4e 1978     		ldrb	r1, [r3]	@ zero_extendqisi2
 3382 0c50 5B4B     		ldr	r3, .L285+20
 3383 0c52 1A78     		ldrb	r2, [r3]	@ zero_extendqisi2
 3384 0c54 FFF7FEFF 		bl	alphanumeric_keyboard
 3385              	.LVL324:
 3386 0c58 10B1     		cbz	r0, .L204
 3387 0c5a 0128     		cmp	r0, #1
 3388 0c5c 6ED0     		beq	.L205
 3389 0c5e 9CE3     		b	.L73
 3390              	.L204:
 913:.\main.c      ****                         case 1://ID Estacion
 3391              		.loc 1 913 0
 3392 0c60 544B     		ldr	r3, .L285+8
 3393 0c62 93F80031 		ldrb	r3, [r3, #256]	@ zero_extendqisi2
 3394 0c66 013B     		subs	r3, r3, #1
 3395 0c68 052B     		cmp	r3, #5
 3396 0c6a 64D8     		bhi	.L206
 3397 0c6c DFE803F0 		tbb	[pc, r3]
 3398              	.L208:
 3399 0c70 09       		.byte	(.L266-.L208)/2
 3400 0c71 1A       		.byte	(.L267-.L208)/2
 3401 0c72 2F       		.byte	(.L268-.L208)/2
 3402 0c73 63       		.byte	(.L206-.L208)/2
 3403 0c74 44       		.byte	(.L269-.L208)/2
 3404 0c75 57       		.byte	(.L270-.L208)/2
 3405              	.LVL325:
 3406              		.p2align 1
 3407              	.L213:
 916:.\main.c      ****                             }
 3408              		.loc 1 916 0 discriminator 3
 3409 0c76 0021     		movs	r1, #0
 3410 0c78 544A     		ldr	r2, .L285+32
 3411 0c7a D154     		strb	r1, [r2, r3]
 915:.\main.c      ****                                 idStation[x]=0;
 3412              		.loc 1 915 0 discriminator 3
 3413 0c7c 0133     		adds	r3, r3, #1
 3414              	.LVL326:
 3415 0c7e DBB2     		uxtb	r3, r3
 3416              	.LVL327:
 3417 0c80 00E0     		b	.L207
 3418              	.LVL328:
 3419              	.L266:
 913:.\main.c      ****                         case 1://ID Estacion
 3420              		.loc 1 913 0
 3421 0c82 0023     		movs	r3, #0
 3422              	.L207:
 3423              	.LVL329:
 915:.\main.c      ****                                 idStation[x]=0;
 3424              		.loc 1 915 0 discriminator 1
 3425 0c84 042B     		cmp	r3, #4
 3426 0c86 F6D9     		bls	.L213
ARM GAS  C:\Users\RECEPC~1\AppData\Local\Temp\ccp152bc.s 			page 107


 918:.\main.c      ****                             SetPicture(1,DISPLAY_INICIO0);
 3427              		.loc 1 918 0
 3428 0c88 0022     		movs	r2, #0
 3429 0c8a 484B     		ldr	r3, .L285
 3430              	.LVL330:
 3431 0c8c 1A60     		str	r2, [r3]
 919:.\main.c      ****                         break;
 3432              		.loc 1 919 0
 3433 0c8e 0120     		movs	r0, #1
 3434 0c90 0146     		mov	r1, r0
 3435 0c92 FFF7FEFF 		bl	SetPicture
 3436              	.LVL331:
 920:.\main.c      ****                         case 2://Umbral
 3437              		.loc 1 920 0
 3438 0c96 4EE0     		b	.L206
 3439              	.LVL332:
 3440              	.L214:
 923:.\main.c      ****                             }
 3441              		.loc 1 923 0 discriminator 3
 3442 0c98 0021     		movs	r1, #0
 3443 0c9a 4D4A     		ldr	r2, .L285+36
 3444 0c9c D154     		strb	r1, [r2, r3]
 922:.\main.c      ****                                 pumpGap[x]=0;
 3445              		.loc 1 922 0 discriminator 3
 3446 0c9e 0133     		adds	r3, r3, #1
 3447              	.LVL333:
 3448 0ca0 DBB2     		uxtb	r3, r3
 3449              	.LVL334:
 3450 0ca2 00E0     		b	.L209
 3451              	.LVL335:
 3452              	.L267:
 913:.\main.c      ****                         case 1://ID Estacion
 3453              		.loc 1 913 0
 3454 0ca4 0023     		movs	r3, #0
 3455              	.L209:
 3456              	.LVL336:
 922:.\main.c      ****                                 pumpGap[x]=0;
 3457              		.loc 1 922 0 discriminator 1
 3458 0ca6 454A     		ldr	r2, .L285+16
 3459 0ca8 1278     		ldrb	r2, [r2]	@ zero_extendqisi2
 3460 0caa 9342     		cmp	r3, r2
 3461 0cac F4D3     		bcc	.L214
 925:.\main.c      ****                             SetPicture(1,DISPLAY_INICIO0);
 3462              		.loc 1 925 0
 3463 0cae 0022     		movs	r2, #0
 3464 0cb0 3E4B     		ldr	r3, .L285
 3465              	.LVL337:
 3466 0cb2 1A60     		str	r2, [r3]
 926:.\main.c      ****                         break;
 3467              		.loc 1 926 0
 3468 0cb4 0120     		movs	r0, #1
 3469 0cb6 0146     		mov	r1, r0
 3470 0cb8 FFF7FEFF 		bl	SetPicture
 3471              	.LVL338:
 927:.\main.c      ****                         case 3://Pass turno
 3472              		.loc 1 927 0
 3473 0cbc 3BE0     		b	.L206
ARM GAS  C:\Users\RECEPC~1\AppData\Local\Temp\ccp152bc.s 			page 108


 3474              	.LVL339:
 3475              	.L215:
 930:.\main.c      ****                             }
 3476              		.loc 1 930 0 discriminator 3
 3477 0cbe 3D4A     		ldr	r2, .L285+8
 3478 0cc0 1A44     		add	r2, r2, r3
 3479 0cc2 0021     		movs	r1, #0
 3480 0cc4 82F84111 		strb	r1, [r2, #321]
 929:.\main.c      ****                                 bufferDisplay1.shiftPassword[x]=0;
 3481              		.loc 1 929 0 discriminator 3
 3482 0cc8 0133     		adds	r3, r3, #1
 3483              	.LVL340:
 3484 0cca DBB2     		uxtb	r3, r3
 3485              	.LVL341:
 3486 0ccc 00E0     		b	.L210
 3487              	.LVL342:
 3488              	.L268:
 913:.\main.c      ****                         case 1://ID Estacion
 3489              		.loc 1 913 0
 3490 0cce 0023     		movs	r3, #0
 3491              	.L210:
 3492              	.LVL343:
 929:.\main.c      ****                                 bufferDisplay1.shiftPassword[x]=0;
 3493              		.loc 1 929 0 discriminator 1
 3494 0cd0 3A4A     		ldr	r2, .L285+16
 3495 0cd2 1278     		ldrb	r2, [r2]	@ zero_extendqisi2
 3496 0cd4 9342     		cmp	r3, r2
 3497 0cd6 F2D3     		bcc	.L215
 932:.\main.c      ****                             SetPicture(1,DISPLAY_INICIO0);
 3498              		.loc 1 932 0
 3499 0cd8 0022     		movs	r2, #0
 3500 0cda 344B     		ldr	r3, .L285
 3501              	.LVL344:
 3502 0cdc 1A60     		str	r2, [r3]
 933:.\main.c      ****                         break;
 3503              		.loc 1 933 0
 3504 0cde 0120     		movs	r0, #1
 3505 0ce0 0146     		mov	r1, r0
 3506 0ce2 FFF7FEFF 		bl	SetPicture
 3507              	.LVL345:
 934:.\main.c      ****                         case 5://Pass
 3508              		.loc 1 934 0
 3509 0ce6 26E0     		b	.L206
 3510              	.LVL346:
 3511              	.L216:
 937:.\main.c      ****                             }
 3512              		.loc 1 937 0 discriminator 3
 3513 0ce8 324A     		ldr	r2, .L285+8
 3514 0cea 1A44     		add	r2, r2, r3
 3515 0cec 0021     		movs	r1, #0
 3516 0cee 82F84111 		strb	r1, [r2, #321]
 936:.\main.c      ****                                 bufferDisplay1.shiftPassword[x]=0;
 3517              		.loc 1 936 0 discriminator 3
 3518 0cf2 0133     		adds	r3, r3, #1
 3519              	.LVL347:
 3520 0cf4 DBB2     		uxtb	r3, r3
 3521              	.LVL348:
ARM GAS  C:\Users\RECEPC~1\AppData\Local\Temp\ccp152bc.s 			page 109


 3522 0cf6 00E0     		b	.L211
 3523              	.LVL349:
 3524              	.L269:
 913:.\main.c      ****                         case 1://ID Estacion
 3525              		.loc 1 913 0
 3526 0cf8 0023     		movs	r3, #0
 3527              	.L211:
 3528              	.LVL350:
 936:.\main.c      ****                                 bufferDisplay1.shiftPassword[x]=0;
 3529              		.loc 1 936 0 discriminator 1
 3530 0cfa 304A     		ldr	r2, .L285+16
 3531 0cfc 1278     		ldrb	r2, [r2]	@ zero_extendqisi2
 3532 0cfe 9342     		cmp	r3, r2
 3533 0d00 F2D3     		bcc	.L216
 939:.\main.c      ****                             SetPicture(1,DISPLAY_INICIO0);
 3534              		.loc 1 939 0
 3535 0d02 0022     		movs	r2, #0
 3536 0d04 294B     		ldr	r3, .L285
 3537              	.LVL351:
 3538 0d06 1A60     		str	r2, [r3]
 940:.\main.c      ****                         break;
 3539              		.loc 1 940 0
 3540 0d08 0120     		movs	r0, #1
 3541 0d0a 0146     		mov	r1, r0
 3542 0d0c FFF7FEFF 		bl	SetPicture
 3543              	.LVL352:
 941:.\main.c      ****                             
 3544              		.loc 1 941 0
 3545 0d10 11E0     		b	.L206
 3546              	.LVL353:
 3547              	.L217:
 945:.\main.c      ****                             }
 3548              		.loc 1 945 0 discriminator 3
 3549 0d12 0021     		movs	r1, #0
 3550 0d14 2F4A     		ldr	r2, .L285+40
 3551 0d16 D154     		strb	r1, [r2, r3]
 944:.\main.c      ****                                 configAccess[x]=0;
 3552              		.loc 1 944 0 discriminator 3
 3553 0d18 0133     		adds	r3, r3, #1
 3554              	.LVL354:
 3555 0d1a DBB2     		uxtb	r3, r3
 3556              	.LVL355:
 3557 0d1c 00E0     		b	.L212
 3558              	.LVL356:
 3559              	.L270:
 913:.\main.c      ****                         case 1://ID Estacion
 3560              		.loc 1 913 0
 3561 0d1e 0123     		movs	r3, #1
 3562              	.L212:
 3563              	.LVL357:
 944:.\main.c      ****                                 configAccess[x]=0;
 3564              		.loc 1 944 0 discriminator 1
 3565 0d20 2C4A     		ldr	r2, .L285+40
 3566 0d22 1278     		ldrb	r2, [r2]	@ zero_extendqisi2
 3567 0d24 9A42     		cmp	r2, r3
 3568 0d26 F4D2     		bcs	.L217
 947:.\main.c      ****                             SetPicture(1,DISPLAY_INICIO0);
ARM GAS  C:\Users\RECEPC~1\AppData\Local\Temp\ccp152bc.s 			page 110


 3569              		.loc 1 947 0
 3570 0d28 0022     		movs	r2, #0
 3571 0d2a 204B     		ldr	r3, .L285
 3572              	.LVL358:
 3573 0d2c 1A60     		str	r2, [r3]
 948:.\main.c      ****                         break;
 3574              		.loc 1 948 0
 3575 0d2e 0120     		movs	r0, #1
 3576 0d30 0146     		mov	r1, r0
 3577 0d32 FFF7FEFF 		bl	SetPicture
 3578              	.LVL359:
 3579              	.L206:
 951:.\main.c      ****                 break;
 3580              		.loc 1 951 0
 3581 0d36 FFF7FEFF 		bl	Display1_ClearRxBuffer
 3582              	.LVL360:
 952:.\main.c      ****                     
 3583              		.loc 1 952 0
 3584 0d3a 2EE3     		b	.L73
 3585              	.L205:
 955:.\main.c      ****                         case 1://ID Estacion
 3586              		.loc 1 955 0
 3587 0d3c 1D4B     		ldr	r3, .L285+8
 3588 0d3e 93F80031 		ldrb	r3, [r3, #256]	@ zero_extendqisi2
 3589 0d42 013B     		subs	r3, r3, #1
 3590 0d44 052B     		cmp	r3, #5
 3591 0d46 00F2D280 		bhi	.L218
 3592 0d4a DFE813F0 		tbh	[pc, r3, lsl #1]
 3593              	.L220:
 3594 0d4e 0F00     		.2byte	(.L271-.L220)/2
 3595 0d50 5200     		.2byte	(.L272-.L220)/2
 3596 0d52 6800     		.2byte	(.L273-.L220)/2
 3597 0d54 D000     		.2byte	(.L218-.L220)/2
 3598 0d56 7E00     		.2byte	(.L274-.L220)/2
 3599 0d58 9400     		.2byte	(.L275-.L220)/2
 3600              	.LVL361:
 3601              		.p2align 1
 3602              	.L225:
 958:.\main.c      ****                             }
 3603              		.loc 1 958 0 discriminator 3
 3604 0d5a 591C     		adds	r1, r3, #1
 3605 0d5c 154A     		ldr	r2, .L285+8
 3606 0d5e 0A44     		add	r2, r2, r1
 3607 0d60 92F84B00 		ldrb	r0, [r2, #75]	@ zero_extendqisi2
 3608 0d64 194A     		ldr	r2, .L285+32
 3609 0d66 D054     		strb	r0, [r2, r3]
 957:.\main.c      ****                                 idStation[x] =bufferDisplay1.valueKeys[x+1];                       
 3610              		.loc 1 957 0 discriminator 3
 3611 0d68 CBB2     		uxtb	r3, r1
 3612              	.LVL362:
 3613 0d6a 00E0     		b	.L219
 3614              	.LVL363:
 3615              	.L271:
 955:.\main.c      ****                         case 1://ID Estacion
 3616              		.loc 1 955 0
 3617 0d6c 0023     		movs	r3, #0
 3618              	.L219:
ARM GAS  C:\Users\RECEPC~1\AppData\Local\Temp\ccp152bc.s 			page 111


 3619              	.LVL364:
 957:.\main.c      ****                                 idStation[x] =bufferDisplay1.valueKeys[x+1];                       
 3620              		.loc 1 957 0 discriminator 1
 3621 0d6e 042B     		cmp	r3, #4
 3622 0d70 F3D9     		bls	.L225
 960:.\main.c      ****                             intIDStation = atoi(idStation);
 3623              		.loc 1 960 0
 3624 0d72 1648     		ldr	r0, .L285+32
 3625 0d74 0023     		movs	r3, #0
 3626              	.LVL365:
 3627 0d76 0371     		strb	r3, [r0, #4]
 961:.\main.c      ****                             IDCast[0] = intIDStation;
 3628              		.loc 1 961 0
 3629 0d78 FFF7FEFF 		bl	atoi
 3630              	.LVL366:
 3631 0d7c 80B2     		uxth	r0, r0
 3632 0d7e 164B     		ldr	r3, .L285+44
 3633 0d80 1880     		strh	r0, [r3]	@ movhi
 962:.\main.c      ****                             IDCast[1] = intIDStation>>8;
 3634              		.loc 1 962 0
 3635 0d82 C3B2     		uxtb	r3, r0
 3636 0d84 154C     		ldr	r4, .L285+48
 3637 0d86 2370     		strb	r3, [r4]
 963:.\main.c      ****                             EEPROM_1_WriteByte(IDCast[0],10);
 3638              		.loc 1 963 0
 3639 0d88 000A     		lsrs	r0, r0, #8
 3640 0d8a 6070     		strb	r0, [r4, #1]
 964:.\main.c      ****                             EEPROM_1_WriteByte(IDCast[1],11);
 3641              		.loc 1 964 0
 3642 0d8c 2078     		ldrb	r0, [r4]	@ zero_extendqisi2
 3643 0d8e 0A21     		movs	r1, #10
 3644 0d90 FFF7FEFF 		bl	EEPROM_1_WriteByte
 3645              	.LVL367:
 965:.\main.c      ****                             flowDisplay1 = 15;
 3646              		.loc 1 965 0
 3647 0d94 6078     		ldrb	r0, [r4, #1]	@ zero_extendqisi2
 3648 0d96 0B21     		movs	r1, #11
 3649 0d98 FFF7FEFF 		bl	EEPROM_1_WriteByte
 3650              	.LVL368:
 966:.\main.c      ****                             SetPicture(1,DISPLAY_CONFIGURACIONES);
 3651              		.loc 1 966 0
 3652 0d9c 0F22     		movs	r2, #15
 3653 0d9e 034B     		ldr	r3, .L285
 3654 0da0 1A60     		str	r2, [r3]
 967:.\main.c      ****                         break;
 3655              		.loc 1 967 0
 3656 0da2 0120     		movs	r0, #1
 3657 0da4 5A21     		movs	r1, #90
 3658 0da6 FFF7FEFF 		bl	SetPicture
 3659              	.LVL369:
 968:.\main.c      ****                         case 2://Pass
 3660              		.loc 1 968 0
 3661 0daa A0E0     		b	.L218
 3662              	.L286:
 3663              		.align	2
 3664              	.L285:
 3665 0dac 00000000 		.word	flowDisplay1
ARM GAS  C:\Users\RECEPC~1\AppData\Local\Temp\ccp152bc.s 			page 112


 3666 0db0 00000000 		.word	lockTurn
 3667 0db4 00000000 		.word	bufferDisplay1
 3668 0db8 00000000 		.word	numberKeys1
 3669 0dbc 00000000 		.word	hiddenKeys
 3670 0dc0 00000000 		.word	controlChar
 3671 0dc4 00000000 		.word	side
 3672 0dc8 00000000 		.word	Display1_rxBuffer
 3673 0dcc 00000000 		.word	idStation
 3674 0dd0 00000000 		.word	pumpGap
 3675 0dd4 00000000 		.word	configAccess
 3676 0dd8 00000000 		.word	intIDStation
 3677 0ddc 00000000 		.word	IDCast
 3678              	.LVL370:
 3679              	.L226:
 971:.\main.c      ****                             }
 3680              		.loc 1 971 0 discriminator 3
 3681 0de0 8D4A     		ldr	r2, .L287
 3682 0de2 1A44     		add	r2, r2, r3
 3683 0de4 92F84B10 		ldrb	r1, [r2, #75]	@ zero_extendqisi2
 3684 0de8 8C4A     		ldr	r2, .L287+4
 3685 0dea D154     		strb	r1, [r2, r3]
 970:.\main.c      ****                                 pumpGap[x] =bufferDisplay1.valueKeys[x];
 3686              		.loc 1 970 0 discriminator 3
 3687 0dec 0133     		adds	r3, r3, #1
 3688              	.LVL371:
 3689 0dee DBB2     		uxtb	r3, r3
 3690              	.LVL372:
 3691 0df0 00E0     		b	.L221
 3692              	.LVL373:
 3693              	.L272:
 955:.\main.c      ****                         case 1://ID Estacion
 3694              		.loc 1 955 0
 3695 0df2 0023     		movs	r3, #0
 3696              	.L221:
 3697              	.LVL374:
 970:.\main.c      ****                                 pumpGap[x] =bufferDisplay1.valueKeys[x];
 3698              		.loc 1 970 0 discriminator 1
 3699 0df4 8A4A     		ldr	r2, .L287+8
 3700 0df6 1278     		ldrb	r2, [r2]	@ zero_extendqisi2
 3701 0df8 9342     		cmp	r3, r2
 3702 0dfa F1D3     		bcc	.L226
 973:.\main.c      ****                             SetPicture(1,DISPLAY_CONFIGURACIONES);
 3703              		.loc 1 973 0
 3704 0dfc 0F22     		movs	r2, #15
 3705 0dfe 894B     		ldr	r3, .L287+12
 3706              	.LVL375:
 3707 0e00 1A60     		str	r2, [r3]
 974:.\main.c      ****                         break;
 3708              		.loc 1 974 0
 3709 0e02 0120     		movs	r0, #1
 3710 0e04 5A21     		movs	r1, #90
 3711 0e06 FFF7FEFF 		bl	SetPicture
 3712              	.LVL376:
 975:.\main.c      ****                         case 3://Pass turno
 3713              		.loc 1 975 0
 3714 0e0a 70E0     		b	.L218
 3715              	.LVL377:
ARM GAS  C:\Users\RECEPC~1\AppData\Local\Temp\ccp152bc.s 			page 113


 3716              	.L227:
 978:.\main.c      ****                             }
 3717              		.loc 1 978 0 discriminator 3
 3718 0e0c 824A     		ldr	r2, .L287
 3719 0e0e 1A44     		add	r2, r2, r3
 3720 0e10 92F84B10 		ldrb	r1, [r2, #75]	@ zero_extendqisi2
 3721 0e14 82F84111 		strb	r1, [r2, #321]
 977:.\main.c      ****                                 bufferDisplay1.shiftPassword[x] =bufferDisplay1.valueKeys[x];
 3722              		.loc 1 977 0 discriminator 3
 3723 0e18 0133     		adds	r3, r3, #1
 3724              	.LVL378:
 3725 0e1a DBB2     		uxtb	r3, r3
 3726              	.LVL379:
 3727 0e1c 00E0     		b	.L222
 3728              	.LVL380:
 3729              	.L273:
 955:.\main.c      ****                         case 1://ID Estacion
 3730              		.loc 1 955 0
 3731 0e1e 0023     		movs	r3, #0
 3732              	.L222:
 3733              	.LVL381:
 977:.\main.c      ****                                 bufferDisplay1.shiftPassword[x] =bufferDisplay1.valueKeys[x];
 3734              		.loc 1 977 0 discriminator 1
 3735 0e20 7F4A     		ldr	r2, .L287+8
 3736 0e22 1278     		ldrb	r2, [r2]	@ zero_extendqisi2
 3737 0e24 9342     		cmp	r3, r2
 3738 0e26 F1D3     		bcc	.L227
 980:.\main.c      ****                             SetPicture(1,DISPLAY_POR_FAVOR_ESPERE);
 3739              		.loc 1 980 0
 3740 0e28 1322     		movs	r2, #19
 3741 0e2a 7E4B     		ldr	r3, .L287+12
 3742              	.LVL382:
 3743 0e2c 1A60     		str	r2, [r3]
 981:.\main.c      ****                         break;
 3744              		.loc 1 981 0
 3745 0e2e 0120     		movs	r0, #1
 3746 0e30 3921     		movs	r1, #57
 3747 0e32 FFF7FEFF 		bl	SetPicture
 3748              	.LVL383:
 982:.\main.c      ****                         case 5://Pass
 3749              		.loc 1 982 0
 3750 0e36 5AE0     		b	.L218
 3751              	.LVL384:
 3752              	.L228:
 985:.\main.c      ****                             }
 3753              		.loc 1 985 0 discriminator 3
 3754 0e38 774A     		ldr	r2, .L287
 3755 0e3a 1A44     		add	r2, r2, r3
 3756 0e3c 92F84B10 		ldrb	r1, [r2, #75]	@ zero_extendqisi2
 3757 0e40 82F84111 		strb	r1, [r2, #321]
 984:.\main.c      ****                                 bufferDisplay1.shiftPassword[x] =bufferDisplay1.valueKeys[x];
 3758              		.loc 1 984 0 discriminator 3
 3759 0e44 0133     		adds	r3, r3, #1
 3760              	.LVL385:
 3761 0e46 DBB2     		uxtb	r3, r3
 3762              	.LVL386:
 3763 0e48 00E0     		b	.L223
ARM GAS  C:\Users\RECEPC~1\AppData\Local\Temp\ccp152bc.s 			page 114


 3764              	.LVL387:
 3765              	.L274:
 955:.\main.c      ****                         case 1://ID Estacion
 3766              		.loc 1 955 0
 3767 0e4a 0023     		movs	r3, #0
 3768              	.L223:
 3769              	.LVL388:
 984:.\main.c      ****                                 bufferDisplay1.shiftPassword[x] =bufferDisplay1.valueKeys[x];
 3770              		.loc 1 984 0 discriminator 1
 3771 0e4c 744A     		ldr	r2, .L287+8
 3772 0e4e 1278     		ldrb	r2, [r2]	@ zero_extendqisi2
 3773 0e50 9342     		cmp	r3, r2
 3774 0e52 F1D3     		bcc	.L228
 987:.\main.c      ****                             SetPicture(1,DISPLAY_CONFIGURACIONES);
 3775              		.loc 1 987 0
 3776 0e54 0F22     		movs	r2, #15
 3777 0e56 734B     		ldr	r3, .L287+12
 3778              	.LVL389:
 3779 0e58 1A60     		str	r2, [r3]
 988:.\main.c      ****                         break; 
 3780              		.loc 1 988 0
 3781 0e5a 0120     		movs	r0, #1
 3782 0e5c 5A21     		movs	r1, #90
 3783 0e5e FFF7FEFF 		bl	SetPicture
 3784              	.LVL390:
 989:.\main.c      ****                         case 6://Pass
 3785              		.loc 1 989 0
 3786 0e62 44E0     		b	.L218
 3787              	.LVL391:
 3788              	.L229:
 992:.\main.c      ****                             }
 3789              		.loc 1 992 0 discriminator 3
 3790 0e64 6C4A     		ldr	r2, .L287
 3791 0e66 1A44     		add	r2, r2, r3
 3792 0e68 92F84B10 		ldrb	r1, [r2, #75]	@ zero_extendqisi2
 3793 0e6c 6E4A     		ldr	r2, .L287+16
 3794 0e6e D154     		strb	r1, [r2, r3]
 991:.\main.c      ****                                 configAccess[x] =bufferDisplay1.valueKeys[x];
 3795              		.loc 1 991 0 discriminator 3
 3796 0e70 0133     		adds	r3, r3, #1
 3797              	.LVL392:
 3798 0e72 DBB2     		uxtb	r3, r3
 3799              	.LVL393:
 3800 0e74 00E0     		b	.L224
 3801              	.LVL394:
 3802              	.L275:
 955:.\main.c      ****                         case 1://ID Estacion
 3803              		.loc 1 955 0
 3804 0e76 0123     		movs	r3, #1
 3805              	.L224:
 3806              	.LVL395:
 991:.\main.c      ****                                 configAccess[x] =bufferDisplay1.valueKeys[x];
 3807              		.loc 1 991 0 discriminator 1
 3808 0e78 6B4A     		ldr	r2, .L287+16
 3809 0e7a 1278     		ldrb	r2, [r2]	@ zero_extendqisi2
 3810 0e7c 9A42     		cmp	r2, r3
 3811 0e7e F1D2     		bcs	.L229
ARM GAS  C:\Users\RECEPC~1\AppData\Local\Temp\ccp152bc.s 			page 115


 994:.\main.c      ****                                 SetPicture(1,DISPLAY_PASSWORD_VALIDO);
 3812              		.loc 1 994 0
 3813 0e80 694B     		ldr	r3, .L287+16
 3814              	.LVL396:
 3815 0e82 5A78     		ldrb	r2, [r3, #1]	@ zero_extendqisi2
 3816 0e84 694B     		ldr	r3, .L287+20
 3817 0e86 5B78     		ldrb	r3, [r3, #1]	@ zero_extendqisi2
 3818 0e88 9A42     		cmp	r2, r3
 3819 0e8a 21D1     		bne	.L230
 994:.\main.c      ****                                 SetPicture(1,DISPLAY_PASSWORD_VALIDO);
 3820              		.loc 1 994 0 is_stmt 0 discriminator 1
 3821 0e8c 664B     		ldr	r3, .L287+16
 3822 0e8e 9A78     		ldrb	r2, [r3, #2]	@ zero_extendqisi2
 3823 0e90 664B     		ldr	r3, .L287+20
 3824 0e92 9B78     		ldrb	r3, [r3, #2]	@ zero_extendqisi2
 3825 0e94 9A42     		cmp	r2, r3
 3826 0e96 1BD1     		bne	.L230
 994:.\main.c      ****                                 SetPicture(1,DISPLAY_PASSWORD_VALIDO);
 3827              		.loc 1 994 0 discriminator 2
 3828 0e98 634B     		ldr	r3, .L287+16
 3829 0e9a DA78     		ldrb	r2, [r3, #3]	@ zero_extendqisi2
 3830 0e9c 634B     		ldr	r3, .L287+20
 3831 0e9e DB78     		ldrb	r3, [r3, #3]	@ zero_extendqisi2
 3832 0ea0 9A42     		cmp	r2, r3
 3833 0ea2 15D1     		bne	.L230
 994:.\main.c      ****                                 SetPicture(1,DISPLAY_PASSWORD_VALIDO);
 3834              		.loc 1 994 0 discriminator 3
 3835 0ea4 604B     		ldr	r3, .L287+16
 3836 0ea6 1A79     		ldrb	r2, [r3, #4]	@ zero_extendqisi2
 3837 0ea8 604B     		ldr	r3, .L287+20
 3838 0eaa 1B79     		ldrb	r3, [r3, #4]	@ zero_extendqisi2
 3839 0eac 9A42     		cmp	r2, r3
 3840 0eae 0FD1     		bne	.L230
 995:.\main.c      ****                                 CyDelay(700);
 3841              		.loc 1 995 0 is_stmt 1
 3842 0eb0 0120     		movs	r0, #1
 3843 0eb2 2621     		movs	r1, #38
 3844 0eb4 FFF7FEFF 		bl	SetPicture
 3845              	.LVL397:
 996:.\main.c      ****                                 flowDisplay1 = 15;
 3846              		.loc 1 996 0
 3847 0eb8 4FF42F70 		mov	r0, #700
 3848 0ebc FFF7FEFF 		bl	CyDelay
 3849              	.LVL398:
 997:.\main.c      ****                                 SetPicture(1,DISPLAY_CONFIGURACIONES);
 3850              		.loc 1 997 0
 3851 0ec0 0F22     		movs	r2, #15
 3852 0ec2 584B     		ldr	r3, .L287+12
 3853 0ec4 1A60     		str	r2, [r3]
 998:.\main.c      ****                             }else{
 3854              		.loc 1 998 0
 3855 0ec6 0120     		movs	r0, #1
 3856 0ec8 5A21     		movs	r1, #90
 3857 0eca FFF7FEFF 		bl	SetPicture
 3858              	.LVL399:
 3859 0ece 0EE0     		b	.L218
 3860              	.L230:
ARM GAS  C:\Users\RECEPC~1\AppData\Local\Temp\ccp152bc.s 			page 116


1000:.\main.c      ****                                 CyDelay(700);
 3861              		.loc 1 1000 0
 3862 0ed0 0120     		movs	r0, #1
 3863 0ed2 2721     		movs	r1, #39
 3864 0ed4 FFF7FEFF 		bl	SetPicture
 3865              	.LVL400:
1001:.\main.c      ****                                 flowDisplay1 = 0;
 3866              		.loc 1 1001 0
 3867 0ed8 4FF42F70 		mov	r0, #700
 3868 0edc FFF7FEFF 		bl	CyDelay
 3869              	.LVL401:
1002:.\main.c      ****                                 SetPicture(1,DISPLAY_INICIO0);
 3870              		.loc 1 1002 0
 3871 0ee0 0022     		movs	r2, #0
 3872 0ee2 504B     		ldr	r3, .L287+12
 3873 0ee4 1A60     		str	r2, [r3]
1003:.\main.c      ****                             }
 3874              		.loc 1 1003 0
 3875 0ee6 0120     		movs	r0, #1
 3876 0ee8 0146     		mov	r1, r0
 3877 0eea FFF7FEFF 		bl	SetPicture
 3878              	.LVL402:
 3879              	.L218:
1007:.\main.c      ****                 break;
 3880              		.loc 1 1007 0
 3881 0eee FFF7FEFF 		bl	Display1_ClearRxBuffer
 3882              	.LVL403:
1008:.\main.c      ****             }            
 3883              		.loc 1 1008 0
 3884 0ef2 52E2     		b	.L73
 3885              	.L91:
1013:.\main.c      ****                 if((Display1_rxBuffer[0]==0xAA) && (Display1_rxBuffer[6]==0xC3) && (Display1_rxBuff
 3886              		.loc 1 1013 0
 3887 0ef4 FFF7FEFF 		bl	Display1_GetRxBufferSize
 3888              	.LVL404:
 3889 0ef8 0828     		cmp	r0, #8
 3890 0efa 40F04E82 		bne	.L73
1014:.\main.c      ****                     switch(Display1_rxBuffer[3]){
 3891              		.loc 1 1014 0
 3892 0efe 4C4B     		ldr	r3, .L287+24
 3893 0f00 1B78     		ldrb	r3, [r3]	@ zero_extendqisi2
 3894 0f02 DBB2     		uxtb	r3, r3
 3895 0f04 AA2B     		cmp	r3, #170
 3896 0f06 40F08180 		bne	.L231
1014:.\main.c      ****                     switch(Display1_rxBuffer[3]){
 3897              		.loc 1 1014 0 is_stmt 0 discriminator 1
 3898 0f0a 494B     		ldr	r3, .L287+24
 3899 0f0c 9B79     		ldrb	r3, [r3, #6]	@ zero_extendqisi2
 3900 0f0e DBB2     		uxtb	r3, r3
 3901 0f10 C32B     		cmp	r3, #195
 3902 0f12 7BD1     		bne	.L231
1014:.\main.c      ****                     switch(Display1_rxBuffer[3]){
 3903              		.loc 1 1014 0 discriminator 2
 3904 0f14 464B     		ldr	r3, .L287+24
 3905 0f16 DB79     		ldrb	r3, [r3, #7]	@ zero_extendqisi2
 3906 0f18 DBB2     		uxtb	r3, r3
 3907 0f1a 3C2B     		cmp	r3, #60
ARM GAS  C:\Users\RECEPC~1\AppData\Local\Temp\ccp152bc.s 			page 117


 3908 0f1c 76D1     		bne	.L231
1015:.\main.c      ****                         case 0x82:  //ID Estacion  
 3909              		.loc 1 1015 0 is_stmt 1
 3910 0f1e 444B     		ldr	r3, .L287+24
 3911 0f20 DB78     		ldrb	r3, [r3, #3]	@ zero_extendqisi2
 3912 0f22 583B     		subs	r3, r3, #88
 3913 0f24 3C2B     		cmp	r3, #60
 3914 0f26 71D8     		bhi	.L231
 3915 0f28 DFE803F0 		tbb	[pc, r3]
 3916              	.L233:
 3917 0f2c 52       		.byte	(.L232-.L233)/2
 3918 0f2d 70       		.byte	(.L231-.L233)/2
 3919 0f2e 3C       		.byte	(.L234-.L233)/2
 3920 0f2f 70       		.byte	(.L231-.L233)/2
 3921 0f30 70       		.byte	(.L231-.L233)/2
 3922 0f31 70       		.byte	(.L231-.L233)/2
 3923 0f32 70       		.byte	(.L231-.L233)/2
 3924 0f33 70       		.byte	(.L231-.L233)/2
 3925 0f34 70       		.byte	(.L231-.L233)/2
 3926 0f35 70       		.byte	(.L231-.L233)/2
 3927 0f36 70       		.byte	(.L231-.L233)/2
 3928 0f37 70       		.byte	(.L231-.L233)/2
 3929 0f38 70       		.byte	(.L231-.L233)/2
 3930 0f39 32       		.byte	(.L235-.L233)/2
 3931 0f3a 70       		.byte	(.L231-.L233)/2
 3932 0f3b 70       		.byte	(.L231-.L233)/2
 3933 0f3c 70       		.byte	(.L231-.L233)/2
 3934 0f3d 70       		.byte	(.L231-.L233)/2
 3935 0f3e 70       		.byte	(.L231-.L233)/2
 3936 0f3f 70       		.byte	(.L231-.L233)/2
 3937 0f40 70       		.byte	(.L231-.L233)/2
 3938 0f41 70       		.byte	(.L231-.L233)/2
 3939 0f42 70       		.byte	(.L231-.L233)/2
 3940 0f43 70       		.byte	(.L231-.L233)/2
 3941 0f44 70       		.byte	(.L231-.L233)/2
 3942 0f45 70       		.byte	(.L231-.L233)/2
 3943 0f46 70       		.byte	(.L231-.L233)/2
 3944 0f47 70       		.byte	(.L231-.L233)/2
 3945 0f48 70       		.byte	(.L231-.L233)/2
 3946 0f49 70       		.byte	(.L231-.L233)/2
 3947 0f4a 70       		.byte	(.L231-.L233)/2
 3948 0f4b 70       		.byte	(.L231-.L233)/2
 3949 0f4c 70       		.byte	(.L231-.L233)/2
 3950 0f4d 70       		.byte	(.L231-.L233)/2
 3951 0f4e 70       		.byte	(.L231-.L233)/2
 3952 0f4f 70       		.byte	(.L231-.L233)/2
 3953 0f50 70       		.byte	(.L231-.L233)/2
 3954 0f51 70       		.byte	(.L231-.L233)/2
 3955 0f52 61       		.byte	(.L236-.L233)/2
 3956 0f53 70       		.byte	(.L231-.L233)/2
 3957 0f54 70       		.byte	(.L231-.L233)/2
 3958 0f55 70       		.byte	(.L231-.L233)/2
 3959 0f56 1F       		.byte	(.L237-.L233)/2
 3960 0f57 70       		.byte	(.L231-.L233)/2
 3961 0f58 70       		.byte	(.L231-.L233)/2
 3962 0f59 70       		.byte	(.L231-.L233)/2
 3963 0f5a 70       		.byte	(.L231-.L233)/2
ARM GAS  C:\Users\RECEPC~1\AppData\Local\Temp\ccp152bc.s 			page 118


 3964 0f5b 70       		.byte	(.L231-.L233)/2
 3965 0f5c 70       		.byte	(.L231-.L233)/2
 3966 0f5d 70       		.byte	(.L231-.L233)/2
 3967 0f5e 70       		.byte	(.L231-.L233)/2
 3968 0f5f 70       		.byte	(.L231-.L233)/2
 3969 0f60 70       		.byte	(.L231-.L233)/2
 3970 0f61 70       		.byte	(.L231-.L233)/2
 3971 0f62 70       		.byte	(.L231-.L233)/2
 3972 0f63 70       		.byte	(.L231-.L233)/2
 3973 0f64 70       		.byte	(.L231-.L233)/2
 3974 0f65 70       		.byte	(.L231-.L233)/2
 3975 0f66 70       		.byte	(.L231-.L233)/2
 3976 0f67 70       		.byte	(.L231-.L233)/2
 3977 0f68 69       		.byte	(.L238-.L233)/2
 3978 0f69 00       		.p2align 1
 3979              	.L237:
1017:.\main.c      ****                             numberKeys1 = 0; 
 3980              		.loc 1 1017 0
 3981 0f6a 0E22     		movs	r2, #14
 3982 0f6c 2D4B     		ldr	r3, .L287+12
 3983 0f6e 1A60     		str	r2, [r3]
1018:.\main.c      ****                             controlChar = 0;
 3984              		.loc 1 1018 0
 3985 0f70 0023     		movs	r3, #0
 3986 0f72 304A     		ldr	r2, .L287+28
 3987 0f74 1370     		strb	r3, [r2]
1019:.\main.c      ****                             hiddenKeys  = 5;
 3988              		.loc 1 1019 0
 3989 0f76 304A     		ldr	r2, .L287+32
 3990 0f78 1370     		strb	r3, [r2]
1020:.\main.c      ****                             bufferDisplay1.flagKeyboard = 1;
 3991              		.loc 1 1020 0
 3992 0f7a 0522     		movs	r2, #5
 3993 0f7c 284B     		ldr	r3, .L287+8
 3994 0f7e 1A70     		strb	r2, [r3]
1021:.\main.c      ****                             SetPicture(1,DISPLAY_INTRODUZCA_VALOR);                            
 3995              		.loc 1 1021 0
 3996 0f80 0120     		movs	r0, #1
 3997 0f82 254B     		ldr	r3, .L287
 3998 0f84 83F80001 		strb	r0, [r3, #256]
1022:.\main.c      ****                         break;
 3999              		.loc 1 1022 0
 4000 0f88 0621     		movs	r1, #6
 4001 0f8a FFF7FEFF 		bl	SetPicture
 4002              	.LVL405:
1023:.\main.c      ****                         case 0x65:  //Test Impresoras 
 4003              		.loc 1 1023 0
 4004 0f8e 3DE0     		b	.L231
 4005              	.L235:
1025:.\main.c      ****                             PrintTest();
 4006              		.loc 1 1025 0
 4007 0f90 1022     		movs	r2, #16
 4008 0f92 244B     		ldr	r3, .L287+12
 4009 0f94 1A60     		str	r2, [r3]
1026:.\main.c      ****                             SetPicture(1,DISPLAY_AMBAS_IMPRESORAS_FUNCIONANDO);                    
 4010              		.loc 1 1026 0
 4011 0f96 FFF7FEFF 		bl	PrintTest
ARM GAS  C:\Users\RECEPC~1\AppData\Local\Temp\ccp152bc.s 			page 119


 4012              	.LVL406:
1027:.\main.c      ****                         break;
 4013              		.loc 1 1027 0
 4014 0f9a 0120     		movs	r0, #1
 4015 0f9c 6B21     		movs	r1, #107
 4016 0f9e FFF7FEFF 		bl	SetPicture
 4017              	.LVL407:
1028:.\main.c      ****                         
 4018              		.loc 1 1028 0
 4019 0fa2 33E0     		b	.L231
 4020              	.L234:
1031:.\main.c      ****                             numberKeys1 = 0;
 4021              		.loc 1 1031 0
 4022 0fa4 0E22     		movs	r2, #14
 4023 0fa6 1F4B     		ldr	r3, .L287+12
 4024 0fa8 1A60     		str	r2, [r3]
1032:.\main.c      ****                             controlChar = 0;
 4025              		.loc 1 1032 0
 4026 0faa 0023     		movs	r3, #0
 4027 0fac 214A     		ldr	r2, .L287+28
 4028 0fae 1370     		strb	r3, [r2]
1033:.\main.c      ****                             hiddenKeys  = 3;
 4029              		.loc 1 1033 0
 4030 0fb0 214A     		ldr	r2, .L287+32
 4031 0fb2 1370     		strb	r3, [r2]
1034:.\main.c      ****                             pumpGap[0]  = 2;
 4032              		.loc 1 1034 0
 4033 0fb4 0322     		movs	r2, #3
 4034 0fb6 1A4B     		ldr	r3, .L287+8
 4035 0fb8 1A70     		strb	r2, [r3]
1035:.\main.c      ****                             bufferDisplay1.flagKeyboard = 2;
 4036              		.loc 1 1035 0
 4037 0fba 0223     		movs	r3, #2
 4038 0fbc 174A     		ldr	r2, .L287+4
 4039 0fbe 1370     		strb	r3, [r2]
1036:.\main.c      ****                             SetPicture(1,DISPLAY_INTRODUZCA_VALOR);                            
 4040              		.loc 1 1036 0
 4041 0fc0 154A     		ldr	r2, .L287
 4042 0fc2 82F80031 		strb	r3, [r2, #256]
1037:.\main.c      ****                         break;
 4043              		.loc 1 1037 0
 4044 0fc6 0120     		movs	r0, #1
 4045 0fc8 0621     		movs	r1, #6
 4046 0fca FFF7FEFF 		bl	SetPicture
 4047              	.LVL408:
1038:.\main.c      ****                         case 0x58:  //Hora y Fecha
 4048              		.loc 1 1038 0
 4049 0fce 1DE0     		b	.L231
 4050              	.L232:
1040:.\main.c      ****                             numberKeys1 = 0;   
 4051              		.loc 1 1040 0
 4052 0fd0 1222     		movs	r2, #18
 4053 0fd2 144B     		ldr	r3, .L287+12
 4054 0fd4 1A60     		str	r2, [r3]
1041:.\main.c      ****                             bufferDisplay1.flagKeyboard = 4;
 4055              		.loc 1 1041 0
 4056 0fd6 0022     		movs	r2, #0
ARM GAS  C:\Users\RECEPC~1\AppData\Local\Temp\ccp152bc.s 			page 120


 4057 0fd8 164B     		ldr	r3, .L287+28
 4058 0fda 1A70     		strb	r2, [r3]
1042:.\main.c      ****                             SetPicture(1,DISPLAY_CONFIGURAR_FECHA_HORA);                           
 4059              		.loc 1 1042 0
 4060 0fdc 0422     		movs	r2, #4
 4061 0fde 0E4B     		ldr	r3, .L287
 4062 0fe0 83F80021 		strb	r2, [r3, #256]
1043:.\main.c      ****                         break;
 4063              		.loc 1 1043 0
 4064 0fe4 0120     		movs	r0, #1
 4065 0fe6 3E21     		movs	r1, #62
 4066 0fe8 FFF7FEFF 		bl	SetPicture
 4067              	.LVL409:
1044:.\main.c      ****                         case 0x7E:  //Pantalla Inicial                                             
 4068              		.loc 1 1044 0
 4069 0fec 0EE0     		b	.L231
 4070              	.L236:
1046:.\main.c      ****                             flowDisplay1 = 0;
 4071              		.loc 1 1046 0
 4072 0fee 0120     		movs	r0, #1
 4073 0ff0 0146     		mov	r1, r0
 4074 0ff2 FFF7FEFF 		bl	SetPicture
 4075              	.LVL410:
1047:.\main.c      ****                         break;
 4076              		.loc 1 1047 0
 4077 0ff6 0022     		movs	r2, #0
 4078 0ff8 0A4B     		ldr	r3, .L287+12
 4079 0ffa 1A60     		str	r2, [r3]
1048:.\main.c      ****                         case 0x94:  //Pantalla Inicial                                             
 4080              		.loc 1 1048 0
 4081 0ffc 06E0     		b	.L231
 4082              	.L238:
1050:.\main.c      ****                             flowDisplay1 = 0;
 4083              		.loc 1 1050 0
 4084 0ffe 0120     		movs	r0, #1
 4085 1000 0146     		mov	r1, r0
 4086 1002 FFF7FEFF 		bl	SetPicture
 4087              	.LVL411:
1051:.\main.c      ****                         break;
 4088              		.loc 1 1051 0
 4089 1006 0022     		movs	r2, #0
 4090 1008 064B     		ldr	r3, .L287+12
 4091 100a 1A60     		str	r2, [r3]
 4092              	.L231:
1055:.\main.c      ****                 Display1_ClearRxBuffer();
 4093              		.loc 1 1055 0
 4094 100c 0A20     		movs	r0, #10
 4095 100e FFF7FEFF 		bl	CyDelay
 4096              	.LVL412:
1056:.\main.c      ****             }                        
 4097              		.loc 1 1056 0
 4098 1012 FFF7FEFF 		bl	Display1_ClearRxBuffer
 4099              	.LVL413:
 4100 1016 C0E1     		b	.L73
 4101              	.L288:
 4102              		.align	2
 4103              	.L287:
ARM GAS  C:\Users\RECEPC~1\AppData\Local\Temp\ccp152bc.s 			page 121


 4104 1018 00000000 		.word	bufferDisplay1
 4105 101c 00000000 		.word	pumpGap
 4106 1020 00000000 		.word	hiddenKeys
 4107 1024 00000000 		.word	flowDisplay1
 4108 1028 00000000 		.word	configAccess
 4109 102c 00000000 		.word	.LANCHOR0
 4110 1030 00000000 		.word	Display1_rxBuffer
 4111 1034 00000000 		.word	numberKeys1
 4112 1038 00000000 		.word	controlChar
 4113              	.L92:
1061:.\main.c      ****                 if((Display1_rxBuffer[0]==0xAA) && (Display1_rxBuffer[6]==0xC3) && (Display1_rxBuff
 4114              		.loc 1 1061 0
 4115 103c FFF7FEFF 		bl	Display1_GetRxBufferSize
 4116              	.LVL414:
 4117 1040 0828     		cmp	r0, #8
 4118 1042 40F0AA81 		bne	.L73
1062:.\main.c      ****                     switch(Display1_rxBuffer[3]){
 4119              		.loc 1 1062 0
 4120 1046 644B     		ldr	r3, .L289
 4121 1048 1B78     		ldrb	r3, [r3]	@ zero_extendqisi2
 4122 104a DBB2     		uxtb	r3, r3
 4123 104c AA2B     		cmp	r3, #170
 4124 104e 44D1     		bne	.L239
1062:.\main.c      ****                     switch(Display1_rxBuffer[3]){
 4125              		.loc 1 1062 0 is_stmt 0 discriminator 1
 4126 1050 614B     		ldr	r3, .L289
 4127 1052 9B79     		ldrb	r3, [r3, #6]	@ zero_extendqisi2
 4128 1054 DBB2     		uxtb	r3, r3
 4129 1056 C32B     		cmp	r3, #195
 4130 1058 3FD1     		bne	.L239
1062:.\main.c      ****                     switch(Display1_rxBuffer[3]){
 4131              		.loc 1 1062 0 discriminator 2
 4132 105a 5F4B     		ldr	r3, .L289
 4133 105c DB79     		ldrb	r3, [r3, #7]	@ zero_extendqisi2
 4134 105e DBB2     		uxtb	r3, r3
 4135 1060 3C2B     		cmp	r3, #60
 4136 1062 3AD1     		bne	.L239
1063:.\main.c      ****                         case 0x38:  //No funcionan  
 4137              		.loc 1 1063 0 is_stmt 1
 4138 1064 5C4B     		ldr	r3, .L289
 4139 1066 DB78     		ldrb	r3, [r3, #3]	@ zero_extendqisi2
 4140 1068 DBB2     		uxtb	r3, r3
 4141 106a 392B     		cmp	r3, #57
 4142 106c 10D0     		beq	.L240
 4143 106e 02D8     		bhi	.L241
 4144 1070 382B     		cmp	r3, #56
 4145 1072 05D0     		beq	.L242
 4146 1074 31E0     		b	.L239
 4147              	.L241:
 4148 1076 7E2B     		cmp	r3, #126
 4149 1078 20D0     		beq	.L243
 4150 107a 942B     		cmp	r3, #148
 4151 107c 26D0     		beq	.L244
 4152 107e 2CE0     		b	.L239
 4153              	.L242:
1065:.\main.c      ****                             SetPicture(1,DISPLAY_IMPRESORA_NO_FUNCIONANDO);                        
 4154              		.loc 1 1065 0
ARM GAS  C:\Users\RECEPC~1\AppData\Local\Temp\ccp152bc.s 			page 122


 4155 1080 1122     		movs	r2, #17
 4156 1082 564B     		ldr	r3, .L289+4
 4157 1084 1A60     		str	r2, [r3]
1066:.\main.c      ****                         break;
 4158              		.loc 1 1066 0
 4159 1086 0120     		movs	r0, #1
 4160 1088 6721     		movs	r1, #103
 4161 108a FFF7FEFF 		bl	SetPicture
 4162              	.LVL415:
1067:.\main.c      ****                         case 0x39:  //Si funcionan
 4163              		.loc 1 1067 0
 4164 108e 24E0     		b	.L239
 4165              	.L240:
1069:.\main.c      ****                             printPortA = 1;
 4166              		.loc 1 1069 0
 4167 1090 0F22     		movs	r2, #15
 4168 1092 524B     		ldr	r3, .L289+4
 4169 1094 1A60     		str	r2, [r3]
1070:.\main.c      ****                             printPortB = 2;
 4170              		.loc 1 1070 0
 4171 1096 0124     		movs	r4, #1
 4172 1098 514B     		ldr	r3, .L289+8
 4173 109a 1C70     		strb	r4, [r3]
1071:.\main.c      ****                             EEPROM_1_WriteByte(printPortA,8);
 4174              		.loc 1 1071 0
 4175 109c 514D     		ldr	r5, .L289+12
 4176 109e 0223     		movs	r3, #2
 4177 10a0 2B70     		strb	r3, [r5]
1072:.\main.c      ****                             EEPROM_1_WriteByte(printPortB,9);
 4178              		.loc 1 1072 0
 4179 10a2 2046     		mov	r0, r4
 4180 10a4 0821     		movs	r1, #8
 4181 10a6 FFF7FEFF 		bl	EEPROM_1_WriteByte
 4182              	.LVL416:
1073:.\main.c      ****                             SetPicture(1,DISPLAY_CONFIGURACIONES);
 4183              		.loc 1 1073 0
 4184 10aa 2878     		ldrb	r0, [r5]	@ zero_extendqisi2
 4185 10ac 0921     		movs	r1, #9
 4186 10ae FFF7FEFF 		bl	EEPROM_1_WriteByte
 4187              	.LVL417:
1074:.\main.c      ****                         break;
 4188              		.loc 1 1074 0
 4189 10b2 2046     		mov	r0, r4
 4190 10b4 5A21     		movs	r1, #90
 4191 10b6 FFF7FEFF 		bl	SetPicture
 4192              	.LVL418:
1075:.\main.c      ****                                                
 4193              		.loc 1 1075 0
 4194 10ba 0EE0     		b	.L239
 4195              	.L243:
1078:.\main.c      ****                             flowDisplay1 = 0;
 4196              		.loc 1 1078 0
 4197 10bc 0120     		movs	r0, #1
 4198 10be 0146     		mov	r1, r0
 4199 10c0 FFF7FEFF 		bl	SetPicture
 4200              	.LVL419:
1079:.\main.c      ****                         break;
ARM GAS  C:\Users\RECEPC~1\AppData\Local\Temp\ccp152bc.s 			page 123


 4201              		.loc 1 1079 0
 4202 10c4 0022     		movs	r2, #0
 4203 10c6 454B     		ldr	r3, .L289+4
 4204 10c8 1A60     		str	r2, [r3]
1080:.\main.c      ****                         case 0x94:  //Pantalla Inicial                                             
 4205              		.loc 1 1080 0
 4206 10ca 06E0     		b	.L239
 4207              	.L244:
1082:.\main.c      ****                             flowDisplay1 = 0;
 4208              		.loc 1 1082 0
 4209 10cc 0120     		movs	r0, #1
 4210 10ce 0146     		mov	r1, r0
 4211 10d0 FFF7FEFF 		bl	SetPicture
 4212              	.LVL420:
1083:.\main.c      ****                         break;
 4213              		.loc 1 1083 0
 4214 10d4 0022     		movs	r2, #0
 4215 10d6 414B     		ldr	r3, .L289+4
 4216 10d8 1A60     		str	r2, [r3]
 4217              	.L239:
1087:.\main.c      ****                 Display1_ClearRxBuffer();
 4218              		.loc 1 1087 0
 4219 10da 0A20     		movs	r0, #10
 4220 10dc FFF7FEFF 		bl	CyDelay
 4221              	.LVL421:
1088:.\main.c      ****             }                        
 4222              		.loc 1 1088 0
 4223 10e0 FFF7FEFF 		bl	Display1_ClearRxBuffer
 4224              	.LVL422:
 4225 10e4 59E1     		b	.L73
 4226              	.L93:
1093:.\main.c      ****                 if((Display1_rxBuffer[0]==0xAA) && (Display1_rxBuffer[6]==0xC3) && (Display1_rxBuff
 4227              		.loc 1 1093 0
 4228 10e6 FFF7FEFF 		bl	Display1_GetRxBufferSize
 4229              	.LVL423:
 4230 10ea 0828     		cmp	r0, #8
 4231 10ec 40F05581 		bne	.L73
1094:.\main.c      ****                     switch(Display1_rxBuffer[3]){
 4232              		.loc 1 1094 0
 4233 10f0 394B     		ldr	r3, .L289
 4234 10f2 1B78     		ldrb	r3, [r3]	@ zero_extendqisi2
 4235 10f4 DBB2     		uxtb	r3, r3
 4236 10f6 AA2B     		cmp	r3, #170
 4237 10f8 68D1     		bne	.L245
1094:.\main.c      ****                     switch(Display1_rxBuffer[3]){
 4238              		.loc 1 1094 0 is_stmt 0 discriminator 1
 4239 10fa 374B     		ldr	r3, .L289
 4240 10fc 9B79     		ldrb	r3, [r3, #6]	@ zero_extendqisi2
 4241 10fe DBB2     		uxtb	r3, r3
 4242 1100 C32B     		cmp	r3, #195
 4243 1102 63D1     		bne	.L245
1094:.\main.c      ****                     switch(Display1_rxBuffer[3]){
 4244              		.loc 1 1094 0 discriminator 2
 4245 1104 344B     		ldr	r3, .L289
 4246 1106 DB79     		ldrb	r3, [r3, #7]	@ zero_extendqisi2
 4247 1108 DBB2     		uxtb	r3, r3
 4248 110a 3C2B     		cmp	r3, #60
ARM GAS  C:\Users\RECEPC~1\AppData\Local\Temp\ccp152bc.s 			page 124


 4249 110c 5ED1     		bne	.L245
1095:.\main.c      ****                         case 0x8C:  //1 no funciona  
 4250              		.loc 1 1095 0 is_stmt 1
 4251 110e 324B     		ldr	r3, .L289
 4252 1110 DB78     		ldrb	r3, [r3, #3]	@ zero_extendqisi2
 4253 1112 7E3B     		subs	r3, r3, #126
 4254 1114 162B     		cmp	r3, #22
 4255 1116 59D8     		bhi	.L245
 4256 1118 DFE803F0 		tbb	[pc, r3]
 4257              	.L247:
 4258 111c 49       		.byte	(.L246-.L247)/2
 4259 111d 58       		.byte	(.L245-.L247)/2
 4260 111e 58       		.byte	(.L245-.L247)/2
 4261 111f 58       		.byte	(.L245-.L247)/2
 4262 1120 58       		.byte	(.L245-.L247)/2
 4263 1121 58       		.byte	(.L245-.L247)/2
 4264 1122 58       		.byte	(.L245-.L247)/2
 4265 1123 58       		.byte	(.L245-.L247)/2
 4266 1124 58       		.byte	(.L245-.L247)/2
 4267 1125 58       		.byte	(.L245-.L247)/2
 4268 1126 58       		.byte	(.L245-.L247)/2
 4269 1127 58       		.byte	(.L245-.L247)/2
 4270 1128 58       		.byte	(.L245-.L247)/2
 4271 1129 58       		.byte	(.L245-.L247)/2
 4272 112a 0C       		.byte	(.L248-.L247)/2
 4273 112b 20       		.byte	(.L249-.L247)/2
 4274 112c 35       		.byte	(.L250-.L247)/2
 4275 112d 58       		.byte	(.L245-.L247)/2
 4276 112e 58       		.byte	(.L245-.L247)/2
 4277 112f 58       		.byte	(.L245-.L247)/2
 4278 1130 58       		.byte	(.L245-.L247)/2
 4279 1131 58       		.byte	(.L245-.L247)/2
 4280 1132 51       		.byte	(.L251-.L247)/2
 4281 1133 00       		.p2align 1
 4282              	.L248:
1097:.\main.c      ****                             printPortA = 2;
 4283              		.loc 1 1097 0
 4284 1134 0F22     		movs	r2, #15
 4285 1136 294B     		ldr	r3, .L289+4
 4286 1138 1A60     		str	r2, [r3]
1098:.\main.c      ****                             printPortB = 2;
 4287              		.loc 1 1098 0
 4288 113a 0220     		movs	r0, #2
 4289 113c 284B     		ldr	r3, .L289+8
 4290 113e 1870     		strb	r0, [r3]
1099:.\main.c      ****                             EEPROM_1_WriteByte(printPortA,8);
 4291              		.loc 1 1099 0
 4292 1140 284C     		ldr	r4, .L289+12
 4293 1142 2070     		strb	r0, [r4]
1100:.\main.c      ****                             EEPROM_1_WriteByte(printPortB,9);
 4294              		.loc 1 1100 0
 4295 1144 0821     		movs	r1, #8
 4296 1146 FFF7FEFF 		bl	EEPROM_1_WriteByte
 4297              	.LVL424:
1101:.\main.c      ****                             SetPicture(1,DISPLAY_CONFIGURACIONES);                            
 4298              		.loc 1 1101 0
 4299 114a 2078     		ldrb	r0, [r4]	@ zero_extendqisi2
ARM GAS  C:\Users\RECEPC~1\AppData\Local\Temp\ccp152bc.s 			page 125


 4300 114c 0921     		movs	r1, #9
 4301 114e FFF7FEFF 		bl	EEPROM_1_WriteByte
 4302              	.LVL425:
1102:.\main.c      ****                         break;
 4303              		.loc 1 1102 0
 4304 1152 0120     		movs	r0, #1
 4305 1154 5A21     		movs	r1, #90
 4306 1156 FFF7FEFF 		bl	SetPicture
 4307              	.LVL426:
1103:.\main.c      ****                         case 0x8D:  //2 no funciona
 4308              		.loc 1 1103 0
 4309 115a 37E0     		b	.L245
 4310              	.L249:
1105:.\main.c      ****                             printPortA = 1;
 4311              		.loc 1 1105 0
 4312 115c 0F22     		movs	r2, #15
 4313 115e 1F4B     		ldr	r3, .L289+4
 4314 1160 1A60     		str	r2, [r3]
1106:.\main.c      ****                             printPortB = 1;
 4315              		.loc 1 1106 0
 4316 1162 0124     		movs	r4, #1
 4317 1164 1E4B     		ldr	r3, .L289+8
 4318 1166 1C70     		strb	r4, [r3]
1107:.\main.c      ****                             EEPROM_1_WriteByte(printPortA,8);
 4319              		.loc 1 1107 0
 4320 1168 1E4D     		ldr	r5, .L289+12
 4321 116a 2C70     		strb	r4, [r5]
1108:.\main.c      ****                             EEPROM_1_WriteByte(printPortB,9);
 4322              		.loc 1 1108 0
 4323 116c 2046     		mov	r0, r4
 4324 116e 0821     		movs	r1, #8
 4325 1170 FFF7FEFF 		bl	EEPROM_1_WriteByte
 4326              	.LVL427:
1109:.\main.c      ****                             SetPicture(1,DISPLAY_CONFIGURACIONES); 
 4327              		.loc 1 1109 0
 4328 1174 2878     		ldrb	r0, [r5]	@ zero_extendqisi2
 4329 1176 0921     		movs	r1, #9
 4330 1178 FFF7FEFF 		bl	EEPROM_1_WriteByte
 4331              	.LVL428:
1110:.\main.c      ****                         break;
 4332              		.loc 1 1110 0
 4333 117c 2046     		mov	r0, r4
 4334 117e 5A21     		movs	r1, #90
 4335 1180 FFF7FEFF 		bl	SetPicture
 4336              	.LVL429:
1111:.\main.c      ****                             
 4337              		.loc 1 1111 0
 4338 1184 22E0     		b	.L245
 4339              	.L250:
1114:.\main.c      ****                             printPortA = 0;
 4340              		.loc 1 1114 0
 4341 1186 0F22     		movs	r2, #15
 4342 1188 144B     		ldr	r3, .L289+4
 4343 118a 1A60     		str	r2, [r3]
1115:.\main.c      ****                             printPortB = 0;
 4344              		.loc 1 1115 0
 4345 118c 0020     		movs	r0, #0
ARM GAS  C:\Users\RECEPC~1\AppData\Local\Temp\ccp152bc.s 			page 126


 4346 118e 144B     		ldr	r3, .L289+8
 4347 1190 1870     		strb	r0, [r3]
1116:.\main.c      ****                             EEPROM_1_WriteByte(printPortA,8);
 4348              		.loc 1 1116 0
 4349 1192 144C     		ldr	r4, .L289+12
 4350 1194 2070     		strb	r0, [r4]
1117:.\main.c      ****                             EEPROM_1_WriteByte(printPortB,9);
 4351              		.loc 1 1117 0
 4352 1196 0821     		movs	r1, #8
 4353 1198 FFF7FEFF 		bl	EEPROM_1_WriteByte
 4354              	.LVL430:
1118:.\main.c      ****                             SetPicture(1,DISPLAY_CONFIGURACIONES); 
 4355              		.loc 1 1118 0
 4356 119c 2078     		ldrb	r0, [r4]	@ zero_extendqisi2
 4357 119e 0921     		movs	r1, #9
 4358 11a0 FFF7FEFF 		bl	EEPROM_1_WriteByte
 4359              	.LVL431:
1119:.\main.c      ****                         break;
 4360              		.loc 1 1119 0
 4361 11a4 0120     		movs	r0, #1
 4362 11a6 5A21     		movs	r1, #90
 4363 11a8 FFF7FEFF 		bl	SetPicture
 4364              	.LVL432:
1120:.\main.c      ****                                                
 4365              		.loc 1 1120 0
 4366 11ac 0EE0     		b	.L245
 4367              	.L246:
1123:.\main.c      ****                             flowDisplay1 = 0;
 4368              		.loc 1 1123 0
 4369 11ae 0120     		movs	r0, #1
 4370 11b0 0146     		mov	r1, r0
 4371 11b2 FFF7FEFF 		bl	SetPicture
 4372              	.LVL433:
1124:.\main.c      ****                         break;
 4373              		.loc 1 1124 0
 4374 11b6 0022     		movs	r2, #0
 4375 11b8 084B     		ldr	r3, .L289+4
 4376 11ba 1A60     		str	r2, [r3]
1125:.\main.c      ****                         case 0x94:  //Pantalla Inicial                                             
 4377              		.loc 1 1125 0
 4378 11bc 06E0     		b	.L245
 4379              	.L251:
1127:.\main.c      ****                             flowDisplay1 = 0;
 4380              		.loc 1 1127 0
 4381 11be 0120     		movs	r0, #1
 4382 11c0 0146     		mov	r1, r0
 4383 11c2 FFF7FEFF 		bl	SetPicture
 4384              	.LVL434:
1128:.\main.c      ****                         break;
 4385              		.loc 1 1128 0
 4386 11c6 0022     		movs	r2, #0
 4387 11c8 044B     		ldr	r3, .L289+4
 4388 11ca 1A60     		str	r2, [r3]
 4389              	.L245:
1132:.\main.c      ****                 Display1_ClearRxBuffer();
 4390              		.loc 1 1132 0
 4391 11cc 0A20     		movs	r0, #10
ARM GAS  C:\Users\RECEPC~1\AppData\Local\Temp\ccp152bc.s 			page 127


 4392 11ce FFF7FEFF 		bl	CyDelay
 4393              	.LVL435:
1133:.\main.c      ****             }                        
 4394              		.loc 1 1133 0
 4395 11d2 FFF7FEFF 		bl	Display1_ClearRxBuffer
 4396              	.LVL436:
 4397 11d6 E0E0     		b	.L73
 4398              	.L290:
 4399              		.align	2
 4400              	.L289:
 4401 11d8 00000000 		.word	Display1_rxBuffer
 4402 11dc 00000000 		.word	flowDisplay1
 4403 11e0 00000000 		.word	printPortA
 4404 11e4 00000000 		.word	printPortB
 4405              	.L94:
1138:.\main.c      ****                 WriteLCD(1,(((timeDownHandle[1]&0x10)>>4)+48),13,8,1,0x0000,'N');
 4406              		.loc 1 1138 0
 4407 11e8 FFF7FEFF 		bl	leer_hora
 4408              	.LVL437:
 4409 11ec 0128     		cmp	r0, #1
 4410 11ee 3CD1     		bne	.L252
1139:.\main.c      ****                 WriteLCD(1,((timeDownHandle[1]&0x0F)+48),13,9,1,0x0000,'N');
 4411              		.loc 1 1139 0
 4412 11f0 6B4F     		ldr	r7, .L291
 4413 11f2 7978     		ldrb	r1, [r7, #1]	@ zero_extendqisi2
 4414 11f4 C1F30011 		ubfx	r1, r1, #4, #1
 4415 11f8 3031     		adds	r1, r1, #48
 4416 11fa 0124     		movs	r4, #1
 4417 11fc 0094     		str	r4, [sp]
 4418 11fe 0026     		movs	r6, #0
 4419 1200 0196     		str	r6, [sp, #4]
 4420 1202 4E25     		movs	r5, #78
 4421 1204 0295     		str	r5, [sp, #8]
 4422 1206 2046     		mov	r0, r4
 4423 1208 C9B2     		uxtb	r1, r1
 4424 120a 0D22     		movs	r2, #13
 4425 120c 0823     		movs	r3, #8
 4426 120e FFF7FEFF 		bl	WriteLCD
 4427              	.LVL438:
1140:.\main.c      ****                 WriteLCD(1,':',13,10,1,0x0000,'N');
 4428              		.loc 1 1140 0
 4429 1212 7978     		ldrb	r1, [r7, #1]	@ zero_extendqisi2
 4430 1214 01F00F01 		and	r1, r1, #15
 4431 1218 0094     		str	r4, [sp]
 4432 121a 0196     		str	r6, [sp, #4]
 4433 121c 0295     		str	r5, [sp, #8]
 4434 121e 2046     		mov	r0, r4
 4435 1220 3031     		adds	r1, r1, #48
 4436 1222 0D22     		movs	r2, #13
 4437 1224 0923     		movs	r3, #9
 4438 1226 FFF7FEFF 		bl	WriteLCD
 4439              	.LVL439:
1141:.\main.c      ****                 WriteLCD(1,(((timeDownHandle[0]&0xF0)>>4)+48),13,11,1,0x0000,'N');
 4440              		.loc 1 1141 0
 4441 122a 0094     		str	r4, [sp]
 4442 122c 0196     		str	r6, [sp, #4]
 4443 122e 0295     		str	r5, [sp, #8]
ARM GAS  C:\Users\RECEPC~1\AppData\Local\Temp\ccp152bc.s 			page 128


 4444 1230 2046     		mov	r0, r4
 4445 1232 3A21     		movs	r1, #58
 4446 1234 0D22     		movs	r2, #13
 4447 1236 0A23     		movs	r3, #10
 4448 1238 FFF7FEFF 		bl	WriteLCD
 4449              	.LVL440:
1142:.\main.c      ****                 WriteLCD(1,((timeDownHandle[0]&0x0F)+48),13,12,1,0x0000,'N');               
 4450              		.loc 1 1142 0
 4451 123c 3978     		ldrb	r1, [r7]	@ zero_extendqisi2
 4452 123e 0909     		lsrs	r1, r1, #4
 4453 1240 0094     		str	r4, [sp]
 4454 1242 0196     		str	r6, [sp, #4]
 4455 1244 0295     		str	r5, [sp, #8]
 4456 1246 2046     		mov	r0, r4
 4457 1248 3031     		adds	r1, r1, #48
 4458 124a 0D22     		movs	r2, #13
 4459 124c 0B23     		movs	r3, #11
 4460 124e FFF7FEFF 		bl	WriteLCD
 4461              	.LVL441:
1143:.\main.c      ****             }
 4462              		.loc 1 1143 0
 4463 1252 3978     		ldrb	r1, [r7]	@ zero_extendqisi2
 4464 1254 01F00F01 		and	r1, r1, #15
 4465 1258 0094     		str	r4, [sp]
 4466 125a 0196     		str	r6, [sp, #4]
 4467 125c 0295     		str	r5, [sp, #8]
 4468 125e 2046     		mov	r0, r4
 4469 1260 3031     		adds	r1, r1, #48
 4470 1262 0D22     		movs	r2, #13
 4471 1264 0C23     		movs	r3, #12
 4472 1266 FFF7FEFF 		bl	WriteLCD
 4473              	.LVL442:
 4474              	.L252:
1145:.\main.c      ****                 WriteLCD(1,(((dateDownHandle[0]&0x30)>>4)+48),21,8,1,0x0000,'N');
 4475              		.loc 1 1145 0
 4476 126a FFF7FEFF 		bl	leer_fecha
 4477              	.LVL443:
 4478 126e 0128     		cmp	r0, #1
 4479 1270 5DD1     		bne	.L253
1146:.\main.c      ****                 WriteLCD(1,((dateDownHandle[0]&0x0F)+48),21,9,1,0x0000,'N');
 4480              		.loc 1 1146 0
 4481 1272 4C4F     		ldr	r7, .L291+4
 4482 1274 3978     		ldrb	r1, [r7]	@ zero_extendqisi2
 4483 1276 C1F30111 		ubfx	r1, r1, #4, #2
 4484 127a 0124     		movs	r4, #1
 4485 127c 0094     		str	r4, [sp]
 4486 127e 0026     		movs	r6, #0
 4487 1280 0196     		str	r6, [sp, #4]
 4488 1282 4E25     		movs	r5, #78
 4489 1284 0295     		str	r5, [sp, #8]
 4490 1286 2046     		mov	r0, r4
 4491 1288 3031     		adds	r1, r1, #48
 4492 128a 1522     		movs	r2, #21
 4493 128c 0823     		movs	r3, #8
 4494 128e FFF7FEFF 		bl	WriteLCD
 4495              	.LVL444:
1147:.\main.c      ****                 WriteLCD(1,'/',21,10,1,0x0000,'N');
ARM GAS  C:\Users\RECEPC~1\AppData\Local\Temp\ccp152bc.s 			page 129


 4496              		.loc 1 1147 0
 4497 1292 3978     		ldrb	r1, [r7]	@ zero_extendqisi2
 4498 1294 01F00F01 		and	r1, r1, #15
 4499 1298 0094     		str	r4, [sp]
 4500 129a 0196     		str	r6, [sp, #4]
 4501 129c 0295     		str	r5, [sp, #8]
 4502 129e 2046     		mov	r0, r4
 4503 12a0 3031     		adds	r1, r1, #48
 4504 12a2 1522     		movs	r2, #21
 4505 12a4 0923     		movs	r3, #9
 4506 12a6 FFF7FEFF 		bl	WriteLCD
 4507              	.LVL445:
1148:.\main.c      ****                 WriteLCD(1,(((dateDownHandle[1]&0x10)>>4)+48),21,11,1,0x0000,'N');
 4508              		.loc 1 1148 0
 4509 12aa 0094     		str	r4, [sp]
 4510 12ac 0196     		str	r6, [sp, #4]
 4511 12ae 0295     		str	r5, [sp, #8]
 4512 12b0 2046     		mov	r0, r4
 4513 12b2 2F21     		movs	r1, #47
 4514 12b4 1522     		movs	r2, #21
 4515 12b6 0A23     		movs	r3, #10
 4516 12b8 FFF7FEFF 		bl	WriteLCD
 4517              	.LVL446:
1149:.\main.c      ****                 WriteLCD(1,((dateDownHandle[1]&0x0F)+48),21,12,1,0x0000,'N');
 4518              		.loc 1 1149 0
 4519 12bc 7978     		ldrb	r1, [r7, #1]	@ zero_extendqisi2
 4520 12be C1F30011 		ubfx	r1, r1, #4, #1
 4521 12c2 3031     		adds	r1, r1, #48
 4522 12c4 0094     		str	r4, [sp]
 4523 12c6 0196     		str	r6, [sp, #4]
 4524 12c8 0295     		str	r5, [sp, #8]
 4525 12ca 2046     		mov	r0, r4
 4526 12cc C9B2     		uxtb	r1, r1
 4527 12ce 1522     		movs	r2, #21
 4528 12d0 0B23     		movs	r3, #11
 4529 12d2 FFF7FEFF 		bl	WriteLCD
 4530              	.LVL447:
1150:.\main.c      ****                 WriteLCD(1,'/',21,13,1,0x0000,'N');
 4531              		.loc 1 1150 0
 4532 12d6 7978     		ldrb	r1, [r7, #1]	@ zero_extendqisi2
 4533 12d8 01F00F01 		and	r1, r1, #15
 4534 12dc 0094     		str	r4, [sp]
 4535 12de 0196     		str	r6, [sp, #4]
 4536 12e0 0295     		str	r5, [sp, #8]
 4537 12e2 2046     		mov	r0, r4
 4538 12e4 3031     		adds	r1, r1, #48
 4539 12e6 1522     		movs	r2, #21
 4540 12e8 0C23     		movs	r3, #12
 4541 12ea FFF7FEFF 		bl	WriteLCD
 4542              	.LVL448:
1151:.\main.c      ****                 WriteLCD(1,(((dateDownHandle[2]&0xF0)>>4)+48),21,14,1,0x0000,'N');
 4543              		.loc 1 1151 0
 4544 12ee 0094     		str	r4, [sp]
 4545 12f0 0196     		str	r6, [sp, #4]
 4546 12f2 0295     		str	r5, [sp, #8]
 4547 12f4 2046     		mov	r0, r4
 4548 12f6 2F21     		movs	r1, #47
ARM GAS  C:\Users\RECEPC~1\AppData\Local\Temp\ccp152bc.s 			page 130


 4549 12f8 1522     		movs	r2, #21
 4550 12fa 0D23     		movs	r3, #13
 4551 12fc FFF7FEFF 		bl	WriteLCD
 4552              	.LVL449:
1152:.\main.c      ****                 WriteLCD(1,((dateDownHandle[2]&0x0F)+48),21,15,1,0x0000,'N');
 4553              		.loc 1 1152 0
 4554 1300 B978     		ldrb	r1, [r7, #2]	@ zero_extendqisi2
 4555 1302 0909     		lsrs	r1, r1, #4
 4556 1304 0094     		str	r4, [sp]
 4557 1306 0196     		str	r6, [sp, #4]
 4558 1308 0295     		str	r5, [sp, #8]
 4559 130a 2046     		mov	r0, r4
 4560 130c 3031     		adds	r1, r1, #48
 4561 130e 1522     		movs	r2, #21
 4562 1310 0E23     		movs	r3, #14
 4563 1312 FFF7FEFF 		bl	WriteLCD
 4564              	.LVL450:
1153:.\main.c      ****             }
 4565              		.loc 1 1153 0
 4566 1316 B978     		ldrb	r1, [r7, #2]	@ zero_extendqisi2
 4567 1318 01F00F01 		and	r1, r1, #15
 4568 131c 0094     		str	r4, [sp]
 4569 131e 0196     		str	r6, [sp, #4]
 4570 1320 0295     		str	r5, [sp, #8]
 4571 1322 2046     		mov	r0, r4
 4572 1324 3031     		adds	r1, r1, #48
 4573 1326 1522     		movs	r2, #21
 4574 1328 0F23     		movs	r3, #15
 4575 132a FFF7FEFF 		bl	WriteLCD
 4576              	.LVL451:
 4577              	.L253:
1155:.\main.c      ****                 if((Display1_rxBuffer[0]==0xAA) && (Display1_rxBuffer[6]==0xC3) && (Display1_rxBuff
 4578              		.loc 1 1155 0
 4579 132e FFF7FEFF 		bl	Display1_GetRxBufferSize
 4580              	.LVL452:
 4581 1332 0828     		cmp	r0, #8
 4582 1334 31D1     		bne	.L73
1156:.\main.c      ****                     switch(Display1_rxBuffer[3]){                                                  
 4583              		.loc 1 1156 0
 4584 1336 1C4B     		ldr	r3, .L291+8
 4585 1338 1B78     		ldrb	r3, [r3]	@ zero_extendqisi2
 4586 133a DBB2     		uxtb	r3, r3
 4587 133c AA2B     		cmp	r3, #170
 4588 133e 20D1     		bne	.L254
1156:.\main.c      ****                     switch(Display1_rxBuffer[3]){                                                  
 4589              		.loc 1 1156 0 is_stmt 0 discriminator 1
 4590 1340 194B     		ldr	r3, .L291+8
 4591 1342 9B79     		ldrb	r3, [r3, #6]	@ zero_extendqisi2
 4592 1344 DBB2     		uxtb	r3, r3
 4593 1346 C32B     		cmp	r3, #195
 4594 1348 1BD1     		bne	.L254
1156:.\main.c      ****                     switch(Display1_rxBuffer[3]){                                                  
 4595              		.loc 1 1156 0 discriminator 2
 4596 134a 174B     		ldr	r3, .L291+8
 4597 134c DB79     		ldrb	r3, [r3, #7]	@ zero_extendqisi2
 4598 134e DBB2     		uxtb	r3, r3
 4599 1350 3C2B     		cmp	r3, #60
ARM GAS  C:\Users\RECEPC~1\AppData\Local\Temp\ccp152bc.s 			page 131


 4600 1352 16D1     		bne	.L254
1157:.\main.c      ****                         case 0x7E:  //Pantalla Inicial  
 4601              		.loc 1 1157 0 is_stmt 1
 4602 1354 144B     		ldr	r3, .L291+8
 4603 1356 DB78     		ldrb	r3, [r3, #3]	@ zero_extendqisi2
 4604 1358 DBB2     		uxtb	r3, r3
 4605 135a 7E2B     		cmp	r3, #126
 4606 135c 02D0     		beq	.L255
 4607 135e 942B     		cmp	r3, #148
 4608 1360 08D0     		beq	.L256
 4609 1362 0EE0     		b	.L254
 4610              	.L255:
1159:.\main.c      ****                             SetPicture(1,DISPLAY_INICIO0);                            
 4611              		.loc 1 1159 0
 4612 1364 0022     		movs	r2, #0
 4613 1366 114B     		ldr	r3, .L291+12
 4614 1368 1A60     		str	r2, [r3]
1160:.\main.c      ****                         break;
 4615              		.loc 1 1160 0
 4616 136a 0120     		movs	r0, #1
 4617 136c 0146     		mov	r1, r0
 4618 136e FFF7FEFF 		bl	SetPicture
 4619              	.LVL453:
1161:.\main.c      ****                         case 0x94:  //Pantalla Inicial    
 4620              		.loc 1 1161 0
 4621 1372 06E0     		b	.L254
 4622              	.L256:
1163:.\main.c      ****                             SetPicture(1,DISPLAY_INICIO0);                            
 4623              		.loc 1 1163 0
 4624 1374 0022     		movs	r2, #0
 4625 1376 0D4B     		ldr	r3, .L291+12
 4626 1378 1A60     		str	r2, [r3]
1164:.\main.c      ****                         break;
 4627              		.loc 1 1164 0
 4628 137a 0120     		movs	r0, #1
 4629 137c 0146     		mov	r1, r0
 4630 137e FFF7FEFF 		bl	SetPicture
 4631              	.LVL454:
 4632              	.L254:
1168:.\main.c      ****                 Display1_ClearRxBuffer();
 4633              		.loc 1 1168 0
 4634 1382 0A20     		movs	r0, #10
 4635 1384 FFF7FEFF 		bl	CyDelay
 4636              	.LVL455:
1169:.\main.c      ****             }                        
 4637              		.loc 1 1169 0
 4638 1388 FFF7FEFF 		bl	Display1_ClearRxBuffer
 4639              	.LVL456:
 4640 138c 05E0     		b	.L73
 4641              	.L95:
1174:.\main.c      ****             ShiftState =1;
 4642              		.loc 1 1174 0
 4643 138e 0123     		movs	r3, #1
 4644 1390 074A     		ldr	r2, .L291+16
 4645 1392 82F80731 		strb	r3, [r2, #263]
1175:.\main.c      ****         break;
 4646              		.loc 1 1175 0
ARM GAS  C:\Users\RECEPC~1\AppData\Local\Temp\ccp152bc.s 			page 132


 4647 1396 074A     		ldr	r2, .L291+20
 4648 1398 1370     		strb	r3, [r2]
 4649              	.L73:
1179:.\main.c      **** 
 4650              		.loc 1 1179 0
 4651 139a 05B0     		add	sp, sp, #20
 4652              		.cfi_def_cfa_offset 20
 4653              		@ sp needed
 4654 139c F0BD     		pop	{r4, r5, r6, r7, pc}
 4655              	.L292:
 4656 139e 00BF     		.align	2
 4657              	.L291:
 4658 13a0 00000000 		.word	timeDownHandle
 4659 13a4 00000000 		.word	dateDownHandle
 4660 13a8 00000000 		.word	Display1_rxBuffer
 4661 13ac 00000000 		.word	flowDisplay1
 4662 13b0 00000000 		.word	side
 4663 13b4 00000000 		.word	ShiftState
 4664              		.cfi_endproc
 4665              	.LFE71:
 4666              		.size	PollingDisplay1, .-PollingDisplay1
 4667              		.section	.text.PollingDisplay2,"ax",%progbits
 4668              		.align	2
 4669              		.global	PollingDisplay2
 4670              		.thumb
 4671              		.thumb_func
 4672              		.type	PollingDisplay2, %function
 4673              	PollingDisplay2:
 4674              	.LFB72:
1191:.\main.c      ****     //if(countLCD >10){
 4675              		.loc 1 1191 0
 4676              		.cfi_startproc
 4677              		@ args = 0, pretend = 0, frame = 0
 4678              		@ frame_needed = 0, uses_anonymous_args = 0
 4679 0000 F0B5     		push	{r4, r5, r6, r7, lr}
 4680              		.cfi_def_cfa_offset 20
 4681              		.cfi_offset 4, -20
 4682              		.cfi_offset 5, -16
 4683              		.cfi_offset 6, -12
 4684              		.cfi_offset 7, -8
 4685              		.cfi_offset 14, -4
 4686 0002 85B0     		sub	sp, sp, #20
 4687              		.cfi_def_cfa_offset 40
1194:.\main.c      ****         case 0:
 4688              		.loc 1 1194 0
 4689 0004 B64B     		ldr	r3, .L497
 4690 0006 1B68     		ldr	r3, [r3]
 4691 0008 132B     		cmp	r3, #19
 4692 000a 01F2D681 		bhi	.L293
 4693 000e DFE813F0 		tbh	[pc, r3, lsl #1]
 4694              	.L296:
 4695 0012 1400     		.2byte	(.L295-.L296)/2
 4696 0014 2B00     		.2byte	(.L297-.L296)/2
 4697 0016 5400     		.2byte	(.L298-.L296)/2
 4698 0018 B000     		.2byte	(.L299-.L296)/2
 4699 001a 7701     		.2byte	(.L300-.L296)/2
 4700 001c A501     		.2byte	(.L301-.L296)/2
ARM GAS  C:\Users\RECEPC~1\AppData\Local\Temp\ccp152bc.s 			page 133


 4701 001e 2302     		.2byte	(.L302-.L296)/2
 4702 0020 9B02     		.2byte	(.L303-.L296)/2
 4703 0022 0A03     		.2byte	(.L304-.L296)/2
 4704 0024 9803     		.2byte	(.L305-.L296)/2
 4705 0026 7004     		.2byte	(.L306-.L296)/2
 4706 0028 C404     		.2byte	(.L307-.L296)/2
 4707 002a 4A05     		.2byte	(.L308-.L296)/2
 4708 002c D705     		.2byte	(.L309-.L296)/2
 4709 002e 2C06     		.2byte	(.L310-.L296)/2
 4710 0030 8107     		.2byte	(.L311-.L296)/2
 4711 0032 2508     		.2byte	(.L312-.L296)/2
 4712 0034 7908     		.2byte	(.L313-.L296)/2
 4713 0036 FB08     		.2byte	(.L314-.L296)/2
 4714 0038 CE09     		.2byte	(.L315-.L296)/2
 4715              		.p2align 1
 4716              	.L295:
1196:.\main.c      ****             flowDisplay2 =1;
 4717              		.loc 1 1196 0
 4718 003a FFF7FEFF 		bl	InitDisplay2
 4719              	.LVL457:
1197:.\main.c      ****             side.b.rfState = RF_IDLE;
 4720              		.loc 1 1197 0
 4721 003e 0122     		movs	r2, #1
 4722 0040 A74B     		ldr	r3, .L497
 4723 0042 1A60     		str	r2, [r3]
1198:.\main.c      ****             isr_4_Stop(); 
 4724              		.loc 1 1198 0
 4725 0044 0822     		movs	r2, #8
 4726 0046 A74B     		ldr	r3, .L497+4
 4727 0048 83F80B22 		strb	r2, [r3, #523]
1199:.\main.c      ****             Timer_Animacion2_Stop();
 4728              		.loc 1 1199 0
 4729 004c FFF7FEFF 		bl	isr_4_Stop
 4730              	.LVL458:
1200:.\main.c      ****             count_protector2 = 0;
 4731              		.loc 1 1200 0
 4732 0050 FFF7FEFF 		bl	Timer_Animacion2_Stop
 4733              	.LVL459:
1201:.\main.c      ****             bufferDisplay2.saleType = 0;
 4734              		.loc 1 1201 0
 4735 0054 0023     		movs	r3, #0
 4736 0056 A44A     		ldr	r2, .L497+8
 4737 0058 1370     		strb	r3, [r2]
1202:.\main.c      ****             bufferDisplay2.flagEndSale = false;            
 4738              		.loc 1 1202 0
 4739 005a A44A     		ldr	r2, .L497+12
 4740 005c 82F86130 		strb	r3, [r2, #97]
1203:.\main.c      ****         break;
 4741              		.loc 1 1203 0
 4742 0060 82F80331 		strb	r3, [r2, #259]
1204:.\main.c      ****         case 1: //Menu
 4743              		.loc 1 1204 0
 4744 0064 01F0A9B9 		b	.L293
 4745              	.L297:
1206:.\main.c      ****             side.b.rfState = RF_IDLE;
 4746              		.loc 1 1206 0
 4747 0068 0220     		movs	r0, #2
ARM GAS  C:\Users\RECEPC~1\AppData\Local\Temp\ccp152bc.s 			page 134


 4748 006a 2321     		movs	r1, #35
 4749 006c FFF7FEFF 		bl	ShowRectangle
 4750              	.LVL460:
1207:.\main.c      ****             if(Display2_GetRxBufferSize()==8){
 4751              		.loc 1 1207 0
 4752 0070 0822     		movs	r2, #8
 4753 0072 9C4B     		ldr	r3, .L497+4
 4754 0074 83F80B22 		strb	r2, [r3, #523]
1208:.\main.c      ****                 if((Display2_rxBuffer[0]==0xAA) && (Display2_rxBuffer[6]==0xC3) && (Display2_rxBuff
 4755              		.loc 1 1208 0
 4756 0078 FFF7FEFF 		bl	Display2_GetRxBufferSize
 4757              	.LVL461:
 4758 007c 0828     		cmp	r0, #8
 4759 007e 41F09C81 		bne	.L293
1209:.\main.c      ****                     flowDisplay2 = 2;      //Pantalla forma de pago                      
 4760              		.loc 1 1209 0
 4761 0082 9B4B     		ldr	r3, .L497+16
 4762 0084 1B78     		ldrb	r3, [r3]	@ zero_extendqisi2
 4763 0086 DBB2     		uxtb	r3, r3
 4764 0088 AA2B     		cmp	r3, #170
 4765 008a 0FD1     		bne	.L316
1209:.\main.c      ****                     flowDisplay2 = 2;      //Pantalla forma de pago                      
 4766              		.loc 1 1209 0 is_stmt 0 discriminator 1
 4767 008c 984B     		ldr	r3, .L497+16
 4768 008e 9B79     		ldrb	r3, [r3, #6]	@ zero_extendqisi2
 4769 0090 DBB2     		uxtb	r3, r3
 4770 0092 C32B     		cmp	r3, #195
 4771 0094 0AD1     		bne	.L316
1209:.\main.c      ****                     flowDisplay2 = 2;      //Pantalla forma de pago                      
 4772              		.loc 1 1209 0 discriminator 2
 4773 0096 964B     		ldr	r3, .L497+16
 4774 0098 DB79     		ldrb	r3, [r3, #7]	@ zero_extendqisi2
 4775 009a DBB2     		uxtb	r3, r3
 4776 009c 3C2B     		cmp	r3, #60
 4777 009e 05D1     		bne	.L316
1210:.\main.c      ****                     SetPicture(2,DISPLAY_FORMA_PAGO_DESEADA);                                      
 4778              		.loc 1 1210 0 is_stmt 1
 4779 00a0 0220     		movs	r0, #2
 4780 00a2 8F4B     		ldr	r3, .L497
 4781 00a4 1860     		str	r0, [r3]
1211:.\main.c      ****                 }  
 4782              		.loc 1 1211 0
 4783 00a6 0421     		movs	r1, #4
 4784 00a8 FFF7FEFF 		bl	SetPicture
 4785              	.LVL462:
 4786              	.L316:
1213:.\main.c      ****                 Display2_ClearRxBuffer();
 4787              		.loc 1 1213 0
 4788 00ac 0A20     		movs	r0, #10
 4789 00ae FFF7FEFF 		bl	CyDelay
 4790              	.LVL463:
1214:.\main.c      ****             }
 4791              		.loc 1 1214 0
 4792 00b2 FFF7FEFF 		bl	Display2_ClearRxBuffer
 4793              	.LVL464:
 4794 00b6 01F080B9 		b	.L293
 4795              	.L298:
ARM GAS  C:\Users\RECEPC~1\AppData\Local\Temp\ccp152bc.s 			page 135


1218:.\main.c      ****                 if((Display2_rxBuffer[0]==0xAA) && (Display2_rxBuffer[6]==0xC3) && (Display2_rxBuff
 4796              		.loc 1 1218 0
 4797 00ba FFF7FEFF 		bl	Display2_GetRxBufferSize
 4798              	.LVL465:
 4799 00be 0828     		cmp	r0, #8
 4800 00c0 41F07B81 		bne	.L293
1219:.\main.c      ****                     switch(Display2_rxBuffer[3]){
 4801              		.loc 1 1219 0
 4802 00c4 8A4B     		ldr	r3, .L497+16
 4803 00c6 1B78     		ldrb	r3, [r3]	@ zero_extendqisi2
 4804 00c8 DBB2     		uxtb	r3, r3
 4805 00ca AA2B     		cmp	r3, #170
 4806 00cc 4AD1     		bne	.L317
1219:.\main.c      ****                     switch(Display2_rxBuffer[3]){
 4807              		.loc 1 1219 0 is_stmt 0 discriminator 1
 4808 00ce 884B     		ldr	r3, .L497+16
 4809 00d0 9B79     		ldrb	r3, [r3, #6]	@ zero_extendqisi2
 4810 00d2 DBB2     		uxtb	r3, r3
 4811 00d4 C32B     		cmp	r3, #195
 4812 00d6 45D1     		bne	.L317
1219:.\main.c      ****                     switch(Display2_rxBuffer[3]){
 4813              		.loc 1 1219 0 discriminator 2
 4814 00d8 854B     		ldr	r3, .L497+16
 4815 00da DB79     		ldrb	r3, [r3, #7]	@ zero_extendqisi2
 4816 00dc DBB2     		uxtb	r3, r3
 4817 00de 3C2B     		cmp	r3, #60
 4818 00e0 40D1     		bne	.L317
1220:.\main.c      ****                         case 0x0D:  //Pantalla efectivo              
 4819              		.loc 1 1220 0 is_stmt 1
 4820 00e2 834B     		ldr	r3, .L497+16
 4821 00e4 DB78     		ldrb	r3, [r3, #3]	@ zero_extendqisi2
 4822 00e6 DBB2     		uxtb	r3, r3
 4823 00e8 452B     		cmp	r3, #69
 4824 00ea 24D0     		beq	.L318
 4825 00ec 04D8     		bhi	.L319
 4826 00ee 0D2B     		cmp	r3, #13
 4827 00f0 07D0     		beq	.L320
 4828 00f2 0E2B     		cmp	r3, #14
 4829 00f4 11D0     		beq	.L321
 4830 00f6 35E0     		b	.L317
 4831              	.L319:
 4832 00f8 7E2B     		cmp	r3, #126
 4833 00fa 2CD0     		beq	.L322
 4834 00fc 942B     		cmp	r3, #148
 4835 00fe 22D0     		beq	.L323
 4836 0100 30E0     		b	.L317
 4837              	.L320:
1222:.\main.c      ****                             bufferDisplay2.saleType = 1;
 4838              		.loc 1 1222 0
 4839 0102 0322     		movs	r2, #3
 4840 0104 764B     		ldr	r3, .L497
 4841 0106 1A60     		str	r2, [r3]
1223:.\main.c      ****                             SetPicture(2,DISPLAY_FORMA_PROGRAMACION);                            
 4842              		.loc 1 1223 0
 4843 0108 0122     		movs	r2, #1
 4844 010a 784B     		ldr	r3, .L497+12
 4845 010c 83F86120 		strb	r2, [r3, #97]
ARM GAS  C:\Users\RECEPC~1\AppData\Local\Temp\ccp152bc.s 			page 136


1224:.\main.c      ****                         break;
 4846              		.loc 1 1224 0
 4847 0110 0220     		movs	r0, #2
 4848 0112 0521     		movs	r1, #5
 4849 0114 FFF7FEFF 		bl	SetPicture
 4850              	.LVL466:
1225:.\main.c      ****                         case 0x0E:  //Pantalla credito  
 4851              		.loc 1 1225 0
 4852 0118 24E0     		b	.L317
 4853              	.L321:
1227:.\main.c      ****                             bufferDisplay2.saleType = 2;
 4854              		.loc 1 1227 0
 4855 011a 0A22     		movs	r2, #10
 4856 011c 704B     		ldr	r3, .L497
 4857 011e 1A60     		str	r2, [r3]
1228:.\main.c      ****                             count_protector = 0;
 4858              		.loc 1 1228 0
 4859 0120 0220     		movs	r0, #2
 4860 0122 724B     		ldr	r3, .L497+12
 4861 0124 83F86100 		strb	r0, [r3, #97]
1229:.\main.c      ****                             SetPicture(2,DISPLAY_ID_DIGITAL);                            
 4862              		.loc 1 1229 0
 4863 0128 0022     		movs	r2, #0
 4864 012a 724B     		ldr	r3, .L497+20
 4865 012c 1A70     		strb	r2, [r3]
1230:.\main.c      ****                         break;
 4866              		.loc 1 1230 0
 4867 012e 8521     		movs	r1, #133
 4868 0130 FFF7FEFF 		bl	SetPicture
 4869              	.LVL467:
1231:.\main.c      ****                         case 0x45:  //Pantalla otras opciones 
 4870              		.loc 1 1231 0
 4871 0134 16E0     		b	.L317
 4872              	.L318:
1233:.\main.c      ****                             SetPicture(2,DISPLAY_OPERACIONES);                            
 4873              		.loc 1 1233 0
 4874 0136 0C22     		movs	r2, #12
 4875 0138 694B     		ldr	r3, .L497
 4876 013a 1A60     		str	r2, [r3]
1234:.\main.c      ****                         break;
 4877              		.loc 1 1234 0
 4878 013c 0220     		movs	r0, #2
 4879 013e 8321     		movs	r1, #131
 4880 0140 FFF7FEFF 		bl	SetPicture
 4881              	.LVL468:
1235:.\main.c      ****                             
 4882              		.loc 1 1235 0
 4883 0144 0EE0     		b	.L317
 4884              	.L323:
1238:.\main.c      ****                             SetPicture(2,DISPLAY_INICIO0);                            
 4885              		.loc 1 1238 0
 4886 0146 0022     		movs	r2, #0
 4887 0148 654B     		ldr	r3, .L497
 4888 014a 1A60     		str	r2, [r3]
1239:.\main.c      ****                         break;
 4889              		.loc 1 1239 0
 4890 014c 0220     		movs	r0, #2
ARM GAS  C:\Users\RECEPC~1\AppData\Local\Temp\ccp152bc.s 			page 137


 4891 014e 0121     		movs	r1, #1
 4892 0150 FFF7FEFF 		bl	SetPicture
 4893              	.LVL469:
1240:.\main.c      ****                         
 4894              		.loc 1 1240 0
 4895 0154 06E0     		b	.L317
 4896              	.L322:
1243:.\main.c      ****                             SetPicture(2,DISPLAY_INICIO0);                            
 4897              		.loc 1 1243 0
 4898 0156 0022     		movs	r2, #0
 4899 0158 614B     		ldr	r3, .L497
 4900 015a 1A60     		str	r2, [r3]
1244:.\main.c      ****                         break;
 4901              		.loc 1 1244 0
 4902 015c 0220     		movs	r0, #2
 4903 015e 0121     		movs	r1, #1
 4904 0160 FFF7FEFF 		bl	SetPicture
 4905              	.LVL470:
 4906              	.L317:
1248:.\main.c      ****                 Display2_ClearRxBuffer();
 4907              		.loc 1 1248 0
 4908 0164 0A20     		movs	r0, #10
 4909 0166 FFF7FEFF 		bl	CyDelay
 4910              	.LVL471:
1249:.\main.c      ****             }
 4911              		.loc 1 1249 0
 4912 016a FFF7FEFF 		bl	Display2_ClearRxBuffer
 4913              	.LVL472:
 4914 016e 01F024B9 		b	.L293
 4915              	.L299:
1254:.\main.c      ****                 if((Display2_rxBuffer[0]==0xAA) && (Display2_rxBuffer[6]==0xC3) && (Display2_rxBuff
 4916              		.loc 1 1254 0
 4917 0172 FFF7FEFF 		bl	Display2_GetRxBufferSize
 4918              	.LVL473:
 4919 0176 0828     		cmp	r0, #8
 4920 0178 41F01F81 		bne	.L293
1255:.\main.c      ****                     switch(Display2_rxBuffer[3]){
 4921              		.loc 1 1255 0
 4922 017c 5C4B     		ldr	r3, .L497+16
 4923 017e 1B78     		ldrb	r3, [r3]	@ zero_extendqisi2
 4924 0180 DBB2     		uxtb	r3, r3
 4925 0182 AA2B     		cmp	r3, #170
 4926 0184 40F0A480 		bne	.L324
1255:.\main.c      ****                     switch(Display2_rxBuffer[3]){
 4927              		.loc 1 1255 0 is_stmt 0 discriminator 1
 4928 0188 594B     		ldr	r3, .L497+16
 4929 018a 9B79     		ldrb	r3, [r3, #6]	@ zero_extendqisi2
 4930 018c DBB2     		uxtb	r3, r3
 4931 018e C32B     		cmp	r3, #195
 4932 0190 40F09E80 		bne	.L324
1255:.\main.c      ****                     switch(Display2_rxBuffer[3]){
 4933              		.loc 1 1255 0 discriminator 2
 4934 0194 564B     		ldr	r3, .L497+16
 4935 0196 DB79     		ldrb	r3, [r3, #7]	@ zero_extendqisi2
 4936 0198 DBB2     		uxtb	r3, r3
 4937 019a 3C2B     		cmp	r3, #60
 4938 019c 40F09880 		bne	.L324
ARM GAS  C:\Users\RECEPC~1\AppData\Local\Temp\ccp152bc.s 			page 138


1256:.\main.c      ****                         case 0x0F:  //Preset dinero                
 4939              		.loc 1 1256 0 is_stmt 1
 4940 01a0 534B     		ldr	r3, .L497+16
 4941 01a2 DB78     		ldrb	r3, [r3, #3]	@ zero_extendqisi2
 4942 01a4 DBB2     		uxtb	r3, r3
 4943 01a6 3B2B     		cmp	r3, #59
 4944 01a8 00F08380 		beq	.L325
 4945 01ac 04D8     		bhi	.L326
 4946 01ae 0F2B     		cmp	r3, #15
 4947 01b0 0BD0     		beq	.L327
 4948 01b2 102B     		cmp	r3, #16
 4949 01b4 26D0     		beq	.L328
 4950 01b6 8BE0     		b	.L324
 4951              	.L326:
 4952 01b8 7E2B     		cmp	r3, #126
 4953 01ba 00F08280 		beq	.L329
 4954 01be 942B     		cmp	r3, #148
 4955 01c0 6FD0     		beq	.L330
 4956 01c2 432B     		cmp	r3, #67
 4957 01c4 40F08480 		bne	.L324
 4958 01c8 38E0     		b	.L331
 4959              	.L327:
1258:.\main.c      ****                             bufferDisplay2.presetType[0]=2;
 4960              		.loc 1 1258 0
 4961 01ca 0422     		movs	r2, #4
 4962 01cc 444B     		ldr	r3, .L497
 4963 01ce 1A60     		str	r2, [r3]
1259:.\main.c      ****                             bufferDisplay2.presetType[1]='D';
 4964              		.loc 1 1259 0
 4965 01d0 464B     		ldr	r3, .L497+12
 4966 01d2 0224     		movs	r4, #2
 4967 01d4 83F86340 		strb	r4, [r3, #99]
1260:.\main.c      ****                             numberKeys1=0;
 4968              		.loc 1 1260 0
 4969 01d8 4422     		movs	r2, #68
 4970 01da 83F86420 		strb	r2, [r3, #100]
1261:.\main.c      ****                             SetPicture(2,DISPLAY_INTRODUZCA_VALOR);   
 4971              		.loc 1 1261 0
 4972 01de 0025     		movs	r5, #0
 4973 01e0 454B     		ldr	r3, .L497+24
 4974 01e2 1D70     		strb	r5, [r3]
1262:.\main.c      ****                             WriteLCD(2,'$',3,2,1,0x0000,'N');
 4975              		.loc 1 1262 0
 4976 01e4 2046     		mov	r0, r4
 4977 01e6 0621     		movs	r1, #6
 4978 01e8 FFF7FEFF 		bl	SetPicture
 4979              	.LVL474:
1263:.\main.c      ****                         break; 
 4980              		.loc 1 1263 0
 4981 01ec 0123     		movs	r3, #1
 4982 01ee 0093     		str	r3, [sp]
 4983 01f0 0195     		str	r5, [sp, #4]
 4984 01f2 4E23     		movs	r3, #78
 4985 01f4 0293     		str	r3, [sp, #8]
 4986 01f6 2046     		mov	r0, r4
 4987 01f8 2421     		movs	r1, #36
 4988 01fa 0322     		movs	r2, #3
ARM GAS  C:\Users\RECEPC~1\AppData\Local\Temp\ccp152bc.s 			page 139


 4989 01fc 2346     		mov	r3, r4
 4990 01fe FFF7FEFF 		bl	WriteLCD
 4991              	.LVL475:
1264:.\main.c      ****                         case 0x10:  //Preset volumen                 
 4992              		.loc 1 1264 0
 4993 0202 65E0     		b	.L324
 4994              	.L328:
1266:.\main.c      ****                             bufferDisplay2.presetType[0]=1;
 4995              		.loc 1 1266 0
 4996 0204 0422     		movs	r2, #4
 4997 0206 364B     		ldr	r3, .L497
 4998 0208 1A60     		str	r2, [r3]
1267:.\main.c      ****                             bufferDisplay2.presetType[1]='V';
 4999              		.loc 1 1267 0
 5000 020a 384B     		ldr	r3, .L497+12
 5001 020c 0126     		movs	r6, #1
 5002 020e 83F86360 		strb	r6, [r3, #99]
1268:.\main.c      ****                             numberKeys1=0;                            
 5003              		.loc 1 1268 0
 5004 0212 5624     		movs	r4, #86
 5005 0214 83F86440 		strb	r4, [r3, #100]
1269:.\main.c      ****                             SetPicture(2,DISPLAY_INTRODUZCA_VOLUMEN);                            
 5006              		.loc 1 1269 0
 5007 0218 0025     		movs	r5, #0
 5008 021a 374B     		ldr	r3, .L497+24
 5009 021c 1D70     		strb	r5, [r3]
1270:.\main.c      ****                             WriteLCD(2,'V',3,2,1,0x0000,'N');                            
 5010              		.loc 1 1270 0
 5011 021e 0220     		movs	r0, #2
 5012 0220 0D21     		movs	r1, #13
 5013 0222 FFF7FEFF 		bl	SetPicture
 5014              	.LVL476:
1271:.\main.c      ****                         break;
 5015              		.loc 1 1271 0
 5016 0226 0096     		str	r6, [sp]
 5017 0228 0195     		str	r5, [sp, #4]
 5018 022a 4E23     		movs	r3, #78
 5019 022c 0293     		str	r3, [sp, #8]
 5020 022e 0220     		movs	r0, #2
 5021 0230 2146     		mov	r1, r4
 5022 0232 0322     		movs	r2, #3
 5023 0234 0346     		mov	r3, r0
 5024 0236 FFF7FEFF 		bl	WriteLCD
 5025              	.LVL477:
1272:.\main.c      ****                         case 0x43:  //Preset full 
 5026              		.loc 1 1272 0
 5027 023a 49E0     		b	.L324
 5028              	.L331:
1274:.\main.c      ****                             bufferDisplay2.presetType[1]='F';
 5029              		.loc 1 1274 0
 5030 023c 2B4B     		ldr	r3, .L497+12
 5031 023e 0222     		movs	r2, #2
 5032 0240 83F86320 		strb	r2, [r3, #99]
1275:.\main.c      ****                             for(x=1;x<(digits-1);x++){
 5033              		.loc 1 1275 0
 5034 0244 4622     		movs	r2, #70
 5035 0246 83F86420 		strb	r2, [r3, #100]
ARM GAS  C:\Users\RECEPC~1\AppData\Local\Temp\ccp152bc.s 			page 140


 5036              	.LVL478:
1276:.\main.c      ****                                 bufferDisplay2.presetValue[0][x]='9';
 5037              		.loc 1 1276 0
 5038 024a 0123     		movs	r3, #1
 5039 024c 06E0     		b	.L332
 5040              	.LVL479:
 5041              	.L333:
1277:.\main.c      ****                             }
 5042              		.loc 1 1277 0 discriminator 3
 5043 024e 274A     		ldr	r2, .L497+12
 5044 0250 1A44     		add	r2, r2, r3
 5045 0252 3921     		movs	r1, #57
 5046 0254 82F86510 		strb	r1, [r2, #101]
1276:.\main.c      ****                                 bufferDisplay2.presetValue[0][x]='9';
 5047              		.loc 1 1276 0 discriminator 3
 5048 0258 0133     		adds	r3, r3, #1
 5049              	.LVL480:
 5050 025a DBB2     		uxtb	r3, r3
 5051              	.LVL481:
 5052              	.L332:
1276:.\main.c      ****                                 bufferDisplay2.presetValue[0][x]='9';
 5053              		.loc 1 1276 0 is_stmt 0 discriminator 1
 5054 025c 1A46     		mov	r2, r3
 5055 025e 2749     		ldr	r1, .L497+28
 5056 0260 0978     		ldrb	r1, [r1]	@ zero_extendqisi2
 5057 0262 481E     		subs	r0, r1, #1
 5058 0264 8342     		cmp	r3, r0
 5059 0266 F2DB     		blt	.L333
1279:.\main.c      ****                             bufferDisplay2.presetValue[0][x+1]='0';
 5060              		.loc 1 1279 0 is_stmt 1
 5061 0268 204B     		ldr	r3, .L497+12
 5062              	.LVL482:
 5063 026a 9C18     		adds	r4, r3, r2
 5064 026c 3020     		movs	r0, #48
 5065 026e 84F86500 		strb	r0, [r4, #101]
1280:.\main.c      ****                             bufferDisplay2.presetValue[0][0]=digits;
 5066              		.loc 1 1280 0
 5067 0272 84F86600 		strb	r0, [r4, #102]
1281:.\main.c      ****                             for(x=0;x<=bufferDisplay2.presetValue[0][0];x++){
 5068              		.loc 1 1281 0
 5069 0276 83F86510 		strb	r1, [r3, #101]
 5070              	.LVL483:
1282:.\main.c      ****                                 bufferDisplay2.presetValue[1][x]=bufferDisplay2.presetValue[0][x];
 5071              		.loc 1 1282 0
 5072 027a 0023     		movs	r3, #0
 5073 027c 07E0     		b	.L334
 5074              	.LVL484:
 5075              	.L335:
1283:.\main.c      ****                             }
 5076              		.loc 1 1283 0 discriminator 3
 5077 027e 1B4A     		ldr	r2, .L497+12
 5078 0280 1A44     		add	r2, r2, r3
 5079 0282 92F86500 		ldrb	r0, [r2, #101]	@ zero_extendqisi2
 5080 0286 82F86F00 		strb	r0, [r2, #111]
1282:.\main.c      ****                                 bufferDisplay2.presetValue[1][x]=bufferDisplay2.presetValue[0][x];
 5081              		.loc 1 1282 0 discriminator 3
 5082 028a 0133     		adds	r3, r3, #1
ARM GAS  C:\Users\RECEPC~1\AppData\Local\Temp\ccp152bc.s 			page 141


 5083              	.LVL485:
 5084 028c DBB2     		uxtb	r3, r3
 5085              	.LVL486:
 5086              	.L334:
1282:.\main.c      ****                                 bufferDisplay2.presetValue[1][x]=bufferDisplay2.presetValue[0][x];
 5087              		.loc 1 1282 0 is_stmt 0 discriminator 1
 5088 028e 8B42     		cmp	r3, r1
 5089 0290 F5D9     		bls	.L335
1285:.\main.c      ****                             SetPicture(2,DISPLAY_SELECCIONE_PRODUCTO4);                          
 5090              		.loc 1 1285 0 is_stmt 1
 5091 0292 0522     		movs	r2, #5
 5092 0294 124B     		ldr	r3, .L497
 5093              	.LVL487:
 5094 0296 1A60     		str	r2, [r3]
1286:.\main.c      ****                         break;
 5095              		.loc 1 1286 0
 5096 0298 0220     		movs	r0, #2
 5097 029a 8621     		movs	r1, #134
 5098 029c FFF7FEFF 		bl	SetPicture
 5099              	.LVL488:
1287:.\main.c      ****                         case 0x94:  //Retroceso 
 5100              		.loc 1 1287 0
 5101 02a0 16E0     		b	.L324
 5102              	.L330:
1289:.\main.c      ****                             SetPicture(2,DISPLAY_INICIO0);                                         
 5103              		.loc 1 1289 0
 5104 02a2 0022     		movs	r2, #0
 5105 02a4 0E4B     		ldr	r3, .L497
 5106 02a6 1A60     		str	r2, [r3]
1290:.\main.c      ****                         break;
 5107              		.loc 1 1290 0
 5108 02a8 0220     		movs	r0, #2
 5109 02aa 0121     		movs	r1, #1
 5110 02ac FFF7FEFF 		bl	SetPicture
 5111              	.LVL489:
1291:.\main.c      ****                         case 0x3B:  //Pantalla Inicial    
 5112              		.loc 1 1291 0
 5113 02b0 0EE0     		b	.L324
 5114              	.L325:
1293:.\main.c      ****                             SetPicture(2,DISPLAY_INICIO0);                            
 5115              		.loc 1 1293 0
 5116 02b2 0022     		movs	r2, #0
 5117 02b4 0A4B     		ldr	r3, .L497
 5118 02b6 1A60     		str	r2, [r3]
1294:.\main.c      ****                         break;
 5119              		.loc 1 1294 0
 5120 02b8 0220     		movs	r0, #2
 5121 02ba 0121     		movs	r1, #1
 5122 02bc FFF7FEFF 		bl	SetPicture
 5123              	.LVL490:
1295:.\main.c      ****                         case 0x7E:  //Pantalla Inicial    
 5124              		.loc 1 1295 0
 5125 02c0 06E0     		b	.L324
 5126              	.L329:
1297:.\main.c      ****                             SetPicture(2,DISPLAY_INICIO0);                            
 5127              		.loc 1 1297 0
 5128 02c2 0022     		movs	r2, #0
ARM GAS  C:\Users\RECEPC~1\AppData\Local\Temp\ccp152bc.s 			page 142


 5129 02c4 064B     		ldr	r3, .L497
 5130 02c6 1A60     		str	r2, [r3]
1298:.\main.c      ****                         break;
 5131              		.loc 1 1298 0
 5132 02c8 0220     		movs	r0, #2
 5133 02ca 0121     		movs	r1, #1
 5134 02cc FFF7FEFF 		bl	SetPicture
 5135              	.LVL491:
 5136              	.L324:
1302:.\main.c      ****                 Display2_ClearRxBuffer();
 5137              		.loc 1 1302 0
 5138 02d0 0A20     		movs	r0, #10
 5139 02d2 FFF7FEFF 		bl	CyDelay
 5140              	.LVL492:
1303:.\main.c      ****             }
 5141              		.loc 1 1303 0
 5142 02d6 FFF7FEFF 		bl	Display2_ClearRxBuffer
 5143              	.LVL493:
 5144 02da 01F06EB8 		b	.L293
 5145              	.L498:
 5146 02de 00BF     		.align	2
 5147              	.L497:
 5148 02e0 00000000 		.word	flowDisplay2
 5149 02e4 00000000 		.word	side
 5150 02e8 00000000 		.word	count_protector2
 5151 02ec 00000000 		.word	bufferDisplay2
 5152 02f0 00000000 		.word	Display2_rxBuffer
 5153 02f4 00000000 		.word	count_protector
 5154 02f8 00000000 		.word	numberKeys1
 5155 02fc 00000000 		.word	digits
 5156              	.L300:
1308:.\main.c      ****                 case 0:  //Pantalla Inicial    
 5157              		.loc 1 1308 0
 5158 0300 0220     		movs	r0, #2
 5159 0302 894B     		ldr	r3, .L499
 5160 0304 1978     		ldrb	r1, [r3]	@ zero_extendqisi2
 5161 0306 0022     		movs	r2, #0
 5162 0308 FFF7FEFF 		bl	alphanumeric_keyboard
 5163              	.LVL494:
 5164 030c 18B1     		cbz	r0, .L336
 5165 030e 0128     		cmp	r0, #1
 5166 0310 15D0     		beq	.L477
 5167 0312 01F052B8 		b	.L293
 5168              	.L336:
1310:.\main.c      ****                     SetPicture(2,DISPLAY_INICIO0);                            
 5169              		.loc 1 1310 0
 5170 0316 0022     		movs	r2, #0
 5171 0318 844B     		ldr	r3, .L499+4
 5172 031a 1A60     		str	r2, [r3]
1311:.\main.c      ****                 break;
 5173              		.loc 1 1311 0
 5174 031c 0220     		movs	r0, #2
 5175 031e 0121     		movs	r1, #1
 5176 0320 FFF7FEFF 		bl	SetPicture
 5177              	.LVL495:
1312:.\main.c      ****                     
 5178              		.loc 1 1312 0
ARM GAS  C:\Users\RECEPC~1\AppData\Local\Temp\ccp152bc.s 			page 143


 5179 0324 01F049B8 		b	.L293
 5180              	.LVL496:
 5181              	.L338:
1316:.\main.c      ****                         bufferDisplay2.presetValue[1][x]=bufferDisplay2.valueKeys[x];
 5182              		.loc 1 1316 0 discriminator 3
 5183 0328 814A     		ldr	r2, .L499+8
 5184 032a 1A44     		add	r2, r2, r3
 5185 032c 92F84B10 		ldrb	r1, [r2, #75]	@ zero_extendqisi2
 5186 0330 82F86510 		strb	r1, [r2, #101]
1317:.\main.c      ****                     }  
 5187              		.loc 1 1317 0 discriminator 3
 5188 0334 82F86F10 		strb	r1, [r2, #111]
1315:.\main.c      ****                         bufferDisplay2.presetValue[0][x]=bufferDisplay2.valueKeys[x];
 5189              		.loc 1 1315 0 discriminator 3
 5190 0338 0133     		adds	r3, r3, #1
 5191              	.LVL497:
 5192 033a DBB2     		uxtb	r3, r3
 5193              	.LVL498:
 5194 033c 00E0     		b	.L337
 5195              	.LVL499:
 5196              	.L477:
1308:.\main.c      ****                 case 0:  //Pantalla Inicial    
 5197              		.loc 1 1308 0
 5198 033e 0023     		movs	r3, #0
 5199              	.L337:
 5200              	.LVL500:
1315:.\main.c      ****                         bufferDisplay2.presetValue[0][x]=bufferDisplay2.valueKeys[x];
 5201              		.loc 1 1315 0 discriminator 1
 5202 0340 7B4A     		ldr	r2, .L499+8
 5203 0342 92F84B20 		ldrb	r2, [r2, #75]	@ zero_extendqisi2
 5204 0346 9A42     		cmp	r2, r3
 5205 0348 EED2     		bcs	.L338
1319:.\main.c      ****                     SetPicture(2,DISPLAY_SELECCIONE_PRODUCTO4);
 5206              		.loc 1 1319 0
 5207 034a 0522     		movs	r2, #5
 5208 034c 774B     		ldr	r3, .L499+4
 5209              	.LVL501:
 5210 034e 1A60     		str	r2, [r3]
1320:.\main.c      ****                 break;
 5211              		.loc 1 1320 0
 5212 0350 0220     		movs	r0, #2
 5213 0352 8621     		movs	r1, #134
 5214 0354 FFF7FEFF 		bl	SetPicture
 5215              	.LVL502:
1321:.\main.c      ****             }
 5216              		.loc 1 1321 0
 5217 0358 01F02FB8 		b	.L293
 5218              	.L301:
1326:.\main.c      ****                 if((Display2_rxBuffer[0]==0xAA) && (Display2_rxBuffer[6]==0xC3) && (Display2_rxBuff
 5219              		.loc 1 1326 0
 5220 035c FFF7FEFF 		bl	Display2_GetRxBufferSize
 5221              	.LVL503:
 5222 0360 0828     		cmp	r0, #8
 5223 0362 41F02A80 		bne	.L293
1327:.\main.c      ****                     switch(Display2_rxBuffer[3]){
 5224              		.loc 1 1327 0
 5225 0366 734B     		ldr	r3, .L499+12
ARM GAS  C:\Users\RECEPC~1\AppData\Local\Temp\ccp152bc.s 			page 144


 5226 0368 1B78     		ldrb	r3, [r3]	@ zero_extendqisi2
 5227 036a DBB2     		uxtb	r3, r3
 5228 036c AA2B     		cmp	r3, #170
 5229 036e 6CD1     		bne	.L339
1327:.\main.c      ****                     switch(Display2_rxBuffer[3]){
 5230              		.loc 1 1327 0 is_stmt 0 discriminator 1
 5231 0370 704B     		ldr	r3, .L499+12
 5232 0372 9B79     		ldrb	r3, [r3, #6]	@ zero_extendqisi2
 5233 0374 DBB2     		uxtb	r3, r3
 5234 0376 C32B     		cmp	r3, #195
 5235 0378 67D1     		bne	.L339
1327:.\main.c      ****                     switch(Display2_rxBuffer[3]){
 5236              		.loc 1 1327 0 discriminator 2
 5237 037a 6E4B     		ldr	r3, .L499+12
 5238 037c DB79     		ldrb	r3, [r3, #7]	@ zero_extendqisi2
 5239 037e DBB2     		uxtb	r3, r3
 5240 0380 3C2B     		cmp	r3, #60
 5241 0382 62D1     		bne	.L339
1328:.\main.c      ****                         case 0x80:  //Grado 1 
 5242              		.loc 1 1328 0 is_stmt 1
 5243 0384 6B4B     		ldr	r3, .L499+12
 5244 0386 DB78     		ldrb	r3, [r3, #3]	@ zero_extendqisi2
 5245 0388 7E3B     		subs	r3, r3, #126
 5246 038a 3A2B     		cmp	r3, #58
 5247 038c 5DD8     		bhi	.L339
 5248 038e DFE803F0 		tbb	[pc, r3]
 5249              	.L341:
 5250 0392 55       		.byte	(.L340-.L341)/2
 5251 0393 35       		.byte	(.L342-.L341)/2
 5252 0394 1E       		.byte	(.L343-.L341)/2
 5253 0395 2A       		.byte	(.L344-.L341)/2
 5254 0396 5C       		.byte	(.L339-.L341)/2
 5255 0397 5C       		.byte	(.L339-.L341)/2
 5256 0398 5C       		.byte	(.L339-.L341)/2
 5257 0399 5C       		.byte	(.L339-.L341)/2
 5258 039a 5C       		.byte	(.L339-.L341)/2
 5259 039b 5C       		.byte	(.L339-.L341)/2
 5260 039c 5C       		.byte	(.L339-.L341)/2
 5261 039d 5C       		.byte	(.L339-.L341)/2
 5262 039e 5C       		.byte	(.L339-.L341)/2
 5263 039f 5C       		.byte	(.L339-.L341)/2
 5264 03a0 5C       		.byte	(.L339-.L341)/2
 5265 03a1 5C       		.byte	(.L339-.L341)/2
 5266 03a2 5C       		.byte	(.L339-.L341)/2
 5267 03a3 5C       		.byte	(.L339-.L341)/2
 5268 03a4 5C       		.byte	(.L339-.L341)/2
 5269 03a5 5C       		.byte	(.L339-.L341)/2
 5270 03a6 5C       		.byte	(.L339-.L341)/2
 5271 03a7 5C       		.byte	(.L339-.L341)/2
 5272 03a8 4D       		.byte	(.L345-.L341)/2
 5273 03a9 5C       		.byte	(.L339-.L341)/2
 5274 03aa 5C       		.byte	(.L339-.L341)/2
 5275 03ab 5C       		.byte	(.L339-.L341)/2
 5276 03ac 5C       		.byte	(.L339-.L341)/2
 5277 03ad 5C       		.byte	(.L339-.L341)/2
 5278 03ae 5C       		.byte	(.L339-.L341)/2
 5279 03af 5C       		.byte	(.L339-.L341)/2
ARM GAS  C:\Users\RECEPC~1\AppData\Local\Temp\ccp152bc.s 			page 145


 5280 03b0 5C       		.byte	(.L339-.L341)/2
 5281 03b1 5C       		.byte	(.L339-.L341)/2
 5282 03b2 5C       		.byte	(.L339-.L341)/2
 5283 03b3 5C       		.byte	(.L339-.L341)/2
 5284 03b4 5C       		.byte	(.L339-.L341)/2
 5285 03b5 5C       		.byte	(.L339-.L341)/2
 5286 03b6 5C       		.byte	(.L339-.L341)/2
 5287 03b7 5C       		.byte	(.L339-.L341)/2
 5288 03b8 5C       		.byte	(.L339-.L341)/2
 5289 03b9 5C       		.byte	(.L339-.L341)/2
 5290 03ba 5C       		.byte	(.L339-.L341)/2
 5291 03bb 5C       		.byte	(.L339-.L341)/2
 5292 03bc 5C       		.byte	(.L339-.L341)/2
 5293 03bd 5C       		.byte	(.L339-.L341)/2
 5294 03be 5C       		.byte	(.L339-.L341)/2
 5295 03bf 5C       		.byte	(.L339-.L341)/2
 5296 03c0 5C       		.byte	(.L339-.L341)/2
 5297 03c1 5C       		.byte	(.L339-.L341)/2
 5298 03c2 5C       		.byte	(.L339-.L341)/2
 5299 03c3 5C       		.byte	(.L339-.L341)/2
 5300 03c4 5C       		.byte	(.L339-.L341)/2
 5301 03c5 5C       		.byte	(.L339-.L341)/2
 5302 03c6 5C       		.byte	(.L339-.L341)/2
 5303 03c7 5C       		.byte	(.L339-.L341)/2
 5304 03c8 5C       		.byte	(.L339-.L341)/2
 5305 03c9 5C       		.byte	(.L339-.L341)/2
 5306 03ca 5C       		.byte	(.L339-.L341)/2
 5307 03cb 5C       		.byte	(.L339-.L341)/2
 5308 03cc 41       		.byte	(.L346-.L341)/2
 5309 03cd 00       		.p2align 1
 5310              	.L343:
1330:.\main.c      ****                             side.b.hose = 1;
 5311              		.loc 1 1330 0
 5312 03ce 0622     		movs	r2, #6
 5313 03d0 564B     		ldr	r3, .L499+4
 5314 03d2 1A60     		str	r2, [r3]
1331:.\main.c      ****                             SetPicture(2,DISPLAY_DESEA_IMPRIMIR_RECIBO);                           
 5315              		.loc 1 1331 0
 5316 03d4 0122     		movs	r2, #1
 5317 03d6 584B     		ldr	r3, .L499+16
 5318 03d8 83F80922 		strb	r2, [r3, #521]
1332:.\main.c      ****                         break;
 5319              		.loc 1 1332 0
 5320 03dc 0220     		movs	r0, #2
 5321 03de 0B21     		movs	r1, #11
 5322 03e0 FFF7FEFF 		bl	SetPicture
 5323              	.LVL504:
1333:.\main.c      ****                             
 5324              		.loc 1 1333 0
 5325 03e4 31E0     		b	.L339
 5326              	.L344:
1336:.\main.c      ****                             side.b.hose = 2;
 5327              		.loc 1 1336 0
 5328 03e6 0622     		movs	r2, #6
 5329 03e8 504B     		ldr	r3, .L499+4
 5330 03ea 1A60     		str	r2, [r3]
1337:.\main.c      ****                             SetPicture(2,DISPLAY_DESEA_IMPRIMIR_RECIBO);                           
ARM GAS  C:\Users\RECEPC~1\AppData\Local\Temp\ccp152bc.s 			page 146


 5331              		.loc 1 1337 0
 5332 03ec 0220     		movs	r0, #2
 5333 03ee 524B     		ldr	r3, .L499+16
 5334 03f0 83F80902 		strb	r0, [r3, #521]
1338:.\main.c      ****                         break;
 5335              		.loc 1 1338 0
 5336 03f4 0B21     		movs	r1, #11
 5337 03f6 FFF7FEFF 		bl	SetPicture
 5338              	.LVL505:
1339:.\main.c      ****                             
 5339              		.loc 1 1339 0
 5340 03fa 26E0     		b	.L339
 5341              	.L342:
1342:.\main.c      ****                             side.b.hose = 3;
 5342              		.loc 1 1342 0
 5343 03fc 0622     		movs	r2, #6
 5344 03fe 4B4B     		ldr	r3, .L499+4
 5345 0400 1A60     		str	r2, [r3]
1343:.\main.c      ****                             SetPicture(2,DISPLAY_DESEA_IMPRIMIR_RECIBO);                           
 5346              		.loc 1 1343 0
 5347 0402 0322     		movs	r2, #3
 5348 0404 4C4B     		ldr	r3, .L499+16
 5349 0406 83F80922 		strb	r2, [r3, #521]
1344:.\main.c      ****                         break;   
 5350              		.loc 1 1344 0
 5351 040a 0220     		movs	r0, #2
 5352 040c 0B21     		movs	r1, #11
 5353 040e FFF7FEFF 		bl	SetPicture
 5354              	.LVL506:
1345:.\main.c      ****                         
 5355              		.loc 1 1345 0
 5356 0412 1AE0     		b	.L339
 5357              	.L346:
1348:.\main.c      ****                             side.b.hose = 4;
 5358              		.loc 1 1348 0
 5359 0414 0622     		movs	r2, #6
 5360 0416 454B     		ldr	r3, .L499+4
 5361 0418 1A60     		str	r2, [r3]
1349:.\main.c      ****                             SetPicture(2,DISPLAY_DESEA_IMPRIMIR_RECIBO);                           
 5362              		.loc 1 1349 0
 5363 041a 0422     		movs	r2, #4
 5364 041c 464B     		ldr	r3, .L499+16
 5365 041e 83F80922 		strb	r2, [r3, #521]
1350:.\main.c      ****                         break;
 5366              		.loc 1 1350 0
 5367 0422 0220     		movs	r0, #2
 5368 0424 0B21     		movs	r1, #11
 5369 0426 FFF7FEFF 		bl	SetPicture
 5370              	.LVL507:
1351:.\main.c      ****                             
 5371              		.loc 1 1351 0
 5372 042a 0EE0     		b	.L339
 5373              	.L345:
1354:.\main.c      ****                             SetPicture(2,DISPLAY_INICIO0);                                         
 5374              		.loc 1 1354 0
 5375 042c 0022     		movs	r2, #0
 5376 042e 3F4B     		ldr	r3, .L499+4
ARM GAS  C:\Users\RECEPC~1\AppData\Local\Temp\ccp152bc.s 			page 147


 5377 0430 1A60     		str	r2, [r3]
1355:.\main.c      ****                         break;
 5378              		.loc 1 1355 0
 5379 0432 0220     		movs	r0, #2
 5380 0434 0121     		movs	r1, #1
 5381 0436 FFF7FEFF 		bl	SetPicture
 5382              	.LVL508:
1356:.\main.c      ****                             
 5383              		.loc 1 1356 0
 5384 043a 06E0     		b	.L339
 5385              	.L340:
1359:.\main.c      ****                             flowDisplay2 = 0;
 5386              		.loc 1 1359 0
 5387 043c 0220     		movs	r0, #2
 5388 043e 0121     		movs	r1, #1
 5389 0440 FFF7FEFF 		bl	SetPicture
 5390              	.LVL509:
1360:.\main.c      ****                         break;
 5391              		.loc 1 1360 0
 5392 0444 0022     		movs	r2, #0
 5393 0446 394B     		ldr	r3, .L499+4
 5394 0448 1A60     		str	r2, [r3]
 5395              	.L339:
1364:.\main.c      ****                 Display2_ClearRxBuffer();
 5396              		.loc 1 1364 0
 5397 044a 0A20     		movs	r0, #10
 5398 044c FFF7FEFF 		bl	CyDelay
 5399              	.LVL510:
1365:.\main.c      ****             }
 5400              		.loc 1 1365 0
 5401 0450 FFF7FEFF 		bl	Display2_ClearRxBuffer
 5402              	.LVL511:
 5403 0454 00F0B1BF 		b	.L293
 5404              	.L302:
1370:.\main.c      ****             Timer_Animacion_Start();
 5405              		.loc 1 1370 0
 5406 0458 3848     		ldr	r0, .L499+20
 5407 045a FFF7FEFF 		bl	isr_3_StartEx
 5408              	.LVL512:
1371:.\main.c      ****             if(Display2_GetRxBufferSize()==8){
 5409              		.loc 1 1371 0
 5410 045e FFF7FEFF 		bl	Timer_Animacion_Start
 5411              	.LVL513:
1372:.\main.c      ****                 if((Display2_rxBuffer[0]==0xAA) && (Display2_rxBuffer[6]==0xC3) && (Display2_rxBuff
 5412              		.loc 1 1372 0
 5413 0462 FFF7FEFF 		bl	Display2_GetRxBufferSize
 5414              	.LVL514:
 5415 0466 0828     		cmp	r0, #8
 5416 0468 4ED1     		bne	.L347
1373:.\main.c      ****                     switch(Display2_rxBuffer[3]){
 5417              		.loc 1 1373 0
 5418 046a 324B     		ldr	r3, .L499+12
 5419 046c 1B78     		ldrb	r3, [r3]	@ zero_extendqisi2
 5420 046e DBB2     		uxtb	r3, r3
 5421 0470 AA2B     		cmp	r3, #170
 5422 0472 44D1     		bne	.L348
1373:.\main.c      ****                     switch(Display2_rxBuffer[3]){
ARM GAS  C:\Users\RECEPC~1\AppData\Local\Temp\ccp152bc.s 			page 148


 5423              		.loc 1 1373 0 is_stmt 0 discriminator 1
 5424 0474 2F4B     		ldr	r3, .L499+12
 5425 0476 9B79     		ldrb	r3, [r3, #6]	@ zero_extendqisi2
 5426 0478 DBB2     		uxtb	r3, r3
 5427 047a C32B     		cmp	r3, #195
 5428 047c 3FD1     		bne	.L348
1373:.\main.c      ****                     switch(Display2_rxBuffer[3]){
 5429              		.loc 1 1373 0 discriminator 2
 5430 047e 2D4B     		ldr	r3, .L499+12
 5431 0480 DB79     		ldrb	r3, [r3, #7]	@ zero_extendqisi2
 5432 0482 DBB2     		uxtb	r3, r3
 5433 0484 3C2B     		cmp	r3, #60
 5434 0486 3AD1     		bne	.L348
1374:.\main.c      ****                         case 0x39:  //Si imprimir  
 5435              		.loc 1 1374 0 is_stmt 1
 5436 0488 2A4B     		ldr	r3, .L499+12
 5437 048a DB78     		ldrb	r3, [r3, #3]	@ zero_extendqisi2
 5438 048c DBB2     		uxtb	r3, r3
 5439 048e 392B     		cmp	r3, #57
 5440 0490 04D0     		beq	.L349
 5441 0492 7E2B     		cmp	r3, #126
 5442 0494 2CD0     		beq	.L350
 5443 0496 382B     		cmp	r3, #56
 5444 0498 31D1     		bne	.L348
 5445 049a 10E0     		b	.L351
 5446              	.L349:
1376:.\main.c      ****                             numberKeys1 = 0;
 5447              		.loc 1 1376 0
 5448 049c 0922     		movs	r2, #9
 5449 049e 234B     		ldr	r3, .L499+4
 5450 04a0 1A60     		str	r2, [r3]
1377:.\main.c      ****                             bufferDisplay2.flagKeyboard = 1;
 5451              		.loc 1 1377 0
 5452 04a2 0022     		movs	r2, #0
 5453 04a4 264B     		ldr	r3, .L499+24
 5454 04a6 1A70     		strb	r2, [r3]
1378:.\main.c      ****                             bufferDisplay2.flagPrint =  1;
 5455              		.loc 1 1378 0
 5456 04a8 214B     		ldr	r3, .L499+8
 5457 04aa 0122     		movs	r2, #1
 5458 04ac 83F80021 		strb	r2, [r3, #256]
1379:.\main.c      ****                             SetPicture(2,DISPLAY_DIGITE_PLACA);                            
 5459              		.loc 1 1379 0
 5460 04b0 83F83421 		strb	r2, [r3, #308]
1380:.\main.c      ****                         break; 
 5461              		.loc 1 1380 0
 5462 04b4 0220     		movs	r0, #2
 5463 04b6 0A21     		movs	r1, #10
 5464 04b8 FFF7FEFF 		bl	SetPicture
 5465              	.LVL515:
1381:.\main.c      ****                         case 0x38:  //No imprimir 
 5466              		.loc 1 1381 0
 5467 04bc 1FE0     		b	.L348
 5468              	.L351:
1383:.\main.c      ****                                 flowDisplay2 = 0;
 5469              		.loc 1 1383 0
 5470 04be 1C4B     		ldr	r3, .L499+8
ARM GAS  C:\Users\RECEPC~1\AppData\Local\Temp\ccp152bc.s 			page 149


 5471 04c0 93F80331 		ldrb	r3, [r3, #259]	@ zero_extendqisi2
 5472 04c4 3BB1     		cbz	r3, .L352
1384:.\main.c      ****                                 SetPicture(2,DISPLAY_INICIO0);
 5473              		.loc 1 1384 0
 5474 04c6 0022     		movs	r2, #0
 5475 04c8 184B     		ldr	r3, .L499+4
 5476 04ca 1A60     		str	r2, [r3]
1385:.\main.c      ****                             }else{
 5477              		.loc 1 1385 0
 5478 04cc 0220     		movs	r0, #2
 5479 04ce 0121     		movs	r1, #1
 5480 04d0 FFF7FEFF 		bl	SetPicture
 5481              	.LVL516:
 5482 04d4 13E0     		b	.L348
 5483              	.L352:
1387:.\main.c      ****                                 bufferDisplay2.flagPrint =  0;
 5484              		.loc 1 1387 0
 5485 04d6 0721     		movs	r1, #7
 5486 04d8 144B     		ldr	r3, .L499+4
 5487 04da 1960     		str	r1, [r3]
1388:.\main.c      ****                                 count_protector=0;
 5488              		.loc 1 1388 0
 5489 04dc 0023     		movs	r3, #0
 5490 04de 144A     		ldr	r2, .L499+8
 5491 04e0 82F83431 		strb	r3, [r2, #308]
1389:.\main.c      ****                                 SetPicture(2,DISPLAY_SUBA_MANIJA);
 5492              		.loc 1 1389 0
 5493 04e4 174A     		ldr	r2, .L499+28
 5494 04e6 1370     		strb	r3, [r2]
1390:.\main.c      ****                             }
 5495              		.loc 1 1390 0
 5496 04e8 0220     		movs	r0, #2
 5497 04ea FFF7FEFF 		bl	SetPicture
 5498              	.LVL517:
 5499 04ee 06E0     		b	.L348
 5500              	.L350:
1394:.\main.c      ****                             SetPicture(2,DISPLAY_INICIO0);
 5501              		.loc 1 1394 0
 5502 04f0 0022     		movs	r2, #0
 5503 04f2 0E4B     		ldr	r3, .L499+4
 5504 04f4 1A60     		str	r2, [r3]
1395:.\main.c      ****                         break;
 5505              		.loc 1 1395 0
 5506 04f6 0220     		movs	r0, #2
 5507 04f8 0121     		movs	r1, #1
 5508 04fa FFF7FEFF 		bl	SetPicture
 5509              	.LVL518:
 5510              	.L348:
1399:.\main.c      ****                 Display2_ClearRxBuffer();
 5511              		.loc 1 1399 0
 5512 04fe 0A20     		movs	r0, #10
 5513 0500 FFF7FEFF 		bl	CyDelay
 5514              	.LVL519:
1400:.\main.c      ****             }
 5515              		.loc 1 1400 0
 5516 0504 FFF7FEFF 		bl	Display2_ClearRxBuffer
 5517              	.LVL520:
ARM GAS  C:\Users\RECEPC~1\AppData\Local\Temp\ccp152bc.s 			page 150


 5518              	.L347:
1402:.\main.c      ****                 flowDisplay2 = 0;	
 5519              		.loc 1 1402 0
 5520 0508 0E4B     		ldr	r3, .L499+28
 5521 050a 1B78     		ldrb	r3, [r3]	@ zero_extendqisi2
 5522 050c 1D2B     		cmp	r3, #29
 5523 050e 40F25487 		bls	.L293
1403:.\main.c      ****     			count_protector=0;
 5524              		.loc 1 1403 0
 5525 0512 0023     		movs	r3, #0
 5526 0514 054A     		ldr	r2, .L499+4
 5527 0516 1360     		str	r3, [r2]
1404:.\main.c      ****                 SetPicture(2,DISPLAY_INICIO0);
 5528              		.loc 1 1404 0
 5529 0518 0A4A     		ldr	r2, .L499+28
 5530 051a 1370     		strb	r3, [r2]
1405:.\main.c      ****     		}
 5531              		.loc 1 1405 0
 5532 051c 0220     		movs	r0, #2
 5533 051e 0121     		movs	r1, #1
 5534 0520 FFF7FEFF 		bl	SetPicture
 5535              	.LVL521:
 5536 0524 00F049BF 		b	.L293
 5537              	.L500:
 5538              		.align	2
 5539              	.L499:
 5540 0528 00000000 		.word	digits
 5541 052c 00000000 		.word	flowDisplay2
 5542 0530 00000000 		.word	bufferDisplay2
 5543 0534 00000000 		.word	Display2_rxBuffer
 5544 0538 00000000 		.word	side
 5545 053c 00000000 		.word	animacion
 5546 0540 00000000 		.word	numberKeys1
 5547 0544 00000000 		.word	count_protector
 5548              	.L303:
1413:.\main.c      ****             if (side.b.activeHose == side.b.hose){                
 5549              		.loc 1 1413 0
 5550 0548 AE4C     		ldr	r4, .L501
 5551 054a 94F80801 		ldrb	r0, [r4, #264]	@ zero_extendqisi2
 5552 054e FFF7FEFF 		bl	PumpHoseActiveState
 5553              	.LVL522:
 5554 0552 0146     		mov	r1, r0
 5555 0554 84F80802 		strb	r0, [r4, #520]
1414:.\main.c      ****                 if(PresetData(side.b.dir,side.b.activeHose,bufferDisplay2.presetValue[0],bufferDisp
 5556              		.loc 1 1414 0
 5557 0558 94F80932 		ldrb	r3, [r4, #521]	@ zero_extendqisi2
 5558 055c 9842     		cmp	r0, r3
 5559 055e 39D1     		bne	.L353
1415:.\main.c      ****                     isr_4_Stop(); 
 5560              		.loc 1 1415 0
 5561 0560 A94A     		ldr	r2, .L501+4
 5562 0562 92F86330 		ldrb	r3, [r2, #99]	@ zero_extendqisi2
 5563 0566 94F80801 		ldrb	r0, [r4, #264]	@ zero_extendqisi2
 5564 056a 6532     		adds	r2, r2, #101
 5565 056c 03F00303 		and	r3, r3, #3
 5566 0570 FFF7FEFF 		bl	PresetData
 5567              	.LVL523:
ARM GAS  C:\Users\RECEPC~1\AppData\Local\Temp\ccp152bc.s 			page 151


 5568 0574 0128     		cmp	r0, #1
 5569 0576 1FD1     		bne	.L354
1416:.\main.c      ****                     Timer_Animacion2_Stop();
 5570              		.loc 1 1416 0
 5571 0578 FFF7FEFF 		bl	isr_4_Stop
 5572              	.LVL524:
1417:.\main.c      ****                     get_state(side.b.dir);
 5573              		.loc 1 1417 0
 5574 057c FFF7FEFF 		bl	Timer_Animacion2_Stop
 5575              	.LVL525:
1418:.\main.c      ****                     //CyDelay(20);
 5576              		.loc 1 1418 0
 5577 0580 94F80801 		ldrb	r0, [r4, #264]	@ zero_extendqisi2
 5578 0584 FFF7FEFF 		bl	get_state
 5579              	.LVL526:
1420:.\main.c      ****                     //CyDelay(50);
 5580              		.loc 1 1420 0
 5581 0588 94F80801 		ldrb	r0, [r4, #264]	@ zero_extendqisi2
 5582 058c 40F01000 		orr	r0, r0, #16
 5583 0590 FFF7FEFF 		bl	Pump_PutChar
 5584              	.LVL527:
1422:.\main.c      ****                     flowDisplay2 = 8;                    
 5585              		.loc 1 1422 0
 5586 0594 0123     		movs	r3, #1
 5587 0596 84F80F32 		strb	r3, [r4, #527]
1423:.\main.c      ****                     count_protector2 = 0;                                            
 5588              		.loc 1 1423 0
 5589 059a 0821     		movs	r1, #8
 5590 059c 9B4B     		ldr	r3, .L501+8
 5591 059e 1960     		str	r1, [r3]
1424:.\main.c      ****                     SetPicture(2,DISPLAY_DESPACHANDO);   
 5592              		.loc 1 1424 0
 5593 05a0 0022     		movs	r2, #0
 5594 05a2 9B4B     		ldr	r3, .L501+12
 5595 05a4 1A70     		strb	r2, [r3]
1425:.\main.c      ****                     ShowMessage(2,(bufferDisplay2.presetValue[0]),18);
 5596              		.loc 1 1425 0
 5597 05a6 0220     		movs	r0, #2
 5598 05a8 FFF7FEFF 		bl	SetPicture
 5599              	.LVL528:
1426:.\main.c      ****                 }else{
 5600              		.loc 1 1426 0
 5601 05ac 0220     		movs	r0, #2
 5602 05ae 9949     		ldr	r1, .L501+16
 5603 05b0 1222     		movs	r2, #18
 5604 05b2 FFF7FEFF 		bl	ShowMessage
 5605              	.LVL529:
 5606 05b6 10E0     		b	.L355
 5607              	.L354:
1428:.\main.c      ****                     SetPicture(2,DISPLAY_ERROR);
 5608              		.loc 1 1428 0
 5609 05b8 0021     		movs	r1, #0
 5610 05ba 944B     		ldr	r3, .L501+8
 5611 05bc 1960     		str	r1, [r3]
1429:.\main.c      ****                     CyDelay(200);
 5612              		.loc 1 1429 0
 5613 05be 0220     		movs	r0, #2
ARM GAS  C:\Users\RECEPC~1\AppData\Local\Temp\ccp152bc.s 			page 152


 5614 05c0 FFF7FEFF 		bl	SetPicture
 5615              	.LVL530:
1430:.\main.c      ****                     SetPicture(2,DISPLAY_INICIO0);
 5616              		.loc 1 1430 0
 5617 05c4 C820     		movs	r0, #200
 5618 05c6 FFF7FEFF 		bl	CyDelay
 5619              	.LVL531:
1431:.\main.c      ****                 }
 5620              		.loc 1 1431 0
 5621 05ca 0220     		movs	r0, #2
 5622 05cc 0121     		movs	r1, #1
 5623 05ce FFF7FEFF 		bl	SetPicture
 5624              	.LVL532:
 5625 05d2 02E0     		b	.L355
 5626              	.L353:
1434:.\main.c      **** //                if(count_protector>=60){
 5627              		.loc 1 1434 0
 5628 05d4 0722     		movs	r2, #7
 5629 05d6 8D4B     		ldr	r3, .L501+8
 5630 05d8 1A60     		str	r2, [r3]
 5631              	.L355:
1441:.\main.c      ****                 if((Display2_rxBuffer[0]==0xAA) && (Display2_rxBuffer[6]==0xC3) && (Display2_rxBuff
 5632              		.loc 1 1441 0
 5633 05da FFF7FEFF 		bl	Display2_GetRxBufferSize
 5634              	.LVL533:
 5635 05de 0828     		cmp	r0, #8
 5636 05e0 1DD1     		bne	.L356
1442:.\main.c      ****                     switch(Display2_rxBuffer[3]){                        
 5637              		.loc 1 1442 0
 5638 05e2 8D4B     		ldr	r3, .L501+20
 5639 05e4 1B78     		ldrb	r3, [r3]	@ zero_extendqisi2
 5640 05e6 DBB2     		uxtb	r3, r3
 5641 05e8 AA2B     		cmp	r3, #170
 5642 05ea 15D1     		bne	.L357
1442:.\main.c      ****                     switch(Display2_rxBuffer[3]){                        
 5643              		.loc 1 1442 0 is_stmt 0 discriminator 1
 5644 05ec 8A4B     		ldr	r3, .L501+20
 5645 05ee 9B79     		ldrb	r3, [r3, #6]	@ zero_extendqisi2
 5646 05f0 DBB2     		uxtb	r3, r3
 5647 05f2 C32B     		cmp	r3, #195
 5648 05f4 10D1     		bne	.L357
1442:.\main.c      ****                     switch(Display2_rxBuffer[3]){                        
 5649              		.loc 1 1442 0 discriminator 2
 5650 05f6 884B     		ldr	r3, .L501+20
 5651 05f8 DB79     		ldrb	r3, [r3, #7]	@ zero_extendqisi2
 5652 05fa DBB2     		uxtb	r3, r3
 5653 05fc 3C2B     		cmp	r3, #60
 5654 05fe 0BD1     		bne	.L357
1443:.\main.c      ****                         case 0x7E:  //Pantalla Inicial                                             
 5655              		.loc 1 1443 0 is_stmt 1
 5656 0600 854B     		ldr	r3, .L501+20
 5657 0602 DB78     		ldrb	r3, [r3, #3]	@ zero_extendqisi2
 5658 0604 DBB2     		uxtb	r3, r3
 5659 0606 7E2B     		cmp	r3, #126
 5660 0608 06D1     		bne	.L357
1445:.\main.c      ****                             flowDisplay2 = 0;
 5661              		.loc 1 1445 0
ARM GAS  C:\Users\RECEPC~1\AppData\Local\Temp\ccp152bc.s 			page 153


 5662 060a 0220     		movs	r0, #2
 5663 060c 0121     		movs	r1, #1
 5664 060e FFF7FEFF 		bl	SetPicture
 5665              	.LVL534:
1446:.\main.c      ****                         break;
 5666              		.loc 1 1446 0
 5667 0612 0022     		movs	r2, #0
 5668 0614 7D4B     		ldr	r3, .L501+8
 5669 0616 1A60     		str	r2, [r3]
 5670              	.L357:
1450:.\main.c      ****             }
 5671              		.loc 1 1450 0
 5672 0618 0A20     		movs	r0, #10
 5673 061a FFF7FEFF 		bl	CyDelay
 5674              	.LVL535:
 5675              	.L356:
1452:.\main.c      ****         break;
 5676              		.loc 1 1452 0
 5677 061e FFF7FEFF 		bl	Display2_ClearRxBuffer
 5678              	.LVL536:
1453:.\main.c      ****             
 5679              		.loc 1 1453 0
 5680 0622 00F0CABE 		b	.L293
 5681              	.L304:
1456:.\main.c      ****             switch (side.b.pumpState){
 5682              		.loc 1 1456 0
 5683 0626 774C     		ldr	r4, .L501
 5684 0628 94F80801 		ldrb	r0, [r4, #264]	@ zero_extendqisi2
 5685 062c FFF7FEFF 		bl	get_state
 5686              	.LVL537:
 5687 0630 84F80C02 		strb	r0, [r4, #524]
1457:.\main.c      ****                 case PUMP_IDLE: //Espera - venta cero
 5688              		.loc 1 1457 0
 5689 0634 0638     		subs	r0, r0, #6
 5690 0636 0528     		cmp	r0, #5
 5691 0638 00F2BF86 		bhi	.L293
 5692 063c DFE810F0 		tbh	[pc, r0, lsl #1]
 5693              	.L360:
 5694 0640 0600     		.2byte	(.L359-.L360)/2
 5695 0642 BD06     		.2byte	(.L293-.L360)/2
 5696 0644 BD06     		.2byte	(.L293-.L360)/2
 5697 0646 1600     		.2byte	(.L361-.L360)/2
 5698 0648 1F00     		.2byte	(.L362-.L360)/2
 5699 064a 5000     		.2byte	(.L363-.L360)/2
 5700              		.p2align 1
 5701              	.L359:
1459:.\main.c      ****                     side.b.rfState = RF_ZERO_SALE;
 5702              		.loc 1 1459 0
 5703 064c 0023     		movs	r3, #0
 5704 064e 6F4A     		ldr	r2, .L501+8
 5705 0650 1360     		str	r3, [r2]
1460:.\main.c      ****                     bufferDisplay2.flagActiveSale = false;
 5706              		.loc 1 1460 0
 5707 0652 0C21     		movs	r1, #12
 5708 0654 6B4A     		ldr	r2, .L501
 5709 0656 82F80B12 		strb	r1, [r2, #523]
1461:.\main.c      ****                     SetPicture(2,DISPLAY_INICIO0);
ARM GAS  C:\Users\RECEPC~1\AppData\Local\Temp\ccp152bc.s 			page 154


 5710              		.loc 1 1461 0
 5711 065a 6B4A     		ldr	r2, .L501+4
 5712 065c 82F83531 		strb	r3, [r2, #309]
1462:.\main.c      ****                 break;
 5713              		.loc 1 1462 0
 5714 0660 0220     		movs	r0, #2
 5715 0662 0121     		movs	r1, #1
 5716 0664 FFF7FEFF 		bl	SetPicture
 5717              	.LVL538:
1463:.\main.c      ****                 case PUMP_BUSY: //Surtiendo                    
 5718              		.loc 1 1463 0
 5719 0668 00F0A7BE 		b	.L293
 5720              	.L361:
1465:.\main.c      ****                     bufferDisplay2.flagEndSale = false;
 5721              		.loc 1 1465 0
 5722 066c 664B     		ldr	r3, .L501+4
 5723 066e 0122     		movs	r2, #1
 5724 0670 83F83521 		strb	r2, [r3, #309]
1466:.\main.c      ****                     //side.a.rfState = RF_DELIVERING;
 5725              		.loc 1 1466 0
 5726 0674 0022     		movs	r2, #0
 5727 0676 83F80321 		strb	r2, [r3, #259]
1468:.\main.c      ****                 case PUMP_PEOT: //reporte fin venta                    
 5728              		.loc 1 1468 0
 5729 067a 00F09EBE 		b	.L293
 5730              	.L362:
1470:.\main.c      ****                         if(bufferDisplay2.flagPrint ==1){
 5731              		.loc 1 1470 0
 5732 067e 614B     		ldr	r3, .L501
 5733 0680 93F80801 		ldrb	r0, [r3, #264]	@ zero_extendqisi2
 5734 0684 FFF7FEFF 		bl	getSale
 5735              	.LVL539:
 5736 0688 0028     		cmp	r0, #0
 5737 068a 00F09686 		beq	.L293
1471:.\main.c      ****                             imprimir(printPortB,side.b.dir);
 5738              		.loc 1 1471 0
 5739 068e 5E4B     		ldr	r3, .L501+4
 5740 0690 93F83431 		ldrb	r3, [r3, #308]	@ zero_extendqisi2
 5741 0694 012B     		cmp	r3, #1
 5742 0696 0ED1     		bne	.L364
1472:.\main.c      ****                             flowDisplay2 = 0;
 5743              		.loc 1 1472 0
 5744 0698 604B     		ldr	r3, .L501+24
 5745 069a 1878     		ldrb	r0, [r3]	@ zero_extendqisi2
 5746 069c 594B     		ldr	r3, .L501
 5747 069e 93F80811 		ldrb	r1, [r3, #264]	@ zero_extendqisi2
 5748 06a2 FFF7FEFF 		bl	imprimir
 5749              	.LVL540:
1473:.\main.c      ****                             SetPicture(2,DISPLAY_INICIO0); 
 5750              		.loc 1 1473 0
 5751 06a6 0022     		movs	r2, #0
 5752 06a8 584B     		ldr	r3, .L501+8
 5753 06aa 1A60     		str	r2, [r3]
1474:.\main.c      ****                         }else{
 5754              		.loc 1 1474 0
 5755 06ac 0220     		movs	r0, #2
 5756 06ae 0121     		movs	r1, #1
ARM GAS  C:\Users\RECEPC~1\AppData\Local\Temp\ccp152bc.s 			page 155


 5757 06b0 FFF7FEFF 		bl	SetPicture
 5758              	.LVL541:
 5759 06b4 0AE0     		b	.L365
 5760              	.L364:
1476:.\main.c      ****                             bufferDisplay2.flagEndSale = true;
 5761              		.loc 1 1476 0
 5762 06b6 0622     		movs	r2, #6
 5763 06b8 544B     		ldr	r3, .L501+8
 5764 06ba 1A60     		str	r2, [r3]
1477:.\main.c      ****                             SetPicture(2,DISPLAY_DESEA_IMPRIMIR_RECIBO); 
 5765              		.loc 1 1477 0
 5766 06bc 0122     		movs	r2, #1
 5767 06be 524B     		ldr	r3, .L501+4
 5768 06c0 83F80321 		strb	r2, [r3, #259]
1478:.\main.c      ****                         }
 5769              		.loc 1 1478 0
 5770 06c4 0220     		movs	r0, #2
 5771 06c6 0B21     		movs	r1, #11
 5772 06c8 FFF7FEFF 		bl	SetPicture
 5773              	.LVL542:
 5774              	.L365:
1480:.\main.c      ****                         side.b.RFstateReport = 1;
 5775              		.loc 1 1480 0
 5776 06cc 0022     		movs	r2, #0
 5777 06ce 4E4B     		ldr	r3, .L501+4
 5778 06d0 83F83521 		strb	r2, [r3, #309]
1481:.\main.c      ****                     }                                         
 5779              		.loc 1 1481 0
 5780 06d4 0122     		movs	r2, #1
 5781 06d6 4B4B     		ldr	r3, .L501
 5782 06d8 83F80F22 		strb	r2, [r3, #527]
 5783 06dc 00F06DBE 		b	.L293
 5784              	.L363:
1485:.\main.c      ****                         if(bufferDisplay2.flagPrint ==1){
 5785              		.loc 1 1485 0
 5786 06e0 484B     		ldr	r3, .L501
 5787 06e2 93F80801 		ldrb	r0, [r3, #264]	@ zero_extendqisi2
 5788 06e6 FFF7FEFF 		bl	getSale
 5789              	.LVL543:
 5790 06ea 0028     		cmp	r0, #0
 5791 06ec 00F06586 		beq	.L293
1486:.\main.c      ****                             imprimir(printPortB,side.b.dir);
 5792              		.loc 1 1486 0
 5793 06f0 454B     		ldr	r3, .L501+4
 5794 06f2 93F83431 		ldrb	r3, [r3, #308]	@ zero_extendqisi2
 5795 06f6 012B     		cmp	r3, #1
 5796 06f8 0ED1     		bne	.L366
1487:.\main.c      ****                             flowDisplay2 = 0;
 5797              		.loc 1 1487 0
 5798 06fa 484B     		ldr	r3, .L501+24
 5799 06fc 1878     		ldrb	r0, [r3]	@ zero_extendqisi2
 5800 06fe 414B     		ldr	r3, .L501
 5801 0700 93F80811 		ldrb	r1, [r3, #264]	@ zero_extendqisi2
 5802 0704 FFF7FEFF 		bl	imprimir
 5803              	.LVL544:
1488:.\main.c      ****                             SetPicture(2,DISPLAY_INICIO0); 
 5804              		.loc 1 1488 0
ARM GAS  C:\Users\RECEPC~1\AppData\Local\Temp\ccp152bc.s 			page 156


 5805 0708 0022     		movs	r2, #0
 5806 070a 404B     		ldr	r3, .L501+8
 5807 070c 1A60     		str	r2, [r3]
1489:.\main.c      ****                         }else{
 5808              		.loc 1 1489 0
 5809 070e 0220     		movs	r0, #2
 5810 0710 0121     		movs	r1, #1
 5811 0712 FFF7FEFF 		bl	SetPicture
 5812              	.LVL545:
 5813 0716 0AE0     		b	.L367
 5814              	.L366:
1491:.\main.c      ****                             bufferDisplay2.flagEndSale = true;
 5815              		.loc 1 1491 0
 5816 0718 0622     		movs	r2, #6
 5817 071a 3C4B     		ldr	r3, .L501+8
 5818 071c 1A60     		str	r2, [r3]
1492:.\main.c      ****                             SetPicture(2,DISPLAY_DESEA_IMPRIMIR_RECIBO); 
 5819              		.loc 1 1492 0
 5820 071e 0122     		movs	r2, #1
 5821 0720 394B     		ldr	r3, .L501+4
 5822 0722 83F80321 		strb	r2, [r3, #259]
1493:.\main.c      ****                         }
 5823              		.loc 1 1493 0
 5824 0726 0220     		movs	r0, #2
 5825 0728 0B21     		movs	r1, #11
 5826 072a FFF7FEFF 		bl	SetPicture
 5827              	.LVL546:
 5828              	.L367:
1495:.\main.c      ****                         side.b.RFstateReport = 1;
 5829              		.loc 1 1495 0
 5830 072e 0022     		movs	r2, #0
 5831 0730 354B     		ldr	r3, .L501+4
 5832 0732 83F83521 		strb	r2, [r3, #309]
1496:.\main.c      ****                     }
 5833              		.loc 1 1496 0
 5834 0736 0122     		movs	r2, #1
 5835 0738 324B     		ldr	r3, .L501
 5836 073a 83F80F22 		strb	r2, [r3, #527]
 5837 073e 00F03CBE 		b	.L293
 5838              	.L305:
1505:.\main.c      ****                 case 0: //Cancelar
 5839              		.loc 1 1505 0
 5840 0742 0220     		movs	r0, #2
 5841 0744 0A21     		movs	r1, #10
 5842 0746 0022     		movs	r2, #0
 5843 0748 FFF7FEFF 		bl	alphanumeric_keyboard
 5844              	.LVL547:
 5845 074c 18B1     		cbz	r0, .L368
 5846 074e 0128     		cmp	r0, #1
 5847 0750 45D0     		beq	.L369
 5848 0752 00F032BE 		b	.L293
 5849              	.L368:
1507:.\main.c      ****                         case 1://Placa
 5850              		.loc 1 1507 0
 5851 0756 2C4B     		ldr	r3, .L501+4
 5852 0758 93F80031 		ldrb	r3, [r3, #256]	@ zero_extendqisi2
 5853 075c 013B     		subs	r3, r3, #1
ARM GAS  C:\Users\RECEPC~1\AppData\Local\Temp\ccp152bc.s 			page 157


 5854 075e 032B     		cmp	r3, #3
 5855 0760 39D8     		bhi	.L370
 5856 0762 DFE803F0 		tbb	[pc, r3]
 5857              	.L372:
 5858 0766 0A       		.byte	(.L478-.L372)/2
 5859 0767 1D       		.byte	(.L479-.L372)/2
 5860 0768 29       		.byte	(.L480-.L372)/2
 5861 0769 35       		.byte	(.L481-.L372)/2
 5862              	.LVL548:
 5863              		.p2align 1
 5864              	.L376:
1510:.\main.c      ****                             }
 5865              		.loc 1 1510 0 discriminator 3
 5866 076a 274A     		ldr	r2, .L501+4
 5867 076c 1A44     		add	r2, r2, r3
 5868 076e 0021     		movs	r1, #0
 5869 0770 82F8DF10 		strb	r1, [r2, #223]
1509:.\main.c      ****                                 bufferDisplay2.licenceSale[x]=0;
 5870              		.loc 1 1509 0 discriminator 3
 5871 0774 0133     		adds	r3, r3, #1
 5872              	.LVL549:
 5873 0776 DBB2     		uxtb	r3, r3
 5874              	.LVL550:
 5875 0778 00E0     		b	.L371
 5876              	.LVL551:
 5877              	.L478:
1507:.\main.c      ****                         case 1://Placa
 5878              		.loc 1 1507 0
 5879 077a 0023     		movs	r3, #0
 5880              	.L371:
 5881              	.LVL552:
1509:.\main.c      ****                                 bufferDisplay2.licenceSale[x]=0;
 5882              		.loc 1 1509 0 discriminator 1
 5883 077c 0A2B     		cmp	r3, #10
 5884 077e F4D9     		bls	.L376
1512:.\main.c      ****                             SetPicture(2,DISPLAY_INICIO0);
 5885              		.loc 1 1512 0
 5886 0780 0022     		movs	r2, #0
 5887 0782 224B     		ldr	r3, .L501+8
 5888              	.LVL553:
 5889 0784 1A60     		str	r2, [r3]
1513:.\main.c      ****                         break;
 5890              		.loc 1 1513 0
 5891 0786 0220     		movs	r0, #2
 5892 0788 0121     		movs	r1, #1
 5893 078a FFF7FEFF 		bl	SetPicture
 5894              	.LVL554:
1514:.\main.c      ****                         
 5895              		.loc 1 1514 0
 5896 078e 22E0     		b	.L370
 5897              	.LVL555:
 5898              	.L377:
1518:.\main.c      ****                             }
 5899              		.loc 1 1518 0 discriminator 3
 5900 0790 1D4A     		ldr	r2, .L501+4
 5901 0792 1A44     		add	r2, r2, r3
 5902 0794 0021     		movs	r1, #0
ARM GAS  C:\Users\RECEPC~1\AppData\Local\Temp\ccp152bc.s 			page 158


 5903 0796 82F8EA10 		strb	r1, [r2, #234]
1517:.\main.c      ****                                 bufferDisplay2.mileageSale[x]=0;
 5904              		.loc 1 1517 0 discriminator 3
 5905 079a 0133     		adds	r3, r3, #1
 5906              	.LVL556:
 5907 079c DBB2     		uxtb	r3, r3
 5908              	.LVL557:
 5909 079e 00E0     		b	.L373
 5910              	.LVL558:
 5911              	.L479:
1507:.\main.c      ****                         case 1://Placa
 5912              		.loc 1 1507 0
 5913 07a0 0023     		movs	r3, #0
 5914              	.L373:
 5915              	.LVL559:
1517:.\main.c      ****                                 bufferDisplay2.mileageSale[x]=0;
 5916              		.loc 1 1517 0 discriminator 1
 5917 07a2 0A2B     		cmp	r3, #10
 5918 07a4 F4D9     		bls	.L377
 5919 07a6 16E0     		b	.L370
 5920              	.L378:
1524:.\main.c      ****                             }
 5921              		.loc 1 1524 0 discriminator 3
 5922 07a8 174A     		ldr	r2, .L501+4
 5923 07aa 1A44     		add	r2, r2, r3
 5924 07ac 0021     		movs	r1, #0
 5925 07ae 82F8F510 		strb	r1, [r2, #245]
1523:.\main.c      ****                                 bufferDisplay2.identySale[x]=0;
 5926              		.loc 1 1523 0 discriminator 3
 5927 07b2 0133     		adds	r3, r3, #1
 5928              	.LVL560:
 5929 07b4 DBB2     		uxtb	r3, r3
 5930              	.LVL561:
 5931 07b6 00E0     		b	.L374
 5932              	.LVL562:
 5933              	.L480:
1507:.\main.c      ****                         case 1://Placa
 5934              		.loc 1 1507 0
 5935 07b8 0023     		movs	r3, #0
 5936              	.L374:
 5937              	.LVL563:
1523:.\main.c      ****                                 bufferDisplay2.identySale[x]=0;
 5938              		.loc 1 1523 0 discriminator 1
 5939 07ba 0A2B     		cmp	r3, #10
 5940 07bc F4D9     		bls	.L378
 5941 07be 0AE0     		b	.L370
 5942              	.L379:
1529:.\main.c      ****                             }
 5943              		.loc 1 1529 0 discriminator 3
 5944 07c0 114A     		ldr	r2, .L501+4
 5945 07c2 1A44     		add	r2, r2, r3
 5946 07c4 0021     		movs	r1, #0
 5947 07c6 82F83611 		strb	r1, [r2, #310]
1528:.\main.c      ****                                 bufferDisplay2.shiftId[x]=0;
 5948              		.loc 1 1528 0 discriminator 3
 5949 07ca 0133     		adds	r3, r3, #1
 5950              	.LVL564:
ARM GAS  C:\Users\RECEPC~1\AppData\Local\Temp\ccp152bc.s 			page 159


 5951 07cc DBB2     		uxtb	r3, r3
 5952              	.LVL565:
 5953 07ce 00E0     		b	.L375
 5954              	.LVL566:
 5955              	.L481:
1507:.\main.c      ****                         case 1://Placa
 5956              		.loc 1 1507 0
 5957 07d0 0023     		movs	r3, #0
 5958              	.L375:
 5959              	.LVL567:
1528:.\main.c      ****                                 bufferDisplay2.shiftId[x]=0;
 5960              		.loc 1 1528 0 discriminator 1
 5961 07d2 0A2B     		cmp	r3, #10
 5962 07d4 F4D9     		bls	.L379
 5963              	.LVL568:
 5964              	.L370:
1533:.\main.c      ****                 break;
 5965              		.loc 1 1533 0
 5966 07d6 FFF7FEFF 		bl	Display2_ClearRxBuffer
 5967              	.LVL569:
1534:.\main.c      ****                     
 5968              		.loc 1 1534 0
 5969 07da 00F0EEBD 		b	.L293
 5970              	.L369:
1537:.\main.c      ****                         case 1://Placa
 5971              		.loc 1 1537 0
 5972 07de 0A4B     		ldr	r3, .L501+4
 5973 07e0 93F80031 		ldrb	r3, [r3, #256]	@ zero_extendqisi2
 5974 07e4 013B     		subs	r3, r3, #1
 5975 07e6 032B     		cmp	r3, #3
 5976 07e8 7FD8     		bhi	.L380
 5977 07ea DFE803F0 		tbb	[pc, r3]
 5978              	.L382:
 5979 07ee 19       		.byte	(.L482-.L382)/2
 5980 07ef 42       		.byte	(.L483-.L382)/2
 5981 07f0 58       		.byte	(.L484-.L382)/2
 5982 07f1 5E       		.byte	(.L385-.L382)/2
 5983              	.LVL570:
 5984              		.p2align 1
 5985              	.L386:
1540:.\main.c      ****                             }
 5986              		.loc 1 1540 0 discriminator 3
 5987 07f2 054A     		ldr	r2, .L501+4
 5988 07f4 1A44     		add	r2, r2, r3
 5989 07f6 92F84B10 		ldrb	r1, [r2, #75]	@ zero_extendqisi2
 5990 07fa 82F8DF10 		strb	r1, [r2, #223]
1539:.\main.c      ****                                 bufferDisplay2.licenceSale[x]=bufferDisplay2.valueKeys[x];
 5991              		.loc 1 1539 0 discriminator 3
 5992 07fe 0133     		adds	r3, r3, #1
 5993              	.LVL571:
 5994 0800 DBB2     		uxtb	r3, r3
 5995              	.LVL572:
 5996 0802 0EE0     		b	.L381
 5997              	.L502:
 5998              		.align	2
 5999              	.L501:
 6000 0804 00000000 		.word	side
ARM GAS  C:\Users\RECEPC~1\AppData\Local\Temp\ccp152bc.s 			page 160


 6001 0808 00000000 		.word	bufferDisplay2
 6002 080c 00000000 		.word	flowDisplay2
 6003 0810 00000000 		.word	count_protector2
 6004 0814 65000000 		.word	bufferDisplay2+101
 6005 0818 00000000 		.word	Display2_rxBuffer
 6006 081c 00000000 		.word	printPortB
 6007              	.LVL573:
 6008              	.L482:
1537:.\main.c      ****                         case 1://Placa
 6009              		.loc 1 1537 0
 6010 0820 0023     		movs	r3, #0
 6011              	.L381:
 6012              	.LVL574:
1539:.\main.c      ****                                 bufferDisplay2.licenceSale[x]=bufferDisplay2.valueKeys[x];
 6013              		.loc 1 1539 0 discriminator 1
 6014 0822 B04A     		ldr	r2, .L503
 6015 0824 92F84B20 		ldrb	r2, [r2, #75]	@ zero_extendqisi2
 6016 0828 9A42     		cmp	r2, r3
 6017 082a E2D2     		bcs	.L386
1542:.\main.c      ****                                 imprimir(printPortB,side.b.dir);
 6018              		.loc 1 1542 0
 6019 082c AD4B     		ldr	r3, .L503
 6020              	.LVL575:
 6021 082e 93F80331 		ldrb	r3, [r3, #259]	@ zero_extendqisi2
 6022 0832 73B1     		cbz	r3, .L387
1543:.\main.c      ****                                 flowDisplay2 = 0;
 6023              		.loc 1 1543 0
 6024 0834 AC4B     		ldr	r3, .L503+4
 6025 0836 1878     		ldrb	r0, [r3]	@ zero_extendqisi2
 6026 0838 AC4B     		ldr	r3, .L503+8
 6027 083a 93F80811 		ldrb	r1, [r3, #264]	@ zero_extendqisi2
 6028 083e FFF7FEFF 		bl	imprimir
 6029              	.LVL576:
1544:.\main.c      ****                                 SetPicture(2,DISPLAY_INICIO0); 
 6030              		.loc 1 1544 0
 6031 0842 0022     		movs	r2, #0
 6032 0844 AA4B     		ldr	r3, .L503+12
 6033 0846 1A60     		str	r2, [r3]
1545:.\main.c      ****                             }else{
 6034              		.loc 1 1545 0
 6035 0848 0220     		movs	r0, #2
 6036 084a 0121     		movs	r1, #1
 6037 084c FFF7FEFF 		bl	SetPicture
 6038              	.LVL577:
 6039 0850 4BE0     		b	.L380
 6040              	.L387:
1547:.\main.c      ****                                 SetPicture(2,DISPLAY_SUBA_MANIJA);
 6041              		.loc 1 1547 0
 6042 0852 0721     		movs	r1, #7
 6043 0854 A64B     		ldr	r3, .L503+12
 6044 0856 1960     		str	r1, [r3]
1548:.\main.c      ****                             }
 6045              		.loc 1 1548 0
 6046 0858 0220     		movs	r0, #2
 6047 085a FFF7FEFF 		bl	SetPicture
 6048              	.LVL578:
 6049 085e 44E0     		b	.L380
ARM GAS  C:\Users\RECEPC~1\AppData\Local\Temp\ccp152bc.s 			page 161


 6050              	.LVL579:
 6051              	.L388:
1554:.\main.c      ****                             }
 6052              		.loc 1 1554 0 discriminator 3
 6053 0860 A04A     		ldr	r2, .L503
 6054 0862 1A44     		add	r2, r2, r3
 6055 0864 92F84B10 		ldrb	r1, [r2, #75]	@ zero_extendqisi2
 6056 0868 82F8EA10 		strb	r1, [r2, #234]
1553:.\main.c      ****                                 bufferDisplay2.mileageSale[x]=bufferDisplay2.valueKeys[x];
 6057              		.loc 1 1553 0 discriminator 3
 6058 086c 0133     		adds	r3, r3, #1
 6059              	.LVL580:
 6060 086e DBB2     		uxtb	r3, r3
 6061              	.LVL581:
 6062 0870 00E0     		b	.L383
 6063              	.LVL582:
 6064              	.L483:
1537:.\main.c      ****                         case 1://Placa
 6065              		.loc 1 1537 0
 6066 0872 0023     		movs	r3, #0
 6067              	.L383:
 6068              	.LVL583:
1553:.\main.c      ****                                 bufferDisplay2.mileageSale[x]=bufferDisplay2.valueKeys[x];
 6069              		.loc 1 1553 0 discriminator 1
 6070 0874 9B4A     		ldr	r2, .L503
 6071 0876 92F84B20 		ldrb	r2, [r2, #75]	@ zero_extendqisi2
 6072 087a 9A42     		cmp	r2, r3
 6073 087c F0D2     		bcs	.L388
1556:.\main.c      ****                             SetPicture(2,DISPLAY_SUBA_MANIJA);
 6074              		.loc 1 1556 0
 6075 087e 0721     		movs	r1, #7
 6076 0880 9B4B     		ldr	r3, .L503+12
 6077              	.LVL584:
 6078 0882 1960     		str	r1, [r3]
1557:.\main.c      ****                         break;
 6079              		.loc 1 1557 0
 6080 0884 0220     		movs	r0, #2
 6081 0886 FFF7FEFF 		bl	SetPicture
 6082              	.LVL585:
1558:.\main.c      ****                         
 6083              		.loc 1 1558 0
 6084 088a 2EE0     		b	.L380
 6085              	.LVL586:
 6086              	.L389:
1562:.\main.c      ****                             }
 6087              		.loc 1 1562 0 discriminator 3
 6088 088c 954A     		ldr	r2, .L503
 6089 088e 1A44     		add	r2, r2, r3
 6090 0890 92F84B10 		ldrb	r1, [r2, #75]	@ zero_extendqisi2
 6091 0894 82F8F510 		strb	r1, [r2, #245]
1561:.\main.c      ****                                 bufferDisplay2.identySale[x]=bufferDisplay2.valueKeys[x];
 6092              		.loc 1 1561 0 discriminator 3
 6093 0898 0133     		adds	r3, r3, #1
 6094              	.LVL587:
 6095 089a DBB2     		uxtb	r3, r3
 6096              	.LVL588:
 6097 089c 00E0     		b	.L384
ARM GAS  C:\Users\RECEPC~1\AppData\Local\Temp\ccp152bc.s 			page 162


 6098              	.LVL589:
 6099              	.L484:
1537:.\main.c      ****                         case 1://Placa
 6100              		.loc 1 1537 0
 6101 089e 0023     		movs	r3, #0
 6102              	.L384:
 6103              	.LVL590:
1561:.\main.c      ****                                 bufferDisplay2.identySale[x]=bufferDisplay2.valueKeys[x];
 6104              		.loc 1 1561 0 discriminator 1
 6105 08a0 904A     		ldr	r2, .L503
 6106 08a2 92F84B20 		ldrb	r2, [r2, #75]	@ zero_extendqisi2
 6107 08a6 9A42     		cmp	r2, r3
 6108 08a8 F0D2     		bcs	.L389
 6109              	.LVL591:
 6110              	.L385:
1537:.\main.c      ****                         case 1://Placa
 6111              		.loc 1 1537 0 discriminator 1
 6112 08aa 0023     		movs	r3, #0
 6113 08ac 07E0     		b	.L390
 6114              	.LVL592:
 6115              	.L391:
1566:.\main.c      ****                             }
 6116              		.loc 1 1566 0 discriminator 3
 6117 08ae 8D4A     		ldr	r2, .L503
 6118 08b0 1A44     		add	r2, r2, r3
 6119 08b2 92F84B10 		ldrb	r1, [r2, #75]	@ zero_extendqisi2
 6120 08b6 82F83611 		strb	r1, [r2, #310]
1565:.\main.c      ****                                 bufferDisplay2.shiftId[x] =bufferDisplay2.valueKeys[x];
 6121              		.loc 1 1565 0 discriminator 3
 6122 08ba 0133     		adds	r3, r3, #1
 6123              	.LVL593:
 6124 08bc DBB2     		uxtb	r3, r3
 6125              	.LVL594:
 6126              	.L390:
1565:.\main.c      ****                                 bufferDisplay2.shiftId[x] =bufferDisplay2.valueKeys[x];
 6127              		.loc 1 1565 0 is_stmt 0 discriminator 1
 6128 08be 0A2B     		cmp	r3, #10
 6129 08c0 F5D9     		bls	.L391
1568:.\main.c      ****                             numberKeys1 = 0;
 6130              		.loc 1 1568 0 is_stmt 1
 6131 08c2 0E22     		movs	r2, #14
 6132 08c4 8A4B     		ldr	r3, .L503+12
 6133              	.LVL595:
 6134 08c6 1A60     		str	r2, [r3]
1569:.\main.c      ****                             hiddenKeys = 10;
 6135              		.loc 1 1569 0
 6136 08c8 0022     		movs	r2, #0
 6137 08ca 8A4B     		ldr	r3, .L503+16
 6138 08cc 1A70     		strb	r2, [r3]
1570:.\main.c      ****                             controlChar ='*';
 6139              		.loc 1 1570 0
 6140 08ce 0A22     		movs	r2, #10
 6141 08d0 894B     		ldr	r3, .L503+20
 6142 08d2 1A70     		strb	r2, [r3]
1571:.\main.c      ****                             bufferDisplay2.flagKeyboard = 3;
 6143              		.loc 1 1571 0
 6144 08d4 2A22     		movs	r2, #42
ARM GAS  C:\Users\RECEPC~1\AppData\Local\Temp\ccp152bc.s 			page 163


 6145 08d6 894B     		ldr	r3, .L503+24
 6146 08d8 1A70     		strb	r2, [r3]
1572:.\main.c      ****                             SetPicture(2,DISPLAY_INGRESE_PASSWORD);
 6147              		.loc 1 1572 0
 6148 08da 0322     		movs	r2, #3
 6149 08dc 814B     		ldr	r3, .L503
 6150 08de 83F80021 		strb	r2, [r3, #256]
1573:.\main.c      ****                         break;
 6151              		.loc 1 1573 0
 6152 08e2 0220     		movs	r0, #2
 6153 08e4 2521     		movs	r1, #37
 6154 08e6 FFF7FEFF 		bl	SetPicture
 6155              	.LVL596:
 6156              	.L380:
1576:.\main.c      ****                 break;
 6157              		.loc 1 1576 0
 6158 08ea FFF7FEFF 		bl	Display2_ClearRxBuffer
 6159              	.LVL597:
1577:.\main.c      ****             }            
 6160              		.loc 1 1577 0
 6161 08ee 00F064BD 		b	.L293
 6162              	.L306:
1582:.\main.c      ****                 if((Display2_rxBuffer[0]==0xAA) && (Display2_rxBuffer[6]==0xC3) && (Display2_rxBuff
 6163              		.loc 1 1582 0
 6164 08f2 FFF7FEFF 		bl	Display2_GetRxBufferSize
 6165              	.LVL598:
 6166 08f6 0828     		cmp	r0, #8
 6167 08f8 40F05F85 		bne	.L293
1583:.\main.c      ****                     switch(Display2_rxBuffer[3]){
 6168              		.loc 1 1583 0
 6169 08fc 804B     		ldr	r3, .L503+28
 6170 08fe 1B78     		ldrb	r3, [r3]	@ zero_extendqisi2
 6171 0900 DBB2     		uxtb	r3, r3
 6172 0902 AA2B     		cmp	r3, #170
 6173 0904 42D1     		bne	.L392
1583:.\main.c      ****                     switch(Display2_rxBuffer[3]){
 6174              		.loc 1 1583 0 is_stmt 0 discriminator 1
 6175 0906 7E4B     		ldr	r3, .L503+28
 6176 0908 9B79     		ldrb	r3, [r3, #6]	@ zero_extendqisi2
 6177 090a DBB2     		uxtb	r3, r3
 6178 090c C32B     		cmp	r3, #195
 6179 090e 3DD1     		bne	.L392
1583:.\main.c      ****                     switch(Display2_rxBuffer[3]){
 6180              		.loc 1 1583 0 discriminator 2
 6181 0910 7B4B     		ldr	r3, .L503+28
 6182 0912 DB79     		ldrb	r3, [r3, #7]	@ zero_extendqisi2
 6183 0914 DBB2     		uxtb	r3, r3
 6184 0916 3C2B     		cmp	r3, #60
 6185 0918 38D1     		bne	.L392
1584:.\main.c      ****                         case 0xB6:  //Solicitud ibutton  
 6186              		.loc 1 1584 0 is_stmt 1
 6187 091a 794B     		ldr	r3, .L503+28
 6188 091c DB78     		ldrb	r3, [r3, #3]	@ zero_extendqisi2
 6189 091e DBB2     		uxtb	r3, r3
 6190 0920 942B     		cmp	r3, #148
 6191 0922 24D0     		beq	.L393
 6192 0924 02D8     		bhi	.L394
ARM GAS  C:\Users\RECEPC~1\AppData\Local\Temp\ccp152bc.s 			page 164


 6193 0926 7E2B     		cmp	r3, #126
 6194 0928 29D0     		beq	.L395
 6195 092a 2FE0     		b	.L392
 6196              	.L394:
 6197 092c B62B     		cmp	r3, #182
 6198 092e 02D0     		beq	.L396
 6199 0930 B72B     		cmp	r3, #183
 6200 0932 0FD0     		beq	.L397
 6201 0934 2AE0     		b	.L392
 6202              	.L396:
1586:.\main.c      ****                             numberKeys1 = 0;                            
 6203              		.loc 1 1586 0
 6204 0936 0B22     		movs	r2, #11
 6205 0938 6D4B     		ldr	r3, .L503+12
 6206 093a 1A60     		str	r2, [r3]
1587:.\main.c      ****                             bufferDisplay2.flagPrint =  1;
 6207              		.loc 1 1587 0
 6208 093c 0022     		movs	r2, #0
 6209 093e 6D4B     		ldr	r3, .L503+16
 6210 0940 1A70     		strb	r2, [r3]
1588:.\main.c      ****                             SetPicture(2,DISPLAY_ESPERANDO_ID);                            
 6211              		.loc 1 1588 0
 6212 0942 0122     		movs	r2, #1
 6213 0944 674B     		ldr	r3, .L503
 6214 0946 83F83421 		strb	r2, [r3, #308]
1589:.\main.c      ****                         break; 
 6215              		.loc 1 1589 0
 6216 094a 0220     		movs	r0, #2
 6217 094c 1221     		movs	r1, #18
 6218 094e FFF7FEFF 		bl	SetPicture
 6219              	.LVL599:
1590:.\main.c      ****                         case 0xB7:  //ID por número
 6220              		.loc 1 1590 0
 6221 0952 1BE0     		b	.L392
 6222              	.L397:
1592:.\main.c      ****                             flowDisplay2 = 7;//Esperando estado del dispensador  
 6223              		.loc 1 1592 0
 6224 0954 0023     		movs	r3, #0
 6225 0956 634A     		ldr	r2, .L503
 6226 0958 82F80031 		strb	r3, [r2, #256]
1593:.\main.c      ****                             count_protector=0;
 6227              		.loc 1 1593 0
 6228 095c 0721     		movs	r1, #7
 6229 095e 644A     		ldr	r2, .L503+12
 6230 0960 1160     		str	r1, [r2]
1594:.\main.c      ****                             SetPicture(2,DISPLAY_SUBA_MANIJA);                            
 6231              		.loc 1 1594 0
 6232 0962 684A     		ldr	r2, .L503+32
 6233 0964 1370     		strb	r3, [r2]
1595:.\main.c      ****                         break;
 6234              		.loc 1 1595 0
 6235 0966 0220     		movs	r0, #2
 6236 0968 FFF7FEFF 		bl	SetPicture
 6237              	.LVL600:
1596:.\main.c      ****                         case 0x94:  //Pantalla Inicial    
 6238              		.loc 1 1596 0
 6239 096c 0EE0     		b	.L392
ARM GAS  C:\Users\RECEPC~1\AppData\Local\Temp\ccp152bc.s 			page 165


 6240              	.L393:
1598:.\main.c      ****                             SetPicture(2,DISPLAY_INICIO0);                            
 6241              		.loc 1 1598 0
 6242 096e 0022     		movs	r2, #0
 6243 0970 5F4B     		ldr	r3, .L503+12
 6244 0972 1A60     		str	r2, [r3]
1599:.\main.c      ****                         break;
 6245              		.loc 1 1599 0
 6246 0974 0220     		movs	r0, #2
 6247 0976 0121     		movs	r1, #1
 6248 0978 FFF7FEFF 		bl	SetPicture
 6249              	.LVL601:
1600:.\main.c      ****                         case 0x7E:  //Pantalla Inicial                                             
 6250              		.loc 1 1600 0
 6251 097c 06E0     		b	.L392
 6252              	.L395:
1602:.\main.c      ****                             flowDisplay2 = 0;
 6253              		.loc 1 1602 0
 6254 097e 0220     		movs	r0, #2
 6255 0980 0121     		movs	r1, #1
 6256 0982 FFF7FEFF 		bl	SetPicture
 6257              	.LVL602:
1603:.\main.c      ****                         break;
 6258              		.loc 1 1603 0
 6259 0986 0022     		movs	r2, #0
 6260 0988 594B     		ldr	r3, .L503+12
 6261 098a 1A60     		str	r2, [r3]
 6262              	.L392:
1607:.\main.c      ****                 Display2_ClearRxBuffer();
 6263              		.loc 1 1607 0
 6264 098c 0A20     		movs	r0, #10
 6265 098e FFF7FEFF 		bl	CyDelay
 6266              	.LVL603:
1608:.\main.c      ****             }                        
 6267              		.loc 1 1608 0
 6268 0992 FFF7FEFF 		bl	Display2_ClearRxBuffer
 6269              	.LVL604:
 6270 0996 00F010BD 		b	.L293
 6271              	.L307:
1613:.\main.c      ****             Timer_Animacion_Start();
 6272              		.loc 1 1613 0
 6273 099a 5B48     		ldr	r0, .L503+36
 6274 099c FFF7FEFF 		bl	isr_3_StartEx
 6275              	.LVL605:
1614:.\main.c      ****             if(touch_present(2)==1){
 6276              		.loc 1 1614 0
 6277 09a0 FFF7FEFF 		bl	Timer_Animacion_Start
 6278              	.LVL606:
1615:.\main.c      **** 				if(touch_write(1,0x33)){
 6279              		.loc 1 1615 0
 6280 09a4 0220     		movs	r0, #2
 6281 09a6 FFF7FEFF 		bl	touch_present
 6282              	.LVL607:
 6283 09aa 0128     		cmp	r0, #1
 6284 09ac 6BD1     		bne	.L398
1616:.\main.c      **** 					for(x=1;x<=8;x++){
 6285              		.loc 1 1616 0
ARM GAS  C:\Users\RECEPC~1\AppData\Local\Temp\ccp152bc.s 			page 166


 6286 09ae 3321     		movs	r1, #51
 6287 09b0 FFF7FEFF 		bl	touch_write
 6288              	.LVL608:
 6289 09b4 40B9     		cbnz	r0, .L485
 6290 09b6 66E0     		b	.L398
 6291              	.LVL609:
 6292              	.L400:
1618:.\main.c      **** 					}
 6293              		.loc 1 1618 0 discriminator 3
 6294 09b8 0220     		movs	r0, #2
 6295 09ba FFF7FEFF 		bl	touch_read_byte
 6296              	.LVL610:
 6297 09be 534B     		ldr	r3, .L503+40
 6298 09c0 1855     		strb	r0, [r3, r4]
1617:.\main.c      **** 						temporal[x]=touch_read_byte(2);
 6299              		.loc 1 1617 0 discriminator 3
 6300 09c2 0134     		adds	r4, r4, #1
 6301              	.LVL611:
 6302 09c4 E4B2     		uxtb	r4, r4
 6303              	.LVL612:
 6304 09c6 00E0     		b	.L399
 6305              	.LVL613:
 6306              	.L485:
 6307 09c8 0124     		movs	r4, #1
 6308              	.L399:
 6309              	.LVL614:
1617:.\main.c      **** 						temporal[x]=touch_read_byte(2);
 6310              		.loc 1 1617 0 is_stmt 0 discriminator 1
 6311 09ca 082C     		cmp	r4, #8
 6312 09cc F4D9     		bls	.L400
 6313 09ce 0020     		movs	r0, #0
 6314 09d0 0124     		movs	r4, #1
 6315              	.LVL615:
 6316 09d2 05E0     		b	.L401
 6317              	.LVL616:
 6318              	.L402:
1622:.\main.c      ****                     }
 6319              		.loc 1 1622 0 is_stmt 1 discriminator 3
 6320 09d4 4D4B     		ldr	r3, .L503+40
 6321 09d6 195D     		ldrb	r1, [r3, r4]	@ zero_extendqisi2
 6322 09d8 FFF7FEFF 		bl	crc_check
 6323              	.LVL617:
1621:.\main.c      ****                         y=crc_check(y,temporal[x]);
 6324              		.loc 1 1621 0 discriminator 3
 6325 09dc 0134     		adds	r4, r4, #1
 6326              	.LVL618:
 6327 09de E4B2     		uxtb	r4, r4
 6328              	.LVL619:
 6329              	.L401:
1621:.\main.c      ****                         y=crc_check(y,temporal[x]);
 6330              		.loc 1 1621 0 is_stmt 0 discriminator 1
 6331 09e0 072C     		cmp	r4, #7
 6332 09e2 F7D9     		bls	.L402
1624:.\main.c      **** 						bufferDisplay2.idSerial[0]=16;
 6333              		.loc 1 1624 0 is_stmt 1
 6334 09e4 494B     		ldr	r3, .L503+40
 6335 09e6 1B7A     		ldrb	r3, [r3, #8]	@ zero_extendqisi2
ARM GAS  C:\Users\RECEPC~1\AppData\Local\Temp\ccp152bc.s 			page 167


 6336 09e8 DBB2     		uxtb	r3, r3
 6337 09ea 8342     		cmp	r3, r0
 6338 09ec 4BD1     		bne	.L398
1625:.\main.c      **** 						y=16;
 6339              		.loc 1 1625 0
 6340 09ee 1023     		movs	r3, #16
 6341 09f0 3C4A     		ldr	r2, .L503
 6342 09f2 5370     		strb	r3, [r2, #1]
 6343              	.LVL620:
1627:.\main.c      **** 							if((temporal[x]&0x0F)>=10){
 6344              		.loc 1 1627 0
 6345 09f4 0122     		movs	r2, #1
 6346 09f6 30E0     		b	.L403
 6347              	.LVL621:
 6348              	.L408:
1628:.\main.c      **** 								bufferDisplay2.idSerial[y]=(temporal[x]&0x0F)+55;
 6349              		.loc 1 1628 0
 6350 09f8 1046     		mov	r0, r2
 6351 09fa 4449     		ldr	r1, .L503+40
 6352 09fc 895C     		ldrb	r1, [r1, r2]	@ zero_extendqisi2
 6353 09fe 01F00F01 		and	r1, r1, #15
 6354 0a02 0929     		cmp	r1, #9
 6355 0a04 08DD     		ble	.L404
1629:.\main.c      **** 							}else{
 6356              		.loc 1 1629 0
 6357 0a06 4149     		ldr	r1, .L503+40
 6358 0a08 895C     		ldrb	r1, [r1, r2]	@ zero_extendqisi2
 6359 0a0a 364C     		ldr	r4, .L503
 6360 0a0c 1C44     		add	r4, r4, r3
 6361 0a0e 01F00F01 		and	r1, r1, #15
 6362 0a12 3731     		adds	r1, r1, #55
 6363 0a14 6170     		strb	r1, [r4, #1]
 6364 0a16 07E0     		b	.L405
 6365              	.L404:
1631:.\main.c      **** 							}
 6366              		.loc 1 1631 0
 6367 0a18 3C49     		ldr	r1, .L503+40
 6368 0a1a 895C     		ldrb	r1, [r1, r2]	@ zero_extendqisi2
 6369 0a1c 314C     		ldr	r4, .L503
 6370 0a1e 1C44     		add	r4, r4, r3
 6371 0a20 01F00F01 		and	r1, r1, #15
 6372 0a24 3031     		adds	r1, r1, #48
 6373 0a26 6170     		strb	r1, [r4, #1]
 6374              	.L405:
1633:.\main.c      **** 							if(((temporal[x]>>4)&0x0F)>=10){
 6375              		.loc 1 1633 0
 6376 0a28 013B     		subs	r3, r3, #1
 6377              	.LVL622:
 6378 0a2a DBB2     		uxtb	r3, r3
 6379              	.LVL623:
1634:.\main.c      **** 								bufferDisplay2.idSerial[y]=((temporal[x]>>4)&0x0F)+55;
 6380              		.loc 1 1634 0
 6381 0a2c 3749     		ldr	r1, .L503+40
 6382 0a2e 095C     		ldrb	r1, [r1, r0]	@ zero_extendqisi2
 6383 0a30 9F29     		cmp	r1, #159
 6384 0a32 07D9     		bls	.L406
1635:.\main.c      **** 							}else{
ARM GAS  C:\Users\RECEPC~1\AppData\Local\Temp\ccp152bc.s 			page 168


 6385              		.loc 1 1635 0
 6386 0a34 3549     		ldr	r1, .L503+40
 6387 0a36 095C     		ldrb	r1, [r1, r0]	@ zero_extendqisi2
 6388 0a38 2A48     		ldr	r0, .L503
 6389 0a3a 1844     		add	r0, r0, r3
 6390 0a3c 0909     		lsrs	r1, r1, #4
 6391 0a3e 3731     		adds	r1, r1, #55
 6392 0a40 4170     		strb	r1, [r0, #1]
 6393 0a42 06E0     		b	.L407
 6394              	.L406:
1637:.\main.c      **** 							}
 6395              		.loc 1 1637 0
 6396 0a44 3149     		ldr	r1, .L503+40
 6397 0a46 095C     		ldrb	r1, [r1, r0]	@ zero_extendqisi2
 6398 0a48 2648     		ldr	r0, .L503
 6399 0a4a 1844     		add	r0, r0, r3
 6400 0a4c 0909     		lsrs	r1, r1, #4
 6401 0a4e 3031     		adds	r1, r1, #48
 6402 0a50 4170     		strb	r1, [r0, #1]
 6403              	.L407:
1639:.\main.c      **** 						}                        
 6404              		.loc 1 1639 0 discriminator 2
 6405 0a52 013B     		subs	r3, r3, #1
 6406              	.LVL624:
 6407 0a54 DBB2     		uxtb	r3, r3
 6408              	.LVL625:
1627:.\main.c      **** 							if((temporal[x]&0x0F)>=10){
 6409              		.loc 1 1627 0 discriminator 2
 6410 0a56 0132     		adds	r2, r2, #1
 6411              	.LVL626:
 6412 0a58 D2B2     		uxtb	r2, r2
 6413              	.LVL627:
 6414              	.L403:
1627:.\main.c      **** 							if((temporal[x]&0x0F)>=10){
 6415              		.loc 1 1627 0 is_stmt 0 discriminator 1
 6416 0a5a 082A     		cmp	r2, #8
 6417 0a5c CCD9     		bls	.L408
1641:.\main.c      ****                         Display2_ClearRxBuffer();
 6418              		.loc 1 1641 0 is_stmt 1
 6419 0a5e 0220     		movs	r0, #2
 6420 0a60 1321     		movs	r1, #19
 6421 0a62 FFF7FEFF 		bl	SetPicture
 6422              	.LVL628:
1642:.\main.c      ****                         CyDelay(700);
 6423              		.loc 1 1642 0
 6424 0a66 FFF7FEFF 		bl	Display2_ClearRxBuffer
 6425              	.LVL629:
1643:.\main.c      ****                         bufferDisplay2.flagKeyboard = 2;
 6426              		.loc 1 1643 0
 6427 0a6a 4FF42F70 		mov	r0, #700
 6428 0a6e FFF7FEFF 		bl	CyDelay
 6429              	.LVL630:
1644:.\main.c      ****                         flowDisplay2 = 9;
 6430              		.loc 1 1644 0
 6431 0a72 0220     		movs	r0, #2
 6432 0a74 1B4B     		ldr	r3, .L503
 6433 0a76 83F80001 		strb	r0, [r3, #256]
ARM GAS  C:\Users\RECEPC~1\AppData\Local\Temp\ccp152bc.s 			page 169


1645:.\main.c      ****                         SetPicture(2,DISPLAY_INTRODUZCA_KILOMETRAJE);
 6434              		.loc 1 1645 0
 6435 0a7a 0922     		movs	r2, #9
 6436 0a7c 1C4B     		ldr	r3, .L503+12
 6437 0a7e 1A60     		str	r2, [r3]
1646:.\main.c      ****                         
 6438              		.loc 1 1646 0
 6439 0a80 0E21     		movs	r1, #14
 6440 0a82 FFF7FEFF 		bl	SetPicture
 6441              	.LVL631:
 6442              	.L398:
1651:.\main.c      ****                 flowDisplay2 = 0;	
 6443              		.loc 1 1651 0
 6444 0a86 1F4B     		ldr	r3, .L503+32
 6445 0a88 1B78     		ldrb	r3, [r3]	@ zero_extendqisi2
 6446 0a8a 3B2B     		cmp	r3, #59
 6447 0a8c 40F29584 		bls	.L293
1652:.\main.c      ****     			count_protector=0;
 6448              		.loc 1 1652 0
 6449 0a90 0023     		movs	r3, #0
 6450 0a92 174A     		ldr	r2, .L503+12
 6451 0a94 1360     		str	r3, [r2]
1653:.\main.c      ****                 SetPicture(2,DISPLAY_INICIO0);
 6452              		.loc 1 1653 0
 6453 0a96 1B4A     		ldr	r2, .L503+32
 6454 0a98 1370     		strb	r3, [r2]
1654:.\main.c      ****     		}
 6455              		.loc 1 1654 0
 6456 0a9a 0220     		movs	r0, #2
 6457 0a9c 0121     		movs	r1, #1
 6458 0a9e FFF7FEFF 		bl	SetPicture
 6459              	.LVL632:
 6460 0aa2 00F08ABC 		b	.L293
 6461              	.L308:
1662:.\main.c      ****                 if((Display2_rxBuffer[0]==0xAA) && (Display2_rxBuffer[6]==0xC3) && (Display2_rxBuff
 6462              		.loc 1 1662 0
 6463 0aa6 FFF7FEFF 		bl	Display2_GetRxBufferSize
 6464              	.LVL633:
 6465 0aaa 0828     		cmp	r0, #8
 6466 0aac 40F08584 		bne	.L293
1663:.\main.c      ****                     switch(Display2_rxBuffer[3]){
 6467              		.loc 1 1663 0
 6468 0ab0 134B     		ldr	r3, .L503+28
 6469 0ab2 1B78     		ldrb	r3, [r3]	@ zero_extendqisi2
 6470 0ab4 DBB2     		uxtb	r3, r3
 6471 0ab6 AA2B     		cmp	r3, #170
 6472 0ab8 7CD1     		bne	.L409
1663:.\main.c      ****                     switch(Display2_rxBuffer[3]){
 6473              		.loc 1 1663 0 is_stmt 0 discriminator 1
 6474 0aba 114B     		ldr	r3, .L503+28
 6475 0abc 9B79     		ldrb	r3, [r3, #6]	@ zero_extendqisi2
 6476 0abe DBB2     		uxtb	r3, r3
 6477 0ac0 C32B     		cmp	r3, #195
 6478 0ac2 77D1     		bne	.L409
1663:.\main.c      ****                     switch(Display2_rxBuffer[3]){
 6479              		.loc 1 1663 0 discriminator 2
 6480 0ac4 0E4B     		ldr	r3, .L503+28
ARM GAS  C:\Users\RECEPC~1\AppData\Local\Temp\ccp152bc.s 			page 170


 6481 0ac6 DB79     		ldrb	r3, [r3, #7]	@ zero_extendqisi2
 6482 0ac8 DBB2     		uxtb	r3, r3
 6483 0aca 3C2B     		cmp	r3, #60
 6484 0acc 72D1     		bne	.L409
1664:.\main.c      ****                         case 0x46:  //Turnos              
 6485              		.loc 1 1664 0 is_stmt 1
 6486 0ace 0C4B     		ldr	r3, .L503+28
 6487 0ad0 DB78     		ldrb	r3, [r3, #3]	@ zero_extendqisi2
 6488 0ad2 DBB2     		uxtb	r3, r3
 6489 0ad4 552B     		cmp	r3, #85
 6490 0ad6 33D0     		beq	.L410
 6491 0ad8 1AD8     		bhi	.L411
 6492 0ada 3B2B     		cmp	r3, #59
 6493 0adc 53D0     		beq	.L412
 6494 0ade 462B     		cmp	r3, #70
 6495 0ae0 1DD0     		beq	.L413
 6496 0ae2 67E0     		b	.L409
 6497              	.L504:
 6498              		.align	2
 6499              	.L503:
 6500 0ae4 00000000 		.word	bufferDisplay2
 6501 0ae8 00000000 		.word	printPortB
 6502 0aec 00000000 		.word	side
 6503 0af0 00000000 		.word	flowDisplay2
 6504 0af4 00000000 		.word	numberKeys1
 6505 0af8 00000000 		.word	hiddenKeys
 6506 0afc 00000000 		.word	controlChar
 6507 0b00 00000000 		.word	Display2_rxBuffer
 6508 0b04 00000000 		.word	count_protector
 6509 0b08 00000000 		.word	animacion
 6510 0b0c 00000000 		.word	temporal
 6511              	.L411:
 6512 0b10 942B     		cmp	r3, #148
 6513 0b12 40D0     		beq	.L414
 6514 0b14 B52B     		cmp	r3, #181
 6515 0b16 28D0     		beq	.L415
 6516 0b18 7E2B     		cmp	r3, #126
 6517 0b1a 4BD1     		bne	.L409
 6518 0b1c 43E0     		b	.L416
 6519              	.L413:
1666:.\main.c      ****                             if(lockTurn ==1){
 6520              		.loc 1 1666 0
 6521 0b1e 0D22     		movs	r2, #13
 6522 0b20 AA4B     		ldr	r3, .L505
 6523 0b22 1A60     		str	r2, [r3]
1667:.\main.c      ****                                 SetPicture(2,DISPLAY_CERRAR_TURNO);
 6524              		.loc 1 1667 0
 6525 0b24 AA4B     		ldr	r3, .L505+4
 6526 0b26 1B78     		ldrb	r3, [r3]	@ zero_extendqisi2
 6527 0b28 012B     		cmp	r3, #1
 6528 0b2a 04D1     		bne	.L417
1668:.\main.c      ****                             }else{
 6529              		.loc 1 1668 0
 6530 0b2c 0220     		movs	r0, #2
 6531 0b2e 2A21     		movs	r1, #42
 6532 0b30 FFF7FEFF 		bl	SetPicture
 6533              	.LVL634:
ARM GAS  C:\Users\RECEPC~1\AppData\Local\Temp\ccp152bc.s 			page 171


 6534 0b34 3EE0     		b	.L409
 6535              	.L417:
1670:.\main.c      ****                             }                            
 6536              		.loc 1 1670 0
 6537 0b36 0220     		movs	r0, #2
 6538 0b38 2321     		movs	r1, #35
 6539 0b3a FFF7FEFF 		bl	SetPicture
 6540              	.LVL635:
 6541 0b3e 39E0     		b	.L409
 6542              	.L410:
1674:.\main.c      ****                             bufferDisplay2.flagKeyboard = 6;
 6543              		.loc 1 1674 0
 6544 0b40 0E22     		movs	r2, #14
 6545 0b42 A24B     		ldr	r3, .L505
 6546 0b44 1A60     		str	r2, [r3]
1675:.\main.c      ****                             numberKeys1 = 0;
 6547              		.loc 1 1675 0
 6548 0b46 0622     		movs	r2, #6
 6549 0b48 A24B     		ldr	r3, .L505+8
 6550 0b4a 83F80021 		strb	r2, [r3, #256]
1676:.\main.c      ****                             hiddenKeys = 5;
 6551              		.loc 1 1676 0
 6552 0b4e 0022     		movs	r2, #0
 6553 0b50 A14B     		ldr	r3, .L505+12
 6554 0b52 1A70     		strb	r2, [r3]
1677:.\main.c      ****                             controlChar ='*';
 6555              		.loc 1 1677 0
 6556 0b54 0522     		movs	r2, #5
 6557 0b56 A14B     		ldr	r3, .L505+16
 6558 0b58 1A70     		strb	r2, [r3]
1678:.\main.c      ****                             SetPicture(2,DISPLAY_INGRESE_PASSWORD);                           
 6559              		.loc 1 1678 0
 6560 0b5a 2A22     		movs	r2, #42
 6561 0b5c A04B     		ldr	r3, .L505+20
 6562 0b5e 1A70     		strb	r2, [r3]
1679:.\main.c      ****                         break;
 6563              		.loc 1 1679 0
 6564 0b60 0220     		movs	r0, #2
 6565 0b62 2521     		movs	r1, #37
 6566 0b64 FFF7FEFF 		bl	SetPicture
 6567              	.LVL636:
1680:.\main.c      ****                         case 0xB5:  //Copia de recibo 
 6568              		.loc 1 1680 0
 6569 0b68 24E0     		b	.L409
 6570              	.L415:
1682:.\main.c      ****                             side.b.RFstateReport = 1;
 6571              		.loc 1 1682 0
 6572 0b6a 0022     		movs	r2, #0
 6573 0b6c 974B     		ldr	r3, .L505
 6574 0b6e 1A60     		str	r2, [r3]
1683:.\main.c      ****                             side.b.rfState = RF_COPY_RECEIPT;
 6575              		.loc 1 1683 0
 6576 0b70 9C4B     		ldr	r3, .L505+24
 6577 0b72 0121     		movs	r1, #1
 6578 0b74 83F80F12 		strb	r1, [r3, #527]
1684:.\main.c      ****                             SetPicture(2,DISPLAY_INICIO0);                            
 6579              		.loc 1 1684 0
ARM GAS  C:\Users\RECEPC~1\AppData\Local\Temp\ccp152bc.s 			page 172


 6580 0b78 0B22     		movs	r2, #11
 6581 0b7a 83F80B22 		strb	r2, [r3, #523]
1685:.\main.c      ****                         break;
 6582              		.loc 1 1685 0
 6583 0b7e 0220     		movs	r0, #2
 6584 0b80 FFF7FEFF 		bl	SetPicture
 6585              	.LVL637:
1686:.\main.c      ****                         
 6586              		.loc 1 1686 0
 6587 0b84 16E0     		b	.L409
 6588              	.L412:
1689:.\main.c      ****                             SetPicture(2,DISPLAY_INICIO0);                            
 6589              		.loc 1 1689 0
 6590 0b86 0022     		movs	r2, #0
 6591 0b88 904B     		ldr	r3, .L505
 6592 0b8a 1A60     		str	r2, [r3]
1690:.\main.c      ****                         break;
 6593              		.loc 1 1690 0
 6594 0b8c 0220     		movs	r0, #2
 6595 0b8e 0121     		movs	r1, #1
 6596 0b90 FFF7FEFF 		bl	SetPicture
 6597              	.LVL638:
1691:.\main.c      ****                             
 6598              		.loc 1 1691 0
 6599 0b94 0EE0     		b	.L409
 6600              	.L414:
1694:.\main.c      ****                             SetPicture(2,DISPLAY_INICIO0);                            
 6601              		.loc 1 1694 0
 6602 0b96 0022     		movs	r2, #0
 6603 0b98 8C4B     		ldr	r3, .L505
 6604 0b9a 1A60     		str	r2, [r3]
1695:.\main.c      ****                         break;
 6605              		.loc 1 1695 0
 6606 0b9c 0220     		movs	r0, #2
 6607 0b9e 0121     		movs	r1, #1
 6608 0ba0 FFF7FEFF 		bl	SetPicture
 6609              	.LVL639:
1696:.\main.c      ****                         
 6610              		.loc 1 1696 0
 6611 0ba4 06E0     		b	.L409
 6612              	.L416:
1699:.\main.c      ****                             SetPicture(2,DISPLAY_INICIO0);                            
 6613              		.loc 1 1699 0
 6614 0ba6 0022     		movs	r2, #0
 6615 0ba8 884B     		ldr	r3, .L505
 6616 0baa 1A60     		str	r2, [r3]
1700:.\main.c      ****                         break;
 6617              		.loc 1 1700 0
 6618 0bac 0220     		movs	r0, #2
 6619 0bae 0121     		movs	r1, #1
 6620 0bb0 FFF7FEFF 		bl	SetPicture
 6621              	.LVL640:
 6622              	.L409:
1704:.\main.c      ****                 Display2_ClearRxBuffer();
 6623              		.loc 1 1704 0
 6624 0bb4 0A20     		movs	r0, #10
 6625 0bb6 FFF7FEFF 		bl	CyDelay
ARM GAS  C:\Users\RECEPC~1\AppData\Local\Temp\ccp152bc.s 			page 173


 6626              	.LVL641:
1705:.\main.c      ****             }
 6627              		.loc 1 1705 0
 6628 0bba FFF7FEFF 		bl	Display2_ClearRxBuffer
 6629              	.LVL642:
 6630 0bbe FCE3     		b	.L293
 6631              	.L309:
1710:.\main.c      ****                 if((Display2_rxBuffer[0]==0xAA) && (Display2_rxBuffer[6]==0xC3) && (Display2_rxBuff
 6632              		.loc 1 1710 0
 6633 0bc0 FFF7FEFF 		bl	Display2_GetRxBufferSize
 6634              	.LVL643:
 6635 0bc4 0828     		cmp	r0, #8
 6636 0bc6 40F0F883 		bne	.L293
1711:.\main.c      ****                     switch(Display2_rxBuffer[3]){
 6637              		.loc 1 1711 0
 6638 0bca 874B     		ldr	r3, .L505+28
 6639 0bcc 1B78     		ldrb	r3, [r3]	@ zero_extendqisi2
 6640 0bce DBB2     		uxtb	r3, r3
 6641 0bd0 AA2B     		cmp	r3, #170
 6642 0bd2 44D1     		bne	.L418
1711:.\main.c      ****                     switch(Display2_rxBuffer[3]){
 6643              		.loc 1 1711 0 is_stmt 0 discriminator 1
 6644 0bd4 844B     		ldr	r3, .L505+28
 6645 0bd6 9B79     		ldrb	r3, [r3, #6]	@ zero_extendqisi2
 6646 0bd8 DBB2     		uxtb	r3, r3
 6647 0bda C32B     		cmp	r3, #195
 6648 0bdc 3FD1     		bne	.L418
1711:.\main.c      ****                     switch(Display2_rxBuffer[3]){
 6649              		.loc 1 1711 0 discriminator 2
 6650 0bde 824B     		ldr	r3, .L505+28
 6651 0be0 DB79     		ldrb	r3, [r3, #7]	@ zero_extendqisi2
 6652 0be2 DBB2     		uxtb	r3, r3
 6653 0be4 3C2B     		cmp	r3, #60
 6654 0be6 3AD1     		bne	.L418
1712:.\main.c      ****                         case 0x47:  //Cambio de turno: Abrir  
 6655              		.loc 1 1712 0 is_stmt 1
 6656 0be8 7F4B     		ldr	r3, .L505+28
 6657 0bea DB78     		ldrb	r3, [r3, #3]	@ zero_extendqisi2
 6658 0bec DBB2     		uxtb	r3, r3
 6659 0bee 482B     		cmp	r3, #72
 6660 0bf0 17D0     		beq	.L419
 6661 0bf2 02D8     		bhi	.L420
 6662 0bf4 472B     		cmp	r3, #71
 6663 0bf6 05D0     		beq	.L421
 6664 0bf8 31E0     		b	.L418
 6665              	.L420:
 6666 0bfa 7E2B     		cmp	r3, #126
 6667 0bfc 20D0     		beq	.L422
 6668 0bfe 942B     		cmp	r3, #148
 6669 0c00 26D0     		beq	.L423
 6670 0c02 2CE0     		b	.L418
 6671              	.L421:
1714:.\main.c      ****                             numberKeys1 = 0;    
 6672              		.loc 1 1714 0
 6673 0c04 0922     		movs	r2, #9
 6674 0c06 714B     		ldr	r3, .L505
 6675 0c08 1A60     		str	r2, [r3]
ARM GAS  C:\Users\RECEPC~1\AppData\Local\Temp\ccp152bc.s 			page 174


1715:.\main.c      ****                             bufferDisplay2.flagKeyboard = 4;
 6676              		.loc 1 1715 0
 6677 0c0a 0022     		movs	r2, #0
 6678 0c0c 724B     		ldr	r3, .L505+12
 6679 0c0e 1A70     		strb	r2, [r3]
1716:.\main.c      ****                             SetPicture(2,DISPLAY_INTRODUZCA_CEDULA);                            
 6680              		.loc 1 1716 0
 6681 0c10 0422     		movs	r2, #4
 6682 0c12 704B     		ldr	r3, .L505+8
 6683 0c14 83F80021 		strb	r2, [r3, #256]
1717:.\main.c      ****                         break;
 6684              		.loc 1 1717 0
 6685 0c18 0220     		movs	r0, #2
 6686 0c1a 2421     		movs	r1, #36
 6687 0c1c FFF7FEFF 		bl	SetPicture
 6688              	.LVL644:
1718:.\main.c      ****                         case 0x48:  //Cambio de turno: Cerrar 
 6689              		.loc 1 1718 0
 6690 0c20 1DE0     		b	.L418
 6691              	.L419:
1720:.\main.c      ****                             numberKeys1 = 0;   
 6692              		.loc 1 1720 0
 6693 0c22 0922     		movs	r2, #9
 6694 0c24 694B     		ldr	r3, .L505
 6695 0c26 1A60     		str	r2, [r3]
1721:.\main.c      ****                             bufferDisplay2.flagKeyboard = 4;
 6696              		.loc 1 1721 0
 6697 0c28 0022     		movs	r2, #0
 6698 0c2a 6B4B     		ldr	r3, .L505+12
 6699 0c2c 1A70     		strb	r2, [r3]
1722:.\main.c      ****                             SetPicture(2,DISPLAY_INTRODUZCA_CEDULA);                           
 6700              		.loc 1 1722 0
 6701 0c2e 0422     		movs	r2, #4
 6702 0c30 684B     		ldr	r3, .L505+8
 6703 0c32 83F80021 		strb	r2, [r3, #256]
1723:.\main.c      ****                         break;                         
 6704              		.loc 1 1723 0
 6705 0c36 0220     		movs	r0, #2
 6706 0c38 2421     		movs	r1, #36
 6707 0c3a FFF7FEFF 		bl	SetPicture
 6708              	.LVL645:
1724:.\main.c      ****                         case 0x7E:  //Pantalla Inicial                                             
 6709              		.loc 1 1724 0
 6710 0c3e 0EE0     		b	.L418
 6711              	.L422:
1726:.\main.c      ****                             flowDisplay2 = 0;
 6712              		.loc 1 1726 0
 6713 0c40 0220     		movs	r0, #2
 6714 0c42 0121     		movs	r1, #1
 6715 0c44 FFF7FEFF 		bl	SetPicture
 6716              	.LVL646:
1727:.\main.c      ****                         break;
 6717              		.loc 1 1727 0
 6718 0c48 0022     		movs	r2, #0
 6719 0c4a 604B     		ldr	r3, .L505
 6720 0c4c 1A60     		str	r2, [r3]
1728:.\main.c      ****                         case 0x94:  //Pantalla Inicial                                             
ARM GAS  C:\Users\RECEPC~1\AppData\Local\Temp\ccp152bc.s 			page 175


 6721              		.loc 1 1728 0
 6722 0c4e 06E0     		b	.L418
 6723              	.L423:
1730:.\main.c      ****                             flowDisplay2 = 0;
 6724              		.loc 1 1730 0
 6725 0c50 0220     		movs	r0, #2
 6726 0c52 0121     		movs	r1, #1
 6727 0c54 FFF7FEFF 		bl	SetPicture
 6728              	.LVL647:
1731:.\main.c      ****                         break;
 6729              		.loc 1 1731 0
 6730 0c58 0022     		movs	r2, #0
 6731 0c5a 5C4B     		ldr	r3, .L505
 6732 0c5c 1A60     		str	r2, [r3]
 6733              	.L418:
1735:.\main.c      ****                 Display2_ClearRxBuffer();
 6734              		.loc 1 1735 0
 6735 0c5e 0A20     		movs	r0, #10
 6736 0c60 FFF7FEFF 		bl	CyDelay
 6737              	.LVL648:
1736:.\main.c      ****             }                        
 6738              		.loc 1 1736 0
 6739 0c64 FFF7FEFF 		bl	Display2_ClearRxBuffer
 6740              	.LVL649:
 6741 0c68 A7E3     		b	.L293
 6742              	.L310:
1741:.\main.c      ****                 case 0: //Cancelar
 6743              		.loc 1 1741 0
 6744 0c6a 0220     		movs	r0, #2
 6745 0c6c 5B4B     		ldr	r3, .L505+16
 6746 0c6e 1978     		ldrb	r1, [r3]	@ zero_extendqisi2
 6747 0c70 5B4B     		ldr	r3, .L505+20
 6748 0c72 1A78     		ldrb	r2, [r3]	@ zero_extendqisi2
 6749 0c74 FFF7FEFF 		bl	alphanumeric_keyboard
 6750              	.LVL650:
 6751 0c78 10B1     		cbz	r0, .L424
 6752 0c7a 0128     		cmp	r0, #1
 6753 0c7c 6ED0     		beq	.L425
 6754 0c7e 9CE3     		b	.L293
 6755              	.L424:
1743:.\main.c      ****                         case 1://ID Estacion
 6756              		.loc 1 1743 0
 6757 0c80 544B     		ldr	r3, .L505+8
 6758 0c82 93F80031 		ldrb	r3, [r3, #256]	@ zero_extendqisi2
 6759 0c86 013B     		subs	r3, r3, #1
 6760 0c88 052B     		cmp	r3, #5
 6761 0c8a 64D8     		bhi	.L426
 6762 0c8c DFE803F0 		tbb	[pc, r3]
 6763              	.L428:
 6764 0c90 09       		.byte	(.L486-.L428)/2
 6765 0c91 1A       		.byte	(.L487-.L428)/2
 6766 0c92 2F       		.byte	(.L488-.L428)/2
 6767 0c93 63       		.byte	(.L426-.L428)/2
 6768 0c94 44       		.byte	(.L489-.L428)/2
 6769 0c95 57       		.byte	(.L490-.L428)/2
 6770              	.LVL651:
 6771              		.p2align 1
ARM GAS  C:\Users\RECEPC~1\AppData\Local\Temp\ccp152bc.s 			page 176


 6772              	.L433:
1746:.\main.c      ****                             }
 6773              		.loc 1 1746 0 discriminator 3
 6774 0c96 0021     		movs	r1, #0
 6775 0c98 544A     		ldr	r2, .L505+32
 6776 0c9a D154     		strb	r1, [r2, r3]
1745:.\main.c      ****                                 idStation[x]=0;
 6777              		.loc 1 1745 0 discriminator 3
 6778 0c9c 0133     		adds	r3, r3, #1
 6779              	.LVL652:
 6780 0c9e DBB2     		uxtb	r3, r3
 6781              	.LVL653:
 6782 0ca0 00E0     		b	.L427
 6783              	.LVL654:
 6784              	.L486:
1743:.\main.c      ****                         case 1://ID Estacion
 6785              		.loc 1 1743 0
 6786 0ca2 0023     		movs	r3, #0
 6787              	.L427:
 6788              	.LVL655:
1745:.\main.c      ****                                 idStation[x]=0;
 6789              		.loc 1 1745 0 discriminator 1
 6790 0ca4 042B     		cmp	r3, #4
 6791 0ca6 F6D9     		bls	.L433
1748:.\main.c      ****                             SetPicture(2,DISPLAY_INICIO0);
 6792              		.loc 1 1748 0
 6793 0ca8 0022     		movs	r2, #0
 6794 0caa 484B     		ldr	r3, .L505
 6795              	.LVL656:
 6796 0cac 1A60     		str	r2, [r3]
1749:.\main.c      ****                         break;
 6797              		.loc 1 1749 0
 6798 0cae 0220     		movs	r0, #2
 6799 0cb0 0121     		movs	r1, #1
 6800 0cb2 FFF7FEFF 		bl	SetPicture
 6801              	.LVL657:
1750:.\main.c      ****                         case 2://Umbral
 6802              		.loc 1 1750 0
 6803 0cb6 4EE0     		b	.L426
 6804              	.LVL658:
 6805              	.L434:
1753:.\main.c      ****                             }
 6806              		.loc 1 1753 0 discriminator 3
 6807 0cb8 0021     		movs	r1, #0
 6808 0cba 4D4A     		ldr	r2, .L505+36
 6809 0cbc D154     		strb	r1, [r2, r3]
1752:.\main.c      ****                                 pumpGap[x]=0;
 6810              		.loc 1 1752 0 discriminator 3
 6811 0cbe 0133     		adds	r3, r3, #1
 6812              	.LVL659:
 6813 0cc0 DBB2     		uxtb	r3, r3
 6814              	.LVL660:
 6815 0cc2 00E0     		b	.L429
 6816              	.LVL661:
 6817              	.L487:
1743:.\main.c      ****                         case 1://ID Estacion
 6818              		.loc 1 1743 0
ARM GAS  C:\Users\RECEPC~1\AppData\Local\Temp\ccp152bc.s 			page 177


 6819 0cc4 0023     		movs	r3, #0
 6820              	.L429:
 6821              	.LVL662:
1752:.\main.c      ****                                 pumpGap[x]=0;
 6822              		.loc 1 1752 0 discriminator 1
 6823 0cc6 454A     		ldr	r2, .L505+16
 6824 0cc8 1278     		ldrb	r2, [r2]	@ zero_extendqisi2
 6825 0cca 9342     		cmp	r3, r2
 6826 0ccc F4D3     		bcc	.L434
1755:.\main.c      ****                             SetPicture(2,DISPLAY_INICIO0);
 6827              		.loc 1 1755 0
 6828 0cce 0022     		movs	r2, #0
 6829 0cd0 3E4B     		ldr	r3, .L505
 6830              	.LVL663:
 6831 0cd2 1A60     		str	r2, [r3]
1756:.\main.c      ****                         break;
 6832              		.loc 1 1756 0
 6833 0cd4 0220     		movs	r0, #2
 6834 0cd6 0121     		movs	r1, #1
 6835 0cd8 FFF7FEFF 		bl	SetPicture
 6836              	.LVL664:
1757:.\main.c      ****                         case 3://Pass turno
 6837              		.loc 1 1757 0
 6838 0cdc 3BE0     		b	.L426
 6839              	.LVL665:
 6840              	.L435:
1760:.\main.c      ****                             }
 6841              		.loc 1 1760 0 discriminator 3
 6842 0cde 3D4A     		ldr	r2, .L505+8
 6843 0ce0 1A44     		add	r2, r2, r3
 6844 0ce2 0021     		movs	r1, #0
 6845 0ce4 82F84111 		strb	r1, [r2, #321]
1759:.\main.c      ****                                 bufferDisplay2.shiftPassword[x]=0;
 6846              		.loc 1 1759 0 discriminator 3
 6847 0ce8 0133     		adds	r3, r3, #1
 6848              	.LVL666:
 6849 0cea DBB2     		uxtb	r3, r3
 6850              	.LVL667:
 6851 0cec 00E0     		b	.L430
 6852              	.LVL668:
 6853              	.L488:
1743:.\main.c      ****                         case 1://ID Estacion
 6854              		.loc 1 1743 0
 6855 0cee 0023     		movs	r3, #0
 6856              	.L430:
 6857              	.LVL669:
1759:.\main.c      ****                                 bufferDisplay2.shiftPassword[x]=0;
 6858              		.loc 1 1759 0 discriminator 1
 6859 0cf0 3A4A     		ldr	r2, .L505+16
 6860 0cf2 1278     		ldrb	r2, [r2]	@ zero_extendqisi2
 6861 0cf4 9342     		cmp	r3, r2
 6862 0cf6 F2D3     		bcc	.L435
1762:.\main.c      ****                             SetPicture(2,DISPLAY_INICIO0);
 6863              		.loc 1 1762 0
 6864 0cf8 0022     		movs	r2, #0
 6865 0cfa 344B     		ldr	r3, .L505
 6866              	.LVL670:
ARM GAS  C:\Users\RECEPC~1\AppData\Local\Temp\ccp152bc.s 			page 178


 6867 0cfc 1A60     		str	r2, [r3]
1763:.\main.c      ****                         break;
 6868              		.loc 1 1763 0
 6869 0cfe 0220     		movs	r0, #2
 6870 0d00 0121     		movs	r1, #1
 6871 0d02 FFF7FEFF 		bl	SetPicture
 6872              	.LVL671:
1764:.\main.c      ****                         case 5://Pass
 6873              		.loc 1 1764 0
 6874 0d06 26E0     		b	.L426
 6875              	.LVL672:
 6876              	.L436:
1767:.\main.c      ****                             }
 6877              		.loc 1 1767 0 discriminator 3
 6878 0d08 324A     		ldr	r2, .L505+8
 6879 0d0a 1A44     		add	r2, r2, r3
 6880 0d0c 0021     		movs	r1, #0
 6881 0d0e 82F84111 		strb	r1, [r2, #321]
1766:.\main.c      ****                                 bufferDisplay2.shiftPassword[x]=0;
 6882              		.loc 1 1766 0 discriminator 3
 6883 0d12 0133     		adds	r3, r3, #1
 6884              	.LVL673:
 6885 0d14 DBB2     		uxtb	r3, r3
 6886              	.LVL674:
 6887 0d16 00E0     		b	.L431
 6888              	.LVL675:
 6889              	.L489:
1743:.\main.c      ****                         case 1://ID Estacion
 6890              		.loc 1 1743 0
 6891 0d18 0023     		movs	r3, #0
 6892              	.L431:
 6893              	.LVL676:
1766:.\main.c      ****                                 bufferDisplay2.shiftPassword[x]=0;
 6894              		.loc 1 1766 0 discriminator 1
 6895 0d1a 304A     		ldr	r2, .L505+16
 6896 0d1c 1278     		ldrb	r2, [r2]	@ zero_extendqisi2
 6897 0d1e 9342     		cmp	r3, r2
 6898 0d20 F2D3     		bcc	.L436
1769:.\main.c      ****                             SetPicture(2,DISPLAY_INICIO0);
 6899              		.loc 1 1769 0
 6900 0d22 0022     		movs	r2, #0
 6901 0d24 294B     		ldr	r3, .L505
 6902              	.LVL677:
 6903 0d26 1A60     		str	r2, [r3]
1770:.\main.c      ****                         break;
 6904              		.loc 1 1770 0
 6905 0d28 0220     		movs	r0, #2
 6906 0d2a 0121     		movs	r1, #1
 6907 0d2c FFF7FEFF 		bl	SetPicture
 6908              	.LVL678:
1771:.\main.c      ****                             
 6909              		.loc 1 1771 0
 6910 0d30 11E0     		b	.L426
 6911              	.LVL679:
 6912              	.L437:
1775:.\main.c      ****                             }
 6913              		.loc 1 1775 0 discriminator 3
ARM GAS  C:\Users\RECEPC~1\AppData\Local\Temp\ccp152bc.s 			page 179


 6914 0d32 0021     		movs	r1, #0
 6915 0d34 2F4A     		ldr	r2, .L505+40
 6916 0d36 D154     		strb	r1, [r2, r3]
1774:.\main.c      ****                                 configAccess[x]=0;
 6917              		.loc 1 1774 0 discriminator 3
 6918 0d38 0133     		adds	r3, r3, #1
 6919              	.LVL680:
 6920 0d3a DBB2     		uxtb	r3, r3
 6921              	.LVL681:
 6922 0d3c 00E0     		b	.L432
 6923              	.LVL682:
 6924              	.L490:
1743:.\main.c      ****                         case 1://ID Estacion
 6925              		.loc 1 1743 0
 6926 0d3e 0123     		movs	r3, #1
 6927              	.L432:
 6928              	.LVL683:
1774:.\main.c      ****                                 configAccess[x]=0;
 6929              		.loc 1 1774 0 discriminator 1
 6930 0d40 2C4A     		ldr	r2, .L505+40
 6931 0d42 1278     		ldrb	r2, [r2]	@ zero_extendqisi2
 6932 0d44 9A42     		cmp	r2, r3
 6933 0d46 F4D2     		bcs	.L437
1777:.\main.c      ****                             SetPicture(2,DISPLAY_INICIO0);
 6934              		.loc 1 1777 0
 6935 0d48 0022     		movs	r2, #0
 6936 0d4a 204B     		ldr	r3, .L505
 6937              	.LVL684:
 6938 0d4c 1A60     		str	r2, [r3]
1778:.\main.c      ****                         break;
 6939              		.loc 1 1778 0
 6940 0d4e 0220     		movs	r0, #2
 6941 0d50 0121     		movs	r1, #1
 6942 0d52 FFF7FEFF 		bl	SetPicture
 6943              	.LVL685:
 6944              	.L426:
1781:.\main.c      ****                 break;
 6945              		.loc 1 1781 0
 6946 0d56 FFF7FEFF 		bl	Display2_ClearRxBuffer
 6947              	.LVL686:
1782:.\main.c      ****                     
 6948              		.loc 1 1782 0
 6949 0d5a 2EE3     		b	.L293
 6950              	.L425:
1785:.\main.c      ****                         case 1://ID Estacion
 6951              		.loc 1 1785 0
 6952 0d5c 1D4B     		ldr	r3, .L505+8
 6953 0d5e 93F80031 		ldrb	r3, [r3, #256]	@ zero_extendqisi2
 6954 0d62 013B     		subs	r3, r3, #1
 6955 0d64 052B     		cmp	r3, #5
 6956 0d66 00F2D280 		bhi	.L438
 6957 0d6a DFE813F0 		tbh	[pc, r3, lsl #1]
 6958              	.L440:
 6959 0d6e 0F00     		.2byte	(.L491-.L440)/2
 6960 0d70 5200     		.2byte	(.L492-.L440)/2
 6961 0d72 6800     		.2byte	(.L493-.L440)/2
 6962 0d74 D000     		.2byte	(.L438-.L440)/2
ARM GAS  C:\Users\RECEPC~1\AppData\Local\Temp\ccp152bc.s 			page 180


 6963 0d76 7E00     		.2byte	(.L494-.L440)/2
 6964 0d78 9400     		.2byte	(.L495-.L440)/2
 6965              	.LVL687:
 6966              		.p2align 1
 6967              	.L445:
1788:.\main.c      ****                             }
 6968              		.loc 1 1788 0 discriminator 3
 6969 0d7a 591C     		adds	r1, r3, #1
 6970 0d7c 154A     		ldr	r2, .L505+8
 6971 0d7e 0A44     		add	r2, r2, r1
 6972 0d80 92F84B00 		ldrb	r0, [r2, #75]	@ zero_extendqisi2
 6973 0d84 194A     		ldr	r2, .L505+32
 6974 0d86 D054     		strb	r0, [r2, r3]
1787:.\main.c      ****                                 idStation[x] =bufferDisplay2.valueKeys[x+1];                       
 6975              		.loc 1 1787 0 discriminator 3
 6976 0d88 CBB2     		uxtb	r3, r1
 6977              	.LVL688:
 6978 0d8a 00E0     		b	.L439
 6979              	.LVL689:
 6980              	.L491:
1785:.\main.c      ****                         case 1://ID Estacion
 6981              		.loc 1 1785 0
 6982 0d8c 0023     		movs	r3, #0
 6983              	.L439:
 6984              	.LVL690:
1787:.\main.c      ****                                 idStation[x] =bufferDisplay2.valueKeys[x+1];                       
 6985              		.loc 1 1787 0 discriminator 1
 6986 0d8e 042B     		cmp	r3, #4
 6987 0d90 F3D9     		bls	.L445
1790:.\main.c      ****                             intIDStation = atoi(idStation);
 6988              		.loc 1 1790 0
 6989 0d92 1648     		ldr	r0, .L505+32
 6990 0d94 0023     		movs	r3, #0
 6991              	.LVL691:
 6992 0d96 0371     		strb	r3, [r0, #4]
1791:.\main.c      ****                             IDCast[0] = intIDStation;
 6993              		.loc 1 1791 0
 6994 0d98 FFF7FEFF 		bl	atoi
 6995              	.LVL692:
 6996 0d9c 80B2     		uxth	r0, r0
 6997 0d9e 164B     		ldr	r3, .L505+44
 6998 0da0 1880     		strh	r0, [r3]	@ movhi
1792:.\main.c      ****                             IDCast[1] = intIDStation>>8;
 6999              		.loc 1 1792 0
 7000 0da2 C3B2     		uxtb	r3, r0
 7001 0da4 154C     		ldr	r4, .L505+48
 7002 0da6 2370     		strb	r3, [r4]
1793:.\main.c      ****                             EEPROM_1_WriteByte(IDCast[0],10);
 7003              		.loc 1 1793 0
 7004 0da8 000A     		lsrs	r0, r0, #8
 7005 0daa 6070     		strb	r0, [r4, #1]
1794:.\main.c      ****                             EEPROM_1_WriteByte(IDCast[1],11);
 7006              		.loc 1 1794 0
 7007 0dac 2078     		ldrb	r0, [r4]	@ zero_extendqisi2
 7008 0dae 0A21     		movs	r1, #10
 7009 0db0 FFF7FEFF 		bl	EEPROM_1_WriteByte
 7010              	.LVL693:
ARM GAS  C:\Users\RECEPC~1\AppData\Local\Temp\ccp152bc.s 			page 181


1795:.\main.c      ****                             flowDisplay2 = 15;
 7011              		.loc 1 1795 0
 7012 0db4 6078     		ldrb	r0, [r4, #1]	@ zero_extendqisi2
 7013 0db6 0B21     		movs	r1, #11
 7014 0db8 FFF7FEFF 		bl	EEPROM_1_WriteByte
 7015              	.LVL694:
1796:.\main.c      ****                             SetPicture(2,DISPLAY_CONFIGURACIONES);
 7016              		.loc 1 1796 0
 7017 0dbc 0F22     		movs	r2, #15
 7018 0dbe 034B     		ldr	r3, .L505
 7019 0dc0 1A60     		str	r2, [r3]
1797:.\main.c      ****                         break;
 7020              		.loc 1 1797 0
 7021 0dc2 0220     		movs	r0, #2
 7022 0dc4 5A21     		movs	r1, #90
 7023 0dc6 FFF7FEFF 		bl	SetPicture
 7024              	.LVL695:
1798:.\main.c      ****                         case 2://Pass
 7025              		.loc 1 1798 0
 7026 0dca A0E0     		b	.L438
 7027              	.L506:
 7028              		.align	2
 7029              	.L505:
 7030 0dcc 00000000 		.word	flowDisplay2
 7031 0dd0 00000000 		.word	lockTurn
 7032 0dd4 00000000 		.word	bufferDisplay2
 7033 0dd8 00000000 		.word	numberKeys1
 7034 0ddc 00000000 		.word	hiddenKeys
 7035 0de0 00000000 		.word	controlChar
 7036 0de4 00000000 		.word	side
 7037 0de8 00000000 		.word	Display2_rxBuffer
 7038 0dec 00000000 		.word	idStation
 7039 0df0 00000000 		.word	pumpGap
 7040 0df4 00000000 		.word	configAccess
 7041 0df8 00000000 		.word	intIDStation
 7042 0dfc 00000000 		.word	IDCast
 7043              	.LVL696:
 7044              	.L446:
1801:.\main.c      ****                             }
 7045              		.loc 1 1801 0 discriminator 3
 7046 0e00 8D4A     		ldr	r2, .L507
 7047 0e02 1A44     		add	r2, r2, r3
 7048 0e04 92F84B10 		ldrb	r1, [r2, #75]	@ zero_extendqisi2
 7049 0e08 8C4A     		ldr	r2, .L507+4
 7050 0e0a D154     		strb	r1, [r2, r3]
1800:.\main.c      ****                                 pumpGap[x] =bufferDisplay2.valueKeys[x];
 7051              		.loc 1 1800 0 discriminator 3
 7052 0e0c 0133     		adds	r3, r3, #1
 7053              	.LVL697:
 7054 0e0e DBB2     		uxtb	r3, r3
 7055              	.LVL698:
 7056 0e10 00E0     		b	.L441
 7057              	.LVL699:
 7058              	.L492:
1785:.\main.c      ****                         case 1://ID Estacion
 7059              		.loc 1 1785 0
 7060 0e12 0023     		movs	r3, #0
ARM GAS  C:\Users\RECEPC~1\AppData\Local\Temp\ccp152bc.s 			page 182


 7061              	.L441:
 7062              	.LVL700:
1800:.\main.c      ****                                 pumpGap[x] =bufferDisplay2.valueKeys[x];
 7063              		.loc 1 1800 0 discriminator 1
 7064 0e14 8A4A     		ldr	r2, .L507+8
 7065 0e16 1278     		ldrb	r2, [r2]	@ zero_extendqisi2
 7066 0e18 9342     		cmp	r3, r2
 7067 0e1a F1D3     		bcc	.L446
1803:.\main.c      ****                             SetPicture(2,DISPLAY_CONFIGURACIONES);
 7068              		.loc 1 1803 0
 7069 0e1c 0F22     		movs	r2, #15
 7070 0e1e 894B     		ldr	r3, .L507+12
 7071              	.LVL701:
 7072 0e20 1A60     		str	r2, [r3]
1804:.\main.c      ****                         break;
 7073              		.loc 1 1804 0
 7074 0e22 0220     		movs	r0, #2
 7075 0e24 5A21     		movs	r1, #90
 7076 0e26 FFF7FEFF 		bl	SetPicture
 7077              	.LVL702:
1805:.\main.c      ****                         case 3://Pass turno
 7078              		.loc 1 1805 0
 7079 0e2a 70E0     		b	.L438
 7080              	.LVL703:
 7081              	.L447:
1808:.\main.c      ****                             }
 7082              		.loc 1 1808 0 discriminator 3
 7083 0e2c 824A     		ldr	r2, .L507
 7084 0e2e 1A44     		add	r2, r2, r3
 7085 0e30 92F84B10 		ldrb	r1, [r2, #75]	@ zero_extendqisi2
 7086 0e34 82F84111 		strb	r1, [r2, #321]
1807:.\main.c      ****                                 bufferDisplay2.shiftPassword[x] =bufferDisplay2.valueKeys[x];
 7087              		.loc 1 1807 0 discriminator 3
 7088 0e38 0133     		adds	r3, r3, #1
 7089              	.LVL704:
 7090 0e3a DBB2     		uxtb	r3, r3
 7091              	.LVL705:
 7092 0e3c 00E0     		b	.L442
 7093              	.LVL706:
 7094              	.L493:
1785:.\main.c      ****                         case 1://ID Estacion
 7095              		.loc 1 1785 0
 7096 0e3e 0023     		movs	r3, #0
 7097              	.L442:
 7098              	.LVL707:
1807:.\main.c      ****                                 bufferDisplay2.shiftPassword[x] =bufferDisplay2.valueKeys[x];
 7099              		.loc 1 1807 0 discriminator 1
 7100 0e40 7F4A     		ldr	r2, .L507+8
 7101 0e42 1278     		ldrb	r2, [r2]	@ zero_extendqisi2
 7102 0e44 9342     		cmp	r3, r2
 7103 0e46 F1D3     		bcc	.L447
1810:.\main.c      ****                             SetPicture(2,DISPLAY_POR_FAVOR_ESPERE);
 7104              		.loc 1 1810 0
 7105 0e48 1322     		movs	r2, #19
 7106 0e4a 7E4B     		ldr	r3, .L507+12
 7107              	.LVL708:
 7108 0e4c 1A60     		str	r2, [r3]
ARM GAS  C:\Users\RECEPC~1\AppData\Local\Temp\ccp152bc.s 			page 183


1811:.\main.c      ****                         break;
 7109              		.loc 1 1811 0
 7110 0e4e 0220     		movs	r0, #2
 7111 0e50 3921     		movs	r1, #57
 7112 0e52 FFF7FEFF 		bl	SetPicture
 7113              	.LVL709:
1812:.\main.c      ****                         case 5://Pass
 7114              		.loc 1 1812 0
 7115 0e56 5AE0     		b	.L438
 7116              	.LVL710:
 7117              	.L448:
1815:.\main.c      ****                             }
 7118              		.loc 1 1815 0 discriminator 3
 7119 0e58 774A     		ldr	r2, .L507
 7120 0e5a 1A44     		add	r2, r2, r3
 7121 0e5c 92F84B10 		ldrb	r1, [r2, #75]	@ zero_extendqisi2
 7122 0e60 82F84111 		strb	r1, [r2, #321]
1814:.\main.c      ****                                 bufferDisplay2.shiftPassword[x] =bufferDisplay2.valueKeys[x];
 7123              		.loc 1 1814 0 discriminator 3
 7124 0e64 0133     		adds	r3, r3, #1
 7125              	.LVL711:
 7126 0e66 DBB2     		uxtb	r3, r3
 7127              	.LVL712:
 7128 0e68 00E0     		b	.L443
 7129              	.LVL713:
 7130              	.L494:
1785:.\main.c      ****                         case 1://ID Estacion
 7131              		.loc 1 1785 0
 7132 0e6a 0023     		movs	r3, #0
 7133              	.L443:
 7134              	.LVL714:
1814:.\main.c      ****                                 bufferDisplay2.shiftPassword[x] =bufferDisplay2.valueKeys[x];
 7135              		.loc 1 1814 0 discriminator 1
 7136 0e6c 744A     		ldr	r2, .L507+8
 7137 0e6e 1278     		ldrb	r2, [r2]	@ zero_extendqisi2
 7138 0e70 9342     		cmp	r3, r2
 7139 0e72 F1D3     		bcc	.L448
1817:.\main.c      ****                             SetPicture(2,DISPLAY_CONFIGURACIONES);
 7140              		.loc 1 1817 0
 7141 0e74 0F22     		movs	r2, #15
 7142 0e76 734B     		ldr	r3, .L507+12
 7143              	.LVL715:
 7144 0e78 1A60     		str	r2, [r3]
1818:.\main.c      ****                         break; 
 7145              		.loc 1 1818 0
 7146 0e7a 0220     		movs	r0, #2
 7147 0e7c 5A21     		movs	r1, #90
 7148 0e7e FFF7FEFF 		bl	SetPicture
 7149              	.LVL716:
1819:.\main.c      ****                         case 6://Pass
 7150              		.loc 1 1819 0
 7151 0e82 44E0     		b	.L438
 7152              	.LVL717:
 7153              	.L449:
1822:.\main.c      ****                             }
 7154              		.loc 1 1822 0 discriminator 3
 7155 0e84 6C4A     		ldr	r2, .L507
ARM GAS  C:\Users\RECEPC~1\AppData\Local\Temp\ccp152bc.s 			page 184


 7156 0e86 1A44     		add	r2, r2, r3
 7157 0e88 92F84B10 		ldrb	r1, [r2, #75]	@ zero_extendqisi2
 7158 0e8c 6E4A     		ldr	r2, .L507+16
 7159 0e8e D154     		strb	r1, [r2, r3]
1821:.\main.c      ****                                 configAccess[x] =bufferDisplay2.valueKeys[x];
 7160              		.loc 1 1821 0 discriminator 3
 7161 0e90 0133     		adds	r3, r3, #1
 7162              	.LVL718:
 7163 0e92 DBB2     		uxtb	r3, r3
 7164              	.LVL719:
 7165 0e94 00E0     		b	.L444
 7166              	.LVL720:
 7167              	.L495:
1785:.\main.c      ****                         case 1://ID Estacion
 7168              		.loc 1 1785 0
 7169 0e96 0123     		movs	r3, #1
 7170              	.L444:
 7171              	.LVL721:
1821:.\main.c      ****                                 configAccess[x] =bufferDisplay2.valueKeys[x];
 7172              		.loc 1 1821 0 discriminator 1
 7173 0e98 6B4A     		ldr	r2, .L507+16
 7174 0e9a 1278     		ldrb	r2, [r2]	@ zero_extendqisi2
 7175 0e9c 9A42     		cmp	r2, r3
 7176 0e9e F1D2     		bcs	.L449
1824:.\main.c      ****                                 SetPicture(2,DISPLAY_PASSWORD_VALIDO);
 7177              		.loc 1 1824 0
 7178 0ea0 694B     		ldr	r3, .L507+16
 7179              	.LVL722:
 7180 0ea2 5A78     		ldrb	r2, [r3, #1]	@ zero_extendqisi2
 7181 0ea4 694B     		ldr	r3, .L507+20
 7182 0ea6 5B78     		ldrb	r3, [r3, #1]	@ zero_extendqisi2
 7183 0ea8 9A42     		cmp	r2, r3
 7184 0eaa 21D1     		bne	.L450
1824:.\main.c      ****                                 SetPicture(2,DISPLAY_PASSWORD_VALIDO);
 7185              		.loc 1 1824 0 is_stmt 0 discriminator 1
 7186 0eac 664B     		ldr	r3, .L507+16
 7187 0eae 9A78     		ldrb	r2, [r3, #2]	@ zero_extendqisi2
 7188 0eb0 664B     		ldr	r3, .L507+20
 7189 0eb2 9B78     		ldrb	r3, [r3, #2]	@ zero_extendqisi2
 7190 0eb4 9A42     		cmp	r2, r3
 7191 0eb6 1BD1     		bne	.L450
1824:.\main.c      ****                                 SetPicture(2,DISPLAY_PASSWORD_VALIDO);
 7192              		.loc 1 1824 0 discriminator 2
 7193 0eb8 634B     		ldr	r3, .L507+16
 7194 0eba DA78     		ldrb	r2, [r3, #3]	@ zero_extendqisi2
 7195 0ebc 634B     		ldr	r3, .L507+20
 7196 0ebe DB78     		ldrb	r3, [r3, #3]	@ zero_extendqisi2
 7197 0ec0 9A42     		cmp	r2, r3
 7198 0ec2 15D1     		bne	.L450
1824:.\main.c      ****                                 SetPicture(2,DISPLAY_PASSWORD_VALIDO);
 7199              		.loc 1 1824 0 discriminator 3
 7200 0ec4 604B     		ldr	r3, .L507+16
 7201 0ec6 1A79     		ldrb	r2, [r3, #4]	@ zero_extendqisi2
 7202 0ec8 604B     		ldr	r3, .L507+20
 7203 0eca 1B79     		ldrb	r3, [r3, #4]	@ zero_extendqisi2
 7204 0ecc 9A42     		cmp	r2, r3
 7205 0ece 0FD1     		bne	.L450
ARM GAS  C:\Users\RECEPC~1\AppData\Local\Temp\ccp152bc.s 			page 185


1825:.\main.c      ****                                 CyDelay(700);
 7206              		.loc 1 1825 0 is_stmt 1
 7207 0ed0 0220     		movs	r0, #2
 7208 0ed2 2621     		movs	r1, #38
 7209 0ed4 FFF7FEFF 		bl	SetPicture
 7210              	.LVL723:
1826:.\main.c      ****                                 flowDisplay2 = 15;
 7211              		.loc 1 1826 0
 7212 0ed8 4FF42F70 		mov	r0, #700
 7213 0edc FFF7FEFF 		bl	CyDelay
 7214              	.LVL724:
1827:.\main.c      ****                                 SetPicture(2,DISPLAY_CONFIGURACIONES);
 7215              		.loc 1 1827 0
 7216 0ee0 0F22     		movs	r2, #15
 7217 0ee2 584B     		ldr	r3, .L507+12
 7218 0ee4 1A60     		str	r2, [r3]
1828:.\main.c      ****                             }else{
 7219              		.loc 1 1828 0
 7220 0ee6 0220     		movs	r0, #2
 7221 0ee8 5A21     		movs	r1, #90
 7222 0eea FFF7FEFF 		bl	SetPicture
 7223              	.LVL725:
 7224 0eee 0EE0     		b	.L438
 7225              	.L450:
1830:.\main.c      ****                                 CyDelay(700);
 7226              		.loc 1 1830 0
 7227 0ef0 0220     		movs	r0, #2
 7228 0ef2 2721     		movs	r1, #39
 7229 0ef4 FFF7FEFF 		bl	SetPicture
 7230              	.LVL726:
1831:.\main.c      ****                                 flowDisplay2 = 0;
 7231              		.loc 1 1831 0
 7232 0ef8 4FF42F70 		mov	r0, #700
 7233 0efc FFF7FEFF 		bl	CyDelay
 7234              	.LVL727:
1832:.\main.c      ****                                 SetPicture(2,DISPLAY_INICIO0);
 7235              		.loc 1 1832 0
 7236 0f00 0022     		movs	r2, #0
 7237 0f02 504B     		ldr	r3, .L507+12
 7238 0f04 1A60     		str	r2, [r3]
1833:.\main.c      ****                             }
 7239              		.loc 1 1833 0
 7240 0f06 0220     		movs	r0, #2
 7241 0f08 0121     		movs	r1, #1
 7242 0f0a FFF7FEFF 		bl	SetPicture
 7243              	.LVL728:
 7244              	.L438:
1837:.\main.c      ****                 break;
 7245              		.loc 1 1837 0
 7246 0f0e FFF7FEFF 		bl	Display2_ClearRxBuffer
 7247              	.LVL729:
1838:.\main.c      ****             }            
 7248              		.loc 1 1838 0
 7249 0f12 52E2     		b	.L293
 7250              	.L311:
1843:.\main.c      ****                 if((Display2_rxBuffer[0]==0xAA) && (Display2_rxBuffer[6]==0xC3) && (Display2_rxBuff
 7251              		.loc 1 1843 0
ARM GAS  C:\Users\RECEPC~1\AppData\Local\Temp\ccp152bc.s 			page 186


 7252 0f14 FFF7FEFF 		bl	Display2_GetRxBufferSize
 7253              	.LVL730:
 7254 0f18 0828     		cmp	r0, #8
 7255 0f1a 40F04E82 		bne	.L293
1844:.\main.c      ****                     switch(Display2_rxBuffer[3]){
 7256              		.loc 1 1844 0
 7257 0f1e 4C4B     		ldr	r3, .L507+24
 7258 0f20 1B78     		ldrb	r3, [r3]	@ zero_extendqisi2
 7259 0f22 DBB2     		uxtb	r3, r3
 7260 0f24 AA2B     		cmp	r3, #170
 7261 0f26 40F08180 		bne	.L451
1844:.\main.c      ****                     switch(Display2_rxBuffer[3]){
 7262              		.loc 1 1844 0 is_stmt 0 discriminator 1
 7263 0f2a 494B     		ldr	r3, .L507+24
 7264 0f2c 9B79     		ldrb	r3, [r3, #6]	@ zero_extendqisi2
 7265 0f2e DBB2     		uxtb	r3, r3
 7266 0f30 C32B     		cmp	r3, #195
 7267 0f32 7BD1     		bne	.L451
1844:.\main.c      ****                     switch(Display2_rxBuffer[3]){
 7268              		.loc 1 1844 0 discriminator 2
 7269 0f34 464B     		ldr	r3, .L507+24
 7270 0f36 DB79     		ldrb	r3, [r3, #7]	@ zero_extendqisi2
 7271 0f38 DBB2     		uxtb	r3, r3
 7272 0f3a 3C2B     		cmp	r3, #60
 7273 0f3c 76D1     		bne	.L451
1845:.\main.c      ****                         case 0x82:  //ID Estacion  
 7274              		.loc 1 1845 0 is_stmt 1
 7275 0f3e 444B     		ldr	r3, .L507+24
 7276 0f40 DB78     		ldrb	r3, [r3, #3]	@ zero_extendqisi2
 7277 0f42 583B     		subs	r3, r3, #88
 7278 0f44 3C2B     		cmp	r3, #60
 7279 0f46 71D8     		bhi	.L451
 7280 0f48 DFE803F0 		tbb	[pc, r3]
 7281              	.L453:
 7282 0f4c 52       		.byte	(.L452-.L453)/2
 7283 0f4d 70       		.byte	(.L451-.L453)/2
 7284 0f4e 3D       		.byte	(.L454-.L453)/2
 7285 0f4f 70       		.byte	(.L451-.L453)/2
 7286 0f50 70       		.byte	(.L451-.L453)/2
 7287 0f51 70       		.byte	(.L451-.L453)/2
 7288 0f52 70       		.byte	(.L451-.L453)/2
 7289 0f53 70       		.byte	(.L451-.L453)/2
 7290 0f54 70       		.byte	(.L451-.L453)/2
 7291 0f55 70       		.byte	(.L451-.L453)/2
 7292 0f56 70       		.byte	(.L451-.L453)/2
 7293 0f57 70       		.byte	(.L451-.L453)/2
 7294 0f58 70       		.byte	(.L451-.L453)/2
 7295 0f59 33       		.byte	(.L455-.L453)/2
 7296 0f5a 70       		.byte	(.L451-.L453)/2
 7297 0f5b 70       		.byte	(.L451-.L453)/2
 7298 0f5c 70       		.byte	(.L451-.L453)/2
 7299 0f5d 70       		.byte	(.L451-.L453)/2
 7300 0f5e 70       		.byte	(.L451-.L453)/2
 7301 0f5f 70       		.byte	(.L451-.L453)/2
 7302 0f60 70       		.byte	(.L451-.L453)/2
 7303 0f61 70       		.byte	(.L451-.L453)/2
 7304 0f62 70       		.byte	(.L451-.L453)/2
ARM GAS  C:\Users\RECEPC~1\AppData\Local\Temp\ccp152bc.s 			page 187


 7305 0f63 70       		.byte	(.L451-.L453)/2
 7306 0f64 70       		.byte	(.L451-.L453)/2
 7307 0f65 70       		.byte	(.L451-.L453)/2
 7308 0f66 70       		.byte	(.L451-.L453)/2
 7309 0f67 70       		.byte	(.L451-.L453)/2
 7310 0f68 70       		.byte	(.L451-.L453)/2
 7311 0f69 70       		.byte	(.L451-.L453)/2
 7312 0f6a 70       		.byte	(.L451-.L453)/2
 7313 0f6b 70       		.byte	(.L451-.L453)/2
 7314 0f6c 70       		.byte	(.L451-.L453)/2
 7315 0f6d 70       		.byte	(.L451-.L453)/2
 7316 0f6e 70       		.byte	(.L451-.L453)/2
 7317 0f6f 70       		.byte	(.L451-.L453)/2
 7318 0f70 70       		.byte	(.L451-.L453)/2
 7319 0f71 70       		.byte	(.L451-.L453)/2
 7320 0f72 61       		.byte	(.L456-.L453)/2
 7321 0f73 70       		.byte	(.L451-.L453)/2
 7322 0f74 70       		.byte	(.L451-.L453)/2
 7323 0f75 70       		.byte	(.L451-.L453)/2
 7324 0f76 1F       		.byte	(.L457-.L453)/2
 7325 0f77 70       		.byte	(.L451-.L453)/2
 7326 0f78 70       		.byte	(.L451-.L453)/2
 7327 0f79 70       		.byte	(.L451-.L453)/2
 7328 0f7a 70       		.byte	(.L451-.L453)/2
 7329 0f7b 70       		.byte	(.L451-.L453)/2
 7330 0f7c 70       		.byte	(.L451-.L453)/2
 7331 0f7d 70       		.byte	(.L451-.L453)/2
 7332 0f7e 70       		.byte	(.L451-.L453)/2
 7333 0f7f 70       		.byte	(.L451-.L453)/2
 7334 0f80 70       		.byte	(.L451-.L453)/2
 7335 0f81 70       		.byte	(.L451-.L453)/2
 7336 0f82 70       		.byte	(.L451-.L453)/2
 7337 0f83 70       		.byte	(.L451-.L453)/2
 7338 0f84 70       		.byte	(.L451-.L453)/2
 7339 0f85 70       		.byte	(.L451-.L453)/2
 7340 0f86 70       		.byte	(.L451-.L453)/2
 7341 0f87 70       		.byte	(.L451-.L453)/2
 7342 0f88 69       		.byte	(.L458-.L453)/2
 7343 0f89 00       		.p2align 1
 7344              	.L457:
1847:.\main.c      ****                             numberKeys1 = 0; 
 7345              		.loc 1 1847 0
 7346 0f8a 0E22     		movs	r2, #14
 7347 0f8c 2D4B     		ldr	r3, .L507+12
 7348 0f8e 1A60     		str	r2, [r3]
1848:.\main.c      ****                             controlChar = 0;
 7349              		.loc 1 1848 0
 7350 0f90 0023     		movs	r3, #0
 7351 0f92 304A     		ldr	r2, .L507+28
 7352 0f94 1370     		strb	r3, [r2]
1849:.\main.c      ****                             hiddenKeys  = 5;
 7353              		.loc 1 1849 0
 7354 0f96 304A     		ldr	r2, .L507+32
 7355 0f98 1370     		strb	r3, [r2]
1850:.\main.c      ****                             bufferDisplay2.flagKeyboard = 1;
 7356              		.loc 1 1850 0
 7357 0f9a 0522     		movs	r2, #5
ARM GAS  C:\Users\RECEPC~1\AppData\Local\Temp\ccp152bc.s 			page 188


 7358 0f9c 284B     		ldr	r3, .L507+8
 7359 0f9e 1A70     		strb	r2, [r3]
1851:.\main.c      ****                             SetPicture(2,DISPLAY_INTRODUZCA_VALOR);                            
 7360              		.loc 1 1851 0
 7361 0fa0 0122     		movs	r2, #1
 7362 0fa2 254B     		ldr	r3, .L507
 7363 0fa4 83F80021 		strb	r2, [r3, #256]
1852:.\main.c      ****                         break;
 7364              		.loc 1 1852 0
 7365 0fa8 0220     		movs	r0, #2
 7366 0faa 0621     		movs	r1, #6
 7367 0fac FFF7FEFF 		bl	SetPicture
 7368              	.LVL731:
1853:.\main.c      ****                         case 0x65:  //Test Impresoras 
 7369              		.loc 1 1853 0
 7370 0fb0 3CE0     		b	.L451
 7371              	.L455:
1855:.\main.c      ****                             PrintTest();
 7372              		.loc 1 1855 0
 7373 0fb2 1022     		movs	r2, #16
 7374 0fb4 234B     		ldr	r3, .L507+12
 7375 0fb6 1A60     		str	r2, [r3]
1856:.\main.c      ****                             SetPicture(2,DISPLAY_AMBAS_IMPRESORAS_FUNCIONANDO);                    
 7376              		.loc 1 1856 0
 7377 0fb8 FFF7FEFF 		bl	PrintTest
 7378              	.LVL732:
1857:.\main.c      ****                         break;
 7379              		.loc 1 1857 0
 7380 0fbc 0220     		movs	r0, #2
 7381 0fbe 6B21     		movs	r1, #107
 7382 0fc0 FFF7FEFF 		bl	SetPicture
 7383              	.LVL733:
1858:.\main.c      ****                         
 7384              		.loc 1 1858 0
 7385 0fc4 32E0     		b	.L451
 7386              	.L454:
1861:.\main.c      ****                             numberKeys1 = 0;
 7387              		.loc 1 1861 0
 7388 0fc6 0E22     		movs	r2, #14
 7389 0fc8 1E4B     		ldr	r3, .L507+12
 7390 0fca 1A60     		str	r2, [r3]
1862:.\main.c      ****                             controlChar = 0;
 7391              		.loc 1 1862 0
 7392 0fcc 0023     		movs	r3, #0
 7393 0fce 214A     		ldr	r2, .L507+28
 7394 0fd0 1370     		strb	r3, [r2]
1863:.\main.c      ****                             hiddenKeys  = 3;
 7395              		.loc 1 1863 0
 7396 0fd2 214A     		ldr	r2, .L507+32
 7397 0fd4 1370     		strb	r3, [r2]
1864:.\main.c      ****                             pumpGap[0]  = 2;
 7398              		.loc 1 1864 0
 7399 0fd6 0322     		movs	r2, #3
 7400 0fd8 194B     		ldr	r3, .L507+8
 7401 0fda 1A70     		strb	r2, [r3]
1865:.\main.c      ****                             bufferDisplay2.flagKeyboard = 2;
 7402              		.loc 1 1865 0
ARM GAS  C:\Users\RECEPC~1\AppData\Local\Temp\ccp152bc.s 			page 189


 7403 0fdc 0220     		movs	r0, #2
 7404 0fde 174B     		ldr	r3, .L507+4
 7405 0fe0 1870     		strb	r0, [r3]
1866:.\main.c      ****                             SetPicture(2,DISPLAY_INTRODUZCA_VALOR);                            
 7406              		.loc 1 1866 0
 7407 0fe2 154B     		ldr	r3, .L507
 7408 0fe4 83F80001 		strb	r0, [r3, #256]
1867:.\main.c      ****                         break;
 7409              		.loc 1 1867 0
 7410 0fe8 0621     		movs	r1, #6
 7411 0fea FFF7FEFF 		bl	SetPicture
 7412              	.LVL734:
1868:.\main.c      ****                         case 0x58:  //Hora y Fecha
 7413              		.loc 1 1868 0
 7414 0fee 1DE0     		b	.L451
 7415              	.L452:
1870:.\main.c      ****                             numberKeys1 = 0;   
 7416              		.loc 1 1870 0
 7417 0ff0 1222     		movs	r2, #18
 7418 0ff2 144B     		ldr	r3, .L507+12
 7419 0ff4 1A60     		str	r2, [r3]
1871:.\main.c      ****                             bufferDisplay2.flagKeyboard = 4;
 7420              		.loc 1 1871 0
 7421 0ff6 0022     		movs	r2, #0
 7422 0ff8 164B     		ldr	r3, .L507+28
 7423 0ffa 1A70     		strb	r2, [r3]
1872:.\main.c      ****                             SetPicture(2,DISPLAY_CONFIGURAR_FECHA_HORA);                           
 7424              		.loc 1 1872 0
 7425 0ffc 0422     		movs	r2, #4
 7426 0ffe 0E4B     		ldr	r3, .L507
 7427 1000 83F80021 		strb	r2, [r3, #256]
1873:.\main.c      ****                         break;
 7428              		.loc 1 1873 0
 7429 1004 0220     		movs	r0, #2
 7430 1006 3E21     		movs	r1, #62
 7431 1008 FFF7FEFF 		bl	SetPicture
 7432              	.LVL735:
1874:.\main.c      ****                         case 0x7E:  //Pantalla Inicial                                             
 7433              		.loc 1 1874 0
 7434 100c 0EE0     		b	.L451
 7435              	.L456:
1876:.\main.c      ****                             flowDisplay2 = 0;
 7436              		.loc 1 1876 0
 7437 100e 0220     		movs	r0, #2
 7438 1010 0121     		movs	r1, #1
 7439 1012 FFF7FEFF 		bl	SetPicture
 7440              	.LVL736:
1877:.\main.c      ****                         break;
 7441              		.loc 1 1877 0
 7442 1016 0022     		movs	r2, #0
 7443 1018 0A4B     		ldr	r3, .L507+12
 7444 101a 1A60     		str	r2, [r3]
1878:.\main.c      ****                         case 0x94:  //Pantalla Inicial                                             
 7445              		.loc 1 1878 0
 7446 101c 06E0     		b	.L451
 7447              	.L458:
1880:.\main.c      ****                             flowDisplay2 = 0;
ARM GAS  C:\Users\RECEPC~1\AppData\Local\Temp\ccp152bc.s 			page 190


 7448              		.loc 1 1880 0
 7449 101e 0220     		movs	r0, #2
 7450 1020 0121     		movs	r1, #1
 7451 1022 FFF7FEFF 		bl	SetPicture
 7452              	.LVL737:
1881:.\main.c      ****                         break;
 7453              		.loc 1 1881 0
 7454 1026 0022     		movs	r2, #0
 7455 1028 064B     		ldr	r3, .L507+12
 7456 102a 1A60     		str	r2, [r3]
 7457              	.L451:
1885:.\main.c      ****                 Display2_ClearRxBuffer();
 7458              		.loc 1 1885 0
 7459 102c 0A20     		movs	r0, #10
 7460 102e FFF7FEFF 		bl	CyDelay
 7461              	.LVL738:
1886:.\main.c      ****             }                        
 7462              		.loc 1 1886 0
 7463 1032 FFF7FEFF 		bl	Display2_ClearRxBuffer
 7464              	.LVL739:
 7465 1036 C0E1     		b	.L293
 7466              	.L508:
 7467              		.align	2
 7468              	.L507:
 7469 1038 00000000 		.word	bufferDisplay2
 7470 103c 00000000 		.word	pumpGap
 7471 1040 00000000 		.word	hiddenKeys
 7472 1044 00000000 		.word	flowDisplay2
 7473 1048 00000000 		.word	configAccess
 7474 104c 00000000 		.word	.LANCHOR0
 7475 1050 00000000 		.word	Display2_rxBuffer
 7476 1054 00000000 		.word	numberKeys1
 7477 1058 00000000 		.word	controlChar
 7478              	.L312:
1891:.\main.c      ****                 if((Display2_rxBuffer[0]==0xAA) && (Display2_rxBuffer[6]==0xC3) && (Display2_rxBuff
 7479              		.loc 1 1891 0
 7480 105c FFF7FEFF 		bl	Display2_GetRxBufferSize
 7481              	.LVL740:
 7482 1060 0828     		cmp	r0, #8
 7483 1062 40F0AA81 		bne	.L293
1892:.\main.c      ****                     switch(Display2_rxBuffer[3]){
 7484              		.loc 1 1892 0
 7485 1066 644B     		ldr	r3, .L509
 7486 1068 1B78     		ldrb	r3, [r3]	@ zero_extendqisi2
 7487 106a DBB2     		uxtb	r3, r3
 7488 106c AA2B     		cmp	r3, #170
 7489 106e 43D1     		bne	.L459
1892:.\main.c      ****                     switch(Display2_rxBuffer[3]){
 7490              		.loc 1 1892 0 is_stmt 0 discriminator 1
 7491 1070 614B     		ldr	r3, .L509
 7492 1072 9B79     		ldrb	r3, [r3, #6]	@ zero_extendqisi2
 7493 1074 DBB2     		uxtb	r3, r3
 7494 1076 C32B     		cmp	r3, #195
 7495 1078 3ED1     		bne	.L459
1892:.\main.c      ****                     switch(Display2_rxBuffer[3]){
 7496              		.loc 1 1892 0 discriminator 2
 7497 107a 5F4B     		ldr	r3, .L509
ARM GAS  C:\Users\RECEPC~1\AppData\Local\Temp\ccp152bc.s 			page 191


 7498 107c DB79     		ldrb	r3, [r3, #7]	@ zero_extendqisi2
 7499 107e DBB2     		uxtb	r3, r3
 7500 1080 3C2B     		cmp	r3, #60
 7501 1082 39D1     		bne	.L459
1893:.\main.c      ****                         case 0x38:  //No funcionan  
 7502              		.loc 1 1893 0 is_stmt 1
 7503 1084 5C4B     		ldr	r3, .L509
 7504 1086 DB78     		ldrb	r3, [r3, #3]	@ zero_extendqisi2
 7505 1088 DBB2     		uxtb	r3, r3
 7506 108a 392B     		cmp	r3, #57
 7507 108c 10D0     		beq	.L460
 7508 108e 02D8     		bhi	.L461
 7509 1090 382B     		cmp	r3, #56
 7510 1092 05D0     		beq	.L462
 7511 1094 30E0     		b	.L459
 7512              	.L461:
 7513 1096 7E2B     		cmp	r3, #126
 7514 1098 1FD0     		beq	.L463
 7515 109a 942B     		cmp	r3, #148
 7516 109c 25D0     		beq	.L464
 7517 109e 2BE0     		b	.L459
 7518              	.L462:
1895:.\main.c      ****                             SetPicture(2,DISPLAY_IMPRESORA_NO_FUNCIONANDO);                        
 7519              		.loc 1 1895 0
 7520 10a0 1122     		movs	r2, #17
 7521 10a2 564B     		ldr	r3, .L509+4
 7522 10a4 1A60     		str	r2, [r3]
1896:.\main.c      ****                         break;
 7523              		.loc 1 1896 0
 7524 10a6 0220     		movs	r0, #2
 7525 10a8 6721     		movs	r1, #103
 7526 10aa FFF7FEFF 		bl	SetPicture
 7527              	.LVL741:
1897:.\main.c      ****                         case 0x39:  //Si funcionan
 7528              		.loc 1 1897 0
 7529 10ae 23E0     		b	.L459
 7530              	.L460:
1899:.\main.c      ****                             printPortA = 1;
 7531              		.loc 1 1899 0
 7532 10b0 0F22     		movs	r2, #15
 7533 10b2 524B     		ldr	r3, .L509+4
 7534 10b4 1A60     		str	r2, [r3]
1900:.\main.c      ****                             printPortB = 2;
 7535              		.loc 1 1900 0
 7536 10b6 0120     		movs	r0, #1
 7537 10b8 514B     		ldr	r3, .L509+8
 7538 10ba 1870     		strb	r0, [r3]
1901:.\main.c      ****                             EEPROM_1_WriteByte(printPortA,8);
 7539              		.loc 1 1901 0
 7540 10bc 514D     		ldr	r5, .L509+12
 7541 10be 0224     		movs	r4, #2
 7542 10c0 2C70     		strb	r4, [r5]
1902:.\main.c      ****                             EEPROM_1_WriteByte(printPortB,9);
 7543              		.loc 1 1902 0
 7544 10c2 0821     		movs	r1, #8
 7545 10c4 FFF7FEFF 		bl	EEPROM_1_WriteByte
 7546              	.LVL742:
ARM GAS  C:\Users\RECEPC~1\AppData\Local\Temp\ccp152bc.s 			page 192


1903:.\main.c      ****                             SetPicture(2,DISPLAY_CONFIGURACIONES);
 7547              		.loc 1 1903 0
 7548 10c8 2878     		ldrb	r0, [r5]	@ zero_extendqisi2
 7549 10ca 0921     		movs	r1, #9
 7550 10cc FFF7FEFF 		bl	EEPROM_1_WriteByte
 7551              	.LVL743:
1904:.\main.c      ****                         break;
 7552              		.loc 1 1904 0
 7553 10d0 2046     		mov	r0, r4
 7554 10d2 5A21     		movs	r1, #90
 7555 10d4 FFF7FEFF 		bl	SetPicture
 7556              	.LVL744:
1905:.\main.c      ****                                                
 7557              		.loc 1 1905 0
 7558 10d8 0EE0     		b	.L459
 7559              	.L463:
1908:.\main.c      ****                             flowDisplay2 = 0;
 7560              		.loc 1 1908 0
 7561 10da 0220     		movs	r0, #2
 7562 10dc 0121     		movs	r1, #1
 7563 10de FFF7FEFF 		bl	SetPicture
 7564              	.LVL745:
1909:.\main.c      ****                         break;
 7565              		.loc 1 1909 0
 7566 10e2 0022     		movs	r2, #0
 7567 10e4 454B     		ldr	r3, .L509+4
 7568 10e6 1A60     		str	r2, [r3]
1910:.\main.c      ****                         case 0x94:  //Pantalla Inicial                                             
 7569              		.loc 1 1910 0
 7570 10e8 06E0     		b	.L459
 7571              	.L464:
1912:.\main.c      ****                             flowDisplay2 = 0;
 7572              		.loc 1 1912 0
 7573 10ea 0220     		movs	r0, #2
 7574 10ec 0121     		movs	r1, #1
 7575 10ee FFF7FEFF 		bl	SetPicture
 7576              	.LVL746:
1913:.\main.c      ****                         break;
 7577              		.loc 1 1913 0
 7578 10f2 0022     		movs	r2, #0
 7579 10f4 414B     		ldr	r3, .L509+4
 7580 10f6 1A60     		str	r2, [r3]
 7581              	.L459:
1917:.\main.c      ****                 Display2_ClearRxBuffer();
 7582              		.loc 1 1917 0
 7583 10f8 0A20     		movs	r0, #10
 7584 10fa FFF7FEFF 		bl	CyDelay
 7585              	.LVL747:
1918:.\main.c      ****             }                        
 7586              		.loc 1 1918 0
 7587 10fe FFF7FEFF 		bl	Display2_ClearRxBuffer
 7588              	.LVL748:
 7589 1102 5AE1     		b	.L293
 7590              	.L313:
1923:.\main.c      ****                 if((Display2_rxBuffer[0]==0xAA) && (Display2_rxBuffer[6]==0xC3) && (Display2_rxBuff
 7591              		.loc 1 1923 0
 7592 1104 FFF7FEFF 		bl	Display2_GetRxBufferSize
ARM GAS  C:\Users\RECEPC~1\AppData\Local\Temp\ccp152bc.s 			page 193


 7593              	.LVL749:
 7594 1108 0828     		cmp	r0, #8
 7595 110a 40F05681 		bne	.L293
1924:.\main.c      ****                     switch(Display2_rxBuffer[3]){
 7596              		.loc 1 1924 0
 7597 110e 3A4B     		ldr	r3, .L509
 7598 1110 1B78     		ldrb	r3, [r3]	@ zero_extendqisi2
 7599 1112 DBB2     		uxtb	r3, r3
 7600 1114 AA2B     		cmp	r3, #170
 7601 1116 68D1     		bne	.L465
1924:.\main.c      ****                     switch(Display2_rxBuffer[3]){
 7602              		.loc 1 1924 0 is_stmt 0 discriminator 1
 7603 1118 374B     		ldr	r3, .L509
 7604 111a 9B79     		ldrb	r3, [r3, #6]	@ zero_extendqisi2
 7605 111c DBB2     		uxtb	r3, r3
 7606 111e C32B     		cmp	r3, #195
 7607 1120 63D1     		bne	.L465
1924:.\main.c      ****                     switch(Display2_rxBuffer[3]){
 7608              		.loc 1 1924 0 discriminator 2
 7609 1122 354B     		ldr	r3, .L509
 7610 1124 DB79     		ldrb	r3, [r3, #7]	@ zero_extendqisi2
 7611 1126 DBB2     		uxtb	r3, r3
 7612 1128 3C2B     		cmp	r3, #60
 7613 112a 5ED1     		bne	.L465
1925:.\main.c      ****                         case 0x8C:  //1 no funciona  
 7614              		.loc 1 1925 0 is_stmt 1
 7615 112c 324B     		ldr	r3, .L509
 7616 112e DB78     		ldrb	r3, [r3, #3]	@ zero_extendqisi2
 7617 1130 7E3B     		subs	r3, r3, #126
 7618 1132 162B     		cmp	r3, #22
 7619 1134 59D8     		bhi	.L465
 7620 1136 DFE803F0 		tbb	[pc, r3]
 7621              	.L467:
 7622 113a 49       		.byte	(.L466-.L467)/2
 7623 113b 58       		.byte	(.L465-.L467)/2
 7624 113c 58       		.byte	(.L465-.L467)/2
 7625 113d 58       		.byte	(.L465-.L467)/2
 7626 113e 58       		.byte	(.L465-.L467)/2
 7627 113f 58       		.byte	(.L465-.L467)/2
 7628 1140 58       		.byte	(.L465-.L467)/2
 7629 1141 58       		.byte	(.L465-.L467)/2
 7630 1142 58       		.byte	(.L465-.L467)/2
 7631 1143 58       		.byte	(.L465-.L467)/2
 7632 1144 58       		.byte	(.L465-.L467)/2
 7633 1145 58       		.byte	(.L465-.L467)/2
 7634 1146 58       		.byte	(.L465-.L467)/2
 7635 1147 58       		.byte	(.L465-.L467)/2
 7636 1148 0C       		.byte	(.L468-.L467)/2
 7637 1149 21       		.byte	(.L469-.L467)/2
 7638 114a 35       		.byte	(.L470-.L467)/2
 7639 114b 58       		.byte	(.L465-.L467)/2
 7640 114c 58       		.byte	(.L465-.L467)/2
 7641 114d 58       		.byte	(.L465-.L467)/2
 7642 114e 58       		.byte	(.L465-.L467)/2
 7643 114f 58       		.byte	(.L465-.L467)/2
 7644 1150 51       		.byte	(.L471-.L467)/2
 7645 1151 00       		.p2align 1
ARM GAS  C:\Users\RECEPC~1\AppData\Local\Temp\ccp152bc.s 			page 194


 7646              	.L468:
1927:.\main.c      ****                             printPortA = 2;
 7647              		.loc 1 1927 0
 7648 1152 0F22     		movs	r2, #15
 7649 1154 294B     		ldr	r3, .L509+4
 7650 1156 1A60     		str	r2, [r3]
1928:.\main.c      ****                             printPortB = 2;
 7651              		.loc 1 1928 0
 7652 1158 0224     		movs	r4, #2
 7653 115a 294B     		ldr	r3, .L509+8
 7654 115c 1C70     		strb	r4, [r3]
1929:.\main.c      ****                             EEPROM_1_WriteByte(printPortA,8);
 7655              		.loc 1 1929 0
 7656 115e 294D     		ldr	r5, .L509+12
 7657 1160 2C70     		strb	r4, [r5]
1930:.\main.c      ****                             EEPROM_1_WriteByte(printPortB,9);
 7658              		.loc 1 1930 0
 7659 1162 2046     		mov	r0, r4
 7660 1164 0821     		movs	r1, #8
 7661 1166 FFF7FEFF 		bl	EEPROM_1_WriteByte
 7662              	.LVL750:
1931:.\main.c      ****                             SetPicture(2,DISPLAY_CONFIGURACIONES);                            
 7663              		.loc 1 1931 0
 7664 116a 2878     		ldrb	r0, [r5]	@ zero_extendqisi2
 7665 116c 0921     		movs	r1, #9
 7666 116e FFF7FEFF 		bl	EEPROM_1_WriteByte
 7667              	.LVL751:
1932:.\main.c      ****                         break;
 7668              		.loc 1 1932 0
 7669 1172 2046     		mov	r0, r4
 7670 1174 5A21     		movs	r1, #90
 7671 1176 FFF7FEFF 		bl	SetPicture
 7672              	.LVL752:
1933:.\main.c      ****                         case 0x8D:  //2 no funciona
 7673              		.loc 1 1933 0
 7674 117a 36E0     		b	.L465
 7675              	.L469:
1935:.\main.c      ****                             printPortA = 1;
 7676              		.loc 1 1935 0
 7677 117c 0F22     		movs	r2, #15
 7678 117e 1F4B     		ldr	r3, .L509+4
 7679 1180 1A60     		str	r2, [r3]
1936:.\main.c      ****                             printPortB = 1;
 7680              		.loc 1 1936 0
 7681 1182 0120     		movs	r0, #1
 7682 1184 1E4B     		ldr	r3, .L509+8
 7683 1186 1870     		strb	r0, [r3]
1937:.\main.c      ****                             EEPROM_1_WriteByte(printPortA,8);
 7684              		.loc 1 1937 0
 7685 1188 1E4C     		ldr	r4, .L509+12
 7686 118a 2070     		strb	r0, [r4]
1938:.\main.c      ****                             EEPROM_1_WriteByte(printPortB,9);
 7687              		.loc 1 1938 0
 7688 118c 0821     		movs	r1, #8
 7689 118e FFF7FEFF 		bl	EEPROM_1_WriteByte
 7690              	.LVL753:
1939:.\main.c      ****                             SetPicture(2,DISPLAY_CONFIGURACIONES); 
ARM GAS  C:\Users\RECEPC~1\AppData\Local\Temp\ccp152bc.s 			page 195


 7691              		.loc 1 1939 0
 7692 1192 2078     		ldrb	r0, [r4]	@ zero_extendqisi2
 7693 1194 0921     		movs	r1, #9
 7694 1196 FFF7FEFF 		bl	EEPROM_1_WriteByte
 7695              	.LVL754:
1940:.\main.c      ****                         break;
 7696              		.loc 1 1940 0
 7697 119a 0220     		movs	r0, #2
 7698 119c 5A21     		movs	r1, #90
 7699 119e FFF7FEFF 		bl	SetPicture
 7700              	.LVL755:
1941:.\main.c      ****                             
 7701              		.loc 1 1941 0
 7702 11a2 22E0     		b	.L465
 7703              	.L470:
1944:.\main.c      ****                             printPortA = 0;
 7704              		.loc 1 1944 0
 7705 11a4 0F22     		movs	r2, #15
 7706 11a6 154B     		ldr	r3, .L509+4
 7707 11a8 1A60     		str	r2, [r3]
1945:.\main.c      ****                             printPortB = 0;
 7708              		.loc 1 1945 0
 7709 11aa 0020     		movs	r0, #0
 7710 11ac 144B     		ldr	r3, .L509+8
 7711 11ae 1870     		strb	r0, [r3]
1946:.\main.c      ****                             EEPROM_1_WriteByte(printPortA,8);
 7712              		.loc 1 1946 0
 7713 11b0 144C     		ldr	r4, .L509+12
 7714 11b2 2070     		strb	r0, [r4]
1947:.\main.c      ****                             EEPROM_1_WriteByte(printPortB,9);
 7715              		.loc 1 1947 0
 7716 11b4 0821     		movs	r1, #8
 7717 11b6 FFF7FEFF 		bl	EEPROM_1_WriteByte
 7718              	.LVL756:
1948:.\main.c      ****                             SetPicture(2,DISPLAY_CONFIGURACIONES); 
 7719              		.loc 1 1948 0
 7720 11ba 2078     		ldrb	r0, [r4]	@ zero_extendqisi2
 7721 11bc 0921     		movs	r1, #9
 7722 11be FFF7FEFF 		bl	EEPROM_1_WriteByte
 7723              	.LVL757:
1949:.\main.c      ****                         break;
 7724              		.loc 1 1949 0
 7725 11c2 0220     		movs	r0, #2
 7726 11c4 5A21     		movs	r1, #90
 7727 11c6 FFF7FEFF 		bl	SetPicture
 7728              	.LVL758:
1950:.\main.c      ****                                                
 7729              		.loc 1 1950 0
 7730 11ca 0EE0     		b	.L465
 7731              	.L466:
1953:.\main.c      ****                             flowDisplay2 = 0;
 7732              		.loc 1 1953 0
 7733 11cc 0220     		movs	r0, #2
 7734 11ce 0121     		movs	r1, #1
 7735 11d0 FFF7FEFF 		bl	SetPicture
 7736              	.LVL759:
1954:.\main.c      ****                         break;
ARM GAS  C:\Users\RECEPC~1\AppData\Local\Temp\ccp152bc.s 			page 196


 7737              		.loc 1 1954 0
 7738 11d4 0022     		movs	r2, #0
 7739 11d6 094B     		ldr	r3, .L509+4
 7740 11d8 1A60     		str	r2, [r3]
1955:.\main.c      ****                         case 0x94:  //Pantalla Inicial                                             
 7741              		.loc 1 1955 0
 7742 11da 06E0     		b	.L465
 7743              	.L471:
1957:.\main.c      ****                             flowDisplay2 = 0;
 7744              		.loc 1 1957 0
 7745 11dc 0220     		movs	r0, #2
 7746 11de 0121     		movs	r1, #1
 7747 11e0 FFF7FEFF 		bl	SetPicture
 7748              	.LVL760:
1958:.\main.c      ****                         break;
 7749              		.loc 1 1958 0
 7750 11e4 0022     		movs	r2, #0
 7751 11e6 054B     		ldr	r3, .L509+4
 7752 11e8 1A60     		str	r2, [r3]
 7753              	.L465:
1962:.\main.c      ****                 Display2_ClearRxBuffer();
 7754              		.loc 1 1962 0
 7755 11ea 0A20     		movs	r0, #10
 7756 11ec FFF7FEFF 		bl	CyDelay
 7757              	.LVL761:
1963:.\main.c      ****             }                        
 7758              		.loc 1 1963 0
 7759 11f0 FFF7FEFF 		bl	Display2_ClearRxBuffer
 7760              	.LVL762:
 7761 11f4 E1E0     		b	.L293
 7762              	.L510:
 7763 11f6 00BF     		.align	2
 7764              	.L509:
 7765 11f8 00000000 		.word	Display2_rxBuffer
 7766 11fc 00000000 		.word	flowDisplay2
 7767 1200 00000000 		.word	printPortA
 7768 1204 00000000 		.word	printPortB
 7769              	.L314:
1968:.\main.c      ****                 WriteLCD(2,(((timeDownHandle[1]&0x10)>>4)+48),13,8,1,0x0000,'N');
 7770              		.loc 1 1968 0
 7771 1208 FFF7FEFF 		bl	leer_hora
 7772              	.LVL763:
 7773 120c 0128     		cmp	r0, #1
 7774 120e 3CD1     		bne	.L472
1969:.\main.c      ****                 WriteLCD(2,((timeDownHandle[1]&0x0F)+48),13,9,1,0x0000,'N');
 7775              		.loc 1 1969 0
 7776 1210 6B4F     		ldr	r7, .L511
 7777 1212 7978     		ldrb	r1, [r7, #1]	@ zero_extendqisi2
 7778 1214 C1F30011 		ubfx	r1, r1, #4, #1
 7779 1218 3031     		adds	r1, r1, #48
 7780 121a 0126     		movs	r6, #1
 7781 121c 0096     		str	r6, [sp]
 7782 121e 0025     		movs	r5, #0
 7783 1220 0195     		str	r5, [sp, #4]
 7784 1222 4E24     		movs	r4, #78
 7785 1224 0294     		str	r4, [sp, #8]
 7786 1226 0220     		movs	r0, #2
ARM GAS  C:\Users\RECEPC~1\AppData\Local\Temp\ccp152bc.s 			page 197


 7787 1228 C9B2     		uxtb	r1, r1
 7788 122a 0D22     		movs	r2, #13
 7789 122c 0823     		movs	r3, #8
 7790 122e FFF7FEFF 		bl	WriteLCD
 7791              	.LVL764:
1970:.\main.c      ****                 WriteLCD(2,':',13,10,1,0x0000,'N');
 7792              		.loc 1 1970 0
 7793 1232 7978     		ldrb	r1, [r7, #1]	@ zero_extendqisi2
 7794 1234 01F00F01 		and	r1, r1, #15
 7795 1238 0096     		str	r6, [sp]
 7796 123a 0195     		str	r5, [sp, #4]
 7797 123c 0294     		str	r4, [sp, #8]
 7798 123e 0220     		movs	r0, #2
 7799 1240 3031     		adds	r1, r1, #48
 7800 1242 0D22     		movs	r2, #13
 7801 1244 0923     		movs	r3, #9
 7802 1246 FFF7FEFF 		bl	WriteLCD
 7803              	.LVL765:
1971:.\main.c      ****                 WriteLCD(2,(((timeDownHandle[0]&0xF0)>>4)+48),13,11,1,0x0000,'N');
 7804              		.loc 1 1971 0
 7805 124a 0096     		str	r6, [sp]
 7806 124c 0195     		str	r5, [sp, #4]
 7807 124e 0294     		str	r4, [sp, #8]
 7808 1250 0220     		movs	r0, #2
 7809 1252 3A21     		movs	r1, #58
 7810 1254 0D22     		movs	r2, #13
 7811 1256 0A23     		movs	r3, #10
 7812 1258 FFF7FEFF 		bl	WriteLCD
 7813              	.LVL766:
1972:.\main.c      ****                 WriteLCD(2,((timeDownHandle[0]&0x0F)+48),13,12,1,0x0000,'N');               
 7814              		.loc 1 1972 0
 7815 125c 3978     		ldrb	r1, [r7]	@ zero_extendqisi2
 7816 125e 0909     		lsrs	r1, r1, #4
 7817 1260 0096     		str	r6, [sp]
 7818 1262 0195     		str	r5, [sp, #4]
 7819 1264 0294     		str	r4, [sp, #8]
 7820 1266 0220     		movs	r0, #2
 7821 1268 3031     		adds	r1, r1, #48
 7822 126a 0D22     		movs	r2, #13
 7823 126c 0B23     		movs	r3, #11
 7824 126e FFF7FEFF 		bl	WriteLCD
 7825              	.LVL767:
1973:.\main.c      ****             }
 7826              		.loc 1 1973 0
 7827 1272 3978     		ldrb	r1, [r7]	@ zero_extendqisi2
 7828 1274 01F00F01 		and	r1, r1, #15
 7829 1278 0096     		str	r6, [sp]
 7830 127a 0195     		str	r5, [sp, #4]
 7831 127c 0294     		str	r4, [sp, #8]
 7832 127e 0220     		movs	r0, #2
 7833 1280 3031     		adds	r1, r1, #48
 7834 1282 0D22     		movs	r2, #13
 7835 1284 0C23     		movs	r3, #12
 7836 1286 FFF7FEFF 		bl	WriteLCD
 7837              	.LVL768:
 7838              	.L472:
1975:.\main.c      ****                 WriteLCD(2,(((dateDownHandle[0]&0x30)>>4)+48),21,8,1,0x0000,'N');
ARM GAS  C:\Users\RECEPC~1\AppData\Local\Temp\ccp152bc.s 			page 198


 7839              		.loc 1 1975 0
 7840 128a FFF7FEFF 		bl	leer_fecha
 7841              	.LVL769:
 7842 128e 0128     		cmp	r0, #1
 7843 1290 5DD1     		bne	.L473
1976:.\main.c      ****                 WriteLCD(2,((dateDownHandle[0]&0x0F)+48),21,9,1,0x0000,'N');
 7844              		.loc 1 1976 0
 7845 1292 4C4F     		ldr	r7, .L511+4
 7846 1294 3978     		ldrb	r1, [r7]	@ zero_extendqisi2
 7847 1296 C1F30111 		ubfx	r1, r1, #4, #2
 7848 129a 0126     		movs	r6, #1
 7849 129c 0096     		str	r6, [sp]
 7850 129e 0025     		movs	r5, #0
 7851 12a0 0195     		str	r5, [sp, #4]
 7852 12a2 4E24     		movs	r4, #78
 7853 12a4 0294     		str	r4, [sp, #8]
 7854 12a6 0220     		movs	r0, #2
 7855 12a8 3031     		adds	r1, r1, #48
 7856 12aa 1522     		movs	r2, #21
 7857 12ac 0823     		movs	r3, #8
 7858 12ae FFF7FEFF 		bl	WriteLCD
 7859              	.LVL770:
1977:.\main.c      ****                 WriteLCD(2,'/',21,10,1,0x0000,'N');
 7860              		.loc 1 1977 0
 7861 12b2 3978     		ldrb	r1, [r7]	@ zero_extendqisi2
 7862 12b4 01F00F01 		and	r1, r1, #15
 7863 12b8 0096     		str	r6, [sp]
 7864 12ba 0195     		str	r5, [sp, #4]
 7865 12bc 0294     		str	r4, [sp, #8]
 7866 12be 0220     		movs	r0, #2
 7867 12c0 3031     		adds	r1, r1, #48
 7868 12c2 1522     		movs	r2, #21
 7869 12c4 0923     		movs	r3, #9
 7870 12c6 FFF7FEFF 		bl	WriteLCD
 7871              	.LVL771:
1978:.\main.c      ****                 WriteLCD(2,(((dateDownHandle[1]&0x10)>>4)+48),21,11,1,0x0000,'N');
 7872              		.loc 1 1978 0
 7873 12ca 0096     		str	r6, [sp]
 7874 12cc 0195     		str	r5, [sp, #4]
 7875 12ce 0294     		str	r4, [sp, #8]
 7876 12d0 0220     		movs	r0, #2
 7877 12d2 2F21     		movs	r1, #47
 7878 12d4 1522     		movs	r2, #21
 7879 12d6 0A23     		movs	r3, #10
 7880 12d8 FFF7FEFF 		bl	WriteLCD
 7881              	.LVL772:
1979:.\main.c      ****                 WriteLCD(2,((dateDownHandle[1]&0x0F)+48),21,12,1,0x0000,'N');
 7882              		.loc 1 1979 0
 7883 12dc 7978     		ldrb	r1, [r7, #1]	@ zero_extendqisi2
 7884 12de C1F30011 		ubfx	r1, r1, #4, #1
 7885 12e2 3031     		adds	r1, r1, #48
 7886 12e4 0096     		str	r6, [sp]
 7887 12e6 0195     		str	r5, [sp, #4]
 7888 12e8 0294     		str	r4, [sp, #8]
 7889 12ea 0220     		movs	r0, #2
 7890 12ec C9B2     		uxtb	r1, r1
 7891 12ee 1522     		movs	r2, #21
ARM GAS  C:\Users\RECEPC~1\AppData\Local\Temp\ccp152bc.s 			page 199


 7892 12f0 0B23     		movs	r3, #11
 7893 12f2 FFF7FEFF 		bl	WriteLCD
 7894              	.LVL773:
1980:.\main.c      ****                 WriteLCD(2,'/',21,13,1,0x0000,'N');
 7895              		.loc 1 1980 0
 7896 12f6 7978     		ldrb	r1, [r7, #1]	@ zero_extendqisi2
 7897 12f8 01F00F01 		and	r1, r1, #15
 7898 12fc 0096     		str	r6, [sp]
 7899 12fe 0195     		str	r5, [sp, #4]
 7900 1300 0294     		str	r4, [sp, #8]
 7901 1302 0220     		movs	r0, #2
 7902 1304 3031     		adds	r1, r1, #48
 7903 1306 1522     		movs	r2, #21
 7904 1308 0C23     		movs	r3, #12
 7905 130a FFF7FEFF 		bl	WriteLCD
 7906              	.LVL774:
1981:.\main.c      ****                 WriteLCD(2,(((dateDownHandle[2]&0xF0)>>4)+48),21,14,1,0x0000,'N');
 7907              		.loc 1 1981 0
 7908 130e 0096     		str	r6, [sp]
 7909 1310 0195     		str	r5, [sp, #4]
 7910 1312 0294     		str	r4, [sp, #8]
 7911 1314 0220     		movs	r0, #2
 7912 1316 2F21     		movs	r1, #47
 7913 1318 1522     		movs	r2, #21
 7914 131a 0D23     		movs	r3, #13
 7915 131c FFF7FEFF 		bl	WriteLCD
 7916              	.LVL775:
1982:.\main.c      ****                 WriteLCD(2,((dateDownHandle[2]&0x0F)+48),21,15,1,0x0000,'N');
 7917              		.loc 1 1982 0
 7918 1320 B978     		ldrb	r1, [r7, #2]	@ zero_extendqisi2
 7919 1322 0909     		lsrs	r1, r1, #4
 7920 1324 0096     		str	r6, [sp]
 7921 1326 0195     		str	r5, [sp, #4]
 7922 1328 0294     		str	r4, [sp, #8]
 7923 132a 0220     		movs	r0, #2
 7924 132c 3031     		adds	r1, r1, #48
 7925 132e 1522     		movs	r2, #21
 7926 1330 0E23     		movs	r3, #14
 7927 1332 FFF7FEFF 		bl	WriteLCD
 7928              	.LVL776:
1983:.\main.c      ****             }
 7929              		.loc 1 1983 0
 7930 1336 B978     		ldrb	r1, [r7, #2]	@ zero_extendqisi2
 7931 1338 01F00F01 		and	r1, r1, #15
 7932 133c 0096     		str	r6, [sp]
 7933 133e 0195     		str	r5, [sp, #4]
 7934 1340 0294     		str	r4, [sp, #8]
 7935 1342 0220     		movs	r0, #2
 7936 1344 3031     		adds	r1, r1, #48
 7937 1346 1522     		movs	r2, #21
 7938 1348 0F23     		movs	r3, #15
 7939 134a FFF7FEFF 		bl	WriteLCD
 7940              	.LVL777:
 7941              	.L473:
1985:.\main.c      ****                 if((Display2_rxBuffer[0]==0xAA) && (Display2_rxBuffer[6]==0xC3) && (Display2_rxBuff
 7942              		.loc 1 1985 0
 7943 134e FFF7FEFF 		bl	Display2_GetRxBufferSize
ARM GAS  C:\Users\RECEPC~1\AppData\Local\Temp\ccp152bc.s 			page 200


 7944              	.LVL778:
 7945 1352 0828     		cmp	r0, #8
 7946 1354 31D1     		bne	.L293
1986:.\main.c      ****                     switch(Display2_rxBuffer[3]){                                                  
 7947              		.loc 1 1986 0
 7948 1356 1C4B     		ldr	r3, .L511+8
 7949 1358 1B78     		ldrb	r3, [r3]	@ zero_extendqisi2
 7950 135a DBB2     		uxtb	r3, r3
 7951 135c AA2B     		cmp	r3, #170
 7952 135e 20D1     		bne	.L474
1986:.\main.c      ****                     switch(Display2_rxBuffer[3]){                                                  
 7953              		.loc 1 1986 0 is_stmt 0 discriminator 1
 7954 1360 194B     		ldr	r3, .L511+8
 7955 1362 9B79     		ldrb	r3, [r3, #6]	@ zero_extendqisi2
 7956 1364 DBB2     		uxtb	r3, r3
 7957 1366 C32B     		cmp	r3, #195
 7958 1368 1BD1     		bne	.L474
1986:.\main.c      ****                     switch(Display2_rxBuffer[3]){                                                  
 7959              		.loc 1 1986 0 discriminator 2
 7960 136a 174B     		ldr	r3, .L511+8
 7961 136c DB79     		ldrb	r3, [r3, #7]	@ zero_extendqisi2
 7962 136e DBB2     		uxtb	r3, r3
 7963 1370 3C2B     		cmp	r3, #60
 7964 1372 16D1     		bne	.L474
1987:.\main.c      ****                         case 0x7E:  //Pantalla Inicial  
 7965              		.loc 1 1987 0 is_stmt 1
 7966 1374 144B     		ldr	r3, .L511+8
 7967 1376 DB78     		ldrb	r3, [r3, #3]	@ zero_extendqisi2
 7968 1378 DBB2     		uxtb	r3, r3
 7969 137a 7E2B     		cmp	r3, #126
 7970 137c 02D0     		beq	.L475
 7971 137e 942B     		cmp	r3, #148
 7972 1380 08D0     		beq	.L476
 7973 1382 0EE0     		b	.L474
 7974              	.L475:
1989:.\main.c      ****                             SetPicture(2,DISPLAY_INICIO0);                            
 7975              		.loc 1 1989 0
 7976 1384 0022     		movs	r2, #0
 7977 1386 114B     		ldr	r3, .L511+12
 7978 1388 1A60     		str	r2, [r3]
1990:.\main.c      ****                         break;
 7979              		.loc 1 1990 0
 7980 138a 0220     		movs	r0, #2
 7981 138c 0121     		movs	r1, #1
 7982 138e FFF7FEFF 		bl	SetPicture
 7983              	.LVL779:
1991:.\main.c      ****                         case 0x94:  //Pantalla Inicial    
 7984              		.loc 1 1991 0
 7985 1392 06E0     		b	.L474
 7986              	.L476:
1993:.\main.c      ****                             SetPicture(2,DISPLAY_INICIO0);                            
 7987              		.loc 1 1993 0
 7988 1394 0022     		movs	r2, #0
 7989 1396 0D4B     		ldr	r3, .L511+12
 7990 1398 1A60     		str	r2, [r3]
1994:.\main.c      ****                         break;
 7991              		.loc 1 1994 0
ARM GAS  C:\Users\RECEPC~1\AppData\Local\Temp\ccp152bc.s 			page 201


 7992 139a 0220     		movs	r0, #2
 7993 139c 0121     		movs	r1, #1
 7994 139e FFF7FEFF 		bl	SetPicture
 7995              	.LVL780:
 7996              	.L474:
1998:.\main.c      ****                 Display2_ClearRxBuffer();
 7997              		.loc 1 1998 0
 7998 13a2 0A20     		movs	r0, #10
 7999 13a4 FFF7FEFF 		bl	CyDelay
 8000              	.LVL781:
1999:.\main.c      ****             }                        
 8001              		.loc 1 1999 0
 8002 13a8 FFF7FEFF 		bl	Display2_ClearRxBuffer
 8003              	.LVL782:
 8004 13ac 05E0     		b	.L293
 8005              	.L315:
2004:.\main.c      ****             ShiftState =1;
 8006              		.loc 1 2004 0
 8007 13ae 0123     		movs	r3, #1
 8008 13b0 074A     		ldr	r2, .L511+16
 8009 13b2 82F80F32 		strb	r3, [r2, #527]
2005:.\main.c      ****         break;
 8010              		.loc 1 2005 0
 8011 13b6 074A     		ldr	r2, .L511+20
 8012 13b8 1370     		strb	r3, [r2]
 8013              	.L293:
2009:.\main.c      **** 
 8014              		.loc 1 2009 0
 8015 13ba 05B0     		add	sp, sp, #20
 8016              		.cfi_def_cfa_offset 20
 8017              		@ sp needed
 8018 13bc F0BD     		pop	{r4, r5, r6, r7, pc}
 8019              	.L512:
 8020 13be 00BF     		.align	2
 8021              	.L511:
 8022 13c0 00000000 		.word	timeDownHandle
 8023 13c4 00000000 		.word	dateDownHandle
 8024 13c8 00000000 		.word	Display2_rxBuffer
 8025 13cc 00000000 		.word	flowDisplay2
 8026 13d0 00000000 		.word	side
 8027 13d4 00000000 		.word	ShiftState
 8028              		.cfi_endproc
 8029              	.LFE72:
 8030              		.size	PollingDisplay2, .-PollingDisplay2
 8031              		.section	.text.animacion2,"ax",%progbits
 8032              		.align	2
 8033              		.global	animacion2
 8034              		.thumb
 8035              		.thumb_func
 8036              		.type	animacion2, %function
 8037              	animacion2:
 8038              	.LFB74:
2024:.\main.c      **** }
2025:.\main.c      **** 
2026:.\main.c      **** /*
2027:.\main.c      **** ***************************************************************************************************
2028:.\main.c      **** *                                         CY_ISR(animacion2)
ARM GAS  C:\Users\RECEPC~1\AppData\Local\Temp\ccp152bc.s 			page 202


2029:.\main.c      **** *
2030:.\main.c      **** * Description : Interrupcion que temporiza las imagenes informativas que aparecen en la pantalla 2
2031:.\main.c      **** *               
2032:.\main.c      **** *
2033:.\main.c      **** ***************************************************************************************************
2034:.\main.c      **** */
2035:.\main.c      **** CY_ISR(animacion2){
 8039              		.loc 1 2035 0
 8040              		.cfi_startproc
 8041              		@ args = 0, pretend = 0, frame = 0
 8042              		@ frame_needed = 0, uses_anonymous_args = 0
 8043 0000 08B5     		push	{r3, lr}
 8044              		.cfi_def_cfa_offset 8
 8045              		.cfi_offset 3, -8
 8046              		.cfi_offset 14, -4
2036:.\main.c      ****     Timer_Animacion2_ReadStatusRegister();
 8047              		.loc 1 2036 0
 8048 0002 FFF7FEFF 		bl	Timer_Animacion2_ReadStatusRegister
 8049              	.LVL783:
2037:.\main.c      ****     count_protector2++;
 8050              		.loc 1 2037 0
 8051 0006 024A     		ldr	r2, .L515
 8052 0008 1378     		ldrb	r3, [r2]	@ zero_extendqisi2
 8053 000a 0133     		adds	r3, r3, #1
 8054 000c 1370     		strb	r3, [r2]
 8055 000e 08BD     		pop	{r3, pc}
 8056              	.L516:
 8057              		.align	2
 8058              	.L515:
 8059 0010 00000000 		.word	count_protector2
 8060              		.cfi_endproc
 8061              	.LFE74:
 8062              		.size	animacion2, .-animacion2
 8063              		.section	.text.main,"ax",%progbits
 8064              		.align	2
 8065              		.global	main
 8066              		.thumb
 8067              		.thumb_func
 8068              		.type	main, %function
 8069              	main:
 8070              	.LFB75:
2038:.\main.c      **** }
2039:.\main.c      **** /*
2040:.\main.c      **** ***************************************************************************************************
2041:.\main.c      **** *                                         CY_ISR(timerBeagleTX1)
2042:.\main.c      **** *
2043:.\main.c      **** * Description : Interrupcion que temporiza tiempos de espera
2044:.\main.c      **** *               
2045:.\main.c      **** *
2046:.\main.c      **** * Argument(s) : none
2047:.\main.c      **** *
2048:.\main.c      **** * Return(s)   : none
2049:.\main.c      **** *
2050:.\main.c      **** * Caller(s)   : 
2051:.\main.c      **** *
2052:.\main.c      **** * Note(s)     : none.
2053:.\main.c      **** ***************************************************************************************************
ARM GAS  C:\Users\RECEPC~1\AppData\Local\Temp\ccp152bc.s 			page 203


2054:.\main.c      **** */
2055:.\main.c      **** //CY_ISR(timerRFRX){
2056:.\main.c      **** //    Waitable_3_ReadStatusRegister();
2057:.\main.c      **** //    countRX++;
2058:.\main.c      **** //    countTX++;
2059:.\main.c      **** //}
2060:.\main.c      **** 
2061:.\main.c      **** 
2062:.\main.c      **** /*
2063:.\main.c      **** ***************************************************************************************************
2064:.\main.c      **** *                                         CY_ISR(timerPump)
2065:.\main.c      **** *
2066:.\main.c      **** * Description : Interrupcion que temporiza tiempos de espera para preguntar al surtidor
2067:.\main.c      **** *               
2068:.\main.c      **** *
2069:.\main.c      **** * Argument(s) : none
2070:.\main.c      **** *
2071:.\main.c      **** * Return(s)   : none
2072:.\main.c      **** *
2073:.\main.c      **** * Caller(s)   : 
2074:.\main.c      **** *
2075:.\main.c      **** * Note(s)     : none.
2076:.\main.c      **** ***************************************************************************************************
2077:.\main.c      **** */
2078:.\main.c      **** //CY_ISR(timerPump){
2079:.\main.c      **** //    Waitable_4_ReadStatusRegister();
2080:.\main.c      **** //    countPump++;
2081:.\main.c      **** //    countLCD++;
2082:.\main.c      **** //}
2083:.\main.c      **** 
2084:.\main.c      **** 
2085:.\main.c      **** int main()
2086:.\main.c      **** {    
 8071              		.loc 1 2086 0
 8072              		.cfi_startproc
 8073              		@ Volatile: function does not return.
 8074              		@ args = 0, pretend = 0, frame = 0
 8075              		@ frame_needed = 0, uses_anonymous_args = 0
 8076 0000 08B5     		push	{r3, lr}
 8077              		.cfi_def_cfa_offset 8
 8078              		.cfi_offset 3, -8
 8079              		.cfi_offset 14, -4
2087:.\main.c      ****     CyGlobalIntEnable; /* Enable global interrupts. */
 8080              		.loc 1 2087 0
 8081              	@ 2087 ".\main.c" 1
 8082 0002 62B6     		CPSIE   i
 8083              	@ 0 "" 2
2088:.\main.c      ****     GlobalInitializer();
 8084              		.loc 1 2088 0
 8085              		.thumb
 8086 0004 FFF7FEFF 		bl	GlobalInitializer
 8087              	.LVL784:
2089:.\main.c      ****     /* Place your initialization/startup code here (e.g. MyInst_Start()) */       
2090:.\main.c      ****     InitPump(); 
 8088              		.loc 1 2090 0
 8089 0008 FFF7FEFF 		bl	InitPump
 8090              	.LVL785:
ARM GAS  C:\Users\RECEPC~1\AppData\Local\Temp\ccp152bc.s 			page 204


2091:.\main.c      ****     loadConfiguration();
 8091              		.loc 1 2091 0
 8092 000c FFF7FEFF 		bl	loadConfiguration
 8093              	.LVL786:
2092:.\main.c      ****     CyWdtStart(CYWDT_1024_TICKS,CYWDT_LPMODE_NOCHANGE);
 8094              		.loc 1 2092 0
 8095 0010 0320     		movs	r0, #3
 8096 0012 0021     		movs	r1, #0
 8097 0014 FFF7FEFF 		bl	CyWdtStart
 8098              	.LVL787:
 8099              	.L518:
2093:.\main.c      ****     for(;;)
2094:.\main.c      ****     {            
2095:.\main.c      ****         CyWdtClear();
 8100              		.loc 1 2095 0
 8101 0018 FFF7FEFF 		bl	CyWdtClear
 8102              	.LVL788:
2096:.\main.c      ****         pollingRF_Rx();
 8103              		.loc 1 2096 0
 8104 001c FFF7FEFF 		bl	pollingRF_Rx
 8105              	.LVL789:
2097:.\main.c      ****         PollingDisplay1(); 
 8106              		.loc 1 2097 0
 8107 0020 FFF7FEFF 		bl	PollingDisplay1
 8108              	.LVL790:
2098:.\main.c      ****         CyWdtClear();
 8109              		.loc 1 2098 0
 8110 0024 FFF7FEFF 		bl	CyWdtClear
 8111              	.LVL791:
2099:.\main.c      ****         PollingDisplay2();
 8112              		.loc 1 2099 0
 8113 0028 FFF7FEFF 		bl	PollingDisplay2
 8114              	.LVL792:
2100:.\main.c      ****         CyWdtClear();                                
 8115              		.loc 1 2100 0
 8116 002c FFF7FEFF 		bl	CyWdtClear
 8117              	.LVL793:
2101:.\main.c      ****         counterRF++;
 8118              		.loc 1 2101 0
 8119 0030 064A     		ldr	r2, .L521
 8120 0032 1378     		ldrb	r3, [r2]	@ zero_extendqisi2
 8121 0034 0133     		adds	r3, r3, #1
 8122 0036 DBB2     		uxtb	r3, r3
 8123 0038 1370     		strb	r3, [r2]
2102:.\main.c      ****         if(counterRF >10)
 8124              		.loc 1 2102 0
 8125 003a 1378     		ldrb	r3, [r2]	@ zero_extendqisi2
 8126 003c DBB2     		uxtb	r3, r3
 8127 003e 0A2B     		cmp	r3, #10
 8128 0040 EAD9     		bls	.L518
2103:.\main.c      ****             ActiveRF =0;          
 8129              		.loc 1 2103 0
 8130 0042 0022     		movs	r2, #0
 8131 0044 024B     		ldr	r3, .L521+4
 8132 0046 1A70     		strb	r2, [r3]
 8133 0048 E6E7     		b	.L518
 8134              	.L522:
ARM GAS  C:\Users\RECEPC~1\AppData\Local\Temp\ccp152bc.s 			page 205


 8135 004a 00BF     		.align	2
 8136              	.L521:
 8137 004c 00000000 		.word	counterRF
 8138 0050 00000000 		.word	ActiveRF
 8139              		.cfi_endproc
 8140              	.LFE75:
 8141              		.size	main, .-main
 8142              		.global	passwordPump
 8143              		.global	MuxVersion
 8144              		.comm	side,1056,4
 8145              		.comm	bufferDisplay4,332,4
 8146              		.comm	bufferDisplay3,332,4
 8147              		.comm	bufferDisplay2,332,4
 8148              		.comm	bufferDisplay1,332,4
 8149              		.comm	GradesHose,5,4
 8150              		.comm	CopiasCredito,1,1
 8151              		.comm	Encabezado4,30,4
 8152              		.comm	Encabezado3,30,4
 8153              		.comm	Encabezado2,30,4
 8154              		.comm	Encabezado1,30,4
 8155              		.comm	intIDStation,2,2
 8156              		.comm	buffer_txEOT,60,4
 8157              		.comm	buffer_txPreset,60,4
 8158              		.comm	buffer_tx,512,4
 8159              		.comm	buffer_rf,512,4
 8160              		.comm	printPortB,1,1
 8161              		.comm	printPortA,1,1
 8162              		.comm	pumpGap,3,4
 8163              		.comm	idStation,5,4
 8164              		.comm	controlChar,1,1
 8165              		.comm	configAccess,5,4
 8166              		.comm	count_protector2,1,1
 8167              		.comm	count_protector,1,1
 8168              		.comm	timeDownHandle,2,4
 8169              		.comm	dateDownHandle,3,4
 8170              		.comm	VolUnit,6,4
 8171              		.comm	PrinterType,1,1
 8172              		.comm	hiddenKeys,1,1
 8173              		.comm	digits,1,1
 8174              		.comm	lockTurn,1,1
 8175              		.comm	NumPositions,1,1
 8176              		.comm	statePump,4,4
 8177              		.comm	DDMode,1,1
 8178              		.comm	PPUDec,1,1
 8179              		.comm	VolDec,1,1
 8180              		.comm	MoneyDec,1,1
 8181              		.comm	ConversionFactor,1,1
 8182              		.comm	UnitType,1,1
 8183              		.comm	sizeSendB,1,1
 8184              		.comm	sizeSendA,1,1
 8185              		.comm	ShiftState,1,1
 8186              		.comm	CGrade,1,1
 8187              		.comm	tempPPU,5,4
 8188              		.comm	tempPreset,8,4
 8189              		.comm	temporal,30,4
 8190              		.comm	counterRF,1,1
 8191              		.comm	ActiveRF,1,1
ARM GAS  C:\Users\RECEPC~1\AppData\Local\Temp\ccp152bc.s 			page 206


 8192              		.comm	IDCast,2,4
 8193              		.comm	PlateRequest,1,1
 8194              		.comm	PrevStatePump,4,4
 8195              		.comm	stateBeagleSoft,1,1
 8196              		.comm	flagResetMux,1,1
 8197              		.comm	passwordSeller,8,4
 8198              		.comm	typeIdSeller,1,1
 8199              		.comm	idSeller,25,4
 8200              		.comm	residue,14,4
 8201              		.comm	screen,2,4
 8202              		.comm	date,3,4
 8203              		.comm	time,3,4
 8204              		.comm	symbols,2,4
 8205              		.comm	decimalVolume,1,1
 8206              		.comm	decimalMoney,1,1
 8207              		.comm	ppux10,1,1
 8208              		.comm	delayPicture2,4,4
 8209              		.comm	delayPicture1,4,4
 8210              		.comm	productNumber,1,1
 8211              		.comm	flagPoint2,1,1
 8212              		.comm	flagPoint1,1,1
 8213              		.comm	numberKeys2,1,1
 8214              		.comm	numberKeys1,1,1
 8215              		.comm	flowDisplay4,4,4
 8216              		.comm	flowDisplay3,4,4
 8217              		.comm	flowDisplay2,4,4
 8218              		.comm	flowDisplay1,4,4
 8219              		.comm	countLCD,8,8
 8220              		.comm	countPump,8,8
 8221              		.comm	countTX,8,8
 8222              		.comm	countRX,8,8
 8223              		.comm	countAnimation2,8,8
 8224              		.comm	countAnimation1,8,8
 8225              		.section	.rodata
 8226              		.align	2
 8227              		.set	.LANCHOR1,. + 0
 8228              	.LC1:
 8229 0000 532F442F 		.ascii	"S/D/Dupla \000"
 8229      4475706C 
 8229      612000
 8230 000b 00       		.space	1
 8231              	.LC3:
 8232 000c 53657874 		.ascii	"Sextupla\000"
 8232      75706C61 
 8232      00
 8233 0015 00       		.space	1
 8234 0016 0000     		.space	2
 8235              	.LC4:
 8236 0018 4F637475 		.ascii	"Octupla\000"
 8236      706C6100 
 8237 0020 0000     		.space	2
 8238 0022 0000     		.space	2
 8239              	.LC5:
 8240 0024 352D352D 		.ascii	"5-5-4     \000"
 8240      34202020 
 8240      202000
 8241 002f 00       		.space	1
ARM GAS  C:\Users\RECEPC~1\AppData\Local\Temp\ccp152bc.s 			page 207


 8242              	.LC6:
 8243 0030 362D362D 		.ascii	"6-6-4     \000"
 8243      34202020 
 8243      202000
 8244 003b 00       		.space	1
 8245              	.LC7:
 8246 003c 372D372D 		.ascii	"7-7-5     \000"
 8246      35202020 
 8246      202000
 8247 0047 00       		.space	1
 8248              	.LC8:
 8249 0048 382D372D 		.ascii	"8-7-5     \000"
 8249      35202020 
 8249      202000
 8250 0053 00       		.space	1
 8251              	.LC9:
 8252 0054 54657374 		.ascii	"Test de Impresion Puerto 1\000"
 8252      20646520 
 8252      496D7072 
 8252      6573696F 
 8252      6E205075 
 8253 006f 00       		.space	1
 8254              	.LC10:
 8255 0070 54657374 		.ascii	"Test de Impresion Puerto 2\000"
 8255      20646520 
 8255      496D7072 
 8255      6573696F 
 8255      6E205075 
 8256 008b 00       		.data
 8257              		.align	2
 8258              		.set	.LANCHOR0,. + 0
 8259              		.type	passwordPump, %object
 8260              		.size	passwordPump, 5
 8261              	passwordPump:
 8262 0000 30303230 		.ascii	"00204"
 8262      34
 8263 0005 000000   		.space	3
 8264              		.type	MuxVersion, %object
 8265              		.size	MuxVersion, 10
 8266              	MuxVersion:
 8267 0008 4D555820 		.ascii	"MUX V. 1.0"
 8267      562E2031 
 8267      2E30
 8268 0012 0000     		.section	.rodata.str1.4,"aMS",%progbits,1
 8269              		.align	2
 8270              	.LC0:
 8271 0000 496E6963 		.ascii	"Iniciando\000"
 8271      69616E64 
 8271      6F00
 8272 000a 0000     		.space	2
 8273              	.LC2:
 8274 000c 51756164 		.ascii	"Quadrupla\000"
 8274      7275706C 
 8274      6100
 8275 0016 0000     		.text
 8276              	.Letext0:
 8277              		.file 2 "c:\\program files (x86)\\cypress\\psoc creator\\3.3\\psoc creator\\import\\gnu\\arm\\4.9.
ARM GAS  C:\Users\RECEPC~1\AppData\Local\Temp\ccp152bc.s 			page 208


 8278              		.file 3 "c:\\program files (x86)\\cypress\\psoc creator\\3.3\\psoc creator\\import\\gnu\\arm\\4.9.
 8279              		.file 4 "Generated_Source\\PSoC5/cytypes.h"
 8280              		.file 5 "./variables.h"
 8281              		.file 6 "Generated_Source\\PSoC5/Display1.h"
 8282              		.file 7 "Generated_Source\\PSoC5/Display2.h"
 8283              		.file 8 "Generated_Source\\PSoC5/core_cm3.h"
 8284              		.file 9 "Generated_Source\\PSoC5/EEPROM_1.h"
 8285              		.file 10 "Generated_Source\\PSoC5/Pump.h"
 8286              		.file 11 "Generated_Source\\PSoC5/Printer.h"
 8287              		.file 12 "Generated_Source\\PSoC5/I2C_Bus.h"
 8288              		.file 13 "Generated_Source\\PSoC5/RF_Connection.h"
 8289              		.file 14 "Generated_Source\\PSoC5/Waitable_3.h"
 8290              		.file 15 "Generated_Source\\PSoC5/Waitable_4.h"
 8291              		.file 16 "./LCD.h"
 8292              		.file 17 "Generated_Source\\PSoC5/CyLib.h"
 8293              		.file 18 "Generated_Source\\PSoC5/Timer_Animacion.h"
 8294              		.file 19 "./protocol.h"
 8295              		.file 20 "./I2C.h"
 8296              		.file 21 "Generated_Source\\PSoC5/isr_3.h"
 8297              		.file 22 "./keyboard.h"
 8298              		.file 23 "./Print.h"
 8299              		.file 24 "./ibutton.h"
 8300              		.file 25 "c:\\program files (x86)\\cypress\\psoc creator\\3.3\\psoc creator\\import\\gnu\\arm\\4.9
 8301              		.file 26 "Generated_Source\\PSoC5/isr_4.h"
 8302              		.file 27 "Generated_Source\\PSoC5/Timer_Animacion2.h"
 8303              		.file 28 "./RFPoll.h"
 8304              		.section	.debug_info,"",%progbits
 8305              	.Ldebug_info0:
 8306 0000 8D3C0000 		.4byte	0x3c8d
 8307 0004 0400     		.2byte	0x4
 8308 0006 00000000 		.4byte	.Ldebug_abbrev0
 8309 000a 04       		.byte	0x4
 8310 000b 01       		.uleb128 0x1
 8311 000c 45040000 		.4byte	.LASF323
 8312 0010 01       		.byte	0x1
 8313 0011 D4110000 		.4byte	.LASF324
 8314 0015 9D0E0000 		.4byte	.LASF325
 8315 0019 00000000 		.4byte	.Ldebug_ranges0+0
 8316 001d 00000000 		.4byte	0
 8317 0021 00000000 		.4byte	.Ldebug_line0
 8318 0025 02       		.uleb128 0x2
 8319 0026 01       		.byte	0x1
 8320 0027 06       		.byte	0x6
 8321 0028 BB030000 		.4byte	.LASF0
 8322 002c 03       		.uleb128 0x3
 8323 002d 11020000 		.4byte	.LASF3
 8324 0031 02       		.byte	0x2
 8325 0032 1D       		.byte	0x1d
 8326 0033 37000000 		.4byte	0x37
 8327 0037 02       		.uleb128 0x2
 8328 0038 01       		.byte	0x1
 8329 0039 08       		.byte	0x8
 8330 003a F1040000 		.4byte	.LASF1
 8331 003e 02       		.uleb128 0x2
 8332 003f 02       		.byte	0x2
 8333 0040 05       		.byte	0x5
 8334 0041 E60F0000 		.4byte	.LASF2
ARM GAS  C:\Users\RECEPC~1\AppData\Local\Temp\ccp152bc.s 			page 209


 8335 0045 03       		.uleb128 0x3
 8336 0046 16060000 		.4byte	.LASF4
 8337 004a 02       		.byte	0x2
 8338 004b 2B       		.byte	0x2b
 8339 004c 50000000 		.4byte	0x50
 8340 0050 02       		.uleb128 0x2
 8341 0051 02       		.byte	0x2
 8342 0052 07       		.byte	0x7
 8343 0053 FE110000 		.4byte	.LASF5
 8344 0057 03       		.uleb128 0x3
 8345 0058 2A120000 		.4byte	.LASF6
 8346 005c 02       		.byte	0x2
 8347 005d 3F       		.byte	0x3f
 8348 005e 62000000 		.4byte	0x62
 8349 0062 02       		.uleb128 0x2
 8350 0063 04       		.byte	0x4
 8351 0064 05       		.byte	0x5
 8352 0065 A0020000 		.4byte	.LASF7
 8353 0069 02       		.uleb128 0x2
 8354 006a 04       		.byte	0x4
 8355 006b 07       		.byte	0x7
 8356 006c 8F080000 		.4byte	.LASF8
 8357 0070 02       		.uleb128 0x2
 8358 0071 08       		.byte	0x8
 8359 0072 05       		.byte	0x5
 8360 0073 230A0000 		.4byte	.LASF9
 8361 0077 02       		.uleb128 0x2
 8362 0078 08       		.byte	0x8
 8363 0079 07       		.byte	0x7
 8364 007a F00D0000 		.4byte	.LASF10
 8365 007e 04       		.uleb128 0x4
 8366 007f 04       		.byte	0x4
 8367 0080 05       		.byte	0x5
 8368 0081 696E7400 		.ascii	"int\000"
 8369 0085 02       		.uleb128 0x2
 8370 0086 04       		.byte	0x4
 8371 0087 07       		.byte	0x7
 8372 0088 780B0000 		.4byte	.LASF11
 8373 008c 03       		.uleb128 0x3
 8374 008d C7030000 		.4byte	.LASF12
 8375 0091 03       		.byte	0x3
 8376 0092 15       		.byte	0x15
 8377 0093 2C000000 		.4byte	0x2c
 8378 0097 03       		.uleb128 0x3
 8379 0098 210E0000 		.4byte	.LASF13
 8380 009c 03       		.byte	0x3
 8381 009d 21       		.byte	0x21
 8382 009e 45000000 		.4byte	0x45
 8383 00a2 03       		.uleb128 0x3
 8384 00a3 7A000000 		.4byte	.LASF14
 8385 00a7 03       		.byte	0x3
 8386 00a8 2C       		.byte	0x2c
 8387 00a9 57000000 		.4byte	0x57
 8388 00ad 05       		.uleb128 0x5
 8389 00ae C80F0000 		.4byte	.LASF15
 8390 00b2 04       		.byte	0x4
 8391 00b3 3801     		.2byte	0x138
ARM GAS  C:\Users\RECEPC~1\AppData\Local\Temp\ccp152bc.s 			page 210


 8392 00b5 37000000 		.4byte	0x37
 8393 00b9 05       		.uleb128 0x5
 8394 00ba B5120000 		.4byte	.LASF16
 8395 00be 04       		.byte	0x4
 8396 00bf 3901     		.2byte	0x139
 8397 00c1 50000000 		.4byte	0x50
 8398 00c5 05       		.uleb128 0x5
 8399 00c6 95000000 		.4byte	.LASF17
 8400 00ca 04       		.byte	0x4
 8401 00cb 3A01     		.2byte	0x13a
 8402 00cd 69000000 		.4byte	0x69
 8403 00d1 02       		.uleb128 0x2
 8404 00d2 04       		.byte	0x4
 8405 00d3 04       		.byte	0x4
 8406 00d4 560B0000 		.4byte	.LASF18
 8407 00d8 02       		.uleb128 0x2
 8408 00d9 08       		.byte	0x8
 8409 00da 04       		.byte	0x4
 8410 00db A80A0000 		.4byte	.LASF19
 8411 00df 05       		.uleb128 0x5
 8412 00e0 99020000 		.4byte	.LASF20
 8413 00e4 04       		.byte	0x4
 8414 00e5 4401     		.2byte	0x144
 8415 00e7 77000000 		.4byte	0x77
 8416 00eb 05       		.uleb128 0x5
 8417 00ec 5C010000 		.4byte	.LASF21
 8418 00f0 04       		.byte	0x4
 8419 00f1 4901     		.2byte	0x149
 8420 00f3 F7000000 		.4byte	0xf7
 8421 00f7 02       		.uleb128 0x2
 8422 00f8 01       		.byte	0x1
 8423 00f9 08       		.byte	0x8
 8424 00fa C2050000 		.4byte	.LASF22
 8425 00fe 05       		.uleb128 0x5
 8426 00ff E40B0000 		.4byte	.LASF23
 8427 0103 04       		.byte	0x4
 8428 0104 DA01     		.2byte	0x1da
 8429 0106 69000000 		.4byte	0x69
 8430 010a 06       		.uleb128 0x6
 8431 010b AD000000 		.4byte	0xad
 8432 010f 06       		.uleb128 0x6
 8433 0110 C5000000 		.4byte	0xc5
 8434 0114 05       		.uleb128 0x5
 8435 0115 860D0000 		.4byte	.LASF24
 8436 0119 04       		.byte	0x4
 8437 011a F401     		.2byte	0x1f4
 8438 011c 20010000 		.4byte	0x120
 8439 0120 07       		.uleb128 0x7
 8440 0121 04       		.byte	0x4
 8441 0122 26010000 		.4byte	0x126
 8442 0126 08       		.uleb128 0x8
 8443 0127 02       		.uleb128 0x2
 8444 0128 04       		.byte	0x4
 8445 0129 07       		.byte	0x7
 8446 012a 0A000000 		.4byte	.LASF25
 8447 012e 07       		.uleb128 0x7
 8448 012f 04       		.byte	0x4
ARM GAS  C:\Users\RECEPC~1\AppData\Local\Temp\ccp152bc.s 			page 211


 8449 0130 34010000 		.4byte	0x134
 8450 0134 09       		.uleb128 0x9
 8451 0135 F7000000 		.4byte	0xf7
 8452 0139 0A       		.uleb128 0xa
 8453 013a AD000000 		.4byte	0xad
 8454 013e 49010000 		.4byte	0x149
 8455 0142 0B       		.uleb128 0xb
 8456 0143 27010000 		.4byte	0x127
 8457 0147 03       		.byte	0x3
 8458 0148 00       		.byte	0
 8459 0149 0C       		.uleb128 0xc
 8460 014a 0B080000 		.4byte	.LASF68
 8461 014e 4C01     		.2byte	0x14c
 8462 0150 05       		.byte	0x5
 8463 0151 7E       		.byte	0x7e
 8464 0152 5D030000 		.4byte	0x35d
 8465 0156 0D       		.uleb128 0xd
 8466 0157 8E000000 		.4byte	.LASF26
 8467 015b 05       		.byte	0x5
 8468 015c 7F       		.byte	0x7f
 8469 015d AD000000 		.4byte	0xad
 8470 0161 00       		.byte	0
 8471 0162 0D       		.uleb128 0xd
 8472 0163 71020000 		.4byte	.LASF27
 8473 0167 05       		.byte	0x5
 8474 0168 80       		.byte	0x80
 8475 0169 5D030000 		.4byte	0x35d
 8476 016d 01       		.byte	0x1
 8477 016e 0D       		.uleb128 0xd
 8478 016f 95110000 		.4byte	.LASF28
 8479 0173 05       		.byte	0x5
 8480 0174 81       		.byte	0x81
 8481 0175 AD000000 		.4byte	0xad
 8482 0179 1A       		.byte	0x1a
 8483 017a 0D       		.uleb128 0xd
 8484 017b F5050000 		.4byte	.LASF29
 8485 017f 05       		.byte	0x5
 8486 0180 82       		.byte	0x82
 8487 0181 AD000000 		.4byte	0xad
 8488 0185 1B       		.byte	0x1b
 8489 0186 0D       		.uleb128 0xd
 8490 0187 1B090000 		.4byte	.LASF30
 8491 018b 05       		.byte	0x5
 8492 018c 83       		.byte	0x83
 8493 018d 6D030000 		.4byte	0x36d
 8494 0191 1C       		.byte	0x1c
 8495 0192 0D       		.uleb128 0xd
 8496 0193 68000000 		.4byte	.LASF31
 8497 0197 05       		.byte	0x5
 8498 0198 84       		.byte	0x84
 8499 0199 6D030000 		.4byte	0x36d
 8500 019d 26       		.byte	0x26
 8501 019e 0D       		.uleb128 0xd
 8502 019f 33090000 		.4byte	.LASF32
 8503 01a3 05       		.byte	0x5
 8504 01a4 85       		.byte	0x85
 8505 01a5 5D030000 		.4byte	0x35d
ARM GAS  C:\Users\RECEPC~1\AppData\Local\Temp\ccp152bc.s 			page 212


 8506 01a9 30       		.byte	0x30
 8507 01aa 0D       		.uleb128 0xd
 8508 01ab 230C0000 		.4byte	.LASF33
 8509 01af 05       		.byte	0x5
 8510 01b0 86       		.byte	0x86
 8511 01b1 AD000000 		.4byte	0xad
 8512 01b5 49       		.byte	0x49
 8513 01b6 0D       		.uleb128 0xd
 8514 01b7 6B0F0000 		.4byte	.LASF34
 8515 01bb 05       		.byte	0x5
 8516 01bc 87       		.byte	0x87
 8517 01bd AD000000 		.4byte	0xad
 8518 01c1 4A       		.byte	0x4a
 8519 01c2 0D       		.uleb128 0xd
 8520 01c3 00000000 		.4byte	.LASF35
 8521 01c7 05       		.byte	0x5
 8522 01c8 88       		.byte	0x88
 8523 01c9 7D030000 		.4byte	0x37d
 8524 01cd 4B       		.byte	0x4b
 8525 01ce 0D       		.uleb128 0xd
 8526 01cf 650D0000 		.4byte	.LASF36
 8527 01d3 05       		.byte	0x5
 8528 01d4 89       		.byte	0x89
 8529 01d5 AD000000 		.4byte	0xad
 8530 01d9 60       		.byte	0x60
 8531 01da 0D       		.uleb128 0xd
 8532 01db 10040000 		.4byte	.LASF37
 8533 01df 05       		.byte	0x5
 8534 01e0 8A       		.byte	0x8a
 8535 01e1 AD000000 		.4byte	0xad
 8536 01e5 61       		.byte	0x61
 8537 01e6 0D       		.uleb128 0xd
 8538 01e7 D80B0000 		.4byte	.LASF38
 8539 01eb 05       		.byte	0x5
 8540 01ec 8B       		.byte	0x8b
 8541 01ed AD000000 		.4byte	0xad
 8542 01f1 62       		.byte	0x62
 8543 01f2 0D       		.uleb128 0xd
 8544 01f3 E7060000 		.4byte	.LASF39
 8545 01f7 05       		.byte	0x5
 8546 01f8 8C       		.byte	0x8c
 8547 01f9 8D030000 		.4byte	0x38d
 8548 01fd 63       		.byte	0x63
 8549 01fe 0D       		.uleb128 0xd
 8550 01ff 170C0000 		.4byte	.LASF40
 8551 0203 05       		.byte	0x5
 8552 0204 8D       		.byte	0x8d
 8553 0205 9D030000 		.4byte	0x39d
 8554 0209 65       		.byte	0x65
 8555 020a 0D       		.uleb128 0xd
 8556 020b 89110000 		.4byte	.LASF41
 8557 020f 05       		.byte	0x5
 8558 0210 8E       		.byte	0x8e
 8559 0211 AD000000 		.4byte	0xad
 8560 0215 79       		.byte	0x79
 8561 0216 0D       		.uleb128 0xd
 8562 0217 52060000 		.4byte	.LASF42
ARM GAS  C:\Users\RECEPC~1\AppData\Local\Temp\ccp152bc.s 			page 213


 8563 021b 05       		.byte	0x5
 8564 021c 8F       		.byte	0x8f
 8565 021d B3030000 		.4byte	0x3b3
 8566 0221 7A       		.byte	0x7a
 8567 0222 0D       		.uleb128 0xd
 8568 0223 FC0C0000 		.4byte	.LASF43
 8569 0227 05       		.byte	0x5
 8570 0228 90       		.byte	0x90
 8571 0229 C3030000 		.4byte	0x3c3
 8572 022d 7F       		.byte	0x7f
 8573 022e 0D       		.uleb128 0xd
 8574 022f ED0C0000 		.4byte	.LASF44
 8575 0233 05       		.byte	0x5
 8576 0234 91       		.byte	0x91
 8577 0235 C3030000 		.4byte	0x3c3
 8578 0239 85       		.byte	0x85
 8579 023a 0D       		.uleb128 0xd
 8580 023b F3020000 		.4byte	.LASF45
 8581 023f 05       		.byte	0x5
 8582 0240 92       		.byte	0x92
 8583 0241 D3030000 		.4byte	0x3d3
 8584 0245 8B       		.byte	0x8b
 8585 0246 0D       		.uleb128 0xd
 8586 0247 3F070000 		.4byte	.LASF46
 8587 024b 05       		.byte	0x5
 8588 024c 93       		.byte	0x93
 8589 024d D3030000 		.4byte	0x3d3
 8590 0251 99       		.byte	0x99
 8591 0252 0D       		.uleb128 0xd
 8592 0253 4A110000 		.4byte	.LASF47
 8593 0257 05       		.byte	0x5
 8594 0258 94       		.byte	0x94
 8595 0259 D3030000 		.4byte	0x3d3
 8596 025d A7       		.byte	0xa7
 8597 025e 0D       		.uleb128 0xd
 8598 025f 460C0000 		.4byte	.LASF48
 8599 0263 05       		.byte	0x5
 8600 0264 95       		.byte	0x95
 8601 0265 D3030000 		.4byte	0x3d3
 8602 0269 B5       		.byte	0xb5
 8603 026a 0D       		.uleb128 0xd
 8604 026b 2A0E0000 		.4byte	.LASF49
 8605 026f 05       		.byte	0x5
 8606 0270 96       		.byte	0x96
 8607 0271 D3030000 		.4byte	0x3d3
 8608 0275 C3       		.byte	0xc3
 8609 0276 0D       		.uleb128 0xd
 8610 0277 0D090000 		.4byte	.LASF50
 8611 027b 05       		.byte	0x5
 8612 027c 97       		.byte	0x97
 8613 027d D3030000 		.4byte	0x3d3
 8614 0281 D1       		.byte	0xd1
 8615 0282 0D       		.uleb128 0xd
 8616 0283 70010000 		.4byte	.LASF51
 8617 0287 05       		.byte	0x5
 8618 0288 98       		.byte	0x98
 8619 0289 E3030000 		.4byte	0x3e3
ARM GAS  C:\Users\RECEPC~1\AppData\Local\Temp\ccp152bc.s 			page 214


 8620 028d DF       		.byte	0xdf
 8621 028e 0D       		.uleb128 0xd
 8622 028f 11110000 		.4byte	.LASF52
 8623 0293 05       		.byte	0x5
 8624 0294 99       		.byte	0x99
 8625 0295 E3030000 		.4byte	0x3e3
 8626 0299 EA       		.byte	0xea
 8627 029a 0D       		.uleb128 0xd
 8628 029b 6C100000 		.4byte	.LASF53
 8629 029f 05       		.byte	0x5
 8630 02a0 9A       		.byte	0x9a
 8631 02a1 E3030000 		.4byte	0x3e3
 8632 02a5 F5       		.byte	0xf5
 8633 02a6 0E       		.uleb128 0xe
 8634 02a7 56120000 		.4byte	.LASF54
 8635 02ab 05       		.byte	0x5
 8636 02ac 9B       		.byte	0x9b
 8637 02ad AD000000 		.4byte	0xad
 8638 02b1 0001     		.2byte	0x100
 8639 02b3 0E       		.uleb128 0xe
 8640 02b4 E8000000 		.4byte	.LASF55
 8641 02b8 05       		.byte	0x5
 8642 02b9 9C       		.byte	0x9c
 8643 02ba AD000000 		.4byte	0xad
 8644 02be 0101     		.2byte	0x101
 8645 02c0 0E       		.uleb128 0xe
 8646 02c1 5D020000 		.4byte	.LASF56
 8647 02c5 05       		.byte	0x5
 8648 02c6 9D       		.byte	0x9d
 8649 02c7 AD000000 		.4byte	0xad
 8650 02cb 0201     		.2byte	0x102
 8651 02cd 0E       		.uleb128 0xe
 8652 02ce D0000000 		.4byte	.LASF57
 8653 02d2 05       		.byte	0x5
 8654 02d3 9E       		.byte	0x9e
 8655 02d4 AD000000 		.4byte	0xad
 8656 02d8 0301     		.2byte	0x103
 8657 02da 0E       		.uleb128 0xe
 8658 02db 28090000 		.4byte	.LASF58
 8659 02df 05       		.byte	0x5
 8660 02e0 9F       		.byte	0x9f
 8661 02e1 6D030000 		.4byte	0x36d
 8662 02e5 0401     		.2byte	0x104
 8663 02e7 0E       		.uleb128 0xe
 8664 02e8 51020000 		.4byte	.LASF59
 8665 02ec 05       		.byte	0x5
 8666 02ed A0       		.byte	0xa0
 8667 02ee 6D030000 		.4byte	0x36d
 8668 02f2 0E01     		.2byte	0x10e
 8669 02f4 0E       		.uleb128 0xe
 8670 02f5 46090000 		.4byte	.LASF60
 8671 02f9 05       		.byte	0x5
 8672 02fa A1       		.byte	0xa1
 8673 02fb 6D030000 		.4byte	0x36d
 8674 02ff 1801     		.2byte	0x118
 8675 0301 0E       		.uleb128 0xe
 8676 0302 73120000 		.4byte	.LASF61
ARM GAS  C:\Users\RECEPC~1\AppData\Local\Temp\ccp152bc.s 			page 215


 8677 0306 05       		.byte	0x5
 8678 0307 A2       		.byte	0xa2
 8679 0308 F3030000 		.4byte	0x3f3
 8680 030c 2201     		.2byte	0x122
 8681 030e 0E       		.uleb128 0xe
 8682 030f E4010000 		.4byte	.LASF62
 8683 0313 05       		.byte	0x5
 8684 0314 A3       		.byte	0xa3
 8685 0315 8D030000 		.4byte	0x38d
 8686 0319 3101     		.2byte	0x131
 8687 031b 0E       		.uleb128 0xe
 8688 031c 10070000 		.4byte	.LASF63
 8689 0320 05       		.byte	0x5
 8690 0321 A4       		.byte	0xa4
 8691 0322 AD000000 		.4byte	0xad
 8692 0326 3301     		.2byte	0x133
 8693 0328 0E       		.uleb128 0xe
 8694 0329 7D0E0000 		.4byte	.LASF64
 8695 032d 05       		.byte	0x5
 8696 032e A5       		.byte	0xa5
 8697 032f AD000000 		.4byte	0xad
 8698 0333 3401     		.2byte	0x134
 8699 0335 0E       		.uleb128 0xe
 8700 0336 AE010000 		.4byte	.LASF65
 8701 033a 05       		.byte	0x5
 8702 033b A6       		.byte	0xa6
 8703 033c AD000000 		.4byte	0xad
 8704 0340 3501     		.2byte	0x135
 8705 0342 0E       		.uleb128 0xe
 8706 0343 700B0000 		.4byte	.LASF66
 8707 0347 05       		.byte	0x5
 8708 0348 A7       		.byte	0xa7
 8709 0349 E3030000 		.4byte	0x3e3
 8710 034d 3601     		.2byte	0x136
 8711 034f 0E       		.uleb128 0xe
 8712 0350 69050000 		.4byte	.LASF67
 8713 0354 05       		.byte	0x5
 8714 0355 A8       		.byte	0xa8
 8715 0356 E3030000 		.4byte	0x3e3
 8716 035a 4101     		.2byte	0x141
 8717 035c 00       		.byte	0
 8718 035d 0A       		.uleb128 0xa
 8719 035e AD000000 		.4byte	0xad
 8720 0362 6D030000 		.4byte	0x36d
 8721 0366 0B       		.uleb128 0xb
 8722 0367 27010000 		.4byte	0x127
 8723 036b 18       		.byte	0x18
 8724 036c 00       		.byte	0
 8725 036d 0A       		.uleb128 0xa
 8726 036e AD000000 		.4byte	0xad
 8727 0372 7D030000 		.4byte	0x37d
 8728 0376 0B       		.uleb128 0xb
 8729 0377 27010000 		.4byte	0x127
 8730 037b 09       		.byte	0x9
 8731 037c 00       		.byte	0
 8732 037d 0A       		.uleb128 0xa
 8733 037e AD000000 		.4byte	0xad
ARM GAS  C:\Users\RECEPC~1\AppData\Local\Temp\ccp152bc.s 			page 216


 8734 0382 8D030000 		.4byte	0x38d
 8735 0386 0B       		.uleb128 0xb
 8736 0387 27010000 		.4byte	0x127
 8737 038b 14       		.byte	0x14
 8738 038c 00       		.byte	0
 8739 038d 0A       		.uleb128 0xa
 8740 038e AD000000 		.4byte	0xad
 8741 0392 9D030000 		.4byte	0x39d
 8742 0396 0B       		.uleb128 0xb
 8743 0397 27010000 		.4byte	0x127
 8744 039b 01       		.byte	0x1
 8745 039c 00       		.byte	0
 8746 039d 0A       		.uleb128 0xa
 8747 039e AD000000 		.4byte	0xad
 8748 03a2 B3030000 		.4byte	0x3b3
 8749 03a6 0B       		.uleb128 0xb
 8750 03a7 27010000 		.4byte	0x127
 8751 03ab 01       		.byte	0x1
 8752 03ac 0B       		.uleb128 0xb
 8753 03ad 27010000 		.4byte	0x127
 8754 03b1 09       		.byte	0x9
 8755 03b2 00       		.byte	0
 8756 03b3 0A       		.uleb128 0xa
 8757 03b4 AD000000 		.4byte	0xad
 8758 03b8 C3030000 		.4byte	0x3c3
 8759 03bc 0B       		.uleb128 0xb
 8760 03bd 27010000 		.4byte	0x127
 8761 03c1 04       		.byte	0x4
 8762 03c2 00       		.byte	0
 8763 03c3 0A       		.uleb128 0xa
 8764 03c4 AD000000 		.4byte	0xad
 8765 03c8 D3030000 		.4byte	0x3d3
 8766 03cc 0B       		.uleb128 0xb
 8767 03cd 27010000 		.4byte	0x127
 8768 03d1 05       		.byte	0x5
 8769 03d2 00       		.byte	0
 8770 03d3 0A       		.uleb128 0xa
 8771 03d4 AD000000 		.4byte	0xad
 8772 03d8 E3030000 		.4byte	0x3e3
 8773 03dc 0B       		.uleb128 0xb
 8774 03dd 27010000 		.4byte	0x127
 8775 03e1 0D       		.byte	0xd
 8776 03e2 00       		.byte	0
 8777 03e3 0A       		.uleb128 0xa
 8778 03e4 AD000000 		.4byte	0xad
 8779 03e8 F3030000 		.4byte	0x3f3
 8780 03ec 0B       		.uleb128 0xb
 8781 03ed 27010000 		.4byte	0x127
 8782 03f1 0A       		.byte	0xa
 8783 03f2 00       		.byte	0
 8784 03f3 0A       		.uleb128 0xa
 8785 03f4 AD000000 		.4byte	0xad
 8786 03f8 03040000 		.4byte	0x403
 8787 03fc 0B       		.uleb128 0xb
 8788 03fd 27010000 		.4byte	0x127
 8789 0401 0E       		.byte	0xe
 8790 0402 00       		.byte	0
ARM GAS  C:\Users\RECEPC~1\AppData\Local\Temp\ccp152bc.s 			page 217


 8791 0403 0C       		.uleb128 0xc
 8792 0404 BA0B0000 		.4byte	.LASF69
 8793 0408 0801     		.2byte	0x108
 8794 040a 05       		.byte	0x5
 8795 040b B9       		.byte	0xb9
 8796 040c CD040000 		.4byte	0x4cd
 8797 0410 0F       		.uleb128 0xf
 8798 0411 64697200 		.ascii	"dir\000"
 8799 0415 05       		.byte	0x5
 8800 0416 BA       		.byte	0xba
 8801 0417 AD000000 		.4byte	0xad
 8802 041b 00       		.byte	0
 8803 041c 0D       		.uleb128 0xd
 8804 041d 77050000 		.4byte	.LASF70
 8805 0421 05       		.byte	0x5
 8806 0422 BB       		.byte	0xbb
 8807 0423 CD040000 		.4byte	0x4cd
 8808 0427 01       		.byte	0x1
 8809 0428 0D       		.uleb128 0xd
 8810 0429 AB070000 		.4byte	.LASF71
 8811 042d 05       		.byte	0x5
 8812 042e BC       		.byte	0xbc
 8813 042f E9040000 		.4byte	0x4e9
 8814 0433 B5       		.byte	0xb5
 8815 0434 0D       		.uleb128 0xd
 8816 0435 70110000 		.4byte	.LASF72
 8817 0439 05       		.byte	0x5
 8818 043a BD       		.byte	0xbd
 8819 043b D3030000 		.4byte	0x3d3
 8820 043f D5       		.byte	0xd5
 8821 0440 0D       		.uleb128 0xd
 8822 0441 5C0B0000 		.4byte	.LASF73
 8823 0445 05       		.byte	0x5
 8824 0446 BE       		.byte	0xbe
 8825 0447 D3030000 		.4byte	0x3d3
 8826 044b E3       		.byte	0xe3
 8827 044c 0D       		.uleb128 0xd
 8828 044d 92100000 		.4byte	.LASF74
 8829 0451 05       		.byte	0x5
 8830 0452 BF       		.byte	0xbf
 8831 0453 D3030000 		.4byte	0x3d3
 8832 0457 F1       		.byte	0xf1
 8833 0458 0D       		.uleb128 0xd
 8834 0459 01090000 		.4byte	.LASF75
 8835 045d 05       		.byte	0x5
 8836 045e C0       		.byte	0xc0
 8837 045f AD000000 		.4byte	0xad
 8838 0463 FF       		.byte	0xff
 8839 0464 0E       		.uleb128 0xe
 8840 0465 43100000 		.4byte	.LASF76
 8841 0469 05       		.byte	0x5
 8842 046a C1       		.byte	0xc1
 8843 046b AD000000 		.4byte	0xad
 8844 046f 0001     		.2byte	0x100
 8845 0471 0E       		.uleb128 0xe
 8846 0472 A10F0000 		.4byte	.LASF77
 8847 0476 05       		.byte	0x5
ARM GAS  C:\Users\RECEPC~1\AppData\Local\Temp\ccp152bc.s 			page 218


 8848 0477 C2       		.byte	0xc2
 8849 0478 AD000000 		.4byte	0xad
 8850 047c 0101     		.2byte	0x101
 8851 047e 0E       		.uleb128 0xe
 8852 047f B90D0000 		.4byte	.LASF78
 8853 0483 05       		.byte	0x5
 8854 0484 C3       		.byte	0xc3
 8855 0485 AD000000 		.4byte	0xad
 8856 0489 0201     		.2byte	0x102
 8857 048b 0E       		.uleb128 0xe
 8858 048c 13000000 		.4byte	.LASF79
 8859 0490 05       		.byte	0x5
 8860 0491 C4       		.byte	0xc4
 8861 0492 AD000000 		.4byte	0xad
 8862 0496 0301     		.2byte	0x103
 8863 0498 0E       		.uleb128 0xe
 8864 0499 E7040000 		.4byte	.LASF80
 8865 049d 05       		.byte	0x5
 8866 049e C5       		.byte	0xc5
 8867 049f AD000000 		.4byte	0xad
 8868 04a3 0401     		.2byte	0x104
 8869 04a5 0E       		.uleb128 0xe
 8870 04a6 96120000 		.4byte	.LASF81
 8871 04aa 05       		.byte	0x5
 8872 04ab C6       		.byte	0xc6
 8873 04ac AD000000 		.4byte	0xad
 8874 04b0 0501     		.2byte	0x105
 8875 04b2 0E       		.uleb128 0xe
 8876 04b3 36010000 		.4byte	.LASF82
 8877 04b7 05       		.byte	0x5
 8878 04b8 C7       		.byte	0xc7
 8879 04b9 AD000000 		.4byte	0xad
 8880 04bd 0601     		.2byte	0x106
 8881 04bf 0E       		.uleb128 0xe
 8882 04c0 9D070000 		.4byte	.LASF83
 8883 04c4 05       		.byte	0x5
 8884 04c5 C8       		.byte	0xc8
 8885 04c6 AD000000 		.4byte	0xad
 8886 04ca 0701     		.2byte	0x107
 8887 04cc 00       		.byte	0
 8888 04cd 0A       		.uleb128 0xa
 8889 04ce AD000000 		.4byte	0xad
 8890 04d2 E9040000 		.4byte	0x4e9
 8891 04d6 0B       		.uleb128 0xb
 8892 04d7 27010000 		.4byte	0x127
 8893 04db 03       		.byte	0x3
 8894 04dc 0B       		.uleb128 0xb
 8895 04dd 27010000 		.4byte	0x127
 8896 04e1 02       		.byte	0x2
 8897 04e2 0B       		.uleb128 0xb
 8898 04e3 27010000 		.4byte	0x127
 8899 04e7 0E       		.byte	0xe
 8900 04e8 00       		.byte	0
 8901 04e9 0A       		.uleb128 0xa
 8902 04ea AD000000 		.4byte	0xad
 8903 04ee FF040000 		.4byte	0x4ff
 8904 04f2 0B       		.uleb128 0xb
ARM GAS  C:\Users\RECEPC~1\AppData\Local\Temp\ccp152bc.s 			page 219


 8905 04f3 27010000 		.4byte	0x127
 8906 04f7 03       		.byte	0x3
 8907 04f8 0B       		.uleb128 0xb
 8908 04f9 27010000 		.4byte	0x127
 8909 04fd 07       		.byte	0x7
 8910 04fe 00       		.byte	0
 8911 04ff 0C       		.uleb128 0xc
 8912 0500 B4100000 		.4byte	.LASF84
 8913 0504 2004     		.2byte	0x420
 8914 0506 05       		.byte	0x5
 8915 0507 CB       		.byte	0xcb
 8916 0508 38050000 		.4byte	0x538
 8917 050c 0F       		.uleb128 0xf
 8918 050d 6100     		.ascii	"a\000"
 8919 050f 05       		.byte	0x5
 8920 0510 CC       		.byte	0xcc
 8921 0511 03040000 		.4byte	0x403
 8922 0515 00       		.byte	0
 8923 0516 10       		.uleb128 0x10
 8924 0517 6200     		.ascii	"b\000"
 8925 0519 05       		.byte	0x5
 8926 051a CD       		.byte	0xcd
 8927 051b 03040000 		.4byte	0x403
 8928 051f 0801     		.2byte	0x108
 8929 0521 10       		.uleb128 0x10
 8930 0522 6300     		.ascii	"c\000"
 8931 0524 05       		.byte	0x5
 8932 0525 CE       		.byte	0xce
 8933 0526 03040000 		.4byte	0x403
 8934 052a 1002     		.2byte	0x210
 8935 052c 10       		.uleb128 0x10
 8936 052d 6400     		.ascii	"d\000"
 8937 052f 05       		.byte	0x5
 8938 0530 CF       		.byte	0xcf
 8939 0531 03040000 		.4byte	0x403
 8940 0535 1803     		.2byte	0x318
 8941 0537 00       		.byte	0
 8942 0538 11       		.uleb128 0x11
 8943 0539 CE020000 		.4byte	.LASF142
 8944 053d 01       		.byte	0x1
 8945 053e 05       		.byte	0x5
 8946 053f E5       		.byte	0xe5
 8947 0540 B1060000 		.4byte	0x6b1
 8948 0544 12       		.uleb128 0x12
 8949 0545 5A030000 		.4byte	.LASF85
 8950 0549 00       		.sleb128 0
 8951 054a 12       		.uleb128 0x12
 8952 054b 760D0000 		.4byte	.LASF86
 8953 054f 01       		.sleb128 1
 8954 0550 12       		.uleb128 0x12
 8955 0551 12080000 		.4byte	.LASF87
 8956 0555 02       		.sleb128 2
 8957 0556 12       		.uleb128 0x12
 8958 0557 22080000 		.4byte	.LASF88
 8959 055b 03       		.sleb128 3
 8960 055c 12       		.uleb128 0x12
 8961 055d D50D0000 		.4byte	.LASF89
ARM GAS  C:\Users\RECEPC~1\AppData\Local\Temp\ccp152bc.s 			page 220


 8962 0561 04       		.sleb128 4
 8963 0562 12       		.uleb128 0x12
 8964 0563 6F070000 		.4byte	.LASF90
 8965 0567 05       		.sleb128 5
 8966 0568 12       		.uleb128 0x12
 8967 0569 FF040000 		.4byte	.LASF91
 8968 056d 06       		.sleb128 6
 8969 056e 12       		.uleb128 0x12
 8970 056f 37020000 		.4byte	.LASF92
 8971 0573 0F       		.sleb128 15
 8972 0574 12       		.uleb128 0x12
 8973 0575 CF0A0000 		.4byte	.LASF93
 8974 0579 FE00     		.sleb128 126
 8975 057b 12       		.uleb128 0x12
 8976 057c EC0A0000 		.4byte	.LASF94
 8977 0580 8601     		.sleb128 134
 8978 0582 12       		.uleb128 0x12
 8979 0583 4A000000 		.4byte	.LASF95
 8980 0587 07       		.sleb128 7
 8981 0588 12       		.uleb128 0x12
 8982 0589 180F0000 		.4byte	.LASF96
 8983 058d 08       		.sleb128 8
 8984 058e 12       		.uleb128 0x12
 8985 058f F2060000 		.4byte	.LASF97
 8986 0593 09       		.sleb128 9
 8987 0594 12       		.uleb128 0x12
 8988 0595 C30B0000 		.4byte	.LASF98
 8989 0599 0A       		.sleb128 10
 8990 059a 12       		.uleb128 0x12
 8991 059b 4F0A0000 		.4byte	.LASF99
 8992 059f 0B       		.sleb128 11
 8993 05a0 12       		.uleb128 0x12
 8994 05a1 5B060000 		.4byte	.LASF100
 8995 05a5 25       		.sleb128 37
 8996 05a6 12       		.uleb128 0x12
 8997 05a7 AF0A0000 		.4byte	.LASF101
 8998 05ab 26       		.sleb128 38
 8999 05ac 12       		.uleb128 0x12
 9000 05ad 090B0000 		.4byte	.LASF102
 9001 05b1 27       		.sleb128 39
 9002 05b2 12       		.uleb128 0x12
 9003 05b3 A9090000 		.4byte	.LASF103
 9004 05b7 2F       		.sleb128 47
 9005 05b8 12       		.uleb128 0x12
 9006 05b9 E2030000 		.4byte	.LASF104
 9007 05bd 2C       		.sleb128 44
 9008 05be 12       		.uleb128 0x12
 9009 05bf 6D0A0000 		.4byte	.LASF105
 9010 05c3 0C       		.sleb128 12
 9011 05c4 12       		.uleb128 0x12
 9012 05c5 CF030000 		.4byte	.LASF106
 9013 05c9 8501     		.sleb128 133
 9014 05cb 12       		.uleb128 0x12
 9015 05cc 850B0000 		.4byte	.LASF107
 9016 05d0 1C       		.sleb128 28
 9017 05d1 12       		.uleb128 0x12
 9018 05d2 A40D0000 		.4byte	.LASF108
ARM GAS  C:\Users\RECEPC~1\AppData\Local\Temp\ccp152bc.s 			page 221


 9019 05d6 12       		.sleb128 18
 9020 05d7 12       		.uleb128 0x12
 9021 05d8 C0090000 		.4byte	.LASF109
 9022 05dc 13       		.sleb128 19
 9023 05dd 12       		.uleb128 0x12
 9024 05de 9A100000 		.4byte	.LASF110
 9025 05e2 24       		.sleb128 36
 9026 05e3 12       		.uleb128 0x12
 9027 05e4 500F0000 		.4byte	.LASF111
 9028 05e8 0D       		.sleb128 13
 9029 05e9 12       		.uleb128 0x12
 9030 05ea 34030000 		.4byte	.LASF112
 9031 05ee 0E       		.sleb128 14
 9032 05ef 12       		.uleb128 0x12
 9033 05f0 470D0000 		.4byte	.LASF113
 9034 05f4 8301     		.sleb128 131
 9035 05f6 12       		.uleb128 0x12
 9036 05f7 44010000 		.4byte	.LASF114
 9037 05fb DA00     		.sleb128 90
 9038 05fd 12       		.uleb128 0x12
 9039 05fe 9C000000 		.4byte	.LASF115
 9040 0602 31       		.sleb128 49
 9041 0603 12       		.uleb128 0x12
 9042 0604 DD080000 		.4byte	.LASF116
 9043 0608 35       		.sleb128 53
 9044 0609 12       		.uleb128 0x12
 9045 060a 53070000 		.4byte	.LASF117
 9046 060e 2E       		.sleb128 46
 9047 060f 12       		.uleb128 0x12
 9048 0610 2B0D0000 		.4byte	.LASF118
 9049 0614 8C01     		.sleb128 140
 9050 0616 12       		.uleb128 0x12
 9051 0617 22050000 		.4byte	.LASF119
 9052 061b 9601     		.sleb128 150
 9053 061d 12       		.uleb128 0x12
 9054 061e 7C030000 		.4byte	.LASF120
 9055 0622 39       		.sleb128 57
 9056 0623 12       		.uleb128 0x12
 9057 0624 310A0000 		.4byte	.LASF121
 9058 0628 9701     		.sleb128 151
 9059 062a 12       		.uleb128 0x12
 9060 062b D9120000 		.4byte	.LASF122
 9061 062f 9801     		.sleb128 152
 9062 0631 12       		.uleb128 0x12
 9063 0632 AC0C0000 		.4byte	.LASF123
 9064 0636 3E       		.sleb128 62
 9065 0637 12       		.uleb128 0x12
 9066 0638 2C0F0000 		.4byte	.LASF124
 9067 063c 3F       		.sleb128 63
 9068 063d 12       		.uleb128 0x12
 9069 063e A3030000 		.4byte	.LASF125
 9070 0642 C000     		.sleb128 64
 9071 0644 12       		.uleb128 0x12
 9072 0645 5B110000 		.4byte	.LASF126
 9073 0649 8D01     		.sleb128 141
 9074 064b 12       		.uleb128 0x12
 9075 064c FF000000 		.4byte	.LASF127
ARM GAS  C:\Users\RECEPC~1\AppData\Local\Temp\ccp152bc.s 			page 222


 9076 0650 23       		.sleb128 35
 9077 0651 12       		.uleb128 0x12
 9078 0652 30040000 		.4byte	.LASF128
 9079 0656 2A       		.sleb128 42
 9080 0657 12       		.uleb128 0x12
 9081 0658 A60F0000 		.4byte	.LASF129
 9082 065c 2B       		.sleb128 43
 9083 065d 12       		.uleb128 0x12
 9084 065e 19040000 		.4byte	.LASF130
 9085 0662 3C       		.sleb128 60
 9086 0663 12       		.uleb128 0x12
 9087 0664 56080000 		.4byte	.LASF131
 9088 0668 C100     		.sleb128 65
 9089 066a 12       		.uleb128 0x12
 9090 066b C7050000 		.4byte	.LASF132
 9091 066f EB00     		.sleb128 107
 9092 0671 12       		.uleb128 0x12
 9093 0672 E3090000 		.4byte	.LASF133
 9094 0676 E700     		.sleb128 103
 9095 0678 12       		.uleb128 0x12
 9096 0679 7A020000 		.4byte	.LASF134
 9097 067d E400     		.sleb128 100
 9098 067f 12       		.uleb128 0x12
 9099 0680 F00F0000 		.4byte	.LASF135
 9100 0684 E500     		.sleb128 101
 9101 0686 12       		.uleb128 0x12
 9102 0687 A1080000 		.4byte	.LASF136
 9103 068b 9901     		.sleb128 153
 9104 068d 12       		.uleb128 0x12
 9105 068e B0080000 		.4byte	.LASF137
 9106 0692 9A01     		.sleb128 154
 9107 0694 12       		.uleb128 0x12
 9108 0695 BF080000 		.4byte	.LASF138
 9109 0699 9B01     		.sleb128 155
 9110 069b 12       		.uleb128 0x12
 9111 069c CE080000 		.4byte	.LASF139
 9112 06a0 9C01     		.sleb128 156
 9113 06a2 12       		.uleb128 0x12
 9114 06a3 830C0000 		.4byte	.LASF140
 9115 06a7 FA01     		.sleb128 250
 9116 06a9 12       		.uleb128 0x12
 9117 06aa 21100000 		.4byte	.LASF141
 9118 06ae FF01     		.sleb128 255
 9119 06b0 00       		.byte	0
 9120 06b1 13       		.uleb128 0x13
 9121 06b2 1C120000 		.4byte	.LASF143
 9122 06b6 01       		.byte	0x1
 9123 06b7 05       		.byte	0x5
 9124 06b8 3001     		.2byte	0x130
 9125 06ba EF060000 		.4byte	0x6ef
 9126 06be 12       		.uleb128 0x12
 9127 06bf 0B0D0000 		.4byte	.LASF144
 9128 06c3 00       		.sleb128 0
 9129 06c4 12       		.uleb128 0x12
 9130 06c5 FA100000 		.4byte	.LASF145
 9131 06c9 06       		.sleb128 6
 9132 06ca 12       		.uleb128 0x12
ARM GAS  C:\Users\RECEPC~1\AppData\Local\Temp\ccp152bc.s 			page 223


 9133 06cb 490B0000 		.4byte	.LASF146
 9134 06cf 07       		.sleb128 7
 9135 06d0 12       		.uleb128 0x12
 9136 06d1 34120000 		.4byte	.LASF147
 9137 06d5 08       		.sleb128 8
 9138 06d6 12       		.uleb128 0x12
 9139 06d7 CA0C0000 		.4byte	.LASF148
 9140 06db 09       		.sleb128 9
 9141 06dc 12       		.uleb128 0x12
 9142 06dd 5B0E0000 		.4byte	.LASF149
 9143 06e1 0A       		.sleb128 10
 9144 06e2 12       		.uleb128 0x12
 9145 06e3 5B0D0000 		.4byte	.LASF150
 9146 06e7 0B       		.sleb128 11
 9147 06e8 12       		.uleb128 0x12
 9148 06e9 80120000 		.4byte	.LASF151
 9149 06ed 0C       		.sleb128 12
 9150 06ee 00       		.byte	0
 9151 06ef 13       		.uleb128 0x13
 9152 06f0 DC000000 		.4byte	.LASF152
 9153 06f4 01       		.byte	0x1
 9154 06f5 05       		.byte	0x5
 9155 06f6 3C01     		.2byte	0x13c
 9156 06f8 33070000 		.4byte	0x733
 9157 06fc 12       		.uleb128 0x12
 9158 06fd 3C010000 		.4byte	.LASF153
 9159 0701 08       		.sleb128 8
 9160 0702 12       		.uleb128 0x12
 9161 0703 8B0A0000 		.4byte	.LASF154
 9162 0707 01       		.sleb128 1
 9163 0708 12       		.uleb128 0x12
 9164 0709 710C0000 		.4byte	.LASF155
 9165 070d 02       		.sleb128 2
 9166 070e 12       		.uleb128 0x12
 9167 070f 340C0000 		.4byte	.LASF156
 9168 0713 03       		.sleb128 3
 9169 0714 12       		.uleb128 0x12
 9170 0715 59050000 		.4byte	.LASF157
 9171 0719 05       		.sleb128 5
 9172 071a 12       		.uleb128 0x12
 9173 071b 36000000 		.4byte	.LASF158
 9174 071f 06       		.sleb128 6
 9175 0720 12       		.uleb128 0x12
 9176 0721 560C0000 		.4byte	.LASF159
 9177 0725 04       		.sleb128 4
 9178 0726 12       		.uleb128 0x12
 9179 0727 400F0000 		.4byte	.LASF160
 9180 072b 0B       		.sleb128 11
 9181 072c 12       		.uleb128 0x12
 9182 072d ED010000 		.4byte	.LASF161
 9183 0731 0C       		.sleb128 12
 9184 0732 00       		.byte	0
 9185 0733 14       		.uleb128 0x14
 9186 0734 4F090000 		.4byte	.LASF180
 9187 0738 01       		.byte	0x1
 9188 0739 E507     		.2byte	0x7e5
 9189 073b 00000000 		.4byte	.LFB73
ARM GAS  C:\Users\RECEPC~1\AppData\Local\Temp\ccp152bc.s 			page 224


 9190 073f 14000000 		.4byte	.LFE73-.LFB73
 9191 0743 01       		.uleb128 0x1
 9192 0744 9C       		.byte	0x9c
 9193 0745 53070000 		.4byte	0x753
 9194 0749 15       		.uleb128 0x15
 9195 074a 06000000 		.4byte	.LVL0
 9196 074e 5A390000 		.4byte	0x395a
 9197 0752 00       		.byte	0
 9198 0753 16       		.uleb128 0x16
 9199 0754 37060000 		.4byte	.LASF162
 9200 0758 01       		.byte	0x1
 9201 0759 26       		.byte	0x26
 9202 075a 00000000 		.4byte	.LFB63
 9203 075e 28000000 		.4byte	.LFE63-.LFB63
 9204 0762 01       		.uleb128 0x1
 9205 0763 9C       		.byte	0x9c
 9206 0764 BA070000 		.4byte	0x7ba
 9207 0768 15       		.uleb128 0x15
 9208 0769 06000000 		.4byte	.LVL1
 9209 076d 65390000 		.4byte	0x3965
 9210 0771 15       		.uleb128 0x15
 9211 0772 0A000000 		.4byte	.LVL2
 9212 0776 6C390000 		.4byte	0x396c
 9213 077a 15       		.uleb128 0x15
 9214 077b 0E000000 		.4byte	.LVL3
 9215 077f 73390000 		.4byte	0x3973
 9216 0783 15       		.uleb128 0x15
 9217 0784 12000000 		.4byte	.LVL4
 9218 0788 7A390000 		.4byte	0x397a
 9219 078c 15       		.uleb128 0x15
 9220 078d 16000000 		.4byte	.LVL5
 9221 0791 81390000 		.4byte	0x3981
 9222 0795 15       		.uleb128 0x15
 9223 0796 1A000000 		.4byte	.LVL6
 9224 079a 88390000 		.4byte	0x3988
 9225 079e 15       		.uleb128 0x15
 9226 079f 1E000000 		.4byte	.LVL7
 9227 07a3 8F390000 		.4byte	0x398f
 9228 07a7 15       		.uleb128 0x15
 9229 07a8 22000000 		.4byte	.LVL8
 9230 07ac 96390000 		.4byte	0x3996
 9231 07b0 15       		.uleb128 0x15
 9232 07b1 26000000 		.4byte	.LVL9
 9233 07b5 9D390000 		.4byte	0x399d
 9234 07b9 00       		.byte	0
 9235 07ba 16       		.uleb128 0x16
 9236 07bb 8A070000 		.4byte	.LASF163
 9237 07bf 01       		.byte	0x1
 9238 07c0 35       		.byte	0x35
 9239 07c1 00000000 		.4byte	.LFB64
 9240 07c5 94000000 		.4byte	.LFE64-.LFB64
 9241 07c9 01       		.uleb128 0x1
 9242 07ca 9C       		.byte	0x9c
 9243 07cb 9D080000 		.4byte	0x89d
 9244 07cf 17       		.uleb128 0x17
 9245 07d0 0C000000 		.4byte	.LVL10
 9246 07d4 A4390000 		.4byte	0x39a4
ARM GAS  C:\Users\RECEPC~1\AppData\Local\Temp\ccp152bc.s 			page 225


 9247 07d8 E2070000 		.4byte	0x7e2
 9248 07dc 18       		.uleb128 0x18
 9249 07dd 01       		.uleb128 0x1
 9250 07de 51       		.byte	0x51
 9251 07df 01       		.uleb128 0x1
 9252 07e0 30       		.byte	0x30
 9253 07e1 00       		.byte	0
 9254 07e2 17       		.uleb128 0x17
 9255 07e3 16000000 		.4byte	.LVL11
 9256 07e7 A4390000 		.4byte	0x39a4
 9257 07eb F5070000 		.4byte	0x7f5
 9258 07ef 18       		.uleb128 0x18
 9259 07f0 01       		.uleb128 0x1
 9260 07f1 51       		.byte	0x51
 9261 07f2 01       		.uleb128 0x1
 9262 07f3 31       		.byte	0x31
 9263 07f4 00       		.byte	0
 9264 07f5 17       		.uleb128 0x17
 9265 07f6 20000000 		.4byte	.LVL12
 9266 07fa A4390000 		.4byte	0x39a4
 9267 07fe 08080000 		.4byte	0x808
 9268 0802 18       		.uleb128 0x18
 9269 0803 01       		.uleb128 0x1
 9270 0804 51       		.byte	0x51
 9271 0805 01       		.uleb128 0x1
 9272 0806 32       		.byte	0x32
 9273 0807 00       		.byte	0
 9274 0808 17       		.uleb128 0x17
 9275 0809 2A000000 		.4byte	.LVL13
 9276 080d A4390000 		.4byte	0x39a4
 9277 0811 1B080000 		.4byte	0x81b
 9278 0815 18       		.uleb128 0x18
 9279 0816 01       		.uleb128 0x1
 9280 0817 51       		.byte	0x51
 9281 0818 01       		.uleb128 0x1
 9282 0819 33       		.byte	0x33
 9283 081a 00       		.byte	0
 9284 081b 17       		.uleb128 0x17
 9285 081c 34000000 		.4byte	.LVL14
 9286 0820 A4390000 		.4byte	0x39a4
 9287 0824 2E080000 		.4byte	0x82e
 9288 0828 18       		.uleb128 0x18
 9289 0829 01       		.uleb128 0x1
 9290 082a 51       		.byte	0x51
 9291 082b 01       		.uleb128 0x1
 9292 082c 34       		.byte	0x34
 9293 082d 00       		.byte	0
 9294 082e 17       		.uleb128 0x17
 9295 082f 3E000000 		.4byte	.LVL15
 9296 0833 A4390000 		.4byte	0x39a4
 9297 0837 41080000 		.4byte	0x841
 9298 083b 18       		.uleb128 0x18
 9299 083c 01       		.uleb128 0x1
 9300 083d 51       		.byte	0x51
 9301 083e 01       		.uleb128 0x1
 9302 083f 35       		.byte	0x35
 9303 0840 00       		.byte	0
ARM GAS  C:\Users\RECEPC~1\AppData\Local\Temp\ccp152bc.s 			page 226


 9304 0841 17       		.uleb128 0x17
 9305 0842 48000000 		.4byte	.LVL16
 9306 0846 A4390000 		.4byte	0x39a4
 9307 084a 54080000 		.4byte	0x854
 9308 084e 18       		.uleb128 0x18
 9309 084f 01       		.uleb128 0x1
 9310 0850 51       		.byte	0x51
 9311 0851 01       		.uleb128 0x1
 9312 0852 36       		.byte	0x36
 9313 0853 00       		.byte	0
 9314 0854 17       		.uleb128 0x17
 9315 0855 52000000 		.4byte	.LVL17
 9316 0859 A4390000 		.4byte	0x39a4
 9317 085d 67080000 		.4byte	0x867
 9318 0861 18       		.uleb128 0x18
 9319 0862 01       		.uleb128 0x1
 9320 0863 51       		.byte	0x51
 9321 0864 01       		.uleb128 0x1
 9322 0865 3C       		.byte	0x3c
 9323 0866 00       		.byte	0
 9324 0867 17       		.uleb128 0x17
 9325 0868 5C000000 		.4byte	.LVL18
 9326 086c A4390000 		.4byte	0x39a4
 9327 0870 7A080000 		.4byte	0x87a
 9328 0874 18       		.uleb128 0x18
 9329 0875 01       		.uleb128 0x1
 9330 0876 51       		.byte	0x51
 9331 0877 01       		.uleb128 0x1
 9332 0878 3D       		.byte	0x3d
 9333 0879 00       		.byte	0
 9334 087a 17       		.uleb128 0x17
 9335 087b 66000000 		.4byte	.LVL19
 9336 087f A4390000 		.4byte	0x39a4
 9337 0883 8D080000 		.4byte	0x88d
 9338 0887 18       		.uleb128 0x18
 9339 0888 01       		.uleb128 0x1
 9340 0889 51       		.byte	0x51
 9341 088a 01       		.uleb128 0x1
 9342 088b 3E       		.byte	0x3e
 9343 088c 00       		.byte	0
 9344 088d 19       		.uleb128 0x19
 9345 088e 70000000 		.4byte	.LVL20
 9346 0892 A4390000 		.4byte	0x39a4
 9347 0896 18       		.uleb128 0x18
 9348 0897 01       		.uleb128 0x1
 9349 0898 51       		.byte	0x51
 9350 0899 01       		.uleb128 0x1
 9351 089a 3F       		.byte	0x3f
 9352 089b 00       		.byte	0
 9353 089c 00       		.byte	0
 9354 089d 16       		.uleb128 0x16
 9355 089e BC020000 		.4byte	.LASF164
 9356 08a2 01       		.byte	0x1
 9357 08a3 42       		.byte	0x42
 9358 08a4 00000000 		.4byte	.LFB65
 9359 08a8 C8000000 		.4byte	.LFE65-.LFB65
 9360 08ac 01       		.uleb128 0x1
ARM GAS  C:\Users\RECEPC~1\AppData\Local\Temp\ccp152bc.s 			page 227


 9361 08ad 9C       		.byte	0x9c
 9362 08ae B9090000 		.4byte	0x9b9
 9363 08b2 17       		.uleb128 0x17
 9364 08b3 08000000 		.4byte	.LVL21
 9365 08b7 BE390000 		.4byte	0x39be
 9366 08bb C5080000 		.4byte	0x8c5
 9367 08bf 18       		.uleb128 0x18
 9368 08c0 01       		.uleb128 0x1
 9369 08c1 50       		.byte	0x50
 9370 08c2 01       		.uleb128 0x1
 9371 08c3 32       		.byte	0x32
 9372 08c4 00       		.byte	0
 9373 08c5 17       		.uleb128 0x17
 9374 08c6 12000000 		.4byte	.LVL22
 9375 08ca BE390000 		.4byte	0x39be
 9376 08ce D8080000 		.4byte	0x8d8
 9377 08d2 18       		.uleb128 0x18
 9378 08d3 01       		.uleb128 0x1
 9379 08d4 50       		.byte	0x50
 9380 08d5 01       		.uleb128 0x1
 9381 08d6 33       		.byte	0x33
 9382 08d7 00       		.byte	0
 9383 08d8 17       		.uleb128 0x17
 9384 08d9 1C000000 		.4byte	.LVL23
 9385 08dd BE390000 		.4byte	0x39be
 9386 08e1 EB080000 		.4byte	0x8eb
 9387 08e5 18       		.uleb128 0x18
 9388 08e6 01       		.uleb128 0x1
 9389 08e7 50       		.byte	0x50
 9390 08e8 01       		.uleb128 0x1
 9391 08e9 34       		.byte	0x34
 9392 08ea 00       		.byte	0
 9393 08eb 17       		.uleb128 0x17
 9394 08ec 26000000 		.4byte	.LVL24
 9395 08f0 BE390000 		.4byte	0x39be
 9396 08f4 FE080000 		.4byte	0x8fe
 9397 08f8 18       		.uleb128 0x18
 9398 08f9 01       		.uleb128 0x1
 9399 08fa 50       		.byte	0x50
 9400 08fb 01       		.uleb128 0x1
 9401 08fc 35       		.byte	0x35
 9402 08fd 00       		.byte	0
 9403 08fe 17       		.uleb128 0x17
 9404 08ff 30000000 		.4byte	.LVL25
 9405 0903 BE390000 		.4byte	0x39be
 9406 0907 11090000 		.4byte	0x911
 9407 090b 18       		.uleb128 0x18
 9408 090c 01       		.uleb128 0x1
 9409 090d 50       		.byte	0x50
 9410 090e 01       		.uleb128 0x1
 9411 090f 36       		.byte	0x36
 9412 0910 00       		.byte	0
 9413 0911 17       		.uleb128 0x17
 9414 0912 3A000000 		.4byte	.LVL26
 9415 0916 BE390000 		.4byte	0x39be
 9416 091a 24090000 		.4byte	0x924
 9417 091e 18       		.uleb128 0x18
ARM GAS  C:\Users\RECEPC~1\AppData\Local\Temp\ccp152bc.s 			page 228


 9418 091f 01       		.uleb128 0x1
 9419 0920 50       		.byte	0x50
 9420 0921 01       		.uleb128 0x1
 9421 0922 37       		.byte	0x37
 9422 0923 00       		.byte	0
 9423 0924 17       		.uleb128 0x17
 9424 0925 44000000 		.4byte	.LVL27
 9425 0929 BE390000 		.4byte	0x39be
 9426 092d 37090000 		.4byte	0x937
 9427 0931 18       		.uleb128 0x18
 9428 0932 01       		.uleb128 0x1
 9429 0933 50       		.byte	0x50
 9430 0934 01       		.uleb128 0x1
 9431 0935 38       		.byte	0x38
 9432 0936 00       		.byte	0
 9433 0937 17       		.uleb128 0x17
 9434 0938 4E000000 		.4byte	.LVL28
 9435 093c BE390000 		.4byte	0x39be
 9436 0940 4A090000 		.4byte	0x94a
 9437 0944 18       		.uleb128 0x18
 9438 0945 01       		.uleb128 0x1
 9439 0946 50       		.byte	0x50
 9440 0947 01       		.uleb128 0x1
 9441 0948 39       		.byte	0x39
 9442 0949 00       		.byte	0
 9443 094a 17       		.uleb128 0x17
 9444 094b 58000000 		.4byte	.LVL29
 9445 094f BE390000 		.4byte	0x39be
 9446 0953 5D090000 		.4byte	0x95d
 9447 0957 18       		.uleb128 0x18
 9448 0958 01       		.uleb128 0x1
 9449 0959 50       		.byte	0x50
 9450 095a 01       		.uleb128 0x1
 9451 095b 3A       		.byte	0x3a
 9452 095c 00       		.byte	0
 9453 095d 17       		.uleb128 0x17
 9454 095e 62000000 		.4byte	.LVL30
 9455 0962 BE390000 		.4byte	0x39be
 9456 0966 70090000 		.4byte	0x970
 9457 096a 18       		.uleb128 0x18
 9458 096b 01       		.uleb128 0x1
 9459 096c 50       		.byte	0x50
 9460 096d 01       		.uleb128 0x1
 9461 096e 3B       		.byte	0x3b
 9462 096f 00       		.byte	0
 9463 0970 17       		.uleb128 0x17
 9464 0971 74000000 		.4byte	.LVL31
 9465 0975 BE390000 		.4byte	0x39be
 9466 0979 83090000 		.4byte	0x983
 9467 097d 18       		.uleb128 0x18
 9468 097e 01       		.uleb128 0x1
 9469 097f 50       		.byte	0x50
 9470 0980 01       		.uleb128 0x1
 9471 0981 3C       		.byte	0x3c
 9472 0982 00       		.byte	0
 9473 0983 17       		.uleb128 0x17
 9474 0984 7E000000 		.4byte	.LVL32
ARM GAS  C:\Users\RECEPC~1\AppData\Local\Temp\ccp152bc.s 			page 229


 9475 0988 BE390000 		.4byte	0x39be
 9476 098c 96090000 		.4byte	0x996
 9477 0990 18       		.uleb128 0x18
 9478 0991 01       		.uleb128 0x1
 9479 0992 50       		.byte	0x50
 9480 0993 01       		.uleb128 0x1
 9481 0994 3D       		.byte	0x3d
 9482 0995 00       		.byte	0
 9483 0996 17       		.uleb128 0x17
 9484 0997 88000000 		.4byte	.LVL33
 9485 099b BE390000 		.4byte	0x39be
 9486 099f A9090000 		.4byte	0x9a9
 9487 09a3 18       		.uleb128 0x18
 9488 09a4 01       		.uleb128 0x1
 9489 09a5 50       		.byte	0x50
 9490 09a6 01       		.uleb128 0x1
 9491 09a7 3E       		.byte	0x3e
 9492 09a8 00       		.byte	0
 9493 09a9 19       		.uleb128 0x19
 9494 09aa 92000000 		.4byte	.LVL34
 9495 09ae BE390000 		.4byte	0x39be
 9496 09b2 18       		.uleb128 0x18
 9497 09b3 01       		.uleb128 0x1
 9498 09b4 50       		.byte	0x50
 9499 09b5 01       		.uleb128 0x1
 9500 09b6 3F       		.byte	0x3f
 9501 09b7 00       		.byte	0
 9502 09b8 00       		.byte	0
 9503 09b9 16       		.uleb128 0x16
 9504 09ba 32080000 		.4byte	.LASF165
 9505 09be 01       		.byte	0x1
 9506 09bf 6C       		.byte	0x6c
 9507 09c0 00000000 		.4byte	.LFB66
 9508 09c4 8C020000 		.4byte	.LFE66-.LFB66
 9509 09c8 01       		.uleb128 0x1
 9510 09c9 9C       		.byte	0x9c
 9511 09ca A80C0000 		.4byte	0xca8
 9512 09ce 1A       		.uleb128 0x1a
 9513 09cf 990A0000 		.4byte	.LASF166
 9514 09d3 01       		.byte	0x1
 9515 09d4 6D       		.byte	0x6d
 9516 09d5 A80C0000 		.4byte	0xca8
 9517 09d9 02       		.uleb128 0x2
 9518 09da 91       		.byte	0x91
 9519 09db 6C       		.sleb128 -20
 9520 09dc 1A       		.uleb128 0x1a
 9521 09dd 710D0000 		.4byte	.LASF167
 9522 09e1 01       		.byte	0x1
 9523 09e2 6E       		.byte	0x6e
 9524 09e3 A80C0000 		.4byte	0xca8
 9525 09e7 02       		.uleb128 0x2
 9526 09e8 91       		.byte	0x91
 9527 09e9 60       		.sleb128 -32
 9528 09ea 1A       		.uleb128 0x1a
 9529 09eb 44120000 		.4byte	.LASF168
 9530 09ef 01       		.byte	0x1
 9531 09f0 6F       		.byte	0x6f
ARM GAS  C:\Users\RECEPC~1\AppData\Local\Temp\ccp152bc.s 			page 230


 9532 09f1 A80C0000 		.4byte	0xca8
 9533 09f5 02       		.uleb128 0x2
 9534 09f6 91       		.byte	0x91
 9535 09f7 54       		.sleb128 -44
 9536 09f8 1A       		.uleb128 0x1a
 9537 09f9 4A120000 		.4byte	.LASF169
 9538 09fd 01       		.byte	0x1
 9539 09fe 70       		.byte	0x70
 9540 09ff A80C0000 		.4byte	0xca8
 9541 0a03 02       		.uleb128 0x2
 9542 0a04 91       		.byte	0x91
 9543 0a05 48       		.sleb128 -56
 9544 0a06 1A       		.uleb128 0x1a
 9545 0a07 50120000 		.4byte	.LASF170
 9546 0a0b 01       		.byte	0x1
 9547 0a0c 71       		.byte	0x71
 9548 0a0d A80C0000 		.4byte	0xca8
 9549 0a11 03       		.uleb128 0x3
 9550 0a12 91       		.byte	0x91
 9551 0a13 BC7F     		.sleb128 -68
 9552 0a15 1A       		.uleb128 0x1a
 9553 0a16 04110000 		.4byte	.LASF171
 9554 0a1a 01       		.byte	0x1
 9555 0a1b 72       		.byte	0x72
 9556 0a1c A80C0000 		.4byte	0xca8
 9557 0a20 03       		.uleb128 0x3
 9558 0a21 91       		.byte	0x91
 9559 0a22 B07F     		.sleb128 -80
 9560 0a24 1A       		.uleb128 0x1a
 9561 0a25 150D0000 		.4byte	.LASF172
 9562 0a29 01       		.byte	0x1
 9563 0a2a 73       		.byte	0x73
 9564 0a2b A80C0000 		.4byte	0xca8
 9565 0a2f 03       		.uleb128 0x3
 9566 0a30 91       		.byte	0x91
 9567 0a31 A47F     		.sleb128 -92
 9568 0a33 1A       		.uleb128 0x1a
 9569 0a34 1D110000 		.4byte	.LASF173
 9570 0a38 01       		.byte	0x1
 9571 0a39 74       		.byte	0x74
 9572 0a3a A80C0000 		.4byte	0xca8
 9573 0a3e 03       		.uleb128 0x3
 9574 0a3f 91       		.byte	0x91
 9575 0a40 987F     		.sleb128 -104
 9576 0a42 1A       		.uleb128 0x1a
 9577 0a43 2A110000 		.4byte	.LASF174
 9578 0a47 01       		.byte	0x1
 9579 0a48 75       		.byte	0x75
 9580 0a49 A80C0000 		.4byte	0xca8
 9581 0a4d 03       		.uleb128 0x3
 9582 0a4e 91       		.byte	0x91
 9583 0a4f 8C7F     		.sleb128 -116
 9584 0a51 17       		.uleb128 0x17
 9585 0a52 86000000 		.4byte	.LVL35
 9586 0a56 D3390000 		.4byte	0x39d3
 9587 0a5a 690A0000 		.4byte	0xa69
 9588 0a5e 18       		.uleb128 0x18
ARM GAS  C:\Users\RECEPC~1\AppData\Local\Temp\ccp152bc.s 			page 231


 9589 0a5f 01       		.uleb128 0x1
 9590 0a60 51       		.byte	0x51
 9591 0a61 01       		.uleb128 0x1
 9592 0a62 31       		.byte	0x31
 9593 0a63 18       		.uleb128 0x18
 9594 0a64 01       		.uleb128 0x1
 9595 0a65 50       		.byte	0x50
 9596 0a66 01       		.uleb128 0x1
 9597 0a67 31       		.byte	0x31
 9598 0a68 00       		.byte	0
 9599 0a69 17       		.uleb128 0x17
 9600 0a6a 90000000 		.4byte	.LVL36
 9601 0a6e E9390000 		.4byte	0x39e9
 9602 0a72 870A0000 		.4byte	0xa87
 9603 0a76 18       		.uleb128 0x18
 9604 0a77 01       		.uleb128 0x1
 9605 0a78 52       		.byte	0x52
 9606 0a79 01       		.uleb128 0x1
 9607 0a7a 30       		.byte	0x30
 9608 0a7b 18       		.uleb128 0x18
 9609 0a7c 01       		.uleb128 0x1
 9610 0a7d 51       		.byte	0x51
 9611 0a7e 02       		.uleb128 0x2
 9612 0a7f 91       		.byte	0x91
 9613 0a80 6C       		.sleb128 -20
 9614 0a81 18       		.uleb128 0x18
 9615 0a82 01       		.uleb128 0x1
 9616 0a83 50       		.byte	0x50
 9617 0a84 01       		.uleb128 0x1
 9618 0a85 31       		.byte	0x31
 9619 0a86 00       		.byte	0
 9620 0a87 17       		.uleb128 0x17
 9621 0a88 98000000 		.4byte	.LVL37
 9622 0a8c 0A3A0000 		.4byte	0x3a0a
 9623 0a90 9C0A0000 		.4byte	0xa9c
 9624 0a94 18       		.uleb128 0x18
 9625 0a95 01       		.uleb128 0x1
 9626 0a96 50       		.byte	0x50
 9627 0a97 03       		.uleb128 0x3
 9628 0a98 0A       		.byte	0xa
 9629 0a99 2C01     		.2byte	0x12c
 9630 0a9b 00       		.byte	0
 9631 0a9c 17       		.uleb128 0x17
 9632 0a9d B6000000 		.4byte	.LVL38
 9633 0aa1 E9390000 		.4byte	0x39e9
 9634 0aa5 BA0A0000 		.4byte	0xaba
 9635 0aa9 18       		.uleb128 0x18
 9636 0aaa 01       		.uleb128 0x1
 9637 0aab 52       		.byte	0x52
 9638 0aac 01       		.uleb128 0x1
 9639 0aad 30       		.byte	0x30
 9640 0aae 18       		.uleb128 0x18
 9641 0aaf 01       		.uleb128 0x1
 9642 0ab0 51       		.byte	0x51
 9643 0ab1 02       		.uleb128 0x2
 9644 0ab2 91       		.byte	0x91
 9645 0ab3 60       		.sleb128 -32
ARM GAS  C:\Users\RECEPC~1\AppData\Local\Temp\ccp152bc.s 			page 232


 9646 0ab4 18       		.uleb128 0x18
 9647 0ab5 01       		.uleb128 0x1
 9648 0ab6 50       		.byte	0x50
 9649 0ab7 01       		.uleb128 0x1
 9650 0ab8 31       		.byte	0x31
 9651 0ab9 00       		.byte	0
 9652 0aba 17       		.uleb128 0x17
 9653 0abb D6000000 		.4byte	.LVL39
 9654 0abf E9390000 		.4byte	0x39e9
 9655 0ac3 D80A0000 		.4byte	0xad8
 9656 0ac7 18       		.uleb128 0x18
 9657 0ac8 01       		.uleb128 0x1
 9658 0ac9 52       		.byte	0x52
 9659 0aca 01       		.uleb128 0x1
 9660 0acb 30       		.byte	0x30
 9661 0acc 18       		.uleb128 0x18
 9662 0acd 01       		.uleb128 0x1
 9663 0ace 51       		.byte	0x51
 9664 0acf 02       		.uleb128 0x2
 9665 0ad0 91       		.byte	0x91
 9666 0ad1 54       		.sleb128 -44
 9667 0ad2 18       		.uleb128 0x18
 9668 0ad3 01       		.uleb128 0x1
 9669 0ad4 50       		.byte	0x50
 9670 0ad5 01       		.uleb128 0x1
 9671 0ad6 31       		.byte	0x31
 9672 0ad7 00       		.byte	0
 9673 0ad8 17       		.uleb128 0x17
 9674 0ad9 F6000000 		.4byte	.LVL40
 9675 0add E9390000 		.4byte	0x39e9
 9676 0ae1 F60A0000 		.4byte	0xaf6
 9677 0ae5 18       		.uleb128 0x18
 9678 0ae6 01       		.uleb128 0x1
 9679 0ae7 52       		.byte	0x52
 9680 0ae8 01       		.uleb128 0x1
 9681 0ae9 30       		.byte	0x30
 9682 0aea 18       		.uleb128 0x18
 9683 0aeb 01       		.uleb128 0x1
 9684 0aec 51       		.byte	0x51
 9685 0aed 02       		.uleb128 0x2
 9686 0aee 91       		.byte	0x91
 9687 0aef 48       		.sleb128 -56
 9688 0af0 18       		.uleb128 0x18
 9689 0af1 01       		.uleb128 0x1
 9690 0af2 50       		.byte	0x50
 9691 0af3 01       		.uleb128 0x1
 9692 0af4 31       		.byte	0x31
 9693 0af5 00       		.byte	0
 9694 0af6 17       		.uleb128 0x17
 9695 0af7 16010000 		.4byte	.LVL41
 9696 0afb E9390000 		.4byte	0x39e9
 9697 0aff 150B0000 		.4byte	0xb15
 9698 0b03 18       		.uleb128 0x18
 9699 0b04 01       		.uleb128 0x1
 9700 0b05 52       		.byte	0x52
 9701 0b06 01       		.uleb128 0x1
 9702 0b07 30       		.byte	0x30
ARM GAS  C:\Users\RECEPC~1\AppData\Local\Temp\ccp152bc.s 			page 233


 9703 0b08 18       		.uleb128 0x18
 9704 0b09 01       		.uleb128 0x1
 9705 0b0a 51       		.byte	0x51
 9706 0b0b 03       		.uleb128 0x3
 9707 0b0c 91       		.byte	0x91
 9708 0b0d BC7F     		.sleb128 -68
 9709 0b0f 18       		.uleb128 0x18
 9710 0b10 01       		.uleb128 0x1
 9711 0b11 50       		.byte	0x50
 9712 0b12 01       		.uleb128 0x1
 9713 0b13 31       		.byte	0x31
 9714 0b14 00       		.byte	0
 9715 0b15 17       		.uleb128 0x17
 9716 0b16 26010000 		.4byte	.LVL42
 9717 0b1a E9390000 		.4byte	0x39e9
 9718 0b1e 340B0000 		.4byte	0xb34
 9719 0b22 18       		.uleb128 0x18
 9720 0b23 01       		.uleb128 0x1
 9721 0b24 52       		.byte	0x52
 9722 0b25 01       		.uleb128 0x1
 9723 0b26 46       		.byte	0x46
 9724 0b27 18       		.uleb128 0x18
 9725 0b28 01       		.uleb128 0x1
 9726 0b29 51       		.byte	0x51
 9727 0b2a 03       		.uleb128 0x3
 9728 0b2b 91       		.byte	0x91
 9729 0b2c B07F     		.sleb128 -80
 9730 0b2e 18       		.uleb128 0x18
 9731 0b2f 01       		.uleb128 0x1
 9732 0b30 50       		.byte	0x50
 9733 0b31 01       		.uleb128 0x1
 9734 0b32 31       		.byte	0x31
 9735 0b33 00       		.byte	0
 9736 0b34 17       		.uleb128 0x17
 9737 0b35 3E010000 		.4byte	.LVL43
 9738 0b39 E9390000 		.4byte	0x39e9
 9739 0b3d 530B0000 		.4byte	0xb53
 9740 0b41 18       		.uleb128 0x18
 9741 0b42 01       		.uleb128 0x1
 9742 0b43 52       		.byte	0x52
 9743 0b44 01       		.uleb128 0x1
 9744 0b45 46       		.byte	0x46
 9745 0b46 18       		.uleb128 0x18
 9746 0b47 01       		.uleb128 0x1
 9747 0b48 51       		.byte	0x51
 9748 0b49 03       		.uleb128 0x3
 9749 0b4a 91       		.byte	0x91
 9750 0b4b A47F     		.sleb128 -92
 9751 0b4d 18       		.uleb128 0x18
 9752 0b4e 01       		.uleb128 0x1
 9753 0b4f 50       		.byte	0x50
 9754 0b50 01       		.uleb128 0x1
 9755 0b51 31       		.byte	0x31
 9756 0b52 00       		.byte	0
 9757 0b53 17       		.uleb128 0x17
 9758 0b54 56010000 		.4byte	.LVL44
 9759 0b58 E9390000 		.4byte	0x39e9
ARM GAS  C:\Users\RECEPC~1\AppData\Local\Temp\ccp152bc.s 			page 234


 9760 0b5c 720B0000 		.4byte	0xb72
 9761 0b60 18       		.uleb128 0x18
 9762 0b61 01       		.uleb128 0x1
 9763 0b62 52       		.byte	0x52
 9764 0b63 01       		.uleb128 0x1
 9765 0b64 46       		.byte	0x46
 9766 0b65 18       		.uleb128 0x18
 9767 0b66 01       		.uleb128 0x1
 9768 0b67 51       		.byte	0x51
 9769 0b68 03       		.uleb128 0x3
 9770 0b69 91       		.byte	0x91
 9771 0b6a 987F     		.sleb128 -104
 9772 0b6c 18       		.uleb128 0x18
 9773 0b6d 01       		.uleb128 0x1
 9774 0b6e 50       		.byte	0x50
 9775 0b6f 01       		.uleb128 0x1
 9776 0b70 31       		.byte	0x31
 9777 0b71 00       		.byte	0
 9778 0b72 17       		.uleb128 0x17
 9779 0b73 6E010000 		.4byte	.LVL45
 9780 0b77 E9390000 		.4byte	0x39e9
 9781 0b7b 900B0000 		.4byte	0xb90
 9782 0b7f 18       		.uleb128 0x18
 9783 0b80 01       		.uleb128 0x1
 9784 0b81 52       		.byte	0x52
 9785 0b82 01       		.uleb128 0x1
 9786 0b83 46       		.byte	0x46
 9787 0b84 18       		.uleb128 0x18
 9788 0b85 01       		.uleb128 0x1
 9789 0b86 51       		.byte	0x51
 9790 0b87 02       		.uleb128 0x2
 9791 0b88 74       		.byte	0x74
 9792 0b89 78       		.sleb128 -8
 9793 0b8a 18       		.uleb128 0x18
 9794 0b8b 01       		.uleb128 0x1
 9795 0b8c 50       		.byte	0x50
 9796 0b8d 01       		.uleb128 0x1
 9797 0b8e 31       		.byte	0x31
 9798 0b8f 00       		.byte	0
 9799 0b90 17       		.uleb128 0x17
 9800 0b91 84010000 		.4byte	.LVL46
 9801 0b95 D3390000 		.4byte	0x39d3
 9802 0b99 A90B0000 		.4byte	0xba9
 9803 0b9d 18       		.uleb128 0x18
 9804 0b9e 01       		.uleb128 0x1
 9805 0b9f 51       		.byte	0x51
 9806 0ba0 02       		.uleb128 0x2
 9807 0ba1 08       		.byte	0x8
 9808 0ba2 2E       		.byte	0x2e
 9809 0ba3 18       		.uleb128 0x18
 9810 0ba4 01       		.uleb128 0x1
 9811 0ba5 50       		.byte	0x50
 9812 0ba6 01       		.uleb128 0x1
 9813 0ba7 31       		.byte	0x31
 9814 0ba8 00       		.byte	0
 9815 0ba9 17       		.uleb128 0x17
 9816 0baa 8E010000 		.4byte	.LVL47
ARM GAS  C:\Users\RECEPC~1\AppData\Local\Temp\ccp152bc.s 			page 235


 9817 0bae E9390000 		.4byte	0x39e9
 9818 0bb2 C70B0000 		.4byte	0xbc7
 9819 0bb6 18       		.uleb128 0x18
 9820 0bb7 01       		.uleb128 0x1
 9821 0bb8 52       		.byte	0x52
 9822 0bb9 01       		.uleb128 0x1
 9823 0bba 30       		.byte	0x30
 9824 0bbb 18       		.uleb128 0x18
 9825 0bbc 01       		.uleb128 0x1
 9826 0bbd 51       		.byte	0x51
 9827 0bbe 02       		.uleb128 0x2
 9828 0bbf 91       		.byte	0x91
 9829 0bc0 6C       		.sleb128 -20
 9830 0bc1 18       		.uleb128 0x18
 9831 0bc2 01       		.uleb128 0x1
 9832 0bc3 50       		.byte	0x50
 9833 0bc4 01       		.uleb128 0x1
 9834 0bc5 31       		.byte	0x31
 9835 0bc6 00       		.byte	0
 9836 0bc7 17       		.uleb128 0x17
 9837 0bc8 96010000 		.4byte	.LVL48
 9838 0bcc 0A3A0000 		.4byte	0x3a0a
 9839 0bd0 DC0B0000 		.4byte	0xbdc
 9840 0bd4 18       		.uleb128 0x18
 9841 0bd5 01       		.uleb128 0x1
 9842 0bd6 50       		.byte	0x50
 9843 0bd7 03       		.uleb128 0x3
 9844 0bd8 0A       		.byte	0xa
 9845 0bd9 2C01     		.2byte	0x12c
 9846 0bdb 00       		.byte	0
 9847 0bdc 17       		.uleb128 0x17
 9848 0bdd BC010000 		.4byte	.LVL49
 9849 0be1 E9390000 		.4byte	0x39e9
 9850 0be5 FA0B0000 		.4byte	0xbfa
 9851 0be9 18       		.uleb128 0x18
 9852 0bea 01       		.uleb128 0x1
 9853 0beb 52       		.byte	0x52
 9854 0bec 01       		.uleb128 0x1
 9855 0bed 30       		.byte	0x30
 9856 0bee 18       		.uleb128 0x18
 9857 0bef 01       		.uleb128 0x1
 9858 0bf0 51       		.byte	0x51
 9859 0bf1 02       		.uleb128 0x2
 9860 0bf2 91       		.byte	0x91
 9861 0bf3 60       		.sleb128 -32
 9862 0bf4 18       		.uleb128 0x18
 9863 0bf5 01       		.uleb128 0x1
 9864 0bf6 50       		.byte	0x50
 9865 0bf7 01       		.uleb128 0x1
 9866 0bf8 31       		.byte	0x31
 9867 0bf9 00       		.byte	0
 9868 0bfa 17       		.uleb128 0x17
 9869 0bfb E4010000 		.4byte	.LVL50
 9870 0bff E9390000 		.4byte	0x39e9
 9871 0c03 180C0000 		.4byte	0xc18
 9872 0c07 18       		.uleb128 0x18
 9873 0c08 01       		.uleb128 0x1
ARM GAS  C:\Users\RECEPC~1\AppData\Local\Temp\ccp152bc.s 			page 236


 9874 0c09 52       		.byte	0x52
 9875 0c0a 01       		.uleb128 0x1
 9876 0c0b 30       		.byte	0x30
 9877 0c0c 18       		.uleb128 0x18
 9878 0c0d 01       		.uleb128 0x1
 9879 0c0e 51       		.byte	0x51
 9880 0c0f 02       		.uleb128 0x2
 9881 0c10 91       		.byte	0x91
 9882 0c11 54       		.sleb128 -44
 9883 0c12 18       		.uleb128 0x18
 9884 0c13 01       		.uleb128 0x1
 9885 0c14 50       		.byte	0x50
 9886 0c15 01       		.uleb128 0x1
 9887 0c16 31       		.byte	0x31
 9888 0c17 00       		.byte	0
 9889 0c18 17       		.uleb128 0x17
 9890 0c19 0C020000 		.4byte	.LVL51
 9891 0c1d E9390000 		.4byte	0x39e9
 9892 0c21 360C0000 		.4byte	0xc36
 9893 0c25 18       		.uleb128 0x18
 9894 0c26 01       		.uleb128 0x1
 9895 0c27 52       		.byte	0x52
 9896 0c28 01       		.uleb128 0x1
 9897 0c29 30       		.byte	0x30
 9898 0c2a 18       		.uleb128 0x18
 9899 0c2b 01       		.uleb128 0x1
 9900 0c2c 51       		.byte	0x51
 9901 0c2d 02       		.uleb128 0x2
 9902 0c2e 91       		.byte	0x91
 9903 0c2f 48       		.sleb128 -56
 9904 0c30 18       		.uleb128 0x18
 9905 0c31 01       		.uleb128 0x1
 9906 0c32 50       		.byte	0x50
 9907 0c33 01       		.uleb128 0x1
 9908 0c34 31       		.byte	0x31
 9909 0c35 00       		.byte	0
 9910 0c36 17       		.uleb128 0x17
 9911 0c37 34020000 		.4byte	.LVL52
 9912 0c3b E9390000 		.4byte	0x39e9
 9913 0c3f 550C0000 		.4byte	0xc55
 9914 0c43 18       		.uleb128 0x18
 9915 0c44 01       		.uleb128 0x1
 9916 0c45 52       		.byte	0x52
 9917 0c46 01       		.uleb128 0x1
 9918 0c47 30       		.byte	0x30
 9919 0c48 18       		.uleb128 0x18
 9920 0c49 01       		.uleb128 0x1
 9921 0c4a 51       		.byte	0x51
 9922 0c4b 03       		.uleb128 0x3
 9923 0c4c 91       		.byte	0x91
 9924 0c4d BC7F     		.sleb128 -68
 9925 0c4f 18       		.uleb128 0x18
 9926 0c50 01       		.uleb128 0x1
 9927 0c51 50       		.byte	0x50
 9928 0c52 01       		.uleb128 0x1
 9929 0c53 31       		.byte	0x31
 9930 0c54 00       		.byte	0
ARM GAS  C:\Users\RECEPC~1\AppData\Local\Temp\ccp152bc.s 			page 237


 9931 0c55 17       		.uleb128 0x17
 9932 0c56 46020000 		.4byte	.LVL53
 9933 0c5a E9390000 		.4byte	0x39e9
 9934 0c5e 740C0000 		.4byte	0xc74
 9935 0c62 18       		.uleb128 0x18
 9936 0c63 01       		.uleb128 0x1
 9937 0c64 52       		.byte	0x52
 9938 0c65 01       		.uleb128 0x1
 9939 0c66 46       		.byte	0x46
 9940 0c67 18       		.uleb128 0x18
 9941 0c68 01       		.uleb128 0x1
 9942 0c69 51       		.byte	0x51
 9943 0c6a 03       		.uleb128 0x3
 9944 0c6b 91       		.byte	0x91
 9945 0c6c A47F     		.sleb128 -92
 9946 0c6e 18       		.uleb128 0x18
 9947 0c6f 01       		.uleb128 0x1
 9948 0c70 50       		.byte	0x50
 9949 0c71 01       		.uleb128 0x1
 9950 0c72 31       		.byte	0x31
 9951 0c73 00       		.byte	0
 9952 0c74 17       		.uleb128 0x17
 9953 0c75 58020000 		.4byte	.LVL54
 9954 0c79 E9390000 		.4byte	0x39e9
 9955 0c7d 930C0000 		.4byte	0xc93
 9956 0c81 18       		.uleb128 0x18
 9957 0c82 01       		.uleb128 0x1
 9958 0c83 52       		.byte	0x52
 9959 0c84 01       		.uleb128 0x1
 9960 0c85 46       		.byte	0x46
 9961 0c86 18       		.uleb128 0x18
 9962 0c87 01       		.uleb128 0x1
 9963 0c88 51       		.byte	0x51
 9964 0c89 03       		.uleb128 0x3
 9965 0c8a 91       		.byte	0x91
 9966 0c8b 987F     		.sleb128 -104
 9967 0c8d 18       		.uleb128 0x18
 9968 0c8e 01       		.uleb128 0x1
 9969 0c8f 50       		.byte	0x50
 9970 0c90 01       		.uleb128 0x1
 9971 0c91 31       		.byte	0x31
 9972 0c92 00       		.byte	0
 9973 0c93 19       		.uleb128 0x19
 9974 0c94 68020000 		.4byte	.LVL55
 9975 0c98 D3390000 		.4byte	0x39d3
 9976 0c9c 18       		.uleb128 0x18
 9977 0c9d 01       		.uleb128 0x1
 9978 0c9e 51       		.byte	0x51
 9979 0c9f 01       		.uleb128 0x1
 9980 0ca0 30       		.byte	0x30
 9981 0ca1 18       		.uleb128 0x18
 9982 0ca2 01       		.uleb128 0x1
 9983 0ca3 50       		.byte	0x50
 9984 0ca4 01       		.uleb128 0x1
 9985 0ca5 31       		.byte	0x31
 9986 0ca6 00       		.byte	0
 9987 0ca7 00       		.byte	0
ARM GAS  C:\Users\RECEPC~1\AppData\Local\Temp\ccp152bc.s 			page 238


 9988 0ca8 0A       		.uleb128 0xa
 9989 0ca9 8C000000 		.4byte	0x8c
 9990 0cad B80C0000 		.4byte	0xcb8
 9991 0cb1 0B       		.uleb128 0xb
 9992 0cb2 27010000 		.4byte	0x127
 9993 0cb6 09       		.byte	0x9
 9994 0cb7 00       		.byte	0
 9995 0cb8 16       		.uleb128 0x16
 9996 0cb9 3F080000 		.4byte	.LASF175
 9997 0cbd 01       		.byte	0x1
 9998 0cbe D4       		.byte	0xd4
 9999 0cbf 00000000 		.4byte	.LFB67
 10000 0cc3 50000000 		.4byte	.LFE67-.LFB67
 10001 0cc7 01       		.uleb128 0x1
 10002 0cc8 9C       		.byte	0x9c
 10003 0cc9 340D0000 		.4byte	0xd34
 10004 0ccd 17       		.uleb128 0x17
 10005 0cce 12000000 		.4byte	.LVL56
 10006 0cd2 D3390000 		.4byte	0x39d3
 10007 0cd6 E50C0000 		.4byte	0xce5
 10008 0cda 18       		.uleb128 0x18
 10009 0cdb 01       		.uleb128 0x1
 10010 0cdc 51       		.byte	0x51
 10011 0cdd 01       		.uleb128 0x1
 10012 0cde 31       		.byte	0x31
 10013 0cdf 18       		.uleb128 0x18
 10014 0ce0 01       		.uleb128 0x1
 10015 0ce1 50       		.byte	0x50
 10016 0ce2 01       		.uleb128 0x1
 10017 0ce3 32       		.byte	0x32
 10018 0ce4 00       		.byte	0
 10019 0ce5 17       		.uleb128 0x17
 10020 0ce6 28000000 		.4byte	.LVL57
 10021 0cea D3390000 		.4byte	0x39d3
 10022 0cee FE0C0000 		.4byte	0xcfe
 10023 0cf2 18       		.uleb128 0x18
 10024 0cf3 01       		.uleb128 0x1
 10025 0cf4 51       		.byte	0x51
 10026 0cf5 02       		.uleb128 0x2
 10027 0cf6 08       		.byte	0x8
 10028 0cf7 2E       		.byte	0x2e
 10029 0cf8 18       		.uleb128 0x18
 10030 0cf9 01       		.uleb128 0x1
 10031 0cfa 50       		.byte	0x50
 10032 0cfb 01       		.uleb128 0x1
 10033 0cfc 32       		.byte	0x32
 10034 0cfd 00       		.byte	0
 10035 0cfe 17       		.uleb128 0x17
 10036 0cff 38000000 		.4byte	.LVL58
 10037 0d03 D3390000 		.4byte	0x39d3
 10038 0d07 160D0000 		.4byte	0xd16
 10039 0d0b 18       		.uleb128 0x18
 10040 0d0c 01       		.uleb128 0x1
 10041 0d0d 51       		.byte	0x51
 10042 0d0e 01       		.uleb128 0x1
 10043 0d0f 30       		.byte	0x30
 10044 0d10 18       		.uleb128 0x18
ARM GAS  C:\Users\RECEPC~1\AppData\Local\Temp\ccp152bc.s 			page 239


 10045 0d11 01       		.uleb128 0x1
 10046 0d12 50       		.byte	0x50
 10047 0d13 01       		.uleb128 0x1
 10048 0d14 32       		.byte	0x32
 10049 0d15 00       		.byte	0
 10050 0d16 19       		.uleb128 0x19
 10051 0d17 42000000 		.4byte	.LVL59
 10052 0d1b E9390000 		.4byte	0x39e9
 10053 0d1f 18       		.uleb128 0x18
 10054 0d20 01       		.uleb128 0x1
 10055 0d21 52       		.byte	0x52
 10056 0d22 01       		.uleb128 0x1
 10057 0d23 30       		.byte	0x30
 10058 0d24 18       		.uleb128 0x18
 10059 0d25 01       		.uleb128 0x1
 10060 0d26 51       		.byte	0x51
 10061 0d27 05       		.uleb128 0x5
 10062 0d28 03       		.byte	0x3
 10063 0d29 08000000 		.4byte	.LANCHOR0+8
 10064 0d2d 18       		.uleb128 0x18
 10065 0d2e 01       		.uleb128 0x1
 10066 0d2f 50       		.byte	0x50
 10067 0d30 01       		.uleb128 0x1
 10068 0d31 32       		.byte	0x32
 10069 0d32 00       		.byte	0
 10070 0d33 00       		.byte	0
 10071 0d34 16       		.uleb128 0x16
 10072 0d35 F8080000 		.4byte	.LASF176
 10073 0d39 01       		.byte	0x1
 10074 0d3a EB       		.byte	0xeb
 10075 0d3b 00000000 		.4byte	.LFB68
 10076 0d3f C4000000 		.4byte	.LFE68-.LFB68
 10077 0d43 01       		.uleb128 0x1
 10078 0d44 9C       		.byte	0x9c
 10079 0d45 610E0000 		.4byte	0xe61
 10080 0d49 15       		.uleb128 0x15
 10081 0d4a 06000000 		.4byte	.LVL60
 10082 0d4e 1B3A0000 		.4byte	0x3a1b
 10083 0d52 15       		.uleb128 0x15
 10084 0d53 16000000 		.4byte	.LVL61
 10085 0d57 263A0000 		.4byte	0x3a26
 10086 0d5b 15       		.uleb128 0x15
 10087 0d5c 1A000000 		.4byte	.LVL62
 10088 0d60 3B3A0000 		.4byte	0x3a3b
 10089 0d64 17       		.uleb128 0x17
 10090 0d65 24000000 		.4byte	.LVL63
 10091 0d69 D3390000 		.4byte	0x39d3
 10092 0d6d 7C0D0000 		.4byte	0xd7c
 10093 0d71 18       		.uleb128 0x18
 10094 0d72 01       		.uleb128 0x1
 10095 0d73 51       		.byte	0x51
 10096 0d74 01       		.uleb128 0x1
 10097 0d75 30       		.byte	0x30
 10098 0d76 18       		.uleb128 0x18
 10099 0d77 01       		.uleb128 0x1
 10100 0d78 50       		.byte	0x50
 10101 0d79 01       		.uleb128 0x1
ARM GAS  C:\Users\RECEPC~1\AppData\Local\Temp\ccp152bc.s 			page 240


 10102 0d7a 31       		.byte	0x31
 10103 0d7b 00       		.byte	0
 10104 0d7c 17       		.uleb128 0x17
 10105 0d7d 2C000000 		.4byte	.LVL64
 10106 0d81 D3390000 		.4byte	0x39d3
 10107 0d85 940D0000 		.4byte	0xd94
 10108 0d89 18       		.uleb128 0x18
 10109 0d8a 01       		.uleb128 0x1
 10110 0d8b 51       		.byte	0x51
 10111 0d8c 01       		.uleb128 0x1
 10112 0d8d 30       		.byte	0x30
 10113 0d8e 18       		.uleb128 0x18
 10114 0d8f 01       		.uleb128 0x1
 10115 0d90 50       		.byte	0x50
 10116 0d91 01       		.uleb128 0x1
 10117 0d92 32       		.byte	0x32
 10118 0d93 00       		.byte	0
 10119 0d94 15       		.uleb128 0x15
 10120 0d95 3C000000 		.4byte	.LVL65
 10121 0d99 263A0000 		.4byte	0x3a26
 10122 0d9d 15       		.uleb128 0x15
 10123 0d9e 40000000 		.4byte	.LVL66
 10124 0da2 3B3A0000 		.4byte	0x3a3b
 10125 0da6 17       		.uleb128 0x17
 10126 0da7 4A000000 		.4byte	.LVL67
 10127 0dab D3390000 		.4byte	0x39d3
 10128 0daf BE0D0000 		.4byte	0xdbe
 10129 0db3 18       		.uleb128 0x18
 10130 0db4 01       		.uleb128 0x1
 10131 0db5 51       		.byte	0x51
 10132 0db6 01       		.uleb128 0x1
 10133 0db7 30       		.byte	0x30
 10134 0db8 18       		.uleb128 0x18
 10135 0db9 01       		.uleb128 0x1
 10136 0dba 50       		.byte	0x50
 10137 0dbb 01       		.uleb128 0x1
 10138 0dbc 31       		.byte	0x31
 10139 0dbd 00       		.byte	0
 10140 0dbe 17       		.uleb128 0x17
 10141 0dbf 52000000 		.4byte	.LVL68
 10142 0dc3 D3390000 		.4byte	0x39d3
 10143 0dc7 D60D0000 		.4byte	0xdd6
 10144 0dcb 18       		.uleb128 0x18
 10145 0dcc 01       		.uleb128 0x1
 10146 0dcd 51       		.byte	0x51
 10147 0dce 01       		.uleb128 0x1
 10148 0dcf 30       		.byte	0x30
 10149 0dd0 18       		.uleb128 0x18
 10150 0dd1 01       		.uleb128 0x1
 10151 0dd2 50       		.byte	0x50
 10152 0dd3 01       		.uleb128 0x1
 10153 0dd4 32       		.byte	0x32
 10154 0dd5 00       		.byte	0
 10155 0dd6 15       		.uleb128 0x15
 10156 0dd7 60000000 		.4byte	.LVL69
 10157 0ddb 263A0000 		.4byte	0x3a26
 10158 0ddf 15       		.uleb128 0x15
ARM GAS  C:\Users\RECEPC~1\AppData\Local\Temp\ccp152bc.s 			page 241


 10159 0de0 64000000 		.4byte	.LVL70
 10160 0de4 3B3A0000 		.4byte	0x3a3b
 10161 0de8 15       		.uleb128 0x15
 10162 0de9 70000000 		.4byte	.LVL71
 10163 0ded 263A0000 		.4byte	0x3a26
 10164 0df1 15       		.uleb128 0x15
 10165 0df2 74000000 		.4byte	.LVL72
 10166 0df6 3B3A0000 		.4byte	0x3a3b
 10167 0dfa 15       		.uleb128 0x15
 10168 0dfb 7A000000 		.4byte	.LVL73
 10169 0dff 1B3A0000 		.4byte	0x3a1b
 10170 0e03 15       		.uleb128 0x15
 10171 0e04 86000000 		.4byte	.LVL74
 10172 0e08 263A0000 		.4byte	0x3a26
 10173 0e0c 15       		.uleb128 0x15
 10174 0e0d 94000000 		.4byte	.LVL75
 10175 0e11 263A0000 		.4byte	0x3a26
 10176 0e15 15       		.uleb128 0x15
 10177 0e16 A0000000 		.4byte	.LVL76
 10178 0e1a 573A0000 		.4byte	0x3a57
 10179 0e1e 15       		.uleb128 0x15
 10180 0e1f A4000000 		.4byte	.LVL77
 10181 0e23 BA070000 		.4byte	0x7ba
 10182 0e27 17       		.uleb128 0x17
 10183 0e28 AE000000 		.4byte	.LVL78
 10184 0e2c D3390000 		.4byte	0x39d3
 10185 0e30 3F0E0000 		.4byte	0xe3f
 10186 0e34 18       		.uleb128 0x18
 10187 0e35 01       		.uleb128 0x1
 10188 0e36 51       		.byte	0x51
 10189 0e37 01       		.uleb128 0x1
 10190 0e38 39       		.byte	0x39
 10191 0e39 18       		.uleb128 0x18
 10192 0e3a 01       		.uleb128 0x1
 10193 0e3b 50       		.byte	0x50
 10194 0e3c 01       		.uleb128 0x1
 10195 0e3d 31       		.byte	0x31
 10196 0e3e 00       		.byte	0
 10197 0e3f 17       		.uleb128 0x17
 10198 0e40 B6000000 		.4byte	.LVL79
 10199 0e44 D3390000 		.4byte	0x39d3
 10200 0e48 570E0000 		.4byte	0xe57
 10201 0e4c 18       		.uleb128 0x18
 10202 0e4d 01       		.uleb128 0x1
 10203 0e4e 51       		.byte	0x51
 10204 0e4f 01       		.uleb128 0x1
 10205 0e50 39       		.byte	0x39
 10206 0e51 18       		.uleb128 0x18
 10207 0e52 01       		.uleb128 0x1
 10208 0e53 50       		.byte	0x50
 10209 0e54 01       		.uleb128 0x1
 10210 0e55 32       		.byte	0x32
 10211 0e56 00       		.byte	0
 10212 0e57 15       		.uleb128 0x15
 10213 0e58 BA000000 		.4byte	.LVL80
 10214 0e5c 340D0000 		.4byte	0xd34
 10215 0e60 00       		.byte	0
ARM GAS  C:\Users\RECEPC~1\AppData\Local\Temp\ccp152bc.s 			page 242


 10216 0e61 1B       		.uleb128 0x1b
 10217 0e62 A0120000 		.4byte	.LASF177
 10218 0e66 01       		.byte	0x1
 10219 0e67 0F01     		.2byte	0x10f
 10220 0e69 00000000 		.4byte	.LFB69
 10221 0e6d C4000000 		.4byte	.LFE69-.LFB69
 10222 0e71 01       		.uleb128 0x1
 10223 0e72 9C       		.byte	0x9c
 10224 0e73 03100000 		.4byte	0x1003
 10225 0e77 1C       		.uleb128 0x1c
 10226 0e78 1B020000 		.4byte	.LASF178
 10227 0e7c 01       		.byte	0x1
 10228 0e7d 1001     		.2byte	0x110
 10229 0e7f 03100000 		.4byte	0x1003
 10230 0e83 02       		.uleb128 0x2
 10231 0e84 91       		.byte	0x91
 10232 0e85 54       		.sleb128 -44
 10233 0e86 1C       		.uleb128 0x1c
 10234 0e87 21020000 		.4byte	.LASF179
 10235 0e8b 01       		.byte	0x1
 10236 0e8c 1101     		.2byte	0x111
 10237 0e8e 03100000 		.4byte	0x1003
 10238 0e92 03       		.uleb128 0x3
 10239 0e93 91       		.byte	0x91
 10240 0e94 B87F     		.sleb128 -72
 10241 0e96 1D       		.uleb128 0x1d
 10242 0e97 7800     		.ascii	"x\000"
 10243 0e99 01       		.byte	0x1
 10244 0e9a 1201     		.2byte	0x112
 10245 0e9c AD000000 		.4byte	0xad
 10246 0ea0 00000000 		.4byte	.LLST0
 10247 0ea4 17       		.uleb128 0x17
 10248 0ea5 3A000000 		.4byte	.LVL83
 10249 0ea9 6C3A0000 		.4byte	0x3a6c
 10250 0ead C50E0000 		.4byte	0xec5
 10251 0eb1 18       		.uleb128 0x18
 10252 0eb2 01       		.uleb128 0x1
 10253 0eb3 51       		.byte	0x51
 10254 0eb4 0A       		.uleb128 0xa
 10255 0eb5 91       		.byte	0x91
 10256 0eb6 00       		.sleb128 0
 10257 0eb7 74       		.byte	0x74
 10258 0eb8 00       		.sleb128 0
 10259 0eb9 22       		.byte	0x22
 10260 0eba 08       		.byte	0x8
 10261 0ebb 2C       		.byte	0x2c
 10262 0ebc 1C       		.byte	0x1c
 10263 0ebd 94       		.byte	0x94
 10264 0ebe 01       		.byte	0x1
 10265 0ebf 18       		.uleb128 0x18
 10266 0ec0 01       		.uleb128 0x1
 10267 0ec1 50       		.byte	0x50
 10268 0ec2 01       		.uleb128 0x1
 10269 0ec3 31       		.byte	0x31
 10270 0ec4 00       		.byte	0
 10271 0ec5 17       		.uleb128 0x17
 10272 0ec6 4A000000 		.4byte	.LVL86
ARM GAS  C:\Users\RECEPC~1\AppData\Local\Temp\ccp152bc.s 			page 243


 10273 0eca 6C3A0000 		.4byte	0x3a6c
 10274 0ece DD0E0000 		.4byte	0xedd
 10275 0ed2 18       		.uleb128 0x18
 10276 0ed3 01       		.uleb128 0x1
 10277 0ed4 51       		.byte	0x51
 10278 0ed5 01       		.uleb128 0x1
 10279 0ed6 3A       		.byte	0x3a
 10280 0ed7 18       		.uleb128 0x18
 10281 0ed8 01       		.uleb128 0x1
 10282 0ed9 50       		.byte	0x50
 10283 0eda 01       		.uleb128 0x1
 10284 0edb 31       		.byte	0x31
 10285 0edc 00       		.byte	0
 10286 0edd 17       		.uleb128 0x17
 10287 0ede 52000000 		.4byte	.LVL87
 10288 0ee2 6C3A0000 		.4byte	0x3a6c
 10289 0ee6 F50E0000 		.4byte	0xef5
 10290 0eea 18       		.uleb128 0x18
 10291 0eeb 01       		.uleb128 0x1
 10292 0eec 51       		.byte	0x51
 10293 0eed 01       		.uleb128 0x1
 10294 0eee 3A       		.byte	0x3a
 10295 0eef 18       		.uleb128 0x18
 10296 0ef0 01       		.uleb128 0x1
 10297 0ef1 50       		.byte	0x50
 10298 0ef2 01       		.uleb128 0x1
 10299 0ef3 31       		.byte	0x31
 10300 0ef4 00       		.byte	0
 10301 0ef5 17       		.uleb128 0x17
 10302 0ef6 5A000000 		.4byte	.LVL88
 10303 0efa 6C3A0000 		.4byte	0x3a6c
 10304 0efe 0D0F0000 		.4byte	0xf0d
 10305 0f02 18       		.uleb128 0x18
 10306 0f03 01       		.uleb128 0x1
 10307 0f04 51       		.byte	0x51
 10308 0f05 01       		.uleb128 0x1
 10309 0f06 3A       		.byte	0x3a
 10310 0f07 18       		.uleb128 0x18
 10311 0f08 01       		.uleb128 0x1
 10312 0f09 50       		.byte	0x50
 10313 0f0a 01       		.uleb128 0x1
 10314 0f0b 31       		.byte	0x31
 10315 0f0c 00       		.byte	0
 10316 0f0d 17       		.uleb128 0x17
 10317 0f0e 62000000 		.4byte	.LVL89
 10318 0f12 6C3A0000 		.4byte	0x3a6c
 10319 0f16 250F0000 		.4byte	0xf25
 10320 0f1a 18       		.uleb128 0x18
 10321 0f1b 01       		.uleb128 0x1
 10322 0f1c 51       		.byte	0x51
 10323 0f1d 01       		.uleb128 0x1
 10324 0f1e 3A       		.byte	0x3a
 10325 0f1f 18       		.uleb128 0x18
 10326 0f20 01       		.uleb128 0x1
 10327 0f21 50       		.byte	0x50
 10328 0f22 01       		.uleb128 0x1
 10329 0f23 31       		.byte	0x31
ARM GAS  C:\Users\RECEPC~1\AppData\Local\Temp\ccp152bc.s 			page 244


 10330 0f24 00       		.byte	0
 10331 0f25 17       		.uleb128 0x17
 10332 0f26 6A000000 		.4byte	.LVL90
 10333 0f2a 6C3A0000 		.4byte	0x3a6c
 10334 0f2e 3D0F0000 		.4byte	0xf3d
 10335 0f32 18       		.uleb128 0x18
 10336 0f33 01       		.uleb128 0x1
 10337 0f34 51       		.byte	0x51
 10338 0f35 01       		.uleb128 0x1
 10339 0f36 3A       		.byte	0x3a
 10340 0f37 18       		.uleb128 0x18
 10341 0f38 01       		.uleb128 0x1
 10342 0f39 50       		.byte	0x50
 10343 0f3a 01       		.uleb128 0x1
 10344 0f3b 31       		.byte	0x31
 10345 0f3c 00       		.byte	0
 10346 0f3d 17       		.uleb128 0x17
 10347 0f3e 72000000 		.4byte	.LVL91
 10348 0f42 6C3A0000 		.4byte	0x3a6c
 10349 0f46 550F0000 		.4byte	0xf55
 10350 0f4a 18       		.uleb128 0x18
 10351 0f4b 01       		.uleb128 0x1
 10352 0f4c 51       		.byte	0x51
 10353 0f4d 01       		.uleb128 0x1
 10354 0f4e 3A       		.byte	0x3a
 10355 0f4f 18       		.uleb128 0x18
 10356 0f50 01       		.uleb128 0x1
 10357 0f51 50       		.byte	0x50
 10358 0f52 01       		.uleb128 0x1
 10359 0f53 31       		.byte	0x31
 10360 0f54 00       		.byte	0
 10361 0f55 17       		.uleb128 0x17
 10362 0f56 84000000 		.4byte	.LVL93
 10363 0f5a 6C3A0000 		.4byte	0x3a6c
 10364 0f5e 760F0000 		.4byte	0xf76
 10365 0f62 18       		.uleb128 0x18
 10366 0f63 01       		.uleb128 0x1
 10367 0f64 51       		.byte	0x51
 10368 0f65 0A       		.uleb128 0xa
 10369 0f66 91       		.byte	0x91
 10370 0f67 00       		.sleb128 0
 10371 0f68 74       		.byte	0x74
 10372 0f69 00       		.sleb128 0
 10373 0f6a 22       		.byte	0x22
 10374 0f6b 08       		.byte	0x8
 10375 0f6c 48       		.byte	0x48
 10376 0f6d 1C       		.byte	0x1c
 10377 0f6e 94       		.byte	0x94
 10378 0f6f 01       		.byte	0x1
 10379 0f70 18       		.uleb128 0x18
 10380 0f71 01       		.uleb128 0x1
 10381 0f72 50       		.byte	0x50
 10382 0f73 01       		.uleb128 0x1
 10383 0f74 32       		.byte	0x32
 10384 0f75 00       		.byte	0
 10385 0f76 17       		.uleb128 0x17
 10386 0f77 94000000 		.4byte	.LVL96
ARM GAS  C:\Users\RECEPC~1\AppData\Local\Temp\ccp152bc.s 			page 245


 10387 0f7b 6C3A0000 		.4byte	0x3a6c
 10388 0f7f 8E0F0000 		.4byte	0xf8e
 10389 0f83 18       		.uleb128 0x18
 10390 0f84 01       		.uleb128 0x1
 10391 0f85 51       		.byte	0x51
 10392 0f86 01       		.uleb128 0x1
 10393 0f87 3A       		.byte	0x3a
 10394 0f88 18       		.uleb128 0x18
 10395 0f89 01       		.uleb128 0x1
 10396 0f8a 50       		.byte	0x50
 10397 0f8b 01       		.uleb128 0x1
 10398 0f8c 32       		.byte	0x32
 10399 0f8d 00       		.byte	0
 10400 0f8e 17       		.uleb128 0x17
 10401 0f8f 9C000000 		.4byte	.LVL97
 10402 0f93 6C3A0000 		.4byte	0x3a6c
 10403 0f97 A60F0000 		.4byte	0xfa6
 10404 0f9b 18       		.uleb128 0x18
 10405 0f9c 01       		.uleb128 0x1
 10406 0f9d 51       		.byte	0x51
 10407 0f9e 01       		.uleb128 0x1
 10408 0f9f 3A       		.byte	0x3a
 10409 0fa0 18       		.uleb128 0x18
 10410 0fa1 01       		.uleb128 0x1
 10411 0fa2 50       		.byte	0x50
 10412 0fa3 01       		.uleb128 0x1
 10413 0fa4 32       		.byte	0x32
 10414 0fa5 00       		.byte	0
 10415 0fa6 17       		.uleb128 0x17
 10416 0fa7 A4000000 		.4byte	.LVL98
 10417 0fab 6C3A0000 		.4byte	0x3a6c
 10418 0faf BE0F0000 		.4byte	0xfbe
 10419 0fb3 18       		.uleb128 0x18
 10420 0fb4 01       		.uleb128 0x1
 10421 0fb5 51       		.byte	0x51
 10422 0fb6 01       		.uleb128 0x1
 10423 0fb7 3A       		.byte	0x3a
 10424 0fb8 18       		.uleb128 0x18
 10425 0fb9 01       		.uleb128 0x1
 10426 0fba 50       		.byte	0x50
 10427 0fbb 01       		.uleb128 0x1
 10428 0fbc 32       		.byte	0x32
 10429 0fbd 00       		.byte	0
 10430 0fbe 17       		.uleb128 0x17
 10431 0fbf AC000000 		.4byte	.LVL99
 10432 0fc3 6C3A0000 		.4byte	0x3a6c
 10433 0fc7 D60F0000 		.4byte	0xfd6
 10434 0fcb 18       		.uleb128 0x18
 10435 0fcc 01       		.uleb128 0x1
 10436 0fcd 51       		.byte	0x51
 10437 0fce 01       		.uleb128 0x1
 10438 0fcf 3A       		.byte	0x3a
 10439 0fd0 18       		.uleb128 0x18
 10440 0fd1 01       		.uleb128 0x1
 10441 0fd2 50       		.byte	0x50
 10442 0fd3 01       		.uleb128 0x1
 10443 0fd4 32       		.byte	0x32
ARM GAS  C:\Users\RECEPC~1\AppData\Local\Temp\ccp152bc.s 			page 246


 10444 0fd5 00       		.byte	0
 10445 0fd6 17       		.uleb128 0x17
 10446 0fd7 B4000000 		.4byte	.LVL100
 10447 0fdb 6C3A0000 		.4byte	0x3a6c
 10448 0fdf EE0F0000 		.4byte	0xfee
 10449 0fe3 18       		.uleb128 0x18
 10450 0fe4 01       		.uleb128 0x1
 10451 0fe5 51       		.byte	0x51
 10452 0fe6 01       		.uleb128 0x1
 10453 0fe7 3A       		.byte	0x3a
 10454 0fe8 18       		.uleb128 0x18
 10455 0fe9 01       		.uleb128 0x1
 10456 0fea 50       		.byte	0x50
 10457 0feb 01       		.uleb128 0x1
 10458 0fec 32       		.byte	0x32
 10459 0fed 00       		.byte	0
 10460 0fee 19       		.uleb128 0x19
 10461 0fef BC000000 		.4byte	.LVL101
 10462 0ff3 6C3A0000 		.4byte	0x3a6c
 10463 0ff7 18       		.uleb128 0x18
 10464 0ff8 01       		.uleb128 0x1
 10465 0ff9 51       		.byte	0x51
 10466 0ffa 01       		.uleb128 0x1
 10467 0ffb 3A       		.byte	0x3a
 10468 0ffc 18       		.uleb128 0x18
 10469 0ffd 01       		.uleb128 0x1
 10470 0ffe 50       		.byte	0x50
 10471 0fff 01       		.uleb128 0x1
 10472 1000 32       		.byte	0x32
 10473 1001 00       		.byte	0
 10474 1002 00       		.byte	0
 10475 1003 0A       		.uleb128 0xa
 10476 1004 AD000000 		.4byte	0xad
 10477 1008 13100000 		.4byte	0x1013
 10478 100c 0B       		.uleb128 0xb
 10479 100d 27010000 		.4byte	0x127
 10480 1011 19       		.byte	0x19
 10481 1012 00       		.byte	0
 10482 1013 14       		.uleb128 0x14
 10483 1014 82000000 		.4byte	.LASF181
 10484 1018 01       		.byte	0x1
 10485 1019 3101     		.2byte	0x131
 10486 101b 00000000 		.4byte	.LFB70
 10487 101f 6C010000 		.4byte	.LFE70-.LFB70
 10488 1023 01       		.uleb128 0x1
 10489 1024 9C       		.byte	0x9c
 10490 1025 43110000 		.4byte	0x1143
 10491 1029 1D       		.uleb128 0x1d
 10492 102a 7800     		.ascii	"x\000"
 10493 102c 01       		.byte	0x1
 10494 102d 3201     		.2byte	0x132
 10495 102f AD000000 		.4byte	0xad
 10496 1033 4C000000 		.4byte	.LLST1
 10497 1037 15       		.uleb128 0x15
 10498 1038 22000000 		.4byte	.LVL103
 10499 103c 263A0000 		.4byte	0x3a26
 10500 1040 15       		.uleb128 0x15
ARM GAS  C:\Users\RECEPC~1\AppData\Local\Temp\ccp152bc.s 			page 247


 10501 1041 26000000 		.4byte	.LVL104
 10502 1045 3B3A0000 		.4byte	0x3a3b
 10503 1049 15       		.uleb128 0x15
 10504 104a 32000000 		.4byte	.LVL105
 10505 104e 263A0000 		.4byte	0x3a26
 10506 1052 15       		.uleb128 0x15
 10507 1053 36000000 		.4byte	.LVL106
 10508 1057 3B3A0000 		.4byte	0x3a3b
 10509 105b 15       		.uleb128 0x15
 10510 105c 5E000000 		.4byte	.LVL113
 10511 1060 263A0000 		.4byte	0x3a26
 10512 1064 15       		.uleb128 0x15
 10513 1065 6A000000 		.4byte	.LVL114
 10514 1069 263A0000 		.4byte	0x3a26
 10515 106d 15       		.uleb128 0x15
 10516 106e 7C000000 		.4byte	.LVL115
 10517 1072 263A0000 		.4byte	0x3a26
 10518 1076 15       		.uleb128 0x15
 10519 1077 88000000 		.4byte	.LVL116
 10520 107b 263A0000 		.4byte	0x3a26
 10521 107f 15       		.uleb128 0x15
 10522 1080 92000000 		.4byte	.LVL117
 10523 1084 263A0000 		.4byte	0x3a26
 10524 1088 15       		.uleb128 0x15
 10525 1089 9C000000 		.4byte	.LVL118
 10526 108d 263A0000 		.4byte	0x3a26
 10527 1091 15       		.uleb128 0x15
 10528 1092 A8000000 		.4byte	.LVL119
 10529 1096 340D0000 		.4byte	0xd34
 10530 109a 15       		.uleb128 0x15
 10531 109b B0000000 		.4byte	.LVL120
 10532 109f 263A0000 		.4byte	0x3a26
 10533 10a3 15       		.uleb128 0x15
 10534 10a4 B4000000 		.4byte	.LVL121
 10535 10a8 3B3A0000 		.4byte	0x3a3b
 10536 10ac 17       		.uleb128 0x17
 10537 10ad BE000000 		.4byte	.LVL122
 10538 10b1 D3390000 		.4byte	0x39d3
 10539 10b5 C4100000 		.4byte	0x10c4
 10540 10b9 18       		.uleb128 0x18
 10541 10ba 01       		.uleb128 0x1
 10542 10bb 51       		.byte	0x51
 10543 10bc 01       		.uleb128 0x1
 10544 10bd 30       		.byte	0x30
 10545 10be 18       		.uleb128 0x18
 10546 10bf 01       		.uleb128 0x1
 10547 10c0 50       		.byte	0x50
 10548 10c1 01       		.uleb128 0x1
 10549 10c2 31       		.byte	0x31
 10550 10c3 00       		.byte	0
 10551 10c4 17       		.uleb128 0x17
 10552 10c5 C6000000 		.4byte	.LVL123
 10553 10c9 D3390000 		.4byte	0x39d3
 10554 10cd DC100000 		.4byte	0x10dc
 10555 10d1 18       		.uleb128 0x18
 10556 10d2 01       		.uleb128 0x1
 10557 10d3 51       		.byte	0x51
ARM GAS  C:\Users\RECEPC~1\AppData\Local\Temp\ccp152bc.s 			page 248


 10558 10d4 01       		.uleb128 0x1
 10559 10d5 30       		.byte	0x30
 10560 10d6 18       		.uleb128 0x18
 10561 10d7 01       		.uleb128 0x1
 10562 10d8 50       		.byte	0x50
 10563 10d9 01       		.uleb128 0x1
 10564 10da 32       		.byte	0x32
 10565 10db 00       		.byte	0
 10566 10dc 15       		.uleb128 0x15
 10567 10dd DE000000 		.4byte	.LVL124
 10568 10e1 263A0000 		.4byte	0x3a26
 10569 10e5 15       		.uleb128 0x15
 10570 10e6 E2000000 		.4byte	.LVL125
 10571 10ea 3B3A0000 		.4byte	0x3a3b
 10572 10ee 17       		.uleb128 0x17
 10573 10ef EC000000 		.4byte	.LVL126
 10574 10f3 D3390000 		.4byte	0x39d3
 10575 10f7 06110000 		.4byte	0x1106
 10576 10fb 18       		.uleb128 0x18
 10577 10fc 01       		.uleb128 0x1
 10578 10fd 51       		.byte	0x51
 10579 10fe 01       		.uleb128 0x1
 10580 10ff 30       		.byte	0x30
 10581 1100 18       		.uleb128 0x18
 10582 1101 01       		.uleb128 0x1
 10583 1102 50       		.byte	0x50
 10584 1103 01       		.uleb128 0x1
 10585 1104 31       		.byte	0x31
 10586 1105 00       		.byte	0
 10587 1106 17       		.uleb128 0x17
 10588 1107 F4000000 		.4byte	.LVL127
 10589 110b D3390000 		.4byte	0x39d3
 10590 110f 1E110000 		.4byte	0x111e
 10591 1113 18       		.uleb128 0x18
 10592 1114 01       		.uleb128 0x1
 10593 1115 51       		.byte	0x51
 10594 1116 01       		.uleb128 0x1
 10595 1117 30       		.byte	0x30
 10596 1118 18       		.uleb128 0x18
 10597 1119 01       		.uleb128 0x1
 10598 111a 50       		.byte	0x50
 10599 111b 01       		.uleb128 0x1
 10600 111c 32       		.byte	0x32
 10601 111d 00       		.byte	0
 10602 111e 15       		.uleb128 0x15
 10603 111f 1A010000 		.4byte	.LVL128
 10604 1123 263A0000 		.4byte	0x3a26
 10605 1127 15       		.uleb128 0x15
 10606 1128 26010000 		.4byte	.LVL129
 10607 112c 863A0000 		.4byte	0x3a86
 10608 1130 15       		.uleb128 0x15
 10609 1131 30010000 		.4byte	.LVL130
 10610 1135 263A0000 		.4byte	0x3a26
 10611 1139 15       		.uleb128 0x15
 10612 113a 3E010000 		.4byte	.LVL131
 10613 113e 863A0000 		.4byte	0x3a86
 10614 1142 00       		.byte	0
ARM GAS  C:\Users\RECEPC~1\AppData\Local\Temp\ccp152bc.s 			page 249


 10615 1143 14       		.uleb128 0x14
 10616 1144 E3020000 		.4byte	.LASF182
 10617 1148 01       		.byte	0x1
 10618 1149 6901     		.2byte	0x169
 10619 114b 00000000 		.4byte	.LFB71
 10620 114f B8130000 		.4byte	.LFE71-.LFB71
 10621 1153 01       		.uleb128 0x1
 10622 1154 9C       		.byte	0x9c
 10623 1155 BB210000 		.4byte	0x21bb
 10624 1159 1D       		.uleb128 0x1d
 10625 115a 7800     		.ascii	"x\000"
 10626 115c 01       		.byte	0x1
 10627 115d 6B01     		.2byte	0x16b
 10628 115f AD000000 		.4byte	0xad
 10629 1163 75000000 		.4byte	.LLST2
 10630 1167 1D       		.uleb128 0x1d
 10631 1168 7900     		.ascii	"y\000"
 10632 116a 01       		.byte	0x1
 10633 116b 6B01     		.2byte	0x16b
 10634 116d AD000000 		.4byte	0xad
 10635 1171 61030000 		.4byte	.LLST3
 10636 1175 15       		.uleb128 0x15
 10637 1176 3E000000 		.4byte	.LVL132
 10638 117a B9090000 		.4byte	0x9b9
 10639 117e 15       		.uleb128 0x15
 10640 117f 48000000 		.4byte	.LVL133
 10641 1183 9B3A0000 		.4byte	0x3a9b
 10642 1187 15       		.uleb128 0x15
 10643 1188 4C000000 		.4byte	.LVL134
 10644 118c A23A0000 		.4byte	0x3aa2
 10645 1190 15       		.uleb128 0x15
 10646 1191 72000000 		.4byte	.LVL135
 10647 1195 A93A0000 		.4byte	0x3aa9
 10648 1199 17       		.uleb128 0x17
 10649 119a A4000000 		.4byte	.LVL136
 10650 119e D3390000 		.4byte	0x39d3
 10651 11a2 B1110000 		.4byte	0x11b1
 10652 11a6 18       		.uleb128 0x18
 10653 11a7 01       		.uleb128 0x1
 10654 11a8 51       		.byte	0x51
 10655 11a9 01       		.uleb128 0x1
 10656 11aa 34       		.byte	0x34
 10657 11ab 18       		.uleb128 0x18
 10658 11ac 01       		.uleb128 0x1
 10659 11ad 50       		.byte	0x50
 10660 11ae 01       		.uleb128 0x1
 10661 11af 31       		.byte	0x31
 10662 11b0 00       		.byte	0
 10663 11b1 17       		.uleb128 0x17
 10664 11b2 AA000000 		.4byte	.LVL137
 10665 11b6 0A3A0000 		.4byte	0x3a0a
 10666 11ba C4110000 		.4byte	0x11c4
 10667 11be 18       		.uleb128 0x18
 10668 11bf 01       		.uleb128 0x1
 10669 11c0 50       		.byte	0x50
 10670 11c1 01       		.uleb128 0x1
 10671 11c2 3A       		.byte	0x3a
ARM GAS  C:\Users\RECEPC~1\AppData\Local\Temp\ccp152bc.s 			page 250


 10672 11c3 00       		.byte	0
 10673 11c4 15       		.uleb128 0x15
 10674 11c5 AE000000 		.4byte	.LVL138
 10675 11c9 B43A0000 		.4byte	0x3ab4
 10676 11cd 15       		.uleb128 0x15
 10677 11ce B6000000 		.4byte	.LVL139
 10678 11d2 A93A0000 		.4byte	0x3aa9
 10679 11d6 17       		.uleb128 0x17
 10680 11d7 0E010000 		.4byte	.LVL140
 10681 11db D3390000 		.4byte	0x39d3
 10682 11df EE110000 		.4byte	0x11ee
 10683 11e3 18       		.uleb128 0x18
 10684 11e4 01       		.uleb128 0x1
 10685 11e5 51       		.byte	0x51
 10686 11e6 01       		.uleb128 0x1
 10687 11e7 35       		.byte	0x35
 10688 11e8 18       		.uleb128 0x18
 10689 11e9 01       		.uleb128 0x1
 10690 11ea 50       		.byte	0x50
 10691 11eb 01       		.uleb128 0x1
 10692 11ec 31       		.byte	0x31
 10693 11ed 00       		.byte	0
 10694 11ee 17       		.uleb128 0x17
 10695 11ef 2C010000 		.4byte	.LVL141
 10696 11f3 D3390000 		.4byte	0x39d3
 10697 11f7 07120000 		.4byte	0x1207
 10698 11fb 18       		.uleb128 0x18
 10699 11fc 01       		.uleb128 0x1
 10700 11fd 51       		.byte	0x51
 10701 11fe 02       		.uleb128 0x2
 10702 11ff 08       		.byte	0x8
 10703 1200 85       		.byte	0x85
 10704 1201 18       		.uleb128 0x18
 10705 1202 01       		.uleb128 0x1
 10706 1203 50       		.byte	0x50
 10707 1204 01       		.uleb128 0x1
 10708 1205 31       		.byte	0x31
 10709 1206 00       		.byte	0
 10710 1207 17       		.uleb128 0x17
 10711 1208 3C010000 		.4byte	.LVL142
 10712 120c D3390000 		.4byte	0x39d3
 10713 1210 20120000 		.4byte	0x1220
 10714 1214 18       		.uleb128 0x18
 10715 1215 01       		.uleb128 0x1
 10716 1216 51       		.byte	0x51
 10717 1217 02       		.uleb128 0x2
 10718 1218 08       		.byte	0x8
 10719 1219 83       		.byte	0x83
 10720 121a 18       		.uleb128 0x18
 10721 121b 01       		.uleb128 0x1
 10722 121c 50       		.byte	0x50
 10723 121d 01       		.uleb128 0x1
 10724 121e 31       		.byte	0x31
 10725 121f 00       		.byte	0
 10726 1220 17       		.uleb128 0x17
 10727 1221 4C010000 		.4byte	.LVL143
 10728 1225 D3390000 		.4byte	0x39d3
ARM GAS  C:\Users\RECEPC~1\AppData\Local\Temp\ccp152bc.s 			page 251


 10729 1229 38120000 		.4byte	0x1238
 10730 122d 18       		.uleb128 0x18
 10731 122e 01       		.uleb128 0x1
 10732 122f 51       		.byte	0x51
 10733 1230 01       		.uleb128 0x1
 10734 1231 31       		.byte	0x31
 10735 1232 18       		.uleb128 0x18
 10736 1233 01       		.uleb128 0x1
 10737 1234 50       		.byte	0x50
 10738 1235 01       		.uleb128 0x1
 10739 1236 31       		.byte	0x31
 10740 1237 00       		.byte	0
 10741 1238 17       		.uleb128 0x17
 10742 1239 5C010000 		.4byte	.LVL144
 10743 123d D3390000 		.4byte	0x39d3
 10744 1241 50120000 		.4byte	0x1250
 10745 1245 18       		.uleb128 0x18
 10746 1246 01       		.uleb128 0x1
 10747 1247 51       		.byte	0x51
 10748 1248 01       		.uleb128 0x1
 10749 1249 31       		.byte	0x31
 10750 124a 18       		.uleb128 0x18
 10751 124b 01       		.uleb128 0x1
 10752 124c 50       		.byte	0x50
 10753 124d 01       		.uleb128 0x1
 10754 124e 31       		.byte	0x31
 10755 124f 00       		.byte	0
 10756 1250 17       		.uleb128 0x17
 10757 1251 62010000 		.4byte	.LVL145
 10758 1255 0A3A0000 		.4byte	0x3a0a
 10759 1259 63120000 		.4byte	0x1263
 10760 125d 18       		.uleb128 0x18
 10761 125e 01       		.uleb128 0x1
 10762 125f 50       		.byte	0x50
 10763 1260 01       		.uleb128 0x1
 10764 1261 3A       		.byte	0x3a
 10765 1262 00       		.byte	0
 10766 1263 15       		.uleb128 0x15
 10767 1264 66010000 		.4byte	.LVL146
 10768 1268 B43A0000 		.4byte	0x3ab4
 10769 126c 15       		.uleb128 0x15
 10770 126d 6E010000 		.4byte	.LVL147
 10771 1271 A93A0000 		.4byte	0x3aa9
 10772 1275 17       		.uleb128 0x17
 10773 1276 E4010000 		.4byte	.LVL148
 10774 127a D3390000 		.4byte	0x39d3
 10775 127e 8D120000 		.4byte	0x128d
 10776 1282 18       		.uleb128 0x18
 10777 1283 01       		.uleb128 0x1
 10778 1284 51       		.byte	0x51
 10779 1285 01       		.uleb128 0x1
 10780 1286 36       		.byte	0x36
 10781 1287 18       		.uleb128 0x18
 10782 1288 01       		.uleb128 0x1
 10783 1289 50       		.byte	0x50
 10784 128a 01       		.uleb128 0x1
 10785 128b 31       		.byte	0x31
ARM GAS  C:\Users\RECEPC~1\AppData\Local\Temp\ccp152bc.s 			page 252


 10786 128c 00       		.byte	0
 10787 128d 17       		.uleb128 0x17
 10788 128e F8010000 		.4byte	.LVL149
 10789 1292 BB3A0000 		.4byte	0x3abb
 10790 1296 C5120000 		.4byte	0x12c5
 10791 129a 18       		.uleb128 0x18
 10792 129b 01       		.uleb128 0x1
 10793 129c 53       		.byte	0x53
 10794 129d 02       		.uleb128 0x2
 10795 129e 74       		.byte	0x74
 10796 129f 00       		.sleb128 0
 10797 12a0 18       		.uleb128 0x18
 10798 12a1 01       		.uleb128 0x1
 10799 12a2 52       		.byte	0x52
 10800 12a3 01       		.uleb128 0x1
 10801 12a4 33       		.byte	0x33
 10802 12a5 18       		.uleb128 0x18
 10803 12a6 01       		.uleb128 0x1
 10804 12a7 51       		.byte	0x51
 10805 12a8 02       		.uleb128 0x2
 10806 12a9 08       		.byte	0x8
 10807 12aa 24       		.byte	0x24
 10808 12ab 18       		.uleb128 0x18
 10809 12ac 01       		.uleb128 0x1
 10810 12ad 50       		.byte	0x50
 10811 12ae 01       		.uleb128 0x1
 10812 12af 31       		.byte	0x31
 10813 12b0 18       		.uleb128 0x18
 10814 12b1 02       		.uleb128 0x2
 10815 12b2 7D       		.byte	0x7d
 10816 12b3 08       		.sleb128 8
 10817 12b4 02       		.uleb128 0x2
 10818 12b5 08       		.byte	0x8
 10819 12b6 4E       		.byte	0x4e
 10820 12b7 18       		.uleb128 0x18
 10821 12b8 02       		.uleb128 0x2
 10822 12b9 7D       		.byte	0x7d
 10823 12ba 04       		.sleb128 4
 10824 12bb 02       		.uleb128 0x2
 10825 12bc 75       		.byte	0x75
 10826 12bd 00       		.sleb128 0
 10827 12be 18       		.uleb128 0x18
 10828 12bf 02       		.uleb128 0x2
 10829 12c0 7D       		.byte	0x7d
 10830 12c1 00       		.sleb128 0
 10831 12c2 01       		.uleb128 0x1
 10832 12c3 31       		.byte	0x31
 10833 12c4 00       		.byte	0
 10834 12c5 17       		.uleb128 0x17
 10835 12c6 1C020000 		.4byte	.LVL150
 10836 12ca D3390000 		.4byte	0x39d3
 10837 12ce DE120000 		.4byte	0x12de
 10838 12d2 18       		.uleb128 0x18
 10839 12d3 01       		.uleb128 0x1
 10840 12d4 51       		.byte	0x51
 10841 12d5 01       		.uleb128 0x1
 10842 12d6 3D       		.byte	0x3d
ARM GAS  C:\Users\RECEPC~1\AppData\Local\Temp\ccp152bc.s 			page 253


 10843 12d7 18       		.uleb128 0x18
 10844 12d8 01       		.uleb128 0x1
 10845 12d9 50       		.byte	0x50
 10846 12da 02       		.uleb128 0x2
 10847 12db 74       		.byte	0x74
 10848 12dc 00       		.sleb128 0
 10849 12dd 00       		.byte	0
 10850 12de 17       		.uleb128 0x17
 10851 12df 30020000 		.4byte	.LVL151
 10852 12e3 BB3A0000 		.4byte	0x3abb
 10853 12e7 17130000 		.4byte	0x1317
 10854 12eb 18       		.uleb128 0x18
 10855 12ec 01       		.uleb128 0x1
 10856 12ed 53       		.byte	0x53
 10857 12ee 01       		.uleb128 0x1
 10858 12ef 32       		.byte	0x32
 10859 12f0 18       		.uleb128 0x18
 10860 12f1 01       		.uleb128 0x1
 10861 12f2 52       		.byte	0x52
 10862 12f3 01       		.uleb128 0x1
 10863 12f4 33       		.byte	0x33
 10864 12f5 18       		.uleb128 0x18
 10865 12f6 01       		.uleb128 0x1
 10866 12f7 51       		.byte	0x51
 10867 12f8 02       		.uleb128 0x2
 10868 12f9 75       		.byte	0x75
 10869 12fa 00       		.sleb128 0
 10870 12fb 18       		.uleb128 0x18
 10871 12fc 01       		.uleb128 0x1
 10872 12fd 50       		.byte	0x50
 10873 12fe 02       		.uleb128 0x2
 10874 12ff 74       		.byte	0x74
 10875 1300 00       		.sleb128 0
 10876 1301 18       		.uleb128 0x18
 10877 1302 02       		.uleb128 0x2
 10878 1303 7D       		.byte	0x7d
 10879 1304 08       		.sleb128 8
 10880 1305 02       		.uleb128 0x2
 10881 1306 08       		.byte	0x8
 10882 1307 4E       		.byte	0x4e
 10883 1308 18       		.uleb128 0x18
 10884 1309 02       		.uleb128 0x2
 10885 130a 7D       		.byte	0x7d
 10886 130b 04       		.sleb128 4
 10887 130c 02       		.uleb128 0x2
 10888 130d 76       		.byte	0x76
 10889 130e 00       		.sleb128 0
 10890 130f 18       		.uleb128 0x18
 10891 1310 02       		.uleb128 0x2
 10892 1311 7D       		.byte	0x7d
 10893 1312 00       		.sleb128 0
 10894 1313 02       		.uleb128 0x2
 10895 1314 74       		.byte	0x74
 10896 1315 00       		.sleb128 0
 10897 1316 00       		.byte	0
 10898 1317 17       		.uleb128 0x17
 10899 1318 96020000 		.4byte	.LVL162
ARM GAS  C:\Users\RECEPC~1\AppData\Local\Temp\ccp152bc.s 			page 254


 10900 131c D3390000 		.4byte	0x39d3
 10901 1320 30130000 		.4byte	0x1330
 10902 1324 18       		.uleb128 0x18
 10903 1325 01       		.uleb128 0x1
 10904 1326 51       		.byte	0x51
 10905 1327 02       		.uleb128 0x2
 10906 1328 08       		.byte	0x8
 10907 1329 86       		.byte	0x86
 10908 132a 18       		.uleb128 0x18
 10909 132b 01       		.uleb128 0x1
 10910 132c 50       		.byte	0x50
 10911 132d 01       		.uleb128 0x1
 10912 132e 31       		.byte	0x31
 10913 132f 00       		.byte	0
 10914 1330 17       		.uleb128 0x17
 10915 1331 A6020000 		.4byte	.LVL163
 10916 1335 D3390000 		.4byte	0x39d3
 10917 1339 48130000 		.4byte	0x1348
 10918 133d 18       		.uleb128 0x18
 10919 133e 01       		.uleb128 0x1
 10920 133f 51       		.byte	0x51
 10921 1340 01       		.uleb128 0x1
 10922 1341 31       		.byte	0x31
 10923 1342 18       		.uleb128 0x18
 10924 1343 01       		.uleb128 0x1
 10925 1344 50       		.byte	0x50
 10926 1345 01       		.uleb128 0x1
 10927 1346 31       		.byte	0x31
 10928 1347 00       		.byte	0
 10929 1348 17       		.uleb128 0x17
 10930 1349 B6020000 		.4byte	.LVL164
 10931 134d D3390000 		.4byte	0x39d3
 10932 1351 60130000 		.4byte	0x1360
 10933 1355 18       		.uleb128 0x18
 10934 1356 01       		.uleb128 0x1
 10935 1357 51       		.byte	0x51
 10936 1358 01       		.uleb128 0x1
 10937 1359 31       		.byte	0x31
 10938 135a 18       		.uleb128 0x18
 10939 135b 01       		.uleb128 0x1
 10940 135c 50       		.byte	0x50
 10941 135d 01       		.uleb128 0x1
 10942 135e 31       		.byte	0x31
 10943 135f 00       		.byte	0
 10944 1360 17       		.uleb128 0x17
 10945 1361 C6020000 		.4byte	.LVL165
 10946 1365 D3390000 		.4byte	0x39d3
 10947 1369 78130000 		.4byte	0x1378
 10948 136d 18       		.uleb128 0x18
 10949 136e 01       		.uleb128 0x1
 10950 136f 51       		.byte	0x51
 10951 1370 01       		.uleb128 0x1
 10952 1371 31       		.byte	0x31
 10953 1372 18       		.uleb128 0x18
 10954 1373 01       		.uleb128 0x1
 10955 1374 50       		.byte	0x50
 10956 1375 01       		.uleb128 0x1
ARM GAS  C:\Users\RECEPC~1\AppData\Local\Temp\ccp152bc.s 			page 255


 10957 1376 31       		.byte	0x31
 10958 1377 00       		.byte	0
 10959 1378 17       		.uleb128 0x17
 10960 1379 CC020000 		.4byte	.LVL166
 10961 137d 0A3A0000 		.4byte	0x3a0a
 10962 1381 8B130000 		.4byte	0x138b
 10963 1385 18       		.uleb128 0x18
 10964 1386 01       		.uleb128 0x1
 10965 1387 50       		.byte	0x50
 10966 1388 01       		.uleb128 0x1
 10967 1389 3A       		.byte	0x3a
 10968 138a 00       		.byte	0
 10969 138b 15       		.uleb128 0x15
 10970 138c D0020000 		.4byte	.LVL167
 10971 1390 B43A0000 		.4byte	0x3ab4
 10972 1394 17       		.uleb128 0x17
 10973 1395 FC020000 		.4byte	.LVL168
 10974 1399 EA3A0000 		.4byte	0x3aea
 10975 139d AC130000 		.4byte	0x13ac
 10976 13a1 18       		.uleb128 0x18
 10977 13a2 01       		.uleb128 0x1
 10978 13a3 52       		.byte	0x52
 10979 13a4 01       		.uleb128 0x1
 10980 13a5 30       		.byte	0x30
 10981 13a6 18       		.uleb128 0x18
 10982 13a7 01       		.uleb128 0x1
 10983 13a8 50       		.byte	0x50
 10984 13a9 01       		.uleb128 0x1
 10985 13aa 31       		.byte	0x31
 10986 13ab 00       		.byte	0
 10987 13ac 17       		.uleb128 0x17
 10988 13ad 14030000 		.4byte	.LVL169
 10989 13b1 D3390000 		.4byte	0x39d3
 10990 13b5 C4130000 		.4byte	0x13c4
 10991 13b9 18       		.uleb128 0x18
 10992 13ba 01       		.uleb128 0x1
 10993 13bb 51       		.byte	0x51
 10994 13bc 01       		.uleb128 0x1
 10995 13bd 31       		.byte	0x31
 10996 13be 18       		.uleb128 0x18
 10997 13bf 01       		.uleb128 0x1
 10998 13c0 50       		.byte	0x50
 10999 13c1 01       		.uleb128 0x1
 11000 13c2 31       		.byte	0x31
 11001 13c3 00       		.byte	0
 11002 13c4 17       		.uleb128 0x17
 11003 13c5 48030000 		.4byte	.LVL176
 11004 13c9 D3390000 		.4byte	0x39d3
 11005 13cd DD130000 		.4byte	0x13dd
 11006 13d1 18       		.uleb128 0x18
 11007 13d2 01       		.uleb128 0x1
 11008 13d3 51       		.byte	0x51
 11009 13d4 02       		.uleb128 0x2
 11010 13d5 08       		.byte	0x8
 11011 13d6 86       		.byte	0x86
 11012 13d7 18       		.uleb128 0x18
 11013 13d8 01       		.uleb128 0x1
ARM GAS  C:\Users\RECEPC~1\AppData\Local\Temp\ccp152bc.s 			page 256


 11014 13d9 50       		.byte	0x50
 11015 13da 01       		.uleb128 0x1
 11016 13db 31       		.byte	0x31
 11017 13dc 00       		.byte	0
 11018 13dd 15       		.uleb128 0x15
 11019 13de 50030000 		.4byte	.LVL177
 11020 13e2 A93A0000 		.4byte	0x3aa9
 11021 13e6 17       		.uleb128 0x17
 11022 13e7 D2030000 		.4byte	.LVL178
 11023 13eb D3390000 		.4byte	0x39d3
 11024 13ef FE130000 		.4byte	0x13fe
 11025 13f3 18       		.uleb128 0x18
 11026 13f4 01       		.uleb128 0x1
 11027 13f5 51       		.byte	0x51
 11028 13f6 01       		.uleb128 0x1
 11029 13f7 3B       		.byte	0x3b
 11030 13f8 18       		.uleb128 0x18
 11031 13f9 01       		.uleb128 0x1
 11032 13fa 50       		.byte	0x50
 11033 13fb 01       		.uleb128 0x1
 11034 13fc 31       		.byte	0x31
 11035 13fd 00       		.byte	0
 11036 13fe 17       		.uleb128 0x17
 11037 13ff EA030000 		.4byte	.LVL179
 11038 1403 D3390000 		.4byte	0x39d3
 11039 1407 16140000 		.4byte	0x1416
 11040 140b 18       		.uleb128 0x18
 11041 140c 01       		.uleb128 0x1
 11042 140d 51       		.byte	0x51
 11043 140e 01       		.uleb128 0x1
 11044 140f 3B       		.byte	0x3b
 11045 1410 18       		.uleb128 0x18
 11046 1411 01       		.uleb128 0x1
 11047 1412 50       		.byte	0x50
 11048 1413 01       		.uleb128 0x1
 11049 1414 31       		.byte	0x31
 11050 1415 00       		.byte	0
 11051 1416 17       		.uleb128 0x17
 11052 1417 02040000 		.4byte	.LVL180
 11053 141b D3390000 		.4byte	0x39d3
 11054 141f 2E140000 		.4byte	0x142e
 11055 1423 18       		.uleb128 0x18
 11056 1424 01       		.uleb128 0x1
 11057 1425 51       		.byte	0x51
 11058 1426 01       		.uleb128 0x1
 11059 1427 3B       		.byte	0x3b
 11060 1428 18       		.uleb128 0x18
 11061 1429 01       		.uleb128 0x1
 11062 142a 50       		.byte	0x50
 11063 142b 01       		.uleb128 0x1
 11064 142c 31       		.byte	0x31
 11065 142d 00       		.byte	0
 11066 142e 17       		.uleb128 0x17
 11067 142f 1A040000 		.4byte	.LVL181
 11068 1433 D3390000 		.4byte	0x39d3
 11069 1437 46140000 		.4byte	0x1446
 11070 143b 18       		.uleb128 0x18
ARM GAS  C:\Users\RECEPC~1\AppData\Local\Temp\ccp152bc.s 			page 257


 11071 143c 01       		.uleb128 0x1
 11072 143d 51       		.byte	0x51
 11073 143e 01       		.uleb128 0x1
 11074 143f 3B       		.byte	0x3b
 11075 1440 18       		.uleb128 0x18
 11076 1441 01       		.uleb128 0x1
 11077 1442 50       		.byte	0x50
 11078 1443 01       		.uleb128 0x1
 11079 1444 31       		.byte	0x31
 11080 1445 00       		.byte	0
 11081 1446 17       		.uleb128 0x17
 11082 1447 2A040000 		.4byte	.LVL182
 11083 144b D3390000 		.4byte	0x39d3
 11084 144f 5E140000 		.4byte	0x145e
 11085 1453 18       		.uleb128 0x18
 11086 1454 01       		.uleb128 0x1
 11087 1455 51       		.byte	0x51
 11088 1456 01       		.uleb128 0x1
 11089 1457 31       		.byte	0x31
 11090 1458 18       		.uleb128 0x18
 11091 1459 01       		.uleb128 0x1
 11092 145a 50       		.byte	0x50
 11093 145b 01       		.uleb128 0x1
 11094 145c 31       		.byte	0x31
 11095 145d 00       		.byte	0
 11096 145e 17       		.uleb128 0x17
 11097 145f 34040000 		.4byte	.LVL183
 11098 1463 D3390000 		.4byte	0x39d3
 11099 1467 76140000 		.4byte	0x1476
 11100 146b 18       		.uleb128 0x18
 11101 146c 01       		.uleb128 0x1
 11102 146d 51       		.byte	0x51
 11103 146e 01       		.uleb128 0x1
 11104 146f 31       		.byte	0x31
 11105 1470 18       		.uleb128 0x18
 11106 1471 01       		.uleb128 0x1
 11107 1472 50       		.byte	0x50
 11108 1473 01       		.uleb128 0x1
 11109 1474 31       		.byte	0x31
 11110 1475 00       		.byte	0
 11111 1476 17       		.uleb128 0x17
 11112 1477 40040000 		.4byte	.LVL184
 11113 147b 0A3A0000 		.4byte	0x3a0a
 11114 147f 89140000 		.4byte	0x1489
 11115 1483 18       		.uleb128 0x18
 11116 1484 01       		.uleb128 0x1
 11117 1485 50       		.byte	0x50
 11118 1486 01       		.uleb128 0x1
 11119 1487 3A       		.byte	0x3a
 11120 1488 00       		.byte	0
 11121 1489 15       		.uleb128 0x15
 11122 148a 44040000 		.4byte	.LVL185
 11123 148e B43A0000 		.4byte	0x3ab4
 11124 1492 17       		.uleb128 0x17
 11125 1493 4E040000 		.4byte	.LVL186
 11126 1497 093B0000 		.4byte	0x3b09
 11127 149b A9140000 		.4byte	0x14a9
ARM GAS  C:\Users\RECEPC~1\AppData\Local\Temp\ccp152bc.s 			page 258


 11128 149f 18       		.uleb128 0x18
 11129 14a0 01       		.uleb128 0x1
 11130 14a1 50       		.byte	0x50
 11131 14a2 05       		.uleb128 0x5
 11132 14a3 03       		.byte	0x3
 11133 14a4 00000000 		.4byte	animacion
 11134 14a8 00       		.byte	0
 11135 14a9 15       		.uleb128 0x15
 11136 14aa 52040000 		.4byte	.LVL187
 11137 14ae 1A3B0000 		.4byte	0x3b1a
 11138 14b2 15       		.uleb128 0x15
 11139 14b3 56040000 		.4byte	.LVL188
 11140 14b7 A93A0000 		.4byte	0x3aa9
 11141 14bb 17       		.uleb128 0x17
 11142 14bc AA040000 		.4byte	.LVL189
 11143 14c0 D3390000 		.4byte	0x39d3
 11144 14c4 D3140000 		.4byte	0x14d3
 11145 14c8 18       		.uleb128 0x18
 11146 14c9 01       		.uleb128 0x1
 11147 14ca 51       		.byte	0x51
 11148 14cb 01       		.uleb128 0x1
 11149 14cc 3A       		.byte	0x3a
 11150 14cd 18       		.uleb128 0x18
 11151 14ce 01       		.uleb128 0x1
 11152 14cf 50       		.byte	0x50
 11153 14d0 01       		.uleb128 0x1
 11154 14d1 31       		.byte	0x31
 11155 14d2 00       		.byte	0
 11156 14d3 17       		.uleb128 0x17
 11157 14d4 C2040000 		.4byte	.LVL190
 11158 14d8 D3390000 		.4byte	0x39d3
 11159 14dc EB140000 		.4byte	0x14eb
 11160 14e0 18       		.uleb128 0x18
 11161 14e1 01       		.uleb128 0x1
 11162 14e2 51       		.byte	0x51
 11163 14e3 01       		.uleb128 0x1
 11164 14e4 31       		.byte	0x31
 11165 14e5 18       		.uleb128 0x18
 11166 14e6 01       		.uleb128 0x1
 11167 14e7 50       		.byte	0x50
 11168 14e8 01       		.uleb128 0x1
 11169 14e9 31       		.byte	0x31
 11170 14ea 00       		.byte	0
 11171 14eb 17       		.uleb128 0x17
 11172 14ec DC040000 		.4byte	.LVL191
 11173 14f0 D3390000 		.4byte	0x39d3
 11174 14f4 03150000 		.4byte	0x1503
 11175 14f8 18       		.uleb128 0x18
 11176 14f9 01       		.uleb128 0x1
 11177 14fa 51       		.byte	0x51
 11178 14fb 01       		.uleb128 0x1
 11179 14fc 37       		.byte	0x37
 11180 14fd 18       		.uleb128 0x18
 11181 14fe 01       		.uleb128 0x1
 11182 14ff 50       		.byte	0x50
 11183 1500 01       		.uleb128 0x1
 11184 1501 31       		.byte	0x31
ARM GAS  C:\Users\RECEPC~1\AppData\Local\Temp\ccp152bc.s 			page 259


 11185 1502 00       		.byte	0
 11186 1503 17       		.uleb128 0x17
 11187 1504 EC040000 		.4byte	.LVL192
 11188 1508 D3390000 		.4byte	0x39d3
 11189 150c 1B150000 		.4byte	0x151b
 11190 1510 18       		.uleb128 0x18
 11191 1511 01       		.uleb128 0x1
 11192 1512 51       		.byte	0x51
 11193 1513 01       		.uleb128 0x1
 11194 1514 31       		.byte	0x31
 11195 1515 18       		.uleb128 0x18
 11196 1516 01       		.uleb128 0x1
 11197 1517 50       		.byte	0x50
 11198 1518 01       		.uleb128 0x1
 11199 1519 31       		.byte	0x31
 11200 151a 00       		.byte	0
 11201 151b 17       		.uleb128 0x17
 11202 151c F2040000 		.4byte	.LVL193
 11203 1520 0A3A0000 		.4byte	0x3a0a
 11204 1524 2E150000 		.4byte	0x152e
 11205 1528 18       		.uleb128 0x18
 11206 1529 01       		.uleb128 0x1
 11207 152a 50       		.byte	0x50
 11208 152b 01       		.uleb128 0x1
 11209 152c 3A       		.byte	0x3a
 11210 152d 00       		.byte	0
 11211 152e 15       		.uleb128 0x15
 11212 152f F6040000 		.4byte	.LVL194
 11213 1533 B43A0000 		.4byte	0x3ab4
 11214 1537 17       		.uleb128 0x17
 11215 1538 12050000 		.4byte	.LVL195
 11216 153c D3390000 		.4byte	0x39d3
 11217 1540 4F150000 		.4byte	0x154f
 11218 1544 18       		.uleb128 0x18
 11219 1545 01       		.uleb128 0x1
 11220 1546 51       		.byte	0x51
 11221 1547 01       		.uleb128 0x1
 11222 1548 31       		.byte	0x31
 11223 1549 18       		.uleb128 0x18
 11224 154a 01       		.uleb128 0x1
 11225 154b 50       		.byte	0x50
 11226 154c 01       		.uleb128 0x1
 11227 154d 31       		.byte	0x31
 11228 154e 00       		.byte	0
 11229 154f 15       		.uleb128 0x15
 11230 1550 40050000 		.4byte	.LVL196
 11231 1554 213B0000 		.4byte	0x3b21
 11232 1558 17       		.uleb128 0x17
 11233 1559 60050000 		.4byte	.LVL197
 11234 155d 363B0000 		.4byte	0x3b36
 11235 1561 6F150000 		.4byte	0x156f
 11236 1565 18       		.uleb128 0x18
 11237 1566 01       		.uleb128 0x1
 11238 1567 52       		.byte	0x52
 11239 1568 05       		.uleb128 0x5
 11240 1569 03       		.byte	0x3
 11241 156a 65000000 		.4byte	bufferDisplay1+101
ARM GAS  C:\Users\RECEPC~1\AppData\Local\Temp\ccp152bc.s 			page 260


 11242 156e 00       		.byte	0
 11243 156f 15       		.uleb128 0x15
 11244 1570 68050000 		.4byte	.LVL198
 11245 1574 9B3A0000 		.4byte	0x3a9b
 11246 1578 15       		.uleb128 0x15
 11247 1579 6C050000 		.4byte	.LVL199
 11248 157d A23A0000 		.4byte	0x3aa2
 11249 1581 15       		.uleb128 0x15
 11250 1582 74050000 		.4byte	.LVL200
 11251 1586 263A0000 		.4byte	0x3a26
 11252 158a 15       		.uleb128 0x15
 11253 158b 7E050000 		.4byte	.LVL201
 11254 158f 5A3B0000 		.4byte	0x3b5a
 11255 1593 17       		.uleb128 0x17
 11256 1594 9C050000 		.4byte	.LVL202
 11257 1598 D3390000 		.4byte	0x39d3
 11258 159c AC150000 		.4byte	0x15ac
 11259 15a0 18       		.uleb128 0x18
 11260 15a1 01       		.uleb128 0x1
 11261 15a2 51       		.byte	0x51
 11262 15a3 01       		.uleb128 0x1
 11263 15a4 38       		.byte	0x38
 11264 15a5 18       		.uleb128 0x18
 11265 15a6 01       		.uleb128 0x1
 11266 15a7 50       		.byte	0x50
 11267 15a8 02       		.uleb128 0x2
 11268 15a9 74       		.byte	0x74
 11269 15aa 00       		.sleb128 0
 11270 15ab 00       		.byte	0
 11271 15ac 17       		.uleb128 0x17
 11272 15ad A8050000 		.4byte	.LVL203
 11273 15b1 E9390000 		.4byte	0x39e9
 11274 15b5 CC150000 		.4byte	0x15cc
 11275 15b9 18       		.uleb128 0x18
 11276 15ba 01       		.uleb128 0x1
 11277 15bb 52       		.byte	0x52
 11278 15bc 01       		.uleb128 0x1
 11279 15bd 42       		.byte	0x42
 11280 15be 18       		.uleb128 0x18
 11281 15bf 01       		.uleb128 0x1
 11282 15c0 51       		.byte	0x51
 11283 15c1 03       		.uleb128 0x3
 11284 15c2 75       		.byte	0x75
 11285 15c3 E500     		.sleb128 101
 11286 15c5 18       		.uleb128 0x18
 11287 15c6 01       		.uleb128 0x1
 11288 15c7 50       		.byte	0x50
 11289 15c8 02       		.uleb128 0x2
 11290 15c9 74       		.byte	0x74
 11291 15ca 00       		.sleb128 0
 11292 15cb 00       		.byte	0
 11293 15cc 17       		.uleb128 0x17
 11294 15cd B6050000 		.4byte	.LVL204
 11295 15d1 D3390000 		.4byte	0x39d3
 11296 15d5 E4150000 		.4byte	0x15e4
 11297 15d9 18       		.uleb128 0x18
 11298 15da 01       		.uleb128 0x1
ARM GAS  C:\Users\RECEPC~1\AppData\Local\Temp\ccp152bc.s 			page 261


 11299 15db 51       		.byte	0x51
 11300 15dc 01       		.uleb128 0x1
 11301 15dd 30       		.byte	0x30
 11302 15de 18       		.uleb128 0x18
 11303 15df 01       		.uleb128 0x1
 11304 15e0 50       		.byte	0x50
 11305 15e1 01       		.uleb128 0x1
 11306 15e2 31       		.byte	0x31
 11307 15e3 00       		.byte	0
 11308 15e4 17       		.uleb128 0x17
 11309 15e5 BC050000 		.4byte	.LVL205
 11310 15e9 0A3A0000 		.4byte	0x3a0a
 11311 15ed F8150000 		.4byte	0x15f8
 11312 15f1 18       		.uleb128 0x18
 11313 15f2 01       		.uleb128 0x1
 11314 15f3 50       		.byte	0x50
 11315 15f4 02       		.uleb128 0x2
 11316 15f5 08       		.byte	0x8
 11317 15f6 C8       		.byte	0xc8
 11318 15f7 00       		.byte	0
 11319 15f8 17       		.uleb128 0x17
 11320 15f9 C4050000 		.4byte	.LVL206
 11321 15fd D3390000 		.4byte	0x39d3
 11322 1601 10160000 		.4byte	0x1610
 11323 1605 18       		.uleb128 0x18
 11324 1606 01       		.uleb128 0x1
 11325 1607 51       		.byte	0x51
 11326 1608 01       		.uleb128 0x1
 11327 1609 31       		.byte	0x31
 11328 160a 18       		.uleb128 0x18
 11329 160b 01       		.uleb128 0x1
 11330 160c 50       		.byte	0x50
 11331 160d 01       		.uleb128 0x1
 11332 160e 31       		.byte	0x31
 11333 160f 00       		.byte	0
 11334 1610 15       		.uleb128 0x15
 11335 1611 D0050000 		.4byte	.LVL207
 11336 1615 A93A0000 		.4byte	0x3aa9
 11337 1619 17       		.uleb128 0x17
 11338 161a 04060000 		.4byte	.LVL208
 11339 161e D3390000 		.4byte	0x39d3
 11340 1622 31160000 		.4byte	0x1631
 11341 1626 18       		.uleb128 0x18
 11342 1627 01       		.uleb128 0x1
 11343 1628 51       		.byte	0x51
 11344 1629 01       		.uleb128 0x1
 11345 162a 31       		.byte	0x31
 11346 162b 18       		.uleb128 0x18
 11347 162c 01       		.uleb128 0x1
 11348 162d 50       		.byte	0x50
 11349 162e 01       		.uleb128 0x1
 11350 162f 31       		.byte	0x31
 11351 1630 00       		.byte	0
 11352 1631 17       		.uleb128 0x17
 11353 1632 10060000 		.4byte	.LVL209
 11354 1636 0A3A0000 		.4byte	0x3a0a
 11355 163a 44160000 		.4byte	0x1644
ARM GAS  C:\Users\RECEPC~1\AppData\Local\Temp\ccp152bc.s 			page 262


 11356 163e 18       		.uleb128 0x18
 11357 163f 01       		.uleb128 0x1
 11358 1640 50       		.byte	0x50
 11359 1641 01       		.uleb128 0x1
 11360 1642 3A       		.byte	0x3a
 11361 1643 00       		.byte	0
 11362 1644 15       		.uleb128 0x15
 11363 1645 14060000 		.4byte	.LVL210
 11364 1649 B43A0000 		.4byte	0x3ab4
 11365 164d 15       		.uleb128 0x15
 11366 164e 20060000 		.4byte	.LVL211
 11367 1652 263A0000 		.4byte	0x3a26
 11368 1656 17       		.uleb128 0x17
 11369 1657 58060000 		.4byte	.LVL212
 11370 165b D3390000 		.4byte	0x39d3
 11371 165f 6E160000 		.4byte	0x166e
 11372 1663 18       		.uleb128 0x18
 11373 1664 01       		.uleb128 0x1
 11374 1665 51       		.byte	0x51
 11375 1666 01       		.uleb128 0x1
 11376 1667 31       		.byte	0x31
 11377 1668 18       		.uleb128 0x18
 11378 1669 01       		.uleb128 0x1
 11379 166a 50       		.byte	0x50
 11380 166b 01       		.uleb128 0x1
 11381 166c 31       		.byte	0x31
 11382 166d 00       		.byte	0
 11383 166e 15       		.uleb128 0x15
 11384 166f 76060000 		.4byte	.LVL213
 11385 1673 6B3B0000 		.4byte	0x3b6b
 11386 1677 15       		.uleb128 0x15
 11387 1678 92060000 		.4byte	.LVL214
 11388 167c 803B0000 		.4byte	0x3b80
 11389 1680 17       		.uleb128 0x17
 11390 1681 A0060000 		.4byte	.LVL215
 11391 1685 D3390000 		.4byte	0x39d3
 11392 1689 98160000 		.4byte	0x1698
 11393 168d 18       		.uleb128 0x18
 11394 168e 01       		.uleb128 0x1
 11395 168f 51       		.byte	0x51
 11396 1690 01       		.uleb128 0x1
 11397 1691 31       		.byte	0x31
 11398 1692 18       		.uleb128 0x18
 11399 1693 01       		.uleb128 0x1
 11400 1694 50       		.byte	0x50
 11401 1695 01       		.uleb128 0x1
 11402 1696 31       		.byte	0x31
 11403 1697 00       		.byte	0
 11404 1698 17       		.uleb128 0x17
 11405 1699 B6060000 		.4byte	.LVL216
 11406 169d D3390000 		.4byte	0x39d3
 11407 16a1 B0160000 		.4byte	0x16b0
 11408 16a5 18       		.uleb128 0x18
 11409 16a6 01       		.uleb128 0x1
 11410 16a7 51       		.byte	0x51
 11411 16a8 01       		.uleb128 0x1
 11412 16a9 3B       		.byte	0x3b
ARM GAS  C:\Users\RECEPC~1\AppData\Local\Temp\ccp152bc.s 			page 263


 11413 16aa 18       		.uleb128 0x18
 11414 16ab 01       		.uleb128 0x1
 11415 16ac 50       		.byte	0x50
 11416 16ad 01       		.uleb128 0x1
 11417 16ae 31       		.byte	0x31
 11418 16af 00       		.byte	0
 11419 16b0 15       		.uleb128 0x15
 11420 16b1 D2060000 		.4byte	.LVL217
 11421 16b5 6B3B0000 		.4byte	0x3b6b
 11422 16b9 15       		.uleb128 0x15
 11423 16ba EE060000 		.4byte	.LVL218
 11424 16be 803B0000 		.4byte	0x3b80
 11425 16c2 17       		.uleb128 0x17
 11426 16c3 FC060000 		.4byte	.LVL219
 11427 16c7 D3390000 		.4byte	0x39d3
 11428 16cb DA160000 		.4byte	0x16da
 11429 16cf 18       		.uleb128 0x18
 11430 16d0 01       		.uleb128 0x1
 11431 16d1 51       		.byte	0x51
 11432 16d2 01       		.uleb128 0x1
 11433 16d3 31       		.byte	0x31
 11434 16d4 18       		.uleb128 0x18
 11435 16d5 01       		.uleb128 0x1
 11436 16d6 50       		.byte	0x50
 11437 16d7 01       		.uleb128 0x1
 11438 16d8 31       		.byte	0x31
 11439 16d9 00       		.byte	0
 11440 16da 17       		.uleb128 0x17
 11441 16db 12070000 		.4byte	.LVL220
 11442 16df D3390000 		.4byte	0x39d3
 11443 16e3 F2160000 		.4byte	0x16f2
 11444 16e7 18       		.uleb128 0x18
 11445 16e8 01       		.uleb128 0x1
 11446 16e9 51       		.byte	0x51
 11447 16ea 01       		.uleb128 0x1
 11448 16eb 3B       		.byte	0x3b
 11449 16ec 18       		.uleb128 0x18
 11450 16ed 01       		.uleb128 0x1
 11451 16ee 50       		.byte	0x50
 11452 16ef 01       		.uleb128 0x1
 11453 16f0 31       		.byte	0x31
 11454 16f1 00       		.byte	0
 11455 16f2 17       		.uleb128 0x17
 11456 16f3 30070000 		.4byte	.LVL221
 11457 16f7 EA3A0000 		.4byte	0x3aea
 11458 16fb 0F170000 		.4byte	0x170f
 11459 16ff 18       		.uleb128 0x18
 11460 1700 01       		.uleb128 0x1
 11461 1701 52       		.byte	0x52
 11462 1702 01       		.uleb128 0x1
 11463 1703 30       		.byte	0x30
 11464 1704 18       		.uleb128 0x18
 11465 1705 01       		.uleb128 0x1
 11466 1706 51       		.byte	0x51
 11467 1707 01       		.uleb128 0x1
 11468 1708 3A       		.byte	0x3a
 11469 1709 18       		.uleb128 0x18
ARM GAS  C:\Users\RECEPC~1\AppData\Local\Temp\ccp152bc.s 			page 264


 11470 170a 01       		.uleb128 0x1
 11471 170b 50       		.byte	0x50
 11472 170c 01       		.uleb128 0x1
 11473 170d 31       		.byte	0x31
 11474 170e 00       		.byte	0
 11475 170f 17       		.uleb128 0x17
 11476 1710 72070000 		.4byte	.LVL228
 11477 1714 D3390000 		.4byte	0x39d3
 11478 1718 27170000 		.4byte	0x1727
 11479 171c 18       		.uleb128 0x18
 11480 171d 01       		.uleb128 0x1
 11481 171e 51       		.byte	0x51
 11482 171f 01       		.uleb128 0x1
 11483 1720 31       		.byte	0x31
 11484 1721 18       		.uleb128 0x18
 11485 1722 01       		.uleb128 0x1
 11486 1723 50       		.byte	0x50
 11487 1724 01       		.uleb128 0x1
 11488 1725 31       		.byte	0x31
 11489 1726 00       		.byte	0
 11490 1727 15       		.uleb128 0x15
 11491 1728 BE070000 		.4byte	.LVL243
 11492 172c B43A0000 		.4byte	0x3ab4
 11493 1730 15       		.uleb128 0x15
 11494 1731 20080000 		.4byte	.LVL250
 11495 1735 803B0000 		.4byte	0x3b80
 11496 1739 17       		.uleb128 0x17
 11497 173a 2E080000 		.4byte	.LVL251
 11498 173e D3390000 		.4byte	0x39d3
 11499 1742 51170000 		.4byte	0x1751
 11500 1746 18       		.uleb128 0x18
 11501 1747 01       		.uleb128 0x1
 11502 1748 51       		.byte	0x51
 11503 1749 01       		.uleb128 0x1
 11504 174a 31       		.byte	0x31
 11505 174b 18       		.uleb128 0x18
 11506 174c 01       		.uleb128 0x1
 11507 174d 50       		.byte	0x50
 11508 174e 01       		.uleb128 0x1
 11509 174f 31       		.byte	0x31
 11510 1750 00       		.byte	0
 11511 1751 17       		.uleb128 0x17
 11512 1752 3C080000 		.4byte	.LVL252
 11513 1756 D3390000 		.4byte	0x39d3
 11514 175a 69170000 		.4byte	0x1769
 11515 175e 18       		.uleb128 0x18
 11516 175f 01       		.uleb128 0x1
 11517 1760 51       		.byte	0x51
 11518 1761 01       		.uleb128 0x1
 11519 1762 37       		.byte	0x37
 11520 1763 18       		.uleb128 0x18
 11521 1764 01       		.uleb128 0x1
 11522 1765 50       		.byte	0x50
 11523 1766 01       		.uleb128 0x1
 11524 1767 31       		.byte	0x31
 11525 1768 00       		.byte	0
 11526 1769 17       		.uleb128 0x17
ARM GAS  C:\Users\RECEPC~1\AppData\Local\Temp\ccp152bc.s 			page 265


 11527 176a 68080000 		.4byte	.LVL259
 11528 176e D3390000 		.4byte	0x39d3
 11529 1772 81170000 		.4byte	0x1781
 11530 1776 18       		.uleb128 0x18
 11531 1777 01       		.uleb128 0x1
 11532 1778 51       		.byte	0x51
 11533 1779 01       		.uleb128 0x1
 11534 177a 37       		.byte	0x37
 11535 177b 18       		.uleb128 0x18
 11536 177c 01       		.uleb128 0x1
 11537 177d 50       		.byte	0x50
 11538 177e 01       		.uleb128 0x1
 11539 177f 31       		.byte	0x31
 11540 1780 00       		.byte	0
 11541 1781 17       		.uleb128 0x17
 11542 1782 C8080000 		.4byte	.LVL270
 11543 1786 D3390000 		.4byte	0x39d3
 11544 178a 9A170000 		.4byte	0x179a
 11545 178e 18       		.uleb128 0x18
 11546 178f 01       		.uleb128 0x1
 11547 1790 51       		.byte	0x51
 11548 1791 02       		.uleb128 0x2
 11549 1792 08       		.byte	0x8
 11550 1793 25       		.byte	0x25
 11551 1794 18       		.uleb128 0x18
 11552 1795 01       		.uleb128 0x1
 11553 1796 50       		.byte	0x50
 11554 1797 01       		.uleb128 0x1
 11555 1798 31       		.byte	0x31
 11556 1799 00       		.byte	0
 11557 179a 15       		.uleb128 0x15
 11558 179b CC080000 		.4byte	.LVL271
 11559 179f B43A0000 		.4byte	0x3ab4
 11560 17a3 15       		.uleb128 0x15
 11561 17a4 D4080000 		.4byte	.LVL272
 11562 17a8 A93A0000 		.4byte	0x3aa9
 11563 17ac 17       		.uleb128 0x17
 11564 17ad 2E090000 		.4byte	.LVL273
 11565 17b1 D3390000 		.4byte	0x39d3
 11566 17b5 C4170000 		.4byte	0x17c4
 11567 17b9 18       		.uleb128 0x18
 11568 17ba 01       		.uleb128 0x1
 11569 17bb 51       		.byte	0x51
 11570 17bc 01       		.uleb128 0x1
 11571 17bd 42       		.byte	0x42
 11572 17be 18       		.uleb128 0x18
 11573 17bf 01       		.uleb128 0x1
 11574 17c0 50       		.byte	0x50
 11575 17c1 01       		.uleb128 0x1
 11576 17c2 31       		.byte	0x31
 11577 17c3 00       		.byte	0
 11578 17c4 17       		.uleb128 0x17
 11579 17c5 48090000 		.4byte	.LVL274
 11580 17c9 D3390000 		.4byte	0x39d3
 11581 17cd DC170000 		.4byte	0x17dc
 11582 17d1 18       		.uleb128 0x18
 11583 17d2 01       		.uleb128 0x1
ARM GAS  C:\Users\RECEPC~1\AppData\Local\Temp\ccp152bc.s 			page 266


 11584 17d3 51       		.byte	0x51
 11585 17d4 01       		.uleb128 0x1
 11586 17d5 37       		.byte	0x37
 11587 17d6 18       		.uleb128 0x18
 11588 17d7 01       		.uleb128 0x1
 11589 17d8 50       		.byte	0x50
 11590 17d9 01       		.uleb128 0x1
 11591 17da 31       		.byte	0x31
 11592 17db 00       		.byte	0
 11593 17dc 17       		.uleb128 0x17
 11594 17dd 58090000 		.4byte	.LVL275
 11595 17e1 D3390000 		.4byte	0x39d3
 11596 17e5 F4170000 		.4byte	0x17f4
 11597 17e9 18       		.uleb128 0x18
 11598 17ea 01       		.uleb128 0x1
 11599 17eb 51       		.byte	0x51
 11600 17ec 01       		.uleb128 0x1
 11601 17ed 31       		.byte	0x31
 11602 17ee 18       		.uleb128 0x18
 11603 17ef 01       		.uleb128 0x1
 11604 17f0 50       		.byte	0x50
 11605 17f1 01       		.uleb128 0x1
 11606 17f2 31       		.byte	0x31
 11607 17f3 00       		.byte	0
 11608 17f4 17       		.uleb128 0x17
 11609 17f5 62090000 		.4byte	.LVL276
 11610 17f9 D3390000 		.4byte	0x39d3
 11611 17fd 0C180000 		.4byte	0x180c
 11612 1801 18       		.uleb128 0x18
 11613 1802 01       		.uleb128 0x1
 11614 1803 51       		.byte	0x51
 11615 1804 01       		.uleb128 0x1
 11616 1805 31       		.byte	0x31
 11617 1806 18       		.uleb128 0x18
 11618 1807 01       		.uleb128 0x1
 11619 1808 50       		.byte	0x50
 11620 1809 01       		.uleb128 0x1
 11621 180a 31       		.byte	0x31
 11622 180b 00       		.byte	0
 11623 180c 17       		.uleb128 0x17
 11624 180d 6E090000 		.4byte	.LVL277
 11625 1811 0A3A0000 		.4byte	0x3a0a
 11626 1815 1F180000 		.4byte	0x181f
 11627 1819 18       		.uleb128 0x18
 11628 181a 01       		.uleb128 0x1
 11629 181b 50       		.byte	0x50
 11630 181c 01       		.uleb128 0x1
 11631 181d 3A       		.byte	0x3a
 11632 181e 00       		.byte	0
 11633 181f 15       		.uleb128 0x15
 11634 1820 72090000 		.4byte	.LVL278
 11635 1824 B43A0000 		.4byte	0x3ab4
 11636 1828 17       		.uleb128 0x17
 11637 1829 7C090000 		.4byte	.LVL279
 11638 182d 093B0000 		.4byte	0x3b09
 11639 1831 3F180000 		.4byte	0x183f
 11640 1835 18       		.uleb128 0x18
ARM GAS  C:\Users\RECEPC~1\AppData\Local\Temp\ccp152bc.s 			page 267


 11641 1836 01       		.uleb128 0x1
 11642 1837 50       		.byte	0x50
 11643 1838 05       		.uleb128 0x5
 11644 1839 03       		.byte	0x3
 11645 183a 00000000 		.4byte	animacion
 11646 183e 00       		.byte	0
 11647 183f 15       		.uleb128 0x15
 11648 1840 80090000 		.4byte	.LVL280
 11649 1844 1A3B0000 		.4byte	0x3b1a
 11650 1848 17       		.uleb128 0x17
 11651 1849 86090000 		.4byte	.LVL281
 11652 184d 963B0000 		.4byte	0x3b96
 11653 1851 5B180000 		.4byte	0x185b
 11654 1855 18       		.uleb128 0x18
 11655 1856 01       		.uleb128 0x1
 11656 1857 50       		.byte	0x50
 11657 1858 01       		.uleb128 0x1
 11658 1859 31       		.byte	0x31
 11659 185a 00       		.byte	0
 11660 185b 17       		.uleb128 0x17
 11661 185c 90090000 		.4byte	.LVL282
 11662 1860 AB3B0000 		.4byte	0x3bab
 11663 1864 6F180000 		.4byte	0x186f
 11664 1868 18       		.uleb128 0x18
 11665 1869 01       		.uleb128 0x1
 11666 186a 51       		.byte	0x51
 11667 186b 02       		.uleb128 0x2
 11668 186c 08       		.byte	0x8
 11669 186d 33       		.byte	0x33
 11670 186e 00       		.byte	0
 11671 186f 17       		.uleb128 0x17
 11672 1870 9A090000 		.4byte	.LVL284
 11673 1874 C53B0000 		.4byte	0x3bc5
 11674 1878 82180000 		.4byte	0x1882
 11675 187c 18       		.uleb128 0x18
 11676 187d 01       		.uleb128 0x1
 11677 187e 50       		.byte	0x50
 11678 187f 01       		.uleb128 0x1
 11679 1880 31       		.byte	0x31
 11680 1881 00       		.byte	0
 11681 1882 15       		.uleb128 0x15
 11682 1883 B8090000 		.4byte	.LVL291
 11683 1887 DA3B0000 		.4byte	0x3bda
 11684 188b 17       		.uleb128 0x17
 11685 188c 420A0000 		.4byte	.LVL302
 11686 1890 D3390000 		.4byte	0x39d3
 11687 1894 A3180000 		.4byte	0x18a3
 11688 1898 18       		.uleb128 0x18
 11689 1899 01       		.uleb128 0x1
 11690 189a 51       		.byte	0x51
 11691 189b 01       		.uleb128 0x1
 11692 189c 43       		.byte	0x43
 11693 189d 18       		.uleb128 0x18
 11694 189e 01       		.uleb128 0x1
 11695 189f 50       		.byte	0x50
 11696 18a0 01       		.uleb128 0x1
 11697 18a1 31       		.byte	0x31
ARM GAS  C:\Users\RECEPC~1\AppData\Local\Temp\ccp152bc.s 			page 268


 11698 18a2 00       		.byte	0
 11699 18a3 15       		.uleb128 0x15
 11700 18a4 460A0000 		.4byte	.LVL303
 11701 18a8 B43A0000 		.4byte	0x3ab4
 11702 18ac 17       		.uleb128 0x17
 11703 18ad 4E0A0000 		.4byte	.LVL304
 11704 18b1 0A3A0000 		.4byte	0x3a0a
 11705 18b5 C1180000 		.4byte	0x18c1
 11706 18b9 18       		.uleb128 0x18
 11707 18ba 01       		.uleb128 0x1
 11708 18bb 50       		.byte	0x50
 11709 18bc 03       		.uleb128 0x3
 11710 18bd 0A       		.byte	0xa
 11711 18be BC02     		.2byte	0x2bc
 11712 18c0 00       		.byte	0
 11713 18c1 17       		.uleb128 0x17
 11714 18c2 640A0000 		.4byte	.LVL305
 11715 18c6 D3390000 		.4byte	0x39d3
 11716 18ca D9180000 		.4byte	0x18d9
 11717 18ce 18       		.uleb128 0x18
 11718 18cf 01       		.uleb128 0x1
 11719 18d0 51       		.byte	0x51
 11720 18d1 01       		.uleb128 0x1
 11721 18d2 3E       		.byte	0x3e
 11722 18d3 18       		.uleb128 0x18
 11723 18d4 01       		.uleb128 0x1
 11724 18d5 50       		.byte	0x50
 11725 18d6 01       		.uleb128 0x1
 11726 18d7 31       		.byte	0x31
 11727 18d8 00       		.byte	0
 11728 18d9 17       		.uleb128 0x17
 11729 18da 800A0000 		.4byte	.LVL306
 11730 18de D3390000 		.4byte	0x39d3
 11731 18e2 F1180000 		.4byte	0x18f1
 11732 18e6 18       		.uleb128 0x18
 11733 18e7 01       		.uleb128 0x1
 11734 18e8 51       		.byte	0x51
 11735 18e9 01       		.uleb128 0x1
 11736 18ea 31       		.byte	0x31
 11737 18eb 18       		.uleb128 0x18
 11738 18ec 01       		.uleb128 0x1
 11739 18ed 50       		.byte	0x50
 11740 18ee 01       		.uleb128 0x1
 11741 18ef 31       		.byte	0x31
 11742 18f0 00       		.byte	0
 11743 18f1 15       		.uleb128 0x15
 11744 18f2 880A0000 		.4byte	.LVL307
 11745 18f6 A93A0000 		.4byte	0x3aa9
 11746 18fa 17       		.uleb128 0x17
 11747 18fb 140B0000 		.4byte	.LVL308
 11748 18ff D3390000 		.4byte	0x39d3
 11749 1903 13190000 		.4byte	0x1913
 11750 1907 18       		.uleb128 0x18
 11751 1908 01       		.uleb128 0x1
 11752 1909 51       		.byte	0x51
 11753 190a 02       		.uleb128 0x2
 11754 190b 08       		.byte	0x8
ARM GAS  C:\Users\RECEPC~1\AppData\Local\Temp\ccp152bc.s 			page 269


 11755 190c 2A       		.byte	0x2a
 11756 190d 18       		.uleb128 0x18
 11757 190e 01       		.uleb128 0x1
 11758 190f 50       		.byte	0x50
 11759 1910 01       		.uleb128 0x1
 11760 1911 31       		.byte	0x31
 11761 1912 00       		.byte	0
 11762 1913 17       		.uleb128 0x17
 11763 1914 1E0B0000 		.4byte	.LVL309
 11764 1918 D3390000 		.4byte	0x39d3
 11765 191c 2C190000 		.4byte	0x192c
 11766 1920 18       		.uleb128 0x18
 11767 1921 01       		.uleb128 0x1
 11768 1922 51       		.byte	0x51
 11769 1923 02       		.uleb128 0x2
 11770 1924 08       		.byte	0x8
 11771 1925 23       		.byte	0x23
 11772 1926 18       		.uleb128 0x18
 11773 1927 01       		.uleb128 0x1
 11774 1928 50       		.byte	0x50
 11775 1929 01       		.uleb128 0x1
 11776 192a 31       		.byte	0x31
 11777 192b 00       		.byte	0
 11778 192c 17       		.uleb128 0x17
 11779 192d 480B0000 		.4byte	.LVL310
 11780 1931 D3390000 		.4byte	0x39d3
 11781 1935 45190000 		.4byte	0x1945
 11782 1939 18       		.uleb128 0x18
 11783 193a 01       		.uleb128 0x1
 11784 193b 51       		.byte	0x51
 11785 193c 02       		.uleb128 0x2
 11786 193d 08       		.byte	0x8
 11787 193e 25       		.byte	0x25
 11788 193f 18       		.uleb128 0x18
 11789 1940 01       		.uleb128 0x1
 11790 1941 50       		.byte	0x50
 11791 1942 01       		.uleb128 0x1
 11792 1943 31       		.byte	0x31
 11793 1944 00       		.byte	0
 11794 1945 17       		.uleb128 0x17
 11795 1946 640B0000 		.4byte	.LVL311
 11796 194a D3390000 		.4byte	0x39d3
 11797 194e 5D190000 		.4byte	0x195d
 11798 1952 18       		.uleb128 0x18
 11799 1953 01       		.uleb128 0x1
 11800 1954 51       		.byte	0x51
 11801 1955 01       		.uleb128 0x1
 11802 1956 31       		.byte	0x31
 11803 1957 18       		.uleb128 0x18
 11804 1958 01       		.uleb128 0x1
 11805 1959 50       		.byte	0x50
 11806 195a 01       		.uleb128 0x1
 11807 195b 31       		.byte	0x31
 11808 195c 00       		.byte	0
 11809 195d 17       		.uleb128 0x17
 11810 195e 740B0000 		.4byte	.LVL312
 11811 1962 D3390000 		.4byte	0x39d3
ARM GAS  C:\Users\RECEPC~1\AppData\Local\Temp\ccp152bc.s 			page 270


 11812 1966 75190000 		.4byte	0x1975
 11813 196a 18       		.uleb128 0x18
 11814 196b 01       		.uleb128 0x1
 11815 196c 51       		.byte	0x51
 11816 196d 01       		.uleb128 0x1
 11817 196e 31       		.byte	0x31
 11818 196f 18       		.uleb128 0x18
 11819 1970 01       		.uleb128 0x1
 11820 1971 50       		.byte	0x50
 11821 1972 01       		.uleb128 0x1
 11822 1973 31       		.byte	0x31
 11823 1974 00       		.byte	0
 11824 1975 17       		.uleb128 0x17
 11825 1976 840B0000 		.4byte	.LVL313
 11826 197a D3390000 		.4byte	0x39d3
 11827 197e 8D190000 		.4byte	0x198d
 11828 1982 18       		.uleb128 0x18
 11829 1983 01       		.uleb128 0x1
 11830 1984 51       		.byte	0x51
 11831 1985 01       		.uleb128 0x1
 11832 1986 31       		.byte	0x31
 11833 1987 18       		.uleb128 0x18
 11834 1988 01       		.uleb128 0x1
 11835 1989 50       		.byte	0x50
 11836 198a 01       		.uleb128 0x1
 11837 198b 31       		.byte	0x31
 11838 198c 00       		.byte	0
 11839 198d 17       		.uleb128 0x17
 11840 198e 940B0000 		.4byte	.LVL314
 11841 1992 D3390000 		.4byte	0x39d3
 11842 1996 A5190000 		.4byte	0x19a5
 11843 199a 18       		.uleb128 0x18
 11844 199b 01       		.uleb128 0x1
 11845 199c 51       		.byte	0x51
 11846 199d 01       		.uleb128 0x1
 11847 199e 31       		.byte	0x31
 11848 199f 18       		.uleb128 0x18
 11849 19a0 01       		.uleb128 0x1
 11850 19a1 50       		.byte	0x50
 11851 19a2 01       		.uleb128 0x1
 11852 19a3 31       		.byte	0x31
 11853 19a4 00       		.byte	0
 11854 19a5 17       		.uleb128 0x17
 11855 19a6 9A0B0000 		.4byte	.LVL315
 11856 19aa 0A3A0000 		.4byte	0x3a0a
 11857 19ae B8190000 		.4byte	0x19b8
 11858 19b2 18       		.uleb128 0x18
 11859 19b3 01       		.uleb128 0x1
 11860 19b4 50       		.byte	0x50
 11861 19b5 01       		.uleb128 0x1
 11862 19b6 3A       		.byte	0x3a
 11863 19b7 00       		.byte	0
 11864 19b8 15       		.uleb128 0x15
 11865 19b9 9E0B0000 		.4byte	.LVL316
 11866 19bd B43A0000 		.4byte	0x3ab4
 11867 19c1 15       		.uleb128 0x15
 11868 19c2 A40B0000 		.4byte	.LVL317
ARM GAS  C:\Users\RECEPC~1\AppData\Local\Temp\ccp152bc.s 			page 271


 11869 19c6 A93A0000 		.4byte	0x3aa9
 11870 19ca 17       		.uleb128 0x17
 11871 19cb 000C0000 		.4byte	.LVL318
 11872 19cf D3390000 		.4byte	0x39d3
 11873 19d3 E3190000 		.4byte	0x19e3
 11874 19d7 18       		.uleb128 0x18
 11875 19d8 01       		.uleb128 0x1
 11876 19d9 51       		.byte	0x51
 11877 19da 02       		.uleb128 0x2
 11878 19db 08       		.byte	0x8
 11879 19dc 24       		.byte	0x24
 11880 19dd 18       		.uleb128 0x18
 11881 19de 01       		.uleb128 0x1
 11882 19df 50       		.byte	0x50
 11883 19e0 01       		.uleb128 0x1
 11884 19e1 31       		.byte	0x31
 11885 19e2 00       		.byte	0
 11886 19e3 17       		.uleb128 0x17
 11887 19e4 1E0C0000 		.4byte	.LVL319
 11888 19e8 D3390000 		.4byte	0x39d3
 11889 19ec FC190000 		.4byte	0x19fc
 11890 19f0 18       		.uleb128 0x18
 11891 19f1 01       		.uleb128 0x1
 11892 19f2 51       		.byte	0x51
 11893 19f3 02       		.uleb128 0x2
 11894 19f4 08       		.byte	0x8
 11895 19f5 24       		.byte	0x24
 11896 19f6 18       		.uleb128 0x18
 11897 19f7 01       		.uleb128 0x1
 11898 19f8 50       		.byte	0x50
 11899 19f9 01       		.uleb128 0x1
 11900 19fa 31       		.byte	0x31
 11901 19fb 00       		.byte	0
 11902 19fc 17       		.uleb128 0x17
 11903 19fd 280C0000 		.4byte	.LVL320
 11904 1a01 D3390000 		.4byte	0x39d3
 11905 1a05 141A0000 		.4byte	0x1a14
 11906 1a09 18       		.uleb128 0x18
 11907 1a0a 01       		.uleb128 0x1
 11908 1a0b 51       		.byte	0x51
 11909 1a0c 01       		.uleb128 0x1
 11910 1a0d 31       		.byte	0x31
 11911 1a0e 18       		.uleb128 0x18
 11912 1a0f 01       		.uleb128 0x1
 11913 1a10 50       		.byte	0x50
 11914 1a11 01       		.uleb128 0x1
 11915 1a12 31       		.byte	0x31
 11916 1a13 00       		.byte	0
 11917 1a14 17       		.uleb128 0x17
 11918 1a15 380C0000 		.4byte	.LVL321
 11919 1a19 D3390000 		.4byte	0x39d3
 11920 1a1d 2C1A0000 		.4byte	0x1a2c
 11921 1a21 18       		.uleb128 0x18
 11922 1a22 01       		.uleb128 0x1
 11923 1a23 51       		.byte	0x51
 11924 1a24 01       		.uleb128 0x1
 11925 1a25 31       		.byte	0x31
ARM GAS  C:\Users\RECEPC~1\AppData\Local\Temp\ccp152bc.s 			page 272


 11926 1a26 18       		.uleb128 0x18
 11927 1a27 01       		.uleb128 0x1
 11928 1a28 50       		.byte	0x50
 11929 1a29 01       		.uleb128 0x1
 11930 1a2a 31       		.byte	0x31
 11931 1a2b 00       		.byte	0
 11932 1a2c 17       		.uleb128 0x17
 11933 1a2d 440C0000 		.4byte	.LVL322
 11934 1a31 0A3A0000 		.4byte	0x3a0a
 11935 1a35 3F1A0000 		.4byte	0x1a3f
 11936 1a39 18       		.uleb128 0x18
 11937 1a3a 01       		.uleb128 0x1
 11938 1a3b 50       		.byte	0x50
 11939 1a3c 01       		.uleb128 0x1
 11940 1a3d 3A       		.byte	0x3a
 11941 1a3e 00       		.byte	0
 11942 1a3f 15       		.uleb128 0x15
 11943 1a40 480C0000 		.4byte	.LVL323
 11944 1a44 B43A0000 		.4byte	0x3ab4
 11945 1a48 17       		.uleb128 0x17
 11946 1a49 580C0000 		.4byte	.LVL324
 11947 1a4d EA3A0000 		.4byte	0x3aea
 11948 1a51 5B1A0000 		.4byte	0x1a5b
 11949 1a55 18       		.uleb128 0x18
 11950 1a56 01       		.uleb128 0x1
 11951 1a57 50       		.byte	0x50
 11952 1a58 01       		.uleb128 0x1
 11953 1a59 31       		.byte	0x31
 11954 1a5a 00       		.byte	0
 11955 1a5b 17       		.uleb128 0x17
 11956 1a5c 960C0000 		.4byte	.LVL331
 11957 1a60 D3390000 		.4byte	0x39d3
 11958 1a64 731A0000 		.4byte	0x1a73
 11959 1a68 18       		.uleb128 0x18
 11960 1a69 01       		.uleb128 0x1
 11961 1a6a 51       		.byte	0x51
 11962 1a6b 01       		.uleb128 0x1
 11963 1a6c 31       		.byte	0x31
 11964 1a6d 18       		.uleb128 0x18
 11965 1a6e 01       		.uleb128 0x1
 11966 1a6f 50       		.byte	0x50
 11967 1a70 01       		.uleb128 0x1
 11968 1a71 31       		.byte	0x31
 11969 1a72 00       		.byte	0
 11970 1a73 17       		.uleb128 0x17
 11971 1a74 BC0C0000 		.4byte	.LVL338
 11972 1a78 D3390000 		.4byte	0x39d3
 11973 1a7c 8B1A0000 		.4byte	0x1a8b
 11974 1a80 18       		.uleb128 0x18
 11975 1a81 01       		.uleb128 0x1
 11976 1a82 51       		.byte	0x51
 11977 1a83 01       		.uleb128 0x1
 11978 1a84 31       		.byte	0x31
 11979 1a85 18       		.uleb128 0x18
 11980 1a86 01       		.uleb128 0x1
 11981 1a87 50       		.byte	0x50
 11982 1a88 01       		.uleb128 0x1
ARM GAS  C:\Users\RECEPC~1\AppData\Local\Temp\ccp152bc.s 			page 273


 11983 1a89 31       		.byte	0x31
 11984 1a8a 00       		.byte	0
 11985 1a8b 17       		.uleb128 0x17
 11986 1a8c E60C0000 		.4byte	.LVL345
 11987 1a90 D3390000 		.4byte	0x39d3
 11988 1a94 A31A0000 		.4byte	0x1aa3
 11989 1a98 18       		.uleb128 0x18
 11990 1a99 01       		.uleb128 0x1
 11991 1a9a 51       		.byte	0x51
 11992 1a9b 01       		.uleb128 0x1
 11993 1a9c 31       		.byte	0x31
 11994 1a9d 18       		.uleb128 0x18
 11995 1a9e 01       		.uleb128 0x1
 11996 1a9f 50       		.byte	0x50
 11997 1aa0 01       		.uleb128 0x1
 11998 1aa1 31       		.byte	0x31
 11999 1aa2 00       		.byte	0
 12000 1aa3 17       		.uleb128 0x17
 12001 1aa4 100D0000 		.4byte	.LVL352
 12002 1aa8 D3390000 		.4byte	0x39d3
 12003 1aac BB1A0000 		.4byte	0x1abb
 12004 1ab0 18       		.uleb128 0x18
 12005 1ab1 01       		.uleb128 0x1
 12006 1ab2 51       		.byte	0x51
 12007 1ab3 01       		.uleb128 0x1
 12008 1ab4 31       		.byte	0x31
 12009 1ab5 18       		.uleb128 0x18
 12010 1ab6 01       		.uleb128 0x1
 12011 1ab7 50       		.byte	0x50
 12012 1ab8 01       		.uleb128 0x1
 12013 1ab9 31       		.byte	0x31
 12014 1aba 00       		.byte	0
 12015 1abb 17       		.uleb128 0x17
 12016 1abc 360D0000 		.4byte	.LVL359
 12017 1ac0 D3390000 		.4byte	0x39d3
 12018 1ac4 D31A0000 		.4byte	0x1ad3
 12019 1ac8 18       		.uleb128 0x18
 12020 1ac9 01       		.uleb128 0x1
 12021 1aca 51       		.byte	0x51
 12022 1acb 01       		.uleb128 0x1
 12023 1acc 31       		.byte	0x31
 12024 1acd 18       		.uleb128 0x18
 12025 1ace 01       		.uleb128 0x1
 12026 1acf 50       		.byte	0x50
 12027 1ad0 01       		.uleb128 0x1
 12028 1ad1 31       		.byte	0x31
 12029 1ad2 00       		.byte	0
 12030 1ad3 15       		.uleb128 0x15
 12031 1ad4 3A0D0000 		.4byte	.LVL360
 12032 1ad8 B43A0000 		.4byte	0x3ab4
 12033 1adc 17       		.uleb128 0x17
 12034 1add 7C0D0000 		.4byte	.LVL366
 12035 1ae1 F43B0000 		.4byte	0x3bf4
 12036 1ae5 F31A0000 		.4byte	0x1af3
 12037 1ae9 18       		.uleb128 0x18
 12038 1aea 01       		.uleb128 0x1
 12039 1aeb 50       		.byte	0x50
ARM GAS  C:\Users\RECEPC~1\AppData\Local\Temp\ccp152bc.s 			page 274


 12040 1aec 05       		.uleb128 0x5
 12041 1aed 03       		.byte	0x3
 12042 1aee 00000000 		.4byte	idStation
 12043 1af2 00       		.byte	0
 12044 1af3 17       		.uleb128 0x17
 12045 1af4 940D0000 		.4byte	.LVL367
 12046 1af8 A4390000 		.4byte	0x39a4
 12047 1afc 061B0000 		.4byte	0x1b06
 12048 1b00 18       		.uleb128 0x18
 12049 1b01 01       		.uleb128 0x1
 12050 1b02 51       		.byte	0x51
 12051 1b03 01       		.uleb128 0x1
 12052 1b04 3A       		.byte	0x3a
 12053 1b05 00       		.byte	0
 12054 1b06 17       		.uleb128 0x17
 12055 1b07 9C0D0000 		.4byte	.LVL368
 12056 1b0b A4390000 		.4byte	0x39a4
 12057 1b0f 191B0000 		.4byte	0x1b19
 12058 1b13 18       		.uleb128 0x18
 12059 1b14 01       		.uleb128 0x1
 12060 1b15 51       		.byte	0x51
 12061 1b16 01       		.uleb128 0x1
 12062 1b17 3B       		.byte	0x3b
 12063 1b18 00       		.byte	0
 12064 1b19 17       		.uleb128 0x17
 12065 1b1a AA0D0000 		.4byte	.LVL369
 12066 1b1e D3390000 		.4byte	0x39d3
 12067 1b22 321B0000 		.4byte	0x1b32
 12068 1b26 18       		.uleb128 0x18
 12069 1b27 01       		.uleb128 0x1
 12070 1b28 51       		.byte	0x51
 12071 1b29 02       		.uleb128 0x2
 12072 1b2a 08       		.byte	0x8
 12073 1b2b 5A       		.byte	0x5a
 12074 1b2c 18       		.uleb128 0x18
 12075 1b2d 01       		.uleb128 0x1
 12076 1b2e 50       		.byte	0x50
 12077 1b2f 01       		.uleb128 0x1
 12078 1b30 31       		.byte	0x31
 12079 1b31 00       		.byte	0
 12080 1b32 17       		.uleb128 0x17
 12081 1b33 0A0E0000 		.4byte	.LVL376
 12082 1b37 D3390000 		.4byte	0x39d3
 12083 1b3b 4B1B0000 		.4byte	0x1b4b
 12084 1b3f 18       		.uleb128 0x18
 12085 1b40 01       		.uleb128 0x1
 12086 1b41 51       		.byte	0x51
 12087 1b42 02       		.uleb128 0x2
 12088 1b43 08       		.byte	0x8
 12089 1b44 5A       		.byte	0x5a
 12090 1b45 18       		.uleb128 0x18
 12091 1b46 01       		.uleb128 0x1
 12092 1b47 50       		.byte	0x50
 12093 1b48 01       		.uleb128 0x1
 12094 1b49 31       		.byte	0x31
 12095 1b4a 00       		.byte	0
 12096 1b4b 17       		.uleb128 0x17
ARM GAS  C:\Users\RECEPC~1\AppData\Local\Temp\ccp152bc.s 			page 275


 12097 1b4c 360E0000 		.4byte	.LVL383
 12098 1b50 D3390000 		.4byte	0x39d3
 12099 1b54 641B0000 		.4byte	0x1b64
 12100 1b58 18       		.uleb128 0x18
 12101 1b59 01       		.uleb128 0x1
 12102 1b5a 51       		.byte	0x51
 12103 1b5b 02       		.uleb128 0x2
 12104 1b5c 08       		.byte	0x8
 12105 1b5d 39       		.byte	0x39
 12106 1b5e 18       		.uleb128 0x18
 12107 1b5f 01       		.uleb128 0x1
 12108 1b60 50       		.byte	0x50
 12109 1b61 01       		.uleb128 0x1
 12110 1b62 31       		.byte	0x31
 12111 1b63 00       		.byte	0
 12112 1b64 17       		.uleb128 0x17
 12113 1b65 620E0000 		.4byte	.LVL390
 12114 1b69 D3390000 		.4byte	0x39d3
 12115 1b6d 7D1B0000 		.4byte	0x1b7d
 12116 1b71 18       		.uleb128 0x18
 12117 1b72 01       		.uleb128 0x1
 12118 1b73 51       		.byte	0x51
 12119 1b74 02       		.uleb128 0x2
 12120 1b75 08       		.byte	0x8
 12121 1b76 5A       		.byte	0x5a
 12122 1b77 18       		.uleb128 0x18
 12123 1b78 01       		.uleb128 0x1
 12124 1b79 50       		.byte	0x50
 12125 1b7a 01       		.uleb128 0x1
 12126 1b7b 31       		.byte	0x31
 12127 1b7c 00       		.byte	0
 12128 1b7d 17       		.uleb128 0x17
 12129 1b7e B80E0000 		.4byte	.LVL397
 12130 1b82 D3390000 		.4byte	0x39d3
 12131 1b86 961B0000 		.4byte	0x1b96
 12132 1b8a 18       		.uleb128 0x18
 12133 1b8b 01       		.uleb128 0x1
 12134 1b8c 51       		.byte	0x51
 12135 1b8d 02       		.uleb128 0x2
 12136 1b8e 08       		.byte	0x8
 12137 1b8f 26       		.byte	0x26
 12138 1b90 18       		.uleb128 0x18
 12139 1b91 01       		.uleb128 0x1
 12140 1b92 50       		.byte	0x50
 12141 1b93 01       		.uleb128 0x1
 12142 1b94 31       		.byte	0x31
 12143 1b95 00       		.byte	0
 12144 1b96 17       		.uleb128 0x17
 12145 1b97 C00E0000 		.4byte	.LVL398
 12146 1b9b 0A3A0000 		.4byte	0x3a0a
 12147 1b9f AB1B0000 		.4byte	0x1bab
 12148 1ba3 18       		.uleb128 0x18
 12149 1ba4 01       		.uleb128 0x1
 12150 1ba5 50       		.byte	0x50
 12151 1ba6 03       		.uleb128 0x3
 12152 1ba7 0A       		.byte	0xa
 12153 1ba8 BC02     		.2byte	0x2bc
ARM GAS  C:\Users\RECEPC~1\AppData\Local\Temp\ccp152bc.s 			page 276


 12154 1baa 00       		.byte	0
 12155 1bab 17       		.uleb128 0x17
 12156 1bac CE0E0000 		.4byte	.LVL399
 12157 1bb0 D3390000 		.4byte	0x39d3
 12158 1bb4 C41B0000 		.4byte	0x1bc4
 12159 1bb8 18       		.uleb128 0x18
 12160 1bb9 01       		.uleb128 0x1
 12161 1bba 51       		.byte	0x51
 12162 1bbb 02       		.uleb128 0x2
 12163 1bbc 08       		.byte	0x8
 12164 1bbd 5A       		.byte	0x5a
 12165 1bbe 18       		.uleb128 0x18
 12166 1bbf 01       		.uleb128 0x1
 12167 1bc0 50       		.byte	0x50
 12168 1bc1 01       		.uleb128 0x1
 12169 1bc2 31       		.byte	0x31
 12170 1bc3 00       		.byte	0
 12171 1bc4 17       		.uleb128 0x17
 12172 1bc5 D80E0000 		.4byte	.LVL400
 12173 1bc9 D3390000 		.4byte	0x39d3
 12174 1bcd DD1B0000 		.4byte	0x1bdd
 12175 1bd1 18       		.uleb128 0x18
 12176 1bd2 01       		.uleb128 0x1
 12177 1bd3 51       		.byte	0x51
 12178 1bd4 02       		.uleb128 0x2
 12179 1bd5 08       		.byte	0x8
 12180 1bd6 27       		.byte	0x27
 12181 1bd7 18       		.uleb128 0x18
 12182 1bd8 01       		.uleb128 0x1
 12183 1bd9 50       		.byte	0x50
 12184 1bda 01       		.uleb128 0x1
 12185 1bdb 31       		.byte	0x31
 12186 1bdc 00       		.byte	0
 12187 1bdd 17       		.uleb128 0x17
 12188 1bde E00E0000 		.4byte	.LVL401
 12189 1be2 0A3A0000 		.4byte	0x3a0a
 12190 1be6 F21B0000 		.4byte	0x1bf2
 12191 1bea 18       		.uleb128 0x18
 12192 1beb 01       		.uleb128 0x1
 12193 1bec 50       		.byte	0x50
 12194 1bed 03       		.uleb128 0x3
 12195 1bee 0A       		.byte	0xa
 12196 1bef BC02     		.2byte	0x2bc
 12197 1bf1 00       		.byte	0
 12198 1bf2 17       		.uleb128 0x17
 12199 1bf3 EE0E0000 		.4byte	.LVL402
 12200 1bf7 D3390000 		.4byte	0x39d3
 12201 1bfb 0A1C0000 		.4byte	0x1c0a
 12202 1bff 18       		.uleb128 0x18
 12203 1c00 01       		.uleb128 0x1
 12204 1c01 51       		.byte	0x51
 12205 1c02 01       		.uleb128 0x1
 12206 1c03 31       		.byte	0x31
 12207 1c04 18       		.uleb128 0x18
 12208 1c05 01       		.uleb128 0x1
 12209 1c06 50       		.byte	0x50
 12210 1c07 01       		.uleb128 0x1
ARM GAS  C:\Users\RECEPC~1\AppData\Local\Temp\ccp152bc.s 			page 277


 12211 1c08 31       		.byte	0x31
 12212 1c09 00       		.byte	0
 12213 1c0a 15       		.uleb128 0x15
 12214 1c0b F20E0000 		.4byte	.LVL403
 12215 1c0f B43A0000 		.4byte	0x3ab4
 12216 1c13 15       		.uleb128 0x15
 12217 1c14 F80E0000 		.4byte	.LVL404
 12218 1c18 A93A0000 		.4byte	0x3aa9
 12219 1c1c 17       		.uleb128 0x17
 12220 1c1d 8E0F0000 		.4byte	.LVL405
 12221 1c21 D3390000 		.4byte	0x39d3
 12222 1c25 341C0000 		.4byte	0x1c34
 12223 1c29 18       		.uleb128 0x18
 12224 1c2a 01       		.uleb128 0x1
 12225 1c2b 51       		.byte	0x51
 12226 1c2c 01       		.uleb128 0x1
 12227 1c2d 36       		.byte	0x36
 12228 1c2e 18       		.uleb128 0x18
 12229 1c2f 01       		.uleb128 0x1
 12230 1c30 50       		.byte	0x50
 12231 1c31 01       		.uleb128 0x1
 12232 1c32 31       		.byte	0x31
 12233 1c33 00       		.byte	0
 12234 1c34 15       		.uleb128 0x15
 12235 1c35 9A0F0000 		.4byte	.LVL406
 12236 1c39 610E0000 		.4byte	0xe61
 12237 1c3d 17       		.uleb128 0x17
 12238 1c3e A20F0000 		.4byte	.LVL407
 12239 1c42 D3390000 		.4byte	0x39d3
 12240 1c46 561C0000 		.4byte	0x1c56
 12241 1c4a 18       		.uleb128 0x18
 12242 1c4b 01       		.uleb128 0x1
 12243 1c4c 51       		.byte	0x51
 12244 1c4d 02       		.uleb128 0x2
 12245 1c4e 08       		.byte	0x8
 12246 1c4f 6B       		.byte	0x6b
 12247 1c50 18       		.uleb128 0x18
 12248 1c51 01       		.uleb128 0x1
 12249 1c52 50       		.byte	0x50
 12250 1c53 01       		.uleb128 0x1
 12251 1c54 31       		.byte	0x31
 12252 1c55 00       		.byte	0
 12253 1c56 17       		.uleb128 0x17
 12254 1c57 CE0F0000 		.4byte	.LVL408
 12255 1c5b D3390000 		.4byte	0x39d3
 12256 1c5f 6E1C0000 		.4byte	0x1c6e
 12257 1c63 18       		.uleb128 0x18
 12258 1c64 01       		.uleb128 0x1
 12259 1c65 51       		.byte	0x51
 12260 1c66 01       		.uleb128 0x1
 12261 1c67 36       		.byte	0x36
 12262 1c68 18       		.uleb128 0x18
 12263 1c69 01       		.uleb128 0x1
 12264 1c6a 50       		.byte	0x50
 12265 1c6b 01       		.uleb128 0x1
 12266 1c6c 31       		.byte	0x31
 12267 1c6d 00       		.byte	0
ARM GAS  C:\Users\RECEPC~1\AppData\Local\Temp\ccp152bc.s 			page 278


 12268 1c6e 17       		.uleb128 0x17
 12269 1c6f EC0F0000 		.4byte	.LVL409
 12270 1c73 D3390000 		.4byte	0x39d3
 12271 1c77 871C0000 		.4byte	0x1c87
 12272 1c7b 18       		.uleb128 0x18
 12273 1c7c 01       		.uleb128 0x1
 12274 1c7d 51       		.byte	0x51
 12275 1c7e 02       		.uleb128 0x2
 12276 1c7f 08       		.byte	0x8
 12277 1c80 3E       		.byte	0x3e
 12278 1c81 18       		.uleb128 0x18
 12279 1c82 01       		.uleb128 0x1
 12280 1c83 50       		.byte	0x50
 12281 1c84 01       		.uleb128 0x1
 12282 1c85 31       		.byte	0x31
 12283 1c86 00       		.byte	0
 12284 1c87 17       		.uleb128 0x17
 12285 1c88 F60F0000 		.4byte	.LVL410
 12286 1c8c D3390000 		.4byte	0x39d3
 12287 1c90 9F1C0000 		.4byte	0x1c9f
 12288 1c94 18       		.uleb128 0x18
 12289 1c95 01       		.uleb128 0x1
 12290 1c96 51       		.byte	0x51
 12291 1c97 01       		.uleb128 0x1
 12292 1c98 31       		.byte	0x31
 12293 1c99 18       		.uleb128 0x18
 12294 1c9a 01       		.uleb128 0x1
 12295 1c9b 50       		.byte	0x50
 12296 1c9c 01       		.uleb128 0x1
 12297 1c9d 31       		.byte	0x31
 12298 1c9e 00       		.byte	0
 12299 1c9f 17       		.uleb128 0x17
 12300 1ca0 06100000 		.4byte	.LVL411
 12301 1ca4 D3390000 		.4byte	0x39d3
 12302 1ca8 B71C0000 		.4byte	0x1cb7
 12303 1cac 18       		.uleb128 0x18
 12304 1cad 01       		.uleb128 0x1
 12305 1cae 51       		.byte	0x51
 12306 1caf 01       		.uleb128 0x1
 12307 1cb0 31       		.byte	0x31
 12308 1cb1 18       		.uleb128 0x18
 12309 1cb2 01       		.uleb128 0x1
 12310 1cb3 50       		.byte	0x50
 12311 1cb4 01       		.uleb128 0x1
 12312 1cb5 31       		.byte	0x31
 12313 1cb6 00       		.byte	0
 12314 1cb7 17       		.uleb128 0x17
 12315 1cb8 12100000 		.4byte	.LVL412
 12316 1cbc 0A3A0000 		.4byte	0x3a0a
 12317 1cc0 CA1C0000 		.4byte	0x1cca
 12318 1cc4 18       		.uleb128 0x18
 12319 1cc5 01       		.uleb128 0x1
 12320 1cc6 50       		.byte	0x50
 12321 1cc7 01       		.uleb128 0x1
 12322 1cc8 3A       		.byte	0x3a
 12323 1cc9 00       		.byte	0
 12324 1cca 15       		.uleb128 0x15
ARM GAS  C:\Users\RECEPC~1\AppData\Local\Temp\ccp152bc.s 			page 279


 12325 1ccb 16100000 		.4byte	.LVL413
 12326 1ccf B43A0000 		.4byte	0x3ab4
 12327 1cd3 15       		.uleb128 0x15
 12328 1cd4 40100000 		.4byte	.LVL414
 12329 1cd8 A93A0000 		.4byte	0x3aa9
 12330 1cdc 17       		.uleb128 0x17
 12331 1cdd 8E100000 		.4byte	.LVL415
 12332 1ce1 D3390000 		.4byte	0x39d3
 12333 1ce5 F51C0000 		.4byte	0x1cf5
 12334 1ce9 18       		.uleb128 0x18
 12335 1cea 01       		.uleb128 0x1
 12336 1ceb 51       		.byte	0x51
 12337 1cec 02       		.uleb128 0x2
 12338 1ced 08       		.byte	0x8
 12339 1cee 67       		.byte	0x67
 12340 1cef 18       		.uleb128 0x18
 12341 1cf0 01       		.uleb128 0x1
 12342 1cf1 50       		.byte	0x50
 12343 1cf2 01       		.uleb128 0x1
 12344 1cf3 31       		.byte	0x31
 12345 1cf4 00       		.byte	0
 12346 1cf5 17       		.uleb128 0x17
 12347 1cf6 AA100000 		.4byte	.LVL416
 12348 1cfa A4390000 		.4byte	0x39a4
 12349 1cfe 0E1D0000 		.4byte	0x1d0e
 12350 1d02 18       		.uleb128 0x18
 12351 1d03 01       		.uleb128 0x1
 12352 1d04 51       		.byte	0x51
 12353 1d05 01       		.uleb128 0x1
 12354 1d06 38       		.byte	0x38
 12355 1d07 18       		.uleb128 0x18
 12356 1d08 01       		.uleb128 0x1
 12357 1d09 50       		.byte	0x50
 12358 1d0a 02       		.uleb128 0x2
 12359 1d0b 74       		.byte	0x74
 12360 1d0c 00       		.sleb128 0
 12361 1d0d 00       		.byte	0
 12362 1d0e 17       		.uleb128 0x17
 12363 1d0f B2100000 		.4byte	.LVL417
 12364 1d13 A4390000 		.4byte	0x39a4
 12365 1d17 211D0000 		.4byte	0x1d21
 12366 1d1b 18       		.uleb128 0x18
 12367 1d1c 01       		.uleb128 0x1
 12368 1d1d 51       		.byte	0x51
 12369 1d1e 01       		.uleb128 0x1
 12370 1d1f 39       		.byte	0x39
 12371 1d20 00       		.byte	0
 12372 1d21 17       		.uleb128 0x17
 12373 1d22 BA100000 		.4byte	.LVL418
 12374 1d26 D3390000 		.4byte	0x39d3
 12375 1d2a 3B1D0000 		.4byte	0x1d3b
 12376 1d2e 18       		.uleb128 0x18
 12377 1d2f 01       		.uleb128 0x1
 12378 1d30 51       		.byte	0x51
 12379 1d31 02       		.uleb128 0x2
 12380 1d32 08       		.byte	0x8
 12381 1d33 5A       		.byte	0x5a
ARM GAS  C:\Users\RECEPC~1\AppData\Local\Temp\ccp152bc.s 			page 280


 12382 1d34 18       		.uleb128 0x18
 12383 1d35 01       		.uleb128 0x1
 12384 1d36 50       		.byte	0x50
 12385 1d37 02       		.uleb128 0x2
 12386 1d38 74       		.byte	0x74
 12387 1d39 00       		.sleb128 0
 12388 1d3a 00       		.byte	0
 12389 1d3b 17       		.uleb128 0x17
 12390 1d3c C4100000 		.4byte	.LVL419
 12391 1d40 D3390000 		.4byte	0x39d3
 12392 1d44 531D0000 		.4byte	0x1d53
 12393 1d48 18       		.uleb128 0x18
 12394 1d49 01       		.uleb128 0x1
 12395 1d4a 51       		.byte	0x51
 12396 1d4b 01       		.uleb128 0x1
 12397 1d4c 31       		.byte	0x31
 12398 1d4d 18       		.uleb128 0x18
 12399 1d4e 01       		.uleb128 0x1
 12400 1d4f 50       		.byte	0x50
 12401 1d50 01       		.uleb128 0x1
 12402 1d51 31       		.byte	0x31
 12403 1d52 00       		.byte	0
 12404 1d53 17       		.uleb128 0x17
 12405 1d54 D4100000 		.4byte	.LVL420
 12406 1d58 D3390000 		.4byte	0x39d3
 12407 1d5c 6B1D0000 		.4byte	0x1d6b
 12408 1d60 18       		.uleb128 0x18
 12409 1d61 01       		.uleb128 0x1
 12410 1d62 51       		.byte	0x51
 12411 1d63 01       		.uleb128 0x1
 12412 1d64 31       		.byte	0x31
 12413 1d65 18       		.uleb128 0x18
 12414 1d66 01       		.uleb128 0x1
 12415 1d67 50       		.byte	0x50
 12416 1d68 01       		.uleb128 0x1
 12417 1d69 31       		.byte	0x31
 12418 1d6a 00       		.byte	0
 12419 1d6b 17       		.uleb128 0x17
 12420 1d6c E0100000 		.4byte	.LVL421
 12421 1d70 0A3A0000 		.4byte	0x3a0a
 12422 1d74 7E1D0000 		.4byte	0x1d7e
 12423 1d78 18       		.uleb128 0x18
 12424 1d79 01       		.uleb128 0x1
 12425 1d7a 50       		.byte	0x50
 12426 1d7b 01       		.uleb128 0x1
 12427 1d7c 3A       		.byte	0x3a
 12428 1d7d 00       		.byte	0
 12429 1d7e 15       		.uleb128 0x15
 12430 1d7f E4100000 		.4byte	.LVL422
 12431 1d83 B43A0000 		.4byte	0x3ab4
 12432 1d87 15       		.uleb128 0x15
 12433 1d88 EA100000 		.4byte	.LVL423
 12434 1d8c A93A0000 		.4byte	0x3aa9
 12435 1d90 17       		.uleb128 0x17
 12436 1d91 4A110000 		.4byte	.LVL424
 12437 1d95 A4390000 		.4byte	0x39a4
 12438 1d99 A81D0000 		.4byte	0x1da8
ARM GAS  C:\Users\RECEPC~1\AppData\Local\Temp\ccp152bc.s 			page 281


 12439 1d9d 18       		.uleb128 0x18
 12440 1d9e 01       		.uleb128 0x1
 12441 1d9f 51       		.byte	0x51
 12442 1da0 01       		.uleb128 0x1
 12443 1da1 38       		.byte	0x38
 12444 1da2 18       		.uleb128 0x18
 12445 1da3 01       		.uleb128 0x1
 12446 1da4 50       		.byte	0x50
 12447 1da5 01       		.uleb128 0x1
 12448 1da6 32       		.byte	0x32
 12449 1da7 00       		.byte	0
 12450 1da8 17       		.uleb128 0x17
 12451 1da9 52110000 		.4byte	.LVL425
 12452 1dad A4390000 		.4byte	0x39a4
 12453 1db1 BB1D0000 		.4byte	0x1dbb
 12454 1db5 18       		.uleb128 0x18
 12455 1db6 01       		.uleb128 0x1
 12456 1db7 51       		.byte	0x51
 12457 1db8 01       		.uleb128 0x1
 12458 1db9 39       		.byte	0x39
 12459 1dba 00       		.byte	0
 12460 1dbb 17       		.uleb128 0x17
 12461 1dbc 5A110000 		.4byte	.LVL426
 12462 1dc0 D3390000 		.4byte	0x39d3
 12463 1dc4 D41D0000 		.4byte	0x1dd4
 12464 1dc8 18       		.uleb128 0x18
 12465 1dc9 01       		.uleb128 0x1
 12466 1dca 51       		.byte	0x51
 12467 1dcb 02       		.uleb128 0x2
 12468 1dcc 08       		.byte	0x8
 12469 1dcd 5A       		.byte	0x5a
 12470 1dce 18       		.uleb128 0x18
 12471 1dcf 01       		.uleb128 0x1
 12472 1dd0 50       		.byte	0x50
 12473 1dd1 01       		.uleb128 0x1
 12474 1dd2 31       		.byte	0x31
 12475 1dd3 00       		.byte	0
 12476 1dd4 17       		.uleb128 0x17
 12477 1dd5 74110000 		.4byte	.LVL427
 12478 1dd9 A4390000 		.4byte	0x39a4
 12479 1ddd ED1D0000 		.4byte	0x1ded
 12480 1de1 18       		.uleb128 0x18
 12481 1de2 01       		.uleb128 0x1
 12482 1de3 51       		.byte	0x51
 12483 1de4 01       		.uleb128 0x1
 12484 1de5 38       		.byte	0x38
 12485 1de6 18       		.uleb128 0x18
 12486 1de7 01       		.uleb128 0x1
 12487 1de8 50       		.byte	0x50
 12488 1de9 02       		.uleb128 0x2
 12489 1dea 74       		.byte	0x74
 12490 1deb 00       		.sleb128 0
 12491 1dec 00       		.byte	0
 12492 1ded 17       		.uleb128 0x17
 12493 1dee 7C110000 		.4byte	.LVL428
 12494 1df2 A4390000 		.4byte	0x39a4
 12495 1df6 001E0000 		.4byte	0x1e00
ARM GAS  C:\Users\RECEPC~1\AppData\Local\Temp\ccp152bc.s 			page 282


 12496 1dfa 18       		.uleb128 0x18
 12497 1dfb 01       		.uleb128 0x1
 12498 1dfc 51       		.byte	0x51
 12499 1dfd 01       		.uleb128 0x1
 12500 1dfe 39       		.byte	0x39
 12501 1dff 00       		.byte	0
 12502 1e00 17       		.uleb128 0x17
 12503 1e01 84110000 		.4byte	.LVL429
 12504 1e05 D3390000 		.4byte	0x39d3
 12505 1e09 1A1E0000 		.4byte	0x1e1a
 12506 1e0d 18       		.uleb128 0x18
 12507 1e0e 01       		.uleb128 0x1
 12508 1e0f 51       		.byte	0x51
 12509 1e10 02       		.uleb128 0x2
 12510 1e11 08       		.byte	0x8
 12511 1e12 5A       		.byte	0x5a
 12512 1e13 18       		.uleb128 0x18
 12513 1e14 01       		.uleb128 0x1
 12514 1e15 50       		.byte	0x50
 12515 1e16 02       		.uleb128 0x2
 12516 1e17 74       		.byte	0x74
 12517 1e18 00       		.sleb128 0
 12518 1e19 00       		.byte	0
 12519 1e1a 17       		.uleb128 0x17
 12520 1e1b 9C110000 		.4byte	.LVL430
 12521 1e1f A4390000 		.4byte	0x39a4
 12522 1e23 321E0000 		.4byte	0x1e32
 12523 1e27 18       		.uleb128 0x18
 12524 1e28 01       		.uleb128 0x1
 12525 1e29 51       		.byte	0x51
 12526 1e2a 01       		.uleb128 0x1
 12527 1e2b 38       		.byte	0x38
 12528 1e2c 18       		.uleb128 0x18
 12529 1e2d 01       		.uleb128 0x1
 12530 1e2e 50       		.byte	0x50
 12531 1e2f 01       		.uleb128 0x1
 12532 1e30 30       		.byte	0x30
 12533 1e31 00       		.byte	0
 12534 1e32 17       		.uleb128 0x17
 12535 1e33 A4110000 		.4byte	.LVL431
 12536 1e37 A4390000 		.4byte	0x39a4
 12537 1e3b 451E0000 		.4byte	0x1e45
 12538 1e3f 18       		.uleb128 0x18
 12539 1e40 01       		.uleb128 0x1
 12540 1e41 51       		.byte	0x51
 12541 1e42 01       		.uleb128 0x1
 12542 1e43 39       		.byte	0x39
 12543 1e44 00       		.byte	0
 12544 1e45 17       		.uleb128 0x17
 12545 1e46 AC110000 		.4byte	.LVL432
 12546 1e4a D3390000 		.4byte	0x39d3
 12547 1e4e 5E1E0000 		.4byte	0x1e5e
 12548 1e52 18       		.uleb128 0x18
 12549 1e53 01       		.uleb128 0x1
 12550 1e54 51       		.byte	0x51
 12551 1e55 02       		.uleb128 0x2
 12552 1e56 08       		.byte	0x8
ARM GAS  C:\Users\RECEPC~1\AppData\Local\Temp\ccp152bc.s 			page 283


 12553 1e57 5A       		.byte	0x5a
 12554 1e58 18       		.uleb128 0x18
 12555 1e59 01       		.uleb128 0x1
 12556 1e5a 50       		.byte	0x50
 12557 1e5b 01       		.uleb128 0x1
 12558 1e5c 31       		.byte	0x31
 12559 1e5d 00       		.byte	0
 12560 1e5e 17       		.uleb128 0x17
 12561 1e5f B6110000 		.4byte	.LVL433
 12562 1e63 D3390000 		.4byte	0x39d3
 12563 1e67 761E0000 		.4byte	0x1e76
 12564 1e6b 18       		.uleb128 0x18
 12565 1e6c 01       		.uleb128 0x1
 12566 1e6d 51       		.byte	0x51
 12567 1e6e 01       		.uleb128 0x1
 12568 1e6f 31       		.byte	0x31
 12569 1e70 18       		.uleb128 0x18
 12570 1e71 01       		.uleb128 0x1
 12571 1e72 50       		.byte	0x50
 12572 1e73 01       		.uleb128 0x1
 12573 1e74 31       		.byte	0x31
 12574 1e75 00       		.byte	0
 12575 1e76 17       		.uleb128 0x17
 12576 1e77 C6110000 		.4byte	.LVL434
 12577 1e7b D3390000 		.4byte	0x39d3
 12578 1e7f 8E1E0000 		.4byte	0x1e8e
 12579 1e83 18       		.uleb128 0x18
 12580 1e84 01       		.uleb128 0x1
 12581 1e85 51       		.byte	0x51
 12582 1e86 01       		.uleb128 0x1
 12583 1e87 31       		.byte	0x31
 12584 1e88 18       		.uleb128 0x18
 12585 1e89 01       		.uleb128 0x1
 12586 1e8a 50       		.byte	0x50
 12587 1e8b 01       		.uleb128 0x1
 12588 1e8c 31       		.byte	0x31
 12589 1e8d 00       		.byte	0
 12590 1e8e 17       		.uleb128 0x17
 12591 1e8f D2110000 		.4byte	.LVL435
 12592 1e93 0A3A0000 		.4byte	0x3a0a
 12593 1e97 A11E0000 		.4byte	0x1ea1
 12594 1e9b 18       		.uleb128 0x18
 12595 1e9c 01       		.uleb128 0x1
 12596 1e9d 50       		.byte	0x50
 12597 1e9e 01       		.uleb128 0x1
 12598 1e9f 3A       		.byte	0x3a
 12599 1ea0 00       		.byte	0
 12600 1ea1 15       		.uleb128 0x15
 12601 1ea2 D6110000 		.4byte	.LVL436
 12602 1ea6 B43A0000 		.4byte	0x3ab4
 12603 1eaa 15       		.uleb128 0x15
 12604 1eab EC110000 		.4byte	.LVL437
 12605 1eaf 093C0000 		.4byte	0x3c09
 12606 1eb3 17       		.uleb128 0x17
 12607 1eb4 12120000 		.4byte	.LVL438
 12608 1eb8 BB3A0000 		.4byte	0x3abb
 12609 1ebc E61E0000 		.4byte	0x1ee6
ARM GAS  C:\Users\RECEPC~1\AppData\Local\Temp\ccp152bc.s 			page 284


 12610 1ec0 18       		.uleb128 0x18
 12611 1ec1 01       		.uleb128 0x1
 12612 1ec2 53       		.byte	0x53
 12613 1ec3 01       		.uleb128 0x1
 12614 1ec4 38       		.byte	0x38
 12615 1ec5 18       		.uleb128 0x18
 12616 1ec6 01       		.uleb128 0x1
 12617 1ec7 52       		.byte	0x52
 12618 1ec8 01       		.uleb128 0x1
 12619 1ec9 3D       		.byte	0x3d
 12620 1eca 18       		.uleb128 0x18
 12621 1ecb 01       		.uleb128 0x1
 12622 1ecc 50       		.byte	0x50
 12623 1ecd 02       		.uleb128 0x2
 12624 1ece 74       		.byte	0x74
 12625 1ecf 00       		.sleb128 0
 12626 1ed0 18       		.uleb128 0x18
 12627 1ed1 02       		.uleb128 0x2
 12628 1ed2 7D       		.byte	0x7d
 12629 1ed3 08       		.sleb128 8
 12630 1ed4 02       		.uleb128 0x2
 12631 1ed5 75       		.byte	0x75
 12632 1ed6 00       		.sleb128 0
 12633 1ed7 18       		.uleb128 0x18
 12634 1ed8 02       		.uleb128 0x2
 12635 1ed9 7D       		.byte	0x7d
 12636 1eda 04       		.sleb128 4
 12637 1edb 02       		.uleb128 0x2
 12638 1edc 76       		.byte	0x76
 12639 1edd 00       		.sleb128 0
 12640 1ede 18       		.uleb128 0x18
 12641 1edf 02       		.uleb128 0x2
 12642 1ee0 7D       		.byte	0x7d
 12643 1ee1 00       		.sleb128 0
 12644 1ee2 02       		.uleb128 0x2
 12645 1ee3 74       		.byte	0x74
 12646 1ee4 00       		.sleb128 0
 12647 1ee5 00       		.byte	0
 12648 1ee6 17       		.uleb128 0x17
 12649 1ee7 2A120000 		.4byte	.LVL439
 12650 1eeb BB3A0000 		.4byte	0x3abb
 12651 1eef 191F0000 		.4byte	0x1f19
 12652 1ef3 18       		.uleb128 0x18
 12653 1ef4 01       		.uleb128 0x1
 12654 1ef5 53       		.byte	0x53
 12655 1ef6 01       		.uleb128 0x1
 12656 1ef7 39       		.byte	0x39
 12657 1ef8 18       		.uleb128 0x18
 12658 1ef9 01       		.uleb128 0x1
 12659 1efa 52       		.byte	0x52
 12660 1efb 01       		.uleb128 0x1
 12661 1efc 3D       		.byte	0x3d
 12662 1efd 18       		.uleb128 0x18
 12663 1efe 01       		.uleb128 0x1
 12664 1eff 50       		.byte	0x50
 12665 1f00 02       		.uleb128 0x2
 12666 1f01 74       		.byte	0x74
ARM GAS  C:\Users\RECEPC~1\AppData\Local\Temp\ccp152bc.s 			page 285


 12667 1f02 00       		.sleb128 0
 12668 1f03 18       		.uleb128 0x18
 12669 1f04 02       		.uleb128 0x2
 12670 1f05 7D       		.byte	0x7d
 12671 1f06 08       		.sleb128 8
 12672 1f07 02       		.uleb128 0x2
 12673 1f08 75       		.byte	0x75
 12674 1f09 00       		.sleb128 0
 12675 1f0a 18       		.uleb128 0x18
 12676 1f0b 02       		.uleb128 0x2
 12677 1f0c 7D       		.byte	0x7d
 12678 1f0d 04       		.sleb128 4
 12679 1f0e 02       		.uleb128 0x2
 12680 1f0f 76       		.byte	0x76
 12681 1f10 00       		.sleb128 0
 12682 1f11 18       		.uleb128 0x18
 12683 1f12 02       		.uleb128 0x2
 12684 1f13 7D       		.byte	0x7d
 12685 1f14 00       		.sleb128 0
 12686 1f15 02       		.uleb128 0x2
 12687 1f16 74       		.byte	0x74
 12688 1f17 00       		.sleb128 0
 12689 1f18 00       		.byte	0
 12690 1f19 17       		.uleb128 0x17
 12691 1f1a 3C120000 		.4byte	.LVL440
 12692 1f1e BB3A0000 		.4byte	0x3abb
 12693 1f22 521F0000 		.4byte	0x1f52
 12694 1f26 18       		.uleb128 0x18
 12695 1f27 01       		.uleb128 0x1
 12696 1f28 53       		.byte	0x53
 12697 1f29 01       		.uleb128 0x1
 12698 1f2a 3A       		.byte	0x3a
 12699 1f2b 18       		.uleb128 0x18
 12700 1f2c 01       		.uleb128 0x1
 12701 1f2d 52       		.byte	0x52
 12702 1f2e 01       		.uleb128 0x1
 12703 1f2f 3D       		.byte	0x3d
 12704 1f30 18       		.uleb128 0x18
 12705 1f31 01       		.uleb128 0x1
 12706 1f32 51       		.byte	0x51
 12707 1f33 02       		.uleb128 0x2
 12708 1f34 08       		.byte	0x8
 12709 1f35 3A       		.byte	0x3a
 12710 1f36 18       		.uleb128 0x18
 12711 1f37 01       		.uleb128 0x1
 12712 1f38 50       		.byte	0x50
 12713 1f39 02       		.uleb128 0x2
 12714 1f3a 74       		.byte	0x74
 12715 1f3b 00       		.sleb128 0
 12716 1f3c 18       		.uleb128 0x18
 12717 1f3d 02       		.uleb128 0x2
 12718 1f3e 7D       		.byte	0x7d
 12719 1f3f 08       		.sleb128 8
 12720 1f40 02       		.uleb128 0x2
 12721 1f41 75       		.byte	0x75
 12722 1f42 00       		.sleb128 0
 12723 1f43 18       		.uleb128 0x18
ARM GAS  C:\Users\RECEPC~1\AppData\Local\Temp\ccp152bc.s 			page 286


 12724 1f44 02       		.uleb128 0x2
 12725 1f45 7D       		.byte	0x7d
 12726 1f46 04       		.sleb128 4
 12727 1f47 02       		.uleb128 0x2
 12728 1f48 76       		.byte	0x76
 12729 1f49 00       		.sleb128 0
 12730 1f4a 18       		.uleb128 0x18
 12731 1f4b 02       		.uleb128 0x2
 12732 1f4c 7D       		.byte	0x7d
 12733 1f4d 00       		.sleb128 0
 12734 1f4e 02       		.uleb128 0x2
 12735 1f4f 74       		.byte	0x74
 12736 1f50 00       		.sleb128 0
 12737 1f51 00       		.byte	0
 12738 1f52 17       		.uleb128 0x17
 12739 1f53 52120000 		.4byte	.LVL441
 12740 1f57 BB3A0000 		.4byte	0x3abb
 12741 1f5b 851F0000 		.4byte	0x1f85
 12742 1f5f 18       		.uleb128 0x18
 12743 1f60 01       		.uleb128 0x1
 12744 1f61 53       		.byte	0x53
 12745 1f62 01       		.uleb128 0x1
 12746 1f63 3B       		.byte	0x3b
 12747 1f64 18       		.uleb128 0x18
 12748 1f65 01       		.uleb128 0x1
 12749 1f66 52       		.byte	0x52
 12750 1f67 01       		.uleb128 0x1
 12751 1f68 3D       		.byte	0x3d
 12752 1f69 18       		.uleb128 0x18
 12753 1f6a 01       		.uleb128 0x1
 12754 1f6b 50       		.byte	0x50
 12755 1f6c 02       		.uleb128 0x2
 12756 1f6d 74       		.byte	0x74
 12757 1f6e 00       		.sleb128 0
 12758 1f6f 18       		.uleb128 0x18
 12759 1f70 02       		.uleb128 0x2
 12760 1f71 7D       		.byte	0x7d
 12761 1f72 08       		.sleb128 8
 12762 1f73 02       		.uleb128 0x2
 12763 1f74 75       		.byte	0x75
 12764 1f75 00       		.sleb128 0
 12765 1f76 18       		.uleb128 0x18
 12766 1f77 02       		.uleb128 0x2
 12767 1f78 7D       		.byte	0x7d
 12768 1f79 04       		.sleb128 4
 12769 1f7a 02       		.uleb128 0x2
 12770 1f7b 76       		.byte	0x76
 12771 1f7c 00       		.sleb128 0
 12772 1f7d 18       		.uleb128 0x18
 12773 1f7e 02       		.uleb128 0x2
 12774 1f7f 7D       		.byte	0x7d
 12775 1f80 00       		.sleb128 0
 12776 1f81 02       		.uleb128 0x2
 12777 1f82 74       		.byte	0x74
 12778 1f83 00       		.sleb128 0
 12779 1f84 00       		.byte	0
 12780 1f85 17       		.uleb128 0x17
ARM GAS  C:\Users\RECEPC~1\AppData\Local\Temp\ccp152bc.s 			page 287


 12781 1f86 6A120000 		.4byte	.LVL442
 12782 1f8a BB3A0000 		.4byte	0x3abb
 12783 1f8e B81F0000 		.4byte	0x1fb8
 12784 1f92 18       		.uleb128 0x18
 12785 1f93 01       		.uleb128 0x1
 12786 1f94 53       		.byte	0x53
 12787 1f95 01       		.uleb128 0x1
 12788 1f96 3C       		.byte	0x3c
 12789 1f97 18       		.uleb128 0x18
 12790 1f98 01       		.uleb128 0x1
 12791 1f99 52       		.byte	0x52
 12792 1f9a 01       		.uleb128 0x1
 12793 1f9b 3D       		.byte	0x3d
 12794 1f9c 18       		.uleb128 0x18
 12795 1f9d 01       		.uleb128 0x1
 12796 1f9e 50       		.byte	0x50
 12797 1f9f 02       		.uleb128 0x2
 12798 1fa0 74       		.byte	0x74
 12799 1fa1 00       		.sleb128 0
 12800 1fa2 18       		.uleb128 0x18
 12801 1fa3 02       		.uleb128 0x2
 12802 1fa4 7D       		.byte	0x7d
 12803 1fa5 08       		.sleb128 8
 12804 1fa6 02       		.uleb128 0x2
 12805 1fa7 75       		.byte	0x75
 12806 1fa8 00       		.sleb128 0
 12807 1fa9 18       		.uleb128 0x18
 12808 1faa 02       		.uleb128 0x2
 12809 1fab 7D       		.byte	0x7d
 12810 1fac 04       		.sleb128 4
 12811 1fad 02       		.uleb128 0x2
 12812 1fae 76       		.byte	0x76
 12813 1faf 00       		.sleb128 0
 12814 1fb0 18       		.uleb128 0x18
 12815 1fb1 02       		.uleb128 0x2
 12816 1fb2 7D       		.byte	0x7d
 12817 1fb3 00       		.sleb128 0
 12818 1fb4 02       		.uleb128 0x2
 12819 1fb5 74       		.byte	0x74
 12820 1fb6 00       		.sleb128 0
 12821 1fb7 00       		.byte	0
 12822 1fb8 15       		.uleb128 0x15
 12823 1fb9 6E120000 		.4byte	.LVL443
 12824 1fbd 1A3C0000 		.4byte	0x3c1a
 12825 1fc1 17       		.uleb128 0x17
 12826 1fc2 92120000 		.4byte	.LVL444
 12827 1fc6 BB3A0000 		.4byte	0x3abb
 12828 1fca F41F0000 		.4byte	0x1ff4
 12829 1fce 18       		.uleb128 0x18
 12830 1fcf 01       		.uleb128 0x1
 12831 1fd0 53       		.byte	0x53
 12832 1fd1 01       		.uleb128 0x1
 12833 1fd2 38       		.byte	0x38
 12834 1fd3 18       		.uleb128 0x18
 12835 1fd4 01       		.uleb128 0x1
 12836 1fd5 52       		.byte	0x52
 12837 1fd6 01       		.uleb128 0x1
ARM GAS  C:\Users\RECEPC~1\AppData\Local\Temp\ccp152bc.s 			page 288


 12838 1fd7 45       		.byte	0x45
 12839 1fd8 18       		.uleb128 0x18
 12840 1fd9 01       		.uleb128 0x1
 12841 1fda 50       		.byte	0x50
 12842 1fdb 02       		.uleb128 0x2
 12843 1fdc 74       		.byte	0x74
 12844 1fdd 00       		.sleb128 0
 12845 1fde 18       		.uleb128 0x18
 12846 1fdf 02       		.uleb128 0x2
 12847 1fe0 7D       		.byte	0x7d
 12848 1fe1 08       		.sleb128 8
 12849 1fe2 02       		.uleb128 0x2
 12850 1fe3 75       		.byte	0x75
 12851 1fe4 00       		.sleb128 0
 12852 1fe5 18       		.uleb128 0x18
 12853 1fe6 02       		.uleb128 0x2
 12854 1fe7 7D       		.byte	0x7d
 12855 1fe8 04       		.sleb128 4
 12856 1fe9 02       		.uleb128 0x2
 12857 1fea 76       		.byte	0x76
 12858 1feb 00       		.sleb128 0
 12859 1fec 18       		.uleb128 0x18
 12860 1fed 02       		.uleb128 0x2
 12861 1fee 7D       		.byte	0x7d
 12862 1fef 00       		.sleb128 0
 12863 1ff0 02       		.uleb128 0x2
 12864 1ff1 74       		.byte	0x74
 12865 1ff2 00       		.sleb128 0
 12866 1ff3 00       		.byte	0
 12867 1ff4 17       		.uleb128 0x17
 12868 1ff5 AA120000 		.4byte	.LVL445
 12869 1ff9 BB3A0000 		.4byte	0x3abb
 12870 1ffd 27200000 		.4byte	0x2027
 12871 2001 18       		.uleb128 0x18
 12872 2002 01       		.uleb128 0x1
 12873 2003 53       		.byte	0x53
 12874 2004 01       		.uleb128 0x1
 12875 2005 39       		.byte	0x39
 12876 2006 18       		.uleb128 0x18
 12877 2007 01       		.uleb128 0x1
 12878 2008 52       		.byte	0x52
 12879 2009 01       		.uleb128 0x1
 12880 200a 45       		.byte	0x45
 12881 200b 18       		.uleb128 0x18
 12882 200c 01       		.uleb128 0x1
 12883 200d 50       		.byte	0x50
 12884 200e 02       		.uleb128 0x2
 12885 200f 74       		.byte	0x74
 12886 2010 00       		.sleb128 0
 12887 2011 18       		.uleb128 0x18
 12888 2012 02       		.uleb128 0x2
 12889 2013 7D       		.byte	0x7d
 12890 2014 08       		.sleb128 8
 12891 2015 02       		.uleb128 0x2
 12892 2016 75       		.byte	0x75
 12893 2017 00       		.sleb128 0
 12894 2018 18       		.uleb128 0x18
ARM GAS  C:\Users\RECEPC~1\AppData\Local\Temp\ccp152bc.s 			page 289


 12895 2019 02       		.uleb128 0x2
 12896 201a 7D       		.byte	0x7d
 12897 201b 04       		.sleb128 4
 12898 201c 02       		.uleb128 0x2
 12899 201d 76       		.byte	0x76
 12900 201e 00       		.sleb128 0
 12901 201f 18       		.uleb128 0x18
 12902 2020 02       		.uleb128 0x2
 12903 2021 7D       		.byte	0x7d
 12904 2022 00       		.sleb128 0
 12905 2023 02       		.uleb128 0x2
 12906 2024 74       		.byte	0x74
 12907 2025 00       		.sleb128 0
 12908 2026 00       		.byte	0
 12909 2027 17       		.uleb128 0x17
 12910 2028 BC120000 		.4byte	.LVL446
 12911 202c BB3A0000 		.4byte	0x3abb
 12912 2030 60200000 		.4byte	0x2060
 12913 2034 18       		.uleb128 0x18
 12914 2035 01       		.uleb128 0x1
 12915 2036 53       		.byte	0x53
 12916 2037 01       		.uleb128 0x1
 12917 2038 3A       		.byte	0x3a
 12918 2039 18       		.uleb128 0x18
 12919 203a 01       		.uleb128 0x1
 12920 203b 52       		.byte	0x52
 12921 203c 01       		.uleb128 0x1
 12922 203d 45       		.byte	0x45
 12923 203e 18       		.uleb128 0x18
 12924 203f 01       		.uleb128 0x1
 12925 2040 51       		.byte	0x51
 12926 2041 02       		.uleb128 0x2
 12927 2042 08       		.byte	0x8
 12928 2043 2F       		.byte	0x2f
 12929 2044 18       		.uleb128 0x18
 12930 2045 01       		.uleb128 0x1
 12931 2046 50       		.byte	0x50
 12932 2047 02       		.uleb128 0x2
 12933 2048 74       		.byte	0x74
 12934 2049 00       		.sleb128 0
 12935 204a 18       		.uleb128 0x18
 12936 204b 02       		.uleb128 0x2
 12937 204c 7D       		.byte	0x7d
 12938 204d 08       		.sleb128 8
 12939 204e 02       		.uleb128 0x2
 12940 204f 75       		.byte	0x75
 12941 2050 00       		.sleb128 0
 12942 2051 18       		.uleb128 0x18
 12943 2052 02       		.uleb128 0x2
 12944 2053 7D       		.byte	0x7d
 12945 2054 04       		.sleb128 4
 12946 2055 02       		.uleb128 0x2
 12947 2056 76       		.byte	0x76
 12948 2057 00       		.sleb128 0
 12949 2058 18       		.uleb128 0x18
 12950 2059 02       		.uleb128 0x2
 12951 205a 7D       		.byte	0x7d
ARM GAS  C:\Users\RECEPC~1\AppData\Local\Temp\ccp152bc.s 			page 290


 12952 205b 00       		.sleb128 0
 12953 205c 02       		.uleb128 0x2
 12954 205d 74       		.byte	0x74
 12955 205e 00       		.sleb128 0
 12956 205f 00       		.byte	0
 12957 2060 17       		.uleb128 0x17
 12958 2061 D6120000 		.4byte	.LVL447
 12959 2065 BB3A0000 		.4byte	0x3abb
 12960 2069 93200000 		.4byte	0x2093
 12961 206d 18       		.uleb128 0x18
 12962 206e 01       		.uleb128 0x1
 12963 206f 53       		.byte	0x53
 12964 2070 01       		.uleb128 0x1
 12965 2071 3B       		.byte	0x3b
 12966 2072 18       		.uleb128 0x18
 12967 2073 01       		.uleb128 0x1
 12968 2074 52       		.byte	0x52
 12969 2075 01       		.uleb128 0x1
 12970 2076 45       		.byte	0x45
 12971 2077 18       		.uleb128 0x18
 12972 2078 01       		.uleb128 0x1
 12973 2079 50       		.byte	0x50
 12974 207a 02       		.uleb128 0x2
 12975 207b 74       		.byte	0x74
 12976 207c 00       		.sleb128 0
 12977 207d 18       		.uleb128 0x18
 12978 207e 02       		.uleb128 0x2
 12979 207f 7D       		.byte	0x7d
 12980 2080 08       		.sleb128 8
 12981 2081 02       		.uleb128 0x2
 12982 2082 75       		.byte	0x75
 12983 2083 00       		.sleb128 0
 12984 2084 18       		.uleb128 0x18
 12985 2085 02       		.uleb128 0x2
 12986 2086 7D       		.byte	0x7d
 12987 2087 04       		.sleb128 4
 12988 2088 02       		.uleb128 0x2
 12989 2089 76       		.byte	0x76
 12990 208a 00       		.sleb128 0
 12991 208b 18       		.uleb128 0x18
 12992 208c 02       		.uleb128 0x2
 12993 208d 7D       		.byte	0x7d
 12994 208e 00       		.sleb128 0
 12995 208f 02       		.uleb128 0x2
 12996 2090 74       		.byte	0x74
 12997 2091 00       		.sleb128 0
 12998 2092 00       		.byte	0
 12999 2093 17       		.uleb128 0x17
 13000 2094 EE120000 		.4byte	.LVL448
 13001 2098 BB3A0000 		.4byte	0x3abb
 13002 209c C6200000 		.4byte	0x20c6
 13003 20a0 18       		.uleb128 0x18
 13004 20a1 01       		.uleb128 0x1
 13005 20a2 53       		.byte	0x53
 13006 20a3 01       		.uleb128 0x1
 13007 20a4 3C       		.byte	0x3c
 13008 20a5 18       		.uleb128 0x18
ARM GAS  C:\Users\RECEPC~1\AppData\Local\Temp\ccp152bc.s 			page 291


 13009 20a6 01       		.uleb128 0x1
 13010 20a7 52       		.byte	0x52
 13011 20a8 01       		.uleb128 0x1
 13012 20a9 45       		.byte	0x45
 13013 20aa 18       		.uleb128 0x18
 13014 20ab 01       		.uleb128 0x1
 13015 20ac 50       		.byte	0x50
 13016 20ad 02       		.uleb128 0x2
 13017 20ae 74       		.byte	0x74
 13018 20af 00       		.sleb128 0
 13019 20b0 18       		.uleb128 0x18
 13020 20b1 02       		.uleb128 0x2
 13021 20b2 7D       		.byte	0x7d
 13022 20b3 08       		.sleb128 8
 13023 20b4 02       		.uleb128 0x2
 13024 20b5 75       		.byte	0x75
 13025 20b6 00       		.sleb128 0
 13026 20b7 18       		.uleb128 0x18
 13027 20b8 02       		.uleb128 0x2
 13028 20b9 7D       		.byte	0x7d
 13029 20ba 04       		.sleb128 4
 13030 20bb 02       		.uleb128 0x2
 13031 20bc 76       		.byte	0x76
 13032 20bd 00       		.sleb128 0
 13033 20be 18       		.uleb128 0x18
 13034 20bf 02       		.uleb128 0x2
 13035 20c0 7D       		.byte	0x7d
 13036 20c1 00       		.sleb128 0
 13037 20c2 02       		.uleb128 0x2
 13038 20c3 74       		.byte	0x74
 13039 20c4 00       		.sleb128 0
 13040 20c5 00       		.byte	0
 13041 20c6 17       		.uleb128 0x17
 13042 20c7 00130000 		.4byte	.LVL449
 13043 20cb BB3A0000 		.4byte	0x3abb
 13044 20cf FF200000 		.4byte	0x20ff
 13045 20d3 18       		.uleb128 0x18
 13046 20d4 01       		.uleb128 0x1
 13047 20d5 53       		.byte	0x53
 13048 20d6 01       		.uleb128 0x1
 13049 20d7 3D       		.byte	0x3d
 13050 20d8 18       		.uleb128 0x18
 13051 20d9 01       		.uleb128 0x1
 13052 20da 52       		.byte	0x52
 13053 20db 01       		.uleb128 0x1
 13054 20dc 45       		.byte	0x45
 13055 20dd 18       		.uleb128 0x18
 13056 20de 01       		.uleb128 0x1
 13057 20df 51       		.byte	0x51
 13058 20e0 02       		.uleb128 0x2
 13059 20e1 08       		.byte	0x8
 13060 20e2 2F       		.byte	0x2f
 13061 20e3 18       		.uleb128 0x18
 13062 20e4 01       		.uleb128 0x1
 13063 20e5 50       		.byte	0x50
 13064 20e6 02       		.uleb128 0x2
 13065 20e7 74       		.byte	0x74
ARM GAS  C:\Users\RECEPC~1\AppData\Local\Temp\ccp152bc.s 			page 292


 13066 20e8 00       		.sleb128 0
 13067 20e9 18       		.uleb128 0x18
 13068 20ea 02       		.uleb128 0x2
 13069 20eb 7D       		.byte	0x7d
 13070 20ec 08       		.sleb128 8
 13071 20ed 02       		.uleb128 0x2
 13072 20ee 75       		.byte	0x75
 13073 20ef 00       		.sleb128 0
 13074 20f0 18       		.uleb128 0x18
 13075 20f1 02       		.uleb128 0x2
 13076 20f2 7D       		.byte	0x7d
 13077 20f3 04       		.sleb128 4
 13078 20f4 02       		.uleb128 0x2
 13079 20f5 76       		.byte	0x76
 13080 20f6 00       		.sleb128 0
 13081 20f7 18       		.uleb128 0x18
 13082 20f8 02       		.uleb128 0x2
 13083 20f9 7D       		.byte	0x7d
 13084 20fa 00       		.sleb128 0
 13085 20fb 02       		.uleb128 0x2
 13086 20fc 74       		.byte	0x74
 13087 20fd 00       		.sleb128 0
 13088 20fe 00       		.byte	0
 13089 20ff 17       		.uleb128 0x17
 13090 2100 16130000 		.4byte	.LVL450
 13091 2104 BB3A0000 		.4byte	0x3abb
 13092 2108 32210000 		.4byte	0x2132
 13093 210c 18       		.uleb128 0x18
 13094 210d 01       		.uleb128 0x1
 13095 210e 53       		.byte	0x53
 13096 210f 01       		.uleb128 0x1
 13097 2110 3E       		.byte	0x3e
 13098 2111 18       		.uleb128 0x18
 13099 2112 01       		.uleb128 0x1
 13100 2113 52       		.byte	0x52
 13101 2114 01       		.uleb128 0x1
 13102 2115 45       		.byte	0x45
 13103 2116 18       		.uleb128 0x18
 13104 2117 01       		.uleb128 0x1
 13105 2118 50       		.byte	0x50
 13106 2119 02       		.uleb128 0x2
 13107 211a 74       		.byte	0x74
 13108 211b 00       		.sleb128 0
 13109 211c 18       		.uleb128 0x18
 13110 211d 02       		.uleb128 0x2
 13111 211e 7D       		.byte	0x7d
 13112 211f 08       		.sleb128 8
 13113 2120 02       		.uleb128 0x2
 13114 2121 75       		.byte	0x75
 13115 2122 00       		.sleb128 0
 13116 2123 18       		.uleb128 0x18
 13117 2124 02       		.uleb128 0x2
 13118 2125 7D       		.byte	0x7d
 13119 2126 04       		.sleb128 4
 13120 2127 02       		.uleb128 0x2
 13121 2128 76       		.byte	0x76
 13122 2129 00       		.sleb128 0
ARM GAS  C:\Users\RECEPC~1\AppData\Local\Temp\ccp152bc.s 			page 293


 13123 212a 18       		.uleb128 0x18
 13124 212b 02       		.uleb128 0x2
 13125 212c 7D       		.byte	0x7d
 13126 212d 00       		.sleb128 0
 13127 212e 02       		.uleb128 0x2
 13128 212f 74       		.byte	0x74
 13129 2130 00       		.sleb128 0
 13130 2131 00       		.byte	0
 13131 2132 17       		.uleb128 0x17
 13132 2133 2E130000 		.4byte	.LVL451
 13133 2137 BB3A0000 		.4byte	0x3abb
 13134 213b 65210000 		.4byte	0x2165
 13135 213f 18       		.uleb128 0x18
 13136 2140 01       		.uleb128 0x1
 13137 2141 53       		.byte	0x53
 13138 2142 01       		.uleb128 0x1
 13139 2143 3F       		.byte	0x3f
 13140 2144 18       		.uleb128 0x18
 13141 2145 01       		.uleb128 0x1
 13142 2146 52       		.byte	0x52
 13143 2147 01       		.uleb128 0x1
 13144 2148 45       		.byte	0x45
 13145 2149 18       		.uleb128 0x18
 13146 214a 01       		.uleb128 0x1
 13147 214b 50       		.byte	0x50
 13148 214c 02       		.uleb128 0x2
 13149 214d 74       		.byte	0x74
 13150 214e 00       		.sleb128 0
 13151 214f 18       		.uleb128 0x18
 13152 2150 02       		.uleb128 0x2
 13153 2151 7D       		.byte	0x7d
 13154 2152 08       		.sleb128 8
 13155 2153 02       		.uleb128 0x2
 13156 2154 75       		.byte	0x75
 13157 2155 00       		.sleb128 0
 13158 2156 18       		.uleb128 0x18
 13159 2157 02       		.uleb128 0x2
 13160 2158 7D       		.byte	0x7d
 13161 2159 04       		.sleb128 4
 13162 215a 02       		.uleb128 0x2
 13163 215b 76       		.byte	0x76
 13164 215c 00       		.sleb128 0
 13165 215d 18       		.uleb128 0x18
 13166 215e 02       		.uleb128 0x2
 13167 215f 7D       		.byte	0x7d
 13168 2160 00       		.sleb128 0
 13169 2161 02       		.uleb128 0x2
 13170 2162 74       		.byte	0x74
 13171 2163 00       		.sleb128 0
 13172 2164 00       		.byte	0
 13173 2165 15       		.uleb128 0x15
 13174 2166 32130000 		.4byte	.LVL452
 13175 216a A93A0000 		.4byte	0x3aa9
 13176 216e 17       		.uleb128 0x17
 13177 216f 72130000 		.4byte	.LVL453
 13178 2173 D3390000 		.4byte	0x39d3
 13179 2177 86210000 		.4byte	0x2186
ARM GAS  C:\Users\RECEPC~1\AppData\Local\Temp\ccp152bc.s 			page 294


 13180 217b 18       		.uleb128 0x18
 13181 217c 01       		.uleb128 0x1
 13182 217d 51       		.byte	0x51
 13183 217e 01       		.uleb128 0x1
 13184 217f 31       		.byte	0x31
 13185 2180 18       		.uleb128 0x18
 13186 2181 01       		.uleb128 0x1
 13187 2182 50       		.byte	0x50
 13188 2183 01       		.uleb128 0x1
 13189 2184 31       		.byte	0x31
 13190 2185 00       		.byte	0
 13191 2186 17       		.uleb128 0x17
 13192 2187 82130000 		.4byte	.LVL454
 13193 218b D3390000 		.4byte	0x39d3
 13194 218f 9E210000 		.4byte	0x219e
 13195 2193 18       		.uleb128 0x18
 13196 2194 01       		.uleb128 0x1
 13197 2195 51       		.byte	0x51
 13198 2196 01       		.uleb128 0x1
 13199 2197 31       		.byte	0x31
 13200 2198 18       		.uleb128 0x18
 13201 2199 01       		.uleb128 0x1
 13202 219a 50       		.byte	0x50
 13203 219b 01       		.uleb128 0x1
 13204 219c 31       		.byte	0x31
 13205 219d 00       		.byte	0
 13206 219e 17       		.uleb128 0x17
 13207 219f 88130000 		.4byte	.LVL455
 13208 21a3 0A3A0000 		.4byte	0x3a0a
 13209 21a7 B1210000 		.4byte	0x21b1
 13210 21ab 18       		.uleb128 0x18
 13211 21ac 01       		.uleb128 0x1
 13212 21ad 50       		.byte	0x50
 13213 21ae 01       		.uleb128 0x1
 13214 21af 3A       		.byte	0x3a
 13215 21b0 00       		.byte	0
 13216 21b1 15       		.uleb128 0x15
 13217 21b2 8C130000 		.4byte	.LVL456
 13218 21b6 B43A0000 		.4byte	0x3ab4
 13219 21ba 00       		.byte	0
 13220 21bb 14       		.uleb128 0x14
 13221 21bc 74060000 		.4byte	.LASF183
 13222 21c0 01       		.byte	0x1
 13223 21c1 A704     		.2byte	0x4a7
 13224 21c3 00000000 		.4byte	.LFB72
 13225 21c7 D8130000 		.4byte	.LFE72-.LFB72
 13226 21cb 01       		.uleb128 0x1
 13227 21cc 9C       		.byte	0x9c
 13228 21cd 3E320000 		.4byte	0x323e
 13229 21d1 1D       		.uleb128 0x1d
 13230 21d2 7800     		.ascii	"x\000"
 13231 21d4 01       		.byte	0x1
 13232 21d5 A904     		.2byte	0x4a9
 13233 21d7 AD000000 		.4byte	0xad
 13234 21db B9030000 		.4byte	.LLST4
 13235 21df 1D       		.uleb128 0x1d
 13236 21e0 7900     		.ascii	"y\000"
ARM GAS  C:\Users\RECEPC~1\AppData\Local\Temp\ccp152bc.s 			page 295


 13237 21e2 01       		.byte	0x1
 13238 21e3 A904     		.2byte	0x4a9
 13239 21e5 AD000000 		.4byte	0xad
 13240 21e9 A5060000 		.4byte	.LLST5
 13241 21ed 15       		.uleb128 0x15
 13242 21ee 3E000000 		.4byte	.LVL457
 13243 21f2 B80C0000 		.4byte	0xcb8
 13244 21f6 15       		.uleb128 0x15
 13245 21f7 50000000 		.4byte	.LVL458
 13246 21fb 2B3C0000 		.4byte	0x3c2b
 13247 21ff 15       		.uleb128 0x15
 13248 2200 54000000 		.4byte	.LVL459
 13249 2204 323C0000 		.4byte	0x3c32
 13250 2208 17       		.uleb128 0x17
 13251 2209 70000000 		.4byte	.LVL460
 13252 220d 393C0000 		.4byte	0x3c39
 13253 2211 21220000 		.4byte	0x2221
 13254 2215 18       		.uleb128 0x18
 13255 2216 01       		.uleb128 0x1
 13256 2217 51       		.byte	0x51
 13257 2218 02       		.uleb128 0x2
 13258 2219 08       		.byte	0x8
 13259 221a 23       		.byte	0x23
 13260 221b 18       		.uleb128 0x18
 13261 221c 01       		.uleb128 0x1
 13262 221d 50       		.byte	0x50
 13263 221e 01       		.uleb128 0x1
 13264 221f 32       		.byte	0x32
 13265 2220 00       		.byte	0
 13266 2221 15       		.uleb128 0x15
 13267 2222 7C000000 		.4byte	.LVL461
 13268 2226 4F3C0000 		.4byte	0x3c4f
 13269 222a 17       		.uleb128 0x17
 13270 222b AC000000 		.4byte	.LVL462
 13271 222f D3390000 		.4byte	0x39d3
 13272 2233 42220000 		.4byte	0x2242
 13273 2237 18       		.uleb128 0x18
 13274 2238 01       		.uleb128 0x1
 13275 2239 51       		.byte	0x51
 13276 223a 01       		.uleb128 0x1
 13277 223b 34       		.byte	0x34
 13278 223c 18       		.uleb128 0x18
 13279 223d 01       		.uleb128 0x1
 13280 223e 50       		.byte	0x50
 13281 223f 01       		.uleb128 0x1
 13282 2240 32       		.byte	0x32
 13283 2241 00       		.byte	0
 13284 2242 17       		.uleb128 0x17
 13285 2243 B2000000 		.4byte	.LVL463
 13286 2247 0A3A0000 		.4byte	0x3a0a
 13287 224b 55220000 		.4byte	0x2255
 13288 224f 18       		.uleb128 0x18
 13289 2250 01       		.uleb128 0x1
 13290 2251 50       		.byte	0x50
 13291 2252 01       		.uleb128 0x1
 13292 2253 3A       		.byte	0x3a
 13293 2254 00       		.byte	0
ARM GAS  C:\Users\RECEPC~1\AppData\Local\Temp\ccp152bc.s 			page 296


 13294 2255 15       		.uleb128 0x15
 13295 2256 B6000000 		.4byte	.LVL464
 13296 225a 5A3C0000 		.4byte	0x3c5a
 13297 225e 15       		.uleb128 0x15
 13298 225f BE000000 		.4byte	.LVL465
 13299 2263 4F3C0000 		.4byte	0x3c4f
 13300 2267 17       		.uleb128 0x17
 13301 2268 18010000 		.4byte	.LVL466
 13302 226c D3390000 		.4byte	0x39d3
 13303 2270 7F220000 		.4byte	0x227f
 13304 2274 18       		.uleb128 0x18
 13305 2275 01       		.uleb128 0x1
 13306 2276 51       		.byte	0x51
 13307 2277 01       		.uleb128 0x1
 13308 2278 35       		.byte	0x35
 13309 2279 18       		.uleb128 0x18
 13310 227a 01       		.uleb128 0x1
 13311 227b 50       		.byte	0x50
 13312 227c 01       		.uleb128 0x1
 13313 227d 32       		.byte	0x32
 13314 227e 00       		.byte	0
 13315 227f 17       		.uleb128 0x17
 13316 2280 34010000 		.4byte	.LVL467
 13317 2284 D3390000 		.4byte	0x39d3
 13318 2288 98220000 		.4byte	0x2298
 13319 228c 18       		.uleb128 0x18
 13320 228d 01       		.uleb128 0x1
 13321 228e 51       		.byte	0x51
 13322 228f 02       		.uleb128 0x2
 13323 2290 08       		.byte	0x8
 13324 2291 85       		.byte	0x85
 13325 2292 18       		.uleb128 0x18
 13326 2293 01       		.uleb128 0x1
 13327 2294 50       		.byte	0x50
 13328 2295 01       		.uleb128 0x1
 13329 2296 32       		.byte	0x32
 13330 2297 00       		.byte	0
 13331 2298 17       		.uleb128 0x17
 13332 2299 44010000 		.4byte	.LVL468
 13333 229d D3390000 		.4byte	0x39d3
 13334 22a1 B1220000 		.4byte	0x22b1
 13335 22a5 18       		.uleb128 0x18
 13336 22a6 01       		.uleb128 0x1
 13337 22a7 51       		.byte	0x51
 13338 22a8 02       		.uleb128 0x2
 13339 22a9 08       		.byte	0x8
 13340 22aa 83       		.byte	0x83
 13341 22ab 18       		.uleb128 0x18
 13342 22ac 01       		.uleb128 0x1
 13343 22ad 50       		.byte	0x50
 13344 22ae 01       		.uleb128 0x1
 13345 22af 32       		.byte	0x32
 13346 22b0 00       		.byte	0
 13347 22b1 17       		.uleb128 0x17
 13348 22b2 54010000 		.4byte	.LVL469
 13349 22b6 D3390000 		.4byte	0x39d3
 13350 22ba C9220000 		.4byte	0x22c9
ARM GAS  C:\Users\RECEPC~1\AppData\Local\Temp\ccp152bc.s 			page 297


 13351 22be 18       		.uleb128 0x18
 13352 22bf 01       		.uleb128 0x1
 13353 22c0 51       		.byte	0x51
 13354 22c1 01       		.uleb128 0x1
 13355 22c2 31       		.byte	0x31
 13356 22c3 18       		.uleb128 0x18
 13357 22c4 01       		.uleb128 0x1
 13358 22c5 50       		.byte	0x50
 13359 22c6 01       		.uleb128 0x1
 13360 22c7 32       		.byte	0x32
 13361 22c8 00       		.byte	0
 13362 22c9 17       		.uleb128 0x17
 13363 22ca 64010000 		.4byte	.LVL470
 13364 22ce D3390000 		.4byte	0x39d3
 13365 22d2 E1220000 		.4byte	0x22e1
 13366 22d6 18       		.uleb128 0x18
 13367 22d7 01       		.uleb128 0x1
 13368 22d8 51       		.byte	0x51
 13369 22d9 01       		.uleb128 0x1
 13370 22da 31       		.byte	0x31
 13371 22db 18       		.uleb128 0x18
 13372 22dc 01       		.uleb128 0x1
 13373 22dd 50       		.byte	0x50
 13374 22de 01       		.uleb128 0x1
 13375 22df 32       		.byte	0x32
 13376 22e0 00       		.byte	0
 13377 22e1 17       		.uleb128 0x17
 13378 22e2 6A010000 		.4byte	.LVL471
 13379 22e6 0A3A0000 		.4byte	0x3a0a
 13380 22ea F4220000 		.4byte	0x22f4
 13381 22ee 18       		.uleb128 0x18
 13382 22ef 01       		.uleb128 0x1
 13383 22f0 50       		.byte	0x50
 13384 22f1 01       		.uleb128 0x1
 13385 22f2 3A       		.byte	0x3a
 13386 22f3 00       		.byte	0
 13387 22f4 15       		.uleb128 0x15
 13388 22f5 6E010000 		.4byte	.LVL472
 13389 22f9 5A3C0000 		.4byte	0x3c5a
 13390 22fd 15       		.uleb128 0x15
 13391 22fe 76010000 		.4byte	.LVL473
 13392 2302 4F3C0000 		.4byte	0x3c4f
 13393 2306 17       		.uleb128 0x17
 13394 2307 EC010000 		.4byte	.LVL474
 13395 230b D3390000 		.4byte	0x39d3
 13396 230f 1F230000 		.4byte	0x231f
 13397 2313 18       		.uleb128 0x18
 13398 2314 01       		.uleb128 0x1
 13399 2315 51       		.byte	0x51
 13400 2316 01       		.uleb128 0x1
 13401 2317 36       		.byte	0x36
 13402 2318 18       		.uleb128 0x18
 13403 2319 01       		.uleb128 0x1
 13404 231a 50       		.byte	0x50
 13405 231b 02       		.uleb128 0x2
 13406 231c 74       		.byte	0x74
 13407 231d 00       		.sleb128 0
ARM GAS  C:\Users\RECEPC~1\AppData\Local\Temp\ccp152bc.s 			page 298


 13408 231e 00       		.byte	0
 13409 231f 17       		.uleb128 0x17
 13410 2320 02020000 		.4byte	.LVL475
 13411 2324 BB3A0000 		.4byte	0x3abb
 13412 2328 58230000 		.4byte	0x2358
 13413 232c 18       		.uleb128 0x18
 13414 232d 01       		.uleb128 0x1
 13415 232e 53       		.byte	0x53
 13416 232f 02       		.uleb128 0x2
 13417 2330 74       		.byte	0x74
 13418 2331 00       		.sleb128 0
 13419 2332 18       		.uleb128 0x18
 13420 2333 01       		.uleb128 0x1
 13421 2334 52       		.byte	0x52
 13422 2335 01       		.uleb128 0x1
 13423 2336 33       		.byte	0x33
 13424 2337 18       		.uleb128 0x18
 13425 2338 01       		.uleb128 0x1
 13426 2339 51       		.byte	0x51
 13427 233a 02       		.uleb128 0x2
 13428 233b 08       		.byte	0x8
 13429 233c 24       		.byte	0x24
 13430 233d 18       		.uleb128 0x18
 13431 233e 01       		.uleb128 0x1
 13432 233f 50       		.byte	0x50
 13433 2340 02       		.uleb128 0x2
 13434 2341 74       		.byte	0x74
 13435 2342 00       		.sleb128 0
 13436 2343 18       		.uleb128 0x18
 13437 2344 02       		.uleb128 0x2
 13438 2345 7D       		.byte	0x7d
 13439 2346 08       		.sleb128 8
 13440 2347 02       		.uleb128 0x2
 13441 2348 08       		.byte	0x8
 13442 2349 4E       		.byte	0x4e
 13443 234a 18       		.uleb128 0x18
 13444 234b 02       		.uleb128 0x2
 13445 234c 7D       		.byte	0x7d
 13446 234d 04       		.sleb128 4
 13447 234e 02       		.uleb128 0x2
 13448 234f 75       		.byte	0x75
 13449 2350 00       		.sleb128 0
 13450 2351 18       		.uleb128 0x18
 13451 2352 02       		.uleb128 0x2
 13452 2353 7D       		.byte	0x7d
 13453 2354 00       		.sleb128 0
 13454 2355 01       		.uleb128 0x1
 13455 2356 31       		.byte	0x31
 13456 2357 00       		.byte	0
 13457 2358 17       		.uleb128 0x17
 13458 2359 26020000 		.4byte	.LVL476
 13459 235d D3390000 		.4byte	0x39d3
 13460 2361 70230000 		.4byte	0x2370
 13461 2365 18       		.uleb128 0x18
 13462 2366 01       		.uleb128 0x1
 13463 2367 51       		.byte	0x51
 13464 2368 01       		.uleb128 0x1
ARM GAS  C:\Users\RECEPC~1\AppData\Local\Temp\ccp152bc.s 			page 299


 13465 2369 3D       		.byte	0x3d
 13466 236a 18       		.uleb128 0x18
 13467 236b 01       		.uleb128 0x1
 13468 236c 50       		.byte	0x50
 13469 236d 01       		.uleb128 0x1
 13470 236e 32       		.byte	0x32
 13471 236f 00       		.byte	0
 13472 2370 17       		.uleb128 0x17
 13473 2371 3A020000 		.4byte	.LVL477
 13474 2375 BB3A0000 		.4byte	0x3abb
 13475 2379 A8230000 		.4byte	0x23a8
 13476 237d 18       		.uleb128 0x18
 13477 237e 01       		.uleb128 0x1
 13478 237f 53       		.byte	0x53
 13479 2380 01       		.uleb128 0x1
 13480 2381 32       		.byte	0x32
 13481 2382 18       		.uleb128 0x18
 13482 2383 01       		.uleb128 0x1
 13483 2384 52       		.byte	0x52
 13484 2385 01       		.uleb128 0x1
 13485 2386 33       		.byte	0x33
 13486 2387 18       		.uleb128 0x18
 13487 2388 01       		.uleb128 0x1
 13488 2389 51       		.byte	0x51
 13489 238a 02       		.uleb128 0x2
 13490 238b 74       		.byte	0x74
 13491 238c 00       		.sleb128 0
 13492 238d 18       		.uleb128 0x18
 13493 238e 01       		.uleb128 0x1
 13494 238f 50       		.byte	0x50
 13495 2390 01       		.uleb128 0x1
 13496 2391 32       		.byte	0x32
 13497 2392 18       		.uleb128 0x18
 13498 2393 02       		.uleb128 0x2
 13499 2394 7D       		.byte	0x7d
 13500 2395 08       		.sleb128 8
 13501 2396 02       		.uleb128 0x2
 13502 2397 08       		.byte	0x8
 13503 2398 4E       		.byte	0x4e
 13504 2399 18       		.uleb128 0x18
 13505 239a 02       		.uleb128 0x2
 13506 239b 7D       		.byte	0x7d
 13507 239c 04       		.sleb128 4
 13508 239d 02       		.uleb128 0x2
 13509 239e 75       		.byte	0x75
 13510 239f 00       		.sleb128 0
 13511 23a0 18       		.uleb128 0x18
 13512 23a1 02       		.uleb128 0x2
 13513 23a2 7D       		.byte	0x7d
 13514 23a3 00       		.sleb128 0
 13515 23a4 02       		.uleb128 0x2
 13516 23a5 76       		.byte	0x76
 13517 23a6 00       		.sleb128 0
 13518 23a7 00       		.byte	0
 13519 23a8 17       		.uleb128 0x17
 13520 23a9 A0020000 		.4byte	.LVL488
 13521 23ad D3390000 		.4byte	0x39d3
ARM GAS  C:\Users\RECEPC~1\AppData\Local\Temp\ccp152bc.s 			page 300


 13522 23b1 C1230000 		.4byte	0x23c1
 13523 23b5 18       		.uleb128 0x18
 13524 23b6 01       		.uleb128 0x1
 13525 23b7 51       		.byte	0x51
 13526 23b8 02       		.uleb128 0x2
 13527 23b9 08       		.byte	0x8
 13528 23ba 86       		.byte	0x86
 13529 23bb 18       		.uleb128 0x18
 13530 23bc 01       		.uleb128 0x1
 13531 23bd 50       		.byte	0x50
 13532 23be 01       		.uleb128 0x1
 13533 23bf 32       		.byte	0x32
 13534 23c0 00       		.byte	0
 13535 23c1 17       		.uleb128 0x17
 13536 23c2 B0020000 		.4byte	.LVL489
 13537 23c6 D3390000 		.4byte	0x39d3
 13538 23ca D9230000 		.4byte	0x23d9
 13539 23ce 18       		.uleb128 0x18
 13540 23cf 01       		.uleb128 0x1
 13541 23d0 51       		.byte	0x51
 13542 23d1 01       		.uleb128 0x1
 13543 23d2 31       		.byte	0x31
 13544 23d3 18       		.uleb128 0x18
 13545 23d4 01       		.uleb128 0x1
 13546 23d5 50       		.byte	0x50
 13547 23d6 01       		.uleb128 0x1
 13548 23d7 32       		.byte	0x32
 13549 23d8 00       		.byte	0
 13550 23d9 17       		.uleb128 0x17
 13551 23da C0020000 		.4byte	.LVL490
 13552 23de D3390000 		.4byte	0x39d3
 13553 23e2 F1230000 		.4byte	0x23f1
 13554 23e6 18       		.uleb128 0x18
 13555 23e7 01       		.uleb128 0x1
 13556 23e8 51       		.byte	0x51
 13557 23e9 01       		.uleb128 0x1
 13558 23ea 31       		.byte	0x31
 13559 23eb 18       		.uleb128 0x18
 13560 23ec 01       		.uleb128 0x1
 13561 23ed 50       		.byte	0x50
 13562 23ee 01       		.uleb128 0x1
 13563 23ef 32       		.byte	0x32
 13564 23f0 00       		.byte	0
 13565 23f1 17       		.uleb128 0x17
 13566 23f2 D0020000 		.4byte	.LVL491
 13567 23f6 D3390000 		.4byte	0x39d3
 13568 23fa 09240000 		.4byte	0x2409
 13569 23fe 18       		.uleb128 0x18
 13570 23ff 01       		.uleb128 0x1
 13571 2400 51       		.byte	0x51
 13572 2401 01       		.uleb128 0x1
 13573 2402 31       		.byte	0x31
 13574 2403 18       		.uleb128 0x18
 13575 2404 01       		.uleb128 0x1
 13576 2405 50       		.byte	0x50
 13577 2406 01       		.uleb128 0x1
 13578 2407 32       		.byte	0x32
ARM GAS  C:\Users\RECEPC~1\AppData\Local\Temp\ccp152bc.s 			page 301


 13579 2408 00       		.byte	0
 13580 2409 17       		.uleb128 0x17
 13581 240a D6020000 		.4byte	.LVL492
 13582 240e 0A3A0000 		.4byte	0x3a0a
 13583 2412 1C240000 		.4byte	0x241c
 13584 2416 18       		.uleb128 0x18
 13585 2417 01       		.uleb128 0x1
 13586 2418 50       		.byte	0x50
 13587 2419 01       		.uleb128 0x1
 13588 241a 3A       		.byte	0x3a
 13589 241b 00       		.byte	0
 13590 241c 15       		.uleb128 0x15
 13591 241d DA020000 		.4byte	.LVL493
 13592 2421 5A3C0000 		.4byte	0x3c5a
 13593 2425 17       		.uleb128 0x17
 13594 2426 0C030000 		.4byte	.LVL494
 13595 242a EA3A0000 		.4byte	0x3aea
 13596 242e 3D240000 		.4byte	0x243d
 13597 2432 18       		.uleb128 0x18
 13598 2433 01       		.uleb128 0x1
 13599 2434 52       		.byte	0x52
 13600 2435 01       		.uleb128 0x1
 13601 2436 30       		.byte	0x30
 13602 2437 18       		.uleb128 0x18
 13603 2438 01       		.uleb128 0x1
 13604 2439 50       		.byte	0x50
 13605 243a 01       		.uleb128 0x1
 13606 243b 32       		.byte	0x32
 13607 243c 00       		.byte	0
 13608 243d 17       		.uleb128 0x17
 13609 243e 24030000 		.4byte	.LVL495
 13610 2442 D3390000 		.4byte	0x39d3
 13611 2446 55240000 		.4byte	0x2455
 13612 244a 18       		.uleb128 0x18
 13613 244b 01       		.uleb128 0x1
 13614 244c 51       		.byte	0x51
 13615 244d 01       		.uleb128 0x1
 13616 244e 31       		.byte	0x31
 13617 244f 18       		.uleb128 0x18
 13618 2450 01       		.uleb128 0x1
 13619 2451 50       		.byte	0x50
 13620 2452 01       		.uleb128 0x1
 13621 2453 32       		.byte	0x32
 13622 2454 00       		.byte	0
 13623 2455 17       		.uleb128 0x17
 13624 2456 58030000 		.4byte	.LVL502
 13625 245a D3390000 		.4byte	0x39d3
 13626 245e 6E240000 		.4byte	0x246e
 13627 2462 18       		.uleb128 0x18
 13628 2463 01       		.uleb128 0x1
 13629 2464 51       		.byte	0x51
 13630 2465 02       		.uleb128 0x2
 13631 2466 08       		.byte	0x8
 13632 2467 86       		.byte	0x86
 13633 2468 18       		.uleb128 0x18
 13634 2469 01       		.uleb128 0x1
 13635 246a 50       		.byte	0x50
ARM GAS  C:\Users\RECEPC~1\AppData\Local\Temp\ccp152bc.s 			page 302


 13636 246b 01       		.uleb128 0x1
 13637 246c 32       		.byte	0x32
 13638 246d 00       		.byte	0
 13639 246e 15       		.uleb128 0x15
 13640 246f 60030000 		.4byte	.LVL503
 13641 2473 4F3C0000 		.4byte	0x3c4f
 13642 2477 17       		.uleb128 0x17
 13643 2478 E4030000 		.4byte	.LVL504
 13644 247c D3390000 		.4byte	0x39d3
 13645 2480 8F240000 		.4byte	0x248f
 13646 2484 18       		.uleb128 0x18
 13647 2485 01       		.uleb128 0x1
 13648 2486 51       		.byte	0x51
 13649 2487 01       		.uleb128 0x1
 13650 2488 3B       		.byte	0x3b
 13651 2489 18       		.uleb128 0x18
 13652 248a 01       		.uleb128 0x1
 13653 248b 50       		.byte	0x50
 13654 248c 01       		.uleb128 0x1
 13655 248d 32       		.byte	0x32
 13656 248e 00       		.byte	0
 13657 248f 17       		.uleb128 0x17
 13658 2490 FA030000 		.4byte	.LVL505
 13659 2494 D3390000 		.4byte	0x39d3
 13660 2498 A7240000 		.4byte	0x24a7
 13661 249c 18       		.uleb128 0x18
 13662 249d 01       		.uleb128 0x1
 13663 249e 51       		.byte	0x51
 13664 249f 01       		.uleb128 0x1
 13665 24a0 3B       		.byte	0x3b
 13666 24a1 18       		.uleb128 0x18
 13667 24a2 01       		.uleb128 0x1
 13668 24a3 50       		.byte	0x50
 13669 24a4 01       		.uleb128 0x1
 13670 24a5 32       		.byte	0x32
 13671 24a6 00       		.byte	0
 13672 24a7 17       		.uleb128 0x17
 13673 24a8 12040000 		.4byte	.LVL506
 13674 24ac D3390000 		.4byte	0x39d3
 13675 24b0 BF240000 		.4byte	0x24bf
 13676 24b4 18       		.uleb128 0x18
 13677 24b5 01       		.uleb128 0x1
 13678 24b6 51       		.byte	0x51
 13679 24b7 01       		.uleb128 0x1
 13680 24b8 3B       		.byte	0x3b
 13681 24b9 18       		.uleb128 0x18
 13682 24ba 01       		.uleb128 0x1
 13683 24bb 50       		.byte	0x50
 13684 24bc 01       		.uleb128 0x1
 13685 24bd 32       		.byte	0x32
 13686 24be 00       		.byte	0
 13687 24bf 17       		.uleb128 0x17
 13688 24c0 2A040000 		.4byte	.LVL507
 13689 24c4 D3390000 		.4byte	0x39d3
 13690 24c8 D7240000 		.4byte	0x24d7
 13691 24cc 18       		.uleb128 0x18
 13692 24cd 01       		.uleb128 0x1
ARM GAS  C:\Users\RECEPC~1\AppData\Local\Temp\ccp152bc.s 			page 303


 13693 24ce 51       		.byte	0x51
 13694 24cf 01       		.uleb128 0x1
 13695 24d0 3B       		.byte	0x3b
 13696 24d1 18       		.uleb128 0x18
 13697 24d2 01       		.uleb128 0x1
 13698 24d3 50       		.byte	0x50
 13699 24d4 01       		.uleb128 0x1
 13700 24d5 32       		.byte	0x32
 13701 24d6 00       		.byte	0
 13702 24d7 17       		.uleb128 0x17
 13703 24d8 3A040000 		.4byte	.LVL508
 13704 24dc D3390000 		.4byte	0x39d3
 13705 24e0 EF240000 		.4byte	0x24ef
 13706 24e4 18       		.uleb128 0x18
 13707 24e5 01       		.uleb128 0x1
 13708 24e6 51       		.byte	0x51
 13709 24e7 01       		.uleb128 0x1
 13710 24e8 31       		.byte	0x31
 13711 24e9 18       		.uleb128 0x18
 13712 24ea 01       		.uleb128 0x1
 13713 24eb 50       		.byte	0x50
 13714 24ec 01       		.uleb128 0x1
 13715 24ed 32       		.byte	0x32
 13716 24ee 00       		.byte	0
 13717 24ef 17       		.uleb128 0x17
 13718 24f0 44040000 		.4byte	.LVL509
 13719 24f4 D3390000 		.4byte	0x39d3
 13720 24f8 07250000 		.4byte	0x2507
 13721 24fc 18       		.uleb128 0x18
 13722 24fd 01       		.uleb128 0x1
 13723 24fe 51       		.byte	0x51
 13724 24ff 01       		.uleb128 0x1
 13725 2500 31       		.byte	0x31
 13726 2501 18       		.uleb128 0x18
 13727 2502 01       		.uleb128 0x1
 13728 2503 50       		.byte	0x50
 13729 2504 01       		.uleb128 0x1
 13730 2505 32       		.byte	0x32
 13731 2506 00       		.byte	0
 13732 2507 17       		.uleb128 0x17
 13733 2508 50040000 		.4byte	.LVL510
 13734 250c 0A3A0000 		.4byte	0x3a0a
 13735 2510 1A250000 		.4byte	0x251a
 13736 2514 18       		.uleb128 0x18
 13737 2515 01       		.uleb128 0x1
 13738 2516 50       		.byte	0x50
 13739 2517 01       		.uleb128 0x1
 13740 2518 3A       		.byte	0x3a
 13741 2519 00       		.byte	0
 13742 251a 15       		.uleb128 0x15
 13743 251b 54040000 		.4byte	.LVL511
 13744 251f 5A3C0000 		.4byte	0x3c5a
 13745 2523 17       		.uleb128 0x17
 13746 2524 5E040000 		.4byte	.LVL512
 13747 2528 093B0000 		.4byte	0x3b09
 13748 252c 3A250000 		.4byte	0x253a
 13749 2530 18       		.uleb128 0x18
ARM GAS  C:\Users\RECEPC~1\AppData\Local\Temp\ccp152bc.s 			page 304


 13750 2531 01       		.uleb128 0x1
 13751 2532 50       		.byte	0x50
 13752 2533 05       		.uleb128 0x5
 13753 2534 03       		.byte	0x3
 13754 2535 00000000 		.4byte	animacion
 13755 2539 00       		.byte	0
 13756 253a 15       		.uleb128 0x15
 13757 253b 62040000 		.4byte	.LVL513
 13758 253f 1A3B0000 		.4byte	0x3b1a
 13759 2543 15       		.uleb128 0x15
 13760 2544 66040000 		.4byte	.LVL514
 13761 2548 4F3C0000 		.4byte	0x3c4f
 13762 254c 17       		.uleb128 0x17
 13763 254d BC040000 		.4byte	.LVL515
 13764 2551 D3390000 		.4byte	0x39d3
 13765 2555 64250000 		.4byte	0x2564
 13766 2559 18       		.uleb128 0x18
 13767 255a 01       		.uleb128 0x1
 13768 255b 51       		.byte	0x51
 13769 255c 01       		.uleb128 0x1
 13770 255d 3A       		.byte	0x3a
 13771 255e 18       		.uleb128 0x18
 13772 255f 01       		.uleb128 0x1
 13773 2560 50       		.byte	0x50
 13774 2561 01       		.uleb128 0x1
 13775 2562 32       		.byte	0x32
 13776 2563 00       		.byte	0
 13777 2564 17       		.uleb128 0x17
 13778 2565 D4040000 		.4byte	.LVL516
 13779 2569 D3390000 		.4byte	0x39d3
 13780 256d 7C250000 		.4byte	0x257c
 13781 2571 18       		.uleb128 0x18
 13782 2572 01       		.uleb128 0x1
 13783 2573 51       		.byte	0x51
 13784 2574 01       		.uleb128 0x1
 13785 2575 31       		.byte	0x31
 13786 2576 18       		.uleb128 0x18
 13787 2577 01       		.uleb128 0x1
 13788 2578 50       		.byte	0x50
 13789 2579 01       		.uleb128 0x1
 13790 257a 32       		.byte	0x32
 13791 257b 00       		.byte	0
 13792 257c 17       		.uleb128 0x17
 13793 257d EE040000 		.4byte	.LVL517
 13794 2581 D3390000 		.4byte	0x39d3
 13795 2585 94250000 		.4byte	0x2594
 13796 2589 18       		.uleb128 0x18
 13797 258a 01       		.uleb128 0x1
 13798 258b 51       		.byte	0x51
 13799 258c 01       		.uleb128 0x1
 13800 258d 37       		.byte	0x37
 13801 258e 18       		.uleb128 0x18
 13802 258f 01       		.uleb128 0x1
 13803 2590 50       		.byte	0x50
 13804 2591 01       		.uleb128 0x1
 13805 2592 32       		.byte	0x32
 13806 2593 00       		.byte	0
ARM GAS  C:\Users\RECEPC~1\AppData\Local\Temp\ccp152bc.s 			page 305


 13807 2594 17       		.uleb128 0x17
 13808 2595 FE040000 		.4byte	.LVL518
 13809 2599 D3390000 		.4byte	0x39d3
 13810 259d AC250000 		.4byte	0x25ac
 13811 25a1 18       		.uleb128 0x18
 13812 25a2 01       		.uleb128 0x1
 13813 25a3 51       		.byte	0x51
 13814 25a4 01       		.uleb128 0x1
 13815 25a5 31       		.byte	0x31
 13816 25a6 18       		.uleb128 0x18
 13817 25a7 01       		.uleb128 0x1
 13818 25a8 50       		.byte	0x50
 13819 25a9 01       		.uleb128 0x1
 13820 25aa 32       		.byte	0x32
 13821 25ab 00       		.byte	0
 13822 25ac 17       		.uleb128 0x17
 13823 25ad 04050000 		.4byte	.LVL519
 13824 25b1 0A3A0000 		.4byte	0x3a0a
 13825 25b5 BF250000 		.4byte	0x25bf
 13826 25b9 18       		.uleb128 0x18
 13827 25ba 01       		.uleb128 0x1
 13828 25bb 50       		.byte	0x50
 13829 25bc 01       		.uleb128 0x1
 13830 25bd 3A       		.byte	0x3a
 13831 25be 00       		.byte	0
 13832 25bf 15       		.uleb128 0x15
 13833 25c0 08050000 		.4byte	.LVL520
 13834 25c4 5A3C0000 		.4byte	0x3c5a
 13835 25c8 17       		.uleb128 0x17
 13836 25c9 24050000 		.4byte	.LVL521
 13837 25cd D3390000 		.4byte	0x39d3
 13838 25d1 E0250000 		.4byte	0x25e0
 13839 25d5 18       		.uleb128 0x18
 13840 25d6 01       		.uleb128 0x1
 13841 25d7 51       		.byte	0x51
 13842 25d8 01       		.uleb128 0x1
 13843 25d9 31       		.byte	0x31
 13844 25da 18       		.uleb128 0x18
 13845 25db 01       		.uleb128 0x1
 13846 25dc 50       		.byte	0x50
 13847 25dd 01       		.uleb128 0x1
 13848 25de 32       		.byte	0x32
 13849 25df 00       		.byte	0
 13850 25e0 15       		.uleb128 0x15
 13851 25e1 52050000 		.4byte	.LVL522
 13852 25e5 213B0000 		.4byte	0x3b21
 13853 25e9 17       		.uleb128 0x17
 13854 25ea 74050000 		.4byte	.LVL523
 13855 25ee 363B0000 		.4byte	0x3b36
 13856 25f2 00260000 		.4byte	0x2600
 13857 25f6 18       		.uleb128 0x18
 13858 25f7 01       		.uleb128 0x1
 13859 25f8 52       		.byte	0x52
 13860 25f9 05       		.uleb128 0x5
 13861 25fa 03       		.byte	0x3
 13862 25fb 65000000 		.4byte	bufferDisplay2+101
 13863 25ff 00       		.byte	0
ARM GAS  C:\Users\RECEPC~1\AppData\Local\Temp\ccp152bc.s 			page 306


 13864 2600 15       		.uleb128 0x15
 13865 2601 7C050000 		.4byte	.LVL524
 13866 2605 2B3C0000 		.4byte	0x3c2b
 13867 2609 15       		.uleb128 0x15
 13868 260a 80050000 		.4byte	.LVL525
 13869 260e 323C0000 		.4byte	0x3c32
 13870 2612 15       		.uleb128 0x15
 13871 2613 88050000 		.4byte	.LVL526
 13872 2617 263A0000 		.4byte	0x3a26
 13873 261b 15       		.uleb128 0x15
 13874 261c 94050000 		.4byte	.LVL527
 13875 2620 5A3B0000 		.4byte	0x3b5a
 13876 2624 17       		.uleb128 0x17
 13877 2625 AC050000 		.4byte	.LVL528
 13878 2629 D3390000 		.4byte	0x39d3
 13879 262d 3C260000 		.4byte	0x263c
 13880 2631 18       		.uleb128 0x18
 13881 2632 01       		.uleb128 0x1
 13882 2633 51       		.byte	0x51
 13883 2634 01       		.uleb128 0x1
 13884 2635 38       		.byte	0x38
 13885 2636 18       		.uleb128 0x18
 13886 2637 01       		.uleb128 0x1
 13887 2638 50       		.byte	0x50
 13888 2639 01       		.uleb128 0x1
 13889 263a 32       		.byte	0x32
 13890 263b 00       		.byte	0
 13891 263c 17       		.uleb128 0x17
 13892 263d B6050000 		.4byte	.LVL529
 13893 2641 E9390000 		.4byte	0x39e9
 13894 2645 5D260000 		.4byte	0x265d
 13895 2649 18       		.uleb128 0x18
 13896 264a 01       		.uleb128 0x1
 13897 264b 52       		.byte	0x52
 13898 264c 01       		.uleb128 0x1
 13899 264d 42       		.byte	0x42
 13900 264e 18       		.uleb128 0x18
 13901 264f 01       		.uleb128 0x1
 13902 2650 51       		.byte	0x51
 13903 2651 05       		.uleb128 0x5
 13904 2652 03       		.byte	0x3
 13905 2653 65000000 		.4byte	bufferDisplay2+101
 13906 2657 18       		.uleb128 0x18
 13907 2658 01       		.uleb128 0x1
 13908 2659 50       		.byte	0x50
 13909 265a 01       		.uleb128 0x1
 13910 265b 32       		.byte	0x32
 13911 265c 00       		.byte	0
 13912 265d 17       		.uleb128 0x17
 13913 265e C4050000 		.4byte	.LVL530
 13914 2662 D3390000 		.4byte	0x39d3
 13915 2666 75260000 		.4byte	0x2675
 13916 266a 18       		.uleb128 0x18
 13917 266b 01       		.uleb128 0x1
 13918 266c 51       		.byte	0x51
 13919 266d 01       		.uleb128 0x1
 13920 266e 30       		.byte	0x30
ARM GAS  C:\Users\RECEPC~1\AppData\Local\Temp\ccp152bc.s 			page 307


 13921 266f 18       		.uleb128 0x18
 13922 2670 01       		.uleb128 0x1
 13923 2671 50       		.byte	0x50
 13924 2672 01       		.uleb128 0x1
 13925 2673 32       		.byte	0x32
 13926 2674 00       		.byte	0
 13927 2675 17       		.uleb128 0x17
 13928 2676 CA050000 		.4byte	.LVL531
 13929 267a 0A3A0000 		.4byte	0x3a0a
 13930 267e 89260000 		.4byte	0x2689
 13931 2682 18       		.uleb128 0x18
 13932 2683 01       		.uleb128 0x1
 13933 2684 50       		.byte	0x50
 13934 2685 02       		.uleb128 0x2
 13935 2686 08       		.byte	0x8
 13936 2687 C8       		.byte	0xc8
 13937 2688 00       		.byte	0
 13938 2689 17       		.uleb128 0x17
 13939 268a D2050000 		.4byte	.LVL532
 13940 268e D3390000 		.4byte	0x39d3
 13941 2692 A1260000 		.4byte	0x26a1
 13942 2696 18       		.uleb128 0x18
 13943 2697 01       		.uleb128 0x1
 13944 2698 51       		.byte	0x51
 13945 2699 01       		.uleb128 0x1
 13946 269a 31       		.byte	0x31
 13947 269b 18       		.uleb128 0x18
 13948 269c 01       		.uleb128 0x1
 13949 269d 50       		.byte	0x50
 13950 269e 01       		.uleb128 0x1
 13951 269f 32       		.byte	0x32
 13952 26a0 00       		.byte	0
 13953 26a1 15       		.uleb128 0x15
 13954 26a2 DE050000 		.4byte	.LVL533
 13955 26a6 4F3C0000 		.4byte	0x3c4f
 13956 26aa 17       		.uleb128 0x17
 13957 26ab 12060000 		.4byte	.LVL534
 13958 26af D3390000 		.4byte	0x39d3
 13959 26b3 C2260000 		.4byte	0x26c2
 13960 26b7 18       		.uleb128 0x18
 13961 26b8 01       		.uleb128 0x1
 13962 26b9 51       		.byte	0x51
 13963 26ba 01       		.uleb128 0x1
 13964 26bb 31       		.byte	0x31
 13965 26bc 18       		.uleb128 0x18
 13966 26bd 01       		.uleb128 0x1
 13967 26be 50       		.byte	0x50
 13968 26bf 01       		.uleb128 0x1
 13969 26c0 32       		.byte	0x32
 13970 26c1 00       		.byte	0
 13971 26c2 17       		.uleb128 0x17
 13972 26c3 1E060000 		.4byte	.LVL535
 13973 26c7 0A3A0000 		.4byte	0x3a0a
 13974 26cb D5260000 		.4byte	0x26d5
 13975 26cf 18       		.uleb128 0x18
 13976 26d0 01       		.uleb128 0x1
 13977 26d1 50       		.byte	0x50
ARM GAS  C:\Users\RECEPC~1\AppData\Local\Temp\ccp152bc.s 			page 308


 13978 26d2 01       		.uleb128 0x1
 13979 26d3 3A       		.byte	0x3a
 13980 26d4 00       		.byte	0
 13981 26d5 15       		.uleb128 0x15
 13982 26d6 22060000 		.4byte	.LVL536
 13983 26da 5A3C0000 		.4byte	0x3c5a
 13984 26de 15       		.uleb128 0x15
 13985 26df 30060000 		.4byte	.LVL537
 13986 26e3 263A0000 		.4byte	0x3a26
 13987 26e7 17       		.uleb128 0x17
 13988 26e8 68060000 		.4byte	.LVL538
 13989 26ec D3390000 		.4byte	0x39d3
 13990 26f0 FF260000 		.4byte	0x26ff
 13991 26f4 18       		.uleb128 0x18
 13992 26f5 01       		.uleb128 0x1
 13993 26f6 51       		.byte	0x51
 13994 26f7 01       		.uleb128 0x1
 13995 26f8 31       		.byte	0x31
 13996 26f9 18       		.uleb128 0x18
 13997 26fa 01       		.uleb128 0x1
 13998 26fb 50       		.byte	0x50
 13999 26fc 01       		.uleb128 0x1
 14000 26fd 32       		.byte	0x32
 14001 26fe 00       		.byte	0
 14002 26ff 15       		.uleb128 0x15
 14003 2700 88060000 		.4byte	.LVL539
 14004 2704 6B3B0000 		.4byte	0x3b6b
 14005 2708 15       		.uleb128 0x15
 14006 2709 A6060000 		.4byte	.LVL540
 14007 270d 803B0000 		.4byte	0x3b80
 14008 2711 17       		.uleb128 0x17
 14009 2712 B4060000 		.4byte	.LVL541
 14010 2716 D3390000 		.4byte	0x39d3
 14011 271a 29270000 		.4byte	0x2729
 14012 271e 18       		.uleb128 0x18
 14013 271f 01       		.uleb128 0x1
 14014 2720 51       		.byte	0x51
 14015 2721 01       		.uleb128 0x1
 14016 2722 31       		.byte	0x31
 14017 2723 18       		.uleb128 0x18
 14018 2724 01       		.uleb128 0x1
 14019 2725 50       		.byte	0x50
 14020 2726 01       		.uleb128 0x1
 14021 2727 32       		.byte	0x32
 14022 2728 00       		.byte	0
 14023 2729 17       		.uleb128 0x17
 14024 272a CC060000 		.4byte	.LVL542
 14025 272e D3390000 		.4byte	0x39d3
 14026 2732 41270000 		.4byte	0x2741
 14027 2736 18       		.uleb128 0x18
 14028 2737 01       		.uleb128 0x1
 14029 2738 51       		.byte	0x51
 14030 2739 01       		.uleb128 0x1
 14031 273a 3B       		.byte	0x3b
 14032 273b 18       		.uleb128 0x18
 14033 273c 01       		.uleb128 0x1
 14034 273d 50       		.byte	0x50
ARM GAS  C:\Users\RECEPC~1\AppData\Local\Temp\ccp152bc.s 			page 309


 14035 273e 01       		.uleb128 0x1
 14036 273f 32       		.byte	0x32
 14037 2740 00       		.byte	0
 14038 2741 15       		.uleb128 0x15
 14039 2742 EA060000 		.4byte	.LVL543
 14040 2746 6B3B0000 		.4byte	0x3b6b
 14041 274a 15       		.uleb128 0x15
 14042 274b 08070000 		.4byte	.LVL544
 14043 274f 803B0000 		.4byte	0x3b80
 14044 2753 17       		.uleb128 0x17
 14045 2754 16070000 		.4byte	.LVL545
 14046 2758 D3390000 		.4byte	0x39d3
 14047 275c 6B270000 		.4byte	0x276b
 14048 2760 18       		.uleb128 0x18
 14049 2761 01       		.uleb128 0x1
 14050 2762 51       		.byte	0x51
 14051 2763 01       		.uleb128 0x1
 14052 2764 31       		.byte	0x31
 14053 2765 18       		.uleb128 0x18
 14054 2766 01       		.uleb128 0x1
 14055 2767 50       		.byte	0x50
 14056 2768 01       		.uleb128 0x1
 14057 2769 32       		.byte	0x32
 14058 276a 00       		.byte	0
 14059 276b 17       		.uleb128 0x17
 14060 276c 2E070000 		.4byte	.LVL546
 14061 2770 D3390000 		.4byte	0x39d3
 14062 2774 83270000 		.4byte	0x2783
 14063 2778 18       		.uleb128 0x18
 14064 2779 01       		.uleb128 0x1
 14065 277a 51       		.byte	0x51
 14066 277b 01       		.uleb128 0x1
 14067 277c 3B       		.byte	0x3b
 14068 277d 18       		.uleb128 0x18
 14069 277e 01       		.uleb128 0x1
 14070 277f 50       		.byte	0x50
 14071 2780 01       		.uleb128 0x1
 14072 2781 32       		.byte	0x32
 14073 2782 00       		.byte	0
 14074 2783 17       		.uleb128 0x17
 14075 2784 4C070000 		.4byte	.LVL547
 14076 2788 EA3A0000 		.4byte	0x3aea
 14077 278c A0270000 		.4byte	0x27a0
 14078 2790 18       		.uleb128 0x18
 14079 2791 01       		.uleb128 0x1
 14080 2792 52       		.byte	0x52
 14081 2793 01       		.uleb128 0x1
 14082 2794 30       		.byte	0x30
 14083 2795 18       		.uleb128 0x18
 14084 2796 01       		.uleb128 0x1
 14085 2797 51       		.byte	0x51
 14086 2798 01       		.uleb128 0x1
 14087 2799 3A       		.byte	0x3a
 14088 279a 18       		.uleb128 0x18
 14089 279b 01       		.uleb128 0x1
 14090 279c 50       		.byte	0x50
 14091 279d 01       		.uleb128 0x1
ARM GAS  C:\Users\RECEPC~1\AppData\Local\Temp\ccp152bc.s 			page 310


 14092 279e 32       		.byte	0x32
 14093 279f 00       		.byte	0
 14094 27a0 17       		.uleb128 0x17
 14095 27a1 8E070000 		.4byte	.LVL554
 14096 27a5 D3390000 		.4byte	0x39d3
 14097 27a9 B8270000 		.4byte	0x27b8
 14098 27ad 18       		.uleb128 0x18
 14099 27ae 01       		.uleb128 0x1
 14100 27af 51       		.byte	0x51
 14101 27b0 01       		.uleb128 0x1
 14102 27b1 31       		.byte	0x31
 14103 27b2 18       		.uleb128 0x18
 14104 27b3 01       		.uleb128 0x1
 14105 27b4 50       		.byte	0x50
 14106 27b5 01       		.uleb128 0x1
 14107 27b6 32       		.byte	0x32
 14108 27b7 00       		.byte	0
 14109 27b8 15       		.uleb128 0x15
 14110 27b9 DA070000 		.4byte	.LVL569
 14111 27bd 5A3C0000 		.4byte	0x3c5a
 14112 27c1 15       		.uleb128 0x15
 14113 27c2 42080000 		.4byte	.LVL576
 14114 27c6 803B0000 		.4byte	0x3b80
 14115 27ca 17       		.uleb128 0x17
 14116 27cb 50080000 		.4byte	.LVL577
 14117 27cf D3390000 		.4byte	0x39d3
 14118 27d3 E2270000 		.4byte	0x27e2
 14119 27d7 18       		.uleb128 0x18
 14120 27d8 01       		.uleb128 0x1
 14121 27d9 51       		.byte	0x51
 14122 27da 01       		.uleb128 0x1
 14123 27db 31       		.byte	0x31
 14124 27dc 18       		.uleb128 0x18
 14125 27dd 01       		.uleb128 0x1
 14126 27de 50       		.byte	0x50
 14127 27df 01       		.uleb128 0x1
 14128 27e0 32       		.byte	0x32
 14129 27e1 00       		.byte	0
 14130 27e2 17       		.uleb128 0x17
 14131 27e3 5E080000 		.4byte	.LVL578
 14132 27e7 D3390000 		.4byte	0x39d3
 14133 27eb FA270000 		.4byte	0x27fa
 14134 27ef 18       		.uleb128 0x18
 14135 27f0 01       		.uleb128 0x1
 14136 27f1 51       		.byte	0x51
 14137 27f2 01       		.uleb128 0x1
 14138 27f3 37       		.byte	0x37
 14139 27f4 18       		.uleb128 0x18
 14140 27f5 01       		.uleb128 0x1
 14141 27f6 50       		.byte	0x50
 14142 27f7 01       		.uleb128 0x1
 14143 27f8 32       		.byte	0x32
 14144 27f9 00       		.byte	0
 14145 27fa 17       		.uleb128 0x17
 14146 27fb 8A080000 		.4byte	.LVL585
 14147 27ff D3390000 		.4byte	0x39d3
 14148 2803 12280000 		.4byte	0x2812
ARM GAS  C:\Users\RECEPC~1\AppData\Local\Temp\ccp152bc.s 			page 311


 14149 2807 18       		.uleb128 0x18
 14150 2808 01       		.uleb128 0x1
 14151 2809 51       		.byte	0x51
 14152 280a 01       		.uleb128 0x1
 14153 280b 37       		.byte	0x37
 14154 280c 18       		.uleb128 0x18
 14155 280d 01       		.uleb128 0x1
 14156 280e 50       		.byte	0x50
 14157 280f 01       		.uleb128 0x1
 14158 2810 32       		.byte	0x32
 14159 2811 00       		.byte	0
 14160 2812 17       		.uleb128 0x17
 14161 2813 EA080000 		.4byte	.LVL596
 14162 2817 D3390000 		.4byte	0x39d3
 14163 281b 2B280000 		.4byte	0x282b
 14164 281f 18       		.uleb128 0x18
 14165 2820 01       		.uleb128 0x1
 14166 2821 51       		.byte	0x51
 14167 2822 02       		.uleb128 0x2
 14168 2823 08       		.byte	0x8
 14169 2824 25       		.byte	0x25
 14170 2825 18       		.uleb128 0x18
 14171 2826 01       		.uleb128 0x1
 14172 2827 50       		.byte	0x50
 14173 2828 01       		.uleb128 0x1
 14174 2829 32       		.byte	0x32
 14175 282a 00       		.byte	0
 14176 282b 15       		.uleb128 0x15
 14177 282c EE080000 		.4byte	.LVL597
 14178 2830 5A3C0000 		.4byte	0x3c5a
 14179 2834 15       		.uleb128 0x15
 14180 2835 F6080000 		.4byte	.LVL598
 14181 2839 4F3C0000 		.4byte	0x3c4f
 14182 283d 17       		.uleb128 0x17
 14183 283e 52090000 		.4byte	.LVL599
 14184 2842 D3390000 		.4byte	0x39d3
 14185 2846 55280000 		.4byte	0x2855
 14186 284a 18       		.uleb128 0x18
 14187 284b 01       		.uleb128 0x1
 14188 284c 51       		.byte	0x51
 14189 284d 01       		.uleb128 0x1
 14190 284e 42       		.byte	0x42
 14191 284f 18       		.uleb128 0x18
 14192 2850 01       		.uleb128 0x1
 14193 2851 50       		.byte	0x50
 14194 2852 01       		.uleb128 0x1
 14195 2853 32       		.byte	0x32
 14196 2854 00       		.byte	0
 14197 2855 17       		.uleb128 0x17
 14198 2856 6C090000 		.4byte	.LVL600
 14199 285a D3390000 		.4byte	0x39d3
 14200 285e 6D280000 		.4byte	0x286d
 14201 2862 18       		.uleb128 0x18
 14202 2863 01       		.uleb128 0x1
 14203 2864 51       		.byte	0x51
 14204 2865 01       		.uleb128 0x1
 14205 2866 37       		.byte	0x37
ARM GAS  C:\Users\RECEPC~1\AppData\Local\Temp\ccp152bc.s 			page 312


 14206 2867 18       		.uleb128 0x18
 14207 2868 01       		.uleb128 0x1
 14208 2869 50       		.byte	0x50
 14209 286a 01       		.uleb128 0x1
 14210 286b 32       		.byte	0x32
 14211 286c 00       		.byte	0
 14212 286d 17       		.uleb128 0x17
 14213 286e 7C090000 		.4byte	.LVL601
 14214 2872 D3390000 		.4byte	0x39d3
 14215 2876 85280000 		.4byte	0x2885
 14216 287a 18       		.uleb128 0x18
 14217 287b 01       		.uleb128 0x1
 14218 287c 51       		.byte	0x51
 14219 287d 01       		.uleb128 0x1
 14220 287e 31       		.byte	0x31
 14221 287f 18       		.uleb128 0x18
 14222 2880 01       		.uleb128 0x1
 14223 2881 50       		.byte	0x50
 14224 2882 01       		.uleb128 0x1
 14225 2883 32       		.byte	0x32
 14226 2884 00       		.byte	0
 14227 2885 17       		.uleb128 0x17
 14228 2886 86090000 		.4byte	.LVL602
 14229 288a D3390000 		.4byte	0x39d3
 14230 288e 9D280000 		.4byte	0x289d
 14231 2892 18       		.uleb128 0x18
 14232 2893 01       		.uleb128 0x1
 14233 2894 51       		.byte	0x51
 14234 2895 01       		.uleb128 0x1
 14235 2896 31       		.byte	0x31
 14236 2897 18       		.uleb128 0x18
 14237 2898 01       		.uleb128 0x1
 14238 2899 50       		.byte	0x50
 14239 289a 01       		.uleb128 0x1
 14240 289b 32       		.byte	0x32
 14241 289c 00       		.byte	0
 14242 289d 17       		.uleb128 0x17
 14243 289e 92090000 		.4byte	.LVL603
 14244 28a2 0A3A0000 		.4byte	0x3a0a
 14245 28a6 B0280000 		.4byte	0x28b0
 14246 28aa 18       		.uleb128 0x18
 14247 28ab 01       		.uleb128 0x1
 14248 28ac 50       		.byte	0x50
 14249 28ad 01       		.uleb128 0x1
 14250 28ae 3A       		.byte	0x3a
 14251 28af 00       		.byte	0
 14252 28b0 15       		.uleb128 0x15
 14253 28b1 96090000 		.4byte	.LVL604
 14254 28b5 5A3C0000 		.4byte	0x3c5a
 14255 28b9 17       		.uleb128 0x17
 14256 28ba A0090000 		.4byte	.LVL605
 14257 28be 093B0000 		.4byte	0x3b09
 14258 28c2 D0280000 		.4byte	0x28d0
 14259 28c6 18       		.uleb128 0x18
 14260 28c7 01       		.uleb128 0x1
 14261 28c8 50       		.byte	0x50
 14262 28c9 05       		.uleb128 0x5
ARM GAS  C:\Users\RECEPC~1\AppData\Local\Temp\ccp152bc.s 			page 313


 14263 28ca 03       		.byte	0x3
 14264 28cb 00000000 		.4byte	animacion
 14265 28cf 00       		.byte	0
 14266 28d0 15       		.uleb128 0x15
 14267 28d1 A4090000 		.4byte	.LVL606
 14268 28d5 1A3B0000 		.4byte	0x3b1a
 14269 28d9 17       		.uleb128 0x17
 14270 28da AA090000 		.4byte	.LVL607
 14271 28de 963B0000 		.4byte	0x3b96
 14272 28e2 EC280000 		.4byte	0x28ec
 14273 28e6 18       		.uleb128 0x18
 14274 28e7 01       		.uleb128 0x1
 14275 28e8 50       		.byte	0x50
 14276 28e9 01       		.uleb128 0x1
 14277 28ea 32       		.byte	0x32
 14278 28eb 00       		.byte	0
 14279 28ec 17       		.uleb128 0x17
 14280 28ed B4090000 		.4byte	.LVL608
 14281 28f1 AB3B0000 		.4byte	0x3bab
 14282 28f5 00290000 		.4byte	0x2900
 14283 28f9 18       		.uleb128 0x18
 14284 28fa 01       		.uleb128 0x1
 14285 28fb 51       		.byte	0x51
 14286 28fc 02       		.uleb128 0x2
 14287 28fd 08       		.byte	0x8
 14288 28fe 33       		.byte	0x33
 14289 28ff 00       		.byte	0
 14290 2900 17       		.uleb128 0x17
 14291 2901 BE090000 		.4byte	.LVL610
 14292 2905 C53B0000 		.4byte	0x3bc5
 14293 2909 13290000 		.4byte	0x2913
 14294 290d 18       		.uleb128 0x18
 14295 290e 01       		.uleb128 0x1
 14296 290f 50       		.byte	0x50
 14297 2910 01       		.uleb128 0x1
 14298 2911 32       		.byte	0x32
 14299 2912 00       		.byte	0
 14300 2913 15       		.uleb128 0x15
 14301 2914 DC090000 		.4byte	.LVL617
 14302 2918 DA3B0000 		.4byte	0x3bda
 14303 291c 17       		.uleb128 0x17
 14304 291d 660A0000 		.4byte	.LVL628
 14305 2921 D3390000 		.4byte	0x39d3
 14306 2925 34290000 		.4byte	0x2934
 14307 2929 18       		.uleb128 0x18
 14308 292a 01       		.uleb128 0x1
 14309 292b 51       		.byte	0x51
 14310 292c 01       		.uleb128 0x1
 14311 292d 43       		.byte	0x43
 14312 292e 18       		.uleb128 0x18
 14313 292f 01       		.uleb128 0x1
 14314 2930 50       		.byte	0x50
 14315 2931 01       		.uleb128 0x1
 14316 2932 32       		.byte	0x32
 14317 2933 00       		.byte	0
 14318 2934 15       		.uleb128 0x15
 14319 2935 6A0A0000 		.4byte	.LVL629
ARM GAS  C:\Users\RECEPC~1\AppData\Local\Temp\ccp152bc.s 			page 314


 14320 2939 5A3C0000 		.4byte	0x3c5a
 14321 293d 17       		.uleb128 0x17
 14322 293e 720A0000 		.4byte	.LVL630
 14323 2942 0A3A0000 		.4byte	0x3a0a
 14324 2946 52290000 		.4byte	0x2952
 14325 294a 18       		.uleb128 0x18
 14326 294b 01       		.uleb128 0x1
 14327 294c 50       		.byte	0x50
 14328 294d 03       		.uleb128 0x3
 14329 294e 0A       		.byte	0xa
 14330 294f BC02     		.2byte	0x2bc
 14331 2951 00       		.byte	0
 14332 2952 17       		.uleb128 0x17
 14333 2953 860A0000 		.4byte	.LVL631
 14334 2957 D3390000 		.4byte	0x39d3
 14335 295b 6A290000 		.4byte	0x296a
 14336 295f 18       		.uleb128 0x18
 14337 2960 01       		.uleb128 0x1
 14338 2961 51       		.byte	0x51
 14339 2962 01       		.uleb128 0x1
 14340 2963 3E       		.byte	0x3e
 14341 2964 18       		.uleb128 0x18
 14342 2965 01       		.uleb128 0x1
 14343 2966 50       		.byte	0x50
 14344 2967 01       		.uleb128 0x1
 14345 2968 32       		.byte	0x32
 14346 2969 00       		.byte	0
 14347 296a 17       		.uleb128 0x17
 14348 296b A20A0000 		.4byte	.LVL632
 14349 296f D3390000 		.4byte	0x39d3
 14350 2973 82290000 		.4byte	0x2982
 14351 2977 18       		.uleb128 0x18
 14352 2978 01       		.uleb128 0x1
 14353 2979 51       		.byte	0x51
 14354 297a 01       		.uleb128 0x1
 14355 297b 31       		.byte	0x31
 14356 297c 18       		.uleb128 0x18
 14357 297d 01       		.uleb128 0x1
 14358 297e 50       		.byte	0x50
 14359 297f 01       		.uleb128 0x1
 14360 2980 32       		.byte	0x32
 14361 2981 00       		.byte	0
 14362 2982 15       		.uleb128 0x15
 14363 2983 AA0A0000 		.4byte	.LVL633
 14364 2987 4F3C0000 		.4byte	0x3c4f
 14365 298b 17       		.uleb128 0x17
 14366 298c 340B0000 		.4byte	.LVL634
 14367 2990 D3390000 		.4byte	0x39d3
 14368 2994 A4290000 		.4byte	0x29a4
 14369 2998 18       		.uleb128 0x18
 14370 2999 01       		.uleb128 0x1
 14371 299a 51       		.byte	0x51
 14372 299b 02       		.uleb128 0x2
 14373 299c 08       		.byte	0x8
 14374 299d 2A       		.byte	0x2a
 14375 299e 18       		.uleb128 0x18
 14376 299f 01       		.uleb128 0x1
ARM GAS  C:\Users\RECEPC~1\AppData\Local\Temp\ccp152bc.s 			page 315


 14377 29a0 50       		.byte	0x50
 14378 29a1 01       		.uleb128 0x1
 14379 29a2 32       		.byte	0x32
 14380 29a3 00       		.byte	0
 14381 29a4 17       		.uleb128 0x17
 14382 29a5 3E0B0000 		.4byte	.LVL635
 14383 29a9 D3390000 		.4byte	0x39d3
 14384 29ad BD290000 		.4byte	0x29bd
 14385 29b1 18       		.uleb128 0x18
 14386 29b2 01       		.uleb128 0x1
 14387 29b3 51       		.byte	0x51
 14388 29b4 02       		.uleb128 0x2
 14389 29b5 08       		.byte	0x8
 14390 29b6 23       		.byte	0x23
 14391 29b7 18       		.uleb128 0x18
 14392 29b8 01       		.uleb128 0x1
 14393 29b9 50       		.byte	0x50
 14394 29ba 01       		.uleb128 0x1
 14395 29bb 32       		.byte	0x32
 14396 29bc 00       		.byte	0
 14397 29bd 17       		.uleb128 0x17
 14398 29be 680B0000 		.4byte	.LVL636
 14399 29c2 D3390000 		.4byte	0x39d3
 14400 29c6 D6290000 		.4byte	0x29d6
 14401 29ca 18       		.uleb128 0x18
 14402 29cb 01       		.uleb128 0x1
 14403 29cc 51       		.byte	0x51
 14404 29cd 02       		.uleb128 0x2
 14405 29ce 08       		.byte	0x8
 14406 29cf 25       		.byte	0x25
 14407 29d0 18       		.uleb128 0x18
 14408 29d1 01       		.uleb128 0x1
 14409 29d2 50       		.byte	0x50
 14410 29d3 01       		.uleb128 0x1
 14411 29d4 32       		.byte	0x32
 14412 29d5 00       		.byte	0
 14413 29d6 17       		.uleb128 0x17
 14414 29d7 840B0000 		.4byte	.LVL637
 14415 29db D3390000 		.4byte	0x39d3
 14416 29df EE290000 		.4byte	0x29ee
 14417 29e3 18       		.uleb128 0x18
 14418 29e4 01       		.uleb128 0x1
 14419 29e5 51       		.byte	0x51
 14420 29e6 01       		.uleb128 0x1
 14421 29e7 31       		.byte	0x31
 14422 29e8 18       		.uleb128 0x18
 14423 29e9 01       		.uleb128 0x1
 14424 29ea 50       		.byte	0x50
 14425 29eb 01       		.uleb128 0x1
 14426 29ec 32       		.byte	0x32
 14427 29ed 00       		.byte	0
 14428 29ee 17       		.uleb128 0x17
 14429 29ef 940B0000 		.4byte	.LVL638
 14430 29f3 D3390000 		.4byte	0x39d3
 14431 29f7 062A0000 		.4byte	0x2a06
 14432 29fb 18       		.uleb128 0x18
 14433 29fc 01       		.uleb128 0x1
ARM GAS  C:\Users\RECEPC~1\AppData\Local\Temp\ccp152bc.s 			page 316


 14434 29fd 51       		.byte	0x51
 14435 29fe 01       		.uleb128 0x1
 14436 29ff 31       		.byte	0x31
 14437 2a00 18       		.uleb128 0x18
 14438 2a01 01       		.uleb128 0x1
 14439 2a02 50       		.byte	0x50
 14440 2a03 01       		.uleb128 0x1
 14441 2a04 32       		.byte	0x32
 14442 2a05 00       		.byte	0
 14443 2a06 17       		.uleb128 0x17
 14444 2a07 A40B0000 		.4byte	.LVL639
 14445 2a0b D3390000 		.4byte	0x39d3
 14446 2a0f 1E2A0000 		.4byte	0x2a1e
 14447 2a13 18       		.uleb128 0x18
 14448 2a14 01       		.uleb128 0x1
 14449 2a15 51       		.byte	0x51
 14450 2a16 01       		.uleb128 0x1
 14451 2a17 31       		.byte	0x31
 14452 2a18 18       		.uleb128 0x18
 14453 2a19 01       		.uleb128 0x1
 14454 2a1a 50       		.byte	0x50
 14455 2a1b 01       		.uleb128 0x1
 14456 2a1c 32       		.byte	0x32
 14457 2a1d 00       		.byte	0
 14458 2a1e 17       		.uleb128 0x17
 14459 2a1f B40B0000 		.4byte	.LVL640
 14460 2a23 D3390000 		.4byte	0x39d3
 14461 2a27 362A0000 		.4byte	0x2a36
 14462 2a2b 18       		.uleb128 0x18
 14463 2a2c 01       		.uleb128 0x1
 14464 2a2d 51       		.byte	0x51
 14465 2a2e 01       		.uleb128 0x1
 14466 2a2f 31       		.byte	0x31
 14467 2a30 18       		.uleb128 0x18
 14468 2a31 01       		.uleb128 0x1
 14469 2a32 50       		.byte	0x50
 14470 2a33 01       		.uleb128 0x1
 14471 2a34 32       		.byte	0x32
 14472 2a35 00       		.byte	0
 14473 2a36 17       		.uleb128 0x17
 14474 2a37 BA0B0000 		.4byte	.LVL641
 14475 2a3b 0A3A0000 		.4byte	0x3a0a
 14476 2a3f 492A0000 		.4byte	0x2a49
 14477 2a43 18       		.uleb128 0x18
 14478 2a44 01       		.uleb128 0x1
 14479 2a45 50       		.byte	0x50
 14480 2a46 01       		.uleb128 0x1
 14481 2a47 3A       		.byte	0x3a
 14482 2a48 00       		.byte	0
 14483 2a49 15       		.uleb128 0x15
 14484 2a4a BE0B0000 		.4byte	.LVL642
 14485 2a4e 5A3C0000 		.4byte	0x3c5a
 14486 2a52 15       		.uleb128 0x15
 14487 2a53 C40B0000 		.4byte	.LVL643
 14488 2a57 4F3C0000 		.4byte	0x3c4f
 14489 2a5b 17       		.uleb128 0x17
 14490 2a5c 200C0000 		.4byte	.LVL644
ARM GAS  C:\Users\RECEPC~1\AppData\Local\Temp\ccp152bc.s 			page 317


 14491 2a60 D3390000 		.4byte	0x39d3
 14492 2a64 742A0000 		.4byte	0x2a74
 14493 2a68 18       		.uleb128 0x18
 14494 2a69 01       		.uleb128 0x1
 14495 2a6a 51       		.byte	0x51
 14496 2a6b 02       		.uleb128 0x2
 14497 2a6c 08       		.byte	0x8
 14498 2a6d 24       		.byte	0x24
 14499 2a6e 18       		.uleb128 0x18
 14500 2a6f 01       		.uleb128 0x1
 14501 2a70 50       		.byte	0x50
 14502 2a71 01       		.uleb128 0x1
 14503 2a72 32       		.byte	0x32
 14504 2a73 00       		.byte	0
 14505 2a74 17       		.uleb128 0x17
 14506 2a75 3E0C0000 		.4byte	.LVL645
 14507 2a79 D3390000 		.4byte	0x39d3
 14508 2a7d 8D2A0000 		.4byte	0x2a8d
 14509 2a81 18       		.uleb128 0x18
 14510 2a82 01       		.uleb128 0x1
 14511 2a83 51       		.byte	0x51
 14512 2a84 02       		.uleb128 0x2
 14513 2a85 08       		.byte	0x8
 14514 2a86 24       		.byte	0x24
 14515 2a87 18       		.uleb128 0x18
 14516 2a88 01       		.uleb128 0x1
 14517 2a89 50       		.byte	0x50
 14518 2a8a 01       		.uleb128 0x1
 14519 2a8b 32       		.byte	0x32
 14520 2a8c 00       		.byte	0
 14521 2a8d 17       		.uleb128 0x17
 14522 2a8e 480C0000 		.4byte	.LVL646
 14523 2a92 D3390000 		.4byte	0x39d3
 14524 2a96 A52A0000 		.4byte	0x2aa5
 14525 2a9a 18       		.uleb128 0x18
 14526 2a9b 01       		.uleb128 0x1
 14527 2a9c 51       		.byte	0x51
 14528 2a9d 01       		.uleb128 0x1
 14529 2a9e 31       		.byte	0x31
 14530 2a9f 18       		.uleb128 0x18
 14531 2aa0 01       		.uleb128 0x1
 14532 2aa1 50       		.byte	0x50
 14533 2aa2 01       		.uleb128 0x1
 14534 2aa3 32       		.byte	0x32
 14535 2aa4 00       		.byte	0
 14536 2aa5 17       		.uleb128 0x17
 14537 2aa6 580C0000 		.4byte	.LVL647
 14538 2aaa D3390000 		.4byte	0x39d3
 14539 2aae BD2A0000 		.4byte	0x2abd
 14540 2ab2 18       		.uleb128 0x18
 14541 2ab3 01       		.uleb128 0x1
 14542 2ab4 51       		.byte	0x51
 14543 2ab5 01       		.uleb128 0x1
 14544 2ab6 31       		.byte	0x31
 14545 2ab7 18       		.uleb128 0x18
 14546 2ab8 01       		.uleb128 0x1
 14547 2ab9 50       		.byte	0x50
ARM GAS  C:\Users\RECEPC~1\AppData\Local\Temp\ccp152bc.s 			page 318


 14548 2aba 01       		.uleb128 0x1
 14549 2abb 32       		.byte	0x32
 14550 2abc 00       		.byte	0
 14551 2abd 17       		.uleb128 0x17
 14552 2abe 640C0000 		.4byte	.LVL648
 14553 2ac2 0A3A0000 		.4byte	0x3a0a
 14554 2ac6 D02A0000 		.4byte	0x2ad0
 14555 2aca 18       		.uleb128 0x18
 14556 2acb 01       		.uleb128 0x1
 14557 2acc 50       		.byte	0x50
 14558 2acd 01       		.uleb128 0x1
 14559 2ace 3A       		.byte	0x3a
 14560 2acf 00       		.byte	0
 14561 2ad0 15       		.uleb128 0x15
 14562 2ad1 680C0000 		.4byte	.LVL649
 14563 2ad5 5A3C0000 		.4byte	0x3c5a
 14564 2ad9 17       		.uleb128 0x17
 14565 2ada 780C0000 		.4byte	.LVL650
 14566 2ade EA3A0000 		.4byte	0x3aea
 14567 2ae2 EC2A0000 		.4byte	0x2aec
 14568 2ae6 18       		.uleb128 0x18
 14569 2ae7 01       		.uleb128 0x1
 14570 2ae8 50       		.byte	0x50
 14571 2ae9 01       		.uleb128 0x1
 14572 2aea 32       		.byte	0x32
 14573 2aeb 00       		.byte	0
 14574 2aec 17       		.uleb128 0x17
 14575 2aed B60C0000 		.4byte	.LVL657
 14576 2af1 D3390000 		.4byte	0x39d3
 14577 2af5 042B0000 		.4byte	0x2b04
 14578 2af9 18       		.uleb128 0x18
 14579 2afa 01       		.uleb128 0x1
 14580 2afb 51       		.byte	0x51
 14581 2afc 01       		.uleb128 0x1
 14582 2afd 31       		.byte	0x31
 14583 2afe 18       		.uleb128 0x18
 14584 2aff 01       		.uleb128 0x1
 14585 2b00 50       		.byte	0x50
 14586 2b01 01       		.uleb128 0x1
 14587 2b02 32       		.byte	0x32
 14588 2b03 00       		.byte	0
 14589 2b04 17       		.uleb128 0x17
 14590 2b05 DC0C0000 		.4byte	.LVL664
 14591 2b09 D3390000 		.4byte	0x39d3
 14592 2b0d 1C2B0000 		.4byte	0x2b1c
 14593 2b11 18       		.uleb128 0x18
 14594 2b12 01       		.uleb128 0x1
 14595 2b13 51       		.byte	0x51
 14596 2b14 01       		.uleb128 0x1
 14597 2b15 31       		.byte	0x31
 14598 2b16 18       		.uleb128 0x18
 14599 2b17 01       		.uleb128 0x1
 14600 2b18 50       		.byte	0x50
 14601 2b19 01       		.uleb128 0x1
 14602 2b1a 32       		.byte	0x32
 14603 2b1b 00       		.byte	0
 14604 2b1c 17       		.uleb128 0x17
ARM GAS  C:\Users\RECEPC~1\AppData\Local\Temp\ccp152bc.s 			page 319


 14605 2b1d 060D0000 		.4byte	.LVL671
 14606 2b21 D3390000 		.4byte	0x39d3
 14607 2b25 342B0000 		.4byte	0x2b34
 14608 2b29 18       		.uleb128 0x18
 14609 2b2a 01       		.uleb128 0x1
 14610 2b2b 51       		.byte	0x51
 14611 2b2c 01       		.uleb128 0x1
 14612 2b2d 31       		.byte	0x31
 14613 2b2e 18       		.uleb128 0x18
 14614 2b2f 01       		.uleb128 0x1
 14615 2b30 50       		.byte	0x50
 14616 2b31 01       		.uleb128 0x1
 14617 2b32 32       		.byte	0x32
 14618 2b33 00       		.byte	0
 14619 2b34 17       		.uleb128 0x17
 14620 2b35 300D0000 		.4byte	.LVL678
 14621 2b39 D3390000 		.4byte	0x39d3
 14622 2b3d 4C2B0000 		.4byte	0x2b4c
 14623 2b41 18       		.uleb128 0x18
 14624 2b42 01       		.uleb128 0x1
 14625 2b43 51       		.byte	0x51
 14626 2b44 01       		.uleb128 0x1
 14627 2b45 31       		.byte	0x31
 14628 2b46 18       		.uleb128 0x18
 14629 2b47 01       		.uleb128 0x1
 14630 2b48 50       		.byte	0x50
 14631 2b49 01       		.uleb128 0x1
 14632 2b4a 32       		.byte	0x32
 14633 2b4b 00       		.byte	0
 14634 2b4c 17       		.uleb128 0x17
 14635 2b4d 560D0000 		.4byte	.LVL685
 14636 2b51 D3390000 		.4byte	0x39d3
 14637 2b55 642B0000 		.4byte	0x2b64
 14638 2b59 18       		.uleb128 0x18
 14639 2b5a 01       		.uleb128 0x1
 14640 2b5b 51       		.byte	0x51
 14641 2b5c 01       		.uleb128 0x1
 14642 2b5d 31       		.byte	0x31
 14643 2b5e 18       		.uleb128 0x18
 14644 2b5f 01       		.uleb128 0x1
 14645 2b60 50       		.byte	0x50
 14646 2b61 01       		.uleb128 0x1
 14647 2b62 32       		.byte	0x32
 14648 2b63 00       		.byte	0
 14649 2b64 15       		.uleb128 0x15
 14650 2b65 5A0D0000 		.4byte	.LVL686
 14651 2b69 5A3C0000 		.4byte	0x3c5a
 14652 2b6d 17       		.uleb128 0x17
 14653 2b6e 9C0D0000 		.4byte	.LVL692
 14654 2b72 F43B0000 		.4byte	0x3bf4
 14655 2b76 842B0000 		.4byte	0x2b84
 14656 2b7a 18       		.uleb128 0x18
 14657 2b7b 01       		.uleb128 0x1
 14658 2b7c 50       		.byte	0x50
 14659 2b7d 05       		.uleb128 0x5
 14660 2b7e 03       		.byte	0x3
 14661 2b7f 00000000 		.4byte	idStation
ARM GAS  C:\Users\RECEPC~1\AppData\Local\Temp\ccp152bc.s 			page 320


 14662 2b83 00       		.byte	0
 14663 2b84 17       		.uleb128 0x17
 14664 2b85 B40D0000 		.4byte	.LVL693
 14665 2b89 A4390000 		.4byte	0x39a4
 14666 2b8d 972B0000 		.4byte	0x2b97
 14667 2b91 18       		.uleb128 0x18
 14668 2b92 01       		.uleb128 0x1
 14669 2b93 51       		.byte	0x51
 14670 2b94 01       		.uleb128 0x1
 14671 2b95 3A       		.byte	0x3a
 14672 2b96 00       		.byte	0
 14673 2b97 17       		.uleb128 0x17
 14674 2b98 BC0D0000 		.4byte	.LVL694
 14675 2b9c A4390000 		.4byte	0x39a4
 14676 2ba0 AA2B0000 		.4byte	0x2baa
 14677 2ba4 18       		.uleb128 0x18
 14678 2ba5 01       		.uleb128 0x1
 14679 2ba6 51       		.byte	0x51
 14680 2ba7 01       		.uleb128 0x1
 14681 2ba8 3B       		.byte	0x3b
 14682 2ba9 00       		.byte	0
 14683 2baa 17       		.uleb128 0x17
 14684 2bab CA0D0000 		.4byte	.LVL695
 14685 2baf D3390000 		.4byte	0x39d3
 14686 2bb3 C32B0000 		.4byte	0x2bc3
 14687 2bb7 18       		.uleb128 0x18
 14688 2bb8 01       		.uleb128 0x1
 14689 2bb9 51       		.byte	0x51
 14690 2bba 02       		.uleb128 0x2
 14691 2bbb 08       		.byte	0x8
 14692 2bbc 5A       		.byte	0x5a
 14693 2bbd 18       		.uleb128 0x18
 14694 2bbe 01       		.uleb128 0x1
 14695 2bbf 50       		.byte	0x50
 14696 2bc0 01       		.uleb128 0x1
 14697 2bc1 32       		.byte	0x32
 14698 2bc2 00       		.byte	0
 14699 2bc3 17       		.uleb128 0x17
 14700 2bc4 2A0E0000 		.4byte	.LVL702
 14701 2bc8 D3390000 		.4byte	0x39d3
 14702 2bcc DC2B0000 		.4byte	0x2bdc
 14703 2bd0 18       		.uleb128 0x18
 14704 2bd1 01       		.uleb128 0x1
 14705 2bd2 51       		.byte	0x51
 14706 2bd3 02       		.uleb128 0x2
 14707 2bd4 08       		.byte	0x8
 14708 2bd5 5A       		.byte	0x5a
 14709 2bd6 18       		.uleb128 0x18
 14710 2bd7 01       		.uleb128 0x1
 14711 2bd8 50       		.byte	0x50
 14712 2bd9 01       		.uleb128 0x1
 14713 2bda 32       		.byte	0x32
 14714 2bdb 00       		.byte	0
 14715 2bdc 17       		.uleb128 0x17
 14716 2bdd 560E0000 		.4byte	.LVL709
 14717 2be1 D3390000 		.4byte	0x39d3
 14718 2be5 F52B0000 		.4byte	0x2bf5
ARM GAS  C:\Users\RECEPC~1\AppData\Local\Temp\ccp152bc.s 			page 321


 14719 2be9 18       		.uleb128 0x18
 14720 2bea 01       		.uleb128 0x1
 14721 2beb 51       		.byte	0x51
 14722 2bec 02       		.uleb128 0x2
 14723 2bed 08       		.byte	0x8
 14724 2bee 39       		.byte	0x39
 14725 2bef 18       		.uleb128 0x18
 14726 2bf0 01       		.uleb128 0x1
 14727 2bf1 50       		.byte	0x50
 14728 2bf2 01       		.uleb128 0x1
 14729 2bf3 32       		.byte	0x32
 14730 2bf4 00       		.byte	0
 14731 2bf5 17       		.uleb128 0x17
 14732 2bf6 820E0000 		.4byte	.LVL716
 14733 2bfa D3390000 		.4byte	0x39d3
 14734 2bfe 0E2C0000 		.4byte	0x2c0e
 14735 2c02 18       		.uleb128 0x18
 14736 2c03 01       		.uleb128 0x1
 14737 2c04 51       		.byte	0x51
 14738 2c05 02       		.uleb128 0x2
 14739 2c06 08       		.byte	0x8
 14740 2c07 5A       		.byte	0x5a
 14741 2c08 18       		.uleb128 0x18
 14742 2c09 01       		.uleb128 0x1
 14743 2c0a 50       		.byte	0x50
 14744 2c0b 01       		.uleb128 0x1
 14745 2c0c 32       		.byte	0x32
 14746 2c0d 00       		.byte	0
 14747 2c0e 17       		.uleb128 0x17
 14748 2c0f D80E0000 		.4byte	.LVL723
 14749 2c13 D3390000 		.4byte	0x39d3
 14750 2c17 272C0000 		.4byte	0x2c27
 14751 2c1b 18       		.uleb128 0x18
 14752 2c1c 01       		.uleb128 0x1
 14753 2c1d 51       		.byte	0x51
 14754 2c1e 02       		.uleb128 0x2
 14755 2c1f 08       		.byte	0x8
 14756 2c20 26       		.byte	0x26
 14757 2c21 18       		.uleb128 0x18
 14758 2c22 01       		.uleb128 0x1
 14759 2c23 50       		.byte	0x50
 14760 2c24 01       		.uleb128 0x1
 14761 2c25 32       		.byte	0x32
 14762 2c26 00       		.byte	0
 14763 2c27 17       		.uleb128 0x17
 14764 2c28 E00E0000 		.4byte	.LVL724
 14765 2c2c 0A3A0000 		.4byte	0x3a0a
 14766 2c30 3C2C0000 		.4byte	0x2c3c
 14767 2c34 18       		.uleb128 0x18
 14768 2c35 01       		.uleb128 0x1
 14769 2c36 50       		.byte	0x50
 14770 2c37 03       		.uleb128 0x3
 14771 2c38 0A       		.byte	0xa
 14772 2c39 BC02     		.2byte	0x2bc
 14773 2c3b 00       		.byte	0
 14774 2c3c 17       		.uleb128 0x17
 14775 2c3d EE0E0000 		.4byte	.LVL725
ARM GAS  C:\Users\RECEPC~1\AppData\Local\Temp\ccp152bc.s 			page 322


 14776 2c41 D3390000 		.4byte	0x39d3
 14777 2c45 552C0000 		.4byte	0x2c55
 14778 2c49 18       		.uleb128 0x18
 14779 2c4a 01       		.uleb128 0x1
 14780 2c4b 51       		.byte	0x51
 14781 2c4c 02       		.uleb128 0x2
 14782 2c4d 08       		.byte	0x8
 14783 2c4e 5A       		.byte	0x5a
 14784 2c4f 18       		.uleb128 0x18
 14785 2c50 01       		.uleb128 0x1
 14786 2c51 50       		.byte	0x50
 14787 2c52 01       		.uleb128 0x1
 14788 2c53 32       		.byte	0x32
 14789 2c54 00       		.byte	0
 14790 2c55 17       		.uleb128 0x17
 14791 2c56 F80E0000 		.4byte	.LVL726
 14792 2c5a D3390000 		.4byte	0x39d3
 14793 2c5e 6E2C0000 		.4byte	0x2c6e
 14794 2c62 18       		.uleb128 0x18
 14795 2c63 01       		.uleb128 0x1
 14796 2c64 51       		.byte	0x51
 14797 2c65 02       		.uleb128 0x2
 14798 2c66 08       		.byte	0x8
 14799 2c67 27       		.byte	0x27
 14800 2c68 18       		.uleb128 0x18
 14801 2c69 01       		.uleb128 0x1
 14802 2c6a 50       		.byte	0x50
 14803 2c6b 01       		.uleb128 0x1
 14804 2c6c 32       		.byte	0x32
 14805 2c6d 00       		.byte	0
 14806 2c6e 17       		.uleb128 0x17
 14807 2c6f 000F0000 		.4byte	.LVL727
 14808 2c73 0A3A0000 		.4byte	0x3a0a
 14809 2c77 832C0000 		.4byte	0x2c83
 14810 2c7b 18       		.uleb128 0x18
 14811 2c7c 01       		.uleb128 0x1
 14812 2c7d 50       		.byte	0x50
 14813 2c7e 03       		.uleb128 0x3
 14814 2c7f 0A       		.byte	0xa
 14815 2c80 BC02     		.2byte	0x2bc
 14816 2c82 00       		.byte	0
 14817 2c83 17       		.uleb128 0x17
 14818 2c84 0E0F0000 		.4byte	.LVL728
 14819 2c88 D3390000 		.4byte	0x39d3
 14820 2c8c 9B2C0000 		.4byte	0x2c9b
 14821 2c90 18       		.uleb128 0x18
 14822 2c91 01       		.uleb128 0x1
 14823 2c92 51       		.byte	0x51
 14824 2c93 01       		.uleb128 0x1
 14825 2c94 31       		.byte	0x31
 14826 2c95 18       		.uleb128 0x18
 14827 2c96 01       		.uleb128 0x1
 14828 2c97 50       		.byte	0x50
 14829 2c98 01       		.uleb128 0x1
 14830 2c99 32       		.byte	0x32
 14831 2c9a 00       		.byte	0
 14832 2c9b 15       		.uleb128 0x15
ARM GAS  C:\Users\RECEPC~1\AppData\Local\Temp\ccp152bc.s 			page 323


 14833 2c9c 120F0000 		.4byte	.LVL729
 14834 2ca0 5A3C0000 		.4byte	0x3c5a
 14835 2ca4 15       		.uleb128 0x15
 14836 2ca5 180F0000 		.4byte	.LVL730
 14837 2ca9 4F3C0000 		.4byte	0x3c4f
 14838 2cad 17       		.uleb128 0x17
 14839 2cae B00F0000 		.4byte	.LVL731
 14840 2cb2 D3390000 		.4byte	0x39d3
 14841 2cb6 C52C0000 		.4byte	0x2cc5
 14842 2cba 18       		.uleb128 0x18
 14843 2cbb 01       		.uleb128 0x1
 14844 2cbc 51       		.byte	0x51
 14845 2cbd 01       		.uleb128 0x1
 14846 2cbe 36       		.byte	0x36
 14847 2cbf 18       		.uleb128 0x18
 14848 2cc0 01       		.uleb128 0x1
 14849 2cc1 50       		.byte	0x50
 14850 2cc2 01       		.uleb128 0x1
 14851 2cc3 32       		.byte	0x32
 14852 2cc4 00       		.byte	0
 14853 2cc5 15       		.uleb128 0x15
 14854 2cc6 BC0F0000 		.4byte	.LVL732
 14855 2cca 610E0000 		.4byte	0xe61
 14856 2cce 17       		.uleb128 0x17
 14857 2ccf C40F0000 		.4byte	.LVL733
 14858 2cd3 D3390000 		.4byte	0x39d3
 14859 2cd7 E72C0000 		.4byte	0x2ce7
 14860 2cdb 18       		.uleb128 0x18
 14861 2cdc 01       		.uleb128 0x1
 14862 2cdd 51       		.byte	0x51
 14863 2cde 02       		.uleb128 0x2
 14864 2cdf 08       		.byte	0x8
 14865 2ce0 6B       		.byte	0x6b
 14866 2ce1 18       		.uleb128 0x18
 14867 2ce2 01       		.uleb128 0x1
 14868 2ce3 50       		.byte	0x50
 14869 2ce4 01       		.uleb128 0x1
 14870 2ce5 32       		.byte	0x32
 14871 2ce6 00       		.byte	0
 14872 2ce7 17       		.uleb128 0x17
 14873 2ce8 EE0F0000 		.4byte	.LVL734
 14874 2cec D3390000 		.4byte	0x39d3
 14875 2cf0 FF2C0000 		.4byte	0x2cff
 14876 2cf4 18       		.uleb128 0x18
 14877 2cf5 01       		.uleb128 0x1
 14878 2cf6 51       		.byte	0x51
 14879 2cf7 01       		.uleb128 0x1
 14880 2cf8 36       		.byte	0x36
 14881 2cf9 18       		.uleb128 0x18
 14882 2cfa 01       		.uleb128 0x1
 14883 2cfb 50       		.byte	0x50
 14884 2cfc 01       		.uleb128 0x1
 14885 2cfd 32       		.byte	0x32
 14886 2cfe 00       		.byte	0
 14887 2cff 17       		.uleb128 0x17
 14888 2d00 0C100000 		.4byte	.LVL735
 14889 2d04 D3390000 		.4byte	0x39d3
ARM GAS  C:\Users\RECEPC~1\AppData\Local\Temp\ccp152bc.s 			page 324


 14890 2d08 182D0000 		.4byte	0x2d18
 14891 2d0c 18       		.uleb128 0x18
 14892 2d0d 01       		.uleb128 0x1
 14893 2d0e 51       		.byte	0x51
 14894 2d0f 02       		.uleb128 0x2
 14895 2d10 08       		.byte	0x8
 14896 2d11 3E       		.byte	0x3e
 14897 2d12 18       		.uleb128 0x18
 14898 2d13 01       		.uleb128 0x1
 14899 2d14 50       		.byte	0x50
 14900 2d15 01       		.uleb128 0x1
 14901 2d16 32       		.byte	0x32
 14902 2d17 00       		.byte	0
 14903 2d18 17       		.uleb128 0x17
 14904 2d19 16100000 		.4byte	.LVL736
 14905 2d1d D3390000 		.4byte	0x39d3
 14906 2d21 302D0000 		.4byte	0x2d30
 14907 2d25 18       		.uleb128 0x18
 14908 2d26 01       		.uleb128 0x1
 14909 2d27 51       		.byte	0x51
 14910 2d28 01       		.uleb128 0x1
 14911 2d29 31       		.byte	0x31
 14912 2d2a 18       		.uleb128 0x18
 14913 2d2b 01       		.uleb128 0x1
 14914 2d2c 50       		.byte	0x50
 14915 2d2d 01       		.uleb128 0x1
 14916 2d2e 32       		.byte	0x32
 14917 2d2f 00       		.byte	0
 14918 2d30 17       		.uleb128 0x17
 14919 2d31 26100000 		.4byte	.LVL737
 14920 2d35 D3390000 		.4byte	0x39d3
 14921 2d39 482D0000 		.4byte	0x2d48
 14922 2d3d 18       		.uleb128 0x18
 14923 2d3e 01       		.uleb128 0x1
 14924 2d3f 51       		.byte	0x51
 14925 2d40 01       		.uleb128 0x1
 14926 2d41 31       		.byte	0x31
 14927 2d42 18       		.uleb128 0x18
 14928 2d43 01       		.uleb128 0x1
 14929 2d44 50       		.byte	0x50
 14930 2d45 01       		.uleb128 0x1
 14931 2d46 32       		.byte	0x32
 14932 2d47 00       		.byte	0
 14933 2d48 17       		.uleb128 0x17
 14934 2d49 32100000 		.4byte	.LVL738
 14935 2d4d 0A3A0000 		.4byte	0x3a0a
 14936 2d51 5B2D0000 		.4byte	0x2d5b
 14937 2d55 18       		.uleb128 0x18
 14938 2d56 01       		.uleb128 0x1
 14939 2d57 50       		.byte	0x50
 14940 2d58 01       		.uleb128 0x1
 14941 2d59 3A       		.byte	0x3a
 14942 2d5a 00       		.byte	0
 14943 2d5b 15       		.uleb128 0x15
 14944 2d5c 36100000 		.4byte	.LVL739
 14945 2d60 5A3C0000 		.4byte	0x3c5a
 14946 2d64 15       		.uleb128 0x15
ARM GAS  C:\Users\RECEPC~1\AppData\Local\Temp\ccp152bc.s 			page 325


 14947 2d65 60100000 		.4byte	.LVL740
 14948 2d69 4F3C0000 		.4byte	0x3c4f
 14949 2d6d 17       		.uleb128 0x17
 14950 2d6e AE100000 		.4byte	.LVL741
 14951 2d72 D3390000 		.4byte	0x39d3
 14952 2d76 862D0000 		.4byte	0x2d86
 14953 2d7a 18       		.uleb128 0x18
 14954 2d7b 01       		.uleb128 0x1
 14955 2d7c 51       		.byte	0x51
 14956 2d7d 02       		.uleb128 0x2
 14957 2d7e 08       		.byte	0x8
 14958 2d7f 67       		.byte	0x67
 14959 2d80 18       		.uleb128 0x18
 14960 2d81 01       		.uleb128 0x1
 14961 2d82 50       		.byte	0x50
 14962 2d83 01       		.uleb128 0x1
 14963 2d84 32       		.byte	0x32
 14964 2d85 00       		.byte	0
 14965 2d86 17       		.uleb128 0x17
 14966 2d87 C8100000 		.4byte	.LVL742
 14967 2d8b A4390000 		.4byte	0x39a4
 14968 2d8f 9E2D0000 		.4byte	0x2d9e
 14969 2d93 18       		.uleb128 0x18
 14970 2d94 01       		.uleb128 0x1
 14971 2d95 51       		.byte	0x51
 14972 2d96 01       		.uleb128 0x1
 14973 2d97 38       		.byte	0x38
 14974 2d98 18       		.uleb128 0x18
 14975 2d99 01       		.uleb128 0x1
 14976 2d9a 50       		.byte	0x50
 14977 2d9b 01       		.uleb128 0x1
 14978 2d9c 31       		.byte	0x31
 14979 2d9d 00       		.byte	0
 14980 2d9e 17       		.uleb128 0x17
 14981 2d9f D0100000 		.4byte	.LVL743
 14982 2da3 A4390000 		.4byte	0x39a4
 14983 2da7 B12D0000 		.4byte	0x2db1
 14984 2dab 18       		.uleb128 0x18
 14985 2dac 01       		.uleb128 0x1
 14986 2dad 51       		.byte	0x51
 14987 2dae 01       		.uleb128 0x1
 14988 2daf 39       		.byte	0x39
 14989 2db0 00       		.byte	0
 14990 2db1 17       		.uleb128 0x17
 14991 2db2 D8100000 		.4byte	.LVL744
 14992 2db6 D3390000 		.4byte	0x39d3
 14993 2dba CB2D0000 		.4byte	0x2dcb
 14994 2dbe 18       		.uleb128 0x18
 14995 2dbf 01       		.uleb128 0x1
 14996 2dc0 51       		.byte	0x51
 14997 2dc1 02       		.uleb128 0x2
 14998 2dc2 08       		.byte	0x8
 14999 2dc3 5A       		.byte	0x5a
 15000 2dc4 18       		.uleb128 0x18
 15001 2dc5 01       		.uleb128 0x1
 15002 2dc6 50       		.byte	0x50
 15003 2dc7 02       		.uleb128 0x2
ARM GAS  C:\Users\RECEPC~1\AppData\Local\Temp\ccp152bc.s 			page 326


 15004 2dc8 74       		.byte	0x74
 15005 2dc9 00       		.sleb128 0
 15006 2dca 00       		.byte	0
 15007 2dcb 17       		.uleb128 0x17
 15008 2dcc E2100000 		.4byte	.LVL745
 15009 2dd0 D3390000 		.4byte	0x39d3
 15010 2dd4 E32D0000 		.4byte	0x2de3
 15011 2dd8 18       		.uleb128 0x18
 15012 2dd9 01       		.uleb128 0x1
 15013 2dda 51       		.byte	0x51
 15014 2ddb 01       		.uleb128 0x1
 15015 2ddc 31       		.byte	0x31
 15016 2ddd 18       		.uleb128 0x18
 15017 2dde 01       		.uleb128 0x1
 15018 2ddf 50       		.byte	0x50
 15019 2de0 01       		.uleb128 0x1
 15020 2de1 32       		.byte	0x32
 15021 2de2 00       		.byte	0
 15022 2de3 17       		.uleb128 0x17
 15023 2de4 F2100000 		.4byte	.LVL746
 15024 2de8 D3390000 		.4byte	0x39d3
 15025 2dec FB2D0000 		.4byte	0x2dfb
 15026 2df0 18       		.uleb128 0x18
 15027 2df1 01       		.uleb128 0x1
 15028 2df2 51       		.byte	0x51
 15029 2df3 01       		.uleb128 0x1
 15030 2df4 31       		.byte	0x31
 15031 2df5 18       		.uleb128 0x18
 15032 2df6 01       		.uleb128 0x1
 15033 2df7 50       		.byte	0x50
 15034 2df8 01       		.uleb128 0x1
 15035 2df9 32       		.byte	0x32
 15036 2dfa 00       		.byte	0
 15037 2dfb 17       		.uleb128 0x17
 15038 2dfc FE100000 		.4byte	.LVL747
 15039 2e00 0A3A0000 		.4byte	0x3a0a
 15040 2e04 0E2E0000 		.4byte	0x2e0e
 15041 2e08 18       		.uleb128 0x18
 15042 2e09 01       		.uleb128 0x1
 15043 2e0a 50       		.byte	0x50
 15044 2e0b 01       		.uleb128 0x1
 15045 2e0c 3A       		.byte	0x3a
 15046 2e0d 00       		.byte	0
 15047 2e0e 15       		.uleb128 0x15
 15048 2e0f 02110000 		.4byte	.LVL748
 15049 2e13 5A3C0000 		.4byte	0x3c5a
 15050 2e17 15       		.uleb128 0x15
 15051 2e18 08110000 		.4byte	.LVL749
 15052 2e1c 4F3C0000 		.4byte	0x3c4f
 15053 2e20 17       		.uleb128 0x17
 15054 2e21 6A110000 		.4byte	.LVL750
 15055 2e25 A4390000 		.4byte	0x39a4
 15056 2e29 392E0000 		.4byte	0x2e39
 15057 2e2d 18       		.uleb128 0x18
 15058 2e2e 01       		.uleb128 0x1
 15059 2e2f 51       		.byte	0x51
 15060 2e30 01       		.uleb128 0x1
ARM GAS  C:\Users\RECEPC~1\AppData\Local\Temp\ccp152bc.s 			page 327


 15061 2e31 38       		.byte	0x38
 15062 2e32 18       		.uleb128 0x18
 15063 2e33 01       		.uleb128 0x1
 15064 2e34 50       		.byte	0x50
 15065 2e35 02       		.uleb128 0x2
 15066 2e36 74       		.byte	0x74
 15067 2e37 00       		.sleb128 0
 15068 2e38 00       		.byte	0
 15069 2e39 17       		.uleb128 0x17
 15070 2e3a 72110000 		.4byte	.LVL751
 15071 2e3e A4390000 		.4byte	0x39a4
 15072 2e42 4C2E0000 		.4byte	0x2e4c
 15073 2e46 18       		.uleb128 0x18
 15074 2e47 01       		.uleb128 0x1
 15075 2e48 51       		.byte	0x51
 15076 2e49 01       		.uleb128 0x1
 15077 2e4a 39       		.byte	0x39
 15078 2e4b 00       		.byte	0
 15079 2e4c 17       		.uleb128 0x17
 15080 2e4d 7A110000 		.4byte	.LVL752
 15081 2e51 D3390000 		.4byte	0x39d3
 15082 2e55 662E0000 		.4byte	0x2e66
 15083 2e59 18       		.uleb128 0x18
 15084 2e5a 01       		.uleb128 0x1
 15085 2e5b 51       		.byte	0x51
 15086 2e5c 02       		.uleb128 0x2
 15087 2e5d 08       		.byte	0x8
 15088 2e5e 5A       		.byte	0x5a
 15089 2e5f 18       		.uleb128 0x18
 15090 2e60 01       		.uleb128 0x1
 15091 2e61 50       		.byte	0x50
 15092 2e62 02       		.uleb128 0x2
 15093 2e63 74       		.byte	0x74
 15094 2e64 00       		.sleb128 0
 15095 2e65 00       		.byte	0
 15096 2e66 17       		.uleb128 0x17
 15097 2e67 92110000 		.4byte	.LVL753
 15098 2e6b A4390000 		.4byte	0x39a4
 15099 2e6f 7E2E0000 		.4byte	0x2e7e
 15100 2e73 18       		.uleb128 0x18
 15101 2e74 01       		.uleb128 0x1
 15102 2e75 51       		.byte	0x51
 15103 2e76 01       		.uleb128 0x1
 15104 2e77 38       		.byte	0x38
 15105 2e78 18       		.uleb128 0x18
 15106 2e79 01       		.uleb128 0x1
 15107 2e7a 50       		.byte	0x50
 15108 2e7b 01       		.uleb128 0x1
 15109 2e7c 31       		.byte	0x31
 15110 2e7d 00       		.byte	0
 15111 2e7e 17       		.uleb128 0x17
 15112 2e7f 9A110000 		.4byte	.LVL754
 15113 2e83 A4390000 		.4byte	0x39a4
 15114 2e87 912E0000 		.4byte	0x2e91
 15115 2e8b 18       		.uleb128 0x18
 15116 2e8c 01       		.uleb128 0x1
 15117 2e8d 51       		.byte	0x51
ARM GAS  C:\Users\RECEPC~1\AppData\Local\Temp\ccp152bc.s 			page 328


 15118 2e8e 01       		.uleb128 0x1
 15119 2e8f 39       		.byte	0x39
 15120 2e90 00       		.byte	0
 15121 2e91 17       		.uleb128 0x17
 15122 2e92 A2110000 		.4byte	.LVL755
 15123 2e96 D3390000 		.4byte	0x39d3
 15124 2e9a AA2E0000 		.4byte	0x2eaa
 15125 2e9e 18       		.uleb128 0x18
 15126 2e9f 01       		.uleb128 0x1
 15127 2ea0 51       		.byte	0x51
 15128 2ea1 02       		.uleb128 0x2
 15129 2ea2 08       		.byte	0x8
 15130 2ea3 5A       		.byte	0x5a
 15131 2ea4 18       		.uleb128 0x18
 15132 2ea5 01       		.uleb128 0x1
 15133 2ea6 50       		.byte	0x50
 15134 2ea7 01       		.uleb128 0x1
 15135 2ea8 32       		.byte	0x32
 15136 2ea9 00       		.byte	0
 15137 2eaa 17       		.uleb128 0x17
 15138 2eab BA110000 		.4byte	.LVL756
 15139 2eaf A4390000 		.4byte	0x39a4
 15140 2eb3 C22E0000 		.4byte	0x2ec2
 15141 2eb7 18       		.uleb128 0x18
 15142 2eb8 01       		.uleb128 0x1
 15143 2eb9 51       		.byte	0x51
 15144 2eba 01       		.uleb128 0x1
 15145 2ebb 38       		.byte	0x38
 15146 2ebc 18       		.uleb128 0x18
 15147 2ebd 01       		.uleb128 0x1
 15148 2ebe 50       		.byte	0x50
 15149 2ebf 01       		.uleb128 0x1
 15150 2ec0 30       		.byte	0x30
 15151 2ec1 00       		.byte	0
 15152 2ec2 17       		.uleb128 0x17
 15153 2ec3 C2110000 		.4byte	.LVL757
 15154 2ec7 A4390000 		.4byte	0x39a4
 15155 2ecb D52E0000 		.4byte	0x2ed5
 15156 2ecf 18       		.uleb128 0x18
 15157 2ed0 01       		.uleb128 0x1
 15158 2ed1 51       		.byte	0x51
 15159 2ed2 01       		.uleb128 0x1
 15160 2ed3 39       		.byte	0x39
 15161 2ed4 00       		.byte	0
 15162 2ed5 17       		.uleb128 0x17
 15163 2ed6 CA110000 		.4byte	.LVL758
 15164 2eda D3390000 		.4byte	0x39d3
 15165 2ede EE2E0000 		.4byte	0x2eee
 15166 2ee2 18       		.uleb128 0x18
 15167 2ee3 01       		.uleb128 0x1
 15168 2ee4 51       		.byte	0x51
 15169 2ee5 02       		.uleb128 0x2
 15170 2ee6 08       		.byte	0x8
 15171 2ee7 5A       		.byte	0x5a
 15172 2ee8 18       		.uleb128 0x18
 15173 2ee9 01       		.uleb128 0x1
 15174 2eea 50       		.byte	0x50
ARM GAS  C:\Users\RECEPC~1\AppData\Local\Temp\ccp152bc.s 			page 329


 15175 2eeb 01       		.uleb128 0x1
 15176 2eec 32       		.byte	0x32
 15177 2eed 00       		.byte	0
 15178 2eee 17       		.uleb128 0x17
 15179 2eef D4110000 		.4byte	.LVL759
 15180 2ef3 D3390000 		.4byte	0x39d3
 15181 2ef7 062F0000 		.4byte	0x2f06
 15182 2efb 18       		.uleb128 0x18
 15183 2efc 01       		.uleb128 0x1
 15184 2efd 51       		.byte	0x51
 15185 2efe 01       		.uleb128 0x1
 15186 2eff 31       		.byte	0x31
 15187 2f00 18       		.uleb128 0x18
 15188 2f01 01       		.uleb128 0x1
 15189 2f02 50       		.byte	0x50
 15190 2f03 01       		.uleb128 0x1
 15191 2f04 32       		.byte	0x32
 15192 2f05 00       		.byte	0
 15193 2f06 17       		.uleb128 0x17
 15194 2f07 E4110000 		.4byte	.LVL760
 15195 2f0b D3390000 		.4byte	0x39d3
 15196 2f0f 1E2F0000 		.4byte	0x2f1e
 15197 2f13 18       		.uleb128 0x18
 15198 2f14 01       		.uleb128 0x1
 15199 2f15 51       		.byte	0x51
 15200 2f16 01       		.uleb128 0x1
 15201 2f17 31       		.byte	0x31
 15202 2f18 18       		.uleb128 0x18
 15203 2f19 01       		.uleb128 0x1
 15204 2f1a 50       		.byte	0x50
 15205 2f1b 01       		.uleb128 0x1
 15206 2f1c 32       		.byte	0x32
 15207 2f1d 00       		.byte	0
 15208 2f1e 17       		.uleb128 0x17
 15209 2f1f F0110000 		.4byte	.LVL761
 15210 2f23 0A3A0000 		.4byte	0x3a0a
 15211 2f27 312F0000 		.4byte	0x2f31
 15212 2f2b 18       		.uleb128 0x18
 15213 2f2c 01       		.uleb128 0x1
 15214 2f2d 50       		.byte	0x50
 15215 2f2e 01       		.uleb128 0x1
 15216 2f2f 3A       		.byte	0x3a
 15217 2f30 00       		.byte	0
 15218 2f31 15       		.uleb128 0x15
 15219 2f32 F4110000 		.4byte	.LVL762
 15220 2f36 5A3C0000 		.4byte	0x3c5a
 15221 2f3a 15       		.uleb128 0x15
 15222 2f3b 0C120000 		.4byte	.LVL763
 15223 2f3f 093C0000 		.4byte	0x3c09
 15224 2f43 17       		.uleb128 0x17
 15225 2f44 32120000 		.4byte	.LVL764
 15226 2f48 BB3A0000 		.4byte	0x3abb
 15227 2f4c 752F0000 		.4byte	0x2f75
 15228 2f50 18       		.uleb128 0x18
 15229 2f51 01       		.uleb128 0x1
 15230 2f52 53       		.byte	0x53
 15231 2f53 01       		.uleb128 0x1
ARM GAS  C:\Users\RECEPC~1\AppData\Local\Temp\ccp152bc.s 			page 330


 15232 2f54 38       		.byte	0x38
 15233 2f55 18       		.uleb128 0x18
 15234 2f56 01       		.uleb128 0x1
 15235 2f57 52       		.byte	0x52
 15236 2f58 01       		.uleb128 0x1
 15237 2f59 3D       		.byte	0x3d
 15238 2f5a 18       		.uleb128 0x18
 15239 2f5b 01       		.uleb128 0x1
 15240 2f5c 50       		.byte	0x50
 15241 2f5d 01       		.uleb128 0x1
 15242 2f5e 32       		.byte	0x32
 15243 2f5f 18       		.uleb128 0x18
 15244 2f60 02       		.uleb128 0x2
 15245 2f61 7D       		.byte	0x7d
 15246 2f62 08       		.sleb128 8
 15247 2f63 02       		.uleb128 0x2
 15248 2f64 74       		.byte	0x74
 15249 2f65 00       		.sleb128 0
 15250 2f66 18       		.uleb128 0x18
 15251 2f67 02       		.uleb128 0x2
 15252 2f68 7D       		.byte	0x7d
 15253 2f69 04       		.sleb128 4
 15254 2f6a 02       		.uleb128 0x2
 15255 2f6b 75       		.byte	0x75
 15256 2f6c 00       		.sleb128 0
 15257 2f6d 18       		.uleb128 0x18
 15258 2f6e 02       		.uleb128 0x2
 15259 2f6f 7D       		.byte	0x7d
 15260 2f70 00       		.sleb128 0
 15261 2f71 02       		.uleb128 0x2
 15262 2f72 76       		.byte	0x76
 15263 2f73 00       		.sleb128 0
 15264 2f74 00       		.byte	0
 15265 2f75 17       		.uleb128 0x17
 15266 2f76 4A120000 		.4byte	.LVL765
 15267 2f7a BB3A0000 		.4byte	0x3abb
 15268 2f7e A72F0000 		.4byte	0x2fa7
 15269 2f82 18       		.uleb128 0x18
 15270 2f83 01       		.uleb128 0x1
 15271 2f84 53       		.byte	0x53
 15272 2f85 01       		.uleb128 0x1
 15273 2f86 39       		.byte	0x39
 15274 2f87 18       		.uleb128 0x18
 15275 2f88 01       		.uleb128 0x1
 15276 2f89 52       		.byte	0x52
 15277 2f8a 01       		.uleb128 0x1
 15278 2f8b 3D       		.byte	0x3d
 15279 2f8c 18       		.uleb128 0x18
 15280 2f8d 01       		.uleb128 0x1
 15281 2f8e 50       		.byte	0x50
 15282 2f8f 01       		.uleb128 0x1
 15283 2f90 32       		.byte	0x32
 15284 2f91 18       		.uleb128 0x18
 15285 2f92 02       		.uleb128 0x2
 15286 2f93 7D       		.byte	0x7d
 15287 2f94 08       		.sleb128 8
 15288 2f95 02       		.uleb128 0x2
ARM GAS  C:\Users\RECEPC~1\AppData\Local\Temp\ccp152bc.s 			page 331


 15289 2f96 74       		.byte	0x74
 15290 2f97 00       		.sleb128 0
 15291 2f98 18       		.uleb128 0x18
 15292 2f99 02       		.uleb128 0x2
 15293 2f9a 7D       		.byte	0x7d
 15294 2f9b 04       		.sleb128 4
 15295 2f9c 02       		.uleb128 0x2
 15296 2f9d 75       		.byte	0x75
 15297 2f9e 00       		.sleb128 0
 15298 2f9f 18       		.uleb128 0x18
 15299 2fa0 02       		.uleb128 0x2
 15300 2fa1 7D       		.byte	0x7d
 15301 2fa2 00       		.sleb128 0
 15302 2fa3 02       		.uleb128 0x2
 15303 2fa4 76       		.byte	0x76
 15304 2fa5 00       		.sleb128 0
 15305 2fa6 00       		.byte	0
 15306 2fa7 17       		.uleb128 0x17
 15307 2fa8 5C120000 		.4byte	.LVL766
 15308 2fac BB3A0000 		.4byte	0x3abb
 15309 2fb0 DF2F0000 		.4byte	0x2fdf
 15310 2fb4 18       		.uleb128 0x18
 15311 2fb5 01       		.uleb128 0x1
 15312 2fb6 53       		.byte	0x53
 15313 2fb7 01       		.uleb128 0x1
 15314 2fb8 3A       		.byte	0x3a
 15315 2fb9 18       		.uleb128 0x18
 15316 2fba 01       		.uleb128 0x1
 15317 2fbb 52       		.byte	0x52
 15318 2fbc 01       		.uleb128 0x1
 15319 2fbd 3D       		.byte	0x3d
 15320 2fbe 18       		.uleb128 0x18
 15321 2fbf 01       		.uleb128 0x1
 15322 2fc0 51       		.byte	0x51
 15323 2fc1 02       		.uleb128 0x2
 15324 2fc2 08       		.byte	0x8
 15325 2fc3 3A       		.byte	0x3a
 15326 2fc4 18       		.uleb128 0x18
 15327 2fc5 01       		.uleb128 0x1
 15328 2fc6 50       		.byte	0x50
 15329 2fc7 01       		.uleb128 0x1
 15330 2fc8 32       		.byte	0x32
 15331 2fc9 18       		.uleb128 0x18
 15332 2fca 02       		.uleb128 0x2
 15333 2fcb 7D       		.byte	0x7d
 15334 2fcc 08       		.sleb128 8
 15335 2fcd 02       		.uleb128 0x2
 15336 2fce 74       		.byte	0x74
 15337 2fcf 00       		.sleb128 0
 15338 2fd0 18       		.uleb128 0x18
 15339 2fd1 02       		.uleb128 0x2
 15340 2fd2 7D       		.byte	0x7d
 15341 2fd3 04       		.sleb128 4
 15342 2fd4 02       		.uleb128 0x2
 15343 2fd5 75       		.byte	0x75
 15344 2fd6 00       		.sleb128 0
 15345 2fd7 18       		.uleb128 0x18
ARM GAS  C:\Users\RECEPC~1\AppData\Local\Temp\ccp152bc.s 			page 332


 15346 2fd8 02       		.uleb128 0x2
 15347 2fd9 7D       		.byte	0x7d
 15348 2fda 00       		.sleb128 0
 15349 2fdb 02       		.uleb128 0x2
 15350 2fdc 76       		.byte	0x76
 15351 2fdd 00       		.sleb128 0
 15352 2fde 00       		.byte	0
 15353 2fdf 17       		.uleb128 0x17
 15354 2fe0 72120000 		.4byte	.LVL767
 15355 2fe4 BB3A0000 		.4byte	0x3abb
 15356 2fe8 11300000 		.4byte	0x3011
 15357 2fec 18       		.uleb128 0x18
 15358 2fed 01       		.uleb128 0x1
 15359 2fee 53       		.byte	0x53
 15360 2fef 01       		.uleb128 0x1
 15361 2ff0 3B       		.byte	0x3b
 15362 2ff1 18       		.uleb128 0x18
 15363 2ff2 01       		.uleb128 0x1
 15364 2ff3 52       		.byte	0x52
 15365 2ff4 01       		.uleb128 0x1
 15366 2ff5 3D       		.byte	0x3d
 15367 2ff6 18       		.uleb128 0x18
 15368 2ff7 01       		.uleb128 0x1
 15369 2ff8 50       		.byte	0x50
 15370 2ff9 01       		.uleb128 0x1
 15371 2ffa 32       		.byte	0x32
 15372 2ffb 18       		.uleb128 0x18
 15373 2ffc 02       		.uleb128 0x2
 15374 2ffd 7D       		.byte	0x7d
 15375 2ffe 08       		.sleb128 8
 15376 2fff 02       		.uleb128 0x2
 15377 3000 74       		.byte	0x74
 15378 3001 00       		.sleb128 0
 15379 3002 18       		.uleb128 0x18
 15380 3003 02       		.uleb128 0x2
 15381 3004 7D       		.byte	0x7d
 15382 3005 04       		.sleb128 4
 15383 3006 02       		.uleb128 0x2
 15384 3007 75       		.byte	0x75
 15385 3008 00       		.sleb128 0
 15386 3009 18       		.uleb128 0x18
 15387 300a 02       		.uleb128 0x2
 15388 300b 7D       		.byte	0x7d
 15389 300c 00       		.sleb128 0
 15390 300d 02       		.uleb128 0x2
 15391 300e 76       		.byte	0x76
 15392 300f 00       		.sleb128 0
 15393 3010 00       		.byte	0
 15394 3011 17       		.uleb128 0x17
 15395 3012 8A120000 		.4byte	.LVL768
 15396 3016 BB3A0000 		.4byte	0x3abb
 15397 301a 43300000 		.4byte	0x3043
 15398 301e 18       		.uleb128 0x18
 15399 301f 01       		.uleb128 0x1
 15400 3020 53       		.byte	0x53
 15401 3021 01       		.uleb128 0x1
 15402 3022 3C       		.byte	0x3c
ARM GAS  C:\Users\RECEPC~1\AppData\Local\Temp\ccp152bc.s 			page 333


 15403 3023 18       		.uleb128 0x18
 15404 3024 01       		.uleb128 0x1
 15405 3025 52       		.byte	0x52
 15406 3026 01       		.uleb128 0x1
 15407 3027 3D       		.byte	0x3d
 15408 3028 18       		.uleb128 0x18
 15409 3029 01       		.uleb128 0x1
 15410 302a 50       		.byte	0x50
 15411 302b 01       		.uleb128 0x1
 15412 302c 32       		.byte	0x32
 15413 302d 18       		.uleb128 0x18
 15414 302e 02       		.uleb128 0x2
 15415 302f 7D       		.byte	0x7d
 15416 3030 08       		.sleb128 8
 15417 3031 02       		.uleb128 0x2
 15418 3032 74       		.byte	0x74
 15419 3033 00       		.sleb128 0
 15420 3034 18       		.uleb128 0x18
 15421 3035 02       		.uleb128 0x2
 15422 3036 7D       		.byte	0x7d
 15423 3037 04       		.sleb128 4
 15424 3038 02       		.uleb128 0x2
 15425 3039 75       		.byte	0x75
 15426 303a 00       		.sleb128 0
 15427 303b 18       		.uleb128 0x18
 15428 303c 02       		.uleb128 0x2
 15429 303d 7D       		.byte	0x7d
 15430 303e 00       		.sleb128 0
 15431 303f 02       		.uleb128 0x2
 15432 3040 76       		.byte	0x76
 15433 3041 00       		.sleb128 0
 15434 3042 00       		.byte	0
 15435 3043 15       		.uleb128 0x15
 15436 3044 8E120000 		.4byte	.LVL769
 15437 3048 1A3C0000 		.4byte	0x3c1a
 15438 304c 17       		.uleb128 0x17
 15439 304d B2120000 		.4byte	.LVL770
 15440 3051 BB3A0000 		.4byte	0x3abb
 15441 3055 7E300000 		.4byte	0x307e
 15442 3059 18       		.uleb128 0x18
 15443 305a 01       		.uleb128 0x1
 15444 305b 53       		.byte	0x53
 15445 305c 01       		.uleb128 0x1
 15446 305d 38       		.byte	0x38
 15447 305e 18       		.uleb128 0x18
 15448 305f 01       		.uleb128 0x1
 15449 3060 52       		.byte	0x52
 15450 3061 01       		.uleb128 0x1
 15451 3062 45       		.byte	0x45
 15452 3063 18       		.uleb128 0x18
 15453 3064 01       		.uleb128 0x1
 15454 3065 50       		.byte	0x50
 15455 3066 01       		.uleb128 0x1
 15456 3067 32       		.byte	0x32
 15457 3068 18       		.uleb128 0x18
 15458 3069 02       		.uleb128 0x2
 15459 306a 7D       		.byte	0x7d
ARM GAS  C:\Users\RECEPC~1\AppData\Local\Temp\ccp152bc.s 			page 334


 15460 306b 08       		.sleb128 8
 15461 306c 02       		.uleb128 0x2
 15462 306d 74       		.byte	0x74
 15463 306e 00       		.sleb128 0
 15464 306f 18       		.uleb128 0x18
 15465 3070 02       		.uleb128 0x2
 15466 3071 7D       		.byte	0x7d
 15467 3072 04       		.sleb128 4
 15468 3073 02       		.uleb128 0x2
 15469 3074 75       		.byte	0x75
 15470 3075 00       		.sleb128 0
 15471 3076 18       		.uleb128 0x18
 15472 3077 02       		.uleb128 0x2
 15473 3078 7D       		.byte	0x7d
 15474 3079 00       		.sleb128 0
 15475 307a 02       		.uleb128 0x2
 15476 307b 76       		.byte	0x76
 15477 307c 00       		.sleb128 0
 15478 307d 00       		.byte	0
 15479 307e 17       		.uleb128 0x17
 15480 307f CA120000 		.4byte	.LVL771
 15481 3083 BB3A0000 		.4byte	0x3abb
 15482 3087 B0300000 		.4byte	0x30b0
 15483 308b 18       		.uleb128 0x18
 15484 308c 01       		.uleb128 0x1
 15485 308d 53       		.byte	0x53
 15486 308e 01       		.uleb128 0x1
 15487 308f 39       		.byte	0x39
 15488 3090 18       		.uleb128 0x18
 15489 3091 01       		.uleb128 0x1
 15490 3092 52       		.byte	0x52
 15491 3093 01       		.uleb128 0x1
 15492 3094 45       		.byte	0x45
 15493 3095 18       		.uleb128 0x18
 15494 3096 01       		.uleb128 0x1
 15495 3097 50       		.byte	0x50
 15496 3098 01       		.uleb128 0x1
 15497 3099 32       		.byte	0x32
 15498 309a 18       		.uleb128 0x18
 15499 309b 02       		.uleb128 0x2
 15500 309c 7D       		.byte	0x7d
 15501 309d 08       		.sleb128 8
 15502 309e 02       		.uleb128 0x2
 15503 309f 74       		.byte	0x74
 15504 30a0 00       		.sleb128 0
 15505 30a1 18       		.uleb128 0x18
 15506 30a2 02       		.uleb128 0x2
 15507 30a3 7D       		.byte	0x7d
 15508 30a4 04       		.sleb128 4
 15509 30a5 02       		.uleb128 0x2
 15510 30a6 75       		.byte	0x75
 15511 30a7 00       		.sleb128 0
 15512 30a8 18       		.uleb128 0x18
 15513 30a9 02       		.uleb128 0x2
 15514 30aa 7D       		.byte	0x7d
 15515 30ab 00       		.sleb128 0
 15516 30ac 02       		.uleb128 0x2
ARM GAS  C:\Users\RECEPC~1\AppData\Local\Temp\ccp152bc.s 			page 335


 15517 30ad 76       		.byte	0x76
 15518 30ae 00       		.sleb128 0
 15519 30af 00       		.byte	0
 15520 30b0 17       		.uleb128 0x17
 15521 30b1 DC120000 		.4byte	.LVL772
 15522 30b5 BB3A0000 		.4byte	0x3abb
 15523 30b9 E8300000 		.4byte	0x30e8
 15524 30bd 18       		.uleb128 0x18
 15525 30be 01       		.uleb128 0x1
 15526 30bf 53       		.byte	0x53
 15527 30c0 01       		.uleb128 0x1
 15528 30c1 3A       		.byte	0x3a
 15529 30c2 18       		.uleb128 0x18
 15530 30c3 01       		.uleb128 0x1
 15531 30c4 52       		.byte	0x52
 15532 30c5 01       		.uleb128 0x1
 15533 30c6 45       		.byte	0x45
 15534 30c7 18       		.uleb128 0x18
 15535 30c8 01       		.uleb128 0x1
 15536 30c9 51       		.byte	0x51
 15537 30ca 02       		.uleb128 0x2
 15538 30cb 08       		.byte	0x8
 15539 30cc 2F       		.byte	0x2f
 15540 30cd 18       		.uleb128 0x18
 15541 30ce 01       		.uleb128 0x1
 15542 30cf 50       		.byte	0x50
 15543 30d0 01       		.uleb128 0x1
 15544 30d1 32       		.byte	0x32
 15545 30d2 18       		.uleb128 0x18
 15546 30d3 02       		.uleb128 0x2
 15547 30d4 7D       		.byte	0x7d
 15548 30d5 08       		.sleb128 8
 15549 30d6 02       		.uleb128 0x2
 15550 30d7 74       		.byte	0x74
 15551 30d8 00       		.sleb128 0
 15552 30d9 18       		.uleb128 0x18
 15553 30da 02       		.uleb128 0x2
 15554 30db 7D       		.byte	0x7d
 15555 30dc 04       		.sleb128 4
 15556 30dd 02       		.uleb128 0x2
 15557 30de 75       		.byte	0x75
 15558 30df 00       		.sleb128 0
 15559 30e0 18       		.uleb128 0x18
 15560 30e1 02       		.uleb128 0x2
 15561 30e2 7D       		.byte	0x7d
 15562 30e3 00       		.sleb128 0
 15563 30e4 02       		.uleb128 0x2
 15564 30e5 76       		.byte	0x76
 15565 30e6 00       		.sleb128 0
 15566 30e7 00       		.byte	0
 15567 30e8 17       		.uleb128 0x17
 15568 30e9 F6120000 		.4byte	.LVL773
 15569 30ed BB3A0000 		.4byte	0x3abb
 15570 30f1 1A310000 		.4byte	0x311a
 15571 30f5 18       		.uleb128 0x18
 15572 30f6 01       		.uleb128 0x1
 15573 30f7 53       		.byte	0x53
ARM GAS  C:\Users\RECEPC~1\AppData\Local\Temp\ccp152bc.s 			page 336


 15574 30f8 01       		.uleb128 0x1
 15575 30f9 3B       		.byte	0x3b
 15576 30fa 18       		.uleb128 0x18
 15577 30fb 01       		.uleb128 0x1
 15578 30fc 52       		.byte	0x52
 15579 30fd 01       		.uleb128 0x1
 15580 30fe 45       		.byte	0x45
 15581 30ff 18       		.uleb128 0x18
 15582 3100 01       		.uleb128 0x1
 15583 3101 50       		.byte	0x50
 15584 3102 01       		.uleb128 0x1
 15585 3103 32       		.byte	0x32
 15586 3104 18       		.uleb128 0x18
 15587 3105 02       		.uleb128 0x2
 15588 3106 7D       		.byte	0x7d
 15589 3107 08       		.sleb128 8
 15590 3108 02       		.uleb128 0x2
 15591 3109 74       		.byte	0x74
 15592 310a 00       		.sleb128 0
 15593 310b 18       		.uleb128 0x18
 15594 310c 02       		.uleb128 0x2
 15595 310d 7D       		.byte	0x7d
 15596 310e 04       		.sleb128 4
 15597 310f 02       		.uleb128 0x2
 15598 3110 75       		.byte	0x75
 15599 3111 00       		.sleb128 0
 15600 3112 18       		.uleb128 0x18
 15601 3113 02       		.uleb128 0x2
 15602 3114 7D       		.byte	0x7d
 15603 3115 00       		.sleb128 0
 15604 3116 02       		.uleb128 0x2
 15605 3117 76       		.byte	0x76
 15606 3118 00       		.sleb128 0
 15607 3119 00       		.byte	0
 15608 311a 17       		.uleb128 0x17
 15609 311b 0E130000 		.4byte	.LVL774
 15610 311f BB3A0000 		.4byte	0x3abb
 15611 3123 4C310000 		.4byte	0x314c
 15612 3127 18       		.uleb128 0x18
 15613 3128 01       		.uleb128 0x1
 15614 3129 53       		.byte	0x53
 15615 312a 01       		.uleb128 0x1
 15616 312b 3C       		.byte	0x3c
 15617 312c 18       		.uleb128 0x18
 15618 312d 01       		.uleb128 0x1
 15619 312e 52       		.byte	0x52
 15620 312f 01       		.uleb128 0x1
 15621 3130 45       		.byte	0x45
 15622 3131 18       		.uleb128 0x18
 15623 3132 01       		.uleb128 0x1
 15624 3133 50       		.byte	0x50
 15625 3134 01       		.uleb128 0x1
 15626 3135 32       		.byte	0x32
 15627 3136 18       		.uleb128 0x18
 15628 3137 02       		.uleb128 0x2
 15629 3138 7D       		.byte	0x7d
 15630 3139 08       		.sleb128 8
ARM GAS  C:\Users\RECEPC~1\AppData\Local\Temp\ccp152bc.s 			page 337


 15631 313a 02       		.uleb128 0x2
 15632 313b 74       		.byte	0x74
 15633 313c 00       		.sleb128 0
 15634 313d 18       		.uleb128 0x18
 15635 313e 02       		.uleb128 0x2
 15636 313f 7D       		.byte	0x7d
 15637 3140 04       		.sleb128 4
 15638 3141 02       		.uleb128 0x2
 15639 3142 75       		.byte	0x75
 15640 3143 00       		.sleb128 0
 15641 3144 18       		.uleb128 0x18
 15642 3145 02       		.uleb128 0x2
 15643 3146 7D       		.byte	0x7d
 15644 3147 00       		.sleb128 0
 15645 3148 02       		.uleb128 0x2
 15646 3149 76       		.byte	0x76
 15647 314a 00       		.sleb128 0
 15648 314b 00       		.byte	0
 15649 314c 17       		.uleb128 0x17
 15650 314d 20130000 		.4byte	.LVL775
 15651 3151 BB3A0000 		.4byte	0x3abb
 15652 3155 84310000 		.4byte	0x3184
 15653 3159 18       		.uleb128 0x18
 15654 315a 01       		.uleb128 0x1
 15655 315b 53       		.byte	0x53
 15656 315c 01       		.uleb128 0x1
 15657 315d 3D       		.byte	0x3d
 15658 315e 18       		.uleb128 0x18
 15659 315f 01       		.uleb128 0x1
 15660 3160 52       		.byte	0x52
 15661 3161 01       		.uleb128 0x1
 15662 3162 45       		.byte	0x45
 15663 3163 18       		.uleb128 0x18
 15664 3164 01       		.uleb128 0x1
 15665 3165 51       		.byte	0x51
 15666 3166 02       		.uleb128 0x2
 15667 3167 08       		.byte	0x8
 15668 3168 2F       		.byte	0x2f
 15669 3169 18       		.uleb128 0x18
 15670 316a 01       		.uleb128 0x1
 15671 316b 50       		.byte	0x50
 15672 316c 01       		.uleb128 0x1
 15673 316d 32       		.byte	0x32
 15674 316e 18       		.uleb128 0x18
 15675 316f 02       		.uleb128 0x2
 15676 3170 7D       		.byte	0x7d
 15677 3171 08       		.sleb128 8
 15678 3172 02       		.uleb128 0x2
 15679 3173 74       		.byte	0x74
 15680 3174 00       		.sleb128 0
 15681 3175 18       		.uleb128 0x18
 15682 3176 02       		.uleb128 0x2
 15683 3177 7D       		.byte	0x7d
 15684 3178 04       		.sleb128 4
 15685 3179 02       		.uleb128 0x2
 15686 317a 75       		.byte	0x75
 15687 317b 00       		.sleb128 0
ARM GAS  C:\Users\RECEPC~1\AppData\Local\Temp\ccp152bc.s 			page 338


 15688 317c 18       		.uleb128 0x18
 15689 317d 02       		.uleb128 0x2
 15690 317e 7D       		.byte	0x7d
 15691 317f 00       		.sleb128 0
 15692 3180 02       		.uleb128 0x2
 15693 3181 76       		.byte	0x76
 15694 3182 00       		.sleb128 0
 15695 3183 00       		.byte	0
 15696 3184 17       		.uleb128 0x17
 15697 3185 36130000 		.4byte	.LVL776
 15698 3189 BB3A0000 		.4byte	0x3abb
 15699 318d B6310000 		.4byte	0x31b6
 15700 3191 18       		.uleb128 0x18
 15701 3192 01       		.uleb128 0x1
 15702 3193 53       		.byte	0x53
 15703 3194 01       		.uleb128 0x1
 15704 3195 3E       		.byte	0x3e
 15705 3196 18       		.uleb128 0x18
 15706 3197 01       		.uleb128 0x1
 15707 3198 52       		.byte	0x52
 15708 3199 01       		.uleb128 0x1
 15709 319a 45       		.byte	0x45
 15710 319b 18       		.uleb128 0x18
 15711 319c 01       		.uleb128 0x1
 15712 319d 50       		.byte	0x50
 15713 319e 01       		.uleb128 0x1
 15714 319f 32       		.byte	0x32
 15715 31a0 18       		.uleb128 0x18
 15716 31a1 02       		.uleb128 0x2
 15717 31a2 7D       		.byte	0x7d
 15718 31a3 08       		.sleb128 8
 15719 31a4 02       		.uleb128 0x2
 15720 31a5 74       		.byte	0x74
 15721 31a6 00       		.sleb128 0
 15722 31a7 18       		.uleb128 0x18
 15723 31a8 02       		.uleb128 0x2
 15724 31a9 7D       		.byte	0x7d
 15725 31aa 04       		.sleb128 4
 15726 31ab 02       		.uleb128 0x2
 15727 31ac 75       		.byte	0x75
 15728 31ad 00       		.sleb128 0
 15729 31ae 18       		.uleb128 0x18
 15730 31af 02       		.uleb128 0x2
 15731 31b0 7D       		.byte	0x7d
 15732 31b1 00       		.sleb128 0
 15733 31b2 02       		.uleb128 0x2
 15734 31b3 76       		.byte	0x76
 15735 31b4 00       		.sleb128 0
 15736 31b5 00       		.byte	0
 15737 31b6 17       		.uleb128 0x17
 15738 31b7 4E130000 		.4byte	.LVL777
 15739 31bb BB3A0000 		.4byte	0x3abb
 15740 31bf E8310000 		.4byte	0x31e8
 15741 31c3 18       		.uleb128 0x18
 15742 31c4 01       		.uleb128 0x1
 15743 31c5 53       		.byte	0x53
 15744 31c6 01       		.uleb128 0x1
ARM GAS  C:\Users\RECEPC~1\AppData\Local\Temp\ccp152bc.s 			page 339


 15745 31c7 3F       		.byte	0x3f
 15746 31c8 18       		.uleb128 0x18
 15747 31c9 01       		.uleb128 0x1
 15748 31ca 52       		.byte	0x52
 15749 31cb 01       		.uleb128 0x1
 15750 31cc 45       		.byte	0x45
 15751 31cd 18       		.uleb128 0x18
 15752 31ce 01       		.uleb128 0x1
 15753 31cf 50       		.byte	0x50
 15754 31d0 01       		.uleb128 0x1
 15755 31d1 32       		.byte	0x32
 15756 31d2 18       		.uleb128 0x18
 15757 31d3 02       		.uleb128 0x2
 15758 31d4 7D       		.byte	0x7d
 15759 31d5 08       		.sleb128 8
 15760 31d6 02       		.uleb128 0x2
 15761 31d7 74       		.byte	0x74
 15762 31d8 00       		.sleb128 0
 15763 31d9 18       		.uleb128 0x18
 15764 31da 02       		.uleb128 0x2
 15765 31db 7D       		.byte	0x7d
 15766 31dc 04       		.sleb128 4
 15767 31dd 02       		.uleb128 0x2
 15768 31de 75       		.byte	0x75
 15769 31df 00       		.sleb128 0
 15770 31e0 18       		.uleb128 0x18
 15771 31e1 02       		.uleb128 0x2
 15772 31e2 7D       		.byte	0x7d
 15773 31e3 00       		.sleb128 0
 15774 31e4 02       		.uleb128 0x2
 15775 31e5 76       		.byte	0x76
 15776 31e6 00       		.sleb128 0
 15777 31e7 00       		.byte	0
 15778 31e8 15       		.uleb128 0x15
 15779 31e9 52130000 		.4byte	.LVL778
 15780 31ed 4F3C0000 		.4byte	0x3c4f
 15781 31f1 17       		.uleb128 0x17
 15782 31f2 92130000 		.4byte	.LVL779
 15783 31f6 D3390000 		.4byte	0x39d3
 15784 31fa 09320000 		.4byte	0x3209
 15785 31fe 18       		.uleb128 0x18
 15786 31ff 01       		.uleb128 0x1
 15787 3200 51       		.byte	0x51
 15788 3201 01       		.uleb128 0x1
 15789 3202 31       		.byte	0x31
 15790 3203 18       		.uleb128 0x18
 15791 3204 01       		.uleb128 0x1
 15792 3205 50       		.byte	0x50
 15793 3206 01       		.uleb128 0x1
 15794 3207 32       		.byte	0x32
 15795 3208 00       		.byte	0
 15796 3209 17       		.uleb128 0x17
 15797 320a A2130000 		.4byte	.LVL780
 15798 320e D3390000 		.4byte	0x39d3
 15799 3212 21320000 		.4byte	0x3221
 15800 3216 18       		.uleb128 0x18
 15801 3217 01       		.uleb128 0x1
ARM GAS  C:\Users\RECEPC~1\AppData\Local\Temp\ccp152bc.s 			page 340


 15802 3218 51       		.byte	0x51
 15803 3219 01       		.uleb128 0x1
 15804 321a 31       		.byte	0x31
 15805 321b 18       		.uleb128 0x18
 15806 321c 01       		.uleb128 0x1
 15807 321d 50       		.byte	0x50
 15808 321e 01       		.uleb128 0x1
 15809 321f 32       		.byte	0x32
 15810 3220 00       		.byte	0
 15811 3221 17       		.uleb128 0x17
 15812 3222 A8130000 		.4byte	.LVL781
 15813 3226 0A3A0000 		.4byte	0x3a0a
 15814 322a 34320000 		.4byte	0x3234
 15815 322e 18       		.uleb128 0x18
 15816 322f 01       		.uleb128 0x1
 15817 3230 50       		.byte	0x50
 15818 3231 01       		.uleb128 0x1
 15819 3232 3A       		.byte	0x3a
 15820 3233 00       		.byte	0
 15821 3234 15       		.uleb128 0x15
 15822 3235 AC130000 		.4byte	.LVL782
 15823 3239 5A3C0000 		.4byte	0x3c5a
 15824 323d 00       		.byte	0
 15825 323e 14       		.uleb128 0x14
 15826 323f C5000000 		.4byte	.LASF184
 15827 3243 01       		.byte	0x1
 15828 3244 F307     		.2byte	0x7f3
 15829 3246 00000000 		.4byte	.LFB74
 15830 324a 14000000 		.4byte	.LFE74-.LFB74
 15831 324e 01       		.uleb128 0x1
 15832 324f 9C       		.byte	0x9c
 15833 3250 5E320000 		.4byte	0x325e
 15834 3254 15       		.uleb128 0x15
 15835 3255 06000000 		.4byte	.LVL783
 15836 3259 613C0000 		.4byte	0x3c61
 15837 325d 00       		.byte	0
 15838 325e 1E       		.uleb128 0x1e
 15839 325f 06030000 		.4byte	.LASF185
 15840 3263 01       		.byte	0x1
 15841 3264 2508     		.2byte	0x825
 15842 3266 7E000000 		.4byte	0x7e
 15843 326a 00000000 		.4byte	.LFB75
 15844 326e 54000000 		.4byte	.LFE75-.LFB75
 15845 3272 01       		.uleb128 0x1
 15846 3273 9C       		.byte	0x9c
 15847 3274 E2320000 		.4byte	0x32e2
 15848 3278 15       		.uleb128 0x15
 15849 3279 08000000 		.4byte	.LVL784
 15850 327d 53070000 		.4byte	0x753
 15851 3281 15       		.uleb128 0x15
 15852 3282 0C000000 		.4byte	.LVL785
 15853 3286 340D0000 		.4byte	0xd34
 15854 328a 15       		.uleb128 0x15
 15855 328b 10000000 		.4byte	.LVL786
 15856 328f 9D080000 		.4byte	0x89d
 15857 3293 17       		.uleb128 0x17
 15858 3294 18000000 		.4byte	.LVL787
ARM GAS  C:\Users\RECEPC~1\AppData\Local\Temp\ccp152bc.s 			page 341


 15859 3298 6C3C0000 		.4byte	0x3c6c
 15860 329c AB320000 		.4byte	0x32ab
 15861 32a0 18       		.uleb128 0x18
 15862 32a1 01       		.uleb128 0x1
 15863 32a2 51       		.byte	0x51
 15864 32a3 01       		.uleb128 0x1
 15865 32a4 30       		.byte	0x30
 15866 32a5 18       		.uleb128 0x18
 15867 32a6 01       		.uleb128 0x1
 15868 32a7 50       		.byte	0x50
 15869 32a8 01       		.uleb128 0x1
 15870 32a9 33       		.byte	0x33
 15871 32aa 00       		.byte	0
 15872 32ab 15       		.uleb128 0x15
 15873 32ac 1C000000 		.4byte	.LVL788
 15874 32b0 823C0000 		.4byte	0x3c82
 15875 32b4 15       		.uleb128 0x15
 15876 32b5 20000000 		.4byte	.LVL789
 15877 32b9 893C0000 		.4byte	0x3c89
 15878 32bd 15       		.uleb128 0x15
 15879 32be 24000000 		.4byte	.LVL790
 15880 32c2 43110000 		.4byte	0x1143
 15881 32c6 15       		.uleb128 0x15
 15882 32c7 28000000 		.4byte	.LVL791
 15883 32cb 823C0000 		.4byte	0x3c82
 15884 32cf 15       		.uleb128 0x15
 15885 32d0 2C000000 		.4byte	.LVL792
 15886 32d4 BB210000 		.4byte	0x21bb
 15887 32d8 15       		.uleb128 0x15
 15888 32d9 30000000 		.4byte	.LVL793
 15889 32dd 823C0000 		.4byte	0x3c82
 15890 32e1 00       		.byte	0
 15891 32e2 0A       		.uleb128 0xa
 15892 32e3 AD000000 		.4byte	0xad
 15893 32e7 F2320000 		.4byte	0x32f2
 15894 32eb 0B       		.uleb128 0xb
 15895 32ec 27010000 		.4byte	0x127
 15896 32f0 1F       		.byte	0x1f
 15897 32f1 00       		.byte	0
 15898 32f2 1F       		.uleb128 0x1f
 15899 32f3 24000000 		.4byte	.LASF186
 15900 32f7 06       		.byte	0x6
 15901 32f8 3E01     		.2byte	0x13e
 15902 32fa FE320000 		.4byte	0x32fe
 15903 32fe 06       		.uleb128 0x6
 15904 32ff E2320000 		.4byte	0x32e2
 15905 3303 1F       		.uleb128 0x1f
 15906 3304 80100000 		.4byte	.LASF187
 15907 3308 07       		.byte	0x7
 15908 3309 3E01     		.2byte	0x13e
 15909 330b 0F330000 		.4byte	0x330f
 15910 330f 06       		.uleb128 0x6
 15911 3310 E2320000 		.4byte	0x32e2
 15912 3314 1F       		.uleb128 0x1f
 15913 3315 2F0B0000 		.4byte	.LASF188
 15914 3319 08       		.byte	0x8
 15915 331a 5506     		.2byte	0x655
ARM GAS  C:\Users\RECEPC~1\AppData\Local\Temp\ccp152bc.s 			page 342


 15916 331c 20330000 		.4byte	0x3320
 15917 3320 06       		.uleb128 0x6
 15918 3321 A2000000 		.4byte	0xa2
 15919 3325 20       		.uleb128 0x20
 15920 3326 A8060000 		.4byte	.LASF189
 15921 332a 05       		.byte	0x5
 15922 332b 2C       		.byte	0x2c
 15923 332c 36330000 		.4byte	0x3336
 15924 3330 05       		.uleb128 0x5
 15925 3331 03       		.byte	0x3
 15926 3332 00000000 		.4byte	countAnimation1
 15927 3336 06       		.uleb128 0x6
 15928 3337 DF000000 		.4byte	0xdf
 15929 333b 20       		.uleb128 0x20
 15930 333c B8060000 		.4byte	.LASF190
 15931 3340 05       		.byte	0x5
 15932 3341 2D       		.byte	0x2d
 15933 3342 36330000 		.4byte	0x3336
 15934 3346 05       		.uleb128 0x5
 15935 3347 03       		.byte	0x3
 15936 3348 00000000 		.4byte	countAnimation2
 15937 334c 20       		.uleb128 0x20
 15938 334d F2100000 		.4byte	.LASF191
 15939 3351 05       		.byte	0x5
 15940 3352 2E       		.byte	0x2e
 15941 3353 36330000 		.4byte	0x3336
 15942 3357 05       		.uleb128 0x5
 15943 3358 03       		.byte	0x3
 15944 3359 00000000 		.4byte	countRX
 15945 335d 20       		.uleb128 0x20
 15946 335e F6110000 		.4byte	.LASF192
 15947 3362 05       		.byte	0x5
 15948 3363 2F       		.byte	0x2f
 15949 3364 36330000 		.4byte	0x3336
 15950 3368 05       		.uleb128 0x5
 15951 3369 03       		.byte	0x3
 15952 336a 00000000 		.4byte	countTX
 15953 336e 20       		.uleb128 0x20
 15954 336f B1030000 		.4byte	.LASF193
 15955 3373 05       		.byte	0x5
 15956 3374 30       		.byte	0x30
 15957 3375 36330000 		.4byte	0x3336
 15958 3379 05       		.uleb128 0x5
 15959 337a 03       		.byte	0x3
 15960 337b 00000000 		.4byte	countPump
 15961 337f 20       		.uleb128 0x20
 15962 3380 FA010000 		.4byte	.LASF194
 15963 3384 05       		.byte	0x5
 15964 3385 31       		.byte	0x31
 15965 3386 36330000 		.4byte	0x3336
 15966 338a 05       		.uleb128 0x5
 15967 338b 03       		.byte	0x3
 15968 338c 00000000 		.4byte	countLCD
 15969 3390 20       		.uleb128 0x20
 15970 3391 84050000 		.4byte	.LASF195
 15971 3395 05       		.byte	0x5
 15972 3396 32       		.byte	0x32
ARM GAS  C:\Users\RECEPC~1\AppData\Local\Temp\ccp152bc.s 			page 343


 15973 3397 0F010000 		.4byte	0x10f
 15974 339b 05       		.uleb128 0x5
 15975 339c 03       		.byte	0x3
 15976 339d 00000000 		.4byte	flowDisplay1
 15977 33a1 20       		.uleb128 0x20
 15978 33a2 91050000 		.4byte	.LASF196
 15979 33a6 05       		.byte	0x5
 15980 33a7 33       		.byte	0x33
 15981 33a8 0F010000 		.4byte	0x10f
 15982 33ac 05       		.uleb128 0x5
 15983 33ad 03       		.byte	0x3
 15984 33ae 00000000 		.4byte	flowDisplay2
 15985 33b2 20       		.uleb128 0x20
 15986 33b3 9E050000 		.4byte	.LASF197
 15987 33b7 05       		.byte	0x5
 15988 33b8 34       		.byte	0x34
 15989 33b9 0F010000 		.4byte	0x10f
 15990 33bd 05       		.uleb128 0x5
 15991 33be 03       		.byte	0x3
 15992 33bf 00000000 		.4byte	flowDisplay3
 15993 33c3 20       		.uleb128 0x20
 15994 33c4 AB050000 		.4byte	.LASF198
 15995 33c8 05       		.byte	0x5
 15996 33c9 35       		.byte	0x35
 15997 33ca 0F010000 		.4byte	0x10f
 15998 33ce 05       		.uleb128 0x5
 15999 33cf 03       		.byte	0x3
 16000 33d0 00000000 		.4byte	flowDisplay4
 16001 33d4 20       		.uleb128 0x20
 16002 33d5 BD010000 		.4byte	.LASF199
 16003 33d9 05       		.byte	0x5
 16004 33da 36       		.byte	0x36
 16005 33db 0A010000 		.4byte	0x10a
 16006 33df 05       		.uleb128 0x5
 16007 33e0 03       		.byte	0x3
 16008 33e1 00000000 		.4byte	numberKeys1
 16009 33e5 20       		.uleb128 0x20
 16010 33e6 C9010000 		.4byte	.LASF200
 16011 33ea 05       		.byte	0x5
 16012 33eb 37       		.byte	0x37
 16013 33ec 0A010000 		.4byte	0x10a
 16014 33f0 05       		.uleb128 0x5
 16015 33f1 03       		.byte	0x3
 16016 33f2 00000000 		.4byte	numberKeys2
 16017 33f6 20       		.uleb128 0x20
 16018 33f7 870E0000 		.4byte	.LASF201
 16019 33fb 05       		.byte	0x5
 16020 33fc 38       		.byte	0x38
 16021 33fd 0A010000 		.4byte	0x10a
 16022 3401 05       		.uleb128 0x5
 16023 3402 03       		.byte	0x3
 16024 3403 00000000 		.4byte	flagPoint1
 16025 3407 20       		.uleb128 0x20
 16026 3408 920E0000 		.4byte	.LASF202
 16027 340c 05       		.byte	0x5
 16028 340d 39       		.byte	0x39
 16029 340e 0A010000 		.4byte	0x10a
ARM GAS  C:\Users\RECEPC~1\AppData\Local\Temp\ccp152bc.s 			page 344


 16030 3412 05       		.uleb128 0x5
 16031 3413 03       		.byte	0x3
 16032 3414 00000000 		.4byte	flagPoint2
 16033 3418 20       		.uleb128 0x20
 16034 3419 4D0E0000 		.4byte	.LASF203
 16035 341d 05       		.byte	0x5
 16036 341e 3A       		.byte	0x3a
 16037 341f 0A010000 		.4byte	0x10a
 16038 3423 05       		.uleb128 0x5
 16039 3424 03       		.byte	0x3
 16040 3425 00000000 		.4byte	productNumber
 16041 3429 20       		.uleb128 0x20
 16042 342a 9E0B0000 		.4byte	.LASF204
 16043 342e 05       		.byte	0x5
 16044 342f 3B       		.byte	0x3b
 16045 3430 0F010000 		.4byte	0x10f
 16046 3434 05       		.uleb128 0x5
 16047 3435 03       		.byte	0x3
 16048 3436 00000000 		.4byte	delayPicture1
 16049 343a 20       		.uleb128 0x20
 16050 343b AC0B0000 		.4byte	.LASF205
 16051 343f 05       		.byte	0x5
 16052 3440 3C       		.byte	0x3c
 16053 3441 0F010000 		.4byte	0x10f
 16054 3445 05       		.uleb128 0x5
 16055 3446 03       		.byte	0x3
 16056 3447 00000000 		.4byte	delayPicture2
 16057 344b 20       		.uleb128 0x20
 16058 344c A10A0000 		.4byte	.LASF206
 16059 3450 05       		.byte	0x5
 16060 3451 3D       		.byte	0x3d
 16061 3452 0A010000 		.4byte	0x10a
 16062 3456 05       		.uleb128 0x5
 16063 3457 03       		.byte	0x3
 16064 3458 00000000 		.4byte	ppux10
 16065 345c 20       		.uleb128 0x20
 16066 345d 4C050000 		.4byte	.LASF207
 16067 3461 05       		.byte	0x5
 16068 3462 3E       		.byte	0x3e
 16069 3463 0A010000 		.4byte	0x10a
 16070 3467 05       		.uleb128 0x5
 16071 3468 03       		.byte	0x3
 16072 3469 00000000 		.4byte	decimalMoney
 16073 346d 20       		.uleb128 0x20
 16074 346e 03020000 		.4byte	.LASF208
 16075 3472 05       		.byte	0x5
 16076 3473 3F       		.byte	0x3f
 16077 3474 0A010000 		.4byte	0x10a
 16078 3478 05       		.uleb128 0x5
 16079 3479 03       		.byte	0x3
 16080 347a 00000000 		.4byte	decimalVolume
 16081 347e 20       		.uleb128 0x20
 16082 347f B4020000 		.4byte	.LASF209
 16083 3483 05       		.byte	0x5
 16084 3484 40       		.byte	0x40
 16085 3485 8F340000 		.4byte	0x348f
 16086 3489 05       		.uleb128 0x5
ARM GAS  C:\Users\RECEPC~1\AppData\Local\Temp\ccp152bc.s 			page 345


 16087 348a 03       		.byte	0x3
 16088 348b 00000000 		.4byte	symbols
 16089 348f 06       		.uleb128 0x6
 16090 3490 8D030000 		.4byte	0x38d
 16091 3494 0A       		.uleb128 0xa
 16092 3495 AD000000 		.4byte	0xad
 16093 3499 A4340000 		.4byte	0x34a4
 16094 349d 0B       		.uleb128 0xb
 16095 349e 27010000 		.4byte	0x127
 16096 34a2 02       		.byte	0x2
 16097 34a3 00       		.byte	0
 16098 34a4 20       		.uleb128 0x20
 16099 34a5 080F0000 		.4byte	.LASF210
 16100 34a9 05       		.byte	0x5
 16101 34aa 41       		.byte	0x41
 16102 34ab B5340000 		.4byte	0x34b5
 16103 34af 05       		.uleb128 0x5
 16104 34b0 03       		.byte	0x3
 16105 34b1 00000000 		.4byte	time
 16106 34b5 06       		.uleb128 0x6
 16107 34b6 94340000 		.4byte	0x3494
 16108 34ba 20       		.uleb128 0x20
 16109 34bb 77030000 		.4byte	.LASF211
 16110 34bf 05       		.byte	0x5
 16111 34c0 42       		.byte	0x42
 16112 34c1 CB340000 		.4byte	0x34cb
 16113 34c5 05       		.uleb128 0x5
 16114 34c6 03       		.byte	0x3
 16115 34c7 00000000 		.4byte	date
 16116 34cb 06       		.uleb128 0x6
 16117 34cc 94340000 		.4byte	0x3494
 16118 34d0 20       		.uleb128 0x20
 16119 34d1 9A010000 		.4byte	.LASF212
 16120 34d5 05       		.byte	0x5
 16121 34d6 43       		.byte	0x43
 16122 34d7 E1340000 		.4byte	0x34e1
 16123 34db 05       		.uleb128 0x5
 16124 34dc 03       		.byte	0x3
 16125 34dd 00000000 		.4byte	screen
 16126 34e1 06       		.uleb128 0x6
 16127 34e2 8D030000 		.4byte	0x38d
 16128 34e6 20       		.uleb128 0x20
 16129 34e7 C70A0000 		.4byte	.LASF213
 16130 34eb 05       		.byte	0x5
 16131 34ec 44       		.byte	0x44
 16132 34ed F7340000 		.4byte	0x34f7
 16133 34f1 05       		.uleb128 0x5
 16134 34f2 03       		.byte	0x3
 16135 34f3 00000000 		.4byte	residue
 16136 34f7 06       		.uleb128 0x6
 16137 34f8 D3030000 		.4byte	0x3d3
 16138 34fc 20       		.uleb128 0x20
 16139 34fd 77100000 		.4byte	.LASF214
 16140 3501 05       		.byte	0x5
 16141 3502 45       		.byte	0x45
 16142 3503 0D350000 		.4byte	0x350d
 16143 3507 05       		.uleb128 0x5
ARM GAS  C:\Users\RECEPC~1\AppData\Local\Temp\ccp152bc.s 			page 346


 16144 3508 03       		.byte	0x3
 16145 3509 00000000 		.4byte	idSeller
 16146 350d 06       		.uleb128 0x6
 16147 350e 5D030000 		.4byte	0x35d
 16148 3512 20       		.uleb128 0x20
 16149 3513 0C0A0000 		.4byte	.LASF215
 16150 3517 05       		.byte	0x5
 16151 3518 46       		.byte	0x46
 16152 3519 0A010000 		.4byte	0x10a
 16153 351d 05       		.uleb128 0x5
 16154 351e 03       		.byte	0x3
 16155 351f 00000000 		.4byte	typeIdSeller
 16156 3523 0A       		.uleb128 0xa
 16157 3524 AD000000 		.4byte	0xad
 16158 3528 33350000 		.4byte	0x3533
 16159 352c 0B       		.uleb128 0xb
 16160 352d 27010000 		.4byte	0x127
 16161 3531 07       		.byte	0x7
 16162 3532 00       		.byte	0
 16163 3533 20       		.uleb128 0x20
 16164 3534 D5010000 		.4byte	.LASF216
 16165 3538 05       		.byte	0x5
 16166 3539 47       		.byte	0x47
 16167 353a 44350000 		.4byte	0x3544
 16168 353e 05       		.uleb128 0x5
 16169 353f 03       		.byte	0x3
 16170 3540 00000000 		.4byte	passwordSeller
 16171 3544 06       		.uleb128 0x6
 16172 3545 23350000 		.4byte	0x3523
 16173 3549 20       		.uleb128 0x20
 16174 354a 3C0B0000 		.4byte	.LASF217
 16175 354e 05       		.byte	0x5
 16176 354f 48       		.byte	0x48
 16177 3550 0A010000 		.4byte	0x10a
 16178 3554 05       		.uleb128 0x5
 16179 3555 03       		.byte	0x3
 16180 3556 00000000 		.4byte	flagResetMux
 16181 355a 20       		.uleb128 0x20
 16182 355b C8060000 		.4byte	.LASF218
 16183 355f 05       		.byte	0x5
 16184 3560 49       		.byte	0x49
 16185 3561 0A010000 		.4byte	0x10a
 16186 3565 05       		.uleb128 0x5
 16187 3566 03       		.byte	0x3
 16188 3567 00000000 		.4byte	stateBeagleSoft
 16189 356b 20       		.uleb128 0x20
 16190 356c CB120000 		.4byte	.LASF219
 16191 3570 05       		.byte	0x5
 16192 3571 4A       		.byte	0x4a
 16193 3572 7C350000 		.4byte	0x357c
 16194 3576 05       		.uleb128 0x5
 16195 3577 03       		.byte	0x3
 16196 3578 00000000 		.4byte	PrevStatePump
 16197 357c 06       		.uleb128 0x6
 16198 357d 39010000 		.4byte	0x139
 16199 3581 20       		.uleb128 0x20
 16200 3582 D6090000 		.4byte	.LASF220
ARM GAS  C:\Users\RECEPC~1\AppData\Local\Temp\ccp152bc.s 			page 347


 16201 3586 05       		.byte	0x5
 16202 3587 4B       		.byte	0x4b
 16203 3588 0A010000 		.4byte	0x10a
 16204 358c 05       		.uleb128 0x5
 16205 358d 03       		.byte	0x3
 16206 358e 00000000 		.4byte	PlateRequest
 16207 3592 20       		.uleb128 0x20
 16208 3593 010F0000 		.4byte	.LASF221
 16209 3597 05       		.byte	0x5
 16210 3598 4C       		.byte	0x4c
 16211 3599 A3350000 		.4byte	0x35a3
 16212 359d 05       		.uleb128 0x5
 16213 359e 03       		.byte	0x3
 16214 359f 00000000 		.4byte	IDCast
 16215 35a3 06       		.uleb128 0x6
 16216 35a4 8D030000 		.4byte	0x38d
 16217 35a8 20       		.uleb128 0x20
 16218 35a9 8D120000 		.4byte	.LASF222
 16219 35ad 05       		.byte	0x5
 16220 35ae 4D       		.byte	0x4d
 16221 35af 0A010000 		.4byte	0x10a
 16222 35b3 05       		.uleb128 0x5
 16223 35b4 03       		.byte	0x3
 16224 35b5 00000000 		.4byte	ActiveRF
 16225 35b9 20       		.uleb128 0x20
 16226 35ba 2D060000 		.4byte	.LASF223
 16227 35be 05       		.byte	0x5
 16228 35bf 4E       		.byte	0x4e
 16229 35c0 0A010000 		.4byte	0x10a
 16230 35c4 05       		.uleb128 0x5
 16231 35c5 03       		.byte	0x3
 16232 35c6 00000000 		.4byte	counterRF
 16233 35ca 0A       		.uleb128 0xa
 16234 35cb AD000000 		.4byte	0xad
 16235 35cf DA350000 		.4byte	0x35da
 16236 35d3 0B       		.uleb128 0xb
 16237 35d4 27010000 		.4byte	0x127
 16238 35d8 1D       		.byte	0x1d
 16239 35d9 00       		.byte	0
 16240 35da 20       		.uleb128 0x20
 16241 35db 1B000000 		.4byte	.LASF224
 16242 35df 05       		.byte	0x5
 16243 35e0 4F       		.byte	0x4f
 16244 35e1 EB350000 		.4byte	0x35eb
 16245 35e5 05       		.uleb128 0x5
 16246 35e6 03       		.byte	0x3
 16247 35e7 00000000 		.4byte	temporal
 16248 35eb 06       		.uleb128 0x6
 16249 35ec CA350000 		.4byte	0x35ca
 16250 35f0 20       		.uleb128 0x20
 16251 35f1 BD0F0000 		.4byte	.LASF225
 16252 35f5 05       		.byte	0x5
 16253 35f6 50       		.byte	0x50
 16254 35f7 01360000 		.4byte	0x3601
 16255 35fb 05       		.uleb128 0x5
 16256 35fc 03       		.byte	0x3
 16257 35fd 00000000 		.4byte	tempPreset
ARM GAS  C:\Users\RECEPC~1\AppData\Local\Temp\ccp152bc.s 			page 348


 16258 3601 06       		.uleb128 0x6
 16259 3602 23350000 		.4byte	0x3523
 16260 3606 20       		.uleb128 0x20
 16261 3607 59100000 		.4byte	.LASF226
 16262 360b 05       		.byte	0x5
 16263 360c 51       		.byte	0x51
 16264 360d 17360000 		.4byte	0x3617
 16265 3611 05       		.uleb128 0x5
 16266 3612 03       		.byte	0x3
 16267 3613 00000000 		.4byte	tempPPU
 16268 3617 06       		.uleb128 0x6
 16269 3618 B3030000 		.4byte	0x3b3
 16270 361c 20       		.uleb128 0x20
 16271 361d 53030000 		.4byte	.LASF227
 16272 3621 05       		.byte	0x5
 16273 3622 52       		.byte	0x52
 16274 3623 0A010000 		.4byte	0x10a
 16275 3627 05       		.uleb128 0x5
 16276 3628 03       		.byte	0x3
 16277 3629 00000000 		.4byte	CGrade
 16278 362d 20       		.uleb128 0x20
 16279 362e AA120000 		.4byte	.LASF228
 16280 3632 05       		.byte	0x5
 16281 3633 53       		.byte	0x53
 16282 3634 0A010000 		.4byte	0x10a
 16283 3638 05       		.uleb128 0x5
 16284 3639 03       		.byte	0x3
 16285 363a 00000000 		.4byte	ShiftState
 16286 363e 20       		.uleb128 0x20
 16287 363f 2B070000 		.4byte	.LASF229
 16288 3643 05       		.byte	0x5
 16289 3644 54       		.byte	0x54
 16290 3645 0A010000 		.4byte	0x10a
 16291 3649 05       		.uleb128 0x5
 16292 364a 03       		.byte	0x3
 16293 364b 00000000 		.4byte	sizeSendA
 16294 364f 20       		.uleb128 0x20
 16295 3650 35070000 		.4byte	.LASF230
 16296 3654 05       		.byte	0x5
 16297 3655 55       		.byte	0x55
 16298 3656 0A010000 		.4byte	0x10a
 16299 365a 05       		.uleb128 0x5
 16300 365b 03       		.byte	0x3
 16301 365c 00000000 		.4byte	sizeSendB
 16302 3660 20       		.uleb128 0x20
 16303 3661 49060000 		.4byte	.LASF231
 16304 3665 05       		.byte	0x5
 16305 3666 57       		.byte	0x57
 16306 3667 AD000000 		.4byte	0xad
 16307 366b 05       		.uleb128 0x5
 16308 366c 03       		.byte	0x3
 16309 366d 00000000 		.4byte	UnitType
 16310 3671 20       		.uleb128 0x20
 16311 3672 930D0000 		.4byte	.LASF232
 16312 3676 05       		.byte	0x5
 16313 3677 57       		.byte	0x57
 16314 3678 AD000000 		.4byte	0xad
ARM GAS  C:\Users\RECEPC~1\AppData\Local\Temp\ccp152bc.s 			page 349


 16315 367c 05       		.uleb128 0x5
 16316 367d 03       		.byte	0x3
 16317 367e 00000000 		.4byte	ConversionFactor
 16318 3682 20       		.uleb128 0x20
 16319 3683 670B0000 		.4byte	.LASF233
 16320 3687 05       		.byte	0x5
 16321 3688 57       		.byte	0x57
 16322 3689 AD000000 		.4byte	0xad
 16323 368d 05       		.uleb128 0x5
 16324 368e 03       		.byte	0x3
 16325 368f 00000000 		.4byte	MoneyDec
 16326 3693 20       		.uleb128 0x20
 16327 3694 390F0000 		.4byte	.LASF234
 16328 3698 05       		.byte	0x5
 16329 3699 57       		.byte	0x57
 16330 369a AD000000 		.4byte	0xad
 16331 369e 05       		.uleb128 0x5
 16332 369f 03       		.byte	0x3
 16333 36a0 00000000 		.4byte	VolDec
 16334 36a4 20       		.uleb128 0x20
 16335 36a5 5F0C0000 		.4byte	.LASF235
 16336 36a9 05       		.byte	0x5
 16337 36aa 57       		.byte	0x57
 16338 36ab AD000000 		.4byte	0xad
 16339 36af 05       		.uleb128 0x5
 16340 36b0 03       		.byte	0x3
 16341 36b1 00000000 		.4byte	PPUDec
 16342 36b5 20       		.uleb128 0x20
 16343 36b6 88080000 		.4byte	.LASF236
 16344 36ba 05       		.byte	0x5
 16345 36bb 57       		.byte	0x57
 16346 36bc AD000000 		.4byte	0xad
 16347 36c0 05       		.uleb128 0x5
 16348 36c1 03       		.byte	0x3
 16349 36c2 00000000 		.4byte	DDMode
 16350 36c6 20       		.uleb128 0x20
 16351 36c7 B8050000 		.4byte	.LASF237
 16352 36cb 05       		.byte	0x5
 16353 36cc 58       		.byte	0x58
 16354 36cd 39010000 		.4byte	0x139
 16355 36d1 05       		.uleb128 0x5
 16356 36d2 03       		.byte	0x3
 16357 36d3 00000000 		.4byte	statePump
 16358 36d7 20       		.uleb128 0x20
 16359 36d8 B1000000 		.4byte	.LASF238
 16360 36dc 05       		.byte	0x5
 16361 36dd 59       		.byte	0x59
 16362 36de AD000000 		.4byte	0xad
 16363 36e2 05       		.uleb128 0x5
 16364 36e3 03       		.byte	0x3
 16365 36e4 00000000 		.4byte	NumPositions
 16366 36e8 20       		.uleb128 0x20
 16367 36e9 EC050000 		.4byte	.LASF239
 16368 36ed 05       		.byte	0x5
 16369 36ee 5A       		.byte	0x5a
 16370 36ef AD000000 		.4byte	0xad
 16371 36f3 05       		.uleb128 0x5
ARM GAS  C:\Users\RECEPC~1\AppData\Local\Temp\ccp152bc.s 			page 350


 16372 36f4 03       		.byte	0x3
 16373 36f5 00000000 		.4byte	lockTurn
 16374 36f9 20       		.uleb128 0x20
 16375 36fa BE000000 		.4byte	.LASF240
 16376 36fe 05       		.byte	0x5
 16377 36ff 5B       		.byte	0x5b
 16378 3700 AD000000 		.4byte	0xad
 16379 3704 05       		.uleb128 0x5
 16380 3705 03       		.byte	0x3
 16381 3706 00000000 		.4byte	digits
 16382 370a 20       		.uleb128 0x20
 16383 370b 720E0000 		.4byte	.LASF241
 16384 370f 05       		.byte	0x5
 16385 3710 5C       		.byte	0x5c
 16386 3711 AD000000 		.4byte	0xad
 16387 3715 05       		.uleb128 0x5
 16388 3716 03       		.byte	0x3
 16389 3717 00000000 		.4byte	hiddenKeys
 16390 371b 20       		.uleb128 0x20
 16391 371c CF070000 		.4byte	.LASF242
 16392 3720 05       		.byte	0x5
 16393 3721 5D       		.byte	0x5d
 16394 3722 AD000000 		.4byte	0xad
 16395 3726 05       		.uleb128 0x5
 16396 3727 03       		.byte	0x3
 16397 3728 00000000 		.4byte	PrinterType
 16398 372c 0A       		.uleb128 0xa
 16399 372d EB000000 		.4byte	0xeb
 16400 3731 3C370000 		.4byte	0x373c
 16401 3735 0B       		.uleb128 0xb
 16402 3736 27010000 		.4byte	0x127
 16403 373a 05       		.byte	0x5
 16404 373b 00       		.byte	0
 16405 373c 20       		.uleb128 0x20
 16406 373d 2E100000 		.4byte	.LASF243
 16407 3741 05       		.byte	0x5
 16408 3742 5E       		.byte	0x5e
 16409 3743 2C370000 		.4byte	0x372c
 16410 3747 05       		.uleb128 0x5
 16411 3748 03       		.byte	0x3
 16412 3749 00000000 		.4byte	VolUnit
 16413 374d 20       		.uleb128 0x20
 16414 374e 9E110000 		.4byte	.LASF244
 16415 3752 05       		.byte	0x5
 16416 3753 5F       		.byte	0x5f
 16417 3754 94340000 		.4byte	0x3494
 16418 3758 05       		.uleb128 0x5
 16419 3759 03       		.byte	0x3
 16420 375a 00000000 		.4byte	dateDownHandle
 16421 375e 20       		.uleb128 0x20
 16422 375f 7A110000 		.4byte	.LASF245
 16423 3763 05       		.byte	0x5
 16424 3764 60       		.byte	0x60
 16425 3765 8D030000 		.4byte	0x38d
 16426 3769 05       		.uleb128 0x5
 16427 376a 03       		.byte	0x3
 16428 376b 00000000 		.4byte	timeDownHandle
ARM GAS  C:\Users\RECEPC~1\AppData\Local\Temp\ccp152bc.s 			page 351


 16429 376f 20       		.uleb128 0x20
 16430 3770 DA100000 		.4byte	.LASF246
 16431 3774 05       		.byte	0x5
 16432 3775 61       		.byte	0x61
 16433 3776 AD000000 		.4byte	0xad
 16434 377a 05       		.uleb128 0x5
 16435 377b 03       		.byte	0x3
 16436 377c 00000000 		.4byte	count_protector
 16437 3780 20       		.uleb128 0x20
 16438 3781 C3110000 		.4byte	.LASF247
 16439 3785 05       		.byte	0x5
 16440 3786 61       		.byte	0x61
 16441 3787 AD000000 		.4byte	0xad
 16442 378b 05       		.uleb128 0x5
 16443 378c 03       		.byte	0x3
 16444 378d 00000000 		.4byte	count_protector2
 16445 3791 20       		.uleb128 0x20
 16446 3792 B9100000 		.4byte	.LASF248
 16447 3796 05       		.byte	0x5
 16448 3797 62       		.byte	0x62
 16449 3798 B3030000 		.4byte	0x3b3
 16450 379c 05       		.uleb128 0x5
 16451 379d 03       		.byte	0x3
 16452 379e 00000000 		.4byte	configAccess
 16453 37a2 20       		.uleb128 0x20
 16454 37a3 21060000 		.4byte	.LASF249
 16455 37a7 05       		.byte	0x5
 16456 37a8 63       		.byte	0x63
 16457 37a9 AD000000 		.4byte	0xad
 16458 37ad 05       		.uleb128 0x5
 16459 37ae 03       		.byte	0x3
 16460 37af 00000000 		.4byte	controlChar
 16461 37b3 0A       		.uleb128 0xa
 16462 37b4 EB000000 		.4byte	0xeb
 16463 37b8 C3370000 		.4byte	0x37c3
 16464 37bc 0B       		.uleb128 0xb
 16465 37bd 27010000 		.4byte	0x127
 16466 37c1 04       		.byte	0x4
 16467 37c2 00       		.byte	0
 16468 37c3 20       		.uleb128 0x20
 16469 37c4 210D0000 		.4byte	.LASF250
 16470 37c8 05       		.byte	0x5
 16471 37c9 64       		.byte	0x64
 16472 37ca B3370000 		.4byte	0x37b3
 16473 37ce 05       		.uleb128 0x5
 16474 37cf 03       		.byte	0x3
 16475 37d0 00000000 		.4byte	idStation
 16476 37d4 20       		.uleb128 0x20
 16477 37d5 EA100000 		.4byte	.LASF251
 16478 37d9 05       		.byte	0x5
 16479 37da 65       		.byte	0x65
 16480 37db 94340000 		.4byte	0x3494
 16481 37df 05       		.uleb128 0x5
 16482 37e0 03       		.byte	0x3
 16483 37e1 00000000 		.4byte	pumpGap
 16484 37e5 20       		.uleb128 0x20
 16485 37e6 71090000 		.4byte	.LASF252
ARM GAS  C:\Users\RECEPC~1\AppData\Local\Temp\ccp152bc.s 			page 352


 16486 37ea 05       		.byte	0x5
 16487 37eb 66       		.byte	0x66
 16488 37ec AD000000 		.4byte	0xad
 16489 37f0 05       		.uleb128 0x5
 16490 37f1 03       		.byte	0x3
 16491 37f2 00000000 		.4byte	printPortA
 16492 37f6 20       		.uleb128 0x20
 16493 37f7 F4000000 		.4byte	.LASF253
 16494 37fb 05       		.byte	0x5
 16495 37fc 67       		.byte	0x67
 16496 37fd AD000000 		.4byte	0xad
 16497 3801 05       		.uleb128 0x5
 16498 3802 03       		.byte	0x3
 16499 3803 00000000 		.4byte	printPortB
 16500 3807 0A       		.uleb128 0xa
 16501 3808 AD000000 		.4byte	0xad
 16502 380c 18380000 		.4byte	0x3818
 16503 3810 21       		.uleb128 0x21
 16504 3811 27010000 		.4byte	0x127
 16505 3815 FF01     		.2byte	0x1ff
 16506 3817 00       		.byte	0
 16507 3818 20       		.uleb128 0x20
 16508 3819 4C080000 		.4byte	.LASF254
 16509 381d 05       		.byte	0x5
 16510 381e 68       		.byte	0x68
 16511 381f 07380000 		.4byte	0x3807
 16512 3823 05       		.uleb128 0x5
 16513 3824 03       		.byte	0x3
 16514 3825 00000000 		.4byte	buffer_rf
 16515 3829 20       		.uleb128 0x20
 16516 382a 59090000 		.4byte	.LASF255
 16517 382e 05       		.byte	0x5
 16518 382f 69       		.byte	0x69
 16519 3830 07380000 		.4byte	0x3807
 16520 3834 05       		.uleb128 0x5
 16521 3835 03       		.byte	0x3
 16522 3836 00000000 		.4byte	buffer_tx
 16523 383a 0A       		.uleb128 0xa
 16524 383b AD000000 		.4byte	0xad
 16525 383f 4A380000 		.4byte	0x384a
 16526 3843 0B       		.uleb128 0xb
 16527 3844 27010000 		.4byte	0x127
 16528 3848 3B       		.byte	0x3b
 16529 3849 00       		.byte	0
 16530 384a 20       		.uleb128 0x20
 16531 384b ED0B0000 		.4byte	.LASF256
 16532 384f 05       		.byte	0x5
 16533 3850 6A       		.byte	0x6a
 16534 3851 3A380000 		.4byte	0x383a
 16535 3855 05       		.uleb128 0x5
 16536 3856 03       		.byte	0x3
 16537 3857 00000000 		.4byte	buffer_txPreset
 16538 385b 20       		.uleb128 0x20
 16539 385c F40E0000 		.4byte	.LASF257
 16540 3860 05       		.byte	0x5
 16541 3861 6B       		.byte	0x6b
 16542 3862 3A380000 		.4byte	0x383a
ARM GAS  C:\Users\RECEPC~1\AppData\Local\Temp\ccp152bc.s 			page 353


 16543 3866 05       		.uleb128 0x5
 16544 3867 03       		.byte	0x3
 16545 3868 00000000 		.4byte	buffer_txEOT
 16546 386c 20       		.uleb128 0x20
 16547 386d 9B060000 		.4byte	.LASF258
 16548 3871 05       		.byte	0x5
 16549 3872 6C       		.byte	0x6c
 16550 3873 B9000000 		.4byte	0xb9
 16551 3877 05       		.uleb128 0x5
 16552 3878 03       		.byte	0x3
 16553 3879 00000000 		.4byte	intIDStation
 16554 387d 20       		.uleb128 0x20
 16555 387e DB070000 		.4byte	.LASF259
 16556 3882 05       		.byte	0x5
 16557 3883 6D       		.byte	0x6d
 16558 3884 CA350000 		.4byte	0x35ca
 16559 3888 05       		.uleb128 0x5
 16560 3889 03       		.byte	0x3
 16561 388a 00000000 		.4byte	Encabezado1
 16562 388e 20       		.uleb128 0x20
 16563 388f E7070000 		.4byte	.LASF260
 16564 3893 05       		.byte	0x5
 16565 3894 6E       		.byte	0x6e
 16566 3895 CA350000 		.4byte	0x35ca
 16567 3899 05       		.uleb128 0x5
 16568 389a 03       		.byte	0x3
 16569 389b 00000000 		.4byte	Encabezado2
 16570 389f 20       		.uleb128 0x20
 16571 38a0 F3070000 		.4byte	.LASF261
 16572 38a4 05       		.byte	0x5
 16573 38a5 6F       		.byte	0x6f
 16574 38a6 CA350000 		.4byte	0x35ca
 16575 38aa 05       		.uleb128 0x5
 16576 38ab 03       		.byte	0x3
 16577 38ac 00000000 		.4byte	Encabezado3
 16578 38b0 20       		.uleb128 0x20
 16579 38b1 FF070000 		.4byte	.LASF262
 16580 38b5 05       		.byte	0x5
 16581 38b6 70       		.byte	0x70
 16582 38b7 CA350000 		.4byte	0x35ca
 16583 38bb 05       		.uleb128 0x5
 16584 38bc 03       		.byte	0x3
 16585 38bd 00000000 		.4byte	Encabezado4
 16586 38c1 20       		.uleb128 0x20
 16587 38c2 7A080000 		.4byte	.LASF263
 16588 38c6 05       		.byte	0x5
 16589 38c7 71       		.byte	0x71
 16590 38c8 AD000000 		.4byte	0xad
 16591 38cc 05       		.uleb128 0x5
 16592 38cd 03       		.byte	0x3
 16593 38ce 00000000 		.4byte	CopiasCredito
 16594 38d2 20       		.uleb128 0x20
 16595 38d3 41050000 		.4byte	.LASF264
 16596 38d7 05       		.byte	0x5
 16597 38d8 72       		.byte	0x72
 16598 38d9 B3030000 		.4byte	0x3b3
 16599 38dd 05       		.uleb128 0x5
ARM GAS  C:\Users\RECEPC~1\AppData\Local\Temp\ccp152bc.s 			page 354


 16600 38de 03       		.byte	0x3
 16601 38df 00000000 		.4byte	GradesHose
 16602 38e3 20       		.uleb128 0x20
 16603 38e4 D8060000 		.4byte	.LASF265
 16604 38e8 05       		.byte	0x5
 16605 38e9 AB       		.byte	0xab
 16606 38ea 49010000 		.4byte	0x149
 16607 38ee 05       		.uleb128 0x5
 16608 38ef 03       		.byte	0x3
 16609 38f0 00000000 		.4byte	bufferDisplay1
 16610 38f4 20       		.uleb128 0x20
 16611 38f5 7C090000 		.4byte	.LASF266
 16612 38f9 05       		.byte	0x5
 16613 38fa AC       		.byte	0xac
 16614 38fb 49010000 		.4byte	0x149
 16615 38ff 05       		.uleb128 0x5
 16616 3900 03       		.byte	0x3
 16617 3901 00000000 		.4byte	bufferDisplay2
 16618 3905 20       		.uleb128 0x20
 16619 3906 8B090000 		.4byte	.LASF267
 16620 390a 05       		.byte	0x5
 16621 390b AD       		.byte	0xad
 16622 390c 49010000 		.4byte	0x149
 16623 3910 05       		.uleb128 0x5
 16624 3911 03       		.byte	0x3
 16625 3912 00000000 		.4byte	bufferDisplay3
 16626 3916 20       		.uleb128 0x20
 16627 3917 9A090000 		.4byte	.LASF268
 16628 391b 05       		.byte	0x5
 16629 391c AE       		.byte	0xae
 16630 391d 49010000 		.4byte	0x149
 16631 3921 05       		.uleb128 0x5
 16632 3922 03       		.byte	0x3
 16633 3923 00000000 		.4byte	bufferDisplay4
 16634 3927 20       		.uleb128 0x20
 16635 3928 6E120000 		.4byte	.LASF269
 16636 392c 05       		.byte	0x5
 16637 392d D2       		.byte	0xd2
 16638 392e FF040000 		.4byte	0x4ff
 16639 3932 05       		.uleb128 0x5
 16640 3933 03       		.byte	0x3
 16641 3934 00000000 		.4byte	side
 16642 3938 20       		.uleb128 0x20
 16643 3939 660C0000 		.4byte	.LASF270
 16644 393d 01       		.byte	0x1
 16645 393e 1C       		.byte	0x1c
 16646 393f 6D030000 		.4byte	0x36d
 16647 3943 05       		.uleb128 0x5
 16648 3944 03       		.byte	0x3
 16649 3945 00000000 		.4byte	MuxVersion
 16650 3949 20       		.uleb128 0x20
 16651 394a 650E0000 		.4byte	.LASF271
 16652 394e 01       		.byte	0x1
 16653 394f 1D       		.byte	0x1d
 16654 3950 B3030000 		.4byte	0x3b3
 16655 3954 05       		.uleb128 0x5
 16656 3955 03       		.byte	0x3
ARM GAS  C:\Users\RECEPC~1\AppData\Local\Temp\ccp152bc.s 			page 355


 16657 3956 00000000 		.4byte	passwordPump
 16658 395a 22       		.uleb128 0x22
 16659 395b 13010000 		.4byte	.LASF286
 16660 395f 12       		.byte	0x12
 16661 3960 5E       		.byte	0x5e
 16662 3961 AD000000 		.4byte	0xad
 16663 3965 23       		.uleb128 0x23
 16664 3966 07060000 		.4byte	.LASF272
 16665 396a 09       		.byte	0x9
 16666 396b 1F       		.byte	0x1f
 16667 396c 23       		.uleb128 0x23
 16668 396d 61100000 		.4byte	.LASF273
 16669 3971 0A       		.byte	0xa
 16670 3972 54       		.byte	0x54
 16671 3973 23       		.uleb128 0x23
 16672 3974 BC120000 		.4byte	.LASF274
 16673 3978 06       		.byte	0x6
 16674 3979 54       		.byte	0x54
 16675 397a 23       		.uleb128 0x23
 16676 397b 070E0000 		.4byte	.LASF275
 16677 397f 07       		.byte	0x7
 16678 3980 54       		.byte	0x54
 16679 3981 23       		.uleb128 0x23
 16680 3982 95030000 		.4byte	.LASF276
 16681 3986 0B       		.byte	0xb
 16682 3987 54       		.byte	0x54
 16683 3988 23       		.uleb128 0x23
 16684 3989 AD110000 		.4byte	.LASF277
 16685 398d 0C       		.byte	0xc
 16686 398e AC       		.byte	0xac
 16687 398f 23       		.uleb128 0x23
 16688 3990 C6100000 		.4byte	.LASF278
 16689 3994 0D       		.byte	0xd
 16690 3995 54       		.byte	0x54
 16691 3996 23       		.uleb128 0x23
 16692 3997 C40D0000 		.4byte	.LASF279
 16693 399b 0E       		.byte	0xe
 16694 399c 5A       		.byte	0x5a
 16695 399d 23       		.uleb128 0x23
 16696 399e E30E0000 		.4byte	.LASF280
 16697 39a2 0F       		.byte	0xf
 16698 39a3 5A       		.byte	0x5a
 16699 39a4 24       		.uleb128 0x24
 16700 39a5 37110000 		.4byte	.LASF281
 16701 39a9 09       		.byte	0x9
 16702 39aa 21       		.byte	0x21
 16703 39ab FE000000 		.4byte	0xfe
 16704 39af BE390000 		.4byte	0x39be
 16705 39b3 25       		.uleb128 0x25
 16706 39b4 AD000000 		.4byte	0xad
 16707 39b8 25       		.uleb128 0x25
 16708 39b9 B9000000 		.4byte	0xb9
 16709 39bd 00       		.byte	0
 16710 39be 24       		.uleb128 0x24
 16711 39bf 3B0E0000 		.4byte	.LASF282
 16712 39c3 09       		.byte	0x9
 16713 39c4 23       		.byte	0x23
ARM GAS  C:\Users\RECEPC~1\AppData\Local\Temp\ccp152bc.s 			page 356


 16714 39c5 AD000000 		.4byte	0xad
 16715 39c9 D3390000 		.4byte	0x39d3
 16716 39cd 25       		.uleb128 0x25
 16717 39ce B9000000 		.4byte	0xb9
 16718 39d2 00       		.byte	0
 16719 39d3 26       		.uleb128 0x26
 16720 39d4 63120000 		.4byte	.LASF283
 16721 39d8 10       		.byte	0x10
 16722 39d9 22       		.byte	0x22
 16723 39da E9390000 		.4byte	0x39e9
 16724 39de 25       		.uleb128 0x25
 16725 39df AD000000 		.4byte	0xad
 16726 39e3 25       		.uleb128 0x25
 16727 39e4 B9000000 		.4byte	0xb9
 16728 39e8 00       		.byte	0
 16729 39e9 26       		.uleb128 0x26
 16730 39ea DA0F0000 		.4byte	.LASF284
 16731 39ee 10       		.byte	0x10
 16732 39ef 29       		.byte	0x29
 16733 39f0 043A0000 		.4byte	0x3a04
 16734 39f4 25       		.uleb128 0x25
 16735 39f5 AD000000 		.4byte	0xad
 16736 39f9 25       		.uleb128 0x25
 16737 39fa 043A0000 		.4byte	0x3a04
 16738 39fe 25       		.uleb128 0x25
 16739 39ff AD000000 		.4byte	0xad
 16740 3a03 00       		.byte	0
 16741 3a04 07       		.uleb128 0x7
 16742 3a05 04       		.byte	0x4
 16743 3a06 AD000000 		.4byte	0xad
 16744 3a0a 26       		.uleb128 0x26
 16745 3a0b BB110000 		.4byte	.LASF285
 16746 3a0f 11       		.byte	0x11
 16747 3a10 77       		.byte	0x77
 16748 3a11 1B3A0000 		.4byte	0x3a1b
 16749 3a15 25       		.uleb128 0x25
 16750 3a16 C5000000 		.4byte	0xc5
 16751 3a1a 00       		.byte	0
 16752 3a1b 22       		.uleb128 0x22
 16753 3a1c 1E070000 		.4byte	.LASF287
 16754 3a20 13       		.byte	0x13
 16755 3a21 23       		.byte	0x23
 16756 3a22 AD000000 		.4byte	0xad
 16757 3a26 24       		.uleb128 0x24
 16758 3a27 5E000000 		.4byte	.LASF288
 16759 3a2b 13       		.byte	0x13
 16760 3a2c 22       		.byte	0x22
 16761 3a2d AD000000 		.4byte	0xad
 16762 3a31 3B3A0000 		.4byte	0x3a3b
 16763 3a35 25       		.uleb128 0x25
 16764 3a36 AD000000 		.4byte	0xad
 16765 3a3a 00       		.byte	0
 16766 3a3b 24       		.uleb128 0x24
 16767 3a3c 21030000 		.4byte	.LASF289
 16768 3a40 13       		.byte	0x13
 16769 3a41 2D       		.byte	0x2d
 16770 3a42 503A0000 		.4byte	0x3a50
ARM GAS  C:\Users\RECEPC~1\AppData\Local\Temp\ccp152bc.s 			page 357


 16771 3a46 503A0000 		.4byte	0x3a50
 16772 3a4a 25       		.uleb128 0x25
 16773 3a4b AD000000 		.4byte	0xad
 16774 3a4f 00       		.byte	0
 16775 3a50 02       		.uleb128 0x2
 16776 3a51 01       		.byte	0x1
 16777 3a52 02       		.byte	0x2
 16778 3a53 71030000 		.4byte	.LASF290
 16779 3a57 24       		.uleb128 0x24
 16780 3a58 FD0B0000 		.4byte	.LASF291
 16781 3a5c 13       		.byte	0x13
 16782 3a5d 29       		.byte	0x29
 16783 3a5e AD000000 		.4byte	0xad
 16784 3a62 6C3A0000 		.4byte	0x3a6c
 16785 3a66 25       		.uleb128 0x25
 16786 3a67 AD000000 		.4byte	0xad
 16787 3a6b 00       		.byte	0
 16788 3a6c 24       		.uleb128 0x24
 16789 3a6d CE0F0000 		.4byte	.LASF292
 16790 3a71 14       		.byte	0x14
 16791 3a72 27       		.byte	0x27
 16792 3a73 AD000000 		.4byte	0xad
 16793 3a77 863A0000 		.4byte	0x3a86
 16794 3a7b 25       		.uleb128 0x25
 16795 3a7c AD000000 		.4byte	0xad
 16796 3a80 25       		.uleb128 0x25
 16797 3a81 AD000000 		.4byte	0xad
 16798 3a85 00       		.byte	0
 16799 3a86 24       		.uleb128 0x24
 16800 3a87 06070000 		.4byte	.LASF293
 16801 3a8b 13       		.byte	0x13
 16802 3a8c 25       		.byte	0x25
 16803 3a8d AD000000 		.4byte	0xad
 16804 3a91 9B3A0000 		.4byte	0x3a9b
 16805 3a95 25       		.uleb128 0x25
 16806 3a96 AD000000 		.4byte	0xad
 16807 3a9a 00       		.byte	0
 16808 3a9b 23       		.uleb128 0x23
 16809 3a9c A9020000 		.4byte	.LASF294
 16810 3aa0 15       		.byte	0x15
 16811 3aa1 19       		.byte	0x19
 16812 3aa2 23       		.uleb128 0x23
 16813 3aa3 85010000 		.4byte	.LASF295
 16814 3aa7 12       		.byte	0x12
 16815 3aa8 5B       		.byte	0x5b
 16816 3aa9 22       		.uleb128 0x22
 16817 3aaa D40C0000 		.4byte	.LASF296
 16818 3aae 06       		.byte	0x6
 16819 3aaf 73       		.byte	0x73
 16820 3ab0 AD000000 		.4byte	0xad
 16821 3ab4 23       		.uleb128 0x23
 16822 3ab5 84060000 		.4byte	.LASF297
 16823 3ab9 06       		.byte	0x6
 16824 3aba 75       		.byte	0x75
 16825 3abb 26       		.uleb128 0x26
 16826 3abc 7C010000 		.4byte	.LASF298
 16827 3ac0 10       		.byte	0x10
ARM GAS  C:\Users\RECEPC~1\AppData\Local\Temp\ccp152bc.s 			page 358


 16828 3ac1 24       		.byte	0x24
 16829 3ac2 EA3A0000 		.4byte	0x3aea
 16830 3ac6 25       		.uleb128 0x25
 16831 3ac7 8C000000 		.4byte	0x8c
 16832 3acb 25       		.uleb128 0x25
 16833 3acc 8C000000 		.4byte	0x8c
 16834 3ad0 25       		.uleb128 0x25
 16835 3ad1 97000000 		.4byte	0x97
 16836 3ad5 25       		.uleb128 0x25
 16837 3ad6 97000000 		.4byte	0x97
 16838 3ada 25       		.uleb128 0x25
 16839 3adb 8C000000 		.4byte	0x8c
 16840 3adf 25       		.uleb128 0x25
 16841 3ae0 97000000 		.4byte	0x97
 16842 3ae4 25       		.uleb128 0x25
 16843 3ae5 8C000000 		.4byte	0x8c
 16844 3ae9 00       		.byte	0
 16845 3aea 24       		.uleb128 0x24
 16846 3aeb B9070000 		.4byte	.LASF299
 16847 3aef 16       		.byte	0x16
 16848 3af0 15       		.byte	0x15
 16849 3af1 AD000000 		.4byte	0xad
 16850 3af5 093B0000 		.4byte	0x3b09
 16851 3af9 25       		.uleb128 0x25
 16852 3afa AD000000 		.4byte	0xad
 16853 3afe 25       		.uleb128 0x25
 16854 3aff AD000000 		.4byte	0xad
 16855 3b03 25       		.uleb128 0x25
 16856 3b04 AD000000 		.4byte	0xad
 16857 3b08 00       		.byte	0
 16858 3b09 26       		.uleb128 0x26
 16859 3b0a 63090000 		.4byte	.LASF300
 16860 3b0e 15       		.byte	0x15
 16861 3b0f 18       		.byte	0x18
 16862 3b10 1A3B0000 		.4byte	0x3b1a
 16863 3b14 25       		.uleb128 0x25
 16864 3b15 14010000 		.4byte	0x114
 16865 3b19 00       		.byte	0
 16866 3b1a 23       		.uleb128 0x23
 16867 3b1b FA030000 		.4byte	.LASF301
 16868 3b1f 12       		.byte	0x12
 16869 3b20 5A       		.byte	0x5a
 16870 3b21 24       		.uleb128 0x24
 16871 3b22 D3040000 		.4byte	.LASF302
 16872 3b26 13       		.byte	0x13
 16873 3b27 2A       		.byte	0x2a
 16874 3b28 AD000000 		.4byte	0xad
 16875 3b2c 363B0000 		.4byte	0x3b36
 16876 3b30 25       		.uleb128 0x25
 16877 3b31 AD000000 		.4byte	0xad
 16878 3b35 00       		.byte	0
 16879 3b36 24       		.uleb128 0x24
 16880 3b37 11120000 		.4byte	.LASF303
 16881 3b3b 13       		.byte	0x13
 16882 3b3c 2B       		.byte	0x2b
 16883 3b3d AD000000 		.4byte	0xad
 16884 3b41 5A3B0000 		.4byte	0x3b5a
ARM GAS  C:\Users\RECEPC~1\AppData\Local\Temp\ccp152bc.s 			page 359


 16885 3b45 25       		.uleb128 0x25
 16886 3b46 AD000000 		.4byte	0xad
 16887 3b4a 25       		.uleb128 0x25
 16888 3b4b EB000000 		.4byte	0xeb
 16889 3b4f 25       		.uleb128 0x25
 16890 3b50 043A0000 		.4byte	0x3a04
 16891 3b54 25       		.uleb128 0x25
 16892 3b55 AD000000 		.4byte	0xad
 16893 3b59 00       		.byte	0
 16894 3b5a 26       		.uleb128 0x26
 16895 3b5b A1010000 		.4byte	.LASF304
 16896 3b5f 0A       		.byte	0xa
 16897 3b60 8A       		.byte	0x8a
 16898 3b61 6B3B0000 		.4byte	0x3b6b
 16899 3b65 25       		.uleb128 0x25
 16900 3b66 AD000000 		.4byte	0xad
 16901 3b6a 00       		.byte	0
 16902 3b6b 24       		.uleb128 0x24
 16903 3b6c 040A0000 		.4byte	.LASF305
 16904 3b70 13       		.byte	0x13
 16905 3b71 2C       		.byte	0x2c
 16906 3b72 AD000000 		.4byte	0xad
 16907 3b76 803B0000 		.4byte	0x3b80
 16908 3b7a 25       		.uleb128 0x25
 16909 3b7b AD000000 		.4byte	0xad
 16910 3b7f 00       		.byte	0
 16911 3b80 26       		.uleb128 0x26
 16912 3b81 68030000 		.4byte	.LASF306
 16913 3b85 17       		.byte	0x17
 16914 3b86 25       		.byte	0x25
 16915 3b87 963B0000 		.4byte	0x3b96
 16916 3b8b 25       		.uleb128 0x25
 16917 3b8c AD000000 		.4byte	0xad
 16918 3b90 25       		.uleb128 0x25
 16919 3b91 AD000000 		.4byte	0xad
 16920 3b95 00       		.byte	0
 16921 3b96 24       		.uleb128 0x24
 16922 3b97 9E0C0000 		.4byte	.LASF307
 16923 3b9b 18       		.byte	0x18
 16924 3b9c 21       		.byte	0x21
 16925 3b9d AD000000 		.4byte	0xad
 16926 3ba1 AB3B0000 		.4byte	0x3bab
 16927 3ba5 25       		.uleb128 0x25
 16928 3ba6 AD000000 		.4byte	0xad
 16929 3baa 00       		.byte	0
 16930 3bab 24       		.uleb128 0x24
 16931 3bac 230B0000 		.4byte	.LASF308
 16932 3bb0 18       		.byte	0x18
 16933 3bb1 22       		.byte	0x22
 16934 3bb2 AD000000 		.4byte	0xad
 16935 3bb6 C53B0000 		.4byte	0x3bc5
 16936 3bba 25       		.uleb128 0x25
 16937 3bbb AD000000 		.4byte	0xad
 16938 3bbf 25       		.uleb128 0x25
 16939 3bc0 AD000000 		.4byte	0xad
 16940 3bc4 00       		.byte	0
 16941 3bc5 24       		.uleb128 0x24
ARM GAS  C:\Users\RECEPC~1\AppData\Local\Temp\ccp152bc.s 			page 360


 16942 3bc6 27020000 		.4byte	.LASF309
 16943 3bca 18       		.byte	0x18
 16944 3bcb 23       		.byte	0x23
 16945 3bcc AD000000 		.4byte	0xad
 16946 3bd0 DA3B0000 		.4byte	0x3bda
 16947 3bd4 25       		.uleb128 0x25
 16948 3bd5 AD000000 		.4byte	0xad
 16949 3bd9 00       		.byte	0
 16950 3bda 24       		.uleb128 0x24
 16951 3bdb 18050000 		.4byte	.LASF310
 16952 3bdf 18       		.byte	0x18
 16953 3be0 24       		.byte	0x24
 16954 3be1 AD000000 		.4byte	0xad
 16955 3be5 F43B0000 		.4byte	0x3bf4
 16956 3be9 25       		.uleb128 0x25
 16957 3bea AD000000 		.4byte	0xad
 16958 3bee 25       		.uleb128 0x25
 16959 3bef AD000000 		.4byte	0xad
 16960 3bf3 00       		.byte	0
 16961 3bf4 24       		.uleb128 0x24
 16962 3bf5 6C020000 		.4byte	.LASF311
 16963 3bf9 19       		.byte	0x19
 16964 3bfa 4A       		.byte	0x4a
 16965 3bfb 7E000000 		.4byte	0x7e
 16966 3bff 093C0000 		.4byte	0x3c09
 16967 3c03 25       		.uleb128 0x25
 16968 3c04 2E010000 		.4byte	0x12e
 16969 3c08 00       		.byte	0
 16970 3c09 27       		.uleb128 0x27
 16971 3c0a 190A0000 		.4byte	.LASF312
 16972 3c0e 14       		.byte	0x14
 16973 3c0f 21       		.byte	0x21
 16974 3c10 AD000000 		.4byte	0xad
 16975 3c14 1A3C0000 		.4byte	0x3c1a
 16976 3c18 28       		.uleb128 0x28
 16977 3c19 00       		.byte	0
 16978 3c1a 27       		.uleb128 0x27
 16979 3c1b 4E100000 		.4byte	.LASF313
 16980 3c1f 14       		.byte	0x14
 16981 3c20 22       		.byte	0x22
 16982 3c21 AD000000 		.4byte	0xad
 16983 3c25 2B3C0000 		.4byte	0x3c2b
 16984 3c29 28       		.uleb128 0x28
 16985 3c2a 00       		.byte	0
 16986 3c2b 23       		.uleb128 0x23
 16987 3c2c 0D0F0000 		.4byte	.LASF314
 16988 3c30 1A       		.byte	0x1a
 16989 3c31 19       		.byte	0x19
 16990 3c32 23       		.uleb128 0x23
 16991 3c33 0B030000 		.4byte	.LASF315
 16992 3c37 1B       		.byte	0x1b
 16993 3c38 5B       		.byte	0x5b
 16994 3c39 26       		.uleb128 0x26
 16995 3c3a 62010000 		.4byte	.LASF316
 16996 3c3e 10       		.byte	0x10
 16997 3c3f 26       		.byte	0x26
 16998 3c40 4F3C0000 		.4byte	0x3c4f
ARM GAS  C:\Users\RECEPC~1\AppData\Local\Temp\ccp152bc.s 			page 361


 16999 3c44 25       		.uleb128 0x25
 17000 3c45 AD000000 		.4byte	0xad
 17001 3c49 25       		.uleb128 0x25
 17002 3c4a AD000000 		.4byte	0xad
 17003 3c4e 00       		.byte	0
 17004 3c4f 22       		.uleb128 0x22
 17005 3c50 DD110000 		.4byte	.LASF317
 17006 3c54 07       		.byte	0x7
 17007 3c55 73       		.byte	0x73
 17008 3c56 AD000000 		.4byte	0xad
 17009 3c5a 23       		.uleb128 0x23
 17010 3c5b 0A100000 		.4byte	.LASF318
 17011 3c5f 07       		.byte	0x7
 17012 3c60 75       		.byte	0x75
 17013 3c61 22       		.uleb128 0x22
 17014 3c62 7D0F0000 		.4byte	.LASF319
 17015 3c66 1B       		.byte	0x1b
 17016 3c67 5E       		.byte	0x5e
 17017 3c68 AD000000 		.4byte	0xad
 17018 3c6c 26       		.uleb128 0x26
 17019 3c6d 160E0000 		.4byte	.LASF320
 17020 3c71 11       		.byte	0x11
 17021 3c72 73       		.byte	0x73
 17022 3c73 823C0000 		.4byte	0x3c82
 17023 3c77 25       		.uleb128 0x25
 17024 3c78 AD000000 		.4byte	0xad
 17025 3c7c 25       		.uleb128 0x25
 17026 3c7d AD000000 		.4byte	0xad
 17027 3c81 00       		.byte	0
 17028 3c82 23       		.uleb128 0x23
 17029 3c83 6F080000 		.4byte	.LASF321
 17030 3c87 11       		.byte	0x11
 17031 3c88 74       		.byte	0x74
 17032 3c89 23       		.uleb128 0x23
 17033 3c8a 36100000 		.4byte	.LASF322
 17034 3c8e 1C       		.byte	0x1c
 17035 3c8f 12       		.byte	0x12
 17036 3c90 00       		.byte	0
 17037              		.section	.debug_abbrev,"",%progbits
 17038              	.Ldebug_abbrev0:
 17039 0000 01       		.uleb128 0x1
 17040 0001 11       		.uleb128 0x11
 17041 0002 01       		.byte	0x1
 17042 0003 25       		.uleb128 0x25
 17043 0004 0E       		.uleb128 0xe
 17044 0005 13       		.uleb128 0x13
 17045 0006 0B       		.uleb128 0xb
 17046 0007 03       		.uleb128 0x3
 17047 0008 0E       		.uleb128 0xe
 17048 0009 1B       		.uleb128 0x1b
 17049 000a 0E       		.uleb128 0xe
 17050 000b 55       		.uleb128 0x55
 17051 000c 17       		.uleb128 0x17
 17052 000d 11       		.uleb128 0x11
 17053 000e 01       		.uleb128 0x1
 17054 000f 10       		.uleb128 0x10
 17055 0010 17       		.uleb128 0x17
ARM GAS  C:\Users\RECEPC~1\AppData\Local\Temp\ccp152bc.s 			page 362


 17056 0011 00       		.byte	0
 17057 0012 00       		.byte	0
 17058 0013 02       		.uleb128 0x2
 17059 0014 24       		.uleb128 0x24
 17060 0015 00       		.byte	0
 17061 0016 0B       		.uleb128 0xb
 17062 0017 0B       		.uleb128 0xb
 17063 0018 3E       		.uleb128 0x3e
 17064 0019 0B       		.uleb128 0xb
 17065 001a 03       		.uleb128 0x3
 17066 001b 0E       		.uleb128 0xe
 17067 001c 00       		.byte	0
 17068 001d 00       		.byte	0
 17069 001e 03       		.uleb128 0x3
 17070 001f 16       		.uleb128 0x16
 17071 0020 00       		.byte	0
 17072 0021 03       		.uleb128 0x3
 17073 0022 0E       		.uleb128 0xe
 17074 0023 3A       		.uleb128 0x3a
 17075 0024 0B       		.uleb128 0xb
 17076 0025 3B       		.uleb128 0x3b
 17077 0026 0B       		.uleb128 0xb
 17078 0027 49       		.uleb128 0x49
 17079 0028 13       		.uleb128 0x13
 17080 0029 00       		.byte	0
 17081 002a 00       		.byte	0
 17082 002b 04       		.uleb128 0x4
 17083 002c 24       		.uleb128 0x24
 17084 002d 00       		.byte	0
 17085 002e 0B       		.uleb128 0xb
 17086 002f 0B       		.uleb128 0xb
 17087 0030 3E       		.uleb128 0x3e
 17088 0031 0B       		.uleb128 0xb
 17089 0032 03       		.uleb128 0x3
 17090 0033 08       		.uleb128 0x8
 17091 0034 00       		.byte	0
 17092 0035 00       		.byte	0
 17093 0036 05       		.uleb128 0x5
 17094 0037 16       		.uleb128 0x16
 17095 0038 00       		.byte	0
 17096 0039 03       		.uleb128 0x3
 17097 003a 0E       		.uleb128 0xe
 17098 003b 3A       		.uleb128 0x3a
 17099 003c 0B       		.uleb128 0xb
 17100 003d 3B       		.uleb128 0x3b
 17101 003e 05       		.uleb128 0x5
 17102 003f 49       		.uleb128 0x49
 17103 0040 13       		.uleb128 0x13
 17104 0041 00       		.byte	0
 17105 0042 00       		.byte	0
 17106 0043 06       		.uleb128 0x6
 17107 0044 35       		.uleb128 0x35
 17108 0045 00       		.byte	0
 17109 0046 49       		.uleb128 0x49
 17110 0047 13       		.uleb128 0x13
 17111 0048 00       		.byte	0
 17112 0049 00       		.byte	0
ARM GAS  C:\Users\RECEPC~1\AppData\Local\Temp\ccp152bc.s 			page 363


 17113 004a 07       		.uleb128 0x7
 17114 004b 0F       		.uleb128 0xf
 17115 004c 00       		.byte	0
 17116 004d 0B       		.uleb128 0xb
 17117 004e 0B       		.uleb128 0xb
 17118 004f 49       		.uleb128 0x49
 17119 0050 13       		.uleb128 0x13
 17120 0051 00       		.byte	0
 17121 0052 00       		.byte	0
 17122 0053 08       		.uleb128 0x8
 17123 0054 15       		.uleb128 0x15
 17124 0055 00       		.byte	0
 17125 0056 27       		.uleb128 0x27
 17126 0057 19       		.uleb128 0x19
 17127 0058 00       		.byte	0
 17128 0059 00       		.byte	0
 17129 005a 09       		.uleb128 0x9
 17130 005b 26       		.uleb128 0x26
 17131 005c 00       		.byte	0
 17132 005d 49       		.uleb128 0x49
 17133 005e 13       		.uleb128 0x13
 17134 005f 00       		.byte	0
 17135 0060 00       		.byte	0
 17136 0061 0A       		.uleb128 0xa
 17137 0062 01       		.uleb128 0x1
 17138 0063 01       		.byte	0x1
 17139 0064 49       		.uleb128 0x49
 17140 0065 13       		.uleb128 0x13
 17141 0066 01       		.uleb128 0x1
 17142 0067 13       		.uleb128 0x13
 17143 0068 00       		.byte	0
 17144 0069 00       		.byte	0
 17145 006a 0B       		.uleb128 0xb
 17146 006b 21       		.uleb128 0x21
 17147 006c 00       		.byte	0
 17148 006d 49       		.uleb128 0x49
 17149 006e 13       		.uleb128 0x13
 17150 006f 2F       		.uleb128 0x2f
 17151 0070 0B       		.uleb128 0xb
 17152 0071 00       		.byte	0
 17153 0072 00       		.byte	0
 17154 0073 0C       		.uleb128 0xc
 17155 0074 13       		.uleb128 0x13
 17156 0075 01       		.byte	0x1
 17157 0076 03       		.uleb128 0x3
 17158 0077 0E       		.uleb128 0xe
 17159 0078 0B       		.uleb128 0xb
 17160 0079 05       		.uleb128 0x5
 17161 007a 3A       		.uleb128 0x3a
 17162 007b 0B       		.uleb128 0xb
 17163 007c 3B       		.uleb128 0x3b
 17164 007d 0B       		.uleb128 0xb
 17165 007e 01       		.uleb128 0x1
 17166 007f 13       		.uleb128 0x13
 17167 0080 00       		.byte	0
 17168 0081 00       		.byte	0
 17169 0082 0D       		.uleb128 0xd
ARM GAS  C:\Users\RECEPC~1\AppData\Local\Temp\ccp152bc.s 			page 364


 17170 0083 0D       		.uleb128 0xd
 17171 0084 00       		.byte	0
 17172 0085 03       		.uleb128 0x3
 17173 0086 0E       		.uleb128 0xe
 17174 0087 3A       		.uleb128 0x3a
 17175 0088 0B       		.uleb128 0xb
 17176 0089 3B       		.uleb128 0x3b
 17177 008a 0B       		.uleb128 0xb
 17178 008b 49       		.uleb128 0x49
 17179 008c 13       		.uleb128 0x13
 17180 008d 38       		.uleb128 0x38
 17181 008e 0B       		.uleb128 0xb
 17182 008f 00       		.byte	0
 17183 0090 00       		.byte	0
 17184 0091 0E       		.uleb128 0xe
 17185 0092 0D       		.uleb128 0xd
 17186 0093 00       		.byte	0
 17187 0094 03       		.uleb128 0x3
 17188 0095 0E       		.uleb128 0xe
 17189 0096 3A       		.uleb128 0x3a
 17190 0097 0B       		.uleb128 0xb
 17191 0098 3B       		.uleb128 0x3b
 17192 0099 0B       		.uleb128 0xb
 17193 009a 49       		.uleb128 0x49
 17194 009b 13       		.uleb128 0x13
 17195 009c 38       		.uleb128 0x38
 17196 009d 05       		.uleb128 0x5
 17197 009e 00       		.byte	0
 17198 009f 00       		.byte	0
 17199 00a0 0F       		.uleb128 0xf
 17200 00a1 0D       		.uleb128 0xd
 17201 00a2 00       		.byte	0
 17202 00a3 03       		.uleb128 0x3
 17203 00a4 08       		.uleb128 0x8
 17204 00a5 3A       		.uleb128 0x3a
 17205 00a6 0B       		.uleb128 0xb
 17206 00a7 3B       		.uleb128 0x3b
 17207 00a8 0B       		.uleb128 0xb
 17208 00a9 49       		.uleb128 0x49
 17209 00aa 13       		.uleb128 0x13
 17210 00ab 38       		.uleb128 0x38
 17211 00ac 0B       		.uleb128 0xb
 17212 00ad 00       		.byte	0
 17213 00ae 00       		.byte	0
 17214 00af 10       		.uleb128 0x10
 17215 00b0 0D       		.uleb128 0xd
 17216 00b1 00       		.byte	0
 17217 00b2 03       		.uleb128 0x3
 17218 00b3 08       		.uleb128 0x8
 17219 00b4 3A       		.uleb128 0x3a
 17220 00b5 0B       		.uleb128 0xb
 17221 00b6 3B       		.uleb128 0x3b
 17222 00b7 0B       		.uleb128 0xb
 17223 00b8 49       		.uleb128 0x49
 17224 00b9 13       		.uleb128 0x13
 17225 00ba 38       		.uleb128 0x38
 17226 00bb 05       		.uleb128 0x5
ARM GAS  C:\Users\RECEPC~1\AppData\Local\Temp\ccp152bc.s 			page 365


 17227 00bc 00       		.byte	0
 17228 00bd 00       		.byte	0
 17229 00be 11       		.uleb128 0x11
 17230 00bf 04       		.uleb128 0x4
 17231 00c0 01       		.byte	0x1
 17232 00c1 03       		.uleb128 0x3
 17233 00c2 0E       		.uleb128 0xe
 17234 00c3 0B       		.uleb128 0xb
 17235 00c4 0B       		.uleb128 0xb
 17236 00c5 3A       		.uleb128 0x3a
 17237 00c6 0B       		.uleb128 0xb
 17238 00c7 3B       		.uleb128 0x3b
 17239 00c8 0B       		.uleb128 0xb
 17240 00c9 01       		.uleb128 0x1
 17241 00ca 13       		.uleb128 0x13
 17242 00cb 00       		.byte	0
 17243 00cc 00       		.byte	0
 17244 00cd 12       		.uleb128 0x12
 17245 00ce 28       		.uleb128 0x28
 17246 00cf 00       		.byte	0
 17247 00d0 03       		.uleb128 0x3
 17248 00d1 0E       		.uleb128 0xe
 17249 00d2 1C       		.uleb128 0x1c
 17250 00d3 0D       		.uleb128 0xd
 17251 00d4 00       		.byte	0
 17252 00d5 00       		.byte	0
 17253 00d6 13       		.uleb128 0x13
 17254 00d7 04       		.uleb128 0x4
 17255 00d8 01       		.byte	0x1
 17256 00d9 03       		.uleb128 0x3
 17257 00da 0E       		.uleb128 0xe
 17258 00db 0B       		.uleb128 0xb
 17259 00dc 0B       		.uleb128 0xb
 17260 00dd 3A       		.uleb128 0x3a
 17261 00de 0B       		.uleb128 0xb
 17262 00df 3B       		.uleb128 0x3b
 17263 00e0 05       		.uleb128 0x5
 17264 00e1 01       		.uleb128 0x1
 17265 00e2 13       		.uleb128 0x13
 17266 00e3 00       		.byte	0
 17267 00e4 00       		.byte	0
 17268 00e5 14       		.uleb128 0x14
 17269 00e6 2E       		.uleb128 0x2e
 17270 00e7 01       		.byte	0x1
 17271 00e8 3F       		.uleb128 0x3f
 17272 00e9 19       		.uleb128 0x19
 17273 00ea 03       		.uleb128 0x3
 17274 00eb 0E       		.uleb128 0xe
 17275 00ec 3A       		.uleb128 0x3a
 17276 00ed 0B       		.uleb128 0xb
 17277 00ee 3B       		.uleb128 0x3b
 17278 00ef 05       		.uleb128 0x5
 17279 00f0 27       		.uleb128 0x27
 17280 00f1 19       		.uleb128 0x19
 17281 00f2 11       		.uleb128 0x11
 17282 00f3 01       		.uleb128 0x1
 17283 00f4 12       		.uleb128 0x12
ARM GAS  C:\Users\RECEPC~1\AppData\Local\Temp\ccp152bc.s 			page 366


 17284 00f5 06       		.uleb128 0x6
 17285 00f6 40       		.uleb128 0x40
 17286 00f7 18       		.uleb128 0x18
 17287 00f8 9742     		.uleb128 0x2117
 17288 00fa 19       		.uleb128 0x19
 17289 00fb 01       		.uleb128 0x1
 17290 00fc 13       		.uleb128 0x13
 17291 00fd 00       		.byte	0
 17292 00fe 00       		.byte	0
 17293 00ff 15       		.uleb128 0x15
 17294 0100 898201   		.uleb128 0x4109
 17295 0103 00       		.byte	0
 17296 0104 11       		.uleb128 0x11
 17297 0105 01       		.uleb128 0x1
 17298 0106 31       		.uleb128 0x31
 17299 0107 13       		.uleb128 0x13
 17300 0108 00       		.byte	0
 17301 0109 00       		.byte	0
 17302 010a 16       		.uleb128 0x16
 17303 010b 2E       		.uleb128 0x2e
 17304 010c 01       		.byte	0x1
 17305 010d 3F       		.uleb128 0x3f
 17306 010e 19       		.uleb128 0x19
 17307 010f 03       		.uleb128 0x3
 17308 0110 0E       		.uleb128 0xe
 17309 0111 3A       		.uleb128 0x3a
 17310 0112 0B       		.uleb128 0xb
 17311 0113 3B       		.uleb128 0x3b
 17312 0114 0B       		.uleb128 0xb
 17313 0115 11       		.uleb128 0x11
 17314 0116 01       		.uleb128 0x1
 17315 0117 12       		.uleb128 0x12
 17316 0118 06       		.uleb128 0x6
 17317 0119 40       		.uleb128 0x40
 17318 011a 18       		.uleb128 0x18
 17319 011b 9742     		.uleb128 0x2117
 17320 011d 19       		.uleb128 0x19
 17321 011e 01       		.uleb128 0x1
 17322 011f 13       		.uleb128 0x13
 17323 0120 00       		.byte	0
 17324 0121 00       		.byte	0
 17325 0122 17       		.uleb128 0x17
 17326 0123 898201   		.uleb128 0x4109
 17327 0126 01       		.byte	0x1
 17328 0127 11       		.uleb128 0x11
 17329 0128 01       		.uleb128 0x1
 17330 0129 31       		.uleb128 0x31
 17331 012a 13       		.uleb128 0x13
 17332 012b 01       		.uleb128 0x1
 17333 012c 13       		.uleb128 0x13
 17334 012d 00       		.byte	0
 17335 012e 00       		.byte	0
 17336 012f 18       		.uleb128 0x18
 17337 0130 8A8201   		.uleb128 0x410a
 17338 0133 00       		.byte	0
 17339 0134 02       		.uleb128 0x2
 17340 0135 18       		.uleb128 0x18
ARM GAS  C:\Users\RECEPC~1\AppData\Local\Temp\ccp152bc.s 			page 367


 17341 0136 9142     		.uleb128 0x2111
 17342 0138 18       		.uleb128 0x18
 17343 0139 00       		.byte	0
 17344 013a 00       		.byte	0
 17345 013b 19       		.uleb128 0x19
 17346 013c 898201   		.uleb128 0x4109
 17347 013f 01       		.byte	0x1
 17348 0140 11       		.uleb128 0x11
 17349 0141 01       		.uleb128 0x1
 17350 0142 31       		.uleb128 0x31
 17351 0143 13       		.uleb128 0x13
 17352 0144 00       		.byte	0
 17353 0145 00       		.byte	0
 17354 0146 1A       		.uleb128 0x1a
 17355 0147 34       		.uleb128 0x34
 17356 0148 00       		.byte	0
 17357 0149 03       		.uleb128 0x3
 17358 014a 0E       		.uleb128 0xe
 17359 014b 3A       		.uleb128 0x3a
 17360 014c 0B       		.uleb128 0xb
 17361 014d 3B       		.uleb128 0x3b
 17362 014e 0B       		.uleb128 0xb
 17363 014f 49       		.uleb128 0x49
 17364 0150 13       		.uleb128 0x13
 17365 0151 02       		.uleb128 0x2
 17366 0152 18       		.uleb128 0x18
 17367 0153 00       		.byte	0
 17368 0154 00       		.byte	0
 17369 0155 1B       		.uleb128 0x1b
 17370 0156 2E       		.uleb128 0x2e
 17371 0157 01       		.byte	0x1
 17372 0158 3F       		.uleb128 0x3f
 17373 0159 19       		.uleb128 0x19
 17374 015a 03       		.uleb128 0x3
 17375 015b 0E       		.uleb128 0xe
 17376 015c 3A       		.uleb128 0x3a
 17377 015d 0B       		.uleb128 0xb
 17378 015e 3B       		.uleb128 0x3b
 17379 015f 05       		.uleb128 0x5
 17380 0160 11       		.uleb128 0x11
 17381 0161 01       		.uleb128 0x1
 17382 0162 12       		.uleb128 0x12
 17383 0163 06       		.uleb128 0x6
 17384 0164 40       		.uleb128 0x40
 17385 0165 18       		.uleb128 0x18
 17386 0166 9742     		.uleb128 0x2117
 17387 0168 19       		.uleb128 0x19
 17388 0169 01       		.uleb128 0x1
 17389 016a 13       		.uleb128 0x13
 17390 016b 00       		.byte	0
 17391 016c 00       		.byte	0
 17392 016d 1C       		.uleb128 0x1c
 17393 016e 34       		.uleb128 0x34
 17394 016f 00       		.byte	0
 17395 0170 03       		.uleb128 0x3
 17396 0171 0E       		.uleb128 0xe
 17397 0172 3A       		.uleb128 0x3a
ARM GAS  C:\Users\RECEPC~1\AppData\Local\Temp\ccp152bc.s 			page 368


 17398 0173 0B       		.uleb128 0xb
 17399 0174 3B       		.uleb128 0x3b
 17400 0175 05       		.uleb128 0x5
 17401 0176 49       		.uleb128 0x49
 17402 0177 13       		.uleb128 0x13
 17403 0178 02       		.uleb128 0x2
 17404 0179 18       		.uleb128 0x18
 17405 017a 00       		.byte	0
 17406 017b 00       		.byte	0
 17407 017c 1D       		.uleb128 0x1d
 17408 017d 34       		.uleb128 0x34
 17409 017e 00       		.byte	0
 17410 017f 03       		.uleb128 0x3
 17411 0180 08       		.uleb128 0x8
 17412 0181 3A       		.uleb128 0x3a
 17413 0182 0B       		.uleb128 0xb
 17414 0183 3B       		.uleb128 0x3b
 17415 0184 05       		.uleb128 0x5
 17416 0185 49       		.uleb128 0x49
 17417 0186 13       		.uleb128 0x13
 17418 0187 02       		.uleb128 0x2
 17419 0188 17       		.uleb128 0x17
 17420 0189 00       		.byte	0
 17421 018a 00       		.byte	0
 17422 018b 1E       		.uleb128 0x1e
 17423 018c 2E       		.uleb128 0x2e
 17424 018d 01       		.byte	0x1
 17425 018e 3F       		.uleb128 0x3f
 17426 018f 19       		.uleb128 0x19
 17427 0190 03       		.uleb128 0x3
 17428 0191 0E       		.uleb128 0xe
 17429 0192 3A       		.uleb128 0x3a
 17430 0193 0B       		.uleb128 0xb
 17431 0194 3B       		.uleb128 0x3b
 17432 0195 05       		.uleb128 0x5
 17433 0196 49       		.uleb128 0x49
 17434 0197 13       		.uleb128 0x13
 17435 0198 11       		.uleb128 0x11
 17436 0199 01       		.uleb128 0x1
 17437 019a 12       		.uleb128 0x12
 17438 019b 06       		.uleb128 0x6
 17439 019c 40       		.uleb128 0x40
 17440 019d 18       		.uleb128 0x18
 17441 019e 9742     		.uleb128 0x2117
 17442 01a0 19       		.uleb128 0x19
 17443 01a1 01       		.uleb128 0x1
 17444 01a2 13       		.uleb128 0x13
 17445 01a3 00       		.byte	0
 17446 01a4 00       		.byte	0
 17447 01a5 1F       		.uleb128 0x1f
 17448 01a6 34       		.uleb128 0x34
 17449 01a7 00       		.byte	0
 17450 01a8 03       		.uleb128 0x3
 17451 01a9 0E       		.uleb128 0xe
 17452 01aa 3A       		.uleb128 0x3a
 17453 01ab 0B       		.uleb128 0xb
 17454 01ac 3B       		.uleb128 0x3b
ARM GAS  C:\Users\RECEPC~1\AppData\Local\Temp\ccp152bc.s 			page 369


 17455 01ad 05       		.uleb128 0x5
 17456 01ae 49       		.uleb128 0x49
 17457 01af 13       		.uleb128 0x13
 17458 01b0 3F       		.uleb128 0x3f
 17459 01b1 19       		.uleb128 0x19
 17460 01b2 3C       		.uleb128 0x3c
 17461 01b3 19       		.uleb128 0x19
 17462 01b4 00       		.byte	0
 17463 01b5 00       		.byte	0
 17464 01b6 20       		.uleb128 0x20
 17465 01b7 34       		.uleb128 0x34
 17466 01b8 00       		.byte	0
 17467 01b9 03       		.uleb128 0x3
 17468 01ba 0E       		.uleb128 0xe
 17469 01bb 3A       		.uleb128 0x3a
 17470 01bc 0B       		.uleb128 0xb
 17471 01bd 3B       		.uleb128 0x3b
 17472 01be 0B       		.uleb128 0xb
 17473 01bf 49       		.uleb128 0x49
 17474 01c0 13       		.uleb128 0x13
 17475 01c1 3F       		.uleb128 0x3f
 17476 01c2 19       		.uleb128 0x19
 17477 01c3 02       		.uleb128 0x2
 17478 01c4 18       		.uleb128 0x18
 17479 01c5 00       		.byte	0
 17480 01c6 00       		.byte	0
 17481 01c7 21       		.uleb128 0x21
 17482 01c8 21       		.uleb128 0x21
 17483 01c9 00       		.byte	0
 17484 01ca 49       		.uleb128 0x49
 17485 01cb 13       		.uleb128 0x13
 17486 01cc 2F       		.uleb128 0x2f
 17487 01cd 05       		.uleb128 0x5
 17488 01ce 00       		.byte	0
 17489 01cf 00       		.byte	0
 17490 01d0 22       		.uleb128 0x22
 17491 01d1 2E       		.uleb128 0x2e
 17492 01d2 00       		.byte	0
 17493 01d3 3F       		.uleb128 0x3f
 17494 01d4 19       		.uleb128 0x19
 17495 01d5 03       		.uleb128 0x3
 17496 01d6 0E       		.uleb128 0xe
 17497 01d7 3A       		.uleb128 0x3a
 17498 01d8 0B       		.uleb128 0xb
 17499 01d9 3B       		.uleb128 0x3b
 17500 01da 0B       		.uleb128 0xb
 17501 01db 27       		.uleb128 0x27
 17502 01dc 19       		.uleb128 0x19
 17503 01dd 49       		.uleb128 0x49
 17504 01de 13       		.uleb128 0x13
 17505 01df 3C       		.uleb128 0x3c
 17506 01e0 19       		.uleb128 0x19
 17507 01e1 00       		.byte	0
 17508 01e2 00       		.byte	0
 17509 01e3 23       		.uleb128 0x23
 17510 01e4 2E       		.uleb128 0x2e
 17511 01e5 00       		.byte	0
ARM GAS  C:\Users\RECEPC~1\AppData\Local\Temp\ccp152bc.s 			page 370


 17512 01e6 3F       		.uleb128 0x3f
 17513 01e7 19       		.uleb128 0x19
 17514 01e8 03       		.uleb128 0x3
 17515 01e9 0E       		.uleb128 0xe
 17516 01ea 3A       		.uleb128 0x3a
 17517 01eb 0B       		.uleb128 0xb
 17518 01ec 3B       		.uleb128 0x3b
 17519 01ed 0B       		.uleb128 0xb
 17520 01ee 27       		.uleb128 0x27
 17521 01ef 19       		.uleb128 0x19
 17522 01f0 3C       		.uleb128 0x3c
 17523 01f1 19       		.uleb128 0x19
 17524 01f2 00       		.byte	0
 17525 01f3 00       		.byte	0
 17526 01f4 24       		.uleb128 0x24
 17527 01f5 2E       		.uleb128 0x2e
 17528 01f6 01       		.byte	0x1
 17529 01f7 3F       		.uleb128 0x3f
 17530 01f8 19       		.uleb128 0x19
 17531 01f9 03       		.uleb128 0x3
 17532 01fa 0E       		.uleb128 0xe
 17533 01fb 3A       		.uleb128 0x3a
 17534 01fc 0B       		.uleb128 0xb
 17535 01fd 3B       		.uleb128 0x3b
 17536 01fe 0B       		.uleb128 0xb
 17537 01ff 27       		.uleb128 0x27
 17538 0200 19       		.uleb128 0x19
 17539 0201 49       		.uleb128 0x49
 17540 0202 13       		.uleb128 0x13
 17541 0203 3C       		.uleb128 0x3c
 17542 0204 19       		.uleb128 0x19
 17543 0205 01       		.uleb128 0x1
 17544 0206 13       		.uleb128 0x13
 17545 0207 00       		.byte	0
 17546 0208 00       		.byte	0
 17547 0209 25       		.uleb128 0x25
 17548 020a 05       		.uleb128 0x5
 17549 020b 00       		.byte	0
 17550 020c 49       		.uleb128 0x49
 17551 020d 13       		.uleb128 0x13
 17552 020e 00       		.byte	0
 17553 020f 00       		.byte	0
 17554 0210 26       		.uleb128 0x26
 17555 0211 2E       		.uleb128 0x2e
 17556 0212 01       		.byte	0x1
 17557 0213 3F       		.uleb128 0x3f
 17558 0214 19       		.uleb128 0x19
 17559 0215 03       		.uleb128 0x3
 17560 0216 0E       		.uleb128 0xe
 17561 0217 3A       		.uleb128 0x3a
 17562 0218 0B       		.uleb128 0xb
 17563 0219 3B       		.uleb128 0x3b
 17564 021a 0B       		.uleb128 0xb
 17565 021b 27       		.uleb128 0x27
 17566 021c 19       		.uleb128 0x19
 17567 021d 3C       		.uleb128 0x3c
 17568 021e 19       		.uleb128 0x19
ARM GAS  C:\Users\RECEPC~1\AppData\Local\Temp\ccp152bc.s 			page 371


 17569 021f 01       		.uleb128 0x1
 17570 0220 13       		.uleb128 0x13
 17571 0221 00       		.byte	0
 17572 0222 00       		.byte	0
 17573 0223 27       		.uleb128 0x27
 17574 0224 2E       		.uleb128 0x2e
 17575 0225 01       		.byte	0x1
 17576 0226 3F       		.uleb128 0x3f
 17577 0227 19       		.uleb128 0x19
 17578 0228 03       		.uleb128 0x3
 17579 0229 0E       		.uleb128 0xe
 17580 022a 3A       		.uleb128 0x3a
 17581 022b 0B       		.uleb128 0xb
 17582 022c 3B       		.uleb128 0x3b
 17583 022d 0B       		.uleb128 0xb
 17584 022e 49       		.uleb128 0x49
 17585 022f 13       		.uleb128 0x13
 17586 0230 3C       		.uleb128 0x3c
 17587 0231 19       		.uleb128 0x19
 17588 0232 01       		.uleb128 0x1
 17589 0233 13       		.uleb128 0x13
 17590 0234 00       		.byte	0
 17591 0235 00       		.byte	0
 17592 0236 28       		.uleb128 0x28
 17593 0237 18       		.uleb128 0x18
 17594 0238 00       		.byte	0
 17595 0239 00       		.byte	0
 17596 023a 00       		.byte	0
 17597 023b 00       		.byte	0
 17598              		.section	.debug_loc,"",%progbits
 17599              	.Ldebug_loc0:
 17600              	.LLST0:
 17601 0000 28000000 		.4byte	.LVL81
 17602 0004 2C000000 		.4byte	.LVL82
 17603 0008 0200     		.2byte	0x2
 17604 000a 30       		.byte	0x30
 17605 000b 9F       		.byte	0x9f
 17606 000c 2C000000 		.4byte	.LVL82
 17607 0010 3C000000 		.4byte	.LVL84
 17608 0014 0100     		.2byte	0x1
 17609 0016 54       		.byte	0x54
 17610 0017 3E000000 		.4byte	.LVL85
 17611 001b 72000000 		.4byte	.LVL91
 17612 001f 0100     		.2byte	0x1
 17613 0021 54       		.byte	0x54
 17614 0022 72000000 		.4byte	.LVL91
 17615 0026 76000000 		.4byte	.LVL92
 17616 002a 0200     		.2byte	0x2
 17617 002c 30       		.byte	0x30
 17618 002d 9F       		.byte	0x9f
 17619 002e 76000000 		.4byte	.LVL92
 17620 0032 86000000 		.4byte	.LVL94
 17621 0036 0100     		.2byte	0x1
 17622 0038 54       		.byte	0x54
 17623 0039 88000000 		.4byte	.LVL95
 17624 003d C0000000 		.4byte	.LVL102
 17625 0041 0100     		.2byte	0x1
ARM GAS  C:\Users\RECEPC~1\AppData\Local\Temp\ccp152bc.s 			page 372


 17626 0043 54       		.byte	0x54
 17627 0044 00000000 		.4byte	0
 17628 0048 00000000 		.4byte	0
 17629              	.LLST1:
 17630 004c 3A000000 		.4byte	.LVL107
 17631 0050 44000000 		.4byte	.LVL108
 17632 0054 0100     		.2byte	0x1
 17633 0056 53       		.byte	0x53
 17634 0057 46000000 		.4byte	.LVL109
 17635 005b 48000000 		.4byte	.LVL110
 17636 005f 0100     		.2byte	0x1
 17637 0061 53       		.byte	0x53
 17638 0062 4A000000 		.4byte	.LVL111
 17639 0066 4E000000 		.4byte	.LVL112
 17640 006a 0100     		.2byte	0x1
 17641 006c 53       		.byte	0x53
 17642 006d 00000000 		.4byte	0
 17643 0071 00000000 		.4byte	0
 17644              	.LLST2:
 17645 0075 40020000 		.4byte	.LVL152
 17646 0079 44020000 		.4byte	.LVL153
 17647 007d 0200     		.2byte	0x2
 17648 007f 31       		.byte	0x31
 17649 0080 9F       		.byte	0x9f
 17650 0081 44020000 		.4byte	.LVL153
 17651 0085 50020000 		.4byte	.LVL154
 17652 0089 0100     		.2byte	0x1
 17653 008b 53       		.byte	0x53
 17654 008c 52020000 		.4byte	.LVL155
 17655 0090 60020000 		.4byte	.LVL156
 17656 0094 0100     		.2byte	0x1
 17657 0096 53       		.byte	0x53
 17658 0097 70020000 		.4byte	.LVL157
 17659 009b 74020000 		.4byte	.LVL158
 17660 009f 0200     		.2byte	0x2
 17661 00a1 30       		.byte	0x30
 17662 00a2 9F       		.byte	0x9f
 17663 00a3 74020000 		.4byte	.LVL158
 17664 00a7 82020000 		.4byte	.LVL159
 17665 00ab 0100     		.2byte	0x1
 17666 00ad 53       		.byte	0x53
 17667 00ae 84020000 		.4byte	.LVL160
 17668 00b2 8C020000 		.4byte	.LVL161
 17669 00b6 0100     		.2byte	0x1
 17670 00b8 53       		.byte	0x53
 17671 00b9 18030000 		.4byte	.LVL170
 17672 00bd 2A030000 		.4byte	.LVL171
 17673 00c1 0100     		.2byte	0x1
 17674 00c3 53       		.byte	0x53
 17675 00c4 2C030000 		.4byte	.LVL172
 17676 00c8 2E030000 		.4byte	.LVL173
 17677 00cc 0100     		.2byte	0x1
 17678 00ce 53       		.byte	0x53
 17679 00cf 30030000 		.4byte	.LVL174
 17680 00d3 3E030000 		.4byte	.LVL175
 17681 00d7 0100     		.2byte	0x1
 17682 00d9 53       		.byte	0x53
ARM GAS  C:\Users\RECEPC~1\AppData\Local\Temp\ccp152bc.s 			page 373


 17683 00da 4E070000 		.4byte	.LVL222
 17684 00de 5A070000 		.4byte	.LVL223
 17685 00e2 0100     		.2byte	0x1
 17686 00e4 53       		.byte	0x53
 17687 00e5 5C070000 		.4byte	.LVL224
 17688 00e9 5E070000 		.4byte	.LVL225
 17689 00ed 0100     		.2byte	0x1
 17690 00ef 53       		.byte	0x53
 17691 00f0 60070000 		.4byte	.LVL226
 17692 00f4 68070000 		.4byte	.LVL227
 17693 00f8 0100     		.2byte	0x1
 17694 00fa 53       		.byte	0x53
 17695 00fb 74070000 		.4byte	.LVL229
 17696 00ff 80070000 		.4byte	.LVL230
 17697 0103 0100     		.2byte	0x1
 17698 0105 53       		.byte	0x53
 17699 0106 82070000 		.4byte	.LVL231
 17700 010a 84070000 		.4byte	.LVL232
 17701 010e 0100     		.2byte	0x1
 17702 0110 53       		.byte	0x53
 17703 0111 86070000 		.4byte	.LVL233
 17704 0115 98070000 		.4byte	.LVL234
 17705 0119 0100     		.2byte	0x1
 17706 011b 53       		.byte	0x53
 17707 011c 9A070000 		.4byte	.LVL235
 17708 0120 9C070000 		.4byte	.LVL236
 17709 0124 0100     		.2byte	0x1
 17710 0126 53       		.byte	0x53
 17711 0127 9E070000 		.4byte	.LVL237
 17712 012b B0070000 		.4byte	.LVL238
 17713 012f 0100     		.2byte	0x1
 17714 0131 53       		.byte	0x53
 17715 0132 B2070000 		.4byte	.LVL239
 17716 0136 B4070000 		.4byte	.LVL240
 17717 013a 0100     		.2byte	0x1
 17718 013c 53       		.byte	0x53
 17719 013d B6070000 		.4byte	.LVL241
 17720 0141 BA070000 		.4byte	.LVL242
 17721 0145 0100     		.2byte	0x1
 17722 0147 53       		.byte	0x53
 17723 0148 D6070000 		.4byte	.LVL244
 17724 014c E4070000 		.4byte	.LVL245
 17725 0150 0100     		.2byte	0x1
 17726 0152 53       		.byte	0x53
 17727 0153 E6070000 		.4byte	.LVL246
 17728 0157 00080000 		.4byte	.LVL247
 17729 015b 0100     		.2byte	0x1
 17730 015d 53       		.byte	0x53
 17731 015e 02080000 		.4byte	.LVL248
 17732 0162 0E080000 		.4byte	.LVL249
 17733 0166 0100     		.2byte	0x1
 17734 0168 53       		.byte	0x53
 17735 0169 3E080000 		.4byte	.LVL253
 17736 016d 4C080000 		.4byte	.LVL254
 17737 0171 0100     		.2byte	0x1
 17738 0173 53       		.byte	0x53
 17739 0174 4E080000 		.4byte	.LVL255
ARM GAS  C:\Users\RECEPC~1\AppData\Local\Temp\ccp152bc.s 			page 374


 17740 0178 50080000 		.4byte	.LVL256
 17741 017c 0100     		.2byte	0x1
 17742 017e 53       		.byte	0x53
 17743 017f 52080000 		.4byte	.LVL257
 17744 0183 60080000 		.4byte	.LVL258
 17745 0187 0100     		.2byte	0x1
 17746 0189 53       		.byte	0x53
 17747 018a 6A080000 		.4byte	.LVL260
 17748 018e 78080000 		.4byte	.LVL261
 17749 0192 0100     		.2byte	0x1
 17750 0194 53       		.byte	0x53
 17751 0195 7A080000 		.4byte	.LVL262
 17752 0199 7C080000 		.4byte	.LVL263
 17753 019d 0100     		.2byte	0x1
 17754 019f 53       		.byte	0x53
 17755 01a0 7E080000 		.4byte	.LVL264
 17756 01a4 88080000 		.4byte	.LVL265
 17757 01a8 0100     		.2byte	0x1
 17758 01aa 53       		.byte	0x53
 17759 01ab 8C080000 		.4byte	.LVL266
 17760 01af 9A080000 		.4byte	.LVL267
 17761 01b3 0100     		.2byte	0x1
 17762 01b5 53       		.byte	0x53
 17763 01b6 9C080000 		.4byte	.LVL268
 17764 01ba A4080000 		.4byte	.LVL269
 17765 01be 0100     		.2byte	0x1
 17766 01c0 53       		.byte	0x53
 17767 01c1 94090000 		.4byte	.LVL283
 17768 01c5 A0090000 		.4byte	.LVL285
 17769 01c9 0100     		.2byte	0x1
 17770 01cb 54       		.byte	0x54
 17771 01cc A2090000 		.4byte	.LVL286
 17772 01d0 A4090000 		.4byte	.LVL287
 17773 01d4 0100     		.2byte	0x1
 17774 01d6 54       		.byte	0x54
 17775 01d7 A6090000 		.4byte	.LVL288
 17776 01db AE090000 		.4byte	.LVL289
 17777 01df 0100     		.2byte	0x1
 17778 01e1 54       		.byte	0x54
 17779 01e2 B0090000 		.4byte	.LVL290
 17780 01e6 BA090000 		.4byte	.LVL292
 17781 01ea 0100     		.2byte	0x1
 17782 01ec 54       		.byte	0x54
 17783 01ed BC090000 		.4byte	.LVL293
 17784 01f1 D0090000 		.4byte	.LVL294
 17785 01f5 0100     		.2byte	0x1
 17786 01f7 54       		.byte	0x54
 17787 01f8 D0090000 		.4byte	.LVL294
 17788 01fc D4090000 		.4byte	.LVL295
 17789 0200 0200     		.2byte	0x2
 17790 0202 31       		.byte	0x31
 17791 0203 9F       		.byte	0x9f
 17792 0204 D4090000 		.4byte	.LVL295
 17793 0208 340A0000 		.4byte	.LVL300
 17794 020c 0100     		.2byte	0x1
 17795 020e 52       		.byte	0x52
 17796 020f 360A0000 		.4byte	.LVL301
ARM GAS  C:\Users\RECEPC~1\AppData\Local\Temp\ccp152bc.s 			page 375


 17797 0213 410A0000 		.4byte	.LVL302-1
 17798 0217 0100     		.2byte	0x1
 17799 0219 52       		.byte	0x52
 17800 021a 760C0000 		.4byte	.LVL325
 17801 021e 7E0C0000 		.4byte	.LVL326
 17802 0222 0100     		.2byte	0x1
 17803 0224 53       		.byte	0x53
 17804 0225 800C0000 		.4byte	.LVL327
 17805 0229 820C0000 		.4byte	.LVL328
 17806 022d 0100     		.2byte	0x1
 17807 022f 53       		.byte	0x53
 17808 0230 840C0000 		.4byte	.LVL329
 17809 0234 8C0C0000 		.4byte	.LVL330
 17810 0238 0100     		.2byte	0x1
 17811 023a 53       		.byte	0x53
 17812 023b 980C0000 		.4byte	.LVL332
 17813 023f A00C0000 		.4byte	.LVL333
 17814 0243 0100     		.2byte	0x1
 17815 0245 53       		.byte	0x53
 17816 0246 A20C0000 		.4byte	.LVL334
 17817 024a A40C0000 		.4byte	.LVL335
 17818 024e 0100     		.2byte	0x1
 17819 0250 53       		.byte	0x53
 17820 0251 A60C0000 		.4byte	.LVL336
 17821 0255 B20C0000 		.4byte	.LVL337
 17822 0259 0100     		.2byte	0x1
 17823 025b 53       		.byte	0x53
 17824 025c BE0C0000 		.4byte	.LVL339
 17825 0260 CA0C0000 		.4byte	.LVL340
 17826 0264 0100     		.2byte	0x1
 17827 0266 53       		.byte	0x53
 17828 0267 CC0C0000 		.4byte	.LVL341
 17829 026b CE0C0000 		.4byte	.LVL342
 17830 026f 0100     		.2byte	0x1
 17831 0271 53       		.byte	0x53
 17832 0272 D00C0000 		.4byte	.LVL343
 17833 0276 DC0C0000 		.4byte	.LVL344
 17834 027a 0100     		.2byte	0x1
 17835 027c 53       		.byte	0x53
 17836 027d E80C0000 		.4byte	.LVL346
 17837 0281 F40C0000 		.4byte	.LVL347
 17838 0285 0100     		.2byte	0x1
 17839 0287 53       		.byte	0x53
 17840 0288 F60C0000 		.4byte	.LVL348
 17841 028c F80C0000 		.4byte	.LVL349
 17842 0290 0100     		.2byte	0x1
 17843 0292 53       		.byte	0x53
 17844 0293 FA0C0000 		.4byte	.LVL350
 17845 0297 060D0000 		.4byte	.LVL351
 17846 029b 0100     		.2byte	0x1
 17847 029d 53       		.byte	0x53
 17848 029e 120D0000 		.4byte	.LVL353
 17849 02a2 1A0D0000 		.4byte	.LVL354
 17850 02a6 0100     		.2byte	0x1
 17851 02a8 53       		.byte	0x53
 17852 02a9 1C0D0000 		.4byte	.LVL355
 17853 02ad 1E0D0000 		.4byte	.LVL356
ARM GAS  C:\Users\RECEPC~1\AppData\Local\Temp\ccp152bc.s 			page 376


 17854 02b1 0100     		.2byte	0x1
 17855 02b3 53       		.byte	0x53
 17856 02b4 200D0000 		.4byte	.LVL357
 17857 02b8 2C0D0000 		.4byte	.LVL358
 17858 02bc 0100     		.2byte	0x1
 17859 02be 53       		.byte	0x53
 17860 02bf 5A0D0000 		.4byte	.LVL361
 17861 02c3 6C0D0000 		.4byte	.LVL363
 17862 02c7 0100     		.2byte	0x1
 17863 02c9 53       		.byte	0x53
 17864 02ca 6E0D0000 		.4byte	.LVL364
 17865 02ce 760D0000 		.4byte	.LVL365
 17866 02d2 0100     		.2byte	0x1
 17867 02d4 53       		.byte	0x53
 17868 02d5 E00D0000 		.4byte	.LVL370
 17869 02d9 EE0D0000 		.4byte	.LVL371
 17870 02dd 0100     		.2byte	0x1
 17871 02df 53       		.byte	0x53
 17872 02e0 F00D0000 		.4byte	.LVL372
 17873 02e4 F20D0000 		.4byte	.LVL373
 17874 02e8 0100     		.2byte	0x1
 17875 02ea 53       		.byte	0x53
 17876 02eb F40D0000 		.4byte	.LVL374
 17877 02ef 000E0000 		.4byte	.LVL375
 17878 02f3 0100     		.2byte	0x1
 17879 02f5 53       		.byte	0x53
 17880 02f6 0C0E0000 		.4byte	.LVL377
 17881 02fa 1A0E0000 		.4byte	.LVL378
 17882 02fe 0100     		.2byte	0x1
 17883 0300 53       		.byte	0x53
 17884 0301 1C0E0000 		.4byte	.LVL379
 17885 0305 1E0E0000 		.4byte	.LVL380
 17886 0309 0100     		.2byte	0x1
 17887 030b 53       		.byte	0x53
 17888 030c 200E0000 		.4byte	.LVL381
 17889 0310 2C0E0000 		.4byte	.LVL382
 17890 0314 0100     		.2byte	0x1
 17891 0316 53       		.byte	0x53
 17892 0317 380E0000 		.4byte	.LVL384
 17893 031b 460E0000 		.4byte	.LVL385
 17894 031f 0100     		.2byte	0x1
 17895 0321 53       		.byte	0x53
 17896 0322 480E0000 		.4byte	.LVL386
 17897 0326 4A0E0000 		.4byte	.LVL387
 17898 032a 0100     		.2byte	0x1
 17899 032c 53       		.byte	0x53
 17900 032d 4C0E0000 		.4byte	.LVL388
 17901 0331 580E0000 		.4byte	.LVL389
 17902 0335 0100     		.2byte	0x1
 17903 0337 53       		.byte	0x53
 17904 0338 640E0000 		.4byte	.LVL391
 17905 033c 720E0000 		.4byte	.LVL392
 17906 0340 0100     		.2byte	0x1
 17907 0342 53       		.byte	0x53
 17908 0343 740E0000 		.4byte	.LVL393
 17909 0347 760E0000 		.4byte	.LVL394
 17910 034b 0100     		.2byte	0x1
ARM GAS  C:\Users\RECEPC~1\AppData\Local\Temp\ccp152bc.s 			page 377


 17911 034d 53       		.byte	0x53
 17912 034e 780E0000 		.4byte	.LVL395
 17913 0352 820E0000 		.4byte	.LVL396
 17914 0356 0100     		.2byte	0x1
 17915 0358 53       		.byte	0x53
 17916 0359 00000000 		.4byte	0
 17917 035d 00000000 		.4byte	0
 17918              	.LLST3:
 17919 0361 B0090000 		.4byte	.LVL290
 17920 0365 B7090000 		.4byte	.LVL291-1
 17921 0369 0100     		.2byte	0x1
 17922 036b 50       		.byte	0x50
 17923 036c B8090000 		.4byte	.LVL291
 17924 0370 D0090000 		.4byte	.LVL294
 17925 0374 0100     		.2byte	0x1
 17926 0376 50       		.byte	0x50
 17927 0377 D0090000 		.4byte	.LVL294
 17928 037b D4090000 		.4byte	.LVL295
 17929 037f 0200     		.2byte	0x2
 17930 0381 40       		.byte	0x40
 17931 0382 9F       		.byte	0x9f
 17932 0383 D4090000 		.4byte	.LVL295
 17933 0387 060A0000 		.4byte	.LVL296
 17934 038b 0100     		.2byte	0x1
 17935 038d 53       		.byte	0x53
 17936 038e 080A0000 		.4byte	.LVL297
 17937 0392 300A0000 		.4byte	.LVL298
 17938 0396 0100     		.2byte	0x1
 17939 0398 53       		.byte	0x53
 17940 0399 300A0000 		.4byte	.LVL298
 17941 039d 320A0000 		.4byte	.LVL299
 17942 03a1 0300     		.2byte	0x3
 17943 03a3 73       		.byte	0x73
 17944 03a4 01       		.sleb128 1
 17945 03a5 9F       		.byte	0x9f
 17946 03a6 320A0000 		.4byte	.LVL299
 17947 03aa 410A0000 		.4byte	.LVL302-1
 17948 03ae 0100     		.2byte	0x1
 17949 03b0 53       		.byte	0x53
 17950 03b1 00000000 		.4byte	0
 17951 03b5 00000000 		.4byte	0
 17952              	.LLST4:
 17953 03b9 4A020000 		.4byte	.LVL478
 17954 03bd 4E020000 		.4byte	.LVL479
 17955 03c1 0200     		.2byte	0x2
 17956 03c3 31       		.byte	0x31
 17957 03c4 9F       		.byte	0x9f
 17958 03c5 4E020000 		.4byte	.LVL479
 17959 03c9 5A020000 		.4byte	.LVL480
 17960 03cd 0100     		.2byte	0x1
 17961 03cf 53       		.byte	0x53
 17962 03d0 5C020000 		.4byte	.LVL481
 17963 03d4 6A020000 		.4byte	.LVL482
 17964 03d8 0100     		.2byte	0x1
 17965 03da 53       		.byte	0x53
 17966 03db 7A020000 		.4byte	.LVL483
 17967 03df 7E020000 		.4byte	.LVL484
ARM GAS  C:\Users\RECEPC~1\AppData\Local\Temp\ccp152bc.s 			page 378


 17968 03e3 0200     		.2byte	0x2
 17969 03e5 30       		.byte	0x30
 17970 03e6 9F       		.byte	0x9f
 17971 03e7 7E020000 		.4byte	.LVL484
 17972 03eb 8C020000 		.4byte	.LVL485
 17973 03ef 0100     		.2byte	0x1
 17974 03f1 53       		.byte	0x53
 17975 03f2 8E020000 		.4byte	.LVL486
 17976 03f6 96020000 		.4byte	.LVL487
 17977 03fa 0100     		.2byte	0x1
 17978 03fc 53       		.byte	0x53
 17979 03fd 28030000 		.4byte	.LVL496
 17980 0401 3A030000 		.4byte	.LVL497
 17981 0405 0100     		.2byte	0x1
 17982 0407 53       		.byte	0x53
 17983 0408 3C030000 		.4byte	.LVL498
 17984 040c 3E030000 		.4byte	.LVL499
 17985 0410 0100     		.2byte	0x1
 17986 0412 53       		.byte	0x53
 17987 0413 40030000 		.4byte	.LVL500
 17988 0417 4E030000 		.4byte	.LVL501
 17989 041b 0100     		.2byte	0x1
 17990 041d 53       		.byte	0x53
 17991 041e 6A070000 		.4byte	.LVL548
 17992 0422 76070000 		.4byte	.LVL549
 17993 0426 0100     		.2byte	0x1
 17994 0428 53       		.byte	0x53
 17995 0429 78070000 		.4byte	.LVL550
 17996 042d 7A070000 		.4byte	.LVL551
 17997 0431 0100     		.2byte	0x1
 17998 0433 53       		.byte	0x53
 17999 0434 7C070000 		.4byte	.LVL552
 18000 0438 84070000 		.4byte	.LVL553
 18001 043c 0100     		.2byte	0x1
 18002 043e 53       		.byte	0x53
 18003 043f 90070000 		.4byte	.LVL555
 18004 0443 9C070000 		.4byte	.LVL556
 18005 0447 0100     		.2byte	0x1
 18006 0449 53       		.byte	0x53
 18007 044a 9E070000 		.4byte	.LVL557
 18008 044e A0070000 		.4byte	.LVL558
 18009 0452 0100     		.2byte	0x1
 18010 0454 53       		.byte	0x53
 18011 0455 A2070000 		.4byte	.LVL559
 18012 0459 B4070000 		.4byte	.LVL560
 18013 045d 0100     		.2byte	0x1
 18014 045f 53       		.byte	0x53
 18015 0460 B6070000 		.4byte	.LVL561
 18016 0464 B8070000 		.4byte	.LVL562
 18017 0468 0100     		.2byte	0x1
 18018 046a 53       		.byte	0x53
 18019 046b BA070000 		.4byte	.LVL563
 18020 046f CC070000 		.4byte	.LVL564
 18021 0473 0100     		.2byte	0x1
 18022 0475 53       		.byte	0x53
 18023 0476 CE070000 		.4byte	.LVL565
 18024 047a D0070000 		.4byte	.LVL566
ARM GAS  C:\Users\RECEPC~1\AppData\Local\Temp\ccp152bc.s 			page 379


 18025 047e 0100     		.2byte	0x1
 18026 0480 53       		.byte	0x53
 18027 0481 D2070000 		.4byte	.LVL567
 18028 0485 D6070000 		.4byte	.LVL568
 18029 0489 0100     		.2byte	0x1
 18030 048b 53       		.byte	0x53
 18031 048c F2070000 		.4byte	.LVL570
 18032 0490 00080000 		.4byte	.LVL571
 18033 0494 0100     		.2byte	0x1
 18034 0496 53       		.byte	0x53
 18035 0497 02080000 		.4byte	.LVL572
 18036 049b 20080000 		.4byte	.LVL573
 18037 049f 0100     		.2byte	0x1
 18038 04a1 53       		.byte	0x53
 18039 04a2 22080000 		.4byte	.LVL574
 18040 04a6 2E080000 		.4byte	.LVL575
 18041 04aa 0100     		.2byte	0x1
 18042 04ac 53       		.byte	0x53
 18043 04ad 60080000 		.4byte	.LVL579
 18044 04b1 6E080000 		.4byte	.LVL580
 18045 04b5 0100     		.2byte	0x1
 18046 04b7 53       		.byte	0x53
 18047 04b8 70080000 		.4byte	.LVL581
 18048 04bc 72080000 		.4byte	.LVL582
 18049 04c0 0100     		.2byte	0x1
 18050 04c2 53       		.byte	0x53
 18051 04c3 74080000 		.4byte	.LVL583
 18052 04c7 82080000 		.4byte	.LVL584
 18053 04cb 0100     		.2byte	0x1
 18054 04cd 53       		.byte	0x53
 18055 04ce 8C080000 		.4byte	.LVL586
 18056 04d2 9A080000 		.4byte	.LVL587
 18057 04d6 0100     		.2byte	0x1
 18058 04d8 53       		.byte	0x53
 18059 04d9 9C080000 		.4byte	.LVL588
 18060 04dd 9E080000 		.4byte	.LVL589
 18061 04e1 0100     		.2byte	0x1
 18062 04e3 53       		.byte	0x53
 18063 04e4 A0080000 		.4byte	.LVL590
 18064 04e8 AA080000 		.4byte	.LVL591
 18065 04ec 0100     		.2byte	0x1
 18066 04ee 53       		.byte	0x53
 18067 04ef AE080000 		.4byte	.LVL592
 18068 04f3 BC080000 		.4byte	.LVL593
 18069 04f7 0100     		.2byte	0x1
 18070 04f9 53       		.byte	0x53
 18071 04fa BE080000 		.4byte	.LVL594
 18072 04fe C6080000 		.4byte	.LVL595
 18073 0502 0100     		.2byte	0x1
 18074 0504 53       		.byte	0x53
 18075 0505 B8090000 		.4byte	.LVL609
 18076 0509 C4090000 		.4byte	.LVL611
 18077 050d 0100     		.2byte	0x1
 18078 050f 54       		.byte	0x54
 18079 0510 C6090000 		.4byte	.LVL612
 18080 0514 C8090000 		.4byte	.LVL613
 18081 0518 0100     		.2byte	0x1
ARM GAS  C:\Users\RECEPC~1\AppData\Local\Temp\ccp152bc.s 			page 380


 18082 051a 54       		.byte	0x54
 18083 051b CA090000 		.4byte	.LVL614
 18084 051f D2090000 		.4byte	.LVL615
 18085 0523 0100     		.2byte	0x1
 18086 0525 54       		.byte	0x54
 18087 0526 D4090000 		.4byte	.LVL616
 18088 052a DE090000 		.4byte	.LVL618
 18089 052e 0100     		.2byte	0x1
 18090 0530 54       		.byte	0x54
 18091 0531 E0090000 		.4byte	.LVL619
 18092 0535 F4090000 		.4byte	.LVL620
 18093 0539 0100     		.2byte	0x1
 18094 053b 54       		.byte	0x54
 18095 053c F4090000 		.4byte	.LVL620
 18096 0540 F8090000 		.4byte	.LVL621
 18097 0544 0200     		.2byte	0x2
 18098 0546 31       		.byte	0x31
 18099 0547 9F       		.byte	0x9f
 18100 0548 F8090000 		.4byte	.LVL621
 18101 054c 580A0000 		.4byte	.LVL626
 18102 0550 0100     		.2byte	0x1
 18103 0552 52       		.byte	0x52
 18104 0553 5A0A0000 		.4byte	.LVL627
 18105 0557 650A0000 		.4byte	.LVL628-1
 18106 055b 0100     		.2byte	0x1
 18107 055d 52       		.byte	0x52
 18108 055e 960C0000 		.4byte	.LVL651
 18109 0562 9E0C0000 		.4byte	.LVL652
 18110 0566 0100     		.2byte	0x1
 18111 0568 53       		.byte	0x53
 18112 0569 A00C0000 		.4byte	.LVL653
 18113 056d A20C0000 		.4byte	.LVL654
 18114 0571 0100     		.2byte	0x1
 18115 0573 53       		.byte	0x53
 18116 0574 A40C0000 		.4byte	.LVL655
 18117 0578 AC0C0000 		.4byte	.LVL656
 18118 057c 0100     		.2byte	0x1
 18119 057e 53       		.byte	0x53
 18120 057f B80C0000 		.4byte	.LVL658
 18121 0583 C00C0000 		.4byte	.LVL659
 18122 0587 0100     		.2byte	0x1
 18123 0589 53       		.byte	0x53
 18124 058a C20C0000 		.4byte	.LVL660
 18125 058e C40C0000 		.4byte	.LVL661
 18126 0592 0100     		.2byte	0x1
 18127 0594 53       		.byte	0x53
 18128 0595 C60C0000 		.4byte	.LVL662
 18129 0599 D20C0000 		.4byte	.LVL663
 18130 059d 0100     		.2byte	0x1
 18131 059f 53       		.byte	0x53
 18132 05a0 DE0C0000 		.4byte	.LVL665
 18133 05a4 EA0C0000 		.4byte	.LVL666
 18134 05a8 0100     		.2byte	0x1
 18135 05aa 53       		.byte	0x53
 18136 05ab EC0C0000 		.4byte	.LVL667
 18137 05af EE0C0000 		.4byte	.LVL668
 18138 05b3 0100     		.2byte	0x1
ARM GAS  C:\Users\RECEPC~1\AppData\Local\Temp\ccp152bc.s 			page 381


 18139 05b5 53       		.byte	0x53
 18140 05b6 F00C0000 		.4byte	.LVL669
 18141 05ba FC0C0000 		.4byte	.LVL670
 18142 05be 0100     		.2byte	0x1
 18143 05c0 53       		.byte	0x53
 18144 05c1 080D0000 		.4byte	.LVL672
 18145 05c5 140D0000 		.4byte	.LVL673
 18146 05c9 0100     		.2byte	0x1
 18147 05cb 53       		.byte	0x53
 18148 05cc 160D0000 		.4byte	.LVL674
 18149 05d0 180D0000 		.4byte	.LVL675
 18150 05d4 0100     		.2byte	0x1
 18151 05d6 53       		.byte	0x53
 18152 05d7 1A0D0000 		.4byte	.LVL676
 18153 05db 260D0000 		.4byte	.LVL677
 18154 05df 0100     		.2byte	0x1
 18155 05e1 53       		.byte	0x53
 18156 05e2 320D0000 		.4byte	.LVL679
 18157 05e6 3A0D0000 		.4byte	.LVL680
 18158 05ea 0100     		.2byte	0x1
 18159 05ec 53       		.byte	0x53
 18160 05ed 3C0D0000 		.4byte	.LVL681
 18161 05f1 3E0D0000 		.4byte	.LVL682
 18162 05f5 0100     		.2byte	0x1
 18163 05f7 53       		.byte	0x53
 18164 05f8 400D0000 		.4byte	.LVL683
 18165 05fc 4C0D0000 		.4byte	.LVL684
 18166 0600 0100     		.2byte	0x1
 18167 0602 53       		.byte	0x53
 18168 0603 7A0D0000 		.4byte	.LVL687
 18169 0607 8C0D0000 		.4byte	.LVL689
 18170 060b 0100     		.2byte	0x1
 18171 060d 53       		.byte	0x53
 18172 060e 8E0D0000 		.4byte	.LVL690
 18173 0612 960D0000 		.4byte	.LVL691
 18174 0616 0100     		.2byte	0x1
 18175 0618 53       		.byte	0x53
 18176 0619 000E0000 		.4byte	.LVL696
 18177 061d 0E0E0000 		.4byte	.LVL697
 18178 0621 0100     		.2byte	0x1
 18179 0623 53       		.byte	0x53
 18180 0624 100E0000 		.4byte	.LVL698
 18181 0628 120E0000 		.4byte	.LVL699
 18182 062c 0100     		.2byte	0x1
 18183 062e 53       		.byte	0x53
 18184 062f 140E0000 		.4byte	.LVL700
 18185 0633 200E0000 		.4byte	.LVL701
 18186 0637 0100     		.2byte	0x1
 18187 0639 53       		.byte	0x53
 18188 063a 2C0E0000 		.4byte	.LVL703
 18189 063e 3A0E0000 		.4byte	.LVL704
 18190 0642 0100     		.2byte	0x1
 18191 0644 53       		.byte	0x53
 18192 0645 3C0E0000 		.4byte	.LVL705
 18193 0649 3E0E0000 		.4byte	.LVL706
 18194 064d 0100     		.2byte	0x1
 18195 064f 53       		.byte	0x53
ARM GAS  C:\Users\RECEPC~1\AppData\Local\Temp\ccp152bc.s 			page 382


 18196 0650 400E0000 		.4byte	.LVL707
 18197 0654 4C0E0000 		.4byte	.LVL708
 18198 0658 0100     		.2byte	0x1
 18199 065a 53       		.byte	0x53
 18200 065b 580E0000 		.4byte	.LVL710
 18201 065f 660E0000 		.4byte	.LVL711
 18202 0663 0100     		.2byte	0x1
 18203 0665 53       		.byte	0x53
 18204 0666 680E0000 		.4byte	.LVL712
 18205 066a 6A0E0000 		.4byte	.LVL713
 18206 066e 0100     		.2byte	0x1
 18207 0670 53       		.byte	0x53
 18208 0671 6C0E0000 		.4byte	.LVL714
 18209 0675 780E0000 		.4byte	.LVL715
 18210 0679 0100     		.2byte	0x1
 18211 067b 53       		.byte	0x53
 18212 067c 840E0000 		.4byte	.LVL717
 18213 0680 920E0000 		.4byte	.LVL718
 18214 0684 0100     		.2byte	0x1
 18215 0686 53       		.byte	0x53
 18216 0687 940E0000 		.4byte	.LVL719
 18217 068b 960E0000 		.4byte	.LVL720
 18218 068f 0100     		.2byte	0x1
 18219 0691 53       		.byte	0x53
 18220 0692 980E0000 		.4byte	.LVL721
 18221 0696 A20E0000 		.4byte	.LVL722
 18222 069a 0100     		.2byte	0x1
 18223 069c 53       		.byte	0x53
 18224 069d 00000000 		.4byte	0
 18225 06a1 00000000 		.4byte	0
 18226              	.LLST5:
 18227 06a5 D4090000 		.4byte	.LVL616
 18228 06a9 DB090000 		.4byte	.LVL617-1
 18229 06ad 0100     		.2byte	0x1
 18230 06af 50       		.byte	0x50
 18231 06b0 DC090000 		.4byte	.LVL617
 18232 06b4 F4090000 		.4byte	.LVL620
 18233 06b8 0100     		.2byte	0x1
 18234 06ba 50       		.byte	0x50
 18235 06bb F4090000 		.4byte	.LVL620
 18236 06bf F8090000 		.4byte	.LVL621
 18237 06c3 0200     		.2byte	0x2
 18238 06c5 40       		.byte	0x40
 18239 06c6 9F       		.byte	0x9f
 18240 06c7 F8090000 		.4byte	.LVL621
 18241 06cb 2A0A0000 		.4byte	.LVL622
 18242 06cf 0100     		.2byte	0x1
 18243 06d1 53       		.byte	0x53
 18244 06d2 2C0A0000 		.4byte	.LVL623
 18245 06d6 540A0000 		.4byte	.LVL624
 18246 06da 0100     		.2byte	0x1
 18247 06dc 53       		.byte	0x53
 18248 06dd 540A0000 		.4byte	.LVL624
 18249 06e1 560A0000 		.4byte	.LVL625
 18250 06e5 0300     		.2byte	0x3
 18251 06e7 73       		.byte	0x73
 18252 06e8 01       		.sleb128 1
ARM GAS  C:\Users\RECEPC~1\AppData\Local\Temp\ccp152bc.s 			page 383


 18253 06e9 9F       		.byte	0x9f
 18254 06ea 560A0000 		.4byte	.LVL625
 18255 06ee 650A0000 		.4byte	.LVL628-1
 18256 06f2 0100     		.2byte	0x1
 18257 06f4 53       		.byte	0x53
 18258 06f5 00000000 		.4byte	0
 18259 06f9 00000000 		.4byte	0
 18260              		.section	.debug_aranges,"",%progbits
 18261 0000 7C000000 		.4byte	0x7c
 18262 0004 0200     		.2byte	0x2
 18263 0006 00000000 		.4byte	.Ldebug_info0
 18264 000a 04       		.byte	0x4
 18265 000b 00       		.byte	0
 18266 000c 0000     		.2byte	0
 18267 000e 0000     		.2byte	0
 18268 0010 00000000 		.4byte	.LFB73
 18269 0014 14000000 		.4byte	.LFE73-.LFB73
 18270 0018 00000000 		.4byte	.LFB63
 18271 001c 28000000 		.4byte	.LFE63-.LFB63
 18272 0020 00000000 		.4byte	.LFB64
 18273 0024 94000000 		.4byte	.LFE64-.LFB64
 18274 0028 00000000 		.4byte	.LFB65
 18275 002c C8000000 		.4byte	.LFE65-.LFB65
 18276 0030 00000000 		.4byte	.LFB66
 18277 0034 8C020000 		.4byte	.LFE66-.LFB66
 18278 0038 00000000 		.4byte	.LFB67
 18279 003c 50000000 		.4byte	.LFE67-.LFB67
 18280 0040 00000000 		.4byte	.LFB68
 18281 0044 C4000000 		.4byte	.LFE68-.LFB68
 18282 0048 00000000 		.4byte	.LFB69
 18283 004c C4000000 		.4byte	.LFE69-.LFB69
 18284 0050 00000000 		.4byte	.LFB70
 18285 0054 6C010000 		.4byte	.LFE70-.LFB70
 18286 0058 00000000 		.4byte	.LFB71
 18287 005c B8130000 		.4byte	.LFE71-.LFB71
 18288 0060 00000000 		.4byte	.LFB72
 18289 0064 D8130000 		.4byte	.LFE72-.LFB72
 18290 0068 00000000 		.4byte	.LFB74
 18291 006c 14000000 		.4byte	.LFE74-.LFB74
 18292 0070 00000000 		.4byte	.LFB75
 18293 0074 54000000 		.4byte	.LFE75-.LFB75
 18294 0078 00000000 		.4byte	0
 18295 007c 00000000 		.4byte	0
 18296              		.section	.debug_ranges,"",%progbits
 18297              	.Ldebug_ranges0:
 18298 0000 00000000 		.4byte	.LFB73
 18299 0004 14000000 		.4byte	.LFE73
 18300 0008 00000000 		.4byte	.LFB63
 18301 000c 28000000 		.4byte	.LFE63
 18302 0010 00000000 		.4byte	.LFB64
 18303 0014 94000000 		.4byte	.LFE64
 18304 0018 00000000 		.4byte	.LFB65
 18305 001c C8000000 		.4byte	.LFE65
 18306 0020 00000000 		.4byte	.LFB66
 18307 0024 8C020000 		.4byte	.LFE66
 18308 0028 00000000 		.4byte	.LFB67
 18309 002c 50000000 		.4byte	.LFE67
ARM GAS  C:\Users\RECEPC~1\AppData\Local\Temp\ccp152bc.s 			page 384


 18310 0030 00000000 		.4byte	.LFB68
 18311 0034 C4000000 		.4byte	.LFE68
 18312 0038 00000000 		.4byte	.LFB69
 18313 003c C4000000 		.4byte	.LFE69
 18314 0040 00000000 		.4byte	.LFB70
 18315 0044 6C010000 		.4byte	.LFE70
 18316 0048 00000000 		.4byte	.LFB71
 18317 004c B8130000 		.4byte	.LFE71
 18318 0050 00000000 		.4byte	.LFB72
 18319 0054 D8130000 		.4byte	.LFE72
 18320 0058 00000000 		.4byte	.LFB74
 18321 005c 14000000 		.4byte	.LFE74
 18322 0060 00000000 		.4byte	.LFB75
 18323 0064 54000000 		.4byte	.LFE75
 18324 0068 00000000 		.4byte	0
 18325 006c 00000000 		.4byte	0
 18326              		.section	.debug_line,"",%progbits
 18327              	.Ldebug_line0:
 18328 0000 440D0000 		.section	.debug_str,"MS",%progbits,1
 18328      02009302 
 18328      00000201 
 18328      FB0E0D00 
 18328      01010101 
 18329              	.LASF35:
 18330 0000 76616C75 		.ascii	"valueKeys\000"
 18330      654B6579 
 18330      7300
 18331              	.LASF25:
 18332 000a 73697A65 		.ascii	"sizetype\000"
 18332      74797065 
 18332      00
 18333              	.LASF79:
 18334 0013 72665374 		.ascii	"rfState\000"
 18334      61746500 
 18335              	.LASF224:
 18336 001b 74656D70 		.ascii	"temporal\000"
 18336      6F72616C 
 18336      00
 18337              	.LASF186:
 18338 0024 44697370 		.ascii	"Display1_rxBuffer\000"
 18338      6C617931 
 18338      5F727842 
 18338      75666665 
 18338      7200
 18339              	.LASF158:
 18340 0036 52465F43 		.ascii	"RF_CREDITSALEREPORT\000"
 18340      52454449 
 18340      5453414C 
 18340      45524550 
 18340      4F525400 
 18341              	.LASF95:
 18342 004a 44495350 		.ascii	"DISPLAY_SUBA_MANIJA\000"
 18342      4C41595F 
 18342      53554241 
 18342      5F4D414E 
 18342      494A4100 
 18343              	.LASF288:
ARM GAS  C:\Users\RECEPC~1\AppData\Local\Temp\ccp152bc.s 			page 385


 18344 005e 6765745F 		.ascii	"get_state\000"
 18344      73746174 
 18344      6500
 18345              	.LASF31:
 18346 0068 6D6F6E65 		.ascii	"moneySelectedSale\000"
 18346      7953656C 
 18346      65637465 
 18346      6453616C 
 18346      6500
 18347              	.LASF14:
 18348 007a 696E7433 		.ascii	"int32_t\000"
 18348      325F7400 
 18349              	.LASF181:
 18350 0082 506F6C6C 		.ascii	"PollingPump\000"
 18350      696E6750 
 18350      756D7000 
 18351              	.LASF26:
 18352 008e 69645479 		.ascii	"idType\000"
 18352      706500
 18353              	.LASF17:
 18354 0095 75696E74 		.ascii	"uint32\000"
 18354      333200
 18355              	.LASF115:
 18356 009c 44495350 		.ascii	"DISPLAY_COPIA_RECIBO\000"
 18356      4C41595F 
 18356      434F5049 
 18356      415F5245 
 18356      4349424F 
 18357              	.LASF238:
 18358 00b1 4E756D50 		.ascii	"NumPositions\000"
 18358      6F736974 
 18358      696F6E73 
 18358      00
 18359              	.LASF240:
 18360 00be 64696769 		.ascii	"digits\000"
 18360      747300
 18361              	.LASF184:
 18362 00c5 616E696D 		.ascii	"animacion2\000"
 18362      6163696F 
 18362      6E3200
 18363              	.LASF57:
 18364 00d0 666C6167 		.ascii	"flagEndSale\000"
 18364      456E6453 
 18364      616C6500 
 18365              	.LASF152:
 18366 00dc 5F52465F 		.ascii	"_RF_STATES_\000"
 18366      53544154 
 18366      45535F00 
 18367              	.LASF55:
 18368 00e8 666C6167 		.ascii	"flagPayment\000"
 18368      5061796D 
 18368      656E7400 
 18369              	.LASF253:
 18370 00f4 7072696E 		.ascii	"printPortB\000"
 18370      74506F72 
 18370      744200
 18371              	.LASF127:
ARM GAS  C:\Users\RECEPC~1\AppData\Local\Temp\ccp152bc.s 			page 386


 18372 00ff 44495350 		.ascii	"DISPLAY_ABRIR_TURNO\000"
 18372      4C41595F 
 18372      41425249 
 18372      525F5455 
 18372      524E4F00 
 18373              	.LASF286:
 18374 0113 54696D65 		.ascii	"Timer_Animacion_ReadStatusRegister\000"
 18374      725F416E 
 18374      696D6163 
 18374      696F6E5F 
 18374      52656164 
 18375              	.LASF82:
 18376 0136 67726164 		.ascii	"grade\000"
 18376      6500
 18377              	.LASF153:
 18378 013c 52465F49 		.ascii	"RF_IDLE\000"
 18378      444C4500 
 18379              	.LASF114:
 18380 0144 44495350 		.ascii	"DISPLAY_CONFIGURACIONES\000"
 18380      4C41595F 
 18380      434F4E46 
 18380      49475552 
 18380      4143494F 
 18381              	.LASF21:
 18382 015c 63686172 		.ascii	"char8\000"
 18382      3800
 18383              	.LASF316:
 18384 0162 53686F77 		.ascii	"ShowRectangle\000"
 18384      52656374 
 18384      616E676C 
 18384      6500
 18385              	.LASF51:
 18386 0170 6C696365 		.ascii	"licenceSale\000"
 18386      6E636553 
 18386      616C6500 
 18387              	.LASF298:
 18388 017c 57726974 		.ascii	"WriteLCD\000"
 18388      654C4344 
 18388      00
 18389              	.LASF295:
 18390 0185 54696D65 		.ascii	"Timer_Animacion_Stop\000"
 18390      725F416E 
 18390      696D6163 
 18390      696F6E5F 
 18390      53746F70 
 18391              	.LASF212:
 18392 019a 73637265 		.ascii	"screen\000"
 18392      656E00
 18393              	.LASF304:
 18394 01a1 50756D70 		.ascii	"Pump_PutChar\000"
 18394      5F507574 
 18394      43686172 
 18394      00
 18395              	.LASF65:
 18396 01ae 666C6167 		.ascii	"flagActiveSale\000"
 18396      41637469 
 18396      76655361 
ARM GAS  C:\Users\RECEPC~1\AppData\Local\Temp\ccp152bc.s 			page 387


 18396      6C6500
 18397              	.LASF199:
 18398 01bd 6E756D62 		.ascii	"numberKeys1\000"
 18398      65724B65 
 18398      79733100 
 18399              	.LASF200:
 18400 01c9 6E756D62 		.ascii	"numberKeys2\000"
 18400      65724B65 
 18400      79733200 
 18401              	.LASF216:
 18402 01d5 70617373 		.ascii	"passwordSeller\000"
 18402      776F7264 
 18402      53656C6C 
 18402      657200
 18403              	.LASF62:
 18404 01e4 7072696E 		.ascii	"printers\000"
 18404      74657273 
 18404      00
 18405              	.LASF161:
 18406 01ed 52465F5A 		.ascii	"RF_ZERO_SALE\000"
 18406      45524F5F 
 18406      53414C45 
 18406      00
 18407              	.LASF194:
 18408 01fa 636F756E 		.ascii	"countLCD\000"
 18408      744C4344 
 18408      00
 18409              	.LASF208:
 18410 0203 64656369 		.ascii	"decimalVolume\000"
 18410      6D616C56 
 18410      6F6C756D 
 18410      6500
 18411              	.LASF3:
 18412 0211 5F5F7569 		.ascii	"__uint8_t\000"
 18412      6E74385F 
 18412      7400
 18413              	.LASF178:
 18414 021b 6461746F 		.ascii	"datoA\000"
 18414      4100
 18415              	.LASF179:
 18416 0221 6461746F 		.ascii	"datoB\000"
 18416      4200
 18417              	.LASF309:
 18418 0227 746F7563 		.ascii	"touch_read_byte\000"
 18418      685F7265 
 18418      61645F62 
 18418      79746500 
 18419              	.LASF92:
 18420 0237 44495350 		.ascii	"DISPLAY_INTRODUZCA_VALOR2\000"
 18420      4C41595F 
 18420      494E5452 
 18420      4F44555A 
 18420      43415F56 
 18421              	.LASF59:
 18422 0251 766F6C75 		.ascii	"volumeQuota\000"
 18422      6D655175 
 18422      6F746100 
ARM GAS  C:\Users\RECEPC~1\AppData\Local\Temp\ccp152bc.s 			page 388


 18423              	.LASF56:
 18424 025d 666C6167 		.ascii	"flagLiftHandle\000"
 18424      4C696674 
 18424      48616E64 
 18424      6C6500
 18425              	.LASF311:
 18426 026c 61746F69 		.ascii	"atoi\000"
 18426      00
 18427              	.LASF27:
 18428 0271 69645365 		.ascii	"idSerial\000"
 18428      7269616C 
 18428      00
 18429              	.LASF134:
 18430 027a 44495350 		.ascii	"DISPLAY_IDENTIFICADOR_ESTACION\000"
 18430      4C41595F 
 18430      4944454E 
 18430      54494649 
 18430      4341444F 
 18431              	.LASF20:
 18432 0299 75696E74 		.ascii	"uint64\000"
 18432      363400
 18433              	.LASF7:
 18434 02a0 6C6F6E67 		.ascii	"long int\000"
 18434      20696E74 
 18434      00
 18435              	.LASF294:
 18436 02a9 6973725F 		.ascii	"isr_3_Stop\000"
 18436      335F5374 
 18436      6F7000
 18437              	.LASF209:
 18438 02b4 73796D62 		.ascii	"symbols\000"
 18438      6F6C7300 
 18439              	.LASF164:
 18440 02bc 6C6F6164 		.ascii	"loadConfiguration\000"
 18440      436F6E66 
 18440      69677572 
 18440      6174696F 
 18440      6E00
 18441              	.LASF142:
 18442 02ce 5F415641 		.ascii	"_AVAILABLE_DISPLAYS_\000"
 18442      494C4142 
 18442      4C455F44 
 18442      4953504C 
 18442      4159535F 
 18443              	.LASF182:
 18444 02e3 506F6C6C 		.ascii	"PollingDisplay1\000"
 18444      696E6744 
 18444      6973706C 
 18444      61793100 
 18445              	.LASF45:
 18446 02f3 746F7461 		.ascii	"totalMoneyPrevious\000"
 18446      6C4D6F6E 
 18446      65795072 
 18446      6576696F 
 18446      757300
 18447              	.LASF185:
 18448 0306 6D61696E 		.ascii	"main\000"
ARM GAS  C:\Users\RECEPC~1\AppData\Local\Temp\ccp152bc.s 			page 389


 18448      00
 18449              	.LASF315:
 18450 030b 54696D65 		.ascii	"Timer_Animacion2_Stop\000"
 18450      725F416E 
 18450      696D6163 
 18450      696F6E32 
 18450      5F53746F 
 18451              	.LASF289:
 18452 0321 50756D70 		.ascii	"PumpIsInValidState\000"
 18452      4973496E 
 18452      56616C69 
 18452      64537461 
 18452      746500
 18453              	.LASF112:
 18454 0334 44495350 		.ascii	"DISPLAY_INTRODUZCA_KILOMETRAJE\000"
 18454      4C41595F 
 18454      494E5452 
 18454      4F44555A 
 18454      43415F4B 
 18455              	.LASF227:
 18456 0353 43477261 		.ascii	"CGrade\000"
 18456      646500
 18457              	.LASF85:
 18458 035a 44495350 		.ascii	"DISPLAY_ERROR\000"
 18458      4C41595F 
 18458      4552524F 
 18458      5200
 18459              	.LASF306:
 18460 0368 696D7072 		.ascii	"imprimir\000"
 18460      696D6972 
 18460      00
 18461              	.LASF290:
 18462 0371 5F426F6F 		.ascii	"_Bool\000"
 18462      6C00
 18463              	.LASF211:
 18464 0377 64617465 		.ascii	"date\000"
 18464      00
 18465              	.LASF120:
 18466 037c 44495350 		.ascii	"DISPLAY_POR_FAVOR_ESPERE\000"
 18466      4C41595F 
 18466      504F525F 
 18466      4641564F 
 18466      525F4553 
 18467              	.LASF276:
 18468 0395 5072696E 		.ascii	"Printer_Start\000"
 18468      7465725F 
 18468      53746172 
 18468      7400
 18469              	.LASF125:
 18470 03a3 44495350 		.ascii	"DISPLAY_FECHA\000"
 18470      4C41595F 
 18470      46454348 
 18470      4100
 18471              	.LASF193:
 18472 03b1 636F756E 		.ascii	"countPump\000"
 18472      7450756D 
 18472      7000
ARM GAS  C:\Users\RECEPC~1\AppData\Local\Temp\ccp152bc.s 			page 390


 18473              	.LASF0:
 18474 03bb 7369676E 		.ascii	"signed char\000"
 18474      65642063 
 18474      68617200 
 18475              	.LASF12:
 18476 03c7 75696E74 		.ascii	"uint8_t\000"
 18476      385F7400 
 18477              	.LASF106:
 18478 03cf 44495350 		.ascii	"DISPLAY_ID_DIGITAL\000"
 18478      4C41595F 
 18478      49445F44 
 18478      49474954 
 18478      414C00
 18479              	.LASF104:
 18480 03e2 44495350 		.ascii	"DISPLAY_TIEMPO_EXPIRADO\000"
 18480      4C41595F 
 18480      5449454D 
 18480      504F5F45 
 18480      58504952 
 18481              	.LASF301:
 18482 03fa 54696D65 		.ascii	"Timer_Animacion_Start\000"
 18482      725F416E 
 18482      696D6163 
 18482      696F6E5F 
 18482      53746172 
 18483              	.LASF37:
 18484 0410 73616C65 		.ascii	"saleType\000"
 18484      54797065 
 18484      00
 18485              	.LASF130:
 18486 0419 44495350 		.ascii	"DISPLAY_USUARIO_VALIDO\000"
 18486      4C41595F 
 18486      55535541 
 18486      52494F5F 
 18486      56414C49 
 18487              	.LASF128:
 18488 0430 44495350 		.ascii	"DISPLAY_CERRAR_TURNO\000"
 18488      4C41595F 
 18488      43455252 
 18488      41525F54 
 18488      55524E4F 
 18489              	.LASF323:
 18490 0445 474E5520 		.ascii	"GNU C 4.9.3 20150303 (release) [ARM/embedded-4_9-br"
 18490      4320342E 
 18490      392E3320 
 18490      32303135 
 18490      30333033 
 18491 0478 616E6368 		.ascii	"anch revision 221220] -mcpu=cortex-m3 -mthumb -g -O"
 18491      20726576 
 18491      6973696F 
 18491      6E203232 
 18491      31323230 
 18492 04ab 67202D66 		.ascii	"g -ffunction-sections -ffat-lto-objects\000"
 18492      66756E63 
 18492      74696F6E 
 18492      2D736563 
 18492      74696F6E 
ARM GAS  C:\Users\RECEPC~1\AppData\Local\Temp\ccp152bc.s 			page 391


 18493              	.LASF302:
 18494 04d3 50756D70 		.ascii	"PumpHoseActiveState\000"
 18494      486F7365 
 18494      41637469 
 18494      76655374 
 18494      61746500 
 18495              	.LASF80:
 18496 04e7 70756D70 		.ascii	"pumpState\000"
 18496      53746174 
 18496      6500
 18497              	.LASF1:
 18498 04f1 756E7369 		.ascii	"unsigned char\000"
 18498      676E6564 
 18498      20636861 
 18498      7200
 18499              	.LASF91:
 18500 04ff 44495350 		.ascii	"DISPLAY_INTRODUZCA_VALOR\000"
 18500      4C41595F 
 18500      494E5452 
 18500      4F44555A 
 18500      43415F56 
 18501              	.LASF310:
 18502 0518 6372635F 		.ascii	"crc_check\000"
 18502      63686563 
 18502      6B00
 18503              	.LASF119:
 18504 0522 44495350 		.ascii	"DISPLAY_ESPERANDO_AUTORIZACION\000"
 18504      4C41595F 
 18504      45535045 
 18504      52414E44 
 18504      4F5F4155 
 18505              	.LASF264:
 18506 0541 47726164 		.ascii	"GradesHose\000"
 18506      6573486F 
 18506      736500
 18507              	.LASF207:
 18508 054c 64656369 		.ascii	"decimalMoney\000"
 18508      6D616C4D 
 18508      6F6E6579 
 18508      00
 18509              	.LASF157:
 18510 0559 52465F57 		.ascii	"RF_WORKSHIFTREQ\000"
 18510      4F524B53 
 18510      48494654 
 18510      52455100 
 18511              	.LASF67:
 18512 0569 73686966 		.ascii	"shiftPassword\000"
 18512      74506173 
 18512      73776F72 
 18512      6400
 18513              	.LASF70:
 18514 0577 746F7461 		.ascii	"totalsHandle\000"
 18514      6C734861 
 18514      6E646C65 
 18514      00
 18515              	.LASF195:
 18516 0584 666C6F77 		.ascii	"flowDisplay1\000"
ARM GAS  C:\Users\RECEPC~1\AppData\Local\Temp\ccp152bc.s 			page 392


 18516      44697370 
 18516      6C617931 
 18516      00
 18517              	.LASF196:
 18518 0591 666C6F77 		.ascii	"flowDisplay2\000"
 18518      44697370 
 18518      6C617932 
 18518      00
 18519              	.LASF197:
 18520 059e 666C6F77 		.ascii	"flowDisplay3\000"
 18520      44697370 
 18520      6C617933 
 18520      00
 18521              	.LASF198:
 18522 05ab 666C6F77 		.ascii	"flowDisplay4\000"
 18522      44697370 
 18522      6C617934 
 18522      00
 18523              	.LASF237:
 18524 05b8 73746174 		.ascii	"statePump\000"
 18524      6550756D 
 18524      7000
 18525              	.LASF22:
 18526 05c2 63686172 		.ascii	"char\000"
 18526      00
 18527              	.LASF132:
 18528 05c7 44495350 		.ascii	"DISPLAY_AMBAS_IMPRESORAS_FUNCIONANDO\000"
 18528      4C41595F 
 18528      414D4241 
 18528      535F494D 
 18528      50524553 
 18529              	.LASF239:
 18530 05ec 6C6F636B 		.ascii	"lockTurn\000"
 18530      5475726E 
 18530      00
 18531              	.LASF29:
 18532 05f5 666C6167 		.ascii	"flagWayToPayMixed\000"
 18532      57617954 
 18532      6F506179 
 18532      4D697865 
 18532      6400
 18533              	.LASF272:
 18534 0607 45455052 		.ascii	"EEPROM_1_Start\000"
 18534      4F4D5F31 
 18534      5F537461 
 18534      727400
 18535              	.LASF4:
 18536 0616 5F5F7569 		.ascii	"__uint16_t\000"
 18536      6E743136 
 18536      5F7400
 18537              	.LASF249:
 18538 0621 636F6E74 		.ascii	"controlChar\000"
 18538      726F6C43 
 18538      68617200 
 18539              	.LASF223:
 18540 062d 636F756E 		.ascii	"counterRF\000"
 18540      74657252 
ARM GAS  C:\Users\RECEPC~1\AppData\Local\Temp\ccp152bc.s 			page 393


 18540      4600
 18541              	.LASF162:
 18542 0637 476C6F62 		.ascii	"GlobalInitializer\000"
 18542      616C496E 
 18542      69746961 
 18542      6C697A65 
 18542      7200
 18543              	.LASF231:
 18544 0649 556E6974 		.ascii	"UnitType\000"
 18544      54797065 
 18544      00
 18545              	.LASF42:
 18546 0652 73746174 		.ascii	"stateMux\000"
 18546      654D7578 
 18546      00
 18547              	.LASF100:
 18548 065b 44495350 		.ascii	"DISPLAY_INGRESE_PASSWORD\000"
 18548      4C41595F 
 18548      494E4752 
 18548      4553455F 
 18548      50415353 
 18549              	.LASF183:
 18550 0674 506F6C6C 		.ascii	"PollingDisplay2\000"
 18550      696E6744 
 18550      6973706C 
 18550      61793200 
 18551              	.LASF297:
 18552 0684 44697370 		.ascii	"Display1_ClearRxBuffer\000"
 18552      6C617931 
 18552      5F436C65 
 18552      61725278 
 18552      42756666 
 18553              	.LASF258:
 18554 069b 696E7449 		.ascii	"intIDStation\000"
 18554      44537461 
 18554      74696F6E 
 18554      00
 18555              	.LASF189:
 18556 06a8 636F756E 		.ascii	"countAnimation1\000"
 18556      74416E69 
 18556      6D617469 
 18556      6F6E3100 
 18557              	.LASF190:
 18558 06b8 636F756E 		.ascii	"countAnimation2\000"
 18558      74416E69 
 18558      6D617469 
 18558      6F6E3200 
 18559              	.LASF218:
 18560 06c8 73746174 		.ascii	"stateBeagleSoft\000"
 18560      65426561 
 18560      676C6553 
 18560      6F667400 
 18561              	.LASF265:
 18562 06d8 62756666 		.ascii	"bufferDisplay1\000"
 18562      65724469 
 18562      73706C61 
 18562      793100
ARM GAS  C:\Users\RECEPC~1\AppData\Local\Temp\ccp152bc.s 			page 394


 18563              	.LASF39:
 18564 06e7 70726573 		.ascii	"presetType\000"
 18564      65745479 
 18564      706500
 18565              	.LASF97:
 18566 06f2 44495350 		.ascii	"DISPLAY_BAJE_MANIJA\000"
 18566      4C41595F 
 18566      42414A45 
 18566      5F4D414E 
 18566      494A4100 
 18567              	.LASF293:
 18568 0706 67657454 		.ascii	"getTotals\000"
 18568      6F74616C 
 18568      7300
 18569              	.LASF63:
 18570 0710 666C6167 		.ascii	"flagChangePPU\000"
 18570      4368616E 
 18570      67655050 
 18570      5500
 18571              	.LASF287:
 18572 071e 6765745F 		.ascii	"get_position\000"
 18572      706F7369 
 18572      74696F6E 
 18572      00
 18573              	.LASF229:
 18574 072b 73697A65 		.ascii	"sizeSendA\000"
 18574      53656E64 
 18574      4100
 18575              	.LASF230:
 18576 0735 73697A65 		.ascii	"sizeSendB\000"
 18576      53656E64 
 18576      4200
 18577              	.LASF46:
 18578 073f 746F7461 		.ascii	"totalVolumePrevious\000"
 18578      6C566F6C 
 18578      756D6550 
 18578      72657669 
 18578      6F757300 
 18579              	.LASF117:
 18580 0753 44495350 		.ascii	"DISPLAY_SELECCIONE_POSICION\000"
 18580      4C41595F 
 18580      53454C45 
 18580      4343494F 
 18580      4E455F50 
 18581              	.LASF90:
 18582 076f 44495350 		.ascii	"DISPLAY_FORMA_PROGRAMACION\000"
 18582      4C41595F 
 18582      464F524D 
 18582      415F5052 
 18582      4F475241 
 18583              	.LASF163:
 18584 078a 53746F72 		.ascii	"StoreConfiguration\000"
 18584      65436F6E 
 18584      66696775 
 18584      72617469 
 18584      6F6E00
 18585              	.LASF83:
ARM GAS  C:\Users\RECEPC~1\AppData\Local\Temp\ccp152bc.s 			page 395


 18586 079d 52467374 		.ascii	"RFstateReport\000"
 18586      61746552 
 18586      65706F72 
 18586      7400
 18587              	.LASF71:
 18588 07ab 70707541 		.ascii	"ppuAuthorized\000"
 18588      7574686F 
 18588      72697A65 
 18588      6400
 18589              	.LASF299:
 18590 07b9 616C7068 		.ascii	"alphanumeric_keyboard\000"
 18590      616E756D 
 18590      65726963 
 18590      5F6B6579 
 18590      626F6172 
 18591              	.LASF242:
 18592 07cf 5072696E 		.ascii	"PrinterType\000"
 18592      74657254 
 18592      79706500 
 18593              	.LASF259:
 18594 07db 456E6361 		.ascii	"Encabezado1\000"
 18594      62657A61 
 18594      646F3100 
 18595              	.LASF260:
 18596 07e7 456E6361 		.ascii	"Encabezado2\000"
 18596      62657A61 
 18596      646F3200 
 18597              	.LASF261:
 18598 07f3 456E6361 		.ascii	"Encabezado3\000"
 18598      62657A61 
 18598      646F3300 
 18599              	.LASF262:
 18600 07ff 456E6361 		.ascii	"Encabezado4\000"
 18600      62657A61 
 18600      646F3400 
 18601              	.LASF68:
 18602 080b 62756666 		.ascii	"buffer\000"
 18602      657200
 18603              	.LASF87:
 18604 0812 44495350 		.ascii	"DISPLAY_INICIO1\000"
 18604      4C41595F 
 18604      494E4943 
 18604      494F3100 
 18605              	.LASF88:
 18606 0822 44495350 		.ascii	"DISPLAY_INICIO2\000"
 18606      4C41595F 
 18606      494E4943 
 18606      494F3200 
 18607              	.LASF165:
 18608 0832 496E6974 		.ascii	"InitDisplay1\000"
 18608      44697370 
 18608      6C617931 
 18608      00
 18609              	.LASF175:
 18610 083f 496E6974 		.ascii	"InitDisplay2\000"
 18610      44697370 
 18610      6C617932 
ARM GAS  C:\Users\RECEPC~1\AppData\Local\Temp\ccp152bc.s 			page 396


 18610      00
 18611              	.LASF254:
 18612 084c 62756666 		.ascii	"buffer_rf\000"
 18612      65725F72 
 18612      6600
 18613              	.LASF131:
 18614 0856 44495350 		.ascii	"DISPLAY_USUARIO_INVALIDO\000"
 18614      4C41595F 
 18614      55535541 
 18614      52494F5F 
 18614      494E5641 
 18615              	.LASF321:
 18616 086f 43795764 		.ascii	"CyWdtClear\000"
 18616      74436C65 
 18616      617200
 18617              	.LASF263:
 18618 087a 436F7069 		.ascii	"CopiasCredito\000"
 18618      61734372 
 18618      65646974 
 18618      6F00
 18619              	.LASF236:
 18620 0888 44444D6F 		.ascii	"DDMode\000"
 18620      646500
 18621              	.LASF8:
 18622 088f 6C6F6E67 		.ascii	"long unsigned int\000"
 18622      20756E73 
 18622      69676E65 
 18622      6420696E 
 18622      7400
 18623              	.LASF136:
 18624 08a1 44495350 		.ascii	"DISPLAY_DUMMY0\000"
 18624      4C41595F 
 18624      44554D4D 
 18624      593000
 18625              	.LASF137:
 18626 08b0 44495350 		.ascii	"DISPLAY_DUMMY1\000"
 18626      4C41595F 
 18626      44554D4D 
 18626      593100
 18627              	.LASF138:
 18628 08bf 44495350 		.ascii	"DISPLAY_DUMMY2\000"
 18628      4C41595F 
 18628      44554D4D 
 18628      593200
 18629              	.LASF139:
 18630 08ce 44495350 		.ascii	"DISPLAY_DUMMY3\000"
 18630      4C41595F 
 18630      44554D4D 
 18630      593300
 18631              	.LASF116:
 18632 08dd 44495350 		.ascii	"DISPLAY_IMPRIMIENDO_RECIBO\000"
 18632      4C41595F 
 18632      494D5052 
 18632      494D4945 
 18632      4E444F5F 
 18633              	.LASF176:
 18634 08f8 496E6974 		.ascii	"InitPump\000"
ARM GAS  C:\Users\RECEPC~1\AppData\Local\Temp\ccp152bc.s 			page 397


 18634      50756D70 
 18634      00
 18635              	.LASF75:
 18636 0901 70726F64 		.ascii	"productSale\000"
 18636      75637453 
 18636      616C6500 
 18637              	.LASF50:
 18638 090d 746F7461 		.ascii	"totalPPUAfter\000"
 18638      6C505055 
 18638      41667465 
 18638      7200
 18639              	.LASF30:
 18640 091b 73656C65 		.ascii	"selectedSale\000"
 18640      63746564 
 18640      53616C65 
 18640      00
 18641              	.LASF58:
 18642 0928 6D6F6E65 		.ascii	"moneyQuota\000"
 18642      7951756F 
 18642      746100
 18643              	.LASF32:
 18644 0933 73657269 		.ascii	"serialSelectedSale\000"
 18644      616C5365 
 18644      6C656374 
 18644      65645361 
 18644      6C6500
 18645              	.LASF60:
 18646 0946 70707551 		.ascii	"ppuQuota\000"
 18646      756F7461 
 18646      00
 18647              	.LASF180:
 18648 094f 616E696D 		.ascii	"animacion\000"
 18648      6163696F 
 18648      6E00
 18649              	.LASF255:
 18650 0959 62756666 		.ascii	"buffer_tx\000"
 18650      65725F74 
 18650      7800
 18651              	.LASF300:
 18652 0963 6973725F 		.ascii	"isr_3_StartEx\000"
 18652      335F5374 
 18652      61727445 
 18652      7800
 18653              	.LASF252:
 18654 0971 7072696E 		.ascii	"printPortA\000"
 18654      74506F72 
 18654      744100
 18655              	.LASF266:
 18656 097c 62756666 		.ascii	"bufferDisplay2\000"
 18656      65724469 
 18656      73706C61 
 18656      793200
 18657              	.LASF267:
 18658 098b 62756666 		.ascii	"bufferDisplay3\000"
 18658      65724469 
 18658      73706C61 
 18658      793300
ARM GAS  C:\Users\RECEPC~1\AppData\Local\Temp\ccp152bc.s 			page 398


 18659              	.LASF268:
 18660 099a 62756666 		.ascii	"bufferDisplay4\000"
 18660      65724469 
 18660      73706C61 
 18660      793400
 18661              	.LASF103:
 18662 09a9 44495350 		.ascii	"DISPLAY_NUEVO_PASSWORD\000"
 18662      4C41595F 
 18662      4E554556 
 18662      4F5F5041 
 18662      5353574F 
 18663              	.LASF109:
 18664 09c0 44495350 		.ascii	"DISPLAY_ID_RECONOCIDO\000"
 18664      4C41595F 
 18664      49445F52 
 18664      45434F4E 
 18664      4F434944 
 18665              	.LASF220:
 18666 09d6 506C6174 		.ascii	"PlateRequest\000"
 18666      65526571 
 18666      75657374 
 18666      00
 18667              	.LASF133:
 18668 09e3 44495350 		.ascii	"DISPLAY_IMPRESORA_NO_FUNCIONANDO\000"
 18668      4C41595F 
 18668      494D5052 
 18668      45534F52 
 18668      415F4E4F 
 18669              	.LASF305:
 18670 0a04 67657453 		.ascii	"getSale\000"
 18670      616C6500 
 18671              	.LASF215:
 18672 0a0c 74797065 		.ascii	"typeIdSeller\000"
 18672      49645365 
 18672      6C6C6572 
 18672      00
 18673              	.LASF312:
 18674 0a19 6C656572 		.ascii	"leer_hora\000"
 18674      5F686F72 
 18674      6100
 18675              	.LASF9:
 18676 0a23 6C6F6E67 		.ascii	"long long int\000"
 18676      206C6F6E 
 18676      6720696E 
 18676      7400
 18677              	.LASF121:
 18678 0a31 44495350 		.ascii	"DISPLAY_AUTORIZACION_ACEPTADA\000"
 18678      4C41595F 
 18678      4155544F 
 18678      52495A41 
 18678      43494F4E 
 18679              	.LASF99:
 18680 0a4f 44495350 		.ascii	"DISPLAY_DESEA_IMPRIMIR_RECIBO\000"
 18680      4C41595F 
 18680      44455345 
 18680      415F494D 
 18680      5052494D 
ARM GAS  C:\Users\RECEPC~1\AppData\Local\Temp\ccp152bc.s 			page 399


 18681              	.LASF105:
 18682 0a6d 44495350 		.ascii	"DISPLAY_GRACIAS_VUELVA_PRONTO\000"
 18682      4C41595F 
 18682      47524143 
 18682      4941535F 
 18682      5655454C 
 18683              	.LASF154:
 18684 0a8b 52465F44 		.ascii	"RF_DELIVERING\000"
 18684      454C4956 
 18684      4552494E 
 18684      4700
 18685              	.LASF166:
 18686 0a99 696E6954 		.ascii	"iniText\000"
 18686      65787400 
 18687              	.LASF206:
 18688 0aa1 70707578 		.ascii	"ppux10\000"
 18688      313000
 18689              	.LASF19:
 18690 0aa8 646F7562 		.ascii	"double\000"
 18690      6C6500
 18691              	.LASF101:
 18692 0aaf 44495350 		.ascii	"DISPLAY_PASSWORD_VALIDO\000"
 18692      4C41595F 
 18692      50415353 
 18692      574F5244 
 18692      5F56414C 
 18693              	.LASF213:
 18694 0ac7 72657369 		.ascii	"residue\000"
 18694      64756500 
 18695              	.LASF93:
 18696 0acf 44495350 		.ascii	"DISPLAY_SELECCIONE_PRODUCTO3\000"
 18696      4C41595F 
 18696      53454C45 
 18696      4343494F 
 18696      4E455F50 
 18697              	.LASF94:
 18698 0aec 44495350 		.ascii	"DISPLAY_SELECCIONE_PRODUCTO4\000"
 18698      4C41595F 
 18698      53454C45 
 18698      4343494F 
 18698      4E455F50 
 18699              	.LASF102:
 18700 0b09 44495350 		.ascii	"DISPLAY_PASSWORD_INVALIDO\000"
 18700      4C41595F 
 18700      50415353 
 18700      574F5244 
 18700      5F494E56 
 18701              	.LASF308:
 18702 0b23 746F7563 		.ascii	"touch_write\000"
 18702      685F7772 
 18702      69746500 
 18703              	.LASF188:
 18704 0b2f 49544D5F 		.ascii	"ITM_RxBuffer\000"
 18704      52784275 
 18704      66666572 
 18704      00
 18705              	.LASF217:
ARM GAS  C:\Users\RECEPC~1\AppData\Local\Temp\ccp152bc.s 			page 400


 18706 0b3c 666C6167 		.ascii	"flagResetMux\000"
 18706      52657365 
 18706      744D7578 
 18706      00
 18707              	.LASF146:
 18708 0b49 50554D50 		.ascii	"PUMP_CALLING\000"
 18708      5F43414C 
 18708      4C494E47 
 18708      00
 18709              	.LASF18:
 18710 0b56 666C6F61 		.ascii	"float\000"
 18710      7400
 18711              	.LASF73:
 18712 0b5c 766F6C75 		.ascii	"volumeSale\000"
 18712      6D655361 
 18712      6C6500
 18713              	.LASF233:
 18714 0b67 4D6F6E65 		.ascii	"MoneyDec\000"
 18714      79446563 
 18714      00
 18715              	.LASF66:
 18716 0b70 73686966 		.ascii	"shiftId\000"
 18716      74496400 
 18717              	.LASF11:
 18718 0b78 756E7369 		.ascii	"unsigned int\000"
 18718      676E6564 
 18718      20696E74 
 18718      00
 18719              	.LASF107:
 18720 0b85 44495350 		.ascii	"DISPLAY_ID_NO_RECONOCIDO\000"
 18720      4C41595F 
 18720      49445F4E 
 18720      4F5F5245 
 18720      434F4E4F 
 18721              	.LASF204:
 18722 0b9e 64656C61 		.ascii	"delayPicture1\000"
 18722      79506963 
 18722      74757265 
 18722      3100
 18723              	.LASF205:
 18724 0bac 64656C61 		.ascii	"delayPicture2\000"
 18724      79506963 
 18724      74757265 
 18724      3200
 18725              	.LASF69:
 18726 0bba 706F7369 		.ascii	"position\000"
 18726      74696F6E 
 18726      00
 18727              	.LASF98:
 18728 0bc3 44495350 		.ascii	"DISPLAY_DIGITE_PLACA\000"
 18728      4C41595F 
 18728      44494749 
 18728      54455F50 
 18728      4C414341 
 18729              	.LASF38:
 18730 0bd8 73616C65 		.ascii	"salePerform\000"
 18730      50657266 
ARM GAS  C:\Users\RECEPC~1\AppData\Local\Temp\ccp152bc.s 			page 401


 18730      6F726D00 
 18731              	.LASF23:
 18732 0be4 63797374 		.ascii	"cystatus\000"
 18732      61747573 
 18732      00
 18733              	.LASF256:
 18734 0bed 62756666 		.ascii	"buffer_txPreset\000"
 18734      65725F74 
 18734      78507265 
 18734      73657400 
 18735              	.LASF291:
 18736 0bfd 50756D70 		.ascii	"PumpCompleteConfiguration\000"
 18736      436F6D70 
 18736      6C657465 
 18736      436F6E66 
 18736      69677572 
 18737              	.LASF40:
 18738 0c17 70726573 		.ascii	"presetValue\000"
 18738      65745661 
 18738      6C756500 
 18739              	.LASF33:
 18740 0c23 6B657962 		.ascii	"keyboardWayToPay\000"
 18740      6F617264 
 18740      57617954 
 18740      6F506179 
 18740      00
 18741              	.LASF156:
 18742 0c34 52465F43 		.ascii	"RF_CREDITSALEAUTH\000"
 18742      52454449 
 18742      5453414C 
 18742      45415554 
 18742      4800
 18743              	.LASF48:
 18744 0c46 746F7461 		.ascii	"totalMoneyAfter\000"
 18744      6C4D6F6E 
 18744      65794166 
 18744      74657200 
 18745              	.LASF159:
 18746 0c56 52465F45 		.ascii	"RF_ERROR\000"
 18746      52524F52 
 18746      00
 18747              	.LASF235:
 18748 0c5f 50505544 		.ascii	"PPUDec\000"
 18748      656300
 18749              	.LASF270:
 18750 0c66 4D757856 		.ascii	"MuxVersion\000"
 18750      65727369 
 18750      6F6E00
 18751              	.LASF155:
 18752 0c71 52465F43 		.ascii	"RF_CASHSALEREPORT\000"
 18752      41534853 
 18752      414C4552 
 18752      45504F52 
 18752      5400
 18753              	.LASF140:
 18754 0c83 44495350 		.ascii	"DISPLAY_SIDE_DUMMY_DISPLAY\000"
 18754      4C41595F 
ARM GAS  C:\Users\RECEPC~1\AppData\Local\Temp\ccp152bc.s 			page 402


 18754      53494445 
 18754      5F44554D 
 18754      4D595F44 
 18755              	.LASF307:
 18756 0c9e 746F7563 		.ascii	"touch_present\000"
 18756      685F7072 
 18756      6573656E 
 18756      7400
 18757              	.LASF123:
 18758 0cac 44495350 		.ascii	"DISPLAY_CONFIGURAR_FECHA_HORA\000"
 18758      4C41595F 
 18758      434F4E46 
 18758      49475552 
 18758      41525F46 
 18759              	.LASF148:
 18760 0cca 50554D50 		.ascii	"PUMP_BUSY\000"
 18760      5F425553 
 18760      5900
 18761              	.LASF296:
 18762 0cd4 44697370 		.ascii	"Display1_GetRxBufferSize\000"
 18762      6C617931 
 18762      5F476574 
 18762      52784275 
 18762      66666572 
 18763              	.LASF44:
 18764 0ced 74696D65 		.ascii	"timeLiftHandle\000"
 18764      4C696674 
 18764      48616E64 
 18764      6C6500
 18765              	.LASF43:
 18766 0cfc 64617465 		.ascii	"dateLiftHandle\000"
 18766      4C696674 
 18766      48616E64 
 18766      6C6500
 18767              	.LASF144:
 18768 0d0b 50554D50 		.ascii	"PUMP_FAIL\000"
 18768      5F464149 
 18768      4C00
 18769              	.LASF172:
 18770 0d15 44697370 		.ascii	"DisplayMode\000"
 18770      6C61794D 
 18770      6F646500 
 18771              	.LASF250:
 18772 0d21 69645374 		.ascii	"idStation\000"
 18772      6174696F 
 18772      6E00
 18773              	.LASF118:
 18774 0d2b 44495350 		.ascii	"DISPLAY_OPERACION_CANCELADA\000"
 18774      4C41595F 
 18774      4F504552 
 18774      4143494F 
 18774      4E5F4341 
 18775              	.LASF113:
 18776 0d47 44495350 		.ascii	"DISPLAY_OPERACIONES\000"
 18776      4C41595F 
 18776      4F504552 
 18776      4143494F 
ARM GAS  C:\Users\RECEPC~1\AppData\Local\Temp\ccp152bc.s 			page 403


 18776      4E455300 
 18777              	.LASF150:
 18778 0d5b 50554D50 		.ascii	"PUMP_FEOT\000"
 18778      5F46454F 
 18778      5400
 18779              	.LASF36:
 18780 0d65 76656869 		.ascii	"vehicleType\000"
 18780      636C6554 
 18780      79706500 
 18781              	.LASF167:
 18782 0d71 556E6974 		.ascii	"Unit\000"
 18782      00
 18783              	.LASF86:
 18784 0d76 44495350 		.ascii	"DISPLAY_INICIO0\000"
 18784      4C41595F 
 18784      494E4943 
 18784      494F3000 
 18785              	.LASF24:
 18786 0d86 63796973 		.ascii	"cyisraddress\000"
 18786      72616464 
 18786      72657373 
 18786      00
 18787              	.LASF232:
 18788 0d93 436F6E76 		.ascii	"ConversionFactor\000"
 18788      65727369 
 18788      6F6E4661 
 18788      63746F72 
 18788      00
 18789              	.LASF108:
 18790 0da4 44495350 		.ascii	"DISPLAY_ESPERANDO_ID\000"
 18790      4C41595F 
 18790      45535045 
 18790      52414E44 
 18790      4F5F4944 
 18791              	.LASF78:
 18792 0db9 686F7365 		.ascii	"hoseNumber\000"
 18792      4E756D62 
 18792      657200
 18793              	.LASF279:
 18794 0dc4 57616974 		.ascii	"Waitable_3_Start\000"
 18794      61626C65 
 18794      5F335F53 
 18794      74617274 
 18794      00
 18795              	.LASF89:
 18796 0dd5 44495350 		.ascii	"DISPLAY_FORMA_PAGO_DESEADA\000"
 18796      4C41595F 
 18796      464F524D 
 18796      415F5041 
 18796      474F5F44 
 18797              	.LASF10:
 18798 0df0 6C6F6E67 		.ascii	"long long unsigned int\000"
 18798      206C6F6E 
 18798      6720756E 
 18798      7369676E 
 18798      65642069 
 18799              	.LASF275:
ARM GAS  C:\Users\RECEPC~1\AppData\Local\Temp\ccp152bc.s 			page 404


 18800 0e07 44697370 		.ascii	"Display2_Start\000"
 18800      6C617932 
 18800      5F537461 
 18800      727400
 18801              	.LASF320:
 18802 0e16 43795764 		.ascii	"CyWdtStart\000"
 18802      74537461 
 18802      727400
 18803              	.LASF13:
 18804 0e21 75696E74 		.ascii	"uint16_t\000"
 18804      31365F74 
 18804      00
 18805              	.LASF49:
 18806 0e2a 746F7461 		.ascii	"totalVolumeAfter\000"
 18806      6C566F6C 
 18806      756D6541 
 18806      66746572 
 18806      00
 18807              	.LASF282:
 18808 0e3b 45455052 		.ascii	"EEPROM_1_ReadByte\000"
 18808      4F4D5F31 
 18808      5F526561 
 18808      64427974 
 18808      6500
 18809              	.LASF203:
 18810 0e4d 70726F64 		.ascii	"productNumber\000"
 18810      7563744E 
 18810      756D6265 
 18810      7200
 18811              	.LASF149:
 18812 0e5b 50554D50 		.ascii	"PUMP_PEOT\000"
 18812      5F50454F 
 18812      5400
 18813              	.LASF271:
 18814 0e65 70617373 		.ascii	"passwordPump\000"
 18814      776F7264 
 18814      50756D70 
 18814      00
 18815              	.LASF241:
 18816 0e72 68696464 		.ascii	"hiddenKeys\000"
 18816      656E4B65 
 18816      797300
 18817              	.LASF64:
 18818 0e7d 666C6167 		.ascii	"flagPrint\000"
 18818      5072696E 
 18818      7400
 18819              	.LASF201:
 18820 0e87 666C6167 		.ascii	"flagPoint1\000"
 18820      506F696E 
 18820      743100
 18821              	.LASF202:
 18822 0e92 666C6167 		.ascii	"flagPoint2\000"
 18822      506F696E 
 18822      743200
 18823              	.LASF325:
 18824 0e9d 433A5C55 		.ascii	"C:\\Users\\Recepcion\\Documents\\GitHub\\NSY-DH\\Wo"
 18824      73657273 
ARM GAS  C:\Users\RECEPC~1\AppData\Local\Temp\ccp152bc.s 			page 405


 18824      5C526563 
 18824      65706369 
 18824      6F6E5C44 
 18825 0eca 726B7370 		.ascii	"rkspace01\\Design01.cydsn\000"
 18825      61636530 
 18825      315C4465 
 18825      7369676E 
 18825      30312E63 
 18826              	.LASF280:
 18827 0ee3 57616974 		.ascii	"Waitable_4_Start\000"
 18827      61626C65 
 18827      5F345F53 
 18827      74617274 
 18827      00
 18828              	.LASF257:
 18829 0ef4 62756666 		.ascii	"buffer_txEOT\000"
 18829      65725F74 
 18829      78454F54 
 18829      00
 18830              	.LASF221:
 18831 0f01 49444361 		.ascii	"IDCast\000"
 18831      737400
 18832              	.LASF210:
 18833 0f08 74696D65 		.ascii	"time\000"
 18833      00
 18834              	.LASF314:
 18835 0f0d 6973725F 		.ascii	"isr_4_Stop\000"
 18835      345F5374 
 18835      6F7000
 18836              	.LASF96:
 18837 0f18 44495350 		.ascii	"DISPLAY_DESPACHANDO\000"
 18837      4C41595F 
 18837      44455350 
 18837      41434841 
 18837      4E444F00 
 18838              	.LASF124:
 18839 0f2c 44495350 		.ascii	"DISPLAY_HORA\000"
 18839      4C41595F 
 18839      484F5241 
 18839      00
 18840              	.LASF234:
 18841 0f39 566F6C44 		.ascii	"VolDec\000"
 18841      656300
 18842              	.LASF160:
 18843 0f40 52465F43 		.ascii	"RF_COPY_RECEIPT\000"
 18843      4F50595F 
 18843      52454345 
 18843      49505400 
 18844              	.LASF111:
 18845 0f50 44495350 		.ascii	"DISPLAY_INTRODUZCA_VOLUMEN\000"
 18845      4C41595F 
 18845      494E5452 
 18845      4F44555A 
 18845      43415F56 
 18846              	.LASF34:
 18847 0f6b 61757468 		.ascii	"authorizationFlag\000"
 18847      6F72697A 
ARM GAS  C:\Users\RECEPC~1\AppData\Local\Temp\ccp152bc.s 			page 406


 18847      6174696F 
 18847      6E466C61 
 18847      6700
 18848              	.LASF319:
 18849 0f7d 54696D65 		.ascii	"Timer_Animacion2_ReadStatusRegister\000"
 18849      725F416E 
 18849      696D6163 
 18849      696F6E32 
 18849      5F526561 
 18850              	.LASF77:
 18851 0fa1 686F7365 		.ascii	"hose\000"
 18851      00
 18852              	.LASF129:
 18853 0fa6 44495350 		.ascii	"DISPLAY_CANCELADO_X_PC\000"
 18853      4C41595F 
 18853      43414E43 
 18853      454C4144 
 18853      4F5F585F 
 18854              	.LASF225:
 18855 0fbd 74656D70 		.ascii	"tempPreset\000"
 18855      50726573 
 18855      657400
 18856              	.LASF15:
 18857 0fc8 75696E74 		.ascii	"uint8\000"
 18857      3800
 18858              	.LASF292:
 18859 0fce 77726974 		.ascii	"write_psoc1\000"
 18859      655F7073 
 18859      6F633100 
 18860              	.LASF284:
 18861 0fda 53686F77 		.ascii	"ShowMessage\000"
 18861      4D657373 
 18861      61676500 
 18862              	.LASF2:
 18863 0fe6 73686F72 		.ascii	"short int\000"
 18863      7420696E 
 18863      7400
 18864              	.LASF135:
 18865 0ff0 44495350 		.ascii	"DISPLAY_PRECIO_POR_UNIDAD\000"
 18865      4C41595F 
 18865      50524543 
 18865      494F5F50 
 18865      4F525F55 
 18866              	.LASF318:
 18867 100a 44697370 		.ascii	"Display2_ClearRxBuffer\000"
 18867      6C617932 
 18867      5F436C65 
 18867      61725278 
 18867      42756666 
 18868              	.LASF141:
 18869 1021 44495350 		.ascii	"DISPLAY_NULL\000"
 18869      4C41595F 
 18869      4E554C4C 
 18869      00
 18870              	.LASF243:
 18871 102e 566F6C55 		.ascii	"VolUnit\000"
 18871      6E697400 
ARM GAS  C:\Users\RECEPC~1\AppData\Local\Temp\ccp152bc.s 			page 407


 18872              	.LASF322:
 18873 1036 706F6C6C 		.ascii	"pollingRF_Rx\000"
 18873      696E6752 
 18873      465F5278 
 18873      00
 18874              	.LASF76:
 18875 1043 61637469 		.ascii	"activeHose\000"
 18875      7665486F 
 18875      736500
 18876              	.LASF313:
 18877 104e 6C656572 		.ascii	"leer_fecha\000"
 18877      5F666563 
 18877      686100
 18878              	.LASF226:
 18879 1059 74656D70 		.ascii	"tempPPU\000"
 18879      50505500 
 18880              	.LASF273:
 18881 1061 50756D70 		.ascii	"Pump_Start\000"
 18881      5F537461 
 18881      727400
 18882              	.LASF53:
 18883 106c 6964656E 		.ascii	"identySale\000"
 18883      74795361 
 18883      6C6500
 18884              	.LASF214:
 18885 1077 69645365 		.ascii	"idSeller\000"
 18885      6C6C6572 
 18885      00
 18886              	.LASF187:
 18887 1080 44697370 		.ascii	"Display2_rxBuffer\000"
 18887      6C617932 
 18887      5F727842 
 18887      75666665 
 18887      7200
 18888              	.LASF74:
 18889 1092 70707553 		.ascii	"ppuSale\000"
 18889      616C6500 
 18890              	.LASF110:
 18891 109a 44495350 		.ascii	"DISPLAY_INTRODUZCA_CEDULA\000"
 18891      4C41595F 
 18891      494E5452 
 18891      4F44555A 
 18891      43415F43 
 18892              	.LASF84:
 18893 10b4 70756D70 		.ascii	"pump\000"
 18893      00
 18894              	.LASF248:
 18895 10b9 636F6E66 		.ascii	"configAccess\000"
 18895      69674163 
 18895      63657373 
 18895      00
 18896              	.LASF278:
 18897 10c6 52465F43 		.ascii	"RF_Connection_Start\000"
 18897      6F6E6E65 
 18897      6374696F 
 18897      6E5F5374 
 18897      61727400 
ARM GAS  C:\Users\RECEPC~1\AppData\Local\Temp\ccp152bc.s 			page 408


 18898              	.LASF246:
 18899 10da 636F756E 		.ascii	"count_protector\000"
 18899      745F7072 
 18899      6F746563 
 18899      746F7200 
 18900              	.LASF251:
 18901 10ea 70756D70 		.ascii	"pumpGap\000"
 18901      47617000 
 18902              	.LASF191:
 18903 10f2 636F756E 		.ascii	"countRX\000"
 18903      74525800 
 18904              	.LASF145:
 18905 10fa 50554D50 		.ascii	"PUMP_IDLE\000"
 18905      5F49444C 
 18905      4500
 18906              	.LASF171:
 18907 1104 44697370 		.ascii	"DisplayMode0\000"
 18907      6C61794D 
 18907      6F646530 
 18907      00
 18908              	.LASF52:
 18909 1111 6D696C65 		.ascii	"mileageSale\000"
 18909      61676553 
 18909      616C6500 
 18910              	.LASF173:
 18911 111d 44697370 		.ascii	"DisplayMode2\000"
 18911      6C61794D 
 18911      6F646532 
 18911      00
 18912              	.LASF174:
 18913 112a 44697370 		.ascii	"DisplayMode3\000"
 18913      6C61794D 
 18913      6F646533 
 18913      00
 18914              	.LASF281:
 18915 1137 45455052 		.ascii	"EEPROM_1_WriteByte\000"
 18915      4F4D5F31 
 18915      5F577269 
 18915      74654279 
 18915      746500
 18916              	.LASF47:
 18917 114a 746F7461 		.ascii	"totalPPUPrevious\000"
 18917      6C505055 
 18917      50726576 
 18917      696F7573 
 18917      00
 18918              	.LASF126:
 18919 115b 44495350 		.ascii	"DISPLAY_OPCION_TURNO\000"
 18919      4C41595F 
 18919      4F504349 
 18919      4F4E5F54 
 18919      55524E4F 
 18920              	.LASF72:
 18921 1170 6D6F6E65 		.ascii	"moneySale\000"
 18921      7953616C 
 18921      6500
 18922              	.LASF245:
ARM GAS  C:\Users\RECEPC~1\AppData\Local\Temp\ccp152bc.s 			page 409


 18923 117a 74696D65 		.ascii	"timeDownHandle\000"
 18923      446F776E 
 18923      48616E64 
 18923      6C6500
 18924              	.LASF41:
 18925 1189 70726F64 		.ascii	"productType\000"
 18925      75637454 
 18925      79706500 
 18926              	.LASF28:
 18927 1195 77617954 		.ascii	"wayToPay\000"
 18927      6F506179 
 18927      00
 18928              	.LASF244:
 18929 119e 64617465 		.ascii	"dateDownHandle\000"
 18929      446F776E 
 18929      48616E64 
 18929      6C6500
 18930              	.LASF277:
 18931 11ad 4932435F 		.ascii	"I2C_Bus_Start\000"
 18931      4275735F 
 18931      53746172 
 18931      7400
 18932              	.LASF285:
 18933 11bb 43794465 		.ascii	"CyDelay\000"
 18933      6C617900 
 18934              	.LASF247:
 18935 11c3 636F756E 		.ascii	"count_protector2\000"
 18935      745F7072 
 18935      6F746563 
 18935      746F7232 
 18935      00
 18936              	.LASF324:
 18937 11d4 2E5C6D61 		.ascii	".\\main.c\000"
 18937      696E2E63 
 18937      00
 18938              	.LASF317:
 18939 11dd 44697370 		.ascii	"Display2_GetRxBufferSize\000"
 18939      6C617932 
 18939      5F476574 
 18939      52784275 
 18939      66666572 
 18940              	.LASF192:
 18941 11f6 636F756E 		.ascii	"countTX\000"
 18941      74545800 
 18942              	.LASF5:
 18943 11fe 73686F72 		.ascii	"short unsigned int\000"
 18943      7420756E 
 18943      7369676E 
 18943      65642069 
 18943      6E7400
 18944              	.LASF303:
 18945 1211 50726573 		.ascii	"PresetData\000"
 18945      65744461 
 18945      746100
 18946              	.LASF143:
 18947 121c 5F50554D 		.ascii	"_PUMP_STATES_\000"
 18947      505F5354 
ARM GAS  C:\Users\RECEPC~1\AppData\Local\Temp\ccp152bc.s 			page 410


 18947      41544553 
 18947      5F00
 18948              	.LASF6:
 18949 122a 5F5F696E 		.ascii	"__int32_t\000"
 18949      7433325F 
 18949      7400
 18950              	.LASF147:
 18951 1234 50554D50 		.ascii	"PUMP_AUTHORIZED\000"
 18951      5F415554 
 18951      484F5249 
 18951      5A454400 
 18952              	.LASF168:
 18953 1244 556E6974 		.ascii	"Unit2\000"
 18953      3200
 18954              	.LASF169:
 18955 124a 556E6974 		.ascii	"Unit3\000"
 18955      3300
 18956              	.LASF170:
 18957 1250 556E6974 		.ascii	"Unit4\000"
 18957      3400
 18958              	.LASF54:
 18959 1256 666C6167 		.ascii	"flagKeyboard\000"
 18959      4B657962 
 18959      6F617264 
 18959      00
 18960              	.LASF283:
 18961 1263 53657450 		.ascii	"SetPicture\000"
 18961      69637475 
 18961      726500
 18962              	.LASF269:
 18963 126e 73696465 		.ascii	"side\000"
 18963      00
 18964              	.LASF61:
 18965 1273 70726963 		.ascii	"priceConsign\000"
 18965      65436F6E 
 18965      7369676E 
 18965      00
 18966              	.LASF151:
 18967 1280 50554D50 		.ascii	"PUMP_STOPPED\000"
 18967      5F53544F 
 18967      50504544 
 18967      00
 18968              	.LASF222:
 18969 128d 41637469 		.ascii	"ActiveRF\000"
 18969      76655246 
 18969      00
 18970              	.LASF81:
 18971 1296 6368616E 		.ascii	"changePPU\000"
 18971      67655050 
 18971      5500
 18972              	.LASF177:
 18973 12a0 5072696E 		.ascii	"PrintTest\000"
 18973      74546573 
 18973      7400
 18974              	.LASF228:
 18975 12aa 53686966 		.ascii	"ShiftState\000"
 18975      74537461 
ARM GAS  C:\Users\RECEPC~1\AppData\Local\Temp\ccp152bc.s 			page 411


 18975      746500
 18976              	.LASF16:
 18977 12b5 75696E74 		.ascii	"uint16\000"
 18977      313600
 18978              	.LASF274:
 18979 12bc 44697370 		.ascii	"Display1_Start\000"
 18979      6C617931 
 18979      5F537461 
 18979      727400
 18980              	.LASF219:
 18981 12cb 50726576 		.ascii	"PrevStatePump\000"
 18981      53746174 
 18981      6550756D 
 18981      7000
 18982              	.LASF122:
 18983 12d9 44495350 		.ascii	"DISPLAY_AUTORIZACION_RECHAZADA\000"
 18983      4C41595F 
 18983      4155544F 
 18983      52495A41 
 18983      43494F4E 
 18984              		.ident	"GCC: (GNU Tools for ARM Embedded Processors) 4.9.3 20150303 (release) [ARM/embedded-4_9-br
