ARM GAS  C:\Users\Diego\AppData\Local\Temp\cctVJSXF.s 			page 1


   1              		.syntax unified
   2              		.cpu cortex-m3
   3              		.fpu softvfp
   4              		.eabi_attribute 20, 1
   5              		.eabi_attribute 21, 1
   6              		.eabi_attribute 23, 3
   7              		.eabi_attribute 24, 1
   8              		.eabi_attribute 25, 1
   9              		.eabi_attribute 26, 1
  10              		.eabi_attribute 30, 1
  11              		.eabi_attribute 34, 1
  12              		.eabi_attribute 18, 4
  13              		.thumb
  14              		.file	"main.c"
  15              		.text
  16              	.Ltext0:
  17              		.cfi_sections	.debug_frame
  18              		.section	.text.animacion,"ax",%progbits
  19              		.align	2
  20              		.global	animacion
  21              		.thumb
  22              		.thumb_func
  23              		.type	animacion, %function
  24              	animacion:
  25              	.LFB73:
  26              		.file 1 ".\\main.c"
   1:.\main.c      **** /* ========================================
   2:.\main.c      ****  *
   3:.\main.c      ****  * Copyright YOUR COMPANY, THE YEAR
   4:.\main.c      ****  * All Rights Reserved
   5:.\main.c      ****  * UNPUBLISHED, LICENSED SOFTWARE.
   6:.\main.c      ****  *
   7:.\main.c      ****  * CONFIDENTIAL AND PROPRIETARY INFORMATION
   8:.\main.c      ****  * WHICH IS THE PROPERTY OF your company.
   9:.\main.c      ****  *
  10:.\main.c      ****  * ========================================
  11:.\main.c      **** */
  12:.\main.c      **** #include <project.h>
  13:.\main.c      **** #include <protocol.h>
  14:.\main.c      **** #include <variables.h>
  15:.\main.c      **** #include <keyboard.h>
  16:.\main.c      **** #include <ibutton.h>
  17:.\main.c      **** #include <LCD.h>
  18:.\main.c      **** #include <I2C.h>
  19:.\main.c      **** #include <Print.h>
  20:.\main.c      **** #include <device.h>
  21:.\main.c      **** 
  22:.\main.c      **** /**********************************/
  23:.\main.c      **** 
  24:.\main.c      **** uint8 MuxVersion [10] = "MUX V. 1.0";
  25:.\main.c      **** uint8 passwordPump[5] = "00204";  
  26:.\main.c      **** 
  27:.\main.c      ****       
  28:.\main.c      **** CY_ISR(animacion2);
  29:.\main.c      **** CY_ISR(animacion);
  30:.\main.c      **** 
  31:.\main.c      **** void GlobalInitializer()
ARM GAS  C:\Users\Diego\AppData\Local\Temp\cctVJSXF.s 			page 2


  32:.\main.c      **** {
  33:.\main.c      ****     EEPROM_1_Start();
  34:.\main.c      ****     Pump_Start(); 
  35:.\main.c      ****     Display1_Start();
  36:.\main.c      ****     Display2_Start();    
  37:.\main.c      ****     Printer_Start();   
  38:.\main.c      ****     I2C_Bus_Start();
  39:.\main.c      ****     RF_Connection_Start();
  40:.\main.c      **** }
  41:.\main.c      **** void StoreConfiguration(){
  42:.\main.c      ****     EEPROM_1_WriteByte(UnitType,0);
  43:.\main.c      ****     EEPROM_1_WriteByte(ConversionFactor,1);
  44:.\main.c      ****     EEPROM_1_WriteByte(MoneyDec,2);
  45:.\main.c      ****     EEPROM_1_WriteByte(VolDec,3);
  46:.\main.c      ****     EEPROM_1_WriteByte(PPUDec,4);
  47:.\main.c      ****     EEPROM_1_WriteByte(DDMode,5);
  48:.\main.c      ****     EEPROM_1_WriteByte(digits,6);
  49:.\main.c      ****     EEPROM_1_WriteByte(UnitType+1,7);
  50:.\main.c      **** }
  51:.\main.c      **** void loadConfiguration(){
  52:.\main.c      ****     lockTurn = EEPROM_1_ReadByte(8); //Fijo turno abierto para pruebas
  53:.\main.c      **** }
  54:.\main.c      **** /*
  55:.\main.c      **** ***************************************************************************************************
  56:.\main.c      **** *                                         void InitDisplay1(void)
  57:.\main.c      **** *
  58:.\main.c      **** * Description : Pregunta configuraciones al dispensador 
  59:.\main.c      **** *               
  60:.\main.c      **** *
  61:.\main.c      **** ***************************************************************************************************
  62:.\main.c      **** */
  63:.\main.c      **** void InitDisplay1(){      
  64:.\main.c      ****     uint8_t iniText[10]="Iniciando"; 
  65:.\main.c      ****     uint8_t Unit[10] = "S/D/Dupla ";
  66:.\main.c      ****     uint8_t Unit2[10] = "Quadrupla";
  67:.\main.c      ****     uint8_t Unit3[10] = "Sextupla";
  68:.\main.c      ****     uint8_t Unit4[10] = "Octupla";
  69:.\main.c      ****     uint8_t DisplayMode0[10] = "5-5-4     ";
  70:.\main.c      ****     uint8_t DisplayMode[10] = "6-6-4     ";
  71:.\main.c      ****     uint8_t DisplayMode2[10] = "7-7-5     ";
  72:.\main.c      ****     uint8_t DisplayMode3[10] = "8-7-5     ";
  73:.\main.c      ****     if(NumPositions == 2){
  74:.\main.c      ****         SetPicture(1,DISPLAY_INICIO0);         
  75:.\main.c      ****         ShowMessage(1,iniText,0);    
  76:.\main.c      ****         CyDelay(300);
  77:.\main.c      ****         if(UnitType == 0){
  78:.\main.c      ****             side.a.hoseNumber = UnitType+1;
  79:.\main.c      ****             side.b.hoseNumber = UnitType+1;
  80:.\main.c      ****             ShowMessage(1,Unit,0);  //Mostrar tipo de dispensador      
  81:.\main.c      ****         }
  82:.\main.c      ****         if(UnitType == 1){
  83:.\main.c      ****             side.a.hoseNumber = UnitType+1;
  84:.\main.c      ****             side.b.hoseNumber = UnitType+1;
  85:.\main.c      ****             ShowMessage(1,Unit2,0);
  86:.\main.c      ****         }
  87:.\main.c      ****         if(UnitType == 2){
  88:.\main.c      ****             side.a.hoseNumber = UnitType+1;
ARM GAS  C:\Users\Diego\AppData\Local\Temp\cctVJSXF.s 			page 3


  89:.\main.c      ****             side.b.hoseNumber = UnitType+1;
  90:.\main.c      ****             ShowMessage(1,Unit3,0);
  91:.\main.c      ****         }
  92:.\main.c      ****         if(UnitType == 3){
  93:.\main.c      ****             side.a.hoseNumber = UnitType+1;
  94:.\main.c      ****             side.b.hoseNumber = UnitType+1;
  95:.\main.c      ****             ShowMessage(1,Unit4,0);
  96:.\main.c      ****         } 
  97:.\main.c      ****         if(DDMode == 0){
  98:.\main.c      ****             ShowMessage(1,DisplayMode0,22); //Mostrar modo de display
  99:.\main.c      ****             digits = 5;
 100:.\main.c      ****         }
 101:.\main.c      ****         if(DDMode == 1){
 102:.\main.c      ****             ShowMessage(1,DisplayMode,22); //Mostrar modo de display
 103:.\main.c      ****             digits = 6;
 104:.\main.c      ****         }
 105:.\main.c      ****         if(DDMode == 2){
 106:.\main.c      ****            ShowMessage(1,DisplayMode2,22);
 107:.\main.c      ****             digits = 7;
 108:.\main.c      ****         }
 109:.\main.c      ****         if(DDMode == 3){
 110:.\main.c      ****             ShowMessage(1,DisplayMode3,22);
 111:.\main.c      ****             digits = 8;
 112:.\main.c      ****         }        
 113:.\main.c      ****     }
 114:.\main.c      ****     if(NumPositions == 4){
 115:.\main.c      ****         SetPicture(1,DISPLAY_SELECCIONE_POSICION);        
 116:.\main.c      ****         ShowMessage(1,iniText,0);    
 117:.\main.c      ****         CyDelay(300);
 118:.\main.c      ****         if(UnitType == 0){
 119:.\main.c      ****             side.a.hoseNumber = UnitType+1;
 120:.\main.c      ****             side.b.hoseNumber = UnitType+1;
 121:.\main.c      ****             side.c.hoseNumber = UnitType+1;
 122:.\main.c      ****             side.d.hoseNumber = UnitType+1;
 123:.\main.c      ****             ShowMessage(1,Unit,0);  //Mostrar tipo de dispensador      
 124:.\main.c      ****         }
 125:.\main.c      ****         if(UnitType == 1){
 126:.\main.c      ****             side.a.hoseNumber = UnitType+1;
 127:.\main.c      ****             side.b.hoseNumber = UnitType+1;
 128:.\main.c      ****             side.c.hoseNumber = UnitType+1;
 129:.\main.c      ****             side.d.hoseNumber = UnitType+1;
 130:.\main.c      ****             ShowMessage(1,Unit2,0);
 131:.\main.c      ****         }
 132:.\main.c      ****         if(UnitType == 2){
 133:.\main.c      ****             side.a.hoseNumber = UnitType+1;
 134:.\main.c      ****             side.b.hoseNumber = UnitType+1;
 135:.\main.c      ****             side.c.hoseNumber = UnitType+1;
 136:.\main.c      ****             side.d.hoseNumber = UnitType+1;
 137:.\main.c      ****            ShowMessage(1,Unit3,0);
 138:.\main.c      ****         }
 139:.\main.c      ****         if(UnitType == 3){
 140:.\main.c      ****             side.a.hoseNumber = UnitType+1;
 141:.\main.c      ****             side.b.hoseNumber = UnitType+1;
 142:.\main.c      ****             side.c.hoseNumber = UnitType+1;
 143:.\main.c      ****             side.d.hoseNumber = UnitType+1;
 144:.\main.c      ****             ShowMessage(1,Unit4,0);
 145:.\main.c      ****         }    
ARM GAS  C:\Users\Diego\AppData\Local\Temp\cctVJSXF.s 			page 4


 146:.\main.c      ****         if(DDMode == 1){
 147:.\main.c      ****             ShowMessage(1,DisplayMode,22); //Mostrar modo de display
 148:.\main.c      ****         }
 149:.\main.c      ****         if(DDMode == 2){
 150:.\main.c      ****            ShowMessage(1,DisplayMode2,22);
 151:.\main.c      ****         }
 152:.\main.c      ****     }        
 153:.\main.c      ****     if(NumPositions < 2){
 154:.\main.c      ****         SetPicture(1,DISPLAY_ERROR);        
 155:.\main.c      ****     }         
 156:.\main.c      **** }
 157:.\main.c      **** 
 158:.\main.c      **** /*
 159:.\main.c      **** ***************************************************************************************************
 160:.\main.c      **** *                                         void InitDisplay1(void)
 161:.\main.c      **** *
 162:.\main.c      **** * Description : Pregunta configuraciones al dispensador 
 163:.\main.c      **** *               
 164:.\main.c      **** *
 165:.\main.c      **** ***************************************************************************************************
 166:.\main.c      **** */
 167:.\main.c      **** void InitDisplay2(){      
 168:.\main.c      ****     if(NumPositions == 2){        
 169:.\main.c      ****         SetPicture(2,DISPLAY_INICIO0);  
 170:.\main.c      ****         flowDisplay2 = 0;
 171:.\main.c      ****     }
 172:.\main.c      ****     if(NumPositions == 4){
 173:.\main.c      ****         SetPicture(2,DISPLAY_SELECCIONE_POSICION);         
 174:.\main.c      ****     }        
 175:.\main.c      ****     if(NumPositions < 2){        
 176:.\main.c      ****         SetPicture(2,DISPLAY_ERROR);
 177:.\main.c      ****     }     
 178:.\main.c      ****     ShowMessage(2,MuxVersion,0);
 179:.\main.c      **** }
 180:.\main.c      **** 
 181:.\main.c      **** /*
 182:.\main.c      **** ***************************************************************************************************
 183:.\main.c      **** *                                         void InitPump(void)
 184:.\main.c      **** *
 185:.\main.c      **** * Description : Pregunta configuraciones al dispensador 
 186:.\main.c      **** *               
 187:.\main.c      **** *
 188:.\main.c      **** ***************************************************************************************************
 189:.\main.c      **** */
 190:.\main.c      **** void InitPump(){        
 191:.\main.c      ****     NumPositions = get_position();
 192:.\main.c      ****     if(NumPositions > 0){
 193:.\main.c      ****         if(!PumpIsInValidState(get_state(side.a.dir))){
 194:.\main.c      ****             SetPicture(1,DISPLAY_ERROR);
 195:.\main.c      ****             SetPicture(2,DISPLAY_ERROR);
 196:.\main.c      ****             NumPositions = 0;
 197:.\main.c      ****         }
 198:.\main.c      ****         if(!PumpIsInValidState(get_state(side.b.dir))){
 199:.\main.c      ****             SetPicture(1,DISPLAY_ERROR);
 200:.\main.c      ****             SetPicture(2,DISPLAY_ERROR);
 201:.\main.c      ****             NumPositions = 0;
 202:.\main.c      ****         }
ARM GAS  C:\Users\Diego\AppData\Local\Temp\cctVJSXF.s 			page 5


 203:.\main.c      ****         if(PumpIsInValidState(get_state(side.a.dir)) && PumpIsInValidState(get_state(side.b.dir))){
 204:.\main.c      ****             NumPositions = get_position();
 205:.\main.c      ****             if(get_state(side.a.dir) ==0x06 && get_state(side.b.dir)==0x06){
 206:.\main.c      ****                 PumpCompleteConfiguration(side.a.dir);
 207:.\main.c      ****                 StoreConfiguration();            
 208:.\main.c      ****             }else{
 209:.\main.c      ****                 SetPicture(1,DISPLAY_BAJE_MANIJA);
 210:.\main.c      ****                 SetPicture(2,DISPLAY_BAJE_MANIJA);
 211:.\main.c      ****                 InitPump();                
 212:.\main.c      ****             }
 213:.\main.c      ****         }        
 214:.\main.c      ****     }
 215:.\main.c      ****     
 216:.\main.c      **** }
 217:.\main.c      **** /*
 218:.\main.c      **** ***************************************************************************************************
 219:.\main.c      **** *                                         void PrintTest(void)
 220:.\main.c      **** *
 221:.\main.c      **** * Description : Pregunta configuraciones al dispensador 
 222:.\main.c      **** *               
 223:.\main.c      **** *
 224:.\main.c      **** ***************************************************************************************************
 225:.\main.c      **** */
 226:.\main.c      **** void PrintTest(){
 227:.\main.c      ****     uint8 dato[17]="Test de Impresion";
 228:.\main.c      ****     uint8 x;
 229:.\main.c      ****     for(x = 0; x<17;x++){
 230:.\main.c      ****         write_psoc1(1,dato[x]);
 231:.\main.c      ****     }
 232:.\main.c      ****     write_psoc1(1,10);
 233:.\main.c      ****     write_psoc1(1,10);
 234:.\main.c      ****     write_psoc1(1,10);
 235:.\main.c      ****     for(x = 0; x<17;x++){
 236:.\main.c      ****         write_psoc1(2,dato[x]);
 237:.\main.c      ****     }
 238:.\main.c      ****     write_psoc1(2,10);
 239:.\main.c      ****     write_psoc1(2,10);
 240:.\main.c      ****     write_psoc1(2,10);
 241:.\main.c      **** }
 242:.\main.c      **** 
 243:.\main.c      **** /*
 244:.\main.c      **** ***************************************************************************************************
 245:.\main.c      **** *                                         void polling_Pump(void)
 246:.\main.c      **** *
 247:.\main.c      **** * Description : Pregunta estado al surtidor 
 248:.\main.c      **** *               
 249:.\main.c      **** *
 250:.\main.c      **** ***************************************************************************************************
 251:.\main.c      **** */
 252:.\main.c      **** 
 253:.\main.c      **** void PollingPump(void){
 254:.\main.c      ****     uint8 x;
 255:.\main.c      ****     if(PumpIsInValidState(get_state(side.a.dir)) && PumpIsInValidState(get_state(side.b.dir)) ){
 256:.\main.c      ****         for(x= 0; x < 4; x++){
 257:.\main.c      ****             PrevStatePump[x] = statePump[x];
 258:.\main.c      ****         }
 259:.\main.c      ****     }
ARM GAS  C:\Users\Diego\AppData\Local\Temp\cctVJSXF.s 			page 6


 260:.\main.c      ****     if (NumPositions == 2){
 261:.\main.c      ****         statePump[0] = get_state(side.a.dir);                 
 262:.\main.c      ****         statePump[1] = get_state(side.b.dir);          
 263:.\main.c      ****     }
 264:.\main.c      ****     if (NumPositions == 4 ){
 265:.\main.c      ****         statePump[0] = get_state(side.a.dir);               
 266:.\main.c      ****         statePump[1] = get_state(side.b.dir);          
 267:.\main.c      ****         statePump[2] = get_state(side.c.dir);        
 268:.\main.c      ****         statePump[3] = get_state(side.d.dir);        
 269:.\main.c      ****     }
 270:.\main.c      ****     if (NumPositions == 0){
 271:.\main.c      ****         InitPump();
 272:.\main.c      ****     }
 273:.\main.c      ****     if(!PumpIsInValidState(get_state(side.a.dir))){
 274:.\main.c      ****         SetPicture(1,DISPLAY_ERROR);
 275:.\main.c      ****         SetPicture(2,DISPLAY_ERROR);
 276:.\main.c      ****         NumPositions = 0;
 277:.\main.c      ****         flowDisplay1 = 0;
 278:.\main.c      ****         flowDisplay2 = 0;
 279:.\main.c      ****     }
 280:.\main.c      ****     if(!PumpIsInValidState(get_state(side.b.dir))){
 281:.\main.c      ****         SetPicture(1,DISPLAY_ERROR);
 282:.\main.c      ****         SetPicture(2,DISPLAY_ERROR);
 283:.\main.c      ****         NumPositions = 0;
 284:.\main.c      ****         flowDisplay1 = 0;
 285:.\main.c      ****         flowDisplay2 = 0;
 286:.\main.c      ****     }
 287:.\main.c      **** }
 288:.\main.c      **** /*
 289:.\main.c      **** ***************************************************************************************************
 290:.\main.c      **** *                                         void polling_Pump(void)
 291:.\main.c      **** *
 292:.\main.c      **** * Description : Pregunta estado al surtidor 
 293:.\main.c      **** *               
 294:.\main.c      **** *
 295:.\main.c      **** ***************************************************************************************************
 296:.\main.c      **** */
 297:.\main.c      **** 
 298:.\main.c      **** void PollingDisplay1(void){ 
 299:.\main.c      ****     uint8 x,y,localStatePump;     
 300:.\main.c      ****     switch(flowDisplay1){
 301:.\main.c      ****         case 0:
 302:.\main.c      ****             InitDisplay1();
 303:.\main.c      ****             flowDisplay1 =1;
 304:.\main.c      ****             isr_3_Stop(); 
 305:.\main.c      ****             Timer_Animacion_Stop();
 306:.\main.c      ****             count_protector = 0;
 307:.\main.c      ****             bufferDisplay1.saleType = 0;
 308:.\main.c      ****             bufferDisplay1.flagEndSale = false;
 309:.\main.c      ****         break;
 310:.\main.c      ****         case 1: //Menu
 311:.\main.c      ****             if(Display1_GetRxBufferSize()==8){
 312:.\main.c      ****                 if((Display1_rxBuffer[0]==0xAA) && (Display1_rxBuffer[6]==0xC3) && (Display1_rxBuff
 313:.\main.c      ****                     flowDisplay1 = 2;      //Pantalla forma de pago                      
 314:.\main.c      ****                     SetPicture(1,DISPLAY_FORMA_PAGO_DESEADA);                                      
 315:.\main.c      ****                 }  
 316:.\main.c      ****                 CyDelay(10);         
ARM GAS  C:\Users\Diego\AppData\Local\Temp\cctVJSXF.s 			page 7


 317:.\main.c      ****                 Display1_ClearRxBuffer();
 318:.\main.c      ****             }
 319:.\main.c      ****         break;
 320:.\main.c      ****         case 2:
 321:.\main.c      ****             if(Display1_GetRxBufferSize()==8){
 322:.\main.c      ****                 if((Display1_rxBuffer[0]==0xAA) && (Display1_rxBuffer[6]==0xC3) && (Display1_rxBuff
 323:.\main.c      ****                     switch(Display1_rxBuffer[3]){
 324:.\main.c      ****                         case 0x0D:  //Pantalla efectivo              
 325:.\main.c      ****                             flowDisplay1 = 3; 
 326:.\main.c      ****                             bufferDisplay1.saleType = 1;
 327:.\main.c      ****                             SetPicture(1,DISPLAY_FORMA_PROGRAMACION);                            
 328:.\main.c      ****                         break;
 329:.\main.c      ****                         case 0x0E:  //Pantalla credito  
 330:.\main.c      ****                             flowDisplay1 = 10;
 331:.\main.c      ****                             bufferDisplay1.saleType = 2;
 332:.\main.c      ****                             count_protector = 0;
 333:.\main.c      ****                             SetPicture(1,DISPLAY_ID_DIGITAL);                            
 334:.\main.c      ****                         break;
 335:.\main.c      ****                         case 0x45:  //Pantalla otras opciones 
 336:.\main.c      ****                             flowDisplay1 = 12;                            
 337:.\main.c      ****                             SetPicture(1,DISPLAY_OPERACIONES);                            
 338:.\main.c      ****                         break;
 339:.\main.c      ****                             
 340:.\main.c      ****                         case 0x94:  //Pantalla Inicial    
 341:.\main.c      ****                             flowDisplay1 = 0;
 342:.\main.c      ****                             SetPicture(1,DISPLAY_INICIO0);                            
 343:.\main.c      ****                         break;
 344:.\main.c      ****                         
 345:.\main.c      ****                         case 0x7E:  //Pantalla Inicial    
 346:.\main.c      ****                             flowDisplay1 = 0;
 347:.\main.c      ****                             SetPicture(1,DISPLAY_INICIO0);                            
 348:.\main.c      ****                         break;
 349:.\main.c      ****                     }
 350:.\main.c      ****                 }  
 351:.\main.c      ****                 CyDelay(10);         
 352:.\main.c      ****                 Display1_ClearRxBuffer();
 353:.\main.c      ****             }
 354:.\main.c      ****         break;
 355:.\main.c      ****             
 356:.\main.c      ****         case 3: 
 357:.\main.c      ****             if(Display1_GetRxBufferSize()==8){
 358:.\main.c      ****                 if((Display1_rxBuffer[0]==0xAA) && (Display1_rxBuffer[6]==0xC3) && (Display1_rxBuff
 359:.\main.c      ****                     switch(Display1_rxBuffer[3]){
 360:.\main.c      ****                         case 0x0F:  //Preset dinero                
 361:.\main.c      ****                             flowDisplay1 = 4;                              
 362:.\main.c      ****                             bufferDisplay1.presetType[0]=2;
 363:.\main.c      ****                             bufferDisplay1.presetType[1]='D';
 364:.\main.c      ****                             numberKeys1=0;
 365:.\main.c      ****                             SetPicture(1,DISPLAY_INTRODUZCA_VALOR);   
 366:.\main.c      ****                             WriteLCD(1,'$',3,2,1,0x0000,'N');
 367:.\main.c      ****                         break; 
 368:.\main.c      ****                         case 0x10:  //Preset volumen                 
 369:.\main.c      ****                             flowDisplay1 = 4;                            
 370:.\main.c      ****                             bufferDisplay1.presetType[0]=1;
 371:.\main.c      ****                             bufferDisplay1.presetType[1]='V';
 372:.\main.c      ****                             numberKeys1=0;                            
 373:.\main.c      ****                             SetPicture(1,DISPLAY_INTRODUZCA_VOLUMEN);                            
ARM GAS  C:\Users\Diego\AppData\Local\Temp\cctVJSXF.s 			page 8


 374:.\main.c      ****                             WriteLCD(1,'V',3,2,1,0x0000,'N');                            
 375:.\main.c      ****                         break;
 376:.\main.c      ****                         case 0x43:  //Preset full 
 377:.\main.c      ****                             bufferDisplay1.presetType[0]=2;
 378:.\main.c      ****                             bufferDisplay1.presetType[1]='F';
 379:.\main.c      ****                             for(x=1;x<(digits-1);x++){
 380:.\main.c      ****                                 bufferDisplay1.presetValue[0][x]='9';
 381:.\main.c      ****                             }
 382:.\main.c      ****                             bufferDisplay1.presetValue[0][x]='0';
 383:.\main.c      ****                             bufferDisplay1.presetValue[0][x+1]='0';
 384:.\main.c      ****                             bufferDisplay1.presetValue[0][0]=digits;
 385:.\main.c      ****                             for(x=0;x<=bufferDisplay1.presetValue[0][0];x++){
 386:.\main.c      ****                                 bufferDisplay1.presetValue[1][x]=bufferDisplay1.presetValue[0][x];
 387:.\main.c      ****                             }
 388:.\main.c      ****                             flowDisplay1 = 5;
 389:.\main.c      ****                             SetPicture(1,DISPLAY_SELECCIONE_PRODUCTO4);                          
 390:.\main.c      ****                         break;
 391:.\main.c      ****                         case 0x94:  //Retroceso 
 392:.\main.c      ****                             flowDisplay1 = 0;
 393:.\main.c      ****                             SetPicture(1,DISPLAY_INICIO0);                                         
 394:.\main.c      ****                         break;
 395:.\main.c      ****                         case 0x3B:  //Pantalla Inicial    
 396:.\main.c      ****                             flowDisplay1 = 0;
 397:.\main.c      ****                             SetPicture(1,DISPLAY_INICIO0);                            
 398:.\main.c      ****                         break;
 399:.\main.c      ****                         case 0x7E:  //Pantalla Inicial    
 400:.\main.c      ****                             flowDisplay1 = 0;
 401:.\main.c      ****                             SetPicture(1,DISPLAY_INICIO0);                            
 402:.\main.c      ****                         break;
 403:.\main.c      ****                     }
 404:.\main.c      ****                 }  
 405:.\main.c      ****                 CyDelay(10);         
 406:.\main.c      ****                 Display1_ClearRxBuffer();
 407:.\main.c      ****             }
 408:.\main.c      ****         break;
 409:.\main.c      ****         
 410:.\main.c      ****         case 4:            
 411:.\main.c      ****             switch (alphanumeric_keyboard(1,digits,0)){
 412:.\main.c      ****                 case 0:  //Pantalla Inicial    
 413:.\main.c      ****                     flowDisplay1 = 0;
 414:.\main.c      ****                     SetPicture(1,DISPLAY_INICIO0);                            
 415:.\main.c      ****                 break;
 416:.\main.c      ****                     
 417:.\main.c      ****                 case 1: //Enter
 418:.\main.c      ****                     for(x=0;x<=bufferDisplay1.valueKeys[0];x++){
 419:.\main.c      ****                         bufferDisplay1.presetValue[0][x]=bufferDisplay1.valueKeys[x];
 420:.\main.c      ****                         bufferDisplay1.presetValue[1][x]=bufferDisplay1.valueKeys[x];
 421:.\main.c      ****                     }  
 422:.\main.c      ****                     flowDisplay1 = 5;//caso para seleccion de producto
 423:.\main.c      ****                     SetPicture(1,DISPLAY_SELECCIONE_PRODUCTO4);
 424:.\main.c      ****                 break;
 425:.\main.c      ****             }
 426:.\main.c      ****         break;
 427:.\main.c      ****             
 428:.\main.c      ****         case 5:
 429:.\main.c      ****             if(Display1_GetRxBufferSize()==8){
 430:.\main.c      ****                 if((Display1_rxBuffer[0]==0xAA) && (Display1_rxBuffer[6]==0xC3) && (Display1_rxBuff
ARM GAS  C:\Users\Diego\AppData\Local\Temp\cctVJSXF.s 			page 9


 431:.\main.c      ****                     switch(Display1_rxBuffer[3]){
 432:.\main.c      ****                         case 0x80:  //Grado 1 
 433:.\main.c      ****                             flowDisplay1 = 6;
 434:.\main.c      ****                             side.a.hose = 1;
 435:.\main.c      ****                             SetPicture(1,DISPLAY_DESEA_IMPRIMIR_RECIBO);                           
 436:.\main.c      ****                         break;
 437:.\main.c      ****                             
 438:.\main.c      ****                         case 0x81:  //Grado 2 
 439:.\main.c      ****                             flowDisplay1 = 6;
 440:.\main.c      ****                             side.a.hose = 2;
 441:.\main.c      ****                             SetPicture(1,DISPLAY_DESEA_IMPRIMIR_RECIBO);                           
 442:.\main.c      ****                         break;
 443:.\main.c      ****                             
 444:.\main.c      ****                         case 0x7F:  //Grado 3
 445:.\main.c      ****                             flowDisplay1 = 6;
 446:.\main.c      ****                             side.a.hose = 3;
 447:.\main.c      ****                             SetPicture(1,DISPLAY_DESEA_IMPRIMIR_RECIBO);                           
 448:.\main.c      ****                         break;   
 449:.\main.c      ****                         
 450:.\main.c      ****                         case 0xB8:  //Grado 4 
 451:.\main.c      ****                             flowDisplay1 = 6;
 452:.\main.c      ****                             side.a.hose = 4;
 453:.\main.c      ****                             SetPicture(1,DISPLAY_DESEA_IMPRIMIR_RECIBO);                           
 454:.\main.c      ****                         break;
 455:.\main.c      ****                             
 456:.\main.c      ****                         case 0x94:  //Retroceso 
 457:.\main.c      ****                             flowDisplay1 = 0;
 458:.\main.c      ****                             SetPicture(1,DISPLAY_INICIO0);                                         
 459:.\main.c      ****                         break;
 460:.\main.c      ****                             
 461:.\main.c      ****                         case 0x7E:  //Pantalla Inicial                                             
 462:.\main.c      ****                             SetPicture(1,DISPLAY_INICIO0);
 463:.\main.c      ****                             flowDisplay1 = 0;
 464:.\main.c      ****                         break;
 465:.\main.c      ****                     }                    
 466:.\main.c      ****                 }
 467:.\main.c      ****                 CyDelay(10);         
 468:.\main.c      ****                 Display1_ClearRxBuffer();
 469:.\main.c      ****             }
 470:.\main.c      ****         break;
 471:.\main.c      ****                     
 472:.\main.c      ****         case 6:
 473:.\main.c      ****             isr_3_StartEx(animacion);
 474:.\main.c      ****             Timer_Animacion_Start();
 475:.\main.c      ****             if(Display1_GetRxBufferSize()==8){
 476:.\main.c      ****                 if((Display1_rxBuffer[0]==0xAA) && (Display1_rxBuffer[6]==0xC3) && (Display1_rxBuff
 477:.\main.c      ****                     switch(Display1_rxBuffer[3]){
 478:.\main.c      ****                         case 0x39:  //Si imprimir  
 479:.\main.c      ****                             flowDisplay1 = 9;
 480:.\main.c      ****                             numberKeys1 = 0;
 481:.\main.c      ****                             bufferDisplay1.flagKeyboard = 1;
 482:.\main.c      ****                             bufferDisplay1.flagPrint =  1;
 483:.\main.c      ****                             SetPicture(1,DISPLAY_DIGITE_PLACA);                            
 484:.\main.c      ****                         break; 
 485:.\main.c      ****                         case 0x38:  //No imprimir 
 486:.\main.c      ****                             if(bufferDisplay1.flagEndSale){
 487:.\main.c      ****                                 flowDisplay1 = 0;
ARM GAS  C:\Users\Diego\AppData\Local\Temp\cctVJSXF.s 			page 10


 488:.\main.c      ****                                 SetPicture(1,DISPLAY_INICIO0);
 489:.\main.c      ****                             }else{
 490:.\main.c      ****                                 flowDisplay1 = 7;//Esperando estado del dispensador 
 491:.\main.c      ****                                 bufferDisplay1.flagPrint =  0;
 492:.\main.c      ****                                 count_protector=0;
 493:.\main.c      ****                                 SetPicture(1,DISPLAY_SUBA_MANIJA);
 494:.\main.c      ****                             }
 495:.\main.c      ****                         break;
 496:.\main.c      ****                         case 0x7E:  //Pantalla Inicial                                             
 497:.\main.c      ****                             flowDisplay1 = 0;
 498:.\main.c      ****                             SetPicture(1,DISPLAY_INICIO0);
 499:.\main.c      ****                         break;
 500:.\main.c      ****                     }                    
 501:.\main.c      ****                 }
 502:.\main.c      ****                 CyDelay(10);         
 503:.\main.c      ****                 Display1_ClearRxBuffer();
 504:.\main.c      ****             }
 505:.\main.c      ****             if(count_protector>=30){
 506:.\main.c      ****                 flowDisplay1 = 0;	
 507:.\main.c      ****     			count_protector=0;
 508:.\main.c      ****                 SetPicture(1,DISPLAY_INICIO0);
 509:.\main.c      ****     		}
 510:.\main.c      ****         break;
 511:.\main.c      ****                                         
 512:.\main.c      ****             
 513:.\main.c      ****         case 7:
 514:.\main.c      ****             isr_3_StartEx(animacion);
 515:.\main.c      ****             Timer_Animacion_Start();
 516:.\main.c      ****             side.a.activeHose = PumpHoseActiveState(side.a.dir);  
 517:.\main.c      ****             if (side.a.activeHose == side.a.hose){                
 518:.\main.c      ****                 if(PresetData(side.a.dir,side.a.activeHose,bufferDisplay1.presetValue[0],bufferDisp
 519:.\main.c      ****                     get_state(side.a.dir);
 520:.\main.c      ****                     CyDelay(50);
 521:.\main.c      ****                     Pump_PutChar(0x10|side.a.dir);//Autoriza el surtidor
 522:.\main.c      ****                     CyDelay(50);
 523:.\main.c      ****                     flowDisplay1 = 8;
 524:.\main.c      ****                     isr_3_Stop(); 
 525:.\main.c      ****                     Timer_Animacion_Stop();
 526:.\main.c      ****                     count_protector = 0;                    
 527:.\main.c      ****                     SetPicture(1,DISPLAY_DESPACHANDO);   
 528:.\main.c      ****                     ShowMessage(1,(bufferDisplay1.presetValue[0]),18);
 529:.\main.c      ****                 }else{
 530:.\main.c      ****                     flowDisplay1 = 0;
 531:.\main.c      ****                     SetPicture(1,DISPLAY_ERROR);
 532:.\main.c      ****                     CyDelay(200);
 533:.\main.c      ****                     SetPicture(1,DISPLAY_INICIO0);
 534:.\main.c      ****                 }
 535:.\main.c      ****             }else{
 536:.\main.c      ****                 flowDisplay1 = 7;
 537:.\main.c      ****                 if(count_protector>=60){
 538:.\main.c      ****                     flowDisplay1 = 0;	
 539:.\main.c      ****         			count_protector=0;
 540:.\main.c      ****                     SetPicture(1,DISPLAY_INICIO0);
 541:.\main.c      ****         		}
 542:.\main.c      ****             }
 543:.\main.c      ****             if(Display1_GetRxBufferSize()==8){
 544:.\main.c      ****                 if((Display1_rxBuffer[0]==0xAA) && (Display1_rxBuffer[6]==0xC3) && (Display1_rxBuff
ARM GAS  C:\Users\Diego\AppData\Local\Temp\cctVJSXF.s 			page 11


 545:.\main.c      ****                     switch(Display1_rxBuffer[3]){                        
 546:.\main.c      ****                         case 0x7E:  //Pantalla Inicial                                             
 547:.\main.c      ****                             SetPicture(1,DISPLAY_INICIO0);
 548:.\main.c      ****                             flowDisplay1 = 0;
 549:.\main.c      ****                         break;
 550:.\main.c      ****                     }                    
 551:.\main.c      ****                 }
 552:.\main.c      ****                 CyDelay(10);                         
 553:.\main.c      ****             }
 554:.\main.c      ****             Display1_ClearRxBuffer();
 555:.\main.c      ****         break;
 556:.\main.c      ****             
 557:.\main.c      ****         case 8:            
 558:.\main.c      ****             localStatePump = get_state(side.a.dir);
 559:.\main.c      ****             switch (localStatePump){
 560:.\main.c      ****                 case 0x06://Espera - venta cero
 561:.\main.c      ****                     flowDisplay1 = 0;
 562:.\main.c      ****                     bufferDisplay1.flagActiveSale = false;
 563:.\main.c      ****                     SetPicture(1,DISPLAY_INICIO0);
 564:.\main.c      ****                 break;
 565:.\main.c      ****                 case 0x09://Espera
 566:.\main.c      ****                     bufferDisplay1.flagActiveSale = true;
 567:.\main.c      ****                     bufferDisplay1.flagEndSale = false;
 568:.\main.c      ****                 break;
 569:.\main.c      ****                 case 0x0A: //reporte fin venta
 570:.\main.c      ****                     getSale(side.a.dir);                    
 571:.\main.c      ****                     if(bufferDisplay1.flagPrint ==1){
 572:.\main.c      ****                         imprimir(1,side.a.dir);
 573:.\main.c      ****                         flowDisplay1 = 0;
 574:.\main.c      ****                         SetPicture(1,DISPLAY_INICIO0); 
 575:.\main.c      ****                     }else{
 576:.\main.c      ****                         flowDisplay1 = 6;
 577:.\main.c      ****                         bufferDisplay1.flagEndSale = true;
 578:.\main.c      ****                         SetPicture(1,DISPLAY_DESEA_IMPRIMIR_RECIBO); 
 579:.\main.c      ****                     }
 580:.\main.c      ****                     bufferDisplay1.flagActiveSale = false;                                         
 581:.\main.c      ****                 break;
 582:.\main.c      ****                 case 0x0B://Reporte de venta
 583:.\main.c      ****                     getSale(side.a.dir);
 584:.\main.c      ****                     if(bufferDisplay1.flagPrint ==1){
 585:.\main.c      ****                         imprimir(1,side.a.dir);
 586:.\main.c      ****                         flowDisplay1 = 0;
 587:.\main.c      ****                         SetPicture(1,DISPLAY_INICIO0); 
 588:.\main.c      ****                     }else{
 589:.\main.c      ****                         flowDisplay1 = 6;
 590:.\main.c      ****                         bufferDisplay1.flagEndSale = true;
 591:.\main.c      ****                         SetPicture(1,DISPLAY_DESEA_IMPRIMIR_RECIBO); 
 592:.\main.c      ****                     }
 593:.\main.c      ****                     bufferDisplay1.flagActiveSale = false; 
 594:.\main.c      ****                 break;
 595:.\main.c      ****                 
 596:.\main.c      ****             }
 597:.\main.c      ****             
 598:.\main.c      ****         break;
 599:.\main.c      ****             
 600:.\main.c      ****         case 9: //Teclado           
 601:.\main.c      ****             switch (alphanumeric_keyboard(1,10,0)){
ARM GAS  C:\Users\Diego\AppData\Local\Temp\cctVJSXF.s 			page 12


 602:.\main.c      ****                 case 0: //Cancelar
 603:.\main.c      ****                     switch(bufferDisplay1.flagKeyboard){
 604:.\main.c      ****                         case 1://Placa
 605:.\main.c      ****                             for(x=0;x<=10;x++){
 606:.\main.c      ****                                 bufferDisplay1.licenceSale[x]=0;
 607:.\main.c      ****                             }
 608:.\main.c      ****                             flowDisplay1 = 0;//Inicio
 609:.\main.c      ****                             SetPicture(1,DISPLAY_INICIO0);
 610:.\main.c      ****                         break;
 611:.\main.c      ****                         
 612:.\main.c      ****                         case 2://Kilometraje
 613:.\main.c      ****                             for(x=0;x<=10;x++){
 614:.\main.c      ****                                 bufferDisplay1.mileageSale[x]=0;
 615:.\main.c      ****                             }
 616:.\main.c      ****                         break;
 617:.\main.c      ****                         
 618:.\main.c      ****                         case 3://CC/NIT
 619:.\main.c      ****                             for(x=0;x<=10;x++){
 620:.\main.c      ****                                 bufferDisplay1.identySale[x]=0;
 621:.\main.c      ****                             }
 622:.\main.c      ****                         break;
 623:.\main.c      ****                         case 4://ID
 624:.\main.c      ****                             for(x=0;x<=10;x++){
 625:.\main.c      ****                                 bufferDisplay1.shiftId[x]=0;
 626:.\main.c      ****                             }
 627:.\main.c      ****                         break;
 628:.\main.c      ****                     }                    
 629:.\main.c      ****                     Display1_ClearRxBuffer();
 630:.\main.c      ****                 break;
 631:.\main.c      ****                     
 632:.\main.c      ****                 case 1: //Enter
 633:.\main.c      ****                     switch(bufferDisplay1.flagKeyboard){
 634:.\main.c      ****                         case 1://Placa
 635:.\main.c      ****                             for(x=0;x<=bufferDisplay1.valueKeys[0];x++){
 636:.\main.c      ****                                 bufferDisplay1.licenceSale[x]=bufferDisplay1.valueKeys[x];
 637:.\main.c      ****                             }
 638:.\main.c      ****                             if(bufferDisplay1.flagEndSale){
 639:.\main.c      ****                                 imprimir(1,side.a.dir);
 640:.\main.c      ****                                 flowDisplay1 = 0;
 641:.\main.c      ****                                 SetPicture(1,DISPLAY_INICIO0); 
 642:.\main.c      ****                             }else{
 643:.\main.c      ****                                 flowDisplay1 = 7;//Suba manija
 644:.\main.c      ****                                 SetPicture(1,DISPLAY_SUBA_MANIJA);
 645:.\main.c      ****                             }
 646:.\main.c      ****                         break;
 647:.\main.c      ****                         
 648:.\main.c      ****                         case 2://Kilometraje
 649:.\main.c      ****                             for(x=0;x<=bufferDisplay1.valueKeys[0];x++){
 650:.\main.c      ****                                 bufferDisplay1.mileageSale[x]=bufferDisplay1.valueKeys[x];
 651:.\main.c      ****                             }
 652:.\main.c      ****                             flowDisplay1 = 7;//Suba manija
 653:.\main.c      ****                             SetPicture(1,DISPLAY_SUBA_MANIJA);
 654:.\main.c      ****                         break;
 655:.\main.c      ****                         
 656:.\main.c      ****                         case 3://CC/NIT
 657:.\main.c      ****                             for(x=0;x<=bufferDisplay1.valueKeys[0];x++){
 658:.\main.c      ****                                 bufferDisplay1.identySale[x]=bufferDisplay1.valueKeys[x];
ARM GAS  C:\Users\Diego\AppData\Local\Temp\cctVJSXF.s 			page 13


 659:.\main.c      ****                             }
 660:.\main.c      ****                         case 4://ID
 661:.\main.c      ****                             for(x=0;x<=10;x++){
 662:.\main.c      ****                                 bufferDisplay1.shiftId[x] =bufferDisplay1.valueKeys[x];
 663:.\main.c      ****                             }
 664:.\main.c      ****                             flowDisplay1 = 14;//Pide clave                            
 665:.\main.c      ****                             numberKeys1 = 0;
 666:.\main.c      ****                             hiddenKeys = 5;
 667:.\main.c      ****                             controlChar ='*';
 668:.\main.c      ****                             bufferDisplay1.flagKeyboard = 5;
 669:.\main.c      ****                             SetPicture(1,DISPLAY_INGRESE_PASSWORD);
 670:.\main.c      ****                         break;
 671:.\main.c      ****                     }                    
 672:.\main.c      ****                     Display1_ClearRxBuffer();
 673:.\main.c      ****                 break;
 674:.\main.c      ****             }            
 675:.\main.c      ****         break;    
 676:.\main.c      ****     ////////////////// CASOS PARA CRÉDITO  /////////////////////
 677:.\main.c      ****         case 10:
 678:.\main.c      ****             if(Display1_GetRxBufferSize()==8){
 679:.\main.c      ****                 if((Display1_rxBuffer[0]==0xAA) && (Display1_rxBuffer[6]==0xC3) && (Display1_rxBuff
 680:.\main.c      ****                     switch(Display1_rxBuffer[3]){
 681:.\main.c      ****                         case 0xB6:  //Solicitud ibutton  
 682:.\main.c      ****                             flowDisplay1 = 11;
 683:.\main.c      ****                             numberKeys1 = 0;                            
 684:.\main.c      ****                             bufferDisplay1.flagPrint =  1;
 685:.\main.c      ****                             SetPicture(1,DISPLAY_ESPERANDO_ID);                            
 686:.\main.c      ****                         break; 
 687:.\main.c      ****                         case 0xB7:  //ID por número
 688:.\main.c      ****                             bufferDisplay1.flagKeyboard = 0;
 689:.\main.c      ****                             flowDisplay1 = 7;//Esperando estado del dispensador  
 690:.\main.c      ****                             count_protector=0;
 691:.\main.c      ****                             SetPicture(1,DISPLAY_SUBA_MANIJA);                            
 692:.\main.c      ****                         break;
 693:.\main.c      ****                         case 0x7E:  //Pantalla Inicial                                             
 694:.\main.c      ****                             SetPicture(1,DISPLAY_INICIO0);
 695:.\main.c      ****                             flowDisplay1 = 0;
 696:.\main.c      ****                         break;
 697:.\main.c      ****                     }                    
 698:.\main.c      ****                 }
 699:.\main.c      ****                 CyDelay(10);         
 700:.\main.c      ****                 Display1_ClearRxBuffer();
 701:.\main.c      ****             }                        
 702:.\main.c      ****         break;
 703:.\main.c      ****         
 704:.\main.c      ****         case 11:
 705:.\main.c      ****             isr_3_StartEx(animacion);
 706:.\main.c      ****             Timer_Animacion_Start();
 707:.\main.c      ****             if(touch_present(1)==1){
 708:.\main.c      **** 				if(touch_write(1,0x33)){
 709:.\main.c      **** 					for(x=1;x<=8;x++){
 710:.\main.c      **** 						temporal[x]=touch_read_byte(1);
 711:.\main.c      **** 					}
 712:.\main.c      **** 					y=0;
 713:.\main.c      **** 					for(x=1;x<8;x++){
 714:.\main.c      ****                         y=crc_check(y,temporal[x]);
 715:.\main.c      ****                     }
ARM GAS  C:\Users\Diego\AppData\Local\Temp\cctVJSXF.s 			page 14


 716:.\main.c      **** 					if(y==temporal[8]){
 717:.\main.c      **** 						bufferDisplay1.idSerial[0]=16;
 718:.\main.c      **** 						y=16;
 719:.\main.c      **** 						for(x=1;x<=8;x++){
 720:.\main.c      **** 							if((temporal[x]&0x0F)>=10){
 721:.\main.c      **** 								bufferDisplay1.idSerial[y]=(temporal[x]&0x0F)+55;
 722:.\main.c      **** 							}else{
 723:.\main.c      **** 								bufferDisplay1.idSerial[y]=(temporal[x]&0x0F)+48;				
 724:.\main.c      **** 							}
 725:.\main.c      ****                             y--;
 726:.\main.c      **** 							if(((temporal[x]>>4)&0x0F)>=10){
 727:.\main.c      **** 								bufferDisplay1.idSerial[y]=((temporal[x]>>4)&0x0F)+55;
 728:.\main.c      **** 							}else{
 729:.\main.c      **** 								bufferDisplay1.idSerial[y]=((temporal[x]>>4)&0x0F)+48;				
 730:.\main.c      **** 							}
 731:.\main.c      ****                             y--;
 732:.\main.c      **** 						}                        
 733:.\main.c      ****                         SetPicture(1,DISPLAY_ID_RECONOCIDO);                                       
 734:.\main.c      ****                         Display1_ClearRxBuffer();
 735:.\main.c      ****                         CyDelay(700);
 736:.\main.c      ****                         bufferDisplay1.flagKeyboard = 2;
 737:.\main.c      ****                         flowDisplay1 = 9;
 738:.\main.c      ****                         SetPicture(1,DISPLAY_INTRODUZCA_KILOMETRAJE);
 739:.\main.c      ****                         
 740:.\main.c      **** 					}
 741:.\main.c      **** 				}
 742:.\main.c      **** 			}
 743:.\main.c      ****             if(count_protector>=60){
 744:.\main.c      ****                 flowDisplay1 = 0;	
 745:.\main.c      ****     			count_protector=0;
 746:.\main.c      ****                 SetPicture(1,DISPLAY_INICIO0);
 747:.\main.c      ****     		}
 748:.\main.c      ****                                     
 749:.\main.c      ****         break;    
 750:.\main.c      ****     ///////////////FIN CASOS PARA CRÉDITO  /////////////////////  
 751:.\main.c      ****     
 752:.\main.c      ****     //////////// CASOS PARA CONFIGURACIONES  ///////////////////
 753:.\main.c      ****         case 12:
 754:.\main.c      ****             if(Display1_GetRxBufferSize()==8){
 755:.\main.c      ****                 if((Display1_rxBuffer[0]==0xAA) && (Display1_rxBuffer[6]==0xC3) && (Display1_rxBuff
 756:.\main.c      ****                     switch(Display1_rxBuffer[3]){
 757:.\main.c      ****                         case 0x46:  //Turnos              
 758:.\main.c      ****                             flowDisplay1 = 13; 
 759:.\main.c      ****                             if(lockTurn ==1){
 760:.\main.c      ****                                 SetPicture(1,DISPLAY_CERRAR_TURNO);
 761:.\main.c      ****                             }else{
 762:.\main.c      ****                                 SetPicture(1,DISPLAY_ABRIR_TURNO);
 763:.\main.c      ****                             }                            
 764:.\main.c      ****                         break;
 765:.\main.c      ****                         case 0x55:  //Configurar módulo 
 766:.\main.c      ****                             flowDisplay1 = 14;
 767:.\main.c      ****                             bufferDisplay1.flagKeyboard = 6;
 768:.\main.c      ****                             numberKeys1 = 0;
 769:.\main.c      ****                             hiddenKeys = 5;
 770:.\main.c      ****                             controlChar ='*';
 771:.\main.c      ****                             SetPicture(1,DISPLAY_INGRESE_PASSWORD);                           
 772:.\main.c      ****                         break;
ARM GAS  C:\Users\Diego\AppData\Local\Temp\cctVJSXF.s 			page 15


 773:.\main.c      ****                         case 0xB5:  //Copia de recibo 
 774:.\main.c      ****                             flowDisplay1 = 12;                            
 775:.\main.c      ****                             SetPicture(1,DISPLAY_OPERACIONES);                            
 776:.\main.c      ****                         break;
 777:.\main.c      ****                             
 778:.\main.c      ****                         case 0x94:  //Pantalla Inicial    
 779:.\main.c      ****                             flowDisplay1 = 0;
 780:.\main.c      ****                             SetPicture(1,DISPLAY_INICIO0);                            
 781:.\main.c      ****                         break;
 782:.\main.c      ****                         
 783:.\main.c      ****                         case 0x7E:  //Pantalla Inicial    
 784:.\main.c      ****                             flowDisplay1 = 0;
 785:.\main.c      ****                             SetPicture(1,DISPLAY_INICIO0);                            
 786:.\main.c      ****                         break;
 787:.\main.c      ****                     }
 788:.\main.c      ****                 }  
 789:.\main.c      ****                 CyDelay(10);         
 790:.\main.c      ****                 Display1_ClearRxBuffer();
 791:.\main.c      ****             }
 792:.\main.c      ****         break;
 793:.\main.c      **** 
 794:.\main.c      ****         case 13:
 795:.\main.c      ****             if(Display1_GetRxBufferSize()==8){
 796:.\main.c      ****                 if((Display1_rxBuffer[0]==0xAA) && (Display1_rxBuffer[6]==0xC3) && (Display1_rxBuff
 797:.\main.c      ****                     switch(Display1_rxBuffer[3]){
 798:.\main.c      ****                         case 0x47:  //Cambio de turno: Abrir  
 799:.\main.c      ****                             flowDisplay1 = 9;
 800:.\main.c      ****                             numberKeys1 = 0;    
 801:.\main.c      ****                             bufferDisplay1.flagKeyboard = 4;
 802:.\main.c      ****                             SetPicture(1,DISPLAY_INTRODUZCA_CEDULA);                            
 803:.\main.c      ****                         break;
 804:.\main.c      ****                         case 0x48:  //Cambio de turno: Cerrar 
 805:.\main.c      ****                             flowDisplay1 = 9;
 806:.\main.c      ****                             numberKeys1 = 0;   
 807:.\main.c      ****                             bufferDisplay1.flagKeyboard = 4;
 808:.\main.c      ****                             SetPicture(1,DISPLAY_INTRODUZCA_CEDULA);                           
 809:.\main.c      ****                         break;                         
 810:.\main.c      ****                         case 0x7E:  //Pantalla Inicial                                             
 811:.\main.c      ****                             SetPicture(1,DISPLAY_INICIO0);
 812:.\main.c      ****                             flowDisplay1 = 0;
 813:.\main.c      ****                         break;
 814:.\main.c      ****                         case 0x94:  //Pantalla Inicial                                             
 815:.\main.c      ****                             SetPicture(1,DISPLAY_INICIO0);
 816:.\main.c      ****                             flowDisplay1 = 0;
 817:.\main.c      ****                         break;
 818:.\main.c      ****                     }                    
 819:.\main.c      ****                 }
 820:.\main.c      ****                 CyDelay(10);         
 821:.\main.c      ****                 Display1_ClearRxBuffer();
 822:.\main.c      ****             }                        
 823:.\main.c      ****         break; 
 824:.\main.c      ****             
 825:.\main.c      ****         case 14: //Teclado general      
 826:.\main.c      ****             switch (alphanumeric_keyboard(1,hiddenKeys,controlChar)){
 827:.\main.c      ****                 case 0: //Cancelar
 828:.\main.c      ****                     switch(bufferDisplay1.flagKeyboard){
 829:.\main.c      ****                         case 1://ID Estacion
ARM GAS  C:\Users\Diego\AppData\Local\Temp\cctVJSXF.s 			page 16


 830:.\main.c      ****                             for(x=0;x< hiddenKeys;x++){
 831:.\main.c      ****                                 idStation[x]=0;
 832:.\main.c      ****                             }
 833:.\main.c      ****                             flowDisplay1 = 0;
 834:.\main.c      ****                             SetPicture(1,DISPLAY_INICIO0);
 835:.\main.c      ****                         break;
 836:.\main.c      ****                         case 5://Pass
 837:.\main.c      ****                             for(x=0;x< hiddenKeys;x++){
 838:.\main.c      ****                                 bufferDisplay1.shiftPassword[x]=0;
 839:.\main.c      ****                             }
 840:.\main.c      ****                             flowDisplay1 = 0;
 841:.\main.c      ****                             SetPicture(1,DISPLAY_INICIO0);
 842:.\main.c      ****                         break;
 843:.\main.c      ****                             
 844:.\main.c      ****                         case 6://Pass
 845:.\main.c      ****                             for(x=1;x<=configAccess[0];x++){
 846:.\main.c      ****                                 configAccess[x]=0;
 847:.\main.c      ****                             }
 848:.\main.c      ****                             flowDisplay1 = 0;
 849:.\main.c      ****                             SetPicture(1,DISPLAY_INICIO0);
 850:.\main.c      ****                         break;
 851:.\main.c      ****                     }                    
 852:.\main.c      ****                     Display1_ClearRxBuffer();
 853:.\main.c      ****                 break;
 854:.\main.c      ****                     
 855:.\main.c      ****                 case 1: //Enter
 856:.\main.c      ****                     switch(bufferDisplay1.flagKeyboard){   
 857:.\main.c      ****                         case 1://Pass
 858:.\main.c      ****                             for(x=0;x < hiddenKeys;x++){
 859:.\main.c      ****                                 idStation[x] =bufferDisplay1.valueKeys[x];
 860:.\main.c      ****                             }
 861:.\main.c      ****                             flowDisplay1 = 0;
 862:.\main.c      ****                             SetPicture(1,DISPLAY_INICIO0);
 863:.\main.c      ****                         break;
 864:.\main.c      ****                         case 5://Pass
 865:.\main.c      ****                             for(x=0;x < hiddenKeys;x++){
 866:.\main.c      ****                                 bufferDisplay1.shiftPassword[x] =bufferDisplay1.valueKeys[x];
 867:.\main.c      ****                             }
 868:.\main.c      ****                             flowDisplay1 = 0;
 869:.\main.c      ****                             SetPicture(1,DISPLAY_POR_FAVOR_ESPERE);
 870:.\main.c      ****                         break; 
 871:.\main.c      ****                         case 6://Pass
 872:.\main.c      ****                             for(x=1;x<=configAccess[0];x++){
 873:.\main.c      ****                                 configAccess[x] =bufferDisplay1.valueKeys[x];
 874:.\main.c      ****                             }
 875:.\main.c      ****                             if(configAccess[1] == passwordPump[1] && configAccess[2] == passwordPum
 876:.\main.c      ****                                 SetPicture(1,DISPLAY_PASSWORD_VALIDO);
 877:.\main.c      ****                                 CyDelay(700);
 878:.\main.c      ****                                 flowDisplay1 = 15;
 879:.\main.c      ****                                 SetPicture(1,DISPLAY_CONFIGURACIONES);
 880:.\main.c      ****                             }else{
 881:.\main.c      ****                                 SetPicture(1,DISPLAY_PASSWORD_INVALIDO);
 882:.\main.c      ****                                 CyDelay(700);
 883:.\main.c      ****                                 flowDisplay1 = 0;
 884:.\main.c      ****                                 SetPicture(1,DISPLAY_INICIO0);
 885:.\main.c      ****                             }
 886:.\main.c      ****                         break;
ARM GAS  C:\Users\Diego\AppData\Local\Temp\cctVJSXF.s 			page 17


 887:.\main.c      ****                     }                    
 888:.\main.c      ****                     Display1_ClearRxBuffer();
 889:.\main.c      ****                 break;
 890:.\main.c      ****             }            
 891:.\main.c      ****         break;
 892:.\main.c      ****             
 893:.\main.c      ****         case 15:
 894:.\main.c      ****             if(Display1_GetRxBufferSize()==8){
 895:.\main.c      ****                 if((Display1_rxBuffer[0]==0xAA) && (Display1_rxBuffer[6]==0xC3) && (Display1_rxBuff
 896:.\main.c      ****                     switch(Display1_rxBuffer[3]){
 897:.\main.c      ****                         case 0x82:  //ID Estacion  
 898:.\main.c      ****                             flowDisplay1 = 14;
 899:.\main.c      ****                             numberKeys1 = 0; 
 900:.\main.c      ****                             controlChar = 0;
 901:.\main.c      ****                             bufferDisplay1.flagKeyboard = 1;
 902:.\main.c      ****                             SetPicture(1,DISPLAY_INTRODUZCA_VALOR);                            
 903:.\main.c      ****                         break;
 904:.\main.c      ****                         case 0x65:  //Test Impresoras 
 905:.\main.c      ****                             flowDisplay1 = 9;
 906:.\main.c      ****                             numberKeys1 = 0;   
 907:.\main.c      ****                             bufferDisplay1.flagKeyboard = 4;
 908:.\main.c      ****                             SetPicture(1,DISPLAY_AMBAS_IMPRESORAS_FUNCIONANDO);                    
 909:.\main.c      ****                         break;
 910:.\main.c      ****                         
 911:.\main.c      ****                         case 0x5A:  //Umbral 
 912:.\main.c      ****                             flowDisplay1 = 9;
 913:.\main.c      ****                             numberKeys1 = 0;   
 914:.\main.c      ****                             bufferDisplay1.flagKeyboard = 4;
 915:.\main.c      ****                             SetPicture(1,DISPLAY_INTRODUZCA_VALOR);                            
 916:.\main.c      ****                         break;
 917:.\main.c      ****                         case 0x58:  //Hora y Fecha
 918:.\main.c      ****                             flowDisplay1 = 9;
 919:.\main.c      ****                             numberKeys1 = 0;   
 920:.\main.c      ****                             bufferDisplay1.flagKeyboard = 4;
 921:.\main.c      ****                             SetPicture(1,DISPLAY_CONFIGURAR_FECHA_HORA);                           
 922:.\main.c      ****                         break;
 923:.\main.c      ****                         case 0x7E:  //Pantalla Inicial                                             
 924:.\main.c      ****                             SetPicture(1,DISPLAY_INICIO0);
 925:.\main.c      ****                             flowDisplay1 = 0;
 926:.\main.c      ****                         break;
 927:.\main.c      ****                         case 0x94:  //Pantalla Inicial                                             
 928:.\main.c      ****                             SetPicture(1,DISPLAY_INICIO0);
 929:.\main.c      ****                             flowDisplay1 = 0;
 930:.\main.c      ****                         break;
 931:.\main.c      ****                     }                    
 932:.\main.c      ****                 }
 933:.\main.c      ****                 CyDelay(10);         
 934:.\main.c      ****                 Display1_ClearRxBuffer();
 935:.\main.c      ****             }                        
 936:.\main.c      ****         break; 
 937:.\main.c      ****             
 938:.\main.c      ****             
 939:.\main.c      ****     }
 940:.\main.c      **** }
 941:.\main.c      **** 
 942:.\main.c      **** 
 943:.\main.c      **** 
ARM GAS  C:\Users\Diego\AppData\Local\Temp\cctVJSXF.s 			page 18


 944:.\main.c      **** /*
 945:.\main.c      **** ***************************************************************************************************
 946:.\main.c      **** *                                         void polling_Pump(void)
 947:.\main.c      **** *
 948:.\main.c      **** * Description : Pregunta estado al surtidor 
 949:.\main.c      **** *               
 950:.\main.c      **** *
 951:.\main.c      **** ***************************************************************************************************
 952:.\main.c      **** */
 953:.\main.c      **** void PollingDisplay2(void){     
 954:.\main.c      ****     switch(flowDisplay2){
 955:.\main.c      ****         case 0:
 956:.\main.c      ****             InitDisplay2();
 957:.\main.c      ****             flowDisplay2 =1;
 958:.\main.c      ****         break;
 959:.\main.c      ****         case 1: //Menu
 960:.\main.c      **** 			ShowRectangle(2,35);        
 961:.\main.c      ****             if(Display2_GetRxBufferSize()==8){
 962:.\main.c      ****                 if((Display2_rxBuffer[0]==0xAA) && (Display2_rxBuffer[6]==0xC3) && (Display2_rxBuff
 963:.\main.c      ****                     switch(Display2_rxBuffer[3]){
 964:.\main.c      ****                         case 0x3A:  //Pantalla forma de pago
 965:.\main.c      ****                             flowDisplay2 = 2;                            
 966:.\main.c      ****                             SetPicture(2,DISPLAY_FORMA_PAGO_DESEADA);                            
 967:.\main.c      ****                         break;   
 968:.\main.c      ****                         case 0x7E:  //Pantalla Inicial                                             
 969:.\main.c      ****                             SetPicture(2,DISPLAY_INICIO0);
 970:.\main.c      ****                             flowDisplay2 = 0;
 971:.\main.c      ****                         break;
 972:.\main.c      ****                     }
 973:.\main.c      ****                 }  
 974:.\main.c      ****                 CyDelay(10);         
 975:.\main.c      ****                 Display2_ClearRxBuffer();
 976:.\main.c      ****             }
 977:.\main.c      ****         break;
 978:.\main.c      ****         case 2:
 979:.\main.c      ****             if(Display2_GetRxBufferSize()==8){
 980:.\main.c      ****                 if((Display2_rxBuffer[0]==0xAA) && (Display2_rxBuffer[6]==0xC3) && (Display2_rxBuff
 981:.\main.c      ****                     switch(Display2_rxBuffer[3]){
 982:.\main.c      ****                         case 0x0D:  //Pantalla efectivo              
 983:.\main.c      ****                             flowDisplay2 = 3;                            
 984:.\main.c      ****                             SetPicture(2,DISPLAY_FORMA_PROGRAMACION);                            
 985:.\main.c      ****                         break;
 986:.\main.c      ****                         case 0x0E:  //Pantalla credito   
 987:.\main.c      ****                             flowDisplay2 = 4;                                                     
 988:.\main.c      ****                             SetPicture(2,DISPLAY_ID_DIGITAL);                            
 989:.\main.c      ****                         break;
 990:.\main.c      ****                         case 0x45:  //Pantalla otras opciones 
 991:.\main.c      ****                             flowDisplay2 = 5;                            
 992:.\main.c      ****                             SetPicture(2,DISPLAY_OPERACIONES);                            
 993:.\main.c      ****                         break;
 994:.\main.c      ****                             
 995:.\main.c      ****                         case 0x94:  //Pantalla Inicial    
 996:.\main.c      ****                             flowDisplay2 = 0;
 997:.\main.c      ****                             SetPicture(2,DISPLAY_INICIO0);                            
 998:.\main.c      ****                         break;
 999:.\main.c      ****                         
1000:.\main.c      ****                         case 0x7E:  //Pantalla Inicial    
ARM GAS  C:\Users\Diego\AppData\Local\Temp\cctVJSXF.s 			page 19


1001:.\main.c      ****                             flowDisplay2 = 0;
1002:.\main.c      ****                             SetPicture(2,DISPLAY_INICIO0);                            
1003:.\main.c      ****                         break;
1004:.\main.c      ****                     }
1005:.\main.c      ****                 }  
1006:.\main.c      ****                 CyDelay(10);         
1007:.\main.c      ****                 Display2_ClearRxBuffer();
1008:.\main.c      ****             }
1009:.\main.c      ****         break;
1010:.\main.c      ****             
1011:.\main.c      ****         case 3: 
1012:.\main.c      ****             if(Display2_GetRxBufferSize()==8){
1013:.\main.c      ****                 if((Display2_rxBuffer[0]==0xAA) && (Display2_rxBuffer[6]==0xC3) && (Display2_rxBuff
1014:.\main.c      ****                     switch(Display2_rxBuffer[3]){
1015:.\main.c      ****                         case 0x0F:  //Preset dinero                
1016:.\main.c      ****                             flowDisplay2 = 4;
1017:.\main.c      ****                             SetPicture(2,DISPLAY_INTRODUZCA_VALOR);                            
1018:.\main.c      ****                         break; 
1019:.\main.c      ****                         case 0x10:  //Preset volumen                 
1020:.\main.c      ****                             flowDisplay2 = 5;
1021:.\main.c      ****                             SetPicture(2,DISPLAY_INTRODUZCA_VOLUMEN);                            
1022:.\main.c      ****                         break;
1023:.\main.c      ****                         case 0x43:  //Preset full                       
1024:.\main.c      ****                             flowDisplay2 = 6;
1025:.\main.c      ****                             SetPicture(2,DISPLAY_DESEA_IMPRIMIR_RECIBO);                           
1026:.\main.c      ****                         break;
1027:.\main.c      ****                         case 0x94:  //Retroceso 
1028:.\main.c      ****                             flowDisplay2 = 0;
1029:.\main.c      ****                             SetPicture(2,DISPLAY_INICIO0);                                         
1030:.\main.c      ****                         break;
1031:.\main.c      ****                         case 0x3B:  //Pantalla Inicial    
1032:.\main.c      ****                             flowDisplay2 = 0;
1033:.\main.c      ****                             SetPicture(2,DISPLAY_INICIO0);                            
1034:.\main.c      ****                         break;
1035:.\main.c      ****                         case 0x7E:  //Pantalla Inicial    
1036:.\main.c      ****                             flowDisplay2 = 0;
1037:.\main.c      ****                             SetPicture(2,DISPLAY_INICIO0);                            
1038:.\main.c      ****                         break;
1039:.\main.c      ****                     }
1040:.\main.c      ****                 }  
1041:.\main.c      ****                 CyDelay(10);         
1042:.\main.c      ****                 Display2_ClearRxBuffer();
1043:.\main.c      ****             }
1044:.\main.c      ****         break;
1045:.\main.c      ****         
1046:.\main.c      ****         case 4:
1047:.\main.c      ****             if(Display2_GetRxBufferSize()==8){
1048:.\main.c      ****                 if((Display2_rxBuffer[0]==0xAA) && (Display2_rxBuffer[6]==0xC3) && (Display2_rxBuff
1049:.\main.c      ****                     switch(Display2_rxBuffer[3]){
1050:.\main.c      ****                         case 0x94:  //Retroceso 
1051:.\main.c      ****                             flowDisplay2 = 0;   
1052:.\main.c      ****                             SetPicture(2,DISPLAY_INICIO0);                                         
1053:.\main.c      ****                         break;
1054:.\main.c      ****                         case 0x7E:  //Pantalla Inicial    
1055:.\main.c      ****                             flowDisplay2 = 0;
1056:.\main.c      ****                             SetPicture(2,DISPLAY_INICIO0);                            
1057:.\main.c      ****                         break;
ARM GAS  C:\Users\Diego\AppData\Local\Temp\cctVJSXF.s 			page 20


1058:.\main.c      ****                     }
1059:.\main.c      ****                 }
1060:.\main.c      ****                 CyDelay(10);         
1061:.\main.c      ****                 Display2_ClearRxBuffer();
1062:.\main.c      ****             }
1063:.\main.c      ****         break;
1064:.\main.c      ****             
1065:.\main.c      ****         case 5: //Preset por volumen
1066:.\main.c      ****             if(Display2_GetRxBufferSize()==8){
1067:.\main.c      ****                 if((Display2_rxBuffer[0]==0xAA) && (Display2_rxBuffer[6]==0xC3) && (Display2_rxBuff
1068:.\main.c      ****                     switch(Display2_rxBuffer[3]){
1069:.\main.c      ****                         case 0x94:  //Retroceso 
1070:.\main.c      ****                             flowDisplay2 = 0;   
1071:.\main.c      ****                             SetPicture(2,DISPLAY_INICIO0);                                         
1072:.\main.c      ****                         break;
1073:.\main.c      ****                         case 0x7E:  //Pantalla Inicial    
1074:.\main.c      ****                             flowDisplay2 = 0;
1075:.\main.c      ****                             SetPicture(2,DISPLAY_INICIO0);                            
1076:.\main.c      ****                         break;
1077:.\main.c      ****                     }
1078:.\main.c      ****                 }
1079:.\main.c      ****                 CyDelay(10);         
1080:.\main.c      ****                 Display2_ClearRxBuffer();
1081:.\main.c      ****             }
1082:.\main.c      ****         break;
1083:.\main.c      ****         
1084:.\main.c      ****         case 6:
1085:.\main.c      ****             if(Display2_GetRxBufferSize()==8){
1086:.\main.c      ****                 if((Display2_rxBuffer[0]==0xAA) && (Display2_rxBuffer[6]==0xC3) && (Display2_rxBuff
1087:.\main.c      ****                     switch(Display2_rxBuffer[3]){
1088:.\main.c      ****                         case 0x39:  //Si copia                                                     
1089:.\main.c      ****                             SetPicture(2,DISPLAY_DIGITE_PLACA);
1090:.\main.c      ****                             flowDisplay2 = 7;
1091:.\main.c      ****                         break; 
1092:.\main.c      ****                         case 0x38:  //No copia                                                     
1093:.\main.c      ****                             SetPicture(2,DISPLAY_SELECCIONE_PRODUCTO4);
1094:.\main.c      ****                             flowDisplay2 = 8;//caso para seleccion de producto
1095:.\main.c      ****                         break;
1096:.\main.c      ****                         case 0x7E:  //Pantalla Inicial                                             
1097:.\main.c      ****                             SetPicture(2,DISPLAY_INICIO0);
1098:.\main.c      ****                             flowDisplay2 = 0;
1099:.\main.c      ****                         break;
1100:.\main.c      ****                     }                    
1101:.\main.c      ****                 }
1102:.\main.c      ****                 CyDelay(10);         
1103:.\main.c      ****                 Display2_ClearRxBuffer();
1104:.\main.c      ****             }
1105:.\main.c      ****         break;
1106:.\main.c      ****     }
1107:.\main.c      **** }
1108:.\main.c      **** 
1109:.\main.c      **** 
1110:.\main.c      **** 
1111:.\main.c      **** /*
1112:.\main.c      **** ***************************************************************************************************
1113:.\main.c      **** *                                         CY_ISR(animacion)
1114:.\main.c      **** *
ARM GAS  C:\Users\Diego\AppData\Local\Temp\cctVJSXF.s 			page 21


1115:.\main.c      **** * Description : Interrupcion que temporiza las imagenes informativas que aparecen en la pantalla 1
1116:.\main.c      **** *               
1117:.\main.c      **** *
1118:.\main.c      **** * Argument(s) : none
1119:.\main.c      **** *
1120:.\main.c      **** * Return(s)   : none
1121:.\main.c      **** *
1122:.\main.c      **** * Caller(s)   : 
1123:.\main.c      **** *
1124:.\main.c      **** * Note(s)     : none.
1125:.\main.c      **** ***************************************************************************************************
1126:.\main.c      **** */
1127:.\main.c      **** CY_ISR(animacion){
  27              		.loc 1 1127 0
  28              		.cfi_startproc
  29              		@ args = 0, pretend = 0, frame = 0
  30              		@ frame_needed = 0, uses_anonymous_args = 0
  31 0000 08B5     		push	{r3, lr}
  32              		.cfi_def_cfa_offset 8
  33              		.cfi_offset 3, -8
  34              		.cfi_offset 14, -4
1128:.\main.c      ****     Timer_Animacion_ReadStatusRegister();    					
  35              		.loc 1 1128 0
  36 0002 FFF7FEFF 		bl	Timer_Animacion_ReadStatusRegister
  37              	.LVL0:
1129:.\main.c      ****     count_protector++; 							//Incrementa el contador 
  38              		.loc 1 1129 0
  39 0006 024A     		ldr	r2, .L3
  40 0008 1378     		ldrb	r3, [r2]	@ zero_extendqisi2
  41 000a 0133     		adds	r3, r3, #1
  42 000c 1370     		strb	r3, [r2]
  43 000e 08BD     		pop	{r3, pc}
  44              	.L4:
  45              		.align	2
  46              	.L3:
  47 0010 00000000 		.word	count_protector
  48              		.cfi_endproc
  49              	.LFE73:
  50              		.size	animacion, .-animacion
  51              		.section	.text.GlobalInitializer,"ax",%progbits
  52              		.align	2
  53              		.global	GlobalInitializer
  54              		.thumb
  55              		.thumb_func
  56              		.type	GlobalInitializer, %function
  57              	GlobalInitializer:
  58              	.LFB63:
  32:.\main.c      ****     EEPROM_1_Start();
  59              		.loc 1 32 0
  60              		.cfi_startproc
  61              		@ args = 0, pretend = 0, frame = 0
  62              		@ frame_needed = 0, uses_anonymous_args = 0
  63 0000 08B5     		push	{r3, lr}
  64              		.cfi_def_cfa_offset 8
  65              		.cfi_offset 3, -8
  66              		.cfi_offset 14, -4
  33:.\main.c      ****     Pump_Start(); 
ARM GAS  C:\Users\Diego\AppData\Local\Temp\cctVJSXF.s 			page 22


  67              		.loc 1 33 0
  68 0002 FFF7FEFF 		bl	EEPROM_1_Start
  69              	.LVL1:
  34:.\main.c      ****     Display1_Start();
  70              		.loc 1 34 0
  71 0006 FFF7FEFF 		bl	Pump_Start
  72              	.LVL2:
  35:.\main.c      ****     Display2_Start();    
  73              		.loc 1 35 0
  74 000a FFF7FEFF 		bl	Display1_Start
  75              	.LVL3:
  36:.\main.c      ****     Printer_Start();   
  76              		.loc 1 36 0
  77 000e FFF7FEFF 		bl	Display2_Start
  78              	.LVL4:
  37:.\main.c      ****     I2C_Bus_Start();
  79              		.loc 1 37 0
  80 0012 FFF7FEFF 		bl	Printer_Start
  81              	.LVL5:
  38:.\main.c      ****     RF_Connection_Start();
  82              		.loc 1 38 0
  83 0016 FFF7FEFF 		bl	I2C_Bus_Start
  84              	.LVL6:
  39:.\main.c      **** }
  85              		.loc 1 39 0
  86 001a FFF7FEFF 		bl	RF_Connection_Start
  87              	.LVL7:
  88 001e 08BD     		pop	{r3, pc}
  89              		.cfi_endproc
  90              	.LFE63:
  91              		.size	GlobalInitializer, .-GlobalInitializer
  92              		.section	.text.StoreConfiguration,"ax",%progbits
  93              		.align	2
  94              		.global	StoreConfiguration
  95              		.thumb
  96              		.thumb_func
  97              		.type	StoreConfiguration, %function
  98              	StoreConfiguration:
  99              	.LFB64:
  41:.\main.c      ****     EEPROM_1_WriteByte(UnitType,0);
 100              		.loc 1 41 0
 101              		.cfi_startproc
 102              		@ args = 0, pretend = 0, frame = 0
 103              		@ frame_needed = 0, uses_anonymous_args = 0
 104 0000 10B5     		push	{r4, lr}
 105              		.cfi_def_cfa_offset 8
 106              		.cfi_offset 4, -8
 107              		.cfi_offset 14, -4
  42:.\main.c      ****     EEPROM_1_WriteByte(ConversionFactor,1);
 108              		.loc 1 42 0
 109 0002 154C     		ldr	r4, .L9
 110 0004 2078     		ldrb	r0, [r4]	@ zero_extendqisi2
 111 0006 0021     		movs	r1, #0
 112 0008 FFF7FEFF 		bl	EEPROM_1_WriteByte
 113              	.LVL8:
  43:.\main.c      ****     EEPROM_1_WriteByte(MoneyDec,2);
 114              		.loc 1 43 0
ARM GAS  C:\Users\Diego\AppData\Local\Temp\cctVJSXF.s 			page 23


 115 000c 134B     		ldr	r3, .L9+4
 116 000e 1878     		ldrb	r0, [r3]	@ zero_extendqisi2
 117 0010 0121     		movs	r1, #1
 118 0012 FFF7FEFF 		bl	EEPROM_1_WriteByte
 119              	.LVL9:
  44:.\main.c      ****     EEPROM_1_WriteByte(VolDec,3);
 120              		.loc 1 44 0
 121 0016 124B     		ldr	r3, .L9+8
 122 0018 1878     		ldrb	r0, [r3]	@ zero_extendqisi2
 123 001a 0221     		movs	r1, #2
 124 001c FFF7FEFF 		bl	EEPROM_1_WriteByte
 125              	.LVL10:
  45:.\main.c      ****     EEPROM_1_WriteByte(PPUDec,4);
 126              		.loc 1 45 0
 127 0020 104B     		ldr	r3, .L9+12
 128 0022 1878     		ldrb	r0, [r3]	@ zero_extendqisi2
 129 0024 0321     		movs	r1, #3
 130 0026 FFF7FEFF 		bl	EEPROM_1_WriteByte
 131              	.LVL11:
  46:.\main.c      ****     EEPROM_1_WriteByte(DDMode,5);
 132              		.loc 1 46 0
 133 002a 0F4B     		ldr	r3, .L9+16
 134 002c 1878     		ldrb	r0, [r3]	@ zero_extendqisi2
 135 002e 0421     		movs	r1, #4
 136 0030 FFF7FEFF 		bl	EEPROM_1_WriteByte
 137              	.LVL12:
  47:.\main.c      ****     EEPROM_1_WriteByte(digits,6);
 138              		.loc 1 47 0
 139 0034 0D4B     		ldr	r3, .L9+20
 140 0036 1878     		ldrb	r0, [r3]	@ zero_extendqisi2
 141 0038 0521     		movs	r1, #5
 142 003a FFF7FEFF 		bl	EEPROM_1_WriteByte
 143              	.LVL13:
  48:.\main.c      ****     EEPROM_1_WriteByte(UnitType+1,7);
 144              		.loc 1 48 0
 145 003e 0C4B     		ldr	r3, .L9+24
 146 0040 1878     		ldrb	r0, [r3]	@ zero_extendqisi2
 147 0042 0621     		movs	r1, #6
 148 0044 FFF7FEFF 		bl	EEPROM_1_WriteByte
 149              	.LVL14:
  49:.\main.c      **** }
 150              		.loc 1 49 0
 151 0048 2078     		ldrb	r0, [r4]	@ zero_extendqisi2
 152 004a 0130     		adds	r0, r0, #1
 153 004c C0B2     		uxtb	r0, r0
 154 004e 0721     		movs	r1, #7
 155 0050 FFF7FEFF 		bl	EEPROM_1_WriteByte
 156              	.LVL15:
 157 0054 10BD     		pop	{r4, pc}
 158              	.L10:
 159 0056 00BF     		.align	2
 160              	.L9:
 161 0058 00000000 		.word	UnitType
 162 005c 00000000 		.word	ConversionFactor
 163 0060 00000000 		.word	MoneyDec
 164 0064 00000000 		.word	VolDec
 165 0068 00000000 		.word	PPUDec
ARM GAS  C:\Users\Diego\AppData\Local\Temp\cctVJSXF.s 			page 24


 166 006c 00000000 		.word	DDMode
 167 0070 00000000 		.word	digits
 168              		.cfi_endproc
 169              	.LFE64:
 170              		.size	StoreConfiguration, .-StoreConfiguration
 171              		.section	.text.loadConfiguration,"ax",%progbits
 172              		.align	2
 173              		.global	loadConfiguration
 174              		.thumb
 175              		.thumb_func
 176              		.type	loadConfiguration, %function
 177              	loadConfiguration:
 178              	.LFB65:
  51:.\main.c      ****     lockTurn = EEPROM_1_ReadByte(8); //Fijo turno abierto para pruebas
 179              		.loc 1 51 0
 180              		.cfi_startproc
 181              		@ args = 0, pretend = 0, frame = 0
 182              		@ frame_needed = 0, uses_anonymous_args = 0
 183 0000 08B5     		push	{r3, lr}
 184              		.cfi_def_cfa_offset 8
 185              		.cfi_offset 3, -8
 186              		.cfi_offset 14, -4
  52:.\main.c      **** }
 187              		.loc 1 52 0
 188 0002 0820     		movs	r0, #8
 189 0004 FFF7FEFF 		bl	EEPROM_1_ReadByte
 190              	.LVL16:
 191 0008 014B     		ldr	r3, .L13
 192 000a 1870     		strb	r0, [r3]
 193 000c 08BD     		pop	{r3, pc}
 194              	.L14:
 195 000e 00BF     		.align	2
 196              	.L13:
 197 0010 00000000 		.word	lockTurn
 198              		.cfi_endproc
 199              	.LFE65:
 200              		.size	loadConfiguration, .-loadConfiguration
 201              		.section	.text.InitDisplay1,"ax",%progbits
 202              		.align	2
 203              		.global	InitDisplay1
 204              		.thumb
 205              		.thumb_func
 206              		.type	InitDisplay1, %function
 207              	InitDisplay1:
 208              	.LFB66:
  63:.\main.c      ****     uint8_t iniText[10]="Iniciando"; 
 209              		.loc 1 63 0
 210              		.cfi_startproc
 211              		@ args = 0, pretend = 0, frame = 112
 212              		@ frame_needed = 0, uses_anonymous_args = 0
 213 0000 10B5     		push	{r4, lr}
 214              		.cfi_def_cfa_offset 8
 215              		.cfi_offset 4, -8
 216              		.cfi_offset 14, -4
 217 0002 9CB0     		sub	sp, sp, #112
 218              		.cfi_def_cfa_offset 120
  64:.\main.c      ****     uint8_t Unit[10] = "S/D/Dupla ";
ARM GAS  C:\Users\Diego\AppData\Local\Temp\cctVJSXF.s 			page 25


 219              		.loc 1 64 0
 220 0004 994A     		ldr	r2, .L32
 221 0006 19AB     		add	r3, sp, #100
 222 0008 07CA     		ldmia	r2, {r0, r1, r2}
 223 000a 03C3     		stmia	r3!, {r0, r1}
 224 000c 1A80     		strh	r2, [r3]	@ movhi
  65:.\main.c      ****     uint8_t Unit2[10] = "Quadrupla";
 225              		.loc 1 65 0
 226 000e 984B     		ldr	r3, .L32+4
 227 0010 16AC     		add	r4, sp, #88
 228 0012 93E80700 		ldmia	r3, {r0, r1, r2}
 229 0016 03C4     		stmia	r4!, {r0, r1}
 230 0018 2280     		strh	r2, [r4]	@ movhi
  66:.\main.c      ****     uint8_t Unit3[10] = "Sextupla";
 231              		.loc 1 66 0
 232 001a 964A     		ldr	r2, .L32+8
 233 001c 13AC     		add	r4, sp, #76
 234 001e 07CA     		ldmia	r2, {r0, r1, r2}
 235 0020 03C4     		stmia	r4!, {r0, r1}
 236 0022 2280     		strh	r2, [r4]	@ movhi
  67:.\main.c      ****     uint8_t Unit4[10] = "Octupla";
 237              		.loc 1 67 0
 238 0024 10AC     		add	r4, sp, #64
 239 0026 03F10C02 		add	r2, r3, #12
 240 002a 07CA     		ldmia	r2, {r0, r1, r2}
 241 002c 03C4     		stmia	r4!, {r0, r1}
 242 002e 2270     		strb	r2, [r4]
 243 0030 0022     		movs	r2, #0
 244 0032 8DF84920 		strb	r2, [sp, #73]
  68:.\main.c      ****     uint8_t DisplayMode0[10] = "5-5-4     ";
 245              		.loc 1 68 0
 246 0036 0DAC     		add	r4, sp, #52
 247 0038 03F11801 		add	r1, r3, #24
 248 003c 03C9     		ldmia	r1, {r0, r1}
 249 003e 84E80300 		stmia	r4, {r0, r1}
 250 0042 ADF83C20 		strh	r2, [sp, #60]	@ movhi
  69:.\main.c      ****     uint8_t DisplayMode[10] = "6-6-4     ";
 251              		.loc 1 69 0
 252 0046 0AAC     		add	r4, sp, #40
 253 0048 03F12402 		add	r2, r3, #36
 254 004c 07CA     		ldmia	r2, {r0, r1, r2}
 255 004e 03C4     		stmia	r4!, {r0, r1}
 256 0050 2280     		strh	r2, [r4]	@ movhi
  70:.\main.c      ****     uint8_t DisplayMode2[10] = "7-7-5     ";
 257              		.loc 1 70 0
 258 0052 07AC     		add	r4, sp, #28
 259 0054 03F13002 		add	r2, r3, #48
 260 0058 07CA     		ldmia	r2, {r0, r1, r2}
 261 005a 03C4     		stmia	r4!, {r0, r1}
 262 005c 2280     		strh	r2, [r4]	@ movhi
  71:.\main.c      ****     uint8_t DisplayMode3[10] = "8-7-5     ";
 263              		.loc 1 71 0
 264 005e 04AC     		add	r4, sp, #16
 265 0060 03F13C02 		add	r2, r3, #60
 266 0064 07CA     		ldmia	r2, {r0, r1, r2}
 267 0066 03C4     		stmia	r4!, {r0, r1}
 268 0068 2280     		strh	r2, [r4]	@ movhi
ARM GAS  C:\Users\Diego\AppData\Local\Temp\cctVJSXF.s 			page 26


  72:.\main.c      ****     if(NumPositions == 2){
 269              		.loc 1 72 0
 270 006a 01AC     		add	r4, sp, #4
 271 006c 4833     		adds	r3, r3, #72
 272 006e 93E80700 		ldmia	r3, {r0, r1, r2}
 273 0072 03C4     		stmia	r4!, {r0, r1}
 274 0074 2280     		strh	r2, [r4]	@ movhi
  73:.\main.c      ****         SetPicture(1,DISPLAY_INICIO0);         
 275              		.loc 1 73 0
 276 0076 804B     		ldr	r3, .L32+12
 277 0078 1B78     		ldrb	r3, [r3]	@ zero_extendqisi2
 278 007a 022B     		cmp	r3, #2
 279 007c 7AD1     		bne	.L16
  74:.\main.c      ****         ShowMessage(1,iniText,0);    
 280              		.loc 1 74 0
 281 007e 0120     		movs	r0, #1
 282 0080 0146     		mov	r1, r0
 283 0082 FFF7FEFF 		bl	SetPicture
 284              	.LVL17:
  75:.\main.c      ****         CyDelay(300);
 285              		.loc 1 75 0
 286 0086 0120     		movs	r0, #1
 287 0088 19A9     		add	r1, sp, #100
 288 008a 0022     		movs	r2, #0
 289 008c FFF7FEFF 		bl	ShowMessage
 290              	.LVL18:
  76:.\main.c      ****         if(UnitType == 0){
 291              		.loc 1 76 0
 292 0090 4FF49670 		mov	r0, #300
 293 0094 FFF7FEFF 		bl	CyDelay
 294              	.LVL19:
  77:.\main.c      ****             side.a.hoseNumber = UnitType+1;
 295              		.loc 1 77 0
 296 0098 784B     		ldr	r3, .L32+16
 297 009a 1B78     		ldrb	r3, [r3]	@ zero_extendqisi2
 298 009c 5BB9     		cbnz	r3, .L17
  78:.\main.c      ****             side.b.hoseNumber = UnitType+1;
 299              		.loc 1 78 0
 300 009e 0133     		adds	r3, r3, #1
 301 00a0 DBB2     		uxtb	r3, r3
 302 00a2 774A     		ldr	r2, .L32+20
 303 00a4 82F80231 		strb	r3, [r2, #258]
  79:.\main.c      ****             ShowMessage(1,Unit,0);  //Mostrar tipo de dispensador      
 304              		.loc 1 79 0
 305 00a8 82F80532 		strb	r3, [r2, #517]
  80:.\main.c      ****         }
 306              		.loc 1 80 0
 307 00ac 0120     		movs	r0, #1
 308 00ae 16A9     		add	r1, sp, #88
 309 00b0 0022     		movs	r2, #0
 310 00b2 FFF7FEFF 		bl	ShowMessage
 311              	.LVL20:
 312              	.L17:
  82:.\main.c      ****             side.a.hoseNumber = UnitType+1;
 313              		.loc 1 82 0
 314 00b6 714B     		ldr	r3, .L32+16
 315 00b8 1B78     		ldrb	r3, [r3]	@ zero_extendqisi2
ARM GAS  C:\Users\Diego\AppData\Local\Temp\cctVJSXF.s 			page 27


 316 00ba 012B     		cmp	r3, #1
 317 00bc 0BD1     		bne	.L18
  83:.\main.c      ****             side.b.hoseNumber = UnitType+1;
 318              		.loc 1 83 0
 319 00be 0133     		adds	r3, r3, #1
 320 00c0 DBB2     		uxtb	r3, r3
 321 00c2 6F4A     		ldr	r2, .L32+20
 322 00c4 82F80231 		strb	r3, [r2, #258]
  84:.\main.c      ****             ShowMessage(1,Unit2,0);
 323              		.loc 1 84 0
 324 00c8 82F80532 		strb	r3, [r2, #517]
  85:.\main.c      ****         }
 325              		.loc 1 85 0
 326 00cc 0120     		movs	r0, #1
 327 00ce 13A9     		add	r1, sp, #76
 328 00d0 0022     		movs	r2, #0
 329 00d2 FFF7FEFF 		bl	ShowMessage
 330              	.LVL21:
 331              	.L18:
  87:.\main.c      ****             side.a.hoseNumber = UnitType+1;
 332              		.loc 1 87 0
 333 00d6 694B     		ldr	r3, .L32+16
 334 00d8 1B78     		ldrb	r3, [r3]	@ zero_extendqisi2
 335 00da 022B     		cmp	r3, #2
 336 00dc 0BD1     		bne	.L19
  88:.\main.c      ****             side.b.hoseNumber = UnitType+1;
 337              		.loc 1 88 0
 338 00de 0133     		adds	r3, r3, #1
 339 00e0 DBB2     		uxtb	r3, r3
 340 00e2 674A     		ldr	r2, .L32+20
 341 00e4 82F80231 		strb	r3, [r2, #258]
  89:.\main.c      ****             ShowMessage(1,Unit3,0);
 342              		.loc 1 89 0
 343 00e8 82F80532 		strb	r3, [r2, #517]
  90:.\main.c      ****         }
 344              		.loc 1 90 0
 345 00ec 0120     		movs	r0, #1
 346 00ee 10A9     		add	r1, sp, #64
 347 00f0 0022     		movs	r2, #0
 348 00f2 FFF7FEFF 		bl	ShowMessage
 349              	.LVL22:
 350              	.L19:
  92:.\main.c      ****             side.a.hoseNumber = UnitType+1;
 351              		.loc 1 92 0
 352 00f6 614B     		ldr	r3, .L32+16
 353 00f8 1B78     		ldrb	r3, [r3]	@ zero_extendqisi2
 354 00fa 032B     		cmp	r3, #3
 355 00fc 0BD1     		bne	.L20
  93:.\main.c      ****             side.b.hoseNumber = UnitType+1;
 356              		.loc 1 93 0
 357 00fe 0133     		adds	r3, r3, #1
 358 0100 DBB2     		uxtb	r3, r3
 359 0102 5F4A     		ldr	r2, .L32+20
 360 0104 82F80231 		strb	r3, [r2, #258]
  94:.\main.c      ****             ShowMessage(1,Unit4,0);
 361              		.loc 1 94 0
 362 0108 82F80532 		strb	r3, [r2, #517]
ARM GAS  C:\Users\Diego\AppData\Local\Temp\cctVJSXF.s 			page 28


  95:.\main.c      ****         } 
 363              		.loc 1 95 0
 364 010c 0120     		movs	r0, #1
 365 010e 0DA9     		add	r1, sp, #52
 366 0110 0022     		movs	r2, #0
 367 0112 FFF7FEFF 		bl	ShowMessage
 368              	.LVL23:
 369              	.L20:
  97:.\main.c      ****             ShowMessage(1,DisplayMode0,22); //Mostrar modo de display
 370              		.loc 1 97 0
 371 0116 5B4B     		ldr	r3, .L32+24
 372 0118 1B78     		ldrb	r3, [r3]	@ zero_extendqisi2
 373 011a 3BB9     		cbnz	r3, .L21
  98:.\main.c      ****             digits = 5;
 374              		.loc 1 98 0
 375 011c 0120     		movs	r0, #1
 376 011e 0AA9     		add	r1, sp, #40
 377 0120 1622     		movs	r2, #22
 378 0122 FFF7FEFF 		bl	ShowMessage
 379              	.LVL24:
  99:.\main.c      ****         }
 380              		.loc 1 99 0
 381 0126 0522     		movs	r2, #5
 382 0128 574B     		ldr	r3, .L32+28
 383 012a 1A70     		strb	r2, [r3]
 384              	.L21:
 101:.\main.c      ****             ShowMessage(1,DisplayMode,22); //Mostrar modo de display
 385              		.loc 1 101 0
 386 012c 554B     		ldr	r3, .L32+24
 387 012e 1B78     		ldrb	r3, [r3]	@ zero_extendqisi2
 388 0130 012B     		cmp	r3, #1
 389 0132 07D1     		bne	.L22
 102:.\main.c      ****             digits = 6;
 390              		.loc 1 102 0
 391 0134 0120     		movs	r0, #1
 392 0136 07A9     		add	r1, sp, #28
 393 0138 1622     		movs	r2, #22
 394 013a FFF7FEFF 		bl	ShowMessage
 395              	.LVL25:
 103:.\main.c      ****         }
 396              		.loc 1 103 0
 397 013e 0622     		movs	r2, #6
 398 0140 514B     		ldr	r3, .L32+28
 399 0142 1A70     		strb	r2, [r3]
 400              	.L22:
 105:.\main.c      ****            ShowMessage(1,DisplayMode2,22);
 401              		.loc 1 105 0
 402 0144 4F4B     		ldr	r3, .L32+24
 403 0146 1B78     		ldrb	r3, [r3]	@ zero_extendqisi2
 404 0148 022B     		cmp	r3, #2
 405 014a 07D1     		bne	.L23
 106:.\main.c      ****             digits = 7;
 406              		.loc 1 106 0
 407 014c 0120     		movs	r0, #1
 408 014e 04A9     		add	r1, sp, #16
 409 0150 1622     		movs	r2, #22
 410 0152 FFF7FEFF 		bl	ShowMessage
ARM GAS  C:\Users\Diego\AppData\Local\Temp\cctVJSXF.s 			page 29


 411              	.LVL26:
 107:.\main.c      ****         }
 412              		.loc 1 107 0
 413 0156 0722     		movs	r2, #7
 414 0158 4B4B     		ldr	r3, .L32+28
 415 015a 1A70     		strb	r2, [r3]
 416              	.L23:
 109:.\main.c      ****             ShowMessage(1,DisplayMode3,22);
 417              		.loc 1 109 0
 418 015c 494B     		ldr	r3, .L32+24
 419 015e 1B78     		ldrb	r3, [r3]	@ zero_extendqisi2
 420 0160 032B     		cmp	r3, #3
 421 0162 07D1     		bne	.L16
 110:.\main.c      ****             digits = 8;
 422              		.loc 1 110 0
 423 0164 0120     		movs	r0, #1
 424 0166 01A9     		add	r1, sp, #4
 425 0168 1622     		movs	r2, #22
 426 016a FFF7FEFF 		bl	ShowMessage
 427              	.LVL27:
 111:.\main.c      ****         }        
 428              		.loc 1 111 0
 429 016e 0822     		movs	r2, #8
 430 0170 454B     		ldr	r3, .L32+28
 431 0172 1A70     		strb	r2, [r3]
 432              	.L16:
 114:.\main.c      ****         SetPicture(1,DISPLAY_SELECCIONE_POSICION);        
 433              		.loc 1 114 0
 434 0174 404B     		ldr	r3, .L32+12
 435 0176 1B78     		ldrb	r3, [r3]	@ zero_extendqisi2
 436 0178 042B     		cmp	r3, #4
 437 017a 6DD1     		bne	.L24
 115:.\main.c      ****         ShowMessage(1,iniText,0);    
 438              		.loc 1 115 0
 439 017c 0120     		movs	r0, #1
 440 017e 2E21     		movs	r1, #46
 441 0180 FFF7FEFF 		bl	SetPicture
 442              	.LVL28:
 116:.\main.c      ****         CyDelay(300);
 443              		.loc 1 116 0
 444 0184 0120     		movs	r0, #1
 445 0186 19A9     		add	r1, sp, #100
 446 0188 0022     		movs	r2, #0
 447 018a FFF7FEFF 		bl	ShowMessage
 448              	.LVL29:
 117:.\main.c      ****         if(UnitType == 0){
 449              		.loc 1 117 0
 450 018e 4FF49670 		mov	r0, #300
 451 0192 FFF7FEFF 		bl	CyDelay
 452              	.LVL30:
 118:.\main.c      ****             side.a.hoseNumber = UnitType+1;
 453              		.loc 1 118 0
 454 0196 394B     		ldr	r3, .L32+16
 455 0198 1B78     		ldrb	r3, [r3]	@ zero_extendqisi2
 456 019a 7BB9     		cbnz	r3, .L25
 119:.\main.c      ****             side.b.hoseNumber = UnitType+1;
 457              		.loc 1 119 0
ARM GAS  C:\Users\Diego\AppData\Local\Temp\cctVJSXF.s 			page 30


 458 019c 0133     		adds	r3, r3, #1
 459 019e DBB2     		uxtb	r3, r3
 460 01a0 374A     		ldr	r2, .L32+20
 461 01a2 82F80231 		strb	r3, [r2, #258]
 120:.\main.c      ****             side.c.hoseNumber = UnitType+1;
 462              		.loc 1 120 0
 463 01a6 82F80532 		strb	r3, [r2, #517]
 121:.\main.c      ****             side.d.hoseNumber = UnitType+1;
 464              		.loc 1 121 0
 465 01aa 82F80833 		strb	r3, [r2, #776]
 122:.\main.c      ****             ShowMessage(1,Unit,0);  //Mostrar tipo de dispensador      
 466              		.loc 1 122 0
 467 01ae 82F80B34 		strb	r3, [r2, #1035]
 123:.\main.c      ****         }
 468              		.loc 1 123 0
 469 01b2 0120     		movs	r0, #1
 470 01b4 16A9     		add	r1, sp, #88
 471 01b6 0022     		movs	r2, #0
 472 01b8 FFF7FEFF 		bl	ShowMessage
 473              	.LVL31:
 474              	.L25:
 125:.\main.c      ****             side.a.hoseNumber = UnitType+1;
 475              		.loc 1 125 0
 476 01bc 2F4B     		ldr	r3, .L32+16
 477 01be 1B78     		ldrb	r3, [r3]	@ zero_extendqisi2
 478 01c0 012B     		cmp	r3, #1
 479 01c2 0FD1     		bne	.L26
 126:.\main.c      ****             side.b.hoseNumber = UnitType+1;
 480              		.loc 1 126 0
 481 01c4 0133     		adds	r3, r3, #1
 482 01c6 DBB2     		uxtb	r3, r3
 483 01c8 2D4A     		ldr	r2, .L32+20
 484 01ca 82F80231 		strb	r3, [r2, #258]
 127:.\main.c      ****             side.c.hoseNumber = UnitType+1;
 485              		.loc 1 127 0
 486 01ce 82F80532 		strb	r3, [r2, #517]
 128:.\main.c      ****             side.d.hoseNumber = UnitType+1;
 487              		.loc 1 128 0
 488 01d2 82F80833 		strb	r3, [r2, #776]
 129:.\main.c      ****             ShowMessage(1,Unit2,0);
 489              		.loc 1 129 0
 490 01d6 82F80B34 		strb	r3, [r2, #1035]
 130:.\main.c      ****         }
 491              		.loc 1 130 0
 492 01da 0120     		movs	r0, #1
 493 01dc 13A9     		add	r1, sp, #76
 494 01de 0022     		movs	r2, #0
 495 01e0 FFF7FEFF 		bl	ShowMessage
 496              	.LVL32:
 497              	.L26:
 132:.\main.c      ****             side.a.hoseNumber = UnitType+1;
 498              		.loc 1 132 0
 499 01e4 254B     		ldr	r3, .L32+16
 500 01e6 1B78     		ldrb	r3, [r3]	@ zero_extendqisi2
 501 01e8 022B     		cmp	r3, #2
 502 01ea 0FD1     		bne	.L27
 133:.\main.c      ****             side.b.hoseNumber = UnitType+1;
ARM GAS  C:\Users\Diego\AppData\Local\Temp\cctVJSXF.s 			page 31


 503              		.loc 1 133 0
 504 01ec 0133     		adds	r3, r3, #1
 505 01ee DBB2     		uxtb	r3, r3
 506 01f0 234A     		ldr	r2, .L32+20
 507 01f2 82F80231 		strb	r3, [r2, #258]
 134:.\main.c      ****             side.c.hoseNumber = UnitType+1;
 508              		.loc 1 134 0
 509 01f6 82F80532 		strb	r3, [r2, #517]
 135:.\main.c      ****             side.d.hoseNumber = UnitType+1;
 510              		.loc 1 135 0
 511 01fa 82F80833 		strb	r3, [r2, #776]
 136:.\main.c      ****            ShowMessage(1,Unit3,0);
 512              		.loc 1 136 0
 513 01fe 82F80B34 		strb	r3, [r2, #1035]
 137:.\main.c      ****         }
 514              		.loc 1 137 0
 515 0202 0120     		movs	r0, #1
 516 0204 10A9     		add	r1, sp, #64
 517 0206 0022     		movs	r2, #0
 518 0208 FFF7FEFF 		bl	ShowMessage
 519              	.LVL33:
 520              	.L27:
 139:.\main.c      ****             side.a.hoseNumber = UnitType+1;
 521              		.loc 1 139 0
 522 020c 1B4B     		ldr	r3, .L32+16
 523 020e 1B78     		ldrb	r3, [r3]	@ zero_extendqisi2
 524 0210 032B     		cmp	r3, #3
 525 0212 0FD1     		bne	.L28
 140:.\main.c      ****             side.b.hoseNumber = UnitType+1;
 526              		.loc 1 140 0
 527 0214 0133     		adds	r3, r3, #1
 528 0216 DBB2     		uxtb	r3, r3
 529 0218 194A     		ldr	r2, .L32+20
 530 021a 82F80231 		strb	r3, [r2, #258]
 141:.\main.c      ****             side.c.hoseNumber = UnitType+1;
 531              		.loc 1 141 0
 532 021e 82F80532 		strb	r3, [r2, #517]
 142:.\main.c      ****             side.d.hoseNumber = UnitType+1;
 533              		.loc 1 142 0
 534 0222 82F80833 		strb	r3, [r2, #776]
 143:.\main.c      ****             ShowMessage(1,Unit4,0);
 535              		.loc 1 143 0
 536 0226 82F80B34 		strb	r3, [r2, #1035]
 144:.\main.c      ****         }    
 537              		.loc 1 144 0
 538 022a 0120     		movs	r0, #1
 539 022c 0DA9     		add	r1, sp, #52
 540 022e 0022     		movs	r2, #0
 541 0230 FFF7FEFF 		bl	ShowMessage
 542              	.LVL34:
 543              	.L28:
 146:.\main.c      ****             ShowMessage(1,DisplayMode,22); //Mostrar modo de display
 544              		.loc 1 146 0
 545 0234 134B     		ldr	r3, .L32+24
 546 0236 1B78     		ldrb	r3, [r3]	@ zero_extendqisi2
 547 0238 012B     		cmp	r3, #1
 548 023a 04D1     		bne	.L29
ARM GAS  C:\Users\Diego\AppData\Local\Temp\cctVJSXF.s 			page 32


 147:.\main.c      ****         }
 549              		.loc 1 147 0
 550 023c 0120     		movs	r0, #1
 551 023e 07A9     		add	r1, sp, #28
 552 0240 1622     		movs	r2, #22
 553 0242 FFF7FEFF 		bl	ShowMessage
 554              	.LVL35:
 555              	.L29:
 149:.\main.c      ****            ShowMessage(1,DisplayMode2,22);
 556              		.loc 1 149 0
 557 0246 0F4B     		ldr	r3, .L32+24
 558 0248 1B78     		ldrb	r3, [r3]	@ zero_extendqisi2
 559 024a 022B     		cmp	r3, #2
 560 024c 04D1     		bne	.L24
 150:.\main.c      ****         }
 561              		.loc 1 150 0
 562 024e 0120     		movs	r0, #1
 563 0250 04A9     		add	r1, sp, #16
 564 0252 1622     		movs	r2, #22
 565 0254 FFF7FEFF 		bl	ShowMessage
 566              	.LVL36:
 567              	.L24:
 153:.\main.c      ****         SetPicture(1,DISPLAY_ERROR);        
 568              		.loc 1 153 0
 569 0258 074B     		ldr	r3, .L32+12
 570 025a 1B78     		ldrb	r3, [r3]	@ zero_extendqisi2
 571 025c 012B     		cmp	r3, #1
 572 025e 03D8     		bhi	.L15
 154:.\main.c      ****     }         
 573              		.loc 1 154 0
 574 0260 0120     		movs	r0, #1
 575 0262 0021     		movs	r1, #0
 576 0264 FFF7FEFF 		bl	SetPicture
 577              	.LVL37:
 578              	.L15:
 156:.\main.c      **** 
 579              		.loc 1 156 0
 580 0268 1CB0     		add	sp, sp, #112
 581              		.cfi_def_cfa_offset 8
 582              		@ sp needed
 583 026a 10BD     		pop	{r4, pc}
 584              	.L33:
 585              		.align	2
 586              	.L32:
 587 026c 00000000 		.word	.LC0
 588 0270 00000000 		.word	.LANCHOR0
 589 0274 0C000000 		.word	.LC2
 590 0278 00000000 		.word	NumPositions
 591 027c 00000000 		.word	UnitType
 592 0280 00000000 		.word	side
 593 0284 00000000 		.word	DDMode
 594 0288 00000000 		.word	digits
 595              		.cfi_endproc
 596              	.LFE66:
 597              		.size	InitDisplay1, .-InitDisplay1
 598              		.section	.text.InitDisplay2,"ax",%progbits
 599              		.align	2
ARM GAS  C:\Users\Diego\AppData\Local\Temp\cctVJSXF.s 			page 33


 600              		.global	InitDisplay2
 601              		.thumb
 602              		.thumb_func
 603              		.type	InitDisplay2, %function
 604              	InitDisplay2:
 605              	.LFB67:
 167:.\main.c      ****     if(NumPositions == 2){        
 606              		.loc 1 167 0
 607              		.cfi_startproc
 608              		@ args = 0, pretend = 0, frame = 0
 609              		@ frame_needed = 0, uses_anonymous_args = 0
 610 0000 08B5     		push	{r3, lr}
 611              		.cfi_def_cfa_offset 8
 612              		.cfi_offset 3, -8
 613              		.cfi_offset 14, -4
 168:.\main.c      ****         SetPicture(2,DISPLAY_INICIO0);  
 614              		.loc 1 168 0
 615 0002 104B     		ldr	r3, .L39
 616 0004 1B78     		ldrb	r3, [r3]	@ zero_extendqisi2
 617 0006 022B     		cmp	r3, #2
 618 0008 06D1     		bne	.L35
 169:.\main.c      ****         flowDisplay2 = 0;
 619              		.loc 1 169 0
 620 000a 0220     		movs	r0, #2
 621 000c 0121     		movs	r1, #1
 622 000e FFF7FEFF 		bl	SetPicture
 623              	.LVL38:
 170:.\main.c      ****     }
 624              		.loc 1 170 0
 625 0012 0022     		movs	r2, #0
 626 0014 0C4B     		ldr	r3, .L39+4
 627 0016 1A60     		str	r2, [r3]
 628              	.L35:
 172:.\main.c      ****         SetPicture(2,DISPLAY_SELECCIONE_POSICION);         
 629              		.loc 1 172 0
 630 0018 0A4B     		ldr	r3, .L39
 631 001a 1B78     		ldrb	r3, [r3]	@ zero_extendqisi2
 632 001c 042B     		cmp	r3, #4
 633 001e 03D1     		bne	.L36
 173:.\main.c      ****     }        
 634              		.loc 1 173 0
 635 0020 0220     		movs	r0, #2
 636 0022 2E21     		movs	r1, #46
 637 0024 FFF7FEFF 		bl	SetPicture
 638              	.LVL39:
 639              	.L36:
 175:.\main.c      ****         SetPicture(2,DISPLAY_ERROR);
 640              		.loc 1 175 0
 641 0028 064B     		ldr	r3, .L39
 642 002a 1B78     		ldrb	r3, [r3]	@ zero_extendqisi2
 643 002c 012B     		cmp	r3, #1
 644 002e 03D8     		bhi	.L37
 176:.\main.c      ****     }     
 645              		.loc 1 176 0
 646 0030 0220     		movs	r0, #2
 647 0032 0021     		movs	r1, #0
 648 0034 FFF7FEFF 		bl	SetPicture
ARM GAS  C:\Users\Diego\AppData\Local\Temp\cctVJSXF.s 			page 34


 649              	.LVL40:
 650              	.L37:
 178:.\main.c      **** }
 651              		.loc 1 178 0
 652 0038 0220     		movs	r0, #2
 653 003a 0449     		ldr	r1, .L39+8
 654 003c 0022     		movs	r2, #0
 655 003e FFF7FEFF 		bl	ShowMessage
 656              	.LVL41:
 657 0042 08BD     		pop	{r3, pc}
 658              	.L40:
 659              		.align	2
 660              	.L39:
 661 0044 00000000 		.word	NumPositions
 662 0048 00000000 		.word	flowDisplay2
 663 004c 00000000 		.word	.LANCHOR1
 664              		.cfi_endproc
 665              	.LFE67:
 666              		.size	InitDisplay2, .-InitDisplay2
 667              		.section	.text.InitPump,"ax",%progbits
 668              		.align	2
 669              		.global	InitPump
 670              		.thumb
 671              		.thumb_func
 672              		.type	InitPump, %function
 673              	InitPump:
 674              	.LFB68:
 190:.\main.c      ****     NumPositions = get_position();
 675              		.loc 1 190 0
 676              		.cfi_startproc
 677              		@ args = 0, pretend = 0, frame = 0
 678              		@ frame_needed = 0, uses_anonymous_args = 0
 679 0000 08B5     		push	{r3, lr}
 680              		.cfi_def_cfa_offset 8
 681              		.cfi_offset 3, -8
 682              		.cfi_offset 14, -4
 191:.\main.c      ****     if(NumPositions > 0){
 683              		.loc 1 191 0
 684 0002 FFF7FEFF 		bl	get_position
 685              	.LVL42:
 686 0006 2D4B     		ldr	r3, .L47
 687 0008 1870     		strb	r0, [r3]
 192:.\main.c      ****         if(!PumpIsInValidState(get_state(side.a.dir))){
 688              		.loc 1 192 0
 689 000a 0028     		cmp	r0, #0
 690 000c 55D0     		beq	.L41
 193:.\main.c      ****             SetPicture(1,DISPLAY_ERROR);
 691              		.loc 1 193 0
 692 000e 2C4B     		ldr	r3, .L47+4
 693 0010 1878     		ldrb	r0, [r3]	@ zero_extendqisi2
 694 0012 FFF7FEFF 		bl	get_state
 695              	.LVL43:
 696 0016 FFF7FEFF 		bl	PumpIsInValidState
 697              	.LVL44:
 698 001a 50B9     		cbnz	r0, .L43
 194:.\main.c      ****             SetPicture(2,DISPLAY_ERROR);
 699              		.loc 1 194 0
ARM GAS  C:\Users\Diego\AppData\Local\Temp\cctVJSXF.s 			page 35


 700 001c 0120     		movs	r0, #1
 701 001e 0021     		movs	r1, #0
 702 0020 FFF7FEFF 		bl	SetPicture
 703              	.LVL45:
 195:.\main.c      ****             NumPositions = 0;
 704              		.loc 1 195 0
 705 0024 0220     		movs	r0, #2
 706 0026 0021     		movs	r1, #0
 707 0028 FFF7FEFF 		bl	SetPicture
 708              	.LVL46:
 196:.\main.c      ****         }
 709              		.loc 1 196 0
 710 002c 0022     		movs	r2, #0
 711 002e 234B     		ldr	r3, .L47
 712 0030 1A70     		strb	r2, [r3]
 713              	.L43:
 198:.\main.c      ****             SetPicture(1,DISPLAY_ERROR);
 714              		.loc 1 198 0
 715 0032 234B     		ldr	r3, .L47+4
 716 0034 93F80301 		ldrb	r0, [r3, #259]	@ zero_extendqisi2
 717 0038 FFF7FEFF 		bl	get_state
 718              	.LVL47:
 719 003c FFF7FEFF 		bl	PumpIsInValidState
 720              	.LVL48:
 721 0040 50B9     		cbnz	r0, .L44
 199:.\main.c      ****             SetPicture(2,DISPLAY_ERROR);
 722              		.loc 1 199 0
 723 0042 0120     		movs	r0, #1
 724 0044 0021     		movs	r1, #0
 725 0046 FFF7FEFF 		bl	SetPicture
 726              	.LVL49:
 200:.\main.c      ****             NumPositions = 0;
 727              		.loc 1 200 0
 728 004a 0220     		movs	r0, #2
 729 004c 0021     		movs	r1, #0
 730 004e FFF7FEFF 		bl	SetPicture
 731              	.LVL50:
 201:.\main.c      ****         }
 732              		.loc 1 201 0
 733 0052 0022     		movs	r2, #0
 734 0054 194B     		ldr	r3, .L47
 735 0056 1A70     		strb	r2, [r3]
 736              	.L44:
 203:.\main.c      ****             NumPositions = get_position();
 737              		.loc 1 203 0
 738 0058 194B     		ldr	r3, .L47+4
 739 005a 1878     		ldrb	r0, [r3]	@ zero_extendqisi2
 740 005c FFF7FEFF 		bl	get_state
 741              	.LVL51:
 742 0060 FFF7FEFF 		bl	PumpIsInValidState
 743              	.LVL52:
 744 0064 48B3     		cbz	r0, .L41
 203:.\main.c      ****             NumPositions = get_position();
 745              		.loc 1 203 0 is_stmt 0 discriminator 1
 746 0066 164B     		ldr	r3, .L47+4
 747 0068 93F80301 		ldrb	r0, [r3, #259]	@ zero_extendqisi2
 748 006c FFF7FEFF 		bl	get_state
ARM GAS  C:\Users\Diego\AppData\Local\Temp\cctVJSXF.s 			page 36


 749              	.LVL53:
 750 0070 FFF7FEFF 		bl	PumpIsInValidState
 751              	.LVL54:
 752 0074 08B3     		cbz	r0, .L41
 204:.\main.c      ****             if(get_state(side.a.dir) ==0x06 && get_state(side.b.dir)==0x06){
 753              		.loc 1 204 0 is_stmt 1
 754 0076 FFF7FEFF 		bl	get_position
 755              	.LVL55:
 756 007a 104B     		ldr	r3, .L47
 757 007c 1870     		strb	r0, [r3]
 205:.\main.c      ****                 PumpCompleteConfiguration(side.a.dir);
 758              		.loc 1 205 0
 759 007e 104B     		ldr	r3, .L47+4
 760 0080 1878     		ldrb	r0, [r3]	@ zero_extendqisi2
 761 0082 FFF7FEFF 		bl	get_state
 762              	.LVL56:
 763 0086 0628     		cmp	r0, #6
 764 0088 0DD1     		bne	.L45
 205:.\main.c      ****                 PumpCompleteConfiguration(side.a.dir);
 765              		.loc 1 205 0 is_stmt 0 discriminator 1
 766 008a 0D4B     		ldr	r3, .L47+4
 767 008c 93F80301 		ldrb	r0, [r3, #259]	@ zero_extendqisi2
 768 0090 FFF7FEFF 		bl	get_state
 769              	.LVL57:
 770 0094 0628     		cmp	r0, #6
 771 0096 06D1     		bne	.L45
 206:.\main.c      ****                 StoreConfiguration();            
 772              		.loc 1 206 0 is_stmt 1
 773 0098 094B     		ldr	r3, .L47+4
 774 009a 1878     		ldrb	r0, [r3]	@ zero_extendqisi2
 775 009c FFF7FEFF 		bl	PumpCompleteConfiguration
 776              	.LVL58:
 207:.\main.c      ****             }else{
 777              		.loc 1 207 0
 778 00a0 FFF7FEFF 		bl	StoreConfiguration
 779              	.LVL59:
 780 00a4 08BD     		pop	{r3, pc}
 781              	.L45:
 209:.\main.c      ****                 SetPicture(2,DISPLAY_BAJE_MANIJA);
 782              		.loc 1 209 0
 783 00a6 0120     		movs	r0, #1
 784 00a8 0921     		movs	r1, #9
 785 00aa FFF7FEFF 		bl	SetPicture
 786              	.LVL60:
 210:.\main.c      ****                 InitPump();                
 787              		.loc 1 210 0
 788 00ae 0220     		movs	r0, #2
 789 00b0 0921     		movs	r1, #9
 790 00b2 FFF7FEFF 		bl	SetPicture
 791              	.LVL61:
 211:.\main.c      ****             }
 792              		.loc 1 211 0
 793 00b6 FFF7FEFF 		bl	InitPump
 794              	.LVL62:
 795              	.L41:
 796 00ba 08BD     		pop	{r3, pc}
 797              	.L48:
ARM GAS  C:\Users\Diego\AppData\Local\Temp\cctVJSXF.s 			page 37


 798              		.align	2
 799              	.L47:
 800 00bc 00000000 		.word	NumPositions
 801 00c0 00000000 		.word	side
 802              		.cfi_endproc
 803              	.LFE68:
 804              		.size	InitPump, .-InitPump
 805              		.section	.text.PrintTest,"ax",%progbits
 806              		.align	2
 807              		.global	PrintTest
 808              		.thumb
 809              		.thumb_func
 810              		.type	PrintTest, %function
 811              	PrintTest:
 812              	.LFB69:
 226:.\main.c      ****     uint8 dato[17]="Test de Impresion";
 813              		.loc 1 226 0
 814              		.cfi_startproc
 815              		@ args = 0, pretend = 0, frame = 24
 816              		@ frame_needed = 0, uses_anonymous_args = 0
 817 0000 30B5     		push	{r4, r5, lr}
 818              		.cfi_def_cfa_offset 12
 819              		.cfi_offset 4, -12
 820              		.cfi_offset 5, -8
 821              		.cfi_offset 14, -4
 822 0002 87B0     		sub	sp, sp, #28
 823              		.cfi_def_cfa_offset 40
 227:.\main.c      ****     uint8 x;
 824              		.loc 1 227 0
 825 0004 01AC     		add	r4, sp, #4
 826 0006 1C4D     		ldr	r5, .L55
 827 0008 0FCD     		ldmia	r5!, {r0, r1, r2, r3}
 828 000a 0FC4     		stmia	r4!, {r0, r1, r2, r3}
 829 000c 2B68     		ldr	r3, [r5]
 830 000e 2370     		strb	r3, [r4]
 831              	.LVL63:
 229:.\main.c      ****         write_psoc1(1,dato[x]);
 832              		.loc 1 229 0
 833 0010 0024     		movs	r4, #0
 834 0012 08E0     		b	.L50
 835              	.LVL64:
 836              	.L51:
 230:.\main.c      ****     }
 837              		.loc 1 230 0 discriminator 3
 838 0014 06AB     		add	r3, sp, #24
 839 0016 2344     		add	r3, r3, r4
 840 0018 0120     		movs	r0, #1
 841 001a 13F8141C 		ldrb	r1, [r3, #-20]	@ zero_extendqisi2
 842 001e FFF7FEFF 		bl	write_psoc1
 843              	.LVL65:
 229:.\main.c      ****         write_psoc1(1,dato[x]);
 844              		.loc 1 229 0 discriminator 3
 845 0022 0134     		adds	r4, r4, #1
 846              	.LVL66:
 847 0024 E4B2     		uxtb	r4, r4
 848              	.LVL67:
 849              	.L50:
ARM GAS  C:\Users\Diego\AppData\Local\Temp\cctVJSXF.s 			page 38


 229:.\main.c      ****         write_psoc1(1,dato[x]);
 850              		.loc 1 229 0 is_stmt 0 discriminator 1
 851 0026 102C     		cmp	r4, #16
 852 0028 F4D9     		bls	.L51
 232:.\main.c      ****     write_psoc1(1,10);
 853              		.loc 1 232 0 is_stmt 1
 854 002a 0120     		movs	r0, #1
 855 002c 0A21     		movs	r1, #10
 856 002e FFF7FEFF 		bl	write_psoc1
 857              	.LVL68:
 233:.\main.c      ****     write_psoc1(1,10);
 858              		.loc 1 233 0
 859 0032 0120     		movs	r0, #1
 860 0034 0A21     		movs	r1, #10
 861 0036 FFF7FEFF 		bl	write_psoc1
 862              	.LVL69:
 234:.\main.c      ****     for(x = 0; x<17;x++){
 863              		.loc 1 234 0
 864 003a 0120     		movs	r0, #1
 865 003c 0A21     		movs	r1, #10
 866 003e FFF7FEFF 		bl	write_psoc1
 867              	.LVL70:
 235:.\main.c      ****         write_psoc1(2,dato[x]);
 868              		.loc 1 235 0
 869 0042 0024     		movs	r4, #0
 870 0044 08E0     		b	.L52
 871              	.LVL71:
 872              	.L53:
 236:.\main.c      ****     }
 873              		.loc 1 236 0 discriminator 3
 874 0046 06AB     		add	r3, sp, #24
 875 0048 2344     		add	r3, r3, r4
 876 004a 0220     		movs	r0, #2
 877 004c 13F8141C 		ldrb	r1, [r3, #-20]	@ zero_extendqisi2
 878 0050 FFF7FEFF 		bl	write_psoc1
 879              	.LVL72:
 235:.\main.c      ****         write_psoc1(2,dato[x]);
 880              		.loc 1 235 0 discriminator 3
 881 0054 0134     		adds	r4, r4, #1
 882              	.LVL73:
 883 0056 E4B2     		uxtb	r4, r4
 884              	.LVL74:
 885              	.L52:
 235:.\main.c      ****         write_psoc1(2,dato[x]);
 886              		.loc 1 235 0 is_stmt 0 discriminator 1
 887 0058 102C     		cmp	r4, #16
 888 005a F4D9     		bls	.L53
 238:.\main.c      ****     write_psoc1(2,10);
 889              		.loc 1 238 0 is_stmt 1
 890 005c 0220     		movs	r0, #2
 891 005e 0A21     		movs	r1, #10
 892 0060 FFF7FEFF 		bl	write_psoc1
 893              	.LVL75:
 239:.\main.c      ****     write_psoc1(2,10);
 894              		.loc 1 239 0
 895 0064 0220     		movs	r0, #2
 896 0066 0A21     		movs	r1, #10
ARM GAS  C:\Users\Diego\AppData\Local\Temp\cctVJSXF.s 			page 39


 897 0068 FFF7FEFF 		bl	write_psoc1
 898              	.LVL76:
 240:.\main.c      **** }
 899              		.loc 1 240 0
 900 006c 0220     		movs	r0, #2
 901 006e 0A21     		movs	r1, #10
 902 0070 FFF7FEFF 		bl	write_psoc1
 903              	.LVL77:
 241:.\main.c      **** 
 904              		.loc 1 241 0
 905 0074 07B0     		add	sp, sp, #28
 906              		.cfi_def_cfa_offset 12
 907              		@ sp needed
 908 0076 30BD     		pop	{r4, r5, pc}
 909              	.LVL78:
 910              	.L56:
 911              		.align	2
 912              	.L55:
 913 0078 54000000 		.word	.LANCHOR0+84
 914              		.cfi_endproc
 915              	.LFE69:
 916              		.size	PrintTest, .-PrintTest
 917              		.section	.text.PollingPump,"ax",%progbits
 918              		.align	2
 919              		.global	PollingPump
 920              		.thumb
 921              		.thumb_func
 922              		.type	PollingPump, %function
 923              	PollingPump:
 924              	.LFB70:
 253:.\main.c      ****     uint8 x;
 925              		.loc 1 253 0
 926              		.cfi_startproc
 927              		@ args = 0, pretend = 0, frame = 0
 928              		@ frame_needed = 0, uses_anonymous_args = 0
 929 0000 38B5     		push	{r3, r4, r5, lr}
 930              		.cfi_def_cfa_offset 16
 931              		.cfi_offset 3, -16
 932              		.cfi_offset 4, -12
 933              		.cfi_offset 5, -8
 934              		.cfi_offset 14, -4
 255:.\main.c      ****         for(x= 0; x < 4; x++){
 935              		.loc 1 255 0
 936 0002 3A4B     		ldr	r3, .L68
 937 0004 1878     		ldrb	r0, [r3]	@ zero_extendqisi2
 938 0006 FFF7FEFF 		bl	get_state
 939              	.LVL79:
 940 000a FFF7FEFF 		bl	PumpIsInValidState
 941              	.LVL80:
 942 000e 90B1     		cbz	r0, .L58
 255:.\main.c      ****         for(x= 0; x < 4; x++){
 943              		.loc 1 255 0 is_stmt 0 discriminator 1
 944 0010 364B     		ldr	r3, .L68
 945 0012 93F80301 		ldrb	r0, [r3, #259]	@ zero_extendqisi2
 946 0016 FFF7FEFF 		bl	get_state
 947              	.LVL81:
 948 001a FFF7FEFF 		bl	PumpIsInValidState
ARM GAS  C:\Users\Diego\AppData\Local\Temp\cctVJSXF.s 			page 40


 949              	.LVL82:
 950 001e 38B9     		cbnz	r0, .L66
 951 0020 09E0     		b	.L58
 952              	.LVL83:
 953              	.L60:
 257:.\main.c      ****         }
 954              		.loc 1 257 0 is_stmt 1 discriminator 3
 955 0022 334A     		ldr	r2, .L68+4
 956 0024 D15C     		ldrb	r1, [r2, r3]	@ zero_extendqisi2
 957 0026 334A     		ldr	r2, .L68+8
 958 0028 D154     		strb	r1, [r2, r3]
 256:.\main.c      ****             PrevStatePump[x] = statePump[x];
 959              		.loc 1 256 0 discriminator 3
 960 002a 0133     		adds	r3, r3, #1
 961              	.LVL84:
 962 002c DBB2     		uxtb	r3, r3
 963              	.LVL85:
 964 002e 00E0     		b	.L59
 965              	.LVL86:
 966              	.L66:
 967 0030 0023     		movs	r3, #0
 968              	.L59:
 969              	.LVL87:
 256:.\main.c      ****             PrevStatePump[x] = statePump[x];
 970              		.loc 1 256 0 is_stmt 0 discriminator 1
 971 0032 032B     		cmp	r3, #3
 972 0034 F5D9     		bls	.L60
 973              	.LVL88:
 974              	.L58:
 260:.\main.c      ****         statePump[0] = get_state(side.a.dir);                 
 975              		.loc 1 260 0 is_stmt 1
 976 0036 304B     		ldr	r3, .L68+12
 977 0038 1B78     		ldrb	r3, [r3]	@ zero_extendqisi2
 978 003a 022B     		cmp	r3, #2
 979 003c 0AD1     		bne	.L61
 261:.\main.c      ****         statePump[1] = get_state(side.b.dir);          
 980              		.loc 1 261 0
 981 003e 2B4D     		ldr	r5, .L68
 982 0040 2878     		ldrb	r0, [r5]	@ zero_extendqisi2
 983 0042 FFF7FEFF 		bl	get_state
 984              	.LVL89:
 985 0046 2A4C     		ldr	r4, .L68+4
 986 0048 2070     		strb	r0, [r4]
 262:.\main.c      ****     }
 987              		.loc 1 262 0
 988 004a 95F80301 		ldrb	r0, [r5, #259]	@ zero_extendqisi2
 989 004e FFF7FEFF 		bl	get_state
 990              	.LVL90:
 991 0052 6070     		strb	r0, [r4, #1]
 992              	.L61:
 264:.\main.c      ****         statePump[0] = get_state(side.a.dir);               
 993              		.loc 1 264 0
 994 0054 284B     		ldr	r3, .L68+12
 995 0056 1B78     		ldrb	r3, [r3]	@ zero_extendqisi2
 996 0058 042B     		cmp	r3, #4
 997 005a 14D1     		bne	.L62
 265:.\main.c      ****         statePump[1] = get_state(side.b.dir);          
ARM GAS  C:\Users\Diego\AppData\Local\Temp\cctVJSXF.s 			page 41


 998              		.loc 1 265 0
 999 005c 234D     		ldr	r5, .L68
 1000 005e 2878     		ldrb	r0, [r5]	@ zero_extendqisi2
 1001 0060 FFF7FEFF 		bl	get_state
 1002              	.LVL91:
 1003 0064 224C     		ldr	r4, .L68+4
 1004 0066 2070     		strb	r0, [r4]
 266:.\main.c      ****         statePump[2] = get_state(side.c.dir);        
 1005              		.loc 1 266 0
 1006 0068 95F80301 		ldrb	r0, [r5, #259]	@ zero_extendqisi2
 1007 006c FFF7FEFF 		bl	get_state
 1008              	.LVL92:
 1009 0070 6070     		strb	r0, [r4, #1]
 267:.\main.c      ****         statePump[3] = get_state(side.d.dir);        
 1010              		.loc 1 267 0
 1011 0072 95F80602 		ldrb	r0, [r5, #518]	@ zero_extendqisi2
 1012 0076 FFF7FEFF 		bl	get_state
 1013              	.LVL93:
 1014 007a A070     		strb	r0, [r4, #2]
 268:.\main.c      ****     }
 1015              		.loc 1 268 0
 1016 007c 95F80903 		ldrb	r0, [r5, #777]	@ zero_extendqisi2
 1017 0080 FFF7FEFF 		bl	get_state
 1018              	.LVL94:
 1019 0084 E070     		strb	r0, [r4, #3]
 1020              	.L62:
 270:.\main.c      ****         InitPump();
 1021              		.loc 1 270 0
 1022 0086 1C4B     		ldr	r3, .L68+12
 1023 0088 1B78     		ldrb	r3, [r3]	@ zero_extendqisi2
 1024 008a 0BB9     		cbnz	r3, .L63
 271:.\main.c      ****     }
 1025              		.loc 1 271 0
 1026 008c FFF7FEFF 		bl	InitPump
 1027              	.LVL95:
 1028              	.L63:
 273:.\main.c      ****         SetPicture(1,DISPLAY_ERROR);
 1029              		.loc 1 273 0
 1030 0090 164B     		ldr	r3, .L68
 1031 0092 1878     		ldrb	r0, [r3]	@ zero_extendqisi2
 1032 0094 FFF7FEFF 		bl	get_state
 1033              	.LVL96:
 1034 0098 FFF7FEFF 		bl	PumpIsInValidState
 1035              	.LVL97:
 1036 009c 70B9     		cbnz	r0, .L64
 274:.\main.c      ****         SetPicture(2,DISPLAY_ERROR);
 1037              		.loc 1 274 0
 1038 009e 0120     		movs	r0, #1
 1039 00a0 0021     		movs	r1, #0
 1040 00a2 FFF7FEFF 		bl	SetPicture
 1041              	.LVL98:
 275:.\main.c      ****         NumPositions = 0;
 1042              		.loc 1 275 0
 1043 00a6 0220     		movs	r0, #2
 1044 00a8 0021     		movs	r1, #0
 1045 00aa FFF7FEFF 		bl	SetPicture
 1046              	.LVL99:
ARM GAS  C:\Users\Diego\AppData\Local\Temp\cctVJSXF.s 			page 42


 276:.\main.c      ****         flowDisplay1 = 0;
 1047              		.loc 1 276 0
 1048 00ae 0023     		movs	r3, #0
 1049 00b0 114A     		ldr	r2, .L68+12
 1050 00b2 1370     		strb	r3, [r2]
 277:.\main.c      ****         flowDisplay2 = 0;
 1051              		.loc 1 277 0
 1052 00b4 114A     		ldr	r2, .L68+16
 1053 00b6 1360     		str	r3, [r2]
 278:.\main.c      ****     }
 1054              		.loc 1 278 0
 1055 00b8 114A     		ldr	r2, .L68+20
 1056 00ba 1360     		str	r3, [r2]
 1057              	.L64:
 280:.\main.c      ****         SetPicture(1,DISPLAY_ERROR);
 1058              		.loc 1 280 0
 1059 00bc 0B4B     		ldr	r3, .L68
 1060 00be 93F80301 		ldrb	r0, [r3, #259]	@ zero_extendqisi2
 1061 00c2 FFF7FEFF 		bl	get_state
 1062              	.LVL100:
 1063 00c6 FFF7FEFF 		bl	PumpIsInValidState
 1064              	.LVL101:
 1065 00ca 70B9     		cbnz	r0, .L57
 281:.\main.c      ****         SetPicture(2,DISPLAY_ERROR);
 1066              		.loc 1 281 0
 1067 00cc 0120     		movs	r0, #1
 1068 00ce 0021     		movs	r1, #0
 1069 00d0 FFF7FEFF 		bl	SetPicture
 1070              	.LVL102:
 282:.\main.c      ****         NumPositions = 0;
 1071              		.loc 1 282 0
 1072 00d4 0220     		movs	r0, #2
 1073 00d6 0021     		movs	r1, #0
 1074 00d8 FFF7FEFF 		bl	SetPicture
 1075              	.LVL103:
 283:.\main.c      ****         flowDisplay1 = 0;
 1076              		.loc 1 283 0
 1077 00dc 0023     		movs	r3, #0
 1078 00de 064A     		ldr	r2, .L68+12
 1079 00e0 1370     		strb	r3, [r2]
 284:.\main.c      ****         flowDisplay2 = 0;
 1080              		.loc 1 284 0
 1081 00e2 064A     		ldr	r2, .L68+16
 1082 00e4 1360     		str	r3, [r2]
 285:.\main.c      ****     }
 1083              		.loc 1 285 0
 1084 00e6 064A     		ldr	r2, .L68+20
 1085 00e8 1360     		str	r3, [r2]
 1086              	.L57:
 1087 00ea 38BD     		pop	{r3, r4, r5, pc}
 1088              	.L69:
 1089              		.align	2
 1090              	.L68:
 1091 00ec 00000000 		.word	side
 1092 00f0 00000000 		.word	statePump
 1093 00f4 00000000 		.word	PrevStatePump
 1094 00f8 00000000 		.word	NumPositions
ARM GAS  C:\Users\Diego\AppData\Local\Temp\cctVJSXF.s 			page 43


 1095 00fc 00000000 		.word	flowDisplay1
 1096 0100 00000000 		.word	flowDisplay2
 1097              		.cfi_endproc
 1098              	.LFE70:
 1099              		.size	PollingPump, .-PollingPump
 1100              		.section	.text.PollingDisplay1,"ax",%progbits
 1101              		.align	2
 1102              		.global	PollingDisplay1
 1103              		.thumb
 1104              		.thumb_func
 1105              		.type	PollingDisplay1, %function
 1106              	PollingDisplay1:
 1107              	.LFB71:
 298:.\main.c      ****     uint8 x,y,localStatePump;     
 1108              		.loc 1 298 0
 1109              		.cfi_startproc
 1110              		@ args = 0, pretend = 0, frame = 0
 1111              		@ frame_needed = 0, uses_anonymous_args = 0
 1112 0000 70B5     		push	{r4, r5, r6, lr}
 1113              		.cfi_def_cfa_offset 16
 1114              		.cfi_offset 4, -16
 1115              		.cfi_offset 5, -12
 1116              		.cfi_offset 6, -8
 1117              		.cfi_offset 14, -4
 1118 0002 84B0     		sub	sp, sp, #16
 1119              		.cfi_def_cfa_offset 32
 300:.\main.c      ****         case 0:
 1120              		.loc 1 300 0
 1121 0004 B34B     		ldr	r3, .L235
 1122 0006 1B68     		ldr	r3, [r3]
 1123 0008 0F2B     		cmp	r3, #15
 1124 000a 00F22F87 		bhi	.L70
 1125 000e DFE813F0 		tbh	[pc, r3, lsl #1]
 1126              	.L73:
 1127 0012 1000     		.2byte	(.L72-.L73)/2
 1128 0014 2300     		.2byte	(.L74-.L73)/2
 1129 0016 4500     		.2byte	(.L75-.L73)/2
 1130 0018 A100     		.2byte	(.L76-.L73)/2
 1131 001a 5601     		.2byte	(.L77-.L73)/2
 1132 001c 9001     		.2byte	(.L78-.L73)/2
 1133 001e 0E02     		.2byte	(.L79-.L73)/2
 1134 0020 8302     		.2byte	(.L80-.L73)/2
 1135 0022 0403     		.2byte	(.L81-.L73)/2
 1136 0024 7303     		.2byte	(.L82-.L73)/2
 1137 0026 4604     		.2byte	(.L83-.L73)/2
 1138 0028 8C04     		.2byte	(.L84-.L73)/2
 1139 002a 0105     		.2byte	(.L85-.L73)/2
 1140 002c 7F05     		.2byte	(.L86-.L73)/2
 1141 002e D405     		.2byte	(.L87-.L73)/2
 1142 0030 B706     		.2byte	(.L88-.L73)/2
 1143              		.p2align 1
 1144              	.L72:
 302:.\main.c      ****             flowDisplay1 =1;
 1145              		.loc 1 302 0
 1146 0032 FFF7FEFF 		bl	InitDisplay1
 1147              	.LVL104:
 303:.\main.c      ****             isr_3_Stop(); 
ARM GAS  C:\Users\Diego\AppData\Local\Temp\cctVJSXF.s 			page 44


 1148              		.loc 1 303 0
 1149 0036 0122     		movs	r2, #1
 1150 0038 A64B     		ldr	r3, .L235
 1151 003a 1A60     		str	r2, [r3]
 304:.\main.c      ****             Timer_Animacion_Stop();
 1152              		.loc 1 304 0
 1153 003c FFF7FEFF 		bl	isr_3_Stop
 1154              	.LVL105:
 305:.\main.c      ****             count_protector = 0;
 1155              		.loc 1 305 0
 1156 0040 FFF7FEFF 		bl	Timer_Animacion_Stop
 1157              	.LVL106:
 306:.\main.c      ****             bufferDisplay1.saleType = 0;
 1158              		.loc 1 306 0
 1159 0044 0023     		movs	r3, #0
 1160 0046 A44A     		ldr	r2, .L235+4
 1161 0048 1370     		strb	r3, [r2]
 307:.\main.c      ****             bufferDisplay1.flagEndSale = false;
 1162              		.loc 1 307 0
 1163 004a A44A     		ldr	r2, .L235+8
 1164 004c 82F86130 		strb	r3, [r2, #97]
 308:.\main.c      ****         break;
 1165              		.loc 1 308 0
 1166 0050 82F80331 		strb	r3, [r2, #259]
 309:.\main.c      ****         case 1: //Menu
 1167              		.loc 1 309 0
 1168 0054 00F00ABF 		b	.L70
 1169              	.L74:
 311:.\main.c      ****                 if((Display1_rxBuffer[0]==0xAA) && (Display1_rxBuffer[6]==0xC3) && (Display1_rxBuff
 1170              		.loc 1 311 0
 1171 0058 FFF7FEFF 		bl	Display1_GetRxBufferSize
 1172              	.LVL107:
 1173 005c 0828     		cmp	r0, #8
 1174 005e 40F00587 		bne	.L70
 312:.\main.c      ****                     flowDisplay1 = 2;      //Pantalla forma de pago                      
 1175              		.loc 1 312 0
 1176 0062 9F4B     		ldr	r3, .L235+12
 1177 0064 1B78     		ldrb	r3, [r3]	@ zero_extendqisi2
 1178 0066 DBB2     		uxtb	r3, r3
 1179 0068 AA2B     		cmp	r3, #170
 1180 006a 10D1     		bne	.L89
 312:.\main.c      ****                     flowDisplay1 = 2;      //Pantalla forma de pago                      
 1181              		.loc 1 312 0 is_stmt 0 discriminator 1
 1182 006c 9C4B     		ldr	r3, .L235+12
 1183 006e 9B79     		ldrb	r3, [r3, #6]	@ zero_extendqisi2
 1184 0070 DBB2     		uxtb	r3, r3
 1185 0072 C32B     		cmp	r3, #195
 1186 0074 0BD1     		bne	.L89
 312:.\main.c      ****                     flowDisplay1 = 2;      //Pantalla forma de pago                      
 1187              		.loc 1 312 0 discriminator 2
 1188 0076 9A4B     		ldr	r3, .L235+12
 1189 0078 DB79     		ldrb	r3, [r3, #7]	@ zero_extendqisi2
 1190 007a DBB2     		uxtb	r3, r3
 1191 007c 3C2B     		cmp	r3, #60
 1192 007e 06D1     		bne	.L89
 313:.\main.c      ****                     SetPicture(1,DISPLAY_FORMA_PAGO_DESEADA);                                      
 1193              		.loc 1 313 0 is_stmt 1
ARM GAS  C:\Users\Diego\AppData\Local\Temp\cctVJSXF.s 			page 45


 1194 0080 0222     		movs	r2, #2
 1195 0082 944B     		ldr	r3, .L235
 1196 0084 1A60     		str	r2, [r3]
 314:.\main.c      ****                 }  
 1197              		.loc 1 314 0
 1198 0086 0120     		movs	r0, #1
 1199 0088 0421     		movs	r1, #4
 1200 008a FFF7FEFF 		bl	SetPicture
 1201              	.LVL108:
 1202              	.L89:
 316:.\main.c      ****                 Display1_ClearRxBuffer();
 1203              		.loc 1 316 0
 1204 008e 0A20     		movs	r0, #10
 1205 0090 FFF7FEFF 		bl	CyDelay
 1206              	.LVL109:
 317:.\main.c      ****             }
 1207              		.loc 1 317 0
 1208 0094 FFF7FEFF 		bl	Display1_ClearRxBuffer
 1209              	.LVL110:
 1210 0098 00F0E8BE 		b	.L70
 1211              	.L75:
 321:.\main.c      ****                 if((Display1_rxBuffer[0]==0xAA) && (Display1_rxBuffer[6]==0xC3) && (Display1_rxBuff
 1212              		.loc 1 321 0
 1213 009c FFF7FEFF 		bl	Display1_GetRxBufferSize
 1214              	.LVL111:
 1215 00a0 0828     		cmp	r0, #8
 1216 00a2 40F0E386 		bne	.L70
 322:.\main.c      ****                     switch(Display1_rxBuffer[3]){
 1217              		.loc 1 322 0
 1218 00a6 8E4B     		ldr	r3, .L235+12
 1219 00a8 1B78     		ldrb	r3, [r3]	@ zero_extendqisi2
 1220 00aa DBB2     		uxtb	r3, r3
 1221 00ac AA2B     		cmp	r3, #170
 1222 00ae 4AD1     		bne	.L90
 322:.\main.c      ****                     switch(Display1_rxBuffer[3]){
 1223              		.loc 1 322 0 is_stmt 0 discriminator 1
 1224 00b0 8B4B     		ldr	r3, .L235+12
 1225 00b2 9B79     		ldrb	r3, [r3, #6]	@ zero_extendqisi2
 1226 00b4 DBB2     		uxtb	r3, r3
 1227 00b6 C32B     		cmp	r3, #195
 1228 00b8 45D1     		bne	.L90
 322:.\main.c      ****                     switch(Display1_rxBuffer[3]){
 1229              		.loc 1 322 0 discriminator 2
 1230 00ba 894B     		ldr	r3, .L235+12
 1231 00bc DB79     		ldrb	r3, [r3, #7]	@ zero_extendqisi2
 1232 00be DBB2     		uxtb	r3, r3
 1233 00c0 3C2B     		cmp	r3, #60
 1234 00c2 40D1     		bne	.L90
 323:.\main.c      ****                         case 0x0D:  //Pantalla efectivo              
 1235              		.loc 1 323 0 is_stmt 1
 1236 00c4 864B     		ldr	r3, .L235+12
 1237 00c6 DB78     		ldrb	r3, [r3, #3]	@ zero_extendqisi2
 1238 00c8 DBB2     		uxtb	r3, r3
 1239 00ca 452B     		cmp	r3, #69
 1240 00cc 24D0     		beq	.L91
 1241 00ce 04D8     		bhi	.L92
 1242 00d0 0D2B     		cmp	r3, #13
ARM GAS  C:\Users\Diego\AppData\Local\Temp\cctVJSXF.s 			page 46


 1243 00d2 07D0     		beq	.L93
 1244 00d4 0E2B     		cmp	r3, #14
 1245 00d6 10D0     		beq	.L94
 1246 00d8 35E0     		b	.L90
 1247              	.L92:
 1248 00da 7E2B     		cmp	r3, #126
 1249 00dc 2CD0     		beq	.L95
 1250 00de 942B     		cmp	r3, #148
 1251 00e0 22D0     		beq	.L96
 1252 00e2 30E0     		b	.L90
 1253              	.L93:
 325:.\main.c      ****                             bufferDisplay1.saleType = 1;
 1254              		.loc 1 325 0
 1255 00e4 0322     		movs	r2, #3
 1256 00e6 7B4B     		ldr	r3, .L235
 1257 00e8 1A60     		str	r2, [r3]
 326:.\main.c      ****                             SetPicture(1,DISPLAY_FORMA_PROGRAMACION);                            
 1258              		.loc 1 326 0
 1259 00ea 0120     		movs	r0, #1
 1260 00ec 7B4B     		ldr	r3, .L235+8
 1261 00ee 83F86100 		strb	r0, [r3, #97]
 327:.\main.c      ****                         break;
 1262              		.loc 1 327 0
 1263 00f2 0521     		movs	r1, #5
 1264 00f4 FFF7FEFF 		bl	SetPicture
 1265              	.LVL112:
 328:.\main.c      ****                         case 0x0E:  //Pantalla credito  
 1266              		.loc 1 328 0
 1267 00f8 25E0     		b	.L90
 1268              	.L94:
 330:.\main.c      ****                             bufferDisplay1.saleType = 2;
 1269              		.loc 1 330 0
 1270 00fa 0A22     		movs	r2, #10
 1271 00fc 754B     		ldr	r3, .L235
 1272 00fe 1A60     		str	r2, [r3]
 331:.\main.c      ****                             count_protector = 0;
 1273              		.loc 1 331 0
 1274 0100 0222     		movs	r2, #2
 1275 0102 764B     		ldr	r3, .L235+8
 1276 0104 83F86120 		strb	r2, [r3, #97]
 332:.\main.c      ****                             SetPicture(1,DISPLAY_ID_DIGITAL);                            
 1277              		.loc 1 332 0
 1278 0108 0022     		movs	r2, #0
 1279 010a 734B     		ldr	r3, .L235+4
 1280 010c 1A70     		strb	r2, [r3]
 333:.\main.c      ****                         break;
 1281              		.loc 1 333 0
 1282 010e 0120     		movs	r0, #1
 1283 0110 8521     		movs	r1, #133
 1284 0112 FFF7FEFF 		bl	SetPicture
 1285              	.LVL113:
 334:.\main.c      ****                         case 0x45:  //Pantalla otras opciones 
 1286              		.loc 1 334 0
 1287 0116 16E0     		b	.L90
 1288              	.L91:
 336:.\main.c      ****                             SetPicture(1,DISPLAY_OPERACIONES);                            
 1289              		.loc 1 336 0
ARM GAS  C:\Users\Diego\AppData\Local\Temp\cctVJSXF.s 			page 47


 1290 0118 0C22     		movs	r2, #12
 1291 011a 6E4B     		ldr	r3, .L235
 1292 011c 1A60     		str	r2, [r3]
 337:.\main.c      ****                         break;
 1293              		.loc 1 337 0
 1294 011e 0120     		movs	r0, #1
 1295 0120 8321     		movs	r1, #131
 1296 0122 FFF7FEFF 		bl	SetPicture
 1297              	.LVL114:
 338:.\main.c      ****                             
 1298              		.loc 1 338 0
 1299 0126 0EE0     		b	.L90
 1300              	.L96:
 341:.\main.c      ****                             SetPicture(1,DISPLAY_INICIO0);                            
 1301              		.loc 1 341 0
 1302 0128 0022     		movs	r2, #0
 1303 012a 6A4B     		ldr	r3, .L235
 1304 012c 1A60     		str	r2, [r3]
 342:.\main.c      ****                         break;
 1305              		.loc 1 342 0
 1306 012e 0120     		movs	r0, #1
 1307 0130 0146     		mov	r1, r0
 1308 0132 FFF7FEFF 		bl	SetPicture
 1309              	.LVL115:
 343:.\main.c      ****                         
 1310              		.loc 1 343 0
 1311 0136 06E0     		b	.L90
 1312              	.L95:
 346:.\main.c      ****                             SetPicture(1,DISPLAY_INICIO0);                            
 1313              		.loc 1 346 0
 1314 0138 0022     		movs	r2, #0
 1315 013a 664B     		ldr	r3, .L235
 1316 013c 1A60     		str	r2, [r3]
 347:.\main.c      ****                         break;
 1317              		.loc 1 347 0
 1318 013e 0120     		movs	r0, #1
 1319 0140 0146     		mov	r1, r0
 1320 0142 FFF7FEFF 		bl	SetPicture
 1321              	.LVL116:
 1322              	.L90:
 351:.\main.c      ****                 Display1_ClearRxBuffer();
 1323              		.loc 1 351 0
 1324 0146 0A20     		movs	r0, #10
 1325 0148 FFF7FEFF 		bl	CyDelay
 1326              	.LVL117:
 352:.\main.c      ****             }
 1327              		.loc 1 352 0
 1328 014c FFF7FEFF 		bl	Display1_ClearRxBuffer
 1329              	.LVL118:
 1330 0150 00F08CBE 		b	.L70
 1331              	.L76:
 357:.\main.c      ****                 if((Display1_rxBuffer[0]==0xAA) && (Display1_rxBuffer[6]==0xC3) && (Display1_rxBuff
 1332              		.loc 1 357 0
 1333 0154 FFF7FEFF 		bl	Display1_GetRxBufferSize
 1334              	.LVL119:
 1335 0158 0828     		cmp	r0, #8
 1336 015a 40F08786 		bne	.L70
ARM GAS  C:\Users\Diego\AppData\Local\Temp\cctVJSXF.s 			page 48


 358:.\main.c      ****                     switch(Display1_rxBuffer[3]){
 1337              		.loc 1 358 0
 1338 015e 604B     		ldr	r3, .L235+12
 1339 0160 1B78     		ldrb	r3, [r3]	@ zero_extendqisi2
 1340 0162 DBB2     		uxtb	r3, r3
 1341 0164 AA2B     		cmp	r3, #170
 1342 0166 40F0A380 		bne	.L97
 358:.\main.c      ****                     switch(Display1_rxBuffer[3]){
 1343              		.loc 1 358 0 is_stmt 0 discriminator 1
 1344 016a 5D4B     		ldr	r3, .L235+12
 1345 016c 9B79     		ldrb	r3, [r3, #6]	@ zero_extendqisi2
 1346 016e DBB2     		uxtb	r3, r3
 1347 0170 C32B     		cmp	r3, #195
 1348 0172 40F09D80 		bne	.L97
 358:.\main.c      ****                     switch(Display1_rxBuffer[3]){
 1349              		.loc 1 358 0 discriminator 2
 1350 0176 5A4B     		ldr	r3, .L235+12
 1351 0178 DB79     		ldrb	r3, [r3, #7]	@ zero_extendqisi2
 1352 017a DBB2     		uxtb	r3, r3
 1353 017c 3C2B     		cmp	r3, #60
 1354 017e 40F09780 		bne	.L97
 359:.\main.c      ****                         case 0x0F:  //Preset dinero                
 1355              		.loc 1 359 0 is_stmt 1
 1356 0182 574B     		ldr	r3, .L235+12
 1357 0184 DB78     		ldrb	r3, [r3, #3]	@ zero_extendqisi2
 1358 0186 DBB2     		uxtb	r3, r3
 1359 0188 3B2B     		cmp	r3, #59
 1360 018a 00F08280 		beq	.L98
 1361 018e 04D8     		bhi	.L99
 1362 0190 0F2B     		cmp	r3, #15
 1363 0192 0BD0     		beq	.L100
 1364 0194 102B     		cmp	r3, #16
 1365 0196 25D0     		beq	.L101
 1366 0198 8AE0     		b	.L97
 1367              	.L99:
 1368 019a 7E2B     		cmp	r3, #126
 1369 019c 00F08180 		beq	.L102
 1370 01a0 942B     		cmp	r3, #148
 1371 01a2 6ED0     		beq	.L103
 1372 01a4 432B     		cmp	r3, #67
 1373 01a6 40F08380 		bne	.L97
 1374 01aa 37E0     		b	.L104
 1375              	.L100:
 361:.\main.c      ****                             bufferDisplay1.presetType[0]=2;
 1376              		.loc 1 361 0
 1377 01ac 0422     		movs	r2, #4
 1378 01ae 494B     		ldr	r3, .L235
 1379 01b0 1A60     		str	r2, [r3]
 362:.\main.c      ****                             bufferDisplay1.presetType[1]='D';
 1380              		.loc 1 362 0
 1381 01b2 4A4B     		ldr	r3, .L235+8
 1382 01b4 0224     		movs	r4, #2
 1383 01b6 83F86340 		strb	r4, [r3, #99]
 363:.\main.c      ****                             numberKeys1=0;
 1384              		.loc 1 363 0
 1385 01ba 4422     		movs	r2, #68
 1386 01bc 83F86420 		strb	r2, [r3, #100]
ARM GAS  C:\Users\Diego\AppData\Local\Temp\cctVJSXF.s 			page 49


 364:.\main.c      ****                             SetPicture(1,DISPLAY_INTRODUZCA_VALOR);   
 1387              		.loc 1 364 0
 1388 01c0 0025     		movs	r5, #0
 1389 01c2 484B     		ldr	r3, .L235+16
 1390 01c4 1D70     		strb	r5, [r3]
 365:.\main.c      ****                             WriteLCD(1,'$',3,2,1,0x0000,'N');
 1391              		.loc 1 365 0
 1392 01c6 0120     		movs	r0, #1
 1393 01c8 0621     		movs	r1, #6
 1394 01ca FFF7FEFF 		bl	SetPicture
 1395              	.LVL120:
 366:.\main.c      ****                         break; 
 1396              		.loc 1 366 0
 1397 01ce 0120     		movs	r0, #1
 1398 01d0 0090     		str	r0, [sp]
 1399 01d2 0195     		str	r5, [sp, #4]
 1400 01d4 4E23     		movs	r3, #78
 1401 01d6 0293     		str	r3, [sp, #8]
 1402 01d8 2421     		movs	r1, #36
 1403 01da 0322     		movs	r2, #3
 1404 01dc 2346     		mov	r3, r4
 1405 01de FFF7FEFF 		bl	WriteLCD
 1406              	.LVL121:
 367:.\main.c      ****                         case 0x10:  //Preset volumen                 
 1407              		.loc 1 367 0
 1408 01e2 65E0     		b	.L97
 1409              	.L101:
 369:.\main.c      ****                             bufferDisplay1.presetType[0]=1;
 1410              		.loc 1 369 0
 1411 01e4 0422     		movs	r2, #4
 1412 01e6 3B4B     		ldr	r3, .L235
 1413 01e8 1A60     		str	r2, [r3]
 370:.\main.c      ****                             bufferDisplay1.presetType[1]='V';
 1414              		.loc 1 370 0
 1415 01ea 3C4B     		ldr	r3, .L235+8
 1416 01ec 0124     		movs	r4, #1
 1417 01ee 83F86340 		strb	r4, [r3, #99]
 371:.\main.c      ****                             numberKeys1=0;                            
 1418              		.loc 1 371 0
 1419 01f2 5625     		movs	r5, #86
 1420 01f4 83F86450 		strb	r5, [r3, #100]
 372:.\main.c      ****                             SetPicture(1,DISPLAY_INTRODUZCA_VOLUMEN);                            
 1421              		.loc 1 372 0
 1422 01f8 0026     		movs	r6, #0
 1423 01fa 3A4B     		ldr	r3, .L235+16
 1424 01fc 1E70     		strb	r6, [r3]
 373:.\main.c      ****                             WriteLCD(1,'V',3,2,1,0x0000,'N');                            
 1425              		.loc 1 373 0
 1426 01fe 2046     		mov	r0, r4
 1427 0200 0D21     		movs	r1, #13
 1428 0202 FFF7FEFF 		bl	SetPicture
 1429              	.LVL122:
 374:.\main.c      ****                         break;
 1430              		.loc 1 374 0
 1431 0206 0094     		str	r4, [sp]
 1432 0208 0196     		str	r6, [sp, #4]
 1433 020a 4E23     		movs	r3, #78
ARM GAS  C:\Users\Diego\AppData\Local\Temp\cctVJSXF.s 			page 50


 1434 020c 0293     		str	r3, [sp, #8]
 1435 020e 2046     		mov	r0, r4
 1436 0210 2946     		mov	r1, r5
 1437 0212 0322     		movs	r2, #3
 1438 0214 0223     		movs	r3, #2
 1439 0216 FFF7FEFF 		bl	WriteLCD
 1440              	.LVL123:
 375:.\main.c      ****                         case 0x43:  //Preset full 
 1441              		.loc 1 375 0
 1442 021a 49E0     		b	.L97
 1443              	.L104:
 377:.\main.c      ****                             bufferDisplay1.presetType[1]='F';
 1444              		.loc 1 377 0
 1445 021c 2F4B     		ldr	r3, .L235+8
 1446 021e 0222     		movs	r2, #2
 1447 0220 83F86320 		strb	r2, [r3, #99]
 378:.\main.c      ****                             for(x=1;x<(digits-1);x++){
 1448              		.loc 1 378 0
 1449 0224 4622     		movs	r2, #70
 1450 0226 83F86420 		strb	r2, [r3, #100]
 1451              	.LVL124:
 379:.\main.c      ****                                 bufferDisplay1.presetValue[0][x]='9';
 1452              		.loc 1 379 0
 1453 022a 0123     		movs	r3, #1
 1454 022c 06E0     		b	.L105
 1455              	.LVL125:
 1456              	.L106:
 380:.\main.c      ****                             }
 1457              		.loc 1 380 0 discriminator 3
 1458 022e 2B4A     		ldr	r2, .L235+8
 1459 0230 1A44     		add	r2, r2, r3
 1460 0232 3921     		movs	r1, #57
 1461 0234 82F86510 		strb	r1, [r2, #101]
 379:.\main.c      ****                                 bufferDisplay1.presetValue[0][x]='9';
 1462              		.loc 1 379 0 discriminator 3
 1463 0238 0133     		adds	r3, r3, #1
 1464              	.LVL126:
 1465 023a DBB2     		uxtb	r3, r3
 1466              	.LVL127:
 1467              	.L105:
 379:.\main.c      ****                                 bufferDisplay1.presetValue[0][x]='9';
 1468              		.loc 1 379 0 is_stmt 0 discriminator 1
 1469 023c 1A46     		mov	r2, r3
 1470 023e 2A49     		ldr	r1, .L235+20
 1471 0240 0978     		ldrb	r1, [r1]	@ zero_extendqisi2
 1472 0242 481E     		subs	r0, r1, #1
 1473 0244 8342     		cmp	r3, r0
 1474 0246 F2DB     		blt	.L106
 382:.\main.c      ****                             bufferDisplay1.presetValue[0][x+1]='0';
 1475              		.loc 1 382 0 is_stmt 1
 1476 0248 244B     		ldr	r3, .L235+8
 1477              	.LVL128:
 1478 024a 9C18     		adds	r4, r3, r2
 1479 024c 3020     		movs	r0, #48
 1480 024e 84F86500 		strb	r0, [r4, #101]
 383:.\main.c      ****                             bufferDisplay1.presetValue[0][0]=digits;
 1481              		.loc 1 383 0
ARM GAS  C:\Users\Diego\AppData\Local\Temp\cctVJSXF.s 			page 51


 1482 0252 84F86600 		strb	r0, [r4, #102]
 384:.\main.c      ****                             for(x=0;x<=bufferDisplay1.presetValue[0][0];x++){
 1483              		.loc 1 384 0
 1484 0256 83F86510 		strb	r1, [r3, #101]
 1485              	.LVL129:
 385:.\main.c      ****                                 bufferDisplay1.presetValue[1][x]=bufferDisplay1.presetValue[0][x];
 1486              		.loc 1 385 0
 1487 025a 0023     		movs	r3, #0
 1488 025c 07E0     		b	.L107
 1489              	.LVL130:
 1490              	.L108:
 386:.\main.c      ****                             }
 1491              		.loc 1 386 0 discriminator 3
 1492 025e 1F4A     		ldr	r2, .L235+8
 1493 0260 1A44     		add	r2, r2, r3
 1494 0262 92F86500 		ldrb	r0, [r2, #101]	@ zero_extendqisi2
 1495 0266 82F86F00 		strb	r0, [r2, #111]
 385:.\main.c      ****                                 bufferDisplay1.presetValue[1][x]=bufferDisplay1.presetValue[0][x];
 1496              		.loc 1 385 0 discriminator 3
 1497 026a 0133     		adds	r3, r3, #1
 1498              	.LVL131:
 1499 026c DBB2     		uxtb	r3, r3
 1500              	.LVL132:
 1501              	.L107:
 385:.\main.c      ****                                 bufferDisplay1.presetValue[1][x]=bufferDisplay1.presetValue[0][x];
 1502              		.loc 1 385 0 is_stmt 0 discriminator 1
 1503 026e 8B42     		cmp	r3, r1
 1504 0270 F5D9     		bls	.L108
 388:.\main.c      ****                             SetPicture(1,DISPLAY_SELECCIONE_PRODUCTO4);                          
 1505              		.loc 1 388 0 is_stmt 1
 1506 0272 0522     		movs	r2, #5
 1507 0274 174B     		ldr	r3, .L235
 1508              	.LVL133:
 1509 0276 1A60     		str	r2, [r3]
 389:.\main.c      ****                         break;
 1510              		.loc 1 389 0
 1511 0278 0120     		movs	r0, #1
 1512 027a 8621     		movs	r1, #134
 1513 027c FFF7FEFF 		bl	SetPicture
 1514              	.LVL134:
 390:.\main.c      ****                         case 0x94:  //Retroceso 
 1515              		.loc 1 390 0
 1516 0280 16E0     		b	.L97
 1517              	.L103:
 392:.\main.c      ****                             SetPicture(1,DISPLAY_INICIO0);                                         
 1518              		.loc 1 392 0
 1519 0282 0022     		movs	r2, #0
 1520 0284 134B     		ldr	r3, .L235
 1521 0286 1A60     		str	r2, [r3]
 393:.\main.c      ****                         break;
 1522              		.loc 1 393 0
 1523 0288 0120     		movs	r0, #1
 1524 028a 0146     		mov	r1, r0
 1525 028c FFF7FEFF 		bl	SetPicture
 1526              	.LVL135:
 394:.\main.c      ****                         case 0x3B:  //Pantalla Inicial    
 1527              		.loc 1 394 0
ARM GAS  C:\Users\Diego\AppData\Local\Temp\cctVJSXF.s 			page 52


 1528 0290 0EE0     		b	.L97
 1529              	.L98:
 396:.\main.c      ****                             SetPicture(1,DISPLAY_INICIO0);                            
 1530              		.loc 1 396 0
 1531 0292 0022     		movs	r2, #0
 1532 0294 0F4B     		ldr	r3, .L235
 1533 0296 1A60     		str	r2, [r3]
 397:.\main.c      ****                         break;
 1534              		.loc 1 397 0
 1535 0298 0120     		movs	r0, #1
 1536 029a 0146     		mov	r1, r0
 1537 029c FFF7FEFF 		bl	SetPicture
 1538              	.LVL136:
 398:.\main.c      ****                         case 0x7E:  //Pantalla Inicial    
 1539              		.loc 1 398 0
 1540 02a0 06E0     		b	.L97
 1541              	.L102:
 400:.\main.c      ****                             SetPicture(1,DISPLAY_INICIO0);                            
 1542              		.loc 1 400 0
 1543 02a2 0022     		movs	r2, #0
 1544 02a4 0B4B     		ldr	r3, .L235
 1545 02a6 1A60     		str	r2, [r3]
 401:.\main.c      ****                         break;
 1546              		.loc 1 401 0
 1547 02a8 0120     		movs	r0, #1
 1548 02aa 0146     		mov	r1, r0
 1549 02ac FFF7FEFF 		bl	SetPicture
 1550              	.LVL137:
 1551              	.L97:
 405:.\main.c      ****                 Display1_ClearRxBuffer();
 1552              		.loc 1 405 0
 1553 02b0 0A20     		movs	r0, #10
 1554 02b2 FFF7FEFF 		bl	CyDelay
 1555              	.LVL138:
 406:.\main.c      ****             }
 1556              		.loc 1 406 0
 1557 02b6 FFF7FEFF 		bl	Display1_ClearRxBuffer
 1558              	.LVL139:
 1559 02ba 00F0D7BD 		b	.L70
 1560              	.L77:
 411:.\main.c      ****                 case 0:  //Pantalla Inicial    
 1561              		.loc 1 411 0
 1562 02be 0120     		movs	r0, #1
 1563 02c0 094B     		ldr	r3, .L235+20
 1564 02c2 1978     		ldrb	r1, [r3]	@ zero_extendqisi2
 1565 02c4 0022     		movs	r2, #0
 1566 02c6 FFF7FEFF 		bl	alphanumeric_keyboard
 1567              	.LVL140:
 1568 02ca 78B1     		cbz	r0, .L109
 1569 02cc 0128     		cmp	r0, #1
 1570 02ce 21D0     		beq	.L219
 1571 02d0 00F0CCBD 		b	.L70
 1572              	.L236:
 1573              		.align	2
 1574              	.L235:
 1575 02d4 00000000 		.word	flowDisplay1
 1576 02d8 00000000 		.word	count_protector
ARM GAS  C:\Users\Diego\AppData\Local\Temp\cctVJSXF.s 			page 53


 1577 02dc 00000000 		.word	bufferDisplay1
 1578 02e0 00000000 		.word	Display1_rxBuffer
 1579 02e4 00000000 		.word	numberKeys1
 1580 02e8 00000000 		.word	digits
 1581              	.L109:
 413:.\main.c      ****                     SetPicture(1,DISPLAY_INICIO0);                            
 1582              		.loc 1 413 0
 1583 02ec 0022     		movs	r2, #0
 1584 02ee 834B     		ldr	r3, .L237
 1585 02f0 1A60     		str	r2, [r3]
 414:.\main.c      ****                 break;
 1586              		.loc 1 414 0
 1587 02f2 0120     		movs	r0, #1
 1588 02f4 0146     		mov	r1, r0
 1589 02f6 FFF7FEFF 		bl	SetPicture
 1590              	.LVL141:
 415:.\main.c      ****                     
 1591              		.loc 1 415 0
 1592 02fa 00F0B7BD 		b	.L70
 1593              	.LVL142:
 1594              	.L111:
 419:.\main.c      ****                         bufferDisplay1.presetValue[1][x]=bufferDisplay1.valueKeys[x];
 1595              		.loc 1 419 0 discriminator 3
 1596 02fe 804A     		ldr	r2, .L237+4
 1597 0300 1A44     		add	r2, r2, r3
 1598 0302 92F84B10 		ldrb	r1, [r2, #75]	@ zero_extendqisi2
 1599 0306 82F86510 		strb	r1, [r2, #101]
 420:.\main.c      ****                     }  
 1600              		.loc 1 420 0 discriminator 3
 1601 030a 82F86F10 		strb	r1, [r2, #111]
 418:.\main.c      ****                         bufferDisplay1.presetValue[0][x]=bufferDisplay1.valueKeys[x];
 1602              		.loc 1 418 0 discriminator 3
 1603 030e 0133     		adds	r3, r3, #1
 1604              	.LVL143:
 1605 0310 DBB2     		uxtb	r3, r3
 1606              	.LVL144:
 1607 0312 00E0     		b	.L110
 1608              	.LVL145:
 1609              	.L219:
 411:.\main.c      ****                 case 0:  //Pantalla Inicial    
 1610              		.loc 1 411 0
 1611 0314 0023     		movs	r3, #0
 1612              	.L110:
 1613              	.LVL146:
 418:.\main.c      ****                         bufferDisplay1.presetValue[0][x]=bufferDisplay1.valueKeys[x];
 1614              		.loc 1 418 0 discriminator 1
 1615 0316 7A4A     		ldr	r2, .L237+4
 1616 0318 92F84B20 		ldrb	r2, [r2, #75]	@ zero_extendqisi2
 1617 031c 9A42     		cmp	r2, r3
 1618 031e EED2     		bcs	.L111
 422:.\main.c      ****                     SetPicture(1,DISPLAY_SELECCIONE_PRODUCTO4);
 1619              		.loc 1 422 0
 1620 0320 0522     		movs	r2, #5
 1621 0322 764B     		ldr	r3, .L237
 1622              	.LVL147:
 1623 0324 1A60     		str	r2, [r3]
 423:.\main.c      ****                 break;
ARM GAS  C:\Users\Diego\AppData\Local\Temp\cctVJSXF.s 			page 54


 1624              		.loc 1 423 0
 1625 0326 0120     		movs	r0, #1
 1626 0328 8621     		movs	r1, #134
 1627 032a FFF7FEFF 		bl	SetPicture
 1628              	.LVL148:
 424:.\main.c      ****             }
 1629              		.loc 1 424 0
 1630 032e 00F09DBD 		b	.L70
 1631              	.L78:
 429:.\main.c      ****                 if((Display1_rxBuffer[0]==0xAA) && (Display1_rxBuffer[6]==0xC3) && (Display1_rxBuff
 1632              		.loc 1 429 0
 1633 0332 FFF7FEFF 		bl	Display1_GetRxBufferSize
 1634              	.LVL149:
 1635 0336 0828     		cmp	r0, #8
 1636 0338 40F09885 		bne	.L70
 430:.\main.c      ****                     switch(Display1_rxBuffer[3]){
 1637              		.loc 1 430 0
 1638 033c 714B     		ldr	r3, .L237+8
 1639 033e 1B78     		ldrb	r3, [r3]	@ zero_extendqisi2
 1640 0340 DBB2     		uxtb	r3, r3
 1641 0342 AA2B     		cmp	r3, #170
 1642 0344 6CD1     		bne	.L112
 430:.\main.c      ****                     switch(Display1_rxBuffer[3]){
 1643              		.loc 1 430 0 is_stmt 0 discriminator 1
 1644 0346 6F4B     		ldr	r3, .L237+8
 1645 0348 9B79     		ldrb	r3, [r3, #6]	@ zero_extendqisi2
 1646 034a DBB2     		uxtb	r3, r3
 1647 034c C32B     		cmp	r3, #195
 1648 034e 67D1     		bne	.L112
 430:.\main.c      ****                     switch(Display1_rxBuffer[3]){
 1649              		.loc 1 430 0 discriminator 2
 1650 0350 6C4B     		ldr	r3, .L237+8
 1651 0352 DB79     		ldrb	r3, [r3, #7]	@ zero_extendqisi2
 1652 0354 DBB2     		uxtb	r3, r3
 1653 0356 3C2B     		cmp	r3, #60
 1654 0358 62D1     		bne	.L112
 431:.\main.c      ****                         case 0x80:  //Grado 1 
 1655              		.loc 1 431 0 is_stmt 1
 1656 035a 6A4B     		ldr	r3, .L237+8
 1657 035c DB78     		ldrb	r3, [r3, #3]	@ zero_extendqisi2
 1658 035e 7E3B     		subs	r3, r3, #126
 1659 0360 3A2B     		cmp	r3, #58
 1660 0362 5DD8     		bhi	.L112
 1661 0364 DFE803F0 		tbb	[pc, r3]
 1662              	.L114:
 1663 0368 55       		.byte	(.L113-.L114)/2
 1664 0369 35       		.byte	(.L115-.L114)/2
 1665 036a 1E       		.byte	(.L116-.L114)/2
 1666 036b 29       		.byte	(.L117-.L114)/2
 1667 036c 5C       		.byte	(.L112-.L114)/2
 1668 036d 5C       		.byte	(.L112-.L114)/2
 1669 036e 5C       		.byte	(.L112-.L114)/2
 1670 036f 5C       		.byte	(.L112-.L114)/2
 1671 0370 5C       		.byte	(.L112-.L114)/2
 1672 0371 5C       		.byte	(.L112-.L114)/2
 1673 0372 5C       		.byte	(.L112-.L114)/2
 1674 0373 5C       		.byte	(.L112-.L114)/2
ARM GAS  C:\Users\Diego\AppData\Local\Temp\cctVJSXF.s 			page 55


 1675 0374 5C       		.byte	(.L112-.L114)/2
 1676 0375 5C       		.byte	(.L112-.L114)/2
 1677 0376 5C       		.byte	(.L112-.L114)/2
 1678 0377 5C       		.byte	(.L112-.L114)/2
 1679 0378 5C       		.byte	(.L112-.L114)/2
 1680 0379 5C       		.byte	(.L112-.L114)/2
 1681 037a 5C       		.byte	(.L112-.L114)/2
 1682 037b 5C       		.byte	(.L112-.L114)/2
 1683 037c 5C       		.byte	(.L112-.L114)/2
 1684 037d 5C       		.byte	(.L112-.L114)/2
 1685 037e 4D       		.byte	(.L118-.L114)/2
 1686 037f 5C       		.byte	(.L112-.L114)/2
 1687 0380 5C       		.byte	(.L112-.L114)/2
 1688 0381 5C       		.byte	(.L112-.L114)/2
 1689 0382 5C       		.byte	(.L112-.L114)/2
 1690 0383 5C       		.byte	(.L112-.L114)/2
 1691 0384 5C       		.byte	(.L112-.L114)/2
 1692 0385 5C       		.byte	(.L112-.L114)/2
 1693 0386 5C       		.byte	(.L112-.L114)/2
 1694 0387 5C       		.byte	(.L112-.L114)/2
 1695 0388 5C       		.byte	(.L112-.L114)/2
 1696 0389 5C       		.byte	(.L112-.L114)/2
 1697 038a 5C       		.byte	(.L112-.L114)/2
 1698 038b 5C       		.byte	(.L112-.L114)/2
 1699 038c 5C       		.byte	(.L112-.L114)/2
 1700 038d 5C       		.byte	(.L112-.L114)/2
 1701 038e 5C       		.byte	(.L112-.L114)/2
 1702 038f 5C       		.byte	(.L112-.L114)/2
 1703 0390 5C       		.byte	(.L112-.L114)/2
 1704 0391 5C       		.byte	(.L112-.L114)/2
 1705 0392 5C       		.byte	(.L112-.L114)/2
 1706 0393 5C       		.byte	(.L112-.L114)/2
 1707 0394 5C       		.byte	(.L112-.L114)/2
 1708 0395 5C       		.byte	(.L112-.L114)/2
 1709 0396 5C       		.byte	(.L112-.L114)/2
 1710 0397 5C       		.byte	(.L112-.L114)/2
 1711 0398 5C       		.byte	(.L112-.L114)/2
 1712 0399 5C       		.byte	(.L112-.L114)/2
 1713 039a 5C       		.byte	(.L112-.L114)/2
 1714 039b 5C       		.byte	(.L112-.L114)/2
 1715 039c 5C       		.byte	(.L112-.L114)/2
 1716 039d 5C       		.byte	(.L112-.L114)/2
 1717 039e 5C       		.byte	(.L112-.L114)/2
 1718 039f 5C       		.byte	(.L112-.L114)/2
 1719 03a0 5C       		.byte	(.L112-.L114)/2
 1720 03a1 5C       		.byte	(.L112-.L114)/2
 1721 03a2 41       		.byte	(.L119-.L114)/2
 1722 03a3 00       		.p2align 1
 1723              	.L116:
 433:.\main.c      ****                             side.a.hose = 1;
 1724              		.loc 1 433 0
 1725 03a4 0622     		movs	r2, #6
 1726 03a6 554B     		ldr	r3, .L237
 1727 03a8 1A60     		str	r2, [r3]
 434:.\main.c      ****                             SetPicture(1,DISPLAY_DESEA_IMPRIMIR_RECIBO);                           
 1728              		.loc 1 434 0
 1729 03aa 0120     		movs	r0, #1
ARM GAS  C:\Users\Diego\AppData\Local\Temp\cctVJSXF.s 			page 56


 1730 03ac 564B     		ldr	r3, .L237+12
 1731 03ae 83F80101 		strb	r0, [r3, #257]
 435:.\main.c      ****                         break;
 1732              		.loc 1 435 0
 1733 03b2 0B21     		movs	r1, #11
 1734 03b4 FFF7FEFF 		bl	SetPicture
 1735              	.LVL150:
 436:.\main.c      ****                             
 1736              		.loc 1 436 0
 1737 03b8 32E0     		b	.L112
 1738              	.L117:
 439:.\main.c      ****                             side.a.hose = 2;
 1739              		.loc 1 439 0
 1740 03ba 0622     		movs	r2, #6
 1741 03bc 4F4B     		ldr	r3, .L237
 1742 03be 1A60     		str	r2, [r3]
 440:.\main.c      ****                             SetPicture(1,DISPLAY_DESEA_IMPRIMIR_RECIBO);                           
 1743              		.loc 1 440 0
 1744 03c0 0222     		movs	r2, #2
 1745 03c2 514B     		ldr	r3, .L237+12
 1746 03c4 83F80121 		strb	r2, [r3, #257]
 441:.\main.c      ****                         break;
 1747              		.loc 1 441 0
 1748 03c8 0120     		movs	r0, #1
 1749 03ca 0B21     		movs	r1, #11
 1750 03cc FFF7FEFF 		bl	SetPicture
 1751              	.LVL151:
 442:.\main.c      ****                             
 1752              		.loc 1 442 0
 1753 03d0 26E0     		b	.L112
 1754              	.L115:
 445:.\main.c      ****                             side.a.hose = 3;
 1755              		.loc 1 445 0
 1756 03d2 0622     		movs	r2, #6
 1757 03d4 494B     		ldr	r3, .L237
 1758 03d6 1A60     		str	r2, [r3]
 446:.\main.c      ****                             SetPicture(1,DISPLAY_DESEA_IMPRIMIR_RECIBO);                           
 1759              		.loc 1 446 0
 1760 03d8 0322     		movs	r2, #3
 1761 03da 4B4B     		ldr	r3, .L237+12
 1762 03dc 83F80121 		strb	r2, [r3, #257]
 447:.\main.c      ****                         break;   
 1763              		.loc 1 447 0
 1764 03e0 0120     		movs	r0, #1
 1765 03e2 0B21     		movs	r1, #11
 1766 03e4 FFF7FEFF 		bl	SetPicture
 1767              	.LVL152:
 448:.\main.c      ****                         
 1768              		.loc 1 448 0
 1769 03e8 1AE0     		b	.L112
 1770              	.L119:
 451:.\main.c      ****                             side.a.hose = 4;
 1771              		.loc 1 451 0
 1772 03ea 0622     		movs	r2, #6
 1773 03ec 434B     		ldr	r3, .L237
 1774 03ee 1A60     		str	r2, [r3]
 452:.\main.c      ****                             SetPicture(1,DISPLAY_DESEA_IMPRIMIR_RECIBO);                           
ARM GAS  C:\Users\Diego\AppData\Local\Temp\cctVJSXF.s 			page 57


 1775              		.loc 1 452 0
 1776 03f0 0422     		movs	r2, #4
 1777 03f2 454B     		ldr	r3, .L237+12
 1778 03f4 83F80121 		strb	r2, [r3, #257]
 453:.\main.c      ****                         break;
 1779              		.loc 1 453 0
 1780 03f8 0120     		movs	r0, #1
 1781 03fa 0B21     		movs	r1, #11
 1782 03fc FFF7FEFF 		bl	SetPicture
 1783              	.LVL153:
 454:.\main.c      ****                             
 1784              		.loc 1 454 0
 1785 0400 0EE0     		b	.L112
 1786              	.L118:
 457:.\main.c      ****                             SetPicture(1,DISPLAY_INICIO0);                                         
 1787              		.loc 1 457 0
 1788 0402 0022     		movs	r2, #0
 1789 0404 3D4B     		ldr	r3, .L237
 1790 0406 1A60     		str	r2, [r3]
 458:.\main.c      ****                         break;
 1791              		.loc 1 458 0
 1792 0408 0120     		movs	r0, #1
 1793 040a 0146     		mov	r1, r0
 1794 040c FFF7FEFF 		bl	SetPicture
 1795              	.LVL154:
 459:.\main.c      ****                             
 1796              		.loc 1 459 0
 1797 0410 06E0     		b	.L112
 1798              	.L113:
 462:.\main.c      ****                             flowDisplay1 = 0;
 1799              		.loc 1 462 0
 1800 0412 0120     		movs	r0, #1
 1801 0414 0146     		mov	r1, r0
 1802 0416 FFF7FEFF 		bl	SetPicture
 1803              	.LVL155:
 463:.\main.c      ****                         break;
 1804              		.loc 1 463 0
 1805 041a 0022     		movs	r2, #0
 1806 041c 374B     		ldr	r3, .L237
 1807 041e 1A60     		str	r2, [r3]
 1808              	.L112:
 467:.\main.c      ****                 Display1_ClearRxBuffer();
 1809              		.loc 1 467 0
 1810 0420 0A20     		movs	r0, #10
 1811 0422 FFF7FEFF 		bl	CyDelay
 1812              	.LVL156:
 468:.\main.c      ****             }
 1813              		.loc 1 468 0
 1814 0426 FFF7FEFF 		bl	Display1_ClearRxBuffer
 1815              	.LVL157:
 1816 042a 00F01FBD 		b	.L70
 1817              	.L79:
 473:.\main.c      ****             Timer_Animacion_Start();
 1818              		.loc 1 473 0
 1819 042e 3748     		ldr	r0, .L237+16
 1820 0430 FFF7FEFF 		bl	isr_3_StartEx
 1821              	.LVL158:
ARM GAS  C:\Users\Diego\AppData\Local\Temp\cctVJSXF.s 			page 58


 474:.\main.c      ****             if(Display1_GetRxBufferSize()==8){
 1822              		.loc 1 474 0
 1823 0434 FFF7FEFF 		bl	Timer_Animacion_Start
 1824              	.LVL159:
 475:.\main.c      ****                 if((Display1_rxBuffer[0]==0xAA) && (Display1_rxBuffer[6]==0xC3) && (Display1_rxBuff
 1825              		.loc 1 475 0
 1826 0438 FFF7FEFF 		bl	Display1_GetRxBufferSize
 1827              	.LVL160:
 1828 043c 0828     		cmp	r0, #8
 1829 043e 4DD1     		bne	.L120
 476:.\main.c      ****                     switch(Display1_rxBuffer[3]){
 1830              		.loc 1 476 0
 1831 0440 304B     		ldr	r3, .L237+8
 1832 0442 1B78     		ldrb	r3, [r3]	@ zero_extendqisi2
 1833 0444 DBB2     		uxtb	r3, r3
 1834 0446 AA2B     		cmp	r3, #170
 1835 0448 43D1     		bne	.L121
 476:.\main.c      ****                     switch(Display1_rxBuffer[3]){
 1836              		.loc 1 476 0 is_stmt 0 discriminator 1
 1837 044a 2E4B     		ldr	r3, .L237+8
 1838 044c 9B79     		ldrb	r3, [r3, #6]	@ zero_extendqisi2
 1839 044e DBB2     		uxtb	r3, r3
 1840 0450 C32B     		cmp	r3, #195
 1841 0452 3ED1     		bne	.L121
 476:.\main.c      ****                     switch(Display1_rxBuffer[3]){
 1842              		.loc 1 476 0 discriminator 2
 1843 0454 2B4B     		ldr	r3, .L237+8
 1844 0456 DB79     		ldrb	r3, [r3, #7]	@ zero_extendqisi2
 1845 0458 DBB2     		uxtb	r3, r3
 1846 045a 3C2B     		cmp	r3, #60
 1847 045c 39D1     		bne	.L121
 477:.\main.c      ****                         case 0x39:  //Si imprimir  
 1848              		.loc 1 477 0 is_stmt 1
 1849 045e 294B     		ldr	r3, .L237+8
 1850 0460 DB78     		ldrb	r3, [r3, #3]	@ zero_extendqisi2
 1851 0462 DBB2     		uxtb	r3, r3
 1852 0464 392B     		cmp	r3, #57
 1853 0466 04D0     		beq	.L122
 1854 0468 7E2B     		cmp	r3, #126
 1855 046a 2BD0     		beq	.L123
 1856 046c 382B     		cmp	r3, #56
 1857 046e 30D1     		bne	.L121
 1858 0470 0FE0     		b	.L124
 1859              	.L122:
 479:.\main.c      ****                             numberKeys1 = 0;
 1860              		.loc 1 479 0
 1861 0472 0922     		movs	r2, #9
 1862 0474 214B     		ldr	r3, .L237
 1863 0476 1A60     		str	r2, [r3]
 480:.\main.c      ****                             bufferDisplay1.flagKeyboard = 1;
 1864              		.loc 1 480 0
 1865 0478 0022     		movs	r2, #0
 1866 047a 254B     		ldr	r3, .L237+20
 1867 047c 1A70     		strb	r2, [r3]
 481:.\main.c      ****                             bufferDisplay1.flagPrint =  1;
 1868              		.loc 1 481 0
 1869 047e 204B     		ldr	r3, .L237+4
ARM GAS  C:\Users\Diego\AppData\Local\Temp\cctVJSXF.s 			page 59


 1870 0480 0120     		movs	r0, #1
 1871 0482 83F80001 		strb	r0, [r3, #256]
 482:.\main.c      ****                             SetPicture(1,DISPLAY_DIGITE_PLACA);                            
 1872              		.loc 1 482 0
 1873 0486 83F87002 		strb	r0, [r3, #624]
 483:.\main.c      ****                         break; 
 1874              		.loc 1 483 0
 1875 048a 0A21     		movs	r1, #10
 1876 048c FFF7FEFF 		bl	SetPicture
 1877              	.LVL161:
 484:.\main.c      ****                         case 0x38:  //No imprimir 
 1878              		.loc 1 484 0
 1879 0490 1FE0     		b	.L121
 1880              	.L124:
 486:.\main.c      ****                                 flowDisplay1 = 0;
 1881              		.loc 1 486 0
 1882 0492 1B4B     		ldr	r3, .L237+4
 1883 0494 93F80331 		ldrb	r3, [r3, #259]	@ zero_extendqisi2
 1884 0498 3BB1     		cbz	r3, .L125
 487:.\main.c      ****                                 SetPicture(1,DISPLAY_INICIO0);
 1885              		.loc 1 487 0
 1886 049a 0022     		movs	r2, #0
 1887 049c 174B     		ldr	r3, .L237
 1888 049e 1A60     		str	r2, [r3]
 488:.\main.c      ****                             }else{
 1889              		.loc 1 488 0
 1890 04a0 0120     		movs	r0, #1
 1891 04a2 0146     		mov	r1, r0
 1892 04a4 FFF7FEFF 		bl	SetPicture
 1893              	.LVL162:
 1894 04a8 13E0     		b	.L121
 1895              	.L125:
 490:.\main.c      ****                                 bufferDisplay1.flagPrint =  0;
 1896              		.loc 1 490 0
 1897 04aa 0721     		movs	r1, #7
 1898 04ac 134B     		ldr	r3, .L237
 1899 04ae 1960     		str	r1, [r3]
 491:.\main.c      ****                                 count_protector=0;
 1900              		.loc 1 491 0
 1901 04b0 0023     		movs	r3, #0
 1902 04b2 134A     		ldr	r2, .L237+4
 1903 04b4 82F87032 		strb	r3, [r2, #624]
 492:.\main.c      ****                                 SetPicture(1,DISPLAY_SUBA_MANIJA);
 1904              		.loc 1 492 0
 1905 04b8 164A     		ldr	r2, .L237+24
 1906 04ba 1370     		strb	r3, [r2]
 493:.\main.c      ****                             }
 1907              		.loc 1 493 0
 1908 04bc 0120     		movs	r0, #1
 1909 04be FFF7FEFF 		bl	SetPicture
 1910              	.LVL163:
 1911 04c2 06E0     		b	.L121
 1912              	.L123:
 497:.\main.c      ****                             SetPicture(1,DISPLAY_INICIO0);
 1913              		.loc 1 497 0
 1914 04c4 0022     		movs	r2, #0
 1915 04c6 0D4B     		ldr	r3, .L237
ARM GAS  C:\Users\Diego\AppData\Local\Temp\cctVJSXF.s 			page 60


 1916 04c8 1A60     		str	r2, [r3]
 498:.\main.c      ****                         break;
 1917              		.loc 1 498 0
 1918 04ca 0120     		movs	r0, #1
 1919 04cc 0146     		mov	r1, r0
 1920 04ce FFF7FEFF 		bl	SetPicture
 1921              	.LVL164:
 1922              	.L121:
 502:.\main.c      ****                 Display1_ClearRxBuffer();
 1923              		.loc 1 502 0
 1924 04d2 0A20     		movs	r0, #10
 1925 04d4 FFF7FEFF 		bl	CyDelay
 1926              	.LVL165:
 503:.\main.c      ****             }
 1927              		.loc 1 503 0
 1928 04d8 FFF7FEFF 		bl	Display1_ClearRxBuffer
 1929              	.LVL166:
 1930              	.L120:
 505:.\main.c      ****                 flowDisplay1 = 0;	
 1931              		.loc 1 505 0
 1932 04dc 0D4B     		ldr	r3, .L237+24
 1933 04de 1B78     		ldrb	r3, [r3]	@ zero_extendqisi2
 1934 04e0 1D2B     		cmp	r3, #29
 1935 04e2 40F2C384 		bls	.L70
 506:.\main.c      ****     			count_protector=0;
 1936              		.loc 1 506 0
 1937 04e6 0023     		movs	r3, #0
 1938 04e8 044A     		ldr	r2, .L237
 1939 04ea 1360     		str	r3, [r2]
 507:.\main.c      ****                 SetPicture(1,DISPLAY_INICIO0);
 1940              		.loc 1 507 0
 1941 04ec 094A     		ldr	r2, .L237+24
 1942 04ee 1370     		strb	r3, [r2]
 508:.\main.c      ****     		}
 1943              		.loc 1 508 0
 1944 04f0 0120     		movs	r0, #1
 1945 04f2 0146     		mov	r1, r0
 1946 04f4 FFF7FEFF 		bl	SetPicture
 1947              	.LVL167:
 1948 04f8 00F0B8BC 		b	.L70
 1949              	.L238:
 1950              		.align	2
 1951              	.L237:
 1952 04fc 00000000 		.word	flowDisplay1
 1953 0500 00000000 		.word	bufferDisplay1
 1954 0504 00000000 		.word	Display1_rxBuffer
 1955 0508 00000000 		.word	side
 1956 050c 00000000 		.word	animacion
 1957 0510 00000000 		.word	numberKeys1
 1958 0514 00000000 		.word	count_protector
 1959              	.L80:
 514:.\main.c      ****             Timer_Animacion_Start();
 1960              		.loc 1 514 0
 1961 0518 A748     		ldr	r0, .L239
 1962 051a FFF7FEFF 		bl	isr_3_StartEx
 1963              	.LVL168:
 515:.\main.c      ****             side.a.activeHose = PumpHoseActiveState(side.a.dir);  
ARM GAS  C:\Users\Diego\AppData\Local\Temp\cctVJSXF.s 			page 61


 1964              		.loc 1 515 0
 1965 051e FFF7FEFF 		bl	Timer_Animacion_Start
 1966              	.LVL169:
 516:.\main.c      ****             if (side.a.activeHose == side.a.hose){                
 1967              		.loc 1 516 0
 1968 0522 A64C     		ldr	r4, .L239+4
 1969 0524 2078     		ldrb	r0, [r4]	@ zero_extendqisi2
 1970 0526 FFF7FEFF 		bl	PumpHoseActiveState
 1971              	.LVL170:
 1972 052a 0146     		mov	r1, r0
 1973 052c 84F80001 		strb	r0, [r4, #256]
 517:.\main.c      ****                 if(PresetData(side.a.dir,side.a.activeHose,bufferDisplay1.presetValue[0],bufferDisp
 1974              		.loc 1 517 0
 1975 0530 94F80131 		ldrb	r3, [r4, #257]	@ zero_extendqisi2
 1976 0534 9842     		cmp	r0, r3
 1977 0536 3AD1     		bne	.L126
 518:.\main.c      ****                     get_state(side.a.dir);
 1978              		.loc 1 518 0
 1979 0538 A14A     		ldr	r2, .L239+8
 1980 053a 92F86330 		ldrb	r3, [r2, #99]	@ zero_extendqisi2
 1981 053e 2078     		ldrb	r0, [r4]	@ zero_extendqisi2
 1982 0540 6532     		adds	r2, r2, #101
 1983 0542 03F00303 		and	r3, r3, #3
 1984 0546 FFF7FEFF 		bl	PresetData
 1985              	.LVL171:
 1986 054a 0128     		cmp	r0, #1
 1987 054c 21D1     		bne	.L127
 519:.\main.c      ****                     CyDelay(50);
 1988              		.loc 1 519 0
 1989 054e 2078     		ldrb	r0, [r4]	@ zero_extendqisi2
 1990 0550 FFF7FEFF 		bl	get_state
 1991              	.LVL172:
 520:.\main.c      ****                     Pump_PutChar(0x10|side.a.dir);//Autoriza el surtidor
 1992              		.loc 1 520 0
 1993 0554 3220     		movs	r0, #50
 1994 0556 FFF7FEFF 		bl	CyDelay
 1995              	.LVL173:
 521:.\main.c      ****                     CyDelay(50);
 1996              		.loc 1 521 0
 1997 055a 2078     		ldrb	r0, [r4]	@ zero_extendqisi2
 1998 055c 40F01000 		orr	r0, r0, #16
 1999 0560 FFF7FEFF 		bl	Pump_PutChar
 2000              	.LVL174:
 522:.\main.c      ****                     flowDisplay1 = 8;
 2001              		.loc 1 522 0
 2002 0564 3220     		movs	r0, #50
 2003 0566 FFF7FEFF 		bl	CyDelay
 2004              	.LVL175:
 523:.\main.c      ****                     isr_3_Stop(); 
 2005              		.loc 1 523 0
 2006 056a 0824     		movs	r4, #8
 2007 056c 954B     		ldr	r3, .L239+12
 2008 056e 1C60     		str	r4, [r3]
 524:.\main.c      ****                     Timer_Animacion_Stop();
 2009              		.loc 1 524 0
 2010 0570 FFF7FEFF 		bl	isr_3_Stop
 2011              	.LVL176:
ARM GAS  C:\Users\Diego\AppData\Local\Temp\cctVJSXF.s 			page 62


 525:.\main.c      ****                     count_protector = 0;                    
 2012              		.loc 1 525 0
 2013 0574 FFF7FEFF 		bl	Timer_Animacion_Stop
 2014              	.LVL177:
 526:.\main.c      ****                     SetPicture(1,DISPLAY_DESPACHANDO);   
 2015              		.loc 1 526 0
 2016 0578 0022     		movs	r2, #0
 2017 057a 934B     		ldr	r3, .L239+16
 2018 057c 1A70     		strb	r2, [r3]
 527:.\main.c      ****                     ShowMessage(1,(bufferDisplay1.presetValue[0]),18);
 2019              		.loc 1 527 0
 2020 057e 0120     		movs	r0, #1
 2021 0580 2146     		mov	r1, r4
 2022 0582 FFF7FEFF 		bl	SetPicture
 2023              	.LVL178:
 528:.\main.c      ****                 }else{
 2024              		.loc 1 528 0
 2025 0586 0120     		movs	r0, #1
 2026 0588 9049     		ldr	r1, .L239+20
 2027 058a 1222     		movs	r2, #18
 2028 058c FFF7FEFF 		bl	ShowMessage
 2029              	.LVL179:
 2030 0590 1DE0     		b	.L128
 2031              	.L127:
 530:.\main.c      ****                     SetPicture(1,DISPLAY_ERROR);
 2032              		.loc 1 530 0
 2033 0592 0021     		movs	r1, #0
 2034 0594 8B4B     		ldr	r3, .L239+12
 2035 0596 1960     		str	r1, [r3]
 531:.\main.c      ****                     CyDelay(200);
 2036              		.loc 1 531 0
 2037 0598 0120     		movs	r0, #1
 2038 059a FFF7FEFF 		bl	SetPicture
 2039              	.LVL180:
 532:.\main.c      ****                     SetPicture(1,DISPLAY_INICIO0);
 2040              		.loc 1 532 0
 2041 059e C820     		movs	r0, #200
 2042 05a0 FFF7FEFF 		bl	CyDelay
 2043              	.LVL181:
 533:.\main.c      ****                 }
 2044              		.loc 1 533 0
 2045 05a4 0120     		movs	r0, #1
 2046 05a6 0146     		mov	r1, r0
 2047 05a8 FFF7FEFF 		bl	SetPicture
 2048              	.LVL182:
 2049 05ac 0FE0     		b	.L128
 2050              	.L126:
 536:.\main.c      ****                 if(count_protector>=60){
 2051              		.loc 1 536 0
 2052 05ae 0722     		movs	r2, #7
 2053 05b0 844B     		ldr	r3, .L239+12
 2054 05b2 1A60     		str	r2, [r3]
 537:.\main.c      ****                     flowDisplay1 = 0;	
 2055              		.loc 1 537 0
 2056 05b4 844B     		ldr	r3, .L239+16
 2057 05b6 1B78     		ldrb	r3, [r3]	@ zero_extendqisi2
 2058 05b8 3B2B     		cmp	r3, #59
ARM GAS  C:\Users\Diego\AppData\Local\Temp\cctVJSXF.s 			page 63


 2059 05ba 08D9     		bls	.L128
 538:.\main.c      ****         			count_protector=0;
 2060              		.loc 1 538 0
 2061 05bc 0023     		movs	r3, #0
 2062 05be 814A     		ldr	r2, .L239+12
 2063 05c0 1360     		str	r3, [r2]
 539:.\main.c      ****                     SetPicture(1,DISPLAY_INICIO0);
 2064              		.loc 1 539 0
 2065 05c2 814A     		ldr	r2, .L239+16
 2066 05c4 1370     		strb	r3, [r2]
 540:.\main.c      ****         		}
 2067              		.loc 1 540 0
 2068 05c6 0120     		movs	r0, #1
 2069 05c8 0146     		mov	r1, r0
 2070 05ca FFF7FEFF 		bl	SetPicture
 2071              	.LVL183:
 2072              	.L128:
 543:.\main.c      ****                 if((Display1_rxBuffer[0]==0xAA) && (Display1_rxBuffer[6]==0xC3) && (Display1_rxBuff
 2073              		.loc 1 543 0
 2074 05ce FFF7FEFF 		bl	Display1_GetRxBufferSize
 2075              	.LVL184:
 2076 05d2 0828     		cmp	r0, #8
 2077 05d4 1DD1     		bne	.L129
 544:.\main.c      ****                     switch(Display1_rxBuffer[3]){                        
 2078              		.loc 1 544 0
 2079 05d6 7E4B     		ldr	r3, .L239+24
 2080 05d8 1B78     		ldrb	r3, [r3]	@ zero_extendqisi2
 2081 05da DBB2     		uxtb	r3, r3
 2082 05dc AA2B     		cmp	r3, #170
 2083 05de 15D1     		bne	.L130
 544:.\main.c      ****                     switch(Display1_rxBuffer[3]){                        
 2084              		.loc 1 544 0 is_stmt 0 discriminator 1
 2085 05e0 7B4B     		ldr	r3, .L239+24
 2086 05e2 9B79     		ldrb	r3, [r3, #6]	@ zero_extendqisi2
 2087 05e4 DBB2     		uxtb	r3, r3
 2088 05e6 C32B     		cmp	r3, #195
 2089 05e8 10D1     		bne	.L130
 544:.\main.c      ****                     switch(Display1_rxBuffer[3]){                        
 2090              		.loc 1 544 0 discriminator 2
 2091 05ea 794B     		ldr	r3, .L239+24
 2092 05ec DB79     		ldrb	r3, [r3, #7]	@ zero_extendqisi2
 2093 05ee DBB2     		uxtb	r3, r3
 2094 05f0 3C2B     		cmp	r3, #60
 2095 05f2 0BD1     		bne	.L130
 545:.\main.c      ****                         case 0x7E:  //Pantalla Inicial                                             
 2096              		.loc 1 545 0 is_stmt 1
 2097 05f4 764B     		ldr	r3, .L239+24
 2098 05f6 DB78     		ldrb	r3, [r3, #3]	@ zero_extendqisi2
 2099 05f8 DBB2     		uxtb	r3, r3
 2100 05fa 7E2B     		cmp	r3, #126
 2101 05fc 06D1     		bne	.L130
 547:.\main.c      ****                             flowDisplay1 = 0;
 2102              		.loc 1 547 0
 2103 05fe 0120     		movs	r0, #1
 2104 0600 0146     		mov	r1, r0
 2105 0602 FFF7FEFF 		bl	SetPicture
 2106              	.LVL185:
ARM GAS  C:\Users\Diego\AppData\Local\Temp\cctVJSXF.s 			page 64


 548:.\main.c      ****                         break;
 2107              		.loc 1 548 0
 2108 0606 0022     		movs	r2, #0
 2109 0608 6E4B     		ldr	r3, .L239+12
 2110 060a 1A60     		str	r2, [r3]
 2111              	.L130:
 552:.\main.c      ****             }
 2112              		.loc 1 552 0
 2113 060c 0A20     		movs	r0, #10
 2114 060e FFF7FEFF 		bl	CyDelay
 2115              	.LVL186:
 2116              	.L129:
 554:.\main.c      ****         break;
 2117              		.loc 1 554 0
 2118 0612 FFF7FEFF 		bl	Display1_ClearRxBuffer
 2119              	.LVL187:
 555:.\main.c      ****             
 2120              		.loc 1 555 0
 2121 0616 00F029BC 		b	.L70
 2122              	.L81:
 558:.\main.c      ****             switch (localStatePump){
 2123              		.loc 1 558 0
 2124 061a 684B     		ldr	r3, .L239+4
 2125 061c 1878     		ldrb	r0, [r3]	@ zero_extendqisi2
 2126 061e FFF7FEFF 		bl	get_state
 2127              	.LVL188:
 559:.\main.c      ****                 case 0x06://Espera - venta cero
 2128              		.loc 1 559 0
 2129 0622 0638     		subs	r0, r0, #6
 2130              	.LVL189:
 2131 0624 0528     		cmp	r0, #5
 2132 0626 00F22184 		bhi	.L70
 2133 062a DFE810F0 		tbh	[pc, r0, lsl #1]
 2134              	.L133:
 2135 062e 0600     		.2byte	(.L132-.L133)/2
 2136 0630 1F04     		.2byte	(.L70-.L133)/2
 2137 0632 1F04     		.2byte	(.L70-.L133)/2
 2138 0634 1200     		.2byte	(.L134-.L133)/2
 2139 0636 1B00     		.2byte	(.L135-.L133)/2
 2140 0638 4000     		.2byte	(.L136-.L133)/2
 2141              		.p2align 1
 2142              	.L132:
 561:.\main.c      ****                     bufferDisplay1.flagActiveSale = false;
 2143              		.loc 1 561 0
 2144 063a 0023     		movs	r3, #0
 2145 063c 614A     		ldr	r2, .L239+12
 2146 063e 1360     		str	r3, [r2]
 562:.\main.c      ****                     SetPicture(1,DISPLAY_INICIO0);
 2147              		.loc 1 562 0
 2148 0640 5F4A     		ldr	r2, .L239+8
 2149 0642 82F87132 		strb	r3, [r2, #625]
 563:.\main.c      ****                 break;
 2150              		.loc 1 563 0
 2151 0646 0120     		movs	r0, #1
 2152 0648 0146     		mov	r1, r0
 2153 064a FFF7FEFF 		bl	SetPicture
 2154              	.LVL190:
ARM GAS  C:\Users\Diego\AppData\Local\Temp\cctVJSXF.s 			page 65


 564:.\main.c      ****                 case 0x09://Espera
 2155              		.loc 1 564 0
 2156 064e 00F00DBC 		b	.L70
 2157              	.L134:
 566:.\main.c      ****                     bufferDisplay1.flagEndSale = false;
 2158              		.loc 1 566 0
 2159 0652 5B4B     		ldr	r3, .L239+8
 2160 0654 0122     		movs	r2, #1
 2161 0656 83F87122 		strb	r2, [r3, #625]
 567:.\main.c      ****                 break;
 2162              		.loc 1 567 0
 2163 065a 0022     		movs	r2, #0
 2164 065c 83F80321 		strb	r2, [r3, #259]
 568:.\main.c      ****                 case 0x0A: //reporte fin venta
 2165              		.loc 1 568 0
 2166 0660 00F004BC 		b	.L70
 2167              	.L135:
 570:.\main.c      ****                     if(bufferDisplay1.flagPrint ==1){
 2168              		.loc 1 570 0
 2169 0664 554B     		ldr	r3, .L239+4
 2170 0666 1878     		ldrb	r0, [r3]	@ zero_extendqisi2
 2171 0668 FFF7FEFF 		bl	getSale
 2172              	.LVL191:
 571:.\main.c      ****                         imprimir(1,side.a.dir);
 2173              		.loc 1 571 0
 2174 066c 544B     		ldr	r3, .L239+8
 2175 066e 93F87032 		ldrb	r3, [r3, #624]	@ zero_extendqisi2
 2176 0672 012B     		cmp	r3, #1
 2177 0674 0CD1     		bne	.L137
 572:.\main.c      ****                         flowDisplay1 = 0;
 2178              		.loc 1 572 0
 2179 0676 0120     		movs	r0, #1
 2180 0678 504B     		ldr	r3, .L239+4
 2181 067a 1978     		ldrb	r1, [r3]	@ zero_extendqisi2
 2182 067c FFF7FEFF 		bl	imprimir
 2183              	.LVL192:
 573:.\main.c      ****                         SetPicture(1,DISPLAY_INICIO0); 
 2184              		.loc 1 573 0
 2185 0680 0022     		movs	r2, #0
 2186 0682 504B     		ldr	r3, .L239+12
 2187 0684 1A60     		str	r2, [r3]
 574:.\main.c      ****                     }else{
 2188              		.loc 1 574 0
 2189 0686 0120     		movs	r0, #1
 2190 0688 0146     		mov	r1, r0
 2191 068a FFF7FEFF 		bl	SetPicture
 2192              	.LVL193:
 2193 068e 09E0     		b	.L138
 2194              	.L137:
 576:.\main.c      ****                         bufferDisplay1.flagEndSale = true;
 2195              		.loc 1 576 0
 2196 0690 0622     		movs	r2, #6
 2197 0692 4C4B     		ldr	r3, .L239+12
 2198 0694 1A60     		str	r2, [r3]
 577:.\main.c      ****                         SetPicture(1,DISPLAY_DESEA_IMPRIMIR_RECIBO); 
 2199              		.loc 1 577 0
 2200 0696 0120     		movs	r0, #1
ARM GAS  C:\Users\Diego\AppData\Local\Temp\cctVJSXF.s 			page 66


 2201 0698 494B     		ldr	r3, .L239+8
 2202 069a 83F80301 		strb	r0, [r3, #259]
 578:.\main.c      ****                     }
 2203              		.loc 1 578 0
 2204 069e 0B21     		movs	r1, #11
 2205 06a0 FFF7FEFF 		bl	SetPicture
 2206              	.LVL194:
 2207              	.L138:
 580:.\main.c      ****                 break;
 2208              		.loc 1 580 0
 2209 06a4 0022     		movs	r2, #0
 2210 06a6 464B     		ldr	r3, .L239+8
 2211 06a8 83F87122 		strb	r2, [r3, #625]
 581:.\main.c      ****                 case 0x0B://Reporte de venta
 2212              		.loc 1 581 0
 2213 06ac DEE3     		b	.L70
 2214              	.L136:
 583:.\main.c      ****                     if(bufferDisplay1.flagPrint ==1){
 2215              		.loc 1 583 0
 2216 06ae 434B     		ldr	r3, .L239+4
 2217 06b0 1878     		ldrb	r0, [r3]	@ zero_extendqisi2
 2218 06b2 FFF7FEFF 		bl	getSale
 2219              	.LVL195:
 584:.\main.c      ****                         imprimir(1,side.a.dir);
 2220              		.loc 1 584 0
 2221 06b6 424B     		ldr	r3, .L239+8
 2222 06b8 93F87032 		ldrb	r3, [r3, #624]	@ zero_extendqisi2
 2223 06bc 012B     		cmp	r3, #1
 2224 06be 0CD1     		bne	.L139
 585:.\main.c      ****                         flowDisplay1 = 0;
 2225              		.loc 1 585 0
 2226 06c0 0120     		movs	r0, #1
 2227 06c2 3E4B     		ldr	r3, .L239+4
 2228 06c4 1978     		ldrb	r1, [r3]	@ zero_extendqisi2
 2229 06c6 FFF7FEFF 		bl	imprimir
 2230              	.LVL196:
 586:.\main.c      ****                         SetPicture(1,DISPLAY_INICIO0); 
 2231              		.loc 1 586 0
 2232 06ca 0022     		movs	r2, #0
 2233 06cc 3D4B     		ldr	r3, .L239+12
 2234 06ce 1A60     		str	r2, [r3]
 587:.\main.c      ****                     }else{
 2235              		.loc 1 587 0
 2236 06d0 0120     		movs	r0, #1
 2237 06d2 0146     		mov	r1, r0
 2238 06d4 FFF7FEFF 		bl	SetPicture
 2239              	.LVL197:
 2240 06d8 09E0     		b	.L140
 2241              	.L139:
 589:.\main.c      ****                         bufferDisplay1.flagEndSale = true;
 2242              		.loc 1 589 0
 2243 06da 0622     		movs	r2, #6
 2244 06dc 394B     		ldr	r3, .L239+12
 2245 06de 1A60     		str	r2, [r3]
 590:.\main.c      ****                         SetPicture(1,DISPLAY_DESEA_IMPRIMIR_RECIBO); 
 2246              		.loc 1 590 0
 2247 06e0 0120     		movs	r0, #1
ARM GAS  C:\Users\Diego\AppData\Local\Temp\cctVJSXF.s 			page 67


 2248 06e2 374B     		ldr	r3, .L239+8
 2249 06e4 83F80301 		strb	r0, [r3, #259]
 591:.\main.c      ****                     }
 2250              		.loc 1 591 0
 2251 06e8 0B21     		movs	r1, #11
 2252 06ea FFF7FEFF 		bl	SetPicture
 2253              	.LVL198:
 2254              	.L140:
 593:.\main.c      ****                 break;
 2255              		.loc 1 593 0
 2256 06ee 0022     		movs	r2, #0
 2257 06f0 334B     		ldr	r3, .L239+8
 2258 06f2 83F87122 		strb	r2, [r3, #625]
 594:.\main.c      ****                 
 2259              		.loc 1 594 0
 2260 06f6 B9E3     		b	.L70
 2261              	.L82:
 601:.\main.c      ****                 case 0: //Cancelar
 2262              		.loc 1 601 0
 2263 06f8 0120     		movs	r0, #1
 2264 06fa 0A21     		movs	r1, #10
 2265 06fc 0022     		movs	r2, #0
 2266 06fe FFF7FEFF 		bl	alphanumeric_keyboard
 2267              	.LVL199:
 2268 0702 10B1     		cbz	r0, .L141
 2269 0704 0128     		cmp	r0, #1
 2270 0706 43D0     		beq	.L142
 2271 0708 B0E3     		b	.L70
 2272              	.L141:
 603:.\main.c      ****                         case 1://Placa
 2273              		.loc 1 603 0
 2274 070a 2D4B     		ldr	r3, .L239+8
 2275 070c 93F80031 		ldrb	r3, [r3, #256]	@ zero_extendqisi2
 2276 0710 013B     		subs	r3, r3, #1
 2277 0712 032B     		cmp	r3, #3
 2278 0714 39D8     		bhi	.L143
 2279 0716 DFE803F0 		tbb	[pc, r3]
 2280              	.L145:
 2281 071a 0A       		.byte	(.L220-.L145)/2
 2282 071b 1D       		.byte	(.L221-.L145)/2
 2283 071c 29       		.byte	(.L222-.L145)/2
 2284 071d 35       		.byte	(.L223-.L145)/2
 2285              	.LVL200:
 2286              		.p2align 1
 2287              	.L149:
 606:.\main.c      ****                             }
 2288              		.loc 1 606 0 discriminator 3
 2289 071e 284A     		ldr	r2, .L239+8
 2290 0720 1A44     		add	r2, r2, r3
 2291 0722 0021     		movs	r1, #0
 2292 0724 82F8DF10 		strb	r1, [r2, #223]
 605:.\main.c      ****                                 bufferDisplay1.licenceSale[x]=0;
 2293              		.loc 1 605 0 discriminator 3
 2294 0728 0133     		adds	r3, r3, #1
 2295              	.LVL201:
 2296 072a DBB2     		uxtb	r3, r3
 2297              	.LVL202:
ARM GAS  C:\Users\Diego\AppData\Local\Temp\cctVJSXF.s 			page 68


 2298 072c 00E0     		b	.L144
 2299              	.LVL203:
 2300              	.L220:
 603:.\main.c      ****                         case 1://Placa
 2301              		.loc 1 603 0
 2302 072e 0023     		movs	r3, #0
 2303              	.L144:
 2304              	.LVL204:
 605:.\main.c      ****                                 bufferDisplay1.licenceSale[x]=0;
 2305              		.loc 1 605 0 discriminator 1
 2306 0730 0A2B     		cmp	r3, #10
 2307 0732 F4D9     		bls	.L149
 608:.\main.c      ****                             SetPicture(1,DISPLAY_INICIO0);
 2308              		.loc 1 608 0
 2309 0734 0022     		movs	r2, #0
 2310 0736 234B     		ldr	r3, .L239+12
 2311              	.LVL205:
 2312 0738 1A60     		str	r2, [r3]
 609:.\main.c      ****                         break;
 2313              		.loc 1 609 0
 2314 073a 0120     		movs	r0, #1
 2315 073c 0146     		mov	r1, r0
 2316 073e FFF7FEFF 		bl	SetPicture
 2317              	.LVL206:
 610:.\main.c      ****                         
 2318              		.loc 1 610 0
 2319 0742 22E0     		b	.L143
 2320              	.LVL207:
 2321              	.L150:
 614:.\main.c      ****                             }
 2322              		.loc 1 614 0 discriminator 3
 2323 0744 1E4A     		ldr	r2, .L239+8
 2324 0746 1A44     		add	r2, r2, r3
 2325 0748 0021     		movs	r1, #0
 2326 074a 82F8EA10 		strb	r1, [r2, #234]
 613:.\main.c      ****                                 bufferDisplay1.mileageSale[x]=0;
 2327              		.loc 1 613 0 discriminator 3
 2328 074e 0133     		adds	r3, r3, #1
 2329              	.LVL208:
 2330 0750 DBB2     		uxtb	r3, r3
 2331              	.LVL209:
 2332 0752 00E0     		b	.L146
 2333              	.LVL210:
 2334              	.L221:
 603:.\main.c      ****                         case 1://Placa
 2335              		.loc 1 603 0
 2336 0754 0023     		movs	r3, #0
 2337              	.L146:
 2338              	.LVL211:
 613:.\main.c      ****                                 bufferDisplay1.mileageSale[x]=0;
 2339              		.loc 1 613 0 discriminator 1
 2340 0756 0A2B     		cmp	r3, #10
 2341 0758 F4D9     		bls	.L150
 2342 075a 16E0     		b	.L143
 2343              	.L151:
 620:.\main.c      ****                             }
 2344              		.loc 1 620 0 discriminator 3
ARM GAS  C:\Users\Diego\AppData\Local\Temp\cctVJSXF.s 			page 69


 2345 075c 184A     		ldr	r2, .L239+8
 2346 075e 1A44     		add	r2, r2, r3
 2347 0760 0021     		movs	r1, #0
 2348 0762 82F8F510 		strb	r1, [r2, #245]
 619:.\main.c      ****                                 bufferDisplay1.identySale[x]=0;
 2349              		.loc 1 619 0 discriminator 3
 2350 0766 0133     		adds	r3, r3, #1
 2351              	.LVL212:
 2352 0768 DBB2     		uxtb	r3, r3
 2353              	.LVL213:
 2354 076a 00E0     		b	.L147
 2355              	.LVL214:
 2356              	.L222:
 603:.\main.c      ****                         case 1://Placa
 2357              		.loc 1 603 0
 2358 076c 0023     		movs	r3, #0
 2359              	.L147:
 2360              	.LVL215:
 619:.\main.c      ****                                 bufferDisplay1.identySale[x]=0;
 2361              		.loc 1 619 0 discriminator 1
 2362 076e 0A2B     		cmp	r3, #10
 2363 0770 F4D9     		bls	.L151
 2364 0772 0AE0     		b	.L143
 2365              	.L152:
 625:.\main.c      ****                             }
 2366              		.loc 1 625 0 discriminator 3
 2367 0774 124A     		ldr	r2, .L239+8
 2368 0776 1A44     		add	r2, r2, r3
 2369 0778 0021     		movs	r1, #0
 2370 077a 82F87212 		strb	r1, [r2, #626]
 624:.\main.c      ****                                 bufferDisplay1.shiftId[x]=0;
 2371              		.loc 1 624 0 discriminator 3
 2372 077e 0133     		adds	r3, r3, #1
 2373              	.LVL216:
 2374 0780 DBB2     		uxtb	r3, r3
 2375              	.LVL217:
 2376 0782 00E0     		b	.L148
 2377              	.LVL218:
 2378              	.L223:
 603:.\main.c      ****                         case 1://Placa
 2379              		.loc 1 603 0
 2380 0784 0023     		movs	r3, #0
 2381              	.L148:
 2382              	.LVL219:
 624:.\main.c      ****                                 bufferDisplay1.shiftId[x]=0;
 2383              		.loc 1 624 0 discriminator 1
 2384 0786 0A2B     		cmp	r3, #10
 2385 0788 F4D9     		bls	.L152
 2386              	.LVL220:
 2387              	.L143:
 629:.\main.c      ****                 break;
 2388              		.loc 1 629 0
 2389 078a FFF7FEFF 		bl	Display1_ClearRxBuffer
 2390              	.LVL221:
 630:.\main.c      ****                     
 2391              		.loc 1 630 0
 2392 078e 6DE3     		b	.L70
ARM GAS  C:\Users\Diego\AppData\Local\Temp\cctVJSXF.s 			page 70


 2393              	.L142:
 633:.\main.c      ****                         case 1://Placa
 2394              		.loc 1 633 0
 2395 0790 0B4B     		ldr	r3, .L239+8
 2396 0792 93F80031 		ldrb	r3, [r3, #256]	@ zero_extendqisi2
 2397 0796 013B     		subs	r3, r3, #1
 2398 0798 032B     		cmp	r3, #3
 2399 079a 7DD8     		bhi	.L153
 2400 079c DFE803F0 		tbb	[pc, r3]
 2401              	.L155:
 2402 07a0 1A       		.byte	(.L224-.L155)/2
 2403 07a1 41       		.byte	(.L225-.L155)/2
 2404 07a2 57       		.byte	(.L226-.L155)/2
 2405 07a3 5D       		.byte	(.L158-.L155)/2
 2406              	.LVL222:
 2407              		.p2align 1
 2408              	.L159:
 636:.\main.c      ****                             }
 2409              		.loc 1 636 0 discriminator 3
 2410 07a4 064A     		ldr	r2, .L239+8
 2411 07a6 1A44     		add	r2, r2, r3
 2412 07a8 92F84B10 		ldrb	r1, [r2, #75]	@ zero_extendqisi2
 2413 07ac 82F8DF10 		strb	r1, [r2, #223]
 635:.\main.c      ****                                 bufferDisplay1.licenceSale[x]=bufferDisplay1.valueKeys[x];
 2414              		.loc 1 635 0 discriminator 3
 2415 07b0 0133     		adds	r3, r3, #1
 2416              	.LVL223:
 2417 07b2 DBB2     		uxtb	r3, r3
 2418              	.LVL224:
 2419 07b4 0FE0     		b	.L154
 2420              	.L240:
 2421 07b6 00BF     		.align	2
 2422              	.L239:
 2423 07b8 00000000 		.word	animacion
 2424 07bc 00000000 		.word	side
 2425 07c0 00000000 		.word	bufferDisplay1
 2426 07c4 00000000 		.word	flowDisplay1
 2427 07c8 00000000 		.word	count_protector
 2428 07cc 65000000 		.word	bufferDisplay1+101
 2429 07d0 00000000 		.word	Display1_rxBuffer
 2430              	.LVL225:
 2431              	.L224:
 633:.\main.c      ****                         case 1://Placa
 2432              		.loc 1 633 0
 2433 07d4 0023     		movs	r3, #0
 2434              	.L154:
 2435              	.LVL226:
 635:.\main.c      ****                                 bufferDisplay1.licenceSale[x]=bufferDisplay1.valueKeys[x];
 2436              		.loc 1 635 0 discriminator 1
 2437 07d6 AA4A     		ldr	r2, .L241
 2438 07d8 92F84B20 		ldrb	r2, [r2, #75]	@ zero_extendqisi2
 2439 07dc 9A42     		cmp	r2, r3
 2440 07de E1D2     		bcs	.L159
 638:.\main.c      ****                                 imprimir(1,side.a.dir);
 2441              		.loc 1 638 0
 2442 07e0 A74B     		ldr	r3, .L241
 2443              	.LVL227:
ARM GAS  C:\Users\Diego\AppData\Local\Temp\cctVJSXF.s 			page 71


 2444 07e2 93F80331 		ldrb	r3, [r3, #259]	@ zero_extendqisi2
 2445 07e6 63B1     		cbz	r3, .L160
 639:.\main.c      ****                                 flowDisplay1 = 0;
 2446              		.loc 1 639 0
 2447 07e8 0120     		movs	r0, #1
 2448 07ea A64B     		ldr	r3, .L241+4
 2449 07ec 1978     		ldrb	r1, [r3]	@ zero_extendqisi2
 2450 07ee FFF7FEFF 		bl	imprimir
 2451              	.LVL228:
 640:.\main.c      ****                                 SetPicture(1,DISPLAY_INICIO0); 
 2452              		.loc 1 640 0
 2453 07f2 0022     		movs	r2, #0
 2454 07f4 A44B     		ldr	r3, .L241+8
 2455 07f6 1A60     		str	r2, [r3]
 641:.\main.c      ****                             }else{
 2456              		.loc 1 641 0
 2457 07f8 0120     		movs	r0, #1
 2458 07fa 0146     		mov	r1, r0
 2459 07fc FFF7FEFF 		bl	SetPicture
 2460              	.LVL229:
 2461 0800 4AE0     		b	.L153
 2462              	.L160:
 643:.\main.c      ****                                 SetPicture(1,DISPLAY_SUBA_MANIJA);
 2463              		.loc 1 643 0
 2464 0802 0721     		movs	r1, #7
 2465 0804 A04B     		ldr	r3, .L241+8
 2466 0806 1960     		str	r1, [r3]
 644:.\main.c      ****                             }
 2467              		.loc 1 644 0
 2468 0808 0120     		movs	r0, #1
 2469 080a FFF7FEFF 		bl	SetPicture
 2470              	.LVL230:
 2471 080e 43E0     		b	.L153
 2472              	.LVL231:
 2473              	.L161:
 650:.\main.c      ****                             }
 2474              		.loc 1 650 0 discriminator 3
 2475 0810 9B4A     		ldr	r2, .L241
 2476 0812 1A44     		add	r2, r2, r3
 2477 0814 92F84B10 		ldrb	r1, [r2, #75]	@ zero_extendqisi2
 2478 0818 82F8EA10 		strb	r1, [r2, #234]
 649:.\main.c      ****                                 bufferDisplay1.mileageSale[x]=bufferDisplay1.valueKeys[x];
 2479              		.loc 1 649 0 discriminator 3
 2480 081c 0133     		adds	r3, r3, #1
 2481              	.LVL232:
 2482 081e DBB2     		uxtb	r3, r3
 2483              	.LVL233:
 2484 0820 00E0     		b	.L156
 2485              	.LVL234:
 2486              	.L225:
 633:.\main.c      ****                         case 1://Placa
 2487              		.loc 1 633 0
 2488 0822 0023     		movs	r3, #0
 2489              	.L156:
 2490              	.LVL235:
 649:.\main.c      ****                                 bufferDisplay1.mileageSale[x]=bufferDisplay1.valueKeys[x];
 2491              		.loc 1 649 0 discriminator 1
ARM GAS  C:\Users\Diego\AppData\Local\Temp\cctVJSXF.s 			page 72


 2492 0824 964A     		ldr	r2, .L241
 2493 0826 92F84B20 		ldrb	r2, [r2, #75]	@ zero_extendqisi2
 2494 082a 9A42     		cmp	r2, r3
 2495 082c F0D2     		bcs	.L161
 652:.\main.c      ****                             SetPicture(1,DISPLAY_SUBA_MANIJA);
 2496              		.loc 1 652 0
 2497 082e 0721     		movs	r1, #7
 2498 0830 954B     		ldr	r3, .L241+8
 2499              	.LVL236:
 2500 0832 1960     		str	r1, [r3]
 653:.\main.c      ****                         break;
 2501              		.loc 1 653 0
 2502 0834 0120     		movs	r0, #1
 2503 0836 FFF7FEFF 		bl	SetPicture
 2504              	.LVL237:
 654:.\main.c      ****                         
 2505              		.loc 1 654 0
 2506 083a 2DE0     		b	.L153
 2507              	.LVL238:
 2508              	.L162:
 658:.\main.c      ****                             }
 2509              		.loc 1 658 0 discriminator 3
 2510 083c 904A     		ldr	r2, .L241
 2511 083e 1A44     		add	r2, r2, r3
 2512 0840 92F84B10 		ldrb	r1, [r2, #75]	@ zero_extendqisi2
 2513 0844 82F8F510 		strb	r1, [r2, #245]
 657:.\main.c      ****                                 bufferDisplay1.identySale[x]=bufferDisplay1.valueKeys[x];
 2514              		.loc 1 657 0 discriminator 3
 2515 0848 0133     		adds	r3, r3, #1
 2516              	.LVL239:
 2517 084a DBB2     		uxtb	r3, r3
 2518              	.LVL240:
 2519 084c 00E0     		b	.L157
 2520              	.LVL241:
 2521              	.L226:
 633:.\main.c      ****                         case 1://Placa
 2522              		.loc 1 633 0
 2523 084e 0023     		movs	r3, #0
 2524              	.L157:
 2525              	.LVL242:
 657:.\main.c      ****                                 bufferDisplay1.identySale[x]=bufferDisplay1.valueKeys[x];
 2526              		.loc 1 657 0 discriminator 1
 2527 0850 8B4A     		ldr	r2, .L241
 2528 0852 92F84B20 		ldrb	r2, [r2, #75]	@ zero_extendqisi2
 2529 0856 9A42     		cmp	r2, r3
 2530 0858 F0D2     		bcs	.L162
 2531              	.LVL243:
 2532              	.L158:
 633:.\main.c      ****                         case 1://Placa
 2533              		.loc 1 633 0 discriminator 1
 2534 085a 0023     		movs	r3, #0
 2535 085c 07E0     		b	.L163
 2536              	.LVL244:
 2537              	.L164:
 662:.\main.c      ****                             }
 2538              		.loc 1 662 0 discriminator 3
 2539 085e 884A     		ldr	r2, .L241
ARM GAS  C:\Users\Diego\AppData\Local\Temp\cctVJSXF.s 			page 73


 2540 0860 1A44     		add	r2, r2, r3
 2541 0862 92F84B10 		ldrb	r1, [r2, #75]	@ zero_extendqisi2
 2542 0866 82F87212 		strb	r1, [r2, #626]
 661:.\main.c      ****                                 bufferDisplay1.shiftId[x] =bufferDisplay1.valueKeys[x];
 2543              		.loc 1 661 0 discriminator 3
 2544 086a 0133     		adds	r3, r3, #1
 2545              	.LVL245:
 2546 086c DBB2     		uxtb	r3, r3
 2547              	.LVL246:
 2548              	.L163:
 661:.\main.c      ****                                 bufferDisplay1.shiftId[x] =bufferDisplay1.valueKeys[x];
 2549              		.loc 1 661 0 is_stmt 0 discriminator 1
 2550 086e 0A2B     		cmp	r3, #10
 2551 0870 F5D9     		bls	.L164
 664:.\main.c      ****                             numberKeys1 = 0;
 2552              		.loc 1 664 0 is_stmt 1
 2553 0872 0E22     		movs	r2, #14
 2554 0874 844B     		ldr	r3, .L241+8
 2555              	.LVL247:
 2556 0876 1A60     		str	r2, [r3]
 665:.\main.c      ****                             hiddenKeys = 5;
 2557              		.loc 1 665 0
 2558 0878 0022     		movs	r2, #0
 2559 087a 844B     		ldr	r3, .L241+12
 2560 087c 1A70     		strb	r2, [r3]
 666:.\main.c      ****                             controlChar ='*';
 2561              		.loc 1 666 0
 2562 087e 0523     		movs	r3, #5
 2563 0880 834A     		ldr	r2, .L241+16
 2564 0882 1370     		strb	r3, [r2]
 667:.\main.c      ****                             bufferDisplay1.flagKeyboard = 5;
 2565              		.loc 1 667 0
 2566 0884 2A21     		movs	r1, #42
 2567 0886 834A     		ldr	r2, .L241+20
 2568 0888 1170     		strb	r1, [r2]
 668:.\main.c      ****                             SetPicture(1,DISPLAY_INGRESE_PASSWORD);
 2569              		.loc 1 668 0
 2570 088a 7D4A     		ldr	r2, .L241
 2571 088c 82F80031 		strb	r3, [r2, #256]
 669:.\main.c      ****                         break;
 2572              		.loc 1 669 0
 2573 0890 0120     		movs	r0, #1
 2574 0892 2521     		movs	r1, #37
 2575 0894 FFF7FEFF 		bl	SetPicture
 2576              	.LVL248:
 2577              	.L153:
 672:.\main.c      ****                 break;
 2578              		.loc 1 672 0
 2579 0898 FFF7FEFF 		bl	Display1_ClearRxBuffer
 2580              	.LVL249:
 673:.\main.c      ****             }            
 2581              		.loc 1 673 0
 2582 089c E6E2     		b	.L70
 2583              	.L83:
 678:.\main.c      ****                 if((Display1_rxBuffer[0]==0xAA) && (Display1_rxBuffer[6]==0xC3) && (Display1_rxBuff
 2584              		.loc 1 678 0
 2585 089e FFF7FEFF 		bl	Display1_GetRxBufferSize
ARM GAS  C:\Users\Diego\AppData\Local\Temp\cctVJSXF.s 			page 74


 2586              	.LVL250:
 2587 08a2 0828     		cmp	r0, #8
 2588 08a4 40F0E282 		bne	.L70
 679:.\main.c      ****                     switch(Display1_rxBuffer[3]){
 2589              		.loc 1 679 0
 2590 08a8 7B4B     		ldr	r3, .L241+24
 2591 08aa 1B78     		ldrb	r3, [r3]	@ zero_extendqisi2
 2592 08ac DBB2     		uxtb	r3, r3
 2593 08ae AA2B     		cmp	r3, #170
 2594 08b0 35D1     		bne	.L165
 679:.\main.c      ****                     switch(Display1_rxBuffer[3]){
 2595              		.loc 1 679 0 is_stmt 0 discriminator 1
 2596 08b2 794B     		ldr	r3, .L241+24
 2597 08b4 9B79     		ldrb	r3, [r3, #6]	@ zero_extendqisi2
 2598 08b6 DBB2     		uxtb	r3, r3
 2599 08b8 C32B     		cmp	r3, #195
 2600 08ba 30D1     		bne	.L165
 679:.\main.c      ****                     switch(Display1_rxBuffer[3]){
 2601              		.loc 1 679 0 discriminator 2
 2602 08bc 764B     		ldr	r3, .L241+24
 2603 08be DB79     		ldrb	r3, [r3, #7]	@ zero_extendqisi2
 2604 08c0 DBB2     		uxtb	r3, r3
 2605 08c2 3C2B     		cmp	r3, #60
 2606 08c4 2BD1     		bne	.L165
 680:.\main.c      ****                         case 0xB6:  //Solicitud ibutton  
 2607              		.loc 1 680 0 is_stmt 1
 2608 08c6 744B     		ldr	r3, .L241+24
 2609 08c8 DB78     		ldrb	r3, [r3, #3]	@ zero_extendqisi2
 2610 08ca DBB2     		uxtb	r3, r3
 2611 08cc B62B     		cmp	r3, #182
 2612 08ce 04D0     		beq	.L166
 2613 08d0 B72B     		cmp	r3, #183
 2614 08d2 10D0     		beq	.L167
 2615 08d4 7E2B     		cmp	r3, #126
 2616 08d6 22D1     		bne	.L165
 2617 08d8 1AE0     		b	.L168
 2618              	.L166:
 682:.\main.c      ****                             numberKeys1 = 0;                            
 2619              		.loc 1 682 0
 2620 08da 0B22     		movs	r2, #11
 2621 08dc 6A4B     		ldr	r3, .L241+8
 2622 08de 1A60     		str	r2, [r3]
 683:.\main.c      ****                             bufferDisplay1.flagPrint =  1;
 2623              		.loc 1 683 0
 2624 08e0 0022     		movs	r2, #0
 2625 08e2 6A4B     		ldr	r3, .L241+12
 2626 08e4 1A70     		strb	r2, [r3]
 684:.\main.c      ****                             SetPicture(1,DISPLAY_ESPERANDO_ID);                            
 2627              		.loc 1 684 0
 2628 08e6 0120     		movs	r0, #1
 2629 08e8 654B     		ldr	r3, .L241
 2630 08ea 83F87002 		strb	r0, [r3, #624]
 685:.\main.c      ****                         break; 
 2631              		.loc 1 685 0
 2632 08ee 1221     		movs	r1, #18
 2633 08f0 FFF7FEFF 		bl	SetPicture
 2634              	.LVL251:
ARM GAS  C:\Users\Diego\AppData\Local\Temp\cctVJSXF.s 			page 75


 686:.\main.c      ****                         case 0xB7:  //ID por número
 2635              		.loc 1 686 0
 2636 08f4 13E0     		b	.L165
 2637              	.L167:
 688:.\main.c      ****                             flowDisplay1 = 7;//Esperando estado del dispensador  
 2638              		.loc 1 688 0
 2639 08f6 0023     		movs	r3, #0
 2640 08f8 614A     		ldr	r2, .L241
 2641 08fa 82F80031 		strb	r3, [r2, #256]
 689:.\main.c      ****                             count_protector=0;
 2642              		.loc 1 689 0
 2643 08fe 0721     		movs	r1, #7
 2644 0900 614A     		ldr	r2, .L241+8
 2645 0902 1160     		str	r1, [r2]
 690:.\main.c      ****                             SetPicture(1,DISPLAY_SUBA_MANIJA);                            
 2646              		.loc 1 690 0
 2647 0904 654A     		ldr	r2, .L241+28
 2648 0906 1370     		strb	r3, [r2]
 691:.\main.c      ****                         break;
 2649              		.loc 1 691 0
 2650 0908 0120     		movs	r0, #1
 2651 090a FFF7FEFF 		bl	SetPicture
 2652              	.LVL252:
 692:.\main.c      ****                         case 0x7E:  //Pantalla Inicial                                             
 2653              		.loc 1 692 0
 2654 090e 06E0     		b	.L165
 2655              	.L168:
 694:.\main.c      ****                             flowDisplay1 = 0;
 2656              		.loc 1 694 0
 2657 0910 0120     		movs	r0, #1
 2658 0912 0146     		mov	r1, r0
 2659 0914 FFF7FEFF 		bl	SetPicture
 2660              	.LVL253:
 695:.\main.c      ****                         break;
 2661              		.loc 1 695 0
 2662 0918 0022     		movs	r2, #0
 2663 091a 5B4B     		ldr	r3, .L241+8
 2664 091c 1A60     		str	r2, [r3]
 2665              	.L165:
 699:.\main.c      ****                 Display1_ClearRxBuffer();
 2666              		.loc 1 699 0
 2667 091e 0A20     		movs	r0, #10
 2668 0920 FFF7FEFF 		bl	CyDelay
 2669              	.LVL254:
 700:.\main.c      ****             }                        
 2670              		.loc 1 700 0
 2671 0924 FFF7FEFF 		bl	Display1_ClearRxBuffer
 2672              	.LVL255:
 2673 0928 A0E2     		b	.L70
 2674              	.L84:
 705:.\main.c      ****             Timer_Animacion_Start();
 2675              		.loc 1 705 0
 2676 092a 5D48     		ldr	r0, .L241+32
 2677 092c FFF7FEFF 		bl	isr_3_StartEx
 2678              	.LVL256:
 706:.\main.c      ****             if(touch_present(1)==1){
 2679              		.loc 1 706 0
ARM GAS  C:\Users\Diego\AppData\Local\Temp\cctVJSXF.s 			page 76


 2680 0930 FFF7FEFF 		bl	Timer_Animacion_Start
 2681              	.LVL257:
 707:.\main.c      **** 				if(touch_write(1,0x33)){
 2682              		.loc 1 707 0
 2683 0934 0120     		movs	r0, #1
 2684 0936 FFF7FEFF 		bl	touch_present
 2685              	.LVL258:
 2686 093a 0128     		cmp	r0, #1
 2687 093c 5BD1     		bne	.L169
 708:.\main.c      **** 					for(x=1;x<=8;x++){
 2688              		.loc 1 708 0
 2689 093e 3321     		movs	r1, #51
 2690 0940 FFF7FEFF 		bl	touch_write
 2691              	.LVL259:
 2692 0944 40B9     		cbnz	r0, .L227
 2693 0946 56E0     		b	.L169
 2694              	.LVL260:
 2695              	.L171:
 710:.\main.c      **** 					}
 2696              		.loc 1 710 0 discriminator 3
 2697 0948 0120     		movs	r0, #1
 2698 094a FFF7FEFF 		bl	touch_read_byte
 2699              	.LVL261:
 2700 094e 554B     		ldr	r3, .L241+36
 2701 0950 1855     		strb	r0, [r3, r4]
 709:.\main.c      **** 						temporal[x]=touch_read_byte(1);
 2702              		.loc 1 709 0 discriminator 3
 2703 0952 0134     		adds	r4, r4, #1
 2704              	.LVL262:
 2705 0954 E4B2     		uxtb	r4, r4
 2706              	.LVL263:
 2707 0956 00E0     		b	.L170
 2708              	.LVL264:
 2709              	.L227:
 2710 0958 0124     		movs	r4, #1
 2711              	.L170:
 2712              	.LVL265:
 709:.\main.c      **** 						temporal[x]=touch_read_byte(1);
 2713              		.loc 1 709 0 is_stmt 0 discriminator 1
 2714 095a 082C     		cmp	r4, #8
 2715 095c F4D9     		bls	.L171
 2716 095e 0020     		movs	r0, #0
 2717 0960 0124     		movs	r4, #1
 2718              	.LVL266:
 2719 0962 05E0     		b	.L172
 2720              	.LVL267:
 2721              	.L173:
 714:.\main.c      ****                     }
 2722              		.loc 1 714 0 is_stmt 1 discriminator 3
 2723 0964 4F4B     		ldr	r3, .L241+36
 2724 0966 195D     		ldrb	r1, [r3, r4]	@ zero_extendqisi2
 2725 0968 FFF7FEFF 		bl	crc_check
 2726              	.LVL268:
 713:.\main.c      ****                         y=crc_check(y,temporal[x]);
 2727              		.loc 1 713 0 discriminator 3
 2728 096c 0134     		adds	r4, r4, #1
 2729              	.LVL269:
ARM GAS  C:\Users\Diego\AppData\Local\Temp\cctVJSXF.s 			page 77


 2730 096e E4B2     		uxtb	r4, r4
 2731              	.LVL270:
 2732              	.L172:
 713:.\main.c      ****                         y=crc_check(y,temporal[x]);
 2733              		.loc 1 713 0 is_stmt 0 discriminator 1
 2734 0970 072C     		cmp	r4, #7
 2735 0972 F7D9     		bls	.L173
 716:.\main.c      **** 						bufferDisplay1.idSerial[0]=16;
 2736              		.loc 1 716 0 is_stmt 1
 2737 0974 4B4B     		ldr	r3, .L241+36
 2738 0976 1B7A     		ldrb	r3, [r3, #8]	@ zero_extendqisi2
 2739 0978 8342     		cmp	r3, r0
 2740 097a 3CD1     		bne	.L169
 717:.\main.c      **** 						y=16;
 2741              		.loc 1 717 0
 2742 097c 1023     		movs	r3, #16
 2743 097e 404A     		ldr	r2, .L241
 2744 0980 5370     		strb	r3, [r2, #1]
 2745              	.LVL271:
 719:.\main.c      **** 							if((temporal[x]&0x0F)>=10){
 2746              		.loc 1 719 0
 2747 0982 0121     		movs	r1, #1
 2748 0984 20E0     		b	.L174
 2749              	.LVL272:
 2750              	.L179:
 720:.\main.c      **** 								bufferDisplay1.idSerial[y]=(temporal[x]&0x0F)+55;
 2751              		.loc 1 720 0
 2752 0986 474A     		ldr	r2, .L241+36
 2753 0988 525C     		ldrb	r2, [r2, r1]	@ zero_extendqisi2
 2754 098a 02F00F00 		and	r0, r2, #15
 2755 098e 0928     		cmp	r0, #9
 2756 0990 04DD     		ble	.L175
 721:.\main.c      **** 							}else{
 2757              		.loc 1 721 0
 2758 0992 3B4C     		ldr	r4, .L241
 2759 0994 1C44     		add	r4, r4, r3
 2760 0996 3730     		adds	r0, r0, #55
 2761 0998 6070     		strb	r0, [r4, #1]
 2762 099a 03E0     		b	.L176
 2763              	.L175:
 723:.\main.c      **** 							}
 2764              		.loc 1 723 0
 2765 099c 384C     		ldr	r4, .L241
 2766 099e 1C44     		add	r4, r4, r3
 2767 09a0 3030     		adds	r0, r0, #48
 2768 09a2 6070     		strb	r0, [r4, #1]
 2769              	.L176:
 725:.\main.c      **** 							if(((temporal[x]>>4)&0x0F)>=10){
 2770              		.loc 1 725 0
 2771 09a4 013B     		subs	r3, r3, #1
 2772              	.LVL273:
 2773 09a6 DBB2     		uxtb	r3, r3
 2774              	.LVL274:
 726:.\main.c      **** 								bufferDisplay1.idSerial[y]=((temporal[x]>>4)&0x0F)+55;
 2775              		.loc 1 726 0
 2776 09a8 1209     		lsrs	r2, r2, #4
 2777 09aa 092A     		cmp	r2, #9
ARM GAS  C:\Users\Diego\AppData\Local\Temp\cctVJSXF.s 			page 78


 2778 09ac 04DD     		ble	.L177
 727:.\main.c      **** 							}else{
 2779              		.loc 1 727 0
 2780 09ae 3448     		ldr	r0, .L241
 2781 09b0 1844     		add	r0, r0, r3
 2782 09b2 3732     		adds	r2, r2, #55
 2783 09b4 4270     		strb	r2, [r0, #1]
 2784 09b6 03E0     		b	.L178
 2785              	.L177:
 729:.\main.c      **** 							}
 2786              		.loc 1 729 0
 2787 09b8 3148     		ldr	r0, .L241
 2788 09ba 1844     		add	r0, r0, r3
 2789 09bc 3032     		adds	r2, r2, #48
 2790 09be 4270     		strb	r2, [r0, #1]
 2791              	.L178:
 731:.\main.c      **** 						}                        
 2792              		.loc 1 731 0 discriminator 2
 2793 09c0 013B     		subs	r3, r3, #1
 2794              	.LVL275:
 2795 09c2 DBB2     		uxtb	r3, r3
 2796              	.LVL276:
 719:.\main.c      **** 							if((temporal[x]&0x0F)>=10){
 2797              		.loc 1 719 0 discriminator 2
 2798 09c4 0131     		adds	r1, r1, #1
 2799              	.LVL277:
 2800 09c6 C9B2     		uxtb	r1, r1
 2801              	.LVL278:
 2802              	.L174:
 719:.\main.c      **** 							if((temporal[x]&0x0F)>=10){
 2803              		.loc 1 719 0 is_stmt 0 discriminator 1
 2804 09c8 0829     		cmp	r1, #8
 2805 09ca DCD9     		bls	.L179
 733:.\main.c      ****                         Display1_ClearRxBuffer();
 2806              		.loc 1 733 0 is_stmt 1
 2807 09cc 0120     		movs	r0, #1
 2808 09ce 1321     		movs	r1, #19
 2809              	.LVL279:
 2810 09d0 FFF7FEFF 		bl	SetPicture
 2811              	.LVL280:
 734:.\main.c      ****                         CyDelay(700);
 2812              		.loc 1 734 0
 2813 09d4 FFF7FEFF 		bl	Display1_ClearRxBuffer
 2814              	.LVL281:
 735:.\main.c      ****                         bufferDisplay1.flagKeyboard = 2;
 2815              		.loc 1 735 0
 2816 09d8 4FF42F70 		mov	r0, #700
 2817 09dc FFF7FEFF 		bl	CyDelay
 2818              	.LVL282:
 736:.\main.c      ****                         flowDisplay1 = 9;
 2819              		.loc 1 736 0
 2820 09e0 0222     		movs	r2, #2
 2821 09e2 274B     		ldr	r3, .L241
 2822 09e4 83F80021 		strb	r2, [r3, #256]
 737:.\main.c      ****                         SetPicture(1,DISPLAY_INTRODUZCA_KILOMETRAJE);
 2823              		.loc 1 737 0
 2824 09e8 0922     		movs	r2, #9
ARM GAS  C:\Users\Diego\AppData\Local\Temp\cctVJSXF.s 			page 79


 2825 09ea 274B     		ldr	r3, .L241+8
 2826 09ec 1A60     		str	r2, [r3]
 738:.\main.c      ****                         
 2827              		.loc 1 738 0
 2828 09ee 0120     		movs	r0, #1
 2829 09f0 0E21     		movs	r1, #14
 2830 09f2 FFF7FEFF 		bl	SetPicture
 2831              	.LVL283:
 2832              	.L169:
 743:.\main.c      ****                 flowDisplay1 = 0;	
 2833              		.loc 1 743 0
 2834 09f6 294B     		ldr	r3, .L241+28
 2835 09f8 1B78     		ldrb	r3, [r3]	@ zero_extendqisi2
 2836 09fa 3B2B     		cmp	r3, #59
 2837 09fc 40F23682 		bls	.L70
 744:.\main.c      ****     			count_protector=0;
 2838              		.loc 1 744 0
 2839 0a00 0023     		movs	r3, #0
 2840 0a02 214A     		ldr	r2, .L241+8
 2841 0a04 1360     		str	r3, [r2]
 745:.\main.c      ****                 SetPicture(1,DISPLAY_INICIO0);
 2842              		.loc 1 745 0
 2843 0a06 254A     		ldr	r2, .L241+28
 2844 0a08 1370     		strb	r3, [r2]
 746:.\main.c      ****     		}
 2845              		.loc 1 746 0
 2846 0a0a 0120     		movs	r0, #1
 2847 0a0c 0146     		mov	r1, r0
 2848 0a0e FFF7FEFF 		bl	SetPicture
 2849              	.LVL284:
 2850 0a12 2BE2     		b	.L70
 2851              	.L85:
 754:.\main.c      ****                 if((Display1_rxBuffer[0]==0xAA) && (Display1_rxBuffer[6]==0xC3) && (Display1_rxBuff
 2852              		.loc 1 754 0
 2853 0a14 FFF7FEFF 		bl	Display1_GetRxBufferSize
 2854              	.LVL285:
 2855 0a18 0828     		cmp	r0, #8
 2856 0a1a 40F02782 		bne	.L70
 755:.\main.c      ****                     switch(Display1_rxBuffer[3]){
 2857              		.loc 1 755 0
 2858 0a1e 1E4B     		ldr	r3, .L241+24
 2859 0a20 1B78     		ldrb	r3, [r3]	@ zero_extendqisi2
 2860 0a22 DBB2     		uxtb	r3, r3
 2861 0a24 AA2B     		cmp	r3, #170
 2862 0a26 6DD1     		bne	.L180
 755:.\main.c      ****                     switch(Display1_rxBuffer[3]){
 2863              		.loc 1 755 0 is_stmt 0 discriminator 1
 2864 0a28 1B4B     		ldr	r3, .L241+24
 2865 0a2a 9B79     		ldrb	r3, [r3, #6]	@ zero_extendqisi2
 2866 0a2c DBB2     		uxtb	r3, r3
 2867 0a2e C32B     		cmp	r3, #195
 2868 0a30 68D1     		bne	.L180
 755:.\main.c      ****                     switch(Display1_rxBuffer[3]){
 2869              		.loc 1 755 0 discriminator 2
 2870 0a32 194B     		ldr	r3, .L241+24
 2871 0a34 DB79     		ldrb	r3, [r3, #7]	@ zero_extendqisi2
 2872 0a36 DBB2     		uxtb	r3, r3
ARM GAS  C:\Users\Diego\AppData\Local\Temp\cctVJSXF.s 			page 80


 2873 0a38 3C2B     		cmp	r3, #60
 2874 0a3a 63D1     		bne	.L180
 756:.\main.c      ****                         case 0x46:  //Turnos              
 2875              		.loc 1 756 0 is_stmt 1
 2876 0a3c 164B     		ldr	r3, .L241+24
 2877 0a3e DB78     		ldrb	r3, [r3, #3]	@ zero_extendqisi2
 2878 0a40 DBB2     		uxtb	r3, r3
 2879 0a42 7E2B     		cmp	r3, #126
 2880 0a44 57D0     		beq	.L181
 2881 0a46 04D8     		bhi	.L182
 2882 0a48 462B     		cmp	r3, #70
 2883 0a4a 07D0     		beq	.L183
 2884 0a4c 552B     		cmp	r3, #85
 2885 0a4e 2DD0     		beq	.L184
 2886 0a50 58E0     		b	.L180
 2887              	.L182:
 2888 0a52 942B     		cmp	r3, #148
 2889 0a54 47D0     		beq	.L185
 2890 0a56 B52B     		cmp	r3, #181
 2891 0a58 3DD0     		beq	.L186
 2892 0a5a 53E0     		b	.L180
 2893              	.L183:
 758:.\main.c      ****                             if(lockTurn ==1){
 2894              		.loc 1 758 0
 2895 0a5c 0D22     		movs	r2, #13
 2896 0a5e 0A4B     		ldr	r3, .L241+8
 2897 0a60 1A60     		str	r2, [r3]
 759:.\main.c      ****                                 SetPicture(1,DISPLAY_CERRAR_TURNO);
 2898              		.loc 1 759 0
 2899 0a62 114B     		ldr	r3, .L241+40
 2900 0a64 1B78     		ldrb	r3, [r3]	@ zero_extendqisi2
 2901 0a66 012B     		cmp	r3, #1
 2902 0a68 04D1     		bne	.L187
 760:.\main.c      ****                             }else{
 2903              		.loc 1 760 0
 2904 0a6a 0120     		movs	r0, #1
 2905 0a6c 2A21     		movs	r1, #42
 2906 0a6e FFF7FEFF 		bl	SetPicture
 2907              	.LVL286:
 2908 0a72 47E0     		b	.L180
 2909              	.L187:
 762:.\main.c      ****                             }                            
 2910              		.loc 1 762 0
 2911 0a74 0120     		movs	r0, #1
 2912 0a76 2321     		movs	r1, #35
 2913 0a78 FFF7FEFF 		bl	SetPicture
 2914              	.LVL287:
 2915 0a7c 42E0     		b	.L180
 2916              	.L242:
 2917 0a7e 00BF     		.align	2
 2918              	.L241:
 2919 0a80 00000000 		.word	bufferDisplay1
 2920 0a84 00000000 		.word	side
 2921 0a88 00000000 		.word	flowDisplay1
 2922 0a8c 00000000 		.word	numberKeys1
 2923 0a90 00000000 		.word	hiddenKeys
 2924 0a94 00000000 		.word	controlChar
ARM GAS  C:\Users\Diego\AppData\Local\Temp\cctVJSXF.s 			page 81


 2925 0a98 00000000 		.word	Display1_rxBuffer
 2926 0a9c 00000000 		.word	count_protector
 2927 0aa0 00000000 		.word	animacion
 2928 0aa4 00000000 		.word	temporal
 2929 0aa8 00000000 		.word	lockTurn
 2930              	.L184:
 766:.\main.c      ****                             bufferDisplay1.flagKeyboard = 6;
 2931              		.loc 1 766 0
 2932 0aac 0E22     		movs	r2, #14
 2933 0aae AB4B     		ldr	r3, .L243
 2934 0ab0 1A60     		str	r2, [r3]
 767:.\main.c      ****                             numberKeys1 = 0;
 2935              		.loc 1 767 0
 2936 0ab2 0622     		movs	r2, #6
 2937 0ab4 AA4B     		ldr	r3, .L243+4
 2938 0ab6 83F80021 		strb	r2, [r3, #256]
 768:.\main.c      ****                             hiddenKeys = 5;
 2939              		.loc 1 768 0
 2940 0aba 0022     		movs	r2, #0
 2941 0abc A94B     		ldr	r3, .L243+8
 2942 0abe 1A70     		strb	r2, [r3]
 769:.\main.c      ****                             controlChar ='*';
 2943              		.loc 1 769 0
 2944 0ac0 0522     		movs	r2, #5
 2945 0ac2 A94B     		ldr	r3, .L243+12
 2946 0ac4 1A70     		strb	r2, [r3]
 770:.\main.c      ****                             SetPicture(1,DISPLAY_INGRESE_PASSWORD);                           
 2947              		.loc 1 770 0
 2948 0ac6 2A22     		movs	r2, #42
 2949 0ac8 A84B     		ldr	r3, .L243+16
 2950 0aca 1A70     		strb	r2, [r3]
 771:.\main.c      ****                         break;
 2951              		.loc 1 771 0
 2952 0acc 0120     		movs	r0, #1
 2953 0ace 2521     		movs	r1, #37
 2954 0ad0 FFF7FEFF 		bl	SetPicture
 2955              	.LVL288:
 772:.\main.c      ****                         case 0xB5:  //Copia de recibo 
 2956              		.loc 1 772 0
 2957 0ad4 16E0     		b	.L180
 2958              	.L186:
 774:.\main.c      ****                             SetPicture(1,DISPLAY_OPERACIONES);                            
 2959              		.loc 1 774 0
 2960 0ad6 0C22     		movs	r2, #12
 2961 0ad8 A04B     		ldr	r3, .L243
 2962 0ada 1A60     		str	r2, [r3]
 775:.\main.c      ****                         break;
 2963              		.loc 1 775 0
 2964 0adc 0120     		movs	r0, #1
 2965 0ade 8321     		movs	r1, #131
 2966 0ae0 FFF7FEFF 		bl	SetPicture
 2967              	.LVL289:
 776:.\main.c      ****                             
 2968              		.loc 1 776 0
 2969 0ae4 0EE0     		b	.L180
 2970              	.L185:
 779:.\main.c      ****                             SetPicture(1,DISPLAY_INICIO0);                            
ARM GAS  C:\Users\Diego\AppData\Local\Temp\cctVJSXF.s 			page 82


 2971              		.loc 1 779 0
 2972 0ae6 0022     		movs	r2, #0
 2973 0ae8 9C4B     		ldr	r3, .L243
 2974 0aea 1A60     		str	r2, [r3]
 780:.\main.c      ****                         break;
 2975              		.loc 1 780 0
 2976 0aec 0120     		movs	r0, #1
 2977 0aee 0146     		mov	r1, r0
 2978 0af0 FFF7FEFF 		bl	SetPicture
 2979              	.LVL290:
 781:.\main.c      ****                         
 2980              		.loc 1 781 0
 2981 0af4 06E0     		b	.L180
 2982              	.L181:
 784:.\main.c      ****                             SetPicture(1,DISPLAY_INICIO0);                            
 2983              		.loc 1 784 0
 2984 0af6 0022     		movs	r2, #0
 2985 0af8 984B     		ldr	r3, .L243
 2986 0afa 1A60     		str	r2, [r3]
 785:.\main.c      ****                         break;
 2987              		.loc 1 785 0
 2988 0afc 0120     		movs	r0, #1
 2989 0afe 0146     		mov	r1, r0
 2990 0b00 FFF7FEFF 		bl	SetPicture
 2991              	.LVL291:
 2992              	.L180:
 789:.\main.c      ****                 Display1_ClearRxBuffer();
 2993              		.loc 1 789 0
 2994 0b04 0A20     		movs	r0, #10
 2995 0b06 FFF7FEFF 		bl	CyDelay
 2996              	.LVL292:
 790:.\main.c      ****             }
 2997              		.loc 1 790 0
 2998 0b0a FFF7FEFF 		bl	Display1_ClearRxBuffer
 2999              	.LVL293:
 3000 0b0e ADE1     		b	.L70
 3001              	.L86:
 795:.\main.c      ****                 if((Display1_rxBuffer[0]==0xAA) && (Display1_rxBuffer[6]==0xC3) && (Display1_rxBuff
 3002              		.loc 1 795 0
 3003 0b10 FFF7FEFF 		bl	Display1_GetRxBufferSize
 3004              	.LVL294:
 3005 0b14 0828     		cmp	r0, #8
 3006 0b16 40F0A981 		bne	.L70
 796:.\main.c      ****                     switch(Display1_rxBuffer[3]){
 3007              		.loc 1 796 0
 3008 0b1a 954B     		ldr	r3, .L243+20
 3009 0b1c 1B78     		ldrb	r3, [r3]	@ zero_extendqisi2
 3010 0b1e DBB2     		uxtb	r3, r3
 3011 0b20 AA2B     		cmp	r3, #170
 3012 0b22 44D1     		bne	.L188
 796:.\main.c      ****                     switch(Display1_rxBuffer[3]){
 3013              		.loc 1 796 0 is_stmt 0 discriminator 1
 3014 0b24 924B     		ldr	r3, .L243+20
 3015 0b26 9B79     		ldrb	r3, [r3, #6]	@ zero_extendqisi2
 3016 0b28 DBB2     		uxtb	r3, r3
 3017 0b2a C32B     		cmp	r3, #195
 3018 0b2c 3FD1     		bne	.L188
ARM GAS  C:\Users\Diego\AppData\Local\Temp\cctVJSXF.s 			page 83


 796:.\main.c      ****                     switch(Display1_rxBuffer[3]){
 3019              		.loc 1 796 0 discriminator 2
 3020 0b2e 904B     		ldr	r3, .L243+20
 3021 0b30 DB79     		ldrb	r3, [r3, #7]	@ zero_extendqisi2
 3022 0b32 DBB2     		uxtb	r3, r3
 3023 0b34 3C2B     		cmp	r3, #60
 3024 0b36 3AD1     		bne	.L188
 797:.\main.c      ****                         case 0x47:  //Cambio de turno: Abrir  
 3025              		.loc 1 797 0 is_stmt 1
 3026 0b38 8D4B     		ldr	r3, .L243+20
 3027 0b3a DB78     		ldrb	r3, [r3, #3]	@ zero_extendqisi2
 3028 0b3c DBB2     		uxtb	r3, r3
 3029 0b3e 482B     		cmp	r3, #72
 3030 0b40 17D0     		beq	.L189
 3031 0b42 02D8     		bhi	.L190
 3032 0b44 472B     		cmp	r3, #71
 3033 0b46 05D0     		beq	.L191
 3034 0b48 31E0     		b	.L188
 3035              	.L190:
 3036 0b4a 7E2B     		cmp	r3, #126
 3037 0b4c 20D0     		beq	.L192
 3038 0b4e 942B     		cmp	r3, #148
 3039 0b50 26D0     		beq	.L193
 3040 0b52 2CE0     		b	.L188
 3041              	.L191:
 799:.\main.c      ****                             numberKeys1 = 0;    
 3042              		.loc 1 799 0
 3043 0b54 0922     		movs	r2, #9
 3044 0b56 814B     		ldr	r3, .L243
 3045 0b58 1A60     		str	r2, [r3]
 800:.\main.c      ****                             bufferDisplay1.flagKeyboard = 4;
 3046              		.loc 1 800 0
 3047 0b5a 0022     		movs	r2, #0
 3048 0b5c 814B     		ldr	r3, .L243+8
 3049 0b5e 1A70     		strb	r2, [r3]
 801:.\main.c      ****                             SetPicture(1,DISPLAY_INTRODUZCA_CEDULA);                            
 3050              		.loc 1 801 0
 3051 0b60 0422     		movs	r2, #4
 3052 0b62 7F4B     		ldr	r3, .L243+4
 3053 0b64 83F80021 		strb	r2, [r3, #256]
 802:.\main.c      ****                         break;
 3054              		.loc 1 802 0
 3055 0b68 0120     		movs	r0, #1
 3056 0b6a 2421     		movs	r1, #36
 3057 0b6c FFF7FEFF 		bl	SetPicture
 3058              	.LVL295:
 803:.\main.c      ****                         case 0x48:  //Cambio de turno: Cerrar 
 3059              		.loc 1 803 0
 3060 0b70 1DE0     		b	.L188
 3061              	.L189:
 805:.\main.c      ****                             numberKeys1 = 0;   
 3062              		.loc 1 805 0
 3063 0b72 0922     		movs	r2, #9
 3064 0b74 794B     		ldr	r3, .L243
 3065 0b76 1A60     		str	r2, [r3]
 806:.\main.c      ****                             bufferDisplay1.flagKeyboard = 4;
 3066              		.loc 1 806 0
ARM GAS  C:\Users\Diego\AppData\Local\Temp\cctVJSXF.s 			page 84


 3067 0b78 0022     		movs	r2, #0
 3068 0b7a 7A4B     		ldr	r3, .L243+8
 3069 0b7c 1A70     		strb	r2, [r3]
 807:.\main.c      ****                             SetPicture(1,DISPLAY_INTRODUZCA_CEDULA);                           
 3070              		.loc 1 807 0
 3071 0b7e 0422     		movs	r2, #4
 3072 0b80 774B     		ldr	r3, .L243+4
 3073 0b82 83F80021 		strb	r2, [r3, #256]
 808:.\main.c      ****                         break;                         
 3074              		.loc 1 808 0
 3075 0b86 0120     		movs	r0, #1
 3076 0b88 2421     		movs	r1, #36
 3077 0b8a FFF7FEFF 		bl	SetPicture
 3078              	.LVL296:
 809:.\main.c      ****                         case 0x7E:  //Pantalla Inicial                                             
 3079              		.loc 1 809 0
 3080 0b8e 0EE0     		b	.L188
 3081              	.L192:
 811:.\main.c      ****                             flowDisplay1 = 0;
 3082              		.loc 1 811 0
 3083 0b90 0120     		movs	r0, #1
 3084 0b92 0146     		mov	r1, r0
 3085 0b94 FFF7FEFF 		bl	SetPicture
 3086              	.LVL297:
 812:.\main.c      ****                         break;
 3087              		.loc 1 812 0
 3088 0b98 0022     		movs	r2, #0
 3089 0b9a 704B     		ldr	r3, .L243
 3090 0b9c 1A60     		str	r2, [r3]
 813:.\main.c      ****                         case 0x94:  //Pantalla Inicial                                             
 3091              		.loc 1 813 0
 3092 0b9e 06E0     		b	.L188
 3093              	.L193:
 815:.\main.c      ****                             flowDisplay1 = 0;
 3094              		.loc 1 815 0
 3095 0ba0 0120     		movs	r0, #1
 3096 0ba2 0146     		mov	r1, r0
 3097 0ba4 FFF7FEFF 		bl	SetPicture
 3098              	.LVL298:
 816:.\main.c      ****                         break;
 3099              		.loc 1 816 0
 3100 0ba8 0022     		movs	r2, #0
 3101 0baa 6C4B     		ldr	r3, .L243
 3102 0bac 1A60     		str	r2, [r3]
 3103              	.L188:
 820:.\main.c      ****                 Display1_ClearRxBuffer();
 3104              		.loc 1 820 0
 3105 0bae 0A20     		movs	r0, #10
 3106 0bb0 FFF7FEFF 		bl	CyDelay
 3107              	.LVL299:
 821:.\main.c      ****             }                        
 3108              		.loc 1 821 0
 3109 0bb4 FFF7FEFF 		bl	Display1_ClearRxBuffer
 3110              	.LVL300:
 3111 0bb8 58E1     		b	.L70
 3112              	.L87:
 826:.\main.c      ****                 case 0: //Cancelar
ARM GAS  C:\Users\Diego\AppData\Local\Temp\cctVJSXF.s 			page 85


 3113              		.loc 1 826 0
 3114 0bba 0120     		movs	r0, #1
 3115 0bbc 6A4B     		ldr	r3, .L243+12
 3116 0bbe 1978     		ldrb	r1, [r3]	@ zero_extendqisi2
 3117 0bc0 6A4B     		ldr	r3, .L243+16
 3118 0bc2 1A78     		ldrb	r2, [r3]	@ zero_extendqisi2
 3119 0bc4 FFF7FEFF 		bl	alphanumeric_keyboard
 3120              	.LVL301:
 3121 0bc8 10B1     		cbz	r0, .L194
 3122 0bca 0128     		cmp	r0, #1
 3123 0bcc 47D0     		beq	.L195
 3124 0bce 4DE1     		b	.L70
 3125              	.L194:
 828:.\main.c      ****                         case 1://ID Estacion
 3126              		.loc 1 828 0
 3127 0bd0 634B     		ldr	r3, .L243+4
 3128 0bd2 93F80031 		ldrb	r3, [r3, #256]	@ zero_extendqisi2
 3129 0bd6 052B     		cmp	r3, #5
 3130 0bd8 1FD0     		beq	.L229
 3131 0bda 062B     		cmp	r3, #6
 3132 0bdc 30D0     		beq	.L230
 3133 0bde 012B     		cmp	r3, #1
 3134 0be0 3AD1     		bne	.L196
 3135 0be2 05E0     		b	.L228
 3136              	.LVL302:
 3137              	.L200:
 831:.\main.c      ****                             }
 3138              		.loc 1 831 0 discriminator 3
 3139 0be4 0021     		movs	r1, #0
 3140 0be6 634A     		ldr	r2, .L243+24
 3141 0be8 D154     		strb	r1, [r2, r3]
 830:.\main.c      ****                                 idStation[x]=0;
 3142              		.loc 1 830 0 discriminator 3
 3143 0bea 0133     		adds	r3, r3, #1
 3144              	.LVL303:
 3145 0bec DBB2     		uxtb	r3, r3
 3146              	.LVL304:
 3147 0bee 00E0     		b	.L199
 3148              	.LVL305:
 3149              	.L228:
 828:.\main.c      ****                         case 1://ID Estacion
 3150              		.loc 1 828 0
 3151 0bf0 0023     		movs	r3, #0
 3152              	.L199:
 3153              	.LVL306:
 830:.\main.c      ****                                 idStation[x]=0;
 3154              		.loc 1 830 0 discriminator 1
 3155 0bf2 5D4A     		ldr	r2, .L243+12
 3156 0bf4 1278     		ldrb	r2, [r2]	@ zero_extendqisi2
 3157 0bf6 9342     		cmp	r3, r2
 3158 0bf8 F4D3     		bcc	.L200
 833:.\main.c      ****                             SetPicture(1,DISPLAY_INICIO0);
 3159              		.loc 1 833 0
 3160 0bfa 0022     		movs	r2, #0
 3161 0bfc 574B     		ldr	r3, .L243
 3162              	.LVL307:
 3163 0bfe 1A60     		str	r2, [r3]
ARM GAS  C:\Users\Diego\AppData\Local\Temp\cctVJSXF.s 			page 86


 834:.\main.c      ****                         break;
 3164              		.loc 1 834 0
 3165 0c00 0120     		movs	r0, #1
 3166 0c02 0146     		mov	r1, r0
 3167 0c04 FFF7FEFF 		bl	SetPicture
 3168              	.LVL308:
 835:.\main.c      ****                         case 5://Pass
 3169              		.loc 1 835 0
 3170 0c08 26E0     		b	.L196
 3171              	.LVL309:
 3172              	.L201:
 838:.\main.c      ****                             }
 3173              		.loc 1 838 0 discriminator 3
 3174 0c0a 554A     		ldr	r2, .L243+4
 3175 0c0c 1A44     		add	r2, r2, r3
 3176 0c0e 0021     		movs	r1, #0
 3177 0c10 82F87D12 		strb	r1, [r2, #637]
 837:.\main.c      ****                                 bufferDisplay1.shiftPassword[x]=0;
 3178              		.loc 1 837 0 discriminator 3
 3179 0c14 0133     		adds	r3, r3, #1
 3180              	.LVL310:
 3181 0c16 DBB2     		uxtb	r3, r3
 3182              	.LVL311:
 3183 0c18 00E0     		b	.L197
 3184              	.LVL312:
 3185              	.L229:
 828:.\main.c      ****                         case 1://ID Estacion
 3186              		.loc 1 828 0
 3187 0c1a 0023     		movs	r3, #0
 3188              	.L197:
 3189              	.LVL313:
 837:.\main.c      ****                                 bufferDisplay1.shiftPassword[x]=0;
 3190              		.loc 1 837 0 discriminator 1
 3191 0c1c 524A     		ldr	r2, .L243+12
 3192 0c1e 1278     		ldrb	r2, [r2]	@ zero_extendqisi2
 3193 0c20 9342     		cmp	r3, r2
 3194 0c22 F2D3     		bcc	.L201
 840:.\main.c      ****                             SetPicture(1,DISPLAY_INICIO0);
 3195              		.loc 1 840 0
 3196 0c24 0022     		movs	r2, #0
 3197 0c26 4D4B     		ldr	r3, .L243
 3198              	.LVL314:
 3199 0c28 1A60     		str	r2, [r3]
 841:.\main.c      ****                         break;
 3200              		.loc 1 841 0
 3201 0c2a 0120     		movs	r0, #1
 3202 0c2c 0146     		mov	r1, r0
 3203 0c2e FFF7FEFF 		bl	SetPicture
 3204              	.LVL315:
 842:.\main.c      ****                             
 3205              		.loc 1 842 0
 3206 0c32 11E0     		b	.L196
 3207              	.LVL316:
 3208              	.L202:
 846:.\main.c      ****                             }
 3209              		.loc 1 846 0 discriminator 3
 3210 0c34 0021     		movs	r1, #0
ARM GAS  C:\Users\Diego\AppData\Local\Temp\cctVJSXF.s 			page 87


 3211 0c36 504A     		ldr	r2, .L243+28
 3212 0c38 D154     		strb	r1, [r2, r3]
 845:.\main.c      ****                                 configAccess[x]=0;
 3213              		.loc 1 845 0 discriminator 3
 3214 0c3a 0133     		adds	r3, r3, #1
 3215              	.LVL317:
 3216 0c3c DBB2     		uxtb	r3, r3
 3217              	.LVL318:
 3218 0c3e 00E0     		b	.L198
 3219              	.LVL319:
 3220              	.L230:
 828:.\main.c      ****                         case 1://ID Estacion
 3221              		.loc 1 828 0
 3222 0c40 0123     		movs	r3, #1
 3223              	.L198:
 3224              	.LVL320:
 845:.\main.c      ****                                 configAccess[x]=0;
 3225              		.loc 1 845 0 discriminator 1
 3226 0c42 4D4A     		ldr	r2, .L243+28
 3227 0c44 1278     		ldrb	r2, [r2]	@ zero_extendqisi2
 3228 0c46 9A42     		cmp	r2, r3
 3229 0c48 F4D2     		bcs	.L202
 848:.\main.c      ****                             SetPicture(1,DISPLAY_INICIO0);
 3230              		.loc 1 848 0
 3231 0c4a 0022     		movs	r2, #0
 3232 0c4c 434B     		ldr	r3, .L243
 3233              	.LVL321:
 3234 0c4e 1A60     		str	r2, [r3]
 849:.\main.c      ****                         break;
 3235              		.loc 1 849 0
 3236 0c50 0120     		movs	r0, #1
 3237 0c52 0146     		mov	r1, r0
 3238 0c54 FFF7FEFF 		bl	SetPicture
 3239              	.LVL322:
 3240              	.L196:
 852:.\main.c      ****                 break;
 3241              		.loc 1 852 0
 3242 0c58 FFF7FEFF 		bl	Display1_ClearRxBuffer
 3243              	.LVL323:
 853:.\main.c      ****                     
 3244              		.loc 1 853 0
 3245 0c5c 06E1     		b	.L70
 3246              	.L195:
 856:.\main.c      ****                         case 1://Pass
 3247              		.loc 1 856 0
 3248 0c5e 404B     		ldr	r3, .L243+4
 3249 0c60 93F80031 		ldrb	r3, [r3, #256]	@ zero_extendqisi2
 3250 0c64 052B     		cmp	r3, #5
 3251 0c66 23D0     		beq	.L232
 3252 0c68 062B     		cmp	r3, #6
 3253 0c6a 37D0     		beq	.L233
 3254 0c6c 012B     		cmp	r3, #1
 3255 0c6e 71D1     		bne	.L203
 3256 0c70 08E0     		b	.L231
 3257              	.LVL324:
 3258              	.L207:
 859:.\main.c      ****                             }
ARM GAS  C:\Users\Diego\AppData\Local\Temp\cctVJSXF.s 			page 88


 3259              		.loc 1 859 0 discriminator 3
 3260 0c72 3B4A     		ldr	r2, .L243+4
 3261 0c74 1A44     		add	r2, r2, r3
 3262 0c76 92F84B10 		ldrb	r1, [r2, #75]	@ zero_extendqisi2
 3263 0c7a 3E4A     		ldr	r2, .L243+24
 3264 0c7c D154     		strb	r1, [r2, r3]
 858:.\main.c      ****                                 idStation[x] =bufferDisplay1.valueKeys[x];
 3265              		.loc 1 858 0 discriminator 3
 3266 0c7e 0133     		adds	r3, r3, #1
 3267              	.LVL325:
 3268 0c80 DBB2     		uxtb	r3, r3
 3269              	.LVL326:
 3270 0c82 00E0     		b	.L206
 3271              	.LVL327:
 3272              	.L231:
 856:.\main.c      ****                         case 1://Pass
 3273              		.loc 1 856 0
 3274 0c84 0023     		movs	r3, #0
 3275              	.L206:
 3276              	.LVL328:
 858:.\main.c      ****                                 idStation[x] =bufferDisplay1.valueKeys[x];
 3277              		.loc 1 858 0 discriminator 1
 3278 0c86 384A     		ldr	r2, .L243+12
 3279 0c88 1278     		ldrb	r2, [r2]	@ zero_extendqisi2
 3280 0c8a 9342     		cmp	r3, r2
 3281 0c8c F1D3     		bcc	.L207
 861:.\main.c      ****                             SetPicture(1,DISPLAY_INICIO0);
 3282              		.loc 1 861 0
 3283 0c8e 0022     		movs	r2, #0
 3284 0c90 324B     		ldr	r3, .L243
 3285              	.LVL329:
 3286 0c92 1A60     		str	r2, [r3]
 862:.\main.c      ****                         break;
 3287              		.loc 1 862 0
 3288 0c94 0120     		movs	r0, #1
 3289 0c96 0146     		mov	r1, r0
 3290 0c98 FFF7FEFF 		bl	SetPicture
 3291              	.LVL330:
 863:.\main.c      ****                         case 5://Pass
 3292              		.loc 1 863 0
 3293 0c9c 5AE0     		b	.L203
 3294              	.LVL331:
 3295              	.L208:
 866:.\main.c      ****                             }
 3296              		.loc 1 866 0 discriminator 3
 3297 0c9e 304A     		ldr	r2, .L243+4
 3298 0ca0 1A44     		add	r2, r2, r3
 3299 0ca2 92F84B10 		ldrb	r1, [r2, #75]	@ zero_extendqisi2
 3300 0ca6 82F87D12 		strb	r1, [r2, #637]
 865:.\main.c      ****                                 bufferDisplay1.shiftPassword[x] =bufferDisplay1.valueKeys[x];
 3301              		.loc 1 865 0 discriminator 3
 3302 0caa 0133     		adds	r3, r3, #1
 3303              	.LVL332:
 3304 0cac DBB2     		uxtb	r3, r3
 3305              	.LVL333:
 3306 0cae 00E0     		b	.L204
 3307              	.LVL334:
ARM GAS  C:\Users\Diego\AppData\Local\Temp\cctVJSXF.s 			page 89


 3308              	.L232:
 856:.\main.c      ****                         case 1://Pass
 3309              		.loc 1 856 0
 3310 0cb0 0023     		movs	r3, #0
 3311              	.L204:
 3312              	.LVL335:
 865:.\main.c      ****                                 bufferDisplay1.shiftPassword[x] =bufferDisplay1.valueKeys[x];
 3313              		.loc 1 865 0 discriminator 1
 3314 0cb2 2D4A     		ldr	r2, .L243+12
 3315 0cb4 1278     		ldrb	r2, [r2]	@ zero_extendqisi2
 3316 0cb6 9342     		cmp	r3, r2
 3317 0cb8 F1D3     		bcc	.L208
 868:.\main.c      ****                             SetPicture(1,DISPLAY_POR_FAVOR_ESPERE);
 3318              		.loc 1 868 0
 3319 0cba 0022     		movs	r2, #0
 3320 0cbc 274B     		ldr	r3, .L243
 3321              	.LVL336:
 3322 0cbe 1A60     		str	r2, [r3]
 869:.\main.c      ****                         break; 
 3323              		.loc 1 869 0
 3324 0cc0 0120     		movs	r0, #1
 3325 0cc2 3921     		movs	r1, #57
 3326 0cc4 FFF7FEFF 		bl	SetPicture
 3327              	.LVL337:
 870:.\main.c      ****                         case 6://Pass
 3328              		.loc 1 870 0
 3329 0cc8 44E0     		b	.L203
 3330              	.LVL338:
 3331              	.L209:
 873:.\main.c      ****                             }
 3332              		.loc 1 873 0 discriminator 3
 3333 0cca 254A     		ldr	r2, .L243+4
 3334 0ccc 1A44     		add	r2, r2, r3
 3335 0cce 92F84B10 		ldrb	r1, [r2, #75]	@ zero_extendqisi2
 3336 0cd2 294A     		ldr	r2, .L243+28
 3337 0cd4 D154     		strb	r1, [r2, r3]
 872:.\main.c      ****                                 configAccess[x] =bufferDisplay1.valueKeys[x];
 3338              		.loc 1 872 0 discriminator 3
 3339 0cd6 0133     		adds	r3, r3, #1
 3340              	.LVL339:
 3341 0cd8 DBB2     		uxtb	r3, r3
 3342              	.LVL340:
 3343 0cda 00E0     		b	.L205
 3344              	.LVL341:
 3345              	.L233:
 856:.\main.c      ****                         case 1://Pass
 3346              		.loc 1 856 0
 3347 0cdc 0123     		movs	r3, #1
 3348              	.L205:
 3349              	.LVL342:
 872:.\main.c      ****                                 configAccess[x] =bufferDisplay1.valueKeys[x];
 3350              		.loc 1 872 0 discriminator 1
 3351 0cde 264A     		ldr	r2, .L243+28
 3352 0ce0 1278     		ldrb	r2, [r2]	@ zero_extendqisi2
 3353 0ce2 9A42     		cmp	r2, r3
 3354 0ce4 F1D2     		bcs	.L209
 875:.\main.c      ****                                 SetPicture(1,DISPLAY_PASSWORD_VALIDO);
ARM GAS  C:\Users\Diego\AppData\Local\Temp\cctVJSXF.s 			page 90


 3355              		.loc 1 875 0
 3356 0ce6 244B     		ldr	r3, .L243+28
 3357              	.LVL343:
 3358 0ce8 5A78     		ldrb	r2, [r3, #1]	@ zero_extendqisi2
 3359 0cea 244B     		ldr	r3, .L243+32
 3360 0cec 5B7B     		ldrb	r3, [r3, #13]	@ zero_extendqisi2
 3361 0cee 9A42     		cmp	r2, r3
 3362 0cf0 21D1     		bne	.L210
 875:.\main.c      ****                                 SetPicture(1,DISPLAY_PASSWORD_VALIDO);
 3363              		.loc 1 875 0 is_stmt 0 discriminator 1
 3364 0cf2 214B     		ldr	r3, .L243+28
 3365 0cf4 9A78     		ldrb	r2, [r3, #2]	@ zero_extendqisi2
 3366 0cf6 214B     		ldr	r3, .L243+32
 3367 0cf8 9B7B     		ldrb	r3, [r3, #14]	@ zero_extendqisi2
 3368 0cfa 9A42     		cmp	r2, r3
 3369 0cfc 1BD1     		bne	.L210
 875:.\main.c      ****                                 SetPicture(1,DISPLAY_PASSWORD_VALIDO);
 3370              		.loc 1 875 0 discriminator 2
 3371 0cfe 1E4B     		ldr	r3, .L243+28
 3372 0d00 DA78     		ldrb	r2, [r3, #3]	@ zero_extendqisi2
 3373 0d02 1E4B     		ldr	r3, .L243+32
 3374 0d04 DB7B     		ldrb	r3, [r3, #15]	@ zero_extendqisi2
 3375 0d06 9A42     		cmp	r2, r3
 3376 0d08 15D1     		bne	.L210
 875:.\main.c      ****                                 SetPicture(1,DISPLAY_PASSWORD_VALIDO);
 3377              		.loc 1 875 0 discriminator 3
 3378 0d0a 1B4B     		ldr	r3, .L243+28
 3379 0d0c 1A79     		ldrb	r2, [r3, #4]	@ zero_extendqisi2
 3380 0d0e 1B4B     		ldr	r3, .L243+32
 3381 0d10 1B7C     		ldrb	r3, [r3, #16]	@ zero_extendqisi2
 3382 0d12 9A42     		cmp	r2, r3
 3383 0d14 0FD1     		bne	.L210
 876:.\main.c      ****                                 CyDelay(700);
 3384              		.loc 1 876 0 is_stmt 1
 3385 0d16 0120     		movs	r0, #1
 3386 0d18 2621     		movs	r1, #38
 3387 0d1a FFF7FEFF 		bl	SetPicture
 3388              	.LVL344:
 877:.\main.c      ****                                 flowDisplay1 = 15;
 3389              		.loc 1 877 0
 3390 0d1e 4FF42F70 		mov	r0, #700
 3391 0d22 FFF7FEFF 		bl	CyDelay
 3392              	.LVL345:
 878:.\main.c      ****                                 SetPicture(1,DISPLAY_CONFIGURACIONES);
 3393              		.loc 1 878 0
 3394 0d26 0F22     		movs	r2, #15
 3395 0d28 0C4B     		ldr	r3, .L243
 3396 0d2a 1A60     		str	r2, [r3]
 879:.\main.c      ****                             }else{
 3397              		.loc 1 879 0
 3398 0d2c 0120     		movs	r0, #1
 3399 0d2e 5A21     		movs	r1, #90
 3400 0d30 FFF7FEFF 		bl	SetPicture
 3401              	.LVL346:
 3402 0d34 0EE0     		b	.L203
 3403              	.L210:
 881:.\main.c      ****                                 CyDelay(700);
ARM GAS  C:\Users\Diego\AppData\Local\Temp\cctVJSXF.s 			page 91


 3404              		.loc 1 881 0
 3405 0d36 0120     		movs	r0, #1
 3406 0d38 2721     		movs	r1, #39
 3407 0d3a FFF7FEFF 		bl	SetPicture
 3408              	.LVL347:
 882:.\main.c      ****                                 flowDisplay1 = 0;
 3409              		.loc 1 882 0
 3410 0d3e 4FF42F70 		mov	r0, #700
 3411 0d42 FFF7FEFF 		bl	CyDelay
 3412              	.LVL348:
 883:.\main.c      ****                                 SetPicture(1,DISPLAY_INICIO0);
 3413              		.loc 1 883 0
 3414 0d46 0022     		movs	r2, #0
 3415 0d48 044B     		ldr	r3, .L243
 3416 0d4a 1A60     		str	r2, [r3]
 884:.\main.c      ****                             }
 3417              		.loc 1 884 0
 3418 0d4c 0120     		movs	r0, #1
 3419 0d4e 0146     		mov	r1, r0
 3420 0d50 FFF7FEFF 		bl	SetPicture
 3421              	.LVL349:
 3422              	.L203:
 888:.\main.c      ****                 break;
 3423              		.loc 1 888 0
 3424 0d54 FFF7FEFF 		bl	Display1_ClearRxBuffer
 3425              	.LVL350:
 889:.\main.c      ****             }            
 3426              		.loc 1 889 0
 3427 0d58 88E0     		b	.L70
 3428              	.L244:
 3429 0d5a 00BF     		.align	2
 3430              	.L243:
 3431 0d5c 00000000 		.word	flowDisplay1
 3432 0d60 00000000 		.word	bufferDisplay1
 3433 0d64 00000000 		.word	numberKeys1
 3434 0d68 00000000 		.word	hiddenKeys
 3435 0d6c 00000000 		.word	controlChar
 3436 0d70 00000000 		.word	Display1_rxBuffer
 3437 0d74 00000000 		.word	idStation
 3438 0d78 00000000 		.word	configAccess
 3439 0d7c 00000000 		.word	.LANCHOR1
 3440              	.L88:
 894:.\main.c      ****                 if((Display1_rxBuffer[0]==0xAA) && (Display1_rxBuffer[6]==0xC3) && (Display1_rxBuff
 3441              		.loc 1 894 0
 3442 0d80 FFF7FEFF 		bl	Display1_GetRxBufferSize
 3443              	.LVL351:
 3444 0d84 0828     		cmp	r0, #8
 3445 0d86 71D1     		bne	.L70
 895:.\main.c      ****                     switch(Display1_rxBuffer[3]){
 3446              		.loc 1 895 0
 3447 0d88 394B     		ldr	r3, .L245
 3448 0d8a 1B78     		ldrb	r3, [r3]	@ zero_extendqisi2
 3449 0d8c DBB2     		uxtb	r3, r3
 3450 0d8e AA2B     		cmp	r3, #170
 3451 0d90 67D1     		bne	.L211
 895:.\main.c      ****                     switch(Display1_rxBuffer[3]){
 3452              		.loc 1 895 0 is_stmt 0 discriminator 1
ARM GAS  C:\Users\Diego\AppData\Local\Temp\cctVJSXF.s 			page 92


 3453 0d92 374B     		ldr	r3, .L245
 3454 0d94 9B79     		ldrb	r3, [r3, #6]	@ zero_extendqisi2
 3455 0d96 DBB2     		uxtb	r3, r3
 3456 0d98 C32B     		cmp	r3, #195
 3457 0d9a 62D1     		bne	.L211
 895:.\main.c      ****                     switch(Display1_rxBuffer[3]){
 3458              		.loc 1 895 0 discriminator 2
 3459 0d9c 344B     		ldr	r3, .L245
 3460 0d9e DB79     		ldrb	r3, [r3, #7]	@ zero_extendqisi2
 3461 0da0 DBB2     		uxtb	r3, r3
 3462 0da2 3C2B     		cmp	r3, #60
 3463 0da4 5DD1     		bne	.L211
 896:.\main.c      ****                         case 0x82:  //ID Estacion  
 3464              		.loc 1 896 0 is_stmt 1
 3465 0da6 324B     		ldr	r3, .L245
 3466 0da8 DB78     		ldrb	r3, [r3, #3]	@ zero_extendqisi2
 3467 0daa DBB2     		uxtb	r3, r3
 3468 0dac 652B     		cmp	r3, #101
 3469 0dae 1CD0     		beq	.L212
 3470 0db0 04D8     		bhi	.L213
 3471 0db2 582B     		cmp	r3, #88
 3472 0db4 37D0     		beq	.L214
 3473 0db6 5A2B     		cmp	r3, #90
 3474 0db8 26D0     		beq	.L215
 3475 0dba 52E0     		b	.L211
 3476              	.L213:
 3477 0dbc 822B     		cmp	r3, #130
 3478 0dbe 04D0     		beq	.L216
 3479 0dc0 942B     		cmp	r3, #148
 3480 0dc2 47D0     		beq	.L217
 3481 0dc4 7E2B     		cmp	r3, #126
 3482 0dc6 4CD1     		bne	.L211
 3483 0dc8 3CE0     		b	.L218
 3484              	.L216:
 898:.\main.c      ****                             numberKeys1 = 0; 
 3485              		.loc 1 898 0
 3486 0dca 0E22     		movs	r2, #14
 3487 0dcc 294B     		ldr	r3, .L245+4
 3488 0dce 1A60     		str	r2, [r3]
 899:.\main.c      ****                             controlChar = 0;
 3489              		.loc 1 899 0
 3490 0dd0 0023     		movs	r3, #0
 3491 0dd2 294A     		ldr	r2, .L245+8
 3492 0dd4 1370     		strb	r3, [r2]
 900:.\main.c      ****                             bufferDisplay1.flagKeyboard = 1;
 3493              		.loc 1 900 0
 3494 0dd6 294A     		ldr	r2, .L245+12
 3495 0dd8 1370     		strb	r3, [r2]
 901:.\main.c      ****                             SetPicture(1,DISPLAY_INTRODUZCA_VALOR);                            
 3496              		.loc 1 901 0
 3497 0dda 0120     		movs	r0, #1
 3498 0ddc 284B     		ldr	r3, .L245+16
 3499 0dde 83F80001 		strb	r0, [r3, #256]
 902:.\main.c      ****                         break;
 3500              		.loc 1 902 0
 3501 0de2 0621     		movs	r1, #6
 3502 0de4 FFF7FEFF 		bl	SetPicture
ARM GAS  C:\Users\Diego\AppData\Local\Temp\cctVJSXF.s 			page 93


 3503              	.LVL352:
 903:.\main.c      ****                         case 0x65:  //Test Impresoras 
 3504              		.loc 1 903 0
 3505 0de8 3BE0     		b	.L211
 3506              	.L212:
 905:.\main.c      ****                             numberKeys1 = 0;   
 3507              		.loc 1 905 0
 3508 0dea 0922     		movs	r2, #9
 3509 0dec 214B     		ldr	r3, .L245+4
 3510 0dee 1A60     		str	r2, [r3]
 906:.\main.c      ****                             bufferDisplay1.flagKeyboard = 4;
 3511              		.loc 1 906 0
 3512 0df0 0022     		movs	r2, #0
 3513 0df2 214B     		ldr	r3, .L245+8
 3514 0df4 1A70     		strb	r2, [r3]
 907:.\main.c      ****                             SetPicture(1,DISPLAY_AMBAS_IMPRESORAS_FUNCIONANDO);                    
 3515              		.loc 1 907 0
 3516 0df6 0422     		movs	r2, #4
 3517 0df8 214B     		ldr	r3, .L245+16
 3518 0dfa 83F80021 		strb	r2, [r3, #256]
 908:.\main.c      ****                         break;
 3519              		.loc 1 908 0
 3520 0dfe 0120     		movs	r0, #1
 3521 0e00 6B21     		movs	r1, #107
 3522 0e02 FFF7FEFF 		bl	SetPicture
 3523              	.LVL353:
 909:.\main.c      ****                         
 3524              		.loc 1 909 0
 3525 0e06 2CE0     		b	.L211
 3526              	.L215:
 912:.\main.c      ****                             numberKeys1 = 0;   
 3527              		.loc 1 912 0
 3528 0e08 0922     		movs	r2, #9
 3529 0e0a 1A4B     		ldr	r3, .L245+4
 3530 0e0c 1A60     		str	r2, [r3]
 913:.\main.c      ****                             bufferDisplay1.flagKeyboard = 4;
 3531              		.loc 1 913 0
 3532 0e0e 0022     		movs	r2, #0
 3533 0e10 194B     		ldr	r3, .L245+8
 3534 0e12 1A70     		strb	r2, [r3]
 914:.\main.c      ****                             SetPicture(1,DISPLAY_INTRODUZCA_VALOR);                            
 3535              		.loc 1 914 0
 3536 0e14 0422     		movs	r2, #4
 3537 0e16 1A4B     		ldr	r3, .L245+16
 3538 0e18 83F80021 		strb	r2, [r3, #256]
 915:.\main.c      ****                         break;
 3539              		.loc 1 915 0
 3540 0e1c 0120     		movs	r0, #1
 3541 0e1e 0621     		movs	r1, #6
 3542 0e20 FFF7FEFF 		bl	SetPicture
 3543              	.LVL354:
 916:.\main.c      ****                         case 0x58:  //Hora y Fecha
 3544              		.loc 1 916 0
 3545 0e24 1DE0     		b	.L211
 3546              	.L214:
 918:.\main.c      ****                             numberKeys1 = 0;   
 3547              		.loc 1 918 0
ARM GAS  C:\Users\Diego\AppData\Local\Temp\cctVJSXF.s 			page 94


 3548 0e26 0922     		movs	r2, #9
 3549 0e28 124B     		ldr	r3, .L245+4
 3550 0e2a 1A60     		str	r2, [r3]
 919:.\main.c      ****                             bufferDisplay1.flagKeyboard = 4;
 3551              		.loc 1 919 0
 3552 0e2c 0022     		movs	r2, #0
 3553 0e2e 124B     		ldr	r3, .L245+8
 3554 0e30 1A70     		strb	r2, [r3]
 920:.\main.c      ****                             SetPicture(1,DISPLAY_CONFIGURAR_FECHA_HORA);                           
 3555              		.loc 1 920 0
 3556 0e32 0422     		movs	r2, #4
 3557 0e34 124B     		ldr	r3, .L245+16
 3558 0e36 83F80021 		strb	r2, [r3, #256]
 921:.\main.c      ****                         break;
 3559              		.loc 1 921 0
 3560 0e3a 0120     		movs	r0, #1
 3561 0e3c 3E21     		movs	r1, #62
 3562 0e3e FFF7FEFF 		bl	SetPicture
 3563              	.LVL355:
 922:.\main.c      ****                         case 0x7E:  //Pantalla Inicial                                             
 3564              		.loc 1 922 0
 3565 0e42 0EE0     		b	.L211
 3566              	.L218:
 924:.\main.c      ****                             flowDisplay1 = 0;
 3567              		.loc 1 924 0
 3568 0e44 0120     		movs	r0, #1
 3569 0e46 0146     		mov	r1, r0
 3570 0e48 FFF7FEFF 		bl	SetPicture
 3571              	.LVL356:
 925:.\main.c      ****                         break;
 3572              		.loc 1 925 0
 3573 0e4c 0022     		movs	r2, #0
 3574 0e4e 094B     		ldr	r3, .L245+4
 3575 0e50 1A60     		str	r2, [r3]
 926:.\main.c      ****                         case 0x94:  //Pantalla Inicial                                             
 3576              		.loc 1 926 0
 3577 0e52 06E0     		b	.L211
 3578              	.L217:
 928:.\main.c      ****                             flowDisplay1 = 0;
 3579              		.loc 1 928 0
 3580 0e54 0120     		movs	r0, #1
 3581 0e56 0146     		mov	r1, r0
 3582 0e58 FFF7FEFF 		bl	SetPicture
 3583              	.LVL357:
 929:.\main.c      ****                         break;
 3584              		.loc 1 929 0
 3585 0e5c 0022     		movs	r2, #0
 3586 0e5e 054B     		ldr	r3, .L245+4
 3587 0e60 1A60     		str	r2, [r3]
 3588              	.L211:
 933:.\main.c      ****                 Display1_ClearRxBuffer();
 3589              		.loc 1 933 0
 3590 0e62 0A20     		movs	r0, #10
 3591 0e64 FFF7FEFF 		bl	CyDelay
 3592              	.LVL358:
 934:.\main.c      ****             }                        
 3593              		.loc 1 934 0
ARM GAS  C:\Users\Diego\AppData\Local\Temp\cctVJSXF.s 			page 95


 3594 0e68 FFF7FEFF 		bl	Display1_ClearRxBuffer
 3595              	.LVL359:
 3596              	.L70:
 940:.\main.c      **** 
 3597              		.loc 1 940 0
 3598 0e6c 04B0     		add	sp, sp, #16
 3599              		.cfi_def_cfa_offset 16
 3600              		@ sp needed
 3601 0e6e 70BD     		pop	{r4, r5, r6, pc}
 3602              	.L246:
 3603              		.align	2
 3604              	.L245:
 3605 0e70 00000000 		.word	Display1_rxBuffer
 3606 0e74 00000000 		.word	flowDisplay1
 3607 0e78 00000000 		.word	numberKeys1
 3608 0e7c 00000000 		.word	controlChar
 3609 0e80 00000000 		.word	bufferDisplay1
 3610              		.cfi_endproc
 3611              	.LFE71:
 3612              		.size	PollingDisplay1, .-PollingDisplay1
 3613              		.section	.text.PollingDisplay2,"ax",%progbits
 3614              		.align	2
 3615              		.global	PollingDisplay2
 3616              		.thumb
 3617              		.thumb_func
 3618              		.type	PollingDisplay2, %function
 3619              	PollingDisplay2:
 3620              	.LFB72:
 953:.\main.c      ****     switch(flowDisplay2){
 3621              		.loc 1 953 0
 3622              		.cfi_startproc
 3623              		@ args = 0, pretend = 0, frame = 0
 3624              		@ frame_needed = 0, uses_anonymous_args = 0
 3625 0000 08B5     		push	{r3, lr}
 3626              		.cfi_def_cfa_offset 8
 3627              		.cfi_offset 3, -8
 3628              		.cfi_offset 14, -4
 954:.\main.c      ****         case 0:
 3629              		.loc 1 954 0
 3630 0002 A94B     		ldr	r3, .L286
 3631 0004 1B68     		ldr	r3, [r3]
 3632 0006 062B     		cmp	r3, #6
 3633 0008 00F28B81 		bhi	.L247
 3634 000c DFE813F0 		tbh	[pc, r3, lsl #1]
 3635              	.L250:
 3636 0010 0700     		.2byte	(.L249-.L250)/2
 3637 0012 0D00     		.2byte	(.L251-.L250)/2
 3638 0014 4100     		.2byte	(.L252-.L250)/2
 3639 0016 9200     		.2byte	(.L253-.L250)/2
 3640 0018 ED00     		.2byte	(.L254-.L250)/2
 3641 001a 1D01     		.2byte	(.L255-.L250)/2
 3642 001c 5001     		.2byte	(.L256-.L250)/2
 3643              		.p2align 1
 3644              	.L249:
 956:.\main.c      ****             flowDisplay2 =1;
 3645              		.loc 1 956 0
 3646 001e FFF7FEFF 		bl	InitDisplay2
ARM GAS  C:\Users\Diego\AppData\Local\Temp\cctVJSXF.s 			page 96


 3647              	.LVL360:
 957:.\main.c      ****         break;
 3648              		.loc 1 957 0
 3649 0022 0122     		movs	r2, #1
 3650 0024 A04B     		ldr	r3, .L286
 3651 0026 1A60     		str	r2, [r3]
 958:.\main.c      ****         case 1: //Menu
 3652              		.loc 1 958 0
 3653 0028 08BD     		pop	{r3, pc}
 3654              	.L251:
 960:.\main.c      ****             if(Display2_GetRxBufferSize()==8){
 3655              		.loc 1 960 0
 3656 002a 0220     		movs	r0, #2
 3657 002c 2321     		movs	r1, #35
 3658 002e FFF7FEFF 		bl	ShowRectangle
 3659              	.LVL361:
 961:.\main.c      ****                 if((Display2_rxBuffer[0]==0xAA) && (Display2_rxBuffer[6]==0xC3) && (Display2_rxBuff
 3660              		.loc 1 961 0
 3661 0032 FFF7FEFF 		bl	Display2_GetRxBufferSize
 3662              	.LVL362:
 3663 0036 0828     		cmp	r0, #8
 3664 0038 40F07381 		bne	.L247
 962:.\main.c      ****                     switch(Display2_rxBuffer[3]){
 3665              		.loc 1 962 0
 3666 003c 9B4B     		ldr	r3, .L286+4
 3667 003e 1B78     		ldrb	r3, [r3]	@ zero_extendqisi2
 3668 0040 DBB2     		uxtb	r3, r3
 3669 0042 AA2B     		cmp	r3, #170
 3670 0044 1FD1     		bne	.L257
 962:.\main.c      ****                     switch(Display2_rxBuffer[3]){
 3671              		.loc 1 962 0 is_stmt 0 discriminator 1
 3672 0046 994B     		ldr	r3, .L286+4
 3673 0048 9B79     		ldrb	r3, [r3, #6]	@ zero_extendqisi2
 3674 004a DBB2     		uxtb	r3, r3
 3675 004c C32B     		cmp	r3, #195
 3676 004e 1AD1     		bne	.L257
 962:.\main.c      ****                     switch(Display2_rxBuffer[3]){
 3677              		.loc 1 962 0 discriminator 2
 3678 0050 964B     		ldr	r3, .L286+4
 3679 0052 DB79     		ldrb	r3, [r3, #7]	@ zero_extendqisi2
 3680 0054 DBB2     		uxtb	r3, r3
 3681 0056 3C2B     		cmp	r3, #60
 3682 0058 15D1     		bne	.L257
 963:.\main.c      ****                         case 0x3A:  //Pantalla forma de pago
 3683              		.loc 1 963 0 is_stmt 1
 3684 005a 944B     		ldr	r3, .L286+4
 3685 005c DB78     		ldrb	r3, [r3, #3]	@ zero_extendqisi2
 3686 005e DBB2     		uxtb	r3, r3
 3687 0060 3A2B     		cmp	r3, #58
 3688 0062 02D0     		beq	.L258
 3689 0064 7E2B     		cmp	r3, #126
 3690 0066 07D0     		beq	.L259
 3691 0068 0DE0     		b	.L257
 3692              	.L258:
 965:.\main.c      ****                             SetPicture(2,DISPLAY_FORMA_PAGO_DESEADA);                            
 3693              		.loc 1 965 0
 3694 006a 0220     		movs	r0, #2
ARM GAS  C:\Users\Diego\AppData\Local\Temp\cctVJSXF.s 			page 97


 3695 006c 8E4B     		ldr	r3, .L286
 3696 006e 1860     		str	r0, [r3]
 966:.\main.c      ****                         break;   
 3697              		.loc 1 966 0
 3698 0070 0421     		movs	r1, #4
 3699 0072 FFF7FEFF 		bl	SetPicture
 3700              	.LVL363:
 967:.\main.c      ****                         case 0x7E:  //Pantalla Inicial                                             
 3701              		.loc 1 967 0
 3702 0076 06E0     		b	.L257
 3703              	.L259:
 969:.\main.c      ****                             flowDisplay2 = 0;
 3704              		.loc 1 969 0
 3705 0078 0220     		movs	r0, #2
 3706 007a 0121     		movs	r1, #1
 3707 007c FFF7FEFF 		bl	SetPicture
 3708              	.LVL364:
 970:.\main.c      ****                         break;
 3709              		.loc 1 970 0
 3710 0080 0022     		movs	r2, #0
 3711 0082 894B     		ldr	r3, .L286
 3712 0084 1A60     		str	r2, [r3]
 3713              	.L257:
 974:.\main.c      ****                 Display2_ClearRxBuffer();
 3714              		.loc 1 974 0
 3715 0086 0A20     		movs	r0, #10
 3716 0088 FFF7FEFF 		bl	CyDelay
 3717              	.LVL365:
 975:.\main.c      ****             }
 3718              		.loc 1 975 0
 3719 008c FFF7FEFF 		bl	Display2_ClearRxBuffer
 3720              	.LVL366:
 3721 0090 08BD     		pop	{r3, pc}
 3722              	.L252:
 979:.\main.c      ****                 if((Display2_rxBuffer[0]==0xAA) && (Display2_rxBuffer[6]==0xC3) && (Display2_rxBuff
 3723              		.loc 1 979 0
 3724 0092 FFF7FEFF 		bl	Display2_GetRxBufferSize
 3725              	.LVL367:
 3726 0096 0828     		cmp	r0, #8
 3727 0098 40F04381 		bne	.L247
 980:.\main.c      ****                     switch(Display2_rxBuffer[3]){
 3728              		.loc 1 980 0
 3729 009c 834B     		ldr	r3, .L286+4
 3730 009e 1B78     		ldrb	r3, [r3]	@ zero_extendqisi2
 3731 00a0 DBB2     		uxtb	r3, r3
 3732 00a2 AA2B     		cmp	r3, #170
 3733 00a4 40D1     		bne	.L260
 980:.\main.c      ****                     switch(Display2_rxBuffer[3]){
 3734              		.loc 1 980 0 is_stmt 0 discriminator 1
 3735 00a6 814B     		ldr	r3, .L286+4
 3736 00a8 9B79     		ldrb	r3, [r3, #6]	@ zero_extendqisi2
 3737 00aa DBB2     		uxtb	r3, r3
 3738 00ac C32B     		cmp	r3, #195
 3739 00ae 3BD1     		bne	.L260
 980:.\main.c      ****                     switch(Display2_rxBuffer[3]){
 3740              		.loc 1 980 0 discriminator 2
 3741 00b0 7E4B     		ldr	r3, .L286+4
ARM GAS  C:\Users\Diego\AppData\Local\Temp\cctVJSXF.s 			page 98


 3742 00b2 DB79     		ldrb	r3, [r3, #7]	@ zero_extendqisi2
 3743 00b4 DBB2     		uxtb	r3, r3
 3744 00b6 3C2B     		cmp	r3, #60
 3745 00b8 36D1     		bne	.L260
 981:.\main.c      ****                         case 0x0D:  //Pantalla efectivo              
 3746              		.loc 1 981 0 is_stmt 1
 3747 00ba 7C4B     		ldr	r3, .L286+4
 3748 00bc DB78     		ldrb	r3, [r3, #3]	@ zero_extendqisi2
 3749 00be DBB2     		uxtb	r3, r3
 3750 00c0 452B     		cmp	r3, #69
 3751 00c2 1AD0     		beq	.L261
 3752 00c4 04D8     		bhi	.L262
 3753 00c6 0D2B     		cmp	r3, #13
 3754 00c8 07D0     		beq	.L263
 3755 00ca 0E2B     		cmp	r3, #14
 3756 00cc 0DD0     		beq	.L264
 3757 00ce 2BE0     		b	.L260
 3758              	.L262:
 3759 00d0 7E2B     		cmp	r3, #126
 3760 00d2 22D0     		beq	.L265
 3761 00d4 942B     		cmp	r3, #148
 3762 00d6 18D0     		beq	.L266
 3763 00d8 26E0     		b	.L260
 3764              	.L263:
 983:.\main.c      ****                             SetPicture(2,DISPLAY_FORMA_PROGRAMACION);                            
 3765              		.loc 1 983 0
 3766 00da 0322     		movs	r2, #3
 3767 00dc 724B     		ldr	r3, .L286
 3768 00de 1A60     		str	r2, [r3]
 984:.\main.c      ****                         break;
 3769              		.loc 1 984 0
 3770 00e0 0220     		movs	r0, #2
 3771 00e2 0521     		movs	r1, #5
 3772 00e4 FFF7FEFF 		bl	SetPicture
 3773              	.LVL368:
 985:.\main.c      ****                         case 0x0E:  //Pantalla credito   
 3774              		.loc 1 985 0
 3775 00e8 1EE0     		b	.L260
 3776              	.L264:
 987:.\main.c      ****                             SetPicture(2,DISPLAY_ID_DIGITAL);                            
 3777              		.loc 1 987 0
 3778 00ea 0422     		movs	r2, #4
 3779 00ec 6E4B     		ldr	r3, .L286
 3780 00ee 1A60     		str	r2, [r3]
 988:.\main.c      ****                         break;
 3781              		.loc 1 988 0
 3782 00f0 0220     		movs	r0, #2
 3783 00f2 8521     		movs	r1, #133
 3784 00f4 FFF7FEFF 		bl	SetPicture
 3785              	.LVL369:
 989:.\main.c      ****                         case 0x45:  //Pantalla otras opciones 
 3786              		.loc 1 989 0
 3787 00f8 16E0     		b	.L260
 3788              	.L261:
 991:.\main.c      ****                             SetPicture(2,DISPLAY_OPERACIONES);                            
 3789              		.loc 1 991 0
 3790 00fa 0522     		movs	r2, #5
ARM GAS  C:\Users\Diego\AppData\Local\Temp\cctVJSXF.s 			page 99


 3791 00fc 6A4B     		ldr	r3, .L286
 3792 00fe 1A60     		str	r2, [r3]
 992:.\main.c      ****                         break;
 3793              		.loc 1 992 0
 3794 0100 0220     		movs	r0, #2
 3795 0102 8321     		movs	r1, #131
 3796 0104 FFF7FEFF 		bl	SetPicture
 3797              	.LVL370:
 993:.\main.c      ****                             
 3798              		.loc 1 993 0
 3799 0108 0EE0     		b	.L260
 3800              	.L266:
 996:.\main.c      ****                             SetPicture(2,DISPLAY_INICIO0);                            
 3801              		.loc 1 996 0
 3802 010a 0022     		movs	r2, #0
 3803 010c 664B     		ldr	r3, .L286
 3804 010e 1A60     		str	r2, [r3]
 997:.\main.c      ****                         break;
 3805              		.loc 1 997 0
 3806 0110 0220     		movs	r0, #2
 3807 0112 0121     		movs	r1, #1
 3808 0114 FFF7FEFF 		bl	SetPicture
 3809              	.LVL371:
 998:.\main.c      ****                         
 3810              		.loc 1 998 0
 3811 0118 06E0     		b	.L260
 3812              	.L265:
1001:.\main.c      ****                             SetPicture(2,DISPLAY_INICIO0);                            
 3813              		.loc 1 1001 0
 3814 011a 0022     		movs	r2, #0
 3815 011c 624B     		ldr	r3, .L286
 3816 011e 1A60     		str	r2, [r3]
1002:.\main.c      ****                         break;
 3817              		.loc 1 1002 0
 3818 0120 0220     		movs	r0, #2
 3819 0122 0121     		movs	r1, #1
 3820 0124 FFF7FEFF 		bl	SetPicture
 3821              	.LVL372:
 3822              	.L260:
1006:.\main.c      ****                 Display2_ClearRxBuffer();
 3823              		.loc 1 1006 0
 3824 0128 0A20     		movs	r0, #10
 3825 012a FFF7FEFF 		bl	CyDelay
 3826              	.LVL373:
1007:.\main.c      ****             }
 3827              		.loc 1 1007 0
 3828 012e FFF7FEFF 		bl	Display2_ClearRxBuffer
 3829              	.LVL374:
 3830 0132 08BD     		pop	{r3, pc}
 3831              	.L253:
1012:.\main.c      ****                 if((Display2_rxBuffer[0]==0xAA) && (Display2_rxBuffer[6]==0xC3) && (Display2_rxBuff
 3832              		.loc 1 1012 0
 3833 0134 FFF7FEFF 		bl	Display2_GetRxBufferSize
 3834              	.LVL375:
 3835 0138 0828     		cmp	r0, #8
 3836 013a 40F0F280 		bne	.L247
1013:.\main.c      ****                     switch(Display2_rxBuffer[3]){
ARM GAS  C:\Users\Diego\AppData\Local\Temp\cctVJSXF.s 			page 100


 3837              		.loc 1 1013 0
 3838 013e 5B4B     		ldr	r3, .L286+4
 3839 0140 1B78     		ldrb	r3, [r3]	@ zero_extendqisi2
 3840 0142 DBB2     		uxtb	r3, r3
 3841 0144 AA2B     		cmp	r3, #170
 3842 0146 4AD1     		bne	.L267
1013:.\main.c      ****                     switch(Display2_rxBuffer[3]){
 3843              		.loc 1 1013 0 is_stmt 0 discriminator 1
 3844 0148 584B     		ldr	r3, .L286+4
 3845 014a 9B79     		ldrb	r3, [r3, #6]	@ zero_extendqisi2
 3846 014c DBB2     		uxtb	r3, r3
 3847 014e C32B     		cmp	r3, #195
 3848 0150 45D1     		bne	.L267
1013:.\main.c      ****                     switch(Display2_rxBuffer[3]){
 3849              		.loc 1 1013 0 discriminator 2
 3850 0152 564B     		ldr	r3, .L286+4
 3851 0154 DB79     		ldrb	r3, [r3, #7]	@ zero_extendqisi2
 3852 0156 DBB2     		uxtb	r3, r3
 3853 0158 3C2B     		cmp	r3, #60
 3854 015a 40D1     		bne	.L267
1014:.\main.c      ****                         case 0x0F:  //Preset dinero                
 3855              		.loc 1 1014 0 is_stmt 1
 3856 015c 534B     		ldr	r3, .L286+4
 3857 015e DB78     		ldrb	r3, [r3, #3]	@ zero_extendqisi2
 3858 0160 DBB2     		uxtb	r3, r3
 3859 0162 3B2B     		cmp	r3, #59
 3860 0164 2CD0     		beq	.L268
 3861 0166 04D8     		bhi	.L269
 3862 0168 0F2B     		cmp	r3, #15
 3863 016a 09D0     		beq	.L270
 3864 016c 102B     		cmp	r3, #16
 3865 016e 0FD0     		beq	.L271
 3866 0170 35E0     		b	.L267
 3867              	.L269:
 3868 0172 7E2B     		cmp	r3, #126
 3869 0174 2CD0     		beq	.L272
 3870 0176 942B     		cmp	r3, #148
 3871 0178 1AD0     		beq	.L273
 3872 017a 432B     		cmp	r3, #67
 3873 017c 2FD1     		bne	.L267
 3874 017e 0FE0     		b	.L274
 3875              	.L270:
1016:.\main.c      ****                             SetPicture(2,DISPLAY_INTRODUZCA_VALOR);                            
 3876              		.loc 1 1016 0
 3877 0180 0422     		movs	r2, #4
 3878 0182 494B     		ldr	r3, .L286
 3879 0184 1A60     		str	r2, [r3]
1017:.\main.c      ****                         break; 
 3880              		.loc 1 1017 0
 3881 0186 0220     		movs	r0, #2
 3882 0188 0621     		movs	r1, #6
 3883 018a FFF7FEFF 		bl	SetPicture
 3884              	.LVL376:
1018:.\main.c      ****                         case 0x10:  //Preset volumen                 
 3885              		.loc 1 1018 0
 3886 018e 26E0     		b	.L267
 3887              	.L271:
ARM GAS  C:\Users\Diego\AppData\Local\Temp\cctVJSXF.s 			page 101


1020:.\main.c      ****                             SetPicture(2,DISPLAY_INTRODUZCA_VOLUMEN);                            
 3888              		.loc 1 1020 0
 3889 0190 0522     		movs	r2, #5
 3890 0192 454B     		ldr	r3, .L286
 3891 0194 1A60     		str	r2, [r3]
1021:.\main.c      ****                         break;
 3892              		.loc 1 1021 0
 3893 0196 0220     		movs	r0, #2
 3894 0198 0D21     		movs	r1, #13
 3895 019a FFF7FEFF 		bl	SetPicture
 3896              	.LVL377:
1022:.\main.c      ****                         case 0x43:  //Preset full                       
 3897              		.loc 1 1022 0
 3898 019e 1EE0     		b	.L267
 3899              	.L274:
1024:.\main.c      ****                             SetPicture(2,DISPLAY_DESEA_IMPRIMIR_RECIBO);                           
 3900              		.loc 1 1024 0
 3901 01a0 0622     		movs	r2, #6
 3902 01a2 414B     		ldr	r3, .L286
 3903 01a4 1A60     		str	r2, [r3]
1025:.\main.c      ****                         break;
 3904              		.loc 1 1025 0
 3905 01a6 0220     		movs	r0, #2
 3906 01a8 0B21     		movs	r1, #11
 3907 01aa FFF7FEFF 		bl	SetPicture
 3908              	.LVL378:
1026:.\main.c      ****                         case 0x94:  //Retroceso 
 3909              		.loc 1 1026 0
 3910 01ae 16E0     		b	.L267
 3911              	.L273:
1028:.\main.c      ****                             SetPicture(2,DISPLAY_INICIO0);                                         
 3912              		.loc 1 1028 0
 3913 01b0 0022     		movs	r2, #0
 3914 01b2 3D4B     		ldr	r3, .L286
 3915 01b4 1A60     		str	r2, [r3]
1029:.\main.c      ****                         break;
 3916              		.loc 1 1029 0
 3917 01b6 0220     		movs	r0, #2
 3918 01b8 0121     		movs	r1, #1
 3919 01ba FFF7FEFF 		bl	SetPicture
 3920              	.LVL379:
1030:.\main.c      ****                         case 0x3B:  //Pantalla Inicial    
 3921              		.loc 1 1030 0
 3922 01be 0EE0     		b	.L267
 3923              	.L268:
1032:.\main.c      ****                             SetPicture(2,DISPLAY_INICIO0);                            
 3924              		.loc 1 1032 0
 3925 01c0 0022     		movs	r2, #0
 3926 01c2 394B     		ldr	r3, .L286
 3927 01c4 1A60     		str	r2, [r3]
1033:.\main.c      ****                         break;
 3928              		.loc 1 1033 0
 3929 01c6 0220     		movs	r0, #2
 3930 01c8 0121     		movs	r1, #1
 3931 01ca FFF7FEFF 		bl	SetPicture
 3932              	.LVL380:
1034:.\main.c      ****                         case 0x7E:  //Pantalla Inicial    
ARM GAS  C:\Users\Diego\AppData\Local\Temp\cctVJSXF.s 			page 102


 3933              		.loc 1 1034 0
 3934 01ce 06E0     		b	.L267
 3935              	.L272:
1036:.\main.c      ****                             SetPicture(2,DISPLAY_INICIO0);                            
 3936              		.loc 1 1036 0
 3937 01d0 0022     		movs	r2, #0
 3938 01d2 354B     		ldr	r3, .L286
 3939 01d4 1A60     		str	r2, [r3]
1037:.\main.c      ****                         break;
 3940              		.loc 1 1037 0
 3941 01d6 0220     		movs	r0, #2
 3942 01d8 0121     		movs	r1, #1
 3943 01da FFF7FEFF 		bl	SetPicture
 3944              	.LVL381:
 3945              	.L267:
1041:.\main.c      ****                 Display2_ClearRxBuffer();
 3946              		.loc 1 1041 0
 3947 01de 0A20     		movs	r0, #10
 3948 01e0 FFF7FEFF 		bl	CyDelay
 3949              	.LVL382:
1042:.\main.c      ****             }
 3950              		.loc 1 1042 0
 3951 01e4 FFF7FEFF 		bl	Display2_ClearRxBuffer
 3952              	.LVL383:
 3953 01e8 08BD     		pop	{r3, pc}
 3954              	.L254:
1047:.\main.c      ****                 if((Display2_rxBuffer[0]==0xAA) && (Display2_rxBuffer[6]==0xC3) && (Display2_rxBuff
 3955              		.loc 1 1047 0
 3956 01ea FFF7FEFF 		bl	Display2_GetRxBufferSize
 3957              	.LVL384:
 3958 01ee 0828     		cmp	r0, #8
 3959 01f0 40F09780 		bne	.L247
1048:.\main.c      ****                     switch(Display2_rxBuffer[3]){
 3960              		.loc 1 1048 0
 3961 01f4 2D4B     		ldr	r3, .L286+4
 3962 01f6 1B78     		ldrb	r3, [r3]	@ zero_extendqisi2
 3963 01f8 DBB2     		uxtb	r3, r3
 3964 01fa AA2B     		cmp	r3, #170
 3965 01fc 1FD1     		bne	.L275
1048:.\main.c      ****                     switch(Display2_rxBuffer[3]){
 3966              		.loc 1 1048 0 is_stmt 0 discriminator 1
 3967 01fe 2B4B     		ldr	r3, .L286+4
 3968 0200 9B79     		ldrb	r3, [r3, #6]	@ zero_extendqisi2
 3969 0202 DBB2     		uxtb	r3, r3
 3970 0204 C32B     		cmp	r3, #195
 3971 0206 1AD1     		bne	.L275
1048:.\main.c      ****                     switch(Display2_rxBuffer[3]){
 3972              		.loc 1 1048 0 discriminator 2
 3973 0208 284B     		ldr	r3, .L286+4
 3974 020a DB79     		ldrb	r3, [r3, #7]	@ zero_extendqisi2
 3975 020c DBB2     		uxtb	r3, r3
 3976 020e 3C2B     		cmp	r3, #60
 3977 0210 15D1     		bne	.L275
1049:.\main.c      ****                         case 0x94:  //Retroceso 
 3978              		.loc 1 1049 0 is_stmt 1
 3979 0212 264B     		ldr	r3, .L286+4
 3980 0214 DB78     		ldrb	r3, [r3, #3]	@ zero_extendqisi2
ARM GAS  C:\Users\Diego\AppData\Local\Temp\cctVJSXF.s 			page 103


 3981 0216 DBB2     		uxtb	r3, r3
 3982 0218 7E2B     		cmp	r3, #126
 3983 021a 09D0     		beq	.L276
 3984 021c 942B     		cmp	r3, #148
 3985 021e 0ED1     		bne	.L275
1051:.\main.c      ****                             SetPicture(2,DISPLAY_INICIO0);                                         
 3986              		.loc 1 1051 0
 3987 0220 0022     		movs	r2, #0
 3988 0222 214B     		ldr	r3, .L286
 3989 0224 1A60     		str	r2, [r3]
1052:.\main.c      ****                         break;
 3990              		.loc 1 1052 0
 3991 0226 0220     		movs	r0, #2
 3992 0228 0121     		movs	r1, #1
 3993 022a FFF7FEFF 		bl	SetPicture
 3994              	.LVL385:
1053:.\main.c      ****                         case 0x7E:  //Pantalla Inicial    
 3995              		.loc 1 1053 0
 3996 022e 06E0     		b	.L275
 3997              	.L276:
1055:.\main.c      ****                             SetPicture(2,DISPLAY_INICIO0);                            
 3998              		.loc 1 1055 0
 3999 0230 0022     		movs	r2, #0
 4000 0232 1D4B     		ldr	r3, .L286
 4001 0234 1A60     		str	r2, [r3]
1056:.\main.c      ****                         break;
 4002              		.loc 1 1056 0
 4003 0236 0220     		movs	r0, #2
 4004 0238 0121     		movs	r1, #1
 4005 023a FFF7FEFF 		bl	SetPicture
 4006              	.LVL386:
 4007              	.L275:
1060:.\main.c      ****                 Display2_ClearRxBuffer();
 4008              		.loc 1 1060 0
 4009 023e 0A20     		movs	r0, #10
 4010 0240 FFF7FEFF 		bl	CyDelay
 4011              	.LVL387:
1061:.\main.c      ****             }
 4012              		.loc 1 1061 0
 4013 0244 FFF7FEFF 		bl	Display2_ClearRxBuffer
 4014              	.LVL388:
 4015 0248 08BD     		pop	{r3, pc}
 4016              	.L255:
1066:.\main.c      ****                 if((Display2_rxBuffer[0]==0xAA) && (Display2_rxBuffer[6]==0xC3) && (Display2_rxBuff
 4017              		.loc 1 1066 0
 4018 024a FFF7FEFF 		bl	Display2_GetRxBufferSize
 4019              	.LVL389:
 4020 024e 0828     		cmp	r0, #8
 4021 0250 67D1     		bne	.L247
1067:.\main.c      ****                     switch(Display2_rxBuffer[3]){
 4022              		.loc 1 1067 0
 4023 0252 164B     		ldr	r3, .L286+4
 4024 0254 1B78     		ldrb	r3, [r3]	@ zero_extendqisi2
 4025 0256 DBB2     		uxtb	r3, r3
 4026 0258 AA2B     		cmp	r3, #170
 4027 025a 1FD1     		bne	.L278
1067:.\main.c      ****                     switch(Display2_rxBuffer[3]){
ARM GAS  C:\Users\Diego\AppData\Local\Temp\cctVJSXF.s 			page 104


 4028              		.loc 1 1067 0 is_stmt 0 discriminator 1
 4029 025c 134B     		ldr	r3, .L286+4
 4030 025e 9B79     		ldrb	r3, [r3, #6]	@ zero_extendqisi2
 4031 0260 DBB2     		uxtb	r3, r3
 4032 0262 C32B     		cmp	r3, #195
 4033 0264 1AD1     		bne	.L278
1067:.\main.c      ****                     switch(Display2_rxBuffer[3]){
 4034              		.loc 1 1067 0 discriminator 2
 4035 0266 114B     		ldr	r3, .L286+4
 4036 0268 DB79     		ldrb	r3, [r3, #7]	@ zero_extendqisi2
 4037 026a DBB2     		uxtb	r3, r3
 4038 026c 3C2B     		cmp	r3, #60
 4039 026e 15D1     		bne	.L278
1068:.\main.c      ****                         case 0x94:  //Retroceso 
 4040              		.loc 1 1068 0 is_stmt 1
 4041 0270 0E4B     		ldr	r3, .L286+4
 4042 0272 DB78     		ldrb	r3, [r3, #3]	@ zero_extendqisi2
 4043 0274 DBB2     		uxtb	r3, r3
 4044 0276 7E2B     		cmp	r3, #126
 4045 0278 09D0     		beq	.L279
 4046 027a 942B     		cmp	r3, #148
 4047 027c 0ED1     		bne	.L278
1070:.\main.c      ****                             SetPicture(2,DISPLAY_INICIO0);                                         
 4048              		.loc 1 1070 0
 4049 027e 0022     		movs	r2, #0
 4050 0280 094B     		ldr	r3, .L286
 4051 0282 1A60     		str	r2, [r3]
1071:.\main.c      ****                         break;
 4052              		.loc 1 1071 0
 4053 0284 0220     		movs	r0, #2
 4054 0286 0121     		movs	r1, #1
 4055 0288 FFF7FEFF 		bl	SetPicture
 4056              	.LVL390:
1072:.\main.c      ****                         case 0x7E:  //Pantalla Inicial    
 4057              		.loc 1 1072 0
 4058 028c 06E0     		b	.L278
 4059              	.L279:
1074:.\main.c      ****                             SetPicture(2,DISPLAY_INICIO0);                            
 4060              		.loc 1 1074 0
 4061 028e 0022     		movs	r2, #0
 4062 0290 054B     		ldr	r3, .L286
 4063 0292 1A60     		str	r2, [r3]
1075:.\main.c      ****                         break;
 4064              		.loc 1 1075 0
 4065 0294 0220     		movs	r0, #2
 4066 0296 0121     		movs	r1, #1
 4067 0298 FFF7FEFF 		bl	SetPicture
 4068              	.LVL391:
 4069              	.L278:
1079:.\main.c      ****                 Display2_ClearRxBuffer();
 4070              		.loc 1 1079 0
 4071 029c 0A20     		movs	r0, #10
 4072 029e FFF7FEFF 		bl	CyDelay
 4073              	.LVL392:
1080:.\main.c      ****             }
 4074              		.loc 1 1080 0
 4075 02a2 FFF7FEFF 		bl	Display2_ClearRxBuffer
ARM GAS  C:\Users\Diego\AppData\Local\Temp\cctVJSXF.s 			page 105


 4076              	.LVL393:
 4077 02a6 08BD     		pop	{r3, pc}
 4078              	.L287:
 4079              		.align	2
 4080              	.L286:
 4081 02a8 00000000 		.word	flowDisplay2
 4082 02ac 00000000 		.word	Display2_rxBuffer
 4083              	.L256:
1085:.\main.c      ****                 if((Display2_rxBuffer[0]==0xAA) && (Display2_rxBuffer[6]==0xC3) && (Display2_rxBuff
 4084              		.loc 1 1085 0
 4085 02b0 FFF7FEFF 		bl	Display2_GetRxBufferSize
 4086              	.LVL394:
 4087 02b4 0828     		cmp	r0, #8
 4088 02b6 34D1     		bne	.L247
1086:.\main.c      ****                     switch(Display2_rxBuffer[3]){
 4089              		.loc 1 1086 0
 4090 02b8 1A4B     		ldr	r3, .L288
 4091 02ba 1B78     		ldrb	r3, [r3]	@ zero_extendqisi2
 4092 02bc DBB2     		uxtb	r3, r3
 4093 02be AA2B     		cmp	r3, #170
 4094 02c0 2AD1     		bne	.L281
1086:.\main.c      ****                     switch(Display2_rxBuffer[3]){
 4095              		.loc 1 1086 0 is_stmt 0 discriminator 1
 4096 02c2 184B     		ldr	r3, .L288
 4097 02c4 9B79     		ldrb	r3, [r3, #6]	@ zero_extendqisi2
 4098 02c6 DBB2     		uxtb	r3, r3
 4099 02c8 C32B     		cmp	r3, #195
 4100 02ca 25D1     		bne	.L281
1086:.\main.c      ****                     switch(Display2_rxBuffer[3]){
 4101              		.loc 1 1086 0 discriminator 2
 4102 02cc 154B     		ldr	r3, .L288
 4103 02ce DB79     		ldrb	r3, [r3, #7]	@ zero_extendqisi2
 4104 02d0 DBB2     		uxtb	r3, r3
 4105 02d2 3C2B     		cmp	r3, #60
 4106 02d4 20D1     		bne	.L281
1087:.\main.c      ****                         case 0x39:  //Si copia                                                     
 4107              		.loc 1 1087 0 is_stmt 1
 4108 02d6 134B     		ldr	r3, .L288
 4109 02d8 DB78     		ldrb	r3, [r3, #3]	@ zero_extendqisi2
 4110 02da DBB2     		uxtb	r3, r3
 4111 02dc 392B     		cmp	r3, #57
 4112 02de 04D0     		beq	.L282
 4113 02e0 7E2B     		cmp	r3, #126
 4114 02e2 12D0     		beq	.L283
 4115 02e4 382B     		cmp	r3, #56
 4116 02e6 17D1     		bne	.L281
 4117 02e8 07E0     		b	.L284
 4118              	.L282:
1089:.\main.c      ****                             flowDisplay2 = 7;
 4119              		.loc 1 1089 0
 4120 02ea 0220     		movs	r0, #2
 4121 02ec 0A21     		movs	r1, #10
 4122 02ee FFF7FEFF 		bl	SetPicture
 4123              	.LVL395:
1090:.\main.c      ****                         break; 
 4124              		.loc 1 1090 0
 4125 02f2 0722     		movs	r2, #7
ARM GAS  C:\Users\Diego\AppData\Local\Temp\cctVJSXF.s 			page 106


 4126 02f4 0C4B     		ldr	r3, .L288+4
 4127 02f6 1A60     		str	r2, [r3]
1091:.\main.c      ****                         case 0x38:  //No copia                                                     
 4128              		.loc 1 1091 0
 4129 02f8 0EE0     		b	.L281
 4130              	.L284:
1093:.\main.c      ****                             flowDisplay2 = 8;//caso para seleccion de producto
 4131              		.loc 1 1093 0
 4132 02fa 0220     		movs	r0, #2
 4133 02fc 8621     		movs	r1, #134
 4134 02fe FFF7FEFF 		bl	SetPicture
 4135              	.LVL396:
1094:.\main.c      ****                         break;
 4136              		.loc 1 1094 0
 4137 0302 0822     		movs	r2, #8
 4138 0304 084B     		ldr	r3, .L288+4
 4139 0306 1A60     		str	r2, [r3]
1095:.\main.c      ****                         case 0x7E:  //Pantalla Inicial                                             
 4140              		.loc 1 1095 0
 4141 0308 06E0     		b	.L281
 4142              	.L283:
1097:.\main.c      ****                             flowDisplay2 = 0;
 4143              		.loc 1 1097 0
 4144 030a 0220     		movs	r0, #2
 4145 030c 0121     		movs	r1, #1
 4146 030e FFF7FEFF 		bl	SetPicture
 4147              	.LVL397:
1098:.\main.c      ****                         break;
 4148              		.loc 1 1098 0
 4149 0312 0022     		movs	r2, #0
 4150 0314 044B     		ldr	r3, .L288+4
 4151 0316 1A60     		str	r2, [r3]
 4152              	.L281:
1102:.\main.c      ****                 Display2_ClearRxBuffer();
 4153              		.loc 1 1102 0
 4154 0318 0A20     		movs	r0, #10
 4155 031a FFF7FEFF 		bl	CyDelay
 4156              	.LVL398:
1103:.\main.c      ****             }
 4157              		.loc 1 1103 0
 4158 031e FFF7FEFF 		bl	Display2_ClearRxBuffer
 4159              	.LVL399:
 4160              	.L247:
 4161 0322 08BD     		pop	{r3, pc}
 4162              	.L289:
 4163              		.align	2
 4164              	.L288:
 4165 0324 00000000 		.word	Display2_rxBuffer
 4166 0328 00000000 		.word	flowDisplay2
 4167              		.cfi_endproc
 4168              	.LFE72:
 4169              		.size	PollingDisplay2, .-PollingDisplay2
 4170              		.section	.text.animacion2,"ax",%progbits
 4171              		.align	2
 4172              		.global	animacion2
 4173              		.thumb
 4174              		.thumb_func
ARM GAS  C:\Users\Diego\AppData\Local\Temp\cctVJSXF.s 			page 107


 4175              		.type	animacion2, %function
 4176              	animacion2:
 4177              	.LFB74:
1130:.\main.c      **** }
1131:.\main.c      **** 
1132:.\main.c      **** /*
1133:.\main.c      **** ***************************************************************************************************
1134:.\main.c      **** *                                         CY_ISR(animacion2)
1135:.\main.c      **** *
1136:.\main.c      **** * Description : Interrupcion que temporiza las imagenes informativas que aparecen en la pantalla 2
1137:.\main.c      **** *               
1138:.\main.c      **** *
1139:.\main.c      **** * Argument(s) : none
1140:.\main.c      **** *
1141:.\main.c      **** * Return(s)   : none
1142:.\main.c      **** *
1143:.\main.c      **** * Caller(s)   : 
1144:.\main.c      **** *
1145:.\main.c      **** * Note(s)     : none.
1146:.\main.c      **** ***************************************************************************************************
1147:.\main.c      **** */
1148:.\main.c      **** CY_ISR(animacion2){
 4178              		.loc 1 1148 0
 4179              		.cfi_startproc
 4180              		@ args = 0, pretend = 0, frame = 0
 4181              		@ frame_needed = 0, uses_anonymous_args = 0
 4182 0000 08B5     		push	{r3, lr}
 4183              		.cfi_def_cfa_offset 8
 4184              		.cfi_offset 3, -8
 4185              		.cfi_offset 14, -4
1149:.\main.c      ****     Timer_Animacion2_ReadStatusRegister();
 4186              		.loc 1 1149 0
 4187 0002 FFF7FEFF 		bl	Timer_Animacion2_ReadStatusRegister
 4188              	.LVL400:
1150:.\main.c      ****     count_protector2++;
 4189              		.loc 1 1150 0
 4190 0006 024A     		ldr	r2, .L292
 4191 0008 1378     		ldrb	r3, [r2]	@ zero_extendqisi2
 4192 000a 0133     		adds	r3, r3, #1
 4193 000c 1370     		strb	r3, [r2]
 4194 000e 08BD     		pop	{r3, pc}
 4195              	.L293:
 4196              		.align	2
 4197              	.L292:
 4198 0010 00000000 		.word	count_protector2
 4199              		.cfi_endproc
 4200              	.LFE74:
 4201              		.size	animacion2, .-animacion2
 4202              		.section	.text.main,"ax",%progbits
 4203              		.align	2
 4204              		.global	main
 4205              		.thumb
 4206              		.thumb_func
 4207              		.type	main, %function
 4208              	main:
 4209              	.LFB75:
1151:.\main.c      **** }
ARM GAS  C:\Users\Diego\AppData\Local\Temp\cctVJSXF.s 			page 108


1152:.\main.c      **** 
1153:.\main.c      **** 
1154:.\main.c      **** int main()
1155:.\main.c      **** {
 4210              		.loc 1 1155 0
 4211              		.cfi_startproc
 4212              		@ args = 0, pretend = 0, frame = 0
 4213              		@ frame_needed = 0, uses_anonymous_args = 0
 4214 0000 38B5     		push	{r3, r4, r5, lr}
 4215              		.cfi_def_cfa_offset 16
 4216              		.cfi_offset 3, -16
 4217              		.cfi_offset 4, -12
 4218              		.cfi_offset 5, -8
 4219              		.cfi_offset 14, -4
1156:.\main.c      ****     uint8 x;
1157:.\main.c      ****     CyGlobalIntEnable; /* Enable global interrupts. */
 4220              		.loc 1 1157 0
 4221              	@ 1157 ".\main.c" 1
 4222 0002 62B6     		CPSIE   i
 4223              	@ 0 "" 2
1158:.\main.c      ****     GlobalInitializer();
 4224              		.loc 1 1158 0
 4225              		.thumb
 4226 0004 FFF7FEFF 		bl	GlobalInitializer
 4227              	.LVL401:
1159:.\main.c      ****     /* Place your initialization/startup code here (e.g. MyInst_Start()) */
1160:.\main.c      ****     for(x= 0; x < 4; x++){
 4228              		.loc 1 1160 0
 4229 0008 0023     		movs	r3, #0
 4230 000a 04E0     		b	.L295
 4231              	.LVL402:
 4232              	.L296:
1161:.\main.c      ****         statePump[x]=0;
 4233              		.loc 1 1161 0 discriminator 3
 4234 000c 0021     		movs	r1, #0
 4235 000e 174A     		ldr	r2, .L300
 4236 0010 D154     		strb	r1, [r2, r3]
1160:.\main.c      ****         statePump[x]=0;
 4237              		.loc 1 1160 0 discriminator 3
 4238 0012 0133     		adds	r3, r3, #1
 4239              	.LVL403:
 4240 0014 DBB2     		uxtb	r3, r3
 4241              	.LVL404:
 4242              	.L295:
1160:.\main.c      ****         statePump[x]=0;
 4243              		.loc 1 1160 0 is_stmt 0 discriminator 1
 4244 0016 032B     		cmp	r3, #3
 4245 0018 F8D9     		bls	.L296
1162:.\main.c      ****     }
1163:.\main.c      ****     passwordPump[0] = 0x04;
 4246              		.loc 1 1163 0 is_stmt 1
 4247 001a 0423     		movs	r3, #4
 4248              	.LVL405:
 4249 001c 144A     		ldr	r2, .L300+4
 4250 001e 1373     		strb	r3, [r2, #12]
1164:.\main.c      ****     configAccess[0] = 0x04;
 4251              		.loc 1 1164 0
ARM GAS  C:\Users\Diego\AppData\Local\Temp\cctVJSXF.s 			page 109


 4252 0020 144A     		ldr	r2, .L300+8
 4253 0022 1370     		strb	r3, [r2]
1165:.\main.c      ****     lockTurn = 0;
 4254              		.loc 1 1165 0
 4255 0024 144D     		ldr	r5, .L300+12
 4256 0026 0024     		movs	r4, #0
 4257 0028 2C70     		strb	r4, [r5]
1166:.\main.c      ****     EEPROM_1_WriteByte(lockTurn,8); //Carga turno para pruebas 
 4258              		.loc 1 1166 0
 4259 002a 2046     		mov	r0, r4
 4260 002c 0821     		movs	r1, #8
 4261 002e FFF7FEFF 		bl	EEPROM_1_WriteByte
 4262              	.LVL406:
1167:.\main.c      ****     lockTurn = 0;
 4263              		.loc 1 1167 0
 4264 0032 2C70     		strb	r4, [r5]
1168:.\main.c      ****     loadConfiguration();
 4265              		.loc 1 1168 0
 4266 0034 FFF7FEFF 		bl	loadConfiguration
 4267              	.LVL407:
1169:.\main.c      ****     InitPump();      
 4268              		.loc 1 1169 0
 4269 0038 FFF7FEFF 		bl	InitPump
 4270              	.LVL408:
1170:.\main.c      ****     PrinterType = 1;
 4271              		.loc 1 1170 0
 4272 003c 0122     		movs	r2, #1
 4273 003e 0F4B     		ldr	r3, .L300+16
 4274 0040 1A70     		strb	r2, [r3]
1171:.\main.c      ****     CyWdtStart(CYWDT_1024_TICKS,CYWDT_LPMODE_NOCHANGE); 
 4275              		.loc 1 1171 0
 4276 0042 0320     		movs	r0, #3
 4277 0044 2146     		mov	r1, r4
 4278 0046 FFF7FEFF 		bl	CyWdtStart
 4279              	.LVL409:
 4280              	.L298:
1172:.\main.c      ****     for(;;)
1173:.\main.c      ****     {
1174:.\main.c      ****         CyWdtClear();
 4281              		.loc 1 1174 0
 4282 004a FFF7FEFF 		bl	CyWdtClear
 4283              	.LVL410:
1175:.\main.c      ****         if(flowDisplay1 == 0){
 4284              		.loc 1 1175 0
 4285 004e 0C4B     		ldr	r3, .L300+20
 4286 0050 1B68     		ldr	r3, [r3]
 4287 0052 1BB9     		cbnz	r3, .L297
1176:.\main.c      ****             PollingPump();
 4288              		.loc 1 1176 0
 4289 0054 FFF7FEFF 		bl	PollingPump
 4290              	.LVL411:
1177:.\main.c      ****             CyWdtClear();        
 4291              		.loc 1 1177 0
 4292 0058 FFF7FEFF 		bl	CyWdtClear
 4293              	.LVL412:
 4294              	.L297:
1178:.\main.c      ****         }        
ARM GAS  C:\Users\Diego\AppData\Local\Temp\cctVJSXF.s 			page 110


1179:.\main.c      ****         PollingDisplay1();
 4295              		.loc 1 1179 0
 4296 005c FFF7FEFF 		bl	PollingDisplay1
 4297              	.LVL413:
1180:.\main.c      ****         CyWdtClear();
 4298              		.loc 1 1180 0
 4299 0060 FFF7FEFF 		bl	CyWdtClear
 4300              	.LVL414:
1181:.\main.c      ****         PollingDisplay2();
 4301              		.loc 1 1181 0
 4302 0064 FFF7FEFF 		bl	PollingDisplay2
 4303              	.LVL415:
1182:.\main.c      ****     }
 4304              		.loc 1 1182 0
 4305 0068 EFE7     		b	.L298
 4306              	.L301:
 4307 006a 00BF     		.align	2
 4308              	.L300:
 4309 006c 00000000 		.word	statePump
 4310 0070 00000000 		.word	.LANCHOR1
 4311 0074 00000000 		.word	configAccess
 4312 0078 00000000 		.word	lockTurn
 4313 007c 00000000 		.word	PrinterType
 4314 0080 00000000 		.word	flowDisplay1
 4315              		.cfi_endproc
 4316              	.LFE75:
 4317              		.size	main, .-main
 4318              		.global	passwordPump
 4319              		.global	MuxVersion
 4320              		.comm	side,1036,4
 4321              		.comm	bufferDisplay4,648,4
 4322              		.comm	bufferDisplay3,648,4
 4323              		.comm	bufferDisplay2,648,4
 4324              		.comm	bufferDisplay1,648,4
 4325              		.comm	idStation,4,4
 4326              		.comm	controlChar,1,1
 4327              		.comm	configAccess,5,4
 4328              		.comm	count_protector2,1,1
 4329              		.comm	count_protector,1,1
 4330              		.comm	timeDownHandle,2,4
 4331              		.comm	dateDownHandle,3,4
 4332              		.comm	VolUnit,6,4
 4333              		.comm	PrinterType,1,1
 4334              		.comm	hiddenKeys,1,1
 4335              		.comm	digits,1,1
 4336              		.comm	lockTurn,1,1
 4337              		.comm	NumPositions,1,1
 4338              		.comm	statePump,4,4
 4339              		.comm	DDMode,1,1
 4340              		.comm	PPUDec,1,1
 4341              		.comm	VolDec,1,1
 4342              		.comm	MoneyDec,1,1
 4343              		.comm	ConversionFactor,1,1
 4344              		.comm	UnitType,1,1
 4345              		.comm	PlateRequest,1,1
 4346              		.comm	PrevStatePump,4,4
 4347              		.comm	stateBeagleSoft,1,1
ARM GAS  C:\Users\Diego\AppData\Local\Temp\cctVJSXF.s 			page 111


 4348              		.comm	flagResetMux,1,1
 4349              		.comm	passwordSeller,8,4
 4350              		.comm	typeIdSeller,1,1
 4351              		.comm	idSeller,25,4
 4352              		.comm	temporal,30,4
 4353              		.comm	residue,14,4
 4354              		.comm	screen,2,4
 4355              		.comm	date,3,4
 4356              		.comm	time,3,4
 4357              		.comm	symbols,2,4
 4358              		.comm	decimalVolume,1,1
 4359              		.comm	decimalMoney,1,1
 4360              		.comm	ppux10,1,1
 4361              		.comm	delayPicture2,4,4
 4362              		.comm	delayPicture1,4,4
 4363              		.comm	productNumber,1,1
 4364              		.comm	flagPoint2,1,1
 4365              		.comm	flagPoint1,1,1
 4366              		.comm	numberKeys2,1,1
 4367              		.comm	numberKeys1,1,1
 4368              		.comm	flowDisplay4,4,4
 4369              		.comm	flowDisplay3,4,4
 4370              		.comm	flowDisplay2,4,4
 4371              		.comm	flowDisplay1,4,4
 4372              		.comm	countPump,8,8
 4373              		.comm	countBeagleTX,8,8
 4374              		.comm	countAnimation2,8,8
 4375              		.comm	countAnimation1,8,8
 4376              		.section	.rodata
 4377              		.align	2
 4378              		.set	.LANCHOR0,. + 0
 4379              	.LC1:
 4380 0000 532F442F 		.ascii	"S/D/Dupla \000"
 4380      4475706C 
 4380      612000
 4381 000b 00       		.space	1
 4382              	.LC3:
 4383 000c 53657874 		.ascii	"Sextupla\000"
 4383      75706C61 
 4383      00
 4384 0015 00       		.space	1
 4385 0016 0000     		.space	2
 4386              	.LC4:
 4387 0018 4F637475 		.ascii	"Octupla\000"
 4387      706C6100 
 4388 0020 0000     		.space	2
 4389 0022 0000     		.space	2
 4390              	.LC5:
 4391 0024 352D352D 		.ascii	"5-5-4     \000"
 4391      34202020 
 4391      202000
 4392 002f 00       		.space	1
 4393              	.LC6:
 4394 0030 362D362D 		.ascii	"6-6-4     \000"
 4394      34202020 
 4394      202000
 4395 003b 00       		.space	1
ARM GAS  C:\Users\Diego\AppData\Local\Temp\cctVJSXF.s 			page 112


 4396              	.LC7:
 4397 003c 372D372D 		.ascii	"7-7-5     \000"
 4397      35202020 
 4397      202000
 4398 0047 00       		.space	1
 4399              	.LC8:
 4400 0048 382D372D 		.ascii	"8-7-5     \000"
 4400      35202020 
 4400      202000
 4401 0053 00       		.space	1
 4402              	.LC9:
 4403 0054 54657374 		.ascii	"Test de Impresion\000"
 4403      20646520 
 4403      496D7072 
 4403      6573696F 
 4403      6E00
 4404 0066 0000     		.data
 4405              		.align	2
 4406              		.set	.LANCHOR1,. + 0
 4407              		.type	MuxVersion, %object
 4408              		.size	MuxVersion, 10
 4409              	MuxVersion:
 4410 0000 4D555820 		.ascii	"MUX V. 1.0"
 4410      562E2031 
 4410      2E30
 4411 000a 0000     		.space	2
 4412              		.type	passwordPump, %object
 4413              		.size	passwordPump, 5
 4414              	passwordPump:
 4415 000c 30303230 		.ascii	"00204"
 4415      34
 4416 0011 000000   		.section	.rodata.str1.4,"aMS",%progbits,1
 4417              		.align	2
 4418              	.LC0:
 4419 0000 496E6963 		.ascii	"Iniciando\000"
 4419      69616E64 
 4419      6F00
 4420 000a 0000     		.space	2
 4421              	.LC2:
 4422 000c 51756164 		.ascii	"Quadrupla\000"
 4422      7275706C 
 4422      6100
 4423 0016 0000     		.text
 4424              	.Letext0:
 4425              		.file 2 "c:\\program files (x86)\\cypress\\psoc creator\\3.3\\psoc creator\\import\\gnu\\arm\\4.9.
 4426              		.file 3 "c:\\program files (x86)\\cypress\\psoc creator\\3.3\\psoc creator\\import\\gnu\\arm\\4.9.
 4427              		.file 4 "Generated_Source\\PSoC5/cytypes.h"
 4428              		.file 5 "./variables.h"
 4429              		.file 6 "Generated_Source\\PSoC5/Display1.h"
 4430              		.file 7 "Generated_Source\\PSoC5/Display2.h"
 4431              		.file 8 "Generated_Source\\PSoC5/core_cm3.h"
 4432              		.file 9 "Generated_Source\\PSoC5/EEPROM_1.h"
 4433              		.file 10 "Generated_Source\\PSoC5/Pump.h"
 4434              		.file 11 "Generated_Source\\PSoC5/Printer.h"
 4435              		.file 12 "Generated_Source\\PSoC5/I2C_Bus.h"
 4436              		.file 13 "Generated_Source\\PSoC5/RF_Connection.h"
 4437              		.file 14 "./LCD.h"
ARM GAS  C:\Users\Diego\AppData\Local\Temp\cctVJSXF.s 			page 113


 4438              		.file 15 "Generated_Source\\PSoC5/CyLib.h"
 4439              		.file 16 "Generated_Source\\PSoC5/Timer_Animacion.h"
 4440              		.file 17 "./protocol.h"
 4441              		.file 18 "./I2C.h"
 4442              		.file 19 "Generated_Source\\PSoC5/isr_3.h"
 4443              		.file 20 "./keyboard.h"
 4444              		.file 21 "./Print.h"
 4445              		.file 22 "./ibutton.h"
 4446              		.file 23 "Generated_Source\\PSoC5/Timer_Animacion2.h"
 4447              		.section	.debug_info,"",%progbits
 4448              	.Ldebug_info0:
 4449 0000 89250000 		.4byte	0x2589
 4450 0004 0400     		.2byte	0x4
 4451 0006 00000000 		.4byte	.Ldebug_abbrev0
 4452 000a 04       		.byte	0x4
 4453 000b 01       		.uleb128 0x1
 4454 000c 780D0000 		.4byte	.LASF273
 4455 0010 01       		.byte	0x1
 4456 0011 C7100000 		.4byte	.LASF274
 4457 0015 E9080000 		.4byte	.LASF275
 4458 0019 00000000 		.4byte	.Ldebug_ranges0+0
 4459 001d 00000000 		.4byte	0
 4460 0021 00000000 		.4byte	.Ldebug_line0
 4461 0025 02       		.uleb128 0x2
 4462 0026 01       		.byte	0x1
 4463 0027 06       		.byte	0x6
 4464 0028 3D0F0000 		.4byte	.LASF0
 4465 002c 03       		.uleb128 0x3
 4466 002d DB0B0000 		.4byte	.LASF3
 4467 0031 02       		.byte	0x2
 4468 0032 1D       		.byte	0x1d
 4469 0033 37000000 		.4byte	0x37
 4470 0037 02       		.uleb128 0x2
 4471 0038 01       		.byte	0x1
 4472 0039 08       		.byte	0x8
 4473 003a 2D0D0000 		.4byte	.LASF1
 4474 003e 02       		.uleb128 0x2
 4475 003f 02       		.byte	0x2
 4476 0040 05       		.byte	0x5
 4477 0041 570A0000 		.4byte	.LASF2
 4478 0045 03       		.uleb128 0x3
 4479 0046 FE030000 		.4byte	.LASF4
 4480 004a 02       		.byte	0x2
 4481 004b 2B       		.byte	0x2b
 4482 004c 50000000 		.4byte	0x50
 4483 0050 02       		.uleb128 0x2
 4484 0051 02       		.byte	0x2
 4485 0052 07       		.byte	0x7
 4486 0053 930F0000 		.4byte	.LASF5
 4487 0057 03       		.uleb128 0x3
 4488 0058 9C010000 		.4byte	.LASF6
 4489 005c 02       		.byte	0x2
 4490 005d 3F       		.byte	0x3f
 4491 005e 62000000 		.4byte	0x62
 4492 0062 02       		.uleb128 0x2
 4493 0063 04       		.byte	0x4
 4494 0064 05       		.byte	0x5
ARM GAS  C:\Users\Diego\AppData\Local\Temp\cctVJSXF.s 			page 114


 4495 0065 6A0A0000 		.4byte	.LASF7
 4496 0069 02       		.uleb128 0x2
 4497 006a 04       		.byte	0x4
 4498 006b 07       		.byte	0x7
 4499 006c 4E0C0000 		.4byte	.LASF8
 4500 0070 02       		.uleb128 0x2
 4501 0071 08       		.byte	0x8
 4502 0072 05       		.byte	0x5
 4503 0073 1A070000 		.4byte	.LASF9
 4504 0077 02       		.uleb128 0x2
 4505 0078 08       		.byte	0x8
 4506 0079 07       		.byte	0x7
 4507 007a 8A030000 		.4byte	.LASF10
 4508 007e 04       		.uleb128 0x4
 4509 007f 04       		.byte	0x4
 4510 0080 05       		.byte	0x5
 4511 0081 696E7400 		.ascii	"int\000"
 4512 0085 02       		.uleb128 0x2
 4513 0086 04       		.byte	0x4
 4514 0087 07       		.byte	0x7
 4515 0088 75010000 		.4byte	.LASF11
 4516 008c 03       		.uleb128 0x3
 4517 008d 74060000 		.4byte	.LASF12
 4518 0091 03       		.byte	0x3
 4519 0092 15       		.byte	0x15
 4520 0093 2C000000 		.4byte	0x2c
 4521 0097 03       		.uleb128 0x3
 4522 0098 85090000 		.4byte	.LASF13
 4523 009c 03       		.byte	0x3
 4524 009d 21       		.byte	0x21
 4525 009e 45000000 		.4byte	0x45
 4526 00a2 03       		.uleb128 0x3
 4527 00a3 BC0C0000 		.4byte	.LASF14
 4528 00a7 03       		.byte	0x3
 4529 00a8 2C       		.byte	0x2c
 4530 00a9 57000000 		.4byte	0x57
 4531 00ad 05       		.uleb128 0x5
 4532 00ae 26100000 		.4byte	.LASF15
 4533 00b2 04       		.byte	0x4
 4534 00b3 3801     		.2byte	0x138
 4535 00b5 37000000 		.4byte	0x37
 4536 00b9 05       		.uleb128 0x5
 4537 00ba 42060000 		.4byte	.LASF16
 4538 00be 04       		.byte	0x4
 4539 00bf 3901     		.2byte	0x139
 4540 00c1 50000000 		.4byte	0x50
 4541 00c5 05       		.uleb128 0x5
 4542 00c6 B1080000 		.4byte	.LASF17
 4543 00ca 04       		.byte	0x4
 4544 00cb 3A01     		.2byte	0x13a
 4545 00cd 69000000 		.4byte	0x69
 4546 00d1 02       		.uleb128 0x2
 4547 00d2 04       		.byte	0x4
 4548 00d3 04       		.byte	0x4
 4549 00d4 31030000 		.4byte	.LASF18
 4550 00d8 02       		.uleb128 0x2
 4551 00d9 08       		.byte	0x8
ARM GAS  C:\Users\Diego\AppData\Local\Temp\cctVJSXF.s 			page 115


 4552 00da 04       		.byte	0x4
 4553 00db 2C100000 		.4byte	.LASF19
 4554 00df 05       		.uleb128 0x5
 4555 00e0 0E0C0000 		.4byte	.LASF20
 4556 00e4 04       		.byte	0x4
 4557 00e5 4401     		.2byte	0x144
 4558 00e7 77000000 		.4byte	0x77
 4559 00eb 05       		.uleb128 0x5
 4560 00ec 8D060000 		.4byte	.LASF21
 4561 00f0 04       		.byte	0x4
 4562 00f1 4901     		.2byte	0x149
 4563 00f3 F7000000 		.4byte	0xf7
 4564 00f7 02       		.uleb128 0x2
 4565 00f8 01       		.byte	0x1
 4566 00f9 08       		.byte	0x8
 4567 00fa CE050000 		.4byte	.LASF22
 4568 00fe 05       		.uleb128 0x5
 4569 00ff FB0C0000 		.4byte	.LASF23
 4570 0103 04       		.byte	0x4
 4571 0104 DA01     		.2byte	0x1da
 4572 0106 69000000 		.4byte	0x69
 4573 010a 06       		.uleb128 0x6
 4574 010b AD000000 		.4byte	0xad
 4575 010f 06       		.uleb128 0x6
 4576 0110 C5000000 		.4byte	0xc5
 4577 0114 05       		.uleb128 0x5
 4578 0115 54080000 		.4byte	.LASF24
 4579 0119 04       		.byte	0x4
 4580 011a F401     		.2byte	0x1f4
 4581 011c 20010000 		.4byte	0x120
 4582 0120 07       		.uleb128 0x7
 4583 0121 04       		.byte	0x4
 4584 0122 26010000 		.4byte	0x126
 4585 0126 08       		.uleb128 0x8
 4586 0127 02       		.uleb128 0x2
 4587 0128 04       		.byte	0x4
 4588 0129 07       		.byte	0x7
 4589 012a 450C0000 		.4byte	.LASF25
 4590 012e 09       		.uleb128 0x9
 4591 012f AD000000 		.4byte	0xad
 4592 0133 3E010000 		.4byte	0x13e
 4593 0137 0A       		.uleb128 0xa
 4594 0138 27010000 		.4byte	0x127
 4595 013c 03       		.byte	0x3
 4596 013d 00       		.byte	0
 4597 013e 0B       		.uleb128 0xb
 4598 013f 32010000 		.4byte	.LASF77
 4599 0143 8802     		.2byte	0x288
 4600 0145 05       		.byte	0x5
 4601 0146 63       		.byte	0x63
 4602 0147 C7030000 		.4byte	0x3c7
 4603 014b 0C       		.uleb128 0xc
 4604 014c E3010000 		.4byte	.LASF26
 4605 0150 05       		.byte	0x5
 4606 0151 64       		.byte	0x64
 4607 0152 AD000000 		.4byte	0xad
 4608 0156 00       		.byte	0
ARM GAS  C:\Users\Diego\AppData\Local\Temp\cctVJSXF.s 			page 116


 4609 0157 0C       		.uleb128 0xc
 4610 0158 6A040000 		.4byte	.LASF27
 4611 015c 05       		.byte	0x5
 4612 015d 65       		.byte	0x65
 4613 015e C7030000 		.4byte	0x3c7
 4614 0162 01       		.byte	0x1
 4615 0163 0C       		.uleb128 0xc
 4616 0164 33100000 		.4byte	.LASF28
 4617 0168 05       		.byte	0x5
 4618 0169 66       		.byte	0x66
 4619 016a AD000000 		.4byte	0xad
 4620 016e 1A       		.byte	0x1a
 4621 016f 0C       		.uleb128 0xc
 4622 0170 1B0D0000 		.4byte	.LASF29
 4623 0174 05       		.byte	0x5
 4624 0175 67       		.byte	0x67
 4625 0176 AD000000 		.4byte	0xad
 4626 017a 1B       		.byte	0x1b
 4627 017b 0C       		.uleb128 0xc
 4628 017c 5F020000 		.4byte	.LASF30
 4629 0180 05       		.byte	0x5
 4630 0181 68       		.byte	0x68
 4631 0182 D7030000 		.4byte	0x3d7
 4632 0186 1C       		.byte	0x1c
 4633 0187 0C       		.uleb128 0xc
 4634 0188 D9090000 		.4byte	.LASF31
 4635 018c 05       		.byte	0x5
 4636 018d 69       		.byte	0x69
 4637 018e D7030000 		.4byte	0x3d7
 4638 0192 26       		.byte	0x26
 4639 0193 0C       		.uleb128 0xc
 4640 0194 9C100000 		.4byte	.LASF32
 4641 0198 05       		.byte	0x5
 4642 0199 6A       		.byte	0x6a
 4643 019a C7030000 		.4byte	0x3c7
 4644 019e 30       		.byte	0x30
 4645 019f 0C       		.uleb128 0xc
 4646 01a0 8E090000 		.4byte	.LASF33
 4647 01a4 05       		.byte	0x5
 4648 01a5 6B       		.byte	0x6b
 4649 01a6 AD000000 		.4byte	0xad
 4650 01aa 49       		.byte	0x49
 4651 01ab 0C       		.uleb128 0xc
 4652 01ac 220E0000 		.4byte	.LASF34
 4653 01b0 05       		.byte	0x5
 4654 01b1 6C       		.byte	0x6c
 4655 01b2 AD000000 		.4byte	0xad
 4656 01b6 4A       		.byte	0x4a
 4657 01b7 0C       		.uleb128 0xc
 4658 01b8 C4050000 		.4byte	.LASF35
 4659 01bc 05       		.byte	0x5
 4660 01bd 6D       		.byte	0x6d
 4661 01be E7030000 		.4byte	0x3e7
 4662 01c2 4B       		.byte	0x4b
 4663 01c3 0C       		.uleb128 0xc
 4664 01c4 48080000 		.4byte	.LASF36
 4665 01c8 05       		.byte	0x5
ARM GAS  C:\Users\Diego\AppData\Local\Temp\cctVJSXF.s 			page 117


 4666 01c9 6E       		.byte	0x6e
 4667 01ca AD000000 		.4byte	0xad
 4668 01ce 60       		.byte	0x60
 4669 01cf 0C       		.uleb128 0xc
 4670 01d0 9D050000 		.4byte	.LASF37
 4671 01d4 05       		.byte	0x5
 4672 01d5 6F       		.byte	0x6f
 4673 01d6 AD000000 		.4byte	0xad
 4674 01da 61       		.byte	0x61
 4675 01db 0C       		.uleb128 0xc
 4676 01dc 69010000 		.4byte	.LASF38
 4677 01e0 05       		.byte	0x5
 4678 01e1 70       		.byte	0x70
 4679 01e2 AD000000 		.4byte	0xad
 4680 01e6 62       		.byte	0x62
 4681 01e7 0C       		.uleb128 0xc
 4682 01e8 AB0E0000 		.4byte	.LASF39
 4683 01ec 05       		.byte	0x5
 4684 01ed 71       		.byte	0x71
 4685 01ee F7030000 		.4byte	0x3f7
 4686 01f2 63       		.byte	0x63
 4687 01f3 0C       		.uleb128 0xc
 4688 01f4 4B050000 		.4byte	.LASF40
 4689 01f8 05       		.byte	0x5
 4690 01f9 72       		.byte	0x72
 4691 01fa 07040000 		.4byte	0x407
 4692 01fe 65       		.byte	0x65
 4693 01ff 0C       		.uleb128 0xc
 4694 0200 47040000 		.4byte	.LASF41
 4695 0204 05       		.byte	0x5
 4696 0205 73       		.byte	0x73
 4697 0206 AD000000 		.4byte	0xad
 4698 020a 79       		.byte	0x79
 4699 020b 0C       		.uleb128 0xc
 4700 020c 3C0C0000 		.4byte	.LASF42
 4701 0210 05       		.byte	0x5
 4702 0211 74       		.byte	0x74
 4703 0212 1D040000 		.4byte	0x41d
 4704 0216 7A       		.byte	0x7a
 4705 0217 0C       		.uleb128 0xc
 4706 0218 7C0B0000 		.4byte	.LASF43
 4707 021c 05       		.byte	0x5
 4708 021d 75       		.byte	0x75
 4709 021e 2D040000 		.4byte	0x42d
 4710 0222 7F       		.byte	0x7f
 4711 0223 0C       		.uleb128 0xc
 4712 0224 61100000 		.4byte	.LASF44
 4713 0228 05       		.byte	0x5
 4714 0229 76       		.byte	0x76
 4715 022a 2D040000 		.4byte	0x42d
 4716 022e 85       		.byte	0x85
 4717 022f 0C       		.uleb128 0xc
 4718 0230 A6090000 		.4byte	.LASF45
 4719 0234 05       		.byte	0x5
 4720 0235 77       		.byte	0x77
 4721 0236 3D040000 		.4byte	0x43d
 4722 023a 8B       		.byte	0x8b
ARM GAS  C:\Users\Diego\AppData\Local\Temp\cctVJSXF.s 			page 118


 4723 023b 0C       		.uleb128 0xc
 4724 023c C5030000 		.4byte	.LASF46
 4725 0240 05       		.byte	0x5
 4726 0241 78       		.byte	0x78
 4727 0242 3D040000 		.4byte	0x43d
 4728 0246 99       		.byte	0x99
 4729 0247 0C       		.uleb128 0xc
 4730 0248 EE070000 		.4byte	.LASF47
 4731 024c 05       		.byte	0x5
 4732 024d 79       		.byte	0x79
 4733 024e 3D040000 		.4byte	0x43d
 4734 0252 A7       		.byte	0xa7
 4735 0253 0C       		.uleb128 0xc
 4736 0254 BB060000 		.4byte	.LASF48
 4737 0258 05       		.byte	0x5
 4738 0259 7A       		.byte	0x7a
 4739 025a 3D040000 		.4byte	0x43d
 4740 025e B5       		.byte	0xb5
 4741 025f 0C       		.uleb128 0xc
 4742 0260 F40B0000 		.4byte	.LASF49
 4743 0264 05       		.byte	0x5
 4744 0265 7B       		.byte	0x7b
 4745 0266 3D040000 		.4byte	0x43d
 4746 026a C3       		.byte	0xc3
 4747 026b 0C       		.uleb128 0xc
 4748 026c 77090000 		.4byte	.LASF50
 4749 0270 05       		.byte	0x5
 4750 0271 7C       		.byte	0x7c
 4751 0272 3D040000 		.4byte	0x43d
 4752 0276 D1       		.byte	0xd1
 4753 0277 0C       		.uleb128 0xc
 4754 0278 3E0A0000 		.4byte	.LASF51
 4755 027c 05       		.byte	0x5
 4756 027d 7D       		.byte	0x7d
 4757 027e 4D040000 		.4byte	0x44d
 4758 0282 DF       		.byte	0xdf
 4759 0283 0C       		.uleb128 0xc
 4760 0284 7C040000 		.4byte	.LASF52
 4761 0288 05       		.byte	0x5
 4762 0289 7E       		.byte	0x7e
 4763 028a 4D040000 		.4byte	0x44d
 4764 028e EA       		.byte	0xea
 4765 028f 0C       		.uleb128 0xc
 4766 0290 92050000 		.4byte	.LASF53
 4767 0294 05       		.byte	0x5
 4768 0295 7F       		.byte	0x7f
 4769 0296 4D040000 		.4byte	0x44d
 4770 029a F5       		.byte	0xf5
 4771 029b 0D       		.uleb128 0xd
 4772 029c 61080000 		.4byte	.LASF54
 4773 02a0 05       		.byte	0x5
 4774 02a1 80       		.byte	0x80
 4775 02a2 AD000000 		.4byte	0xad
 4776 02a6 0001     		.2byte	0x100
 4777 02a8 0D       		.uleb128 0xd
 4778 02a9 81060000 		.4byte	.LASF55
 4779 02ad 05       		.byte	0x5
ARM GAS  C:\Users\Diego\AppData\Local\Temp\cctVJSXF.s 			page 119


 4780 02ae 81       		.byte	0x81
 4781 02af AD000000 		.4byte	0xad
 4782 02b3 0101     		.2byte	0x101
 4783 02b5 0D       		.uleb128 0xd
 4784 02b6 AC010000 		.4byte	.LASF56
 4785 02ba 05       		.byte	0x5
 4786 02bb 82       		.byte	0x82
 4787 02bc AD000000 		.4byte	0xad
 4788 02c0 0201     		.2byte	0x102
 4789 02c2 0D       		.uleb128 0xd
 4790 02c3 3B0B0000 		.4byte	.LASF57
 4791 02c7 05       		.byte	0x5
 4792 02c8 83       		.byte	0x83
 4793 02c9 AD000000 		.4byte	0xad
 4794 02cd 0301     		.2byte	0x103
 4795 02cf 0D       		.uleb128 0xd
 4796 02d0 F8000000 		.4byte	.LASF58
 4797 02d4 05       		.byte	0x5
 4798 02d5 84       		.byte	0x84
 4799 02d6 5D040000 		.4byte	0x45d
 4800 02da 0401     		.2byte	0x104
 4801 02dc 0D       		.uleb128 0xd
 4802 02dd CB060000 		.4byte	.LASF59
 4803 02e1 05       		.byte	0x5
 4804 02e2 85       		.byte	0x85
 4805 02e3 D7030000 		.4byte	0x3d7
 4806 02e7 4501     		.2byte	0x145
 4807 02e9 0D       		.uleb128 0xd
 4808 02ea D0020000 		.4byte	.LASF60
 4809 02ee 05       		.byte	0x5
 4810 02ef 86       		.byte	0x86
 4811 02f0 D7030000 		.4byte	0x3d7
 4812 02f4 4F01     		.2byte	0x14f
 4813 02f6 0D       		.uleb128 0xd
 4814 02f7 B2060000 		.4byte	.LASF61
 4815 02fb 05       		.byte	0x5
 4816 02fc 87       		.byte	0x87
 4817 02fd D7030000 		.4byte	0x3d7
 4818 0301 5901     		.2byte	0x159
 4819 0303 0D       		.uleb128 0xd
 4820 0304 31050000 		.4byte	.LASF62
 4821 0308 05       		.byte	0x5
 4822 0309 88       		.byte	0x88
 4823 030a 6D040000 		.4byte	0x46d
 4824 030e 6301     		.2byte	0x163
 4825 0310 0D       		.uleb128 0xd
 4826 0311 82010000 		.4byte	.LASF63
 4827 0315 05       		.byte	0x5
 4828 0316 89       		.byte	0x89
 4829 0317 6D040000 		.4byte	0x46d
 4830 031b AE01     		.2byte	0x1ae
 4831 031d 0D       		.uleb128 0xd
 4832 031e 6C020000 		.4byte	.LASF64
 4833 0322 05       		.byte	0x5
 4834 0323 8A       		.byte	0x8a
 4835 0324 83040000 		.4byte	0x483
 4836 0328 F901     		.2byte	0x1f9
ARM GAS  C:\Users\Diego\AppData\Local\Temp\cctVJSXF.s 			page 120


 4837 032a 0D       		.uleb128 0xd
 4838 032b E80C0000 		.4byte	.LASF65
 4839 032f 05       		.byte	0x5
 4840 0330 8B       		.byte	0x8b
 4841 0331 83040000 		.4byte	0x483
 4842 0335 0802     		.2byte	0x208
 4843 0337 0D       		.uleb128 0xd
 4844 0338 340E0000 		.4byte	.LASF66
 4845 033c 05       		.byte	0x5
 4846 033d 8C       		.byte	0x8c
 4847 033e 99040000 		.4byte	0x499
 4848 0342 1702     		.2byte	0x217
 4849 0344 0D       		.uleb128 0xd
 4850 0345 B60E0000 		.4byte	.LASF67
 4851 0349 05       		.byte	0x5
 4852 034a 8D       		.byte	0x8d
 4853 034b 99040000 		.4byte	0x499
 4854 034f 3502     		.2byte	0x235
 4855 0351 0D       		.uleb128 0xd
 4856 0352 1C080000 		.4byte	.LASF68
 4857 0356 05       		.byte	0x5
 4858 0357 8E       		.byte	0x8e
 4859 0358 D7030000 		.4byte	0x3d7
 4860 035c 5302     		.2byte	0x253
 4861 035e 0D       		.uleb128 0xd
 4862 035f AA0C0000 		.4byte	.LASF69
 4863 0363 05       		.byte	0x5
 4864 0364 8F       		.byte	0x8f
 4865 0365 AD000000 		.4byte	0xad
 4866 0369 5D02     		.2byte	0x25d
 4867 036b 0D       		.uleb128 0xd
 4868 036c 4A0A0000 		.4byte	.LASF70
 4869 0370 05       		.byte	0x5
 4870 0371 90       		.byte	0x90
 4871 0372 AF040000 		.4byte	0x4af
 4872 0376 5E02     		.2byte	0x25e
 4873 0378 0D       		.uleb128 0xd
 4874 0379 EC060000 		.4byte	.LASF71
 4875 037d 05       		.byte	0x5
 4876 037e 91       		.byte	0x91
 4877 037f F7030000 		.4byte	0x3f7
 4878 0383 6D02     		.2byte	0x26d
 4879 0385 0D       		.uleb128 0xd
 4880 0386 88040000 		.4byte	.LASF72
 4881 038a 05       		.byte	0x5
 4882 038b 92       		.byte	0x92
 4883 038c AD000000 		.4byte	0xad
 4884 0390 6F02     		.2byte	0x26f
 4885 0392 0D       		.uleb128 0xd
 4886 0393 BB040000 		.4byte	.LASF73
 4887 0397 05       		.byte	0x5
 4888 0398 93       		.byte	0x93
 4889 0399 AD000000 		.4byte	0xad
 4890 039d 7002     		.2byte	0x270
 4891 039f 0D       		.uleb128 0xd
 4892 03a0 C5040000 		.4byte	.LASF74
 4893 03a4 05       		.byte	0x5
ARM GAS  C:\Users\Diego\AppData\Local\Temp\cctVJSXF.s 			page 121


 4894 03a5 94       		.byte	0x94
 4895 03a6 AD000000 		.4byte	0xad
 4896 03aa 7102     		.2byte	0x271
 4897 03ac 0D       		.uleb128 0xd
 4898 03ad AA0A0000 		.4byte	.LASF75
 4899 03b1 05       		.byte	0x5
 4900 03b2 95       		.byte	0x95
 4901 03b3 4D040000 		.4byte	0x44d
 4902 03b7 7202     		.2byte	0x272
 4903 03b9 0D       		.uleb128 0xd
 4904 03ba 020F0000 		.4byte	.LASF76
 4905 03be 05       		.byte	0x5
 4906 03bf 96       		.byte	0x96
 4907 03c0 4D040000 		.4byte	0x44d
 4908 03c4 7D02     		.2byte	0x27d
 4909 03c6 00       		.byte	0
 4910 03c7 09       		.uleb128 0x9
 4911 03c8 AD000000 		.4byte	0xad
 4912 03cc D7030000 		.4byte	0x3d7
 4913 03d0 0A       		.uleb128 0xa
 4914 03d1 27010000 		.4byte	0x127
 4915 03d5 18       		.byte	0x18
 4916 03d6 00       		.byte	0
 4917 03d7 09       		.uleb128 0x9
 4918 03d8 AD000000 		.4byte	0xad
 4919 03dc E7030000 		.4byte	0x3e7
 4920 03e0 0A       		.uleb128 0xa
 4921 03e1 27010000 		.4byte	0x127
 4922 03e5 09       		.byte	0x9
 4923 03e6 00       		.byte	0
 4924 03e7 09       		.uleb128 0x9
 4925 03e8 AD000000 		.4byte	0xad
 4926 03ec F7030000 		.4byte	0x3f7
 4927 03f0 0A       		.uleb128 0xa
 4928 03f1 27010000 		.4byte	0x127
 4929 03f5 14       		.byte	0x14
 4930 03f6 00       		.byte	0
 4931 03f7 09       		.uleb128 0x9
 4932 03f8 AD000000 		.4byte	0xad
 4933 03fc 07040000 		.4byte	0x407
 4934 0400 0A       		.uleb128 0xa
 4935 0401 27010000 		.4byte	0x127
 4936 0405 01       		.byte	0x1
 4937 0406 00       		.byte	0
 4938 0407 09       		.uleb128 0x9
 4939 0408 AD000000 		.4byte	0xad
 4940 040c 1D040000 		.4byte	0x41d
 4941 0410 0A       		.uleb128 0xa
 4942 0411 27010000 		.4byte	0x127
 4943 0415 01       		.byte	0x1
 4944 0416 0A       		.uleb128 0xa
 4945 0417 27010000 		.4byte	0x127
 4946 041b 09       		.byte	0x9
 4947 041c 00       		.byte	0
 4948 041d 09       		.uleb128 0x9
 4949 041e AD000000 		.4byte	0xad
 4950 0422 2D040000 		.4byte	0x42d
ARM GAS  C:\Users\Diego\AppData\Local\Temp\cctVJSXF.s 			page 122


 4951 0426 0A       		.uleb128 0xa
 4952 0427 27010000 		.4byte	0x127
 4953 042b 04       		.byte	0x4
 4954 042c 00       		.byte	0
 4955 042d 09       		.uleb128 0x9
 4956 042e AD000000 		.4byte	0xad
 4957 0432 3D040000 		.4byte	0x43d
 4958 0436 0A       		.uleb128 0xa
 4959 0437 27010000 		.4byte	0x127
 4960 043b 05       		.byte	0x5
 4961 043c 00       		.byte	0
 4962 043d 09       		.uleb128 0x9
 4963 043e AD000000 		.4byte	0xad
 4964 0442 4D040000 		.4byte	0x44d
 4965 0446 0A       		.uleb128 0xa
 4966 0447 27010000 		.4byte	0x127
 4967 044b 0D       		.byte	0xd
 4968 044c 00       		.byte	0
 4969 044d 09       		.uleb128 0x9
 4970 044e AD000000 		.4byte	0xad
 4971 0452 5D040000 		.4byte	0x45d
 4972 0456 0A       		.uleb128 0xa
 4973 0457 27010000 		.4byte	0x127
 4974 045b 0A       		.byte	0xa
 4975 045c 00       		.byte	0
 4976 045d 09       		.uleb128 0x9
 4977 045e AD000000 		.4byte	0xad
 4978 0462 6D040000 		.4byte	0x46d
 4979 0466 0A       		.uleb128 0xa
 4980 0467 27010000 		.4byte	0x127
 4981 046b 40       		.byte	0x40
 4982 046c 00       		.byte	0
 4983 046d 09       		.uleb128 0x9
 4984 046e AD000000 		.4byte	0xad
 4985 0472 83040000 		.4byte	0x483
 4986 0476 0A       		.uleb128 0xa
 4987 0477 27010000 		.4byte	0x127
 4988 047b 02       		.byte	0x2
 4989 047c 0A       		.uleb128 0xa
 4990 047d 27010000 		.4byte	0x127
 4991 0481 18       		.byte	0x18
 4992 0482 00       		.byte	0
 4993 0483 09       		.uleb128 0x9
 4994 0484 AD000000 		.4byte	0xad
 4995 0488 99040000 		.4byte	0x499
 4996 048c 0A       		.uleb128 0xa
 4997 048d 27010000 		.4byte	0x127
 4998 0491 02       		.byte	0x2
 4999 0492 0A       		.uleb128 0xa
 5000 0493 27010000 		.4byte	0x127
 5001 0497 04       		.byte	0x4
 5002 0498 00       		.byte	0
 5003 0499 09       		.uleb128 0x9
 5004 049a AD000000 		.4byte	0xad
 5005 049e AF040000 		.4byte	0x4af
 5006 04a2 0A       		.uleb128 0xa
 5007 04a3 27010000 		.4byte	0x127
ARM GAS  C:\Users\Diego\AppData\Local\Temp\cctVJSXF.s 			page 123


 5008 04a7 02       		.byte	0x2
 5009 04a8 0A       		.uleb128 0xa
 5010 04a9 27010000 		.4byte	0x127
 5011 04ad 09       		.byte	0x9
 5012 04ae 00       		.byte	0
 5013 04af 09       		.uleb128 0x9
 5014 04b0 AD000000 		.4byte	0xad
 5015 04b4 BF040000 		.4byte	0x4bf
 5016 04b8 0A       		.uleb128 0xa
 5017 04b9 27010000 		.4byte	0x127
 5018 04bd 0E       		.byte	0xe
 5019 04be 00       		.byte	0
 5020 04bf 0B       		.uleb128 0xb
 5021 04c0 AF100000 		.4byte	.LASF78
 5022 04c4 0301     		.2byte	0x103
 5023 04c6 05       		.byte	0x5
 5024 04c7 A7       		.byte	0xa7
 5025 04c8 48050000 		.4byte	0x548
 5026 04cc 0E       		.uleb128 0xe
 5027 04cd 64697200 		.ascii	"dir\000"
 5028 04d1 05       		.byte	0x5
 5029 04d2 A8       		.byte	0xa8
 5030 04d3 AD000000 		.4byte	0xad
 5031 04d7 00       		.byte	0
 5032 04d8 0C       		.uleb128 0xc
 5033 04d9 3E050000 		.4byte	.LASF79
 5034 04dd 05       		.byte	0x5
 5035 04de A9       		.byte	0xa9
 5036 04df 48050000 		.4byte	0x548
 5037 04e3 01       		.byte	0x1
 5038 04e4 0C       		.uleb128 0xc
 5039 04e5 8E100000 		.4byte	.LASF80
 5040 04e9 05       		.byte	0x5
 5041 04ea AA       		.byte	0xaa
 5042 04eb 64050000 		.4byte	0x564
 5043 04ef B5       		.byte	0xb5
 5044 04f0 0C       		.uleb128 0xc
 5045 04f1 10070000 		.4byte	.LASF81
 5046 04f5 05       		.byte	0x5
 5047 04f6 AB       		.byte	0xab
 5048 04f7 3D040000 		.4byte	0x43d
 5049 04fb D5       		.byte	0xd5
 5050 04fc 0C       		.uleb128 0xc
 5051 04fd EC0E0000 		.4byte	.LASF82
 5052 0501 05       		.byte	0x5
 5053 0502 AC       		.byte	0xac
 5054 0503 3D040000 		.4byte	0x43d
 5055 0507 E3       		.byte	0xe3
 5056 0508 0C       		.uleb128 0xc
 5057 0509 9A070000 		.4byte	.LASF83
 5058 050d 05       		.byte	0x5
 5059 050e AD       		.byte	0xad
 5060 050f 3D040000 		.4byte	0x43d
 5061 0513 F1       		.byte	0xf1
 5062 0514 0C       		.uleb128 0xc
 5063 0515 FD0F0000 		.4byte	.LASF84
 5064 0519 05       		.byte	0x5
ARM GAS  C:\Users\Diego\AppData\Local\Temp\cctVJSXF.s 			page 124


 5065 051a AE       		.byte	0xae
 5066 051b AD000000 		.4byte	0xad
 5067 051f FF       		.byte	0xff
 5068 0520 0D       		.uleb128 0xd
 5069 0521 7B0C0000 		.4byte	.LASF85
 5070 0525 05       		.byte	0x5
 5071 0526 AF       		.byte	0xaf
 5072 0527 AD000000 		.4byte	0xad
 5073 052b 0001     		.2byte	0x100
 5074 052d 0D       		.uleb128 0xd
 5075 052e 80030000 		.4byte	.LASF86
 5076 0532 05       		.byte	0x5
 5077 0533 B0       		.byte	0xb0
 5078 0534 AD000000 		.4byte	0xad
 5079 0538 0101     		.2byte	0x101
 5080 053a 0D       		.uleb128 0xd
 5081 053b 8B0B0000 		.4byte	.LASF87
 5082 053f 05       		.byte	0x5
 5083 0540 B1       		.byte	0xb1
 5084 0541 AD000000 		.4byte	0xad
 5085 0545 0201     		.2byte	0x102
 5086 0547 00       		.byte	0
 5087 0548 09       		.uleb128 0x9
 5088 0549 AD000000 		.4byte	0xad
 5089 054d 64050000 		.4byte	0x564
 5090 0551 0A       		.uleb128 0xa
 5091 0552 27010000 		.4byte	0x127
 5092 0556 03       		.byte	0x3
 5093 0557 0A       		.uleb128 0xa
 5094 0558 27010000 		.4byte	0x127
 5095 055c 02       		.byte	0x2
 5096 055d 0A       		.uleb128 0xa
 5097 055e 27010000 		.4byte	0x127
 5098 0562 0E       		.byte	0xe
 5099 0563 00       		.byte	0
 5100 0564 09       		.uleb128 0x9
 5101 0565 AD000000 		.4byte	0xad
 5102 0569 7A050000 		.4byte	0x57a
 5103 056d 0A       		.uleb128 0xa
 5104 056e 27010000 		.4byte	0x127
 5105 0572 03       		.byte	0x3
 5106 0573 0A       		.uleb128 0xa
 5107 0574 27010000 		.4byte	0x127
 5108 0578 07       		.byte	0x7
 5109 0579 00       		.byte	0
 5110 057a 0B       		.uleb128 0xb
 5111 057b 810E0000 		.4byte	.LASF88
 5112 057f 0C04     		.2byte	0x40c
 5113 0581 05       		.byte	0x5
 5114 0582 B4       		.byte	0xb4
 5115 0583 B3050000 		.4byte	0x5b3
 5116 0587 0E       		.uleb128 0xe
 5117 0588 6100     		.ascii	"a\000"
 5118 058a 05       		.byte	0x5
 5119 058b B5       		.byte	0xb5
 5120 058c BF040000 		.4byte	0x4bf
 5121 0590 00       		.byte	0
ARM GAS  C:\Users\Diego\AppData\Local\Temp\cctVJSXF.s 			page 125


 5122 0591 0F       		.uleb128 0xf
 5123 0592 6200     		.ascii	"b\000"
 5124 0594 05       		.byte	0x5
 5125 0595 B6       		.byte	0xb6
 5126 0596 BF040000 		.4byte	0x4bf
 5127 059a 0301     		.2byte	0x103
 5128 059c 0F       		.uleb128 0xf
 5129 059d 6300     		.ascii	"c\000"
 5130 059f 05       		.byte	0x5
 5131 05a0 B7       		.byte	0xb7
 5132 05a1 BF040000 		.4byte	0x4bf
 5133 05a5 0602     		.2byte	0x206
 5134 05a7 0F       		.uleb128 0xf
 5135 05a8 6400     		.ascii	"d\000"
 5136 05aa 05       		.byte	0x5
 5137 05ab B8       		.byte	0xb8
 5138 05ac BF040000 		.4byte	0x4bf
 5139 05b0 0903     		.2byte	0x309
 5140 05b2 00       		.byte	0
 5141 05b3 10       		.uleb128 0x10
 5142 05b4 C30F0000 		.4byte	.LASF276
 5143 05b8 01       		.byte	0x1
 5144 05b9 05       		.byte	0x5
 5145 05ba CE       		.byte	0xce
 5146 05bb 2C070000 		.4byte	0x72c
 5147 05bf 11       		.uleb128 0x11
 5148 05c0 EF0F0000 		.4byte	.LASF89
 5149 05c4 00       		.sleb128 0
 5150 05c5 11       		.uleb128 0x11
 5151 05c6 22060000 		.4byte	.LASF90
 5152 05ca 01       		.sleb128 1
 5153 05cb 11       		.uleb128 0x11
 5154 05cc 32060000 		.4byte	.LASF91
 5155 05d0 02       		.sleb128 2
 5156 05d1 11       		.uleb128 0x11
 5157 05d2 96040000 		.4byte	.LASF92
 5158 05d6 03       		.sleb128 3
 5159 05d7 11       		.uleb128 0x11
 5160 05d8 65050000 		.4byte	.LASF93
 5161 05dc 04       		.sleb128 4
 5162 05dd 11       		.uleb128 0x11
 5163 05de 49060000 		.4byte	.LASF94
 5164 05e2 05       		.sleb128 5
 5165 05e3 11       		.uleb128 0x11
 5166 05e4 010A0000 		.4byte	.LASF95
 5167 05e8 06       		.sleb128 6
 5168 05e9 11       		.uleb128 0x11
 5169 05ea 27020000 		.4byte	.LASF96
 5170 05ee 0F       		.sleb128 15
 5171 05ef 11       		.uleb128 0x11
 5172 05f0 490F0000 		.4byte	.LASF97
 5173 05f4 FE00     		.sleb128 126
 5174 05f6 11       		.uleb128 0x11
 5175 05f7 660F0000 		.4byte	.LASF98
 5176 05fb 8601     		.sleb128 134
 5177 05fd 11       		.uleb128 0x11
 5178 05fe 4E070000 		.4byte	.LASF99
ARM GAS  C:\Users\Diego\AppData\Local\Temp\cctVJSXF.s 			page 126


 5179 0602 07       		.sleb128 7
 5180 0603 11       		.uleb128 0x11
 5181 0604 D5080000 		.4byte	.LASF100
 5182 0608 08       		.sleb128 8
 5183 0609 11       		.uleb128 0x11
 5184 060a 600C0000 		.4byte	.LASF101
 5185 060e 09       		.sleb128 9
 5186 060f 11       		.uleb128 0x11
 5187 0610 B9090000 		.4byte	.LASF102
 5188 0614 0A       		.sleb128 10
 5189 0615 11       		.uleb128 0x11
 5190 0616 E8020000 		.4byte	.LASF103
 5191 061a 0B       		.sleb128 11
 5192 061b 11       		.uleb128 0x11
 5193 061c 15000000 		.4byte	.LASF104
 5194 0620 25       		.sleb128 37
 5195 0621 11       		.uleb128 0x11
 5196 0622 28080000 		.4byte	.LASF105
 5197 0626 26       		.sleb128 38
 5198 0627 11       		.uleb128 0x11
 5199 0628 C1010000 		.4byte	.LASF106
 5200 062c 27       		.sleb128 39
 5201 062d 11       		.uleb128 0x11
 5202 062e B20A0000 		.4byte	.LASF107
 5203 0632 2F       		.sleb128 47
 5204 0633 11       		.uleb128 0x11
 5205 0634 920A0000 		.4byte	.LASF108
 5206 0638 2C       		.sleb128 44
 5207 0639 11       		.uleb128 0x11
 5208 063a 70100000 		.4byte	.LASF109
 5209 063e 0C       		.sleb128 12
 5210 063f 11       		.uleb128 0x11
 5211 0640 B40B0000 		.4byte	.LASF110
 5212 0644 8501     		.sleb128 133
 5213 0646 11       		.uleb128 0x11
 5214 0647 C60E0000 		.4byte	.LASF111
 5215 064b 1C       		.sleb128 28
 5216 064c 11       		.uleb128 0x11
 5217 064d 5C030000 		.4byte	.LASF112
 5218 0651 12       		.sleb128 18
 5219 0652 11       		.uleb128 0x11
 5220 0653 4D090000 		.4byte	.LASF113
 5221 0657 13       		.sleb128 19
 5222 0658 11       		.uleb128 0x11
 5223 0659 470B0000 		.4byte	.LASF114
 5224 065d 24       		.sleb128 36
 5225 065e 11       		.uleb128 0x11
 5226 065f AA030000 		.4byte	.LASF115
 5227 0663 0D       		.sleb128 13
 5228 0664 11       		.uleb128 0x11
 5229 0665 93060000 		.4byte	.LASF116
 5230 0669 0E       		.sleb128 14
 5231 066a 11       		.uleb128 0x11
 5232 066b C70B0000 		.4byte	.LASF117
 5233 066f 8301     		.sleb128 131
 5234 0671 11       		.uleb128 0x11
 5235 0672 D9030000 		.4byte	.LASF118
ARM GAS  C:\Users\Diego\AppData\Local\Temp\cctVJSXF.s 			page 127


 5236 0676 DA00     		.sleb128 90
 5237 0678 11       		.uleb128 0x11
 5238 0679 11100000 		.4byte	.LASF119
 5239 067d 31       		.sleb128 49
 5240 067e 11       		.uleb128 0x11
 5241 067f 610B0000 		.4byte	.LASF120
 5242 0683 35       		.sleb128 53
 5243 0684 11       		.uleb128 0x11
 5244 0685 5C0D0000 		.4byte	.LASF121
 5245 0689 2E       		.sleb128 46
 5246 068a 11       		.uleb128 0x11
 5247 068b 060E0000 		.4byte	.LASF122
 5248 068f 8C01     		.sleb128 140
 5249 0691 11       		.uleb128 0x11
 5250 0692 09040000 		.4byte	.LASF123
 5251 0696 9601     		.sleb128 150
 5252 0698 11       		.uleb128 0x11
 5253 0699 E70A0000 		.4byte	.LASF124
 5254 069d 39       		.sleb128 57
 5255 069e 11       		.uleb128 0x11
 5256 069f 13030000 		.4byte	.LASF125
 5257 06a3 9701     		.sleb128 151
 5258 06a5 11       		.uleb128 0x11
 5259 06a6 4F000000 		.4byte	.LASF126
 5260 06aa 9801     		.sleb128 152
 5261 06ac 11       		.uleb128 0x11
 5262 06ad C90A0000 		.4byte	.LASF127
 5263 06b1 3E       		.sleb128 62
 5264 06b2 11       		.uleb128 0x11
 5265 06b3 08000000 		.4byte	.LASF128
 5266 06b7 3F       		.sleb128 63
 5267 06b8 11       		.uleb128 0x11
 5268 06b9 F3090000 		.4byte	.LASF129
 5269 06bd C000     		.sleb128 64
 5270 06bf 11       		.uleb128 0x11
 5271 06c0 450E0000 		.4byte	.LASF130
 5272 06c4 8D01     		.sleb128 141
 5273 06c6 11       		.uleb128 0x11
 5274 06c7 DA070000 		.4byte	.LASF131
 5275 06cb 23       		.sleb128 35
 5276 06cc 11       		.uleb128 0x11
 5277 06cd 860E0000 		.4byte	.LASF132
 5278 06d1 2A       		.sleb128 42
 5279 06d2 11       		.uleb128 0x11
 5280 06d3 040D0000 		.4byte	.LASF133
 5281 06d7 2B       		.sleb128 43
 5282 06d8 11       		.uleb128 0x11
 5283 06d9 3B0D0000 		.4byte	.LASF134
 5284 06dd 3C       		.sleb128 60
 5285 06de 11       		.uleb128 0x11
 5286 06df 81070000 		.4byte	.LASF135
 5287 06e3 C100     		.sleb128 65
 5288 06e5 11       		.uleb128 0x11
 5289 06e6 37030000 		.4byte	.LASF136
 5290 06ea EB00     		.sleb128 107
 5291 06ec 11       		.uleb128 0x11
 5292 06ed 2E000000 		.4byte	.LASF137
ARM GAS  C:\Users\Diego\AppData\Local\Temp\cctVJSXF.s 			page 128


 5293 06f1 E700     		.sleb128 103
 5294 06f3 11       		.uleb128 0x11
 5295 06f4 62070000 		.4byte	.LASF138
 5296 06f8 E400     		.sleb128 100
 5297 06fa 11       		.uleb128 0x11
 5298 06fb 00010000 		.4byte	.LASF139
 5299 06ff E500     		.sleb128 101
 5300 0701 11       		.uleb128 0x11
 5301 0702 9B000000 		.4byte	.LASF140
 5302 0706 9901     		.sleb128 153
 5303 0708 11       		.uleb128 0x11
 5304 0709 100F0000 		.4byte	.LASF141
 5305 070d 9A01     		.sleb128 154
 5306 070f 11       		.uleb128 0x11
 5307 0710 1F0F0000 		.4byte	.LASF142
 5308 0714 9B01     		.sleb128 155
 5309 0716 11       		.uleb128 0x11
 5310 0717 2E0F0000 		.4byte	.LASF143
 5311 071b 9C01     		.sleb128 156
 5312 071d 11       		.uleb128 0x11
 5313 071e EA010000 		.4byte	.LASF144
 5314 0722 FA01     		.sleb128 250
 5315 0724 11       		.uleb128 0x11
 5316 0725 0F080000 		.4byte	.LASF145
 5317 0729 FF01     		.sleb128 255
 5318 072b 00       		.byte	0
 5319 072c 12       		.uleb128 0x12
 5320 072d A6050000 		.4byte	.LASF163
 5321 0731 01       		.byte	0x1
 5322 0732 6704     		.2byte	0x467
 5323 0734 00000000 		.4byte	.LFB73
 5324 0738 14000000 		.4byte	.LFE73-.LFB73
 5325 073c 01       		.uleb128 0x1
 5326 073d 9C       		.byte	0x9c
 5327 073e 4C070000 		.4byte	0x74c
 5328 0742 13       		.uleb128 0x13
 5329 0743 06000000 		.4byte	.LVL0
 5330 0747 C5220000 		.4byte	0x22c5
 5331 074b 00       		.byte	0
 5332 074c 14       		.uleb128 0x14
 5333 074d CD000000 		.4byte	.LASF146
 5334 0751 01       		.byte	0x1
 5335 0752 1F       		.byte	0x1f
 5336 0753 00000000 		.4byte	.LFB63
 5337 0757 20000000 		.4byte	.LFE63-.LFB63
 5338 075b 01       		.uleb128 0x1
 5339 075c 9C       		.byte	0x9c
 5340 075d A1070000 		.4byte	0x7a1
 5341 0761 13       		.uleb128 0x13
 5342 0762 06000000 		.4byte	.LVL1
 5343 0766 D0220000 		.4byte	0x22d0
 5344 076a 13       		.uleb128 0x13
 5345 076b 0A000000 		.4byte	.LVL2
 5346 076f D7220000 		.4byte	0x22d7
 5347 0773 13       		.uleb128 0x13
 5348 0774 0E000000 		.4byte	.LVL3
 5349 0778 DE220000 		.4byte	0x22de
ARM GAS  C:\Users\Diego\AppData\Local\Temp\cctVJSXF.s 			page 129


 5350 077c 13       		.uleb128 0x13
 5351 077d 12000000 		.4byte	.LVL4
 5352 0781 E5220000 		.4byte	0x22e5
 5353 0785 13       		.uleb128 0x13
 5354 0786 16000000 		.4byte	.LVL5
 5355 078a EC220000 		.4byte	0x22ec
 5356 078e 13       		.uleb128 0x13
 5357 078f 1A000000 		.4byte	.LVL6
 5358 0793 F3220000 		.4byte	0x22f3
 5359 0797 13       		.uleb128 0x13
 5360 0798 1E000000 		.4byte	.LVL7
 5361 079c FA220000 		.4byte	0x22fa
 5362 07a0 00       		.byte	0
 5363 07a1 14       		.uleb128 0x14
 5364 07a2 B00F0000 		.4byte	.LASF147
 5365 07a6 01       		.byte	0x1
 5366 07a7 29       		.byte	0x29
 5367 07a8 00000000 		.4byte	.LFB64
 5368 07ac 74000000 		.4byte	.LFE64-.LFB64
 5369 07b0 01       		.uleb128 0x1
 5370 07b1 9C       		.byte	0x9c
 5371 07b2 4B080000 		.4byte	0x84b
 5372 07b6 15       		.uleb128 0x15
 5373 07b7 0C000000 		.4byte	.LVL8
 5374 07bb 01230000 		.4byte	0x2301
 5375 07bf C9070000 		.4byte	0x7c9
 5376 07c3 16       		.uleb128 0x16
 5377 07c4 01       		.uleb128 0x1
 5378 07c5 51       		.byte	0x51
 5379 07c6 01       		.uleb128 0x1
 5380 07c7 30       		.byte	0x30
 5381 07c8 00       		.byte	0
 5382 07c9 15       		.uleb128 0x15
 5383 07ca 16000000 		.4byte	.LVL9
 5384 07ce 01230000 		.4byte	0x2301
 5385 07d2 DC070000 		.4byte	0x7dc
 5386 07d6 16       		.uleb128 0x16
 5387 07d7 01       		.uleb128 0x1
 5388 07d8 51       		.byte	0x51
 5389 07d9 01       		.uleb128 0x1
 5390 07da 31       		.byte	0x31
 5391 07db 00       		.byte	0
 5392 07dc 15       		.uleb128 0x15
 5393 07dd 20000000 		.4byte	.LVL10
 5394 07e1 01230000 		.4byte	0x2301
 5395 07e5 EF070000 		.4byte	0x7ef
 5396 07e9 16       		.uleb128 0x16
 5397 07ea 01       		.uleb128 0x1
 5398 07eb 51       		.byte	0x51
 5399 07ec 01       		.uleb128 0x1
 5400 07ed 32       		.byte	0x32
 5401 07ee 00       		.byte	0
 5402 07ef 15       		.uleb128 0x15
 5403 07f0 2A000000 		.4byte	.LVL11
 5404 07f4 01230000 		.4byte	0x2301
 5405 07f8 02080000 		.4byte	0x802
 5406 07fc 16       		.uleb128 0x16
ARM GAS  C:\Users\Diego\AppData\Local\Temp\cctVJSXF.s 			page 130


 5407 07fd 01       		.uleb128 0x1
 5408 07fe 51       		.byte	0x51
 5409 07ff 01       		.uleb128 0x1
 5410 0800 33       		.byte	0x33
 5411 0801 00       		.byte	0
 5412 0802 15       		.uleb128 0x15
 5413 0803 34000000 		.4byte	.LVL12
 5414 0807 01230000 		.4byte	0x2301
 5415 080b 15080000 		.4byte	0x815
 5416 080f 16       		.uleb128 0x16
 5417 0810 01       		.uleb128 0x1
 5418 0811 51       		.byte	0x51
 5419 0812 01       		.uleb128 0x1
 5420 0813 34       		.byte	0x34
 5421 0814 00       		.byte	0
 5422 0815 15       		.uleb128 0x15
 5423 0816 3E000000 		.4byte	.LVL13
 5424 081a 01230000 		.4byte	0x2301
 5425 081e 28080000 		.4byte	0x828
 5426 0822 16       		.uleb128 0x16
 5427 0823 01       		.uleb128 0x1
 5428 0824 51       		.byte	0x51
 5429 0825 01       		.uleb128 0x1
 5430 0826 35       		.byte	0x35
 5431 0827 00       		.byte	0
 5432 0828 15       		.uleb128 0x15
 5433 0829 48000000 		.4byte	.LVL14
 5434 082d 01230000 		.4byte	0x2301
 5435 0831 3B080000 		.4byte	0x83b
 5436 0835 16       		.uleb128 0x16
 5437 0836 01       		.uleb128 0x1
 5438 0837 51       		.byte	0x51
 5439 0838 01       		.uleb128 0x1
 5440 0839 36       		.byte	0x36
 5441 083a 00       		.byte	0
 5442 083b 17       		.uleb128 0x17
 5443 083c 54000000 		.4byte	.LVL15
 5444 0840 01230000 		.4byte	0x2301
 5445 0844 16       		.uleb128 0x16
 5446 0845 01       		.uleb128 0x1
 5447 0846 51       		.byte	0x51
 5448 0847 01       		.uleb128 0x1
 5449 0848 37       		.byte	0x37
 5450 0849 00       		.byte	0
 5451 084a 00       		.byte	0
 5452 084b 14       		.uleb128 0x14
 5453 084c 730A0000 		.4byte	.LASF148
 5454 0850 01       		.byte	0x1
 5455 0851 33       		.byte	0x33
 5456 0852 00000000 		.4byte	.LFB65
 5457 0856 14000000 		.4byte	.LFE65-.LFB65
 5458 085a 01       		.uleb128 0x1
 5459 085b 9C       		.byte	0x9c
 5460 085c 70080000 		.4byte	0x870
 5461 0860 17       		.uleb128 0x17
 5462 0861 08000000 		.4byte	.LVL16
 5463 0865 1B230000 		.4byte	0x231b
ARM GAS  C:\Users\Diego\AppData\Local\Temp\cctVJSXF.s 			page 131


 5464 0869 16       		.uleb128 0x16
 5465 086a 01       		.uleb128 0x1
 5466 086b 50       		.byte	0x50
 5467 086c 01       		.uleb128 0x1
 5468 086d 38       		.byte	0x38
 5469 086e 00       		.byte	0
 5470 086f 00       		.byte	0
 5471 0870 14       		.uleb128 0x14
 5472 0871 6E080000 		.4byte	.LASF149
 5473 0875 01       		.byte	0x1
 5474 0876 3F       		.byte	0x3f
 5475 0877 00000000 		.4byte	.LFB66
 5476 087b 8C020000 		.4byte	.LFE66-.LFB66
 5477 087f 01       		.uleb128 0x1
 5478 0880 9C       		.byte	0x9c
 5479 0881 5F0B0000 		.4byte	0xb5f
 5480 0885 18       		.uleb128 0x18
 5481 0886 40080000 		.4byte	.LASF150
 5482 088a 01       		.byte	0x1
 5483 088b 40       		.byte	0x40
 5484 088c 5F0B0000 		.4byte	0xb5f
 5485 0890 02       		.uleb128 0x2
 5486 0891 91       		.byte	0x91
 5487 0892 6C       		.sleb128 -20
 5488 0893 18       		.uleb128 0x18
 5489 0894 85030000 		.4byte	.LASF151
 5490 0898 01       		.byte	0x1
 5491 0899 41       		.byte	0x41
 5492 089a 5F0B0000 		.4byte	0xb5f
 5493 089e 02       		.uleb128 0x2
 5494 089f 91       		.byte	0x91
 5495 08a0 60       		.sleb128 -32
 5496 08a1 18       		.uleb128 0x18
 5497 08a2 A6010000 		.4byte	.LASF152
 5498 08a6 01       		.byte	0x1
 5499 08a7 42       		.byte	0x42
 5500 08a8 5F0B0000 		.4byte	0xb5f
 5501 08ac 02       		.uleb128 0x2
 5502 08ad 91       		.byte	0x91
 5503 08ae 54       		.sleb128 -44
 5504 08af 18       		.uleb128 0x18
 5505 08b0 4B020000 		.4byte	.LASF153
 5506 08b4 01       		.byte	0x1
 5507 08b5 43       		.byte	0x43
 5508 08b6 5F0B0000 		.4byte	0xb5f
 5509 08ba 02       		.uleb128 0x2
 5510 08bb 91       		.byte	0x91
 5511 08bc 48       		.sleb128 -56
 5512 08bd 18       		.uleb128 0x18
 5513 08be BB010000 		.4byte	.LASF154
 5514 08c2 01       		.byte	0x1
 5515 08c3 44       		.byte	0x44
 5516 08c4 5F0B0000 		.4byte	0xb5f
 5517 08c8 03       		.uleb128 0x3
 5518 08c9 91       		.byte	0x91
 5519 08ca BC7F     		.sleb128 -68
 5520 08cc 18       		.uleb128 0x18
ARM GAS  C:\Users\Diego\AppData\Local\Temp\cctVJSXF.s 			page 132


 5521 08cd D4040000 		.4byte	.LASF155
 5522 08d1 01       		.byte	0x1
 5523 08d2 45       		.byte	0x45
 5524 08d3 5F0B0000 		.4byte	0xb5f
 5525 08d7 03       		.uleb128 0x3
 5526 08d8 91       		.byte	0x91
 5527 08d9 B07F     		.sleb128 -80
 5528 08db 18       		.uleb128 0x18
 5529 08dc F5060000 		.4byte	.LASF156
 5530 08e0 01       		.byte	0x1
 5531 08e1 46       		.byte	0x46
 5532 08e2 5F0B0000 		.4byte	0xb5f
 5533 08e6 03       		.uleb128 0x3
 5534 08e7 91       		.byte	0x91
 5535 08e8 A47F     		.sleb128 -92
 5536 08ea 18       		.uleb128 0x18
 5537 08eb EE040000 		.4byte	.LASF157
 5538 08ef 01       		.byte	0x1
 5539 08f0 47       		.byte	0x47
 5540 08f1 5F0B0000 		.4byte	0xb5f
 5541 08f5 03       		.uleb128 0x3
 5542 08f6 91       		.byte	0x91
 5543 08f7 987F     		.sleb128 -104
 5544 08f9 18       		.uleb128 0x18
 5545 08fa FB040000 		.4byte	.LASF158
 5546 08fe 01       		.byte	0x1
 5547 08ff 48       		.byte	0x48
 5548 0900 5F0B0000 		.4byte	0xb5f
 5549 0904 03       		.uleb128 0x3
 5550 0905 91       		.byte	0x91
 5551 0906 8C7F     		.sleb128 -116
 5552 0908 15       		.uleb128 0x15
 5553 0909 86000000 		.4byte	.LVL17
 5554 090d 30230000 		.4byte	0x2330
 5555 0911 20090000 		.4byte	0x920
 5556 0915 16       		.uleb128 0x16
 5557 0916 01       		.uleb128 0x1
 5558 0917 51       		.byte	0x51
 5559 0918 01       		.uleb128 0x1
 5560 0919 31       		.byte	0x31
 5561 091a 16       		.uleb128 0x16
 5562 091b 01       		.uleb128 0x1
 5563 091c 50       		.byte	0x50
 5564 091d 01       		.uleb128 0x1
 5565 091e 31       		.byte	0x31
 5566 091f 00       		.byte	0
 5567 0920 15       		.uleb128 0x15
 5568 0921 90000000 		.4byte	.LVL18
 5569 0925 46230000 		.4byte	0x2346
 5570 0929 3E090000 		.4byte	0x93e
 5571 092d 16       		.uleb128 0x16
 5572 092e 01       		.uleb128 0x1
 5573 092f 52       		.byte	0x52
 5574 0930 01       		.uleb128 0x1
 5575 0931 30       		.byte	0x30
 5576 0932 16       		.uleb128 0x16
 5577 0933 01       		.uleb128 0x1
ARM GAS  C:\Users\Diego\AppData\Local\Temp\cctVJSXF.s 			page 133


 5578 0934 51       		.byte	0x51
 5579 0935 02       		.uleb128 0x2
 5580 0936 91       		.byte	0x91
 5581 0937 6C       		.sleb128 -20
 5582 0938 16       		.uleb128 0x16
 5583 0939 01       		.uleb128 0x1
 5584 093a 50       		.byte	0x50
 5585 093b 01       		.uleb128 0x1
 5586 093c 31       		.byte	0x31
 5587 093d 00       		.byte	0
 5588 093e 15       		.uleb128 0x15
 5589 093f 98000000 		.4byte	.LVL19
 5590 0943 67230000 		.4byte	0x2367
 5591 0947 53090000 		.4byte	0x953
 5592 094b 16       		.uleb128 0x16
 5593 094c 01       		.uleb128 0x1
 5594 094d 50       		.byte	0x50
 5595 094e 03       		.uleb128 0x3
 5596 094f 0A       		.byte	0xa
 5597 0950 2C01     		.2byte	0x12c
 5598 0952 00       		.byte	0
 5599 0953 15       		.uleb128 0x15
 5600 0954 B6000000 		.4byte	.LVL20
 5601 0958 46230000 		.4byte	0x2346
 5602 095c 71090000 		.4byte	0x971
 5603 0960 16       		.uleb128 0x16
 5604 0961 01       		.uleb128 0x1
 5605 0962 52       		.byte	0x52
 5606 0963 01       		.uleb128 0x1
 5607 0964 30       		.byte	0x30
 5608 0965 16       		.uleb128 0x16
 5609 0966 01       		.uleb128 0x1
 5610 0967 51       		.byte	0x51
 5611 0968 02       		.uleb128 0x2
 5612 0969 91       		.byte	0x91
 5613 096a 60       		.sleb128 -32
 5614 096b 16       		.uleb128 0x16
 5615 096c 01       		.uleb128 0x1
 5616 096d 50       		.byte	0x50
 5617 096e 01       		.uleb128 0x1
 5618 096f 31       		.byte	0x31
 5619 0970 00       		.byte	0
 5620 0971 15       		.uleb128 0x15
 5621 0972 D6000000 		.4byte	.LVL21
 5622 0976 46230000 		.4byte	0x2346
 5623 097a 8F090000 		.4byte	0x98f
 5624 097e 16       		.uleb128 0x16
 5625 097f 01       		.uleb128 0x1
 5626 0980 52       		.byte	0x52
 5627 0981 01       		.uleb128 0x1
 5628 0982 30       		.byte	0x30
 5629 0983 16       		.uleb128 0x16
 5630 0984 01       		.uleb128 0x1
 5631 0985 51       		.byte	0x51
 5632 0986 02       		.uleb128 0x2
 5633 0987 91       		.byte	0x91
 5634 0988 54       		.sleb128 -44
ARM GAS  C:\Users\Diego\AppData\Local\Temp\cctVJSXF.s 			page 134


 5635 0989 16       		.uleb128 0x16
 5636 098a 01       		.uleb128 0x1
 5637 098b 50       		.byte	0x50
 5638 098c 01       		.uleb128 0x1
 5639 098d 31       		.byte	0x31
 5640 098e 00       		.byte	0
 5641 098f 15       		.uleb128 0x15
 5642 0990 F6000000 		.4byte	.LVL22
 5643 0994 46230000 		.4byte	0x2346
 5644 0998 AD090000 		.4byte	0x9ad
 5645 099c 16       		.uleb128 0x16
 5646 099d 01       		.uleb128 0x1
 5647 099e 52       		.byte	0x52
 5648 099f 01       		.uleb128 0x1
 5649 09a0 30       		.byte	0x30
 5650 09a1 16       		.uleb128 0x16
 5651 09a2 01       		.uleb128 0x1
 5652 09a3 51       		.byte	0x51
 5653 09a4 02       		.uleb128 0x2
 5654 09a5 91       		.byte	0x91
 5655 09a6 48       		.sleb128 -56
 5656 09a7 16       		.uleb128 0x16
 5657 09a8 01       		.uleb128 0x1
 5658 09a9 50       		.byte	0x50
 5659 09aa 01       		.uleb128 0x1
 5660 09ab 31       		.byte	0x31
 5661 09ac 00       		.byte	0
 5662 09ad 15       		.uleb128 0x15
 5663 09ae 16010000 		.4byte	.LVL23
 5664 09b2 46230000 		.4byte	0x2346
 5665 09b6 CC090000 		.4byte	0x9cc
 5666 09ba 16       		.uleb128 0x16
 5667 09bb 01       		.uleb128 0x1
 5668 09bc 52       		.byte	0x52
 5669 09bd 01       		.uleb128 0x1
 5670 09be 30       		.byte	0x30
 5671 09bf 16       		.uleb128 0x16
 5672 09c0 01       		.uleb128 0x1
 5673 09c1 51       		.byte	0x51
 5674 09c2 03       		.uleb128 0x3
 5675 09c3 91       		.byte	0x91
 5676 09c4 BC7F     		.sleb128 -68
 5677 09c6 16       		.uleb128 0x16
 5678 09c7 01       		.uleb128 0x1
 5679 09c8 50       		.byte	0x50
 5680 09c9 01       		.uleb128 0x1
 5681 09ca 31       		.byte	0x31
 5682 09cb 00       		.byte	0
 5683 09cc 15       		.uleb128 0x15
 5684 09cd 26010000 		.4byte	.LVL24
 5685 09d1 46230000 		.4byte	0x2346
 5686 09d5 EB090000 		.4byte	0x9eb
 5687 09d9 16       		.uleb128 0x16
 5688 09da 01       		.uleb128 0x1
 5689 09db 52       		.byte	0x52
 5690 09dc 01       		.uleb128 0x1
 5691 09dd 46       		.byte	0x46
ARM GAS  C:\Users\Diego\AppData\Local\Temp\cctVJSXF.s 			page 135


 5692 09de 16       		.uleb128 0x16
 5693 09df 01       		.uleb128 0x1
 5694 09e0 51       		.byte	0x51
 5695 09e1 03       		.uleb128 0x3
 5696 09e2 91       		.byte	0x91
 5697 09e3 B07F     		.sleb128 -80
 5698 09e5 16       		.uleb128 0x16
 5699 09e6 01       		.uleb128 0x1
 5700 09e7 50       		.byte	0x50
 5701 09e8 01       		.uleb128 0x1
 5702 09e9 31       		.byte	0x31
 5703 09ea 00       		.byte	0
 5704 09eb 15       		.uleb128 0x15
 5705 09ec 3E010000 		.4byte	.LVL25
 5706 09f0 46230000 		.4byte	0x2346
 5707 09f4 0A0A0000 		.4byte	0xa0a
 5708 09f8 16       		.uleb128 0x16
 5709 09f9 01       		.uleb128 0x1
 5710 09fa 52       		.byte	0x52
 5711 09fb 01       		.uleb128 0x1
 5712 09fc 46       		.byte	0x46
 5713 09fd 16       		.uleb128 0x16
 5714 09fe 01       		.uleb128 0x1
 5715 09ff 51       		.byte	0x51
 5716 0a00 03       		.uleb128 0x3
 5717 0a01 91       		.byte	0x91
 5718 0a02 A47F     		.sleb128 -92
 5719 0a04 16       		.uleb128 0x16
 5720 0a05 01       		.uleb128 0x1
 5721 0a06 50       		.byte	0x50
 5722 0a07 01       		.uleb128 0x1
 5723 0a08 31       		.byte	0x31
 5724 0a09 00       		.byte	0
 5725 0a0a 15       		.uleb128 0x15
 5726 0a0b 56010000 		.4byte	.LVL26
 5727 0a0f 46230000 		.4byte	0x2346
 5728 0a13 290A0000 		.4byte	0xa29
 5729 0a17 16       		.uleb128 0x16
 5730 0a18 01       		.uleb128 0x1
 5731 0a19 52       		.byte	0x52
 5732 0a1a 01       		.uleb128 0x1
 5733 0a1b 46       		.byte	0x46
 5734 0a1c 16       		.uleb128 0x16
 5735 0a1d 01       		.uleb128 0x1
 5736 0a1e 51       		.byte	0x51
 5737 0a1f 03       		.uleb128 0x3
 5738 0a20 91       		.byte	0x91
 5739 0a21 987F     		.sleb128 -104
 5740 0a23 16       		.uleb128 0x16
 5741 0a24 01       		.uleb128 0x1
 5742 0a25 50       		.byte	0x50
 5743 0a26 01       		.uleb128 0x1
 5744 0a27 31       		.byte	0x31
 5745 0a28 00       		.byte	0
 5746 0a29 15       		.uleb128 0x15
 5747 0a2a 6E010000 		.4byte	.LVL27
 5748 0a2e 46230000 		.4byte	0x2346
ARM GAS  C:\Users\Diego\AppData\Local\Temp\cctVJSXF.s 			page 136


 5749 0a32 470A0000 		.4byte	0xa47
 5750 0a36 16       		.uleb128 0x16
 5751 0a37 01       		.uleb128 0x1
 5752 0a38 52       		.byte	0x52
 5753 0a39 01       		.uleb128 0x1
 5754 0a3a 46       		.byte	0x46
 5755 0a3b 16       		.uleb128 0x16
 5756 0a3c 01       		.uleb128 0x1
 5757 0a3d 51       		.byte	0x51
 5758 0a3e 02       		.uleb128 0x2
 5759 0a3f 74       		.byte	0x74
 5760 0a40 78       		.sleb128 -8
 5761 0a41 16       		.uleb128 0x16
 5762 0a42 01       		.uleb128 0x1
 5763 0a43 50       		.byte	0x50
 5764 0a44 01       		.uleb128 0x1
 5765 0a45 31       		.byte	0x31
 5766 0a46 00       		.byte	0
 5767 0a47 15       		.uleb128 0x15
 5768 0a48 84010000 		.4byte	.LVL28
 5769 0a4c 30230000 		.4byte	0x2330
 5770 0a50 600A0000 		.4byte	0xa60
 5771 0a54 16       		.uleb128 0x16
 5772 0a55 01       		.uleb128 0x1
 5773 0a56 51       		.byte	0x51
 5774 0a57 02       		.uleb128 0x2
 5775 0a58 08       		.byte	0x8
 5776 0a59 2E       		.byte	0x2e
 5777 0a5a 16       		.uleb128 0x16
 5778 0a5b 01       		.uleb128 0x1
 5779 0a5c 50       		.byte	0x50
 5780 0a5d 01       		.uleb128 0x1
 5781 0a5e 31       		.byte	0x31
 5782 0a5f 00       		.byte	0
 5783 0a60 15       		.uleb128 0x15
 5784 0a61 8E010000 		.4byte	.LVL29
 5785 0a65 46230000 		.4byte	0x2346
 5786 0a69 7E0A0000 		.4byte	0xa7e
 5787 0a6d 16       		.uleb128 0x16
 5788 0a6e 01       		.uleb128 0x1
 5789 0a6f 52       		.byte	0x52
 5790 0a70 01       		.uleb128 0x1
 5791 0a71 30       		.byte	0x30
 5792 0a72 16       		.uleb128 0x16
 5793 0a73 01       		.uleb128 0x1
 5794 0a74 51       		.byte	0x51
 5795 0a75 02       		.uleb128 0x2
 5796 0a76 91       		.byte	0x91
 5797 0a77 6C       		.sleb128 -20
 5798 0a78 16       		.uleb128 0x16
 5799 0a79 01       		.uleb128 0x1
 5800 0a7a 50       		.byte	0x50
 5801 0a7b 01       		.uleb128 0x1
 5802 0a7c 31       		.byte	0x31
 5803 0a7d 00       		.byte	0
 5804 0a7e 15       		.uleb128 0x15
 5805 0a7f 96010000 		.4byte	.LVL30
ARM GAS  C:\Users\Diego\AppData\Local\Temp\cctVJSXF.s 			page 137


 5806 0a83 67230000 		.4byte	0x2367
 5807 0a87 930A0000 		.4byte	0xa93
 5808 0a8b 16       		.uleb128 0x16
 5809 0a8c 01       		.uleb128 0x1
 5810 0a8d 50       		.byte	0x50
 5811 0a8e 03       		.uleb128 0x3
 5812 0a8f 0A       		.byte	0xa
 5813 0a90 2C01     		.2byte	0x12c
 5814 0a92 00       		.byte	0
 5815 0a93 15       		.uleb128 0x15
 5816 0a94 BC010000 		.4byte	.LVL31
 5817 0a98 46230000 		.4byte	0x2346
 5818 0a9c B10A0000 		.4byte	0xab1
 5819 0aa0 16       		.uleb128 0x16
 5820 0aa1 01       		.uleb128 0x1
 5821 0aa2 52       		.byte	0x52
 5822 0aa3 01       		.uleb128 0x1
 5823 0aa4 30       		.byte	0x30
 5824 0aa5 16       		.uleb128 0x16
 5825 0aa6 01       		.uleb128 0x1
 5826 0aa7 51       		.byte	0x51
 5827 0aa8 02       		.uleb128 0x2
 5828 0aa9 91       		.byte	0x91
 5829 0aaa 60       		.sleb128 -32
 5830 0aab 16       		.uleb128 0x16
 5831 0aac 01       		.uleb128 0x1
 5832 0aad 50       		.byte	0x50
 5833 0aae 01       		.uleb128 0x1
 5834 0aaf 31       		.byte	0x31
 5835 0ab0 00       		.byte	0
 5836 0ab1 15       		.uleb128 0x15
 5837 0ab2 E4010000 		.4byte	.LVL32
 5838 0ab6 46230000 		.4byte	0x2346
 5839 0aba CF0A0000 		.4byte	0xacf
 5840 0abe 16       		.uleb128 0x16
 5841 0abf 01       		.uleb128 0x1
 5842 0ac0 52       		.byte	0x52
 5843 0ac1 01       		.uleb128 0x1
 5844 0ac2 30       		.byte	0x30
 5845 0ac3 16       		.uleb128 0x16
 5846 0ac4 01       		.uleb128 0x1
 5847 0ac5 51       		.byte	0x51
 5848 0ac6 02       		.uleb128 0x2
 5849 0ac7 91       		.byte	0x91
 5850 0ac8 54       		.sleb128 -44
 5851 0ac9 16       		.uleb128 0x16
 5852 0aca 01       		.uleb128 0x1
 5853 0acb 50       		.byte	0x50
 5854 0acc 01       		.uleb128 0x1
 5855 0acd 31       		.byte	0x31
 5856 0ace 00       		.byte	0
 5857 0acf 15       		.uleb128 0x15
 5858 0ad0 0C020000 		.4byte	.LVL33
 5859 0ad4 46230000 		.4byte	0x2346
 5860 0ad8 ED0A0000 		.4byte	0xaed
 5861 0adc 16       		.uleb128 0x16
 5862 0add 01       		.uleb128 0x1
ARM GAS  C:\Users\Diego\AppData\Local\Temp\cctVJSXF.s 			page 138


 5863 0ade 52       		.byte	0x52
 5864 0adf 01       		.uleb128 0x1
 5865 0ae0 30       		.byte	0x30
 5866 0ae1 16       		.uleb128 0x16
 5867 0ae2 01       		.uleb128 0x1
 5868 0ae3 51       		.byte	0x51
 5869 0ae4 02       		.uleb128 0x2
 5870 0ae5 91       		.byte	0x91
 5871 0ae6 48       		.sleb128 -56
 5872 0ae7 16       		.uleb128 0x16
 5873 0ae8 01       		.uleb128 0x1
 5874 0ae9 50       		.byte	0x50
 5875 0aea 01       		.uleb128 0x1
 5876 0aeb 31       		.byte	0x31
 5877 0aec 00       		.byte	0
 5878 0aed 15       		.uleb128 0x15
 5879 0aee 34020000 		.4byte	.LVL34
 5880 0af2 46230000 		.4byte	0x2346
 5881 0af6 0C0B0000 		.4byte	0xb0c
 5882 0afa 16       		.uleb128 0x16
 5883 0afb 01       		.uleb128 0x1
 5884 0afc 52       		.byte	0x52
 5885 0afd 01       		.uleb128 0x1
 5886 0afe 30       		.byte	0x30
 5887 0aff 16       		.uleb128 0x16
 5888 0b00 01       		.uleb128 0x1
 5889 0b01 51       		.byte	0x51
 5890 0b02 03       		.uleb128 0x3
 5891 0b03 91       		.byte	0x91
 5892 0b04 BC7F     		.sleb128 -68
 5893 0b06 16       		.uleb128 0x16
 5894 0b07 01       		.uleb128 0x1
 5895 0b08 50       		.byte	0x50
 5896 0b09 01       		.uleb128 0x1
 5897 0b0a 31       		.byte	0x31
 5898 0b0b 00       		.byte	0
 5899 0b0c 15       		.uleb128 0x15
 5900 0b0d 46020000 		.4byte	.LVL35
 5901 0b11 46230000 		.4byte	0x2346
 5902 0b15 2B0B0000 		.4byte	0xb2b
 5903 0b19 16       		.uleb128 0x16
 5904 0b1a 01       		.uleb128 0x1
 5905 0b1b 52       		.byte	0x52
 5906 0b1c 01       		.uleb128 0x1
 5907 0b1d 46       		.byte	0x46
 5908 0b1e 16       		.uleb128 0x16
 5909 0b1f 01       		.uleb128 0x1
 5910 0b20 51       		.byte	0x51
 5911 0b21 03       		.uleb128 0x3
 5912 0b22 91       		.byte	0x91
 5913 0b23 A47F     		.sleb128 -92
 5914 0b25 16       		.uleb128 0x16
 5915 0b26 01       		.uleb128 0x1
 5916 0b27 50       		.byte	0x50
 5917 0b28 01       		.uleb128 0x1
 5918 0b29 31       		.byte	0x31
 5919 0b2a 00       		.byte	0
ARM GAS  C:\Users\Diego\AppData\Local\Temp\cctVJSXF.s 			page 139


 5920 0b2b 15       		.uleb128 0x15
 5921 0b2c 58020000 		.4byte	.LVL36
 5922 0b30 46230000 		.4byte	0x2346
 5923 0b34 4A0B0000 		.4byte	0xb4a
 5924 0b38 16       		.uleb128 0x16
 5925 0b39 01       		.uleb128 0x1
 5926 0b3a 52       		.byte	0x52
 5927 0b3b 01       		.uleb128 0x1
 5928 0b3c 46       		.byte	0x46
 5929 0b3d 16       		.uleb128 0x16
 5930 0b3e 01       		.uleb128 0x1
 5931 0b3f 51       		.byte	0x51
 5932 0b40 03       		.uleb128 0x3
 5933 0b41 91       		.byte	0x91
 5934 0b42 987F     		.sleb128 -104
 5935 0b44 16       		.uleb128 0x16
 5936 0b45 01       		.uleb128 0x1
 5937 0b46 50       		.byte	0x50
 5938 0b47 01       		.uleb128 0x1
 5939 0b48 31       		.byte	0x31
 5940 0b49 00       		.byte	0
 5941 0b4a 17       		.uleb128 0x17
 5942 0b4b 68020000 		.4byte	.LVL37
 5943 0b4f 30230000 		.4byte	0x2330
 5944 0b53 16       		.uleb128 0x16
 5945 0b54 01       		.uleb128 0x1
 5946 0b55 51       		.byte	0x51
 5947 0b56 01       		.uleb128 0x1
 5948 0b57 30       		.byte	0x30
 5949 0b58 16       		.uleb128 0x16
 5950 0b59 01       		.uleb128 0x1
 5951 0b5a 50       		.byte	0x50
 5952 0b5b 01       		.uleb128 0x1
 5953 0b5c 31       		.byte	0x31
 5954 0b5d 00       		.byte	0
 5955 0b5e 00       		.byte	0
 5956 0b5f 09       		.uleb128 0x9
 5957 0b60 8C000000 		.4byte	0x8c
 5958 0b64 6F0B0000 		.4byte	0xb6f
 5959 0b68 0A       		.uleb128 0xa
 5960 0b69 27010000 		.4byte	0x127
 5961 0b6d 09       		.byte	0x9
 5962 0b6e 00       		.byte	0
 5963 0b6f 14       		.uleb128 0x14
 5964 0b70 7B080000 		.4byte	.LASF159
 5965 0b74 01       		.byte	0x1
 5966 0b75 A7       		.byte	0xa7
 5967 0b76 00000000 		.4byte	.LFB67
 5968 0b7a 50000000 		.4byte	.LFE67-.LFB67
 5969 0b7e 01       		.uleb128 0x1
 5970 0b7f 9C       		.byte	0x9c
 5971 0b80 EB0B0000 		.4byte	0xbeb
 5972 0b84 15       		.uleb128 0x15
 5973 0b85 12000000 		.4byte	.LVL38
 5974 0b89 30230000 		.4byte	0x2330
 5975 0b8d 9C0B0000 		.4byte	0xb9c
 5976 0b91 16       		.uleb128 0x16
ARM GAS  C:\Users\Diego\AppData\Local\Temp\cctVJSXF.s 			page 140


 5977 0b92 01       		.uleb128 0x1
 5978 0b93 51       		.byte	0x51
 5979 0b94 01       		.uleb128 0x1
 5980 0b95 31       		.byte	0x31
 5981 0b96 16       		.uleb128 0x16
 5982 0b97 01       		.uleb128 0x1
 5983 0b98 50       		.byte	0x50
 5984 0b99 01       		.uleb128 0x1
 5985 0b9a 32       		.byte	0x32
 5986 0b9b 00       		.byte	0
 5987 0b9c 15       		.uleb128 0x15
 5988 0b9d 28000000 		.4byte	.LVL39
 5989 0ba1 30230000 		.4byte	0x2330
 5990 0ba5 B50B0000 		.4byte	0xbb5
 5991 0ba9 16       		.uleb128 0x16
 5992 0baa 01       		.uleb128 0x1
 5993 0bab 51       		.byte	0x51
 5994 0bac 02       		.uleb128 0x2
 5995 0bad 08       		.byte	0x8
 5996 0bae 2E       		.byte	0x2e
 5997 0baf 16       		.uleb128 0x16
 5998 0bb0 01       		.uleb128 0x1
 5999 0bb1 50       		.byte	0x50
 6000 0bb2 01       		.uleb128 0x1
 6001 0bb3 32       		.byte	0x32
 6002 0bb4 00       		.byte	0
 6003 0bb5 15       		.uleb128 0x15
 6004 0bb6 38000000 		.4byte	.LVL40
 6005 0bba 30230000 		.4byte	0x2330
 6006 0bbe CD0B0000 		.4byte	0xbcd
 6007 0bc2 16       		.uleb128 0x16
 6008 0bc3 01       		.uleb128 0x1
 6009 0bc4 51       		.byte	0x51
 6010 0bc5 01       		.uleb128 0x1
 6011 0bc6 30       		.byte	0x30
 6012 0bc7 16       		.uleb128 0x16
 6013 0bc8 01       		.uleb128 0x1
 6014 0bc9 50       		.byte	0x50
 6015 0bca 01       		.uleb128 0x1
 6016 0bcb 32       		.byte	0x32
 6017 0bcc 00       		.byte	0
 6018 0bcd 17       		.uleb128 0x17
 6019 0bce 42000000 		.4byte	.LVL41
 6020 0bd2 46230000 		.4byte	0x2346
 6021 0bd6 16       		.uleb128 0x16
 6022 0bd7 01       		.uleb128 0x1
 6023 0bd8 52       		.byte	0x52
 6024 0bd9 01       		.uleb128 0x1
 6025 0bda 30       		.byte	0x30
 6026 0bdb 16       		.uleb128 0x16
 6027 0bdc 01       		.uleb128 0x1
 6028 0bdd 51       		.byte	0x51
 6029 0bde 05       		.uleb128 0x5
 6030 0bdf 03       		.byte	0x3
 6031 0be0 00000000 		.4byte	.LANCHOR1
 6032 0be4 16       		.uleb128 0x16
 6033 0be5 01       		.uleb128 0x1
ARM GAS  C:\Users\Diego\AppData\Local\Temp\cctVJSXF.s 			page 141


 6034 0be6 50       		.byte	0x50
 6035 0be7 01       		.uleb128 0x1
 6036 0be8 32       		.byte	0x32
 6037 0be9 00       		.byte	0
 6038 0bea 00       		.byte	0
 6039 0beb 14       		.uleb128 0x14
 6040 0bec 2F040000 		.4byte	.LASF160
 6041 0bf0 01       		.byte	0x1
 6042 0bf1 BE       		.byte	0xbe
 6043 0bf2 00000000 		.4byte	.LFB68
 6044 0bf6 C4000000 		.4byte	.LFE68-.LFB68
 6045 0bfa 01       		.uleb128 0x1
 6046 0bfb 9C       		.byte	0x9c
 6047 0bfc 180D0000 		.4byte	0xd18
 6048 0c00 13       		.uleb128 0x13
 6049 0c01 06000000 		.4byte	.LVL42
 6050 0c05 78230000 		.4byte	0x2378
 6051 0c09 13       		.uleb128 0x13
 6052 0c0a 16000000 		.4byte	.LVL43
 6053 0c0e 83230000 		.4byte	0x2383
 6054 0c12 13       		.uleb128 0x13
 6055 0c13 1A000000 		.4byte	.LVL44
 6056 0c17 98230000 		.4byte	0x2398
 6057 0c1b 15       		.uleb128 0x15
 6058 0c1c 24000000 		.4byte	.LVL45
 6059 0c20 30230000 		.4byte	0x2330
 6060 0c24 330C0000 		.4byte	0xc33
 6061 0c28 16       		.uleb128 0x16
 6062 0c29 01       		.uleb128 0x1
 6063 0c2a 51       		.byte	0x51
 6064 0c2b 01       		.uleb128 0x1
 6065 0c2c 30       		.byte	0x30
 6066 0c2d 16       		.uleb128 0x16
 6067 0c2e 01       		.uleb128 0x1
 6068 0c2f 50       		.byte	0x50
 6069 0c30 01       		.uleb128 0x1
 6070 0c31 31       		.byte	0x31
 6071 0c32 00       		.byte	0
 6072 0c33 15       		.uleb128 0x15
 6073 0c34 2C000000 		.4byte	.LVL46
 6074 0c38 30230000 		.4byte	0x2330
 6075 0c3c 4B0C0000 		.4byte	0xc4b
 6076 0c40 16       		.uleb128 0x16
 6077 0c41 01       		.uleb128 0x1
 6078 0c42 51       		.byte	0x51
 6079 0c43 01       		.uleb128 0x1
 6080 0c44 30       		.byte	0x30
 6081 0c45 16       		.uleb128 0x16
 6082 0c46 01       		.uleb128 0x1
 6083 0c47 50       		.byte	0x50
 6084 0c48 01       		.uleb128 0x1
 6085 0c49 32       		.byte	0x32
 6086 0c4a 00       		.byte	0
 6087 0c4b 13       		.uleb128 0x13
 6088 0c4c 3C000000 		.4byte	.LVL47
 6089 0c50 83230000 		.4byte	0x2383
 6090 0c54 13       		.uleb128 0x13
ARM GAS  C:\Users\Diego\AppData\Local\Temp\cctVJSXF.s 			page 142


 6091 0c55 40000000 		.4byte	.LVL48
 6092 0c59 98230000 		.4byte	0x2398
 6093 0c5d 15       		.uleb128 0x15
 6094 0c5e 4A000000 		.4byte	.LVL49
 6095 0c62 30230000 		.4byte	0x2330
 6096 0c66 750C0000 		.4byte	0xc75
 6097 0c6a 16       		.uleb128 0x16
 6098 0c6b 01       		.uleb128 0x1
 6099 0c6c 51       		.byte	0x51
 6100 0c6d 01       		.uleb128 0x1
 6101 0c6e 30       		.byte	0x30
 6102 0c6f 16       		.uleb128 0x16
 6103 0c70 01       		.uleb128 0x1
 6104 0c71 50       		.byte	0x50
 6105 0c72 01       		.uleb128 0x1
 6106 0c73 31       		.byte	0x31
 6107 0c74 00       		.byte	0
 6108 0c75 15       		.uleb128 0x15
 6109 0c76 52000000 		.4byte	.LVL50
 6110 0c7a 30230000 		.4byte	0x2330
 6111 0c7e 8D0C0000 		.4byte	0xc8d
 6112 0c82 16       		.uleb128 0x16
 6113 0c83 01       		.uleb128 0x1
 6114 0c84 51       		.byte	0x51
 6115 0c85 01       		.uleb128 0x1
 6116 0c86 30       		.byte	0x30
 6117 0c87 16       		.uleb128 0x16
 6118 0c88 01       		.uleb128 0x1
 6119 0c89 50       		.byte	0x50
 6120 0c8a 01       		.uleb128 0x1
 6121 0c8b 32       		.byte	0x32
 6122 0c8c 00       		.byte	0
 6123 0c8d 13       		.uleb128 0x13
 6124 0c8e 60000000 		.4byte	.LVL51
 6125 0c92 83230000 		.4byte	0x2383
 6126 0c96 13       		.uleb128 0x13
 6127 0c97 64000000 		.4byte	.LVL52
 6128 0c9b 98230000 		.4byte	0x2398
 6129 0c9f 13       		.uleb128 0x13
 6130 0ca0 70000000 		.4byte	.LVL53
 6131 0ca4 83230000 		.4byte	0x2383
 6132 0ca8 13       		.uleb128 0x13
 6133 0ca9 74000000 		.4byte	.LVL54
 6134 0cad 98230000 		.4byte	0x2398
 6135 0cb1 13       		.uleb128 0x13
 6136 0cb2 7A000000 		.4byte	.LVL55
 6137 0cb6 78230000 		.4byte	0x2378
 6138 0cba 13       		.uleb128 0x13
 6139 0cbb 86000000 		.4byte	.LVL56
 6140 0cbf 83230000 		.4byte	0x2383
 6141 0cc3 13       		.uleb128 0x13
 6142 0cc4 94000000 		.4byte	.LVL57
 6143 0cc8 83230000 		.4byte	0x2383
 6144 0ccc 13       		.uleb128 0x13
 6145 0ccd A0000000 		.4byte	.LVL58
 6146 0cd1 B4230000 		.4byte	0x23b4
 6147 0cd5 13       		.uleb128 0x13
ARM GAS  C:\Users\Diego\AppData\Local\Temp\cctVJSXF.s 			page 143


 6148 0cd6 A4000000 		.4byte	.LVL59
 6149 0cda A1070000 		.4byte	0x7a1
 6150 0cde 15       		.uleb128 0x15
 6151 0cdf AE000000 		.4byte	.LVL60
 6152 0ce3 30230000 		.4byte	0x2330
 6153 0ce7 F60C0000 		.4byte	0xcf6
 6154 0ceb 16       		.uleb128 0x16
 6155 0cec 01       		.uleb128 0x1
 6156 0ced 51       		.byte	0x51
 6157 0cee 01       		.uleb128 0x1
 6158 0cef 39       		.byte	0x39
 6159 0cf0 16       		.uleb128 0x16
 6160 0cf1 01       		.uleb128 0x1
 6161 0cf2 50       		.byte	0x50
 6162 0cf3 01       		.uleb128 0x1
 6163 0cf4 31       		.byte	0x31
 6164 0cf5 00       		.byte	0
 6165 0cf6 15       		.uleb128 0x15
 6166 0cf7 B6000000 		.4byte	.LVL61
 6167 0cfb 30230000 		.4byte	0x2330
 6168 0cff 0E0D0000 		.4byte	0xd0e
 6169 0d03 16       		.uleb128 0x16
 6170 0d04 01       		.uleb128 0x1
 6171 0d05 51       		.byte	0x51
 6172 0d06 01       		.uleb128 0x1
 6173 0d07 39       		.byte	0x39
 6174 0d08 16       		.uleb128 0x16
 6175 0d09 01       		.uleb128 0x1
 6176 0d0a 50       		.byte	0x50
 6177 0d0b 01       		.uleb128 0x1
 6178 0d0c 32       		.byte	0x32
 6179 0d0d 00       		.byte	0
 6180 0d0e 13       		.uleb128 0x13
 6181 0d0f BA000000 		.4byte	.LVL62
 6182 0d13 EB0B0000 		.4byte	0xbeb
 6183 0d17 00       		.byte	0
 6184 0d18 14       		.uleb128 0x14
 6185 0d19 3D040000 		.4byte	.LASF161
 6186 0d1d 01       		.byte	0x1
 6187 0d1e E2       		.byte	0xe2
 6188 0d1f 00000000 		.4byte	.LFB69
 6189 0d23 7C000000 		.4byte	.LFE69-.LFB69
 6190 0d27 01       		.uleb128 0x1
 6191 0d28 9C       		.byte	0x9c
 6192 0d29 170E0000 		.4byte	0xe17
 6193 0d2d 18       		.uleb128 0x18
 6194 0d2e 7C060000 		.4byte	.LASF162
 6195 0d32 01       		.byte	0x1
 6196 0d33 E3       		.byte	0xe3
 6197 0d34 170E0000 		.4byte	0xe17
 6198 0d38 02       		.uleb128 0x2
 6199 0d39 91       		.byte	0x91
 6200 0d3a 5C       		.sleb128 -36
 6201 0d3b 19       		.uleb128 0x19
 6202 0d3c 7800     		.ascii	"x\000"
 6203 0d3e 01       		.byte	0x1
 6204 0d3f E4       		.byte	0xe4
ARM GAS  C:\Users\Diego\AppData\Local\Temp\cctVJSXF.s 			page 144


 6205 0d40 AD000000 		.4byte	0xad
 6206 0d44 00000000 		.4byte	.LLST0
 6207 0d48 15       		.uleb128 0x15
 6208 0d49 22000000 		.4byte	.LVL65
 6209 0d4d C9230000 		.4byte	0x23c9
 6210 0d51 690D0000 		.4byte	0xd69
 6211 0d55 16       		.uleb128 0x16
 6212 0d56 01       		.uleb128 0x1
 6213 0d57 51       		.byte	0x51
 6214 0d58 0A       		.uleb128 0xa
 6215 0d59 91       		.byte	0x91
 6216 0d5a 00       		.sleb128 0
 6217 0d5b 74       		.byte	0x74
 6218 0d5c 00       		.sleb128 0
 6219 0d5d 22       		.byte	0x22
 6220 0d5e 08       		.byte	0x8
 6221 0d5f 24       		.byte	0x24
 6222 0d60 1C       		.byte	0x1c
 6223 0d61 94       		.byte	0x94
 6224 0d62 01       		.byte	0x1
 6225 0d63 16       		.uleb128 0x16
 6226 0d64 01       		.uleb128 0x1
 6227 0d65 50       		.byte	0x50
 6228 0d66 01       		.uleb128 0x1
 6229 0d67 31       		.byte	0x31
 6230 0d68 00       		.byte	0
 6231 0d69 15       		.uleb128 0x15
 6232 0d6a 32000000 		.4byte	.LVL68
 6233 0d6e C9230000 		.4byte	0x23c9
 6234 0d72 810D0000 		.4byte	0xd81
 6235 0d76 16       		.uleb128 0x16
 6236 0d77 01       		.uleb128 0x1
 6237 0d78 51       		.byte	0x51
 6238 0d79 01       		.uleb128 0x1
 6239 0d7a 3A       		.byte	0x3a
 6240 0d7b 16       		.uleb128 0x16
 6241 0d7c 01       		.uleb128 0x1
 6242 0d7d 50       		.byte	0x50
 6243 0d7e 01       		.uleb128 0x1
 6244 0d7f 31       		.byte	0x31
 6245 0d80 00       		.byte	0
 6246 0d81 15       		.uleb128 0x15
 6247 0d82 3A000000 		.4byte	.LVL69
 6248 0d86 C9230000 		.4byte	0x23c9
 6249 0d8a 990D0000 		.4byte	0xd99
 6250 0d8e 16       		.uleb128 0x16
 6251 0d8f 01       		.uleb128 0x1
 6252 0d90 51       		.byte	0x51
 6253 0d91 01       		.uleb128 0x1
 6254 0d92 3A       		.byte	0x3a
 6255 0d93 16       		.uleb128 0x16
 6256 0d94 01       		.uleb128 0x1
 6257 0d95 50       		.byte	0x50
 6258 0d96 01       		.uleb128 0x1
 6259 0d97 31       		.byte	0x31
 6260 0d98 00       		.byte	0
 6261 0d99 15       		.uleb128 0x15
ARM GAS  C:\Users\Diego\AppData\Local\Temp\cctVJSXF.s 			page 145


 6262 0d9a 42000000 		.4byte	.LVL70
 6263 0d9e C9230000 		.4byte	0x23c9
 6264 0da2 B10D0000 		.4byte	0xdb1
 6265 0da6 16       		.uleb128 0x16
 6266 0da7 01       		.uleb128 0x1
 6267 0da8 51       		.byte	0x51
 6268 0da9 01       		.uleb128 0x1
 6269 0daa 3A       		.byte	0x3a
 6270 0dab 16       		.uleb128 0x16
 6271 0dac 01       		.uleb128 0x1
 6272 0dad 50       		.byte	0x50
 6273 0dae 01       		.uleb128 0x1
 6274 0daf 31       		.byte	0x31
 6275 0db0 00       		.byte	0
 6276 0db1 15       		.uleb128 0x15
 6277 0db2 54000000 		.4byte	.LVL72
 6278 0db6 C9230000 		.4byte	0x23c9
 6279 0dba D20D0000 		.4byte	0xdd2
 6280 0dbe 16       		.uleb128 0x16
 6281 0dbf 01       		.uleb128 0x1
 6282 0dc0 51       		.byte	0x51
 6283 0dc1 0A       		.uleb128 0xa
 6284 0dc2 91       		.byte	0x91
 6285 0dc3 00       		.sleb128 0
 6286 0dc4 74       		.byte	0x74
 6287 0dc5 00       		.sleb128 0
 6288 0dc6 22       		.byte	0x22
 6289 0dc7 08       		.byte	0x8
 6290 0dc8 24       		.byte	0x24
 6291 0dc9 1C       		.byte	0x1c
 6292 0dca 94       		.byte	0x94
 6293 0dcb 01       		.byte	0x1
 6294 0dcc 16       		.uleb128 0x16
 6295 0dcd 01       		.uleb128 0x1
 6296 0dce 50       		.byte	0x50
 6297 0dcf 01       		.uleb128 0x1
 6298 0dd0 32       		.byte	0x32
 6299 0dd1 00       		.byte	0
 6300 0dd2 15       		.uleb128 0x15
 6301 0dd3 64000000 		.4byte	.LVL75
 6302 0dd7 C9230000 		.4byte	0x23c9
 6303 0ddb EA0D0000 		.4byte	0xdea
 6304 0ddf 16       		.uleb128 0x16
 6305 0de0 01       		.uleb128 0x1
 6306 0de1 51       		.byte	0x51
 6307 0de2 01       		.uleb128 0x1
 6308 0de3 3A       		.byte	0x3a
 6309 0de4 16       		.uleb128 0x16
 6310 0de5 01       		.uleb128 0x1
 6311 0de6 50       		.byte	0x50
 6312 0de7 01       		.uleb128 0x1
 6313 0de8 32       		.byte	0x32
 6314 0de9 00       		.byte	0
 6315 0dea 15       		.uleb128 0x15
 6316 0deb 6C000000 		.4byte	.LVL76
 6317 0def C9230000 		.4byte	0x23c9
 6318 0df3 020E0000 		.4byte	0xe02
ARM GAS  C:\Users\Diego\AppData\Local\Temp\cctVJSXF.s 			page 146


 6319 0df7 16       		.uleb128 0x16
 6320 0df8 01       		.uleb128 0x1
 6321 0df9 51       		.byte	0x51
 6322 0dfa 01       		.uleb128 0x1
 6323 0dfb 3A       		.byte	0x3a
 6324 0dfc 16       		.uleb128 0x16
 6325 0dfd 01       		.uleb128 0x1
 6326 0dfe 50       		.byte	0x50
 6327 0dff 01       		.uleb128 0x1
 6328 0e00 32       		.byte	0x32
 6329 0e01 00       		.byte	0
 6330 0e02 17       		.uleb128 0x17
 6331 0e03 74000000 		.4byte	.LVL77
 6332 0e07 C9230000 		.4byte	0x23c9
 6333 0e0b 16       		.uleb128 0x16
 6334 0e0c 01       		.uleb128 0x1
 6335 0e0d 51       		.byte	0x51
 6336 0e0e 01       		.uleb128 0x1
 6337 0e0f 3A       		.byte	0x3a
 6338 0e10 16       		.uleb128 0x16
 6339 0e11 01       		.uleb128 0x1
 6340 0e12 50       		.byte	0x50
 6341 0e13 01       		.uleb128 0x1
 6342 0e14 32       		.byte	0x32
 6343 0e15 00       		.byte	0
 6344 0e16 00       		.byte	0
 6345 0e17 09       		.uleb128 0x9
 6346 0e18 AD000000 		.4byte	0xad
 6347 0e1c 270E0000 		.4byte	0xe27
 6348 0e20 0A       		.uleb128 0xa
 6349 0e21 27010000 		.4byte	0x127
 6350 0e25 10       		.byte	0x10
 6351 0e26 00       		.byte	0
 6352 0e27 1A       		.uleb128 0x1a
 6353 0e28 41090000 		.4byte	.LASF164
 6354 0e2c 01       		.byte	0x1
 6355 0e2d FD       		.byte	0xfd
 6356 0e2e 00000000 		.4byte	.LFB70
 6357 0e32 04010000 		.4byte	.LFE70-.LFB70
 6358 0e36 01       		.uleb128 0x1
 6359 0e37 9C       		.byte	0x9c
 6360 0e38 2D0F0000 		.4byte	0xf2d
 6361 0e3c 19       		.uleb128 0x19
 6362 0e3d 7800     		.ascii	"x\000"
 6363 0e3f 01       		.byte	0x1
 6364 0e40 FE       		.byte	0xfe
 6365 0e41 AD000000 		.4byte	0xad
 6366 0e45 4C000000 		.4byte	.LLST1
 6367 0e49 13       		.uleb128 0x13
 6368 0e4a 0A000000 		.4byte	.LVL79
 6369 0e4e 83230000 		.4byte	0x2383
 6370 0e52 13       		.uleb128 0x13
 6371 0e53 0E000000 		.4byte	.LVL80
 6372 0e57 98230000 		.4byte	0x2398
 6373 0e5b 13       		.uleb128 0x13
 6374 0e5c 1A000000 		.4byte	.LVL81
 6375 0e60 83230000 		.4byte	0x2383
ARM GAS  C:\Users\Diego\AppData\Local\Temp\cctVJSXF.s 			page 147


 6376 0e64 13       		.uleb128 0x13
 6377 0e65 1E000000 		.4byte	.LVL82
 6378 0e69 98230000 		.4byte	0x2398
 6379 0e6d 13       		.uleb128 0x13
 6380 0e6e 46000000 		.4byte	.LVL89
 6381 0e72 83230000 		.4byte	0x2383
 6382 0e76 13       		.uleb128 0x13
 6383 0e77 52000000 		.4byte	.LVL90
 6384 0e7b 83230000 		.4byte	0x2383
 6385 0e7f 13       		.uleb128 0x13
 6386 0e80 64000000 		.4byte	.LVL91
 6387 0e84 83230000 		.4byte	0x2383
 6388 0e88 13       		.uleb128 0x13
 6389 0e89 70000000 		.4byte	.LVL92
 6390 0e8d 83230000 		.4byte	0x2383
 6391 0e91 13       		.uleb128 0x13
 6392 0e92 7A000000 		.4byte	.LVL93
 6393 0e96 83230000 		.4byte	0x2383
 6394 0e9a 13       		.uleb128 0x13
 6395 0e9b 84000000 		.4byte	.LVL94
 6396 0e9f 83230000 		.4byte	0x2383
 6397 0ea3 13       		.uleb128 0x13
 6398 0ea4 90000000 		.4byte	.LVL95
 6399 0ea8 EB0B0000 		.4byte	0xbeb
 6400 0eac 13       		.uleb128 0x13
 6401 0ead 98000000 		.4byte	.LVL96
 6402 0eb1 83230000 		.4byte	0x2383
 6403 0eb5 13       		.uleb128 0x13
 6404 0eb6 9C000000 		.4byte	.LVL97
 6405 0eba 98230000 		.4byte	0x2398
 6406 0ebe 15       		.uleb128 0x15
 6407 0ebf A6000000 		.4byte	.LVL98
 6408 0ec3 30230000 		.4byte	0x2330
 6409 0ec7 D60E0000 		.4byte	0xed6
 6410 0ecb 16       		.uleb128 0x16
 6411 0ecc 01       		.uleb128 0x1
 6412 0ecd 51       		.byte	0x51
 6413 0ece 01       		.uleb128 0x1
 6414 0ecf 30       		.byte	0x30
 6415 0ed0 16       		.uleb128 0x16
 6416 0ed1 01       		.uleb128 0x1
 6417 0ed2 50       		.byte	0x50
 6418 0ed3 01       		.uleb128 0x1
 6419 0ed4 31       		.byte	0x31
 6420 0ed5 00       		.byte	0
 6421 0ed6 15       		.uleb128 0x15
 6422 0ed7 AE000000 		.4byte	.LVL99
 6423 0edb 30230000 		.4byte	0x2330
 6424 0edf EE0E0000 		.4byte	0xeee
 6425 0ee3 16       		.uleb128 0x16
 6426 0ee4 01       		.uleb128 0x1
 6427 0ee5 51       		.byte	0x51
 6428 0ee6 01       		.uleb128 0x1
 6429 0ee7 30       		.byte	0x30
 6430 0ee8 16       		.uleb128 0x16
 6431 0ee9 01       		.uleb128 0x1
 6432 0eea 50       		.byte	0x50
ARM GAS  C:\Users\Diego\AppData\Local\Temp\cctVJSXF.s 			page 148


 6433 0eeb 01       		.uleb128 0x1
 6434 0eec 32       		.byte	0x32
 6435 0eed 00       		.byte	0
 6436 0eee 13       		.uleb128 0x13
 6437 0eef C6000000 		.4byte	.LVL100
 6438 0ef3 83230000 		.4byte	0x2383
 6439 0ef7 13       		.uleb128 0x13
 6440 0ef8 CA000000 		.4byte	.LVL101
 6441 0efc 98230000 		.4byte	0x2398
 6442 0f00 15       		.uleb128 0x15
 6443 0f01 D4000000 		.4byte	.LVL102
 6444 0f05 30230000 		.4byte	0x2330
 6445 0f09 180F0000 		.4byte	0xf18
 6446 0f0d 16       		.uleb128 0x16
 6447 0f0e 01       		.uleb128 0x1
 6448 0f0f 51       		.byte	0x51
 6449 0f10 01       		.uleb128 0x1
 6450 0f11 30       		.byte	0x30
 6451 0f12 16       		.uleb128 0x16
 6452 0f13 01       		.uleb128 0x1
 6453 0f14 50       		.byte	0x50
 6454 0f15 01       		.uleb128 0x1
 6455 0f16 31       		.byte	0x31
 6456 0f17 00       		.byte	0
 6457 0f18 17       		.uleb128 0x17
 6458 0f19 DC000000 		.4byte	.LVL103
 6459 0f1d 30230000 		.4byte	0x2330
 6460 0f21 16       		.uleb128 0x16
 6461 0f22 01       		.uleb128 0x1
 6462 0f23 51       		.byte	0x51
 6463 0f24 01       		.uleb128 0x1
 6464 0f25 30       		.byte	0x30
 6465 0f26 16       		.uleb128 0x16
 6466 0f27 01       		.uleb128 0x1
 6467 0f28 50       		.byte	0x50
 6468 0f29 01       		.uleb128 0x1
 6469 0f2a 32       		.byte	0x32
 6470 0f2b 00       		.byte	0
 6471 0f2c 00       		.byte	0
 6472 0f2d 12       		.uleb128 0x12
 6473 0f2e B7020000 		.4byte	.LASF165
 6474 0f32 01       		.byte	0x1
 6475 0f33 2A01     		.2byte	0x12a
 6476 0f35 00000000 		.4byte	.LFB71
 6477 0f39 840E0000 		.4byte	.LFE71-.LFB71
 6478 0f3d 01       		.uleb128 0x1
 6479 0f3e 9C       		.byte	0x9c
 6480 0f3f 751A0000 		.4byte	0x1a75
 6481 0f43 1B       		.uleb128 0x1b
 6482 0f44 7800     		.ascii	"x\000"
 6483 0f46 01       		.byte	0x1
 6484 0f47 2B01     		.2byte	0x12b
 6485 0f49 AD000000 		.4byte	0xad
 6486 0f4d 75000000 		.4byte	.LLST2
 6487 0f51 1B       		.uleb128 0x1b
 6488 0f52 7900     		.ascii	"y\000"
 6489 0f54 01       		.byte	0x1
ARM GAS  C:\Users\Diego\AppData\Local\Temp\cctVJSXF.s 			page 149


 6490 0f55 2B01     		.2byte	0x12b
 6491 0f57 AD000000 		.4byte	0xad
 6492 0f5b E8020000 		.4byte	.LLST3
 6493 0f5f 1C       		.uleb128 0x1c
 6494 0f60 71030000 		.4byte	.LASF166
 6495 0f64 01       		.byte	0x1
 6496 0f65 2B01     		.2byte	0x12b
 6497 0f67 AD000000 		.4byte	0xad
 6498 0f6b 40030000 		.4byte	.LLST4
 6499 0f6f 13       		.uleb128 0x13
 6500 0f70 36000000 		.4byte	.LVL104
 6501 0f74 70080000 		.4byte	0x870
 6502 0f78 13       		.uleb128 0x13
 6503 0f79 40000000 		.4byte	.LVL105
 6504 0f7d E3230000 		.4byte	0x23e3
 6505 0f81 13       		.uleb128 0x13
 6506 0f82 44000000 		.4byte	.LVL106
 6507 0f86 EA230000 		.4byte	0x23ea
 6508 0f8a 13       		.uleb128 0x13
 6509 0f8b 5C000000 		.4byte	.LVL107
 6510 0f8f F1230000 		.4byte	0x23f1
 6511 0f93 15       		.uleb128 0x15
 6512 0f94 8E000000 		.4byte	.LVL108
 6513 0f98 30230000 		.4byte	0x2330
 6514 0f9c AB0F0000 		.4byte	0xfab
 6515 0fa0 16       		.uleb128 0x16
 6516 0fa1 01       		.uleb128 0x1
 6517 0fa2 51       		.byte	0x51
 6518 0fa3 01       		.uleb128 0x1
 6519 0fa4 34       		.byte	0x34
 6520 0fa5 16       		.uleb128 0x16
 6521 0fa6 01       		.uleb128 0x1
 6522 0fa7 50       		.byte	0x50
 6523 0fa8 01       		.uleb128 0x1
 6524 0fa9 31       		.byte	0x31
 6525 0faa 00       		.byte	0
 6526 0fab 15       		.uleb128 0x15
 6527 0fac 94000000 		.4byte	.LVL109
 6528 0fb0 67230000 		.4byte	0x2367
 6529 0fb4 BE0F0000 		.4byte	0xfbe
 6530 0fb8 16       		.uleb128 0x16
 6531 0fb9 01       		.uleb128 0x1
 6532 0fba 50       		.byte	0x50
 6533 0fbb 01       		.uleb128 0x1
 6534 0fbc 3A       		.byte	0x3a
 6535 0fbd 00       		.byte	0
 6536 0fbe 13       		.uleb128 0x13
 6537 0fbf 98000000 		.4byte	.LVL110
 6538 0fc3 FC230000 		.4byte	0x23fc
 6539 0fc7 13       		.uleb128 0x13
 6540 0fc8 A0000000 		.4byte	.LVL111
 6541 0fcc F1230000 		.4byte	0x23f1
 6542 0fd0 15       		.uleb128 0x15
 6543 0fd1 F8000000 		.4byte	.LVL112
 6544 0fd5 30230000 		.4byte	0x2330
 6545 0fd9 E80F0000 		.4byte	0xfe8
 6546 0fdd 16       		.uleb128 0x16
ARM GAS  C:\Users\Diego\AppData\Local\Temp\cctVJSXF.s 			page 150


 6547 0fde 01       		.uleb128 0x1
 6548 0fdf 51       		.byte	0x51
 6549 0fe0 01       		.uleb128 0x1
 6550 0fe1 35       		.byte	0x35
 6551 0fe2 16       		.uleb128 0x16
 6552 0fe3 01       		.uleb128 0x1
 6553 0fe4 50       		.byte	0x50
 6554 0fe5 01       		.uleb128 0x1
 6555 0fe6 31       		.byte	0x31
 6556 0fe7 00       		.byte	0
 6557 0fe8 15       		.uleb128 0x15
 6558 0fe9 16010000 		.4byte	.LVL113
 6559 0fed 30230000 		.4byte	0x2330
 6560 0ff1 01100000 		.4byte	0x1001
 6561 0ff5 16       		.uleb128 0x16
 6562 0ff6 01       		.uleb128 0x1
 6563 0ff7 51       		.byte	0x51
 6564 0ff8 02       		.uleb128 0x2
 6565 0ff9 08       		.byte	0x8
 6566 0ffa 85       		.byte	0x85
 6567 0ffb 16       		.uleb128 0x16
 6568 0ffc 01       		.uleb128 0x1
 6569 0ffd 50       		.byte	0x50
 6570 0ffe 01       		.uleb128 0x1
 6571 0fff 31       		.byte	0x31
 6572 1000 00       		.byte	0
 6573 1001 15       		.uleb128 0x15
 6574 1002 26010000 		.4byte	.LVL114
 6575 1006 30230000 		.4byte	0x2330
 6576 100a 1A100000 		.4byte	0x101a
 6577 100e 16       		.uleb128 0x16
 6578 100f 01       		.uleb128 0x1
 6579 1010 51       		.byte	0x51
 6580 1011 02       		.uleb128 0x2
 6581 1012 08       		.byte	0x8
 6582 1013 83       		.byte	0x83
 6583 1014 16       		.uleb128 0x16
 6584 1015 01       		.uleb128 0x1
 6585 1016 50       		.byte	0x50
 6586 1017 01       		.uleb128 0x1
 6587 1018 31       		.byte	0x31
 6588 1019 00       		.byte	0
 6589 101a 15       		.uleb128 0x15
 6590 101b 36010000 		.4byte	.LVL115
 6591 101f 30230000 		.4byte	0x2330
 6592 1023 32100000 		.4byte	0x1032
 6593 1027 16       		.uleb128 0x16
 6594 1028 01       		.uleb128 0x1
 6595 1029 51       		.byte	0x51
 6596 102a 01       		.uleb128 0x1
 6597 102b 31       		.byte	0x31
 6598 102c 16       		.uleb128 0x16
 6599 102d 01       		.uleb128 0x1
 6600 102e 50       		.byte	0x50
 6601 102f 01       		.uleb128 0x1
 6602 1030 31       		.byte	0x31
 6603 1031 00       		.byte	0
ARM GAS  C:\Users\Diego\AppData\Local\Temp\cctVJSXF.s 			page 151


 6604 1032 15       		.uleb128 0x15
 6605 1033 46010000 		.4byte	.LVL116
 6606 1037 30230000 		.4byte	0x2330
 6607 103b 4A100000 		.4byte	0x104a
 6608 103f 16       		.uleb128 0x16
 6609 1040 01       		.uleb128 0x1
 6610 1041 51       		.byte	0x51
 6611 1042 01       		.uleb128 0x1
 6612 1043 31       		.byte	0x31
 6613 1044 16       		.uleb128 0x16
 6614 1045 01       		.uleb128 0x1
 6615 1046 50       		.byte	0x50
 6616 1047 01       		.uleb128 0x1
 6617 1048 31       		.byte	0x31
 6618 1049 00       		.byte	0
 6619 104a 15       		.uleb128 0x15
 6620 104b 4C010000 		.4byte	.LVL117
 6621 104f 67230000 		.4byte	0x2367
 6622 1053 5D100000 		.4byte	0x105d
 6623 1057 16       		.uleb128 0x16
 6624 1058 01       		.uleb128 0x1
 6625 1059 50       		.byte	0x50
 6626 105a 01       		.uleb128 0x1
 6627 105b 3A       		.byte	0x3a
 6628 105c 00       		.byte	0
 6629 105d 13       		.uleb128 0x13
 6630 105e 50010000 		.4byte	.LVL118
 6631 1062 FC230000 		.4byte	0x23fc
 6632 1066 13       		.uleb128 0x13
 6633 1067 58010000 		.4byte	.LVL119
 6634 106b F1230000 		.4byte	0x23f1
 6635 106f 15       		.uleb128 0x15
 6636 1070 CE010000 		.4byte	.LVL120
 6637 1074 30230000 		.4byte	0x2330
 6638 1078 87100000 		.4byte	0x1087
 6639 107c 16       		.uleb128 0x16
 6640 107d 01       		.uleb128 0x1
 6641 107e 51       		.byte	0x51
 6642 107f 01       		.uleb128 0x1
 6643 1080 36       		.byte	0x36
 6644 1081 16       		.uleb128 0x16
 6645 1082 01       		.uleb128 0x1
 6646 1083 50       		.byte	0x50
 6647 1084 01       		.uleb128 0x1
 6648 1085 31       		.byte	0x31
 6649 1086 00       		.byte	0
 6650 1087 15       		.uleb128 0x15
 6651 1088 E2010000 		.4byte	.LVL121
 6652 108c 03240000 		.4byte	0x2403
 6653 1090 BF100000 		.4byte	0x10bf
 6654 1094 16       		.uleb128 0x16
 6655 1095 01       		.uleb128 0x1
 6656 1096 53       		.byte	0x53
 6657 1097 02       		.uleb128 0x2
 6658 1098 74       		.byte	0x74
 6659 1099 00       		.sleb128 0
 6660 109a 16       		.uleb128 0x16
ARM GAS  C:\Users\Diego\AppData\Local\Temp\cctVJSXF.s 			page 152


 6661 109b 01       		.uleb128 0x1
 6662 109c 52       		.byte	0x52
 6663 109d 01       		.uleb128 0x1
 6664 109e 33       		.byte	0x33
 6665 109f 16       		.uleb128 0x16
 6666 10a0 01       		.uleb128 0x1
 6667 10a1 51       		.byte	0x51
 6668 10a2 02       		.uleb128 0x2
 6669 10a3 08       		.byte	0x8
 6670 10a4 24       		.byte	0x24
 6671 10a5 16       		.uleb128 0x16
 6672 10a6 01       		.uleb128 0x1
 6673 10a7 50       		.byte	0x50
 6674 10a8 01       		.uleb128 0x1
 6675 10a9 31       		.byte	0x31
 6676 10aa 16       		.uleb128 0x16
 6677 10ab 02       		.uleb128 0x2
 6678 10ac 7D       		.byte	0x7d
 6679 10ad 08       		.sleb128 8
 6680 10ae 02       		.uleb128 0x2
 6681 10af 08       		.byte	0x8
 6682 10b0 4E       		.byte	0x4e
 6683 10b1 16       		.uleb128 0x16
 6684 10b2 02       		.uleb128 0x2
 6685 10b3 7D       		.byte	0x7d
 6686 10b4 04       		.sleb128 4
 6687 10b5 02       		.uleb128 0x2
 6688 10b6 75       		.byte	0x75
 6689 10b7 00       		.sleb128 0
 6690 10b8 16       		.uleb128 0x16
 6691 10b9 02       		.uleb128 0x2
 6692 10ba 7D       		.byte	0x7d
 6693 10bb 00       		.sleb128 0
 6694 10bc 01       		.uleb128 0x1
 6695 10bd 31       		.byte	0x31
 6696 10be 00       		.byte	0
 6697 10bf 15       		.uleb128 0x15
 6698 10c0 06020000 		.4byte	.LVL122
 6699 10c4 30230000 		.4byte	0x2330
 6700 10c8 D8100000 		.4byte	0x10d8
 6701 10cc 16       		.uleb128 0x16
 6702 10cd 01       		.uleb128 0x1
 6703 10ce 51       		.byte	0x51
 6704 10cf 01       		.uleb128 0x1
 6705 10d0 3D       		.byte	0x3d
 6706 10d1 16       		.uleb128 0x16
 6707 10d2 01       		.uleb128 0x1
 6708 10d3 50       		.byte	0x50
 6709 10d4 02       		.uleb128 0x2
 6710 10d5 74       		.byte	0x74
 6711 10d6 00       		.sleb128 0
 6712 10d7 00       		.byte	0
 6713 10d8 15       		.uleb128 0x15
 6714 10d9 1A020000 		.4byte	.LVL123
 6715 10dd 03240000 		.4byte	0x2403
 6716 10e1 11110000 		.4byte	0x1111
 6717 10e5 16       		.uleb128 0x16
ARM GAS  C:\Users\Diego\AppData\Local\Temp\cctVJSXF.s 			page 153


 6718 10e6 01       		.uleb128 0x1
 6719 10e7 53       		.byte	0x53
 6720 10e8 01       		.uleb128 0x1
 6721 10e9 32       		.byte	0x32
 6722 10ea 16       		.uleb128 0x16
 6723 10eb 01       		.uleb128 0x1
 6724 10ec 52       		.byte	0x52
 6725 10ed 01       		.uleb128 0x1
 6726 10ee 33       		.byte	0x33
 6727 10ef 16       		.uleb128 0x16
 6728 10f0 01       		.uleb128 0x1
 6729 10f1 51       		.byte	0x51
 6730 10f2 02       		.uleb128 0x2
 6731 10f3 75       		.byte	0x75
 6732 10f4 00       		.sleb128 0
 6733 10f5 16       		.uleb128 0x16
 6734 10f6 01       		.uleb128 0x1
 6735 10f7 50       		.byte	0x50
 6736 10f8 02       		.uleb128 0x2
 6737 10f9 74       		.byte	0x74
 6738 10fa 00       		.sleb128 0
 6739 10fb 16       		.uleb128 0x16
 6740 10fc 02       		.uleb128 0x2
 6741 10fd 7D       		.byte	0x7d
 6742 10fe 08       		.sleb128 8
 6743 10ff 02       		.uleb128 0x2
 6744 1100 08       		.byte	0x8
 6745 1101 4E       		.byte	0x4e
 6746 1102 16       		.uleb128 0x16
 6747 1103 02       		.uleb128 0x2
 6748 1104 7D       		.byte	0x7d
 6749 1105 04       		.sleb128 4
 6750 1106 02       		.uleb128 0x2
 6751 1107 76       		.byte	0x76
 6752 1108 00       		.sleb128 0
 6753 1109 16       		.uleb128 0x16
 6754 110a 02       		.uleb128 0x2
 6755 110b 7D       		.byte	0x7d
 6756 110c 00       		.sleb128 0
 6757 110d 02       		.uleb128 0x2
 6758 110e 74       		.byte	0x74
 6759 110f 00       		.sleb128 0
 6760 1110 00       		.byte	0
 6761 1111 15       		.uleb128 0x15
 6762 1112 80020000 		.4byte	.LVL134
 6763 1116 30230000 		.4byte	0x2330
 6764 111a 2A110000 		.4byte	0x112a
 6765 111e 16       		.uleb128 0x16
 6766 111f 01       		.uleb128 0x1
 6767 1120 51       		.byte	0x51
 6768 1121 02       		.uleb128 0x2
 6769 1122 08       		.byte	0x8
 6770 1123 86       		.byte	0x86
 6771 1124 16       		.uleb128 0x16
 6772 1125 01       		.uleb128 0x1
 6773 1126 50       		.byte	0x50
 6774 1127 01       		.uleb128 0x1
ARM GAS  C:\Users\Diego\AppData\Local\Temp\cctVJSXF.s 			page 154


 6775 1128 31       		.byte	0x31
 6776 1129 00       		.byte	0
 6777 112a 15       		.uleb128 0x15
 6778 112b 90020000 		.4byte	.LVL135
 6779 112f 30230000 		.4byte	0x2330
 6780 1133 42110000 		.4byte	0x1142
 6781 1137 16       		.uleb128 0x16
 6782 1138 01       		.uleb128 0x1
 6783 1139 51       		.byte	0x51
 6784 113a 01       		.uleb128 0x1
 6785 113b 31       		.byte	0x31
 6786 113c 16       		.uleb128 0x16
 6787 113d 01       		.uleb128 0x1
 6788 113e 50       		.byte	0x50
 6789 113f 01       		.uleb128 0x1
 6790 1140 31       		.byte	0x31
 6791 1141 00       		.byte	0
 6792 1142 15       		.uleb128 0x15
 6793 1143 A0020000 		.4byte	.LVL136
 6794 1147 30230000 		.4byte	0x2330
 6795 114b 5A110000 		.4byte	0x115a
 6796 114f 16       		.uleb128 0x16
 6797 1150 01       		.uleb128 0x1
 6798 1151 51       		.byte	0x51
 6799 1152 01       		.uleb128 0x1
 6800 1153 31       		.byte	0x31
 6801 1154 16       		.uleb128 0x16
 6802 1155 01       		.uleb128 0x1
 6803 1156 50       		.byte	0x50
 6804 1157 01       		.uleb128 0x1
 6805 1158 31       		.byte	0x31
 6806 1159 00       		.byte	0
 6807 115a 15       		.uleb128 0x15
 6808 115b B0020000 		.4byte	.LVL137
 6809 115f 30230000 		.4byte	0x2330
 6810 1163 72110000 		.4byte	0x1172
 6811 1167 16       		.uleb128 0x16
 6812 1168 01       		.uleb128 0x1
 6813 1169 51       		.byte	0x51
 6814 116a 01       		.uleb128 0x1
 6815 116b 31       		.byte	0x31
 6816 116c 16       		.uleb128 0x16
 6817 116d 01       		.uleb128 0x1
 6818 116e 50       		.byte	0x50
 6819 116f 01       		.uleb128 0x1
 6820 1170 31       		.byte	0x31
 6821 1171 00       		.byte	0
 6822 1172 15       		.uleb128 0x15
 6823 1173 B6020000 		.4byte	.LVL138
 6824 1177 67230000 		.4byte	0x2367
 6825 117b 85110000 		.4byte	0x1185
 6826 117f 16       		.uleb128 0x16
 6827 1180 01       		.uleb128 0x1
 6828 1181 50       		.byte	0x50
 6829 1182 01       		.uleb128 0x1
 6830 1183 3A       		.byte	0x3a
 6831 1184 00       		.byte	0
ARM GAS  C:\Users\Diego\AppData\Local\Temp\cctVJSXF.s 			page 155


 6832 1185 13       		.uleb128 0x13
 6833 1186 BA020000 		.4byte	.LVL139
 6834 118a FC230000 		.4byte	0x23fc
 6835 118e 15       		.uleb128 0x15
 6836 118f CA020000 		.4byte	.LVL140
 6837 1193 32240000 		.4byte	0x2432
 6838 1197 A6110000 		.4byte	0x11a6
 6839 119b 16       		.uleb128 0x16
 6840 119c 01       		.uleb128 0x1
 6841 119d 52       		.byte	0x52
 6842 119e 01       		.uleb128 0x1
 6843 119f 30       		.byte	0x30
 6844 11a0 16       		.uleb128 0x16
 6845 11a1 01       		.uleb128 0x1
 6846 11a2 50       		.byte	0x50
 6847 11a3 01       		.uleb128 0x1
 6848 11a4 31       		.byte	0x31
 6849 11a5 00       		.byte	0
 6850 11a6 15       		.uleb128 0x15
 6851 11a7 FA020000 		.4byte	.LVL141
 6852 11ab 30230000 		.4byte	0x2330
 6853 11af BE110000 		.4byte	0x11be
 6854 11b3 16       		.uleb128 0x16
 6855 11b4 01       		.uleb128 0x1
 6856 11b5 51       		.byte	0x51
 6857 11b6 01       		.uleb128 0x1
 6858 11b7 31       		.byte	0x31
 6859 11b8 16       		.uleb128 0x16
 6860 11b9 01       		.uleb128 0x1
 6861 11ba 50       		.byte	0x50
 6862 11bb 01       		.uleb128 0x1
 6863 11bc 31       		.byte	0x31
 6864 11bd 00       		.byte	0
 6865 11be 15       		.uleb128 0x15
 6866 11bf 2E030000 		.4byte	.LVL148
 6867 11c3 30230000 		.4byte	0x2330
 6868 11c7 D7110000 		.4byte	0x11d7
 6869 11cb 16       		.uleb128 0x16
 6870 11cc 01       		.uleb128 0x1
 6871 11cd 51       		.byte	0x51
 6872 11ce 02       		.uleb128 0x2
 6873 11cf 08       		.byte	0x8
 6874 11d0 86       		.byte	0x86
 6875 11d1 16       		.uleb128 0x16
 6876 11d2 01       		.uleb128 0x1
 6877 11d3 50       		.byte	0x50
 6878 11d4 01       		.uleb128 0x1
 6879 11d5 31       		.byte	0x31
 6880 11d6 00       		.byte	0
 6881 11d7 13       		.uleb128 0x13
 6882 11d8 36030000 		.4byte	.LVL149
 6883 11dc F1230000 		.4byte	0x23f1
 6884 11e0 15       		.uleb128 0x15
 6885 11e1 B8030000 		.4byte	.LVL150
 6886 11e5 30230000 		.4byte	0x2330
 6887 11e9 F8110000 		.4byte	0x11f8
 6888 11ed 16       		.uleb128 0x16
ARM GAS  C:\Users\Diego\AppData\Local\Temp\cctVJSXF.s 			page 156


 6889 11ee 01       		.uleb128 0x1
 6890 11ef 51       		.byte	0x51
 6891 11f0 01       		.uleb128 0x1
 6892 11f1 3B       		.byte	0x3b
 6893 11f2 16       		.uleb128 0x16
 6894 11f3 01       		.uleb128 0x1
 6895 11f4 50       		.byte	0x50
 6896 11f5 01       		.uleb128 0x1
 6897 11f6 31       		.byte	0x31
 6898 11f7 00       		.byte	0
 6899 11f8 15       		.uleb128 0x15
 6900 11f9 D0030000 		.4byte	.LVL151
 6901 11fd 30230000 		.4byte	0x2330
 6902 1201 10120000 		.4byte	0x1210
 6903 1205 16       		.uleb128 0x16
 6904 1206 01       		.uleb128 0x1
 6905 1207 51       		.byte	0x51
 6906 1208 01       		.uleb128 0x1
 6907 1209 3B       		.byte	0x3b
 6908 120a 16       		.uleb128 0x16
 6909 120b 01       		.uleb128 0x1
 6910 120c 50       		.byte	0x50
 6911 120d 01       		.uleb128 0x1
 6912 120e 31       		.byte	0x31
 6913 120f 00       		.byte	0
 6914 1210 15       		.uleb128 0x15
 6915 1211 E8030000 		.4byte	.LVL152
 6916 1215 30230000 		.4byte	0x2330
 6917 1219 28120000 		.4byte	0x1228
 6918 121d 16       		.uleb128 0x16
 6919 121e 01       		.uleb128 0x1
 6920 121f 51       		.byte	0x51
 6921 1220 01       		.uleb128 0x1
 6922 1221 3B       		.byte	0x3b
 6923 1222 16       		.uleb128 0x16
 6924 1223 01       		.uleb128 0x1
 6925 1224 50       		.byte	0x50
 6926 1225 01       		.uleb128 0x1
 6927 1226 31       		.byte	0x31
 6928 1227 00       		.byte	0
 6929 1228 15       		.uleb128 0x15
 6930 1229 00040000 		.4byte	.LVL153
 6931 122d 30230000 		.4byte	0x2330
 6932 1231 40120000 		.4byte	0x1240
 6933 1235 16       		.uleb128 0x16
 6934 1236 01       		.uleb128 0x1
 6935 1237 51       		.byte	0x51
 6936 1238 01       		.uleb128 0x1
 6937 1239 3B       		.byte	0x3b
 6938 123a 16       		.uleb128 0x16
 6939 123b 01       		.uleb128 0x1
 6940 123c 50       		.byte	0x50
 6941 123d 01       		.uleb128 0x1
 6942 123e 31       		.byte	0x31
 6943 123f 00       		.byte	0
 6944 1240 15       		.uleb128 0x15
 6945 1241 10040000 		.4byte	.LVL154
ARM GAS  C:\Users\Diego\AppData\Local\Temp\cctVJSXF.s 			page 157


 6946 1245 30230000 		.4byte	0x2330
 6947 1249 58120000 		.4byte	0x1258
 6948 124d 16       		.uleb128 0x16
 6949 124e 01       		.uleb128 0x1
 6950 124f 51       		.byte	0x51
 6951 1250 01       		.uleb128 0x1
 6952 1251 31       		.byte	0x31
 6953 1252 16       		.uleb128 0x16
 6954 1253 01       		.uleb128 0x1
 6955 1254 50       		.byte	0x50
 6956 1255 01       		.uleb128 0x1
 6957 1256 31       		.byte	0x31
 6958 1257 00       		.byte	0
 6959 1258 15       		.uleb128 0x15
 6960 1259 1A040000 		.4byte	.LVL155
 6961 125d 30230000 		.4byte	0x2330
 6962 1261 70120000 		.4byte	0x1270
 6963 1265 16       		.uleb128 0x16
 6964 1266 01       		.uleb128 0x1
 6965 1267 51       		.byte	0x51
 6966 1268 01       		.uleb128 0x1
 6967 1269 31       		.byte	0x31
 6968 126a 16       		.uleb128 0x16
 6969 126b 01       		.uleb128 0x1
 6970 126c 50       		.byte	0x50
 6971 126d 01       		.uleb128 0x1
 6972 126e 31       		.byte	0x31
 6973 126f 00       		.byte	0
 6974 1270 15       		.uleb128 0x15
 6975 1271 26040000 		.4byte	.LVL156
 6976 1275 67230000 		.4byte	0x2367
 6977 1279 83120000 		.4byte	0x1283
 6978 127d 16       		.uleb128 0x16
 6979 127e 01       		.uleb128 0x1
 6980 127f 50       		.byte	0x50
 6981 1280 01       		.uleb128 0x1
 6982 1281 3A       		.byte	0x3a
 6983 1282 00       		.byte	0
 6984 1283 13       		.uleb128 0x13
 6985 1284 2A040000 		.4byte	.LVL157
 6986 1288 FC230000 		.4byte	0x23fc
 6987 128c 15       		.uleb128 0x15
 6988 128d 34040000 		.4byte	.LVL158
 6989 1291 51240000 		.4byte	0x2451
 6990 1295 A3120000 		.4byte	0x12a3
 6991 1299 16       		.uleb128 0x16
 6992 129a 01       		.uleb128 0x1
 6993 129b 50       		.byte	0x50
 6994 129c 05       		.uleb128 0x5
 6995 129d 03       		.byte	0x3
 6996 129e 00000000 		.4byte	animacion
 6997 12a2 00       		.byte	0
 6998 12a3 13       		.uleb128 0x13
 6999 12a4 38040000 		.4byte	.LVL159
 7000 12a8 62240000 		.4byte	0x2462
 7001 12ac 13       		.uleb128 0x13
 7002 12ad 3C040000 		.4byte	.LVL160
ARM GAS  C:\Users\Diego\AppData\Local\Temp\cctVJSXF.s 			page 158


 7003 12b1 F1230000 		.4byte	0x23f1
 7004 12b5 15       		.uleb128 0x15
 7005 12b6 90040000 		.4byte	.LVL161
 7006 12ba 30230000 		.4byte	0x2330
 7007 12be CD120000 		.4byte	0x12cd
 7008 12c2 16       		.uleb128 0x16
 7009 12c3 01       		.uleb128 0x1
 7010 12c4 51       		.byte	0x51
 7011 12c5 01       		.uleb128 0x1
 7012 12c6 3A       		.byte	0x3a
 7013 12c7 16       		.uleb128 0x16
 7014 12c8 01       		.uleb128 0x1
 7015 12c9 50       		.byte	0x50
 7016 12ca 01       		.uleb128 0x1
 7017 12cb 31       		.byte	0x31
 7018 12cc 00       		.byte	0
 7019 12cd 15       		.uleb128 0x15
 7020 12ce A8040000 		.4byte	.LVL162
 7021 12d2 30230000 		.4byte	0x2330
 7022 12d6 E5120000 		.4byte	0x12e5
 7023 12da 16       		.uleb128 0x16
 7024 12db 01       		.uleb128 0x1
 7025 12dc 51       		.byte	0x51
 7026 12dd 01       		.uleb128 0x1
 7027 12de 31       		.byte	0x31
 7028 12df 16       		.uleb128 0x16
 7029 12e0 01       		.uleb128 0x1
 7030 12e1 50       		.byte	0x50
 7031 12e2 01       		.uleb128 0x1
 7032 12e3 31       		.byte	0x31
 7033 12e4 00       		.byte	0
 7034 12e5 15       		.uleb128 0x15
 7035 12e6 C2040000 		.4byte	.LVL163
 7036 12ea 30230000 		.4byte	0x2330
 7037 12ee FD120000 		.4byte	0x12fd
 7038 12f2 16       		.uleb128 0x16
 7039 12f3 01       		.uleb128 0x1
 7040 12f4 51       		.byte	0x51
 7041 12f5 01       		.uleb128 0x1
 7042 12f6 37       		.byte	0x37
 7043 12f7 16       		.uleb128 0x16
 7044 12f8 01       		.uleb128 0x1
 7045 12f9 50       		.byte	0x50
 7046 12fa 01       		.uleb128 0x1
 7047 12fb 31       		.byte	0x31
 7048 12fc 00       		.byte	0
 7049 12fd 15       		.uleb128 0x15
 7050 12fe D2040000 		.4byte	.LVL164
 7051 1302 30230000 		.4byte	0x2330
 7052 1306 15130000 		.4byte	0x1315
 7053 130a 16       		.uleb128 0x16
 7054 130b 01       		.uleb128 0x1
 7055 130c 51       		.byte	0x51
 7056 130d 01       		.uleb128 0x1
 7057 130e 31       		.byte	0x31
 7058 130f 16       		.uleb128 0x16
 7059 1310 01       		.uleb128 0x1
ARM GAS  C:\Users\Diego\AppData\Local\Temp\cctVJSXF.s 			page 159


 7060 1311 50       		.byte	0x50
 7061 1312 01       		.uleb128 0x1
 7062 1313 31       		.byte	0x31
 7063 1314 00       		.byte	0
 7064 1315 15       		.uleb128 0x15
 7065 1316 D8040000 		.4byte	.LVL165
 7066 131a 67230000 		.4byte	0x2367
 7067 131e 28130000 		.4byte	0x1328
 7068 1322 16       		.uleb128 0x16
 7069 1323 01       		.uleb128 0x1
 7070 1324 50       		.byte	0x50
 7071 1325 01       		.uleb128 0x1
 7072 1326 3A       		.byte	0x3a
 7073 1327 00       		.byte	0
 7074 1328 13       		.uleb128 0x13
 7075 1329 DC040000 		.4byte	.LVL166
 7076 132d FC230000 		.4byte	0x23fc
 7077 1331 15       		.uleb128 0x15
 7078 1332 F8040000 		.4byte	.LVL167
 7079 1336 30230000 		.4byte	0x2330
 7080 133a 49130000 		.4byte	0x1349
 7081 133e 16       		.uleb128 0x16
 7082 133f 01       		.uleb128 0x1
 7083 1340 51       		.byte	0x51
 7084 1341 01       		.uleb128 0x1
 7085 1342 31       		.byte	0x31
 7086 1343 16       		.uleb128 0x16
 7087 1344 01       		.uleb128 0x1
 7088 1345 50       		.byte	0x50
 7089 1346 01       		.uleb128 0x1
 7090 1347 31       		.byte	0x31
 7091 1348 00       		.byte	0
 7092 1349 15       		.uleb128 0x15
 7093 134a 1E050000 		.4byte	.LVL168
 7094 134e 51240000 		.4byte	0x2451
 7095 1352 60130000 		.4byte	0x1360
 7096 1356 16       		.uleb128 0x16
 7097 1357 01       		.uleb128 0x1
 7098 1358 50       		.byte	0x50
 7099 1359 05       		.uleb128 0x5
 7100 135a 03       		.byte	0x3
 7101 135b 00000000 		.4byte	animacion
 7102 135f 00       		.byte	0
 7103 1360 13       		.uleb128 0x13
 7104 1361 22050000 		.4byte	.LVL169
 7105 1365 62240000 		.4byte	0x2462
 7106 1369 13       		.uleb128 0x13
 7107 136a 2A050000 		.4byte	.LVL170
 7108 136e 69240000 		.4byte	0x2469
 7109 1372 15       		.uleb128 0x15
 7110 1373 4A050000 		.4byte	.LVL171
 7111 1377 7E240000 		.4byte	0x247e
 7112 137b 89130000 		.4byte	0x1389
 7113 137f 16       		.uleb128 0x16
 7114 1380 01       		.uleb128 0x1
 7115 1381 52       		.byte	0x52
 7116 1382 05       		.uleb128 0x5
ARM GAS  C:\Users\Diego\AppData\Local\Temp\cctVJSXF.s 			page 160


 7117 1383 03       		.byte	0x3
 7118 1384 65000000 		.4byte	bufferDisplay1+101
 7119 1388 00       		.byte	0
 7120 1389 13       		.uleb128 0x13
 7121 138a 54050000 		.4byte	.LVL172
 7122 138e 83230000 		.4byte	0x2383
 7123 1392 15       		.uleb128 0x15
 7124 1393 5A050000 		.4byte	.LVL173
 7125 1397 67230000 		.4byte	0x2367
 7126 139b A6130000 		.4byte	0x13a6
 7127 139f 16       		.uleb128 0x16
 7128 13a0 01       		.uleb128 0x1
 7129 13a1 50       		.byte	0x50
 7130 13a2 02       		.uleb128 0x2
 7131 13a3 08       		.byte	0x8
 7132 13a4 32       		.byte	0x32
 7133 13a5 00       		.byte	0
 7134 13a6 13       		.uleb128 0x13
 7135 13a7 64050000 		.4byte	.LVL174
 7136 13ab A2240000 		.4byte	0x24a2
 7137 13af 15       		.uleb128 0x15
 7138 13b0 6A050000 		.4byte	.LVL175
 7139 13b4 67230000 		.4byte	0x2367
 7140 13b8 C3130000 		.4byte	0x13c3
 7141 13bc 16       		.uleb128 0x16
 7142 13bd 01       		.uleb128 0x1
 7143 13be 50       		.byte	0x50
 7144 13bf 02       		.uleb128 0x2
 7145 13c0 08       		.byte	0x8
 7146 13c1 32       		.byte	0x32
 7147 13c2 00       		.byte	0
 7148 13c3 13       		.uleb128 0x13
 7149 13c4 74050000 		.4byte	.LVL176
 7150 13c8 E3230000 		.4byte	0x23e3
 7151 13cc 13       		.uleb128 0x13
 7152 13cd 78050000 		.4byte	.LVL177
 7153 13d1 EA230000 		.4byte	0x23ea
 7154 13d5 15       		.uleb128 0x15
 7155 13d6 86050000 		.4byte	.LVL178
 7156 13da 30230000 		.4byte	0x2330
 7157 13de EE130000 		.4byte	0x13ee
 7158 13e2 16       		.uleb128 0x16
 7159 13e3 01       		.uleb128 0x1
 7160 13e4 51       		.byte	0x51
 7161 13e5 02       		.uleb128 0x2
 7162 13e6 74       		.byte	0x74
 7163 13e7 00       		.sleb128 0
 7164 13e8 16       		.uleb128 0x16
 7165 13e9 01       		.uleb128 0x1
 7166 13ea 50       		.byte	0x50
 7167 13eb 01       		.uleb128 0x1
 7168 13ec 31       		.byte	0x31
 7169 13ed 00       		.byte	0
 7170 13ee 15       		.uleb128 0x15
 7171 13ef 90050000 		.4byte	.LVL179
 7172 13f3 46230000 		.4byte	0x2346
 7173 13f7 0F140000 		.4byte	0x140f
ARM GAS  C:\Users\Diego\AppData\Local\Temp\cctVJSXF.s 			page 161


 7174 13fb 16       		.uleb128 0x16
 7175 13fc 01       		.uleb128 0x1
 7176 13fd 52       		.byte	0x52
 7177 13fe 01       		.uleb128 0x1
 7178 13ff 42       		.byte	0x42
 7179 1400 16       		.uleb128 0x16
 7180 1401 01       		.uleb128 0x1
 7181 1402 51       		.byte	0x51
 7182 1403 05       		.uleb128 0x5
 7183 1404 03       		.byte	0x3
 7184 1405 65000000 		.4byte	bufferDisplay1+101
 7185 1409 16       		.uleb128 0x16
 7186 140a 01       		.uleb128 0x1
 7187 140b 50       		.byte	0x50
 7188 140c 01       		.uleb128 0x1
 7189 140d 31       		.byte	0x31
 7190 140e 00       		.byte	0
 7191 140f 15       		.uleb128 0x15
 7192 1410 9E050000 		.4byte	.LVL180
 7193 1414 30230000 		.4byte	0x2330
 7194 1418 27140000 		.4byte	0x1427
 7195 141c 16       		.uleb128 0x16
 7196 141d 01       		.uleb128 0x1
 7197 141e 51       		.byte	0x51
 7198 141f 01       		.uleb128 0x1
 7199 1420 30       		.byte	0x30
 7200 1421 16       		.uleb128 0x16
 7201 1422 01       		.uleb128 0x1
 7202 1423 50       		.byte	0x50
 7203 1424 01       		.uleb128 0x1
 7204 1425 31       		.byte	0x31
 7205 1426 00       		.byte	0
 7206 1427 15       		.uleb128 0x15
 7207 1428 A4050000 		.4byte	.LVL181
 7208 142c 67230000 		.4byte	0x2367
 7209 1430 3B140000 		.4byte	0x143b
 7210 1434 16       		.uleb128 0x16
 7211 1435 01       		.uleb128 0x1
 7212 1436 50       		.byte	0x50
 7213 1437 02       		.uleb128 0x2
 7214 1438 08       		.byte	0x8
 7215 1439 C8       		.byte	0xc8
 7216 143a 00       		.byte	0
 7217 143b 15       		.uleb128 0x15
 7218 143c AC050000 		.4byte	.LVL182
 7219 1440 30230000 		.4byte	0x2330
 7220 1444 53140000 		.4byte	0x1453
 7221 1448 16       		.uleb128 0x16
 7222 1449 01       		.uleb128 0x1
 7223 144a 51       		.byte	0x51
 7224 144b 01       		.uleb128 0x1
 7225 144c 31       		.byte	0x31
 7226 144d 16       		.uleb128 0x16
 7227 144e 01       		.uleb128 0x1
 7228 144f 50       		.byte	0x50
 7229 1450 01       		.uleb128 0x1
 7230 1451 31       		.byte	0x31
ARM GAS  C:\Users\Diego\AppData\Local\Temp\cctVJSXF.s 			page 162


 7231 1452 00       		.byte	0
 7232 1453 15       		.uleb128 0x15
 7233 1454 CE050000 		.4byte	.LVL183
 7234 1458 30230000 		.4byte	0x2330
 7235 145c 6B140000 		.4byte	0x146b
 7236 1460 16       		.uleb128 0x16
 7237 1461 01       		.uleb128 0x1
 7238 1462 51       		.byte	0x51
 7239 1463 01       		.uleb128 0x1
 7240 1464 31       		.byte	0x31
 7241 1465 16       		.uleb128 0x16
 7242 1466 01       		.uleb128 0x1
 7243 1467 50       		.byte	0x50
 7244 1468 01       		.uleb128 0x1
 7245 1469 31       		.byte	0x31
 7246 146a 00       		.byte	0
 7247 146b 13       		.uleb128 0x13
 7248 146c D2050000 		.4byte	.LVL184
 7249 1470 F1230000 		.4byte	0x23f1
 7250 1474 15       		.uleb128 0x15
 7251 1475 06060000 		.4byte	.LVL185
 7252 1479 30230000 		.4byte	0x2330
 7253 147d 8C140000 		.4byte	0x148c
 7254 1481 16       		.uleb128 0x16
 7255 1482 01       		.uleb128 0x1
 7256 1483 51       		.byte	0x51
 7257 1484 01       		.uleb128 0x1
 7258 1485 31       		.byte	0x31
 7259 1486 16       		.uleb128 0x16
 7260 1487 01       		.uleb128 0x1
 7261 1488 50       		.byte	0x50
 7262 1489 01       		.uleb128 0x1
 7263 148a 31       		.byte	0x31
 7264 148b 00       		.byte	0
 7265 148c 15       		.uleb128 0x15
 7266 148d 12060000 		.4byte	.LVL186
 7267 1491 67230000 		.4byte	0x2367
 7268 1495 9F140000 		.4byte	0x149f
 7269 1499 16       		.uleb128 0x16
 7270 149a 01       		.uleb128 0x1
 7271 149b 50       		.byte	0x50
 7272 149c 01       		.uleb128 0x1
 7273 149d 3A       		.byte	0x3a
 7274 149e 00       		.byte	0
 7275 149f 13       		.uleb128 0x13
 7276 14a0 16060000 		.4byte	.LVL187
 7277 14a4 FC230000 		.4byte	0x23fc
 7278 14a8 13       		.uleb128 0x13
 7279 14a9 22060000 		.4byte	.LVL188
 7280 14ad 83230000 		.4byte	0x2383
 7281 14b1 15       		.uleb128 0x15
 7282 14b2 4E060000 		.4byte	.LVL190
 7283 14b6 30230000 		.4byte	0x2330
 7284 14ba C9140000 		.4byte	0x14c9
 7285 14be 16       		.uleb128 0x16
 7286 14bf 01       		.uleb128 0x1
 7287 14c0 51       		.byte	0x51
ARM GAS  C:\Users\Diego\AppData\Local\Temp\cctVJSXF.s 			page 163


 7288 14c1 01       		.uleb128 0x1
 7289 14c2 31       		.byte	0x31
 7290 14c3 16       		.uleb128 0x16
 7291 14c4 01       		.uleb128 0x1
 7292 14c5 50       		.byte	0x50
 7293 14c6 01       		.uleb128 0x1
 7294 14c7 31       		.byte	0x31
 7295 14c8 00       		.byte	0
 7296 14c9 13       		.uleb128 0x13
 7297 14ca 6C060000 		.4byte	.LVL191
 7298 14ce B3240000 		.4byte	0x24b3
 7299 14d2 15       		.uleb128 0x15
 7300 14d3 80060000 		.4byte	.LVL192
 7301 14d7 C8240000 		.4byte	0x24c8
 7302 14db E5140000 		.4byte	0x14e5
 7303 14df 16       		.uleb128 0x16
 7304 14e0 01       		.uleb128 0x1
 7305 14e1 50       		.byte	0x50
 7306 14e2 01       		.uleb128 0x1
 7307 14e3 31       		.byte	0x31
 7308 14e4 00       		.byte	0
 7309 14e5 15       		.uleb128 0x15
 7310 14e6 8E060000 		.4byte	.LVL193
 7311 14ea 30230000 		.4byte	0x2330
 7312 14ee FD140000 		.4byte	0x14fd
 7313 14f2 16       		.uleb128 0x16
 7314 14f3 01       		.uleb128 0x1
 7315 14f4 51       		.byte	0x51
 7316 14f5 01       		.uleb128 0x1
 7317 14f6 31       		.byte	0x31
 7318 14f7 16       		.uleb128 0x16
 7319 14f8 01       		.uleb128 0x1
 7320 14f9 50       		.byte	0x50
 7321 14fa 01       		.uleb128 0x1
 7322 14fb 31       		.byte	0x31
 7323 14fc 00       		.byte	0
 7324 14fd 15       		.uleb128 0x15
 7325 14fe A4060000 		.4byte	.LVL194
 7326 1502 30230000 		.4byte	0x2330
 7327 1506 15150000 		.4byte	0x1515
 7328 150a 16       		.uleb128 0x16
 7329 150b 01       		.uleb128 0x1
 7330 150c 51       		.byte	0x51
 7331 150d 01       		.uleb128 0x1
 7332 150e 3B       		.byte	0x3b
 7333 150f 16       		.uleb128 0x16
 7334 1510 01       		.uleb128 0x1
 7335 1511 50       		.byte	0x50
 7336 1512 01       		.uleb128 0x1
 7337 1513 31       		.byte	0x31
 7338 1514 00       		.byte	0
 7339 1515 13       		.uleb128 0x13
 7340 1516 B6060000 		.4byte	.LVL195
 7341 151a B3240000 		.4byte	0x24b3
 7342 151e 15       		.uleb128 0x15
 7343 151f CA060000 		.4byte	.LVL196
 7344 1523 C8240000 		.4byte	0x24c8
ARM GAS  C:\Users\Diego\AppData\Local\Temp\cctVJSXF.s 			page 164


 7345 1527 31150000 		.4byte	0x1531
 7346 152b 16       		.uleb128 0x16
 7347 152c 01       		.uleb128 0x1
 7348 152d 50       		.byte	0x50
 7349 152e 01       		.uleb128 0x1
 7350 152f 31       		.byte	0x31
 7351 1530 00       		.byte	0
 7352 1531 15       		.uleb128 0x15
 7353 1532 D8060000 		.4byte	.LVL197
 7354 1536 30230000 		.4byte	0x2330
 7355 153a 49150000 		.4byte	0x1549
 7356 153e 16       		.uleb128 0x16
 7357 153f 01       		.uleb128 0x1
 7358 1540 51       		.byte	0x51
 7359 1541 01       		.uleb128 0x1
 7360 1542 31       		.byte	0x31
 7361 1543 16       		.uleb128 0x16
 7362 1544 01       		.uleb128 0x1
 7363 1545 50       		.byte	0x50
 7364 1546 01       		.uleb128 0x1
 7365 1547 31       		.byte	0x31
 7366 1548 00       		.byte	0
 7367 1549 15       		.uleb128 0x15
 7368 154a EE060000 		.4byte	.LVL198
 7369 154e 30230000 		.4byte	0x2330
 7370 1552 61150000 		.4byte	0x1561
 7371 1556 16       		.uleb128 0x16
 7372 1557 01       		.uleb128 0x1
 7373 1558 51       		.byte	0x51
 7374 1559 01       		.uleb128 0x1
 7375 155a 3B       		.byte	0x3b
 7376 155b 16       		.uleb128 0x16
 7377 155c 01       		.uleb128 0x1
 7378 155d 50       		.byte	0x50
 7379 155e 01       		.uleb128 0x1
 7380 155f 31       		.byte	0x31
 7381 1560 00       		.byte	0
 7382 1561 15       		.uleb128 0x15
 7383 1562 02070000 		.4byte	.LVL199
 7384 1566 32240000 		.4byte	0x2432
 7385 156a 7E150000 		.4byte	0x157e
 7386 156e 16       		.uleb128 0x16
 7387 156f 01       		.uleb128 0x1
 7388 1570 52       		.byte	0x52
 7389 1571 01       		.uleb128 0x1
 7390 1572 30       		.byte	0x30
 7391 1573 16       		.uleb128 0x16
 7392 1574 01       		.uleb128 0x1
 7393 1575 51       		.byte	0x51
 7394 1576 01       		.uleb128 0x1
 7395 1577 3A       		.byte	0x3a
 7396 1578 16       		.uleb128 0x16
 7397 1579 01       		.uleb128 0x1
 7398 157a 50       		.byte	0x50
 7399 157b 01       		.uleb128 0x1
 7400 157c 31       		.byte	0x31
 7401 157d 00       		.byte	0
ARM GAS  C:\Users\Diego\AppData\Local\Temp\cctVJSXF.s 			page 165


 7402 157e 15       		.uleb128 0x15
 7403 157f 42070000 		.4byte	.LVL206
 7404 1583 30230000 		.4byte	0x2330
 7405 1587 96150000 		.4byte	0x1596
 7406 158b 16       		.uleb128 0x16
 7407 158c 01       		.uleb128 0x1
 7408 158d 51       		.byte	0x51
 7409 158e 01       		.uleb128 0x1
 7410 158f 31       		.byte	0x31
 7411 1590 16       		.uleb128 0x16
 7412 1591 01       		.uleb128 0x1
 7413 1592 50       		.byte	0x50
 7414 1593 01       		.uleb128 0x1
 7415 1594 31       		.byte	0x31
 7416 1595 00       		.byte	0
 7417 1596 13       		.uleb128 0x13
 7418 1597 8E070000 		.4byte	.LVL221
 7419 159b FC230000 		.4byte	0x23fc
 7420 159f 15       		.uleb128 0x15
 7421 15a0 F2070000 		.4byte	.LVL228
 7422 15a4 C8240000 		.4byte	0x24c8
 7423 15a8 B2150000 		.4byte	0x15b2
 7424 15ac 16       		.uleb128 0x16
 7425 15ad 01       		.uleb128 0x1
 7426 15ae 50       		.byte	0x50
 7427 15af 01       		.uleb128 0x1
 7428 15b0 31       		.byte	0x31
 7429 15b1 00       		.byte	0
 7430 15b2 15       		.uleb128 0x15
 7431 15b3 00080000 		.4byte	.LVL229
 7432 15b7 30230000 		.4byte	0x2330
 7433 15bb CA150000 		.4byte	0x15ca
 7434 15bf 16       		.uleb128 0x16
 7435 15c0 01       		.uleb128 0x1
 7436 15c1 51       		.byte	0x51
 7437 15c2 01       		.uleb128 0x1
 7438 15c3 31       		.byte	0x31
 7439 15c4 16       		.uleb128 0x16
 7440 15c5 01       		.uleb128 0x1
 7441 15c6 50       		.byte	0x50
 7442 15c7 01       		.uleb128 0x1
 7443 15c8 31       		.byte	0x31
 7444 15c9 00       		.byte	0
 7445 15ca 15       		.uleb128 0x15
 7446 15cb 0E080000 		.4byte	.LVL230
 7447 15cf 30230000 		.4byte	0x2330
 7448 15d3 E2150000 		.4byte	0x15e2
 7449 15d7 16       		.uleb128 0x16
 7450 15d8 01       		.uleb128 0x1
 7451 15d9 51       		.byte	0x51
 7452 15da 01       		.uleb128 0x1
 7453 15db 37       		.byte	0x37
 7454 15dc 16       		.uleb128 0x16
 7455 15dd 01       		.uleb128 0x1
 7456 15de 50       		.byte	0x50
 7457 15df 01       		.uleb128 0x1
 7458 15e0 31       		.byte	0x31
ARM GAS  C:\Users\Diego\AppData\Local\Temp\cctVJSXF.s 			page 166


 7459 15e1 00       		.byte	0
 7460 15e2 15       		.uleb128 0x15
 7461 15e3 3A080000 		.4byte	.LVL237
 7462 15e7 30230000 		.4byte	0x2330
 7463 15eb FA150000 		.4byte	0x15fa
 7464 15ef 16       		.uleb128 0x16
 7465 15f0 01       		.uleb128 0x1
 7466 15f1 51       		.byte	0x51
 7467 15f2 01       		.uleb128 0x1
 7468 15f3 37       		.byte	0x37
 7469 15f4 16       		.uleb128 0x16
 7470 15f5 01       		.uleb128 0x1
 7471 15f6 50       		.byte	0x50
 7472 15f7 01       		.uleb128 0x1
 7473 15f8 31       		.byte	0x31
 7474 15f9 00       		.byte	0
 7475 15fa 15       		.uleb128 0x15
 7476 15fb 98080000 		.4byte	.LVL248
 7477 15ff 30230000 		.4byte	0x2330
 7478 1603 13160000 		.4byte	0x1613
 7479 1607 16       		.uleb128 0x16
 7480 1608 01       		.uleb128 0x1
 7481 1609 51       		.byte	0x51
 7482 160a 02       		.uleb128 0x2
 7483 160b 08       		.byte	0x8
 7484 160c 25       		.byte	0x25
 7485 160d 16       		.uleb128 0x16
 7486 160e 01       		.uleb128 0x1
 7487 160f 50       		.byte	0x50
 7488 1610 01       		.uleb128 0x1
 7489 1611 31       		.byte	0x31
 7490 1612 00       		.byte	0
 7491 1613 13       		.uleb128 0x13
 7492 1614 9C080000 		.4byte	.LVL249
 7493 1618 FC230000 		.4byte	0x23fc
 7494 161c 13       		.uleb128 0x13
 7495 161d A2080000 		.4byte	.LVL250
 7496 1621 F1230000 		.4byte	0x23f1
 7497 1625 15       		.uleb128 0x15
 7498 1626 F4080000 		.4byte	.LVL251
 7499 162a 30230000 		.4byte	0x2330
 7500 162e 3D160000 		.4byte	0x163d
 7501 1632 16       		.uleb128 0x16
 7502 1633 01       		.uleb128 0x1
 7503 1634 51       		.byte	0x51
 7504 1635 01       		.uleb128 0x1
 7505 1636 42       		.byte	0x42
 7506 1637 16       		.uleb128 0x16
 7507 1638 01       		.uleb128 0x1
 7508 1639 50       		.byte	0x50
 7509 163a 01       		.uleb128 0x1
 7510 163b 31       		.byte	0x31
 7511 163c 00       		.byte	0
 7512 163d 15       		.uleb128 0x15
 7513 163e 0E090000 		.4byte	.LVL252
 7514 1642 30230000 		.4byte	0x2330
 7515 1646 55160000 		.4byte	0x1655
ARM GAS  C:\Users\Diego\AppData\Local\Temp\cctVJSXF.s 			page 167


 7516 164a 16       		.uleb128 0x16
 7517 164b 01       		.uleb128 0x1
 7518 164c 51       		.byte	0x51
 7519 164d 01       		.uleb128 0x1
 7520 164e 37       		.byte	0x37
 7521 164f 16       		.uleb128 0x16
 7522 1650 01       		.uleb128 0x1
 7523 1651 50       		.byte	0x50
 7524 1652 01       		.uleb128 0x1
 7525 1653 31       		.byte	0x31
 7526 1654 00       		.byte	0
 7527 1655 15       		.uleb128 0x15
 7528 1656 18090000 		.4byte	.LVL253
 7529 165a 30230000 		.4byte	0x2330
 7530 165e 6D160000 		.4byte	0x166d
 7531 1662 16       		.uleb128 0x16
 7532 1663 01       		.uleb128 0x1
 7533 1664 51       		.byte	0x51
 7534 1665 01       		.uleb128 0x1
 7535 1666 31       		.byte	0x31
 7536 1667 16       		.uleb128 0x16
 7537 1668 01       		.uleb128 0x1
 7538 1669 50       		.byte	0x50
 7539 166a 01       		.uleb128 0x1
 7540 166b 31       		.byte	0x31
 7541 166c 00       		.byte	0
 7542 166d 15       		.uleb128 0x15
 7543 166e 24090000 		.4byte	.LVL254
 7544 1672 67230000 		.4byte	0x2367
 7545 1676 80160000 		.4byte	0x1680
 7546 167a 16       		.uleb128 0x16
 7547 167b 01       		.uleb128 0x1
 7548 167c 50       		.byte	0x50
 7549 167d 01       		.uleb128 0x1
 7550 167e 3A       		.byte	0x3a
 7551 167f 00       		.byte	0
 7552 1680 13       		.uleb128 0x13
 7553 1681 28090000 		.4byte	.LVL255
 7554 1685 FC230000 		.4byte	0x23fc
 7555 1689 15       		.uleb128 0x15
 7556 168a 30090000 		.4byte	.LVL256
 7557 168e 51240000 		.4byte	0x2451
 7558 1692 A0160000 		.4byte	0x16a0
 7559 1696 16       		.uleb128 0x16
 7560 1697 01       		.uleb128 0x1
 7561 1698 50       		.byte	0x50
 7562 1699 05       		.uleb128 0x5
 7563 169a 03       		.byte	0x3
 7564 169b 00000000 		.4byte	animacion
 7565 169f 00       		.byte	0
 7566 16a0 13       		.uleb128 0x13
 7567 16a1 34090000 		.4byte	.LVL257
 7568 16a5 62240000 		.4byte	0x2462
 7569 16a9 15       		.uleb128 0x15
 7570 16aa 3A090000 		.4byte	.LVL258
 7571 16ae DE240000 		.4byte	0x24de
 7572 16b2 BC160000 		.4byte	0x16bc
ARM GAS  C:\Users\Diego\AppData\Local\Temp\cctVJSXF.s 			page 168


 7573 16b6 16       		.uleb128 0x16
 7574 16b7 01       		.uleb128 0x1
 7575 16b8 50       		.byte	0x50
 7576 16b9 01       		.uleb128 0x1
 7577 16ba 31       		.byte	0x31
 7578 16bb 00       		.byte	0
 7579 16bc 15       		.uleb128 0x15
 7580 16bd 44090000 		.4byte	.LVL259
 7581 16c1 F3240000 		.4byte	0x24f3
 7582 16c5 D0160000 		.4byte	0x16d0
 7583 16c9 16       		.uleb128 0x16
 7584 16ca 01       		.uleb128 0x1
 7585 16cb 51       		.byte	0x51
 7586 16cc 02       		.uleb128 0x2
 7587 16cd 08       		.byte	0x8
 7588 16ce 33       		.byte	0x33
 7589 16cf 00       		.byte	0
 7590 16d0 15       		.uleb128 0x15
 7591 16d1 4E090000 		.4byte	.LVL261
 7592 16d5 0D250000 		.4byte	0x250d
 7593 16d9 E3160000 		.4byte	0x16e3
 7594 16dd 16       		.uleb128 0x16
 7595 16de 01       		.uleb128 0x1
 7596 16df 50       		.byte	0x50
 7597 16e0 01       		.uleb128 0x1
 7598 16e1 31       		.byte	0x31
 7599 16e2 00       		.byte	0
 7600 16e3 13       		.uleb128 0x13
 7601 16e4 6C090000 		.4byte	.LVL268
 7602 16e8 22250000 		.4byte	0x2522
 7603 16ec 15       		.uleb128 0x15
 7604 16ed D4090000 		.4byte	.LVL280
 7605 16f1 30230000 		.4byte	0x2330
 7606 16f5 04170000 		.4byte	0x1704
 7607 16f9 16       		.uleb128 0x16
 7608 16fa 01       		.uleb128 0x1
 7609 16fb 51       		.byte	0x51
 7610 16fc 01       		.uleb128 0x1
 7611 16fd 43       		.byte	0x43
 7612 16fe 16       		.uleb128 0x16
 7613 16ff 01       		.uleb128 0x1
 7614 1700 50       		.byte	0x50
 7615 1701 01       		.uleb128 0x1
 7616 1702 31       		.byte	0x31
 7617 1703 00       		.byte	0
 7618 1704 13       		.uleb128 0x13
 7619 1705 D8090000 		.4byte	.LVL281
 7620 1709 FC230000 		.4byte	0x23fc
 7621 170d 15       		.uleb128 0x15
 7622 170e E0090000 		.4byte	.LVL282
 7623 1712 67230000 		.4byte	0x2367
 7624 1716 22170000 		.4byte	0x1722
 7625 171a 16       		.uleb128 0x16
 7626 171b 01       		.uleb128 0x1
 7627 171c 50       		.byte	0x50
 7628 171d 03       		.uleb128 0x3
 7629 171e 0A       		.byte	0xa
ARM GAS  C:\Users\Diego\AppData\Local\Temp\cctVJSXF.s 			page 169


 7630 171f BC02     		.2byte	0x2bc
 7631 1721 00       		.byte	0
 7632 1722 15       		.uleb128 0x15
 7633 1723 F6090000 		.4byte	.LVL283
 7634 1727 30230000 		.4byte	0x2330
 7635 172b 3A170000 		.4byte	0x173a
 7636 172f 16       		.uleb128 0x16
 7637 1730 01       		.uleb128 0x1
 7638 1731 51       		.byte	0x51
 7639 1732 01       		.uleb128 0x1
 7640 1733 3E       		.byte	0x3e
 7641 1734 16       		.uleb128 0x16
 7642 1735 01       		.uleb128 0x1
 7643 1736 50       		.byte	0x50
 7644 1737 01       		.uleb128 0x1
 7645 1738 31       		.byte	0x31
 7646 1739 00       		.byte	0
 7647 173a 15       		.uleb128 0x15
 7648 173b 120A0000 		.4byte	.LVL284
 7649 173f 30230000 		.4byte	0x2330
 7650 1743 52170000 		.4byte	0x1752
 7651 1747 16       		.uleb128 0x16
 7652 1748 01       		.uleb128 0x1
 7653 1749 51       		.byte	0x51
 7654 174a 01       		.uleb128 0x1
 7655 174b 31       		.byte	0x31
 7656 174c 16       		.uleb128 0x16
 7657 174d 01       		.uleb128 0x1
 7658 174e 50       		.byte	0x50
 7659 174f 01       		.uleb128 0x1
 7660 1750 31       		.byte	0x31
 7661 1751 00       		.byte	0
 7662 1752 13       		.uleb128 0x13
 7663 1753 180A0000 		.4byte	.LVL285
 7664 1757 F1230000 		.4byte	0x23f1
 7665 175b 15       		.uleb128 0x15
 7666 175c 720A0000 		.4byte	.LVL286
 7667 1760 30230000 		.4byte	0x2330
 7668 1764 74170000 		.4byte	0x1774
 7669 1768 16       		.uleb128 0x16
 7670 1769 01       		.uleb128 0x1
 7671 176a 51       		.byte	0x51
 7672 176b 02       		.uleb128 0x2
 7673 176c 08       		.byte	0x8
 7674 176d 2A       		.byte	0x2a
 7675 176e 16       		.uleb128 0x16
 7676 176f 01       		.uleb128 0x1
 7677 1770 50       		.byte	0x50
 7678 1771 01       		.uleb128 0x1
 7679 1772 31       		.byte	0x31
 7680 1773 00       		.byte	0
 7681 1774 15       		.uleb128 0x15
 7682 1775 7C0A0000 		.4byte	.LVL287
 7683 1779 30230000 		.4byte	0x2330
 7684 177d 8D170000 		.4byte	0x178d
 7685 1781 16       		.uleb128 0x16
 7686 1782 01       		.uleb128 0x1
ARM GAS  C:\Users\Diego\AppData\Local\Temp\cctVJSXF.s 			page 170


 7687 1783 51       		.byte	0x51
 7688 1784 02       		.uleb128 0x2
 7689 1785 08       		.byte	0x8
 7690 1786 23       		.byte	0x23
 7691 1787 16       		.uleb128 0x16
 7692 1788 01       		.uleb128 0x1
 7693 1789 50       		.byte	0x50
 7694 178a 01       		.uleb128 0x1
 7695 178b 31       		.byte	0x31
 7696 178c 00       		.byte	0
 7697 178d 15       		.uleb128 0x15
 7698 178e D40A0000 		.4byte	.LVL288
 7699 1792 30230000 		.4byte	0x2330
 7700 1796 A6170000 		.4byte	0x17a6
 7701 179a 16       		.uleb128 0x16
 7702 179b 01       		.uleb128 0x1
 7703 179c 51       		.byte	0x51
 7704 179d 02       		.uleb128 0x2
 7705 179e 08       		.byte	0x8
 7706 179f 25       		.byte	0x25
 7707 17a0 16       		.uleb128 0x16
 7708 17a1 01       		.uleb128 0x1
 7709 17a2 50       		.byte	0x50
 7710 17a3 01       		.uleb128 0x1
 7711 17a4 31       		.byte	0x31
 7712 17a5 00       		.byte	0
 7713 17a6 15       		.uleb128 0x15
 7714 17a7 E40A0000 		.4byte	.LVL289
 7715 17ab 30230000 		.4byte	0x2330
 7716 17af BF170000 		.4byte	0x17bf
 7717 17b3 16       		.uleb128 0x16
 7718 17b4 01       		.uleb128 0x1
 7719 17b5 51       		.byte	0x51
 7720 17b6 02       		.uleb128 0x2
 7721 17b7 08       		.byte	0x8
 7722 17b8 83       		.byte	0x83
 7723 17b9 16       		.uleb128 0x16
 7724 17ba 01       		.uleb128 0x1
 7725 17bb 50       		.byte	0x50
 7726 17bc 01       		.uleb128 0x1
 7727 17bd 31       		.byte	0x31
 7728 17be 00       		.byte	0
 7729 17bf 15       		.uleb128 0x15
 7730 17c0 F40A0000 		.4byte	.LVL290
 7731 17c4 30230000 		.4byte	0x2330
 7732 17c8 D7170000 		.4byte	0x17d7
 7733 17cc 16       		.uleb128 0x16
 7734 17cd 01       		.uleb128 0x1
 7735 17ce 51       		.byte	0x51
 7736 17cf 01       		.uleb128 0x1
 7737 17d0 31       		.byte	0x31
 7738 17d1 16       		.uleb128 0x16
 7739 17d2 01       		.uleb128 0x1
 7740 17d3 50       		.byte	0x50
 7741 17d4 01       		.uleb128 0x1
 7742 17d5 31       		.byte	0x31
 7743 17d6 00       		.byte	0
ARM GAS  C:\Users\Diego\AppData\Local\Temp\cctVJSXF.s 			page 171


 7744 17d7 15       		.uleb128 0x15
 7745 17d8 040B0000 		.4byte	.LVL291
 7746 17dc 30230000 		.4byte	0x2330
 7747 17e0 EF170000 		.4byte	0x17ef
 7748 17e4 16       		.uleb128 0x16
 7749 17e5 01       		.uleb128 0x1
 7750 17e6 51       		.byte	0x51
 7751 17e7 01       		.uleb128 0x1
 7752 17e8 31       		.byte	0x31
 7753 17e9 16       		.uleb128 0x16
 7754 17ea 01       		.uleb128 0x1
 7755 17eb 50       		.byte	0x50
 7756 17ec 01       		.uleb128 0x1
 7757 17ed 31       		.byte	0x31
 7758 17ee 00       		.byte	0
 7759 17ef 15       		.uleb128 0x15
 7760 17f0 0A0B0000 		.4byte	.LVL292
 7761 17f4 67230000 		.4byte	0x2367
 7762 17f8 02180000 		.4byte	0x1802
 7763 17fc 16       		.uleb128 0x16
 7764 17fd 01       		.uleb128 0x1
 7765 17fe 50       		.byte	0x50
 7766 17ff 01       		.uleb128 0x1
 7767 1800 3A       		.byte	0x3a
 7768 1801 00       		.byte	0
 7769 1802 13       		.uleb128 0x13
 7770 1803 0E0B0000 		.4byte	.LVL293
 7771 1807 FC230000 		.4byte	0x23fc
 7772 180b 13       		.uleb128 0x13
 7773 180c 140B0000 		.4byte	.LVL294
 7774 1810 F1230000 		.4byte	0x23f1
 7775 1814 15       		.uleb128 0x15
 7776 1815 700B0000 		.4byte	.LVL295
 7777 1819 30230000 		.4byte	0x2330
 7778 181d 2D180000 		.4byte	0x182d
 7779 1821 16       		.uleb128 0x16
 7780 1822 01       		.uleb128 0x1
 7781 1823 51       		.byte	0x51
 7782 1824 02       		.uleb128 0x2
 7783 1825 08       		.byte	0x8
 7784 1826 24       		.byte	0x24
 7785 1827 16       		.uleb128 0x16
 7786 1828 01       		.uleb128 0x1
 7787 1829 50       		.byte	0x50
 7788 182a 01       		.uleb128 0x1
 7789 182b 31       		.byte	0x31
 7790 182c 00       		.byte	0
 7791 182d 15       		.uleb128 0x15
 7792 182e 8E0B0000 		.4byte	.LVL296
 7793 1832 30230000 		.4byte	0x2330
 7794 1836 46180000 		.4byte	0x1846
 7795 183a 16       		.uleb128 0x16
 7796 183b 01       		.uleb128 0x1
 7797 183c 51       		.byte	0x51
 7798 183d 02       		.uleb128 0x2
 7799 183e 08       		.byte	0x8
 7800 183f 24       		.byte	0x24
ARM GAS  C:\Users\Diego\AppData\Local\Temp\cctVJSXF.s 			page 172


 7801 1840 16       		.uleb128 0x16
 7802 1841 01       		.uleb128 0x1
 7803 1842 50       		.byte	0x50
 7804 1843 01       		.uleb128 0x1
 7805 1844 31       		.byte	0x31
 7806 1845 00       		.byte	0
 7807 1846 15       		.uleb128 0x15
 7808 1847 980B0000 		.4byte	.LVL297
 7809 184b 30230000 		.4byte	0x2330
 7810 184f 5E180000 		.4byte	0x185e
 7811 1853 16       		.uleb128 0x16
 7812 1854 01       		.uleb128 0x1
 7813 1855 51       		.byte	0x51
 7814 1856 01       		.uleb128 0x1
 7815 1857 31       		.byte	0x31
 7816 1858 16       		.uleb128 0x16
 7817 1859 01       		.uleb128 0x1
 7818 185a 50       		.byte	0x50
 7819 185b 01       		.uleb128 0x1
 7820 185c 31       		.byte	0x31
 7821 185d 00       		.byte	0
 7822 185e 15       		.uleb128 0x15
 7823 185f A80B0000 		.4byte	.LVL298
 7824 1863 30230000 		.4byte	0x2330
 7825 1867 76180000 		.4byte	0x1876
 7826 186b 16       		.uleb128 0x16
 7827 186c 01       		.uleb128 0x1
 7828 186d 51       		.byte	0x51
 7829 186e 01       		.uleb128 0x1
 7830 186f 31       		.byte	0x31
 7831 1870 16       		.uleb128 0x16
 7832 1871 01       		.uleb128 0x1
 7833 1872 50       		.byte	0x50
 7834 1873 01       		.uleb128 0x1
 7835 1874 31       		.byte	0x31
 7836 1875 00       		.byte	0
 7837 1876 15       		.uleb128 0x15
 7838 1877 B40B0000 		.4byte	.LVL299
 7839 187b 67230000 		.4byte	0x2367
 7840 187f 89180000 		.4byte	0x1889
 7841 1883 16       		.uleb128 0x16
 7842 1884 01       		.uleb128 0x1
 7843 1885 50       		.byte	0x50
 7844 1886 01       		.uleb128 0x1
 7845 1887 3A       		.byte	0x3a
 7846 1888 00       		.byte	0
 7847 1889 13       		.uleb128 0x13
 7848 188a B80B0000 		.4byte	.LVL300
 7849 188e FC230000 		.4byte	0x23fc
 7850 1892 15       		.uleb128 0x15
 7851 1893 C80B0000 		.4byte	.LVL301
 7852 1897 32240000 		.4byte	0x2432
 7853 189b A5180000 		.4byte	0x18a5
 7854 189f 16       		.uleb128 0x16
 7855 18a0 01       		.uleb128 0x1
 7856 18a1 50       		.byte	0x50
 7857 18a2 01       		.uleb128 0x1
ARM GAS  C:\Users\Diego\AppData\Local\Temp\cctVJSXF.s 			page 173


 7858 18a3 31       		.byte	0x31
 7859 18a4 00       		.byte	0
 7860 18a5 15       		.uleb128 0x15
 7861 18a6 080C0000 		.4byte	.LVL308
 7862 18aa 30230000 		.4byte	0x2330
 7863 18ae BD180000 		.4byte	0x18bd
 7864 18b2 16       		.uleb128 0x16
 7865 18b3 01       		.uleb128 0x1
 7866 18b4 51       		.byte	0x51
 7867 18b5 01       		.uleb128 0x1
 7868 18b6 31       		.byte	0x31
 7869 18b7 16       		.uleb128 0x16
 7870 18b8 01       		.uleb128 0x1
 7871 18b9 50       		.byte	0x50
 7872 18ba 01       		.uleb128 0x1
 7873 18bb 31       		.byte	0x31
 7874 18bc 00       		.byte	0
 7875 18bd 15       		.uleb128 0x15
 7876 18be 320C0000 		.4byte	.LVL315
 7877 18c2 30230000 		.4byte	0x2330
 7878 18c6 D5180000 		.4byte	0x18d5
 7879 18ca 16       		.uleb128 0x16
 7880 18cb 01       		.uleb128 0x1
 7881 18cc 51       		.byte	0x51
 7882 18cd 01       		.uleb128 0x1
 7883 18ce 31       		.byte	0x31
 7884 18cf 16       		.uleb128 0x16
 7885 18d0 01       		.uleb128 0x1
 7886 18d1 50       		.byte	0x50
 7887 18d2 01       		.uleb128 0x1
 7888 18d3 31       		.byte	0x31
 7889 18d4 00       		.byte	0
 7890 18d5 15       		.uleb128 0x15
 7891 18d6 580C0000 		.4byte	.LVL322
 7892 18da 30230000 		.4byte	0x2330
 7893 18de ED180000 		.4byte	0x18ed
 7894 18e2 16       		.uleb128 0x16
 7895 18e3 01       		.uleb128 0x1
 7896 18e4 51       		.byte	0x51
 7897 18e5 01       		.uleb128 0x1
 7898 18e6 31       		.byte	0x31
 7899 18e7 16       		.uleb128 0x16
 7900 18e8 01       		.uleb128 0x1
 7901 18e9 50       		.byte	0x50
 7902 18ea 01       		.uleb128 0x1
 7903 18eb 31       		.byte	0x31
 7904 18ec 00       		.byte	0
 7905 18ed 13       		.uleb128 0x13
 7906 18ee 5C0C0000 		.4byte	.LVL323
 7907 18f2 FC230000 		.4byte	0x23fc
 7908 18f6 15       		.uleb128 0x15
 7909 18f7 9C0C0000 		.4byte	.LVL330
 7910 18fb 30230000 		.4byte	0x2330
 7911 18ff 0E190000 		.4byte	0x190e
 7912 1903 16       		.uleb128 0x16
 7913 1904 01       		.uleb128 0x1
 7914 1905 51       		.byte	0x51
ARM GAS  C:\Users\Diego\AppData\Local\Temp\cctVJSXF.s 			page 174


 7915 1906 01       		.uleb128 0x1
 7916 1907 31       		.byte	0x31
 7917 1908 16       		.uleb128 0x16
 7918 1909 01       		.uleb128 0x1
 7919 190a 50       		.byte	0x50
 7920 190b 01       		.uleb128 0x1
 7921 190c 31       		.byte	0x31
 7922 190d 00       		.byte	0
 7923 190e 15       		.uleb128 0x15
 7924 190f C80C0000 		.4byte	.LVL337
 7925 1913 30230000 		.4byte	0x2330
 7926 1917 27190000 		.4byte	0x1927
 7927 191b 16       		.uleb128 0x16
 7928 191c 01       		.uleb128 0x1
 7929 191d 51       		.byte	0x51
 7930 191e 02       		.uleb128 0x2
 7931 191f 08       		.byte	0x8
 7932 1920 39       		.byte	0x39
 7933 1921 16       		.uleb128 0x16
 7934 1922 01       		.uleb128 0x1
 7935 1923 50       		.byte	0x50
 7936 1924 01       		.uleb128 0x1
 7937 1925 31       		.byte	0x31
 7938 1926 00       		.byte	0
 7939 1927 15       		.uleb128 0x15
 7940 1928 1E0D0000 		.4byte	.LVL344
 7941 192c 30230000 		.4byte	0x2330
 7942 1930 40190000 		.4byte	0x1940
 7943 1934 16       		.uleb128 0x16
 7944 1935 01       		.uleb128 0x1
 7945 1936 51       		.byte	0x51
 7946 1937 02       		.uleb128 0x2
 7947 1938 08       		.byte	0x8
 7948 1939 26       		.byte	0x26
 7949 193a 16       		.uleb128 0x16
 7950 193b 01       		.uleb128 0x1
 7951 193c 50       		.byte	0x50
 7952 193d 01       		.uleb128 0x1
 7953 193e 31       		.byte	0x31
 7954 193f 00       		.byte	0
 7955 1940 15       		.uleb128 0x15
 7956 1941 260D0000 		.4byte	.LVL345
 7957 1945 67230000 		.4byte	0x2367
 7958 1949 55190000 		.4byte	0x1955
 7959 194d 16       		.uleb128 0x16
 7960 194e 01       		.uleb128 0x1
 7961 194f 50       		.byte	0x50
 7962 1950 03       		.uleb128 0x3
 7963 1951 0A       		.byte	0xa
 7964 1952 BC02     		.2byte	0x2bc
 7965 1954 00       		.byte	0
 7966 1955 15       		.uleb128 0x15
 7967 1956 340D0000 		.4byte	.LVL346
 7968 195a 30230000 		.4byte	0x2330
 7969 195e 6E190000 		.4byte	0x196e
 7970 1962 16       		.uleb128 0x16
 7971 1963 01       		.uleb128 0x1
ARM GAS  C:\Users\Diego\AppData\Local\Temp\cctVJSXF.s 			page 175


 7972 1964 51       		.byte	0x51
 7973 1965 02       		.uleb128 0x2
 7974 1966 08       		.byte	0x8
 7975 1967 5A       		.byte	0x5a
 7976 1968 16       		.uleb128 0x16
 7977 1969 01       		.uleb128 0x1
 7978 196a 50       		.byte	0x50
 7979 196b 01       		.uleb128 0x1
 7980 196c 31       		.byte	0x31
 7981 196d 00       		.byte	0
 7982 196e 15       		.uleb128 0x15
 7983 196f 3E0D0000 		.4byte	.LVL347
 7984 1973 30230000 		.4byte	0x2330
 7985 1977 87190000 		.4byte	0x1987
 7986 197b 16       		.uleb128 0x16
 7987 197c 01       		.uleb128 0x1
 7988 197d 51       		.byte	0x51
 7989 197e 02       		.uleb128 0x2
 7990 197f 08       		.byte	0x8
 7991 1980 27       		.byte	0x27
 7992 1981 16       		.uleb128 0x16
 7993 1982 01       		.uleb128 0x1
 7994 1983 50       		.byte	0x50
 7995 1984 01       		.uleb128 0x1
 7996 1985 31       		.byte	0x31
 7997 1986 00       		.byte	0
 7998 1987 15       		.uleb128 0x15
 7999 1988 460D0000 		.4byte	.LVL348
 8000 198c 67230000 		.4byte	0x2367
 8001 1990 9C190000 		.4byte	0x199c
 8002 1994 16       		.uleb128 0x16
 8003 1995 01       		.uleb128 0x1
 8004 1996 50       		.byte	0x50
 8005 1997 03       		.uleb128 0x3
 8006 1998 0A       		.byte	0xa
 8007 1999 BC02     		.2byte	0x2bc
 8008 199b 00       		.byte	0
 8009 199c 15       		.uleb128 0x15
 8010 199d 540D0000 		.4byte	.LVL349
 8011 19a1 30230000 		.4byte	0x2330
 8012 19a5 B4190000 		.4byte	0x19b4
 8013 19a9 16       		.uleb128 0x16
 8014 19aa 01       		.uleb128 0x1
 8015 19ab 51       		.byte	0x51
 8016 19ac 01       		.uleb128 0x1
 8017 19ad 31       		.byte	0x31
 8018 19ae 16       		.uleb128 0x16
 8019 19af 01       		.uleb128 0x1
 8020 19b0 50       		.byte	0x50
 8021 19b1 01       		.uleb128 0x1
 8022 19b2 31       		.byte	0x31
 8023 19b3 00       		.byte	0
 8024 19b4 13       		.uleb128 0x13
 8025 19b5 580D0000 		.4byte	.LVL350
 8026 19b9 FC230000 		.4byte	0x23fc
 8027 19bd 13       		.uleb128 0x13
 8028 19be 840D0000 		.4byte	.LVL351
ARM GAS  C:\Users\Diego\AppData\Local\Temp\cctVJSXF.s 			page 176


 8029 19c2 F1230000 		.4byte	0x23f1
 8030 19c6 15       		.uleb128 0x15
 8031 19c7 E80D0000 		.4byte	.LVL352
 8032 19cb 30230000 		.4byte	0x2330
 8033 19cf DE190000 		.4byte	0x19de
 8034 19d3 16       		.uleb128 0x16
 8035 19d4 01       		.uleb128 0x1
 8036 19d5 51       		.byte	0x51
 8037 19d6 01       		.uleb128 0x1
 8038 19d7 36       		.byte	0x36
 8039 19d8 16       		.uleb128 0x16
 8040 19d9 01       		.uleb128 0x1
 8041 19da 50       		.byte	0x50
 8042 19db 01       		.uleb128 0x1
 8043 19dc 31       		.byte	0x31
 8044 19dd 00       		.byte	0
 8045 19de 15       		.uleb128 0x15
 8046 19df 060E0000 		.4byte	.LVL353
 8047 19e3 30230000 		.4byte	0x2330
 8048 19e7 F7190000 		.4byte	0x19f7
 8049 19eb 16       		.uleb128 0x16
 8050 19ec 01       		.uleb128 0x1
 8051 19ed 51       		.byte	0x51
 8052 19ee 02       		.uleb128 0x2
 8053 19ef 08       		.byte	0x8
 8054 19f0 6B       		.byte	0x6b
 8055 19f1 16       		.uleb128 0x16
 8056 19f2 01       		.uleb128 0x1
 8057 19f3 50       		.byte	0x50
 8058 19f4 01       		.uleb128 0x1
 8059 19f5 31       		.byte	0x31
 8060 19f6 00       		.byte	0
 8061 19f7 15       		.uleb128 0x15
 8062 19f8 240E0000 		.4byte	.LVL354
 8063 19fc 30230000 		.4byte	0x2330
 8064 1a00 0F1A0000 		.4byte	0x1a0f
 8065 1a04 16       		.uleb128 0x16
 8066 1a05 01       		.uleb128 0x1
 8067 1a06 51       		.byte	0x51
 8068 1a07 01       		.uleb128 0x1
 8069 1a08 36       		.byte	0x36
 8070 1a09 16       		.uleb128 0x16
 8071 1a0a 01       		.uleb128 0x1
 8072 1a0b 50       		.byte	0x50
 8073 1a0c 01       		.uleb128 0x1
 8074 1a0d 31       		.byte	0x31
 8075 1a0e 00       		.byte	0
 8076 1a0f 15       		.uleb128 0x15
 8077 1a10 420E0000 		.4byte	.LVL355
 8078 1a14 30230000 		.4byte	0x2330
 8079 1a18 281A0000 		.4byte	0x1a28
 8080 1a1c 16       		.uleb128 0x16
 8081 1a1d 01       		.uleb128 0x1
 8082 1a1e 51       		.byte	0x51
 8083 1a1f 02       		.uleb128 0x2
 8084 1a20 08       		.byte	0x8
 8085 1a21 3E       		.byte	0x3e
ARM GAS  C:\Users\Diego\AppData\Local\Temp\cctVJSXF.s 			page 177


 8086 1a22 16       		.uleb128 0x16
 8087 1a23 01       		.uleb128 0x1
 8088 1a24 50       		.byte	0x50
 8089 1a25 01       		.uleb128 0x1
 8090 1a26 31       		.byte	0x31
 8091 1a27 00       		.byte	0
 8092 1a28 15       		.uleb128 0x15
 8093 1a29 4C0E0000 		.4byte	.LVL356
 8094 1a2d 30230000 		.4byte	0x2330
 8095 1a31 401A0000 		.4byte	0x1a40
 8096 1a35 16       		.uleb128 0x16
 8097 1a36 01       		.uleb128 0x1
 8098 1a37 51       		.byte	0x51
 8099 1a38 01       		.uleb128 0x1
 8100 1a39 31       		.byte	0x31
 8101 1a3a 16       		.uleb128 0x16
 8102 1a3b 01       		.uleb128 0x1
 8103 1a3c 50       		.byte	0x50
 8104 1a3d 01       		.uleb128 0x1
 8105 1a3e 31       		.byte	0x31
 8106 1a3f 00       		.byte	0
 8107 1a40 15       		.uleb128 0x15
 8108 1a41 5C0E0000 		.4byte	.LVL357
 8109 1a45 30230000 		.4byte	0x2330
 8110 1a49 581A0000 		.4byte	0x1a58
 8111 1a4d 16       		.uleb128 0x16
 8112 1a4e 01       		.uleb128 0x1
 8113 1a4f 51       		.byte	0x51
 8114 1a50 01       		.uleb128 0x1
 8115 1a51 31       		.byte	0x31
 8116 1a52 16       		.uleb128 0x16
 8117 1a53 01       		.uleb128 0x1
 8118 1a54 50       		.byte	0x50
 8119 1a55 01       		.uleb128 0x1
 8120 1a56 31       		.byte	0x31
 8121 1a57 00       		.byte	0
 8122 1a58 15       		.uleb128 0x15
 8123 1a59 680E0000 		.4byte	.LVL358
 8124 1a5d 67230000 		.4byte	0x2367
 8125 1a61 6B1A0000 		.4byte	0x1a6b
 8126 1a65 16       		.uleb128 0x16
 8127 1a66 01       		.uleb128 0x1
 8128 1a67 50       		.byte	0x50
 8129 1a68 01       		.uleb128 0x1
 8130 1a69 3A       		.byte	0x3a
 8131 1a6a 00       		.byte	0
 8132 1a6b 13       		.uleb128 0x13
 8133 1a6c 6C0E0000 		.4byte	.LVL359
 8134 1a70 FC230000 		.4byte	0x23fc
 8135 1a74 00       		.byte	0
 8136 1a75 12       		.uleb128 0x12
 8137 1a76 B8080000 		.4byte	.LASF167
 8138 1a7a 01       		.byte	0x1
 8139 1a7b B903     		.2byte	0x3b9
 8140 1a7d 00000000 		.4byte	.LFB72
 8141 1a81 2C030000 		.4byte	.LFE72-.LFB72
 8142 1a85 01       		.uleb128 0x1
ARM GAS  C:\Users\Diego\AppData\Local\Temp\cctVJSXF.s 			page 178


 8143 1a86 9C       		.byte	0x9c
 8144 1a87 6F1D0000 		.4byte	0x1d6f
 8145 1a8b 13       		.uleb128 0x13
 8146 1a8c 22000000 		.4byte	.LVL360
 8147 1a90 6F0B0000 		.4byte	0xb6f
 8148 1a94 15       		.uleb128 0x15
 8149 1a95 32000000 		.4byte	.LVL361
 8150 1a99 3C250000 		.4byte	0x253c
 8151 1a9d AD1A0000 		.4byte	0x1aad
 8152 1aa1 16       		.uleb128 0x16
 8153 1aa2 01       		.uleb128 0x1
 8154 1aa3 51       		.byte	0x51
 8155 1aa4 02       		.uleb128 0x2
 8156 1aa5 08       		.byte	0x8
 8157 1aa6 23       		.byte	0x23
 8158 1aa7 16       		.uleb128 0x16
 8159 1aa8 01       		.uleb128 0x1
 8160 1aa9 50       		.byte	0x50
 8161 1aaa 01       		.uleb128 0x1
 8162 1aab 32       		.byte	0x32
 8163 1aac 00       		.byte	0
 8164 1aad 13       		.uleb128 0x13
 8165 1aae 36000000 		.4byte	.LVL362
 8166 1ab2 52250000 		.4byte	0x2552
 8167 1ab6 15       		.uleb128 0x15
 8168 1ab7 76000000 		.4byte	.LVL363
 8169 1abb 30230000 		.4byte	0x2330
 8170 1abf CE1A0000 		.4byte	0x1ace
 8171 1ac3 16       		.uleb128 0x16
 8172 1ac4 01       		.uleb128 0x1
 8173 1ac5 51       		.byte	0x51
 8174 1ac6 01       		.uleb128 0x1
 8175 1ac7 34       		.byte	0x34
 8176 1ac8 16       		.uleb128 0x16
 8177 1ac9 01       		.uleb128 0x1
 8178 1aca 50       		.byte	0x50
 8179 1acb 01       		.uleb128 0x1
 8180 1acc 32       		.byte	0x32
 8181 1acd 00       		.byte	0
 8182 1ace 15       		.uleb128 0x15
 8183 1acf 80000000 		.4byte	.LVL364
 8184 1ad3 30230000 		.4byte	0x2330
 8185 1ad7 E61A0000 		.4byte	0x1ae6
 8186 1adb 16       		.uleb128 0x16
 8187 1adc 01       		.uleb128 0x1
 8188 1add 51       		.byte	0x51
 8189 1ade 01       		.uleb128 0x1
 8190 1adf 31       		.byte	0x31
 8191 1ae0 16       		.uleb128 0x16
 8192 1ae1 01       		.uleb128 0x1
 8193 1ae2 50       		.byte	0x50
 8194 1ae3 01       		.uleb128 0x1
 8195 1ae4 32       		.byte	0x32
 8196 1ae5 00       		.byte	0
 8197 1ae6 15       		.uleb128 0x15
 8198 1ae7 8C000000 		.4byte	.LVL365
 8199 1aeb 67230000 		.4byte	0x2367
ARM GAS  C:\Users\Diego\AppData\Local\Temp\cctVJSXF.s 			page 179


 8200 1aef F91A0000 		.4byte	0x1af9
 8201 1af3 16       		.uleb128 0x16
 8202 1af4 01       		.uleb128 0x1
 8203 1af5 50       		.byte	0x50
 8204 1af6 01       		.uleb128 0x1
 8205 1af7 3A       		.byte	0x3a
 8206 1af8 00       		.byte	0
 8207 1af9 13       		.uleb128 0x13
 8208 1afa 90000000 		.4byte	.LVL366
 8209 1afe 5D250000 		.4byte	0x255d
 8210 1b02 13       		.uleb128 0x13
 8211 1b03 96000000 		.4byte	.LVL367
 8212 1b07 52250000 		.4byte	0x2552
 8213 1b0b 15       		.uleb128 0x15
 8214 1b0c E8000000 		.4byte	.LVL368
 8215 1b10 30230000 		.4byte	0x2330
 8216 1b14 231B0000 		.4byte	0x1b23
 8217 1b18 16       		.uleb128 0x16
 8218 1b19 01       		.uleb128 0x1
 8219 1b1a 51       		.byte	0x51
 8220 1b1b 01       		.uleb128 0x1
 8221 1b1c 35       		.byte	0x35
 8222 1b1d 16       		.uleb128 0x16
 8223 1b1e 01       		.uleb128 0x1
 8224 1b1f 50       		.byte	0x50
 8225 1b20 01       		.uleb128 0x1
 8226 1b21 32       		.byte	0x32
 8227 1b22 00       		.byte	0
 8228 1b23 15       		.uleb128 0x15
 8229 1b24 F8000000 		.4byte	.LVL369
 8230 1b28 30230000 		.4byte	0x2330
 8231 1b2c 3C1B0000 		.4byte	0x1b3c
 8232 1b30 16       		.uleb128 0x16
 8233 1b31 01       		.uleb128 0x1
 8234 1b32 51       		.byte	0x51
 8235 1b33 02       		.uleb128 0x2
 8236 1b34 08       		.byte	0x8
 8237 1b35 85       		.byte	0x85
 8238 1b36 16       		.uleb128 0x16
 8239 1b37 01       		.uleb128 0x1
 8240 1b38 50       		.byte	0x50
 8241 1b39 01       		.uleb128 0x1
 8242 1b3a 32       		.byte	0x32
 8243 1b3b 00       		.byte	0
 8244 1b3c 15       		.uleb128 0x15
 8245 1b3d 08010000 		.4byte	.LVL370
 8246 1b41 30230000 		.4byte	0x2330
 8247 1b45 551B0000 		.4byte	0x1b55
 8248 1b49 16       		.uleb128 0x16
 8249 1b4a 01       		.uleb128 0x1
 8250 1b4b 51       		.byte	0x51
 8251 1b4c 02       		.uleb128 0x2
 8252 1b4d 08       		.byte	0x8
 8253 1b4e 83       		.byte	0x83
 8254 1b4f 16       		.uleb128 0x16
 8255 1b50 01       		.uleb128 0x1
 8256 1b51 50       		.byte	0x50
ARM GAS  C:\Users\Diego\AppData\Local\Temp\cctVJSXF.s 			page 180


 8257 1b52 01       		.uleb128 0x1
 8258 1b53 32       		.byte	0x32
 8259 1b54 00       		.byte	0
 8260 1b55 15       		.uleb128 0x15
 8261 1b56 18010000 		.4byte	.LVL371
 8262 1b5a 30230000 		.4byte	0x2330
 8263 1b5e 6D1B0000 		.4byte	0x1b6d
 8264 1b62 16       		.uleb128 0x16
 8265 1b63 01       		.uleb128 0x1
 8266 1b64 51       		.byte	0x51
 8267 1b65 01       		.uleb128 0x1
 8268 1b66 31       		.byte	0x31
 8269 1b67 16       		.uleb128 0x16
 8270 1b68 01       		.uleb128 0x1
 8271 1b69 50       		.byte	0x50
 8272 1b6a 01       		.uleb128 0x1
 8273 1b6b 32       		.byte	0x32
 8274 1b6c 00       		.byte	0
 8275 1b6d 15       		.uleb128 0x15
 8276 1b6e 28010000 		.4byte	.LVL372
 8277 1b72 30230000 		.4byte	0x2330
 8278 1b76 851B0000 		.4byte	0x1b85
 8279 1b7a 16       		.uleb128 0x16
 8280 1b7b 01       		.uleb128 0x1
 8281 1b7c 51       		.byte	0x51
 8282 1b7d 01       		.uleb128 0x1
 8283 1b7e 31       		.byte	0x31
 8284 1b7f 16       		.uleb128 0x16
 8285 1b80 01       		.uleb128 0x1
 8286 1b81 50       		.byte	0x50
 8287 1b82 01       		.uleb128 0x1
 8288 1b83 32       		.byte	0x32
 8289 1b84 00       		.byte	0
 8290 1b85 15       		.uleb128 0x15
 8291 1b86 2E010000 		.4byte	.LVL373
 8292 1b8a 67230000 		.4byte	0x2367
 8293 1b8e 981B0000 		.4byte	0x1b98
 8294 1b92 16       		.uleb128 0x16
 8295 1b93 01       		.uleb128 0x1
 8296 1b94 50       		.byte	0x50
 8297 1b95 01       		.uleb128 0x1
 8298 1b96 3A       		.byte	0x3a
 8299 1b97 00       		.byte	0
 8300 1b98 13       		.uleb128 0x13
 8301 1b99 32010000 		.4byte	.LVL374
 8302 1b9d 5D250000 		.4byte	0x255d
 8303 1ba1 13       		.uleb128 0x13
 8304 1ba2 38010000 		.4byte	.LVL375
 8305 1ba6 52250000 		.4byte	0x2552
 8306 1baa 15       		.uleb128 0x15
 8307 1bab 8E010000 		.4byte	.LVL376
 8308 1baf 30230000 		.4byte	0x2330
 8309 1bb3 C21B0000 		.4byte	0x1bc2
 8310 1bb7 16       		.uleb128 0x16
 8311 1bb8 01       		.uleb128 0x1
 8312 1bb9 51       		.byte	0x51
 8313 1bba 01       		.uleb128 0x1
ARM GAS  C:\Users\Diego\AppData\Local\Temp\cctVJSXF.s 			page 181


 8314 1bbb 36       		.byte	0x36
 8315 1bbc 16       		.uleb128 0x16
 8316 1bbd 01       		.uleb128 0x1
 8317 1bbe 50       		.byte	0x50
 8318 1bbf 01       		.uleb128 0x1
 8319 1bc0 32       		.byte	0x32
 8320 1bc1 00       		.byte	0
 8321 1bc2 15       		.uleb128 0x15
 8322 1bc3 9E010000 		.4byte	.LVL377
 8323 1bc7 30230000 		.4byte	0x2330
 8324 1bcb DA1B0000 		.4byte	0x1bda
 8325 1bcf 16       		.uleb128 0x16
 8326 1bd0 01       		.uleb128 0x1
 8327 1bd1 51       		.byte	0x51
 8328 1bd2 01       		.uleb128 0x1
 8329 1bd3 3D       		.byte	0x3d
 8330 1bd4 16       		.uleb128 0x16
 8331 1bd5 01       		.uleb128 0x1
 8332 1bd6 50       		.byte	0x50
 8333 1bd7 01       		.uleb128 0x1
 8334 1bd8 32       		.byte	0x32
 8335 1bd9 00       		.byte	0
 8336 1bda 15       		.uleb128 0x15
 8337 1bdb AE010000 		.4byte	.LVL378
 8338 1bdf 30230000 		.4byte	0x2330
 8339 1be3 F21B0000 		.4byte	0x1bf2
 8340 1be7 16       		.uleb128 0x16
 8341 1be8 01       		.uleb128 0x1
 8342 1be9 51       		.byte	0x51
 8343 1bea 01       		.uleb128 0x1
 8344 1beb 3B       		.byte	0x3b
 8345 1bec 16       		.uleb128 0x16
 8346 1bed 01       		.uleb128 0x1
 8347 1bee 50       		.byte	0x50
 8348 1bef 01       		.uleb128 0x1
 8349 1bf0 32       		.byte	0x32
 8350 1bf1 00       		.byte	0
 8351 1bf2 15       		.uleb128 0x15
 8352 1bf3 BE010000 		.4byte	.LVL379
 8353 1bf7 30230000 		.4byte	0x2330
 8354 1bfb 0A1C0000 		.4byte	0x1c0a
 8355 1bff 16       		.uleb128 0x16
 8356 1c00 01       		.uleb128 0x1
 8357 1c01 51       		.byte	0x51
 8358 1c02 01       		.uleb128 0x1
 8359 1c03 31       		.byte	0x31
 8360 1c04 16       		.uleb128 0x16
 8361 1c05 01       		.uleb128 0x1
 8362 1c06 50       		.byte	0x50
 8363 1c07 01       		.uleb128 0x1
 8364 1c08 32       		.byte	0x32
 8365 1c09 00       		.byte	0
 8366 1c0a 15       		.uleb128 0x15
 8367 1c0b CE010000 		.4byte	.LVL380
 8368 1c0f 30230000 		.4byte	0x2330
 8369 1c13 221C0000 		.4byte	0x1c22
 8370 1c17 16       		.uleb128 0x16
ARM GAS  C:\Users\Diego\AppData\Local\Temp\cctVJSXF.s 			page 182


 8371 1c18 01       		.uleb128 0x1
 8372 1c19 51       		.byte	0x51
 8373 1c1a 01       		.uleb128 0x1
 8374 1c1b 31       		.byte	0x31
 8375 1c1c 16       		.uleb128 0x16
 8376 1c1d 01       		.uleb128 0x1
 8377 1c1e 50       		.byte	0x50
 8378 1c1f 01       		.uleb128 0x1
 8379 1c20 32       		.byte	0x32
 8380 1c21 00       		.byte	0
 8381 1c22 15       		.uleb128 0x15
 8382 1c23 DE010000 		.4byte	.LVL381
 8383 1c27 30230000 		.4byte	0x2330
 8384 1c2b 3A1C0000 		.4byte	0x1c3a
 8385 1c2f 16       		.uleb128 0x16
 8386 1c30 01       		.uleb128 0x1
 8387 1c31 51       		.byte	0x51
 8388 1c32 01       		.uleb128 0x1
 8389 1c33 31       		.byte	0x31
 8390 1c34 16       		.uleb128 0x16
 8391 1c35 01       		.uleb128 0x1
 8392 1c36 50       		.byte	0x50
 8393 1c37 01       		.uleb128 0x1
 8394 1c38 32       		.byte	0x32
 8395 1c39 00       		.byte	0
 8396 1c3a 15       		.uleb128 0x15
 8397 1c3b E4010000 		.4byte	.LVL382
 8398 1c3f 67230000 		.4byte	0x2367
 8399 1c43 4D1C0000 		.4byte	0x1c4d
 8400 1c47 16       		.uleb128 0x16
 8401 1c48 01       		.uleb128 0x1
 8402 1c49 50       		.byte	0x50
 8403 1c4a 01       		.uleb128 0x1
 8404 1c4b 3A       		.byte	0x3a
 8405 1c4c 00       		.byte	0
 8406 1c4d 13       		.uleb128 0x13
 8407 1c4e E8010000 		.4byte	.LVL383
 8408 1c52 5D250000 		.4byte	0x255d
 8409 1c56 13       		.uleb128 0x13
 8410 1c57 EE010000 		.4byte	.LVL384
 8411 1c5b 52250000 		.4byte	0x2552
 8412 1c5f 15       		.uleb128 0x15
 8413 1c60 2E020000 		.4byte	.LVL385
 8414 1c64 30230000 		.4byte	0x2330
 8415 1c68 771C0000 		.4byte	0x1c77
 8416 1c6c 16       		.uleb128 0x16
 8417 1c6d 01       		.uleb128 0x1
 8418 1c6e 51       		.byte	0x51
 8419 1c6f 01       		.uleb128 0x1
 8420 1c70 31       		.byte	0x31
 8421 1c71 16       		.uleb128 0x16
 8422 1c72 01       		.uleb128 0x1
 8423 1c73 50       		.byte	0x50
 8424 1c74 01       		.uleb128 0x1
 8425 1c75 32       		.byte	0x32
 8426 1c76 00       		.byte	0
 8427 1c77 15       		.uleb128 0x15
ARM GAS  C:\Users\Diego\AppData\Local\Temp\cctVJSXF.s 			page 183


 8428 1c78 3E020000 		.4byte	.LVL386
 8429 1c7c 30230000 		.4byte	0x2330
 8430 1c80 8F1C0000 		.4byte	0x1c8f
 8431 1c84 16       		.uleb128 0x16
 8432 1c85 01       		.uleb128 0x1
 8433 1c86 51       		.byte	0x51
 8434 1c87 01       		.uleb128 0x1
 8435 1c88 31       		.byte	0x31
 8436 1c89 16       		.uleb128 0x16
 8437 1c8a 01       		.uleb128 0x1
 8438 1c8b 50       		.byte	0x50
 8439 1c8c 01       		.uleb128 0x1
 8440 1c8d 32       		.byte	0x32
 8441 1c8e 00       		.byte	0
 8442 1c8f 15       		.uleb128 0x15
 8443 1c90 44020000 		.4byte	.LVL387
 8444 1c94 67230000 		.4byte	0x2367
 8445 1c98 A21C0000 		.4byte	0x1ca2
 8446 1c9c 16       		.uleb128 0x16
 8447 1c9d 01       		.uleb128 0x1
 8448 1c9e 50       		.byte	0x50
 8449 1c9f 01       		.uleb128 0x1
 8450 1ca0 3A       		.byte	0x3a
 8451 1ca1 00       		.byte	0
 8452 1ca2 13       		.uleb128 0x13
 8453 1ca3 48020000 		.4byte	.LVL388
 8454 1ca7 5D250000 		.4byte	0x255d
 8455 1cab 13       		.uleb128 0x13
 8456 1cac 4E020000 		.4byte	.LVL389
 8457 1cb0 52250000 		.4byte	0x2552
 8458 1cb4 15       		.uleb128 0x15
 8459 1cb5 8C020000 		.4byte	.LVL390
 8460 1cb9 30230000 		.4byte	0x2330
 8461 1cbd CC1C0000 		.4byte	0x1ccc
 8462 1cc1 16       		.uleb128 0x16
 8463 1cc2 01       		.uleb128 0x1
 8464 1cc3 51       		.byte	0x51
 8465 1cc4 01       		.uleb128 0x1
 8466 1cc5 31       		.byte	0x31
 8467 1cc6 16       		.uleb128 0x16
 8468 1cc7 01       		.uleb128 0x1
 8469 1cc8 50       		.byte	0x50
 8470 1cc9 01       		.uleb128 0x1
 8471 1cca 32       		.byte	0x32
 8472 1ccb 00       		.byte	0
 8473 1ccc 15       		.uleb128 0x15
 8474 1ccd 9C020000 		.4byte	.LVL391
 8475 1cd1 30230000 		.4byte	0x2330
 8476 1cd5 E41C0000 		.4byte	0x1ce4
 8477 1cd9 16       		.uleb128 0x16
 8478 1cda 01       		.uleb128 0x1
 8479 1cdb 51       		.byte	0x51
 8480 1cdc 01       		.uleb128 0x1
 8481 1cdd 31       		.byte	0x31
 8482 1cde 16       		.uleb128 0x16
 8483 1cdf 01       		.uleb128 0x1
 8484 1ce0 50       		.byte	0x50
ARM GAS  C:\Users\Diego\AppData\Local\Temp\cctVJSXF.s 			page 184


 8485 1ce1 01       		.uleb128 0x1
 8486 1ce2 32       		.byte	0x32
 8487 1ce3 00       		.byte	0
 8488 1ce4 15       		.uleb128 0x15
 8489 1ce5 A2020000 		.4byte	.LVL392
 8490 1ce9 67230000 		.4byte	0x2367
 8491 1ced F71C0000 		.4byte	0x1cf7
 8492 1cf1 16       		.uleb128 0x16
 8493 1cf2 01       		.uleb128 0x1
 8494 1cf3 50       		.byte	0x50
 8495 1cf4 01       		.uleb128 0x1
 8496 1cf5 3A       		.byte	0x3a
 8497 1cf6 00       		.byte	0
 8498 1cf7 13       		.uleb128 0x13
 8499 1cf8 A6020000 		.4byte	.LVL393
 8500 1cfc 5D250000 		.4byte	0x255d
 8501 1d00 13       		.uleb128 0x13
 8502 1d01 B4020000 		.4byte	.LVL394
 8503 1d05 52250000 		.4byte	0x2552
 8504 1d09 15       		.uleb128 0x15
 8505 1d0a F2020000 		.4byte	.LVL395
 8506 1d0e 30230000 		.4byte	0x2330
 8507 1d12 211D0000 		.4byte	0x1d21
 8508 1d16 16       		.uleb128 0x16
 8509 1d17 01       		.uleb128 0x1
 8510 1d18 51       		.byte	0x51
 8511 1d19 01       		.uleb128 0x1
 8512 1d1a 3A       		.byte	0x3a
 8513 1d1b 16       		.uleb128 0x16
 8514 1d1c 01       		.uleb128 0x1
 8515 1d1d 50       		.byte	0x50
 8516 1d1e 01       		.uleb128 0x1
 8517 1d1f 32       		.byte	0x32
 8518 1d20 00       		.byte	0
 8519 1d21 15       		.uleb128 0x15
 8520 1d22 02030000 		.4byte	.LVL396
 8521 1d26 30230000 		.4byte	0x2330
 8522 1d2a 3A1D0000 		.4byte	0x1d3a
 8523 1d2e 16       		.uleb128 0x16
 8524 1d2f 01       		.uleb128 0x1
 8525 1d30 51       		.byte	0x51
 8526 1d31 02       		.uleb128 0x2
 8527 1d32 08       		.byte	0x8
 8528 1d33 86       		.byte	0x86
 8529 1d34 16       		.uleb128 0x16
 8530 1d35 01       		.uleb128 0x1
 8531 1d36 50       		.byte	0x50
 8532 1d37 01       		.uleb128 0x1
 8533 1d38 32       		.byte	0x32
 8534 1d39 00       		.byte	0
 8535 1d3a 15       		.uleb128 0x15
 8536 1d3b 12030000 		.4byte	.LVL397
 8537 1d3f 30230000 		.4byte	0x2330
 8538 1d43 521D0000 		.4byte	0x1d52
 8539 1d47 16       		.uleb128 0x16
 8540 1d48 01       		.uleb128 0x1
 8541 1d49 51       		.byte	0x51
ARM GAS  C:\Users\Diego\AppData\Local\Temp\cctVJSXF.s 			page 185


 8542 1d4a 01       		.uleb128 0x1
 8543 1d4b 31       		.byte	0x31
 8544 1d4c 16       		.uleb128 0x16
 8545 1d4d 01       		.uleb128 0x1
 8546 1d4e 50       		.byte	0x50
 8547 1d4f 01       		.uleb128 0x1
 8548 1d50 32       		.byte	0x32
 8549 1d51 00       		.byte	0
 8550 1d52 15       		.uleb128 0x15
 8551 1d53 1E030000 		.4byte	.LVL398
 8552 1d57 67230000 		.4byte	0x2367
 8553 1d5b 651D0000 		.4byte	0x1d65
 8554 1d5f 16       		.uleb128 0x16
 8555 1d60 01       		.uleb128 0x1
 8556 1d61 50       		.byte	0x50
 8557 1d62 01       		.uleb128 0x1
 8558 1d63 3A       		.byte	0x3a
 8559 1d64 00       		.byte	0
 8560 1d65 13       		.uleb128 0x13
 8561 1d66 22030000 		.4byte	.LVL399
 8562 1d6a 5D250000 		.4byte	0x255d
 8563 1d6e 00       		.byte	0
 8564 1d6f 12       		.uleb128 0x12
 8565 1d70 150C0000 		.4byte	.LASF168
 8566 1d74 01       		.byte	0x1
 8567 1d75 7C04     		.2byte	0x47c
 8568 1d77 00000000 		.4byte	.LFB74
 8569 1d7b 14000000 		.4byte	.LFE74-.LFB74
 8570 1d7f 01       		.uleb128 0x1
 8571 1d80 9C       		.byte	0x9c
 8572 1d81 8F1D0000 		.4byte	0x1d8f
 8573 1d85 13       		.uleb128 0x13
 8574 1d86 06000000 		.4byte	.LVL400
 8575 1d8a 64250000 		.4byte	0x2564
 8576 1d8e 00       		.byte	0
 8577 1d8f 1D       		.uleb128 0x1d
 8578 1d90 D80F0000 		.4byte	.LASF169
 8579 1d94 01       		.byte	0x1
 8580 1d95 8204     		.2byte	0x482
 8581 1d97 7E000000 		.4byte	0x7e
 8582 1d9b 00000000 		.4byte	.LFB75
 8583 1d9f 84000000 		.4byte	.LFE75-.LFB75
 8584 1da3 01       		.uleb128 0x1
 8585 1da4 9C       		.byte	0x9c
 8586 1da5 3B1E0000 		.4byte	0x1e3b
 8587 1da9 1B       		.uleb128 0x1b
 8588 1daa 7800     		.ascii	"x\000"
 8589 1dac 01       		.byte	0x1
 8590 1dad 8404     		.2byte	0x484
 8591 1daf AD000000 		.4byte	0xad
 8592 1db3 53030000 		.4byte	.LLST5
 8593 1db7 13       		.uleb128 0x13
 8594 1db8 08000000 		.4byte	.LVL401
 8595 1dbc 4C070000 		.4byte	0x74c
 8596 1dc0 15       		.uleb128 0x15
 8597 1dc1 32000000 		.4byte	.LVL406
 8598 1dc5 01230000 		.4byte	0x2301
ARM GAS  C:\Users\Diego\AppData\Local\Temp\cctVJSXF.s 			page 186


 8599 1dc9 D91D0000 		.4byte	0x1dd9
 8600 1dcd 16       		.uleb128 0x16
 8601 1dce 01       		.uleb128 0x1
 8602 1dcf 51       		.byte	0x51
 8603 1dd0 01       		.uleb128 0x1
 8604 1dd1 38       		.byte	0x38
 8605 1dd2 16       		.uleb128 0x16
 8606 1dd3 01       		.uleb128 0x1
 8607 1dd4 50       		.byte	0x50
 8608 1dd5 02       		.uleb128 0x2
 8609 1dd6 74       		.byte	0x74
 8610 1dd7 00       		.sleb128 0
 8611 1dd8 00       		.byte	0
 8612 1dd9 13       		.uleb128 0x13
 8613 1dda 38000000 		.4byte	.LVL407
 8614 1dde 4B080000 		.4byte	0x84b
 8615 1de2 13       		.uleb128 0x13
 8616 1de3 3C000000 		.4byte	.LVL408
 8617 1de7 EB0B0000 		.4byte	0xbeb
 8618 1deb 15       		.uleb128 0x15
 8619 1dec 4A000000 		.4byte	.LVL409
 8620 1df0 6F250000 		.4byte	0x256f
 8621 1df4 041E0000 		.4byte	0x1e04
 8622 1df8 16       		.uleb128 0x16
 8623 1df9 01       		.uleb128 0x1
 8624 1dfa 51       		.byte	0x51
 8625 1dfb 02       		.uleb128 0x2
 8626 1dfc 74       		.byte	0x74
 8627 1dfd 00       		.sleb128 0
 8628 1dfe 16       		.uleb128 0x16
 8629 1dff 01       		.uleb128 0x1
 8630 1e00 50       		.byte	0x50
 8631 1e01 01       		.uleb128 0x1
 8632 1e02 33       		.byte	0x33
 8633 1e03 00       		.byte	0
 8634 1e04 13       		.uleb128 0x13
 8635 1e05 4E000000 		.4byte	.LVL410
 8636 1e09 85250000 		.4byte	0x2585
 8637 1e0d 13       		.uleb128 0x13
 8638 1e0e 58000000 		.4byte	.LVL411
 8639 1e12 270E0000 		.4byte	0xe27
 8640 1e16 13       		.uleb128 0x13
 8641 1e17 5C000000 		.4byte	.LVL412
 8642 1e1b 85250000 		.4byte	0x2585
 8643 1e1f 13       		.uleb128 0x13
 8644 1e20 60000000 		.4byte	.LVL413
 8645 1e24 2D0F0000 		.4byte	0xf2d
 8646 1e28 13       		.uleb128 0x13
 8647 1e29 64000000 		.4byte	.LVL414
 8648 1e2d 85250000 		.4byte	0x2585
 8649 1e31 13       		.uleb128 0x13
 8650 1e32 68000000 		.4byte	.LVL415
 8651 1e36 751A0000 		.4byte	0x1a75
 8652 1e3a 00       		.byte	0
 8653 1e3b 09       		.uleb128 0x9
 8654 1e3c AD000000 		.4byte	0xad
 8655 1e40 4B1E0000 		.4byte	0x1e4b
ARM GAS  C:\Users\Diego\AppData\Local\Temp\cctVJSXF.s 			page 187


 8656 1e44 0A       		.uleb128 0xa
 8657 1e45 27010000 		.4byte	0x127
 8658 1e49 1F       		.byte	0x1f
 8659 1e4a 00       		.byte	0
 8660 1e4b 1E       		.uleb128 0x1e
 8661 1e4c DD0F0000 		.4byte	.LASF170
 8662 1e50 06       		.byte	0x6
 8663 1e51 3E01     		.2byte	0x13e
 8664 1e53 571E0000 		.4byte	0x1e57
 8665 1e57 06       		.uleb128 0x6
 8666 1e58 3B1E0000 		.4byte	0x1e3b
 8667 1e5c 1E       		.uleb128 0x1e
 8668 1e5d 7B020000 		.4byte	.LASF171
 8669 1e61 07       		.byte	0x7
 8670 1e62 3E01     		.2byte	0x13e
 8671 1e64 681E0000 		.4byte	0x1e68
 8672 1e68 06       		.uleb128 0x6
 8673 1e69 3B1E0000 		.4byte	0x1e3b
 8674 1e6d 1E       		.uleb128 0x1e
 8675 1e6e 850A0000 		.4byte	.LASF172
 8676 1e72 08       		.byte	0x8
 8677 1e73 5506     		.2byte	0x655
 8678 1e75 791E0000 		.4byte	0x1e79
 8679 1e79 06       		.uleb128 0x6
 8680 1e7a A2000000 		.4byte	0xa2
 8681 1e7e 1F       		.uleb128 0x1f
 8682 1e7f A2070000 		.4byte	.LASF173
 8683 1e83 05       		.byte	0x5
 8684 1e84 2C       		.byte	0x2c
 8685 1e85 8F1E0000 		.4byte	0x1e8f
 8686 1e89 05       		.uleb128 0x5
 8687 1e8a 03       		.byte	0x3
 8688 1e8b 00000000 		.4byte	countAnimation1
 8689 1e8f 06       		.uleb128 0x6
 8690 1e90 DF000000 		.4byte	0xdf
 8691 1e94 1F       		.uleb128 0x1f
 8692 1e95 FF070000 		.4byte	.LASF174
 8693 1e99 05       		.byte	0x5
 8694 1e9a 2D       		.byte	0x2d
 8695 1e9b 8F1E0000 		.4byte	0x1e8f
 8696 1e9f 05       		.uleb128 0x5
 8697 1ea0 03       		.byte	0x3
 8698 1ea1 00000000 		.4byte	countAnimation2
 8699 1ea5 1F       		.uleb128 0x1f
 8700 1ea6 09060000 		.4byte	.LASF175
 8701 1eaa 05       		.byte	0x5
 8702 1eab 2E       		.byte	0x2e
 8703 1eac 8F1E0000 		.4byte	0x1e8f
 8704 1eb0 05       		.uleb128 0x5
 8705 1eb1 03       		.byte	0x3
 8706 1eb2 00000000 		.4byte	countBeagleTX
 8707 1eb6 1F       		.uleb128 0x1f
 8708 1eb7 A60F0000 		.4byte	.LASF176
 8709 1ebb 05       		.byte	0x5
 8710 1ebc 2F       		.byte	0x2f
 8711 1ebd 8F1E0000 		.4byte	0x1e8f
 8712 1ec1 05       		.uleb128 0x5
ARM GAS  C:\Users\Diego\AppData\Local\Temp\cctVJSXF.s 			page 188


 8713 1ec2 03       		.byte	0x3
 8714 1ec3 00000000 		.4byte	countPump
 8715 1ec7 1F       		.uleb128 0x1f
 8716 1ec8 E1040000 		.4byte	.LASF177
 8717 1ecc 05       		.byte	0x5
 8718 1ecd 30       		.byte	0x30
 8719 1ece 0F010000 		.4byte	0x10f
 8720 1ed2 05       		.uleb128 0x5
 8721 1ed3 03       		.byte	0x3
 8722 1ed4 00000000 		.4byte	flowDisplay1
 8723 1ed8 1F       		.uleb128 0x1f
 8724 1ed9 0A0B0000 		.4byte	.LASF178
 8725 1edd 05       		.byte	0x5
 8726 1ede 31       		.byte	0x31
 8727 1edf 0F010000 		.4byte	0x10f
 8728 1ee3 05       		.uleb128 0x5
 8729 1ee4 03       		.byte	0x3
 8730 1ee5 00000000 		.4byte	flowDisplay2
 8731 1ee9 1F       		.uleb128 0x1f
 8732 1eea 2E0B0000 		.4byte	.LASF179
 8733 1eee 05       		.byte	0x5
 8734 1eef 32       		.byte	0x32
 8735 1ef0 0F010000 		.4byte	0x10f
 8736 1ef4 05       		.uleb128 0x5
 8737 1ef5 03       		.byte	0x3
 8738 1ef6 00000000 		.4byte	flowDisplay3
 8739 1efa 1F       		.uleb128 0x1f
 8740 1efb 08050000 		.4byte	.LASF180
 8741 1eff 05       		.byte	0x5
 8742 1f00 33       		.byte	0x33
 8743 1f01 0F010000 		.4byte	0x10f
 8744 1f05 05       		.uleb128 0x5
 8745 1f06 03       		.byte	0x3
 8746 1f07 00000000 		.4byte	flowDisplay4
 8747 1f0b 1F       		.uleb128 0x1f
 8748 1f0c E4050000 		.4byte	.LASF181
 8749 1f10 05       		.byte	0x5
 8750 1f11 34       		.byte	0x34
 8751 1f12 0A010000 		.4byte	0x10a
 8752 1f16 05       		.uleb128 0x5
 8753 1f17 03       		.byte	0x3
 8754 1f18 00000000 		.4byte	numberKeys1
 8755 1f1c 1F       		.uleb128 0x1f
 8756 1f1d F0050000 		.4byte	.LASF182
 8757 1f21 05       		.byte	0x5
 8758 1f22 35       		.byte	0x35
 8759 1f23 0A010000 		.4byte	0x10a
 8760 1f27 05       		.uleb128 0x5
 8761 1f28 03       		.byte	0x3
 8762 1f29 00000000 		.4byte	numberKeys2
 8763 1f2d 1F       		.uleb128 0x1f
 8764 1f2e CE090000 		.4byte	.LASF183
 8765 1f32 05       		.byte	0x5
 8766 1f33 36       		.byte	0x36
 8767 1f34 0A010000 		.4byte	0x10a
 8768 1f38 05       		.uleb128 0x5
 8769 1f39 03       		.byte	0x3
ARM GAS  C:\Users\Diego\AppData\Local\Temp\cctVJSXF.s 			page 189


 8770 1f3a 00000000 		.4byte	flagPoint1
 8771 1f3e 1F       		.uleb128 0x1f
 8772 1f3f 8D020000 		.4byte	.LASF184
 8773 1f43 05       		.byte	0x5
 8774 1f44 37       		.byte	0x37
 8775 1f45 0A010000 		.4byte	0x10a
 8776 1f49 05       		.uleb128 0x5
 8777 1f4a 03       		.byte	0x3
 8778 1f4b 00000000 		.4byte	flagPoint2
 8779 1f4f 1F       		.uleb128 0x1f
 8780 1f50 53040000 		.4byte	.LASF185
 8781 1f54 05       		.byte	0x5
 8782 1f55 38       		.byte	0x38
 8783 1f56 0A010000 		.4byte	0x10a
 8784 1f5a 05       		.uleb128 0x5
 8785 1f5b 03       		.byte	0x3
 8786 1f5c 00000000 		.4byte	productNumber
 8787 1f60 1F       		.uleb128 0x1f
 8788 1f61 200C0000 		.4byte	.LASF186
 8789 1f65 05       		.byte	0x5
 8790 1f66 39       		.byte	0x39
 8791 1f67 0F010000 		.4byte	0x10f
 8792 1f6b 05       		.uleb128 0x5
 8793 1f6c 03       		.byte	0x3
 8794 1f6d 00000000 		.4byte	delayPicture1
 8795 1f71 1F       		.uleb128 0x1f
 8796 1f72 2E0C0000 		.4byte	.LASF187
 8797 1f76 05       		.byte	0x5
 8798 1f77 3A       		.byte	0x3a
 8799 1f78 0F010000 		.4byte	0x10f
 8800 1f7c 05       		.uleb128 0x5
 8801 1f7d 03       		.byte	0x3
 8802 1f7e 00000000 		.4byte	delayPicture2
 8803 1f82 1F       		.uleb128 0x1f
 8804 1f83 9F090000 		.4byte	.LASF188
 8805 1f87 05       		.byte	0x5
 8806 1f88 3B       		.byte	0x3b
 8807 1f89 0A010000 		.4byte	0x10a
 8808 1f8d 05       		.uleb128 0x5
 8809 1f8e 03       		.byte	0x3
 8810 1f8f 00000000 		.4byte	ppux10
 8811 1f93 1F       		.uleb128 0x1f
 8812 1f94 5C010000 		.4byte	.LASF189
 8813 1f98 05       		.byte	0x5
 8814 1f99 3C       		.byte	0x3c
 8815 1f9a 0A010000 		.4byte	0x10a
 8816 1f9e 05       		.uleb128 0x5
 8817 1f9f 03       		.byte	0x3
 8818 1fa0 00000000 		.4byte	decimalMoney
 8819 1fa4 1F       		.uleb128 0x1f
 8820 1fa5 7F000000 		.4byte	.LASF190
 8821 1fa9 05       		.byte	0x5
 8822 1faa 3D       		.byte	0x3d
 8823 1fab 0A010000 		.4byte	0x10a
 8824 1faf 05       		.uleb128 0x5
 8825 1fb0 03       		.byte	0x3
 8826 1fb1 00000000 		.4byte	decimalVolume
ARM GAS  C:\Users\Diego\AppData\Local\Temp\cctVJSXF.s 			page 190


 8827 1fb5 1F       		.uleb128 0x1f
 8828 1fb6 EB090000 		.4byte	.LASF191
 8829 1fba 05       		.byte	0x5
 8830 1fbb 3E       		.byte	0x3e
 8831 1fbc C61F0000 		.4byte	0x1fc6
 8832 1fc0 05       		.uleb128 0x5
 8833 1fc1 03       		.byte	0x3
 8834 1fc2 00000000 		.4byte	symbols
 8835 1fc6 06       		.uleb128 0x6
 8836 1fc7 F7030000 		.4byte	0x3f7
 8837 1fcb 09       		.uleb128 0x9
 8838 1fcc AD000000 		.4byte	0xad
 8839 1fd0 DB1F0000 		.4byte	0x1fdb
 8840 1fd4 0A       		.uleb128 0xa
 8841 1fd5 27010000 		.4byte	0x127
 8842 1fd9 02       		.byte	0x2
 8843 1fda 00       		.byte	0
 8844 1fdb 1F       		.uleb128 0x1f
 8845 1fdc 38040000 		.4byte	.LASF192
 8846 1fe0 05       		.byte	0x5
 8847 1fe1 3F       		.byte	0x3f
 8848 1fe2 EC1F0000 		.4byte	0x1fec
 8849 1fe6 05       		.uleb128 0x5
 8850 1fe7 03       		.byte	0x3
 8851 1fe8 00000000 		.4byte	time
 8852 1fec 06       		.uleb128 0x6
 8853 1fed CB1F0000 		.4byte	0x1fcb
 8854 1ff1 1F       		.uleb128 0x1f
 8855 1ff2 64060000 		.4byte	.LASF193
 8856 1ff6 05       		.byte	0x5
 8857 1ff7 40       		.byte	0x40
 8858 1ff8 02200000 		.4byte	0x2002
 8859 1ffc 05       		.uleb128 0x5
 8860 1ffd 03       		.byte	0x3
 8861 1ffe 00000000 		.4byte	date
 8862 2002 06       		.uleb128 0x6
 8863 2003 CB1F0000 		.4byte	0x1fcb
 8864 2007 1F       		.uleb128 0x1f
 8865 2008 98020000 		.4byte	.LASF194
 8866 200c 05       		.byte	0x5
 8867 200d 41       		.byte	0x41
 8868 200e 18200000 		.4byte	0x2018
 8869 2012 05       		.uleb128 0x5
 8870 2013 03       		.byte	0x3
 8871 2014 00000000 		.4byte	screen
 8872 2018 06       		.uleb128 0x6
 8873 2019 F7030000 		.4byte	0x3f7
 8874 201d 1F       		.uleb128 0x1f
 8875 201e DB010000 		.4byte	.LASF195
 8876 2022 05       		.byte	0x5
 8877 2023 42       		.byte	0x42
 8878 2024 2E200000 		.4byte	0x202e
 8879 2028 05       		.uleb128 0x5
 8880 2029 03       		.byte	0x3
 8881 202a 00000000 		.4byte	residue
 8882 202e 06       		.uleb128 0x6
 8883 202f 3D040000 		.4byte	0x43d
ARM GAS  C:\Users\Diego\AppData\Local\Temp\cctVJSXF.s 			page 191


 8884 2033 09       		.uleb128 0x9
 8885 2034 AD000000 		.4byte	0xad
 8886 2038 43200000 		.4byte	0x2043
 8887 203c 0A       		.uleb128 0xa
 8888 203d 27010000 		.4byte	0x127
 8889 2041 1D       		.byte	0x1d
 8890 2042 00       		.byte	0
 8891 2043 1F       		.uleb128 0x1f
 8892 2044 9B0E0000 		.4byte	.LASF196
 8893 2048 05       		.byte	0x5
 8894 2049 43       		.byte	0x43
 8895 204a 33200000 		.4byte	0x2033
 8896 204e 05       		.uleb128 0x5
 8897 204f 03       		.byte	0x3
 8898 2050 00000000 		.4byte	temporal
 8899 2054 1F       		.uleb128 0x1f
 8900 2055 61040000 		.4byte	.LASF197
 8901 2059 05       		.byte	0x5
 8902 205a 44       		.byte	0x44
 8903 205b 65200000 		.4byte	0x2065
 8904 205f 05       		.uleb128 0x5
 8905 2060 03       		.byte	0x3
 8906 2061 00000000 		.4byte	idSeller
 8907 2065 06       		.uleb128 0x6
 8908 2066 C7030000 		.4byte	0x3c7
 8909 206a 1F       		.uleb128 0x1f
 8910 206b DF0E0000 		.4byte	.LASF198
 8911 206f 05       		.byte	0x5
 8912 2070 45       		.byte	0x45
 8913 2071 0A010000 		.4byte	0x10a
 8914 2075 05       		.uleb128 0x5
 8915 2076 03       		.byte	0x3
 8916 2077 00000000 		.4byte	typeIdSeller
 8917 207b 09       		.uleb128 0x9
 8918 207c AD000000 		.4byte	0xad
 8919 2080 8B200000 		.4byte	0x208b
 8920 2084 0A       		.uleb128 0xa
 8921 2085 27010000 		.4byte	0x127
 8922 2089 07       		.byte	0x7
 8923 208a 00       		.byte	0
 8924 208b 1F       		.uleb128 0x1f
 8925 208c E50B0000 		.4byte	.LASF199
 8926 2090 05       		.byte	0x5
 8927 2091 46       		.byte	0x46
 8928 2092 9C200000 		.4byte	0x209c
 8929 2096 05       		.uleb128 0x5
 8930 2097 03       		.byte	0x3
 8931 2098 00000000 		.4byte	passwordSeller
 8932 209c 06       		.uleb128 0x6
 8933 209d 7B200000 		.4byte	0x207b
 8934 20a1 1F       		.uleb128 0x1f
 8935 20a2 C8080000 		.4byte	.LASF200
 8936 20a6 05       		.byte	0x5
 8937 20a7 47       		.byte	0x47
 8938 20a8 0A010000 		.4byte	0x10a
 8939 20ac 05       		.uleb128 0x5
 8940 20ad 03       		.byte	0x3
ARM GAS  C:\Users\Diego\AppData\Local\Temp\cctVJSXF.s 			page 192


 8941 20ae 00000000 		.4byte	flagResetMux
 8942 20b2 1F       		.uleb128 0x1f
 8943 20b3 CA070000 		.4byte	.LASF201
 8944 20b7 05       		.byte	0x5
 8945 20b8 48       		.byte	0x48
 8946 20b9 0A010000 		.4byte	0x10a
 8947 20bd 05       		.uleb128 0x5
 8948 20be 03       		.byte	0x3
 8949 20bf 00000000 		.4byte	stateBeagleSoft
 8950 20c3 1F       		.uleb128 0x1f
 8951 20c4 8D000000 		.4byte	.LASF202
 8952 20c8 05       		.byte	0x5
 8953 20c9 49       		.byte	0x49
 8954 20ca D4200000 		.4byte	0x20d4
 8955 20ce 05       		.uleb128 0x5
 8956 20cf 03       		.byte	0x3
 8957 20d0 00000000 		.4byte	PrevStatePump
 8958 20d4 06       		.uleb128 0x6
 8959 20d5 2E010000 		.4byte	0x12e
 8960 20d9 1F       		.uleb128 0x1f
 8961 20da 06030000 		.4byte	.LASF203
 8962 20de 05       		.byte	0x5
 8963 20df 4A       		.byte	0x4a
 8964 20e0 0A010000 		.4byte	0x10a
 8965 20e4 05       		.uleb128 0x5
 8966 20e5 03       		.byte	0x3
 8967 20e6 00000000 		.4byte	PlateRequest
 8968 20ea 1F       		.uleb128 0x1f
 8969 20eb 050C0000 		.4byte	.LASF204
 8970 20ef 05       		.byte	0x5
 8971 20f0 4C       		.byte	0x4c
 8972 20f1 AD000000 		.4byte	0xad
 8973 20f5 05       		.uleb128 0x5
 8974 20f6 03       		.byte	0x3
 8975 20f7 00000000 		.4byte	UnitType
 8976 20fb 1F       		.uleb128 0x1f
 8977 20fc D3050000 		.4byte	.LASF205
 8978 2100 05       		.byte	0x5
 8979 2101 4C       		.byte	0x4c
 8980 2102 AD000000 		.4byte	0xad
 8981 2106 05       		.uleb128 0x5
 8982 2107 03       		.byte	0x3
 8983 2108 00000000 		.4byte	ConversionFactor
 8984 210c 1F       		.uleb128 0x1f
 8985 210d C7020000 		.4byte	.LASF206
 8986 2111 05       		.byte	0x5
 8987 2112 4C       		.byte	0x4c
 8988 2113 AD000000 		.4byte	0xad
 8989 2117 05       		.uleb128 0x5
 8990 2118 03       		.byte	0x3
 8991 2119 00000000 		.4byte	MoneyDec
 8992 211d 1F       		.uleb128 0x1f
 8993 211e A40E0000 		.4byte	.LASF207
 8994 2122 05       		.byte	0x5
 8995 2123 4C       		.byte	0x4c
 8996 2124 AD000000 		.4byte	0xad
 8997 2128 05       		.uleb128 0x5
ARM GAS  C:\Users\Diego\AppData\Local\Temp\cctVJSXF.s 			page 193


 8998 2129 03       		.byte	0x3
 8999 212a 00000000 		.4byte	VolDec
 9000 212e 1F       		.uleb128 0x1f
 9001 212f 740C0000 		.4byte	.LASF208
 9002 2133 05       		.byte	0x5
 9003 2134 4C       		.byte	0x4c
 9004 2135 AD000000 		.4byte	0xad
 9005 2139 05       		.uleb128 0x5
 9006 213a 03       		.byte	0x3
 9007 213b 00000000 		.4byte	PPUDec
 9008 213f 1F       		.uleb128 0x1f
 9009 2140 05020000 		.4byte	.LASF209
 9010 2144 05       		.byte	0x5
 9011 2145 4C       		.byte	0x4c
 9012 2146 AD000000 		.4byte	0xad
 9013 214a 05       		.uleb128 0x5
 9014 214b 03       		.byte	0x3
 9015 214c 00000000 		.4byte	DDMode
 9016 2150 1F       		.uleb128 0x1f
 9017 2151 28010000 		.4byte	.LASF210
 9018 2155 05       		.byte	0x5
 9019 2156 4D       		.byte	0x4d
 9020 2157 2E010000 		.4byte	0x12e
 9021 215b 05       		.uleb128 0x5
 9022 215c 03       		.byte	0x3
 9023 215d 00000000 		.4byte	statePump
 9024 2161 1F       		.uleb128 0x1f
 9025 2162 B2070000 		.4byte	.LASF211
 9026 2166 05       		.byte	0x5
 9027 2167 4E       		.byte	0x4e
 9028 2168 AD000000 		.4byte	0xad
 9029 216c 05       		.uleb128 0x5
 9030 216d 03       		.byte	0x3
 9031 216e 00000000 		.4byte	NumPositions
 9032 2172 1F       		.uleb128 0x1f
 9033 2173 73040000 		.4byte	.LASF212
 9034 2177 05       		.byte	0x5
 9035 2178 4F       		.byte	0x4f
 9036 2179 AD000000 		.4byte	0xad
 9037 217d 05       		.uleb128 0x5
 9038 217e 03       		.byte	0x3
 9039 217f 00000000 		.4byte	lockTurn
 9040 2183 1F       		.uleb128 0x1f
 9041 2184 28040000 		.4byte	.LASF213
 9042 2188 05       		.byte	0x5
 9043 2189 50       		.byte	0x50
 9044 218a AD000000 		.4byte	0xad
 9045 218e 05       		.uleb128 0x5
 9046 218f 03       		.byte	0x3
 9047 2190 00000000 		.4byte	digits
 9048 2194 1F       		.uleb128 0x1f
 9049 2195 69060000 		.4byte	.LASF214
 9050 2199 05       		.byte	0x5
 9051 219a 51       		.byte	0x51
 9052 219b AD000000 		.4byte	0xad
 9053 219f 05       		.uleb128 0x5
 9054 21a0 03       		.byte	0x3
ARM GAS  C:\Users\Diego\AppData\Local\Temp\cctVJSXF.s 			page 194


 9055 21a1 00000000 		.4byte	hiddenKeys
 9056 21a5 1F       		.uleb128 0x1f
 9057 21a6 90010000 		.4byte	.LASF215
 9058 21aa 05       		.byte	0x5
 9059 21ab 52       		.byte	0x52
 9060 21ac AD000000 		.4byte	0xad
 9061 21b0 05       		.uleb128 0x5
 9062 21b1 03       		.byte	0x3
 9063 21b2 00000000 		.4byte	PrinterType
 9064 21b6 09       		.uleb128 0x9
 9065 21b7 EB000000 		.4byte	0xeb
 9066 21bb C6210000 		.4byte	0x21c6
 9067 21bf 0A       		.uleb128 0xa
 9068 21c0 27010000 		.4byte	0x127
 9069 21c4 05       		.byte	0x5
 9070 21c5 00       		.byte	0
 9071 21c6 1F       		.uleb128 0x1f
 9072 21c7 E00C0000 		.4byte	.LASF216
 9073 21cb 05       		.byte	0x5
 9074 21cc 53       		.byte	0x53
 9075 21cd B6210000 		.4byte	0x21b6
 9076 21d1 05       		.uleb128 0x5
 9077 21d2 03       		.byte	0x3
 9078 21d3 00000000 		.4byte	VolUnit
 9079 21d7 1F       		.uleb128 0x1f
 9080 21d8 2F0A0000 		.4byte	.LASF217
 9081 21dc 05       		.byte	0x5
 9082 21dd 54       		.byte	0x54
 9083 21de CB1F0000 		.4byte	0x1fcb
 9084 21e2 05       		.uleb128 0x5
 9085 21e3 03       		.byte	0x3
 9086 21e4 00000000 		.4byte	dateDownHandle
 9087 21e8 1F       		.uleb128 0x1f
 9088 21e9 88080000 		.4byte	.LASF218
 9089 21ed 05       		.byte	0x5
 9090 21ee 55       		.byte	0x55
 9091 21ef F7030000 		.4byte	0x3f7
 9092 21f3 05       		.uleb128 0x5
 9093 21f4 03       		.byte	0x3
 9094 21f5 00000000 		.4byte	timeDownHandle
 9095 21f9 1F       		.uleb128 0x1f
 9096 21fa 830F0000 		.4byte	.LASF219
 9097 21fe 05       		.byte	0x5
 9098 21ff 56       		.byte	0x56
 9099 2200 AD000000 		.4byte	0xad
 9100 2204 05       		.uleb128 0x5
 9101 2205 03       		.byte	0x3
 9102 2206 00000000 		.4byte	count_protector
 9103 220a 1F       		.uleb128 0x1f
 9104 220b 6E000000 		.4byte	.LASF220
 9105 220f 05       		.byte	0x5
 9106 2210 56       		.byte	0x56
 9107 2211 AD000000 		.4byte	0xad
 9108 2215 05       		.uleb128 0x5
 9109 2216 03       		.byte	0x3
 9110 2217 00000000 		.4byte	count_protector2
 9111 221b 1F       		.uleb128 0x1f
ARM GAS  C:\Users\Diego\AppData\Local\Temp\cctVJSXF.s 			page 195


 9112 221c F1030000 		.4byte	.LASF221
 9113 2220 05       		.byte	0x5
 9114 2221 57       		.byte	0x57
 9115 2222 1D040000 		.4byte	0x41d
 9116 2226 05       		.uleb128 0x5
 9117 2227 03       		.byte	0x3
 9118 2228 00000000 		.4byte	configAccess
 9119 222c 1F       		.uleb128 0x1f
 9120 222d 9F020000 		.4byte	.LASF222
 9121 2231 05       		.byte	0x5
 9122 2232 58       		.byte	0x58
 9123 2233 AD000000 		.4byte	0xad
 9124 2237 05       		.uleb128 0x5
 9125 2238 03       		.byte	0x3
 9126 2239 00000000 		.4byte	controlChar
 9127 223d 1F       		.uleb128 0x1f
 9128 223e 41020000 		.4byte	.LASF223
 9129 2242 05       		.byte	0x5
 9130 2243 59       		.byte	0x59
 9131 2244 2E010000 		.4byte	0x12e
 9132 2248 05       		.uleb128 0x5
 9133 2249 03       		.byte	0x3
 9134 224a 00000000 		.4byte	idStation
 9135 224e 1F       		.uleb128 0x1f
 9136 224f B8100000 		.4byte	.LASF224
 9137 2253 05       		.byte	0x5
 9138 2254 99       		.byte	0x99
 9139 2255 3E010000 		.4byte	0x13e
 9140 2259 05       		.uleb128 0x5
 9141 225a 03       		.byte	0x3
 9142 225b 00000000 		.4byte	bufferDisplay1
 9143 225f 1F       		.uleb128 0x1f
 9144 2260 960B0000 		.4byte	.LASF225
 9145 2264 05       		.byte	0x5
 9146 2265 9A       		.byte	0x9a
 9147 2266 3E010000 		.4byte	0x13e
 9148 226a 05       		.uleb128 0x5
 9149 226b 03       		.byte	0x3
 9150 226c 00000000 		.4byte	bufferDisplay2
 9151 2270 1F       		.uleb128 0x1f
 9152 2271 A50B0000 		.4byte	.LASF226
 9153 2275 05       		.byte	0x5
 9154 2276 9B       		.byte	0x9b
 9155 2277 3E010000 		.4byte	0x13e
 9156 227b 05       		.uleb128 0x5
 9157 227c 03       		.byte	0x3
 9158 227d 00000000 		.4byte	bufferDisplay3
 9159 2281 1F       		.uleb128 0x1f
 9160 2282 D0100000 		.4byte	.LASF227
 9161 2286 05       		.byte	0x5
 9162 2287 9C       		.byte	0x9c
 9163 2288 3E010000 		.4byte	0x13e
 9164 228c 05       		.uleb128 0x5
 9165 228d 03       		.byte	0x3
 9166 228e 00000000 		.4byte	bufferDisplay4
 9167 2292 1F       		.uleb128 0x1f
 9168 2293 0C020000 		.4byte	.LASF228
ARM GAS  C:\Users\Diego\AppData\Local\Temp\cctVJSXF.s 			page 196


 9169 2297 05       		.byte	0x5
 9170 2298 BB       		.byte	0xbb
 9171 2299 7A050000 		.4byte	0x57a
 9172 229d 05       		.uleb128 0x5
 9173 229e 03       		.byte	0x3
 9174 229f 00000000 		.4byte	side
 9175 22a3 1F       		.uleb128 0x1f
 9176 22a4 1C020000 		.4byte	.LASF229
 9177 22a8 01       		.byte	0x1
 9178 22a9 18       		.byte	0x18
 9179 22aa D7030000 		.4byte	0x3d7
 9180 22ae 05       		.uleb128 0x5
 9181 22af 03       		.byte	0x3
 9182 22b0 00000000 		.4byte	MuxVersion
 9183 22b4 1F       		.uleb128 0x1f
 9184 22b5 4F010000 		.4byte	.LASF230
 9185 22b9 01       		.byte	0x1
 9186 22ba 19       		.byte	0x19
 9187 22bb 1D040000 		.4byte	0x41d
 9188 22bf 05       		.uleb128 0x5
 9189 22c0 03       		.byte	0x3
 9190 22c1 00000000 		.4byte	passwordPump
 9191 22c5 20       		.uleb128 0x20
 9192 22c6 AA000000 		.4byte	.LASF243
 9193 22ca 10       		.byte	0x10
 9194 22cb 5E       		.byte	0x5e
 9195 22cc AD000000 		.4byte	0xad
 9196 22d0 21       		.uleb128 0x21
 9197 22d1 15050000 		.4byte	.LASF231
 9198 22d5 09       		.byte	0x9
 9199 22d6 1F       		.byte	0x1f
 9200 22d7 21       		.uleb128 0x21
 9201 22d8 17060000 		.4byte	.LASF232
 9202 22dc 0A       		.byte	0xa
 9203 22dd 54       		.byte	0x54
 9204 22de 21       		.uleb128 0x21
 9205 22df A6040000 		.4byte	.LASF233
 9206 22e3 06       		.byte	0x6
 9207 22e4 54       		.byte	0x54
 9208 22e5 21       		.uleb128 0x21
 9209 22e6 01070000 		.4byte	.LASF234
 9210 22ea 07       		.byte	0x7
 9211 22eb 54       		.byte	0x54
 9212 22ec 21       		.uleb128 0x21
 9213 22ed 53100000 		.4byte	.LASF235
 9214 22f1 0B       		.byte	0xb
 9215 22f2 54       		.byte	0x54
 9216 22f3 21       		.uleb128 0x21
 9217 22f4 51020000 		.4byte	.LASF236
 9218 22f8 0C       		.byte	0xc
 9219 22f9 AC       		.byte	0xac
 9220 22fa 21       		.uleb128 0x21
 9221 22fb 63090000 		.4byte	.LASF237
 9222 22ff 0D       		.byte	0xd
 9223 2300 54       		.byte	0x54
 9224 2301 22       		.uleb128 0x22
 9225 2302 28070000 		.4byte	.LASF238
ARM GAS  C:\Users\Diego\AppData\Local\Temp\cctVJSXF.s 			page 197


 9226 2306 09       		.byte	0x9
 9227 2307 21       		.byte	0x21
 9228 2308 FE000000 		.4byte	0xfe
 9229 230c 1B230000 		.4byte	0x231b
 9230 2310 23       		.uleb128 0x23
 9231 2311 AD000000 		.4byte	0xad
 9232 2315 23       		.uleb128 0x23
 9233 2316 B9000000 		.4byte	0xb9
 9234 231a 00       		.byte	0
 9235 231b 22       		.uleb128 0x22
 9236 231c 80050000 		.4byte	.LASF239
 9237 2320 09       		.byte	0x9
 9238 2321 23       		.byte	0x23
 9239 2322 AD000000 		.4byte	0xad
 9240 2326 30230000 		.4byte	0x2330
 9241 232a 23       		.uleb128 0x23
 9242 232b B9000000 		.4byte	0xb9
 9243 232f 00       		.byte	0
 9244 2330 24       		.uleb128 0x24
 9245 2331 36090000 		.4byte	.LASF240
 9246 2335 0E       		.byte	0xe
 9247 2336 22       		.byte	0x22
 9248 2337 46230000 		.4byte	0x2346
 9249 233b 23       		.uleb128 0x23
 9250 233c AD000000 		.4byte	0xad
 9251 2340 23       		.uleb128 0x23
 9252 2341 B9000000 		.4byte	0xb9
 9253 2345 00       		.byte	0
 9254 2346 24       		.uleb128 0x24
 9255 2347 D40C0000 		.4byte	.LASF241
 9256 234b 0E       		.byte	0xe
 9257 234c 29       		.byte	0x29
 9258 234d 61230000 		.4byte	0x2361
 9259 2351 23       		.uleb128 0x23
 9260 2352 AD000000 		.4byte	0xad
 9261 2356 23       		.uleb128 0x23
 9262 2357 61230000 		.4byte	0x2361
 9263 235b 23       		.uleb128 0x23
 9264 235c AD000000 		.4byte	0xad
 9265 2360 00       		.byte	0
 9266 2361 07       		.uleb128 0x7
 9267 2362 04       		.byte	0x4
 9268 2363 AD000000 		.4byte	0xad
 9269 2367 24       		.uleb128 0x24
 9270 2368 00000000 		.4byte	.LASF242
 9271 236c 0F       		.byte	0xf
 9272 236d 77       		.byte	0x77
 9273 236e 78230000 		.4byte	0x2378
 9274 2372 23       		.uleb128 0x23
 9275 2373 C5000000 		.4byte	0xc5
 9276 2377 00       		.byte	0
 9277 2378 20       		.uleb128 0x20
 9278 2379 24050000 		.4byte	.LASF244
 9279 237d 11       		.byte	0x11
 9280 237e 23       		.byte	0x23
 9281 237f AD000000 		.4byte	0xad
 9282 2383 22       		.uleb128 0x22
ARM GAS  C:\Users\Diego\AppData\Local\Temp\cctVJSXF.s 			page 198


 9283 2384 520D0000 		.4byte	.LASF245
 9284 2388 11       		.byte	0x11
 9285 2389 22       		.byte	0x22
 9286 238a AD000000 		.4byte	0xad
 9287 238e 98230000 		.4byte	0x2398
 9288 2392 23       		.uleb128 0x23
 9289 2393 AD000000 		.4byte	0xad
 9290 2397 00       		.byte	0
 9291 2398 22       		.uleb128 0x22
 9292 2399 3B070000 		.4byte	.LASF246
 9293 239d 11       		.byte	0x11
 9294 239e 2D       		.byte	0x2d
 9295 239f AD230000 		.4byte	0x23ad
 9296 23a3 AD230000 		.4byte	0x23ad
 9297 23a7 23       		.uleb128 0x23
 9298 23a8 AD000000 		.4byte	0xad
 9299 23ac 00       		.byte	0
 9300 23ad 02       		.uleb128 0x2
 9301 23ae 01       		.byte	0x1
 9302 23af 02       		.byte	0x2
 9303 23b0 B5040000 		.4byte	.LASF247
 9304 23b4 22       		.uleb128 0x22
 9305 23b5 97080000 		.4byte	.LASF248
 9306 23b9 11       		.byte	0x11
 9307 23ba 29       		.byte	0x29
 9308 23bb AD000000 		.4byte	0xad
 9309 23bf C9230000 		.4byte	0x23c9
 9310 23c3 23       		.uleb128 0x23
 9311 23c4 AD000000 		.4byte	0xad
 9312 23c8 00       		.byte	0
 9313 23c9 22       		.uleb128 0x22
 9314 23ca DC020000 		.4byte	.LASF249
 9315 23ce 12       		.byte	0x12
 9316 23cf 27       		.byte	0x27
 9317 23d0 AD000000 		.4byte	0xad
 9318 23d4 E3230000 		.4byte	0x23e3
 9319 23d8 23       		.uleb128 0x23
 9320 23d9 AD000000 		.4byte	0xad
 9321 23dd 23       		.uleb128 0x23
 9322 23de AD000000 		.4byte	0xad
 9323 23e2 00       		.byte	0
 9324 23e3 21       		.uleb128 0x21
 9325 23e4 BF070000 		.4byte	.LASF250
 9326 23e8 13       		.byte	0x13
 9327 23e9 19       		.byte	0x19
 9328 23ea 21       		.uleb128 0x21
 9329 23eb 1A0A0000 		.4byte	.LASF251
 9330 23ef 10       		.byte	0x10
 9331 23f0 5B       		.byte	0x5b
 9332 23f1 20       		.uleb128 0x20
 9333 23f2 680E0000 		.4byte	.LASF252
 9334 23f6 06       		.byte	0x6
 9335 23f7 73       		.byte	0x73
 9336 23f8 AD000000 		.4byte	0xad
 9337 23fc 21       		.uleb128 0x21
 9338 23fd 3C100000 		.4byte	.LASF253
 9339 2401 06       		.byte	0x6
ARM GAS  C:\Users\Diego\AppData\Local\Temp\cctVJSXF.s 			page 199


 9340 2402 75       		.byte	0x75
 9341 2403 24       		.uleb128 0x24
 9342 2404 A1030000 		.4byte	.LASF254
 9343 2408 0E       		.byte	0xe
 9344 2409 24       		.byte	0x24
 9345 240a 32240000 		.4byte	0x2432
 9346 240e 23       		.uleb128 0x23
 9347 240f 8C000000 		.4byte	0x8c
 9348 2413 23       		.uleb128 0x23
 9349 2414 8C000000 		.4byte	0x8c
 9350 2418 23       		.uleb128 0x23
 9351 2419 97000000 		.4byte	0x97
 9352 241d 23       		.uleb128 0x23
 9353 241e 97000000 		.4byte	0x97
 9354 2422 23       		.uleb128 0x23
 9355 2423 8C000000 		.4byte	0x8c
 9356 2427 23       		.uleb128 0x23
 9357 2428 97000000 		.4byte	0x97
 9358 242c 23       		.uleb128 0x23
 9359 242d 8C000000 		.4byte	0x8c
 9360 2431 00       		.byte	0
 9361 2432 22       		.uleb128 0x22
 9362 2433 39010000 		.4byte	.LASF255
 9363 2437 14       		.byte	0x14
 9364 2438 15       		.byte	0x15
 9365 2439 AD000000 		.4byte	0xad
 9366 243d 51240000 		.4byte	0x2451
 9367 2441 23       		.uleb128 0x23
 9368 2442 AD000000 		.4byte	0xad
 9369 2446 23       		.uleb128 0x23
 9370 2447 AD000000 		.4byte	0xad
 9371 244b 23       		.uleb128 0x23
 9372 244c AD000000 		.4byte	0xad
 9373 2450 00       		.byte	0
 9374 2451 24       		.uleb128 0x24
 9375 2452 5A0E0000 		.4byte	.LASF256
 9376 2456 13       		.byte	0x13
 9377 2457 18       		.byte	0x18
 9378 2458 62240000 		.4byte	0x2462
 9379 245c 23       		.uleb128 0x23
 9380 245d 14010000 		.4byte	0x114
 9381 2461 00       		.byte	0
 9382 2462 21       		.uleb128 0x21
 9383 2463 D6060000 		.4byte	.LASF257
 9384 2467 10       		.byte	0x10
 9385 2468 5A       		.byte	0x5a
 9386 2469 22       		.uleb128 0x22
 9387 246a B0050000 		.4byte	.LASF258
 9388 246e 11       		.byte	0x11
 9389 246f 2A       		.byte	0x2a
 9390 2470 AD000000 		.4byte	0xad
 9391 2474 7E240000 		.4byte	0x247e
 9392 2478 23       		.uleb128 0x23
 9393 2479 AD000000 		.4byte	0xad
 9394 247d 00       		.byte	0
 9395 247e 22       		.uleb128 0x22
 9396 247f F70E0000 		.4byte	.LASF259
ARM GAS  C:\Users\Diego\AppData\Local\Temp\cctVJSXF.s 			page 200


 9397 2483 11       		.byte	0x11
 9398 2484 2B       		.byte	0x2b
 9399 2485 AD000000 		.4byte	0xad
 9400 2489 A2240000 		.4byte	0x24a2
 9401 248d 23       		.uleb128 0x23
 9402 248e AD000000 		.4byte	0xad
 9403 2492 23       		.uleb128 0x23
 9404 2493 EB000000 		.4byte	0xeb
 9405 2497 23       		.uleb128 0x23
 9406 2498 61230000 		.4byte	0x2361
 9407 249c 23       		.uleb128 0x23
 9408 249d AD000000 		.4byte	0xad
 9409 24a1 00       		.byte	0
 9410 24a2 24       		.uleb128 0x24
 9411 24a3 FC050000 		.4byte	.LASF260
 9412 24a7 0A       		.byte	0xa
 9413 24a8 8A       		.byte	0x8a
 9414 24a9 B3240000 		.4byte	0x24b3
 9415 24ad 23       		.uleb128 0x23
 9416 24ae AD000000 		.4byte	0xad
 9417 24b2 00       		.byte	0
 9418 24b3 22       		.uleb128 0x22
 9419 24b4 09100000 		.4byte	.LASF261
 9420 24b8 11       		.byte	0x11
 9421 24b9 2C       		.byte	0x2c
 9422 24ba AD000000 		.4byte	0xad
 9423 24be C8240000 		.4byte	0x24c8
 9424 24c2 23       		.uleb128 0x23
 9425 24c3 AD000000 		.4byte	0xad
 9426 24c7 00       		.byte	0
 9427 24c8 24       		.uleb128 0x24
 9428 24c9 610A0000 		.4byte	.LASF262
 9429 24cd 15       		.byte	0x15
 9430 24ce 25       		.byte	0x25
 9431 24cf DE240000 		.4byte	0x24de
 9432 24d3 23       		.uleb128 0x23
 9433 24d4 AD000000 		.4byte	0xad
 9434 24d8 23       		.uleb128 0x23
 9435 24d9 AD000000 		.4byte	0xad
 9436 24dd 00       		.byte	0
 9437 24de 22       		.uleb128 0x22
 9438 24df 1A010000 		.4byte	.LASF263
 9439 24e3 16       		.byte	0x16
 9440 24e4 21       		.byte	0x21
 9441 24e5 AD000000 		.4byte	0xad
 9442 24e9 F3240000 		.4byte	0x24f3
 9443 24ed 23       		.uleb128 0x23
 9444 24ee AD000000 		.4byte	0xad
 9445 24f2 00       		.byte	0
 9446 24f3 22       		.uleb128 0x22
 9447 24f4 AB020000 		.4byte	.LASF264
 9448 24f8 16       		.byte	0x16
 9449 24f9 22       		.byte	0x22
 9450 24fa AD000000 		.4byte	0xad
 9451 24fe 0D250000 		.4byte	0x250d
 9452 2502 23       		.uleb128 0x23
 9453 2503 AD000000 		.4byte	0xad
ARM GAS  C:\Users\Diego\AppData\Local\Temp\cctVJSXF.s 			page 201


 9454 2507 23       		.uleb128 0x23
 9455 2508 AD000000 		.4byte	0xad
 9456 250c 00       		.byte	0
 9457 250d 22       		.uleb128 0x22
 9458 250e C40C0000 		.4byte	.LASF265
 9459 2512 16       		.byte	0x16
 9460 2513 23       		.byte	0x23
 9461 2514 AD000000 		.4byte	0xad
 9462 2518 22250000 		.4byte	0x2522
 9463 251c 23       		.uleb128 0x23
 9464 251d AD000000 		.4byte	0xad
 9465 2521 00       		.byte	0
 9466 2522 22       		.uleb128 0x22
 9467 2523 000B0000 		.4byte	.LASF266
 9468 2527 16       		.byte	0x16
 9469 2528 24       		.byte	0x24
 9470 2529 AD000000 		.4byte	0xad
 9471 252d 3C250000 		.4byte	0x253c
 9472 2531 23       		.uleb128 0x23
 9473 2532 AD000000 		.4byte	0xad
 9474 2536 23       		.uleb128 0x23
 9475 2537 AD000000 		.4byte	0xad
 9476 253b 00       		.byte	0
 9477 253c 24       		.uleb128 0x24
 9478 253d 57050000 		.4byte	.LASF267
 9479 2541 0E       		.byte	0xe
 9480 2542 26       		.byte	0x26
 9481 2543 52250000 		.4byte	0x2552
 9482 2547 23       		.uleb128 0x23
 9483 2548 AD000000 		.4byte	0xad
 9484 254c 23       		.uleb128 0x23
 9485 254d AD000000 		.4byte	0xad
 9486 2551 00       		.byte	0
 9487 2552 20       		.uleb128 0x20
 9488 2553 DF000000 		.4byte	.LASF268
 9489 2557 07       		.byte	0x7
 9490 2558 73       		.byte	0x73
 9491 2559 AD000000 		.4byte	0xad
 9492 255d 21       		.uleb128 0x21
 9493 255e 170B0000 		.4byte	.LASF269
 9494 2562 07       		.byte	0x7
 9495 2563 75       		.byte	0x75
 9496 2564 20       		.uleb128 0x20
 9497 2565 860C0000 		.4byte	.LASF270
 9498 2569 17       		.byte	0x17
 9499 256a 5E       		.byte	0x5e
 9500 256b AD000000 		.4byte	0xad
 9501 256f 24       		.uleb128 0x24
 9502 2570 11020000 		.4byte	.LASF271
 9503 2574 0F       		.byte	0xf
 9504 2575 73       		.byte	0x73
 9505 2576 85250000 		.4byte	0x2585
 9506 257a 23       		.uleb128 0x23
 9507 257b AD000000 		.4byte	0xad
 9508 257f 23       		.uleb128 0x23
 9509 2580 AD000000 		.4byte	0xad
 9510 2584 00       		.byte	0
ARM GAS  C:\Users\Diego\AppData\Local\Temp\cctVJSXF.s 			page 202


 9511 2585 21       		.uleb128 0x21
 9512 2586 2B090000 		.4byte	.LASF272
 9513 258a 0F       		.byte	0xf
 9514 258b 74       		.byte	0x74
 9515 258c 00       		.byte	0
 9516              		.section	.debug_abbrev,"",%progbits
 9517              	.Ldebug_abbrev0:
 9518 0000 01       		.uleb128 0x1
 9519 0001 11       		.uleb128 0x11
 9520 0002 01       		.byte	0x1
 9521 0003 25       		.uleb128 0x25
 9522 0004 0E       		.uleb128 0xe
 9523 0005 13       		.uleb128 0x13
 9524 0006 0B       		.uleb128 0xb
 9525 0007 03       		.uleb128 0x3
 9526 0008 0E       		.uleb128 0xe
 9527 0009 1B       		.uleb128 0x1b
 9528 000a 0E       		.uleb128 0xe
 9529 000b 55       		.uleb128 0x55
 9530 000c 17       		.uleb128 0x17
 9531 000d 11       		.uleb128 0x11
 9532 000e 01       		.uleb128 0x1
 9533 000f 10       		.uleb128 0x10
 9534 0010 17       		.uleb128 0x17
 9535 0011 00       		.byte	0
 9536 0012 00       		.byte	0
 9537 0013 02       		.uleb128 0x2
 9538 0014 24       		.uleb128 0x24
 9539 0015 00       		.byte	0
 9540 0016 0B       		.uleb128 0xb
 9541 0017 0B       		.uleb128 0xb
 9542 0018 3E       		.uleb128 0x3e
 9543 0019 0B       		.uleb128 0xb
 9544 001a 03       		.uleb128 0x3
 9545 001b 0E       		.uleb128 0xe
 9546 001c 00       		.byte	0
 9547 001d 00       		.byte	0
 9548 001e 03       		.uleb128 0x3
 9549 001f 16       		.uleb128 0x16
 9550 0020 00       		.byte	0
 9551 0021 03       		.uleb128 0x3
 9552 0022 0E       		.uleb128 0xe
 9553 0023 3A       		.uleb128 0x3a
 9554 0024 0B       		.uleb128 0xb
 9555 0025 3B       		.uleb128 0x3b
 9556 0026 0B       		.uleb128 0xb
 9557 0027 49       		.uleb128 0x49
 9558 0028 13       		.uleb128 0x13
 9559 0029 00       		.byte	0
 9560 002a 00       		.byte	0
 9561 002b 04       		.uleb128 0x4
 9562 002c 24       		.uleb128 0x24
 9563 002d 00       		.byte	0
 9564 002e 0B       		.uleb128 0xb
 9565 002f 0B       		.uleb128 0xb
 9566 0030 3E       		.uleb128 0x3e
 9567 0031 0B       		.uleb128 0xb
ARM GAS  C:\Users\Diego\AppData\Local\Temp\cctVJSXF.s 			page 203


 9568 0032 03       		.uleb128 0x3
 9569 0033 08       		.uleb128 0x8
 9570 0034 00       		.byte	0
 9571 0035 00       		.byte	0
 9572 0036 05       		.uleb128 0x5
 9573 0037 16       		.uleb128 0x16
 9574 0038 00       		.byte	0
 9575 0039 03       		.uleb128 0x3
 9576 003a 0E       		.uleb128 0xe
 9577 003b 3A       		.uleb128 0x3a
 9578 003c 0B       		.uleb128 0xb
 9579 003d 3B       		.uleb128 0x3b
 9580 003e 05       		.uleb128 0x5
 9581 003f 49       		.uleb128 0x49
 9582 0040 13       		.uleb128 0x13
 9583 0041 00       		.byte	0
 9584 0042 00       		.byte	0
 9585 0043 06       		.uleb128 0x6
 9586 0044 35       		.uleb128 0x35
 9587 0045 00       		.byte	0
 9588 0046 49       		.uleb128 0x49
 9589 0047 13       		.uleb128 0x13
 9590 0048 00       		.byte	0
 9591 0049 00       		.byte	0
 9592 004a 07       		.uleb128 0x7
 9593 004b 0F       		.uleb128 0xf
 9594 004c 00       		.byte	0
 9595 004d 0B       		.uleb128 0xb
 9596 004e 0B       		.uleb128 0xb
 9597 004f 49       		.uleb128 0x49
 9598 0050 13       		.uleb128 0x13
 9599 0051 00       		.byte	0
 9600 0052 00       		.byte	0
 9601 0053 08       		.uleb128 0x8
 9602 0054 15       		.uleb128 0x15
 9603 0055 00       		.byte	0
 9604 0056 27       		.uleb128 0x27
 9605 0057 19       		.uleb128 0x19
 9606 0058 00       		.byte	0
 9607 0059 00       		.byte	0
 9608 005a 09       		.uleb128 0x9
 9609 005b 01       		.uleb128 0x1
 9610 005c 01       		.byte	0x1
 9611 005d 49       		.uleb128 0x49
 9612 005e 13       		.uleb128 0x13
 9613 005f 01       		.uleb128 0x1
 9614 0060 13       		.uleb128 0x13
 9615 0061 00       		.byte	0
 9616 0062 00       		.byte	0
 9617 0063 0A       		.uleb128 0xa
 9618 0064 21       		.uleb128 0x21
 9619 0065 00       		.byte	0
 9620 0066 49       		.uleb128 0x49
 9621 0067 13       		.uleb128 0x13
 9622 0068 2F       		.uleb128 0x2f
 9623 0069 0B       		.uleb128 0xb
 9624 006a 00       		.byte	0
ARM GAS  C:\Users\Diego\AppData\Local\Temp\cctVJSXF.s 			page 204


 9625 006b 00       		.byte	0
 9626 006c 0B       		.uleb128 0xb
 9627 006d 13       		.uleb128 0x13
 9628 006e 01       		.byte	0x1
 9629 006f 03       		.uleb128 0x3
 9630 0070 0E       		.uleb128 0xe
 9631 0071 0B       		.uleb128 0xb
 9632 0072 05       		.uleb128 0x5
 9633 0073 3A       		.uleb128 0x3a
 9634 0074 0B       		.uleb128 0xb
 9635 0075 3B       		.uleb128 0x3b
 9636 0076 0B       		.uleb128 0xb
 9637 0077 01       		.uleb128 0x1
 9638 0078 13       		.uleb128 0x13
 9639 0079 00       		.byte	0
 9640 007a 00       		.byte	0
 9641 007b 0C       		.uleb128 0xc
 9642 007c 0D       		.uleb128 0xd
 9643 007d 00       		.byte	0
 9644 007e 03       		.uleb128 0x3
 9645 007f 0E       		.uleb128 0xe
 9646 0080 3A       		.uleb128 0x3a
 9647 0081 0B       		.uleb128 0xb
 9648 0082 3B       		.uleb128 0x3b
 9649 0083 0B       		.uleb128 0xb
 9650 0084 49       		.uleb128 0x49
 9651 0085 13       		.uleb128 0x13
 9652 0086 38       		.uleb128 0x38
 9653 0087 0B       		.uleb128 0xb
 9654 0088 00       		.byte	0
 9655 0089 00       		.byte	0
 9656 008a 0D       		.uleb128 0xd
 9657 008b 0D       		.uleb128 0xd
 9658 008c 00       		.byte	0
 9659 008d 03       		.uleb128 0x3
 9660 008e 0E       		.uleb128 0xe
 9661 008f 3A       		.uleb128 0x3a
 9662 0090 0B       		.uleb128 0xb
 9663 0091 3B       		.uleb128 0x3b
 9664 0092 0B       		.uleb128 0xb
 9665 0093 49       		.uleb128 0x49
 9666 0094 13       		.uleb128 0x13
 9667 0095 38       		.uleb128 0x38
 9668 0096 05       		.uleb128 0x5
 9669 0097 00       		.byte	0
 9670 0098 00       		.byte	0
 9671 0099 0E       		.uleb128 0xe
 9672 009a 0D       		.uleb128 0xd
 9673 009b 00       		.byte	0
 9674 009c 03       		.uleb128 0x3
 9675 009d 08       		.uleb128 0x8
 9676 009e 3A       		.uleb128 0x3a
 9677 009f 0B       		.uleb128 0xb
 9678 00a0 3B       		.uleb128 0x3b
 9679 00a1 0B       		.uleb128 0xb
 9680 00a2 49       		.uleb128 0x49
 9681 00a3 13       		.uleb128 0x13
ARM GAS  C:\Users\Diego\AppData\Local\Temp\cctVJSXF.s 			page 205


 9682 00a4 38       		.uleb128 0x38
 9683 00a5 0B       		.uleb128 0xb
 9684 00a6 00       		.byte	0
 9685 00a7 00       		.byte	0
 9686 00a8 0F       		.uleb128 0xf
 9687 00a9 0D       		.uleb128 0xd
 9688 00aa 00       		.byte	0
 9689 00ab 03       		.uleb128 0x3
 9690 00ac 08       		.uleb128 0x8
 9691 00ad 3A       		.uleb128 0x3a
 9692 00ae 0B       		.uleb128 0xb
 9693 00af 3B       		.uleb128 0x3b
 9694 00b0 0B       		.uleb128 0xb
 9695 00b1 49       		.uleb128 0x49
 9696 00b2 13       		.uleb128 0x13
 9697 00b3 38       		.uleb128 0x38
 9698 00b4 05       		.uleb128 0x5
 9699 00b5 00       		.byte	0
 9700 00b6 00       		.byte	0
 9701 00b7 10       		.uleb128 0x10
 9702 00b8 04       		.uleb128 0x4
 9703 00b9 01       		.byte	0x1
 9704 00ba 03       		.uleb128 0x3
 9705 00bb 0E       		.uleb128 0xe
 9706 00bc 0B       		.uleb128 0xb
 9707 00bd 0B       		.uleb128 0xb
 9708 00be 3A       		.uleb128 0x3a
 9709 00bf 0B       		.uleb128 0xb
 9710 00c0 3B       		.uleb128 0x3b
 9711 00c1 0B       		.uleb128 0xb
 9712 00c2 01       		.uleb128 0x1
 9713 00c3 13       		.uleb128 0x13
 9714 00c4 00       		.byte	0
 9715 00c5 00       		.byte	0
 9716 00c6 11       		.uleb128 0x11
 9717 00c7 28       		.uleb128 0x28
 9718 00c8 00       		.byte	0
 9719 00c9 03       		.uleb128 0x3
 9720 00ca 0E       		.uleb128 0xe
 9721 00cb 1C       		.uleb128 0x1c
 9722 00cc 0D       		.uleb128 0xd
 9723 00cd 00       		.byte	0
 9724 00ce 00       		.byte	0
 9725 00cf 12       		.uleb128 0x12
 9726 00d0 2E       		.uleb128 0x2e
 9727 00d1 01       		.byte	0x1
 9728 00d2 3F       		.uleb128 0x3f
 9729 00d3 19       		.uleb128 0x19
 9730 00d4 03       		.uleb128 0x3
 9731 00d5 0E       		.uleb128 0xe
 9732 00d6 3A       		.uleb128 0x3a
 9733 00d7 0B       		.uleb128 0xb
 9734 00d8 3B       		.uleb128 0x3b
 9735 00d9 05       		.uleb128 0x5
 9736 00da 27       		.uleb128 0x27
 9737 00db 19       		.uleb128 0x19
 9738 00dc 11       		.uleb128 0x11
ARM GAS  C:\Users\Diego\AppData\Local\Temp\cctVJSXF.s 			page 206


 9739 00dd 01       		.uleb128 0x1
 9740 00de 12       		.uleb128 0x12
 9741 00df 06       		.uleb128 0x6
 9742 00e0 40       		.uleb128 0x40
 9743 00e1 18       		.uleb128 0x18
 9744 00e2 9742     		.uleb128 0x2117
 9745 00e4 19       		.uleb128 0x19
 9746 00e5 01       		.uleb128 0x1
 9747 00e6 13       		.uleb128 0x13
 9748 00e7 00       		.byte	0
 9749 00e8 00       		.byte	0
 9750 00e9 13       		.uleb128 0x13
 9751 00ea 898201   		.uleb128 0x4109
 9752 00ed 00       		.byte	0
 9753 00ee 11       		.uleb128 0x11
 9754 00ef 01       		.uleb128 0x1
 9755 00f0 31       		.uleb128 0x31
 9756 00f1 13       		.uleb128 0x13
 9757 00f2 00       		.byte	0
 9758 00f3 00       		.byte	0
 9759 00f4 14       		.uleb128 0x14
 9760 00f5 2E       		.uleb128 0x2e
 9761 00f6 01       		.byte	0x1
 9762 00f7 3F       		.uleb128 0x3f
 9763 00f8 19       		.uleb128 0x19
 9764 00f9 03       		.uleb128 0x3
 9765 00fa 0E       		.uleb128 0xe
 9766 00fb 3A       		.uleb128 0x3a
 9767 00fc 0B       		.uleb128 0xb
 9768 00fd 3B       		.uleb128 0x3b
 9769 00fe 0B       		.uleb128 0xb
 9770 00ff 11       		.uleb128 0x11
 9771 0100 01       		.uleb128 0x1
 9772 0101 12       		.uleb128 0x12
 9773 0102 06       		.uleb128 0x6
 9774 0103 40       		.uleb128 0x40
 9775 0104 18       		.uleb128 0x18
 9776 0105 9742     		.uleb128 0x2117
 9777 0107 19       		.uleb128 0x19
 9778 0108 01       		.uleb128 0x1
 9779 0109 13       		.uleb128 0x13
 9780 010a 00       		.byte	0
 9781 010b 00       		.byte	0
 9782 010c 15       		.uleb128 0x15
 9783 010d 898201   		.uleb128 0x4109
 9784 0110 01       		.byte	0x1
 9785 0111 11       		.uleb128 0x11
 9786 0112 01       		.uleb128 0x1
 9787 0113 31       		.uleb128 0x31
 9788 0114 13       		.uleb128 0x13
 9789 0115 01       		.uleb128 0x1
 9790 0116 13       		.uleb128 0x13
 9791 0117 00       		.byte	0
 9792 0118 00       		.byte	0
 9793 0119 16       		.uleb128 0x16
 9794 011a 8A8201   		.uleb128 0x410a
 9795 011d 00       		.byte	0
ARM GAS  C:\Users\Diego\AppData\Local\Temp\cctVJSXF.s 			page 207


 9796 011e 02       		.uleb128 0x2
 9797 011f 18       		.uleb128 0x18
 9798 0120 9142     		.uleb128 0x2111
 9799 0122 18       		.uleb128 0x18
 9800 0123 00       		.byte	0
 9801 0124 00       		.byte	0
 9802 0125 17       		.uleb128 0x17
 9803 0126 898201   		.uleb128 0x4109
 9804 0129 01       		.byte	0x1
 9805 012a 11       		.uleb128 0x11
 9806 012b 01       		.uleb128 0x1
 9807 012c 31       		.uleb128 0x31
 9808 012d 13       		.uleb128 0x13
 9809 012e 00       		.byte	0
 9810 012f 00       		.byte	0
 9811 0130 18       		.uleb128 0x18
 9812 0131 34       		.uleb128 0x34
 9813 0132 00       		.byte	0
 9814 0133 03       		.uleb128 0x3
 9815 0134 0E       		.uleb128 0xe
 9816 0135 3A       		.uleb128 0x3a
 9817 0136 0B       		.uleb128 0xb
 9818 0137 3B       		.uleb128 0x3b
 9819 0138 0B       		.uleb128 0xb
 9820 0139 49       		.uleb128 0x49
 9821 013a 13       		.uleb128 0x13
 9822 013b 02       		.uleb128 0x2
 9823 013c 18       		.uleb128 0x18
 9824 013d 00       		.byte	0
 9825 013e 00       		.byte	0
 9826 013f 19       		.uleb128 0x19
 9827 0140 34       		.uleb128 0x34
 9828 0141 00       		.byte	0
 9829 0142 03       		.uleb128 0x3
 9830 0143 08       		.uleb128 0x8
 9831 0144 3A       		.uleb128 0x3a
 9832 0145 0B       		.uleb128 0xb
 9833 0146 3B       		.uleb128 0x3b
 9834 0147 0B       		.uleb128 0xb
 9835 0148 49       		.uleb128 0x49
 9836 0149 13       		.uleb128 0x13
 9837 014a 02       		.uleb128 0x2
 9838 014b 17       		.uleb128 0x17
 9839 014c 00       		.byte	0
 9840 014d 00       		.byte	0
 9841 014e 1A       		.uleb128 0x1a
 9842 014f 2E       		.uleb128 0x2e
 9843 0150 01       		.byte	0x1
 9844 0151 3F       		.uleb128 0x3f
 9845 0152 19       		.uleb128 0x19
 9846 0153 03       		.uleb128 0x3
 9847 0154 0E       		.uleb128 0xe
 9848 0155 3A       		.uleb128 0x3a
 9849 0156 0B       		.uleb128 0xb
 9850 0157 3B       		.uleb128 0x3b
 9851 0158 0B       		.uleb128 0xb
 9852 0159 27       		.uleb128 0x27
ARM GAS  C:\Users\Diego\AppData\Local\Temp\cctVJSXF.s 			page 208


 9853 015a 19       		.uleb128 0x19
 9854 015b 11       		.uleb128 0x11
 9855 015c 01       		.uleb128 0x1
 9856 015d 12       		.uleb128 0x12
 9857 015e 06       		.uleb128 0x6
 9858 015f 40       		.uleb128 0x40
 9859 0160 18       		.uleb128 0x18
 9860 0161 9742     		.uleb128 0x2117
 9861 0163 19       		.uleb128 0x19
 9862 0164 01       		.uleb128 0x1
 9863 0165 13       		.uleb128 0x13
 9864 0166 00       		.byte	0
 9865 0167 00       		.byte	0
 9866 0168 1B       		.uleb128 0x1b
 9867 0169 34       		.uleb128 0x34
 9868 016a 00       		.byte	0
 9869 016b 03       		.uleb128 0x3
 9870 016c 08       		.uleb128 0x8
 9871 016d 3A       		.uleb128 0x3a
 9872 016e 0B       		.uleb128 0xb
 9873 016f 3B       		.uleb128 0x3b
 9874 0170 05       		.uleb128 0x5
 9875 0171 49       		.uleb128 0x49
 9876 0172 13       		.uleb128 0x13
 9877 0173 02       		.uleb128 0x2
 9878 0174 17       		.uleb128 0x17
 9879 0175 00       		.byte	0
 9880 0176 00       		.byte	0
 9881 0177 1C       		.uleb128 0x1c
 9882 0178 34       		.uleb128 0x34
 9883 0179 00       		.byte	0
 9884 017a 03       		.uleb128 0x3
 9885 017b 0E       		.uleb128 0xe
 9886 017c 3A       		.uleb128 0x3a
 9887 017d 0B       		.uleb128 0xb
 9888 017e 3B       		.uleb128 0x3b
 9889 017f 05       		.uleb128 0x5
 9890 0180 49       		.uleb128 0x49
 9891 0181 13       		.uleb128 0x13
 9892 0182 02       		.uleb128 0x2
 9893 0183 17       		.uleb128 0x17
 9894 0184 00       		.byte	0
 9895 0185 00       		.byte	0
 9896 0186 1D       		.uleb128 0x1d
 9897 0187 2E       		.uleb128 0x2e
 9898 0188 01       		.byte	0x1
 9899 0189 3F       		.uleb128 0x3f
 9900 018a 19       		.uleb128 0x19
 9901 018b 03       		.uleb128 0x3
 9902 018c 0E       		.uleb128 0xe
 9903 018d 3A       		.uleb128 0x3a
 9904 018e 0B       		.uleb128 0xb
 9905 018f 3B       		.uleb128 0x3b
 9906 0190 05       		.uleb128 0x5
 9907 0191 49       		.uleb128 0x49
 9908 0192 13       		.uleb128 0x13
 9909 0193 11       		.uleb128 0x11
ARM GAS  C:\Users\Diego\AppData\Local\Temp\cctVJSXF.s 			page 209


 9910 0194 01       		.uleb128 0x1
 9911 0195 12       		.uleb128 0x12
 9912 0196 06       		.uleb128 0x6
 9913 0197 40       		.uleb128 0x40
 9914 0198 18       		.uleb128 0x18
 9915 0199 9742     		.uleb128 0x2117
 9916 019b 19       		.uleb128 0x19
 9917 019c 01       		.uleb128 0x1
 9918 019d 13       		.uleb128 0x13
 9919 019e 00       		.byte	0
 9920 019f 00       		.byte	0
 9921 01a0 1E       		.uleb128 0x1e
 9922 01a1 34       		.uleb128 0x34
 9923 01a2 00       		.byte	0
 9924 01a3 03       		.uleb128 0x3
 9925 01a4 0E       		.uleb128 0xe
 9926 01a5 3A       		.uleb128 0x3a
 9927 01a6 0B       		.uleb128 0xb
 9928 01a7 3B       		.uleb128 0x3b
 9929 01a8 05       		.uleb128 0x5
 9930 01a9 49       		.uleb128 0x49
 9931 01aa 13       		.uleb128 0x13
 9932 01ab 3F       		.uleb128 0x3f
 9933 01ac 19       		.uleb128 0x19
 9934 01ad 3C       		.uleb128 0x3c
 9935 01ae 19       		.uleb128 0x19
 9936 01af 00       		.byte	0
 9937 01b0 00       		.byte	0
 9938 01b1 1F       		.uleb128 0x1f
 9939 01b2 34       		.uleb128 0x34
 9940 01b3 00       		.byte	0
 9941 01b4 03       		.uleb128 0x3
 9942 01b5 0E       		.uleb128 0xe
 9943 01b6 3A       		.uleb128 0x3a
 9944 01b7 0B       		.uleb128 0xb
 9945 01b8 3B       		.uleb128 0x3b
 9946 01b9 0B       		.uleb128 0xb
 9947 01ba 49       		.uleb128 0x49
 9948 01bb 13       		.uleb128 0x13
 9949 01bc 3F       		.uleb128 0x3f
 9950 01bd 19       		.uleb128 0x19
 9951 01be 02       		.uleb128 0x2
 9952 01bf 18       		.uleb128 0x18
 9953 01c0 00       		.byte	0
 9954 01c1 00       		.byte	0
 9955 01c2 20       		.uleb128 0x20
 9956 01c3 2E       		.uleb128 0x2e
 9957 01c4 00       		.byte	0
 9958 01c5 3F       		.uleb128 0x3f
 9959 01c6 19       		.uleb128 0x19
 9960 01c7 03       		.uleb128 0x3
 9961 01c8 0E       		.uleb128 0xe
 9962 01c9 3A       		.uleb128 0x3a
 9963 01ca 0B       		.uleb128 0xb
 9964 01cb 3B       		.uleb128 0x3b
 9965 01cc 0B       		.uleb128 0xb
 9966 01cd 27       		.uleb128 0x27
ARM GAS  C:\Users\Diego\AppData\Local\Temp\cctVJSXF.s 			page 210


 9967 01ce 19       		.uleb128 0x19
 9968 01cf 49       		.uleb128 0x49
 9969 01d0 13       		.uleb128 0x13
 9970 01d1 3C       		.uleb128 0x3c
 9971 01d2 19       		.uleb128 0x19
 9972 01d3 00       		.byte	0
 9973 01d4 00       		.byte	0
 9974 01d5 21       		.uleb128 0x21
 9975 01d6 2E       		.uleb128 0x2e
 9976 01d7 00       		.byte	0
 9977 01d8 3F       		.uleb128 0x3f
 9978 01d9 19       		.uleb128 0x19
 9979 01da 03       		.uleb128 0x3
 9980 01db 0E       		.uleb128 0xe
 9981 01dc 3A       		.uleb128 0x3a
 9982 01dd 0B       		.uleb128 0xb
 9983 01de 3B       		.uleb128 0x3b
 9984 01df 0B       		.uleb128 0xb
 9985 01e0 27       		.uleb128 0x27
 9986 01e1 19       		.uleb128 0x19
 9987 01e2 3C       		.uleb128 0x3c
 9988 01e3 19       		.uleb128 0x19
 9989 01e4 00       		.byte	0
 9990 01e5 00       		.byte	0
 9991 01e6 22       		.uleb128 0x22
 9992 01e7 2E       		.uleb128 0x2e
 9993 01e8 01       		.byte	0x1
 9994 01e9 3F       		.uleb128 0x3f
 9995 01ea 19       		.uleb128 0x19
 9996 01eb 03       		.uleb128 0x3
 9997 01ec 0E       		.uleb128 0xe
 9998 01ed 3A       		.uleb128 0x3a
 9999 01ee 0B       		.uleb128 0xb
 10000 01ef 3B       		.uleb128 0x3b
 10001 01f0 0B       		.uleb128 0xb
 10002 01f1 27       		.uleb128 0x27
 10003 01f2 19       		.uleb128 0x19
 10004 01f3 49       		.uleb128 0x49
 10005 01f4 13       		.uleb128 0x13
 10006 01f5 3C       		.uleb128 0x3c
 10007 01f6 19       		.uleb128 0x19
 10008 01f7 01       		.uleb128 0x1
 10009 01f8 13       		.uleb128 0x13
 10010 01f9 00       		.byte	0
 10011 01fa 00       		.byte	0
 10012 01fb 23       		.uleb128 0x23
 10013 01fc 05       		.uleb128 0x5
 10014 01fd 00       		.byte	0
 10015 01fe 49       		.uleb128 0x49
 10016 01ff 13       		.uleb128 0x13
 10017 0200 00       		.byte	0
 10018 0201 00       		.byte	0
 10019 0202 24       		.uleb128 0x24
 10020 0203 2E       		.uleb128 0x2e
 10021 0204 01       		.byte	0x1
 10022 0205 3F       		.uleb128 0x3f
 10023 0206 19       		.uleb128 0x19
ARM GAS  C:\Users\Diego\AppData\Local\Temp\cctVJSXF.s 			page 211


 10024 0207 03       		.uleb128 0x3
 10025 0208 0E       		.uleb128 0xe
 10026 0209 3A       		.uleb128 0x3a
 10027 020a 0B       		.uleb128 0xb
 10028 020b 3B       		.uleb128 0x3b
 10029 020c 0B       		.uleb128 0xb
 10030 020d 27       		.uleb128 0x27
 10031 020e 19       		.uleb128 0x19
 10032 020f 3C       		.uleb128 0x3c
 10033 0210 19       		.uleb128 0x19
 10034 0211 01       		.uleb128 0x1
 10035 0212 13       		.uleb128 0x13
 10036 0213 00       		.byte	0
 10037 0214 00       		.byte	0
 10038 0215 00       		.byte	0
 10039              		.section	.debug_loc,"",%progbits
 10040              	.Ldebug_loc0:
 10041              	.LLST0:
 10042 0000 10000000 		.4byte	.LVL63
 10043 0004 14000000 		.4byte	.LVL64
 10044 0008 0200     		.2byte	0x2
 10045 000a 30       		.byte	0x30
 10046 000b 9F       		.byte	0x9f
 10047 000c 14000000 		.4byte	.LVL64
 10048 0010 24000000 		.4byte	.LVL66
 10049 0014 0100     		.2byte	0x1
 10050 0016 54       		.byte	0x54
 10051 0017 26000000 		.4byte	.LVL67
 10052 001b 42000000 		.4byte	.LVL70
 10053 001f 0100     		.2byte	0x1
 10054 0021 54       		.byte	0x54
 10055 0022 42000000 		.4byte	.LVL70
 10056 0026 46000000 		.4byte	.LVL71
 10057 002a 0200     		.2byte	0x2
 10058 002c 30       		.byte	0x30
 10059 002d 9F       		.byte	0x9f
 10060 002e 46000000 		.4byte	.LVL71
 10061 0032 56000000 		.4byte	.LVL73
 10062 0036 0100     		.2byte	0x1
 10063 0038 54       		.byte	0x54
 10064 0039 58000000 		.4byte	.LVL74
 10065 003d 78000000 		.4byte	.LVL78
 10066 0041 0100     		.2byte	0x1
 10067 0043 54       		.byte	0x54
 10068 0044 00000000 		.4byte	0
 10069 0048 00000000 		.4byte	0
 10070              	.LLST1:
 10071 004c 22000000 		.4byte	.LVL83
 10072 0050 2C000000 		.4byte	.LVL84
 10073 0054 0100     		.2byte	0x1
 10074 0056 53       		.byte	0x53
 10075 0057 2E000000 		.4byte	.LVL85
 10076 005b 30000000 		.4byte	.LVL86
 10077 005f 0100     		.2byte	0x1
 10078 0061 53       		.byte	0x53
 10079 0062 32000000 		.4byte	.LVL87
 10080 0066 36000000 		.4byte	.LVL88
ARM GAS  C:\Users\Diego\AppData\Local\Temp\cctVJSXF.s 			page 212


 10081 006a 0100     		.2byte	0x1
 10082 006c 53       		.byte	0x53
 10083 006d 00000000 		.4byte	0
 10084 0071 00000000 		.4byte	0
 10085              	.LLST2:
 10086 0075 2A020000 		.4byte	.LVL124
 10087 0079 2E020000 		.4byte	.LVL125
 10088 007d 0200     		.2byte	0x2
 10089 007f 31       		.byte	0x31
 10090 0080 9F       		.byte	0x9f
 10091 0081 2E020000 		.4byte	.LVL125
 10092 0085 3A020000 		.4byte	.LVL126
 10093 0089 0100     		.2byte	0x1
 10094 008b 53       		.byte	0x53
 10095 008c 3C020000 		.4byte	.LVL127
 10096 0090 4A020000 		.4byte	.LVL128
 10097 0094 0100     		.2byte	0x1
 10098 0096 53       		.byte	0x53
 10099 0097 5A020000 		.4byte	.LVL129
 10100 009b 5E020000 		.4byte	.LVL130
 10101 009f 0200     		.2byte	0x2
 10102 00a1 30       		.byte	0x30
 10103 00a2 9F       		.byte	0x9f
 10104 00a3 5E020000 		.4byte	.LVL130
 10105 00a7 6C020000 		.4byte	.LVL131
 10106 00ab 0100     		.2byte	0x1
 10107 00ad 53       		.byte	0x53
 10108 00ae 6E020000 		.4byte	.LVL132
 10109 00b2 76020000 		.4byte	.LVL133
 10110 00b6 0100     		.2byte	0x1
 10111 00b8 53       		.byte	0x53
 10112 00b9 FE020000 		.4byte	.LVL142
 10113 00bd 10030000 		.4byte	.LVL143
 10114 00c1 0100     		.2byte	0x1
 10115 00c3 53       		.byte	0x53
 10116 00c4 12030000 		.4byte	.LVL144
 10117 00c8 14030000 		.4byte	.LVL145
 10118 00cc 0100     		.2byte	0x1
 10119 00ce 53       		.byte	0x53
 10120 00cf 16030000 		.4byte	.LVL146
 10121 00d3 24030000 		.4byte	.LVL147
 10122 00d7 0100     		.2byte	0x1
 10123 00d9 53       		.byte	0x53
 10124 00da 1E070000 		.4byte	.LVL200
 10125 00de 2A070000 		.4byte	.LVL201
 10126 00e2 0100     		.2byte	0x1
 10127 00e4 53       		.byte	0x53
 10128 00e5 2C070000 		.4byte	.LVL202
 10129 00e9 2E070000 		.4byte	.LVL203
 10130 00ed 0100     		.2byte	0x1
 10131 00ef 53       		.byte	0x53
 10132 00f0 30070000 		.4byte	.LVL204
 10133 00f4 38070000 		.4byte	.LVL205
 10134 00f8 0100     		.2byte	0x1
 10135 00fa 53       		.byte	0x53
 10136 00fb 44070000 		.4byte	.LVL207
 10137 00ff 50070000 		.4byte	.LVL208
ARM GAS  C:\Users\Diego\AppData\Local\Temp\cctVJSXF.s 			page 213


 10138 0103 0100     		.2byte	0x1
 10139 0105 53       		.byte	0x53
 10140 0106 52070000 		.4byte	.LVL209
 10141 010a 54070000 		.4byte	.LVL210
 10142 010e 0100     		.2byte	0x1
 10143 0110 53       		.byte	0x53
 10144 0111 56070000 		.4byte	.LVL211
 10145 0115 68070000 		.4byte	.LVL212
 10146 0119 0100     		.2byte	0x1
 10147 011b 53       		.byte	0x53
 10148 011c 6A070000 		.4byte	.LVL213
 10149 0120 6C070000 		.4byte	.LVL214
 10150 0124 0100     		.2byte	0x1
 10151 0126 53       		.byte	0x53
 10152 0127 6E070000 		.4byte	.LVL215
 10153 012b 80070000 		.4byte	.LVL216
 10154 012f 0100     		.2byte	0x1
 10155 0131 53       		.byte	0x53
 10156 0132 82070000 		.4byte	.LVL217
 10157 0136 84070000 		.4byte	.LVL218
 10158 013a 0100     		.2byte	0x1
 10159 013c 53       		.byte	0x53
 10160 013d 86070000 		.4byte	.LVL219
 10161 0141 8A070000 		.4byte	.LVL220
 10162 0145 0100     		.2byte	0x1
 10163 0147 53       		.byte	0x53
 10164 0148 A4070000 		.4byte	.LVL222
 10165 014c B2070000 		.4byte	.LVL223
 10166 0150 0100     		.2byte	0x1
 10167 0152 53       		.byte	0x53
 10168 0153 B4070000 		.4byte	.LVL224
 10169 0157 D4070000 		.4byte	.LVL225
 10170 015b 0100     		.2byte	0x1
 10171 015d 53       		.byte	0x53
 10172 015e D6070000 		.4byte	.LVL226
 10173 0162 E2070000 		.4byte	.LVL227
 10174 0166 0100     		.2byte	0x1
 10175 0168 53       		.byte	0x53
 10176 0169 10080000 		.4byte	.LVL231
 10177 016d 1E080000 		.4byte	.LVL232
 10178 0171 0100     		.2byte	0x1
 10179 0173 53       		.byte	0x53
 10180 0174 20080000 		.4byte	.LVL233
 10181 0178 22080000 		.4byte	.LVL234
 10182 017c 0100     		.2byte	0x1
 10183 017e 53       		.byte	0x53
 10184 017f 24080000 		.4byte	.LVL235
 10185 0183 32080000 		.4byte	.LVL236
 10186 0187 0100     		.2byte	0x1
 10187 0189 53       		.byte	0x53
 10188 018a 3C080000 		.4byte	.LVL238
 10189 018e 4A080000 		.4byte	.LVL239
 10190 0192 0100     		.2byte	0x1
 10191 0194 53       		.byte	0x53
 10192 0195 4C080000 		.4byte	.LVL240
 10193 0199 4E080000 		.4byte	.LVL241
 10194 019d 0100     		.2byte	0x1
ARM GAS  C:\Users\Diego\AppData\Local\Temp\cctVJSXF.s 			page 214


 10195 019f 53       		.byte	0x53
 10196 01a0 50080000 		.4byte	.LVL242
 10197 01a4 5A080000 		.4byte	.LVL243
 10198 01a8 0100     		.2byte	0x1
 10199 01aa 53       		.byte	0x53
 10200 01ab 5E080000 		.4byte	.LVL244
 10201 01af 6C080000 		.4byte	.LVL245
 10202 01b3 0100     		.2byte	0x1
 10203 01b5 53       		.byte	0x53
 10204 01b6 6E080000 		.4byte	.LVL246
 10205 01ba 76080000 		.4byte	.LVL247
 10206 01be 0100     		.2byte	0x1
 10207 01c0 53       		.byte	0x53
 10208 01c1 48090000 		.4byte	.LVL260
 10209 01c5 54090000 		.4byte	.LVL262
 10210 01c9 0100     		.2byte	0x1
 10211 01cb 54       		.byte	0x54
 10212 01cc 56090000 		.4byte	.LVL263
 10213 01d0 58090000 		.4byte	.LVL264
 10214 01d4 0100     		.2byte	0x1
 10215 01d6 54       		.byte	0x54
 10216 01d7 5A090000 		.4byte	.LVL265
 10217 01db 62090000 		.4byte	.LVL266
 10218 01df 0100     		.2byte	0x1
 10219 01e1 54       		.byte	0x54
 10220 01e2 64090000 		.4byte	.LVL267
 10221 01e6 6E090000 		.4byte	.LVL269
 10222 01ea 0100     		.2byte	0x1
 10223 01ec 54       		.byte	0x54
 10224 01ed 70090000 		.4byte	.LVL270
 10225 01f1 82090000 		.4byte	.LVL271
 10226 01f5 0100     		.2byte	0x1
 10227 01f7 54       		.byte	0x54
 10228 01f8 82090000 		.4byte	.LVL271
 10229 01fc 86090000 		.4byte	.LVL272
 10230 0200 0200     		.2byte	0x2
 10231 0202 31       		.byte	0x31
 10232 0203 9F       		.byte	0x9f
 10233 0204 86090000 		.4byte	.LVL272
 10234 0208 C6090000 		.4byte	.LVL277
 10235 020c 0100     		.2byte	0x1
 10236 020e 51       		.byte	0x51
 10237 020f C8090000 		.4byte	.LVL278
 10238 0213 D0090000 		.4byte	.LVL279
 10239 0217 0100     		.2byte	0x1
 10240 0219 51       		.byte	0x51
 10241 021a E40B0000 		.4byte	.LVL302
 10242 021e EC0B0000 		.4byte	.LVL303
 10243 0222 0100     		.2byte	0x1
 10244 0224 53       		.byte	0x53
 10245 0225 EE0B0000 		.4byte	.LVL304
 10246 0229 F00B0000 		.4byte	.LVL305
 10247 022d 0100     		.2byte	0x1
 10248 022f 53       		.byte	0x53
 10249 0230 F20B0000 		.4byte	.LVL306
 10250 0234 FE0B0000 		.4byte	.LVL307
 10251 0238 0100     		.2byte	0x1
ARM GAS  C:\Users\Diego\AppData\Local\Temp\cctVJSXF.s 			page 215


 10252 023a 53       		.byte	0x53
 10253 023b 0A0C0000 		.4byte	.LVL309
 10254 023f 160C0000 		.4byte	.LVL310
 10255 0243 0100     		.2byte	0x1
 10256 0245 53       		.byte	0x53
 10257 0246 180C0000 		.4byte	.LVL311
 10258 024a 1A0C0000 		.4byte	.LVL312
 10259 024e 0100     		.2byte	0x1
 10260 0250 53       		.byte	0x53
 10261 0251 1C0C0000 		.4byte	.LVL313
 10262 0255 280C0000 		.4byte	.LVL314
 10263 0259 0100     		.2byte	0x1
 10264 025b 53       		.byte	0x53
 10265 025c 340C0000 		.4byte	.LVL316
 10266 0260 3C0C0000 		.4byte	.LVL317
 10267 0264 0100     		.2byte	0x1
 10268 0266 53       		.byte	0x53
 10269 0267 3E0C0000 		.4byte	.LVL318
 10270 026b 400C0000 		.4byte	.LVL319
 10271 026f 0100     		.2byte	0x1
 10272 0271 53       		.byte	0x53
 10273 0272 420C0000 		.4byte	.LVL320
 10274 0276 4E0C0000 		.4byte	.LVL321
 10275 027a 0100     		.2byte	0x1
 10276 027c 53       		.byte	0x53
 10277 027d 720C0000 		.4byte	.LVL324
 10278 0281 800C0000 		.4byte	.LVL325
 10279 0285 0100     		.2byte	0x1
 10280 0287 53       		.byte	0x53
 10281 0288 820C0000 		.4byte	.LVL326
 10282 028c 840C0000 		.4byte	.LVL327
 10283 0290 0100     		.2byte	0x1
 10284 0292 53       		.byte	0x53
 10285 0293 860C0000 		.4byte	.LVL328
 10286 0297 920C0000 		.4byte	.LVL329
 10287 029b 0100     		.2byte	0x1
 10288 029d 53       		.byte	0x53
 10289 029e 9E0C0000 		.4byte	.LVL331
 10290 02a2 AC0C0000 		.4byte	.LVL332
 10291 02a6 0100     		.2byte	0x1
 10292 02a8 53       		.byte	0x53
 10293 02a9 AE0C0000 		.4byte	.LVL333
 10294 02ad B00C0000 		.4byte	.LVL334
 10295 02b1 0100     		.2byte	0x1
 10296 02b3 53       		.byte	0x53
 10297 02b4 B20C0000 		.4byte	.LVL335
 10298 02b8 BE0C0000 		.4byte	.LVL336
 10299 02bc 0100     		.2byte	0x1
 10300 02be 53       		.byte	0x53
 10301 02bf CA0C0000 		.4byte	.LVL338
 10302 02c3 D80C0000 		.4byte	.LVL339
 10303 02c7 0100     		.2byte	0x1
 10304 02c9 53       		.byte	0x53
 10305 02ca DA0C0000 		.4byte	.LVL340
 10306 02ce DC0C0000 		.4byte	.LVL341
 10307 02d2 0100     		.2byte	0x1
 10308 02d4 53       		.byte	0x53
ARM GAS  C:\Users\Diego\AppData\Local\Temp\cctVJSXF.s 			page 216


 10309 02d5 DE0C0000 		.4byte	.LVL342
 10310 02d9 E80C0000 		.4byte	.LVL343
 10311 02dd 0100     		.2byte	0x1
 10312 02df 53       		.byte	0x53
 10313 02e0 00000000 		.4byte	0
 10314 02e4 00000000 		.4byte	0
 10315              	.LLST3:
 10316 02e8 64090000 		.4byte	.LVL267
 10317 02ec 6B090000 		.4byte	.LVL268-1
 10318 02f0 0100     		.2byte	0x1
 10319 02f2 50       		.byte	0x50
 10320 02f3 6C090000 		.4byte	.LVL268
 10321 02f7 82090000 		.4byte	.LVL271
 10322 02fb 0100     		.2byte	0x1
 10323 02fd 50       		.byte	0x50
 10324 02fe 82090000 		.4byte	.LVL271
 10325 0302 86090000 		.4byte	.LVL272
 10326 0306 0200     		.2byte	0x2
 10327 0308 40       		.byte	0x40
 10328 0309 9F       		.byte	0x9f
 10329 030a 86090000 		.4byte	.LVL272
 10330 030e A6090000 		.4byte	.LVL273
 10331 0312 0100     		.2byte	0x1
 10332 0314 53       		.byte	0x53
 10333 0315 A8090000 		.4byte	.LVL274
 10334 0319 C2090000 		.4byte	.LVL275
 10335 031d 0100     		.2byte	0x1
 10336 031f 53       		.byte	0x53
 10337 0320 C2090000 		.4byte	.LVL275
 10338 0324 C4090000 		.4byte	.LVL276
 10339 0328 0300     		.2byte	0x3
 10340 032a 73       		.byte	0x73
 10341 032b 01       		.sleb128 1
 10342 032c 9F       		.byte	0x9f
 10343 032d C4090000 		.4byte	.LVL276
 10344 0331 D3090000 		.4byte	.LVL280-1
 10345 0335 0100     		.2byte	0x1
 10346 0337 53       		.byte	0x53
 10347 0338 00000000 		.4byte	0
 10348 033c 00000000 		.4byte	0
 10349              	.LLST4:
 10350 0340 22060000 		.4byte	.LVL188
 10351 0344 24060000 		.4byte	.LVL189
 10352 0348 0100     		.2byte	0x1
 10353 034a 50       		.byte	0x50
 10354 034b 00000000 		.4byte	0
 10355 034f 00000000 		.4byte	0
 10356              	.LLST5:
 10357 0353 08000000 		.4byte	.LVL401
 10358 0357 0C000000 		.4byte	.LVL402
 10359 035b 0200     		.2byte	0x2
 10360 035d 30       		.byte	0x30
 10361 035e 9F       		.byte	0x9f
 10362 035f 0C000000 		.4byte	.LVL402
 10363 0363 14000000 		.4byte	.LVL403
 10364 0367 0100     		.2byte	0x1
 10365 0369 53       		.byte	0x53
ARM GAS  C:\Users\Diego\AppData\Local\Temp\cctVJSXF.s 			page 217


 10366 036a 16000000 		.4byte	.LVL404
 10367 036e 1C000000 		.4byte	.LVL405
 10368 0372 0100     		.2byte	0x1
 10369 0374 53       		.byte	0x53
 10370 0375 00000000 		.4byte	0
 10371 0379 00000000 		.4byte	0
 10372              		.section	.debug_aranges,"",%progbits
 10373 0000 7C000000 		.4byte	0x7c
 10374 0004 0200     		.2byte	0x2
 10375 0006 00000000 		.4byte	.Ldebug_info0
 10376 000a 04       		.byte	0x4
 10377 000b 00       		.byte	0
 10378 000c 0000     		.2byte	0
 10379 000e 0000     		.2byte	0
 10380 0010 00000000 		.4byte	.LFB73
 10381 0014 14000000 		.4byte	.LFE73-.LFB73
 10382 0018 00000000 		.4byte	.LFB63
 10383 001c 20000000 		.4byte	.LFE63-.LFB63
 10384 0020 00000000 		.4byte	.LFB64
 10385 0024 74000000 		.4byte	.LFE64-.LFB64
 10386 0028 00000000 		.4byte	.LFB65
 10387 002c 14000000 		.4byte	.LFE65-.LFB65
 10388 0030 00000000 		.4byte	.LFB66
 10389 0034 8C020000 		.4byte	.LFE66-.LFB66
 10390 0038 00000000 		.4byte	.LFB67
 10391 003c 50000000 		.4byte	.LFE67-.LFB67
 10392 0040 00000000 		.4byte	.LFB68
 10393 0044 C4000000 		.4byte	.LFE68-.LFB68
 10394 0048 00000000 		.4byte	.LFB69
 10395 004c 7C000000 		.4byte	.LFE69-.LFB69
 10396 0050 00000000 		.4byte	.LFB70
 10397 0054 04010000 		.4byte	.LFE70-.LFB70
 10398 0058 00000000 		.4byte	.LFB71
 10399 005c 840E0000 		.4byte	.LFE71-.LFB71
 10400 0060 00000000 		.4byte	.LFB72
 10401 0064 2C030000 		.4byte	.LFE72-.LFB72
 10402 0068 00000000 		.4byte	.LFB74
 10403 006c 14000000 		.4byte	.LFE74-.LFB74
 10404 0070 00000000 		.4byte	.LFB75
 10405 0074 84000000 		.4byte	.LFE75-.LFB75
 10406 0078 00000000 		.4byte	0
 10407 007c 00000000 		.4byte	0
 10408              		.section	.debug_ranges,"",%progbits
 10409              	.Ldebug_ranges0:
 10410 0000 00000000 		.4byte	.LFB73
 10411 0004 14000000 		.4byte	.LFE73
 10412 0008 00000000 		.4byte	.LFB63
 10413 000c 20000000 		.4byte	.LFE63
 10414 0010 00000000 		.4byte	.LFB64
 10415 0014 74000000 		.4byte	.LFE64
 10416 0018 00000000 		.4byte	.LFB65
 10417 001c 14000000 		.4byte	.LFE65
 10418 0020 00000000 		.4byte	.LFB66
 10419 0024 8C020000 		.4byte	.LFE66
 10420 0028 00000000 		.4byte	.LFB67
 10421 002c 50000000 		.4byte	.LFE67
 10422 0030 00000000 		.4byte	.LFB68
ARM GAS  C:\Users\Diego\AppData\Local\Temp\cctVJSXF.s 			page 218


 10423 0034 C4000000 		.4byte	.LFE68
 10424 0038 00000000 		.4byte	.LFB69
 10425 003c 7C000000 		.4byte	.LFE69
 10426 0040 00000000 		.4byte	.LFB70
 10427 0044 04010000 		.4byte	.LFE70
 10428 0048 00000000 		.4byte	.LFB71
 10429 004c 840E0000 		.4byte	.LFE71
 10430 0050 00000000 		.4byte	.LFB72
 10431 0054 2C030000 		.4byte	.LFE72
 10432 0058 00000000 		.4byte	.LFB74
 10433 005c 14000000 		.4byte	.LFE74
 10434 0060 00000000 		.4byte	.LFB75
 10435 0064 84000000 		.4byte	.LFE75
 10436 0068 00000000 		.4byte	0
 10437 006c 00000000 		.4byte	0
 10438              		.section	.debug_line,"",%progbits
 10439              	.Ldebug_line0:
 10440 0000 49080000 		.section	.debug_str,"MS",%progbits,1
 10440      02004E02 
 10440      00000201 
 10440      FB0E0D00 
 10440      01010101 
 10441              	.LASF242:
 10442 0000 43794465 		.ascii	"CyDelay\000"
 10442      6C617900 
 10443              	.LASF128:
 10444 0008 44495350 		.ascii	"DISPLAY_HORA\000"
 10444      4C41595F 
 10444      484F5241 
 10444      00
 10445              	.LASF104:
 10446 0015 44495350 		.ascii	"DISPLAY_INGRESE_PASSWORD\000"
 10446      4C41595F 
 10446      494E4752 
 10446      4553455F 
 10446      50415353 
 10447              	.LASF137:
 10448 002e 44495350 		.ascii	"DISPLAY_IMPRESORA_NO_FUNCIONANDO\000"
 10448      4C41595F 
 10448      494D5052 
 10448      45534F52 
 10448      415F4E4F 
 10449              	.LASF126:
 10450 004f 44495350 		.ascii	"DISPLAY_AUTORIZACION_RECHAZADA\000"
 10450      4C41595F 
 10450      4155544F 
 10450      52495A41 
 10450      43494F4E 
 10451              	.LASF220:
 10452 006e 636F756E 		.ascii	"count_protector2\000"
 10452      745F7072 
 10452      6F746563 
 10452      746F7232 
 10452      00
 10453              	.LASF190:
 10454 007f 64656369 		.ascii	"decimalVolume\000"
 10454      6D616C56 
ARM GAS  C:\Users\Diego\AppData\Local\Temp\cctVJSXF.s 			page 219


 10454      6F6C756D 
 10454      6500
 10455              	.LASF202:
 10456 008d 50726576 		.ascii	"PrevStatePump\000"
 10456      53746174 
 10456      6550756D 
 10456      7000
 10457              	.LASF140:
 10458 009b 44495350 		.ascii	"DISPLAY_DUMMY0\000"
 10458      4C41595F 
 10458      44554D4D 
 10458      593000
 10459              	.LASF243:
 10460 00aa 54696D65 		.ascii	"Timer_Animacion_ReadStatusRegister\000"
 10460      725F416E 
 10460      696D6163 
 10460      696F6E5F 
 10460      52656164 
 10461              	.LASF146:
 10462 00cd 476C6F62 		.ascii	"GlobalInitializer\000"
 10462      616C496E 
 10462      69746961 
 10462      6C697A65 
 10462      7200
 10463              	.LASF268:
 10464 00df 44697370 		.ascii	"Display2_GetRxBufferSize\000"
 10464      6C617932 
 10464      5F476574 
 10464      52784275 
 10464      66666572 
 10465              	.LASF58:
 10466 00f8 6D657373 		.ascii	"message\000"
 10466      61676500 
 10467              	.LASF139:
 10468 0100 44495350 		.ascii	"DISPLAY_PRECIO_POR_UNIDAD\000"
 10468      4C41595F 
 10468      50524543 
 10468      494F5F50 
 10468      4F525F55 
 10469              	.LASF263:
 10470 011a 746F7563 		.ascii	"touch_present\000"
 10470      685F7072 
 10470      6573656E 
 10470      7400
 10471              	.LASF210:
 10472 0128 73746174 		.ascii	"statePump\000"
 10472      6550756D 
 10472      7000
 10473              	.LASF77:
 10474 0132 62756666 		.ascii	"buffer\000"
 10474      657200
 10475              	.LASF255:
 10476 0139 616C7068 		.ascii	"alphanumeric_keyboard\000"
 10476      616E756D 
 10476      65726963 
 10476      5F6B6579 
 10476      626F6172 
ARM GAS  C:\Users\Diego\AppData\Local\Temp\cctVJSXF.s 			page 220


 10477              	.LASF230:
 10478 014f 70617373 		.ascii	"passwordPump\000"
 10478      776F7264 
 10478      50756D70 
 10478      00
 10479              	.LASF189:
 10480 015c 64656369 		.ascii	"decimalMoney\000"
 10480      6D616C4D 
 10480      6F6E6579 
 10480      00
 10481              	.LASF38:
 10482 0169 73616C65 		.ascii	"salePerform\000"
 10482      50657266 
 10482      6F726D00 
 10483              	.LASF11:
 10484 0175 756E7369 		.ascii	"unsigned int\000"
 10484      676E6564 
 10484      20696E74 
 10484      00
 10485              	.LASF63:
 10486 0182 70726F64 		.ascii	"productMarket\000"
 10486      7563744D 
 10486      61726B65 
 10486      7400
 10487              	.LASF215:
 10488 0190 5072696E 		.ascii	"PrinterType\000"
 10488      74657254 
 10488      79706500 
 10489              	.LASF6:
 10490 019c 5F5F696E 		.ascii	"__int32_t\000"
 10490      7433325F 
 10490      7400
 10491              	.LASF152:
 10492 01a6 556E6974 		.ascii	"Unit2\000"
 10492      3200
 10493              	.LASF56:
 10494 01ac 666C6167 		.ascii	"flagLiftHandle\000"
 10494      4C696674 
 10494      48616E64 
 10494      6C6500
 10495              	.LASF154:
 10496 01bb 556E6974 		.ascii	"Unit4\000"
 10496      3400
 10497              	.LASF106:
 10498 01c1 44495350 		.ascii	"DISPLAY_PASSWORD_INVALIDO\000"
 10498      4C41595F 
 10498      50415353 
 10498      574F5244 
 10498      5F494E56 
 10499              	.LASF195:
 10500 01db 72657369 		.ascii	"residue\000"
 10500      64756500 
 10501              	.LASF26:
 10502 01e3 69645479 		.ascii	"idType\000"
 10502      706500
 10503              	.LASF144:
 10504 01ea 44495350 		.ascii	"DISPLAY_SIDE_DUMMY_DISPLAY\000"
ARM GAS  C:\Users\Diego\AppData\Local\Temp\cctVJSXF.s 			page 221


 10504      4C41595F 
 10504      53494445 
 10504      5F44554D 
 10504      4D595F44 
 10505              	.LASF209:
 10506 0205 44444D6F 		.ascii	"DDMode\000"
 10506      646500
 10507              	.LASF228:
 10508 020c 73696465 		.ascii	"side\000"
 10508      00
 10509              	.LASF271:
 10510 0211 43795764 		.ascii	"CyWdtStart\000"
 10510      74537461 
 10510      727400
 10511              	.LASF229:
 10512 021c 4D757856 		.ascii	"MuxVersion\000"
 10512      65727369 
 10512      6F6E00
 10513              	.LASF96:
 10514 0227 44495350 		.ascii	"DISPLAY_INTRODUZCA_VALOR2\000"
 10514      4C41595F 
 10514      494E5452 
 10514      4F44555A 
 10514      43415F56 
 10515              	.LASF223:
 10516 0241 69645374 		.ascii	"idStation\000"
 10516      6174696F 
 10516      6E00
 10517              	.LASF153:
 10518 024b 556E6974 		.ascii	"Unit3\000"
 10518      3300
 10519              	.LASF236:
 10520 0251 4932435F 		.ascii	"I2C_Bus_Start\000"
 10520      4275735F 
 10520      53746172 
 10520      7400
 10521              	.LASF30:
 10522 025f 73656C65 		.ascii	"selectedSale\000"
 10522      63746564 
 10522      53616C65 
 10522      00
 10523              	.LASF64:
 10524 026c 7175616E 		.ascii	"quantityMarket\000"
 10524      74697479 
 10524      4D61726B 
 10524      657400
 10525              	.LASF171:
 10526 027b 44697370 		.ascii	"Display2_rxBuffer\000"
 10526      6C617932 
 10526      5F727842 
 10526      75666665 
 10526      7200
 10527              	.LASF184:
 10528 028d 666C6167 		.ascii	"flagPoint2\000"
 10528      506F696E 
 10528      743200
 10529              	.LASF194:
ARM GAS  C:\Users\Diego\AppData\Local\Temp\cctVJSXF.s 			page 222


 10530 0298 73637265 		.ascii	"screen\000"
 10530      656E00
 10531              	.LASF222:
 10532 029f 636F6E74 		.ascii	"controlChar\000"
 10532      726F6C43 
 10532      68617200 
 10533              	.LASF264:
 10534 02ab 746F7563 		.ascii	"touch_write\000"
 10534      685F7772 
 10534      69746500 
 10535              	.LASF165:
 10536 02b7 506F6C6C 		.ascii	"PollingDisplay1\000"
 10536      696E6744 
 10536      6973706C 
 10536      61793100 
 10537              	.LASF206:
 10538 02c7 4D6F6E65 		.ascii	"MoneyDec\000"
 10538      79446563 
 10538      00
 10539              	.LASF60:
 10540 02d0 766F6C75 		.ascii	"volumeQuota\000"
 10540      6D655175 
 10540      6F746100 
 10541              	.LASF249:
 10542 02dc 77726974 		.ascii	"write_psoc1\000"
 10542      655F7073 
 10542      6F633100 
 10543              	.LASF103:
 10544 02e8 44495350 		.ascii	"DISPLAY_DESEA_IMPRIMIR_RECIBO\000"
 10544      4C41595F 
 10544      44455345 
 10544      415F494D 
 10544      5052494D 
 10545              	.LASF203:
 10546 0306 506C6174 		.ascii	"PlateRequest\000"
 10546      65526571 
 10546      75657374 
 10546      00
 10547              	.LASF125:
 10548 0313 44495350 		.ascii	"DISPLAY_AUTORIZACION_ACEPTADA\000"
 10548      4C41595F 
 10548      4155544F 
 10548      52495A41 
 10548      43494F4E 
 10549              	.LASF18:
 10550 0331 666C6F61 		.ascii	"float\000"
 10550      7400
 10551              	.LASF136:
 10552 0337 44495350 		.ascii	"DISPLAY_AMBAS_IMPRESORAS_FUNCIONANDO\000"
 10552      4C41595F 
 10552      414D4241 
 10552      535F494D 
 10552      50524553 
 10553              	.LASF112:
 10554 035c 44495350 		.ascii	"DISPLAY_ESPERANDO_ID\000"
 10554      4C41595F 
 10554      45535045 
ARM GAS  C:\Users\Diego\AppData\Local\Temp\cctVJSXF.s 			page 223


 10554      52414E44 
 10554      4F5F4944 
 10555              	.LASF166:
 10556 0371 6C6F6361 		.ascii	"localStatePump\000"
 10556      6C537461 
 10556      74655075 
 10556      6D7000
 10557              	.LASF86:
 10558 0380 686F7365 		.ascii	"hose\000"
 10558      00
 10559              	.LASF151:
 10560 0385 556E6974 		.ascii	"Unit\000"
 10560      00
 10561              	.LASF10:
 10562 038a 6C6F6E67 		.ascii	"long long unsigned int\000"
 10562      206C6F6E 
 10562      6720756E 
 10562      7369676E 
 10562      65642069 
 10563              	.LASF254:
 10564 03a1 57726974 		.ascii	"WriteLCD\000"
 10564      654C4344 
 10564      00
 10565              	.LASF115:
 10566 03aa 44495350 		.ascii	"DISPLAY_INTRODUZCA_VOLUMEN\000"
 10566      4C41595F 
 10566      494E5452 
 10566      4F44555A 
 10566      43415F56 
 10567              	.LASF46:
 10568 03c5 746F7461 		.ascii	"totalVolumePrevious\000"
 10568      6C566F6C 
 10568      756D6550 
 10568      72657669 
 10568      6F757300 
 10569              	.LASF118:
 10570 03d9 44495350 		.ascii	"DISPLAY_CONFIGURACIONES\000"
 10570      4C41595F 
 10570      434F4E46 
 10570      49475552 
 10570      4143494F 
 10571              	.LASF221:
 10572 03f1 636F6E66 		.ascii	"configAccess\000"
 10572      69674163 
 10572      63657373 
 10572      00
 10573              	.LASF4:
 10574 03fe 5F5F7569 		.ascii	"__uint16_t\000"
 10574      6E743136 
 10574      5F7400
 10575              	.LASF123:
 10576 0409 44495350 		.ascii	"DISPLAY_ESPERANDO_AUTORIZACION\000"
 10576      4C41595F 
 10576      45535045 
 10576      52414E44 
 10576      4F5F4155 
 10577              	.LASF213:
ARM GAS  C:\Users\Diego\AppData\Local\Temp\cctVJSXF.s 			page 224


 10578 0428 64696769 		.ascii	"digits\000"
 10578      747300
 10579              	.LASF160:
 10580 042f 496E6974 		.ascii	"InitPump\000"
 10580      50756D70 
 10580      00
 10581              	.LASF192:
 10582 0438 74696D65 		.ascii	"time\000"
 10582      00
 10583              	.LASF161:
 10584 043d 5072696E 		.ascii	"PrintTest\000"
 10584      74546573 
 10584      7400
 10585              	.LASF41:
 10586 0447 70726F64 		.ascii	"productType\000"
 10586      75637454 
 10586      79706500 
 10587              	.LASF185:
 10588 0453 70726F64 		.ascii	"productNumber\000"
 10588      7563744E 
 10588      756D6265 
 10588      7200
 10589              	.LASF197:
 10590 0461 69645365 		.ascii	"idSeller\000"
 10590      6C6C6572 
 10590      00
 10591              	.LASF27:
 10592 046a 69645365 		.ascii	"idSerial\000"
 10592      7269616C 
 10592      00
 10593              	.LASF212:
 10594 0473 6C6F636B 		.ascii	"lockTurn\000"
 10594      5475726E 
 10594      00
 10595              	.LASF52:
 10596 047c 6D696C65 		.ascii	"mileageSale\000"
 10596      61676553 
 10596      616C6500 
 10597              	.LASF72:
 10598 0488 666C6167 		.ascii	"flagChangePPU\000"
 10598      4368616E 
 10598      67655050 
 10598      5500
 10599              	.LASF92:
 10600 0496 44495350 		.ascii	"DISPLAY_INICIO2\000"
 10600      4C41595F 
 10600      494E4943 
 10600      494F3200 
 10601              	.LASF233:
 10602 04a6 44697370 		.ascii	"Display1_Start\000"
 10602      6C617931 
 10602      5F537461 
 10602      727400
 10603              	.LASF247:
 10604 04b5 5F426F6F 		.ascii	"_Bool\000"
 10604      6C00
 10605              	.LASF73:
ARM GAS  C:\Users\Diego\AppData\Local\Temp\cctVJSXF.s 			page 225


 10606 04bb 666C6167 		.ascii	"flagPrint\000"
 10606      5072696E 
 10606      7400
 10607              	.LASF74:
 10608 04c5 666C6167 		.ascii	"flagActiveSale\000"
 10608      41637469 
 10608      76655361 
 10608      6C6500
 10609              	.LASF155:
 10610 04d4 44697370 		.ascii	"DisplayMode0\000"
 10610      6C61794D 
 10610      6F646530 
 10610      00
 10611              	.LASF177:
 10612 04e1 666C6F77 		.ascii	"flowDisplay1\000"
 10612      44697370 
 10612      6C617931 
 10612      00
 10613              	.LASF157:
 10614 04ee 44697370 		.ascii	"DisplayMode2\000"
 10614      6C61794D 
 10614      6F646532 
 10614      00
 10615              	.LASF158:
 10616 04fb 44697370 		.ascii	"DisplayMode3\000"
 10616      6C61794D 
 10616      6F646533 
 10616      00
 10617              	.LASF180:
 10618 0508 666C6F77 		.ascii	"flowDisplay4\000"
 10618      44697370 
 10618      6C617934 
 10618      00
 10619              	.LASF231:
 10620 0515 45455052 		.ascii	"EEPROM_1_Start\000"
 10620      4F4D5F31 
 10620      5F537461 
 10620      727400
 10621              	.LASF244:
 10622 0524 6765745F 		.ascii	"get_position\000"
 10622      706F7369 
 10622      74696F6E 
 10622      00
 10623              	.LASF62:
 10624 0531 73657269 		.ascii	"serialMarket\000"
 10624      616C4D61 
 10624      726B6574 
 10624      00
 10625              	.LASF79:
 10626 053e 746F7461 		.ascii	"totalsHandle\000"
 10626      6C734861 
 10626      6E646C65 
 10626      00
 10627              	.LASF40:
 10628 054b 70726573 		.ascii	"presetValue\000"
 10628      65745661 
 10628      6C756500 
ARM GAS  C:\Users\Diego\AppData\Local\Temp\cctVJSXF.s 			page 226


 10629              	.LASF267:
 10630 0557 53686F77 		.ascii	"ShowRectangle\000"
 10630      52656374 
 10630      616E676C 
 10630      6500
 10631              	.LASF93:
 10632 0565 44495350 		.ascii	"DISPLAY_FORMA_PAGO_DESEADA\000"
 10632      4C41595F 
 10632      464F524D 
 10632      415F5041 
 10632      474F5F44 
 10633              	.LASF239:
 10634 0580 45455052 		.ascii	"EEPROM_1_ReadByte\000"
 10634      4F4D5F31 
 10634      5F526561 
 10634      64427974 
 10634      6500
 10635              	.LASF53:
 10636 0592 6964656E 		.ascii	"identySale\000"
 10636      74795361 
 10636      6C6500
 10637              	.LASF37:
 10638 059d 73616C65 		.ascii	"saleType\000"
 10638      54797065 
 10638      00
 10639              	.LASF163:
 10640 05a6 616E696D 		.ascii	"animacion\000"
 10640      6163696F 
 10640      6E00
 10641              	.LASF258:
 10642 05b0 50756D70 		.ascii	"PumpHoseActiveState\000"
 10642      486F7365 
 10642      41637469 
 10642      76655374 
 10642      61746500 
 10643              	.LASF35:
 10644 05c4 76616C75 		.ascii	"valueKeys\000"
 10644      654B6579 
 10644      7300
 10645              	.LASF22:
 10646 05ce 63686172 		.ascii	"char\000"
 10646      00
 10647              	.LASF205:
 10648 05d3 436F6E76 		.ascii	"ConversionFactor\000"
 10648      65727369 
 10648      6F6E4661 
 10648      63746F72 
 10648      00
 10649              	.LASF181:
 10650 05e4 6E756D62 		.ascii	"numberKeys1\000"
 10650      65724B65 
 10650      79733100 
 10651              	.LASF182:
 10652 05f0 6E756D62 		.ascii	"numberKeys2\000"
 10652      65724B65 
 10652      79733200 
 10653              	.LASF260:
ARM GAS  C:\Users\Diego\AppData\Local\Temp\cctVJSXF.s 			page 227


 10654 05fc 50756D70 		.ascii	"Pump_PutChar\000"
 10654      5F507574 
 10654      43686172 
 10654      00
 10655              	.LASF175:
 10656 0609 636F756E 		.ascii	"countBeagleTX\000"
 10656      74426561 
 10656      676C6554 
 10656      5800
 10657              	.LASF232:
 10658 0617 50756D70 		.ascii	"Pump_Start\000"
 10658      5F537461 
 10658      727400
 10659              	.LASF90:
 10660 0622 44495350 		.ascii	"DISPLAY_INICIO0\000"
 10660      4C41595F 
 10660      494E4943 
 10660      494F3000 
 10661              	.LASF91:
 10662 0632 44495350 		.ascii	"DISPLAY_INICIO1\000"
 10662      4C41595F 
 10662      494E4943 
 10662      494F3100 
 10663              	.LASF16:
 10664 0642 75696E74 		.ascii	"uint16\000"
 10664      313600
 10665              	.LASF94:
 10666 0649 44495350 		.ascii	"DISPLAY_FORMA_PROGRAMACION\000"
 10666      4C41595F 
 10666      464F524D 
 10666      415F5052 
 10666      4F475241 
 10667              	.LASF193:
 10668 0664 64617465 		.ascii	"date\000"
 10668      00
 10669              	.LASF214:
 10670 0669 68696464 		.ascii	"hiddenKeys\000"
 10670      656E4B65 
 10670      797300
 10671              	.LASF12:
 10672 0674 75696E74 		.ascii	"uint8_t\000"
 10672      385F7400 
 10673              	.LASF162:
 10674 067c 6461746F 		.ascii	"dato\000"
 10674      00
 10675              	.LASF55:
 10676 0681 666C6167 		.ascii	"flagPayment\000"
 10676      5061796D 
 10676      656E7400 
 10677              	.LASF21:
 10678 068d 63686172 		.ascii	"char8\000"
 10678      3800
 10679              	.LASF116:
 10680 0693 44495350 		.ascii	"DISPLAY_INTRODUZCA_KILOMETRAJE\000"
 10680      4C41595F 
 10680      494E5452 
 10680      4F44555A 
ARM GAS  C:\Users\Diego\AppData\Local\Temp\cctVJSXF.s 			page 228


 10680      43415F4B 
 10681              	.LASF61:
 10682 06b2 70707551 		.ascii	"ppuQuota\000"
 10682      756F7461 
 10682      00
 10683              	.LASF48:
 10684 06bb 746F7461 		.ascii	"totalMoneyAfter\000"
 10684      6C4D6F6E 
 10684      65794166 
 10684      74657200 
 10685              	.LASF59:
 10686 06cb 6D6F6E65 		.ascii	"moneyQuota\000"
 10686      7951756F 
 10686      746100
 10687              	.LASF257:
 10688 06d6 54696D65 		.ascii	"Timer_Animacion_Start\000"
 10688      725F416E 
 10688      696D6163 
 10688      696F6E5F 
 10688      53746172 
 10689              	.LASF71:
 10690 06ec 7072696E 		.ascii	"printers\000"
 10690      74657273 
 10690      00
 10691              	.LASF156:
 10692 06f5 44697370 		.ascii	"DisplayMode\000"
 10692      6C61794D 
 10692      6F646500 
 10693              	.LASF234:
 10694 0701 44697370 		.ascii	"Display2_Start\000"
 10694      6C617932 
 10694      5F537461 
 10694      727400
 10695              	.LASF81:
 10696 0710 6D6F6E65 		.ascii	"moneySale\000"
 10696      7953616C 
 10696      6500
 10697              	.LASF9:
 10698 071a 6C6F6E67 		.ascii	"long long int\000"
 10698      206C6F6E 
 10698      6720696E 
 10698      7400
 10699              	.LASF238:
 10700 0728 45455052 		.ascii	"EEPROM_1_WriteByte\000"
 10700      4F4D5F31 
 10700      5F577269 
 10700      74654279 
 10700      746500
 10701              	.LASF246:
 10702 073b 50756D70 		.ascii	"PumpIsInValidState\000"
 10702      4973496E 
 10702      56616C69 
 10702      64537461 
 10702      746500
 10703              	.LASF99:
 10704 074e 44495350 		.ascii	"DISPLAY_SUBA_MANIJA\000"
 10704      4C41595F 
ARM GAS  C:\Users\Diego\AppData\Local\Temp\cctVJSXF.s 			page 229


 10704      53554241 
 10704      5F4D414E 
 10704      494A4100 
 10705              	.LASF138:
 10706 0762 44495350 		.ascii	"DISPLAY_IDENTIFICADOR_ESTACION\000"
 10706      4C41595F 
 10706      4944454E 
 10706      54494649 
 10706      4341444F 
 10707              	.LASF135:
 10708 0781 44495350 		.ascii	"DISPLAY_USUARIO_INVALIDO\000"
 10708      4C41595F 
 10708      55535541 
 10708      52494F5F 
 10708      494E5641 
 10709              	.LASF83:
 10710 079a 70707553 		.ascii	"ppuSale\000"
 10710      616C6500 
 10711              	.LASF173:
 10712 07a2 636F756E 		.ascii	"countAnimation1\000"
 10712      74416E69 
 10712      6D617469 
 10712      6F6E3100 
 10713              	.LASF211:
 10714 07b2 4E756D50 		.ascii	"NumPositions\000"
 10714      6F736974 
 10714      696F6E73 
 10714      00
 10715              	.LASF250:
 10716 07bf 6973725F 		.ascii	"isr_3_Stop\000"
 10716      335F5374 
 10716      6F7000
 10717              	.LASF201:
 10718 07ca 73746174 		.ascii	"stateBeagleSoft\000"
 10718      65426561 
 10718      676C6553 
 10718      6F667400 
 10719              	.LASF131:
 10720 07da 44495350 		.ascii	"DISPLAY_ABRIR_TURNO\000"
 10720      4C41595F 
 10720      41425249 
 10720      525F5455 
 10720      524E4F00 
 10721              	.LASF47:
 10722 07ee 746F7461 		.ascii	"totalPPUPrevious\000"
 10722      6C505055 
 10722      50726576 
 10722      696F7573 
 10722      00
 10723              	.LASF174:
 10724 07ff 636F756E 		.ascii	"countAnimation2\000"
 10724      74416E69 
 10724      6D617469 
 10724      6F6E3200 
 10725              	.LASF145:
 10726 080f 44495350 		.ascii	"DISPLAY_NULL\000"
 10726      4C41595F 
ARM GAS  C:\Users\Diego\AppData\Local\Temp\cctVJSXF.s 			page 230


 10726      4E554C4C 
 10726      00
 10727              	.LASF68:
 10728 081c 746F7461 		.ascii	"totalMarket\000"
 10728      6C4D6172 
 10728      6B657400 
 10729              	.LASF105:
 10730 0828 44495350 		.ascii	"DISPLAY_PASSWORD_VALIDO\000"
 10730      4C41595F 
 10730      50415353 
 10730      574F5244 
 10730      5F56414C 
 10731              	.LASF150:
 10732 0840 696E6954 		.ascii	"iniText\000"
 10732      65787400 
 10733              	.LASF36:
 10734 0848 76656869 		.ascii	"vehicleType\000"
 10734      636C6554 
 10734      79706500 
 10735              	.LASF24:
 10736 0854 63796973 		.ascii	"cyisraddress\000"
 10736      72616464 
 10736      72657373 
 10736      00
 10737              	.LASF54:
 10738 0861 666C6167 		.ascii	"flagKeyboard\000"
 10738      4B657962 
 10738      6F617264 
 10738      00
 10739              	.LASF149:
 10740 086e 496E6974 		.ascii	"InitDisplay1\000"
 10740      44697370 
 10740      6C617931 
 10740      00
 10741              	.LASF159:
 10742 087b 496E6974 		.ascii	"InitDisplay2\000"
 10742      44697370 
 10742      6C617932 
 10742      00
 10743              	.LASF218:
 10744 0888 74696D65 		.ascii	"timeDownHandle\000"
 10744      446F776E 
 10744      48616E64 
 10744      6C6500
 10745              	.LASF248:
 10746 0897 50756D70 		.ascii	"PumpCompleteConfiguration\000"
 10746      436F6D70 
 10746      6C657465 
 10746      436F6E66 
 10746      69677572 
 10747              	.LASF17:
 10748 08b1 75696E74 		.ascii	"uint32\000"
 10748      333200
 10749              	.LASF167:
 10750 08b8 506F6C6C 		.ascii	"PollingDisplay2\000"
 10750      696E6744 
 10750      6973706C 
ARM GAS  C:\Users\Diego\AppData\Local\Temp\cctVJSXF.s 			page 231


 10750      61793200 
 10751              	.LASF200:
 10752 08c8 666C6167 		.ascii	"flagResetMux\000"
 10752      52657365 
 10752      744D7578 
 10752      00
 10753              	.LASF100:
 10754 08d5 44495350 		.ascii	"DISPLAY_DESPACHANDO\000"
 10754      4C41595F 
 10754      44455350 
 10754      41434841 
 10754      4E444F00 
 10755              	.LASF275:
 10756 08e9 433A5C55 		.ascii	"C:\\Users\\Diego\\Documents\\GitHub\\NSY-DH\\Worksp"
 10756      73657273 
 10756      5C446965 
 10756      676F5C44 
 10756      6F63756D 
 10757 0916 61636530 		.ascii	"ace01\\Design01.cydsn\000"
 10757      315C4465 
 10757      7369676E 
 10757      30312E63 
 10757      7964736E 
 10758              	.LASF272:
 10759 092b 43795764 		.ascii	"CyWdtClear\000"
 10759      74436C65 
 10759      617200
 10760              	.LASF240:
 10761 0936 53657450 		.ascii	"SetPicture\000"
 10761      69637475 
 10761      726500
 10762              	.LASF164:
 10763 0941 506F6C6C 		.ascii	"PollingPump\000"
 10763      696E6750 
 10763      756D7000 
 10764              	.LASF113:
 10765 094d 44495350 		.ascii	"DISPLAY_ID_RECONOCIDO\000"
 10765      4C41595F 
 10765      49445F52 
 10765      45434F4E 
 10765      4F434944 
 10766              	.LASF237:
 10767 0963 52465F43 		.ascii	"RF_Connection_Start\000"
 10767      6F6E6E65 
 10767      6374696F 
 10767      6E5F5374 
 10767      61727400 
 10768              	.LASF50:
 10769 0977 746F7461 		.ascii	"totalPPUAfter\000"
 10769      6C505055 
 10769      41667465 
 10769      7200
 10770              	.LASF13:
 10771 0985 75696E74 		.ascii	"uint16_t\000"
 10771      31365F74 
 10771      00
 10772              	.LASF33:
ARM GAS  C:\Users\Diego\AppData\Local\Temp\cctVJSXF.s 			page 232


 10773 098e 6B657962 		.ascii	"keyboardWayToPay\000"
 10773      6F617264 
 10773      57617954 
 10773      6F506179 
 10773      00
 10774              	.LASF188:
 10775 099f 70707578 		.ascii	"ppux10\000"
 10775      313000
 10776              	.LASF45:
 10777 09a6 746F7461 		.ascii	"totalMoneyPrevious\000"
 10777      6C4D6F6E 
 10777      65795072 
 10777      6576696F 
 10777      757300
 10778              	.LASF102:
 10779 09b9 44495350 		.ascii	"DISPLAY_DIGITE_PLACA\000"
 10779      4C41595F 
 10779      44494749 
 10779      54455F50 
 10779      4C414341 
 10780              	.LASF183:
 10781 09ce 666C6167 		.ascii	"flagPoint1\000"
 10781      506F696E 
 10781      743100
 10782              	.LASF31:
 10783 09d9 6D6F6E65 		.ascii	"moneySelectedSale\000"
 10783      7953656C 
 10783      65637465 
 10783      6453616C 
 10783      6500
 10784              	.LASF191:
 10785 09eb 73796D62 		.ascii	"symbols\000"
 10785      6F6C7300 
 10786              	.LASF129:
 10787 09f3 44495350 		.ascii	"DISPLAY_FECHA\000"
 10787      4C41595F 
 10787      46454348 
 10787      4100
 10788              	.LASF95:
 10789 0a01 44495350 		.ascii	"DISPLAY_INTRODUZCA_VALOR\000"
 10789      4C41595F 
 10789      494E5452 
 10789      4F44555A 
 10789      43415F56 
 10790              	.LASF251:
 10791 0a1a 54696D65 		.ascii	"Timer_Animacion_Stop\000"
 10791      725F416E 
 10791      696D6163 
 10791      696F6E5F 
 10791      53746F70 
 10792              	.LASF217:
 10793 0a2f 64617465 		.ascii	"dateDownHandle\000"
 10793      446F776E 
 10793      48616E64 
 10793      6C6500
 10794              	.LASF51:
 10795 0a3e 6C696365 		.ascii	"licenceSale\000"
ARM GAS  C:\Users\Diego\AppData\Local\Temp\cctVJSXF.s 			page 233


 10795      6E636553 
 10795      616C6500 
 10796              	.LASF70:
 10797 0a4a 70726963 		.ascii	"priceConsign\000"
 10797      65436F6E 
 10797      7369676E 
 10797      00
 10798              	.LASF2:
 10799 0a57 73686F72 		.ascii	"short int\000"
 10799      7420696E 
 10799      7400
 10800              	.LASF262:
 10801 0a61 696D7072 		.ascii	"imprimir\000"
 10801      696D6972 
 10801      00
 10802              	.LASF7:
 10803 0a6a 6C6F6E67 		.ascii	"long int\000"
 10803      20696E74 
 10803      00
 10804              	.LASF148:
 10805 0a73 6C6F6164 		.ascii	"loadConfiguration\000"
 10805      436F6E66 
 10805      69677572 
 10805      6174696F 
 10805      6E00
 10806              	.LASF172:
 10807 0a85 49544D5F 		.ascii	"ITM_RxBuffer\000"
 10807      52784275 
 10807      66666572 
 10807      00
 10808              	.LASF108:
 10809 0a92 44495350 		.ascii	"DISPLAY_TIEMPO_EXPIRADO\000"
 10809      4C41595F 
 10809      5449454D 
 10809      504F5F45 
 10809      58504952 
 10810              	.LASF75:
 10811 0aaa 73686966 		.ascii	"shiftId\000"
 10811      74496400 
 10812              	.LASF107:
 10813 0ab2 44495350 		.ascii	"DISPLAY_NUEVO_PASSWORD\000"
 10813      4C41595F 
 10813      4E554556 
 10813      4F5F5041 
 10813      5353574F 
 10814              	.LASF127:
 10815 0ac9 44495350 		.ascii	"DISPLAY_CONFIGURAR_FECHA_HORA\000"
 10815      4C41595F 
 10815      434F4E46 
 10815      49475552 
 10815      41525F46 
 10816              	.LASF124:
 10817 0ae7 44495350 		.ascii	"DISPLAY_POR_FAVOR_ESPERE\000"
 10817      4C41595F 
 10817      504F525F 
 10817      4641564F 
 10817      525F4553 
ARM GAS  C:\Users\Diego\AppData\Local\Temp\cctVJSXF.s 			page 234


 10818              	.LASF266:
 10819 0b00 6372635F 		.ascii	"crc_check\000"
 10819      63686563 
 10819      6B00
 10820              	.LASF178:
 10821 0b0a 666C6F77 		.ascii	"flowDisplay2\000"
 10821      44697370 
 10821      6C617932 
 10821      00
 10822              	.LASF269:
 10823 0b17 44697370 		.ascii	"Display2_ClearRxBuffer\000"
 10823      6C617932 
 10823      5F436C65 
 10823      61725278 
 10823      42756666 
 10824              	.LASF179:
 10825 0b2e 666C6F77 		.ascii	"flowDisplay3\000"
 10825      44697370 
 10825      6C617933 
 10825      00
 10826              	.LASF57:
 10827 0b3b 666C6167 		.ascii	"flagEndSale\000"
 10827      456E6453 
 10827      616C6500 
 10828              	.LASF114:
 10829 0b47 44495350 		.ascii	"DISPLAY_INTRODUZCA_CEDULA\000"
 10829      4C41595F 
 10829      494E5452 
 10829      4F44555A 
 10829      43415F43 
 10830              	.LASF120:
 10831 0b61 44495350 		.ascii	"DISPLAY_IMPRIMIENDO_RECIBO\000"
 10831      4C41595F 
 10831      494D5052 
 10831      494D4945 
 10831      4E444F5F 
 10832              	.LASF43:
 10833 0b7c 64617465 		.ascii	"dateLiftHandle\000"
 10833      4C696674 
 10833      48616E64 
 10833      6C6500
 10834              	.LASF87:
 10835 0b8b 686F7365 		.ascii	"hoseNumber\000"
 10835      4E756D62 
 10835      657200
 10836              	.LASF225:
 10837 0b96 62756666 		.ascii	"bufferDisplay2\000"
 10837      65724469 
 10837      73706C61 
 10837      793200
 10838              	.LASF226:
 10839 0ba5 62756666 		.ascii	"bufferDisplay3\000"
 10839      65724469 
 10839      73706C61 
 10839      793300
 10840              	.LASF110:
 10841 0bb4 44495350 		.ascii	"DISPLAY_ID_DIGITAL\000"
ARM GAS  C:\Users\Diego\AppData\Local\Temp\cctVJSXF.s 			page 235


 10841      4C41595F 
 10841      49445F44 
 10841      49474954 
 10841      414C00
 10842              	.LASF117:
 10843 0bc7 44495350 		.ascii	"DISPLAY_OPERACIONES\000"
 10843      4C41595F 
 10843      4F504552 
 10843      4143494F 
 10843      4E455300 
 10844              	.LASF3:
 10845 0bdb 5F5F7569 		.ascii	"__uint8_t\000"
 10845      6E74385F 
 10845      7400
 10846              	.LASF199:
 10847 0be5 70617373 		.ascii	"passwordSeller\000"
 10847      776F7264 
 10847      53656C6C 
 10847      657200
 10848              	.LASF49:
 10849 0bf4 746F7461 		.ascii	"totalVolumeAfter\000"
 10849      6C566F6C 
 10849      756D6541 
 10849      66746572 
 10849      00
 10850              	.LASF204:
 10851 0c05 556E6974 		.ascii	"UnitType\000"
 10851      54797065 
 10851      00
 10852              	.LASF20:
 10853 0c0e 75696E74 		.ascii	"uint64\000"
 10853      363400
 10854              	.LASF168:
 10855 0c15 616E696D 		.ascii	"animacion2\000"
 10855      6163696F 
 10855      6E3200
 10856              	.LASF186:
 10857 0c20 64656C61 		.ascii	"delayPicture1\000"
 10857      79506963 
 10857      74757265 
 10857      3100
 10858              	.LASF187:
 10859 0c2e 64656C61 		.ascii	"delayPicture2\000"
 10859      79506963 
 10859      74757265 
 10859      3200
 10860              	.LASF42:
 10861 0c3c 73746174 		.ascii	"stateMux\000"
 10861      654D7578 
 10861      00
 10862              	.LASF25:
 10863 0c45 73697A65 		.ascii	"sizetype\000"
 10863      74797065 
 10863      00
 10864              	.LASF8:
 10865 0c4e 6C6F6E67 		.ascii	"long unsigned int\000"
 10865      20756E73 
ARM GAS  C:\Users\Diego\AppData\Local\Temp\cctVJSXF.s 			page 236


 10865      69676E65 
 10865      6420696E 
 10865      7400
 10866              	.LASF101:
 10867 0c60 44495350 		.ascii	"DISPLAY_BAJE_MANIJA\000"
 10867      4C41595F 
 10867      42414A45 
 10867      5F4D414E 
 10867      494A4100 
 10868              	.LASF208:
 10869 0c74 50505544 		.ascii	"PPUDec\000"
 10869      656300
 10870              	.LASF85:
 10871 0c7b 61637469 		.ascii	"activeHose\000"
 10871      7665486F 
 10871      736500
 10872              	.LASF270:
 10873 0c86 54696D65 		.ascii	"Timer_Animacion2_ReadStatusRegister\000"
 10873      725F416E 
 10873      696D6163 
 10873      696F6E32 
 10873      5F526561 
 10874              	.LASF69:
 10875 0caa 666C6167 		.ascii	"flagProductmarket\000"
 10875      50726F64 
 10875      7563746D 
 10875      61726B65 
 10875      7400
 10876              	.LASF14:
 10877 0cbc 696E7433 		.ascii	"int32_t\000"
 10877      325F7400 
 10878              	.LASF265:
 10879 0cc4 746F7563 		.ascii	"touch_read_byte\000"
 10879      685F7265 
 10879      61645F62 
 10879      79746500 
 10880              	.LASF241:
 10881 0cd4 53686F77 		.ascii	"ShowMessage\000"
 10881      4D657373 
 10881      61676500 
 10882              	.LASF216:
 10883 0ce0 566F6C55 		.ascii	"VolUnit\000"
 10883      6E697400 
 10884              	.LASF65:
 10885 0ce8 7175616E 		.ascii	"quantAvailableMark\000"
 10885      74417661 
 10885      696C6162 
 10885      6C654D61 
 10885      726B00
 10886              	.LASF23:
 10887 0cfb 63797374 		.ascii	"cystatus\000"
 10887      61747573 
 10887      00
 10888              	.LASF133:
 10889 0d04 44495350 		.ascii	"DISPLAY_CANCELADO_X_PC\000"
 10889      4C41595F 
 10889      43414E43 
ARM GAS  C:\Users\Diego\AppData\Local\Temp\cctVJSXF.s 			page 237


 10889      454C4144 
 10889      4F5F585F 
 10890              	.LASF29:
 10891 0d1b 666C6167 		.ascii	"flagWayToPayMixed\000"
 10891      57617954 
 10891      6F506179 
 10891      4D697865 
 10891      6400
 10892              	.LASF1:
 10893 0d2d 756E7369 		.ascii	"unsigned char\000"
 10893      676E6564 
 10893      20636861 
 10893      7200
 10894              	.LASF134:
 10895 0d3b 44495350 		.ascii	"DISPLAY_USUARIO_VALIDO\000"
 10895      4C41595F 
 10895      55535541 
 10895      52494F5F 
 10895      56414C49 
 10896              	.LASF245:
 10897 0d52 6765745F 		.ascii	"get_state\000"
 10897      73746174 
 10897      6500
 10898              	.LASF121:
 10899 0d5c 44495350 		.ascii	"DISPLAY_SELECCIONE_POSICION\000"
 10899      4C41595F 
 10899      53454C45 
 10899      4343494F 
 10899      4E455F50 
 10900              	.LASF273:
 10901 0d78 474E5520 		.ascii	"GNU C 4.9.3 20150303 (release) [ARM/embedded-4_9-br"
 10901      4320342E 
 10901      392E3320 
 10901      32303135 
 10901      30333033 
 10902 0dab 616E6368 		.ascii	"anch revision 221220] -mcpu=cortex-m3 -mthumb -g -O"
 10902      20726576 
 10902      6973696F 
 10902      6E203232 
 10902      31323230 
 10903 0dde 67202D66 		.ascii	"g -ffunction-sections -ffat-lto-objects\000"
 10903      66756E63 
 10903      74696F6E 
 10903      2D736563 
 10903      74696F6E 
 10904              	.LASF122:
 10905 0e06 44495350 		.ascii	"DISPLAY_OPERACION_CANCELADA\000"
 10905      4C41595F 
 10905      4F504552 
 10905      4143494F 
 10905      4E5F4341 
 10906              	.LASF34:
 10907 0e22 61757468 		.ascii	"authorizationFlag\000"
 10907      6F72697A 
 10907      6174696F 
 10907      6E466C61 
 10907      6700
ARM GAS  C:\Users\Diego\AppData\Local\Temp\cctVJSXF.s 			page 238


 10908              	.LASF66:
 10909 0e34 70726963 		.ascii	"priceTotalMarket\000"
 10909      65546F74 
 10909      616C4D61 
 10909      726B6574 
 10909      00
 10910              	.LASF130:
 10911 0e45 44495350 		.ascii	"DISPLAY_OPCION_TURNO\000"
 10911      4C41595F 
 10911      4F504349 
 10911      4F4E5F54 
 10911      55524E4F 
 10912              	.LASF256:
 10913 0e5a 6973725F 		.ascii	"isr_3_StartEx\000"
 10913      335F5374 
 10913      61727445 
 10913      7800
 10914              	.LASF252:
 10915 0e68 44697370 		.ascii	"Display1_GetRxBufferSize\000"
 10915      6C617931 
 10915      5F476574 
 10915      52784275 
 10915      66666572 
 10916              	.LASF88:
 10917 0e81 70756D70 		.ascii	"pump\000"
 10917      00
 10918              	.LASF132:
 10919 0e86 44495350 		.ascii	"DISPLAY_CERRAR_TURNO\000"
 10919      4C41595F 
 10919      43455252 
 10919      41525F54 
 10919      55524E4F 
 10920              	.LASF196:
 10921 0e9b 74656D70 		.ascii	"temporal\000"
 10921      6F72616C 
 10921      00
 10922              	.LASF207:
 10923 0ea4 566F6C44 		.ascii	"VolDec\000"
 10923      656300
 10924              	.LASF39:
 10925 0eab 70726573 		.ascii	"presetType\000"
 10925      65745479 
 10925      706500
 10926              	.LASF67:
 10927 0eb6 70726963 		.ascii	"priceUnitMarket\000"
 10927      65556E69 
 10927      744D6172 
 10927      6B657400 
 10928              	.LASF111:
 10929 0ec6 44495350 		.ascii	"DISPLAY_ID_NO_RECONOCIDO\000"
 10929      4C41595F 
 10929      49445F4E 
 10929      4F5F5245 
 10929      434F4E4F 
 10930              	.LASF198:
 10931 0edf 74797065 		.ascii	"typeIdSeller\000"
 10931      49645365 
ARM GAS  C:\Users\Diego\AppData\Local\Temp\cctVJSXF.s 			page 239


 10931      6C6C6572 
 10931      00
 10932              	.LASF82:
 10933 0eec 766F6C75 		.ascii	"volumeSale\000"
 10933      6D655361 
 10933      6C6500
 10934              	.LASF259:
 10935 0ef7 50726573 		.ascii	"PresetData\000"
 10935      65744461 
 10935      746100
 10936              	.LASF76:
 10937 0f02 73686966 		.ascii	"shiftPassword\000"
 10937      74506173 
 10937      73776F72 
 10937      6400
 10938              	.LASF141:
 10939 0f10 44495350 		.ascii	"DISPLAY_DUMMY1\000"
 10939      4C41595F 
 10939      44554D4D 
 10939      593100
 10940              	.LASF142:
 10941 0f1f 44495350 		.ascii	"DISPLAY_DUMMY2\000"
 10941      4C41595F 
 10941      44554D4D 
 10941      593200
 10942              	.LASF143:
 10943 0f2e 44495350 		.ascii	"DISPLAY_DUMMY3\000"
 10943      4C41595F 
 10943      44554D4D 
 10943      593300
 10944              	.LASF0:
 10945 0f3d 7369676E 		.ascii	"signed char\000"
 10945      65642063 
 10945      68617200 
 10946              	.LASF97:
 10947 0f49 44495350 		.ascii	"DISPLAY_SELECCIONE_PRODUCTO3\000"
 10947      4C41595F 
 10947      53454C45 
 10947      4343494F 
 10947      4E455F50 
 10948              	.LASF98:
 10949 0f66 44495350 		.ascii	"DISPLAY_SELECCIONE_PRODUCTO4\000"
 10949      4C41595F 
 10949      53454C45 
 10949      4343494F 
 10949      4E455F50 
 10950              	.LASF219:
 10951 0f83 636F756E 		.ascii	"count_protector\000"
 10951      745F7072 
 10951      6F746563 
 10951      746F7200 
 10952              	.LASF5:
 10953 0f93 73686F72 		.ascii	"short unsigned int\000"
 10953      7420756E 
 10953      7369676E 
 10953      65642069 
 10953      6E7400
ARM GAS  C:\Users\Diego\AppData\Local\Temp\cctVJSXF.s 			page 240


 10954              	.LASF176:
 10955 0fa6 636F756E 		.ascii	"countPump\000"
 10955      7450756D 
 10955      7000
 10956              	.LASF147:
 10957 0fb0 53746F72 		.ascii	"StoreConfiguration\000"
 10957      65436F6E 
 10957      66696775 
 10957      72617469 
 10957      6F6E00
 10958              	.LASF276:
 10959 0fc3 5F415641 		.ascii	"_AVAILABLE_DISPLAYS_\000"
 10959      494C4142 
 10959      4C455F44 
 10959      4953504C 
 10959      4159535F 
 10960              	.LASF169:
 10961 0fd8 6D61696E 		.ascii	"main\000"
 10961      00
 10962              	.LASF170:
 10963 0fdd 44697370 		.ascii	"Display1_rxBuffer\000"
 10963      6C617931 
 10963      5F727842 
 10963      75666665 
 10963      7200
 10964              	.LASF89:
 10965 0fef 44495350 		.ascii	"DISPLAY_ERROR\000"
 10965      4C41595F 
 10965      4552524F 
 10965      5200
 10966              	.LASF84:
 10967 0ffd 70726F64 		.ascii	"productSale\000"
 10967      75637453 
 10967      616C6500 
 10968              	.LASF261:
 10969 1009 67657453 		.ascii	"getSale\000"
 10969      616C6500 
 10970              	.LASF119:
 10971 1011 44495350 		.ascii	"DISPLAY_COPIA_RECIBO\000"
 10971      4C41595F 
 10971      434F5049 
 10971      415F5245 
 10971      4349424F 
 10972              	.LASF15:
 10973 1026 75696E74 		.ascii	"uint8\000"
 10973      3800
 10974              	.LASF19:
 10975 102c 646F7562 		.ascii	"double\000"
 10975      6C6500
 10976              	.LASF28:
 10977 1033 77617954 		.ascii	"wayToPay\000"
 10977      6F506179 
 10977      00
 10978              	.LASF253:
 10979 103c 44697370 		.ascii	"Display1_ClearRxBuffer\000"
 10979      6C617931 
 10979      5F436C65 
ARM GAS  C:\Users\Diego\AppData\Local\Temp\cctVJSXF.s 			page 241


 10979      61725278 
 10979      42756666 
 10980              	.LASF235:
 10981 1053 5072696E 		.ascii	"Printer_Start\000"
 10981      7465725F 
 10981      53746172 
 10981      7400
 10982              	.LASF44:
 10983 1061 74696D65 		.ascii	"timeLiftHandle\000"
 10983      4C696674 
 10983      48616E64 
 10983      6C6500
 10984              	.LASF109:
 10985 1070 44495350 		.ascii	"DISPLAY_GRACIAS_VUELVA_PRONTO\000"
 10985      4C41595F 
 10985      47524143 
 10985      4941535F 
 10985      5655454C 
 10986              	.LASF80:
 10987 108e 70707541 		.ascii	"ppuAuthorized\000"
 10987      7574686F 
 10987      72697A65 
 10987      6400
 10988              	.LASF32:
 10989 109c 73657269 		.ascii	"serialSelectedSale\000"
 10989      616C5365 
 10989      6C656374 
 10989      65645361 
 10989      6C6500
 10990              	.LASF78:
 10991 10af 706F7369 		.ascii	"position\000"
 10991      74696F6E 
 10991      00
 10992              	.LASF224:
 10993 10b8 62756666 		.ascii	"bufferDisplay1\000"
 10993      65724469 
 10993      73706C61 
 10993      793100
 10994              	.LASF274:
 10995 10c7 2E5C6D61 		.ascii	".\\main.c\000"
 10995      696E2E63 
 10995      00
 10996              	.LASF227:
 10997 10d0 62756666 		.ascii	"bufferDisplay4\000"
 10997      65724469 
 10997      73706C61 
 10997      793400
 10998              		.ident	"GCC: (GNU Tools for ARM Embedded Processors) 4.9.3 20150303 (release) [ARM/embedded-4_9-br
