ARM GAS  C:\Users\RECEPC~1\AppData\Local\Temp\ccoGpf2X.s 			page 1


   1              		.syntax unified
   2              		.cpu cortex-m3
   3              		.fpu softvfp
   4              		.eabi_attribute 20, 1
   5              		.eabi_attribute 21, 1
   6              		.eabi_attribute 23, 3
   7              		.eabi_attribute 24, 1
   8              		.eabi_attribute 25, 1
   9              		.eabi_attribute 26, 1
  10              		.eabi_attribute 30, 1
  11              		.eabi_attribute 34, 1
  12              		.eabi_attribute 18, 4
  13              		.thumb
  14              		.file	"main.c"
  15              		.text
  16              	.Ltext0:
  17              		.cfi_sections	.debug_frame
  18              		.section	.text.animacion,"ax",%progbits
  19              		.align	2
  20              		.global	animacion
  21              		.thumb
  22              		.thumb_func
  23              		.type	animacion, %function
  24              	animacion:
  25              	.LFB74:
  26              		.file 1 ".\\main.c"
   1:.\main.c      **** /* ========================================
   2:.\main.c      ****  *
   3:.\main.c      ****  * Copyright YOUR COMPANY, THE YEAR
   4:.\main.c      ****  * All Rights Reserved
   5:.\main.c      ****  * UNPUBLISHED, LICENSED SOFTWARE.
   6:.\main.c      ****  *
   7:.\main.c      ****  * CONFIDENTIAL AND PROPRIETARY INFORMATION
   8:.\main.c      ****  * WHICH IS THE PROPERTY OF your company.
   9:.\main.c      ****  *
  10:.\main.c      ****  * ========================================
  11:.\main.c      **** */
  12:.\main.c      **** #include <project.h>
  13:.\main.c      **** #include <protocol.h>
  14:.\main.c      **** #include <variables.h>
  15:.\main.c      **** #include <keyboard.h>
  16:.\main.c      **** #include <ibutton.h>
  17:.\main.c      **** #include <RFPoll.h>
  18:.\main.c      **** #include <LCD.h>
  19:.\main.c      **** #include <I2C.h>
  20:.\main.c      **** #include <Print.h>
  21:.\main.c      **** #include <device.h>
  22:.\main.c      **** #include <string.h>
  23:.\main.c      **** #include <stdio.h>
  24:.\main.c      **** #include <stdlib.h>
  25:.\main.c      **** 
  26:.\main.c      **** /**********************************/
  27:.\main.c      **** 
  28:.\main.c      **** uint8 MuxVersion [10] = "MUX V. 1.0";
  29:.\main.c      **** uint8 passwordPump[5] = "00204";  
  30:.\main.c      **** 
  31:.\main.c      ****       
ARM GAS  C:\Users\RECEPC~1\AppData\Local\Temp\ccoGpf2X.s 			page 2


  32:.\main.c      **** CY_ISR(animacion2);
  33:.\main.c      **** CY_ISR(animacion);
  34:.\main.c      **** 
  35:.\main.c      **** void GlobalInitializer()
  36:.\main.c      **** {
  37:.\main.c      ****     EEPROM_1_Start();
  38:.\main.c      ****     Pump_Start(); 
  39:.\main.c      ****     Display1_Start();
  40:.\main.c      ****     Display2_Start();    
  41:.\main.c      ****     Printer_Start();   
  42:.\main.c      ****     I2C_Bus_Start();
  43:.\main.c      ****     RF_Connection_Start();
  44:.\main.c      **** }
  45:.\main.c      **** void StoreConfiguration(){
  46:.\main.c      ****     EEPROM_1_WriteByte(UnitType,0);
  47:.\main.c      ****     EEPROM_1_WriteByte(ConversionFactor,1);
  48:.\main.c      ****     EEPROM_1_WriteByte(MoneyDec,2);
  49:.\main.c      ****     EEPROM_1_WriteByte(VolDec,3);
  50:.\main.c      ****     EEPROM_1_WriteByte(PPUDec,4);
  51:.\main.c      ****     EEPROM_1_WriteByte(DDMode,5);
  52:.\main.c      ****     EEPROM_1_WriteByte(digits,6);    
  53:.\main.c      **** }
  54:.\main.c      **** void loadConfiguration(){
  55:.\main.c      ****     lockTurn   = EEPROM_1_ReadByte(7);  //Fijo turno abierto para pruebas
  56:.\main.c      ****     printPortA = EEPROM_1_ReadByte(8);  //Puertos de impresion
  57:.\main.c      ****     printPortB = EEPROM_1_ReadByte(9); //Puertos de impresion
  58:.\main.c      ****     IDCast[0]  = EEPROM_1_ReadByte(10); //ID Estacion1
  59:.\main.c      ****     IDCast[1]  = EEPROM_1_ReadByte(11); //ID Estacion2    
  60:.\main.c      **** }
  61:.\main.c      **** 
  62:.\main.c      **** 
  63:.\main.c      **** /*
  64:.\main.c      **** ***************************************************************************************************
  65:.\main.c      **** *                                         void InitDisplay1(void)
  66:.\main.c      **** *
  67:.\main.c      **** * Description : Pregunta configuraciones al dispensador 
  68:.\main.c      **** *               
  69:.\main.c      **** *
  70:.\main.c      **** ***************************************************************************************************
  71:.\main.c      **** */
  72:.\main.c      **** void InitDisplay1(){      
  73:.\main.c      ****     uint8_t iniText[10]="Iniciando"; 
  74:.\main.c      ****     uint8_t Unit[10] = "S/D/Dupla ";
  75:.\main.c      ****     uint8_t Unit2[10] = "Quadrupla";
  76:.\main.c      ****     uint8_t Unit3[10] = "Sextupla";
  77:.\main.c      ****     uint8_t Unit4[10] = "Octupla";
  78:.\main.c      ****     uint8_t DisplayMode0[10] = "5-5-4     ";
  79:.\main.c      ****     uint8_t DisplayMode[10] = "6-6-4     ";
  80:.\main.c      ****     uint8_t DisplayMode2[10] = "7-7-5     ";
  81:.\main.c      ****     uint8_t DisplayMode3[10] = "8-7-5     ";
  82:.\main.c      ****     if(NumPositions == 2){
  83:.\main.c      ****         SetPicture(1,DISPLAY_INICIO0);         
  84:.\main.c      ****         ShowMessage(1,iniText,0);    
  85:.\main.c      ****         CyDelay(300);
  86:.\main.c      ****         if(UnitType == 0){
  87:.\main.c      ****             side.a.hoseNumber = UnitType+1;
  88:.\main.c      ****             side.b.hoseNumber = UnitType+1;
ARM GAS  C:\Users\RECEPC~1\AppData\Local\Temp\ccoGpf2X.s 			page 3


  89:.\main.c      ****             ShowMessage(1,Unit,0);  //Mostrar tipo de dispensador      
  90:.\main.c      ****         }
  91:.\main.c      ****         if(UnitType == 1){
  92:.\main.c      ****             side.a.hoseNumber = UnitType+1;
  93:.\main.c      ****             side.b.hoseNumber = UnitType+1;
  94:.\main.c      ****             ShowMessage(1,Unit2,0);
  95:.\main.c      ****         }
  96:.\main.c      ****         if(UnitType == 2){
  97:.\main.c      ****             side.a.hoseNumber = UnitType+1;
  98:.\main.c      ****             side.b.hoseNumber = UnitType+1;
  99:.\main.c      ****             ShowMessage(1,Unit3,0);
 100:.\main.c      ****         }
 101:.\main.c      ****         if(UnitType == 3){
 102:.\main.c      ****             side.a.hoseNumber = UnitType+1;
 103:.\main.c      ****             side.b.hoseNumber = UnitType+1;
 104:.\main.c      ****             ShowMessage(1,Unit4,0);
 105:.\main.c      ****         } 
 106:.\main.c      ****         if(DDMode == 0){
 107:.\main.c      ****             ShowMessage(1,DisplayMode0,22); //Mostrar modo de display
 108:.\main.c      ****             digits = 5;
 109:.\main.c      ****         }
 110:.\main.c      ****         if(DDMode == 1){
 111:.\main.c      ****             ShowMessage(1,DisplayMode,22); //Mostrar modo de display
 112:.\main.c      ****             digits = 6;
 113:.\main.c      ****         }
 114:.\main.c      ****         if(DDMode == 2){
 115:.\main.c      ****            ShowMessage(1,DisplayMode2,22);
 116:.\main.c      ****             digits = 7;
 117:.\main.c      ****         }
 118:.\main.c      ****         if(DDMode == 3){
 119:.\main.c      ****             ShowMessage(1,DisplayMode3,22);
 120:.\main.c      ****             digits = 8;
 121:.\main.c      ****         }        
 122:.\main.c      ****     }
 123:.\main.c      ****     if(NumPositions == 4){
 124:.\main.c      ****         SetPicture(1,DISPLAY_SELECCIONE_POSICION);        
 125:.\main.c      ****         ShowMessage(1,iniText,0);    
 126:.\main.c      ****         CyDelay(300);
 127:.\main.c      ****         if(UnitType == 0){
 128:.\main.c      ****             side.a.hoseNumber = UnitType+1;
 129:.\main.c      ****             side.b.hoseNumber = UnitType+1;
 130:.\main.c      ****             side.c.hoseNumber = UnitType+1;
 131:.\main.c      ****             side.d.hoseNumber = UnitType+1;
 132:.\main.c      ****             ShowMessage(1,Unit,0);  //Mostrar tipo de dispensador      
 133:.\main.c      ****         }
 134:.\main.c      ****         if(UnitType == 1){
 135:.\main.c      ****             side.a.hoseNumber = UnitType+1;
 136:.\main.c      ****             side.b.hoseNumber = UnitType+1;
 137:.\main.c      ****             side.c.hoseNumber = UnitType+1;
 138:.\main.c      ****             side.d.hoseNumber = UnitType+1;
 139:.\main.c      ****             ShowMessage(1,Unit2,0);
 140:.\main.c      ****         }
 141:.\main.c      ****         if(UnitType == 2){
 142:.\main.c      ****             side.a.hoseNumber = UnitType+1;
 143:.\main.c      ****             side.b.hoseNumber = UnitType+1;
 144:.\main.c      ****             side.c.hoseNumber = UnitType+1;
 145:.\main.c      ****             side.d.hoseNumber = UnitType+1;
ARM GAS  C:\Users\RECEPC~1\AppData\Local\Temp\ccoGpf2X.s 			page 4


 146:.\main.c      ****            ShowMessage(1,Unit3,0);
 147:.\main.c      ****         }
 148:.\main.c      ****         if(UnitType == 3){
 149:.\main.c      ****             side.a.hoseNumber = UnitType+1;
 150:.\main.c      ****             side.b.hoseNumber = UnitType+1;
 151:.\main.c      ****             side.c.hoseNumber = UnitType+1;
 152:.\main.c      ****             side.d.hoseNumber = UnitType+1;
 153:.\main.c      ****             ShowMessage(1,Unit4,0);
 154:.\main.c      ****         }    
 155:.\main.c      ****         if(DDMode == 1){
 156:.\main.c      ****             ShowMessage(1,DisplayMode,22); //Mostrar modo de display
 157:.\main.c      ****         }
 158:.\main.c      ****         if(DDMode == 2){
 159:.\main.c      ****            ShowMessage(1,DisplayMode2,22);
 160:.\main.c      ****         }
 161:.\main.c      ****     }        
 162:.\main.c      ****     if(NumPositions < 2){
 163:.\main.c      ****         SetPicture(1,DISPLAY_ERROR);        
 164:.\main.c      ****     }         
 165:.\main.c      **** }
 166:.\main.c      **** 
 167:.\main.c      **** /*
 168:.\main.c      **** ***************************************************************************************************
 169:.\main.c      **** *                                         void InitDisplay1(void)
 170:.\main.c      **** *
 171:.\main.c      **** * Description : Pregunta configuraciones al dispensador 
 172:.\main.c      **** *               
 173:.\main.c      **** *
 174:.\main.c      **** ***************************************************************************************************
 175:.\main.c      **** */
 176:.\main.c      **** void InitDisplay2(){      
 177:.\main.c      ****     if(NumPositions == 2){        
 178:.\main.c      ****         SetPicture(2,DISPLAY_INICIO0);  
 179:.\main.c      ****         flowDisplay2 = 0;
 180:.\main.c      ****     }
 181:.\main.c      ****     if(NumPositions == 4){
 182:.\main.c      ****         SetPicture(2,DISPLAY_SELECCIONE_POSICION);         
 183:.\main.c      ****     }        
 184:.\main.c      ****     if(NumPositions < 2){        
 185:.\main.c      ****         SetPicture(2,DISPLAY_ERROR);
 186:.\main.c      ****     }     
 187:.\main.c      ****     ShowMessage(2,MuxVersion,0);
 188:.\main.c      **** }
 189:.\main.c      **** 
 190:.\main.c      **** /*
 191:.\main.c      **** ***************************************************************************************************
 192:.\main.c      **** *                                         void InitPump(void)
 193:.\main.c      **** *
 194:.\main.c      **** * Description : Pregunta configuraciones al dispensador 
 195:.\main.c      **** *               
 196:.\main.c      **** *
 197:.\main.c      **** ***************************************************************************************************
 198:.\main.c      **** */
 199:.\main.c      **** void InitPump(){        
 200:.\main.c      ****     NumPositions = get_position();
 201:.\main.c      ****     if(NumPositions > 0){
 202:.\main.c      ****         if(!PumpIsInValidState(get_state(side.a.dir))){
ARM GAS  C:\Users\RECEPC~1\AppData\Local\Temp\ccoGpf2X.s 			page 5


 203:.\main.c      ****             SetPicture(1,DISPLAY_ERROR);
 204:.\main.c      ****             SetPicture(2,DISPLAY_ERROR);
 205:.\main.c      ****             NumPositions = 0;
 206:.\main.c      ****         }
 207:.\main.c      ****         if(!PumpIsInValidState(get_state(side.b.dir))){
 208:.\main.c      ****             SetPicture(1,DISPLAY_ERROR);
 209:.\main.c      ****             SetPicture(2,DISPLAY_ERROR);
 210:.\main.c      ****             NumPositions = 0;
 211:.\main.c      ****         }
 212:.\main.c      ****         if(PumpIsInValidState(get_state(side.a.dir)) && PumpIsInValidState(get_state(side.b.dir))){
 213:.\main.c      ****             NumPositions = get_position();
 214:.\main.c      ****             if(get_state(side.a.dir) ==0x06 && get_state(side.b.dir)==0x06){
 215:.\main.c      ****                 PumpCompleteConfiguration(side.a.dir);
 216:.\main.c      ****                 StoreConfiguration();            
 217:.\main.c      ****             }else{
 218:.\main.c      ****                 SetPicture(1,DISPLAY_BAJE_MANIJA);
 219:.\main.c      ****                 SetPicture(2,DISPLAY_BAJE_MANIJA);
 220:.\main.c      ****                 InitPump();                
 221:.\main.c      ****             }
 222:.\main.c      ****         }        
 223:.\main.c      ****     }
 224:.\main.c      ****     
 225:.\main.c      **** }
 226:.\main.c      **** /*
 227:.\main.c      **** ***************************************************************************************************
 228:.\main.c      **** *                                         void PrintTest(void)
 229:.\main.c      **** *
 230:.\main.c      **** * Description : Pregunta configuraciones al dispensador 
 231:.\main.c      **** *               
 232:.\main.c      **** *
 233:.\main.c      **** ***************************************************************************************************
 234:.\main.c      **** */
 235:.\main.c      **** void PrintTest(){
 236:.\main.c      ****     uint8 dato[17]="Test de Impresion";
 237:.\main.c      ****     uint8 x;
 238:.\main.c      ****     for(x = 0; x<17;x++){
 239:.\main.c      ****         write_psoc1(1,dato[x]);
 240:.\main.c      ****     }
 241:.\main.c      ****     write_psoc1(1,10);
 242:.\main.c      ****     write_psoc1(1,10);
 243:.\main.c      ****     write_psoc1(1,10);
 244:.\main.c      ****     write_psoc1(1,10);
 245:.\main.c      ****     write_psoc1(1,10);
 246:.\main.c      ****     write_psoc1(1,10);
 247:.\main.c      ****     for(x = 0; x<17;x++){
 248:.\main.c      ****         write_psoc1(2,dato[x]);
 249:.\main.c      ****     }
 250:.\main.c      ****     write_psoc1(2,10);
 251:.\main.c      ****     write_psoc1(2,10);
 252:.\main.c      ****     write_psoc1(2,10);
 253:.\main.c      ****     write_psoc1(2,10);
 254:.\main.c      ****     write_psoc1(2,10);
 255:.\main.c      ****     write_psoc1(2,10);
 256:.\main.c      **** }
 257:.\main.c      **** 
 258:.\main.c      **** /*
 259:.\main.c      **** ***************************************************************************************************
ARM GAS  C:\Users\RECEPC~1\AppData\Local\Temp\ccoGpf2X.s 			page 6


 260:.\main.c      **** *                                         void polling_Pump(void)
 261:.\main.c      **** *
 262:.\main.c      **** * Description : Pregunta estado al surtidor 
 263:.\main.c      **** *               
 264:.\main.c      **** *
 265:.\main.c      **** ***************************************************************************************************
 266:.\main.c      **** */
 267:.\main.c      **** 
 268:.\main.c      **** void PollingPump(void){
 269:.\main.c      ****     uint8 x;
 270:.\main.c      ****     if(PumpIsInValidState(get_state(side.a.dir)) && PumpIsInValidState(get_state(side.b.dir)) ){
 271:.\main.c      ****         for(x= 0; x < 4; x++){
 272:.\main.c      ****             PrevStatePump[x] = statePump[x];
 273:.\main.c      ****         }
 274:.\main.c      ****     }
 275:.\main.c      ****     if (NumPositions == 2){
 276:.\main.c      ****         statePump[0] = get_state(side.a.dir);                 
 277:.\main.c      ****         statePump[1] = get_state(side.b.dir);          
 278:.\main.c      ****     }
 279:.\main.c      ****     if (NumPositions == 4 ){
 280:.\main.c      ****         statePump[0] = get_state(side.a.dir);               
 281:.\main.c      ****         statePump[1] = get_state(side.b.dir);          
 282:.\main.c      ****         statePump[2] = get_state(side.c.dir);        
 283:.\main.c      ****         statePump[3] = get_state(side.d.dir);        
 284:.\main.c      ****     }
 285:.\main.c      ****     if (NumPositions == 0){
 286:.\main.c      ****         InitPump();
 287:.\main.c      ****     }
 288:.\main.c      ****     if(!PumpIsInValidState(get_state(side.a.dir))){
 289:.\main.c      ****         SetPicture(1,DISPLAY_ERROR);
 290:.\main.c      ****         SetPicture(2,DISPLAY_ERROR);
 291:.\main.c      ****         NumPositions = 0;
 292:.\main.c      ****         flowDisplay1 = 0;
 293:.\main.c      ****         flowDisplay2 = 0;
 294:.\main.c      ****     }
 295:.\main.c      ****     if(!PumpIsInValidState(get_state(side.b.dir))){
 296:.\main.c      ****         SetPicture(1,DISPLAY_ERROR);
 297:.\main.c      ****         SetPicture(2,DISPLAY_ERROR);
 298:.\main.c      ****         NumPositions = 0;
 299:.\main.c      ****         flowDisplay1 = 0;
 300:.\main.c      ****         flowDisplay2 = 0;
 301:.\main.c      ****     }
 302:.\main.c      **** }
 303:.\main.c      **** /*
 304:.\main.c      **** ***************************************************************************************************
 305:.\main.c      **** *                                         void polling_Pump(void)
 306:.\main.c      **** *
 307:.\main.c      **** * Description : Pregunta estado al surtidor 
 308:.\main.c      **** *               
 309:.\main.c      **** *
 310:.\main.c      **** ***************************************************************************************************
 311:.\main.c      **** */
 312:.\main.c      **** 
 313:.\main.c      **** void PollingDisplay1(void){ 
 314:.\main.c      ****     uint8 x,y,localStatePump;     
 315:.\main.c      ****     switch(flowDisplay1){
 316:.\main.c      ****         case 0:
ARM GAS  C:\Users\RECEPC~1\AppData\Local\Temp\ccoGpf2X.s 			page 7


 317:.\main.c      ****             InitDisplay1();
 318:.\main.c      ****             flowDisplay1 =1;
 319:.\main.c      ****             isr_3_Stop(); 
 320:.\main.c      ****             Timer_Animacion_Stop();
 321:.\main.c      ****             count_protector = 0;
 322:.\main.c      ****             bufferDisplay1.saleType = 0;
 323:.\main.c      ****             bufferDisplay1.flagEndSale = false;
 324:.\main.c      ****         break;
 325:.\main.c      ****         case 1: //Menu
 326:.\main.c      ****             if(Display1_GetRxBufferSize()==8){
 327:.\main.c      ****                 if((Display1_rxBuffer[0]==0xAA) && (Display1_rxBuffer[6]==0xC3) && (Display1_rxBuff
 328:.\main.c      ****                     flowDisplay1 = 2;      //Pantalla forma de pago                      
 329:.\main.c      ****                     SetPicture(1,DISPLAY_FORMA_PAGO_DESEADA);                                      
 330:.\main.c      ****                 }  
 331:.\main.c      ****                 CyDelay(10);         
 332:.\main.c      ****                 Display1_ClearRxBuffer();
 333:.\main.c      ****             }
 334:.\main.c      ****         break;
 335:.\main.c      ****         case 2:
 336:.\main.c      ****             if(Display1_GetRxBufferSize()==8){
 337:.\main.c      ****                 if((Display1_rxBuffer[0]==0xAA) && (Display1_rxBuffer[6]==0xC3) && (Display1_rxBuff
 338:.\main.c      ****                     switch(Display1_rxBuffer[3]){
 339:.\main.c      ****                         case 0x0D:  //Pantalla efectivo              
 340:.\main.c      ****                             flowDisplay1 = 3; 
 341:.\main.c      ****                             bufferDisplay1.saleType = 1;
 342:.\main.c      ****                             SetPicture(1,DISPLAY_FORMA_PROGRAMACION);                            
 343:.\main.c      ****                         break;
 344:.\main.c      ****                         case 0x0E:  //Pantalla credito  
 345:.\main.c      ****                             flowDisplay1 = 10;
 346:.\main.c      ****                             bufferDisplay1.saleType = 2;
 347:.\main.c      ****                             count_protector = 0;
 348:.\main.c      ****                             SetPicture(1,DISPLAY_ID_DIGITAL);                            
 349:.\main.c      ****                         break;
 350:.\main.c      ****                         case 0x45:  //Pantalla otras opciones 
 351:.\main.c      ****                             flowDisplay1 = 12;                            
 352:.\main.c      ****                             SetPicture(1,DISPLAY_OPERACIONES);                            
 353:.\main.c      ****                         break;
 354:.\main.c      ****                             
 355:.\main.c      ****                         case 0x94:  //Pantalla Inicial    
 356:.\main.c      ****                             flowDisplay1 = 0;
 357:.\main.c      ****                             SetPicture(1,DISPLAY_INICIO0);                            
 358:.\main.c      ****                         break;
 359:.\main.c      ****                         
 360:.\main.c      ****                         case 0x7E:  //Pantalla Inicial    
 361:.\main.c      ****                             flowDisplay1 = 0;
 362:.\main.c      ****                             SetPicture(1,DISPLAY_INICIO0);                            
 363:.\main.c      ****                         break;
 364:.\main.c      ****                     }
 365:.\main.c      ****                 }  
 366:.\main.c      ****                 CyDelay(10);         
 367:.\main.c      ****                 Display1_ClearRxBuffer();
 368:.\main.c      ****             }
 369:.\main.c      ****         break;
 370:.\main.c      ****             
 371:.\main.c      ****         case 3: 
 372:.\main.c      ****             if(Display1_GetRxBufferSize()==8){
 373:.\main.c      ****                 if((Display1_rxBuffer[0]==0xAA) && (Display1_rxBuffer[6]==0xC3) && (Display1_rxBuff
ARM GAS  C:\Users\RECEPC~1\AppData\Local\Temp\ccoGpf2X.s 			page 8


 374:.\main.c      ****                     switch(Display1_rxBuffer[3]){
 375:.\main.c      ****                         case 0x0F:  //Preset dinero                
 376:.\main.c      ****                             flowDisplay1 = 4;                              
 377:.\main.c      ****                             bufferDisplay1.presetType[0]=2;
 378:.\main.c      ****                             bufferDisplay1.presetType[1]='D';
 379:.\main.c      ****                             numberKeys1=0;
 380:.\main.c      ****                             SetPicture(1,DISPLAY_INTRODUZCA_VALOR);   
 381:.\main.c      ****                             WriteLCD(1,'$',3,2,1,0x0000,'N');
 382:.\main.c      ****                         break; 
 383:.\main.c      ****                         case 0x10:  //Preset volumen                 
 384:.\main.c      ****                             flowDisplay1 = 4;                            
 385:.\main.c      ****                             bufferDisplay1.presetType[0]=1;
 386:.\main.c      ****                             bufferDisplay1.presetType[1]='V';
 387:.\main.c      ****                             numberKeys1=0;                            
 388:.\main.c      ****                             SetPicture(1,DISPLAY_INTRODUZCA_VOLUMEN);                            
 389:.\main.c      ****                             WriteLCD(1,'V',3,2,1,0x0000,'N');                            
 390:.\main.c      ****                         break;
 391:.\main.c      ****                         case 0x43:  //Preset full 
 392:.\main.c      ****                             bufferDisplay1.presetType[0]=2;
 393:.\main.c      ****                             bufferDisplay1.presetType[1]='F';
 394:.\main.c      ****                             for(x=1;x<(digits-1);x++){
 395:.\main.c      ****                                 bufferDisplay1.presetValue[0][x]='9';
 396:.\main.c      ****                             }
 397:.\main.c      ****                             bufferDisplay1.presetValue[0][x]='0';
 398:.\main.c      ****                             bufferDisplay1.presetValue[0][x+1]='0';
 399:.\main.c      ****                             bufferDisplay1.presetValue[0][0]=digits;
 400:.\main.c      ****                             for(x=0;x<=bufferDisplay1.presetValue[0][0];x++){
 401:.\main.c      ****                                 bufferDisplay1.presetValue[1][x]=bufferDisplay1.presetValue[0][x];
 402:.\main.c      ****                             }
 403:.\main.c      ****                             flowDisplay1 = 5;
 404:.\main.c      ****                             SetPicture(1,DISPLAY_SELECCIONE_PRODUCTO4);                          
 405:.\main.c      ****                         break;
 406:.\main.c      ****                         case 0x94:  //Retroceso 
 407:.\main.c      ****                             flowDisplay1 = 0;
 408:.\main.c      ****                             SetPicture(1,DISPLAY_INICIO0);                                         
 409:.\main.c      ****                         break;
 410:.\main.c      ****                         case 0x3B:  //Pantalla Inicial    
 411:.\main.c      ****                             flowDisplay1 = 0;
 412:.\main.c      ****                             SetPicture(1,DISPLAY_INICIO0);                            
 413:.\main.c      ****                         break;
 414:.\main.c      ****                         case 0x7E:  //Pantalla Inicial    
 415:.\main.c      ****                             flowDisplay1 = 0;
 416:.\main.c      ****                             SetPicture(1,DISPLAY_INICIO0);                            
 417:.\main.c      ****                         break;
 418:.\main.c      ****                     }
 419:.\main.c      ****                 }  
 420:.\main.c      ****                 CyDelay(10);         
 421:.\main.c      ****                 Display1_ClearRxBuffer();
 422:.\main.c      ****             }
 423:.\main.c      ****         break;
 424:.\main.c      ****         
 425:.\main.c      ****         case 4:            
 426:.\main.c      ****             switch (alphanumeric_keyboard(1,digits,0)){
 427:.\main.c      ****                 case 0:  //Pantalla Inicial    
 428:.\main.c      ****                     flowDisplay1 = 0;
 429:.\main.c      ****                     SetPicture(1,DISPLAY_INICIO0);                            
 430:.\main.c      ****                 break;
ARM GAS  C:\Users\RECEPC~1\AppData\Local\Temp\ccoGpf2X.s 			page 9


 431:.\main.c      ****                     
 432:.\main.c      ****                 case 1: //Enter
 433:.\main.c      ****                     for(x=0;x<=bufferDisplay1.valueKeys[0];x++){
 434:.\main.c      ****                         bufferDisplay1.presetValue[0][x]=bufferDisplay1.valueKeys[x];
 435:.\main.c      ****                         bufferDisplay1.presetValue[1][x]=bufferDisplay1.valueKeys[x];
 436:.\main.c      ****                     }  
 437:.\main.c      ****                     flowDisplay1 = 5;//caso para seleccion de producto
 438:.\main.c      ****                     SetPicture(1,DISPLAY_SELECCIONE_PRODUCTO4);
 439:.\main.c      ****                 break;
 440:.\main.c      ****             }
 441:.\main.c      ****         break;
 442:.\main.c      ****             
 443:.\main.c      ****         case 5:
 444:.\main.c      ****             if(Display1_GetRxBufferSize()==8){
 445:.\main.c      ****                 if((Display1_rxBuffer[0]==0xAA) && (Display1_rxBuffer[6]==0xC3) && (Display1_rxBuff
 446:.\main.c      ****                     switch(Display1_rxBuffer[3]){
 447:.\main.c      ****                         case 0x80:  //Grado 1 
 448:.\main.c      ****                             flowDisplay1 = 6;
 449:.\main.c      ****                             side.a.hose = 1;
 450:.\main.c      ****                             SetPicture(1,DISPLAY_DESEA_IMPRIMIR_RECIBO);                           
 451:.\main.c      ****                         break;
 452:.\main.c      ****                             
 453:.\main.c      ****                         case 0x81:  //Grado 2 
 454:.\main.c      ****                             flowDisplay1 = 6;
 455:.\main.c      ****                             side.a.hose = 2;
 456:.\main.c      ****                             SetPicture(1,DISPLAY_DESEA_IMPRIMIR_RECIBO);                           
 457:.\main.c      ****                         break;
 458:.\main.c      ****                             
 459:.\main.c      ****                         case 0x7F:  //Grado 3
 460:.\main.c      ****                             flowDisplay1 = 6;
 461:.\main.c      ****                             side.a.hose = 3;
 462:.\main.c      ****                             SetPicture(1,DISPLAY_DESEA_IMPRIMIR_RECIBO);                           
 463:.\main.c      ****                         break;   
 464:.\main.c      ****                         
 465:.\main.c      ****                         case 0xB8:  //Grado 4 
 466:.\main.c      ****                             flowDisplay1 = 6;
 467:.\main.c      ****                             side.a.hose = 4;
 468:.\main.c      ****                             SetPicture(1,DISPLAY_DESEA_IMPRIMIR_RECIBO);                           
 469:.\main.c      ****                         break;
 470:.\main.c      ****                             
 471:.\main.c      ****                         case 0x94:  //Retroceso 
 472:.\main.c      ****                             flowDisplay1 = 0;
 473:.\main.c      ****                             SetPicture(1,DISPLAY_INICIO0);                                         
 474:.\main.c      ****                         break;
 475:.\main.c      ****                             
 476:.\main.c      ****                         case 0x7E:  //Pantalla Inicial                                             
 477:.\main.c      ****                             SetPicture(1,DISPLAY_INICIO0);
 478:.\main.c      ****                             flowDisplay1 = 0;
 479:.\main.c      ****                         break;
 480:.\main.c      ****                     }                    
 481:.\main.c      ****                 }
 482:.\main.c      ****                 CyDelay(10);         
 483:.\main.c      ****                 Display1_ClearRxBuffer();
 484:.\main.c      ****             }
 485:.\main.c      ****         break;
 486:.\main.c      ****                     
 487:.\main.c      ****         case 6:
ARM GAS  C:\Users\RECEPC~1\AppData\Local\Temp\ccoGpf2X.s 			page 10


 488:.\main.c      ****             isr_3_StartEx(animacion);
 489:.\main.c      ****             Timer_Animacion_Start();
 490:.\main.c      ****             if(Display1_GetRxBufferSize()==8){
 491:.\main.c      ****                 if((Display1_rxBuffer[0]==0xAA) && (Display1_rxBuffer[6]==0xC3) && (Display1_rxBuff
 492:.\main.c      ****                     switch(Display1_rxBuffer[3]){
 493:.\main.c      ****                         case 0x39:  //Si imprimir  
 494:.\main.c      ****                             flowDisplay1 = 9;
 495:.\main.c      ****                             numberKeys1 = 0;
 496:.\main.c      ****                             bufferDisplay1.flagKeyboard = 1;
 497:.\main.c      ****                             bufferDisplay1.flagPrint =  1;
 498:.\main.c      ****                             SetPicture(1,DISPLAY_DIGITE_PLACA);                            
 499:.\main.c      ****                         break; 
 500:.\main.c      ****                         case 0x38:  //No imprimir 
 501:.\main.c      ****                             if(bufferDisplay1.flagEndSale){
 502:.\main.c      ****                                 flowDisplay1 = 0;
 503:.\main.c      ****                                 SetPicture(1,DISPLAY_INICIO0);
 504:.\main.c      ****                             }else{
 505:.\main.c      ****                                 flowDisplay1 = 7;//Esperando estado del dispensador 
 506:.\main.c      ****                                 bufferDisplay1.flagPrint =  0;
 507:.\main.c      ****                                 count_protector=0;
 508:.\main.c      ****                                 SetPicture(1,DISPLAY_SUBA_MANIJA);
 509:.\main.c      ****                             }
 510:.\main.c      ****                         break;
 511:.\main.c      ****                         case 0x7E:  //Pantalla Inicial                                             
 512:.\main.c      ****                             flowDisplay1 = 0;
 513:.\main.c      ****                             SetPicture(1,DISPLAY_INICIO0);
 514:.\main.c      ****                         break;
 515:.\main.c      ****                     }                    
 516:.\main.c      ****                 }
 517:.\main.c      ****                 CyDelay(10);         
 518:.\main.c      ****                 Display1_ClearRxBuffer();
 519:.\main.c      ****             }
 520:.\main.c      ****             if(count_protector>=30){
 521:.\main.c      ****                 flowDisplay1 = 0;	
 522:.\main.c      ****     			count_protector=0;
 523:.\main.c      ****                 SetPicture(1,DISPLAY_INICIO0);
 524:.\main.c      ****     		}
 525:.\main.c      ****         break;
 526:.\main.c      ****                                         
 527:.\main.c      ****             
 528:.\main.c      ****         case 7:
 529:.\main.c      ****             isr_3_StartEx(animacion);
 530:.\main.c      ****             Timer_Animacion_Start();
 531:.\main.c      ****             side.a.activeHose = PumpHoseActiveState(side.a.dir);  
 532:.\main.c      ****             if (side.a.activeHose == side.a.hose){                
 533:.\main.c      ****                 if(PresetData(side.a.dir,side.a.activeHose,bufferDisplay1.presetValue[0],bufferDisp
 534:.\main.c      ****                     get_state(side.a.dir);
 535:.\main.c      ****                     CyDelay(50);
 536:.\main.c      ****                     Pump_PutChar(0x10|side.a.dir);//Autoriza el surtidor
 537:.\main.c      ****                     CyDelay(50);
 538:.\main.c      ****                     flowDisplay1 = 8;
 539:.\main.c      ****                     isr_3_Stop(); 
 540:.\main.c      ****                     Timer_Animacion_Stop();
 541:.\main.c      ****                     count_protector = 0;                    
 542:.\main.c      ****                     SetPicture(1,DISPLAY_DESPACHANDO);   
 543:.\main.c      ****                     ShowMessage(1,(bufferDisplay1.presetValue[0]),18);
 544:.\main.c      ****                 }else{
ARM GAS  C:\Users\RECEPC~1\AppData\Local\Temp\ccoGpf2X.s 			page 11


 545:.\main.c      ****                     flowDisplay1 = 0;
 546:.\main.c      ****                     SetPicture(1,DISPLAY_ERROR);
 547:.\main.c      ****                     CyDelay(200);
 548:.\main.c      ****                     SetPicture(1,DISPLAY_INICIO0);
 549:.\main.c      ****                 }
 550:.\main.c      ****             }else{
 551:.\main.c      ****                 flowDisplay1 = 7;
 552:.\main.c      ****                 if(count_protector>=60){
 553:.\main.c      ****                     flowDisplay1 = 0;	
 554:.\main.c      ****         			count_protector=0;
 555:.\main.c      ****                     SetPicture(1,DISPLAY_INICIO0);
 556:.\main.c      ****         		}
 557:.\main.c      ****             }
 558:.\main.c      ****             if(Display1_GetRxBufferSize()==8){
 559:.\main.c      ****                 if((Display1_rxBuffer[0]==0xAA) && (Display1_rxBuffer[6]==0xC3) && (Display1_rxBuff
 560:.\main.c      ****                     switch(Display1_rxBuffer[3]){                        
 561:.\main.c      ****                         case 0x7E:  //Pantalla Inicial                                             
 562:.\main.c      ****                             SetPicture(1,DISPLAY_INICIO0);
 563:.\main.c      ****                             flowDisplay1 = 0;
 564:.\main.c      ****                         break;
 565:.\main.c      ****                     }                    
 566:.\main.c      ****                 }
 567:.\main.c      ****                 CyDelay(10);                         
 568:.\main.c      ****             }
 569:.\main.c      ****             Display1_ClearRxBuffer();
 570:.\main.c      ****         break;
 571:.\main.c      ****             
 572:.\main.c      ****         case 8:            
 573:.\main.c      ****             localStatePump = get_state(side.a.dir);
 574:.\main.c      ****             switch (localStatePump){
 575:.\main.c      ****                 case 0x06://Espera - venta cero
 576:.\main.c      ****                     flowDisplay1 = 0;
 577:.\main.c      ****                     bufferDisplay1.flagActiveSale = false;
 578:.\main.c      ****                     SetPicture(1,DISPLAY_INICIO0);
 579:.\main.c      ****                 break;
 580:.\main.c      ****                 case 0x09://Espera
 581:.\main.c      ****                     bufferDisplay1.flagActiveSale = true;
 582:.\main.c      ****                     bufferDisplay1.flagEndSale = false;
 583:.\main.c      ****                 break;
 584:.\main.c      ****                 case 0x0A: //reporte fin venta
 585:.\main.c      ****                     getSale(side.a.dir);                    
 586:.\main.c      ****                     if(bufferDisplay1.flagPrint ==1){
 587:.\main.c      ****                         imprimir(printPortA,side.a.dir);
 588:.\main.c      ****                         flowDisplay1 = 0;
 589:.\main.c      ****                         SetPicture(1,DISPLAY_INICIO0); 
 590:.\main.c      ****                     }else{
 591:.\main.c      ****                         flowDisplay1 = 6;
 592:.\main.c      ****                         bufferDisplay1.flagEndSale = true;
 593:.\main.c      ****                         SetPicture(1,DISPLAY_DESEA_IMPRIMIR_RECIBO); 
 594:.\main.c      ****                     }
 595:.\main.c      ****                     bufferDisplay1.flagActiveSale = false;                                         
 596:.\main.c      ****                 break;
 597:.\main.c      ****                 case 0x0B://Reporte de venta
 598:.\main.c      ****                     getSale(side.a.dir);
 599:.\main.c      ****                     if(bufferDisplay1.flagPrint ==1){
 600:.\main.c      ****                         imprimir(printPortA,side.a.dir);
 601:.\main.c      ****                         flowDisplay1 = 0;
ARM GAS  C:\Users\RECEPC~1\AppData\Local\Temp\ccoGpf2X.s 			page 12


 602:.\main.c      ****                         SetPicture(1,DISPLAY_INICIO0); 
 603:.\main.c      ****                     }else{
 604:.\main.c      ****                         flowDisplay1 = 6;
 605:.\main.c      ****                         bufferDisplay1.flagEndSale = true;
 606:.\main.c      ****                         SetPicture(1,DISPLAY_DESEA_IMPRIMIR_RECIBO); 
 607:.\main.c      ****                     }
 608:.\main.c      ****                     bufferDisplay1.flagActiveSale = false; 
 609:.\main.c      ****                 break;
 610:.\main.c      ****                 
 611:.\main.c      ****             }
 612:.\main.c      ****             
 613:.\main.c      ****         break;
 614:.\main.c      ****             
 615:.\main.c      ****         case 9: //Teclado           
 616:.\main.c      ****             switch (alphanumeric_keyboard(1,10,0)){
 617:.\main.c      ****                 case 0: //Cancelar
 618:.\main.c      ****                     switch(bufferDisplay1.flagKeyboard){
 619:.\main.c      ****                         case 1://Placa
 620:.\main.c      ****                             for(x=0;x<=10;x++){
 621:.\main.c      ****                                 bufferDisplay1.licenceSale[x]=0;
 622:.\main.c      ****                             }
 623:.\main.c      ****                             flowDisplay1 = 0;//Inicio
 624:.\main.c      ****                             SetPicture(1,DISPLAY_INICIO0);
 625:.\main.c      ****                         break;
 626:.\main.c      ****                         
 627:.\main.c      ****                         case 2://Kilometraje
 628:.\main.c      ****                             for(x=0;x<=10;x++){
 629:.\main.c      ****                                 bufferDisplay1.mileageSale[x]=0;
 630:.\main.c      ****                             }
 631:.\main.c      ****                         break;
 632:.\main.c      ****                         
 633:.\main.c      ****                         case 3://CC/NIT
 634:.\main.c      ****                             for(x=0;x<=10;x++){
 635:.\main.c      ****                                 bufferDisplay1.identySale[x]=0;
 636:.\main.c      ****                             }
 637:.\main.c      ****                         break;
 638:.\main.c      ****                         case 4://ID
 639:.\main.c      ****                             for(x=0;x<=10;x++){
 640:.\main.c      ****                                 bufferDisplay1.shiftId[x]=0;
 641:.\main.c      ****                             }
 642:.\main.c      ****                         break;
 643:.\main.c      ****                     }                    
 644:.\main.c      ****                     Display1_ClearRxBuffer();
 645:.\main.c      ****                 break;
 646:.\main.c      ****                     
 647:.\main.c      ****                 case 1: //Enter
 648:.\main.c      ****                     switch(bufferDisplay1.flagKeyboard){
 649:.\main.c      ****                         case 1://Placa
 650:.\main.c      ****                             for(x=0;x<=bufferDisplay1.valueKeys[0];x++){
 651:.\main.c      ****                                 bufferDisplay1.licenceSale[x]=bufferDisplay1.valueKeys[x];
 652:.\main.c      ****                             }
 653:.\main.c      ****                             if(bufferDisplay1.flagEndSale){
 654:.\main.c      ****                                 imprimir(printPortA,side.a.dir);
 655:.\main.c      ****                                 flowDisplay1 = 0;
 656:.\main.c      ****                                 SetPicture(1,DISPLAY_INICIO0); 
 657:.\main.c      ****                             }else{
 658:.\main.c      ****                                 flowDisplay1 = 7;//Suba manija
ARM GAS  C:\Users\RECEPC~1\AppData\Local\Temp\ccoGpf2X.s 			page 13


 659:.\main.c      ****                                 SetPicture(1,DISPLAY_SUBA_MANIJA);
 660:.\main.c      ****                             }
 661:.\main.c      ****                         break;
 662:.\main.c      ****                         
 663:.\main.c      ****                         case 2://Kilometraje
 664:.\main.c      ****                             for(x=0;x<=bufferDisplay1.valueKeys[0];x++){
 665:.\main.c      ****                                 bufferDisplay1.mileageSale[x]=bufferDisplay1.valueKeys[x];
 666:.\main.c      ****                             }
 667:.\main.c      ****                             flowDisplay1 = 7;//Suba manija
 668:.\main.c      ****                             SetPicture(1,DISPLAY_SUBA_MANIJA);
 669:.\main.c      ****                         break;
 670:.\main.c      ****                         
 671:.\main.c      ****                         case 3://CC/NIT
 672:.\main.c      ****                             for(x=0;x<=bufferDisplay1.valueKeys[0];x++){
 673:.\main.c      ****                                 bufferDisplay1.identySale[x]=bufferDisplay1.valueKeys[x];
 674:.\main.c      ****                             }
 675:.\main.c      ****                         case 4://ID
 676:.\main.c      ****                             for(x=0;x<=10;x++){
 677:.\main.c      ****                                 bufferDisplay1.shiftId[x] =bufferDisplay1.valueKeys[x];
 678:.\main.c      ****                             }
 679:.\main.c      ****                             flowDisplay1 = 14;//Pide clave                            
 680:.\main.c      ****                             numberKeys1 = 0;
 681:.\main.c      ****                             hiddenKeys = 5;
 682:.\main.c      ****                             controlChar ='*';
 683:.\main.c      ****                             bufferDisplay1.flagKeyboard = 5;
 684:.\main.c      ****                             SetPicture(1,DISPLAY_INGRESE_PASSWORD);
 685:.\main.c      ****                         break;
 686:.\main.c      ****                     }                    
 687:.\main.c      ****                     Display1_ClearRxBuffer();
 688:.\main.c      ****                 break;
 689:.\main.c      ****             }            
 690:.\main.c      ****         break;    
 691:.\main.c      ****     ////////////////// CASOS PARA CRÉDITO  /////////////////////
 692:.\main.c      ****         case 10:
 693:.\main.c      ****             if(Display1_GetRxBufferSize()==8){
 694:.\main.c      ****                 if((Display1_rxBuffer[0]==0xAA) && (Display1_rxBuffer[6]==0xC3) && (Display1_rxBuff
 695:.\main.c      ****                     switch(Display1_rxBuffer[3]){
 696:.\main.c      ****                         case 0xB6:  //Solicitud ibutton  
 697:.\main.c      ****                             flowDisplay1 = 11;
 698:.\main.c      ****                             numberKeys1 = 0;                            
 699:.\main.c      ****                             bufferDisplay1.flagPrint =  1;
 700:.\main.c      ****                             SetPicture(1,DISPLAY_ESPERANDO_ID);                            
 701:.\main.c      ****                         break; 
 702:.\main.c      ****                         case 0xB7:  //ID por número
 703:.\main.c      ****                             bufferDisplay1.flagKeyboard = 0;
 704:.\main.c      ****                             flowDisplay1 = 7;//Esperando estado del dispensador  
 705:.\main.c      ****                             count_protector=0;
 706:.\main.c      ****                             SetPicture(1,DISPLAY_SUBA_MANIJA);                            
 707:.\main.c      ****                         break;
 708:.\main.c      ****                         case 0x7E:  //Pantalla Inicial                                             
 709:.\main.c      ****                             SetPicture(1,DISPLAY_INICIO0);
 710:.\main.c      ****                             flowDisplay1 = 0;
 711:.\main.c      ****                         break;
 712:.\main.c      ****                     }                    
 713:.\main.c      ****                 }
 714:.\main.c      ****                 CyDelay(10);         
 715:.\main.c      ****                 Display1_ClearRxBuffer();
ARM GAS  C:\Users\RECEPC~1\AppData\Local\Temp\ccoGpf2X.s 			page 14


 716:.\main.c      ****             }                        
 717:.\main.c      ****         break;
 718:.\main.c      ****         
 719:.\main.c      ****         case 11:
 720:.\main.c      ****             isr_3_StartEx(animacion);
 721:.\main.c      ****             Timer_Animacion_Start();
 722:.\main.c      ****             if(touch_present(1)==1){
 723:.\main.c      **** 				if(touch_write(1,0x33)){
 724:.\main.c      **** 					for(x=1;x<=8;x++){
 725:.\main.c      **** 						temporal[x]=touch_read_byte(1);
 726:.\main.c      **** 					}
 727:.\main.c      **** 					y=0;
 728:.\main.c      **** 					for(x=1;x<8;x++){
 729:.\main.c      ****                         y=crc_check(y,temporal[x]);
 730:.\main.c      ****                     }
 731:.\main.c      **** 					if(y==temporal[8]){
 732:.\main.c      **** 						bufferDisplay1.idSerial[0]=16;
 733:.\main.c      **** 						y=16;
 734:.\main.c      **** 						for(x=1;x<=8;x++){
 735:.\main.c      **** 							if((temporal[x]&0x0F)>=10){
 736:.\main.c      **** 								bufferDisplay1.idSerial[y]=(temporal[x]&0x0F)+55;
 737:.\main.c      **** 							}else{
 738:.\main.c      **** 								bufferDisplay1.idSerial[y]=(temporal[x]&0x0F)+48;				
 739:.\main.c      **** 							}
 740:.\main.c      ****                             y--;
 741:.\main.c      **** 							if(((temporal[x]>>4)&0x0F)>=10){
 742:.\main.c      **** 								bufferDisplay1.idSerial[y]=((temporal[x]>>4)&0x0F)+55;
 743:.\main.c      **** 							}else{
 744:.\main.c      **** 								bufferDisplay1.idSerial[y]=((temporal[x]>>4)&0x0F)+48;				
 745:.\main.c      **** 							}
 746:.\main.c      ****                             y--;
 747:.\main.c      **** 						}                        
 748:.\main.c      ****                         SetPicture(1,DISPLAY_ID_RECONOCIDO);                                       
 749:.\main.c      ****                         Display1_ClearRxBuffer();
 750:.\main.c      ****                         CyDelay(700);
 751:.\main.c      ****                         bufferDisplay1.flagKeyboard = 2;
 752:.\main.c      ****                         flowDisplay1 = 9;
 753:.\main.c      ****                         SetPicture(1,DISPLAY_INTRODUZCA_KILOMETRAJE);
 754:.\main.c      ****                         
 755:.\main.c      **** 					}
 756:.\main.c      **** 				}
 757:.\main.c      **** 			}
 758:.\main.c      ****             if(count_protector>=60){
 759:.\main.c      ****                 flowDisplay1 = 0;	
 760:.\main.c      ****     			count_protector=0;
 761:.\main.c      ****                 SetPicture(1,DISPLAY_INICIO0);
 762:.\main.c      ****     		}
 763:.\main.c      ****                                     
 764:.\main.c      ****         break;    
 765:.\main.c      ****     ///////////////FIN CASOS PARA CRÉDITO  /////////////////////  
 766:.\main.c      ****     
 767:.\main.c      ****     //////////// CASOS PARA CONFIGURACIONES  ///////////////////
 768:.\main.c      ****         case 12:
 769:.\main.c      ****             if(Display1_GetRxBufferSize()==8){
 770:.\main.c      ****                 if((Display1_rxBuffer[0]==0xAA) && (Display1_rxBuffer[6]==0xC3) && (Display1_rxBuff
 771:.\main.c      ****                     switch(Display1_rxBuffer[3]){
 772:.\main.c      ****                         case 0x46:  //Turnos              
ARM GAS  C:\Users\RECEPC~1\AppData\Local\Temp\ccoGpf2X.s 			page 15


 773:.\main.c      ****                             flowDisplay1 = 13; 
 774:.\main.c      ****                             if(lockTurn ==1){
 775:.\main.c      ****                                 SetPicture(1,DISPLAY_CERRAR_TURNO);
 776:.\main.c      ****                             }else{
 777:.\main.c      ****                                 SetPicture(1,DISPLAY_ABRIR_TURNO);
 778:.\main.c      ****                             }                            
 779:.\main.c      ****                         break;
 780:.\main.c      ****                         case 0x55:  //Configurar módulo 
 781:.\main.c      ****                             flowDisplay1 = 14;
 782:.\main.c      ****                             bufferDisplay1.flagKeyboard = 6;
 783:.\main.c      ****                             numberKeys1 = 0;
 784:.\main.c      ****                             hiddenKeys = 5;
 785:.\main.c      ****                             controlChar ='*';
 786:.\main.c      ****                             SetPicture(1,DISPLAY_INGRESE_PASSWORD);                           
 787:.\main.c      ****                         break;
 788:.\main.c      ****                         case 0xB5:  //Copia de recibo 
 789:.\main.c      ****                             flowDisplay1 = 12;                            
 790:.\main.c      ****                             SetPicture(1,DISPLAY_OPERACIONES);                            
 791:.\main.c      ****                         break;
 792:.\main.c      ****                         
 793:.\main.c      ****                         case 0x3B:  //Pantalla Inicial    
 794:.\main.c      ****                             flowDisplay1 = 0;
 795:.\main.c      ****                             SetPicture(1,DISPLAY_INICIO0);                            
 796:.\main.c      ****                         break;
 797:.\main.c      ****                             
 798:.\main.c      ****                         case 0x94:  //Pantalla Inicial    
 799:.\main.c      ****                             flowDisplay1 = 0;
 800:.\main.c      ****                             SetPicture(1,DISPLAY_INICIO0);                            
 801:.\main.c      ****                         break;
 802:.\main.c      ****                         
 803:.\main.c      ****                         case 0x7E:  //Pantalla Inicial    
 804:.\main.c      ****                             flowDisplay1 = 0;
 805:.\main.c      ****                             SetPicture(1,DISPLAY_INICIO0);                            
 806:.\main.c      ****                         break;
 807:.\main.c      ****                     }
 808:.\main.c      ****                 }  
 809:.\main.c      ****                 CyDelay(10);         
 810:.\main.c      ****                 Display1_ClearRxBuffer();
 811:.\main.c      ****             }
 812:.\main.c      ****         break;
 813:.\main.c      **** 
 814:.\main.c      ****         case 13:
 815:.\main.c      ****             if(Display1_GetRxBufferSize()==8){
 816:.\main.c      ****                 if((Display1_rxBuffer[0]==0xAA) && (Display1_rxBuffer[6]==0xC3) && (Display1_rxBuff
 817:.\main.c      ****                     switch(Display1_rxBuffer[3]){
 818:.\main.c      ****                         case 0x47:  //Cambio de turno: Abrir  
 819:.\main.c      ****                             flowDisplay1 = 9;
 820:.\main.c      ****                             numberKeys1 = 0;    
 821:.\main.c      ****                             bufferDisplay1.flagKeyboard = 4;
 822:.\main.c      ****                             SetPicture(1,DISPLAY_INTRODUZCA_CEDULA);                            
 823:.\main.c      ****                         break;
 824:.\main.c      ****                         case 0x48:  //Cambio de turno: Cerrar 
 825:.\main.c      ****                             flowDisplay1 = 9;
 826:.\main.c      ****                             numberKeys1 = 0;   
 827:.\main.c      ****                             bufferDisplay1.flagKeyboard = 4;
 828:.\main.c      ****                             SetPicture(1,DISPLAY_INTRODUZCA_CEDULA);                           
 829:.\main.c      ****                         break;                         
ARM GAS  C:\Users\RECEPC~1\AppData\Local\Temp\ccoGpf2X.s 			page 16


 830:.\main.c      ****                         case 0x7E:  //Pantalla Inicial                                             
 831:.\main.c      ****                             SetPicture(1,DISPLAY_INICIO0);
 832:.\main.c      ****                             flowDisplay1 = 0;
 833:.\main.c      ****                         break;
 834:.\main.c      ****                         case 0x94:  //Pantalla Inicial                                             
 835:.\main.c      ****                             SetPicture(1,DISPLAY_INICIO0);
 836:.\main.c      ****                             flowDisplay1 = 0;
 837:.\main.c      ****                         break;
 838:.\main.c      ****                     }                    
 839:.\main.c      ****                 }
 840:.\main.c      ****                 CyDelay(10);         
 841:.\main.c      ****                 Display1_ClearRxBuffer();
 842:.\main.c      ****             }                        
 843:.\main.c      ****         break; 
 844:.\main.c      ****             
 845:.\main.c      ****         case 14: //Teclado general      
 846:.\main.c      ****             switch (alphanumeric_keyboard(1,hiddenKeys,controlChar)){
 847:.\main.c      ****                 case 0: //Cancelar
 848:.\main.c      ****                     switch(bufferDisplay1.flagKeyboard){
 849:.\main.c      ****                         case 1://ID Estacion
 850:.\main.c      ****                             for(x=0;x<=4;x++){
 851:.\main.c      ****                                 idStation[x]=0;
 852:.\main.c      ****                             }
 853:.\main.c      ****                             flowDisplay1 = 0;
 854:.\main.c      ****                             SetPicture(1,DISPLAY_INICIO0);
 855:.\main.c      ****                         break;
 856:.\main.c      ****                         case 2://Umbral
 857:.\main.c      ****                             for(x=0;x< hiddenKeys;x++){
 858:.\main.c      ****                                 pumpGap[x]=0;
 859:.\main.c      ****                             }
 860:.\main.c      ****                             flowDisplay1 = 0;
 861:.\main.c      ****                             SetPicture(1,DISPLAY_INICIO0);
 862:.\main.c      ****                         break;
 863:.\main.c      ****                         case 5://Pass
 864:.\main.c      ****                             for(x=0;x< hiddenKeys;x++){
 865:.\main.c      ****                                 bufferDisplay1.shiftPassword[x]=0;
 866:.\main.c      ****                             }
 867:.\main.c      ****                             flowDisplay1 = 0;
 868:.\main.c      ****                             SetPicture(1,DISPLAY_INICIO0);
 869:.\main.c      ****                         break;
 870:.\main.c      ****                             
 871:.\main.c      ****                         case 6://Pass
 872:.\main.c      ****                             for(x=1;x<=configAccess[0];x++){
 873:.\main.c      ****                                 configAccess[x]=0;
 874:.\main.c      ****                             }
 875:.\main.c      ****                             flowDisplay1 = 0;
 876:.\main.c      ****                             SetPicture(1,DISPLAY_INICIO0);
 877:.\main.c      ****                         break;
 878:.\main.c      ****                     }                    
 879:.\main.c      ****                     Display1_ClearRxBuffer();
 880:.\main.c      ****                 break;
 881:.\main.c      ****                     
 882:.\main.c      ****                 case 1: //Enter
 883:.\main.c      ****                     switch(bufferDisplay1.flagKeyboard){   
 884:.\main.c      ****                         case 1://ID Estacion
 885:.\main.c      ****                             for(x=0;x <=4;x++){
 886:.\main.c      ****                                 idStation[x] =bufferDisplay1.valueKeys[x+1];                       
ARM GAS  C:\Users\RECEPC~1\AppData\Local\Temp\ccoGpf2X.s 			page 17


 887:.\main.c      ****                             }
 888:.\main.c      ****                             idStation[4] = 0x00;
 889:.\main.c      ****                             intIDStation = atoi(idStation);
 890:.\main.c      ****                             IDCast[0] = intIDStation;
 891:.\main.c      ****                             IDCast[1] = intIDStation>>8;
 892:.\main.c      ****                             EEPROM_1_WriteByte(IDCast[0],10);
 893:.\main.c      ****                             EEPROM_1_WriteByte(IDCast[1],11);
 894:.\main.c      ****                             flowDisplay1 = 15;
 895:.\main.c      ****                             SetPicture(1,DISPLAY_CONFIGURACIONES);
 896:.\main.c      ****                         break;
 897:.\main.c      ****                         case 2://Pass
 898:.\main.c      ****                             for(x=0;x < hiddenKeys;x++){
 899:.\main.c      ****                                 pumpGap[x] =bufferDisplay1.valueKeys[x];
 900:.\main.c      ****                             }
 901:.\main.c      ****                             flowDisplay1 = 15;
 902:.\main.c      ****                             SetPicture(1,DISPLAY_CONFIGURACIONES);
 903:.\main.c      ****                         break;
 904:.\main.c      ****                         case 5://Pass
 905:.\main.c      ****                             for(x=0;x < hiddenKeys;x++){
 906:.\main.c      ****                                 bufferDisplay1.shiftPassword[x] =bufferDisplay1.valueKeys[x];
 907:.\main.c      ****                             }
 908:.\main.c      ****                             flowDisplay1 = 15;
 909:.\main.c      ****                             SetPicture(1,DISPLAY_CONFIGURACIONES);
 910:.\main.c      ****                         break; 
 911:.\main.c      ****                         case 6://Pass
 912:.\main.c      ****                             for(x=1;x<=configAccess[0];x++){
 913:.\main.c      ****                                 configAccess[x] =bufferDisplay1.valueKeys[x];
 914:.\main.c      ****                             }
 915:.\main.c      ****                             if(configAccess[1] == passwordPump[1] && configAccess[2] == passwordPum
 916:.\main.c      ****                                 SetPicture(1,DISPLAY_PASSWORD_VALIDO);
 917:.\main.c      ****                                 CyDelay(700);
 918:.\main.c      ****                                 flowDisplay1 = 15;
 919:.\main.c      ****                                 SetPicture(1,DISPLAY_CONFIGURACIONES);
 920:.\main.c      ****                             }else{
 921:.\main.c      ****                                 SetPicture(1,DISPLAY_PASSWORD_INVALIDO);
 922:.\main.c      ****                                 CyDelay(700);
 923:.\main.c      ****                                 flowDisplay1 = 0;
 924:.\main.c      ****                                 SetPicture(1,DISPLAY_INICIO0);
 925:.\main.c      ****                             }
 926:.\main.c      ****                         break;
 927:.\main.c      ****                     }                    
 928:.\main.c      ****                     Display1_ClearRxBuffer();
 929:.\main.c      ****                 break;
 930:.\main.c      ****             }            
 931:.\main.c      ****         break;
 932:.\main.c      ****             
 933:.\main.c      ****         case 15:
 934:.\main.c      ****             if(Display1_GetRxBufferSize()==8){
 935:.\main.c      ****                 if((Display1_rxBuffer[0]==0xAA) && (Display1_rxBuffer[6]==0xC3) && (Display1_rxBuff
 936:.\main.c      ****                     switch(Display1_rxBuffer[3]){
 937:.\main.c      ****                         case 0x82:  //ID Estacion  
 938:.\main.c      ****                             flowDisplay1 = 14;
 939:.\main.c      ****                             numberKeys1 = 0; 
 940:.\main.c      ****                             controlChar = 0;
 941:.\main.c      ****                             hiddenKeys  = 5;
 942:.\main.c      **** //                            idStation[0]= 4;
 943:.\main.c      ****                             bufferDisplay1.flagKeyboard = 1;
ARM GAS  C:\Users\RECEPC~1\AppData\Local\Temp\ccoGpf2X.s 			page 18


 944:.\main.c      ****                             SetPicture(1,DISPLAY_INTRODUZCA_VALOR);                            
 945:.\main.c      ****                         break;
 946:.\main.c      ****                         case 0x65:  //Test Impresoras 
 947:.\main.c      ****                             flowDisplay1 = 16; 
 948:.\main.c      ****                             PrintTest();
 949:.\main.c      ****                             SetPicture(1,DISPLAY_AMBAS_IMPRESORAS_FUNCIONANDO);                    
 950:.\main.c      ****                         break;
 951:.\main.c      ****                         
 952:.\main.c      ****                         case 0x5A:  //Umbral 
 953:.\main.c      ****                             flowDisplay1 = 14;
 954:.\main.c      ****                             numberKeys1 = 0;
 955:.\main.c      ****                             controlChar = 0;
 956:.\main.c      ****                             hiddenKeys  = 3;
 957:.\main.c      ****                             pumpGap[0]  = 2;
 958:.\main.c      ****                             bufferDisplay1.flagKeyboard = 2;
 959:.\main.c      ****                             SetPicture(1,DISPLAY_INTRODUZCA_VALOR);                            
 960:.\main.c      ****                         break;
 961:.\main.c      ****                         case 0x58:  //Hora y Fecha
 962:.\main.c      ****                             flowDisplay1 = 18;
 963:.\main.c      ****                             numberKeys1 = 0;   
 964:.\main.c      ****                             bufferDisplay1.flagKeyboard = 4;
 965:.\main.c      ****                             SetPicture(1,DISPLAY_CONFIGURAR_FECHA_HORA);                           
 966:.\main.c      ****                         break;
 967:.\main.c      ****                         case 0x7E:  //Pantalla Inicial                                             
 968:.\main.c      ****                             SetPicture(1,DISPLAY_INICIO0);
 969:.\main.c      ****                             flowDisplay1 = 0;
 970:.\main.c      ****                         break;
 971:.\main.c      ****                         case 0x94:  //Pantalla Inicial                                             
 972:.\main.c      ****                             SetPicture(1,DISPLAY_INICIO0);
 973:.\main.c      ****                             flowDisplay1 = 0;
 974:.\main.c      ****                         break;
 975:.\main.c      ****                     }                    
 976:.\main.c      ****                 }
 977:.\main.c      ****                 CyDelay(10);         
 978:.\main.c      ****                 Display1_ClearRxBuffer();
 979:.\main.c      ****             }                        
 980:.\main.c      ****         break; 
 981:.\main.c      ****             
 982:.\main.c      ****         case 16:
 983:.\main.c      ****             if(Display1_GetRxBufferSize()==8){
 984:.\main.c      ****                 if((Display1_rxBuffer[0]==0xAA) && (Display1_rxBuffer[6]==0xC3) && (Display1_rxBuff
 985:.\main.c      ****                     switch(Display1_rxBuffer[3]){
 986:.\main.c      ****                         case 0x38:  //No funcionan  
 987:.\main.c      ****                             flowDisplay1 = 17;
 988:.\main.c      ****                             SetPicture(1,DISPLAY_IMPRESORA_NO_FUNCIONANDO);                        
 989:.\main.c      ****                         break;
 990:.\main.c      ****                         case 0x39:  //Si funcionan
 991:.\main.c      ****                             flowDisplay1 = 15; 
 992:.\main.c      ****                             printPortA = 1;
 993:.\main.c      ****                             printPortB = 2;
 994:.\main.c      ****                             EEPROM_1_WriteByte(printPortA,8);
 995:.\main.c      ****                             EEPROM_1_WriteByte(printPortB,9);
 996:.\main.c      ****                             SetPicture(1,DISPLAY_CONFIGURACIONES);
 997:.\main.c      ****                         break;
 998:.\main.c      ****                                                
 999:.\main.c      ****                         case 0x7E:  //Pantalla Inicial                                             
1000:.\main.c      ****                             SetPicture(1,DISPLAY_INICIO0);
ARM GAS  C:\Users\RECEPC~1\AppData\Local\Temp\ccoGpf2X.s 			page 19


1001:.\main.c      ****                             flowDisplay1 = 0;
1002:.\main.c      ****                         break;
1003:.\main.c      ****                         case 0x94:  //Pantalla Inicial                                             
1004:.\main.c      ****                             SetPicture(1,DISPLAY_INICIO0);
1005:.\main.c      ****                             flowDisplay1 = 0;
1006:.\main.c      ****                         break;
1007:.\main.c      ****                     }                    
1008:.\main.c      ****                 }
1009:.\main.c      ****                 CyDelay(10);         
1010:.\main.c      ****                 Display1_ClearRxBuffer();
1011:.\main.c      ****             }                        
1012:.\main.c      ****         break;
1013:.\main.c      ****             
1014:.\main.c      ****         case 17:
1015:.\main.c      ****             if(Display1_GetRxBufferSize()==8){
1016:.\main.c      ****                 if((Display1_rxBuffer[0]==0xAA) && (Display1_rxBuffer[6]==0xC3) && (Display1_rxBuff
1017:.\main.c      ****                     switch(Display1_rxBuffer[3]){
1018:.\main.c      ****                         case 0x8C:  //1 no funciona  
1019:.\main.c      ****                             flowDisplay1 = 15; 
1020:.\main.c      ****                             printPortA = 2;
1021:.\main.c      ****                             printPortB = 2;
1022:.\main.c      ****                             EEPROM_1_WriteByte(printPortA,8);
1023:.\main.c      ****                             EEPROM_1_WriteByte(printPortB,9);
1024:.\main.c      ****                             SetPicture(1,DISPLAY_CONFIGURACIONES);                            
1025:.\main.c      ****                         break;
1026:.\main.c      ****                         case 0x8D:  //2 no funciona
1027:.\main.c      ****                             flowDisplay1 = 15; 
1028:.\main.c      ****                             printPortA = 1;
1029:.\main.c      ****                             printPortB = 1;
1030:.\main.c      ****                             EEPROM_1_WriteByte(printPortA,8);
1031:.\main.c      ****                             EEPROM_1_WriteByte(printPortB,9);
1032:.\main.c      ****                             SetPicture(1,DISPLAY_CONFIGURACIONES); 
1033:.\main.c      ****                         break;
1034:.\main.c      ****                             
1035:.\main.c      ****                         case 0x8E:  //ninguna funciona
1036:.\main.c      ****                             flowDisplay1 = 15; 
1037:.\main.c      ****                             printPortA = 0;
1038:.\main.c      ****                             printPortB = 0;
1039:.\main.c      ****                             EEPROM_1_WriteByte(printPortA,8);
1040:.\main.c      ****                             EEPROM_1_WriteByte(printPortB,9);
1041:.\main.c      ****                             SetPicture(1,DISPLAY_CONFIGURACIONES); 
1042:.\main.c      ****                         break;
1043:.\main.c      ****                                                
1044:.\main.c      ****                         case 0x7E:  //Pantalla Inicial                                             
1045:.\main.c      ****                             SetPicture(1,DISPLAY_INICIO0);
1046:.\main.c      ****                             flowDisplay1 = 0;
1047:.\main.c      ****                         break;
1048:.\main.c      ****                         case 0x94:  //Pantalla Inicial                                             
1049:.\main.c      ****                             SetPicture(1,DISPLAY_INICIO0);
1050:.\main.c      ****                             flowDisplay1 = 0;
1051:.\main.c      ****                         break;
1052:.\main.c      ****                     }                    
1053:.\main.c      ****                 }
1054:.\main.c      ****                 CyDelay(10);         
1055:.\main.c      ****                 Display1_ClearRxBuffer();
1056:.\main.c      ****             }                        
1057:.\main.c      ****         break;
ARM GAS  C:\Users\RECEPC~1\AppData\Local\Temp\ccoGpf2X.s 			page 20


1058:.\main.c      ****             
1059:.\main.c      ****         case 18:
1060:.\main.c      ****             if(leer_hora()==1){
1061:.\main.c      ****                 WriteLCD(1,(((timeDownHandle[1]&0x10)>>4)+48),13,8,1,0x0000,'N');
1062:.\main.c      ****                 WriteLCD(1,((timeDownHandle[1]&0x0F)+48),13,9,1,0x0000,'N');
1063:.\main.c      ****                 WriteLCD(1,':',13,10,1,0x0000,'N');
1064:.\main.c      ****                 WriteLCD(1,(((timeDownHandle[0]&0xF0)>>4)+48),13,11,1,0x0000,'N');
1065:.\main.c      ****                 WriteLCD(1,((timeDownHandle[0]&0x0F)+48),13,12,1,0x0000,'N');               
1066:.\main.c      ****             }
1067:.\main.c      ****             if(leer_fecha()==1){                
1068:.\main.c      ****                 WriteLCD(1,(((dateDownHandle[0]&0x30)>>4)+48),21,8,1,0x0000,'N');
1069:.\main.c      ****                 WriteLCD(1,((dateDownHandle[0]&0x0F)+48),21,9,1,0x0000,'N');
1070:.\main.c      ****                 WriteLCD(1,'/',21,10,1,0x0000,'N');
1071:.\main.c      ****                 WriteLCD(1,(((dateDownHandle[1]&0x10)>>4)+48),21,11,1,0x0000,'N');
1072:.\main.c      ****                 WriteLCD(1,((dateDownHandle[1]&0x0F)+48),21,12,1,0x0000,'N');
1073:.\main.c      ****                 WriteLCD(1,'/',21,13,1,0x0000,'N');
1074:.\main.c      ****                 WriteLCD(1,(((dateDownHandle[2]&0xF0)>>4)+48),21,14,1,0x0000,'N');
1075:.\main.c      ****                 WriteLCD(1,((dateDownHandle[2]&0x0F)+48),21,15,1,0x0000,'N');
1076:.\main.c      ****             }
1077:.\main.c      ****             if(Display1_GetRxBufferSize()==8){
1078:.\main.c      ****                 if((Display1_rxBuffer[0]==0xAA) && (Display1_rxBuffer[6]==0xC3) && (Display1_rxBuff
1079:.\main.c      ****                     switch(Display1_rxBuffer[3]){                                                  
1080:.\main.c      ****                         case 0x7E:  //Pantalla Inicial  
1081:.\main.c      ****                             flowDisplay1 = 0;
1082:.\main.c      ****                             SetPicture(1,DISPLAY_INICIO0);                            
1083:.\main.c      ****                         break;
1084:.\main.c      ****                         case 0x94:  //Pantalla Inicial    
1085:.\main.c      ****                             flowDisplay1 = 0;
1086:.\main.c      ****                             SetPicture(1,DISPLAY_INICIO0);                            
1087:.\main.c      ****                         break;
1088:.\main.c      ****                     }                    
1089:.\main.c      ****                 }
1090:.\main.c      ****                 CyDelay(10);         
1091:.\main.c      ****                 Display1_ClearRxBuffer();
1092:.\main.c      ****             }                        
1093:.\main.c      ****         break;
1094:.\main.c      ****             
1095:.\main.c      ****             
1096:.\main.c      ****     }
1097:.\main.c      **** }
1098:.\main.c      **** 
1099:.\main.c      **** 
1100:.\main.c      **** 
1101:.\main.c      **** /*
1102:.\main.c      **** ***************************************************************************************************
1103:.\main.c      **** *                                         void polling_Pump(void)
1104:.\main.c      **** *
1105:.\main.c      **** * Description : Pregunta estado al surtidor 
1106:.\main.c      **** *               
1107:.\main.c      **** *
1108:.\main.c      **** ***************************************************************************************************
1109:.\main.c      **** */
1110:.\main.c      **** void PollingDisplay2(void){     
1111:.\main.c      ****     switch(flowDisplay2){
1112:.\main.c      ****         case 0:
1113:.\main.c      ****             InitDisplay2();
1114:.\main.c      ****             flowDisplay2 =1;
ARM GAS  C:\Users\RECEPC~1\AppData\Local\Temp\ccoGpf2X.s 			page 21


1115:.\main.c      ****         break;
1116:.\main.c      ****         case 1: //Menu
1117:.\main.c      **** 			ShowRectangle(2,35);        
1118:.\main.c      ****             if(Display2_GetRxBufferSize()==8){
1119:.\main.c      ****                 if((Display2_rxBuffer[0]==0xAA) && (Display2_rxBuffer[6]==0xC3) && (Display2_rxBuff
1120:.\main.c      ****                     switch(Display2_rxBuffer[3]){
1121:.\main.c      ****                         case 0x3A:  //Pantalla forma de pago
1122:.\main.c      ****                             flowDisplay2 = 2;                            
1123:.\main.c      ****                             SetPicture(2,DISPLAY_FORMA_PAGO_DESEADA);                            
1124:.\main.c      ****                         break;   
1125:.\main.c      ****                         case 0x7E:  //Pantalla Inicial                                             
1126:.\main.c      ****                             SetPicture(2,DISPLAY_INICIO0);
1127:.\main.c      ****                             flowDisplay2 = 0;
1128:.\main.c      ****                         break;
1129:.\main.c      ****                     }
1130:.\main.c      ****                 }  
1131:.\main.c      ****                 CyDelay(10);         
1132:.\main.c      ****                 Display2_ClearRxBuffer();
1133:.\main.c      ****             }
1134:.\main.c      ****         break;
1135:.\main.c      ****         case 2:
1136:.\main.c      ****             if(Display2_GetRxBufferSize()==8){
1137:.\main.c      ****                 if((Display2_rxBuffer[0]==0xAA) && (Display2_rxBuffer[6]==0xC3) && (Display2_rxBuff
1138:.\main.c      ****                     switch(Display2_rxBuffer[3]){
1139:.\main.c      ****                         case 0x0D:  //Pantalla efectivo              
1140:.\main.c      ****                             flowDisplay2 = 3;                            
1141:.\main.c      ****                             SetPicture(2,DISPLAY_FORMA_PROGRAMACION);                            
1142:.\main.c      ****                         break;
1143:.\main.c      ****                         case 0x0E:  //Pantalla credito   
1144:.\main.c      ****                             flowDisplay2 = 4;                                                     
1145:.\main.c      ****                             SetPicture(2,DISPLAY_ID_DIGITAL);                            
1146:.\main.c      ****                         break;
1147:.\main.c      ****                         case 0x45:  //Pantalla otras opciones 
1148:.\main.c      ****                             flowDisplay2 = 5;                            
1149:.\main.c      ****                             SetPicture(2,DISPLAY_OPERACIONES);                            
1150:.\main.c      ****                         break;
1151:.\main.c      ****                             
1152:.\main.c      ****                         case 0x94:  //Pantalla Inicial    
1153:.\main.c      ****                             flowDisplay2 = 0;
1154:.\main.c      ****                             SetPicture(2,DISPLAY_INICIO0);                            
1155:.\main.c      ****                         break;
1156:.\main.c      ****                         
1157:.\main.c      ****                         case 0x7E:  //Pantalla Inicial    
1158:.\main.c      ****                             flowDisplay2 = 0;
1159:.\main.c      ****                             SetPicture(2,DISPLAY_INICIO0);                            
1160:.\main.c      ****                         break;
1161:.\main.c      ****                     }
1162:.\main.c      ****                 }  
1163:.\main.c      ****                 CyDelay(10);         
1164:.\main.c      ****                 Display2_ClearRxBuffer();
1165:.\main.c      ****             }
1166:.\main.c      ****         break;
1167:.\main.c      ****             
1168:.\main.c      ****         case 3: 
1169:.\main.c      ****             if(Display2_GetRxBufferSize()==8){
1170:.\main.c      ****                 if((Display2_rxBuffer[0]==0xAA) && (Display2_rxBuffer[6]==0xC3) && (Display2_rxBuff
1171:.\main.c      ****                     switch(Display2_rxBuffer[3]){
ARM GAS  C:\Users\RECEPC~1\AppData\Local\Temp\ccoGpf2X.s 			page 22


1172:.\main.c      ****                         case 0x0F:  //Preset dinero                
1173:.\main.c      ****                             flowDisplay2 = 4;
1174:.\main.c      ****                             SetPicture(2,DISPLAY_INTRODUZCA_VALOR);                            
1175:.\main.c      ****                         break; 
1176:.\main.c      ****                         case 0x10:  //Preset volumen                 
1177:.\main.c      ****                             flowDisplay2 = 5;
1178:.\main.c      ****                             SetPicture(2,DISPLAY_INTRODUZCA_VOLUMEN);                            
1179:.\main.c      ****                         break;
1180:.\main.c      ****                         case 0x43:  //Preset full                       
1181:.\main.c      ****                             flowDisplay2 = 6;
1182:.\main.c      ****                             SetPicture(2,DISPLAY_DESEA_IMPRIMIR_RECIBO);                           
1183:.\main.c      ****                         break;
1184:.\main.c      ****                         case 0x94:  //Retroceso 
1185:.\main.c      ****                             flowDisplay2 = 0;
1186:.\main.c      ****                             SetPicture(2,DISPLAY_INICIO0);                                         
1187:.\main.c      ****                         break;
1188:.\main.c      ****                         case 0x3B:  //Pantalla Inicial    
1189:.\main.c      ****                             flowDisplay2 = 0;
1190:.\main.c      ****                             SetPicture(2,DISPLAY_INICIO0);                            
1191:.\main.c      ****                         break;
1192:.\main.c      ****                         case 0x7E:  //Pantalla Inicial    
1193:.\main.c      ****                             flowDisplay2 = 0;
1194:.\main.c      ****                             SetPicture(2,DISPLAY_INICIO0);                            
1195:.\main.c      ****                         break;
1196:.\main.c      ****                     }
1197:.\main.c      ****                 }  
1198:.\main.c      ****                 CyDelay(10);         
1199:.\main.c      ****                 Display2_ClearRxBuffer();
1200:.\main.c      ****             }
1201:.\main.c      ****         break;
1202:.\main.c      ****         
1203:.\main.c      ****         case 4:
1204:.\main.c      ****             if(Display2_GetRxBufferSize()==8){
1205:.\main.c      ****                 if((Display2_rxBuffer[0]==0xAA) && (Display2_rxBuffer[6]==0xC3) && (Display2_rxBuff
1206:.\main.c      ****                     switch(Display2_rxBuffer[3]){
1207:.\main.c      ****                         case 0x94:  //Retroceso 
1208:.\main.c      ****                             flowDisplay2 = 0;   
1209:.\main.c      ****                             SetPicture(2,DISPLAY_INICIO0);                                         
1210:.\main.c      ****                         break;
1211:.\main.c      ****                         case 0x7E:  //Pantalla Inicial    
1212:.\main.c      ****                             flowDisplay2 = 0;
1213:.\main.c      ****                             SetPicture(2,DISPLAY_INICIO0);                            
1214:.\main.c      ****                         break;
1215:.\main.c      ****                     }
1216:.\main.c      ****                 }
1217:.\main.c      ****                 CyDelay(10);         
1218:.\main.c      ****                 Display2_ClearRxBuffer();
1219:.\main.c      ****             }
1220:.\main.c      ****         break;
1221:.\main.c      ****             
1222:.\main.c      ****         case 5: //Preset por volumen
1223:.\main.c      ****             if(Display2_GetRxBufferSize()==8){
1224:.\main.c      ****                 if((Display2_rxBuffer[0]==0xAA) && (Display2_rxBuffer[6]==0xC3) && (Display2_rxBuff
1225:.\main.c      ****                     switch(Display2_rxBuffer[3]){
1226:.\main.c      ****                         case 0x94:  //Retroceso 
1227:.\main.c      ****                             flowDisplay2 = 0;   
1228:.\main.c      ****                             SetPicture(2,DISPLAY_INICIO0);                                         
ARM GAS  C:\Users\RECEPC~1\AppData\Local\Temp\ccoGpf2X.s 			page 23


1229:.\main.c      ****                         break;
1230:.\main.c      ****                         case 0x7E:  //Pantalla Inicial    
1231:.\main.c      ****                             flowDisplay2 = 0;
1232:.\main.c      ****                             SetPicture(2,DISPLAY_INICIO0);                            
1233:.\main.c      ****                         break;
1234:.\main.c      ****                     }
1235:.\main.c      ****                 }
1236:.\main.c      ****                 CyDelay(10);         
1237:.\main.c      ****                 Display2_ClearRxBuffer();
1238:.\main.c      ****             }
1239:.\main.c      ****         break;
1240:.\main.c      ****         
1241:.\main.c      ****         case 6:
1242:.\main.c      ****             if(Display2_GetRxBufferSize()==8){
1243:.\main.c      ****                 if((Display2_rxBuffer[0]==0xAA) && (Display2_rxBuffer[6]==0xC3) && (Display2_rxBuff
1244:.\main.c      ****                     switch(Display2_rxBuffer[3]){
1245:.\main.c      ****                         case 0x39:  //Si copia                                                     
1246:.\main.c      ****                             SetPicture(2,DISPLAY_DIGITE_PLACA);
1247:.\main.c      ****                             flowDisplay2 = 7;
1248:.\main.c      ****                         break; 
1249:.\main.c      ****                         case 0x38:  //No copia                                                     
1250:.\main.c      ****                             SetPicture(2,DISPLAY_SELECCIONE_PRODUCTO4);
1251:.\main.c      ****                             flowDisplay2 = 8;//caso para seleccion de producto
1252:.\main.c      ****                         break;
1253:.\main.c      ****                         case 0x7E:  //Pantalla Inicial                                             
1254:.\main.c      ****                             SetPicture(2,DISPLAY_INICIO0);
1255:.\main.c      ****                             flowDisplay2 = 0;
1256:.\main.c      ****                         break;
1257:.\main.c      ****                     }                    
1258:.\main.c      ****                 }
1259:.\main.c      ****                 CyDelay(10);         
1260:.\main.c      ****                 Display2_ClearRxBuffer();
1261:.\main.c      ****             }
1262:.\main.c      ****         break;
1263:.\main.c      ****     }
1264:.\main.c      **** }
1265:.\main.c      **** 
1266:.\main.c      **** void RFConsulting(void){
1267:.\main.c      ****     
1268:.\main.c      **** }
1269:.\main.c      **** 
1270:.\main.c      **** 
1271:.\main.c      **** 
1272:.\main.c      **** 
1273:.\main.c      **** 
1274:.\main.c      **** /*
1275:.\main.c      **** ***************************************************************************************************
1276:.\main.c      **** *                                         CY_ISR(animacion)
1277:.\main.c      **** *
1278:.\main.c      **** * Description : Interrupcion que temporiza las imagenes informativas que aparecen en la pantalla 1
1279:.\main.c      **** *               
1280:.\main.c      **** *
1281:.\main.c      **** * Argument(s) : none
1282:.\main.c      **** *
1283:.\main.c      **** * Return(s)   : none
1284:.\main.c      **** *
1285:.\main.c      **** * Caller(s)   : 
ARM GAS  C:\Users\RECEPC~1\AppData\Local\Temp\ccoGpf2X.s 			page 24


1286:.\main.c      **** *
1287:.\main.c      **** * Note(s)     : none.
1288:.\main.c      **** ***************************************************************************************************
1289:.\main.c      **** */
1290:.\main.c      **** CY_ISR(animacion){
  27              		.loc 1 1290 0
  28              		.cfi_startproc
  29              		@ args = 0, pretend = 0, frame = 0
  30              		@ frame_needed = 0, uses_anonymous_args = 0
  31 0000 08B5     		push	{r3, lr}
  32              		.cfi_def_cfa_offset 8
  33              		.cfi_offset 3, -8
  34              		.cfi_offset 14, -4
1291:.\main.c      ****     Timer_Animacion_ReadStatusRegister();    					
  35              		.loc 1 1291 0
  36 0002 FFF7FEFF 		bl	Timer_Animacion_ReadStatusRegister
  37              	.LVL0:
1292:.\main.c      ****     count_protector++; 							//Incrementa el contador 
  38              		.loc 1 1292 0
  39 0006 024A     		ldr	r2, .L3
  40 0008 1378     		ldrb	r3, [r2]	@ zero_extendqisi2
  41 000a 0133     		adds	r3, r3, #1
  42 000c 1370     		strb	r3, [r2]
  43 000e 08BD     		pop	{r3, pc}
  44              	.L4:
  45              		.align	2
  46              	.L3:
  47 0010 00000000 		.word	count_protector
  48              		.cfi_endproc
  49              	.LFE74:
  50              		.size	animacion, .-animacion
  51              		.section	.text.GlobalInitializer,"ax",%progbits
  52              		.align	2
  53              		.global	GlobalInitializer
  54              		.thumb
  55              		.thumb_func
  56              		.type	GlobalInitializer, %function
  57              	GlobalInitializer:
  58              	.LFB63:
  36:.\main.c      ****     EEPROM_1_Start();
  59              		.loc 1 36 0
  60              		.cfi_startproc
  61              		@ args = 0, pretend = 0, frame = 0
  62              		@ frame_needed = 0, uses_anonymous_args = 0
  63 0000 08B5     		push	{r3, lr}
  64              		.cfi_def_cfa_offset 8
  65              		.cfi_offset 3, -8
  66              		.cfi_offset 14, -4
  37:.\main.c      ****     Pump_Start(); 
  67              		.loc 1 37 0
  68 0002 FFF7FEFF 		bl	EEPROM_1_Start
  69              	.LVL1:
  38:.\main.c      ****     Display1_Start();
  70              		.loc 1 38 0
  71 0006 FFF7FEFF 		bl	Pump_Start
  72              	.LVL2:
  39:.\main.c      ****     Display2_Start();    
ARM GAS  C:\Users\RECEPC~1\AppData\Local\Temp\ccoGpf2X.s 			page 25


  73              		.loc 1 39 0
  74 000a FFF7FEFF 		bl	Display1_Start
  75              	.LVL3:
  40:.\main.c      ****     Printer_Start();   
  76              		.loc 1 40 0
  77 000e FFF7FEFF 		bl	Display2_Start
  78              	.LVL4:
  41:.\main.c      ****     I2C_Bus_Start();
  79              		.loc 1 41 0
  80 0012 FFF7FEFF 		bl	Printer_Start
  81              	.LVL5:
  42:.\main.c      ****     RF_Connection_Start();
  82              		.loc 1 42 0
  83 0016 FFF7FEFF 		bl	I2C_Bus_Start
  84              	.LVL6:
  43:.\main.c      **** }
  85              		.loc 1 43 0
  86 001a FFF7FEFF 		bl	RF_Connection_Start
  87              	.LVL7:
  88 001e 08BD     		pop	{r3, pc}
  89              		.cfi_endproc
  90              	.LFE63:
  91              		.size	GlobalInitializer, .-GlobalInitializer
  92              		.section	.text.StoreConfiguration,"ax",%progbits
  93              		.align	2
  94              		.global	StoreConfiguration
  95              		.thumb
  96              		.thumb_func
  97              		.type	StoreConfiguration, %function
  98              	StoreConfiguration:
  99              	.LFB64:
  45:.\main.c      ****     EEPROM_1_WriteByte(UnitType,0);
 100              		.loc 1 45 0
 101              		.cfi_startproc
 102              		@ args = 0, pretend = 0, frame = 0
 103              		@ frame_needed = 0, uses_anonymous_args = 0
 104 0000 08B5     		push	{r3, lr}
 105              		.cfi_def_cfa_offset 8
 106              		.cfi_offset 3, -8
 107              		.cfi_offset 14, -4
  46:.\main.c      ****     EEPROM_1_WriteByte(ConversionFactor,1);
 108              		.loc 1 46 0
 109 0002 124B     		ldr	r3, .L9
 110 0004 1878     		ldrb	r0, [r3]	@ zero_extendqisi2
 111 0006 0021     		movs	r1, #0
 112 0008 FFF7FEFF 		bl	EEPROM_1_WriteByte
 113              	.LVL8:
  47:.\main.c      ****     EEPROM_1_WriteByte(MoneyDec,2);
 114              		.loc 1 47 0
 115 000c 104B     		ldr	r3, .L9+4
 116 000e 1878     		ldrb	r0, [r3]	@ zero_extendqisi2
 117 0010 0121     		movs	r1, #1
 118 0012 FFF7FEFF 		bl	EEPROM_1_WriteByte
 119              	.LVL9:
  48:.\main.c      ****     EEPROM_1_WriteByte(VolDec,3);
 120              		.loc 1 48 0
 121 0016 0F4B     		ldr	r3, .L9+8
ARM GAS  C:\Users\RECEPC~1\AppData\Local\Temp\ccoGpf2X.s 			page 26


 122 0018 1878     		ldrb	r0, [r3]	@ zero_extendqisi2
 123 001a 0221     		movs	r1, #2
 124 001c FFF7FEFF 		bl	EEPROM_1_WriteByte
 125              	.LVL10:
  49:.\main.c      ****     EEPROM_1_WriteByte(PPUDec,4);
 126              		.loc 1 49 0
 127 0020 0D4B     		ldr	r3, .L9+12
 128 0022 1878     		ldrb	r0, [r3]	@ zero_extendqisi2
 129 0024 0321     		movs	r1, #3
 130 0026 FFF7FEFF 		bl	EEPROM_1_WriteByte
 131              	.LVL11:
  50:.\main.c      ****     EEPROM_1_WriteByte(DDMode,5);
 132              		.loc 1 50 0
 133 002a 0C4B     		ldr	r3, .L9+16
 134 002c 1878     		ldrb	r0, [r3]	@ zero_extendqisi2
 135 002e 0421     		movs	r1, #4
 136 0030 FFF7FEFF 		bl	EEPROM_1_WriteByte
 137              	.LVL12:
  51:.\main.c      ****     EEPROM_1_WriteByte(digits,6);    
 138              		.loc 1 51 0
 139 0034 0A4B     		ldr	r3, .L9+20
 140 0036 1878     		ldrb	r0, [r3]	@ zero_extendqisi2
 141 0038 0521     		movs	r1, #5
 142 003a FFF7FEFF 		bl	EEPROM_1_WriteByte
 143              	.LVL13:
  52:.\main.c      **** }
 144              		.loc 1 52 0
 145 003e 094B     		ldr	r3, .L9+24
 146 0040 1878     		ldrb	r0, [r3]	@ zero_extendqisi2
 147 0042 0621     		movs	r1, #6
 148 0044 FFF7FEFF 		bl	EEPROM_1_WriteByte
 149              	.LVL14:
 150 0048 08BD     		pop	{r3, pc}
 151              	.L10:
 152 004a 00BF     		.align	2
 153              	.L9:
 154 004c 00000000 		.word	UnitType
 155 0050 00000000 		.word	ConversionFactor
 156 0054 00000000 		.word	MoneyDec
 157 0058 00000000 		.word	VolDec
 158 005c 00000000 		.word	PPUDec
 159 0060 00000000 		.word	DDMode
 160 0064 00000000 		.word	digits
 161              		.cfi_endproc
 162              	.LFE64:
 163              		.size	StoreConfiguration, .-StoreConfiguration
 164              		.section	.text.loadConfiguration,"ax",%progbits
 165              		.align	2
 166              		.global	loadConfiguration
 167              		.thumb
 168              		.thumb_func
 169              		.type	loadConfiguration, %function
 170              	loadConfiguration:
 171              	.LFB65:
  54:.\main.c      ****     lockTurn   = EEPROM_1_ReadByte(7);  //Fijo turno abierto para pruebas
 172              		.loc 1 54 0
 173              		.cfi_startproc
ARM GAS  C:\Users\RECEPC~1\AppData\Local\Temp\ccoGpf2X.s 			page 27


 174              		@ args = 0, pretend = 0, frame = 0
 175              		@ frame_needed = 0, uses_anonymous_args = 0
 176 0000 10B5     		push	{r4, lr}
 177              		.cfi_def_cfa_offset 8
 178              		.cfi_offset 4, -8
 179              		.cfi_offset 14, -4
  55:.\main.c      ****     printPortA = EEPROM_1_ReadByte(8);  //Puertos de impresion
 180              		.loc 1 55 0
 181 0002 0720     		movs	r0, #7
 182 0004 FFF7FEFF 		bl	EEPROM_1_ReadByte
 183              	.LVL15:
 184 0008 0A4B     		ldr	r3, .L13
 185 000a 1870     		strb	r0, [r3]
  56:.\main.c      ****     printPortB = EEPROM_1_ReadByte(9); //Puertos de impresion
 186              		.loc 1 56 0
 187 000c 0820     		movs	r0, #8
 188 000e FFF7FEFF 		bl	EEPROM_1_ReadByte
 189              	.LVL16:
 190 0012 094B     		ldr	r3, .L13+4
 191 0014 1870     		strb	r0, [r3]
  57:.\main.c      ****     IDCast[0]  = EEPROM_1_ReadByte(10); //ID Estacion1
 192              		.loc 1 57 0
 193 0016 0920     		movs	r0, #9
 194 0018 FFF7FEFF 		bl	EEPROM_1_ReadByte
 195              	.LVL17:
 196 001c 074B     		ldr	r3, .L13+8
 197 001e 1870     		strb	r0, [r3]
  58:.\main.c      ****     IDCast[1]  = EEPROM_1_ReadByte(11); //ID Estacion2    
 198              		.loc 1 58 0
 199 0020 0A20     		movs	r0, #10
 200 0022 FFF7FEFF 		bl	EEPROM_1_ReadByte
 201              	.LVL18:
 202 0026 064C     		ldr	r4, .L13+12
 203 0028 2070     		strb	r0, [r4]
  59:.\main.c      **** }
 204              		.loc 1 59 0
 205 002a 0B20     		movs	r0, #11
 206 002c FFF7FEFF 		bl	EEPROM_1_ReadByte
 207              	.LVL19:
 208 0030 6070     		strb	r0, [r4, #1]
 209 0032 10BD     		pop	{r4, pc}
 210              	.L14:
 211              		.align	2
 212              	.L13:
 213 0034 00000000 		.word	lockTurn
 214 0038 00000000 		.word	printPortA
 215 003c 00000000 		.word	printPortB
 216 0040 00000000 		.word	IDCast
 217              		.cfi_endproc
 218              	.LFE65:
 219              		.size	loadConfiguration, .-loadConfiguration
 220              		.section	.text.InitDisplay1,"ax",%progbits
 221              		.align	2
 222              		.global	InitDisplay1
 223              		.thumb
 224              		.thumb_func
 225              		.type	InitDisplay1, %function
ARM GAS  C:\Users\RECEPC~1\AppData\Local\Temp\ccoGpf2X.s 			page 28


 226              	InitDisplay1:
 227              	.LFB66:
  72:.\main.c      ****     uint8_t iniText[10]="Iniciando"; 
 228              		.loc 1 72 0
 229              		.cfi_startproc
 230              		@ args = 0, pretend = 0, frame = 112
 231              		@ frame_needed = 0, uses_anonymous_args = 0
 232 0000 10B5     		push	{r4, lr}
 233              		.cfi_def_cfa_offset 8
 234              		.cfi_offset 4, -8
 235              		.cfi_offset 14, -4
 236 0002 9CB0     		sub	sp, sp, #112
 237              		.cfi_def_cfa_offset 120
  73:.\main.c      ****     uint8_t Unit[10] = "S/D/Dupla ";
 238              		.loc 1 73 0
 239 0004 994A     		ldr	r2, .L32
 240 0006 19AB     		add	r3, sp, #100
 241 0008 07CA     		ldmia	r2, {r0, r1, r2}
 242 000a 03C3     		stmia	r3!, {r0, r1}
 243 000c 1A80     		strh	r2, [r3]	@ movhi
  74:.\main.c      ****     uint8_t Unit2[10] = "Quadrupla";
 244              		.loc 1 74 0
 245 000e 984B     		ldr	r3, .L32+4
 246 0010 16AC     		add	r4, sp, #88
 247 0012 93E80700 		ldmia	r3, {r0, r1, r2}
 248 0016 03C4     		stmia	r4!, {r0, r1}
 249 0018 2280     		strh	r2, [r4]	@ movhi
  75:.\main.c      ****     uint8_t Unit3[10] = "Sextupla";
 250              		.loc 1 75 0
 251 001a 964A     		ldr	r2, .L32+8
 252 001c 13AC     		add	r4, sp, #76
 253 001e 07CA     		ldmia	r2, {r0, r1, r2}
 254 0020 03C4     		stmia	r4!, {r0, r1}
 255 0022 2280     		strh	r2, [r4]	@ movhi
  76:.\main.c      ****     uint8_t Unit4[10] = "Octupla";
 256              		.loc 1 76 0
 257 0024 10AC     		add	r4, sp, #64
 258 0026 03F10C02 		add	r2, r3, #12
 259 002a 07CA     		ldmia	r2, {r0, r1, r2}
 260 002c 03C4     		stmia	r4!, {r0, r1}
 261 002e 2270     		strb	r2, [r4]
 262 0030 0022     		movs	r2, #0
 263 0032 8DF84920 		strb	r2, [sp, #73]
  77:.\main.c      ****     uint8_t DisplayMode0[10] = "5-5-4     ";
 264              		.loc 1 77 0
 265 0036 0DAC     		add	r4, sp, #52
 266 0038 03F11801 		add	r1, r3, #24
 267 003c 03C9     		ldmia	r1, {r0, r1}
 268 003e 84E80300 		stmia	r4, {r0, r1}
 269 0042 ADF83C20 		strh	r2, [sp, #60]	@ movhi
  78:.\main.c      ****     uint8_t DisplayMode[10] = "6-6-4     ";
 270              		.loc 1 78 0
 271 0046 0AAC     		add	r4, sp, #40
 272 0048 03F12402 		add	r2, r3, #36
 273 004c 07CA     		ldmia	r2, {r0, r1, r2}
 274 004e 03C4     		stmia	r4!, {r0, r1}
 275 0050 2280     		strh	r2, [r4]	@ movhi
ARM GAS  C:\Users\RECEPC~1\AppData\Local\Temp\ccoGpf2X.s 			page 29


  79:.\main.c      ****     uint8_t DisplayMode2[10] = "7-7-5     ";
 276              		.loc 1 79 0
 277 0052 07AC     		add	r4, sp, #28
 278 0054 03F13002 		add	r2, r3, #48
 279 0058 07CA     		ldmia	r2, {r0, r1, r2}
 280 005a 03C4     		stmia	r4!, {r0, r1}
 281 005c 2280     		strh	r2, [r4]	@ movhi
  80:.\main.c      ****     uint8_t DisplayMode3[10] = "8-7-5     ";
 282              		.loc 1 80 0
 283 005e 04AC     		add	r4, sp, #16
 284 0060 03F13C02 		add	r2, r3, #60
 285 0064 07CA     		ldmia	r2, {r0, r1, r2}
 286 0066 03C4     		stmia	r4!, {r0, r1}
 287 0068 2280     		strh	r2, [r4]	@ movhi
  81:.\main.c      ****     if(NumPositions == 2){
 288              		.loc 1 81 0
 289 006a 01AC     		add	r4, sp, #4
 290 006c 4833     		adds	r3, r3, #72
 291 006e 93E80700 		ldmia	r3, {r0, r1, r2}
 292 0072 03C4     		stmia	r4!, {r0, r1}
 293 0074 2280     		strh	r2, [r4]	@ movhi
  82:.\main.c      ****         SetPicture(1,DISPLAY_INICIO0);         
 294              		.loc 1 82 0
 295 0076 804B     		ldr	r3, .L32+12
 296 0078 1B78     		ldrb	r3, [r3]	@ zero_extendqisi2
 297 007a 022B     		cmp	r3, #2
 298 007c 7AD1     		bne	.L16
  83:.\main.c      ****         ShowMessage(1,iniText,0);    
 299              		.loc 1 83 0
 300 007e 0120     		movs	r0, #1
 301 0080 0146     		mov	r1, r0
 302 0082 FFF7FEFF 		bl	SetPicture
 303              	.LVL20:
  84:.\main.c      ****         CyDelay(300);
 304              		.loc 1 84 0
 305 0086 0120     		movs	r0, #1
 306 0088 19A9     		add	r1, sp, #100
 307 008a 0022     		movs	r2, #0
 308 008c FFF7FEFF 		bl	ShowMessage
 309              	.LVL21:
  85:.\main.c      ****         if(UnitType == 0){
 310              		.loc 1 85 0
 311 0090 4FF49670 		mov	r0, #300
 312 0094 FFF7FEFF 		bl	CyDelay
 313              	.LVL22:
  86:.\main.c      ****             side.a.hoseNumber = UnitType+1;
 314              		.loc 1 86 0
 315 0098 784B     		ldr	r3, .L32+16
 316 009a 1B78     		ldrb	r3, [r3]	@ zero_extendqisi2
 317 009c 5BB9     		cbnz	r3, .L17
  87:.\main.c      ****             side.b.hoseNumber = UnitType+1;
 318              		.loc 1 87 0
 319 009e 0133     		adds	r3, r3, #1
 320 00a0 DBB2     		uxtb	r3, r3
 321 00a2 774A     		ldr	r2, .L32+20
 322 00a4 82F80231 		strb	r3, [r2, #258]
  88:.\main.c      ****             ShowMessage(1,Unit,0);  //Mostrar tipo de dispensador      
ARM GAS  C:\Users\RECEPC~1\AppData\Local\Temp\ccoGpf2X.s 			page 30


 323              		.loc 1 88 0
 324 00a8 82F80532 		strb	r3, [r2, #517]
  89:.\main.c      ****         }
 325              		.loc 1 89 0
 326 00ac 0120     		movs	r0, #1
 327 00ae 16A9     		add	r1, sp, #88
 328 00b0 0022     		movs	r2, #0
 329 00b2 FFF7FEFF 		bl	ShowMessage
 330              	.LVL23:
 331              	.L17:
  91:.\main.c      ****             side.a.hoseNumber = UnitType+1;
 332              		.loc 1 91 0
 333 00b6 714B     		ldr	r3, .L32+16
 334 00b8 1B78     		ldrb	r3, [r3]	@ zero_extendqisi2
 335 00ba 012B     		cmp	r3, #1
 336 00bc 0BD1     		bne	.L18
  92:.\main.c      ****             side.b.hoseNumber = UnitType+1;
 337              		.loc 1 92 0
 338 00be 0133     		adds	r3, r3, #1
 339 00c0 DBB2     		uxtb	r3, r3
 340 00c2 6F4A     		ldr	r2, .L32+20
 341 00c4 82F80231 		strb	r3, [r2, #258]
  93:.\main.c      ****             ShowMessage(1,Unit2,0);
 342              		.loc 1 93 0
 343 00c8 82F80532 		strb	r3, [r2, #517]
  94:.\main.c      ****         }
 344              		.loc 1 94 0
 345 00cc 0120     		movs	r0, #1
 346 00ce 13A9     		add	r1, sp, #76
 347 00d0 0022     		movs	r2, #0
 348 00d2 FFF7FEFF 		bl	ShowMessage
 349              	.LVL24:
 350              	.L18:
  96:.\main.c      ****             side.a.hoseNumber = UnitType+1;
 351              		.loc 1 96 0
 352 00d6 694B     		ldr	r3, .L32+16
 353 00d8 1B78     		ldrb	r3, [r3]	@ zero_extendqisi2
 354 00da 022B     		cmp	r3, #2
 355 00dc 0BD1     		bne	.L19
  97:.\main.c      ****             side.b.hoseNumber = UnitType+1;
 356              		.loc 1 97 0
 357 00de 0133     		adds	r3, r3, #1
 358 00e0 DBB2     		uxtb	r3, r3
 359 00e2 674A     		ldr	r2, .L32+20
 360 00e4 82F80231 		strb	r3, [r2, #258]
  98:.\main.c      ****             ShowMessage(1,Unit3,0);
 361              		.loc 1 98 0
 362 00e8 82F80532 		strb	r3, [r2, #517]
  99:.\main.c      ****         }
 363              		.loc 1 99 0
 364 00ec 0120     		movs	r0, #1
 365 00ee 10A9     		add	r1, sp, #64
 366 00f0 0022     		movs	r2, #0
 367 00f2 FFF7FEFF 		bl	ShowMessage
 368              	.LVL25:
 369              	.L19:
 101:.\main.c      ****             side.a.hoseNumber = UnitType+1;
ARM GAS  C:\Users\RECEPC~1\AppData\Local\Temp\ccoGpf2X.s 			page 31


 370              		.loc 1 101 0
 371 00f6 614B     		ldr	r3, .L32+16
 372 00f8 1B78     		ldrb	r3, [r3]	@ zero_extendqisi2
 373 00fa 032B     		cmp	r3, #3
 374 00fc 0BD1     		bne	.L20
 102:.\main.c      ****             side.b.hoseNumber = UnitType+1;
 375              		.loc 1 102 0
 376 00fe 0133     		adds	r3, r3, #1
 377 0100 DBB2     		uxtb	r3, r3
 378 0102 5F4A     		ldr	r2, .L32+20
 379 0104 82F80231 		strb	r3, [r2, #258]
 103:.\main.c      ****             ShowMessage(1,Unit4,0);
 380              		.loc 1 103 0
 381 0108 82F80532 		strb	r3, [r2, #517]
 104:.\main.c      ****         } 
 382              		.loc 1 104 0
 383 010c 0120     		movs	r0, #1
 384 010e 0DA9     		add	r1, sp, #52
 385 0110 0022     		movs	r2, #0
 386 0112 FFF7FEFF 		bl	ShowMessage
 387              	.LVL26:
 388              	.L20:
 106:.\main.c      ****             ShowMessage(1,DisplayMode0,22); //Mostrar modo de display
 389              		.loc 1 106 0
 390 0116 5B4B     		ldr	r3, .L32+24
 391 0118 1B78     		ldrb	r3, [r3]	@ zero_extendqisi2
 392 011a 3BB9     		cbnz	r3, .L21
 107:.\main.c      ****             digits = 5;
 393              		.loc 1 107 0
 394 011c 0120     		movs	r0, #1
 395 011e 0AA9     		add	r1, sp, #40
 396 0120 1622     		movs	r2, #22
 397 0122 FFF7FEFF 		bl	ShowMessage
 398              	.LVL27:
 108:.\main.c      ****         }
 399              		.loc 1 108 0
 400 0126 0522     		movs	r2, #5
 401 0128 574B     		ldr	r3, .L32+28
 402 012a 1A70     		strb	r2, [r3]
 403              	.L21:
 110:.\main.c      ****             ShowMessage(1,DisplayMode,22); //Mostrar modo de display
 404              		.loc 1 110 0
 405 012c 554B     		ldr	r3, .L32+24
 406 012e 1B78     		ldrb	r3, [r3]	@ zero_extendqisi2
 407 0130 012B     		cmp	r3, #1
 408 0132 07D1     		bne	.L22
 111:.\main.c      ****             digits = 6;
 409              		.loc 1 111 0
 410 0134 0120     		movs	r0, #1
 411 0136 07A9     		add	r1, sp, #28
 412 0138 1622     		movs	r2, #22
 413 013a FFF7FEFF 		bl	ShowMessage
 414              	.LVL28:
 112:.\main.c      ****         }
 415              		.loc 1 112 0
 416 013e 0622     		movs	r2, #6
 417 0140 514B     		ldr	r3, .L32+28
ARM GAS  C:\Users\RECEPC~1\AppData\Local\Temp\ccoGpf2X.s 			page 32


 418 0142 1A70     		strb	r2, [r3]
 419              	.L22:
 114:.\main.c      ****            ShowMessage(1,DisplayMode2,22);
 420              		.loc 1 114 0
 421 0144 4F4B     		ldr	r3, .L32+24
 422 0146 1B78     		ldrb	r3, [r3]	@ zero_extendqisi2
 423 0148 022B     		cmp	r3, #2
 424 014a 07D1     		bne	.L23
 115:.\main.c      ****             digits = 7;
 425              		.loc 1 115 0
 426 014c 0120     		movs	r0, #1
 427 014e 04A9     		add	r1, sp, #16
 428 0150 1622     		movs	r2, #22
 429 0152 FFF7FEFF 		bl	ShowMessage
 430              	.LVL29:
 116:.\main.c      ****         }
 431              		.loc 1 116 0
 432 0156 0722     		movs	r2, #7
 433 0158 4B4B     		ldr	r3, .L32+28
 434 015a 1A70     		strb	r2, [r3]
 435              	.L23:
 118:.\main.c      ****             ShowMessage(1,DisplayMode3,22);
 436              		.loc 1 118 0
 437 015c 494B     		ldr	r3, .L32+24
 438 015e 1B78     		ldrb	r3, [r3]	@ zero_extendqisi2
 439 0160 032B     		cmp	r3, #3
 440 0162 07D1     		bne	.L16
 119:.\main.c      ****             digits = 8;
 441              		.loc 1 119 0
 442 0164 0120     		movs	r0, #1
 443 0166 01A9     		add	r1, sp, #4
 444 0168 1622     		movs	r2, #22
 445 016a FFF7FEFF 		bl	ShowMessage
 446              	.LVL30:
 120:.\main.c      ****         }        
 447              		.loc 1 120 0
 448 016e 0822     		movs	r2, #8
 449 0170 454B     		ldr	r3, .L32+28
 450 0172 1A70     		strb	r2, [r3]
 451              	.L16:
 123:.\main.c      ****         SetPicture(1,DISPLAY_SELECCIONE_POSICION);        
 452              		.loc 1 123 0
 453 0174 404B     		ldr	r3, .L32+12
 454 0176 1B78     		ldrb	r3, [r3]	@ zero_extendqisi2
 455 0178 042B     		cmp	r3, #4
 456 017a 6DD1     		bne	.L24
 124:.\main.c      ****         ShowMessage(1,iniText,0);    
 457              		.loc 1 124 0
 458 017c 0120     		movs	r0, #1
 459 017e 2E21     		movs	r1, #46
 460 0180 FFF7FEFF 		bl	SetPicture
 461              	.LVL31:
 125:.\main.c      ****         CyDelay(300);
 462              		.loc 1 125 0
 463 0184 0120     		movs	r0, #1
 464 0186 19A9     		add	r1, sp, #100
 465 0188 0022     		movs	r2, #0
ARM GAS  C:\Users\RECEPC~1\AppData\Local\Temp\ccoGpf2X.s 			page 33


 466 018a FFF7FEFF 		bl	ShowMessage
 467              	.LVL32:
 126:.\main.c      ****         if(UnitType == 0){
 468              		.loc 1 126 0
 469 018e 4FF49670 		mov	r0, #300
 470 0192 FFF7FEFF 		bl	CyDelay
 471              	.LVL33:
 127:.\main.c      ****             side.a.hoseNumber = UnitType+1;
 472              		.loc 1 127 0
 473 0196 394B     		ldr	r3, .L32+16
 474 0198 1B78     		ldrb	r3, [r3]	@ zero_extendqisi2
 475 019a 7BB9     		cbnz	r3, .L25
 128:.\main.c      ****             side.b.hoseNumber = UnitType+1;
 476              		.loc 1 128 0
 477 019c 0133     		adds	r3, r3, #1
 478 019e DBB2     		uxtb	r3, r3
 479 01a0 374A     		ldr	r2, .L32+20
 480 01a2 82F80231 		strb	r3, [r2, #258]
 129:.\main.c      ****             side.c.hoseNumber = UnitType+1;
 481              		.loc 1 129 0
 482 01a6 82F80532 		strb	r3, [r2, #517]
 130:.\main.c      ****             side.d.hoseNumber = UnitType+1;
 483              		.loc 1 130 0
 484 01aa 82F80833 		strb	r3, [r2, #776]
 131:.\main.c      ****             ShowMessage(1,Unit,0);  //Mostrar tipo de dispensador      
 485              		.loc 1 131 0
 486 01ae 82F80B34 		strb	r3, [r2, #1035]
 132:.\main.c      ****         }
 487              		.loc 1 132 0
 488 01b2 0120     		movs	r0, #1
 489 01b4 16A9     		add	r1, sp, #88
 490 01b6 0022     		movs	r2, #0
 491 01b8 FFF7FEFF 		bl	ShowMessage
 492              	.LVL34:
 493              	.L25:
 134:.\main.c      ****             side.a.hoseNumber = UnitType+1;
 494              		.loc 1 134 0
 495 01bc 2F4B     		ldr	r3, .L32+16
 496 01be 1B78     		ldrb	r3, [r3]	@ zero_extendqisi2
 497 01c0 012B     		cmp	r3, #1
 498 01c2 0FD1     		bne	.L26
 135:.\main.c      ****             side.b.hoseNumber = UnitType+1;
 499              		.loc 1 135 0
 500 01c4 0133     		adds	r3, r3, #1
 501 01c6 DBB2     		uxtb	r3, r3
 502 01c8 2D4A     		ldr	r2, .L32+20
 503 01ca 82F80231 		strb	r3, [r2, #258]
 136:.\main.c      ****             side.c.hoseNumber = UnitType+1;
 504              		.loc 1 136 0
 505 01ce 82F80532 		strb	r3, [r2, #517]
 137:.\main.c      ****             side.d.hoseNumber = UnitType+1;
 506              		.loc 1 137 0
 507 01d2 82F80833 		strb	r3, [r2, #776]
 138:.\main.c      ****             ShowMessage(1,Unit2,0);
 508              		.loc 1 138 0
 509 01d6 82F80B34 		strb	r3, [r2, #1035]
 139:.\main.c      ****         }
ARM GAS  C:\Users\RECEPC~1\AppData\Local\Temp\ccoGpf2X.s 			page 34


 510              		.loc 1 139 0
 511 01da 0120     		movs	r0, #1
 512 01dc 13A9     		add	r1, sp, #76
 513 01de 0022     		movs	r2, #0
 514 01e0 FFF7FEFF 		bl	ShowMessage
 515              	.LVL35:
 516              	.L26:
 141:.\main.c      ****             side.a.hoseNumber = UnitType+1;
 517              		.loc 1 141 0
 518 01e4 254B     		ldr	r3, .L32+16
 519 01e6 1B78     		ldrb	r3, [r3]	@ zero_extendqisi2
 520 01e8 022B     		cmp	r3, #2
 521 01ea 0FD1     		bne	.L27
 142:.\main.c      ****             side.b.hoseNumber = UnitType+1;
 522              		.loc 1 142 0
 523 01ec 0133     		adds	r3, r3, #1
 524 01ee DBB2     		uxtb	r3, r3
 525 01f0 234A     		ldr	r2, .L32+20
 526 01f2 82F80231 		strb	r3, [r2, #258]
 143:.\main.c      ****             side.c.hoseNumber = UnitType+1;
 527              		.loc 1 143 0
 528 01f6 82F80532 		strb	r3, [r2, #517]
 144:.\main.c      ****             side.d.hoseNumber = UnitType+1;
 529              		.loc 1 144 0
 530 01fa 82F80833 		strb	r3, [r2, #776]
 145:.\main.c      ****            ShowMessage(1,Unit3,0);
 531              		.loc 1 145 0
 532 01fe 82F80B34 		strb	r3, [r2, #1035]
 146:.\main.c      ****         }
 533              		.loc 1 146 0
 534 0202 0120     		movs	r0, #1
 535 0204 10A9     		add	r1, sp, #64
 536 0206 0022     		movs	r2, #0
 537 0208 FFF7FEFF 		bl	ShowMessage
 538              	.LVL36:
 539              	.L27:
 148:.\main.c      ****             side.a.hoseNumber = UnitType+1;
 540              		.loc 1 148 0
 541 020c 1B4B     		ldr	r3, .L32+16
 542 020e 1B78     		ldrb	r3, [r3]	@ zero_extendqisi2
 543 0210 032B     		cmp	r3, #3
 544 0212 0FD1     		bne	.L28
 149:.\main.c      ****             side.b.hoseNumber = UnitType+1;
 545              		.loc 1 149 0
 546 0214 0133     		adds	r3, r3, #1
 547 0216 DBB2     		uxtb	r3, r3
 548 0218 194A     		ldr	r2, .L32+20
 549 021a 82F80231 		strb	r3, [r2, #258]
 150:.\main.c      ****             side.c.hoseNumber = UnitType+1;
 550              		.loc 1 150 0
 551 021e 82F80532 		strb	r3, [r2, #517]
 151:.\main.c      ****             side.d.hoseNumber = UnitType+1;
 552              		.loc 1 151 0
 553 0222 82F80833 		strb	r3, [r2, #776]
 152:.\main.c      ****             ShowMessage(1,Unit4,0);
 554              		.loc 1 152 0
 555 0226 82F80B34 		strb	r3, [r2, #1035]
ARM GAS  C:\Users\RECEPC~1\AppData\Local\Temp\ccoGpf2X.s 			page 35


 153:.\main.c      ****         }    
 556              		.loc 1 153 0
 557 022a 0120     		movs	r0, #1
 558 022c 0DA9     		add	r1, sp, #52
 559 022e 0022     		movs	r2, #0
 560 0230 FFF7FEFF 		bl	ShowMessage
 561              	.LVL37:
 562              	.L28:
 155:.\main.c      ****             ShowMessage(1,DisplayMode,22); //Mostrar modo de display
 563              		.loc 1 155 0
 564 0234 134B     		ldr	r3, .L32+24
 565 0236 1B78     		ldrb	r3, [r3]	@ zero_extendqisi2
 566 0238 012B     		cmp	r3, #1
 567 023a 04D1     		bne	.L29
 156:.\main.c      ****         }
 568              		.loc 1 156 0
 569 023c 0120     		movs	r0, #1
 570 023e 07A9     		add	r1, sp, #28
 571 0240 1622     		movs	r2, #22
 572 0242 FFF7FEFF 		bl	ShowMessage
 573              	.LVL38:
 574              	.L29:
 158:.\main.c      ****            ShowMessage(1,DisplayMode2,22);
 575              		.loc 1 158 0
 576 0246 0F4B     		ldr	r3, .L32+24
 577 0248 1B78     		ldrb	r3, [r3]	@ zero_extendqisi2
 578 024a 022B     		cmp	r3, #2
 579 024c 04D1     		bne	.L24
 159:.\main.c      ****         }
 580              		.loc 1 159 0
 581 024e 0120     		movs	r0, #1
 582 0250 04A9     		add	r1, sp, #16
 583 0252 1622     		movs	r2, #22
 584 0254 FFF7FEFF 		bl	ShowMessage
 585              	.LVL39:
 586              	.L24:
 162:.\main.c      ****         SetPicture(1,DISPLAY_ERROR);        
 587              		.loc 1 162 0
 588 0258 074B     		ldr	r3, .L32+12
 589 025a 1B78     		ldrb	r3, [r3]	@ zero_extendqisi2
 590 025c 012B     		cmp	r3, #1
 591 025e 03D8     		bhi	.L15
 163:.\main.c      ****     }         
 592              		.loc 1 163 0
 593 0260 0120     		movs	r0, #1
 594 0262 0021     		movs	r1, #0
 595 0264 FFF7FEFF 		bl	SetPicture
 596              	.LVL40:
 597              	.L15:
 165:.\main.c      **** 
 598              		.loc 1 165 0
 599 0268 1CB0     		add	sp, sp, #112
 600              		.cfi_def_cfa_offset 8
 601              		@ sp needed
 602 026a 10BD     		pop	{r4, pc}
 603              	.L33:
 604              		.align	2
ARM GAS  C:\Users\RECEPC~1\AppData\Local\Temp\ccoGpf2X.s 			page 36


 605              	.L32:
 606 026c 00000000 		.word	.LC0
 607 0270 00000000 		.word	.LANCHOR0
 608 0274 0C000000 		.word	.LC2
 609 0278 00000000 		.word	NumPositions
 610 027c 00000000 		.word	UnitType
 611 0280 00000000 		.word	side
 612 0284 00000000 		.word	DDMode
 613 0288 00000000 		.word	digits
 614              		.cfi_endproc
 615              	.LFE66:
 616              		.size	InitDisplay1, .-InitDisplay1
 617              		.section	.text.InitDisplay2,"ax",%progbits
 618              		.align	2
 619              		.global	InitDisplay2
 620              		.thumb
 621              		.thumb_func
 622              		.type	InitDisplay2, %function
 623              	InitDisplay2:
 624              	.LFB67:
 176:.\main.c      ****     if(NumPositions == 2){        
 625              		.loc 1 176 0
 626              		.cfi_startproc
 627              		@ args = 0, pretend = 0, frame = 0
 628              		@ frame_needed = 0, uses_anonymous_args = 0
 629 0000 08B5     		push	{r3, lr}
 630              		.cfi_def_cfa_offset 8
 631              		.cfi_offset 3, -8
 632              		.cfi_offset 14, -4
 177:.\main.c      ****         SetPicture(2,DISPLAY_INICIO0);  
 633              		.loc 1 177 0
 634 0002 104B     		ldr	r3, .L39
 635 0004 1B78     		ldrb	r3, [r3]	@ zero_extendqisi2
 636 0006 022B     		cmp	r3, #2
 637 0008 06D1     		bne	.L35
 178:.\main.c      ****         flowDisplay2 = 0;
 638              		.loc 1 178 0
 639 000a 0220     		movs	r0, #2
 640 000c 0121     		movs	r1, #1
 641 000e FFF7FEFF 		bl	SetPicture
 642              	.LVL41:
 179:.\main.c      ****     }
 643              		.loc 1 179 0
 644 0012 0022     		movs	r2, #0
 645 0014 0C4B     		ldr	r3, .L39+4
 646 0016 1A60     		str	r2, [r3]
 647              	.L35:
 181:.\main.c      ****         SetPicture(2,DISPLAY_SELECCIONE_POSICION);         
 648              		.loc 1 181 0
 649 0018 0A4B     		ldr	r3, .L39
 650 001a 1B78     		ldrb	r3, [r3]	@ zero_extendqisi2
 651 001c 042B     		cmp	r3, #4
 652 001e 03D1     		bne	.L36
 182:.\main.c      ****     }        
 653              		.loc 1 182 0
 654 0020 0220     		movs	r0, #2
 655 0022 2E21     		movs	r1, #46
ARM GAS  C:\Users\RECEPC~1\AppData\Local\Temp\ccoGpf2X.s 			page 37


 656 0024 FFF7FEFF 		bl	SetPicture
 657              	.LVL42:
 658              	.L36:
 184:.\main.c      ****         SetPicture(2,DISPLAY_ERROR);
 659              		.loc 1 184 0
 660 0028 064B     		ldr	r3, .L39
 661 002a 1B78     		ldrb	r3, [r3]	@ zero_extendqisi2
 662 002c 012B     		cmp	r3, #1
 663 002e 03D8     		bhi	.L37
 185:.\main.c      ****     }     
 664              		.loc 1 185 0
 665 0030 0220     		movs	r0, #2
 666 0032 0021     		movs	r1, #0
 667 0034 FFF7FEFF 		bl	SetPicture
 668              	.LVL43:
 669              	.L37:
 187:.\main.c      **** }
 670              		.loc 1 187 0
 671 0038 0220     		movs	r0, #2
 672 003a 0449     		ldr	r1, .L39+8
 673 003c 0022     		movs	r2, #0
 674 003e FFF7FEFF 		bl	ShowMessage
 675              	.LVL44:
 676 0042 08BD     		pop	{r3, pc}
 677              	.L40:
 678              		.align	2
 679              	.L39:
 680 0044 00000000 		.word	NumPositions
 681 0048 00000000 		.word	flowDisplay2
 682 004c 00000000 		.word	.LANCHOR1
 683              		.cfi_endproc
 684              	.LFE67:
 685              		.size	InitDisplay2, .-InitDisplay2
 686              		.section	.text.InitPump,"ax",%progbits
 687              		.align	2
 688              		.global	InitPump
 689              		.thumb
 690              		.thumb_func
 691              		.type	InitPump, %function
 692              	InitPump:
 693              	.LFB68:
 199:.\main.c      ****     NumPositions = get_position();
 694              		.loc 1 199 0
 695              		.cfi_startproc
 696              		@ args = 0, pretend = 0, frame = 0
 697              		@ frame_needed = 0, uses_anonymous_args = 0
 698 0000 08B5     		push	{r3, lr}
 699              		.cfi_def_cfa_offset 8
 700              		.cfi_offset 3, -8
 701              		.cfi_offset 14, -4
 200:.\main.c      ****     if(NumPositions > 0){
 702              		.loc 1 200 0
 703 0002 FFF7FEFF 		bl	get_position
 704              	.LVL45:
 705 0006 2D4B     		ldr	r3, .L47
 706 0008 1870     		strb	r0, [r3]
 201:.\main.c      ****         if(!PumpIsInValidState(get_state(side.a.dir))){
ARM GAS  C:\Users\RECEPC~1\AppData\Local\Temp\ccoGpf2X.s 			page 38


 707              		.loc 1 201 0
 708 000a 0028     		cmp	r0, #0
 709 000c 55D0     		beq	.L41
 202:.\main.c      ****             SetPicture(1,DISPLAY_ERROR);
 710              		.loc 1 202 0
 711 000e 2C4B     		ldr	r3, .L47+4
 712 0010 1878     		ldrb	r0, [r3]	@ zero_extendqisi2
 713 0012 FFF7FEFF 		bl	get_state
 714              	.LVL46:
 715 0016 FFF7FEFF 		bl	PumpIsInValidState
 716              	.LVL47:
 717 001a 50B9     		cbnz	r0, .L43
 203:.\main.c      ****             SetPicture(2,DISPLAY_ERROR);
 718              		.loc 1 203 0
 719 001c 0120     		movs	r0, #1
 720 001e 0021     		movs	r1, #0
 721 0020 FFF7FEFF 		bl	SetPicture
 722              	.LVL48:
 204:.\main.c      ****             NumPositions = 0;
 723              		.loc 1 204 0
 724 0024 0220     		movs	r0, #2
 725 0026 0021     		movs	r1, #0
 726 0028 FFF7FEFF 		bl	SetPicture
 727              	.LVL49:
 205:.\main.c      ****         }
 728              		.loc 1 205 0
 729 002c 0022     		movs	r2, #0
 730 002e 234B     		ldr	r3, .L47
 731 0030 1A70     		strb	r2, [r3]
 732              	.L43:
 207:.\main.c      ****             SetPicture(1,DISPLAY_ERROR);
 733              		.loc 1 207 0
 734 0032 234B     		ldr	r3, .L47+4
 735 0034 93F80301 		ldrb	r0, [r3, #259]	@ zero_extendqisi2
 736 0038 FFF7FEFF 		bl	get_state
 737              	.LVL50:
 738 003c FFF7FEFF 		bl	PumpIsInValidState
 739              	.LVL51:
 740 0040 50B9     		cbnz	r0, .L44
 208:.\main.c      ****             SetPicture(2,DISPLAY_ERROR);
 741              		.loc 1 208 0
 742 0042 0120     		movs	r0, #1
 743 0044 0021     		movs	r1, #0
 744 0046 FFF7FEFF 		bl	SetPicture
 745              	.LVL52:
 209:.\main.c      ****             NumPositions = 0;
 746              		.loc 1 209 0
 747 004a 0220     		movs	r0, #2
 748 004c 0021     		movs	r1, #0
 749 004e FFF7FEFF 		bl	SetPicture
 750              	.LVL53:
 210:.\main.c      ****         }
 751              		.loc 1 210 0
 752 0052 0022     		movs	r2, #0
 753 0054 194B     		ldr	r3, .L47
 754 0056 1A70     		strb	r2, [r3]
 755              	.L44:
ARM GAS  C:\Users\RECEPC~1\AppData\Local\Temp\ccoGpf2X.s 			page 39


 212:.\main.c      ****             NumPositions = get_position();
 756              		.loc 1 212 0
 757 0058 194B     		ldr	r3, .L47+4
 758 005a 1878     		ldrb	r0, [r3]	@ zero_extendqisi2
 759 005c FFF7FEFF 		bl	get_state
 760              	.LVL54:
 761 0060 FFF7FEFF 		bl	PumpIsInValidState
 762              	.LVL55:
 763 0064 48B3     		cbz	r0, .L41
 212:.\main.c      ****             NumPositions = get_position();
 764              		.loc 1 212 0 is_stmt 0 discriminator 1
 765 0066 164B     		ldr	r3, .L47+4
 766 0068 93F80301 		ldrb	r0, [r3, #259]	@ zero_extendqisi2
 767 006c FFF7FEFF 		bl	get_state
 768              	.LVL56:
 769 0070 FFF7FEFF 		bl	PumpIsInValidState
 770              	.LVL57:
 771 0074 08B3     		cbz	r0, .L41
 213:.\main.c      ****             if(get_state(side.a.dir) ==0x06 && get_state(side.b.dir)==0x06){
 772              		.loc 1 213 0 is_stmt 1
 773 0076 FFF7FEFF 		bl	get_position
 774              	.LVL58:
 775 007a 104B     		ldr	r3, .L47
 776 007c 1870     		strb	r0, [r3]
 214:.\main.c      ****                 PumpCompleteConfiguration(side.a.dir);
 777              		.loc 1 214 0
 778 007e 104B     		ldr	r3, .L47+4
 779 0080 1878     		ldrb	r0, [r3]	@ zero_extendqisi2
 780 0082 FFF7FEFF 		bl	get_state
 781              	.LVL59:
 782 0086 0628     		cmp	r0, #6
 783 0088 0DD1     		bne	.L45
 214:.\main.c      ****                 PumpCompleteConfiguration(side.a.dir);
 784              		.loc 1 214 0 is_stmt 0 discriminator 1
 785 008a 0D4B     		ldr	r3, .L47+4
 786 008c 93F80301 		ldrb	r0, [r3, #259]	@ zero_extendqisi2
 787 0090 FFF7FEFF 		bl	get_state
 788              	.LVL60:
 789 0094 0628     		cmp	r0, #6
 790 0096 06D1     		bne	.L45
 215:.\main.c      ****                 StoreConfiguration();            
 791              		.loc 1 215 0 is_stmt 1
 792 0098 094B     		ldr	r3, .L47+4
 793 009a 1878     		ldrb	r0, [r3]	@ zero_extendqisi2
 794 009c FFF7FEFF 		bl	PumpCompleteConfiguration
 795              	.LVL61:
 216:.\main.c      ****             }else{
 796              		.loc 1 216 0
 797 00a0 FFF7FEFF 		bl	StoreConfiguration
 798              	.LVL62:
 799 00a4 08BD     		pop	{r3, pc}
 800              	.L45:
 218:.\main.c      ****                 SetPicture(2,DISPLAY_BAJE_MANIJA);
 801              		.loc 1 218 0
 802 00a6 0120     		movs	r0, #1
 803 00a8 0921     		movs	r1, #9
 804 00aa FFF7FEFF 		bl	SetPicture
ARM GAS  C:\Users\RECEPC~1\AppData\Local\Temp\ccoGpf2X.s 			page 40


 805              	.LVL63:
 219:.\main.c      ****                 InitPump();                
 806              		.loc 1 219 0
 807 00ae 0220     		movs	r0, #2
 808 00b0 0921     		movs	r1, #9
 809 00b2 FFF7FEFF 		bl	SetPicture
 810              	.LVL64:
 220:.\main.c      ****             }
 811              		.loc 1 220 0
 812 00b6 FFF7FEFF 		bl	InitPump
 813              	.LVL65:
 814              	.L41:
 815 00ba 08BD     		pop	{r3, pc}
 816              	.L48:
 817              		.align	2
 818              	.L47:
 819 00bc 00000000 		.word	NumPositions
 820 00c0 00000000 		.word	side
 821              		.cfi_endproc
 822              	.LFE68:
 823              		.size	InitPump, .-InitPump
 824              		.section	.text.PrintTest,"ax",%progbits
 825              		.align	2
 826              		.global	PrintTest
 827              		.thumb
 828              		.thumb_func
 829              		.type	PrintTest, %function
 830              	PrintTest:
 831              	.LFB69:
 235:.\main.c      ****     uint8 dato[17]="Test de Impresion";
 832              		.loc 1 235 0
 833              		.cfi_startproc
 834              		@ args = 0, pretend = 0, frame = 24
 835              		@ frame_needed = 0, uses_anonymous_args = 0
 836 0000 30B5     		push	{r4, r5, lr}
 837              		.cfi_def_cfa_offset 12
 838              		.cfi_offset 4, -12
 839              		.cfi_offset 5, -8
 840              		.cfi_offset 14, -4
 841 0002 87B0     		sub	sp, sp, #28
 842              		.cfi_def_cfa_offset 40
 236:.\main.c      ****     uint8 x;
 843              		.loc 1 236 0
 844 0004 01AC     		add	r4, sp, #4
 845 0006 284D     		ldr	r5, .L55
 846 0008 0FCD     		ldmia	r5!, {r0, r1, r2, r3}
 847 000a 0FC4     		stmia	r4!, {r0, r1, r2, r3}
 848 000c 2B68     		ldr	r3, [r5]
 849 000e 2370     		strb	r3, [r4]
 850              	.LVL66:
 238:.\main.c      ****         write_psoc1(1,dato[x]);
 851              		.loc 1 238 0
 852 0010 0024     		movs	r4, #0
 853 0012 08E0     		b	.L50
 854              	.LVL67:
 855              	.L51:
 239:.\main.c      ****     }
ARM GAS  C:\Users\RECEPC~1\AppData\Local\Temp\ccoGpf2X.s 			page 41


 856              		.loc 1 239 0 discriminator 3
 857 0014 06AB     		add	r3, sp, #24
 858 0016 2344     		add	r3, r3, r4
 859 0018 0120     		movs	r0, #1
 860 001a 13F8141C 		ldrb	r1, [r3, #-20]	@ zero_extendqisi2
 861 001e FFF7FEFF 		bl	write_psoc1
 862              	.LVL68:
 238:.\main.c      ****         write_psoc1(1,dato[x]);
 863              		.loc 1 238 0 discriminator 3
 864 0022 0134     		adds	r4, r4, #1
 865              	.LVL69:
 866 0024 E4B2     		uxtb	r4, r4
 867              	.LVL70:
 868              	.L50:
 238:.\main.c      ****         write_psoc1(1,dato[x]);
 869              		.loc 1 238 0 is_stmt 0 discriminator 1
 870 0026 102C     		cmp	r4, #16
 871 0028 F4D9     		bls	.L51
 241:.\main.c      ****     write_psoc1(1,10);
 872              		.loc 1 241 0 is_stmt 1
 873 002a 0120     		movs	r0, #1
 874 002c 0A21     		movs	r1, #10
 875 002e FFF7FEFF 		bl	write_psoc1
 876              	.LVL71:
 242:.\main.c      ****     write_psoc1(1,10);
 877              		.loc 1 242 0
 878 0032 0120     		movs	r0, #1
 879 0034 0A21     		movs	r1, #10
 880 0036 FFF7FEFF 		bl	write_psoc1
 881              	.LVL72:
 243:.\main.c      ****     write_psoc1(1,10);
 882              		.loc 1 243 0
 883 003a 0120     		movs	r0, #1
 884 003c 0A21     		movs	r1, #10
 885 003e FFF7FEFF 		bl	write_psoc1
 886              	.LVL73:
 244:.\main.c      ****     write_psoc1(1,10);
 887              		.loc 1 244 0
 888 0042 0120     		movs	r0, #1
 889 0044 0A21     		movs	r1, #10
 890 0046 FFF7FEFF 		bl	write_psoc1
 891              	.LVL74:
 245:.\main.c      ****     write_psoc1(1,10);
 892              		.loc 1 245 0
 893 004a 0120     		movs	r0, #1
 894 004c 0A21     		movs	r1, #10
 895 004e FFF7FEFF 		bl	write_psoc1
 896              	.LVL75:
 246:.\main.c      ****     for(x = 0; x<17;x++){
 897              		.loc 1 246 0
 898 0052 0120     		movs	r0, #1
 899 0054 0A21     		movs	r1, #10
 900 0056 FFF7FEFF 		bl	write_psoc1
 901              	.LVL76:
 247:.\main.c      ****         write_psoc1(2,dato[x]);
 902              		.loc 1 247 0
 903 005a 0024     		movs	r4, #0
ARM GAS  C:\Users\RECEPC~1\AppData\Local\Temp\ccoGpf2X.s 			page 42


 904 005c 08E0     		b	.L52
 905              	.LVL77:
 906              	.L53:
 248:.\main.c      ****     }
 907              		.loc 1 248 0 discriminator 3
 908 005e 06AB     		add	r3, sp, #24
 909 0060 2344     		add	r3, r3, r4
 910 0062 0220     		movs	r0, #2
 911 0064 13F8141C 		ldrb	r1, [r3, #-20]	@ zero_extendqisi2
 912 0068 FFF7FEFF 		bl	write_psoc1
 913              	.LVL78:
 247:.\main.c      ****         write_psoc1(2,dato[x]);
 914              		.loc 1 247 0 discriminator 3
 915 006c 0134     		adds	r4, r4, #1
 916              	.LVL79:
 917 006e E4B2     		uxtb	r4, r4
 918              	.LVL80:
 919              	.L52:
 247:.\main.c      ****         write_psoc1(2,dato[x]);
 920              		.loc 1 247 0 is_stmt 0 discriminator 1
 921 0070 102C     		cmp	r4, #16
 922 0072 F4D9     		bls	.L53
 250:.\main.c      ****     write_psoc1(2,10);
 923              		.loc 1 250 0 is_stmt 1
 924 0074 0220     		movs	r0, #2
 925 0076 0A21     		movs	r1, #10
 926 0078 FFF7FEFF 		bl	write_psoc1
 927              	.LVL81:
 251:.\main.c      ****     write_psoc1(2,10);
 928              		.loc 1 251 0
 929 007c 0220     		movs	r0, #2
 930 007e 0A21     		movs	r1, #10
 931 0080 FFF7FEFF 		bl	write_psoc1
 932              	.LVL82:
 252:.\main.c      ****     write_psoc1(2,10);
 933              		.loc 1 252 0
 934 0084 0220     		movs	r0, #2
 935 0086 0A21     		movs	r1, #10
 936 0088 FFF7FEFF 		bl	write_psoc1
 937              	.LVL83:
 253:.\main.c      ****     write_psoc1(2,10);
 938              		.loc 1 253 0
 939 008c 0220     		movs	r0, #2
 940 008e 0A21     		movs	r1, #10
 941 0090 FFF7FEFF 		bl	write_psoc1
 942              	.LVL84:
 254:.\main.c      ****     write_psoc1(2,10);
 943              		.loc 1 254 0
 944 0094 0220     		movs	r0, #2
 945 0096 0A21     		movs	r1, #10
 946 0098 FFF7FEFF 		bl	write_psoc1
 947              	.LVL85:
 255:.\main.c      **** }
 948              		.loc 1 255 0
 949 009c 0220     		movs	r0, #2
 950 009e 0A21     		movs	r1, #10
 951 00a0 FFF7FEFF 		bl	write_psoc1
ARM GAS  C:\Users\RECEPC~1\AppData\Local\Temp\ccoGpf2X.s 			page 43


 952              	.LVL86:
 256:.\main.c      **** 
 953              		.loc 1 256 0
 954 00a4 07B0     		add	sp, sp, #28
 955              		.cfi_def_cfa_offset 12
 956              		@ sp needed
 957 00a6 30BD     		pop	{r4, r5, pc}
 958              	.LVL87:
 959              	.L56:
 960              		.align	2
 961              	.L55:
 962 00a8 54000000 		.word	.LANCHOR0+84
 963              		.cfi_endproc
 964              	.LFE69:
 965              		.size	PrintTest, .-PrintTest
 966              		.section	.text.PollingPump,"ax",%progbits
 967              		.align	2
 968              		.global	PollingPump
 969              		.thumb
 970              		.thumb_func
 971              		.type	PollingPump, %function
 972              	PollingPump:
 973              	.LFB70:
 268:.\main.c      ****     uint8 x;
 974              		.loc 1 268 0
 975              		.cfi_startproc
 976              		@ args = 0, pretend = 0, frame = 0
 977              		@ frame_needed = 0, uses_anonymous_args = 0
 978 0000 38B5     		push	{r3, r4, r5, lr}
 979              		.cfi_def_cfa_offset 16
 980              		.cfi_offset 3, -16
 981              		.cfi_offset 4, -12
 982              		.cfi_offset 5, -8
 983              		.cfi_offset 14, -4
 270:.\main.c      ****         for(x= 0; x < 4; x++){
 984              		.loc 1 270 0
 985 0002 3A4B     		ldr	r3, .L68
 986 0004 1878     		ldrb	r0, [r3]	@ zero_extendqisi2
 987 0006 FFF7FEFF 		bl	get_state
 988              	.LVL88:
 989 000a FFF7FEFF 		bl	PumpIsInValidState
 990              	.LVL89:
 991 000e 90B1     		cbz	r0, .L58
 270:.\main.c      ****         for(x= 0; x < 4; x++){
 992              		.loc 1 270 0 is_stmt 0 discriminator 1
 993 0010 364B     		ldr	r3, .L68
 994 0012 93F80301 		ldrb	r0, [r3, #259]	@ zero_extendqisi2
 995 0016 FFF7FEFF 		bl	get_state
 996              	.LVL90:
 997 001a FFF7FEFF 		bl	PumpIsInValidState
 998              	.LVL91:
 999 001e 38B9     		cbnz	r0, .L66
 1000 0020 09E0     		b	.L58
 1001              	.LVL92:
 1002              	.L60:
 272:.\main.c      ****         }
 1003              		.loc 1 272 0 is_stmt 1 discriminator 3
ARM GAS  C:\Users\RECEPC~1\AppData\Local\Temp\ccoGpf2X.s 			page 44


 1004 0022 334A     		ldr	r2, .L68+4
 1005 0024 D15C     		ldrb	r1, [r2, r3]	@ zero_extendqisi2
 1006 0026 334A     		ldr	r2, .L68+8
 1007 0028 D154     		strb	r1, [r2, r3]
 271:.\main.c      ****             PrevStatePump[x] = statePump[x];
 1008              		.loc 1 271 0 discriminator 3
 1009 002a 0133     		adds	r3, r3, #1
 1010              	.LVL93:
 1011 002c DBB2     		uxtb	r3, r3
 1012              	.LVL94:
 1013 002e 00E0     		b	.L59
 1014              	.LVL95:
 1015              	.L66:
 1016 0030 0023     		movs	r3, #0
 1017              	.L59:
 1018              	.LVL96:
 271:.\main.c      ****             PrevStatePump[x] = statePump[x];
 1019              		.loc 1 271 0 is_stmt 0 discriminator 1
 1020 0032 032B     		cmp	r3, #3
 1021 0034 F5D9     		bls	.L60
 1022              	.LVL97:
 1023              	.L58:
 275:.\main.c      ****         statePump[0] = get_state(side.a.dir);                 
 1024              		.loc 1 275 0 is_stmt 1
 1025 0036 304B     		ldr	r3, .L68+12
 1026 0038 1B78     		ldrb	r3, [r3]	@ zero_extendqisi2
 1027 003a 022B     		cmp	r3, #2
 1028 003c 0AD1     		bne	.L61
 276:.\main.c      ****         statePump[1] = get_state(side.b.dir);          
 1029              		.loc 1 276 0
 1030 003e 2B4D     		ldr	r5, .L68
 1031 0040 2878     		ldrb	r0, [r5]	@ zero_extendqisi2
 1032 0042 FFF7FEFF 		bl	get_state
 1033              	.LVL98:
 1034 0046 2A4C     		ldr	r4, .L68+4
 1035 0048 2070     		strb	r0, [r4]
 277:.\main.c      ****     }
 1036              		.loc 1 277 0
 1037 004a 95F80301 		ldrb	r0, [r5, #259]	@ zero_extendqisi2
 1038 004e FFF7FEFF 		bl	get_state
 1039              	.LVL99:
 1040 0052 6070     		strb	r0, [r4, #1]
 1041              	.L61:
 279:.\main.c      ****         statePump[0] = get_state(side.a.dir);               
 1042              		.loc 1 279 0
 1043 0054 284B     		ldr	r3, .L68+12
 1044 0056 1B78     		ldrb	r3, [r3]	@ zero_extendqisi2
 1045 0058 042B     		cmp	r3, #4
 1046 005a 14D1     		bne	.L62
 280:.\main.c      ****         statePump[1] = get_state(side.b.dir);          
 1047              		.loc 1 280 0
 1048 005c 234D     		ldr	r5, .L68
 1049 005e 2878     		ldrb	r0, [r5]	@ zero_extendqisi2
 1050 0060 FFF7FEFF 		bl	get_state
 1051              	.LVL100:
 1052 0064 224C     		ldr	r4, .L68+4
 1053 0066 2070     		strb	r0, [r4]
ARM GAS  C:\Users\RECEPC~1\AppData\Local\Temp\ccoGpf2X.s 			page 45


 281:.\main.c      ****         statePump[2] = get_state(side.c.dir);        
 1054              		.loc 1 281 0
 1055 0068 95F80301 		ldrb	r0, [r5, #259]	@ zero_extendqisi2
 1056 006c FFF7FEFF 		bl	get_state
 1057              	.LVL101:
 1058 0070 6070     		strb	r0, [r4, #1]
 282:.\main.c      ****         statePump[3] = get_state(side.d.dir);        
 1059              		.loc 1 282 0
 1060 0072 95F80602 		ldrb	r0, [r5, #518]	@ zero_extendqisi2
 1061 0076 FFF7FEFF 		bl	get_state
 1062              	.LVL102:
 1063 007a A070     		strb	r0, [r4, #2]
 283:.\main.c      ****     }
 1064              		.loc 1 283 0
 1065 007c 95F80903 		ldrb	r0, [r5, #777]	@ zero_extendqisi2
 1066 0080 FFF7FEFF 		bl	get_state
 1067              	.LVL103:
 1068 0084 E070     		strb	r0, [r4, #3]
 1069              	.L62:
 285:.\main.c      ****         InitPump();
 1070              		.loc 1 285 0
 1071 0086 1C4B     		ldr	r3, .L68+12
 1072 0088 1B78     		ldrb	r3, [r3]	@ zero_extendqisi2
 1073 008a 0BB9     		cbnz	r3, .L63
 286:.\main.c      ****     }
 1074              		.loc 1 286 0
 1075 008c FFF7FEFF 		bl	InitPump
 1076              	.LVL104:
 1077              	.L63:
 288:.\main.c      ****         SetPicture(1,DISPLAY_ERROR);
 1078              		.loc 1 288 0
 1079 0090 164B     		ldr	r3, .L68
 1080 0092 1878     		ldrb	r0, [r3]	@ zero_extendqisi2
 1081 0094 FFF7FEFF 		bl	get_state
 1082              	.LVL105:
 1083 0098 FFF7FEFF 		bl	PumpIsInValidState
 1084              	.LVL106:
 1085 009c 70B9     		cbnz	r0, .L64
 289:.\main.c      ****         SetPicture(2,DISPLAY_ERROR);
 1086              		.loc 1 289 0
 1087 009e 0120     		movs	r0, #1
 1088 00a0 0021     		movs	r1, #0
 1089 00a2 FFF7FEFF 		bl	SetPicture
 1090              	.LVL107:
 290:.\main.c      ****         NumPositions = 0;
 1091              		.loc 1 290 0
 1092 00a6 0220     		movs	r0, #2
 1093 00a8 0021     		movs	r1, #0
 1094 00aa FFF7FEFF 		bl	SetPicture
 1095              	.LVL108:
 291:.\main.c      ****         flowDisplay1 = 0;
 1096              		.loc 1 291 0
 1097 00ae 0023     		movs	r3, #0
 1098 00b0 114A     		ldr	r2, .L68+12
 1099 00b2 1370     		strb	r3, [r2]
 292:.\main.c      ****         flowDisplay2 = 0;
 1100              		.loc 1 292 0
ARM GAS  C:\Users\RECEPC~1\AppData\Local\Temp\ccoGpf2X.s 			page 46


 1101 00b4 114A     		ldr	r2, .L68+16
 1102 00b6 1360     		str	r3, [r2]
 293:.\main.c      ****     }
 1103              		.loc 1 293 0
 1104 00b8 114A     		ldr	r2, .L68+20
 1105 00ba 1360     		str	r3, [r2]
 1106              	.L64:
 295:.\main.c      ****         SetPicture(1,DISPLAY_ERROR);
 1107              		.loc 1 295 0
 1108 00bc 0B4B     		ldr	r3, .L68
 1109 00be 93F80301 		ldrb	r0, [r3, #259]	@ zero_extendqisi2
 1110 00c2 FFF7FEFF 		bl	get_state
 1111              	.LVL109:
 1112 00c6 FFF7FEFF 		bl	PumpIsInValidState
 1113              	.LVL110:
 1114 00ca 70B9     		cbnz	r0, .L57
 296:.\main.c      ****         SetPicture(2,DISPLAY_ERROR);
 1115              		.loc 1 296 0
 1116 00cc 0120     		movs	r0, #1
 1117 00ce 0021     		movs	r1, #0
 1118 00d0 FFF7FEFF 		bl	SetPicture
 1119              	.LVL111:
 297:.\main.c      ****         NumPositions = 0;
 1120              		.loc 1 297 0
 1121 00d4 0220     		movs	r0, #2
 1122 00d6 0021     		movs	r1, #0
 1123 00d8 FFF7FEFF 		bl	SetPicture
 1124              	.LVL112:
 298:.\main.c      ****         flowDisplay1 = 0;
 1125              		.loc 1 298 0
 1126 00dc 0023     		movs	r3, #0
 1127 00de 064A     		ldr	r2, .L68+12
 1128 00e0 1370     		strb	r3, [r2]
 299:.\main.c      ****         flowDisplay2 = 0;
 1129              		.loc 1 299 0
 1130 00e2 064A     		ldr	r2, .L68+16
 1131 00e4 1360     		str	r3, [r2]
 300:.\main.c      ****     }
 1132              		.loc 1 300 0
 1133 00e6 064A     		ldr	r2, .L68+20
 1134 00e8 1360     		str	r3, [r2]
 1135              	.L57:
 1136 00ea 38BD     		pop	{r3, r4, r5, pc}
 1137              	.L69:
 1138              		.align	2
 1139              	.L68:
 1140 00ec 00000000 		.word	side
 1141 00f0 00000000 		.word	statePump
 1142 00f4 00000000 		.word	PrevStatePump
 1143 00f8 00000000 		.word	NumPositions
 1144 00fc 00000000 		.word	flowDisplay1
 1145 0100 00000000 		.word	flowDisplay2
 1146              		.cfi_endproc
 1147              	.LFE70:
 1148              		.size	PollingPump, .-PollingPump
 1149              		.section	.text.PollingDisplay1,"ax",%progbits
 1150              		.align	2
ARM GAS  C:\Users\RECEPC~1\AppData\Local\Temp\ccoGpf2X.s 			page 47


 1151              		.global	PollingDisplay1
 1152              		.thumb
 1153              		.thumb_func
 1154              		.type	PollingDisplay1, %function
 1155              	PollingDisplay1:
 1156              	.LFB71:
 313:.\main.c      ****     uint8 x,y,localStatePump;     
 1157              		.loc 1 313 0
 1158              		.cfi_startproc
 1159              		@ args = 0, pretend = 0, frame = 0
 1160              		@ frame_needed = 0, uses_anonymous_args = 0
 1161 0000 F0B5     		push	{r4, r5, r6, r7, lr}
 1162              		.cfi_def_cfa_offset 20
 1163              		.cfi_offset 4, -20
 1164              		.cfi_offset 5, -16
 1165              		.cfi_offset 6, -12
 1166              		.cfi_offset 7, -8
 1167              		.cfi_offset 14, -4
 1168 0002 85B0     		sub	sp, sp, #20
 1169              		.cfi_def_cfa_offset 40
 315:.\main.c      ****         case 0:
 1170              		.loc 1 315 0
 1171 0004 AF4B     		ldr	r3, .L265
 1172 0006 1B68     		ldr	r3, [r3]
 1173 0008 122B     		cmp	r3, #18
 1174 000a 01F25F81 		bhi	.L70
 1175 000e DFE813F0 		tbh	[pc, r3, lsl #1]
 1176              	.L73:
 1177 0012 1300     		.2byte	(.L72-.L73)/2
 1178 0014 2600     		.2byte	(.L74-.L73)/2
 1179 0016 4800     		.2byte	(.L75-.L73)/2
 1180 0018 A400     		.2byte	(.L76-.L73)/2
 1181 001a 6501     		.2byte	(.L77-.L73)/2
 1182 001c 9301     		.2byte	(.L78-.L73)/2
 1183 001e 1102     		.2byte	(.L79-.L73)/2
 1184 0020 8902     		.2byte	(.L80-.L73)/2
 1185 0022 0A03     		.2byte	(.L81-.L73)/2
 1186 0024 7D03     		.2byte	(.L82-.L73)/2
 1187 0026 5604     		.2byte	(.L83-.L73)/2
 1188 0028 9D04     		.2byte	(.L84-.L73)/2
 1189 002a 1305     		.2byte	(.L85-.L73)/2
 1190 002c 9D05     		.2byte	(.L86-.L73)/2
 1191 002e F205     		.2byte	(.L87-.L73)/2
 1192 0030 1507     		.2byte	(.L88-.L73)/2
 1193 0032 A707     		.2byte	(.L89-.L73)/2
 1194 0034 1208     		.2byte	(.L90-.L73)/2
 1195 0036 8B08     		.2byte	(.L91-.L73)/2
 1196              		.p2align 1
 1197              	.L72:
 317:.\main.c      ****             flowDisplay1 =1;
 1198              		.loc 1 317 0
 1199 0038 FFF7FEFF 		bl	InitDisplay1
 1200              	.LVL113:
 318:.\main.c      ****             isr_3_Stop(); 
 1201              		.loc 1 318 0
 1202 003c 0122     		movs	r2, #1
 1203 003e A14B     		ldr	r3, .L265
ARM GAS  C:\Users\RECEPC~1\AppData\Local\Temp\ccoGpf2X.s 			page 48


 1204 0040 1A60     		str	r2, [r3]
 319:.\main.c      ****             Timer_Animacion_Stop();
 1205              		.loc 1 319 0
 1206 0042 FFF7FEFF 		bl	isr_3_Stop
 1207              	.LVL114:
 320:.\main.c      ****             count_protector = 0;
 1208              		.loc 1 320 0
 1209 0046 FFF7FEFF 		bl	Timer_Animacion_Stop
 1210              	.LVL115:
 321:.\main.c      ****             bufferDisplay1.saleType = 0;
 1211              		.loc 1 321 0
 1212 004a 0023     		movs	r3, #0
 1213 004c 9E4A     		ldr	r2, .L265+4
 1214 004e 1370     		strb	r3, [r2]
 322:.\main.c      ****             bufferDisplay1.flagEndSale = false;
 1215              		.loc 1 322 0
 1216 0050 9E4A     		ldr	r2, .L265+8
 1217 0052 82F86130 		strb	r3, [r2, #97]
 323:.\main.c      ****         break;
 1218              		.loc 1 323 0
 1219 0056 82F80331 		strb	r3, [r2, #259]
 324:.\main.c      ****         case 1: //Menu
 1220              		.loc 1 324 0
 1221 005a 01F037B9 		b	.L70
 1222              	.L74:
 326:.\main.c      ****                 if((Display1_rxBuffer[0]==0xAA) && (Display1_rxBuffer[6]==0xC3) && (Display1_rxBuff
 1223              		.loc 1 326 0
 1224 005e FFF7FEFF 		bl	Display1_GetRxBufferSize
 1225              	.LVL116:
 1226 0062 0828     		cmp	r0, #8
 1227 0064 41F03281 		bne	.L70
 327:.\main.c      ****                     flowDisplay1 = 2;      //Pantalla forma de pago                      
 1228              		.loc 1 327 0
 1229 0068 994B     		ldr	r3, .L265+12
 1230 006a 1B78     		ldrb	r3, [r3]	@ zero_extendqisi2
 1231 006c DBB2     		uxtb	r3, r3
 1232 006e AA2B     		cmp	r3, #170
 1233 0070 10D1     		bne	.L92
 327:.\main.c      ****                     flowDisplay1 = 2;      //Pantalla forma de pago                      
 1234              		.loc 1 327 0 is_stmt 0 discriminator 1
 1235 0072 974B     		ldr	r3, .L265+12
 1236 0074 9B79     		ldrb	r3, [r3, #6]	@ zero_extendqisi2
 1237 0076 DBB2     		uxtb	r3, r3
 1238 0078 C32B     		cmp	r3, #195
 1239 007a 0BD1     		bne	.L92
 327:.\main.c      ****                     flowDisplay1 = 2;      //Pantalla forma de pago                      
 1240              		.loc 1 327 0 discriminator 2
 1241 007c 944B     		ldr	r3, .L265+12
 1242 007e DB79     		ldrb	r3, [r3, #7]	@ zero_extendqisi2
 1243 0080 DBB2     		uxtb	r3, r3
 1244 0082 3C2B     		cmp	r3, #60
 1245 0084 06D1     		bne	.L92
 328:.\main.c      ****                     SetPicture(1,DISPLAY_FORMA_PAGO_DESEADA);                                      
 1246              		.loc 1 328 0 is_stmt 1
 1247 0086 0222     		movs	r2, #2
 1248 0088 8E4B     		ldr	r3, .L265
 1249 008a 1A60     		str	r2, [r3]
ARM GAS  C:\Users\RECEPC~1\AppData\Local\Temp\ccoGpf2X.s 			page 49


 329:.\main.c      ****                 }  
 1250              		.loc 1 329 0
 1251 008c 0120     		movs	r0, #1
 1252 008e 0421     		movs	r1, #4
 1253 0090 FFF7FEFF 		bl	SetPicture
 1254              	.LVL117:
 1255              	.L92:
 331:.\main.c      ****                 Display1_ClearRxBuffer();
 1256              		.loc 1 331 0
 1257 0094 0A20     		movs	r0, #10
 1258 0096 FFF7FEFF 		bl	CyDelay
 1259              	.LVL118:
 332:.\main.c      ****             }
 1260              		.loc 1 332 0
 1261 009a FFF7FEFF 		bl	Display1_ClearRxBuffer
 1262              	.LVL119:
 1263 009e 01F015B9 		b	.L70
 1264              	.L75:
 336:.\main.c      ****                 if((Display1_rxBuffer[0]==0xAA) && (Display1_rxBuffer[6]==0xC3) && (Display1_rxBuff
 1265              		.loc 1 336 0
 1266 00a2 FFF7FEFF 		bl	Display1_GetRxBufferSize
 1267              	.LVL120:
 1268 00a6 0828     		cmp	r0, #8
 1269 00a8 41F01081 		bne	.L70
 337:.\main.c      ****                     switch(Display1_rxBuffer[3]){
 1270              		.loc 1 337 0
 1271 00ac 884B     		ldr	r3, .L265+12
 1272 00ae 1B78     		ldrb	r3, [r3]	@ zero_extendqisi2
 1273 00b0 DBB2     		uxtb	r3, r3
 1274 00b2 AA2B     		cmp	r3, #170
 1275 00b4 4AD1     		bne	.L93
 337:.\main.c      ****                     switch(Display1_rxBuffer[3]){
 1276              		.loc 1 337 0 is_stmt 0 discriminator 1
 1277 00b6 864B     		ldr	r3, .L265+12
 1278 00b8 9B79     		ldrb	r3, [r3, #6]	@ zero_extendqisi2
 1279 00ba DBB2     		uxtb	r3, r3
 1280 00bc C32B     		cmp	r3, #195
 1281 00be 45D1     		bne	.L93
 337:.\main.c      ****                     switch(Display1_rxBuffer[3]){
 1282              		.loc 1 337 0 discriminator 2
 1283 00c0 834B     		ldr	r3, .L265+12
 1284 00c2 DB79     		ldrb	r3, [r3, #7]	@ zero_extendqisi2
 1285 00c4 DBB2     		uxtb	r3, r3
 1286 00c6 3C2B     		cmp	r3, #60
 1287 00c8 40D1     		bne	.L93
 338:.\main.c      ****                         case 0x0D:  //Pantalla efectivo              
 1288              		.loc 1 338 0 is_stmt 1
 1289 00ca 814B     		ldr	r3, .L265+12
 1290 00cc DB78     		ldrb	r3, [r3, #3]	@ zero_extendqisi2
 1291 00ce DBB2     		uxtb	r3, r3
 1292 00d0 452B     		cmp	r3, #69
 1293 00d2 24D0     		beq	.L94
 1294 00d4 04D8     		bhi	.L95
 1295 00d6 0D2B     		cmp	r3, #13
 1296 00d8 07D0     		beq	.L96
 1297 00da 0E2B     		cmp	r3, #14
 1298 00dc 10D0     		beq	.L97
ARM GAS  C:\Users\RECEPC~1\AppData\Local\Temp\ccoGpf2X.s 			page 50


 1299 00de 35E0     		b	.L93
 1300              	.L95:
 1301 00e0 7E2B     		cmp	r3, #126
 1302 00e2 2CD0     		beq	.L98
 1303 00e4 942B     		cmp	r3, #148
 1304 00e6 22D0     		beq	.L99
 1305 00e8 30E0     		b	.L93
 1306              	.L96:
 340:.\main.c      ****                             bufferDisplay1.saleType = 1;
 1307              		.loc 1 340 0
 1308 00ea 0322     		movs	r2, #3
 1309 00ec 754B     		ldr	r3, .L265
 1310 00ee 1A60     		str	r2, [r3]
 341:.\main.c      ****                             SetPicture(1,DISPLAY_FORMA_PROGRAMACION);                            
 1311              		.loc 1 341 0
 1312 00f0 0120     		movs	r0, #1
 1313 00f2 764B     		ldr	r3, .L265+8
 1314 00f4 83F86100 		strb	r0, [r3, #97]
 342:.\main.c      ****                         break;
 1315              		.loc 1 342 0
 1316 00f8 0521     		movs	r1, #5
 1317 00fa FFF7FEFF 		bl	SetPicture
 1318              	.LVL121:
 343:.\main.c      ****                         case 0x0E:  //Pantalla credito  
 1319              		.loc 1 343 0
 1320 00fe 25E0     		b	.L93
 1321              	.L97:
 345:.\main.c      ****                             bufferDisplay1.saleType = 2;
 1322              		.loc 1 345 0
 1323 0100 0A22     		movs	r2, #10
 1324 0102 704B     		ldr	r3, .L265
 1325 0104 1A60     		str	r2, [r3]
 346:.\main.c      ****                             count_protector = 0;
 1326              		.loc 1 346 0
 1327 0106 0222     		movs	r2, #2
 1328 0108 704B     		ldr	r3, .L265+8
 1329 010a 83F86120 		strb	r2, [r3, #97]
 347:.\main.c      ****                             SetPicture(1,DISPLAY_ID_DIGITAL);                            
 1330              		.loc 1 347 0
 1331 010e 0022     		movs	r2, #0
 1332 0110 6D4B     		ldr	r3, .L265+4
 1333 0112 1A70     		strb	r2, [r3]
 348:.\main.c      ****                         break;
 1334              		.loc 1 348 0
 1335 0114 0120     		movs	r0, #1
 1336 0116 8521     		movs	r1, #133
 1337 0118 FFF7FEFF 		bl	SetPicture
 1338              	.LVL122:
 349:.\main.c      ****                         case 0x45:  //Pantalla otras opciones 
 1339              		.loc 1 349 0
 1340 011c 16E0     		b	.L93
 1341              	.L94:
 351:.\main.c      ****                             SetPicture(1,DISPLAY_OPERACIONES);                            
 1342              		.loc 1 351 0
 1343 011e 0C22     		movs	r2, #12
 1344 0120 684B     		ldr	r3, .L265
 1345 0122 1A60     		str	r2, [r3]
ARM GAS  C:\Users\RECEPC~1\AppData\Local\Temp\ccoGpf2X.s 			page 51


 352:.\main.c      ****                         break;
 1346              		.loc 1 352 0
 1347 0124 0120     		movs	r0, #1
 1348 0126 8321     		movs	r1, #131
 1349 0128 FFF7FEFF 		bl	SetPicture
 1350              	.LVL123:
 353:.\main.c      ****                             
 1351              		.loc 1 353 0
 1352 012c 0EE0     		b	.L93
 1353              	.L99:
 356:.\main.c      ****                             SetPicture(1,DISPLAY_INICIO0);                            
 1354              		.loc 1 356 0
 1355 012e 0022     		movs	r2, #0
 1356 0130 644B     		ldr	r3, .L265
 1357 0132 1A60     		str	r2, [r3]
 357:.\main.c      ****                         break;
 1358              		.loc 1 357 0
 1359 0134 0120     		movs	r0, #1
 1360 0136 0146     		mov	r1, r0
 1361 0138 FFF7FEFF 		bl	SetPicture
 1362              	.LVL124:
 358:.\main.c      ****                         
 1363              		.loc 1 358 0
 1364 013c 06E0     		b	.L93
 1365              	.L98:
 361:.\main.c      ****                             SetPicture(1,DISPLAY_INICIO0);                            
 1366              		.loc 1 361 0
 1367 013e 0022     		movs	r2, #0
 1368 0140 604B     		ldr	r3, .L265
 1369 0142 1A60     		str	r2, [r3]
 362:.\main.c      ****                         break;
 1370              		.loc 1 362 0
 1371 0144 0120     		movs	r0, #1
 1372 0146 0146     		mov	r1, r0
 1373 0148 FFF7FEFF 		bl	SetPicture
 1374              	.LVL125:
 1375              	.L93:
 366:.\main.c      ****                 Display1_ClearRxBuffer();
 1376              		.loc 1 366 0
 1377 014c 0A20     		movs	r0, #10
 1378 014e FFF7FEFF 		bl	CyDelay
 1379              	.LVL126:
 367:.\main.c      ****             }
 1380              		.loc 1 367 0
 1381 0152 FFF7FEFF 		bl	Display1_ClearRxBuffer
 1382              	.LVL127:
 1383 0156 01F0B9B8 		b	.L70
 1384              	.L76:
 372:.\main.c      ****                 if((Display1_rxBuffer[0]==0xAA) && (Display1_rxBuffer[6]==0xC3) && (Display1_rxBuff
 1385              		.loc 1 372 0
 1386 015a FFF7FEFF 		bl	Display1_GetRxBufferSize
 1387              	.LVL128:
 1388 015e 0828     		cmp	r0, #8
 1389 0160 41F0B480 		bne	.L70
 373:.\main.c      ****                     switch(Display1_rxBuffer[3]){
 1390              		.loc 1 373 0
 1391 0164 5A4B     		ldr	r3, .L265+12
ARM GAS  C:\Users\RECEPC~1\AppData\Local\Temp\ccoGpf2X.s 			page 52


 1392 0166 1B78     		ldrb	r3, [r3]	@ zero_extendqisi2
 1393 0168 DBB2     		uxtb	r3, r3
 1394 016a AA2B     		cmp	r3, #170
 1395 016c 40F0A380 		bne	.L100
 373:.\main.c      ****                     switch(Display1_rxBuffer[3]){
 1396              		.loc 1 373 0 is_stmt 0 discriminator 1
 1397 0170 574B     		ldr	r3, .L265+12
 1398 0172 9B79     		ldrb	r3, [r3, #6]	@ zero_extendqisi2
 1399 0174 DBB2     		uxtb	r3, r3
 1400 0176 C32B     		cmp	r3, #195
 1401 0178 40F09D80 		bne	.L100
 373:.\main.c      ****                     switch(Display1_rxBuffer[3]){
 1402              		.loc 1 373 0 discriminator 2
 1403 017c 544B     		ldr	r3, .L265+12
 1404 017e DB79     		ldrb	r3, [r3, #7]	@ zero_extendqisi2
 1405 0180 DBB2     		uxtb	r3, r3
 1406 0182 3C2B     		cmp	r3, #60
 1407 0184 40F09780 		bne	.L100
 374:.\main.c      ****                         case 0x0F:  //Preset dinero                
 1408              		.loc 1 374 0 is_stmt 1
 1409 0188 514B     		ldr	r3, .L265+12
 1410 018a DB78     		ldrb	r3, [r3, #3]	@ zero_extendqisi2
 1411 018c DBB2     		uxtb	r3, r3
 1412 018e 3B2B     		cmp	r3, #59
 1413 0190 00F08280 		beq	.L101
 1414 0194 04D8     		bhi	.L102
 1415 0196 0F2B     		cmp	r3, #15
 1416 0198 0BD0     		beq	.L103
 1417 019a 102B     		cmp	r3, #16
 1418 019c 25D0     		beq	.L104
 1419 019e 8AE0     		b	.L100
 1420              	.L102:
 1421 01a0 7E2B     		cmp	r3, #126
 1422 01a2 00F08180 		beq	.L105
 1423 01a6 942B     		cmp	r3, #148
 1424 01a8 6ED0     		beq	.L106
 1425 01aa 432B     		cmp	r3, #67
 1426 01ac 40F08380 		bne	.L100
 1427 01b0 37E0     		b	.L107
 1428              	.L103:
 376:.\main.c      ****                             bufferDisplay1.presetType[0]=2;
 1429              		.loc 1 376 0
 1430 01b2 0422     		movs	r2, #4
 1431 01b4 434B     		ldr	r3, .L265
 1432 01b6 1A60     		str	r2, [r3]
 377:.\main.c      ****                             bufferDisplay1.presetType[1]='D';
 1433              		.loc 1 377 0
 1434 01b8 444B     		ldr	r3, .L265+8
 1435 01ba 0224     		movs	r4, #2
 1436 01bc 83F86340 		strb	r4, [r3, #99]
 378:.\main.c      ****                             numberKeys1=0;
 1437              		.loc 1 378 0
 1438 01c0 4422     		movs	r2, #68
 1439 01c2 83F86420 		strb	r2, [r3, #100]
 379:.\main.c      ****                             SetPicture(1,DISPLAY_INTRODUZCA_VALOR);   
 1440              		.loc 1 379 0
 1441 01c6 0025     		movs	r5, #0
ARM GAS  C:\Users\RECEPC~1\AppData\Local\Temp\ccoGpf2X.s 			page 53


 1442 01c8 424B     		ldr	r3, .L265+16
 1443 01ca 1D70     		strb	r5, [r3]
 380:.\main.c      ****                             WriteLCD(1,'$',3,2,1,0x0000,'N');
 1444              		.loc 1 380 0
 1445 01cc 0120     		movs	r0, #1
 1446 01ce 0621     		movs	r1, #6
 1447 01d0 FFF7FEFF 		bl	SetPicture
 1448              	.LVL129:
 381:.\main.c      ****                         break; 
 1449              		.loc 1 381 0
 1450 01d4 0120     		movs	r0, #1
 1451 01d6 0090     		str	r0, [sp]
 1452 01d8 0195     		str	r5, [sp, #4]
 1453 01da 4E23     		movs	r3, #78
 1454 01dc 0293     		str	r3, [sp, #8]
 1455 01de 2421     		movs	r1, #36
 1456 01e0 0322     		movs	r2, #3
 1457 01e2 2346     		mov	r3, r4
 1458 01e4 FFF7FEFF 		bl	WriteLCD
 1459              	.LVL130:
 382:.\main.c      ****                         case 0x10:  //Preset volumen                 
 1460              		.loc 1 382 0
 1461 01e8 65E0     		b	.L100
 1462              	.L104:
 384:.\main.c      ****                             bufferDisplay1.presetType[0]=1;
 1463              		.loc 1 384 0
 1464 01ea 0422     		movs	r2, #4
 1465 01ec 354B     		ldr	r3, .L265
 1466 01ee 1A60     		str	r2, [r3]
 385:.\main.c      ****                             bufferDisplay1.presetType[1]='V';
 1467              		.loc 1 385 0
 1468 01f0 364B     		ldr	r3, .L265+8
 1469 01f2 0124     		movs	r4, #1
 1470 01f4 83F86340 		strb	r4, [r3, #99]
 386:.\main.c      ****                             numberKeys1=0;                            
 1471              		.loc 1 386 0
 1472 01f8 5625     		movs	r5, #86
 1473 01fa 83F86450 		strb	r5, [r3, #100]
 387:.\main.c      ****                             SetPicture(1,DISPLAY_INTRODUZCA_VOLUMEN);                            
 1474              		.loc 1 387 0
 1475 01fe 0026     		movs	r6, #0
 1476 0200 344B     		ldr	r3, .L265+16
 1477 0202 1E70     		strb	r6, [r3]
 388:.\main.c      ****                             WriteLCD(1,'V',3,2,1,0x0000,'N');                            
 1478              		.loc 1 388 0
 1479 0204 2046     		mov	r0, r4
 1480 0206 0D21     		movs	r1, #13
 1481 0208 FFF7FEFF 		bl	SetPicture
 1482              	.LVL131:
 389:.\main.c      ****                         break;
 1483              		.loc 1 389 0
 1484 020c 0094     		str	r4, [sp]
 1485 020e 0196     		str	r6, [sp, #4]
 1486 0210 4E23     		movs	r3, #78
 1487 0212 0293     		str	r3, [sp, #8]
 1488 0214 2046     		mov	r0, r4
 1489 0216 2946     		mov	r1, r5
ARM GAS  C:\Users\RECEPC~1\AppData\Local\Temp\ccoGpf2X.s 			page 54


 1490 0218 0322     		movs	r2, #3
 1491 021a 0223     		movs	r3, #2
 1492 021c FFF7FEFF 		bl	WriteLCD
 1493              	.LVL132:
 390:.\main.c      ****                         case 0x43:  //Preset full 
 1494              		.loc 1 390 0
 1495 0220 49E0     		b	.L100
 1496              	.L107:
 392:.\main.c      ****                             bufferDisplay1.presetType[1]='F';
 1497              		.loc 1 392 0
 1498 0222 2A4B     		ldr	r3, .L265+8
 1499 0224 0222     		movs	r2, #2
 1500 0226 83F86320 		strb	r2, [r3, #99]
 393:.\main.c      ****                             for(x=1;x<(digits-1);x++){
 1501              		.loc 1 393 0
 1502 022a 4622     		movs	r2, #70
 1503 022c 83F86420 		strb	r2, [r3, #100]
 1504              	.LVL133:
 394:.\main.c      ****                                 bufferDisplay1.presetValue[0][x]='9';
 1505              		.loc 1 394 0
 1506 0230 0123     		movs	r3, #1
 1507 0232 06E0     		b	.L108
 1508              	.LVL134:
 1509              	.L109:
 395:.\main.c      ****                             }
 1510              		.loc 1 395 0 discriminator 3
 1511 0234 254A     		ldr	r2, .L265+8
 1512 0236 1A44     		add	r2, r2, r3
 1513 0238 3921     		movs	r1, #57
 1514 023a 82F86510 		strb	r1, [r2, #101]
 394:.\main.c      ****                                 bufferDisplay1.presetValue[0][x]='9';
 1515              		.loc 1 394 0 discriminator 3
 1516 023e 0133     		adds	r3, r3, #1
 1517              	.LVL135:
 1518 0240 DBB2     		uxtb	r3, r3
 1519              	.LVL136:
 1520              	.L108:
 394:.\main.c      ****                                 bufferDisplay1.presetValue[0][x]='9';
 1521              		.loc 1 394 0 is_stmt 0 discriminator 1
 1522 0242 1A46     		mov	r2, r3
 1523 0244 2449     		ldr	r1, .L265+20
 1524 0246 0978     		ldrb	r1, [r1]	@ zero_extendqisi2
 1525 0248 481E     		subs	r0, r1, #1
 1526 024a 8342     		cmp	r3, r0
 1527 024c F2DB     		blt	.L109
 397:.\main.c      ****                             bufferDisplay1.presetValue[0][x+1]='0';
 1528              		.loc 1 397 0 is_stmt 1
 1529 024e 1F4B     		ldr	r3, .L265+8
 1530              	.LVL137:
 1531 0250 9C18     		adds	r4, r3, r2
 1532 0252 3020     		movs	r0, #48
 1533 0254 84F86500 		strb	r0, [r4, #101]
 398:.\main.c      ****                             bufferDisplay1.presetValue[0][0]=digits;
 1534              		.loc 1 398 0
 1535 0258 84F86600 		strb	r0, [r4, #102]
 399:.\main.c      ****                             for(x=0;x<=bufferDisplay1.presetValue[0][0];x++){
 1536              		.loc 1 399 0
ARM GAS  C:\Users\RECEPC~1\AppData\Local\Temp\ccoGpf2X.s 			page 55


 1537 025c 83F86510 		strb	r1, [r3, #101]
 1538              	.LVL138:
 400:.\main.c      ****                                 bufferDisplay1.presetValue[1][x]=bufferDisplay1.presetValue[0][x];
 1539              		.loc 1 400 0
 1540 0260 0023     		movs	r3, #0
 1541 0262 07E0     		b	.L110
 1542              	.LVL139:
 1543              	.L111:
 401:.\main.c      ****                             }
 1544              		.loc 1 401 0 discriminator 3
 1545 0264 194A     		ldr	r2, .L265+8
 1546 0266 1A44     		add	r2, r2, r3
 1547 0268 92F86500 		ldrb	r0, [r2, #101]	@ zero_extendqisi2
 1548 026c 82F86F00 		strb	r0, [r2, #111]
 400:.\main.c      ****                                 bufferDisplay1.presetValue[1][x]=bufferDisplay1.presetValue[0][x];
 1549              		.loc 1 400 0 discriminator 3
 1550 0270 0133     		adds	r3, r3, #1
 1551              	.LVL140:
 1552 0272 DBB2     		uxtb	r3, r3
 1553              	.LVL141:
 1554              	.L110:
 400:.\main.c      ****                                 bufferDisplay1.presetValue[1][x]=bufferDisplay1.presetValue[0][x];
 1555              		.loc 1 400 0 is_stmt 0 discriminator 1
 1556 0274 8B42     		cmp	r3, r1
 1557 0276 F5D9     		bls	.L111
 403:.\main.c      ****                             SetPicture(1,DISPLAY_SELECCIONE_PRODUCTO4);                          
 1558              		.loc 1 403 0 is_stmt 1
 1559 0278 0522     		movs	r2, #5
 1560 027a 124B     		ldr	r3, .L265
 1561              	.LVL142:
 1562 027c 1A60     		str	r2, [r3]
 404:.\main.c      ****                         break;
 1563              		.loc 1 404 0
 1564 027e 0120     		movs	r0, #1
 1565 0280 8621     		movs	r1, #134
 1566 0282 FFF7FEFF 		bl	SetPicture
 1567              	.LVL143:
 405:.\main.c      ****                         case 0x94:  //Retroceso 
 1568              		.loc 1 405 0
 1569 0286 16E0     		b	.L100
 1570              	.L106:
 407:.\main.c      ****                             SetPicture(1,DISPLAY_INICIO0);                                         
 1571              		.loc 1 407 0
 1572 0288 0022     		movs	r2, #0
 1573 028a 0E4B     		ldr	r3, .L265
 1574 028c 1A60     		str	r2, [r3]
 408:.\main.c      ****                         break;
 1575              		.loc 1 408 0
 1576 028e 0120     		movs	r0, #1
 1577 0290 0146     		mov	r1, r0
 1578 0292 FFF7FEFF 		bl	SetPicture
 1579              	.LVL144:
 409:.\main.c      ****                         case 0x3B:  //Pantalla Inicial    
 1580              		.loc 1 409 0
 1581 0296 0EE0     		b	.L100
 1582              	.L101:
 411:.\main.c      ****                             SetPicture(1,DISPLAY_INICIO0);                            
ARM GAS  C:\Users\RECEPC~1\AppData\Local\Temp\ccoGpf2X.s 			page 56


 1583              		.loc 1 411 0
 1584 0298 0022     		movs	r2, #0
 1585 029a 0A4B     		ldr	r3, .L265
 1586 029c 1A60     		str	r2, [r3]
 412:.\main.c      ****                         break;
 1587              		.loc 1 412 0
 1588 029e 0120     		movs	r0, #1
 1589 02a0 0146     		mov	r1, r0
 1590 02a2 FFF7FEFF 		bl	SetPicture
 1591              	.LVL145:
 413:.\main.c      ****                         case 0x7E:  //Pantalla Inicial    
 1592              		.loc 1 413 0
 1593 02a6 06E0     		b	.L100
 1594              	.L105:
 415:.\main.c      ****                             SetPicture(1,DISPLAY_INICIO0);                            
 1595              		.loc 1 415 0
 1596 02a8 0022     		movs	r2, #0
 1597 02aa 064B     		ldr	r3, .L265
 1598 02ac 1A60     		str	r2, [r3]
 416:.\main.c      ****                         break;
 1599              		.loc 1 416 0
 1600 02ae 0120     		movs	r0, #1
 1601 02b0 0146     		mov	r1, r0
 1602 02b2 FFF7FEFF 		bl	SetPicture
 1603              	.LVL146:
 1604              	.L100:
 420:.\main.c      ****                 Display1_ClearRxBuffer();
 1605              		.loc 1 420 0
 1606 02b6 0A20     		movs	r0, #10
 1607 02b8 FFF7FEFF 		bl	CyDelay
 1608              	.LVL147:
 421:.\main.c      ****             }
 1609              		.loc 1 421 0
 1610 02bc FFF7FEFF 		bl	Display1_ClearRxBuffer
 1611              	.LVL148:
 1612 02c0 01F004B8 		b	.L70
 1613              	.L266:
 1614              		.align	2
 1615              	.L265:
 1616 02c4 00000000 		.word	flowDisplay1
 1617 02c8 00000000 		.word	count_protector
 1618 02cc 00000000 		.word	bufferDisplay1
 1619 02d0 00000000 		.word	Display1_rxBuffer
 1620 02d4 00000000 		.word	numberKeys1
 1621 02d8 00000000 		.word	digits
 1622              	.L77:
 426:.\main.c      ****                 case 0:  //Pantalla Inicial    
 1623              		.loc 1 426 0
 1624 02dc 0120     		movs	r0, #1
 1625 02de 894B     		ldr	r3, .L267
 1626 02e0 1978     		ldrb	r1, [r3]	@ zero_extendqisi2
 1627 02e2 0022     		movs	r2, #0
 1628 02e4 FFF7FEFF 		bl	alphanumeric_keyboard
 1629              	.LVL149:
 1630 02e8 18B1     		cbz	r0, .L112
 1631 02ea 0128     		cmp	r0, #1
 1632 02ec 15D0     		beq	.L247
ARM GAS  C:\Users\RECEPC~1\AppData\Local\Temp\ccoGpf2X.s 			page 57


 1633 02ee 00F0EDBF 		b	.L70
 1634              	.L112:
 428:.\main.c      ****                     SetPicture(1,DISPLAY_INICIO0);                            
 1635              		.loc 1 428 0
 1636 02f2 0022     		movs	r2, #0
 1637 02f4 844B     		ldr	r3, .L267+4
 1638 02f6 1A60     		str	r2, [r3]
 429:.\main.c      ****                 break;
 1639              		.loc 1 429 0
 1640 02f8 0120     		movs	r0, #1
 1641 02fa 0146     		mov	r1, r0
 1642 02fc FFF7FEFF 		bl	SetPicture
 1643              	.LVL150:
 430:.\main.c      ****                     
 1644              		.loc 1 430 0
 1645 0300 00F0E4BF 		b	.L70
 1646              	.LVL151:
 1647              	.L114:
 434:.\main.c      ****                         bufferDisplay1.presetValue[1][x]=bufferDisplay1.valueKeys[x];
 1648              		.loc 1 434 0 discriminator 3
 1649 0304 814A     		ldr	r2, .L267+8
 1650 0306 1A44     		add	r2, r2, r3
 1651 0308 92F84B10 		ldrb	r1, [r2, #75]	@ zero_extendqisi2
 1652 030c 82F86510 		strb	r1, [r2, #101]
 435:.\main.c      ****                     }  
 1653              		.loc 1 435 0 discriminator 3
 1654 0310 82F86F10 		strb	r1, [r2, #111]
 433:.\main.c      ****                         bufferDisplay1.presetValue[0][x]=bufferDisplay1.valueKeys[x];
 1655              		.loc 1 433 0 discriminator 3
 1656 0314 0133     		adds	r3, r3, #1
 1657              	.LVL152:
 1658 0316 DBB2     		uxtb	r3, r3
 1659              	.LVL153:
 1660 0318 00E0     		b	.L113
 1661              	.LVL154:
 1662              	.L247:
 426:.\main.c      ****                 case 0:  //Pantalla Inicial    
 1663              		.loc 1 426 0
 1664 031a 0023     		movs	r3, #0
 1665              	.L113:
 1666              	.LVL155:
 433:.\main.c      ****                         bufferDisplay1.presetValue[0][x]=bufferDisplay1.valueKeys[x];
 1667              		.loc 1 433 0 discriminator 1
 1668 031c 7B4A     		ldr	r2, .L267+8
 1669 031e 92F84B20 		ldrb	r2, [r2, #75]	@ zero_extendqisi2
 1670 0322 9A42     		cmp	r2, r3
 1671 0324 EED2     		bcs	.L114
 437:.\main.c      ****                     SetPicture(1,DISPLAY_SELECCIONE_PRODUCTO4);
 1672              		.loc 1 437 0
 1673 0326 0522     		movs	r2, #5
 1674 0328 774B     		ldr	r3, .L267+4
 1675              	.LVL156:
 1676 032a 1A60     		str	r2, [r3]
 438:.\main.c      ****                 break;
 1677              		.loc 1 438 0
 1678 032c 0120     		movs	r0, #1
 1679 032e 8621     		movs	r1, #134
ARM GAS  C:\Users\RECEPC~1\AppData\Local\Temp\ccoGpf2X.s 			page 58


 1680 0330 FFF7FEFF 		bl	SetPicture
 1681              	.LVL157:
 439:.\main.c      ****             }
 1682              		.loc 1 439 0
 1683 0334 00F0CABF 		b	.L70
 1684              	.L78:
 444:.\main.c      ****                 if((Display1_rxBuffer[0]==0xAA) && (Display1_rxBuffer[6]==0xC3) && (Display1_rxBuff
 1685              		.loc 1 444 0
 1686 0338 FFF7FEFF 		bl	Display1_GetRxBufferSize
 1687              	.LVL158:
 1688 033c 0828     		cmp	r0, #8
 1689 033e 40F0C587 		bne	.L70
 445:.\main.c      ****                     switch(Display1_rxBuffer[3]){
 1690              		.loc 1 445 0
 1691 0342 734B     		ldr	r3, .L267+12
 1692 0344 1B78     		ldrb	r3, [r3]	@ zero_extendqisi2
 1693 0346 DBB2     		uxtb	r3, r3
 1694 0348 AA2B     		cmp	r3, #170
 1695 034a 6CD1     		bne	.L115
 445:.\main.c      ****                     switch(Display1_rxBuffer[3]){
 1696              		.loc 1 445 0 is_stmt 0 discriminator 1
 1697 034c 704B     		ldr	r3, .L267+12
 1698 034e 9B79     		ldrb	r3, [r3, #6]	@ zero_extendqisi2
 1699 0350 DBB2     		uxtb	r3, r3
 1700 0352 C32B     		cmp	r3, #195
 1701 0354 67D1     		bne	.L115
 445:.\main.c      ****                     switch(Display1_rxBuffer[3]){
 1702              		.loc 1 445 0 discriminator 2
 1703 0356 6E4B     		ldr	r3, .L267+12
 1704 0358 DB79     		ldrb	r3, [r3, #7]	@ zero_extendqisi2
 1705 035a DBB2     		uxtb	r3, r3
 1706 035c 3C2B     		cmp	r3, #60
 1707 035e 62D1     		bne	.L115
 446:.\main.c      ****                         case 0x80:  //Grado 1 
 1708              		.loc 1 446 0 is_stmt 1
 1709 0360 6B4B     		ldr	r3, .L267+12
 1710 0362 DB78     		ldrb	r3, [r3, #3]	@ zero_extendqisi2
 1711 0364 7E3B     		subs	r3, r3, #126
 1712 0366 3A2B     		cmp	r3, #58
 1713 0368 5DD8     		bhi	.L115
 1714 036a DFE803F0 		tbb	[pc, r3]
 1715              	.L117:
 1716 036e 55       		.byte	(.L116-.L117)/2
 1717 036f 35       		.byte	(.L118-.L117)/2
 1718 0370 1E       		.byte	(.L119-.L117)/2
 1719 0371 29       		.byte	(.L120-.L117)/2
 1720 0372 5C       		.byte	(.L115-.L117)/2
 1721 0373 5C       		.byte	(.L115-.L117)/2
 1722 0374 5C       		.byte	(.L115-.L117)/2
 1723 0375 5C       		.byte	(.L115-.L117)/2
 1724 0376 5C       		.byte	(.L115-.L117)/2
 1725 0377 5C       		.byte	(.L115-.L117)/2
 1726 0378 5C       		.byte	(.L115-.L117)/2
 1727 0379 5C       		.byte	(.L115-.L117)/2
 1728 037a 5C       		.byte	(.L115-.L117)/2
 1729 037b 5C       		.byte	(.L115-.L117)/2
 1730 037c 5C       		.byte	(.L115-.L117)/2
ARM GAS  C:\Users\RECEPC~1\AppData\Local\Temp\ccoGpf2X.s 			page 59


 1731 037d 5C       		.byte	(.L115-.L117)/2
 1732 037e 5C       		.byte	(.L115-.L117)/2
 1733 037f 5C       		.byte	(.L115-.L117)/2
 1734 0380 5C       		.byte	(.L115-.L117)/2
 1735 0381 5C       		.byte	(.L115-.L117)/2
 1736 0382 5C       		.byte	(.L115-.L117)/2
 1737 0383 5C       		.byte	(.L115-.L117)/2
 1738 0384 4D       		.byte	(.L121-.L117)/2
 1739 0385 5C       		.byte	(.L115-.L117)/2
 1740 0386 5C       		.byte	(.L115-.L117)/2
 1741 0387 5C       		.byte	(.L115-.L117)/2
 1742 0388 5C       		.byte	(.L115-.L117)/2
 1743 0389 5C       		.byte	(.L115-.L117)/2
 1744 038a 5C       		.byte	(.L115-.L117)/2
 1745 038b 5C       		.byte	(.L115-.L117)/2
 1746 038c 5C       		.byte	(.L115-.L117)/2
 1747 038d 5C       		.byte	(.L115-.L117)/2
 1748 038e 5C       		.byte	(.L115-.L117)/2
 1749 038f 5C       		.byte	(.L115-.L117)/2
 1750 0390 5C       		.byte	(.L115-.L117)/2
 1751 0391 5C       		.byte	(.L115-.L117)/2
 1752 0392 5C       		.byte	(.L115-.L117)/2
 1753 0393 5C       		.byte	(.L115-.L117)/2
 1754 0394 5C       		.byte	(.L115-.L117)/2
 1755 0395 5C       		.byte	(.L115-.L117)/2
 1756 0396 5C       		.byte	(.L115-.L117)/2
 1757 0397 5C       		.byte	(.L115-.L117)/2
 1758 0398 5C       		.byte	(.L115-.L117)/2
 1759 0399 5C       		.byte	(.L115-.L117)/2
 1760 039a 5C       		.byte	(.L115-.L117)/2
 1761 039b 5C       		.byte	(.L115-.L117)/2
 1762 039c 5C       		.byte	(.L115-.L117)/2
 1763 039d 5C       		.byte	(.L115-.L117)/2
 1764 039e 5C       		.byte	(.L115-.L117)/2
 1765 039f 5C       		.byte	(.L115-.L117)/2
 1766 03a0 5C       		.byte	(.L115-.L117)/2
 1767 03a1 5C       		.byte	(.L115-.L117)/2
 1768 03a2 5C       		.byte	(.L115-.L117)/2
 1769 03a3 5C       		.byte	(.L115-.L117)/2
 1770 03a4 5C       		.byte	(.L115-.L117)/2
 1771 03a5 5C       		.byte	(.L115-.L117)/2
 1772 03a6 5C       		.byte	(.L115-.L117)/2
 1773 03a7 5C       		.byte	(.L115-.L117)/2
 1774 03a8 41       		.byte	(.L122-.L117)/2
 1775 03a9 00       		.p2align 1
 1776              	.L119:
 448:.\main.c      ****                             side.a.hose = 1;
 1777              		.loc 1 448 0
 1778 03aa 0622     		movs	r2, #6
 1779 03ac 564B     		ldr	r3, .L267+4
 1780 03ae 1A60     		str	r2, [r3]
 449:.\main.c      ****                             SetPicture(1,DISPLAY_DESEA_IMPRIMIR_RECIBO);                           
 1781              		.loc 1 449 0
 1782 03b0 0120     		movs	r0, #1
 1783 03b2 584B     		ldr	r3, .L267+16
 1784 03b4 83F80101 		strb	r0, [r3, #257]
 450:.\main.c      ****                         break;
ARM GAS  C:\Users\RECEPC~1\AppData\Local\Temp\ccoGpf2X.s 			page 60


 1785              		.loc 1 450 0
 1786 03b8 0B21     		movs	r1, #11
 1787 03ba FFF7FEFF 		bl	SetPicture
 1788              	.LVL159:
 451:.\main.c      ****                             
 1789              		.loc 1 451 0
 1790 03be 32E0     		b	.L115
 1791              	.L120:
 454:.\main.c      ****                             side.a.hose = 2;
 1792              		.loc 1 454 0
 1793 03c0 0622     		movs	r2, #6
 1794 03c2 514B     		ldr	r3, .L267+4
 1795 03c4 1A60     		str	r2, [r3]
 455:.\main.c      ****                             SetPicture(1,DISPLAY_DESEA_IMPRIMIR_RECIBO);                           
 1796              		.loc 1 455 0
 1797 03c6 0222     		movs	r2, #2
 1798 03c8 524B     		ldr	r3, .L267+16
 1799 03ca 83F80121 		strb	r2, [r3, #257]
 456:.\main.c      ****                         break;
 1800              		.loc 1 456 0
 1801 03ce 0120     		movs	r0, #1
 1802 03d0 0B21     		movs	r1, #11
 1803 03d2 FFF7FEFF 		bl	SetPicture
 1804              	.LVL160:
 457:.\main.c      ****                             
 1805              		.loc 1 457 0
 1806 03d6 26E0     		b	.L115
 1807              	.L118:
 460:.\main.c      ****                             side.a.hose = 3;
 1808              		.loc 1 460 0
 1809 03d8 0622     		movs	r2, #6
 1810 03da 4B4B     		ldr	r3, .L267+4
 1811 03dc 1A60     		str	r2, [r3]
 461:.\main.c      ****                             SetPicture(1,DISPLAY_DESEA_IMPRIMIR_RECIBO);                           
 1812              		.loc 1 461 0
 1813 03de 0322     		movs	r2, #3
 1814 03e0 4C4B     		ldr	r3, .L267+16
 1815 03e2 83F80121 		strb	r2, [r3, #257]
 462:.\main.c      ****                         break;   
 1816              		.loc 1 462 0
 1817 03e6 0120     		movs	r0, #1
 1818 03e8 0B21     		movs	r1, #11
 1819 03ea FFF7FEFF 		bl	SetPicture
 1820              	.LVL161:
 463:.\main.c      ****                         
 1821              		.loc 1 463 0
 1822 03ee 1AE0     		b	.L115
 1823              	.L122:
 466:.\main.c      ****                             side.a.hose = 4;
 1824              		.loc 1 466 0
 1825 03f0 0622     		movs	r2, #6
 1826 03f2 454B     		ldr	r3, .L267+4
 1827 03f4 1A60     		str	r2, [r3]
 467:.\main.c      ****                             SetPicture(1,DISPLAY_DESEA_IMPRIMIR_RECIBO);                           
 1828              		.loc 1 467 0
 1829 03f6 0422     		movs	r2, #4
 1830 03f8 464B     		ldr	r3, .L267+16
ARM GAS  C:\Users\RECEPC~1\AppData\Local\Temp\ccoGpf2X.s 			page 61


 1831 03fa 83F80121 		strb	r2, [r3, #257]
 468:.\main.c      ****                         break;
 1832              		.loc 1 468 0
 1833 03fe 0120     		movs	r0, #1
 1834 0400 0B21     		movs	r1, #11
 1835 0402 FFF7FEFF 		bl	SetPicture
 1836              	.LVL162:
 469:.\main.c      ****                             
 1837              		.loc 1 469 0
 1838 0406 0EE0     		b	.L115
 1839              	.L121:
 472:.\main.c      ****                             SetPicture(1,DISPLAY_INICIO0);                                         
 1840              		.loc 1 472 0
 1841 0408 0022     		movs	r2, #0
 1842 040a 3F4B     		ldr	r3, .L267+4
 1843 040c 1A60     		str	r2, [r3]
 473:.\main.c      ****                         break;
 1844              		.loc 1 473 0
 1845 040e 0120     		movs	r0, #1
 1846 0410 0146     		mov	r1, r0
 1847 0412 FFF7FEFF 		bl	SetPicture
 1848              	.LVL163:
 474:.\main.c      ****                             
 1849              		.loc 1 474 0
 1850 0416 06E0     		b	.L115
 1851              	.L116:
 477:.\main.c      ****                             flowDisplay1 = 0;
 1852              		.loc 1 477 0
 1853 0418 0120     		movs	r0, #1
 1854 041a 0146     		mov	r1, r0
 1855 041c FFF7FEFF 		bl	SetPicture
 1856              	.LVL164:
 478:.\main.c      ****                         break;
 1857              		.loc 1 478 0
 1858 0420 0022     		movs	r2, #0
 1859 0422 394B     		ldr	r3, .L267+4
 1860 0424 1A60     		str	r2, [r3]
 1861              	.L115:
 482:.\main.c      ****                 Display1_ClearRxBuffer();
 1862              		.loc 1 482 0
 1863 0426 0A20     		movs	r0, #10
 1864 0428 FFF7FEFF 		bl	CyDelay
 1865              	.LVL165:
 483:.\main.c      ****             }
 1866              		.loc 1 483 0
 1867 042c FFF7FEFF 		bl	Display1_ClearRxBuffer
 1868              	.LVL166:
 1869 0430 00F04CBF 		b	.L70
 1870              	.L79:
 488:.\main.c      ****             Timer_Animacion_Start();
 1871              		.loc 1 488 0
 1872 0434 3848     		ldr	r0, .L267+20
 1873 0436 FFF7FEFF 		bl	isr_3_StartEx
 1874              	.LVL167:
 489:.\main.c      ****             if(Display1_GetRxBufferSize()==8){
 1875              		.loc 1 489 0
 1876 043a FFF7FEFF 		bl	Timer_Animacion_Start
ARM GAS  C:\Users\RECEPC~1\AppData\Local\Temp\ccoGpf2X.s 			page 62


 1877              	.LVL168:
 490:.\main.c      ****                 if((Display1_rxBuffer[0]==0xAA) && (Display1_rxBuffer[6]==0xC3) && (Display1_rxBuff
 1878              		.loc 1 490 0
 1879 043e FFF7FEFF 		bl	Display1_GetRxBufferSize
 1880              	.LVL169:
 1881 0442 0828     		cmp	r0, #8
 1882 0444 4DD1     		bne	.L123
 491:.\main.c      ****                     switch(Display1_rxBuffer[3]){
 1883              		.loc 1 491 0
 1884 0446 324B     		ldr	r3, .L267+12
 1885 0448 1B78     		ldrb	r3, [r3]	@ zero_extendqisi2
 1886 044a DBB2     		uxtb	r3, r3
 1887 044c AA2B     		cmp	r3, #170
 1888 044e 43D1     		bne	.L124
 491:.\main.c      ****                     switch(Display1_rxBuffer[3]){
 1889              		.loc 1 491 0 is_stmt 0 discriminator 1
 1890 0450 2F4B     		ldr	r3, .L267+12
 1891 0452 9B79     		ldrb	r3, [r3, #6]	@ zero_extendqisi2
 1892 0454 DBB2     		uxtb	r3, r3
 1893 0456 C32B     		cmp	r3, #195
 1894 0458 3ED1     		bne	.L124
 491:.\main.c      ****                     switch(Display1_rxBuffer[3]){
 1895              		.loc 1 491 0 discriminator 2
 1896 045a 2D4B     		ldr	r3, .L267+12
 1897 045c DB79     		ldrb	r3, [r3, #7]	@ zero_extendqisi2
 1898 045e DBB2     		uxtb	r3, r3
 1899 0460 3C2B     		cmp	r3, #60
 1900 0462 39D1     		bne	.L124
 492:.\main.c      ****                         case 0x39:  //Si imprimir  
 1901              		.loc 1 492 0 is_stmt 1
 1902 0464 2A4B     		ldr	r3, .L267+12
 1903 0466 DB78     		ldrb	r3, [r3, #3]	@ zero_extendqisi2
 1904 0468 DBB2     		uxtb	r3, r3
 1905 046a 392B     		cmp	r3, #57
 1906 046c 04D0     		beq	.L125
 1907 046e 7E2B     		cmp	r3, #126
 1908 0470 2BD0     		beq	.L126
 1909 0472 382B     		cmp	r3, #56
 1910 0474 30D1     		bne	.L124
 1911 0476 0FE0     		b	.L127
 1912              	.L125:
 494:.\main.c      ****                             numberKeys1 = 0;
 1913              		.loc 1 494 0
 1914 0478 0922     		movs	r2, #9
 1915 047a 234B     		ldr	r3, .L267+4
 1916 047c 1A60     		str	r2, [r3]
 495:.\main.c      ****                             bufferDisplay1.flagKeyboard = 1;
 1917              		.loc 1 495 0
 1918 047e 0022     		movs	r2, #0
 1919 0480 264B     		ldr	r3, .L267+24
 1920 0482 1A70     		strb	r2, [r3]
 496:.\main.c      ****                             bufferDisplay1.flagPrint =  1;
 1921              		.loc 1 496 0
 1922 0484 214B     		ldr	r3, .L267+8
 1923 0486 0120     		movs	r0, #1
 1924 0488 83F80001 		strb	r0, [r3, #256]
 497:.\main.c      ****                             SetPicture(1,DISPLAY_DIGITE_PLACA);                            
ARM GAS  C:\Users\RECEPC~1\AppData\Local\Temp\ccoGpf2X.s 			page 63


 1925              		.loc 1 497 0
 1926 048c 83F87002 		strb	r0, [r3, #624]
 498:.\main.c      ****                         break; 
 1927              		.loc 1 498 0
 1928 0490 0A21     		movs	r1, #10
 1929 0492 FFF7FEFF 		bl	SetPicture
 1930              	.LVL170:
 499:.\main.c      ****                         case 0x38:  //No imprimir 
 1931              		.loc 1 499 0
 1932 0496 1FE0     		b	.L124
 1933              	.L127:
 501:.\main.c      ****                                 flowDisplay1 = 0;
 1934              		.loc 1 501 0
 1935 0498 1C4B     		ldr	r3, .L267+8
 1936 049a 93F80331 		ldrb	r3, [r3, #259]	@ zero_extendqisi2
 1937 049e 3BB1     		cbz	r3, .L128
 502:.\main.c      ****                                 SetPicture(1,DISPLAY_INICIO0);
 1938              		.loc 1 502 0
 1939 04a0 0022     		movs	r2, #0
 1940 04a2 194B     		ldr	r3, .L267+4
 1941 04a4 1A60     		str	r2, [r3]
 503:.\main.c      ****                             }else{
 1942              		.loc 1 503 0
 1943 04a6 0120     		movs	r0, #1
 1944 04a8 0146     		mov	r1, r0
 1945 04aa FFF7FEFF 		bl	SetPicture
 1946              	.LVL171:
 1947 04ae 13E0     		b	.L124
 1948              	.L128:
 505:.\main.c      ****                                 bufferDisplay1.flagPrint =  0;
 1949              		.loc 1 505 0
 1950 04b0 0721     		movs	r1, #7
 1951 04b2 154B     		ldr	r3, .L267+4
 1952 04b4 1960     		str	r1, [r3]
 506:.\main.c      ****                                 count_protector=0;
 1953              		.loc 1 506 0
 1954 04b6 0023     		movs	r3, #0
 1955 04b8 144A     		ldr	r2, .L267+8
 1956 04ba 82F87032 		strb	r3, [r2, #624]
 507:.\main.c      ****                                 SetPicture(1,DISPLAY_SUBA_MANIJA);
 1957              		.loc 1 507 0
 1958 04be 184A     		ldr	r2, .L267+28
 1959 04c0 1370     		strb	r3, [r2]
 508:.\main.c      ****                             }
 1960              		.loc 1 508 0
 1961 04c2 0120     		movs	r0, #1
 1962 04c4 FFF7FEFF 		bl	SetPicture
 1963              	.LVL172:
 1964 04c8 06E0     		b	.L124
 1965              	.L126:
 512:.\main.c      ****                             SetPicture(1,DISPLAY_INICIO0);
 1966              		.loc 1 512 0
 1967 04ca 0022     		movs	r2, #0
 1968 04cc 0E4B     		ldr	r3, .L267+4
 1969 04ce 1A60     		str	r2, [r3]
 513:.\main.c      ****                         break;
 1970              		.loc 1 513 0
ARM GAS  C:\Users\RECEPC~1\AppData\Local\Temp\ccoGpf2X.s 			page 64


 1971 04d0 0120     		movs	r0, #1
 1972 04d2 0146     		mov	r1, r0
 1973 04d4 FFF7FEFF 		bl	SetPicture
 1974              	.LVL173:
 1975              	.L124:
 517:.\main.c      ****                 Display1_ClearRxBuffer();
 1976              		.loc 1 517 0
 1977 04d8 0A20     		movs	r0, #10
 1978 04da FFF7FEFF 		bl	CyDelay
 1979              	.LVL174:
 518:.\main.c      ****             }
 1980              		.loc 1 518 0
 1981 04de FFF7FEFF 		bl	Display1_ClearRxBuffer
 1982              	.LVL175:
 1983              	.L123:
 520:.\main.c      ****                 flowDisplay1 = 0;	
 1984              		.loc 1 520 0
 1985 04e2 0F4B     		ldr	r3, .L267+28
 1986 04e4 1B78     		ldrb	r3, [r3]	@ zero_extendqisi2
 1987 04e6 1D2B     		cmp	r3, #29
 1988 04e8 40F2F086 		bls	.L70
 521:.\main.c      ****     			count_protector=0;
 1989              		.loc 1 521 0
 1990 04ec 0023     		movs	r3, #0
 1991 04ee 064A     		ldr	r2, .L267+4
 1992 04f0 1360     		str	r3, [r2]
 522:.\main.c      ****                 SetPicture(1,DISPLAY_INICIO0);
 1993              		.loc 1 522 0
 1994 04f2 0B4A     		ldr	r2, .L267+28
 1995 04f4 1370     		strb	r3, [r2]
 523:.\main.c      ****     		}
 1996              		.loc 1 523 0
 1997 04f6 0120     		movs	r0, #1
 1998 04f8 0146     		mov	r1, r0
 1999 04fa FFF7FEFF 		bl	SetPicture
 2000              	.LVL176:
 2001 04fe 00F0E5BE 		b	.L70
 2002              	.L268:
 2003 0502 00BF     		.align	2
 2004              	.L267:
 2005 0504 00000000 		.word	digits
 2006 0508 00000000 		.word	flowDisplay1
 2007 050c 00000000 		.word	bufferDisplay1
 2008 0510 00000000 		.word	Display1_rxBuffer
 2009 0514 00000000 		.word	side
 2010 0518 00000000 		.word	animacion
 2011 051c 00000000 		.word	numberKeys1
 2012 0520 00000000 		.word	count_protector
 2013              	.L80:
 529:.\main.c      ****             Timer_Animacion_Start();
 2014              		.loc 1 529 0
 2015 0524 AA48     		ldr	r0, .L269
 2016 0526 FFF7FEFF 		bl	isr_3_StartEx
 2017              	.LVL177:
 530:.\main.c      ****             side.a.activeHose = PumpHoseActiveState(side.a.dir);  
 2018              		.loc 1 530 0
 2019 052a FFF7FEFF 		bl	Timer_Animacion_Start
ARM GAS  C:\Users\RECEPC~1\AppData\Local\Temp\ccoGpf2X.s 			page 65


 2020              	.LVL178:
 531:.\main.c      ****             if (side.a.activeHose == side.a.hose){                
 2021              		.loc 1 531 0
 2022 052e A94C     		ldr	r4, .L269+4
 2023 0530 2078     		ldrb	r0, [r4]	@ zero_extendqisi2
 2024 0532 FFF7FEFF 		bl	PumpHoseActiveState
 2025              	.LVL179:
 2026 0536 0146     		mov	r1, r0
 2027 0538 84F80001 		strb	r0, [r4, #256]
 532:.\main.c      ****                 if(PresetData(side.a.dir,side.a.activeHose,bufferDisplay1.presetValue[0],bufferDisp
 2028              		.loc 1 532 0
 2029 053c 94F80131 		ldrb	r3, [r4, #257]	@ zero_extendqisi2
 2030 0540 9842     		cmp	r0, r3
 2031 0542 3AD1     		bne	.L129
 533:.\main.c      ****                     get_state(side.a.dir);
 2032              		.loc 1 533 0
 2033 0544 A44A     		ldr	r2, .L269+8
 2034 0546 92F86330 		ldrb	r3, [r2, #99]	@ zero_extendqisi2
 2035 054a 2078     		ldrb	r0, [r4]	@ zero_extendqisi2
 2036 054c 6532     		adds	r2, r2, #101
 2037 054e 03F00303 		and	r3, r3, #3
 2038 0552 FFF7FEFF 		bl	PresetData
 2039              	.LVL180:
 2040 0556 0128     		cmp	r0, #1
 2041 0558 21D1     		bne	.L130
 534:.\main.c      ****                     CyDelay(50);
 2042              		.loc 1 534 0
 2043 055a 2078     		ldrb	r0, [r4]	@ zero_extendqisi2
 2044 055c FFF7FEFF 		bl	get_state
 2045              	.LVL181:
 535:.\main.c      ****                     Pump_PutChar(0x10|side.a.dir);//Autoriza el surtidor
 2046              		.loc 1 535 0
 2047 0560 3220     		movs	r0, #50
 2048 0562 FFF7FEFF 		bl	CyDelay
 2049              	.LVL182:
 536:.\main.c      ****                     CyDelay(50);
 2050              		.loc 1 536 0
 2051 0566 2078     		ldrb	r0, [r4]	@ zero_extendqisi2
 2052 0568 40F01000 		orr	r0, r0, #16
 2053 056c FFF7FEFF 		bl	Pump_PutChar
 2054              	.LVL183:
 537:.\main.c      ****                     flowDisplay1 = 8;
 2055              		.loc 1 537 0
 2056 0570 3220     		movs	r0, #50
 2057 0572 FFF7FEFF 		bl	CyDelay
 2058              	.LVL184:
 538:.\main.c      ****                     isr_3_Stop(); 
 2059              		.loc 1 538 0
 2060 0576 0824     		movs	r4, #8
 2061 0578 984B     		ldr	r3, .L269+12
 2062 057a 1C60     		str	r4, [r3]
 539:.\main.c      ****                     Timer_Animacion_Stop();
 2063              		.loc 1 539 0
 2064 057c FFF7FEFF 		bl	isr_3_Stop
 2065              	.LVL185:
 540:.\main.c      ****                     count_protector = 0;                    
 2066              		.loc 1 540 0
ARM GAS  C:\Users\RECEPC~1\AppData\Local\Temp\ccoGpf2X.s 			page 66


 2067 0580 FFF7FEFF 		bl	Timer_Animacion_Stop
 2068              	.LVL186:
 541:.\main.c      ****                     SetPicture(1,DISPLAY_DESPACHANDO);   
 2069              		.loc 1 541 0
 2070 0584 0022     		movs	r2, #0
 2071 0586 964B     		ldr	r3, .L269+16
 2072 0588 1A70     		strb	r2, [r3]
 542:.\main.c      ****                     ShowMessage(1,(bufferDisplay1.presetValue[0]),18);
 2073              		.loc 1 542 0
 2074 058a 0120     		movs	r0, #1
 2075 058c 2146     		mov	r1, r4
 2076 058e FFF7FEFF 		bl	SetPicture
 2077              	.LVL187:
 543:.\main.c      ****                 }else{
 2078              		.loc 1 543 0
 2079 0592 0120     		movs	r0, #1
 2080 0594 9349     		ldr	r1, .L269+20
 2081 0596 1222     		movs	r2, #18
 2082 0598 FFF7FEFF 		bl	ShowMessage
 2083              	.LVL188:
 2084 059c 1DE0     		b	.L131
 2085              	.L130:
 545:.\main.c      ****                     SetPicture(1,DISPLAY_ERROR);
 2086              		.loc 1 545 0
 2087 059e 0021     		movs	r1, #0
 2088 05a0 8E4B     		ldr	r3, .L269+12
 2089 05a2 1960     		str	r1, [r3]
 546:.\main.c      ****                     CyDelay(200);
 2090              		.loc 1 546 0
 2091 05a4 0120     		movs	r0, #1
 2092 05a6 FFF7FEFF 		bl	SetPicture
 2093              	.LVL189:
 547:.\main.c      ****                     SetPicture(1,DISPLAY_INICIO0);
 2094              		.loc 1 547 0
 2095 05aa C820     		movs	r0, #200
 2096 05ac FFF7FEFF 		bl	CyDelay
 2097              	.LVL190:
 548:.\main.c      ****                 }
 2098              		.loc 1 548 0
 2099 05b0 0120     		movs	r0, #1
 2100 05b2 0146     		mov	r1, r0
 2101 05b4 FFF7FEFF 		bl	SetPicture
 2102              	.LVL191:
 2103 05b8 0FE0     		b	.L131
 2104              	.L129:
 551:.\main.c      ****                 if(count_protector>=60){
 2105              		.loc 1 551 0
 2106 05ba 0722     		movs	r2, #7
 2107 05bc 874B     		ldr	r3, .L269+12
 2108 05be 1A60     		str	r2, [r3]
 552:.\main.c      ****                     flowDisplay1 = 0;	
 2109              		.loc 1 552 0
 2110 05c0 874B     		ldr	r3, .L269+16
 2111 05c2 1B78     		ldrb	r3, [r3]	@ zero_extendqisi2
 2112 05c4 3B2B     		cmp	r3, #59
 2113 05c6 08D9     		bls	.L131
 553:.\main.c      ****         			count_protector=0;
ARM GAS  C:\Users\RECEPC~1\AppData\Local\Temp\ccoGpf2X.s 			page 67


 2114              		.loc 1 553 0
 2115 05c8 0023     		movs	r3, #0
 2116 05ca 844A     		ldr	r2, .L269+12
 2117 05cc 1360     		str	r3, [r2]
 554:.\main.c      ****                     SetPicture(1,DISPLAY_INICIO0);
 2118              		.loc 1 554 0
 2119 05ce 844A     		ldr	r2, .L269+16
 2120 05d0 1370     		strb	r3, [r2]
 555:.\main.c      ****         		}
 2121              		.loc 1 555 0
 2122 05d2 0120     		movs	r0, #1
 2123 05d4 0146     		mov	r1, r0
 2124 05d6 FFF7FEFF 		bl	SetPicture
 2125              	.LVL192:
 2126              	.L131:
 558:.\main.c      ****                 if((Display1_rxBuffer[0]==0xAA) && (Display1_rxBuffer[6]==0xC3) && (Display1_rxBuff
 2127              		.loc 1 558 0
 2128 05da FFF7FEFF 		bl	Display1_GetRxBufferSize
 2129              	.LVL193:
 2130 05de 0828     		cmp	r0, #8
 2131 05e0 1DD1     		bne	.L132
 559:.\main.c      ****                     switch(Display1_rxBuffer[3]){                        
 2132              		.loc 1 559 0
 2133 05e2 814B     		ldr	r3, .L269+24
 2134 05e4 1B78     		ldrb	r3, [r3]	@ zero_extendqisi2
 2135 05e6 DBB2     		uxtb	r3, r3
 2136 05e8 AA2B     		cmp	r3, #170
 2137 05ea 15D1     		bne	.L133
 559:.\main.c      ****                     switch(Display1_rxBuffer[3]){                        
 2138              		.loc 1 559 0 is_stmt 0 discriminator 1
 2139 05ec 7E4B     		ldr	r3, .L269+24
 2140 05ee 9B79     		ldrb	r3, [r3, #6]	@ zero_extendqisi2
 2141 05f0 DBB2     		uxtb	r3, r3
 2142 05f2 C32B     		cmp	r3, #195
 2143 05f4 10D1     		bne	.L133
 559:.\main.c      ****                     switch(Display1_rxBuffer[3]){                        
 2144              		.loc 1 559 0 discriminator 2
 2145 05f6 7C4B     		ldr	r3, .L269+24
 2146 05f8 DB79     		ldrb	r3, [r3, #7]	@ zero_extendqisi2
 2147 05fa DBB2     		uxtb	r3, r3
 2148 05fc 3C2B     		cmp	r3, #60
 2149 05fe 0BD1     		bne	.L133
 560:.\main.c      ****                         case 0x7E:  //Pantalla Inicial                                             
 2150              		.loc 1 560 0 is_stmt 1
 2151 0600 794B     		ldr	r3, .L269+24
 2152 0602 DB78     		ldrb	r3, [r3, #3]	@ zero_extendqisi2
 2153 0604 DBB2     		uxtb	r3, r3
 2154 0606 7E2B     		cmp	r3, #126
 2155 0608 06D1     		bne	.L133
 562:.\main.c      ****                             flowDisplay1 = 0;
 2156              		.loc 1 562 0
 2157 060a 0120     		movs	r0, #1
 2158 060c 0146     		mov	r1, r0
 2159 060e FFF7FEFF 		bl	SetPicture
 2160              	.LVL194:
 563:.\main.c      ****                         break;
 2161              		.loc 1 563 0
ARM GAS  C:\Users\RECEPC~1\AppData\Local\Temp\ccoGpf2X.s 			page 68


 2162 0612 0022     		movs	r2, #0
 2163 0614 714B     		ldr	r3, .L269+12
 2164 0616 1A60     		str	r2, [r3]
 2165              	.L133:
 567:.\main.c      ****             }
 2166              		.loc 1 567 0
 2167 0618 0A20     		movs	r0, #10
 2168 061a FFF7FEFF 		bl	CyDelay
 2169              	.LVL195:
 2170              	.L132:
 569:.\main.c      ****         break;
 2171              		.loc 1 569 0
 2172 061e FFF7FEFF 		bl	Display1_ClearRxBuffer
 2173              	.LVL196:
 570:.\main.c      ****             
 2174              		.loc 1 570 0
 2175 0622 00F053BE 		b	.L70
 2176              	.L81:
 573:.\main.c      ****             switch (localStatePump){
 2177              		.loc 1 573 0
 2178 0626 6B4B     		ldr	r3, .L269+4
 2179 0628 1878     		ldrb	r0, [r3]	@ zero_extendqisi2
 2180 062a FFF7FEFF 		bl	get_state
 2181              	.LVL197:
 574:.\main.c      ****                 case 0x06://Espera - venta cero
 2182              		.loc 1 574 0
 2183 062e 0638     		subs	r0, r0, #6
 2184              	.LVL198:
 2185 0630 0528     		cmp	r0, #5
 2186 0632 00F24B86 		bhi	.L70
 2187 0636 DFE810F0 		tbh	[pc, r0, lsl #1]
 2188              	.L136:
 2189 063a 0600     		.2byte	(.L135-.L136)/2
 2190 063c 4906     		.2byte	(.L70-.L136)/2
 2191 063e 4906     		.2byte	(.L70-.L136)/2
 2192 0640 1200     		.2byte	(.L137-.L136)/2
 2193 0642 1B00     		.2byte	(.L138-.L136)/2
 2194 0644 4200     		.2byte	(.L139-.L136)/2
 2195              		.p2align 1
 2196              	.L135:
 576:.\main.c      ****                     bufferDisplay1.flagActiveSale = false;
 2197              		.loc 1 576 0
 2198 0646 0023     		movs	r3, #0
 2199 0648 644A     		ldr	r2, .L269+12
 2200 064a 1360     		str	r3, [r2]
 577:.\main.c      ****                     SetPicture(1,DISPLAY_INICIO0);
 2201              		.loc 1 577 0
 2202 064c 624A     		ldr	r2, .L269+8
 2203 064e 82F87132 		strb	r3, [r2, #625]
 578:.\main.c      ****                 break;
 2204              		.loc 1 578 0
 2205 0652 0120     		movs	r0, #1
 2206 0654 0146     		mov	r1, r0
 2207 0656 FFF7FEFF 		bl	SetPicture
 2208              	.LVL199:
 579:.\main.c      ****                 case 0x09://Espera
 2209              		.loc 1 579 0
ARM GAS  C:\Users\RECEPC~1\AppData\Local\Temp\ccoGpf2X.s 			page 69


 2210 065a 00F037BE 		b	.L70
 2211              	.L137:
 581:.\main.c      ****                     bufferDisplay1.flagEndSale = false;
 2212              		.loc 1 581 0
 2213 065e 5E4B     		ldr	r3, .L269+8
 2214 0660 0122     		movs	r2, #1
 2215 0662 83F87122 		strb	r2, [r3, #625]
 582:.\main.c      ****                 break;
 2216              		.loc 1 582 0
 2217 0666 0022     		movs	r2, #0
 2218 0668 83F80321 		strb	r2, [r3, #259]
 583:.\main.c      ****                 case 0x0A: //reporte fin venta
 2219              		.loc 1 583 0
 2220 066c 00F02EBE 		b	.L70
 2221              	.L138:
 585:.\main.c      ****                     if(bufferDisplay1.flagPrint ==1){
 2222              		.loc 1 585 0
 2223 0670 584B     		ldr	r3, .L269+4
 2224 0672 1878     		ldrb	r0, [r3]	@ zero_extendqisi2
 2225 0674 FFF7FEFF 		bl	getSale
 2226              	.LVL200:
 586:.\main.c      ****                         imprimir(printPortA,side.a.dir);
 2227              		.loc 1 586 0
 2228 0678 574B     		ldr	r3, .L269+8
 2229 067a 93F87032 		ldrb	r3, [r3, #624]	@ zero_extendqisi2
 2230 067e 012B     		cmp	r3, #1
 2231 0680 0DD1     		bne	.L140
 587:.\main.c      ****                         flowDisplay1 = 0;
 2232              		.loc 1 587 0
 2233 0682 5A4B     		ldr	r3, .L269+28
 2234 0684 1878     		ldrb	r0, [r3]	@ zero_extendqisi2
 2235 0686 534B     		ldr	r3, .L269+4
 2236 0688 1978     		ldrb	r1, [r3]	@ zero_extendqisi2
 2237 068a FFF7FEFF 		bl	imprimir
 2238              	.LVL201:
 588:.\main.c      ****                         SetPicture(1,DISPLAY_INICIO0); 
 2239              		.loc 1 588 0
 2240 068e 0022     		movs	r2, #0
 2241 0690 524B     		ldr	r3, .L269+12
 2242 0692 1A60     		str	r2, [r3]
 589:.\main.c      ****                     }else{
 2243              		.loc 1 589 0
 2244 0694 0120     		movs	r0, #1
 2245 0696 0146     		mov	r1, r0
 2246 0698 FFF7FEFF 		bl	SetPicture
 2247              	.LVL202:
 2248 069c 09E0     		b	.L141
 2249              	.L140:
 591:.\main.c      ****                         bufferDisplay1.flagEndSale = true;
 2250              		.loc 1 591 0
 2251 069e 0622     		movs	r2, #6
 2252 06a0 4E4B     		ldr	r3, .L269+12
 2253 06a2 1A60     		str	r2, [r3]
 592:.\main.c      ****                         SetPicture(1,DISPLAY_DESEA_IMPRIMIR_RECIBO); 
 2254              		.loc 1 592 0
 2255 06a4 0120     		movs	r0, #1
 2256 06a6 4C4B     		ldr	r3, .L269+8
ARM GAS  C:\Users\RECEPC~1\AppData\Local\Temp\ccoGpf2X.s 			page 70


 2257 06a8 83F80301 		strb	r0, [r3, #259]
 593:.\main.c      ****                     }
 2258              		.loc 1 593 0
 2259 06ac 0B21     		movs	r1, #11
 2260 06ae FFF7FEFF 		bl	SetPicture
 2261              	.LVL203:
 2262              	.L141:
 595:.\main.c      ****                 break;
 2263              		.loc 1 595 0
 2264 06b2 0022     		movs	r2, #0
 2265 06b4 484B     		ldr	r3, .L269+8
 2266 06b6 83F87122 		strb	r2, [r3, #625]
 596:.\main.c      ****                 case 0x0B://Reporte de venta
 2267              		.loc 1 596 0
 2268 06ba 00F007BE 		b	.L70
 2269              	.L139:
 598:.\main.c      ****                     if(bufferDisplay1.flagPrint ==1){
 2270              		.loc 1 598 0
 2271 06be 454B     		ldr	r3, .L269+4
 2272 06c0 1878     		ldrb	r0, [r3]	@ zero_extendqisi2
 2273 06c2 FFF7FEFF 		bl	getSale
 2274              	.LVL204:
 599:.\main.c      ****                         imprimir(printPortA,side.a.dir);
 2275              		.loc 1 599 0
 2276 06c6 444B     		ldr	r3, .L269+8
 2277 06c8 93F87032 		ldrb	r3, [r3, #624]	@ zero_extendqisi2
 2278 06cc 012B     		cmp	r3, #1
 2279 06ce 0DD1     		bne	.L142
 600:.\main.c      ****                         flowDisplay1 = 0;
 2280              		.loc 1 600 0
 2281 06d0 464B     		ldr	r3, .L269+28
 2282 06d2 1878     		ldrb	r0, [r3]	@ zero_extendqisi2
 2283 06d4 3F4B     		ldr	r3, .L269+4
 2284 06d6 1978     		ldrb	r1, [r3]	@ zero_extendqisi2
 2285 06d8 FFF7FEFF 		bl	imprimir
 2286              	.LVL205:
 601:.\main.c      ****                         SetPicture(1,DISPLAY_INICIO0); 
 2287              		.loc 1 601 0
 2288 06dc 0022     		movs	r2, #0
 2289 06de 3F4B     		ldr	r3, .L269+12
 2290 06e0 1A60     		str	r2, [r3]
 602:.\main.c      ****                     }else{
 2291              		.loc 1 602 0
 2292 06e2 0120     		movs	r0, #1
 2293 06e4 0146     		mov	r1, r0
 2294 06e6 FFF7FEFF 		bl	SetPicture
 2295              	.LVL206:
 2296 06ea 09E0     		b	.L143
 2297              	.L142:
 604:.\main.c      ****                         bufferDisplay1.flagEndSale = true;
 2298              		.loc 1 604 0
 2299 06ec 0622     		movs	r2, #6
 2300 06ee 3B4B     		ldr	r3, .L269+12
 2301 06f0 1A60     		str	r2, [r3]
 605:.\main.c      ****                         SetPicture(1,DISPLAY_DESEA_IMPRIMIR_RECIBO); 
 2302              		.loc 1 605 0
 2303 06f2 0120     		movs	r0, #1
ARM GAS  C:\Users\RECEPC~1\AppData\Local\Temp\ccoGpf2X.s 			page 71


 2304 06f4 384B     		ldr	r3, .L269+8
 2305 06f6 83F80301 		strb	r0, [r3, #259]
 606:.\main.c      ****                     }
 2306              		.loc 1 606 0
 2307 06fa 0B21     		movs	r1, #11
 2308 06fc FFF7FEFF 		bl	SetPicture
 2309              	.LVL207:
 2310              	.L143:
 608:.\main.c      ****                 break;
 2311              		.loc 1 608 0
 2312 0700 0022     		movs	r2, #0
 2313 0702 354B     		ldr	r3, .L269+8
 2314 0704 83F87122 		strb	r2, [r3, #625]
 609:.\main.c      ****                 
 2315              		.loc 1 609 0
 2316 0708 00F0E0BD 		b	.L70
 2317              	.L82:
 616:.\main.c      ****                 case 0: //Cancelar
 2318              		.loc 1 616 0
 2319 070c 0120     		movs	r0, #1
 2320 070e 0A21     		movs	r1, #10
 2321 0710 0022     		movs	r2, #0
 2322 0712 FFF7FEFF 		bl	alphanumeric_keyboard
 2323              	.LVL208:
 2324 0716 18B1     		cbz	r0, .L144
 2325 0718 0128     		cmp	r0, #1
 2326 071a 45D0     		beq	.L145
 2327 071c 00F0D6BD 		b	.L70
 2328              	.L144:
 618:.\main.c      ****                         case 1://Placa
 2329              		.loc 1 618 0
 2330 0720 2D4B     		ldr	r3, .L269+8
 2331 0722 93F80031 		ldrb	r3, [r3, #256]	@ zero_extendqisi2
 2332 0726 013B     		subs	r3, r3, #1
 2333 0728 032B     		cmp	r3, #3
 2334 072a 39D8     		bhi	.L146
 2335 072c DFE803F0 		tbb	[pc, r3]
 2336              	.L148:
 2337 0730 0A       		.byte	(.L248-.L148)/2
 2338 0731 1D       		.byte	(.L249-.L148)/2
 2339 0732 29       		.byte	(.L250-.L148)/2
 2340 0733 35       		.byte	(.L251-.L148)/2
 2341              	.LVL209:
 2342              		.p2align 1
 2343              	.L152:
 621:.\main.c      ****                             }
 2344              		.loc 1 621 0 discriminator 3
 2345 0734 284A     		ldr	r2, .L269+8
 2346 0736 1A44     		add	r2, r2, r3
 2347 0738 0021     		movs	r1, #0
 2348 073a 82F8DF10 		strb	r1, [r2, #223]
 620:.\main.c      ****                                 bufferDisplay1.licenceSale[x]=0;
 2349              		.loc 1 620 0 discriminator 3
 2350 073e 0133     		adds	r3, r3, #1
 2351              	.LVL210:
 2352 0740 DBB2     		uxtb	r3, r3
 2353              	.LVL211:
ARM GAS  C:\Users\RECEPC~1\AppData\Local\Temp\ccoGpf2X.s 			page 72


 2354 0742 00E0     		b	.L147
 2355              	.LVL212:
 2356              	.L248:
 618:.\main.c      ****                         case 1://Placa
 2357              		.loc 1 618 0
 2358 0744 0023     		movs	r3, #0
 2359              	.L147:
 2360              	.LVL213:
 620:.\main.c      ****                                 bufferDisplay1.licenceSale[x]=0;
 2361              		.loc 1 620 0 discriminator 1
 2362 0746 0A2B     		cmp	r3, #10
 2363 0748 F4D9     		bls	.L152
 623:.\main.c      ****                             SetPicture(1,DISPLAY_INICIO0);
 2364              		.loc 1 623 0
 2365 074a 0022     		movs	r2, #0
 2366 074c 234B     		ldr	r3, .L269+12
 2367              	.LVL214:
 2368 074e 1A60     		str	r2, [r3]
 624:.\main.c      ****                         break;
 2369              		.loc 1 624 0
 2370 0750 0120     		movs	r0, #1
 2371 0752 0146     		mov	r1, r0
 2372 0754 FFF7FEFF 		bl	SetPicture
 2373              	.LVL215:
 625:.\main.c      ****                         
 2374              		.loc 1 625 0
 2375 0758 22E0     		b	.L146
 2376              	.LVL216:
 2377              	.L153:
 629:.\main.c      ****                             }
 2378              		.loc 1 629 0 discriminator 3
 2379 075a 1F4A     		ldr	r2, .L269+8
 2380 075c 1A44     		add	r2, r2, r3
 2381 075e 0021     		movs	r1, #0
 2382 0760 82F8EA10 		strb	r1, [r2, #234]
 628:.\main.c      ****                                 bufferDisplay1.mileageSale[x]=0;
 2383              		.loc 1 628 0 discriminator 3
 2384 0764 0133     		adds	r3, r3, #1
 2385              	.LVL217:
 2386 0766 DBB2     		uxtb	r3, r3
 2387              	.LVL218:
 2388 0768 00E0     		b	.L149
 2389              	.LVL219:
 2390              	.L249:
 618:.\main.c      ****                         case 1://Placa
 2391              		.loc 1 618 0
 2392 076a 0023     		movs	r3, #0
 2393              	.L149:
 2394              	.LVL220:
 628:.\main.c      ****                                 bufferDisplay1.mileageSale[x]=0;
 2395              		.loc 1 628 0 discriminator 1
 2396 076c 0A2B     		cmp	r3, #10
 2397 076e F4D9     		bls	.L153
 2398 0770 16E0     		b	.L146
 2399              	.L154:
 635:.\main.c      ****                             }
 2400              		.loc 1 635 0 discriminator 3
ARM GAS  C:\Users\RECEPC~1\AppData\Local\Temp\ccoGpf2X.s 			page 73


 2401 0772 194A     		ldr	r2, .L269+8
 2402 0774 1A44     		add	r2, r2, r3
 2403 0776 0021     		movs	r1, #0
 2404 0778 82F8F510 		strb	r1, [r2, #245]
 634:.\main.c      ****                                 bufferDisplay1.identySale[x]=0;
 2405              		.loc 1 634 0 discriminator 3
 2406 077c 0133     		adds	r3, r3, #1
 2407              	.LVL221:
 2408 077e DBB2     		uxtb	r3, r3
 2409              	.LVL222:
 2410 0780 00E0     		b	.L150
 2411              	.LVL223:
 2412              	.L250:
 618:.\main.c      ****                         case 1://Placa
 2413              		.loc 1 618 0
 2414 0782 0023     		movs	r3, #0
 2415              	.L150:
 2416              	.LVL224:
 634:.\main.c      ****                                 bufferDisplay1.identySale[x]=0;
 2417              		.loc 1 634 0 discriminator 1
 2418 0784 0A2B     		cmp	r3, #10
 2419 0786 F4D9     		bls	.L154
 2420 0788 0AE0     		b	.L146
 2421              	.L155:
 640:.\main.c      ****                             }
 2422              		.loc 1 640 0 discriminator 3
 2423 078a 134A     		ldr	r2, .L269+8
 2424 078c 1A44     		add	r2, r2, r3
 2425 078e 0021     		movs	r1, #0
 2426 0790 82F87212 		strb	r1, [r2, #626]
 639:.\main.c      ****                                 bufferDisplay1.shiftId[x]=0;
 2427              		.loc 1 639 0 discriminator 3
 2428 0794 0133     		adds	r3, r3, #1
 2429              	.LVL225:
 2430 0796 DBB2     		uxtb	r3, r3
 2431              	.LVL226:
 2432 0798 00E0     		b	.L151
 2433              	.LVL227:
 2434              	.L251:
 618:.\main.c      ****                         case 1://Placa
 2435              		.loc 1 618 0
 2436 079a 0023     		movs	r3, #0
 2437              	.L151:
 2438              	.LVL228:
 639:.\main.c      ****                                 bufferDisplay1.shiftId[x]=0;
 2439              		.loc 1 639 0 discriminator 1
 2440 079c 0A2B     		cmp	r3, #10
 2441 079e F4D9     		bls	.L155
 2442              	.LVL229:
 2443              	.L146:
 644:.\main.c      ****                 break;
 2444              		.loc 1 644 0
 2445 07a0 FFF7FEFF 		bl	Display1_ClearRxBuffer
 2446              	.LVL230:
 645:.\main.c      ****                     
 2447              		.loc 1 645 0
 2448 07a4 00F092BD 		b	.L70
ARM GAS  C:\Users\RECEPC~1\AppData\Local\Temp\ccoGpf2X.s 			page 74


 2449              	.L145:
 648:.\main.c      ****                         case 1://Placa
 2450              		.loc 1 648 0
 2451 07a8 0B4B     		ldr	r3, .L269+8
 2452 07aa 93F80031 		ldrb	r3, [r3, #256]	@ zero_extendqisi2
 2453 07ae 013B     		subs	r3, r3, #1
 2454 07b0 032B     		cmp	r3, #3
 2455 07b2 00F28080 		bhi	.L156
 2456 07b6 DFE803F0 		tbb	[pc, r3]
 2457              	.L158:
 2458 07ba 1B       		.byte	(.L252-.L158)/2
 2459 07bb 43       		.byte	(.L253-.L158)/2
 2460 07bc 59       		.byte	(.L254-.L158)/2
 2461 07bd 5F       		.byte	(.L161-.L158)/2
 2462              	.LVL231:
 2463              		.p2align 1
 2464              	.L162:
 651:.\main.c      ****                             }
 2465              		.loc 1 651 0 discriminator 3
 2466 07be 064A     		ldr	r2, .L269+8
 2467 07c0 1A44     		add	r2, r2, r3
 2468 07c2 92F84B10 		ldrb	r1, [r2, #75]	@ zero_extendqisi2
 2469 07c6 82F8DF10 		strb	r1, [r2, #223]
 650:.\main.c      ****                                 bufferDisplay1.licenceSale[x]=bufferDisplay1.valueKeys[x];
 2470              		.loc 1 650 0 discriminator 3
 2471 07ca 0133     		adds	r3, r3, #1
 2472              	.LVL232:
 2473 07cc DBB2     		uxtb	r3, r3
 2474              	.LVL233:
 2475 07ce 10E0     		b	.L157
 2476              	.L270:
 2477              		.align	2
 2478              	.L269:
 2479 07d0 00000000 		.word	animacion
 2480 07d4 00000000 		.word	side
 2481 07d8 00000000 		.word	bufferDisplay1
 2482 07dc 00000000 		.word	flowDisplay1
 2483 07e0 00000000 		.word	count_protector
 2484 07e4 65000000 		.word	bufferDisplay1+101
 2485 07e8 00000000 		.word	Display1_rxBuffer
 2486 07ec 00000000 		.word	printPortA
 2487              	.LVL234:
 2488              	.L252:
 648:.\main.c      ****                         case 1://Placa
 2489              		.loc 1 648 0
 2490 07f0 0023     		movs	r3, #0
 2491              	.L157:
 2492              	.LVL235:
 650:.\main.c      ****                                 bufferDisplay1.licenceSale[x]=bufferDisplay1.valueKeys[x];
 2493              		.loc 1 650 0 discriminator 1
 2494 07f2 AD4A     		ldr	r2, .L271
 2495 07f4 92F84B20 		ldrb	r2, [r2, #75]	@ zero_extendqisi2
 2496 07f8 9A42     		cmp	r2, r3
 2497 07fa E0D2     		bcs	.L162
 653:.\main.c      ****                                 imprimir(printPortA,side.a.dir);
 2498              		.loc 1 653 0
 2499 07fc AA4B     		ldr	r3, .L271
ARM GAS  C:\Users\RECEPC~1\AppData\Local\Temp\ccoGpf2X.s 			page 75


 2500              	.LVL236:
 2501 07fe 93F80331 		ldrb	r3, [r3, #259]	@ zero_extendqisi2
 2502 0802 6BB1     		cbz	r3, .L163
 654:.\main.c      ****                                 flowDisplay1 = 0;
 2503              		.loc 1 654 0
 2504 0804 A94B     		ldr	r3, .L271+4
 2505 0806 1878     		ldrb	r0, [r3]	@ zero_extendqisi2
 2506 0808 A94B     		ldr	r3, .L271+8
 2507 080a 1978     		ldrb	r1, [r3]	@ zero_extendqisi2
 2508 080c FFF7FEFF 		bl	imprimir
 2509              	.LVL237:
 655:.\main.c      ****                                 SetPicture(1,DISPLAY_INICIO0); 
 2510              		.loc 1 655 0
 2511 0810 0022     		movs	r2, #0
 2512 0812 A84B     		ldr	r3, .L271+12
 2513 0814 1A60     		str	r2, [r3]
 656:.\main.c      ****                             }else{
 2514              		.loc 1 656 0
 2515 0816 0120     		movs	r0, #1
 2516 0818 0146     		mov	r1, r0
 2517 081a FFF7FEFF 		bl	SetPicture
 2518              	.LVL238:
 2519 081e 4AE0     		b	.L156
 2520              	.L163:
 658:.\main.c      ****                                 SetPicture(1,DISPLAY_SUBA_MANIJA);
 2521              		.loc 1 658 0
 2522 0820 0721     		movs	r1, #7
 2523 0822 A44B     		ldr	r3, .L271+12
 2524 0824 1960     		str	r1, [r3]
 659:.\main.c      ****                             }
 2525              		.loc 1 659 0
 2526 0826 0120     		movs	r0, #1
 2527 0828 FFF7FEFF 		bl	SetPicture
 2528              	.LVL239:
 2529 082c 43E0     		b	.L156
 2530              	.LVL240:
 2531              	.L164:
 665:.\main.c      ****                             }
 2532              		.loc 1 665 0 discriminator 3
 2533 082e 9E4A     		ldr	r2, .L271
 2534 0830 1A44     		add	r2, r2, r3
 2535 0832 92F84B10 		ldrb	r1, [r2, #75]	@ zero_extendqisi2
 2536 0836 82F8EA10 		strb	r1, [r2, #234]
 664:.\main.c      ****                                 bufferDisplay1.mileageSale[x]=bufferDisplay1.valueKeys[x];
 2537              		.loc 1 664 0 discriminator 3
 2538 083a 0133     		adds	r3, r3, #1
 2539              	.LVL241:
 2540 083c DBB2     		uxtb	r3, r3
 2541              	.LVL242:
 2542 083e 00E0     		b	.L159
 2543              	.LVL243:
 2544              	.L253:
 648:.\main.c      ****                         case 1://Placa
 2545              		.loc 1 648 0
 2546 0840 0023     		movs	r3, #0
 2547              	.L159:
 2548              	.LVL244:
ARM GAS  C:\Users\RECEPC~1\AppData\Local\Temp\ccoGpf2X.s 			page 76


 664:.\main.c      ****                                 bufferDisplay1.mileageSale[x]=bufferDisplay1.valueKeys[x];
 2549              		.loc 1 664 0 discriminator 1
 2550 0842 994A     		ldr	r2, .L271
 2551 0844 92F84B20 		ldrb	r2, [r2, #75]	@ zero_extendqisi2
 2552 0848 9A42     		cmp	r2, r3
 2553 084a F0D2     		bcs	.L164
 667:.\main.c      ****                             SetPicture(1,DISPLAY_SUBA_MANIJA);
 2554              		.loc 1 667 0
 2555 084c 0721     		movs	r1, #7
 2556 084e 994B     		ldr	r3, .L271+12
 2557              	.LVL245:
 2558 0850 1960     		str	r1, [r3]
 668:.\main.c      ****                         break;
 2559              		.loc 1 668 0
 2560 0852 0120     		movs	r0, #1
 2561 0854 FFF7FEFF 		bl	SetPicture
 2562              	.LVL246:
 669:.\main.c      ****                         
 2563              		.loc 1 669 0
 2564 0858 2DE0     		b	.L156
 2565              	.LVL247:
 2566              	.L165:
 673:.\main.c      ****                             }
 2567              		.loc 1 673 0 discriminator 3
 2568 085a 934A     		ldr	r2, .L271
 2569 085c 1A44     		add	r2, r2, r3
 2570 085e 92F84B10 		ldrb	r1, [r2, #75]	@ zero_extendqisi2
 2571 0862 82F8F510 		strb	r1, [r2, #245]
 672:.\main.c      ****                                 bufferDisplay1.identySale[x]=bufferDisplay1.valueKeys[x];
 2572              		.loc 1 672 0 discriminator 3
 2573 0866 0133     		adds	r3, r3, #1
 2574              	.LVL248:
 2575 0868 DBB2     		uxtb	r3, r3
 2576              	.LVL249:
 2577 086a 00E0     		b	.L160
 2578              	.LVL250:
 2579              	.L254:
 648:.\main.c      ****                         case 1://Placa
 2580              		.loc 1 648 0
 2581 086c 0023     		movs	r3, #0
 2582              	.L160:
 2583              	.LVL251:
 672:.\main.c      ****                                 bufferDisplay1.identySale[x]=bufferDisplay1.valueKeys[x];
 2584              		.loc 1 672 0 discriminator 1
 2585 086e 8E4A     		ldr	r2, .L271
 2586 0870 92F84B20 		ldrb	r2, [r2, #75]	@ zero_extendqisi2
 2587 0874 9A42     		cmp	r2, r3
 2588 0876 F0D2     		bcs	.L165
 2589              	.LVL252:
 2590              	.L161:
 648:.\main.c      ****                         case 1://Placa
 2591              		.loc 1 648 0 discriminator 1
 2592 0878 0023     		movs	r3, #0
 2593 087a 07E0     		b	.L166
 2594              	.LVL253:
 2595              	.L167:
 677:.\main.c      ****                             }
ARM GAS  C:\Users\RECEPC~1\AppData\Local\Temp\ccoGpf2X.s 			page 77


 2596              		.loc 1 677 0 discriminator 3
 2597 087c 8A4A     		ldr	r2, .L271
 2598 087e 1A44     		add	r2, r2, r3
 2599 0880 92F84B10 		ldrb	r1, [r2, #75]	@ zero_extendqisi2
 2600 0884 82F87212 		strb	r1, [r2, #626]
 676:.\main.c      ****                                 bufferDisplay1.shiftId[x] =bufferDisplay1.valueKeys[x];
 2601              		.loc 1 676 0 discriminator 3
 2602 0888 0133     		adds	r3, r3, #1
 2603              	.LVL254:
 2604 088a DBB2     		uxtb	r3, r3
 2605              	.LVL255:
 2606              	.L166:
 676:.\main.c      ****                                 bufferDisplay1.shiftId[x] =bufferDisplay1.valueKeys[x];
 2607              		.loc 1 676 0 is_stmt 0 discriminator 1
 2608 088c 0A2B     		cmp	r3, #10
 2609 088e F5D9     		bls	.L167
 679:.\main.c      ****                             numberKeys1 = 0;
 2610              		.loc 1 679 0 is_stmt 1
 2611 0890 0E22     		movs	r2, #14
 2612 0892 884B     		ldr	r3, .L271+12
 2613              	.LVL256:
 2614 0894 1A60     		str	r2, [r3]
 680:.\main.c      ****                             hiddenKeys = 5;
 2615              		.loc 1 680 0
 2616 0896 0022     		movs	r2, #0
 2617 0898 874B     		ldr	r3, .L271+16
 2618 089a 1A70     		strb	r2, [r3]
 681:.\main.c      ****                             controlChar ='*';
 2619              		.loc 1 681 0
 2620 089c 0523     		movs	r3, #5
 2621 089e 874A     		ldr	r2, .L271+20
 2622 08a0 1370     		strb	r3, [r2]
 682:.\main.c      ****                             bufferDisplay1.flagKeyboard = 5;
 2623              		.loc 1 682 0
 2624 08a2 2A21     		movs	r1, #42
 2625 08a4 864A     		ldr	r2, .L271+24
 2626 08a6 1170     		strb	r1, [r2]
 683:.\main.c      ****                             SetPicture(1,DISPLAY_INGRESE_PASSWORD);
 2627              		.loc 1 683 0
 2628 08a8 7F4A     		ldr	r2, .L271
 2629 08aa 82F80031 		strb	r3, [r2, #256]
 684:.\main.c      ****                         break;
 2630              		.loc 1 684 0
 2631 08ae 0120     		movs	r0, #1
 2632 08b0 2521     		movs	r1, #37
 2633 08b2 FFF7FEFF 		bl	SetPicture
 2634              	.LVL257:
 2635              	.L156:
 687:.\main.c      ****                 break;
 2636              		.loc 1 687 0
 2637 08b6 FFF7FEFF 		bl	Display1_ClearRxBuffer
 2638              	.LVL258:
 688:.\main.c      ****             }            
 2639              		.loc 1 688 0
 2640 08ba 00F007BD 		b	.L70
 2641              	.L83:
 693:.\main.c      ****                 if((Display1_rxBuffer[0]==0xAA) && (Display1_rxBuffer[6]==0xC3) && (Display1_rxBuff
ARM GAS  C:\Users\RECEPC~1\AppData\Local\Temp\ccoGpf2X.s 			page 78


 2642              		.loc 1 693 0
 2643 08be FFF7FEFF 		bl	Display1_GetRxBufferSize
 2644              	.LVL259:
 2645 08c2 0828     		cmp	r0, #8
 2646 08c4 40F00285 		bne	.L70
 694:.\main.c      ****                     switch(Display1_rxBuffer[3]){
 2647              		.loc 1 694 0
 2648 08c8 7E4B     		ldr	r3, .L271+28
 2649 08ca 1B78     		ldrb	r3, [r3]	@ zero_extendqisi2
 2650 08cc DBB2     		uxtb	r3, r3
 2651 08ce AA2B     		cmp	r3, #170
 2652 08d0 35D1     		bne	.L168
 694:.\main.c      ****                     switch(Display1_rxBuffer[3]){
 2653              		.loc 1 694 0 is_stmt 0 discriminator 1
 2654 08d2 7C4B     		ldr	r3, .L271+28
 2655 08d4 9B79     		ldrb	r3, [r3, #6]	@ zero_extendqisi2
 2656 08d6 DBB2     		uxtb	r3, r3
 2657 08d8 C32B     		cmp	r3, #195
 2658 08da 30D1     		bne	.L168
 694:.\main.c      ****                     switch(Display1_rxBuffer[3]){
 2659              		.loc 1 694 0 discriminator 2
 2660 08dc 794B     		ldr	r3, .L271+28
 2661 08de DB79     		ldrb	r3, [r3, #7]	@ zero_extendqisi2
 2662 08e0 DBB2     		uxtb	r3, r3
 2663 08e2 3C2B     		cmp	r3, #60
 2664 08e4 2BD1     		bne	.L168
 695:.\main.c      ****                         case 0xB6:  //Solicitud ibutton  
 2665              		.loc 1 695 0 is_stmt 1
 2666 08e6 774B     		ldr	r3, .L271+28
 2667 08e8 DB78     		ldrb	r3, [r3, #3]	@ zero_extendqisi2
 2668 08ea DBB2     		uxtb	r3, r3
 2669 08ec B62B     		cmp	r3, #182
 2670 08ee 04D0     		beq	.L169
 2671 08f0 B72B     		cmp	r3, #183
 2672 08f2 10D0     		beq	.L170
 2673 08f4 7E2B     		cmp	r3, #126
 2674 08f6 22D1     		bne	.L168
 2675 08f8 1AE0     		b	.L171
 2676              	.L169:
 697:.\main.c      ****                             numberKeys1 = 0;                            
 2677              		.loc 1 697 0
 2678 08fa 0B22     		movs	r2, #11
 2679 08fc 6D4B     		ldr	r3, .L271+12
 2680 08fe 1A60     		str	r2, [r3]
 698:.\main.c      ****                             bufferDisplay1.flagPrint =  1;
 2681              		.loc 1 698 0
 2682 0900 0022     		movs	r2, #0
 2683 0902 6D4B     		ldr	r3, .L271+16
 2684 0904 1A70     		strb	r2, [r3]
 699:.\main.c      ****                             SetPicture(1,DISPLAY_ESPERANDO_ID);                            
 2685              		.loc 1 699 0
 2686 0906 0120     		movs	r0, #1
 2687 0908 674B     		ldr	r3, .L271
 2688 090a 83F87002 		strb	r0, [r3, #624]
 700:.\main.c      ****                         break; 
 2689              		.loc 1 700 0
 2690 090e 1221     		movs	r1, #18
ARM GAS  C:\Users\RECEPC~1\AppData\Local\Temp\ccoGpf2X.s 			page 79


 2691 0910 FFF7FEFF 		bl	SetPicture
 2692              	.LVL260:
 701:.\main.c      ****                         case 0xB7:  //ID por número
 2693              		.loc 1 701 0
 2694 0914 13E0     		b	.L168
 2695              	.L170:
 703:.\main.c      ****                             flowDisplay1 = 7;//Esperando estado del dispensador  
 2696              		.loc 1 703 0
 2697 0916 0023     		movs	r3, #0
 2698 0918 634A     		ldr	r2, .L271
 2699 091a 82F80031 		strb	r3, [r2, #256]
 704:.\main.c      ****                             count_protector=0;
 2700              		.loc 1 704 0
 2701 091e 0721     		movs	r1, #7
 2702 0920 644A     		ldr	r2, .L271+12
 2703 0922 1160     		str	r1, [r2]
 705:.\main.c      ****                             SetPicture(1,DISPLAY_SUBA_MANIJA);                            
 2704              		.loc 1 705 0
 2705 0924 684A     		ldr	r2, .L271+32
 2706 0926 1370     		strb	r3, [r2]
 706:.\main.c      ****                         break;
 2707              		.loc 1 706 0
 2708 0928 0120     		movs	r0, #1
 2709 092a FFF7FEFF 		bl	SetPicture
 2710              	.LVL261:
 707:.\main.c      ****                         case 0x7E:  //Pantalla Inicial                                             
 2711              		.loc 1 707 0
 2712 092e 06E0     		b	.L168
 2713              	.L171:
 709:.\main.c      ****                             flowDisplay1 = 0;
 2714              		.loc 1 709 0
 2715 0930 0120     		movs	r0, #1
 2716 0932 0146     		mov	r1, r0
 2717 0934 FFF7FEFF 		bl	SetPicture
 2718              	.LVL262:
 710:.\main.c      ****                         break;
 2719              		.loc 1 710 0
 2720 0938 0022     		movs	r2, #0
 2721 093a 5E4B     		ldr	r3, .L271+12
 2722 093c 1A60     		str	r2, [r3]
 2723              	.L168:
 714:.\main.c      ****                 Display1_ClearRxBuffer();
 2724              		.loc 1 714 0
 2725 093e 0A20     		movs	r0, #10
 2726 0940 FFF7FEFF 		bl	CyDelay
 2727              	.LVL263:
 715:.\main.c      ****             }                        
 2728              		.loc 1 715 0
 2729 0944 FFF7FEFF 		bl	Display1_ClearRxBuffer
 2730              	.LVL264:
 2731 0948 00F0C0BC 		b	.L70
 2732              	.L84:
 720:.\main.c      ****             Timer_Animacion_Start();
 2733              		.loc 1 720 0
 2734 094c 5F48     		ldr	r0, .L271+36
 2735 094e FFF7FEFF 		bl	isr_3_StartEx
 2736              	.LVL265:
ARM GAS  C:\Users\RECEPC~1\AppData\Local\Temp\ccoGpf2X.s 			page 80


 721:.\main.c      ****             if(touch_present(1)==1){
 2737              		.loc 1 721 0
 2738 0952 FFF7FEFF 		bl	Timer_Animacion_Start
 2739              	.LVL266:
 722:.\main.c      **** 				if(touch_write(1,0x33)){
 2740              		.loc 1 722 0
 2741 0956 0120     		movs	r0, #1
 2742 0958 FFF7FEFF 		bl	touch_present
 2743              	.LVL267:
 2744 095c 0128     		cmp	r0, #1
 2745 095e 5BD1     		bne	.L172
 723:.\main.c      **** 					for(x=1;x<=8;x++){
 2746              		.loc 1 723 0
 2747 0960 3321     		movs	r1, #51
 2748 0962 FFF7FEFF 		bl	touch_write
 2749              	.LVL268:
 2750 0966 40B9     		cbnz	r0, .L255
 2751 0968 56E0     		b	.L172
 2752              	.LVL269:
 2753              	.L174:
 725:.\main.c      **** 					}
 2754              		.loc 1 725 0 discriminator 3
 2755 096a 0120     		movs	r0, #1
 2756 096c FFF7FEFF 		bl	touch_read_byte
 2757              	.LVL270:
 2758 0970 574B     		ldr	r3, .L271+40
 2759 0972 1855     		strb	r0, [r3, r4]
 724:.\main.c      **** 						temporal[x]=touch_read_byte(1);
 2760              		.loc 1 724 0 discriminator 3
 2761 0974 0134     		adds	r4, r4, #1
 2762              	.LVL271:
 2763 0976 E4B2     		uxtb	r4, r4
 2764              	.LVL272:
 2765 0978 00E0     		b	.L173
 2766              	.LVL273:
 2767              	.L255:
 2768 097a 0124     		movs	r4, #1
 2769              	.L173:
 2770              	.LVL274:
 724:.\main.c      **** 						temporal[x]=touch_read_byte(1);
 2771              		.loc 1 724 0 is_stmt 0 discriminator 1
 2772 097c 082C     		cmp	r4, #8
 2773 097e F4D9     		bls	.L174
 2774 0980 0020     		movs	r0, #0
 2775 0982 0124     		movs	r4, #1
 2776              	.LVL275:
 2777 0984 05E0     		b	.L175
 2778              	.LVL276:
 2779              	.L176:
 729:.\main.c      ****                     }
 2780              		.loc 1 729 0 is_stmt 1 discriminator 3
 2781 0986 524B     		ldr	r3, .L271+40
 2782 0988 195D     		ldrb	r1, [r3, r4]	@ zero_extendqisi2
 2783 098a FFF7FEFF 		bl	crc_check
 2784              	.LVL277:
 728:.\main.c      ****                         y=crc_check(y,temporal[x]);
 2785              		.loc 1 728 0 discriminator 3
ARM GAS  C:\Users\RECEPC~1\AppData\Local\Temp\ccoGpf2X.s 			page 81


 2786 098e 0134     		adds	r4, r4, #1
 2787              	.LVL278:
 2788 0990 E4B2     		uxtb	r4, r4
 2789              	.LVL279:
 2790              	.L175:
 728:.\main.c      ****                         y=crc_check(y,temporal[x]);
 2791              		.loc 1 728 0 is_stmt 0 discriminator 1
 2792 0992 072C     		cmp	r4, #7
 2793 0994 F7D9     		bls	.L176
 731:.\main.c      **** 						bufferDisplay1.idSerial[0]=16;
 2794              		.loc 1 731 0 is_stmt 1
 2795 0996 4E4B     		ldr	r3, .L271+40
 2796 0998 1B7A     		ldrb	r3, [r3, #8]	@ zero_extendqisi2
 2797 099a 8342     		cmp	r3, r0
 2798 099c 3CD1     		bne	.L172
 732:.\main.c      **** 						y=16;
 2799              		.loc 1 732 0
 2800 099e 1023     		movs	r3, #16
 2801 09a0 414A     		ldr	r2, .L271
 2802 09a2 5370     		strb	r3, [r2, #1]
 2803              	.LVL280:
 734:.\main.c      **** 							if((temporal[x]&0x0F)>=10){
 2804              		.loc 1 734 0
 2805 09a4 0121     		movs	r1, #1
 2806 09a6 20E0     		b	.L177
 2807              	.LVL281:
 2808              	.L182:
 735:.\main.c      **** 								bufferDisplay1.idSerial[y]=(temporal[x]&0x0F)+55;
 2809              		.loc 1 735 0
 2810 09a8 494A     		ldr	r2, .L271+40
 2811 09aa 525C     		ldrb	r2, [r2, r1]	@ zero_extendqisi2
 2812 09ac 02F00F00 		and	r0, r2, #15
 2813 09b0 0928     		cmp	r0, #9
 2814 09b2 04DD     		ble	.L178
 736:.\main.c      **** 							}else{
 2815              		.loc 1 736 0
 2816 09b4 3C4C     		ldr	r4, .L271
 2817 09b6 1C44     		add	r4, r4, r3
 2818 09b8 3730     		adds	r0, r0, #55
 2819 09ba 6070     		strb	r0, [r4, #1]
 2820 09bc 03E0     		b	.L179
 2821              	.L178:
 738:.\main.c      **** 							}
 2822              		.loc 1 738 0
 2823 09be 3A4C     		ldr	r4, .L271
 2824 09c0 1C44     		add	r4, r4, r3
 2825 09c2 3030     		adds	r0, r0, #48
 2826 09c4 6070     		strb	r0, [r4, #1]
 2827              	.L179:
 740:.\main.c      **** 							if(((temporal[x]>>4)&0x0F)>=10){
 2828              		.loc 1 740 0
 2829 09c6 013B     		subs	r3, r3, #1
 2830              	.LVL282:
 2831 09c8 DBB2     		uxtb	r3, r3
 2832              	.LVL283:
 741:.\main.c      **** 								bufferDisplay1.idSerial[y]=((temporal[x]>>4)&0x0F)+55;
 2833              		.loc 1 741 0
ARM GAS  C:\Users\RECEPC~1\AppData\Local\Temp\ccoGpf2X.s 			page 82


 2834 09ca 1209     		lsrs	r2, r2, #4
 2835 09cc 092A     		cmp	r2, #9
 2836 09ce 04DD     		ble	.L180
 742:.\main.c      **** 							}else{
 2837              		.loc 1 742 0
 2838 09d0 3548     		ldr	r0, .L271
 2839 09d2 1844     		add	r0, r0, r3
 2840 09d4 3732     		adds	r2, r2, #55
 2841 09d6 4270     		strb	r2, [r0, #1]
 2842 09d8 03E0     		b	.L181
 2843              	.L180:
 744:.\main.c      **** 							}
 2844              		.loc 1 744 0
 2845 09da 3348     		ldr	r0, .L271
 2846 09dc 1844     		add	r0, r0, r3
 2847 09de 3032     		adds	r2, r2, #48
 2848 09e0 4270     		strb	r2, [r0, #1]
 2849              	.L181:
 746:.\main.c      **** 						}                        
 2850              		.loc 1 746 0 discriminator 2
 2851 09e2 013B     		subs	r3, r3, #1
 2852              	.LVL284:
 2853 09e4 DBB2     		uxtb	r3, r3
 2854              	.LVL285:
 734:.\main.c      **** 							if((temporal[x]&0x0F)>=10){
 2855              		.loc 1 734 0 discriminator 2
 2856 09e6 0131     		adds	r1, r1, #1
 2857              	.LVL286:
 2858 09e8 C9B2     		uxtb	r1, r1
 2859              	.LVL287:
 2860              	.L177:
 734:.\main.c      **** 							if((temporal[x]&0x0F)>=10){
 2861              		.loc 1 734 0 is_stmt 0 discriminator 1
 2862 09ea 0829     		cmp	r1, #8
 2863 09ec DCD9     		bls	.L182
 748:.\main.c      ****                         Display1_ClearRxBuffer();
 2864              		.loc 1 748 0 is_stmt 1
 2865 09ee 0120     		movs	r0, #1
 2866 09f0 1321     		movs	r1, #19
 2867              	.LVL288:
 2868 09f2 FFF7FEFF 		bl	SetPicture
 2869              	.LVL289:
 749:.\main.c      ****                         CyDelay(700);
 2870              		.loc 1 749 0
 2871 09f6 FFF7FEFF 		bl	Display1_ClearRxBuffer
 2872              	.LVL290:
 750:.\main.c      ****                         bufferDisplay1.flagKeyboard = 2;
 2873              		.loc 1 750 0
 2874 09fa 4FF42F70 		mov	r0, #700
 2875 09fe FFF7FEFF 		bl	CyDelay
 2876              	.LVL291:
 751:.\main.c      ****                         flowDisplay1 = 9;
 2877              		.loc 1 751 0
 2878 0a02 0222     		movs	r2, #2
 2879 0a04 284B     		ldr	r3, .L271
 2880 0a06 83F80021 		strb	r2, [r3, #256]
 752:.\main.c      ****                         SetPicture(1,DISPLAY_INTRODUZCA_KILOMETRAJE);
ARM GAS  C:\Users\RECEPC~1\AppData\Local\Temp\ccoGpf2X.s 			page 83


 2881              		.loc 1 752 0
 2882 0a0a 0922     		movs	r2, #9
 2883 0a0c 294B     		ldr	r3, .L271+12
 2884 0a0e 1A60     		str	r2, [r3]
 753:.\main.c      ****                         
 2885              		.loc 1 753 0
 2886 0a10 0120     		movs	r0, #1
 2887 0a12 0E21     		movs	r1, #14
 2888 0a14 FFF7FEFF 		bl	SetPicture
 2889              	.LVL292:
 2890              	.L172:
 758:.\main.c      ****                 flowDisplay1 = 0;	
 2891              		.loc 1 758 0
 2892 0a18 2B4B     		ldr	r3, .L271+32
 2893 0a1a 1B78     		ldrb	r3, [r3]	@ zero_extendqisi2
 2894 0a1c 3B2B     		cmp	r3, #59
 2895 0a1e 40F25584 		bls	.L70
 759:.\main.c      ****     			count_protector=0;
 2896              		.loc 1 759 0
 2897 0a22 0023     		movs	r3, #0
 2898 0a24 234A     		ldr	r2, .L271+12
 2899 0a26 1360     		str	r3, [r2]
 760:.\main.c      ****                 SetPicture(1,DISPLAY_INICIO0);
 2900              		.loc 1 760 0
 2901 0a28 274A     		ldr	r2, .L271+32
 2902 0a2a 1370     		strb	r3, [r2]
 761:.\main.c      ****     		}
 2903              		.loc 1 761 0
 2904 0a2c 0120     		movs	r0, #1
 2905 0a2e 0146     		mov	r1, r0
 2906 0a30 FFF7FEFF 		bl	SetPicture
 2907              	.LVL293:
 2908 0a34 00F04ABC 		b	.L70
 2909              	.L85:
 769:.\main.c      ****                 if((Display1_rxBuffer[0]==0xAA) && (Display1_rxBuffer[6]==0xC3) && (Display1_rxBuff
 2910              		.loc 1 769 0
 2911 0a38 FFF7FEFF 		bl	Display1_GetRxBufferSize
 2912              	.LVL294:
 2913 0a3c 0828     		cmp	r0, #8
 2914 0a3e 40F04584 		bne	.L70
 770:.\main.c      ****                     switch(Display1_rxBuffer[3]){
 2915              		.loc 1 770 0
 2916 0a42 204B     		ldr	r3, .L271+28
 2917 0a44 1B78     		ldrb	r3, [r3]	@ zero_extendqisi2
 2918 0a46 DBB2     		uxtb	r3, r3
 2919 0a48 AA2B     		cmp	r3, #170
 2920 0a4a 79D1     		bne	.L183
 770:.\main.c      ****                     switch(Display1_rxBuffer[3]){
 2921              		.loc 1 770 0 is_stmt 0 discriminator 1
 2922 0a4c 1D4B     		ldr	r3, .L271+28
 2923 0a4e 9B79     		ldrb	r3, [r3, #6]	@ zero_extendqisi2
 2924 0a50 DBB2     		uxtb	r3, r3
 2925 0a52 C32B     		cmp	r3, #195
 2926 0a54 74D1     		bne	.L183
 770:.\main.c      ****                     switch(Display1_rxBuffer[3]){
 2927              		.loc 1 770 0 discriminator 2
 2928 0a56 1B4B     		ldr	r3, .L271+28
ARM GAS  C:\Users\RECEPC~1\AppData\Local\Temp\ccoGpf2X.s 			page 84


 2929 0a58 DB79     		ldrb	r3, [r3, #7]	@ zero_extendqisi2
 2930 0a5a DBB2     		uxtb	r3, r3
 2931 0a5c 3C2B     		cmp	r3, #60
 2932 0a5e 6FD1     		bne	.L183
 771:.\main.c      ****                         case 0x46:  //Turnos              
 2933              		.loc 1 771 0 is_stmt 1
 2934 0a60 184B     		ldr	r3, .L271+28
 2935 0a62 DB78     		ldrb	r3, [r3, #3]	@ zero_extendqisi2
 2936 0a64 DBB2     		uxtb	r3, r3
 2937 0a66 552B     		cmp	r3, #85
 2938 0a68 36D0     		beq	.L184
 2939 0a6a 04D8     		bhi	.L185
 2940 0a6c 3B2B     		cmp	r3, #59
 2941 0a6e 50D0     		beq	.L186
 2942 0a70 462B     		cmp	r3, #70
 2943 0a72 07D0     		beq	.L187
 2944 0a74 64E0     		b	.L183
 2945              	.L185:
 2946 0a76 942B     		cmp	r3, #148
 2947 0a78 53D0     		beq	.L188
 2948 0a7a B52B     		cmp	r3, #181
 2949 0a7c 41D0     		beq	.L189
 2950 0a7e 7E2B     		cmp	r3, #126
 2951 0a80 5ED1     		bne	.L183
 2952 0a82 56E0     		b	.L190
 2953              	.L187:
 773:.\main.c      ****                             if(lockTurn ==1){
 2954              		.loc 1 773 0
 2955 0a84 0D22     		movs	r2, #13
 2956 0a86 0B4B     		ldr	r3, .L271+12
 2957 0a88 1A60     		str	r2, [r3]
 774:.\main.c      ****                                 SetPicture(1,DISPLAY_CERRAR_TURNO);
 2958              		.loc 1 774 0
 2959 0a8a 124B     		ldr	r3, .L271+44
 2960 0a8c 1B78     		ldrb	r3, [r3]	@ zero_extendqisi2
 2961 0a8e 012B     		cmp	r3, #1
 2962 0a90 04D1     		bne	.L191
 775:.\main.c      ****                             }else{
 2963              		.loc 1 775 0
 2964 0a92 0120     		movs	r0, #1
 2965 0a94 2A21     		movs	r1, #42
 2966 0a96 FFF7FEFF 		bl	SetPicture
 2967              	.LVL295:
 2968 0a9a 51E0     		b	.L183
 2969              	.L191:
 777:.\main.c      ****                             }                            
 2970              		.loc 1 777 0
 2971 0a9c 0120     		movs	r0, #1
 2972 0a9e 2321     		movs	r1, #35
 2973 0aa0 FFF7FEFF 		bl	SetPicture
 2974              	.LVL296:
 2975 0aa4 4CE0     		b	.L183
 2976              	.L272:
 2977 0aa6 00BF     		.align	2
 2978              	.L271:
 2979 0aa8 00000000 		.word	bufferDisplay1
 2980 0aac 00000000 		.word	printPortA
ARM GAS  C:\Users\RECEPC~1\AppData\Local\Temp\ccoGpf2X.s 			page 85


 2981 0ab0 00000000 		.word	side
 2982 0ab4 00000000 		.word	flowDisplay1
 2983 0ab8 00000000 		.word	numberKeys1
 2984 0abc 00000000 		.word	hiddenKeys
 2985 0ac0 00000000 		.word	controlChar
 2986 0ac4 00000000 		.word	Display1_rxBuffer
 2987 0ac8 00000000 		.word	count_protector
 2988 0acc 00000000 		.word	animacion
 2989 0ad0 00000000 		.word	temporal
 2990 0ad4 00000000 		.word	lockTurn
 2991              	.L184:
 781:.\main.c      ****                             bufferDisplay1.flagKeyboard = 6;
 2992              		.loc 1 781 0
 2993 0ad8 0E22     		movs	r2, #14
 2994 0ada A94B     		ldr	r3, .L273
 2995 0adc 1A60     		str	r2, [r3]
 782:.\main.c      ****                             numberKeys1 = 0;
 2996              		.loc 1 782 0
 2997 0ade 0622     		movs	r2, #6
 2998 0ae0 A84B     		ldr	r3, .L273+4
 2999 0ae2 83F80021 		strb	r2, [r3, #256]
 783:.\main.c      ****                             hiddenKeys = 5;
 3000              		.loc 1 783 0
 3001 0ae6 0022     		movs	r2, #0
 3002 0ae8 A74B     		ldr	r3, .L273+8
 3003 0aea 1A70     		strb	r2, [r3]
 784:.\main.c      ****                             controlChar ='*';
 3004              		.loc 1 784 0
 3005 0aec 0522     		movs	r2, #5
 3006 0aee A74B     		ldr	r3, .L273+12
 3007 0af0 1A70     		strb	r2, [r3]
 785:.\main.c      ****                             SetPicture(1,DISPLAY_INGRESE_PASSWORD);                           
 3008              		.loc 1 785 0
 3009 0af2 2A22     		movs	r2, #42
 3010 0af4 A64B     		ldr	r3, .L273+16
 3011 0af6 1A70     		strb	r2, [r3]
 786:.\main.c      ****                         break;
 3012              		.loc 1 786 0
 3013 0af8 0120     		movs	r0, #1
 3014 0afa 2521     		movs	r1, #37
 3015 0afc FFF7FEFF 		bl	SetPicture
 3016              	.LVL297:
 787:.\main.c      ****                         case 0xB5:  //Copia de recibo 
 3017              		.loc 1 787 0
 3018 0b00 1EE0     		b	.L183
 3019              	.L189:
 789:.\main.c      ****                             SetPicture(1,DISPLAY_OPERACIONES);                            
 3020              		.loc 1 789 0
 3021 0b02 0C22     		movs	r2, #12
 3022 0b04 9E4B     		ldr	r3, .L273
 3023 0b06 1A60     		str	r2, [r3]
 790:.\main.c      ****                         break;
 3024              		.loc 1 790 0
 3025 0b08 0120     		movs	r0, #1
 3026 0b0a 8321     		movs	r1, #131
 3027 0b0c FFF7FEFF 		bl	SetPicture
 3028              	.LVL298:
ARM GAS  C:\Users\RECEPC~1\AppData\Local\Temp\ccoGpf2X.s 			page 86


 791:.\main.c      ****                         
 3029              		.loc 1 791 0
 3030 0b10 16E0     		b	.L183
 3031              	.L186:
 794:.\main.c      ****                             SetPicture(1,DISPLAY_INICIO0);                            
 3032              		.loc 1 794 0
 3033 0b12 0022     		movs	r2, #0
 3034 0b14 9A4B     		ldr	r3, .L273
 3035 0b16 1A60     		str	r2, [r3]
 795:.\main.c      ****                         break;
 3036              		.loc 1 795 0
 3037 0b18 0120     		movs	r0, #1
 3038 0b1a 0146     		mov	r1, r0
 3039 0b1c FFF7FEFF 		bl	SetPicture
 3040              	.LVL299:
 796:.\main.c      ****                             
 3041              		.loc 1 796 0
 3042 0b20 0EE0     		b	.L183
 3043              	.L188:
 799:.\main.c      ****                             SetPicture(1,DISPLAY_INICIO0);                            
 3044              		.loc 1 799 0
 3045 0b22 0022     		movs	r2, #0
 3046 0b24 964B     		ldr	r3, .L273
 3047 0b26 1A60     		str	r2, [r3]
 800:.\main.c      ****                         break;
 3048              		.loc 1 800 0
 3049 0b28 0120     		movs	r0, #1
 3050 0b2a 0146     		mov	r1, r0
 3051 0b2c FFF7FEFF 		bl	SetPicture
 3052              	.LVL300:
 801:.\main.c      ****                         
 3053              		.loc 1 801 0
 3054 0b30 06E0     		b	.L183
 3055              	.L190:
 804:.\main.c      ****                             SetPicture(1,DISPLAY_INICIO0);                            
 3056              		.loc 1 804 0
 3057 0b32 0022     		movs	r2, #0
 3058 0b34 924B     		ldr	r3, .L273
 3059 0b36 1A60     		str	r2, [r3]
 805:.\main.c      ****                         break;
 3060              		.loc 1 805 0
 3061 0b38 0120     		movs	r0, #1
 3062 0b3a 0146     		mov	r1, r0
 3063 0b3c FFF7FEFF 		bl	SetPicture
 3064              	.LVL301:
 3065              	.L183:
 809:.\main.c      ****                 Display1_ClearRxBuffer();
 3066              		.loc 1 809 0
 3067 0b40 0A20     		movs	r0, #10
 3068 0b42 FFF7FEFF 		bl	CyDelay
 3069              	.LVL302:
 810:.\main.c      ****             }
 3070              		.loc 1 810 0
 3071 0b46 FFF7FEFF 		bl	Display1_ClearRxBuffer
 3072              	.LVL303:
 3073 0b4a BFE3     		b	.L70
 3074              	.L86:
ARM GAS  C:\Users\RECEPC~1\AppData\Local\Temp\ccoGpf2X.s 			page 87


 815:.\main.c      ****                 if((Display1_rxBuffer[0]==0xAA) && (Display1_rxBuffer[6]==0xC3) && (Display1_rxBuff
 3075              		.loc 1 815 0
 3076 0b4c FFF7FEFF 		bl	Display1_GetRxBufferSize
 3077              	.LVL304:
 3078 0b50 0828     		cmp	r0, #8
 3079 0b52 40F0BB83 		bne	.L70
 816:.\main.c      ****                     switch(Display1_rxBuffer[3]){
 3080              		.loc 1 816 0
 3081 0b56 8F4B     		ldr	r3, .L273+20
 3082 0b58 1B78     		ldrb	r3, [r3]	@ zero_extendqisi2
 3083 0b5a DBB2     		uxtb	r3, r3
 3084 0b5c AA2B     		cmp	r3, #170
 3085 0b5e 44D1     		bne	.L192
 816:.\main.c      ****                     switch(Display1_rxBuffer[3]){
 3086              		.loc 1 816 0 is_stmt 0 discriminator 1
 3087 0b60 8C4B     		ldr	r3, .L273+20
 3088 0b62 9B79     		ldrb	r3, [r3, #6]	@ zero_extendqisi2
 3089 0b64 DBB2     		uxtb	r3, r3
 3090 0b66 C32B     		cmp	r3, #195
 3091 0b68 3FD1     		bne	.L192
 816:.\main.c      ****                     switch(Display1_rxBuffer[3]){
 3092              		.loc 1 816 0 discriminator 2
 3093 0b6a 8A4B     		ldr	r3, .L273+20
 3094 0b6c DB79     		ldrb	r3, [r3, #7]	@ zero_extendqisi2
 3095 0b6e DBB2     		uxtb	r3, r3
 3096 0b70 3C2B     		cmp	r3, #60
 3097 0b72 3AD1     		bne	.L192
 817:.\main.c      ****                         case 0x47:  //Cambio de turno: Abrir  
 3098              		.loc 1 817 0 is_stmt 1
 3099 0b74 874B     		ldr	r3, .L273+20
 3100 0b76 DB78     		ldrb	r3, [r3, #3]	@ zero_extendqisi2
 3101 0b78 DBB2     		uxtb	r3, r3
 3102 0b7a 482B     		cmp	r3, #72
 3103 0b7c 17D0     		beq	.L193
 3104 0b7e 02D8     		bhi	.L194
 3105 0b80 472B     		cmp	r3, #71
 3106 0b82 05D0     		beq	.L195
 3107 0b84 31E0     		b	.L192
 3108              	.L194:
 3109 0b86 7E2B     		cmp	r3, #126
 3110 0b88 20D0     		beq	.L196
 3111 0b8a 942B     		cmp	r3, #148
 3112 0b8c 26D0     		beq	.L197
 3113 0b8e 2CE0     		b	.L192
 3114              	.L195:
 819:.\main.c      ****                             numberKeys1 = 0;    
 3115              		.loc 1 819 0
 3116 0b90 0922     		movs	r2, #9
 3117 0b92 7B4B     		ldr	r3, .L273
 3118 0b94 1A60     		str	r2, [r3]
 820:.\main.c      ****                             bufferDisplay1.flagKeyboard = 4;
 3119              		.loc 1 820 0
 3120 0b96 0022     		movs	r2, #0
 3121 0b98 7B4B     		ldr	r3, .L273+8
 3122 0b9a 1A70     		strb	r2, [r3]
 821:.\main.c      ****                             SetPicture(1,DISPLAY_INTRODUZCA_CEDULA);                            
 3123              		.loc 1 821 0
ARM GAS  C:\Users\RECEPC~1\AppData\Local\Temp\ccoGpf2X.s 			page 88


 3124 0b9c 0422     		movs	r2, #4
 3125 0b9e 794B     		ldr	r3, .L273+4
 3126 0ba0 83F80021 		strb	r2, [r3, #256]
 822:.\main.c      ****                         break;
 3127              		.loc 1 822 0
 3128 0ba4 0120     		movs	r0, #1
 3129 0ba6 2421     		movs	r1, #36
 3130 0ba8 FFF7FEFF 		bl	SetPicture
 3131              	.LVL305:
 823:.\main.c      ****                         case 0x48:  //Cambio de turno: Cerrar 
 3132              		.loc 1 823 0
 3133 0bac 1DE0     		b	.L192
 3134              	.L193:
 825:.\main.c      ****                             numberKeys1 = 0;   
 3135              		.loc 1 825 0
 3136 0bae 0922     		movs	r2, #9
 3137 0bb0 734B     		ldr	r3, .L273
 3138 0bb2 1A60     		str	r2, [r3]
 826:.\main.c      ****                             bufferDisplay1.flagKeyboard = 4;
 3139              		.loc 1 826 0
 3140 0bb4 0022     		movs	r2, #0
 3141 0bb6 744B     		ldr	r3, .L273+8
 3142 0bb8 1A70     		strb	r2, [r3]
 827:.\main.c      ****                             SetPicture(1,DISPLAY_INTRODUZCA_CEDULA);                           
 3143              		.loc 1 827 0
 3144 0bba 0422     		movs	r2, #4
 3145 0bbc 714B     		ldr	r3, .L273+4
 3146 0bbe 83F80021 		strb	r2, [r3, #256]
 828:.\main.c      ****                         break;                         
 3147              		.loc 1 828 0
 3148 0bc2 0120     		movs	r0, #1
 3149 0bc4 2421     		movs	r1, #36
 3150 0bc6 FFF7FEFF 		bl	SetPicture
 3151              	.LVL306:
 829:.\main.c      ****                         case 0x7E:  //Pantalla Inicial                                             
 3152              		.loc 1 829 0
 3153 0bca 0EE0     		b	.L192
 3154              	.L196:
 831:.\main.c      ****                             flowDisplay1 = 0;
 3155              		.loc 1 831 0
 3156 0bcc 0120     		movs	r0, #1
 3157 0bce 0146     		mov	r1, r0
 3158 0bd0 FFF7FEFF 		bl	SetPicture
 3159              	.LVL307:
 832:.\main.c      ****                         break;
 3160              		.loc 1 832 0
 3161 0bd4 0022     		movs	r2, #0
 3162 0bd6 6A4B     		ldr	r3, .L273
 3163 0bd8 1A60     		str	r2, [r3]
 833:.\main.c      ****                         case 0x94:  //Pantalla Inicial                                             
 3164              		.loc 1 833 0
 3165 0bda 06E0     		b	.L192
 3166              	.L197:
 835:.\main.c      ****                             flowDisplay1 = 0;
 3167              		.loc 1 835 0
 3168 0bdc 0120     		movs	r0, #1
 3169 0bde 0146     		mov	r1, r0
ARM GAS  C:\Users\RECEPC~1\AppData\Local\Temp\ccoGpf2X.s 			page 89


 3170 0be0 FFF7FEFF 		bl	SetPicture
 3171              	.LVL308:
 836:.\main.c      ****                         break;
 3172              		.loc 1 836 0
 3173 0be4 0022     		movs	r2, #0
 3174 0be6 664B     		ldr	r3, .L273
 3175 0be8 1A60     		str	r2, [r3]
 3176              	.L192:
 840:.\main.c      ****                 Display1_ClearRxBuffer();
 3177              		.loc 1 840 0
 3178 0bea 0A20     		movs	r0, #10
 3179 0bec FFF7FEFF 		bl	CyDelay
 3180              	.LVL309:
 841:.\main.c      ****             }                        
 3181              		.loc 1 841 0
 3182 0bf0 FFF7FEFF 		bl	Display1_ClearRxBuffer
 3183              	.LVL310:
 3184 0bf4 6AE3     		b	.L70
 3185              	.L87:
 846:.\main.c      ****                 case 0: //Cancelar
 3186              		.loc 1 846 0
 3187 0bf6 0120     		movs	r0, #1
 3188 0bf8 644B     		ldr	r3, .L273+12
 3189 0bfa 1978     		ldrb	r1, [r3]	@ zero_extendqisi2
 3190 0bfc 644B     		ldr	r3, .L273+16
 3191 0bfe 1A78     		ldrb	r2, [r3]	@ zero_extendqisi2
 3192 0c00 FFF7FEFF 		bl	alphanumeric_keyboard
 3193              	.LVL311:
 3194 0c04 10B1     		cbz	r0, .L198
 3195 0c06 0128     		cmp	r0, #1
 3196 0c08 59D0     		beq	.L199
 3197 0c0a 5FE3     		b	.L70
 3198              	.L198:
 848:.\main.c      ****                         case 1://ID Estacion
 3199              		.loc 1 848 0
 3200 0c0c 5D4B     		ldr	r3, .L273+4
 3201 0c0e 93F80031 		ldrb	r3, [r3, #256]	@ zero_extendqisi2
 3202 0c12 013B     		subs	r3, r3, #1
 3203 0c14 052B     		cmp	r3, #5
 3204 0c16 4FD8     		bhi	.L200
 3205 0c18 DFE803F0 		tbb	[pc, r3]
 3206              	.L202:
 3207 0c1c 09       		.byte	(.L256-.L202)/2
 3208 0c1d 1A       		.byte	(.L257-.L202)/2
 3209 0c1e 4E       		.byte	(.L200-.L202)/2
 3210 0c1f 4E       		.byte	(.L200-.L202)/2
 3211 0c20 2F       		.byte	(.L258-.L202)/2
 3212 0c21 42       		.byte	(.L259-.L202)/2
 3213              	.LVL312:
 3214              		.p2align 1
 3215              	.L206:
 851:.\main.c      ****                             }
 3216              		.loc 1 851 0 discriminator 3
 3217 0c22 0021     		movs	r1, #0
 3218 0c24 5C4A     		ldr	r2, .L273+24
 3219 0c26 D154     		strb	r1, [r2, r3]
 850:.\main.c      ****                                 idStation[x]=0;
ARM GAS  C:\Users\RECEPC~1\AppData\Local\Temp\ccoGpf2X.s 			page 90


 3220              		.loc 1 850 0 discriminator 3
 3221 0c28 0133     		adds	r3, r3, #1
 3222              	.LVL313:
 3223 0c2a DBB2     		uxtb	r3, r3
 3224              	.LVL314:
 3225 0c2c 00E0     		b	.L201
 3226              	.LVL315:
 3227              	.L256:
 848:.\main.c      ****                         case 1://ID Estacion
 3228              		.loc 1 848 0
 3229 0c2e 0023     		movs	r3, #0
 3230              	.L201:
 3231              	.LVL316:
 850:.\main.c      ****                                 idStation[x]=0;
 3232              		.loc 1 850 0 discriminator 1
 3233 0c30 042B     		cmp	r3, #4
 3234 0c32 F6D9     		bls	.L206
 853:.\main.c      ****                             SetPicture(1,DISPLAY_INICIO0);
 3235              		.loc 1 853 0
 3236 0c34 0022     		movs	r2, #0
 3237 0c36 524B     		ldr	r3, .L273
 3238              	.LVL317:
 3239 0c38 1A60     		str	r2, [r3]
 854:.\main.c      ****                         break;
 3240              		.loc 1 854 0
 3241 0c3a 0120     		movs	r0, #1
 3242 0c3c 0146     		mov	r1, r0
 3243 0c3e FFF7FEFF 		bl	SetPicture
 3244              	.LVL318:
 855:.\main.c      ****                         case 2://Umbral
 3245              		.loc 1 855 0
 3246 0c42 39E0     		b	.L200
 3247              	.LVL319:
 3248              	.L207:
 858:.\main.c      ****                             }
 3249              		.loc 1 858 0 discriminator 3
 3250 0c44 0021     		movs	r1, #0
 3251 0c46 554A     		ldr	r2, .L273+28
 3252 0c48 D154     		strb	r1, [r2, r3]
 857:.\main.c      ****                                 pumpGap[x]=0;
 3253              		.loc 1 857 0 discriminator 3
 3254 0c4a 0133     		adds	r3, r3, #1
 3255              	.LVL320:
 3256 0c4c DBB2     		uxtb	r3, r3
 3257              	.LVL321:
 3258 0c4e 00E0     		b	.L203
 3259              	.LVL322:
 3260              	.L257:
 848:.\main.c      ****                         case 1://ID Estacion
 3261              		.loc 1 848 0
 3262 0c50 0023     		movs	r3, #0
 3263              	.L203:
 3264              	.LVL323:
 857:.\main.c      ****                                 pumpGap[x]=0;
 3265              		.loc 1 857 0 discriminator 1
 3266 0c52 4E4A     		ldr	r2, .L273+12
 3267 0c54 1278     		ldrb	r2, [r2]	@ zero_extendqisi2
ARM GAS  C:\Users\RECEPC~1\AppData\Local\Temp\ccoGpf2X.s 			page 91


 3268 0c56 9342     		cmp	r3, r2
 3269 0c58 F4D3     		bcc	.L207
 860:.\main.c      ****                             SetPicture(1,DISPLAY_INICIO0);
 3270              		.loc 1 860 0
 3271 0c5a 0022     		movs	r2, #0
 3272 0c5c 484B     		ldr	r3, .L273
 3273              	.LVL324:
 3274 0c5e 1A60     		str	r2, [r3]
 861:.\main.c      ****                         break;
 3275              		.loc 1 861 0
 3276 0c60 0120     		movs	r0, #1
 3277 0c62 0146     		mov	r1, r0
 3278 0c64 FFF7FEFF 		bl	SetPicture
 3279              	.LVL325:
 862:.\main.c      ****                         case 5://Pass
 3280              		.loc 1 862 0
 3281 0c68 26E0     		b	.L200
 3282              	.LVL326:
 3283              	.L208:
 865:.\main.c      ****                             }
 3284              		.loc 1 865 0 discriminator 3
 3285 0c6a 464A     		ldr	r2, .L273+4
 3286 0c6c 1A44     		add	r2, r2, r3
 3287 0c6e 0021     		movs	r1, #0
 3288 0c70 82F87D12 		strb	r1, [r2, #637]
 864:.\main.c      ****                                 bufferDisplay1.shiftPassword[x]=0;
 3289              		.loc 1 864 0 discriminator 3
 3290 0c74 0133     		adds	r3, r3, #1
 3291              	.LVL327:
 3292 0c76 DBB2     		uxtb	r3, r3
 3293              	.LVL328:
 3294 0c78 00E0     		b	.L204
 3295              	.LVL329:
 3296              	.L258:
 848:.\main.c      ****                         case 1://ID Estacion
 3297              		.loc 1 848 0
 3298 0c7a 0023     		movs	r3, #0
 3299              	.L204:
 3300              	.LVL330:
 864:.\main.c      ****                                 bufferDisplay1.shiftPassword[x]=0;
 3301              		.loc 1 864 0 discriminator 1
 3302 0c7c 434A     		ldr	r2, .L273+12
 3303 0c7e 1278     		ldrb	r2, [r2]	@ zero_extendqisi2
 3304 0c80 9342     		cmp	r3, r2
 3305 0c82 F2D3     		bcc	.L208
 867:.\main.c      ****                             SetPicture(1,DISPLAY_INICIO0);
 3306              		.loc 1 867 0
 3307 0c84 0022     		movs	r2, #0
 3308 0c86 3E4B     		ldr	r3, .L273
 3309              	.LVL331:
 3310 0c88 1A60     		str	r2, [r3]
 868:.\main.c      ****                         break;
 3311              		.loc 1 868 0
 3312 0c8a 0120     		movs	r0, #1
 3313 0c8c 0146     		mov	r1, r0
 3314 0c8e FFF7FEFF 		bl	SetPicture
 3315              	.LVL332:
ARM GAS  C:\Users\RECEPC~1\AppData\Local\Temp\ccoGpf2X.s 			page 92


 869:.\main.c      ****                             
 3316              		.loc 1 869 0
 3317 0c92 11E0     		b	.L200
 3318              	.LVL333:
 3319              	.L209:
 873:.\main.c      ****                             }
 3320              		.loc 1 873 0 discriminator 3
 3321 0c94 0021     		movs	r1, #0
 3322 0c96 424A     		ldr	r2, .L273+32
 3323 0c98 D154     		strb	r1, [r2, r3]
 872:.\main.c      ****                                 configAccess[x]=0;
 3324              		.loc 1 872 0 discriminator 3
 3325 0c9a 0133     		adds	r3, r3, #1
 3326              	.LVL334:
 3327 0c9c DBB2     		uxtb	r3, r3
 3328              	.LVL335:
 3329 0c9e 00E0     		b	.L205
 3330              	.LVL336:
 3331              	.L259:
 848:.\main.c      ****                         case 1://ID Estacion
 3332              		.loc 1 848 0
 3333 0ca0 0123     		movs	r3, #1
 3334              	.L205:
 3335              	.LVL337:
 872:.\main.c      ****                                 configAccess[x]=0;
 3336              		.loc 1 872 0 discriminator 1
 3337 0ca2 3F4A     		ldr	r2, .L273+32
 3338 0ca4 1278     		ldrb	r2, [r2]	@ zero_extendqisi2
 3339 0ca6 9A42     		cmp	r2, r3
 3340 0ca8 F4D2     		bcs	.L209
 875:.\main.c      ****                             SetPicture(1,DISPLAY_INICIO0);
 3341              		.loc 1 875 0
 3342 0caa 0022     		movs	r2, #0
 3343 0cac 344B     		ldr	r3, .L273
 3344              	.LVL338:
 3345 0cae 1A60     		str	r2, [r3]
 876:.\main.c      ****                         break;
 3346              		.loc 1 876 0
 3347 0cb0 0120     		movs	r0, #1
 3348 0cb2 0146     		mov	r1, r0
 3349 0cb4 FFF7FEFF 		bl	SetPicture
 3350              	.LVL339:
 3351              	.L200:
 879:.\main.c      ****                 break;
 3352              		.loc 1 879 0
 3353 0cb8 FFF7FEFF 		bl	Display1_ClearRxBuffer
 3354              	.LVL340:
 880:.\main.c      ****                     
 3355              		.loc 1 880 0
 3356 0cbc 06E3     		b	.L70
 3357              	.L199:
 883:.\main.c      ****                         case 1://ID Estacion
 3358              		.loc 1 883 0
 3359 0cbe 314B     		ldr	r3, .L273+4
 3360 0cc0 93F80031 		ldrb	r3, [r3, #256]	@ zero_extendqisi2
 3361 0cc4 013B     		subs	r3, r3, #1
 3362 0cc6 052B     		cmp	r3, #5
ARM GAS  C:\Users\RECEPC~1\AppData\Local\Temp\ccoGpf2X.s 			page 93


 3363 0cc8 00F2B580 		bhi	.L210
 3364 0ccc DFE803F0 		tbb	[pc, r3]
 3365              	.L212:
 3366 0cd0 0C       		.byte	(.L260-.L212)/2
 3367 0cd1 35       		.byte	(.L261-.L212)/2
 3368 0cd2 B3       		.byte	(.L210-.L212)/2
 3369 0cd3 B3       		.byte	(.L210-.L212)/2
 3370 0cd4 4B       		.byte	(.L262-.L212)/2
 3371 0cd5 77       		.byte	(.L263-.L212)/2
 3372              	.LVL341:
 3373              		.p2align 1
 3374              	.L216:
 886:.\main.c      ****                             }
 3375              		.loc 1 886 0 discriminator 3
 3376 0cd6 591C     		adds	r1, r3, #1
 3377 0cd8 2A4A     		ldr	r2, .L273+4
 3378 0cda 0A44     		add	r2, r2, r1
 3379 0cdc 92F84B00 		ldrb	r0, [r2, #75]	@ zero_extendqisi2
 3380 0ce0 2D4A     		ldr	r2, .L273+24
 3381 0ce2 D054     		strb	r0, [r2, r3]
 885:.\main.c      ****                                 idStation[x] =bufferDisplay1.valueKeys[x+1];                       
 3382              		.loc 1 885 0 discriminator 3
 3383 0ce4 CBB2     		uxtb	r3, r1
 3384              	.LVL342:
 3385 0ce6 00E0     		b	.L211
 3386              	.LVL343:
 3387              	.L260:
 883:.\main.c      ****                         case 1://ID Estacion
 3388              		.loc 1 883 0
 3389 0ce8 0023     		movs	r3, #0
 3390              	.L211:
 3391              	.LVL344:
 885:.\main.c      ****                                 idStation[x] =bufferDisplay1.valueKeys[x+1];                       
 3392              		.loc 1 885 0 discriminator 1
 3393 0cea 042B     		cmp	r3, #4
 3394 0cec F3D9     		bls	.L216
 888:.\main.c      ****                             intIDStation = atoi(idStation);
 3395              		.loc 1 888 0
 3396 0cee 2A48     		ldr	r0, .L273+24
 3397 0cf0 0023     		movs	r3, #0
 3398              	.LVL345:
 3399 0cf2 0371     		strb	r3, [r0, #4]
 889:.\main.c      ****                             IDCast[0] = intIDStation;
 3400              		.loc 1 889 0
 3401 0cf4 FFF7FEFF 		bl	atoi
 3402              	.LVL346:
 3403 0cf8 80B2     		uxth	r0, r0
 3404 0cfa 2A4B     		ldr	r3, .L273+36
 3405 0cfc 1880     		strh	r0, [r3]	@ movhi
 890:.\main.c      ****                             IDCast[1] = intIDStation>>8;
 3406              		.loc 1 890 0
 3407 0cfe C3B2     		uxtb	r3, r0
 3408 0d00 294C     		ldr	r4, .L273+40
 3409 0d02 2370     		strb	r3, [r4]
 891:.\main.c      ****                             EEPROM_1_WriteByte(IDCast[0],10);
 3410              		.loc 1 891 0
 3411 0d04 000A     		lsrs	r0, r0, #8
ARM GAS  C:\Users\RECEPC~1\AppData\Local\Temp\ccoGpf2X.s 			page 94


 3412 0d06 6070     		strb	r0, [r4, #1]
 892:.\main.c      ****                             EEPROM_1_WriteByte(IDCast[1],11);
 3413              		.loc 1 892 0
 3414 0d08 2078     		ldrb	r0, [r4]	@ zero_extendqisi2
 3415 0d0a 0A21     		movs	r1, #10
 3416 0d0c FFF7FEFF 		bl	EEPROM_1_WriteByte
 3417              	.LVL347:
 893:.\main.c      ****                             flowDisplay1 = 15;
 3418              		.loc 1 893 0
 3419 0d10 6078     		ldrb	r0, [r4, #1]	@ zero_extendqisi2
 3420 0d12 0B21     		movs	r1, #11
 3421 0d14 FFF7FEFF 		bl	EEPROM_1_WriteByte
 3422              	.LVL348:
 894:.\main.c      ****                             SetPicture(1,DISPLAY_CONFIGURACIONES);
 3423              		.loc 1 894 0
 3424 0d18 0F22     		movs	r2, #15
 3425 0d1a 194B     		ldr	r3, .L273
 3426 0d1c 1A60     		str	r2, [r3]
 895:.\main.c      ****                         break;
 3427              		.loc 1 895 0
 3428 0d1e 0120     		movs	r0, #1
 3429 0d20 5A21     		movs	r1, #90
 3430 0d22 FFF7FEFF 		bl	SetPicture
 3431              	.LVL349:
 896:.\main.c      ****                         case 2://Pass
 3432              		.loc 1 896 0
 3433 0d26 86E0     		b	.L210
 3434              	.LVL350:
 3435              	.L217:
 899:.\main.c      ****                             }
 3436              		.loc 1 899 0 discriminator 3
 3437 0d28 164A     		ldr	r2, .L273+4
 3438 0d2a 1A44     		add	r2, r2, r3
 3439 0d2c 92F84B10 		ldrb	r1, [r2, #75]	@ zero_extendqisi2
 3440 0d30 1A4A     		ldr	r2, .L273+28
 3441 0d32 D154     		strb	r1, [r2, r3]
 898:.\main.c      ****                                 pumpGap[x] =bufferDisplay1.valueKeys[x];
 3442              		.loc 1 898 0 discriminator 3
 3443 0d34 0133     		adds	r3, r3, #1
 3444              	.LVL351:
 3445 0d36 DBB2     		uxtb	r3, r3
 3446              	.LVL352:
 3447 0d38 00E0     		b	.L213
 3448              	.LVL353:
 3449              	.L261:
 883:.\main.c      ****                         case 1://ID Estacion
 3450              		.loc 1 883 0
 3451 0d3a 0023     		movs	r3, #0
 3452              	.L213:
 3453              	.LVL354:
 898:.\main.c      ****                                 pumpGap[x] =bufferDisplay1.valueKeys[x];
 3454              		.loc 1 898 0 discriminator 1
 3455 0d3c 134A     		ldr	r2, .L273+12
 3456 0d3e 1278     		ldrb	r2, [r2]	@ zero_extendqisi2
 3457 0d40 9342     		cmp	r3, r2
 3458 0d42 F1D3     		bcc	.L217
 901:.\main.c      ****                             SetPicture(1,DISPLAY_CONFIGURACIONES);
ARM GAS  C:\Users\RECEPC~1\AppData\Local\Temp\ccoGpf2X.s 			page 95


 3459              		.loc 1 901 0
 3460 0d44 0F22     		movs	r2, #15
 3461 0d46 0E4B     		ldr	r3, .L273
 3462              	.LVL355:
 3463 0d48 1A60     		str	r2, [r3]
 902:.\main.c      ****                         break;
 3464              		.loc 1 902 0
 3465 0d4a 0120     		movs	r0, #1
 3466 0d4c 5A21     		movs	r1, #90
 3467 0d4e FFF7FEFF 		bl	SetPicture
 3468              	.LVL356:
 903:.\main.c      ****                         case 5://Pass
 3469              		.loc 1 903 0
 3470 0d52 70E0     		b	.L210
 3471              	.LVL357:
 3472              	.L218:
 906:.\main.c      ****                             }
 3473              		.loc 1 906 0 discriminator 3
 3474 0d54 0B4A     		ldr	r2, .L273+4
 3475 0d56 1A44     		add	r2, r2, r3
 3476 0d58 92F84B10 		ldrb	r1, [r2, #75]	@ zero_extendqisi2
 3477 0d5c 82F87D12 		strb	r1, [r2, #637]
 905:.\main.c      ****                                 bufferDisplay1.shiftPassword[x] =bufferDisplay1.valueKeys[x];
 3478              		.loc 1 905 0 discriminator 3
 3479 0d60 0133     		adds	r3, r3, #1
 3480              	.LVL358:
 3481 0d62 DBB2     		uxtb	r3, r3
 3482              	.LVL359:
 3483 0d64 00E0     		b	.L214
 3484              	.LVL360:
 3485              	.L262:
 883:.\main.c      ****                         case 1://ID Estacion
 3486              		.loc 1 883 0
 3487 0d66 0023     		movs	r3, #0
 3488              	.L214:
 3489              	.LVL361:
 905:.\main.c      ****                                 bufferDisplay1.shiftPassword[x] =bufferDisplay1.valueKeys[x];
 3490              		.loc 1 905 0 discriminator 1
 3491 0d68 084A     		ldr	r2, .L273+12
 3492 0d6a 1278     		ldrb	r2, [r2]	@ zero_extendqisi2
 3493 0d6c 9342     		cmp	r3, r2
 3494 0d6e F1D3     		bcc	.L218
 908:.\main.c      ****                             SetPicture(1,DISPLAY_CONFIGURACIONES);
 3495              		.loc 1 908 0
 3496 0d70 0F22     		movs	r2, #15
 3497 0d72 034B     		ldr	r3, .L273
 3498              	.LVL362:
 3499 0d74 1A60     		str	r2, [r3]
 909:.\main.c      ****                         break; 
 3500              		.loc 1 909 0
 3501 0d76 0120     		movs	r0, #1
 3502 0d78 5A21     		movs	r1, #90
 3503 0d7a FFF7FEFF 		bl	SetPicture
 3504              	.LVL363:
 910:.\main.c      ****                         case 6://Pass
 3505              		.loc 1 910 0
 3506 0d7e 5AE0     		b	.L210
ARM GAS  C:\Users\RECEPC~1\AppData\Local\Temp\ccoGpf2X.s 			page 96


 3507              	.L274:
 3508              		.align	2
 3509              	.L273:
 3510 0d80 00000000 		.word	flowDisplay1
 3511 0d84 00000000 		.word	bufferDisplay1
 3512 0d88 00000000 		.word	numberKeys1
 3513 0d8c 00000000 		.word	hiddenKeys
 3514 0d90 00000000 		.word	controlChar
 3515 0d94 00000000 		.word	Display1_rxBuffer
 3516 0d98 00000000 		.word	idStation
 3517 0d9c 00000000 		.word	pumpGap
 3518 0da0 00000000 		.word	configAccess
 3519 0da4 00000000 		.word	intIDStation
 3520 0da8 00000000 		.word	IDCast
 3521              	.LVL364:
 3522              	.L219:
 913:.\main.c      ****                             }
 3523              		.loc 1 913 0 discriminator 3
 3524 0dac 904A     		ldr	r2, .L275
 3525 0dae 1A44     		add	r2, r2, r3
 3526 0db0 92F84B10 		ldrb	r1, [r2, #75]	@ zero_extendqisi2
 3527 0db4 8F4A     		ldr	r2, .L275+4
 3528 0db6 D154     		strb	r1, [r2, r3]
 912:.\main.c      ****                                 configAccess[x] =bufferDisplay1.valueKeys[x];
 3529              		.loc 1 912 0 discriminator 3
 3530 0db8 0133     		adds	r3, r3, #1
 3531              	.LVL365:
 3532 0dba DBB2     		uxtb	r3, r3
 3533              	.LVL366:
 3534 0dbc 00E0     		b	.L215
 3535              	.LVL367:
 3536              	.L263:
 883:.\main.c      ****                         case 1://ID Estacion
 3537              		.loc 1 883 0
 3538 0dbe 0123     		movs	r3, #1
 3539              	.L215:
 3540              	.LVL368:
 912:.\main.c      ****                                 configAccess[x] =bufferDisplay1.valueKeys[x];
 3541              		.loc 1 912 0 discriminator 1
 3542 0dc0 8C4A     		ldr	r2, .L275+4
 3543 0dc2 1278     		ldrb	r2, [r2]	@ zero_extendqisi2
 3544 0dc4 9A42     		cmp	r2, r3
 3545 0dc6 F1D2     		bcs	.L219
 915:.\main.c      ****                                 SetPicture(1,DISPLAY_PASSWORD_VALIDO);
 3546              		.loc 1 915 0
 3547 0dc8 8A4B     		ldr	r3, .L275+4
 3548              	.LVL369:
 3549 0dca 5A78     		ldrb	r2, [r3, #1]	@ zero_extendqisi2
 3550 0dcc 8A4B     		ldr	r3, .L275+8
 3551 0dce 5B7B     		ldrb	r3, [r3, #13]	@ zero_extendqisi2
 3552 0dd0 9A42     		cmp	r2, r3
 3553 0dd2 21D1     		bne	.L220
 915:.\main.c      ****                                 SetPicture(1,DISPLAY_PASSWORD_VALIDO);
 3554              		.loc 1 915 0 is_stmt 0 discriminator 1
 3555 0dd4 874B     		ldr	r3, .L275+4
 3556 0dd6 9A78     		ldrb	r2, [r3, #2]	@ zero_extendqisi2
 3557 0dd8 874B     		ldr	r3, .L275+8
ARM GAS  C:\Users\RECEPC~1\AppData\Local\Temp\ccoGpf2X.s 			page 97


 3558 0dda 9B7B     		ldrb	r3, [r3, #14]	@ zero_extendqisi2
 3559 0ddc 9A42     		cmp	r2, r3
 3560 0dde 1BD1     		bne	.L220
 915:.\main.c      ****                                 SetPicture(1,DISPLAY_PASSWORD_VALIDO);
 3561              		.loc 1 915 0 discriminator 2
 3562 0de0 844B     		ldr	r3, .L275+4
 3563 0de2 DA78     		ldrb	r2, [r3, #3]	@ zero_extendqisi2
 3564 0de4 844B     		ldr	r3, .L275+8
 3565 0de6 DB7B     		ldrb	r3, [r3, #15]	@ zero_extendqisi2
 3566 0de8 9A42     		cmp	r2, r3
 3567 0dea 15D1     		bne	.L220
 915:.\main.c      ****                                 SetPicture(1,DISPLAY_PASSWORD_VALIDO);
 3568              		.loc 1 915 0 discriminator 3
 3569 0dec 814B     		ldr	r3, .L275+4
 3570 0dee 1A79     		ldrb	r2, [r3, #4]	@ zero_extendqisi2
 3571 0df0 814B     		ldr	r3, .L275+8
 3572 0df2 1B7C     		ldrb	r3, [r3, #16]	@ zero_extendqisi2
 3573 0df4 9A42     		cmp	r2, r3
 3574 0df6 0FD1     		bne	.L220
 916:.\main.c      ****                                 CyDelay(700);
 3575              		.loc 1 916 0 is_stmt 1
 3576 0df8 0120     		movs	r0, #1
 3577 0dfa 2621     		movs	r1, #38
 3578 0dfc FFF7FEFF 		bl	SetPicture
 3579              	.LVL370:
 917:.\main.c      ****                                 flowDisplay1 = 15;
 3580              		.loc 1 917 0
 3581 0e00 4FF42F70 		mov	r0, #700
 3582 0e04 FFF7FEFF 		bl	CyDelay
 3583              	.LVL371:
 918:.\main.c      ****                                 SetPicture(1,DISPLAY_CONFIGURACIONES);
 3584              		.loc 1 918 0
 3585 0e08 0F22     		movs	r2, #15
 3586 0e0a 7C4B     		ldr	r3, .L275+12
 3587 0e0c 1A60     		str	r2, [r3]
 919:.\main.c      ****                             }else{
 3588              		.loc 1 919 0
 3589 0e0e 0120     		movs	r0, #1
 3590 0e10 5A21     		movs	r1, #90
 3591 0e12 FFF7FEFF 		bl	SetPicture
 3592              	.LVL372:
 3593 0e16 0EE0     		b	.L210
 3594              	.L220:
 921:.\main.c      ****                                 CyDelay(700);
 3595              		.loc 1 921 0
 3596 0e18 0120     		movs	r0, #1
 3597 0e1a 2721     		movs	r1, #39
 3598 0e1c FFF7FEFF 		bl	SetPicture
 3599              	.LVL373:
 922:.\main.c      ****                                 flowDisplay1 = 0;
 3600              		.loc 1 922 0
 3601 0e20 4FF42F70 		mov	r0, #700
 3602 0e24 FFF7FEFF 		bl	CyDelay
 3603              	.LVL374:
 923:.\main.c      ****                                 SetPicture(1,DISPLAY_INICIO0);
 3604              		.loc 1 923 0
 3605 0e28 0022     		movs	r2, #0
ARM GAS  C:\Users\RECEPC~1\AppData\Local\Temp\ccoGpf2X.s 			page 98


 3606 0e2a 744B     		ldr	r3, .L275+12
 3607 0e2c 1A60     		str	r2, [r3]
 924:.\main.c      ****                             }
 3608              		.loc 1 924 0
 3609 0e2e 0120     		movs	r0, #1
 3610 0e30 0146     		mov	r1, r0
 3611 0e32 FFF7FEFF 		bl	SetPicture
 3612              	.LVL375:
 3613              	.L210:
 928:.\main.c      ****                 break;
 3614              		.loc 1 928 0
 3615 0e36 FFF7FEFF 		bl	Display1_ClearRxBuffer
 3616              	.LVL376:
 929:.\main.c      ****             }            
 3617              		.loc 1 929 0
 3618 0e3a 47E2     		b	.L70
 3619              	.L88:
 934:.\main.c      ****                 if((Display1_rxBuffer[0]==0xAA) && (Display1_rxBuffer[6]==0xC3) && (Display1_rxBuff
 3620              		.loc 1 934 0
 3621 0e3c FFF7FEFF 		bl	Display1_GetRxBufferSize
 3622              	.LVL377:
 3623 0e40 0828     		cmp	r0, #8
 3624 0e42 40F04382 		bne	.L70
 935:.\main.c      ****                     switch(Display1_rxBuffer[3]){
 3625              		.loc 1 935 0
 3626 0e46 6E4B     		ldr	r3, .L275+16
 3627 0e48 1B78     		ldrb	r3, [r3]	@ zero_extendqisi2
 3628 0e4a DBB2     		uxtb	r3, r3
 3629 0e4c AA2B     		cmp	r3, #170
 3630 0e4e 40F08180 		bne	.L221
 935:.\main.c      ****                     switch(Display1_rxBuffer[3]){
 3631              		.loc 1 935 0 is_stmt 0 discriminator 1
 3632 0e52 6B4B     		ldr	r3, .L275+16
 3633 0e54 9B79     		ldrb	r3, [r3, #6]	@ zero_extendqisi2
 3634 0e56 DBB2     		uxtb	r3, r3
 3635 0e58 C32B     		cmp	r3, #195
 3636 0e5a 7BD1     		bne	.L221
 935:.\main.c      ****                     switch(Display1_rxBuffer[3]){
 3637              		.loc 1 935 0 discriminator 2
 3638 0e5c 684B     		ldr	r3, .L275+16
 3639 0e5e DB79     		ldrb	r3, [r3, #7]	@ zero_extendqisi2
 3640 0e60 DBB2     		uxtb	r3, r3
 3641 0e62 3C2B     		cmp	r3, #60
 3642 0e64 76D1     		bne	.L221
 936:.\main.c      ****                         case 0x82:  //ID Estacion  
 3643              		.loc 1 936 0 is_stmt 1
 3644 0e66 664B     		ldr	r3, .L275+16
 3645 0e68 DB78     		ldrb	r3, [r3, #3]	@ zero_extendqisi2
 3646 0e6a 583B     		subs	r3, r3, #88
 3647 0e6c 3C2B     		cmp	r3, #60
 3648 0e6e 71D8     		bhi	.L221
 3649 0e70 DFE803F0 		tbb	[pc, r3]
 3650              	.L223:
 3651 0e74 52       		.byte	(.L222-.L223)/2
 3652 0e75 70       		.byte	(.L221-.L223)/2
 3653 0e76 3C       		.byte	(.L224-.L223)/2
 3654 0e77 70       		.byte	(.L221-.L223)/2
ARM GAS  C:\Users\RECEPC~1\AppData\Local\Temp\ccoGpf2X.s 			page 99


 3655 0e78 70       		.byte	(.L221-.L223)/2
 3656 0e79 70       		.byte	(.L221-.L223)/2
 3657 0e7a 70       		.byte	(.L221-.L223)/2
 3658 0e7b 70       		.byte	(.L221-.L223)/2
 3659 0e7c 70       		.byte	(.L221-.L223)/2
 3660 0e7d 70       		.byte	(.L221-.L223)/2
 3661 0e7e 70       		.byte	(.L221-.L223)/2
 3662 0e7f 70       		.byte	(.L221-.L223)/2
 3663 0e80 70       		.byte	(.L221-.L223)/2
 3664 0e81 32       		.byte	(.L225-.L223)/2
 3665 0e82 70       		.byte	(.L221-.L223)/2
 3666 0e83 70       		.byte	(.L221-.L223)/2
 3667 0e84 70       		.byte	(.L221-.L223)/2
 3668 0e85 70       		.byte	(.L221-.L223)/2
 3669 0e86 70       		.byte	(.L221-.L223)/2
 3670 0e87 70       		.byte	(.L221-.L223)/2
 3671 0e88 70       		.byte	(.L221-.L223)/2
 3672 0e89 70       		.byte	(.L221-.L223)/2
 3673 0e8a 70       		.byte	(.L221-.L223)/2
 3674 0e8b 70       		.byte	(.L221-.L223)/2
 3675 0e8c 70       		.byte	(.L221-.L223)/2
 3676 0e8d 70       		.byte	(.L221-.L223)/2
 3677 0e8e 70       		.byte	(.L221-.L223)/2
 3678 0e8f 70       		.byte	(.L221-.L223)/2
 3679 0e90 70       		.byte	(.L221-.L223)/2
 3680 0e91 70       		.byte	(.L221-.L223)/2
 3681 0e92 70       		.byte	(.L221-.L223)/2
 3682 0e93 70       		.byte	(.L221-.L223)/2
 3683 0e94 70       		.byte	(.L221-.L223)/2
 3684 0e95 70       		.byte	(.L221-.L223)/2
 3685 0e96 70       		.byte	(.L221-.L223)/2
 3686 0e97 70       		.byte	(.L221-.L223)/2
 3687 0e98 70       		.byte	(.L221-.L223)/2
 3688 0e99 70       		.byte	(.L221-.L223)/2
 3689 0e9a 61       		.byte	(.L226-.L223)/2
 3690 0e9b 70       		.byte	(.L221-.L223)/2
 3691 0e9c 70       		.byte	(.L221-.L223)/2
 3692 0e9d 70       		.byte	(.L221-.L223)/2
 3693 0e9e 1F       		.byte	(.L227-.L223)/2
 3694 0e9f 70       		.byte	(.L221-.L223)/2
 3695 0ea0 70       		.byte	(.L221-.L223)/2
 3696 0ea1 70       		.byte	(.L221-.L223)/2
 3697 0ea2 70       		.byte	(.L221-.L223)/2
 3698 0ea3 70       		.byte	(.L221-.L223)/2
 3699 0ea4 70       		.byte	(.L221-.L223)/2
 3700 0ea5 70       		.byte	(.L221-.L223)/2
 3701 0ea6 70       		.byte	(.L221-.L223)/2
 3702 0ea7 70       		.byte	(.L221-.L223)/2
 3703 0ea8 70       		.byte	(.L221-.L223)/2
 3704 0ea9 70       		.byte	(.L221-.L223)/2
 3705 0eaa 70       		.byte	(.L221-.L223)/2
 3706 0eab 70       		.byte	(.L221-.L223)/2
 3707 0eac 70       		.byte	(.L221-.L223)/2
 3708 0ead 70       		.byte	(.L221-.L223)/2
 3709 0eae 70       		.byte	(.L221-.L223)/2
 3710 0eaf 70       		.byte	(.L221-.L223)/2
 3711 0eb0 69       		.byte	(.L228-.L223)/2
ARM GAS  C:\Users\RECEPC~1\AppData\Local\Temp\ccoGpf2X.s 			page 100


 3712 0eb1 00       		.p2align 1
 3713              	.L227:
 938:.\main.c      ****                             numberKeys1 = 0; 
 3714              		.loc 1 938 0
 3715 0eb2 0E22     		movs	r2, #14
 3716 0eb4 514B     		ldr	r3, .L275+12
 3717 0eb6 1A60     		str	r2, [r3]
 939:.\main.c      ****                             controlChar = 0;
 3718              		.loc 1 939 0
 3719 0eb8 0023     		movs	r3, #0
 3720 0eba 524A     		ldr	r2, .L275+20
 3721 0ebc 1370     		strb	r3, [r2]
 940:.\main.c      ****                             hiddenKeys  = 5;
 3722              		.loc 1 940 0
 3723 0ebe 524A     		ldr	r2, .L275+24
 3724 0ec0 1370     		strb	r3, [r2]
 941:.\main.c      **** //                            idStation[0]= 4;
 3725              		.loc 1 941 0
 3726 0ec2 0522     		movs	r2, #5
 3727 0ec4 514B     		ldr	r3, .L275+28
 3728 0ec6 1A70     		strb	r2, [r3]
 943:.\main.c      ****                             SetPicture(1,DISPLAY_INTRODUZCA_VALOR);                            
 3729              		.loc 1 943 0
 3730 0ec8 0120     		movs	r0, #1
 3731 0eca 494B     		ldr	r3, .L275
 3732 0ecc 83F80001 		strb	r0, [r3, #256]
 944:.\main.c      ****                         break;
 3733              		.loc 1 944 0
 3734 0ed0 0621     		movs	r1, #6
 3735 0ed2 FFF7FEFF 		bl	SetPicture
 3736              	.LVL378:
 945:.\main.c      ****                         case 0x65:  //Test Impresoras 
 3737              		.loc 1 945 0
 3738 0ed6 3DE0     		b	.L221
 3739              	.L225:
 947:.\main.c      ****                             PrintTest();
 3740              		.loc 1 947 0
 3741 0ed8 1022     		movs	r2, #16
 3742 0eda 484B     		ldr	r3, .L275+12
 3743 0edc 1A60     		str	r2, [r3]
 948:.\main.c      ****                             SetPicture(1,DISPLAY_AMBAS_IMPRESORAS_FUNCIONANDO);                    
 3744              		.loc 1 948 0
 3745 0ede FFF7FEFF 		bl	PrintTest
 3746              	.LVL379:
 949:.\main.c      ****                         break;
 3747              		.loc 1 949 0
 3748 0ee2 0120     		movs	r0, #1
 3749 0ee4 6B21     		movs	r1, #107
 3750 0ee6 FFF7FEFF 		bl	SetPicture
 3751              	.LVL380:
 950:.\main.c      ****                         
 3752              		.loc 1 950 0
 3753 0eea 33E0     		b	.L221
 3754              	.L224:
 953:.\main.c      ****                             numberKeys1 = 0;
 3755              		.loc 1 953 0
 3756 0eec 0E22     		movs	r2, #14
ARM GAS  C:\Users\RECEPC~1\AppData\Local\Temp\ccoGpf2X.s 			page 101


 3757 0eee 434B     		ldr	r3, .L275+12
 3758 0ef0 1A60     		str	r2, [r3]
 954:.\main.c      ****                             controlChar = 0;
 3759              		.loc 1 954 0
 3760 0ef2 0023     		movs	r3, #0
 3761 0ef4 434A     		ldr	r2, .L275+20
 3762 0ef6 1370     		strb	r3, [r2]
 955:.\main.c      ****                             hiddenKeys  = 3;
 3763              		.loc 1 955 0
 3764 0ef8 434A     		ldr	r2, .L275+24
 3765 0efa 1370     		strb	r3, [r2]
 956:.\main.c      ****                             pumpGap[0]  = 2;
 3766              		.loc 1 956 0
 3767 0efc 0322     		movs	r2, #3
 3768 0efe 434B     		ldr	r3, .L275+28
 3769 0f00 1A70     		strb	r2, [r3]
 957:.\main.c      ****                             bufferDisplay1.flagKeyboard = 2;
 3770              		.loc 1 957 0
 3771 0f02 0223     		movs	r3, #2
 3772 0f04 424A     		ldr	r2, .L275+32
 3773 0f06 1370     		strb	r3, [r2]
 958:.\main.c      ****                             SetPicture(1,DISPLAY_INTRODUZCA_VALOR);                            
 3774              		.loc 1 958 0
 3775 0f08 394A     		ldr	r2, .L275
 3776 0f0a 82F80031 		strb	r3, [r2, #256]
 959:.\main.c      ****                         break;
 3777              		.loc 1 959 0
 3778 0f0e 0120     		movs	r0, #1
 3779 0f10 0621     		movs	r1, #6
 3780 0f12 FFF7FEFF 		bl	SetPicture
 3781              	.LVL381:
 960:.\main.c      ****                         case 0x58:  //Hora y Fecha
 3782              		.loc 1 960 0
 3783 0f16 1DE0     		b	.L221
 3784              	.L222:
 962:.\main.c      ****                             numberKeys1 = 0;   
 3785              		.loc 1 962 0
 3786 0f18 1222     		movs	r2, #18
 3787 0f1a 384B     		ldr	r3, .L275+12
 3788 0f1c 1A60     		str	r2, [r3]
 963:.\main.c      ****                             bufferDisplay1.flagKeyboard = 4;
 3789              		.loc 1 963 0
 3790 0f1e 0022     		movs	r2, #0
 3791 0f20 384B     		ldr	r3, .L275+20
 3792 0f22 1A70     		strb	r2, [r3]
 964:.\main.c      ****                             SetPicture(1,DISPLAY_CONFIGURAR_FECHA_HORA);                           
 3793              		.loc 1 964 0
 3794 0f24 0422     		movs	r2, #4
 3795 0f26 324B     		ldr	r3, .L275
 3796 0f28 83F80021 		strb	r2, [r3, #256]
 965:.\main.c      ****                         break;
 3797              		.loc 1 965 0
 3798 0f2c 0120     		movs	r0, #1
 3799 0f2e 3E21     		movs	r1, #62
 3800 0f30 FFF7FEFF 		bl	SetPicture
 3801              	.LVL382:
 966:.\main.c      ****                         case 0x7E:  //Pantalla Inicial                                             
ARM GAS  C:\Users\RECEPC~1\AppData\Local\Temp\ccoGpf2X.s 			page 102


 3802              		.loc 1 966 0
 3803 0f34 0EE0     		b	.L221
 3804              	.L226:
 968:.\main.c      ****                             flowDisplay1 = 0;
 3805              		.loc 1 968 0
 3806 0f36 0120     		movs	r0, #1
 3807 0f38 0146     		mov	r1, r0
 3808 0f3a FFF7FEFF 		bl	SetPicture
 3809              	.LVL383:
 969:.\main.c      ****                         break;
 3810              		.loc 1 969 0
 3811 0f3e 0022     		movs	r2, #0
 3812 0f40 2E4B     		ldr	r3, .L275+12
 3813 0f42 1A60     		str	r2, [r3]
 970:.\main.c      ****                         case 0x94:  //Pantalla Inicial                                             
 3814              		.loc 1 970 0
 3815 0f44 06E0     		b	.L221
 3816              	.L228:
 972:.\main.c      ****                             flowDisplay1 = 0;
 3817              		.loc 1 972 0
 3818 0f46 0120     		movs	r0, #1
 3819 0f48 0146     		mov	r1, r0
 3820 0f4a FFF7FEFF 		bl	SetPicture
 3821              	.LVL384:
 973:.\main.c      ****                         break;
 3822              		.loc 1 973 0
 3823 0f4e 0022     		movs	r2, #0
 3824 0f50 2A4B     		ldr	r3, .L275+12
 3825 0f52 1A60     		str	r2, [r3]
 3826              	.L221:
 977:.\main.c      ****                 Display1_ClearRxBuffer();
 3827              		.loc 1 977 0
 3828 0f54 0A20     		movs	r0, #10
 3829 0f56 FFF7FEFF 		bl	CyDelay
 3830              	.LVL385:
 978:.\main.c      ****             }                        
 3831              		.loc 1 978 0
 3832 0f5a FFF7FEFF 		bl	Display1_ClearRxBuffer
 3833              	.LVL386:
 3834 0f5e B5E1     		b	.L70
 3835              	.L89:
 983:.\main.c      ****                 if((Display1_rxBuffer[0]==0xAA) && (Display1_rxBuffer[6]==0xC3) && (Display1_rxBuff
 3836              		.loc 1 983 0
 3837 0f60 FFF7FEFF 		bl	Display1_GetRxBufferSize
 3838              	.LVL387:
 3839 0f64 0828     		cmp	r0, #8
 3840 0f66 40F0B181 		bne	.L70
 984:.\main.c      ****                     switch(Display1_rxBuffer[3]){
 3841              		.loc 1 984 0
 3842 0f6a 254B     		ldr	r3, .L275+16
 3843 0f6c 1B78     		ldrb	r3, [r3]	@ zero_extendqisi2
 3844 0f6e DBB2     		uxtb	r3, r3
 3845 0f70 AA2B     		cmp	r3, #170
 3846 0f72 5AD1     		bne	.L229
 984:.\main.c      ****                     switch(Display1_rxBuffer[3]){
 3847              		.loc 1 984 0 is_stmt 0 discriminator 1
 3848 0f74 224B     		ldr	r3, .L275+16
ARM GAS  C:\Users\RECEPC~1\AppData\Local\Temp\ccoGpf2X.s 			page 103


 3849 0f76 9B79     		ldrb	r3, [r3, #6]	@ zero_extendqisi2
 3850 0f78 DBB2     		uxtb	r3, r3
 3851 0f7a C32B     		cmp	r3, #195
 3852 0f7c 55D1     		bne	.L229
 984:.\main.c      ****                     switch(Display1_rxBuffer[3]){
 3853              		.loc 1 984 0 discriminator 2
 3854 0f7e 204B     		ldr	r3, .L275+16
 3855 0f80 DB79     		ldrb	r3, [r3, #7]	@ zero_extendqisi2
 3856 0f82 DBB2     		uxtb	r3, r3
 3857 0f84 3C2B     		cmp	r3, #60
 3858 0f86 50D1     		bne	.L229
 985:.\main.c      ****                         case 0x38:  //No funcionan  
 3859              		.loc 1 985 0 is_stmt 1
 3860 0f88 1D4B     		ldr	r3, .L275+16
 3861 0f8a DB78     		ldrb	r3, [r3, #3]	@ zero_extendqisi2
 3862 0f8c DBB2     		uxtb	r3, r3
 3863 0f8e 392B     		cmp	r3, #57
 3864 0f90 10D0     		beq	.L230
 3865 0f92 02D8     		bhi	.L231
 3866 0f94 382B     		cmp	r3, #56
 3867 0f96 05D0     		beq	.L232
 3868 0f98 47E0     		b	.L229
 3869              	.L231:
 3870 0f9a 7E2B     		cmp	r3, #126
 3871 0f9c 20D0     		beq	.L233
 3872 0f9e 942B     		cmp	r3, #148
 3873 0fa0 3CD0     		beq	.L234
 3874 0fa2 42E0     		b	.L229
 3875              	.L232:
 987:.\main.c      ****                             SetPicture(1,DISPLAY_IMPRESORA_NO_FUNCIONANDO);                        
 3876              		.loc 1 987 0
 3877 0fa4 1122     		movs	r2, #17
 3878 0fa6 154B     		ldr	r3, .L275+12
 3879 0fa8 1A60     		str	r2, [r3]
 988:.\main.c      ****                         break;
 3880              		.loc 1 988 0
 3881 0faa 0120     		movs	r0, #1
 3882 0fac 6721     		movs	r1, #103
 3883 0fae FFF7FEFF 		bl	SetPicture
 3884              	.LVL388:
 989:.\main.c      ****                         case 0x39:  //Si funcionan
 3885              		.loc 1 989 0
 3886 0fb2 3AE0     		b	.L229
 3887              	.L230:
 991:.\main.c      ****                             printPortA = 1;
 3888              		.loc 1 991 0
 3889 0fb4 0F22     		movs	r2, #15
 3890 0fb6 114B     		ldr	r3, .L275+12
 3891 0fb8 1A60     		str	r2, [r3]
 992:.\main.c      ****                             printPortB = 2;
 3892              		.loc 1 992 0
 3893 0fba 0124     		movs	r4, #1
 3894 0fbc 154B     		ldr	r3, .L275+36
 3895 0fbe 1C70     		strb	r4, [r3]
 993:.\main.c      ****                             EEPROM_1_WriteByte(printPortA,8);
 3896              		.loc 1 993 0
 3897 0fc0 154D     		ldr	r5, .L275+40
ARM GAS  C:\Users\RECEPC~1\AppData\Local\Temp\ccoGpf2X.s 			page 104


 3898 0fc2 0223     		movs	r3, #2
 3899 0fc4 2B70     		strb	r3, [r5]
 994:.\main.c      ****                             EEPROM_1_WriteByte(printPortB,9);
 3900              		.loc 1 994 0
 3901 0fc6 2046     		mov	r0, r4
 3902 0fc8 0821     		movs	r1, #8
 3903 0fca FFF7FEFF 		bl	EEPROM_1_WriteByte
 3904              	.LVL389:
 995:.\main.c      ****                             SetPicture(1,DISPLAY_CONFIGURACIONES);
 3905              		.loc 1 995 0
 3906 0fce 2878     		ldrb	r0, [r5]	@ zero_extendqisi2
 3907 0fd0 0921     		movs	r1, #9
 3908 0fd2 FFF7FEFF 		bl	EEPROM_1_WriteByte
 3909              	.LVL390:
 996:.\main.c      ****                         break;
 3910              		.loc 1 996 0
 3911 0fd6 2046     		mov	r0, r4
 3912 0fd8 5A21     		movs	r1, #90
 3913 0fda FFF7FEFF 		bl	SetPicture
 3914              	.LVL391:
 997:.\main.c      ****                                                
 3915              		.loc 1 997 0
 3916 0fde 24E0     		b	.L229
 3917              	.L233:
1000:.\main.c      ****                             flowDisplay1 = 0;
 3918              		.loc 1 1000 0
 3919 0fe0 0120     		movs	r0, #1
 3920 0fe2 0146     		mov	r1, r0
 3921 0fe4 FFF7FEFF 		bl	SetPicture
 3922              	.LVL392:
1001:.\main.c      ****                         break;
 3923              		.loc 1 1001 0
 3924 0fe8 0022     		movs	r2, #0
 3925 0fea 044B     		ldr	r3, .L275+12
 3926 0fec 1A60     		str	r2, [r3]
1002:.\main.c      ****                         case 0x94:  //Pantalla Inicial                                             
 3927              		.loc 1 1002 0
 3928 0fee 1CE0     		b	.L229
 3929              	.L276:
 3930              		.align	2
 3931              	.L275:
 3932 0ff0 00000000 		.word	bufferDisplay1
 3933 0ff4 00000000 		.word	configAccess
 3934 0ff8 00000000 		.word	.LANCHOR1
 3935 0ffc 00000000 		.word	flowDisplay1
 3936 1000 00000000 		.word	Display1_rxBuffer
 3937 1004 00000000 		.word	numberKeys1
 3938 1008 00000000 		.word	controlChar
 3939 100c 00000000 		.word	hiddenKeys
 3940 1010 00000000 		.word	pumpGap
 3941 1014 00000000 		.word	printPortA
 3942 1018 00000000 		.word	printPortB
 3943              	.L234:
1004:.\main.c      ****                             flowDisplay1 = 0;
 3944              		.loc 1 1004 0
 3945 101c 0120     		movs	r0, #1
 3946 101e 0146     		mov	r1, r0
ARM GAS  C:\Users\RECEPC~1\AppData\Local\Temp\ccoGpf2X.s 			page 105


 3947 1020 FFF7FEFF 		bl	SetPicture
 3948              	.LVL393:
1005:.\main.c      ****                         break;
 3949              		.loc 1 1005 0
 3950 1024 0022     		movs	r2, #0
 3951 1026 AA4B     		ldr	r3, .L277
 3952 1028 1A60     		str	r2, [r3]
 3953              	.L229:
1009:.\main.c      ****                 Display1_ClearRxBuffer();
 3954              		.loc 1 1009 0
 3955 102a 0A20     		movs	r0, #10
 3956 102c FFF7FEFF 		bl	CyDelay
 3957              	.LVL394:
1010:.\main.c      ****             }                        
 3958              		.loc 1 1010 0
 3959 1030 FFF7FEFF 		bl	Display1_ClearRxBuffer
 3960              	.LVL395:
 3961 1034 4AE1     		b	.L70
 3962              	.L90:
1015:.\main.c      ****                 if((Display1_rxBuffer[0]==0xAA) && (Display1_rxBuffer[6]==0xC3) && (Display1_rxBuff
 3963              		.loc 1 1015 0
 3964 1036 FFF7FEFF 		bl	Display1_GetRxBufferSize
 3965              	.LVL396:
 3966 103a 0828     		cmp	r0, #8
 3967 103c 40F04681 		bne	.L70
1016:.\main.c      ****                     switch(Display1_rxBuffer[3]){
 3968              		.loc 1 1016 0
 3969 1040 A44B     		ldr	r3, .L277+4
 3970 1042 1B78     		ldrb	r3, [r3]	@ zero_extendqisi2
 3971 1044 DBB2     		uxtb	r3, r3
 3972 1046 AA2B     		cmp	r3, #170
 3973 1048 68D1     		bne	.L235
1016:.\main.c      ****                     switch(Display1_rxBuffer[3]){
 3974              		.loc 1 1016 0 is_stmt 0 discriminator 1
 3975 104a A24B     		ldr	r3, .L277+4
 3976 104c 9B79     		ldrb	r3, [r3, #6]	@ zero_extendqisi2
 3977 104e DBB2     		uxtb	r3, r3
 3978 1050 C32B     		cmp	r3, #195
 3979 1052 63D1     		bne	.L235
1016:.\main.c      ****                     switch(Display1_rxBuffer[3]){
 3980              		.loc 1 1016 0 discriminator 2
 3981 1054 9F4B     		ldr	r3, .L277+4
 3982 1056 DB79     		ldrb	r3, [r3, #7]	@ zero_extendqisi2
 3983 1058 DBB2     		uxtb	r3, r3
 3984 105a 3C2B     		cmp	r3, #60
 3985 105c 5ED1     		bne	.L235
1017:.\main.c      ****                         case 0x8C:  //1 no funciona  
 3986              		.loc 1 1017 0 is_stmt 1
 3987 105e 9D4B     		ldr	r3, .L277+4
 3988 1060 DB78     		ldrb	r3, [r3, #3]	@ zero_extendqisi2
 3989 1062 7E3B     		subs	r3, r3, #126
 3990 1064 162B     		cmp	r3, #22
 3991 1066 59D8     		bhi	.L235
 3992 1068 DFE803F0 		tbb	[pc, r3]
 3993              	.L237:
 3994 106c 49       		.byte	(.L236-.L237)/2
 3995 106d 58       		.byte	(.L235-.L237)/2
ARM GAS  C:\Users\RECEPC~1\AppData\Local\Temp\ccoGpf2X.s 			page 106


 3996 106e 58       		.byte	(.L235-.L237)/2
 3997 106f 58       		.byte	(.L235-.L237)/2
 3998 1070 58       		.byte	(.L235-.L237)/2
 3999 1071 58       		.byte	(.L235-.L237)/2
 4000 1072 58       		.byte	(.L235-.L237)/2
 4001 1073 58       		.byte	(.L235-.L237)/2
 4002 1074 58       		.byte	(.L235-.L237)/2
 4003 1075 58       		.byte	(.L235-.L237)/2
 4004 1076 58       		.byte	(.L235-.L237)/2
 4005 1077 58       		.byte	(.L235-.L237)/2
 4006 1078 58       		.byte	(.L235-.L237)/2
 4007 1079 58       		.byte	(.L235-.L237)/2
 4008 107a 0C       		.byte	(.L238-.L237)/2
 4009 107b 20       		.byte	(.L239-.L237)/2
 4010 107c 35       		.byte	(.L240-.L237)/2
 4011 107d 58       		.byte	(.L235-.L237)/2
 4012 107e 58       		.byte	(.L235-.L237)/2
 4013 107f 58       		.byte	(.L235-.L237)/2
 4014 1080 58       		.byte	(.L235-.L237)/2
 4015 1081 58       		.byte	(.L235-.L237)/2
 4016 1082 51       		.byte	(.L241-.L237)/2
 4017 1083 00       		.p2align 1
 4018              	.L238:
1019:.\main.c      ****                             printPortA = 2;
 4019              		.loc 1 1019 0
 4020 1084 0F22     		movs	r2, #15
 4021 1086 924B     		ldr	r3, .L277
 4022 1088 1A60     		str	r2, [r3]
1020:.\main.c      ****                             printPortB = 2;
 4023              		.loc 1 1020 0
 4024 108a 0220     		movs	r0, #2
 4025 108c 924B     		ldr	r3, .L277+8
 4026 108e 1870     		strb	r0, [r3]
1021:.\main.c      ****                             EEPROM_1_WriteByte(printPortA,8);
 4027              		.loc 1 1021 0
 4028 1090 924C     		ldr	r4, .L277+12
 4029 1092 2070     		strb	r0, [r4]
1022:.\main.c      ****                             EEPROM_1_WriteByte(printPortB,9);
 4030              		.loc 1 1022 0
 4031 1094 0821     		movs	r1, #8
 4032 1096 FFF7FEFF 		bl	EEPROM_1_WriteByte
 4033              	.LVL397:
1023:.\main.c      ****                             SetPicture(1,DISPLAY_CONFIGURACIONES);                            
 4034              		.loc 1 1023 0
 4035 109a 2078     		ldrb	r0, [r4]	@ zero_extendqisi2
 4036 109c 0921     		movs	r1, #9
 4037 109e FFF7FEFF 		bl	EEPROM_1_WriteByte
 4038              	.LVL398:
1024:.\main.c      ****                         break;
 4039              		.loc 1 1024 0
 4040 10a2 0120     		movs	r0, #1
 4041 10a4 5A21     		movs	r1, #90
 4042 10a6 FFF7FEFF 		bl	SetPicture
 4043              	.LVL399:
1025:.\main.c      ****                         case 0x8D:  //2 no funciona
 4044              		.loc 1 1025 0
 4045 10aa 37E0     		b	.L235
ARM GAS  C:\Users\RECEPC~1\AppData\Local\Temp\ccoGpf2X.s 			page 107


 4046              	.L239:
1027:.\main.c      ****                             printPortA = 1;
 4047              		.loc 1 1027 0
 4048 10ac 0F22     		movs	r2, #15
 4049 10ae 884B     		ldr	r3, .L277
 4050 10b0 1A60     		str	r2, [r3]
1028:.\main.c      ****                             printPortB = 1;
 4051              		.loc 1 1028 0
 4052 10b2 0124     		movs	r4, #1
 4053 10b4 884B     		ldr	r3, .L277+8
 4054 10b6 1C70     		strb	r4, [r3]
1029:.\main.c      ****                             EEPROM_1_WriteByte(printPortA,8);
 4055              		.loc 1 1029 0
 4056 10b8 884D     		ldr	r5, .L277+12
 4057 10ba 2C70     		strb	r4, [r5]
1030:.\main.c      ****                             EEPROM_1_WriteByte(printPortB,9);
 4058              		.loc 1 1030 0
 4059 10bc 2046     		mov	r0, r4
 4060 10be 0821     		movs	r1, #8
 4061 10c0 FFF7FEFF 		bl	EEPROM_1_WriteByte
 4062              	.LVL400:
1031:.\main.c      ****                             SetPicture(1,DISPLAY_CONFIGURACIONES); 
 4063              		.loc 1 1031 0
 4064 10c4 2878     		ldrb	r0, [r5]	@ zero_extendqisi2
 4065 10c6 0921     		movs	r1, #9
 4066 10c8 FFF7FEFF 		bl	EEPROM_1_WriteByte
 4067              	.LVL401:
1032:.\main.c      ****                         break;
 4068              		.loc 1 1032 0
 4069 10cc 2046     		mov	r0, r4
 4070 10ce 5A21     		movs	r1, #90
 4071 10d0 FFF7FEFF 		bl	SetPicture
 4072              	.LVL402:
1033:.\main.c      ****                             
 4073              		.loc 1 1033 0
 4074 10d4 22E0     		b	.L235
 4075              	.L240:
1036:.\main.c      ****                             printPortA = 0;
 4076              		.loc 1 1036 0
 4077 10d6 0F22     		movs	r2, #15
 4078 10d8 7D4B     		ldr	r3, .L277
 4079 10da 1A60     		str	r2, [r3]
1037:.\main.c      ****                             printPortB = 0;
 4080              		.loc 1 1037 0
 4081 10dc 0020     		movs	r0, #0
 4082 10de 7E4B     		ldr	r3, .L277+8
 4083 10e0 1870     		strb	r0, [r3]
1038:.\main.c      ****                             EEPROM_1_WriteByte(printPortA,8);
 4084              		.loc 1 1038 0
 4085 10e2 7E4C     		ldr	r4, .L277+12
 4086 10e4 2070     		strb	r0, [r4]
1039:.\main.c      ****                             EEPROM_1_WriteByte(printPortB,9);
 4087              		.loc 1 1039 0
 4088 10e6 0821     		movs	r1, #8
 4089 10e8 FFF7FEFF 		bl	EEPROM_1_WriteByte
 4090              	.LVL403:
1040:.\main.c      ****                             SetPicture(1,DISPLAY_CONFIGURACIONES); 
ARM GAS  C:\Users\RECEPC~1\AppData\Local\Temp\ccoGpf2X.s 			page 108


 4091              		.loc 1 1040 0
 4092 10ec 2078     		ldrb	r0, [r4]	@ zero_extendqisi2
 4093 10ee 0921     		movs	r1, #9
 4094 10f0 FFF7FEFF 		bl	EEPROM_1_WriteByte
 4095              	.LVL404:
1041:.\main.c      ****                         break;
 4096              		.loc 1 1041 0
 4097 10f4 0120     		movs	r0, #1
 4098 10f6 5A21     		movs	r1, #90
 4099 10f8 FFF7FEFF 		bl	SetPicture
 4100              	.LVL405:
1042:.\main.c      ****                                                
 4101              		.loc 1 1042 0
 4102 10fc 0EE0     		b	.L235
 4103              	.L236:
1045:.\main.c      ****                             flowDisplay1 = 0;
 4104              		.loc 1 1045 0
 4105 10fe 0120     		movs	r0, #1
 4106 1100 0146     		mov	r1, r0
 4107 1102 FFF7FEFF 		bl	SetPicture
 4108              	.LVL406:
1046:.\main.c      ****                         break;
 4109              		.loc 1 1046 0
 4110 1106 0022     		movs	r2, #0
 4111 1108 714B     		ldr	r3, .L277
 4112 110a 1A60     		str	r2, [r3]
1047:.\main.c      ****                         case 0x94:  //Pantalla Inicial                                             
 4113              		.loc 1 1047 0
 4114 110c 06E0     		b	.L235
 4115              	.L241:
1049:.\main.c      ****                             flowDisplay1 = 0;
 4116              		.loc 1 1049 0
 4117 110e 0120     		movs	r0, #1
 4118 1110 0146     		mov	r1, r0
 4119 1112 FFF7FEFF 		bl	SetPicture
 4120              	.LVL407:
1050:.\main.c      ****                         break;
 4121              		.loc 1 1050 0
 4122 1116 0022     		movs	r2, #0
 4123 1118 6D4B     		ldr	r3, .L277
 4124 111a 1A60     		str	r2, [r3]
 4125              	.L235:
1054:.\main.c      ****                 Display1_ClearRxBuffer();
 4126              		.loc 1 1054 0
 4127 111c 0A20     		movs	r0, #10
 4128 111e FFF7FEFF 		bl	CyDelay
 4129              	.LVL408:
1055:.\main.c      ****             }                        
 4130              		.loc 1 1055 0
 4131 1122 FFF7FEFF 		bl	Display1_ClearRxBuffer
 4132              	.LVL409:
 4133 1126 D1E0     		b	.L70
 4134              	.L91:
1060:.\main.c      ****                 WriteLCD(1,(((timeDownHandle[1]&0x10)>>4)+48),13,8,1,0x0000,'N');
 4135              		.loc 1 1060 0
 4136 1128 FFF7FEFF 		bl	leer_hora
 4137              	.LVL410:
ARM GAS  C:\Users\RECEPC~1\AppData\Local\Temp\ccoGpf2X.s 			page 109


 4138 112c 0128     		cmp	r0, #1
 4139 112e 3CD1     		bne	.L242
1061:.\main.c      ****                 WriteLCD(1,((timeDownHandle[1]&0x0F)+48),13,9,1,0x0000,'N');
 4140              		.loc 1 1061 0
 4141 1130 6B4F     		ldr	r7, .L277+16
 4142 1132 7978     		ldrb	r1, [r7, #1]	@ zero_extendqisi2
 4143 1134 C1F30011 		ubfx	r1, r1, #4, #1
 4144 1138 3031     		adds	r1, r1, #48
 4145 113a 0124     		movs	r4, #1
 4146 113c 0094     		str	r4, [sp]
 4147 113e 0026     		movs	r6, #0
 4148 1140 0196     		str	r6, [sp, #4]
 4149 1142 4E25     		movs	r5, #78
 4150 1144 0295     		str	r5, [sp, #8]
 4151 1146 2046     		mov	r0, r4
 4152 1148 C9B2     		uxtb	r1, r1
 4153 114a 0D22     		movs	r2, #13
 4154 114c 0823     		movs	r3, #8
 4155 114e FFF7FEFF 		bl	WriteLCD
 4156              	.LVL411:
1062:.\main.c      ****                 WriteLCD(1,':',13,10,1,0x0000,'N');
 4157              		.loc 1 1062 0
 4158 1152 7978     		ldrb	r1, [r7, #1]	@ zero_extendqisi2
 4159 1154 01F00F01 		and	r1, r1, #15
 4160 1158 0094     		str	r4, [sp]
 4161 115a 0196     		str	r6, [sp, #4]
 4162 115c 0295     		str	r5, [sp, #8]
 4163 115e 2046     		mov	r0, r4
 4164 1160 3031     		adds	r1, r1, #48
 4165 1162 0D22     		movs	r2, #13
 4166 1164 0923     		movs	r3, #9
 4167 1166 FFF7FEFF 		bl	WriteLCD
 4168              	.LVL412:
1063:.\main.c      ****                 WriteLCD(1,(((timeDownHandle[0]&0xF0)>>4)+48),13,11,1,0x0000,'N');
 4169              		.loc 1 1063 0
 4170 116a 0094     		str	r4, [sp]
 4171 116c 0196     		str	r6, [sp, #4]
 4172 116e 0295     		str	r5, [sp, #8]
 4173 1170 2046     		mov	r0, r4
 4174 1172 3A21     		movs	r1, #58
 4175 1174 0D22     		movs	r2, #13
 4176 1176 0A23     		movs	r3, #10
 4177 1178 FFF7FEFF 		bl	WriteLCD
 4178              	.LVL413:
1064:.\main.c      ****                 WriteLCD(1,((timeDownHandle[0]&0x0F)+48),13,12,1,0x0000,'N');               
 4179              		.loc 1 1064 0
 4180 117c 3978     		ldrb	r1, [r7]	@ zero_extendqisi2
 4181 117e 0909     		lsrs	r1, r1, #4
 4182 1180 0094     		str	r4, [sp]
 4183 1182 0196     		str	r6, [sp, #4]
 4184 1184 0295     		str	r5, [sp, #8]
 4185 1186 2046     		mov	r0, r4
 4186 1188 3031     		adds	r1, r1, #48
 4187 118a 0D22     		movs	r2, #13
 4188 118c 0B23     		movs	r3, #11
 4189 118e FFF7FEFF 		bl	WriteLCD
 4190              	.LVL414:
ARM GAS  C:\Users\RECEPC~1\AppData\Local\Temp\ccoGpf2X.s 			page 110


1065:.\main.c      ****             }
 4191              		.loc 1 1065 0
 4192 1192 3978     		ldrb	r1, [r7]	@ zero_extendqisi2
 4193 1194 01F00F01 		and	r1, r1, #15
 4194 1198 0094     		str	r4, [sp]
 4195 119a 0196     		str	r6, [sp, #4]
 4196 119c 0295     		str	r5, [sp, #8]
 4197 119e 2046     		mov	r0, r4
 4198 11a0 3031     		adds	r1, r1, #48
 4199 11a2 0D22     		movs	r2, #13
 4200 11a4 0C23     		movs	r3, #12
 4201 11a6 FFF7FEFF 		bl	WriteLCD
 4202              	.LVL415:
 4203              	.L242:
1067:.\main.c      ****                 WriteLCD(1,(((dateDownHandle[0]&0x30)>>4)+48),21,8,1,0x0000,'N');
 4204              		.loc 1 1067 0
 4205 11aa FFF7FEFF 		bl	leer_fecha
 4206              	.LVL416:
 4207 11ae 0128     		cmp	r0, #1
 4208 11b0 5DD1     		bne	.L243
1068:.\main.c      ****                 WriteLCD(1,((dateDownHandle[0]&0x0F)+48),21,9,1,0x0000,'N');
 4209              		.loc 1 1068 0
 4210 11b2 4C4F     		ldr	r7, .L277+20
 4211 11b4 3978     		ldrb	r1, [r7]	@ zero_extendqisi2
 4212 11b6 C1F30111 		ubfx	r1, r1, #4, #2
 4213 11ba 0124     		movs	r4, #1
 4214 11bc 0094     		str	r4, [sp]
 4215 11be 0026     		movs	r6, #0
 4216 11c0 0196     		str	r6, [sp, #4]
 4217 11c2 4E25     		movs	r5, #78
 4218 11c4 0295     		str	r5, [sp, #8]
 4219 11c6 2046     		mov	r0, r4
 4220 11c8 3031     		adds	r1, r1, #48
 4221 11ca 1522     		movs	r2, #21
 4222 11cc 0823     		movs	r3, #8
 4223 11ce FFF7FEFF 		bl	WriteLCD
 4224              	.LVL417:
1069:.\main.c      ****                 WriteLCD(1,'/',21,10,1,0x0000,'N');
 4225              		.loc 1 1069 0
 4226 11d2 3978     		ldrb	r1, [r7]	@ zero_extendqisi2
 4227 11d4 01F00F01 		and	r1, r1, #15
 4228 11d8 0094     		str	r4, [sp]
 4229 11da 0196     		str	r6, [sp, #4]
 4230 11dc 0295     		str	r5, [sp, #8]
 4231 11de 2046     		mov	r0, r4
 4232 11e0 3031     		adds	r1, r1, #48
 4233 11e2 1522     		movs	r2, #21
 4234 11e4 0923     		movs	r3, #9
 4235 11e6 FFF7FEFF 		bl	WriteLCD
 4236              	.LVL418:
1070:.\main.c      ****                 WriteLCD(1,(((dateDownHandle[1]&0x10)>>4)+48),21,11,1,0x0000,'N');
 4237              		.loc 1 1070 0
 4238 11ea 0094     		str	r4, [sp]
 4239 11ec 0196     		str	r6, [sp, #4]
 4240 11ee 0295     		str	r5, [sp, #8]
 4241 11f0 2046     		mov	r0, r4
 4242 11f2 2F21     		movs	r1, #47
ARM GAS  C:\Users\RECEPC~1\AppData\Local\Temp\ccoGpf2X.s 			page 111


 4243 11f4 1522     		movs	r2, #21
 4244 11f6 0A23     		movs	r3, #10
 4245 11f8 FFF7FEFF 		bl	WriteLCD
 4246              	.LVL419:
1071:.\main.c      ****                 WriteLCD(1,((dateDownHandle[1]&0x0F)+48),21,12,1,0x0000,'N');
 4247              		.loc 1 1071 0
 4248 11fc 7978     		ldrb	r1, [r7, #1]	@ zero_extendqisi2
 4249 11fe C1F30011 		ubfx	r1, r1, #4, #1
 4250 1202 3031     		adds	r1, r1, #48
 4251 1204 0094     		str	r4, [sp]
 4252 1206 0196     		str	r6, [sp, #4]
 4253 1208 0295     		str	r5, [sp, #8]
 4254 120a 2046     		mov	r0, r4
 4255 120c C9B2     		uxtb	r1, r1
 4256 120e 1522     		movs	r2, #21
 4257 1210 0B23     		movs	r3, #11
 4258 1212 FFF7FEFF 		bl	WriteLCD
 4259              	.LVL420:
1072:.\main.c      ****                 WriteLCD(1,'/',21,13,1,0x0000,'N');
 4260              		.loc 1 1072 0
 4261 1216 7978     		ldrb	r1, [r7, #1]	@ zero_extendqisi2
 4262 1218 01F00F01 		and	r1, r1, #15
 4263 121c 0094     		str	r4, [sp]
 4264 121e 0196     		str	r6, [sp, #4]
 4265 1220 0295     		str	r5, [sp, #8]
 4266 1222 2046     		mov	r0, r4
 4267 1224 3031     		adds	r1, r1, #48
 4268 1226 1522     		movs	r2, #21
 4269 1228 0C23     		movs	r3, #12
 4270 122a FFF7FEFF 		bl	WriteLCD
 4271              	.LVL421:
1073:.\main.c      ****                 WriteLCD(1,(((dateDownHandle[2]&0xF0)>>4)+48),21,14,1,0x0000,'N');
 4272              		.loc 1 1073 0
 4273 122e 0094     		str	r4, [sp]
 4274 1230 0196     		str	r6, [sp, #4]
 4275 1232 0295     		str	r5, [sp, #8]
 4276 1234 2046     		mov	r0, r4
 4277 1236 2F21     		movs	r1, #47
 4278 1238 1522     		movs	r2, #21
 4279 123a 0D23     		movs	r3, #13
 4280 123c FFF7FEFF 		bl	WriteLCD
 4281              	.LVL422:
1074:.\main.c      ****                 WriteLCD(1,((dateDownHandle[2]&0x0F)+48),21,15,1,0x0000,'N');
 4282              		.loc 1 1074 0
 4283 1240 B978     		ldrb	r1, [r7, #2]	@ zero_extendqisi2
 4284 1242 0909     		lsrs	r1, r1, #4
 4285 1244 0094     		str	r4, [sp]
 4286 1246 0196     		str	r6, [sp, #4]
 4287 1248 0295     		str	r5, [sp, #8]
 4288 124a 2046     		mov	r0, r4
 4289 124c 3031     		adds	r1, r1, #48
 4290 124e 1522     		movs	r2, #21
 4291 1250 0E23     		movs	r3, #14
 4292 1252 FFF7FEFF 		bl	WriteLCD
 4293              	.LVL423:
1075:.\main.c      ****             }
 4294              		.loc 1 1075 0
ARM GAS  C:\Users\RECEPC~1\AppData\Local\Temp\ccoGpf2X.s 			page 112


 4295 1256 B978     		ldrb	r1, [r7, #2]	@ zero_extendqisi2
 4296 1258 01F00F01 		and	r1, r1, #15
 4297 125c 0094     		str	r4, [sp]
 4298 125e 0196     		str	r6, [sp, #4]
 4299 1260 0295     		str	r5, [sp, #8]
 4300 1262 2046     		mov	r0, r4
 4301 1264 3031     		adds	r1, r1, #48
 4302 1266 1522     		movs	r2, #21
 4303 1268 0F23     		movs	r3, #15
 4304 126a FFF7FEFF 		bl	WriteLCD
 4305              	.LVL424:
 4306              	.L243:
1077:.\main.c      ****                 if((Display1_rxBuffer[0]==0xAA) && (Display1_rxBuffer[6]==0xC3) && (Display1_rxBuff
 4307              		.loc 1 1077 0
 4308 126e FFF7FEFF 		bl	Display1_GetRxBufferSize
 4309              	.LVL425:
 4310 1272 0828     		cmp	r0, #8
 4311 1274 2AD1     		bne	.L70
1078:.\main.c      ****                     switch(Display1_rxBuffer[3]){                                                  
 4312              		.loc 1 1078 0
 4313 1276 174B     		ldr	r3, .L277+4
 4314 1278 1B78     		ldrb	r3, [r3]	@ zero_extendqisi2
 4315 127a DBB2     		uxtb	r3, r3
 4316 127c AA2B     		cmp	r3, #170
 4317 127e 20D1     		bne	.L244
1078:.\main.c      ****                     switch(Display1_rxBuffer[3]){                                                  
 4318              		.loc 1 1078 0 is_stmt 0 discriminator 1
 4319 1280 144B     		ldr	r3, .L277+4
 4320 1282 9B79     		ldrb	r3, [r3, #6]	@ zero_extendqisi2
 4321 1284 DBB2     		uxtb	r3, r3
 4322 1286 C32B     		cmp	r3, #195
 4323 1288 1BD1     		bne	.L244
1078:.\main.c      ****                     switch(Display1_rxBuffer[3]){                                                  
 4324              		.loc 1 1078 0 discriminator 2
 4325 128a 124B     		ldr	r3, .L277+4
 4326 128c DB79     		ldrb	r3, [r3, #7]	@ zero_extendqisi2
 4327 128e DBB2     		uxtb	r3, r3
 4328 1290 3C2B     		cmp	r3, #60
 4329 1292 16D1     		bne	.L244
1079:.\main.c      ****                         case 0x7E:  //Pantalla Inicial  
 4330              		.loc 1 1079 0 is_stmt 1
 4331 1294 0F4B     		ldr	r3, .L277+4
 4332 1296 DB78     		ldrb	r3, [r3, #3]	@ zero_extendqisi2
 4333 1298 DBB2     		uxtb	r3, r3
 4334 129a 7E2B     		cmp	r3, #126
 4335 129c 02D0     		beq	.L245
 4336 129e 942B     		cmp	r3, #148
 4337 12a0 08D0     		beq	.L246
 4338 12a2 0EE0     		b	.L244
 4339              	.L245:
1081:.\main.c      ****                             SetPicture(1,DISPLAY_INICIO0);                            
 4340              		.loc 1 1081 0
 4341 12a4 0022     		movs	r2, #0
 4342 12a6 0A4B     		ldr	r3, .L277
 4343 12a8 1A60     		str	r2, [r3]
1082:.\main.c      ****                         break;
 4344              		.loc 1 1082 0
ARM GAS  C:\Users\RECEPC~1\AppData\Local\Temp\ccoGpf2X.s 			page 113


 4345 12aa 0120     		movs	r0, #1
 4346 12ac 0146     		mov	r1, r0
 4347 12ae FFF7FEFF 		bl	SetPicture
 4348              	.LVL426:
1083:.\main.c      ****                         case 0x94:  //Pantalla Inicial    
 4349              		.loc 1 1083 0
 4350 12b2 06E0     		b	.L244
 4351              	.L246:
1085:.\main.c      ****                             SetPicture(1,DISPLAY_INICIO0);                            
 4352              		.loc 1 1085 0
 4353 12b4 0022     		movs	r2, #0
 4354 12b6 064B     		ldr	r3, .L277
 4355 12b8 1A60     		str	r2, [r3]
1086:.\main.c      ****                         break;
 4356              		.loc 1 1086 0
 4357 12ba 0120     		movs	r0, #1
 4358 12bc 0146     		mov	r1, r0
 4359 12be FFF7FEFF 		bl	SetPicture
 4360              	.LVL427:
 4361              	.L244:
1090:.\main.c      ****                 Display1_ClearRxBuffer();
 4362              		.loc 1 1090 0
 4363 12c2 0A20     		movs	r0, #10
 4364 12c4 FFF7FEFF 		bl	CyDelay
 4365              	.LVL428:
1091:.\main.c      ****             }                        
 4366              		.loc 1 1091 0
 4367 12c8 FFF7FEFF 		bl	Display1_ClearRxBuffer
 4368              	.LVL429:
 4369              	.L70:
1097:.\main.c      **** 
 4370              		.loc 1 1097 0
 4371 12cc 05B0     		add	sp, sp, #20
 4372              		.cfi_def_cfa_offset 20
 4373              		@ sp needed
 4374 12ce F0BD     		pop	{r4, r5, r6, r7, pc}
 4375              	.L278:
 4376              		.align	2
 4377              	.L277:
 4378 12d0 00000000 		.word	flowDisplay1
 4379 12d4 00000000 		.word	Display1_rxBuffer
 4380 12d8 00000000 		.word	printPortA
 4381 12dc 00000000 		.word	printPortB
 4382 12e0 00000000 		.word	timeDownHandle
 4383 12e4 00000000 		.word	dateDownHandle
 4384              		.cfi_endproc
 4385              	.LFE71:
 4386              		.size	PollingDisplay1, .-PollingDisplay1
 4387              		.section	.text.PollingDisplay2,"ax",%progbits
 4388              		.align	2
 4389              		.global	PollingDisplay2
 4390              		.thumb
 4391              		.thumb_func
 4392              		.type	PollingDisplay2, %function
 4393              	PollingDisplay2:
 4394              	.LFB72:
1110:.\main.c      ****     switch(flowDisplay2){
ARM GAS  C:\Users\RECEPC~1\AppData\Local\Temp\ccoGpf2X.s 			page 114


 4395              		.loc 1 1110 0
 4396              		.cfi_startproc
 4397              		@ args = 0, pretend = 0, frame = 0
 4398              		@ frame_needed = 0, uses_anonymous_args = 0
 4399 0000 08B5     		push	{r3, lr}
 4400              		.cfi_def_cfa_offset 8
 4401              		.cfi_offset 3, -8
 4402              		.cfi_offset 14, -4
1111:.\main.c      ****         case 0:
 4403              		.loc 1 1111 0
 4404 0002 A94B     		ldr	r3, .L318
 4405 0004 1B68     		ldr	r3, [r3]
 4406 0006 062B     		cmp	r3, #6
 4407 0008 00F28B81 		bhi	.L279
 4408 000c DFE813F0 		tbh	[pc, r3, lsl #1]
 4409              	.L282:
 4410 0010 0700     		.2byte	(.L281-.L282)/2
 4411 0012 0D00     		.2byte	(.L283-.L282)/2
 4412 0014 4100     		.2byte	(.L284-.L282)/2
 4413 0016 9200     		.2byte	(.L285-.L282)/2
 4414 0018 ED00     		.2byte	(.L286-.L282)/2
 4415 001a 1D01     		.2byte	(.L287-.L282)/2
 4416 001c 5001     		.2byte	(.L288-.L282)/2
 4417              		.p2align 1
 4418              	.L281:
1113:.\main.c      ****             flowDisplay2 =1;
 4419              		.loc 1 1113 0
 4420 001e FFF7FEFF 		bl	InitDisplay2
 4421              	.LVL430:
1114:.\main.c      ****         break;
 4422              		.loc 1 1114 0
 4423 0022 0122     		movs	r2, #1
 4424 0024 A04B     		ldr	r3, .L318
 4425 0026 1A60     		str	r2, [r3]
1115:.\main.c      ****         case 1: //Menu
 4426              		.loc 1 1115 0
 4427 0028 08BD     		pop	{r3, pc}
 4428              	.L283:
1117:.\main.c      ****             if(Display2_GetRxBufferSize()==8){
 4429              		.loc 1 1117 0
 4430 002a 0220     		movs	r0, #2
 4431 002c 2321     		movs	r1, #35
 4432 002e FFF7FEFF 		bl	ShowRectangle
 4433              	.LVL431:
1118:.\main.c      ****                 if((Display2_rxBuffer[0]==0xAA) && (Display2_rxBuffer[6]==0xC3) && (Display2_rxBuff
 4434              		.loc 1 1118 0
 4435 0032 FFF7FEFF 		bl	Display2_GetRxBufferSize
 4436              	.LVL432:
 4437 0036 0828     		cmp	r0, #8
 4438 0038 40F07381 		bne	.L279
1119:.\main.c      ****                     switch(Display2_rxBuffer[3]){
 4439              		.loc 1 1119 0
 4440 003c 9B4B     		ldr	r3, .L318+4
 4441 003e 1B78     		ldrb	r3, [r3]	@ zero_extendqisi2
 4442 0040 DBB2     		uxtb	r3, r3
 4443 0042 AA2B     		cmp	r3, #170
 4444 0044 1FD1     		bne	.L289
ARM GAS  C:\Users\RECEPC~1\AppData\Local\Temp\ccoGpf2X.s 			page 115


1119:.\main.c      ****                     switch(Display2_rxBuffer[3]){
 4445              		.loc 1 1119 0 is_stmt 0 discriminator 1
 4446 0046 994B     		ldr	r3, .L318+4
 4447 0048 9B79     		ldrb	r3, [r3, #6]	@ zero_extendqisi2
 4448 004a DBB2     		uxtb	r3, r3
 4449 004c C32B     		cmp	r3, #195
 4450 004e 1AD1     		bne	.L289
1119:.\main.c      ****                     switch(Display2_rxBuffer[3]){
 4451              		.loc 1 1119 0 discriminator 2
 4452 0050 964B     		ldr	r3, .L318+4
 4453 0052 DB79     		ldrb	r3, [r3, #7]	@ zero_extendqisi2
 4454 0054 DBB2     		uxtb	r3, r3
 4455 0056 3C2B     		cmp	r3, #60
 4456 0058 15D1     		bne	.L289
1120:.\main.c      ****                         case 0x3A:  //Pantalla forma de pago
 4457              		.loc 1 1120 0 is_stmt 1
 4458 005a 944B     		ldr	r3, .L318+4
 4459 005c DB78     		ldrb	r3, [r3, #3]	@ zero_extendqisi2
 4460 005e DBB2     		uxtb	r3, r3
 4461 0060 3A2B     		cmp	r3, #58
 4462 0062 02D0     		beq	.L290
 4463 0064 7E2B     		cmp	r3, #126
 4464 0066 07D0     		beq	.L291
 4465 0068 0DE0     		b	.L289
 4466              	.L290:
1122:.\main.c      ****                             SetPicture(2,DISPLAY_FORMA_PAGO_DESEADA);                            
 4467              		.loc 1 1122 0
 4468 006a 0220     		movs	r0, #2
 4469 006c 8E4B     		ldr	r3, .L318
 4470 006e 1860     		str	r0, [r3]
1123:.\main.c      ****                         break;   
 4471              		.loc 1 1123 0
 4472 0070 0421     		movs	r1, #4
 4473 0072 FFF7FEFF 		bl	SetPicture
 4474              	.LVL433:
1124:.\main.c      ****                         case 0x7E:  //Pantalla Inicial                                             
 4475              		.loc 1 1124 0
 4476 0076 06E0     		b	.L289
 4477              	.L291:
1126:.\main.c      ****                             flowDisplay2 = 0;
 4478              		.loc 1 1126 0
 4479 0078 0220     		movs	r0, #2
 4480 007a 0121     		movs	r1, #1
 4481 007c FFF7FEFF 		bl	SetPicture
 4482              	.LVL434:
1127:.\main.c      ****                         break;
 4483              		.loc 1 1127 0
 4484 0080 0022     		movs	r2, #0
 4485 0082 894B     		ldr	r3, .L318
 4486 0084 1A60     		str	r2, [r3]
 4487              	.L289:
1131:.\main.c      ****                 Display2_ClearRxBuffer();
 4488              		.loc 1 1131 0
 4489 0086 0A20     		movs	r0, #10
 4490 0088 FFF7FEFF 		bl	CyDelay
 4491              	.LVL435:
1132:.\main.c      ****             }
ARM GAS  C:\Users\RECEPC~1\AppData\Local\Temp\ccoGpf2X.s 			page 116


 4492              		.loc 1 1132 0
 4493 008c FFF7FEFF 		bl	Display2_ClearRxBuffer
 4494              	.LVL436:
 4495 0090 08BD     		pop	{r3, pc}
 4496              	.L284:
1136:.\main.c      ****                 if((Display2_rxBuffer[0]==0xAA) && (Display2_rxBuffer[6]==0xC3) && (Display2_rxBuff
 4497              		.loc 1 1136 0
 4498 0092 FFF7FEFF 		bl	Display2_GetRxBufferSize
 4499              	.LVL437:
 4500 0096 0828     		cmp	r0, #8
 4501 0098 40F04381 		bne	.L279
1137:.\main.c      ****                     switch(Display2_rxBuffer[3]){
 4502              		.loc 1 1137 0
 4503 009c 834B     		ldr	r3, .L318+4
 4504 009e 1B78     		ldrb	r3, [r3]	@ zero_extendqisi2
 4505 00a0 DBB2     		uxtb	r3, r3
 4506 00a2 AA2B     		cmp	r3, #170
 4507 00a4 40D1     		bne	.L292
1137:.\main.c      ****                     switch(Display2_rxBuffer[3]){
 4508              		.loc 1 1137 0 is_stmt 0 discriminator 1
 4509 00a6 814B     		ldr	r3, .L318+4
 4510 00a8 9B79     		ldrb	r3, [r3, #6]	@ zero_extendqisi2
 4511 00aa DBB2     		uxtb	r3, r3
 4512 00ac C32B     		cmp	r3, #195
 4513 00ae 3BD1     		bne	.L292
1137:.\main.c      ****                     switch(Display2_rxBuffer[3]){
 4514              		.loc 1 1137 0 discriminator 2
 4515 00b0 7E4B     		ldr	r3, .L318+4
 4516 00b2 DB79     		ldrb	r3, [r3, #7]	@ zero_extendqisi2
 4517 00b4 DBB2     		uxtb	r3, r3
 4518 00b6 3C2B     		cmp	r3, #60
 4519 00b8 36D1     		bne	.L292
1138:.\main.c      ****                         case 0x0D:  //Pantalla efectivo              
 4520              		.loc 1 1138 0 is_stmt 1
 4521 00ba 7C4B     		ldr	r3, .L318+4
 4522 00bc DB78     		ldrb	r3, [r3, #3]	@ zero_extendqisi2
 4523 00be DBB2     		uxtb	r3, r3
 4524 00c0 452B     		cmp	r3, #69
 4525 00c2 1AD0     		beq	.L293
 4526 00c4 04D8     		bhi	.L294
 4527 00c6 0D2B     		cmp	r3, #13
 4528 00c8 07D0     		beq	.L295
 4529 00ca 0E2B     		cmp	r3, #14
 4530 00cc 0DD0     		beq	.L296
 4531 00ce 2BE0     		b	.L292
 4532              	.L294:
 4533 00d0 7E2B     		cmp	r3, #126
 4534 00d2 22D0     		beq	.L297
 4535 00d4 942B     		cmp	r3, #148
 4536 00d6 18D0     		beq	.L298
 4537 00d8 26E0     		b	.L292
 4538              	.L295:
1140:.\main.c      ****                             SetPicture(2,DISPLAY_FORMA_PROGRAMACION);                            
 4539              		.loc 1 1140 0
 4540 00da 0322     		movs	r2, #3
 4541 00dc 724B     		ldr	r3, .L318
 4542 00de 1A60     		str	r2, [r3]
ARM GAS  C:\Users\RECEPC~1\AppData\Local\Temp\ccoGpf2X.s 			page 117


1141:.\main.c      ****                         break;
 4543              		.loc 1 1141 0
 4544 00e0 0220     		movs	r0, #2
 4545 00e2 0521     		movs	r1, #5
 4546 00e4 FFF7FEFF 		bl	SetPicture
 4547              	.LVL438:
1142:.\main.c      ****                         case 0x0E:  //Pantalla credito   
 4548              		.loc 1 1142 0
 4549 00e8 1EE0     		b	.L292
 4550              	.L296:
1144:.\main.c      ****                             SetPicture(2,DISPLAY_ID_DIGITAL);                            
 4551              		.loc 1 1144 0
 4552 00ea 0422     		movs	r2, #4
 4553 00ec 6E4B     		ldr	r3, .L318
 4554 00ee 1A60     		str	r2, [r3]
1145:.\main.c      ****                         break;
 4555              		.loc 1 1145 0
 4556 00f0 0220     		movs	r0, #2
 4557 00f2 8521     		movs	r1, #133
 4558 00f4 FFF7FEFF 		bl	SetPicture
 4559              	.LVL439:
1146:.\main.c      ****                         case 0x45:  //Pantalla otras opciones 
 4560              		.loc 1 1146 0
 4561 00f8 16E0     		b	.L292
 4562              	.L293:
1148:.\main.c      ****                             SetPicture(2,DISPLAY_OPERACIONES);                            
 4563              		.loc 1 1148 0
 4564 00fa 0522     		movs	r2, #5
 4565 00fc 6A4B     		ldr	r3, .L318
 4566 00fe 1A60     		str	r2, [r3]
1149:.\main.c      ****                         break;
 4567              		.loc 1 1149 0
 4568 0100 0220     		movs	r0, #2
 4569 0102 8321     		movs	r1, #131
 4570 0104 FFF7FEFF 		bl	SetPicture
 4571              	.LVL440:
1150:.\main.c      ****                             
 4572              		.loc 1 1150 0
 4573 0108 0EE0     		b	.L292
 4574              	.L298:
1153:.\main.c      ****                             SetPicture(2,DISPLAY_INICIO0);                            
 4575              		.loc 1 1153 0
 4576 010a 0022     		movs	r2, #0
 4577 010c 664B     		ldr	r3, .L318
 4578 010e 1A60     		str	r2, [r3]
1154:.\main.c      ****                         break;
 4579              		.loc 1 1154 0
 4580 0110 0220     		movs	r0, #2
 4581 0112 0121     		movs	r1, #1
 4582 0114 FFF7FEFF 		bl	SetPicture
 4583              	.LVL441:
1155:.\main.c      ****                         
 4584              		.loc 1 1155 0
 4585 0118 06E0     		b	.L292
 4586              	.L297:
1158:.\main.c      ****                             SetPicture(2,DISPLAY_INICIO0);                            
 4587              		.loc 1 1158 0
ARM GAS  C:\Users\RECEPC~1\AppData\Local\Temp\ccoGpf2X.s 			page 118


 4588 011a 0022     		movs	r2, #0
 4589 011c 624B     		ldr	r3, .L318
 4590 011e 1A60     		str	r2, [r3]
1159:.\main.c      ****                         break;
 4591              		.loc 1 1159 0
 4592 0120 0220     		movs	r0, #2
 4593 0122 0121     		movs	r1, #1
 4594 0124 FFF7FEFF 		bl	SetPicture
 4595              	.LVL442:
 4596              	.L292:
1163:.\main.c      ****                 Display2_ClearRxBuffer();
 4597              		.loc 1 1163 0
 4598 0128 0A20     		movs	r0, #10
 4599 012a FFF7FEFF 		bl	CyDelay
 4600              	.LVL443:
1164:.\main.c      ****             }
 4601              		.loc 1 1164 0
 4602 012e FFF7FEFF 		bl	Display2_ClearRxBuffer
 4603              	.LVL444:
 4604 0132 08BD     		pop	{r3, pc}
 4605              	.L285:
1169:.\main.c      ****                 if((Display2_rxBuffer[0]==0xAA) && (Display2_rxBuffer[6]==0xC3) && (Display2_rxBuff
 4606              		.loc 1 1169 0
 4607 0134 FFF7FEFF 		bl	Display2_GetRxBufferSize
 4608              	.LVL445:
 4609 0138 0828     		cmp	r0, #8
 4610 013a 40F0F280 		bne	.L279
1170:.\main.c      ****                     switch(Display2_rxBuffer[3]){
 4611              		.loc 1 1170 0
 4612 013e 5B4B     		ldr	r3, .L318+4
 4613 0140 1B78     		ldrb	r3, [r3]	@ zero_extendqisi2
 4614 0142 DBB2     		uxtb	r3, r3
 4615 0144 AA2B     		cmp	r3, #170
 4616 0146 4AD1     		bne	.L299
1170:.\main.c      ****                     switch(Display2_rxBuffer[3]){
 4617              		.loc 1 1170 0 is_stmt 0 discriminator 1
 4618 0148 584B     		ldr	r3, .L318+4
 4619 014a 9B79     		ldrb	r3, [r3, #6]	@ zero_extendqisi2
 4620 014c DBB2     		uxtb	r3, r3
 4621 014e C32B     		cmp	r3, #195
 4622 0150 45D1     		bne	.L299
1170:.\main.c      ****                     switch(Display2_rxBuffer[3]){
 4623              		.loc 1 1170 0 discriminator 2
 4624 0152 564B     		ldr	r3, .L318+4
 4625 0154 DB79     		ldrb	r3, [r3, #7]	@ zero_extendqisi2
 4626 0156 DBB2     		uxtb	r3, r3
 4627 0158 3C2B     		cmp	r3, #60
 4628 015a 40D1     		bne	.L299
1171:.\main.c      ****                         case 0x0F:  //Preset dinero                
 4629              		.loc 1 1171 0 is_stmt 1
 4630 015c 534B     		ldr	r3, .L318+4
 4631 015e DB78     		ldrb	r3, [r3, #3]	@ zero_extendqisi2
 4632 0160 DBB2     		uxtb	r3, r3
 4633 0162 3B2B     		cmp	r3, #59
 4634 0164 2CD0     		beq	.L300
 4635 0166 04D8     		bhi	.L301
 4636 0168 0F2B     		cmp	r3, #15
ARM GAS  C:\Users\RECEPC~1\AppData\Local\Temp\ccoGpf2X.s 			page 119


 4637 016a 09D0     		beq	.L302
 4638 016c 102B     		cmp	r3, #16
 4639 016e 0FD0     		beq	.L303
 4640 0170 35E0     		b	.L299
 4641              	.L301:
 4642 0172 7E2B     		cmp	r3, #126
 4643 0174 2CD0     		beq	.L304
 4644 0176 942B     		cmp	r3, #148
 4645 0178 1AD0     		beq	.L305
 4646 017a 432B     		cmp	r3, #67
 4647 017c 2FD1     		bne	.L299
 4648 017e 0FE0     		b	.L306
 4649              	.L302:
1173:.\main.c      ****                             SetPicture(2,DISPLAY_INTRODUZCA_VALOR);                            
 4650              		.loc 1 1173 0
 4651 0180 0422     		movs	r2, #4
 4652 0182 494B     		ldr	r3, .L318
 4653 0184 1A60     		str	r2, [r3]
1174:.\main.c      ****                         break; 
 4654              		.loc 1 1174 0
 4655 0186 0220     		movs	r0, #2
 4656 0188 0621     		movs	r1, #6
 4657 018a FFF7FEFF 		bl	SetPicture
 4658              	.LVL446:
1175:.\main.c      ****                         case 0x10:  //Preset volumen                 
 4659              		.loc 1 1175 0
 4660 018e 26E0     		b	.L299
 4661              	.L303:
1177:.\main.c      ****                             SetPicture(2,DISPLAY_INTRODUZCA_VOLUMEN);                            
 4662              		.loc 1 1177 0
 4663 0190 0522     		movs	r2, #5
 4664 0192 454B     		ldr	r3, .L318
 4665 0194 1A60     		str	r2, [r3]
1178:.\main.c      ****                         break;
 4666              		.loc 1 1178 0
 4667 0196 0220     		movs	r0, #2
 4668 0198 0D21     		movs	r1, #13
 4669 019a FFF7FEFF 		bl	SetPicture
 4670              	.LVL447:
1179:.\main.c      ****                         case 0x43:  //Preset full                       
 4671              		.loc 1 1179 0
 4672 019e 1EE0     		b	.L299
 4673              	.L306:
1181:.\main.c      ****                             SetPicture(2,DISPLAY_DESEA_IMPRIMIR_RECIBO);                           
 4674              		.loc 1 1181 0
 4675 01a0 0622     		movs	r2, #6
 4676 01a2 414B     		ldr	r3, .L318
 4677 01a4 1A60     		str	r2, [r3]
1182:.\main.c      ****                         break;
 4678              		.loc 1 1182 0
 4679 01a6 0220     		movs	r0, #2
 4680 01a8 0B21     		movs	r1, #11
 4681 01aa FFF7FEFF 		bl	SetPicture
 4682              	.LVL448:
1183:.\main.c      ****                         case 0x94:  //Retroceso 
 4683              		.loc 1 1183 0
 4684 01ae 16E0     		b	.L299
ARM GAS  C:\Users\RECEPC~1\AppData\Local\Temp\ccoGpf2X.s 			page 120


 4685              	.L305:
1185:.\main.c      ****                             SetPicture(2,DISPLAY_INICIO0);                                         
 4686              		.loc 1 1185 0
 4687 01b0 0022     		movs	r2, #0
 4688 01b2 3D4B     		ldr	r3, .L318
 4689 01b4 1A60     		str	r2, [r3]
1186:.\main.c      ****                         break;
 4690              		.loc 1 1186 0
 4691 01b6 0220     		movs	r0, #2
 4692 01b8 0121     		movs	r1, #1
 4693 01ba FFF7FEFF 		bl	SetPicture
 4694              	.LVL449:
1187:.\main.c      ****                         case 0x3B:  //Pantalla Inicial    
 4695              		.loc 1 1187 0
 4696 01be 0EE0     		b	.L299
 4697              	.L300:
1189:.\main.c      ****                             SetPicture(2,DISPLAY_INICIO0);                            
 4698              		.loc 1 1189 0
 4699 01c0 0022     		movs	r2, #0
 4700 01c2 394B     		ldr	r3, .L318
 4701 01c4 1A60     		str	r2, [r3]
1190:.\main.c      ****                         break;
 4702              		.loc 1 1190 0
 4703 01c6 0220     		movs	r0, #2
 4704 01c8 0121     		movs	r1, #1
 4705 01ca FFF7FEFF 		bl	SetPicture
 4706              	.LVL450:
1191:.\main.c      ****                         case 0x7E:  //Pantalla Inicial    
 4707              		.loc 1 1191 0
 4708 01ce 06E0     		b	.L299
 4709              	.L304:
1193:.\main.c      ****                             SetPicture(2,DISPLAY_INICIO0);                            
 4710              		.loc 1 1193 0
 4711 01d0 0022     		movs	r2, #0
 4712 01d2 354B     		ldr	r3, .L318
 4713 01d4 1A60     		str	r2, [r3]
1194:.\main.c      ****                         break;
 4714              		.loc 1 1194 0
 4715 01d6 0220     		movs	r0, #2
 4716 01d8 0121     		movs	r1, #1
 4717 01da FFF7FEFF 		bl	SetPicture
 4718              	.LVL451:
 4719              	.L299:
1198:.\main.c      ****                 Display2_ClearRxBuffer();
 4720              		.loc 1 1198 0
 4721 01de 0A20     		movs	r0, #10
 4722 01e0 FFF7FEFF 		bl	CyDelay
 4723              	.LVL452:
1199:.\main.c      ****             }
 4724              		.loc 1 1199 0
 4725 01e4 FFF7FEFF 		bl	Display2_ClearRxBuffer
 4726              	.LVL453:
 4727 01e8 08BD     		pop	{r3, pc}
 4728              	.L286:
1204:.\main.c      ****                 if((Display2_rxBuffer[0]==0xAA) && (Display2_rxBuffer[6]==0xC3) && (Display2_rxBuff
 4729              		.loc 1 1204 0
 4730 01ea FFF7FEFF 		bl	Display2_GetRxBufferSize
ARM GAS  C:\Users\RECEPC~1\AppData\Local\Temp\ccoGpf2X.s 			page 121


 4731              	.LVL454:
 4732 01ee 0828     		cmp	r0, #8
 4733 01f0 40F09780 		bne	.L279
1205:.\main.c      ****                     switch(Display2_rxBuffer[3]){
 4734              		.loc 1 1205 0
 4735 01f4 2D4B     		ldr	r3, .L318+4
 4736 01f6 1B78     		ldrb	r3, [r3]	@ zero_extendqisi2
 4737 01f8 DBB2     		uxtb	r3, r3
 4738 01fa AA2B     		cmp	r3, #170
 4739 01fc 1FD1     		bne	.L307
1205:.\main.c      ****                     switch(Display2_rxBuffer[3]){
 4740              		.loc 1 1205 0 is_stmt 0 discriminator 1
 4741 01fe 2B4B     		ldr	r3, .L318+4
 4742 0200 9B79     		ldrb	r3, [r3, #6]	@ zero_extendqisi2
 4743 0202 DBB2     		uxtb	r3, r3
 4744 0204 C32B     		cmp	r3, #195
 4745 0206 1AD1     		bne	.L307
1205:.\main.c      ****                     switch(Display2_rxBuffer[3]){
 4746              		.loc 1 1205 0 discriminator 2
 4747 0208 284B     		ldr	r3, .L318+4
 4748 020a DB79     		ldrb	r3, [r3, #7]	@ zero_extendqisi2
 4749 020c DBB2     		uxtb	r3, r3
 4750 020e 3C2B     		cmp	r3, #60
 4751 0210 15D1     		bne	.L307
1206:.\main.c      ****                         case 0x94:  //Retroceso 
 4752              		.loc 1 1206 0 is_stmt 1
 4753 0212 264B     		ldr	r3, .L318+4
 4754 0214 DB78     		ldrb	r3, [r3, #3]	@ zero_extendqisi2
 4755 0216 DBB2     		uxtb	r3, r3
 4756 0218 7E2B     		cmp	r3, #126
 4757 021a 09D0     		beq	.L308
 4758 021c 942B     		cmp	r3, #148
 4759 021e 0ED1     		bne	.L307
1208:.\main.c      ****                             SetPicture(2,DISPLAY_INICIO0);                                         
 4760              		.loc 1 1208 0
 4761 0220 0022     		movs	r2, #0
 4762 0222 214B     		ldr	r3, .L318
 4763 0224 1A60     		str	r2, [r3]
1209:.\main.c      ****                         break;
 4764              		.loc 1 1209 0
 4765 0226 0220     		movs	r0, #2
 4766 0228 0121     		movs	r1, #1
 4767 022a FFF7FEFF 		bl	SetPicture
 4768              	.LVL455:
1210:.\main.c      ****                         case 0x7E:  //Pantalla Inicial    
 4769              		.loc 1 1210 0
 4770 022e 06E0     		b	.L307
 4771              	.L308:
1212:.\main.c      ****                             SetPicture(2,DISPLAY_INICIO0);                            
 4772              		.loc 1 1212 0
 4773 0230 0022     		movs	r2, #0
 4774 0232 1D4B     		ldr	r3, .L318
 4775 0234 1A60     		str	r2, [r3]
1213:.\main.c      ****                         break;
 4776              		.loc 1 1213 0
 4777 0236 0220     		movs	r0, #2
 4778 0238 0121     		movs	r1, #1
ARM GAS  C:\Users\RECEPC~1\AppData\Local\Temp\ccoGpf2X.s 			page 122


 4779 023a FFF7FEFF 		bl	SetPicture
 4780              	.LVL456:
 4781              	.L307:
1217:.\main.c      ****                 Display2_ClearRxBuffer();
 4782              		.loc 1 1217 0
 4783 023e 0A20     		movs	r0, #10
 4784 0240 FFF7FEFF 		bl	CyDelay
 4785              	.LVL457:
1218:.\main.c      ****             }
 4786              		.loc 1 1218 0
 4787 0244 FFF7FEFF 		bl	Display2_ClearRxBuffer
 4788              	.LVL458:
 4789 0248 08BD     		pop	{r3, pc}
 4790              	.L287:
1223:.\main.c      ****                 if((Display2_rxBuffer[0]==0xAA) && (Display2_rxBuffer[6]==0xC3) && (Display2_rxBuff
 4791              		.loc 1 1223 0
 4792 024a FFF7FEFF 		bl	Display2_GetRxBufferSize
 4793              	.LVL459:
 4794 024e 0828     		cmp	r0, #8
 4795 0250 67D1     		bne	.L279
1224:.\main.c      ****                     switch(Display2_rxBuffer[3]){
 4796              		.loc 1 1224 0
 4797 0252 164B     		ldr	r3, .L318+4
 4798 0254 1B78     		ldrb	r3, [r3]	@ zero_extendqisi2
 4799 0256 DBB2     		uxtb	r3, r3
 4800 0258 AA2B     		cmp	r3, #170
 4801 025a 1FD1     		bne	.L310
1224:.\main.c      ****                     switch(Display2_rxBuffer[3]){
 4802              		.loc 1 1224 0 is_stmt 0 discriminator 1
 4803 025c 134B     		ldr	r3, .L318+4
 4804 025e 9B79     		ldrb	r3, [r3, #6]	@ zero_extendqisi2
 4805 0260 DBB2     		uxtb	r3, r3
 4806 0262 C32B     		cmp	r3, #195
 4807 0264 1AD1     		bne	.L310
1224:.\main.c      ****                     switch(Display2_rxBuffer[3]){
 4808              		.loc 1 1224 0 discriminator 2
 4809 0266 114B     		ldr	r3, .L318+4
 4810 0268 DB79     		ldrb	r3, [r3, #7]	@ zero_extendqisi2
 4811 026a DBB2     		uxtb	r3, r3
 4812 026c 3C2B     		cmp	r3, #60
 4813 026e 15D1     		bne	.L310
1225:.\main.c      ****                         case 0x94:  //Retroceso 
 4814              		.loc 1 1225 0 is_stmt 1
 4815 0270 0E4B     		ldr	r3, .L318+4
 4816 0272 DB78     		ldrb	r3, [r3, #3]	@ zero_extendqisi2
 4817 0274 DBB2     		uxtb	r3, r3
 4818 0276 7E2B     		cmp	r3, #126
 4819 0278 09D0     		beq	.L311
 4820 027a 942B     		cmp	r3, #148
 4821 027c 0ED1     		bne	.L310
1227:.\main.c      ****                             SetPicture(2,DISPLAY_INICIO0);                                         
 4822              		.loc 1 1227 0
 4823 027e 0022     		movs	r2, #0
 4824 0280 094B     		ldr	r3, .L318
 4825 0282 1A60     		str	r2, [r3]
1228:.\main.c      ****                         break;
 4826              		.loc 1 1228 0
ARM GAS  C:\Users\RECEPC~1\AppData\Local\Temp\ccoGpf2X.s 			page 123


 4827 0284 0220     		movs	r0, #2
 4828 0286 0121     		movs	r1, #1
 4829 0288 FFF7FEFF 		bl	SetPicture
 4830              	.LVL460:
1229:.\main.c      ****                         case 0x7E:  //Pantalla Inicial    
 4831              		.loc 1 1229 0
 4832 028c 06E0     		b	.L310
 4833              	.L311:
1231:.\main.c      ****                             SetPicture(2,DISPLAY_INICIO0);                            
 4834              		.loc 1 1231 0
 4835 028e 0022     		movs	r2, #0
 4836 0290 054B     		ldr	r3, .L318
 4837 0292 1A60     		str	r2, [r3]
1232:.\main.c      ****                         break;
 4838              		.loc 1 1232 0
 4839 0294 0220     		movs	r0, #2
 4840 0296 0121     		movs	r1, #1
 4841 0298 FFF7FEFF 		bl	SetPicture
 4842              	.LVL461:
 4843              	.L310:
1236:.\main.c      ****                 Display2_ClearRxBuffer();
 4844              		.loc 1 1236 0
 4845 029c 0A20     		movs	r0, #10
 4846 029e FFF7FEFF 		bl	CyDelay
 4847              	.LVL462:
1237:.\main.c      ****             }
 4848              		.loc 1 1237 0
 4849 02a2 FFF7FEFF 		bl	Display2_ClearRxBuffer
 4850              	.LVL463:
 4851 02a6 08BD     		pop	{r3, pc}
 4852              	.L319:
 4853              		.align	2
 4854              	.L318:
 4855 02a8 00000000 		.word	flowDisplay2
 4856 02ac 00000000 		.word	Display2_rxBuffer
 4857              	.L288:
1242:.\main.c      ****                 if((Display2_rxBuffer[0]==0xAA) && (Display2_rxBuffer[6]==0xC3) && (Display2_rxBuff
 4858              		.loc 1 1242 0
 4859 02b0 FFF7FEFF 		bl	Display2_GetRxBufferSize
 4860              	.LVL464:
 4861 02b4 0828     		cmp	r0, #8
 4862 02b6 34D1     		bne	.L279
1243:.\main.c      ****                     switch(Display2_rxBuffer[3]){
 4863              		.loc 1 1243 0
 4864 02b8 1A4B     		ldr	r3, .L320
 4865 02ba 1B78     		ldrb	r3, [r3]	@ zero_extendqisi2
 4866 02bc DBB2     		uxtb	r3, r3
 4867 02be AA2B     		cmp	r3, #170
 4868 02c0 2AD1     		bne	.L313
1243:.\main.c      ****                     switch(Display2_rxBuffer[3]){
 4869              		.loc 1 1243 0 is_stmt 0 discriminator 1
 4870 02c2 184B     		ldr	r3, .L320
 4871 02c4 9B79     		ldrb	r3, [r3, #6]	@ zero_extendqisi2
 4872 02c6 DBB2     		uxtb	r3, r3
 4873 02c8 C32B     		cmp	r3, #195
 4874 02ca 25D1     		bne	.L313
1243:.\main.c      ****                     switch(Display2_rxBuffer[3]){
ARM GAS  C:\Users\RECEPC~1\AppData\Local\Temp\ccoGpf2X.s 			page 124


 4875              		.loc 1 1243 0 discriminator 2
 4876 02cc 154B     		ldr	r3, .L320
 4877 02ce DB79     		ldrb	r3, [r3, #7]	@ zero_extendqisi2
 4878 02d0 DBB2     		uxtb	r3, r3
 4879 02d2 3C2B     		cmp	r3, #60
 4880 02d4 20D1     		bne	.L313
1244:.\main.c      ****                         case 0x39:  //Si copia                                                     
 4881              		.loc 1 1244 0 is_stmt 1
 4882 02d6 134B     		ldr	r3, .L320
 4883 02d8 DB78     		ldrb	r3, [r3, #3]	@ zero_extendqisi2
 4884 02da DBB2     		uxtb	r3, r3
 4885 02dc 392B     		cmp	r3, #57
 4886 02de 04D0     		beq	.L314
 4887 02e0 7E2B     		cmp	r3, #126
 4888 02e2 12D0     		beq	.L315
 4889 02e4 382B     		cmp	r3, #56
 4890 02e6 17D1     		bne	.L313
 4891 02e8 07E0     		b	.L316
 4892              	.L314:
1246:.\main.c      ****                             flowDisplay2 = 7;
 4893              		.loc 1 1246 0
 4894 02ea 0220     		movs	r0, #2
 4895 02ec 0A21     		movs	r1, #10
 4896 02ee FFF7FEFF 		bl	SetPicture
 4897              	.LVL465:
1247:.\main.c      ****                         break; 
 4898              		.loc 1 1247 0
 4899 02f2 0722     		movs	r2, #7
 4900 02f4 0C4B     		ldr	r3, .L320+4
 4901 02f6 1A60     		str	r2, [r3]
1248:.\main.c      ****                         case 0x38:  //No copia                                                     
 4902              		.loc 1 1248 0
 4903 02f8 0EE0     		b	.L313
 4904              	.L316:
1250:.\main.c      ****                             flowDisplay2 = 8;//caso para seleccion de producto
 4905              		.loc 1 1250 0
 4906 02fa 0220     		movs	r0, #2
 4907 02fc 8621     		movs	r1, #134
 4908 02fe FFF7FEFF 		bl	SetPicture
 4909              	.LVL466:
1251:.\main.c      ****                         break;
 4910              		.loc 1 1251 0
 4911 0302 0822     		movs	r2, #8
 4912 0304 084B     		ldr	r3, .L320+4
 4913 0306 1A60     		str	r2, [r3]
1252:.\main.c      ****                         case 0x7E:  //Pantalla Inicial                                             
 4914              		.loc 1 1252 0
 4915 0308 06E0     		b	.L313
 4916              	.L315:
1254:.\main.c      ****                             flowDisplay2 = 0;
 4917              		.loc 1 1254 0
 4918 030a 0220     		movs	r0, #2
 4919 030c 0121     		movs	r1, #1
 4920 030e FFF7FEFF 		bl	SetPicture
 4921              	.LVL467:
1255:.\main.c      ****                         break;
 4922              		.loc 1 1255 0
ARM GAS  C:\Users\RECEPC~1\AppData\Local\Temp\ccoGpf2X.s 			page 125


 4923 0312 0022     		movs	r2, #0
 4924 0314 044B     		ldr	r3, .L320+4
 4925 0316 1A60     		str	r2, [r3]
 4926              	.L313:
1259:.\main.c      ****                 Display2_ClearRxBuffer();
 4927              		.loc 1 1259 0
 4928 0318 0A20     		movs	r0, #10
 4929 031a FFF7FEFF 		bl	CyDelay
 4930              	.LVL468:
1260:.\main.c      ****             }
 4931              		.loc 1 1260 0
 4932 031e FFF7FEFF 		bl	Display2_ClearRxBuffer
 4933              	.LVL469:
 4934              	.L279:
 4935 0322 08BD     		pop	{r3, pc}
 4936              	.L321:
 4937              		.align	2
 4938              	.L320:
 4939 0324 00000000 		.word	Display2_rxBuffer
 4940 0328 00000000 		.word	flowDisplay2
 4941              		.cfi_endproc
 4942              	.LFE72:
 4943              		.size	PollingDisplay2, .-PollingDisplay2
 4944              		.section	.text.RFConsulting,"ax",%progbits
 4945              		.align	2
 4946              		.global	RFConsulting
 4947              		.thumb
 4948              		.thumb_func
 4949              		.type	RFConsulting, %function
 4950              	RFConsulting:
 4951              	.LFB73:
1266:.\main.c      ****     
 4952              		.loc 1 1266 0
 4953              		.cfi_startproc
 4954              		@ args = 0, pretend = 0, frame = 0
 4955              		@ frame_needed = 0, uses_anonymous_args = 0
 4956              		@ link register save eliminated.
 4957 0000 7047     		bx	lr
 4958              		.cfi_endproc
 4959              	.LFE73:
 4960              		.size	RFConsulting, .-RFConsulting
 4961 0002 00BF     		.section	.text.animacion2,"ax",%progbits
 4962              		.align	2
 4963              		.global	animacion2
 4964              		.thumb
 4965              		.thumb_func
 4966              		.type	animacion2, %function
 4967              	animacion2:
 4968              	.LFB75:
1293:.\main.c      **** }
1294:.\main.c      **** 
1295:.\main.c      **** /*
1296:.\main.c      **** ***************************************************************************************************
1297:.\main.c      **** *                                         CY_ISR(animacion2)
1298:.\main.c      **** *
1299:.\main.c      **** * Description : Interrupcion que temporiza las imagenes informativas que aparecen en la pantalla 2
1300:.\main.c      **** *               
ARM GAS  C:\Users\RECEPC~1\AppData\Local\Temp\ccoGpf2X.s 			page 126


1301:.\main.c      **** *
1302:.\main.c      **** * Argument(s) : none
1303:.\main.c      **** *
1304:.\main.c      **** * Return(s)   : none
1305:.\main.c      **** *
1306:.\main.c      **** * Caller(s)   : 
1307:.\main.c      **** *
1308:.\main.c      **** * Note(s)     : none.
1309:.\main.c      **** ***************************************************************************************************
1310:.\main.c      **** */
1311:.\main.c      **** CY_ISR(animacion2){
 4969              		.loc 1 1311 0
 4970              		.cfi_startproc
 4971              		@ args = 0, pretend = 0, frame = 0
 4972              		@ frame_needed = 0, uses_anonymous_args = 0
 4973              		.loc 1 1311 0
 4974 0000 08B5     		push	{r3, lr}
 4975              		.cfi_def_cfa_offset 8
 4976              		.cfi_offset 3, -8
 4977              		.cfi_offset 14, -4
1312:.\main.c      ****     Timer_Animacion2_ReadStatusRegister();
 4978              		.loc 1 1312 0
 4979 0002 FFF7FEFF 		bl	Timer_Animacion2_ReadStatusRegister
 4980              	.LVL470:
1313:.\main.c      ****     count_protector2++;
 4981              		.loc 1 1313 0
 4982 0006 024A     		ldr	r2, .L325
 4983 0008 1378     		ldrb	r3, [r2]	@ zero_extendqisi2
 4984 000a 0133     		adds	r3, r3, #1
 4985 000c 1370     		strb	r3, [r2]
 4986 000e 08BD     		pop	{r3, pc}
 4987              	.L326:
 4988              		.align	2
 4989              	.L325:
 4990 0010 00000000 		.word	count_protector2
 4991              		.cfi_endproc
 4992              	.LFE75:
 4993              		.size	animacion2, .-animacion2
 4994              		.section	.text.main,"ax",%progbits
 4995              		.align	2
 4996              		.global	main
 4997              		.thumb
 4998              		.thumb_func
 4999              		.type	main, %function
 5000              	main:
 5001              	.LFB76:
1314:.\main.c      **** }
1315:.\main.c      **** 
1316:.\main.c      **** 
1317:.\main.c      **** int main()
1318:.\main.c      **** {
 5002              		.loc 1 1318 0
 5003              		.cfi_startproc
 5004              		@ args = 0, pretend = 0, frame = 0
 5005              		@ frame_needed = 0, uses_anonymous_args = 0
 5006 0000 38B5     		push	{r3, r4, r5, lr}
 5007              		.cfi_def_cfa_offset 16
ARM GAS  C:\Users\RECEPC~1\AppData\Local\Temp\ccoGpf2X.s 			page 127


 5008              		.cfi_offset 3, -16
 5009              		.cfi_offset 4, -12
 5010              		.cfi_offset 5, -8
 5011              		.cfi_offset 14, -4
1319:.\main.c      ****     uint8 x;
1320:.\main.c      ****     CyGlobalIntEnable; /* Enable global interrupts. */
 5012              		.loc 1 1320 0
 5013              	@ 1320 ".\main.c" 1
 5014 0002 62B6     		CPSIE   i
 5015              	@ 0 "" 2
1321:.\main.c      ****     GlobalInitializer();
 5016              		.loc 1 1321 0
 5017              		.thumb
 5018 0004 FFF7FEFF 		bl	GlobalInitializer
 5019              	.LVL471:
1322:.\main.c      ****     /* Place your initialization/startup code here (e.g. MyInst_Start()) */
1323:.\main.c      ****     for(x= 0; x < 4; x++){
 5020              		.loc 1 1323 0
 5021 0008 0023     		movs	r3, #0
 5022 000a 04E0     		b	.L328
 5023              	.LVL472:
 5024              	.L329:
1324:.\main.c      ****         statePump[x]=0;
 5025              		.loc 1 1324 0 discriminator 3
 5026 000c 0021     		movs	r1, #0
 5027 000e 194A     		ldr	r2, .L333
 5028 0010 D154     		strb	r1, [r2, r3]
1323:.\main.c      ****         statePump[x]=0;
 5029              		.loc 1 1323 0 discriminator 3
 5030 0012 0133     		adds	r3, r3, #1
 5031              	.LVL473:
 5032 0014 DBB2     		uxtb	r3, r3
 5033              	.LVL474:
 5034              	.L328:
1323:.\main.c      ****         statePump[x]=0;
 5035              		.loc 1 1323 0 is_stmt 0 discriminator 1
 5036 0016 032B     		cmp	r3, #3
 5037 0018 F8D9     		bls	.L329
1325:.\main.c      ****     }
1326:.\main.c      ****     passwordPump[0] = 0x04;
 5038              		.loc 1 1326 0 is_stmt 1
 5039 001a 0423     		movs	r3, #4
 5040              	.LVL475:
 5041 001c 164A     		ldr	r2, .L333+4
 5042 001e 1373     		strb	r3, [r2, #12]
1327:.\main.c      ****     configAccess[0] = 0x04;
 5043              		.loc 1 1327 0
 5044 0020 164A     		ldr	r2, .L333+8
 5045 0022 1370     		strb	r3, [r2]
1328:.\main.c      ****     lockTurn = 0;
 5046              		.loc 1 1328 0
 5047 0024 164D     		ldr	r5, .L333+12
 5048 0026 0024     		movs	r4, #0
 5049 0028 2C70     		strb	r4, [r5]
1329:.\main.c      ****     EEPROM_1_WriteByte(lockTurn,7); //Carga turno para pruebas 
 5050              		.loc 1 1329 0
 5051 002a 2046     		mov	r0, r4
ARM GAS  C:\Users\RECEPC~1\AppData\Local\Temp\ccoGpf2X.s 			page 128


 5052 002c 0721     		movs	r1, #7
 5053 002e FFF7FEFF 		bl	EEPROM_1_WriteByte
 5054              	.LVL476:
1330:.\main.c      ****     lockTurn = 0;
 5055              		.loc 1 1330 0
 5056 0032 2C70     		strb	r4, [r5]
1331:.\main.c      ****     loadConfiguration();
 5057              		.loc 1 1331 0
 5058 0034 FFF7FEFF 		bl	loadConfiguration
 5059              	.LVL477:
1332:.\main.c      ****     InitPump();      
 5060              		.loc 1 1332 0
 5061 0038 FFF7FEFF 		bl	InitPump
 5062              	.LVL478:
1333:.\main.c      ****     PrinterType = 1;
 5063              		.loc 1 1333 0
 5064 003c 0122     		movs	r2, #1
 5065 003e 114B     		ldr	r3, .L333+16
 5066 0040 1A70     		strb	r2, [r3]
1334:.\main.c      ****     CyWdtStart(CYWDT_1024_TICKS,CYWDT_LPMODE_NOCHANGE); 
 5067              		.loc 1 1334 0
 5068 0042 0320     		movs	r0, #3
 5069 0044 2146     		mov	r1, r4
 5070 0046 FFF7FEFF 		bl	CyWdtStart
 5071              	.LVL479:
 5072              	.L331:
1335:.\main.c      ****     for(;;)
1336:.\main.c      ****     {
1337:.\main.c      ****         CyWdtClear();
 5073              		.loc 1 1337 0
 5074 004a FFF7FEFF 		bl	CyWdtClear
 5075              	.LVL480:
1338:.\main.c      ****         if(flowDisplay1 == 0){
 5076              		.loc 1 1338 0
 5077 004e 0E4B     		ldr	r3, .L333+20
 5078 0050 1B68     		ldr	r3, [r3]
 5079 0052 1BB9     		cbnz	r3, .L330
1339:.\main.c      ****             PollingPump();
 5080              		.loc 1 1339 0
 5081 0054 FFF7FEFF 		bl	PollingPump
 5082              	.LVL481:
1340:.\main.c      ****             CyWdtClear();        
 5083              		.loc 1 1340 0
 5084 0058 FFF7FEFF 		bl	CyWdtClear
 5085              	.LVL482:
 5086              	.L330:
1341:.\main.c      ****         }        
1342:.\main.c      ****         PollingDisplay1();
 5087              		.loc 1 1342 0
 5088 005c FFF7FEFF 		bl	PollingDisplay1
 5089              	.LVL483:
1343:.\main.c      ****         CyWdtClear();
 5090              		.loc 1 1343 0
 5091 0060 FFF7FEFF 		bl	CyWdtClear
 5092              	.LVL484:
1344:.\main.c      ****         PollingDisplay2();
 5093              		.loc 1 1344 0
ARM GAS  C:\Users\RECEPC~1\AppData\Local\Temp\ccoGpf2X.s 			page 129


 5094 0064 FFF7FEFF 		bl	PollingDisplay2
 5095              	.LVL485:
1345:.\main.c      ****         CyWdtClear();
 5096              		.loc 1 1345 0
 5097 0068 FFF7FEFF 		bl	CyWdtClear
 5098              	.LVL486:
1346:.\main.c      ****         //pollingRF_Rx();
1347:.\main.c      ****         CyWdtClear();
 5099              		.loc 1 1347 0
 5100 006c FFF7FEFF 		bl	CyWdtClear
 5101              	.LVL487:
1348:.\main.c      ****     }
 5102              		.loc 1 1348 0
 5103 0070 EBE7     		b	.L331
 5104              	.L334:
 5105 0072 00BF     		.align	2
 5106              	.L333:
 5107 0074 00000000 		.word	statePump
 5108 0078 00000000 		.word	.LANCHOR1
 5109 007c 00000000 		.word	configAccess
 5110 0080 00000000 		.word	lockTurn
 5111 0084 00000000 		.word	PrinterType
 5112 0088 00000000 		.word	flowDisplay1
 5113              		.cfi_endproc
 5114              	.LFE76:
 5115              		.size	main, .-main
 5116              		.global	passwordPump
 5117              		.global	MuxVersion
 5118              		.comm	side,1036,4
 5119              		.comm	bufferDisplay4,648,4
 5120              		.comm	bufferDisplay3,648,4
 5121              		.comm	bufferDisplay2,648,4
 5122              		.comm	bufferDisplay1,648,4
 5123              		.comm	intIDStation,2,2
 5124              		.comm	buffer_tx,1500,4
 5125              		.comm	buffer_rf,1500,4
 5126              		.comm	printPortB,1,1
 5127              		.comm	printPortA,1,1
 5128              		.comm	pumpGap,3,4
 5129              		.comm	idStation,5,4
 5130              		.comm	controlChar,1,1
 5131              		.comm	configAccess,5,4
 5132              		.comm	count_protector2,1,1
 5133              		.comm	count_protector,1,1
 5134              		.comm	timeDownHandle,2,4
 5135              		.comm	dateDownHandle,3,4
 5136              		.comm	VolUnit,6,4
 5137              		.comm	PrinterType,1,1
 5138              		.comm	hiddenKeys,1,1
 5139              		.comm	digits,1,1
 5140              		.comm	lockTurn,1,1
 5141              		.comm	NumPositions,1,1
 5142              		.comm	statePump,4,4
 5143              		.comm	DDMode,1,1
 5144              		.comm	PPUDec,1,1
 5145              		.comm	VolDec,1,1
 5146              		.comm	MoneyDec,1,1
ARM GAS  C:\Users\RECEPC~1\AppData\Local\Temp\ccoGpf2X.s 			page 130


 5147              		.comm	ConversionFactor,1,1
 5148              		.comm	UnitType,1,1
 5149              		.comm	IDCast,4,4
 5150              		.comm	PlateRequest,1,1
 5151              		.comm	PrevStatePump,4,4
 5152              		.comm	stateBeagleSoft,1,1
 5153              		.comm	flagResetMux,1,1
 5154              		.comm	passwordSeller,8,4
 5155              		.comm	typeIdSeller,1,1
 5156              		.comm	idSeller,25,4
 5157              		.comm	temporal,30,4
 5158              		.comm	residue,14,4
 5159              		.comm	screen,2,4
 5160              		.comm	date,3,4
 5161              		.comm	time,3,4
 5162              		.comm	symbols,2,4
 5163              		.comm	decimalVolume,1,1
 5164              		.comm	decimalMoney,1,1
 5165              		.comm	ppux10,1,1
 5166              		.comm	delayPicture2,4,4
 5167              		.comm	delayPicture1,4,4
 5168              		.comm	productNumber,1,1
 5169              		.comm	flagPoint2,1,1
 5170              		.comm	flagPoint1,1,1
 5171              		.comm	numberKeys2,1,1
 5172              		.comm	numberKeys1,1,1
 5173              		.comm	flowDisplay4,4,4
 5174              		.comm	flowDisplay3,4,4
 5175              		.comm	flowDisplay2,4,4
 5176              		.comm	flowDisplay1,4,4
 5177              		.comm	countPump,8,8
 5178              		.comm	countBeagleTX,8,8
 5179              		.comm	countAnimation2,8,8
 5180              		.comm	countAnimation1,8,8
 5181              		.section	.rodata
 5182              		.align	2
 5183              		.set	.LANCHOR0,. + 0
 5184              	.LC1:
 5185 0000 532F442F 		.ascii	"S/D/Dupla \000"
 5185      4475706C 
 5185      612000
 5186 000b 00       		.space	1
 5187              	.LC3:
 5188 000c 53657874 		.ascii	"Sextupla\000"
 5188      75706C61 
 5188      00
 5189 0015 00       		.space	1
 5190 0016 0000     		.space	2
 5191              	.LC4:
 5192 0018 4F637475 		.ascii	"Octupla\000"
 5192      706C6100 
 5193 0020 0000     		.space	2
 5194 0022 0000     		.space	2
 5195              	.LC5:
 5196 0024 352D352D 		.ascii	"5-5-4     \000"
 5196      34202020 
 5196      202000
ARM GAS  C:\Users\RECEPC~1\AppData\Local\Temp\ccoGpf2X.s 			page 131


 5197 002f 00       		.space	1
 5198              	.LC6:
 5199 0030 362D362D 		.ascii	"6-6-4     \000"
 5199      34202020 
 5199      202000
 5200 003b 00       		.space	1
 5201              	.LC7:
 5202 003c 372D372D 		.ascii	"7-7-5     \000"
 5202      35202020 
 5202      202000
 5203 0047 00       		.space	1
 5204              	.LC8:
 5205 0048 382D372D 		.ascii	"8-7-5     \000"
 5205      35202020 
 5205      202000
 5206 0053 00       		.space	1
 5207              	.LC9:
 5208 0054 54657374 		.ascii	"Test de Impresion\000"
 5208      20646520 
 5208      496D7072 
 5208      6573696F 
 5208      6E00
 5209 0066 0000     		.data
 5210              		.align	2
 5211              		.set	.LANCHOR1,. + 0
 5212              		.type	MuxVersion, %object
 5213              		.size	MuxVersion, 10
 5214              	MuxVersion:
 5215 0000 4D555820 		.ascii	"MUX V. 1.0"
 5215      562E2031 
 5215      2E30
 5216 000a 0000     		.space	2
 5217              		.type	passwordPump, %object
 5218              		.size	passwordPump, 5
 5219              	passwordPump:
 5220 000c 30303230 		.ascii	"00204"
 5220      34
 5221 0011 000000   		.section	.rodata.str1.4,"aMS",%progbits,1
 5222              		.align	2
 5223              	.LC0:
 5224 0000 496E6963 		.ascii	"Iniciando\000"
 5224      69616E64 
 5224      6F00
 5225 000a 0000     		.space	2
 5226              	.LC2:
 5227 000c 51756164 		.ascii	"Quadrupla\000"
 5227      7275706C 
 5227      6100
 5228 0016 0000     		.text
 5229              	.Letext0:
 5230              		.file 2 "c:\\program files (x86)\\cypress\\psoc creator\\3.3\\psoc creator\\import\\gnu\\arm\\4.9.
 5231              		.file 3 "c:\\program files (x86)\\cypress\\psoc creator\\3.3\\psoc creator\\import\\gnu\\arm\\4.9.
 5232              		.file 4 "Generated_Source\\PSoC5/cytypes.h"
 5233              		.file 5 "./variables.h"
 5234              		.file 6 "Generated_Source\\PSoC5/Display1.h"
 5235              		.file 7 "Generated_Source\\PSoC5/Display2.h"
 5236              		.file 8 "Generated_Source\\PSoC5/core_cm3.h"
ARM GAS  C:\Users\RECEPC~1\AppData\Local\Temp\ccoGpf2X.s 			page 132


 5237              		.file 9 "Generated_Source\\PSoC5/EEPROM_1.h"
 5238              		.file 10 "Generated_Source\\PSoC5/Pump.h"
 5239              		.file 11 "Generated_Source\\PSoC5/Printer.h"
 5240              		.file 12 "Generated_Source\\PSoC5/I2C_Bus.h"
 5241              		.file 13 "Generated_Source\\PSoC5/RF_Connection.h"
 5242              		.file 14 "./LCD.h"
 5243              		.file 15 "Generated_Source\\PSoC5/CyLib.h"
 5244              		.file 16 "Generated_Source\\PSoC5/Timer_Animacion.h"
 5245              		.file 17 "./protocol.h"
 5246              		.file 18 "./I2C.h"
 5247              		.file 19 "Generated_Source\\PSoC5/isr_3.h"
 5248              		.file 20 "./keyboard.h"
 5249              		.file 21 "./Print.h"
 5250              		.file 22 "./ibutton.h"
 5251              		.file 23 "c:\\program files (x86)\\cypress\\psoc creator\\3.3\\psoc creator\\import\\gnu\\arm\\4.9
 5252              		.file 24 "Generated_Source\\PSoC5/Timer_Animacion2.h"
 5253              		.section	.debug_info,"",%progbits
 5254              	.Ldebug_info0:
 5255 0000 B02C0000 		.4byte	0x2cb0
 5256 0004 0400     		.2byte	0x4
 5257 0006 00000000 		.4byte	.Ldebug_abbrev0
 5258 000a 04       		.byte	0x4
 5259 000b 01       		.uleb128 0x1
 5260 000c 15040000 		.4byte	.LASF283
 5261 0010 01       		.byte	0x1
 5262 0011 75100000 		.4byte	.LASF284
 5263 0015 9B0D0000 		.4byte	.LASF285
 5264 0019 00000000 		.4byte	.Ldebug_ranges0+0
 5265 001d 00000000 		.4byte	0
 5266 0021 00000000 		.4byte	.Ldebug_line0
 5267 0025 02       		.uleb128 0x2
 5268 0026 01       		.byte	0x1
 5269 0027 06       		.byte	0x6
 5270 0028 8B030000 		.4byte	.LASF0
 5271 002c 03       		.uleb128 0x3
 5272 002d F4010000 		.4byte	.LASF3
 5273 0031 02       		.byte	0x2
 5274 0032 1D       		.byte	0x1d
 5275 0033 37000000 		.4byte	0x37
 5276 0037 02       		.uleb128 0x2
 5277 0038 01       		.byte	0x1
 5278 0039 08       		.byte	0x8
 5279 003a D3040000 		.4byte	.LASF1
 5280 003e 02       		.uleb128 0x2
 5281 003f 02       		.byte	0x2
 5282 0040 05       		.byte	0x5
 5283 0041 A00E0000 		.4byte	.LASF2
 5284 0045 03       		.uleb128 0x3
 5285 0046 E0050000 		.4byte	.LASF4
 5286 004a 02       		.byte	0x2
 5287 004b 2B       		.byte	0x2b
 5288 004c 50000000 		.4byte	0x50
 5289 0050 02       		.uleb128 0x2
 5290 0051 02       		.byte	0x2
 5291 0052 07       		.byte	0x7
 5292 0053 97100000 		.4byte	.LASF5
 5293 0057 03       		.uleb128 0x3
ARM GAS  C:\Users\RECEPC~1\AppData\Local\Temp\ccoGpf2X.s 			page 133


 5294 0058 BD100000 		.4byte	.LASF6
 5295 005c 02       		.byte	0x2
 5296 005d 3F       		.byte	0x3f
 5297 005e 62000000 		.4byte	0x62
 5298 0062 02       		.uleb128 0x2
 5299 0063 04       		.byte	0x4
 5300 0064 05       		.byte	0x5
 5301 0065 77020000 		.4byte	.LASF7
 5302 0069 02       		.uleb128 0x2
 5303 006a 04       		.byte	0x4
 5304 006b 07       		.byte	0x7
 5305 006c C9070000 		.4byte	.LASF8
 5306 0070 02       		.uleb128 0x2
 5307 0071 08       		.byte	0x8
 5308 0072 05       		.byte	0x5
 5309 0073 6C090000 		.4byte	.LASF9
 5310 0077 02       		.uleb128 0x2
 5311 0078 08       		.byte	0x8
 5312 0079 07       		.byte	0x7
 5313 007a F80C0000 		.4byte	.LASF10
 5314 007e 04       		.uleb128 0x4
 5315 007f 04       		.byte	0x4
 5316 0080 05       		.byte	0x5
 5317 0081 696E7400 		.ascii	"int\000"
 5318 0085 02       		.uleb128 0x2
 5319 0086 04       		.byte	0x4
 5320 0087 07       		.byte	0x7
 5321 0088 C00A0000 		.4byte	.LASF11
 5322 008c 03       		.uleb128 0x3
 5323 008d 97030000 		.4byte	.LASF12
 5324 0091 03       		.byte	0x3
 5325 0092 15       		.byte	0x15
 5326 0093 2C000000 		.4byte	0x2c
 5327 0097 03       		.uleb128 0x3
 5328 0098 290D0000 		.4byte	.LASF13
 5329 009c 03       		.byte	0x3
 5330 009d 21       		.byte	0x21
 5331 009e 45000000 		.4byte	0x45
 5332 00a2 03       		.uleb128 0x3
 5333 00a3 6D000000 		.4byte	.LASF14
 5334 00a7 03       		.byte	0x3
 5335 00a8 2C       		.byte	0x2c
 5336 00a9 57000000 		.4byte	0x57
 5337 00ad 05       		.uleb128 0x5
 5338 00ae 820E0000 		.4byte	.LASF15
 5339 00b2 04       		.byte	0x4
 5340 00b3 3801     		.2byte	0x138
 5341 00b5 37000000 		.4byte	0x37
 5342 00b9 05       		.uleb128 0x5
 5343 00ba 0D110000 		.4byte	.LASF16
 5344 00be 04       		.byte	0x4
 5345 00bf 3901     		.2byte	0x139
 5346 00c1 50000000 		.4byte	0x50
 5347 00c5 05       		.uleb128 0x5
 5348 00c6 88000000 		.4byte	.LASF17
 5349 00ca 04       		.byte	0x4
 5350 00cb 3A01     		.2byte	0x13a
ARM GAS  C:\Users\RECEPC~1\AppData\Local\Temp\ccoGpf2X.s 			page 134


 5351 00cd 69000000 		.4byte	0x69
 5352 00d1 02       		.uleb128 0x2
 5353 00d2 04       		.byte	0x4
 5354 00d3 04       		.byte	0x4
 5355 00d4 920A0000 		.4byte	.LASF18
 5356 00d8 02       		.uleb128 0x2
 5357 00d9 08       		.byte	0x8
 5358 00da 04       		.byte	0x4
 5359 00db E3090000 		.4byte	.LASF19
 5360 00df 05       		.uleb128 0x5
 5361 00e0 70020000 		.4byte	.LASF20
 5362 00e4 04       		.byte	0x4
 5363 00e5 4401     		.2byte	0x144
 5364 00e7 77000000 		.4byte	0x77
 5365 00eb 05       		.uleb128 0x5
 5366 00ec 48010000 		.4byte	.LASF21
 5367 00f0 04       		.byte	0x4
 5368 00f1 4901     		.2byte	0x149
 5369 00f3 F7000000 		.4byte	0xf7
 5370 00f7 02       		.uleb128 0x2
 5371 00f8 01       		.byte	0x1
 5372 00f9 08       		.byte	0x8
 5373 00fa 8C050000 		.4byte	.LASF22
 5374 00fe 05       		.uleb128 0x5
 5375 00ff 3E0B0000 		.4byte	.LASF23
 5376 0103 04       		.byte	0x4
 5377 0104 DA01     		.2byte	0x1da
 5378 0106 69000000 		.4byte	0x69
 5379 010a 06       		.uleb128 0x6
 5380 010b AD000000 		.4byte	0xad
 5381 010f 06       		.uleb128 0x6
 5382 0110 C5000000 		.4byte	0xc5
 5383 0114 05       		.uleb128 0x5
 5384 0115 9F0C0000 		.4byte	.LASF24
 5385 0119 04       		.byte	0x4
 5386 011a F401     		.2byte	0x1f4
 5387 011c 20010000 		.4byte	0x120
 5388 0120 07       		.uleb128 0x7
 5389 0121 04       		.byte	0x4
 5390 0122 26010000 		.4byte	0x126
 5391 0126 08       		.uleb128 0x8
 5392 0127 02       		.uleb128 0x2
 5393 0128 04       		.byte	0x4
 5394 0129 07       		.byte	0x7
 5395 012a 0A000000 		.4byte	.LASF25
 5396 012e 07       		.uleb128 0x7
 5397 012f 04       		.byte	0x4
 5398 0130 34010000 		.4byte	0x134
 5399 0134 09       		.uleb128 0x9
 5400 0135 F7000000 		.4byte	0xf7
 5401 0139 0A       		.uleb128 0xa
 5402 013a AD000000 		.4byte	0xad
 5403 013e 49010000 		.4byte	0x149
 5404 0142 0B       		.uleb128 0xb
 5405 0143 27010000 		.4byte	0x127
 5406 0147 03       		.byte	0x3
 5407 0148 00       		.byte	0
ARM GAS  C:\Users\RECEPC~1\AppData\Local\Temp\ccoGpf2X.s 			page 135


 5408 0149 0C       		.uleb128 0xc
 5409 014a 53070000 		.4byte	.LASF77
 5410 014e 8802     		.2byte	0x288
 5411 0150 05       		.byte	0x5
 5412 0151 6A       		.byte	0x6a
 5413 0152 D2030000 		.4byte	0x3d2
 5414 0156 0D       		.uleb128 0xd
 5415 0157 81000000 		.4byte	.LASF26
 5416 015b 05       		.byte	0x5
 5417 015c 6B       		.byte	0x6b
 5418 015d AD000000 		.4byte	0xad
 5419 0161 00       		.byte	0
 5420 0162 0D       		.uleb128 0xd
 5421 0163 48020000 		.4byte	.LASF27
 5422 0167 05       		.byte	0x5
 5423 0168 6C       		.byte	0x6c
 5424 0169 D2030000 		.4byte	0x3d2
 5425 016d 01       		.byte	0x1
 5426 016e 0D       		.uleb128 0xd
 5427 016f 36100000 		.4byte	.LASF28
 5428 0173 05       		.byte	0x5
 5429 0174 6D       		.byte	0x6d
 5430 0175 AD000000 		.4byte	0xad
 5431 0179 1A       		.byte	0x1a
 5432 017a 0D       		.uleb128 0xd
 5433 017b BF050000 		.4byte	.LASF29
 5434 017f 05       		.byte	0x5
 5435 0180 6E       		.byte	0x6e
 5436 0181 AD000000 		.4byte	0xad
 5437 0185 1B       		.byte	0x1b
 5438 0186 0D       		.uleb128 0xd
 5439 0187 55080000 		.4byte	.LASF30
 5440 018b 05       		.byte	0x5
 5441 018c 6F       		.byte	0x6f
 5442 018d E2030000 		.4byte	0x3e2
 5443 0191 1C       		.byte	0x1c
 5444 0192 0D       		.uleb128 0xd
 5445 0193 5B000000 		.4byte	.LASF31
 5446 0197 05       		.byte	0x5
 5447 0198 70       		.byte	0x70
 5448 0199 E2030000 		.4byte	0x3e2
 5449 019d 26       		.byte	0x26
 5450 019e 0D       		.uleb128 0xd
 5451 019f 6D080000 		.4byte	.LASF32
 5452 01a3 05       		.byte	0x5
 5453 01a4 71       		.byte	0x71
 5454 01a5 D2030000 		.4byte	0x3d2
 5455 01a9 30       		.byte	0x30
 5456 01aa 0D       		.uleb128 0xd
 5457 01ab 7A0B0000 		.4byte	.LASF33
 5458 01af 05       		.byte	0x5
 5459 01b0 72       		.byte	0x72
 5460 01b1 AD000000 		.4byte	0xad
 5461 01b5 49       		.byte	0x49
 5462 01b6 0D       		.uleb128 0xd
 5463 01b7 300E0000 		.4byte	.LASF34
 5464 01bb 05       		.byte	0x5
ARM GAS  C:\Users\RECEPC~1\AppData\Local\Temp\ccoGpf2X.s 			page 136


 5465 01bc 73       		.byte	0x73
 5466 01bd AD000000 		.4byte	0xad
 5467 01c1 4A       		.byte	0x4a
 5468 01c2 0D       		.uleb128 0xd
 5469 01c3 00000000 		.4byte	.LASF35
 5470 01c7 05       		.byte	0x5
 5471 01c8 74       		.byte	0x74
 5472 01c9 F2030000 		.4byte	0x3f2
 5473 01cd 4B       		.byte	0x4b
 5474 01ce 0D       		.uleb128 0xd
 5475 01cf 7E0C0000 		.4byte	.LASF36
 5476 01d3 05       		.byte	0x5
 5477 01d4 75       		.byte	0x75
 5478 01d5 AD000000 		.4byte	0xad
 5479 01d9 60       		.byte	0x60
 5480 01da 0D       		.uleb128 0xd
 5481 01db E0030000 		.4byte	.LASF37
 5482 01df 05       		.byte	0x5
 5483 01e0 76       		.byte	0x76
 5484 01e1 AD000000 		.4byte	0xad
 5485 01e5 61       		.byte	0x61
 5486 01e6 0D       		.uleb128 0xd
 5487 01e7 200B0000 		.4byte	.LASF38
 5488 01eb 05       		.byte	0x5
 5489 01ec 77       		.byte	0x77
 5490 01ed AD000000 		.4byte	0xad
 5491 01f1 62       		.byte	0x62
 5492 01f2 0D       		.uleb128 0xd
 5493 01f3 A7060000 		.4byte	.LASF39
 5494 01f7 05       		.byte	0x5
 5495 01f8 78       		.byte	0x78
 5496 01f9 02040000 		.4byte	0x402
 5497 01fd 63       		.byte	0x63
 5498 01fe 0D       		.uleb128 0xd
 5499 01ff 6E0B0000 		.4byte	.LASF40
 5500 0203 05       		.byte	0x5
 5501 0204 79       		.byte	0x79
 5502 0205 12040000 		.4byte	0x412
 5503 0209 65       		.byte	0x65
 5504 020a 0D       		.uleb128 0xd
 5505 020b 2A100000 		.4byte	.LASF41
 5506 020f 05       		.byte	0x5
 5507 0210 7A       		.byte	0x7a
 5508 0211 AD000000 		.4byte	0xad
 5509 0215 79       		.byte	0x79
 5510 0216 0D       		.uleb128 0xd
 5511 0217 12060000 		.4byte	.LASF42
 5512 021b 05       		.byte	0x5
 5513 021c 7B       		.byte	0x7b
 5514 021d 28040000 		.4byte	0x428
 5515 0221 7A       		.byte	0x7a
 5516 0222 0D       		.uleb128 0xd
 5517 0223 290C0000 		.4byte	.LASF43
 5518 0227 05       		.byte	0x5
 5519 0228 7C       		.byte	0x7c
 5520 0229 38040000 		.4byte	0x438
 5521 022d 7F       		.byte	0x7f
ARM GAS  C:\Users\RECEPC~1\AppData\Local\Temp\ccoGpf2X.s 			page 137


 5522 022e 0D       		.uleb128 0xd
 5523 022f 1A0C0000 		.4byte	.LASF44
 5524 0233 05       		.byte	0x5
 5525 0234 7D       		.byte	0x7d
 5526 0235 38040000 		.4byte	0x438
 5527 0239 85       		.byte	0x85
 5528 023a 0D       		.uleb128 0xd
 5529 023b CA020000 		.4byte	.LASF45
 5530 023f 05       		.byte	0x5
 5531 0240 7E       		.byte	0x7e
 5532 0241 48040000 		.4byte	0x448
 5533 0245 8B       		.byte	0x8b
 5534 0246 0D       		.uleb128 0xd
 5535 0247 E1060000 		.4byte	.LASF46
 5536 024b 05       		.byte	0x5
 5537 024c 7F       		.byte	0x7f
 5538 024d 48040000 		.4byte	0x448
 5539 0251 99       		.byte	0x99
 5540 0252 0D       		.uleb128 0xd
 5541 0253 EB0F0000 		.4byte	.LASF47
 5542 0257 05       		.byte	0x5
 5543 0258 80       		.byte	0x80
 5544 0259 48040000 		.4byte	0x448
 5545 025d A7       		.byte	0xa7
 5546 025e 0D       		.uleb128 0xd
 5547 025f 980B0000 		.4byte	.LASF48
 5548 0263 05       		.byte	0x5
 5549 0264 81       		.byte	0x81
 5550 0265 48040000 		.4byte	0x448
 5551 0269 B5       		.byte	0xb5
 5552 026a 0D       		.uleb128 0xd
 5553 026b 320D0000 		.4byte	.LASF49
 5554 026f 05       		.byte	0x5
 5555 0270 82       		.byte	0x82
 5556 0271 48040000 		.4byte	0x448
 5557 0275 C3       		.byte	0xc3
 5558 0276 0D       		.uleb128 0xd
 5559 0277 47080000 		.4byte	.LASF50
 5560 027b 05       		.byte	0x5
 5561 027c 83       		.byte	0x83
 5562 027d 48040000 		.4byte	0x448
 5563 0281 D1       		.byte	0xd1
 5564 0282 0D       		.uleb128 0xd
 5565 0283 5C010000 		.4byte	.LASF51
 5566 0287 05       		.byte	0x5
 5567 0288 84       		.byte	0x84
 5568 0289 58040000 		.4byte	0x458
 5569 028d DF       		.byte	0xdf
 5570 028e 0D       		.uleb128 0xd
 5571 028f B20F0000 		.4byte	.LASF52
 5572 0293 05       		.byte	0x5
 5573 0294 85       		.byte	0x85
 5574 0295 58040000 		.4byte	0x458
 5575 0299 EA       		.byte	0xea
 5576 029a 0D       		.uleb128 0xd
 5577 029b 1F0F0000 		.4byte	.LASF53
 5578 029f 05       		.byte	0x5
ARM GAS  C:\Users\RECEPC~1\AppData\Local\Temp\ccoGpf2X.s 			page 138


 5579 02a0 86       		.byte	0x86
 5580 02a1 58040000 		.4byte	0x458
 5581 02a5 F5       		.byte	0xf5
 5582 02a6 0E       		.uleb128 0xe
 5583 02a7 D9100000 		.4byte	.LASF54
 5584 02ab 05       		.byte	0x5
 5585 02ac 87       		.byte	0x87
 5586 02ad AD000000 		.4byte	0xad
 5587 02b1 0001     		.2byte	0x100
 5588 02b3 0E       		.uleb128 0xe
 5589 02b4 CF000000 		.4byte	.LASF55
 5590 02b8 05       		.byte	0x5
 5591 02b9 88       		.byte	0x88
 5592 02ba AD000000 		.4byte	0xad
 5593 02be 0101     		.2byte	0x101
 5594 02c0 0E       		.uleb128 0xe
 5595 02c1 34020000 		.4byte	.LASF56
 5596 02c5 05       		.byte	0x5
 5597 02c6 89       		.byte	0x89
 5598 02c7 AD000000 		.4byte	0xad
 5599 02cb 0201     		.2byte	0x102
 5600 02cd 0E       		.uleb128 0xe
 5601 02ce C3000000 		.4byte	.LASF57
 5602 02d2 05       		.byte	0x5
 5603 02d3 8A       		.byte	0x8a
 5604 02d4 AD000000 		.4byte	0xad
 5605 02d8 0301     		.2byte	0x103
 5606 02da 0E       		.uleb128 0xe
 5607 02db AA100000 		.4byte	.LASF58
 5608 02df 05       		.byte	0x5
 5609 02e0 8B       		.byte	0x8b
 5610 02e1 68040000 		.4byte	0x468
 5611 02e5 0401     		.2byte	0x104
 5612 02e7 0E       		.uleb128 0xe
 5613 02e8 62080000 		.4byte	.LASF59
 5614 02ec 05       		.byte	0x5
 5615 02ed 8C       		.byte	0x8c
 5616 02ee E2030000 		.4byte	0x3e2
 5617 02f2 4501     		.2byte	0x145
 5618 02f4 0E       		.uleb128 0xe
 5619 02f5 28020000 		.4byte	.LASF60
 5620 02f9 05       		.byte	0x5
 5621 02fa 8D       		.byte	0x8d
 5622 02fb E2030000 		.4byte	0x3e2
 5623 02ff 4F01     		.2byte	0x14f
 5624 0301 0E       		.uleb128 0xe
 5625 0302 80080000 		.4byte	.LASF61
 5626 0306 05       		.byte	0x5
 5627 0307 8E       		.byte	0x8e
 5628 0308 E2030000 		.4byte	0x3e2
 5629 030c 5901     		.2byte	0x159
 5630 030e 0E       		.uleb128 0xe
 5631 030f D0010000 		.4byte	.LASF62
 5632 0313 05       		.byte	0x5
 5633 0314 8F       		.byte	0x8f
 5634 0315 78040000 		.4byte	0x478
 5635 0319 6301     		.2byte	0x163
ARM GAS  C:\Users\RECEPC~1\AppData\Local\Temp\ccoGpf2X.s 			page 139


 5636 031b 0E       		.uleb128 0xe
 5637 031c 5E0A0000 		.4byte	.LASF63
 5638 0320 05       		.byte	0x5
 5639 0321 90       		.byte	0x90
 5640 0322 78040000 		.4byte	0x478
 5641 0326 AE01     		.2byte	0x1ae
 5642 0328 0E       		.uleb128 0xe
 5643 0329 89080000 		.4byte	.LASF64
 5644 032d 05       		.byte	0x5
 5645 032e 91       		.byte	0x91
 5646 032f 8E040000 		.4byte	0x48e
 5647 0333 F901     		.2byte	0x1f9
 5648 0335 0E       		.uleb128 0xe
 5649 0336 E6000000 		.4byte	.LASF65
 5650 033a 05       		.byte	0x5
 5651 033b 92       		.byte	0x92
 5652 033c 8E040000 		.4byte	0x48e
 5653 0340 0802     		.2byte	0x208
 5654 0342 0E       		.uleb128 0xe
 5655 0343 36030000 		.4byte	.LASF66
 5656 0347 05       		.byte	0x5
 5657 0348 93       		.byte	0x93
 5658 0349 A4040000 		.4byte	0x4a4
 5659 034d 1702     		.2byte	0x217
 5660 034f 0E       		.uleb128 0xe
 5661 0350 23050000 		.4byte	.LASF67
 5662 0354 05       		.byte	0x5
 5663 0355 94       		.byte	0x94
 5664 0356 A4040000 		.4byte	0x4a4
 5665 035a 3502     		.2byte	0x235
 5666 035c 0E       		.uleb128 0xe
 5667 035d 980A0000 		.4byte	.LASF68
 5668 0361 05       		.byte	0x5
 5669 0362 95       		.byte	0x95
 5670 0363 E2030000 		.4byte	0x3e2
 5671 0367 5302     		.2byte	0x253
 5672 0369 0E       		.uleb128 0xe
 5673 036a 2C0B0000 		.4byte	.LASF69
 5674 036e 05       		.byte	0x5
 5675 036f 96       		.byte	0x96
 5676 0370 AD000000 		.4byte	0xad
 5677 0374 5D02     		.2byte	0x25d
 5678 0376 0E       		.uleb128 0xe
 5679 0377 F6100000 		.4byte	.LASF70
 5680 037b 05       		.byte	0x5
 5681 037c 97       		.byte	0x97
 5682 037d BA040000 		.4byte	0x4ba
 5683 0381 5E02     		.2byte	0x25e
 5684 0383 0E       		.uleb128 0xe
 5685 0384 C7010000 		.4byte	.LASF71
 5686 0388 05       		.byte	0x5
 5687 0389 98       		.byte	0x98
 5688 038a 02040000 		.4byte	0x402
 5689 038e 6D02     		.2byte	0x26d
 5690 0390 0E       		.uleb128 0xe
 5691 0391 C6060000 		.4byte	.LASF72
 5692 0395 05       		.byte	0x5
ARM GAS  C:\Users\RECEPC~1\AppData\Local\Temp\ccoGpf2X.s 			page 140


 5693 0396 99       		.byte	0x99
 5694 0397 AD000000 		.4byte	0xad
 5695 039b 6F02     		.2byte	0x26f
 5696 039d 0E       		.uleb128 0xe
 5697 039e 7B0D0000 		.4byte	.LASF73
 5698 03a2 05       		.byte	0x5
 5699 03a3 9A       		.byte	0x9a
 5700 03a4 AD000000 		.4byte	0xad
 5701 03a8 7002     		.2byte	0x270
 5702 03aa 0E       		.uleb128 0xe
 5703 03ab 91010000 		.4byte	.LASF74
 5704 03af 05       		.byte	0x5
 5705 03b0 9B       		.byte	0x9b
 5706 03b1 AD000000 		.4byte	0xad
 5707 03b5 7102     		.2byte	0x271
 5708 03b7 0E       		.uleb128 0xe
 5709 03b8 B80A0000 		.4byte	.LASF75
 5710 03bc 05       		.byte	0x5
 5711 03bd 9C       		.byte	0x9c
 5712 03be 58040000 		.4byte	0x458
 5713 03c2 7202     		.2byte	0x272
 5714 03c4 0E       		.uleb128 0xe
 5715 03c5 33050000 		.4byte	.LASF76
 5716 03c9 05       		.byte	0x5
 5717 03ca 9D       		.byte	0x9d
 5718 03cb 58040000 		.4byte	0x458
 5719 03cf 7D02     		.2byte	0x27d
 5720 03d1 00       		.byte	0
 5721 03d2 0A       		.uleb128 0xa
 5722 03d3 AD000000 		.4byte	0xad
 5723 03d7 E2030000 		.4byte	0x3e2
 5724 03db 0B       		.uleb128 0xb
 5725 03dc 27010000 		.4byte	0x127
 5726 03e0 18       		.byte	0x18
 5727 03e1 00       		.byte	0
 5728 03e2 0A       		.uleb128 0xa
 5729 03e3 AD000000 		.4byte	0xad
 5730 03e7 F2030000 		.4byte	0x3f2
 5731 03eb 0B       		.uleb128 0xb
 5732 03ec 27010000 		.4byte	0x127
 5733 03f0 09       		.byte	0x9
 5734 03f1 00       		.byte	0
 5735 03f2 0A       		.uleb128 0xa
 5736 03f3 AD000000 		.4byte	0xad
 5737 03f7 02040000 		.4byte	0x402
 5738 03fb 0B       		.uleb128 0xb
 5739 03fc 27010000 		.4byte	0x127
 5740 0400 14       		.byte	0x14
 5741 0401 00       		.byte	0
 5742 0402 0A       		.uleb128 0xa
 5743 0403 AD000000 		.4byte	0xad
 5744 0407 12040000 		.4byte	0x412
 5745 040b 0B       		.uleb128 0xb
 5746 040c 27010000 		.4byte	0x127
 5747 0410 01       		.byte	0x1
 5748 0411 00       		.byte	0
 5749 0412 0A       		.uleb128 0xa
ARM GAS  C:\Users\RECEPC~1\AppData\Local\Temp\ccoGpf2X.s 			page 141


 5750 0413 AD000000 		.4byte	0xad
 5751 0417 28040000 		.4byte	0x428
 5752 041b 0B       		.uleb128 0xb
 5753 041c 27010000 		.4byte	0x127
 5754 0420 01       		.byte	0x1
 5755 0421 0B       		.uleb128 0xb
 5756 0422 27010000 		.4byte	0x127
 5757 0426 09       		.byte	0x9
 5758 0427 00       		.byte	0
 5759 0428 0A       		.uleb128 0xa
 5760 0429 AD000000 		.4byte	0xad
 5761 042d 38040000 		.4byte	0x438
 5762 0431 0B       		.uleb128 0xb
 5763 0432 27010000 		.4byte	0x127
 5764 0436 04       		.byte	0x4
 5765 0437 00       		.byte	0
 5766 0438 0A       		.uleb128 0xa
 5767 0439 AD000000 		.4byte	0xad
 5768 043d 48040000 		.4byte	0x448
 5769 0441 0B       		.uleb128 0xb
 5770 0442 27010000 		.4byte	0x127
 5771 0446 05       		.byte	0x5
 5772 0447 00       		.byte	0
 5773 0448 0A       		.uleb128 0xa
 5774 0449 AD000000 		.4byte	0xad
 5775 044d 58040000 		.4byte	0x458
 5776 0451 0B       		.uleb128 0xb
 5777 0452 27010000 		.4byte	0x127
 5778 0456 0D       		.byte	0xd
 5779 0457 00       		.byte	0
 5780 0458 0A       		.uleb128 0xa
 5781 0459 AD000000 		.4byte	0xad
 5782 045d 68040000 		.4byte	0x468
 5783 0461 0B       		.uleb128 0xb
 5784 0462 27010000 		.4byte	0x127
 5785 0466 0A       		.byte	0xa
 5786 0467 00       		.byte	0
 5787 0468 0A       		.uleb128 0xa
 5788 0469 AD000000 		.4byte	0xad
 5789 046d 78040000 		.4byte	0x478
 5790 0471 0B       		.uleb128 0xb
 5791 0472 27010000 		.4byte	0x127
 5792 0476 40       		.byte	0x40
 5793 0477 00       		.byte	0
 5794 0478 0A       		.uleb128 0xa
 5795 0479 AD000000 		.4byte	0xad
 5796 047d 8E040000 		.4byte	0x48e
 5797 0481 0B       		.uleb128 0xb
 5798 0482 27010000 		.4byte	0x127
 5799 0486 02       		.byte	0x2
 5800 0487 0B       		.uleb128 0xb
 5801 0488 27010000 		.4byte	0x127
 5802 048c 18       		.byte	0x18
 5803 048d 00       		.byte	0
 5804 048e 0A       		.uleb128 0xa
 5805 048f AD000000 		.4byte	0xad
 5806 0493 A4040000 		.4byte	0x4a4
ARM GAS  C:\Users\RECEPC~1\AppData\Local\Temp\ccoGpf2X.s 			page 142


 5807 0497 0B       		.uleb128 0xb
 5808 0498 27010000 		.4byte	0x127
 5809 049c 02       		.byte	0x2
 5810 049d 0B       		.uleb128 0xb
 5811 049e 27010000 		.4byte	0x127
 5812 04a2 04       		.byte	0x4
 5813 04a3 00       		.byte	0
 5814 04a4 0A       		.uleb128 0xa
 5815 04a5 AD000000 		.4byte	0xad
 5816 04a9 BA040000 		.4byte	0x4ba
 5817 04ad 0B       		.uleb128 0xb
 5818 04ae 27010000 		.4byte	0x127
 5819 04b2 02       		.byte	0x2
 5820 04b3 0B       		.uleb128 0xb
 5821 04b4 27010000 		.4byte	0x127
 5822 04b8 09       		.byte	0x9
 5823 04b9 00       		.byte	0
 5824 04ba 0A       		.uleb128 0xa
 5825 04bb AD000000 		.4byte	0xad
 5826 04bf CA040000 		.4byte	0x4ca
 5827 04c3 0B       		.uleb128 0xb
 5828 04c4 27010000 		.4byte	0x127
 5829 04c8 0E       		.byte	0xe
 5830 04c9 00       		.byte	0
 5831 04ca 0C       		.uleb128 0xc
 5832 04cb 020B0000 		.4byte	.LASF78
 5833 04cf 0301     		.2byte	0x103
 5834 04d1 05       		.byte	0x5
 5835 04d2 AE       		.byte	0xae
 5836 04d3 53050000 		.4byte	0x553
 5837 04d7 0F       		.uleb128 0xf
 5838 04d8 64697200 		.ascii	"dir\000"
 5839 04dc 05       		.byte	0x5
 5840 04dd AF       		.byte	0xaf
 5841 04de AD000000 		.4byte	0xad
 5842 04e2 00       		.byte	0
 5843 04e3 0D       		.uleb128 0xd
 5844 04e4 41050000 		.4byte	.LASF79
 5845 04e8 05       		.byte	0x5
 5846 04e9 B0       		.byte	0xb0
 5847 04ea 53050000 		.4byte	0x553
 5848 04ee 01       		.byte	0x1
 5849 04ef 0D       		.uleb128 0xd
 5850 04f0 23070000 		.4byte	.LASF80
 5851 04f4 05       		.byte	0x5
 5852 04f5 B1       		.byte	0xb1
 5853 04f6 6F050000 		.4byte	0x56f
 5854 04fa B5       		.byte	0xb5
 5855 04fb 0D       		.uleb128 0xd
 5856 04fc 11100000 		.4byte	.LASF81
 5857 0500 05       		.byte	0x5
 5858 0501 B2       		.byte	0xb2
 5859 0502 48040000 		.4byte	0x448
 5860 0506 D5       		.byte	0xd5
 5861 0507 0D       		.uleb128 0xd
 5862 0508 A40A0000 		.4byte	.LASF82
 5863 050c 05       		.byte	0x5
ARM GAS  C:\Users\RECEPC~1\AppData\Local\Temp\ccoGpf2X.s 			page 143


 5864 050d B3       		.byte	0xb3
 5865 050e 48040000 		.4byte	0x448
 5866 0512 E3       		.byte	0xe3
 5867 0513 0D       		.uleb128 0xd
 5868 0514 450F0000 		.4byte	.LASF83
 5869 0518 05       		.byte	0x5
 5870 0519 B4       		.byte	0xb4
 5871 051a 48040000 		.4byte	0x448
 5872 051e F1       		.byte	0xf1
 5873 051f 0D       		.uleb128 0xd
 5874 0520 3B080000 		.4byte	.LASF84
 5875 0524 05       		.byte	0x5
 5876 0525 B5       		.byte	0xb5
 5877 0526 AD000000 		.4byte	0xad
 5878 052a FF       		.byte	0xff
 5879 052b 0E       		.uleb128 0xe
 5880 052c F00E0000 		.4byte	.LASF85
 5881 0530 05       		.byte	0x5
 5882 0531 B6       		.byte	0xb6
 5883 0532 AD000000 		.4byte	0xad
 5884 0536 0001     		.2byte	0x100
 5885 0538 0E       		.uleb128 0xe
 5886 0539 660E0000 		.4byte	.LASF86
 5887 053d 05       		.byte	0x5
 5888 053e B7       		.byte	0xb7
 5889 053f AD000000 		.4byte	0xad
 5890 0543 0101     		.2byte	0x101
 5891 0545 0E       		.uleb128 0xe
 5892 0546 D20C0000 		.4byte	.LASF87
 5893 054a 05       		.byte	0x5
 5894 054b B8       		.byte	0xb8
 5895 054c AD000000 		.4byte	0xad
 5896 0550 0201     		.2byte	0x102
 5897 0552 00       		.byte	0
 5898 0553 0A       		.uleb128 0xa
 5899 0554 AD000000 		.4byte	0xad
 5900 0558 6F050000 		.4byte	0x56f
 5901 055c 0B       		.uleb128 0xb
 5902 055d 27010000 		.4byte	0x127
 5903 0561 03       		.byte	0x3
 5904 0562 0B       		.uleb128 0xb
 5905 0563 27010000 		.4byte	0x127
 5906 0567 02       		.byte	0x2
 5907 0568 0B       		.uleb128 0xb
 5908 0569 27010000 		.4byte	0x127
 5909 056d 0E       		.byte	0xe
 5910 056e 00       		.byte	0
 5911 056f 0A       		.uleb128 0xa
 5912 0570 AD000000 		.4byte	0xad
 5913 0574 85050000 		.4byte	0x585
 5914 0578 0B       		.uleb128 0xb
 5915 0579 27010000 		.4byte	0x127
 5916 057d 03       		.byte	0x3
 5917 057e 0B       		.uleb128 0xb
 5918 057f 27010000 		.4byte	0x127
 5919 0583 07       		.byte	0x7
 5920 0584 00       		.byte	0
ARM GAS  C:\Users\RECEPC~1\AppData\Local\Temp\ccoGpf2X.s 			page 144


 5921 0585 0C       		.uleb128 0xc
 5922 0586 670F0000 		.4byte	.LASF88
 5923 058a 0C04     		.2byte	0x40c
 5924 058c 05       		.byte	0x5
 5925 058d BB       		.byte	0xbb
 5926 058e BE050000 		.4byte	0x5be
 5927 0592 0F       		.uleb128 0xf
 5928 0593 6100     		.ascii	"a\000"
 5929 0595 05       		.byte	0x5
 5930 0596 BC       		.byte	0xbc
 5931 0597 CA040000 		.4byte	0x4ca
 5932 059b 00       		.byte	0
 5933 059c 10       		.uleb128 0x10
 5934 059d 6200     		.ascii	"b\000"
 5935 059f 05       		.byte	0x5
 5936 05a0 BD       		.byte	0xbd
 5937 05a1 CA040000 		.4byte	0x4ca
 5938 05a5 0301     		.2byte	0x103
 5939 05a7 10       		.uleb128 0x10
 5940 05a8 6300     		.ascii	"c\000"
 5941 05aa 05       		.byte	0x5
 5942 05ab BE       		.byte	0xbe
 5943 05ac CA040000 		.4byte	0x4ca
 5944 05b0 0602     		.2byte	0x206
 5945 05b2 10       		.uleb128 0x10
 5946 05b3 6400     		.ascii	"d\000"
 5947 05b5 05       		.byte	0x5
 5948 05b6 BF       		.byte	0xbf
 5949 05b7 CA040000 		.4byte	0x4ca
 5950 05bb 0903     		.2byte	0x309
 5951 05bd 00       		.byte	0
 5952 05be 11       		.uleb128 0x11
 5953 05bf A5020000 		.4byte	.LASF286
 5954 05c3 01       		.byte	0x1
 5955 05c4 05       		.byte	0x5
 5956 05c5 D5       		.byte	0xd5
 5957 05c6 37070000 		.4byte	0x737
 5958 05ca 12       		.uleb128 0x12
 5959 05cb 14030000 		.4byte	.LASF89
 5960 05cf 00       		.sleb128 0
 5961 05d0 12       		.uleb128 0x12
 5962 05d1 8F0C0000 		.4byte	.LASF90
 5963 05d5 01       		.sleb128 1
 5964 05d6 12       		.uleb128 0x12
 5965 05d7 5A070000 		.4byte	.LASF91
 5966 05db 02       		.sleb128 2
 5967 05dc 12       		.uleb128 0x12
 5968 05dd 6A070000 		.4byte	.LASF92
 5969 05e1 03       		.sleb128 3
 5970 05e2 12       		.uleb128 0x12
 5971 05e3 DD0C0000 		.4byte	.LASF93
 5972 05e7 04       		.sleb128 4
 5973 05e8 12       		.uleb128 0x12
 5974 05e9 F5060000 		.4byte	.LASF94
 5975 05ed 05       		.sleb128 5
 5976 05ee 12       		.uleb128 0x12
 5977 05ef E1040000 		.4byte	.LASF95
ARM GAS  C:\Users\RECEPC~1\AppData\Local\Temp\ccoGpf2X.s 			page 145


 5978 05f3 06       		.sleb128 6
 5979 05f4 12       		.uleb128 0x12
 5980 05f5 0E020000 		.4byte	.LASF96
 5981 05f9 0F       		.sleb128 15
 5982 05fa 12       		.uleb128 0x12
 5983 05fb 0A0A0000 		.4byte	.LASF97
 5984 05ff FE00     		.sleb128 126
 5985 0601 12       		.uleb128 0x12
 5986 0602 270A0000 		.4byte	.LASF98
 5987 0606 8601     		.sleb128 134
 5988 0608 12       		.uleb128 0x12
 5989 0609 3D000000 		.4byte	.LASF99
 5990 060d 07       		.sleb128 7
 5991 060e 12       		.uleb128 0x12
 5992 060f ED0D0000 		.4byte	.LASF100
 5993 0613 08       		.sleb128 8
 5994 0614 12       		.uleb128 0x12
 5995 0615 B2060000 		.4byte	.LASF101
 5996 0619 09       		.sleb128 9
 5997 061a 12       		.uleb128 0x12
 5998 061b 0B0B0000 		.4byte	.LASF102
 5999 061f 0A       		.sleb128 10
 6000 0620 12       		.uleb128 0x12
 6001 0621 98090000 		.4byte	.LASF103
 6002 0625 0B       		.sleb128 11
 6003 0626 12       		.uleb128 0x12
 6004 0627 1B060000 		.4byte	.LASF104
 6005 062b 25       		.sleb128 37
 6006 062c 12       		.uleb128 0x12
 6007 062d EA090000 		.4byte	.LASF105
 6008 0631 26       		.sleb128 38
 6009 0632 12       		.uleb128 0x12
 6010 0633 440A0000 		.4byte	.LASF106
 6011 0637 27       		.sleb128 39
 6012 0638 12       		.uleb128 0x12
 6013 0639 F2080000 		.4byte	.LASF107
 6014 063d 2F       		.sleb128 47
 6015 063e 12       		.uleb128 0x12
 6016 063f B2030000 		.4byte	.LASF108
 6017 0643 2C       		.sleb128 44
 6018 0644 12       		.uleb128 0x12
 6019 0645 B6090000 		.4byte	.LASF109
 6020 0649 0C       		.sleb128 12
 6021 064a 12       		.uleb128 0x12
 6022 064b 9F030000 		.4byte	.LASF110
 6023 064f 8501     		.sleb128 133
 6024 0651 12       		.uleb128 0x12
 6025 0652 CD0A0000 		.4byte	.LASF111
 6026 0656 1C       		.sleb128 28
 6027 0657 12       		.uleb128 0x12
 6028 0658 BD0C0000 		.4byte	.LASF112
 6029 065c 12       		.sleb128 18
 6030 065d 12       		.uleb128 0x12
 6031 065e 09090000 		.4byte	.LASF113
 6032 0662 13       		.sleb128 19
 6033 0663 12       		.uleb128 0x12
 6034 0664 4D0F0000 		.4byte	.LASF114
ARM GAS  C:\Users\RECEPC~1\AppData\Local\Temp\ccoGpf2X.s 			page 146


 6035 0668 24       		.sleb128 36
 6036 0669 12       		.uleb128 0x12
 6037 066a 150E0000 		.4byte	.LASF115
 6038 066e 0D       		.sleb128 13
 6039 066f 12       		.uleb128 0x12
 6040 0670 F5020000 		.4byte	.LASF116
 6041 0674 0E       		.sleb128 14
 6042 0675 12       		.uleb128 0x12
 6043 0676 6A0C0000 		.4byte	.LASF117
 6044 067a 8301     		.sleb128 131
 6045 067c 12       		.uleb128 0x12
 6046 067d 30010000 		.4byte	.LASF118
 6047 0681 DA00     		.sleb128 90
 6048 0683 12       		.uleb128 0x12
 6049 0684 8F000000 		.4byte	.LASF119
 6050 0688 31       		.sleb128 49
 6051 0689 12       		.uleb128 0x12
 6052 068a 17080000 		.4byte	.LASF120
 6053 068e 35       		.sleb128 53
 6054 068f 12       		.uleb128 0x12
 6055 0690 B7040000 		.4byte	.LASF121
 6056 0694 2E       		.sleb128 46
 6057 0695 12       		.uleb128 0x12
 6058 0696 4E0C0000 		.4byte	.LASF122
 6059 069a 8C01     		.sleb128 140
 6060 069c 12       		.uleb128 0x12
 6061 069d 04050000 		.4byte	.LASF123
 6062 06a1 9601     		.sleb128 150
 6063 06a3 12       		.uleb128 0x12
 6064 06a4 47030000 		.4byte	.LASF124
 6065 06a8 39       		.sleb128 57
 6066 06a9 12       		.uleb128 0x12
 6067 06aa 7A090000 		.4byte	.LASF125
 6068 06ae 9701     		.sleb128 151
 6069 06b0 12       		.uleb128 0x12
 6070 06b1 31110000 		.4byte	.LASF126
 6071 06b5 9801     		.sleb128 152
 6072 06b7 12       		.uleb128 0x12
 6073 06b8 E30B0000 		.4byte	.LASF127
 6074 06bc 3E       		.sleb128 62
 6075 06bd 12       		.uleb128 0x12
 6076 06be 010E0000 		.4byte	.LASF128
 6077 06c2 3F       		.sleb128 63
 6078 06c3 12       		.uleb128 0x12
 6079 06c4 6E030000 		.4byte	.LASF129
 6080 06c8 C000     		.sleb128 64
 6081 06ca 12       		.uleb128 0x12
 6082 06cb FC0F0000 		.4byte	.LASF130
 6083 06cf 8D01     		.sleb128 141
 6084 06d1 12       		.uleb128 0x12
 6085 06d2 F9000000 		.4byte	.LASF131
 6086 06d6 23       		.sleb128 35
 6087 06d7 12       		.uleb128 0x12
 6088 06d8 00040000 		.4byte	.LASF132
 6089 06dc 2A       		.sleb128 42
 6090 06dd 12       		.uleb128 0x12
 6091 06de 6B0E0000 		.4byte	.LASF133
ARM GAS  C:\Users\RECEPC~1\AppData\Local\Temp\ccoGpf2X.s 			page 147


 6092 06e2 2B       		.sleb128 43
 6093 06e3 12       		.uleb128 0x12
 6094 06e4 E9030000 		.4byte	.LASF134
 6095 06e8 3C       		.sleb128 60
 6096 06e9 12       		.uleb128 0x12
 6097 06ea 9E070000 		.4byte	.LASF135
 6098 06ee C100     		.sleb128 65
 6099 06f0 12       		.uleb128 0x12
 6100 06f1 91050000 		.4byte	.LASF136
 6101 06f5 EB00     		.sleb128 107
 6102 06f7 12       		.uleb128 0x12
 6103 06f8 2C090000 		.4byte	.LASF137
 6104 06fc E700     		.sleb128 103
 6105 06fe 12       		.uleb128 0x12
 6106 06ff 51020000 		.4byte	.LASF138
 6107 0703 E400     		.sleb128 100
 6108 0705 12       		.uleb128 0x12
 6109 0706 AA0E0000 		.4byte	.LASF139
 6110 070a E500     		.sleb128 101
 6111 070c 12       		.uleb128 0x12
 6112 070d DB070000 		.4byte	.LASF140
 6113 0711 9901     		.sleb128 153
 6114 0713 12       		.uleb128 0x12
 6115 0714 EA070000 		.4byte	.LASF141
 6116 0718 9A01     		.sleb128 154
 6117 071a 12       		.uleb128 0x12
 6118 071b F9070000 		.4byte	.LASF142
 6119 071f 9B01     		.sleb128 155
 6120 0721 12       		.uleb128 0x12
 6121 0722 08080000 		.4byte	.LASF143
 6122 0726 9C01     		.sleb128 156
 6123 0728 12       		.uleb128 0x12
 6124 0729 BA0B0000 		.4byte	.LASF144
 6125 072d FA01     		.sleb128 250
 6126 072f 12       		.uleb128 0x12
 6127 0730 DB0E0000 		.4byte	.LASF145
 6128 0734 FF01     		.sleb128 255
 6129 0736 00       		.byte	0
 6130 0737 13       		.uleb128 0x13
 6131 0738 98080000 		.4byte	.LASF163
 6132 073c 01       		.byte	0x1
 6133 073d 0A05     		.2byte	0x50a
 6134 073f 00000000 		.4byte	.LFB74
 6135 0743 14000000 		.4byte	.LFE74-.LFB74
 6136 0747 01       		.uleb128 0x1
 6137 0748 9C       		.byte	0x9c
 6138 0749 57070000 		.4byte	0x757
 6139 074d 14       		.uleb128 0x14
 6140 074e 06000000 		.4byte	.LVL0
 6141 0752 B5290000 		.4byte	0x29b5
 6142 0756 00       		.byte	0
 6143 0757 15       		.uleb128 0x15
 6144 0758 F7050000 		.4byte	.LASF146
 6145 075c 01       		.byte	0x1
 6146 075d 23       		.byte	0x23
 6147 075e 00000000 		.4byte	.LFB63
 6148 0762 20000000 		.4byte	.LFE63-.LFB63
ARM GAS  C:\Users\RECEPC~1\AppData\Local\Temp\ccoGpf2X.s 			page 148


 6149 0766 01       		.uleb128 0x1
 6150 0767 9C       		.byte	0x9c
 6151 0768 AC070000 		.4byte	0x7ac
 6152 076c 14       		.uleb128 0x14
 6153 076d 06000000 		.4byte	.LVL1
 6154 0771 C0290000 		.4byte	0x29c0
 6155 0775 14       		.uleb128 0x14
 6156 0776 0A000000 		.4byte	.LVL2
 6157 077a C7290000 		.4byte	0x29c7
 6158 077e 14       		.uleb128 0x14
 6159 077f 0E000000 		.4byte	.LVL3
 6160 0783 CE290000 		.4byte	0x29ce
 6161 0787 14       		.uleb128 0x14
 6162 0788 12000000 		.4byte	.LVL4
 6163 078c D5290000 		.4byte	0x29d5
 6164 0790 14       		.uleb128 0x14
 6165 0791 16000000 		.4byte	.LVL5
 6166 0795 DC290000 		.4byte	0x29dc
 6167 0799 14       		.uleb128 0x14
 6168 079a 1A000000 		.4byte	.LVL6
 6169 079e E3290000 		.4byte	0x29e3
 6170 07a2 14       		.uleb128 0x14
 6171 07a3 1E000000 		.4byte	.LVL7
 6172 07a7 EA290000 		.4byte	0x29ea
 6173 07ab 00       		.byte	0
 6174 07ac 15       		.uleb128 0x15
 6175 07ad 10070000 		.4byte	.LASF147
 6176 07b1 01       		.byte	0x1
 6177 07b2 2D       		.byte	0x2d
 6178 07b3 00000000 		.4byte	.LFB64
 6179 07b7 68000000 		.4byte	.LFE64-.LFB64
 6180 07bb 01       		.uleb128 0x1
 6181 07bc 9C       		.byte	0x9c
 6182 07bd 43080000 		.4byte	0x843
 6183 07c1 16       		.uleb128 0x16
 6184 07c2 0C000000 		.4byte	.LVL8
 6185 07c6 F1290000 		.4byte	0x29f1
 6186 07ca D4070000 		.4byte	0x7d4
 6187 07ce 17       		.uleb128 0x17
 6188 07cf 01       		.uleb128 0x1
 6189 07d0 51       		.byte	0x51
 6190 07d1 01       		.uleb128 0x1
 6191 07d2 30       		.byte	0x30
 6192 07d3 00       		.byte	0
 6193 07d4 16       		.uleb128 0x16
 6194 07d5 16000000 		.4byte	.LVL9
 6195 07d9 F1290000 		.4byte	0x29f1
 6196 07dd E7070000 		.4byte	0x7e7
 6197 07e1 17       		.uleb128 0x17
 6198 07e2 01       		.uleb128 0x1
 6199 07e3 51       		.byte	0x51
 6200 07e4 01       		.uleb128 0x1
 6201 07e5 31       		.byte	0x31
 6202 07e6 00       		.byte	0
 6203 07e7 16       		.uleb128 0x16
 6204 07e8 20000000 		.4byte	.LVL10
 6205 07ec F1290000 		.4byte	0x29f1
ARM GAS  C:\Users\RECEPC~1\AppData\Local\Temp\ccoGpf2X.s 			page 149


 6206 07f0 FA070000 		.4byte	0x7fa
 6207 07f4 17       		.uleb128 0x17
 6208 07f5 01       		.uleb128 0x1
 6209 07f6 51       		.byte	0x51
 6210 07f7 01       		.uleb128 0x1
 6211 07f8 32       		.byte	0x32
 6212 07f9 00       		.byte	0
 6213 07fa 16       		.uleb128 0x16
 6214 07fb 2A000000 		.4byte	.LVL11
 6215 07ff F1290000 		.4byte	0x29f1
 6216 0803 0D080000 		.4byte	0x80d
 6217 0807 17       		.uleb128 0x17
 6218 0808 01       		.uleb128 0x1
 6219 0809 51       		.byte	0x51
 6220 080a 01       		.uleb128 0x1
 6221 080b 33       		.byte	0x33
 6222 080c 00       		.byte	0
 6223 080d 16       		.uleb128 0x16
 6224 080e 34000000 		.4byte	.LVL12
 6225 0812 F1290000 		.4byte	0x29f1
 6226 0816 20080000 		.4byte	0x820
 6227 081a 17       		.uleb128 0x17
 6228 081b 01       		.uleb128 0x1
 6229 081c 51       		.byte	0x51
 6230 081d 01       		.uleb128 0x1
 6231 081e 34       		.byte	0x34
 6232 081f 00       		.byte	0
 6233 0820 16       		.uleb128 0x16
 6234 0821 3E000000 		.4byte	.LVL13
 6235 0825 F1290000 		.4byte	0x29f1
 6236 0829 33080000 		.4byte	0x833
 6237 082d 17       		.uleb128 0x17
 6238 082e 01       		.uleb128 0x1
 6239 082f 51       		.byte	0x51
 6240 0830 01       		.uleb128 0x1
 6241 0831 35       		.byte	0x35
 6242 0832 00       		.byte	0
 6243 0833 18       		.uleb128 0x18
 6244 0834 48000000 		.4byte	.LVL14
 6245 0838 F1290000 		.4byte	0x29f1
 6246 083c 17       		.uleb128 0x17
 6247 083d 01       		.uleb128 0x1
 6248 083e 51       		.byte	0x51
 6249 083f 01       		.uleb128 0x1
 6250 0840 36       		.byte	0x36
 6251 0841 00       		.byte	0
 6252 0842 00       		.byte	0
 6253 0843 15       		.uleb128 0x15
 6254 0844 93020000 		.4byte	.LASF148
 6255 0848 01       		.byte	0x1
 6256 0849 36       		.byte	0x36
 6257 084a 00000000 		.4byte	.LFB65
 6258 084e 44000000 		.4byte	.LFE65-.LFB65
 6259 0852 01       		.uleb128 0x1
 6260 0853 9C       		.byte	0x9c
 6261 0854 B4080000 		.4byte	0x8b4
 6262 0858 16       		.uleb128 0x16
ARM GAS  C:\Users\RECEPC~1\AppData\Local\Temp\ccoGpf2X.s 			page 150


 6263 0859 08000000 		.4byte	.LVL15
 6264 085d 0B2A0000 		.4byte	0x2a0b
 6265 0861 6B080000 		.4byte	0x86b
 6266 0865 17       		.uleb128 0x17
 6267 0866 01       		.uleb128 0x1
 6268 0867 50       		.byte	0x50
 6269 0868 01       		.uleb128 0x1
 6270 0869 37       		.byte	0x37
 6271 086a 00       		.byte	0
 6272 086b 16       		.uleb128 0x16
 6273 086c 12000000 		.4byte	.LVL16
 6274 0870 0B2A0000 		.4byte	0x2a0b
 6275 0874 7E080000 		.4byte	0x87e
 6276 0878 17       		.uleb128 0x17
 6277 0879 01       		.uleb128 0x1
 6278 087a 50       		.byte	0x50
 6279 087b 01       		.uleb128 0x1
 6280 087c 38       		.byte	0x38
 6281 087d 00       		.byte	0
 6282 087e 16       		.uleb128 0x16
 6283 087f 1C000000 		.4byte	.LVL17
 6284 0883 0B2A0000 		.4byte	0x2a0b
 6285 0887 91080000 		.4byte	0x891
 6286 088b 17       		.uleb128 0x17
 6287 088c 01       		.uleb128 0x1
 6288 088d 50       		.byte	0x50
 6289 088e 01       		.uleb128 0x1
 6290 088f 39       		.byte	0x39
 6291 0890 00       		.byte	0
 6292 0891 16       		.uleb128 0x16
 6293 0892 26000000 		.4byte	.LVL18
 6294 0896 0B2A0000 		.4byte	0x2a0b
 6295 089a A4080000 		.4byte	0x8a4
 6296 089e 17       		.uleb128 0x17
 6297 089f 01       		.uleb128 0x1
 6298 08a0 50       		.byte	0x50
 6299 08a1 01       		.uleb128 0x1
 6300 08a2 3A       		.byte	0x3a
 6301 08a3 00       		.byte	0
 6302 08a4 18       		.uleb128 0x18
 6303 08a5 30000000 		.4byte	.LVL19
 6304 08a9 0B2A0000 		.4byte	0x2a0b
 6305 08ad 17       		.uleb128 0x17
 6306 08ae 01       		.uleb128 0x1
 6307 08af 50       		.byte	0x50
 6308 08b0 01       		.uleb128 0x1
 6309 08b1 3B       		.byte	0x3b
 6310 08b2 00       		.byte	0
 6311 08b3 00       		.byte	0
 6312 08b4 15       		.uleb128 0x15
 6313 08b5 7A070000 		.4byte	.LASF149
 6314 08b9 01       		.byte	0x1
 6315 08ba 48       		.byte	0x48
 6316 08bb 00000000 		.4byte	.LFB66
 6317 08bf 8C020000 		.4byte	.LFE66-.LFB66
 6318 08c3 01       		.uleb128 0x1
 6319 08c4 9C       		.byte	0x9c
ARM GAS  C:\Users\RECEPC~1\AppData\Local\Temp\ccoGpf2X.s 			page 151


 6320 08c5 A30B0000 		.4byte	0xba3
 6321 08c9 19       		.uleb128 0x19
 6322 08ca D4090000 		.4byte	.LASF150
 6323 08ce 01       		.byte	0x1
 6324 08cf 49       		.byte	0x49
 6325 08d0 A30B0000 		.4byte	0xba3
 6326 08d4 02       		.uleb128 0x2
 6327 08d5 91       		.byte	0x91
 6328 08d6 6C       		.sleb128 -20
 6329 08d7 19       		.uleb128 0x19
 6330 08d8 8A0C0000 		.4byte	.LASF151
 6331 08dc 01       		.byte	0x1
 6332 08dd 4A       		.byte	0x4a
 6333 08de A30B0000 		.4byte	0xba3
 6334 08e2 02       		.uleb128 0x2
 6335 08e3 91       		.byte	0x91
 6336 08e4 60       		.sleb128 -32
 6337 08e5 19       		.uleb128 0x19
 6338 08e6 C7100000 		.4byte	.LASF152
 6339 08ea 01       		.byte	0x1
 6340 08eb 4B       		.byte	0x4b
 6341 08ec A30B0000 		.4byte	0xba3
 6342 08f0 02       		.uleb128 0x2
 6343 08f1 91       		.byte	0x91
 6344 08f2 54       		.sleb128 -44
 6345 08f3 19       		.uleb128 0x19
 6346 08f4 CD100000 		.4byte	.LASF153
 6347 08f8 01       		.byte	0x1
 6348 08f9 4C       		.byte	0x4c
 6349 08fa A30B0000 		.4byte	0xba3
 6350 08fe 02       		.uleb128 0x2
 6351 08ff 91       		.byte	0x91
 6352 0900 48       		.sleb128 -56
 6353 0901 19       		.uleb128 0x19
 6354 0902 D3100000 		.4byte	.LASF154
 6355 0906 01       		.byte	0x1
 6356 0907 4D       		.byte	0x4d
 6357 0908 A30B0000 		.4byte	0xba3
 6358 090c 03       		.uleb128 0x3
 6359 090d 91       		.byte	0x91
 6360 090e BC7F     		.sleb128 -68
 6361 0910 19       		.uleb128 0x19
 6362 0911 A50F0000 		.4byte	.LASF155
 6363 0915 01       		.byte	0x1
 6364 0916 4E       		.byte	0x4e
 6365 0917 A30B0000 		.4byte	0xba3
 6366 091b 03       		.uleb128 0x3
 6367 091c 91       		.byte	0x91
 6368 091d B07F     		.sleb128 -80
 6369 091f 19       		.uleb128 0x19
 6370 0920 380C0000 		.4byte	.LASF156
 6371 0924 01       		.byte	0x1
 6372 0925 4F       		.byte	0x4f
 6373 0926 A30B0000 		.4byte	0xba3
 6374 092a 03       		.uleb128 0x3
 6375 092b 91       		.byte	0x91
 6376 092c A47F     		.sleb128 -92
ARM GAS  C:\Users\RECEPC~1\AppData\Local\Temp\ccoGpf2X.s 			page 152


 6377 092e 19       		.uleb128 0x19
 6378 092f BE0F0000 		.4byte	.LASF157
 6379 0933 01       		.byte	0x1
 6380 0934 50       		.byte	0x50
 6381 0935 A30B0000 		.4byte	0xba3
 6382 0939 03       		.uleb128 0x3
 6383 093a 91       		.byte	0x91
 6384 093b 987F     		.sleb128 -104
 6385 093d 19       		.uleb128 0x19
 6386 093e CB0F0000 		.4byte	.LASF158
 6387 0942 01       		.byte	0x1
 6388 0943 51       		.byte	0x51
 6389 0944 A30B0000 		.4byte	0xba3
 6390 0948 03       		.uleb128 0x3
 6391 0949 91       		.byte	0x91
 6392 094a 8C7F     		.sleb128 -116
 6393 094c 16       		.uleb128 0x16
 6394 094d 86000000 		.4byte	.LVL20
 6395 0951 202A0000 		.4byte	0x2a20
 6396 0955 64090000 		.4byte	0x964
 6397 0959 17       		.uleb128 0x17
 6398 095a 01       		.uleb128 0x1
 6399 095b 51       		.byte	0x51
 6400 095c 01       		.uleb128 0x1
 6401 095d 31       		.byte	0x31
 6402 095e 17       		.uleb128 0x17
 6403 095f 01       		.uleb128 0x1
 6404 0960 50       		.byte	0x50
 6405 0961 01       		.uleb128 0x1
 6406 0962 31       		.byte	0x31
 6407 0963 00       		.byte	0
 6408 0964 16       		.uleb128 0x16
 6409 0965 90000000 		.4byte	.LVL21
 6410 0969 362A0000 		.4byte	0x2a36
 6411 096d 82090000 		.4byte	0x982
 6412 0971 17       		.uleb128 0x17
 6413 0972 01       		.uleb128 0x1
 6414 0973 52       		.byte	0x52
 6415 0974 01       		.uleb128 0x1
 6416 0975 30       		.byte	0x30
 6417 0976 17       		.uleb128 0x17
 6418 0977 01       		.uleb128 0x1
 6419 0978 51       		.byte	0x51
 6420 0979 02       		.uleb128 0x2
 6421 097a 91       		.byte	0x91
 6422 097b 6C       		.sleb128 -20
 6423 097c 17       		.uleb128 0x17
 6424 097d 01       		.uleb128 0x1
 6425 097e 50       		.byte	0x50
 6426 097f 01       		.uleb128 0x1
 6427 0980 31       		.byte	0x31
 6428 0981 00       		.byte	0
 6429 0982 16       		.uleb128 0x16
 6430 0983 98000000 		.4byte	.LVL22
 6431 0987 572A0000 		.4byte	0x2a57
 6432 098b 97090000 		.4byte	0x997
 6433 098f 17       		.uleb128 0x17
ARM GAS  C:\Users\RECEPC~1\AppData\Local\Temp\ccoGpf2X.s 			page 153


 6434 0990 01       		.uleb128 0x1
 6435 0991 50       		.byte	0x50
 6436 0992 03       		.uleb128 0x3
 6437 0993 0A       		.byte	0xa
 6438 0994 2C01     		.2byte	0x12c
 6439 0996 00       		.byte	0
 6440 0997 16       		.uleb128 0x16
 6441 0998 B6000000 		.4byte	.LVL23
 6442 099c 362A0000 		.4byte	0x2a36
 6443 09a0 B5090000 		.4byte	0x9b5
 6444 09a4 17       		.uleb128 0x17
 6445 09a5 01       		.uleb128 0x1
 6446 09a6 52       		.byte	0x52
 6447 09a7 01       		.uleb128 0x1
 6448 09a8 30       		.byte	0x30
 6449 09a9 17       		.uleb128 0x17
 6450 09aa 01       		.uleb128 0x1
 6451 09ab 51       		.byte	0x51
 6452 09ac 02       		.uleb128 0x2
 6453 09ad 91       		.byte	0x91
 6454 09ae 60       		.sleb128 -32
 6455 09af 17       		.uleb128 0x17
 6456 09b0 01       		.uleb128 0x1
 6457 09b1 50       		.byte	0x50
 6458 09b2 01       		.uleb128 0x1
 6459 09b3 31       		.byte	0x31
 6460 09b4 00       		.byte	0
 6461 09b5 16       		.uleb128 0x16
 6462 09b6 D6000000 		.4byte	.LVL24
 6463 09ba 362A0000 		.4byte	0x2a36
 6464 09be D3090000 		.4byte	0x9d3
 6465 09c2 17       		.uleb128 0x17
 6466 09c3 01       		.uleb128 0x1
 6467 09c4 52       		.byte	0x52
 6468 09c5 01       		.uleb128 0x1
 6469 09c6 30       		.byte	0x30
 6470 09c7 17       		.uleb128 0x17
 6471 09c8 01       		.uleb128 0x1
 6472 09c9 51       		.byte	0x51
 6473 09ca 02       		.uleb128 0x2
 6474 09cb 91       		.byte	0x91
 6475 09cc 54       		.sleb128 -44
 6476 09cd 17       		.uleb128 0x17
 6477 09ce 01       		.uleb128 0x1
 6478 09cf 50       		.byte	0x50
 6479 09d0 01       		.uleb128 0x1
 6480 09d1 31       		.byte	0x31
 6481 09d2 00       		.byte	0
 6482 09d3 16       		.uleb128 0x16
 6483 09d4 F6000000 		.4byte	.LVL25
 6484 09d8 362A0000 		.4byte	0x2a36
 6485 09dc F1090000 		.4byte	0x9f1
 6486 09e0 17       		.uleb128 0x17
 6487 09e1 01       		.uleb128 0x1
 6488 09e2 52       		.byte	0x52
 6489 09e3 01       		.uleb128 0x1
 6490 09e4 30       		.byte	0x30
ARM GAS  C:\Users\RECEPC~1\AppData\Local\Temp\ccoGpf2X.s 			page 154


 6491 09e5 17       		.uleb128 0x17
 6492 09e6 01       		.uleb128 0x1
 6493 09e7 51       		.byte	0x51
 6494 09e8 02       		.uleb128 0x2
 6495 09e9 91       		.byte	0x91
 6496 09ea 48       		.sleb128 -56
 6497 09eb 17       		.uleb128 0x17
 6498 09ec 01       		.uleb128 0x1
 6499 09ed 50       		.byte	0x50
 6500 09ee 01       		.uleb128 0x1
 6501 09ef 31       		.byte	0x31
 6502 09f0 00       		.byte	0
 6503 09f1 16       		.uleb128 0x16
 6504 09f2 16010000 		.4byte	.LVL26
 6505 09f6 362A0000 		.4byte	0x2a36
 6506 09fa 100A0000 		.4byte	0xa10
 6507 09fe 17       		.uleb128 0x17
 6508 09ff 01       		.uleb128 0x1
 6509 0a00 52       		.byte	0x52
 6510 0a01 01       		.uleb128 0x1
 6511 0a02 30       		.byte	0x30
 6512 0a03 17       		.uleb128 0x17
 6513 0a04 01       		.uleb128 0x1
 6514 0a05 51       		.byte	0x51
 6515 0a06 03       		.uleb128 0x3
 6516 0a07 91       		.byte	0x91
 6517 0a08 BC7F     		.sleb128 -68
 6518 0a0a 17       		.uleb128 0x17
 6519 0a0b 01       		.uleb128 0x1
 6520 0a0c 50       		.byte	0x50
 6521 0a0d 01       		.uleb128 0x1
 6522 0a0e 31       		.byte	0x31
 6523 0a0f 00       		.byte	0
 6524 0a10 16       		.uleb128 0x16
 6525 0a11 26010000 		.4byte	.LVL27
 6526 0a15 362A0000 		.4byte	0x2a36
 6527 0a19 2F0A0000 		.4byte	0xa2f
 6528 0a1d 17       		.uleb128 0x17
 6529 0a1e 01       		.uleb128 0x1
 6530 0a1f 52       		.byte	0x52
 6531 0a20 01       		.uleb128 0x1
 6532 0a21 46       		.byte	0x46
 6533 0a22 17       		.uleb128 0x17
 6534 0a23 01       		.uleb128 0x1
 6535 0a24 51       		.byte	0x51
 6536 0a25 03       		.uleb128 0x3
 6537 0a26 91       		.byte	0x91
 6538 0a27 B07F     		.sleb128 -80
 6539 0a29 17       		.uleb128 0x17
 6540 0a2a 01       		.uleb128 0x1
 6541 0a2b 50       		.byte	0x50
 6542 0a2c 01       		.uleb128 0x1
 6543 0a2d 31       		.byte	0x31
 6544 0a2e 00       		.byte	0
 6545 0a2f 16       		.uleb128 0x16
 6546 0a30 3E010000 		.4byte	.LVL28
 6547 0a34 362A0000 		.4byte	0x2a36
ARM GAS  C:\Users\RECEPC~1\AppData\Local\Temp\ccoGpf2X.s 			page 155


 6548 0a38 4E0A0000 		.4byte	0xa4e
 6549 0a3c 17       		.uleb128 0x17
 6550 0a3d 01       		.uleb128 0x1
 6551 0a3e 52       		.byte	0x52
 6552 0a3f 01       		.uleb128 0x1
 6553 0a40 46       		.byte	0x46
 6554 0a41 17       		.uleb128 0x17
 6555 0a42 01       		.uleb128 0x1
 6556 0a43 51       		.byte	0x51
 6557 0a44 03       		.uleb128 0x3
 6558 0a45 91       		.byte	0x91
 6559 0a46 A47F     		.sleb128 -92
 6560 0a48 17       		.uleb128 0x17
 6561 0a49 01       		.uleb128 0x1
 6562 0a4a 50       		.byte	0x50
 6563 0a4b 01       		.uleb128 0x1
 6564 0a4c 31       		.byte	0x31
 6565 0a4d 00       		.byte	0
 6566 0a4e 16       		.uleb128 0x16
 6567 0a4f 56010000 		.4byte	.LVL29
 6568 0a53 362A0000 		.4byte	0x2a36
 6569 0a57 6D0A0000 		.4byte	0xa6d
 6570 0a5b 17       		.uleb128 0x17
 6571 0a5c 01       		.uleb128 0x1
 6572 0a5d 52       		.byte	0x52
 6573 0a5e 01       		.uleb128 0x1
 6574 0a5f 46       		.byte	0x46
 6575 0a60 17       		.uleb128 0x17
 6576 0a61 01       		.uleb128 0x1
 6577 0a62 51       		.byte	0x51
 6578 0a63 03       		.uleb128 0x3
 6579 0a64 91       		.byte	0x91
 6580 0a65 987F     		.sleb128 -104
 6581 0a67 17       		.uleb128 0x17
 6582 0a68 01       		.uleb128 0x1
 6583 0a69 50       		.byte	0x50
 6584 0a6a 01       		.uleb128 0x1
 6585 0a6b 31       		.byte	0x31
 6586 0a6c 00       		.byte	0
 6587 0a6d 16       		.uleb128 0x16
 6588 0a6e 6E010000 		.4byte	.LVL30
 6589 0a72 362A0000 		.4byte	0x2a36
 6590 0a76 8B0A0000 		.4byte	0xa8b
 6591 0a7a 17       		.uleb128 0x17
 6592 0a7b 01       		.uleb128 0x1
 6593 0a7c 52       		.byte	0x52
 6594 0a7d 01       		.uleb128 0x1
 6595 0a7e 46       		.byte	0x46
 6596 0a7f 17       		.uleb128 0x17
 6597 0a80 01       		.uleb128 0x1
 6598 0a81 51       		.byte	0x51
 6599 0a82 02       		.uleb128 0x2
 6600 0a83 74       		.byte	0x74
 6601 0a84 78       		.sleb128 -8
 6602 0a85 17       		.uleb128 0x17
 6603 0a86 01       		.uleb128 0x1
 6604 0a87 50       		.byte	0x50
ARM GAS  C:\Users\RECEPC~1\AppData\Local\Temp\ccoGpf2X.s 			page 156


 6605 0a88 01       		.uleb128 0x1
 6606 0a89 31       		.byte	0x31
 6607 0a8a 00       		.byte	0
 6608 0a8b 16       		.uleb128 0x16
 6609 0a8c 84010000 		.4byte	.LVL31
 6610 0a90 202A0000 		.4byte	0x2a20
 6611 0a94 A40A0000 		.4byte	0xaa4
 6612 0a98 17       		.uleb128 0x17
 6613 0a99 01       		.uleb128 0x1
 6614 0a9a 51       		.byte	0x51
 6615 0a9b 02       		.uleb128 0x2
 6616 0a9c 08       		.byte	0x8
 6617 0a9d 2E       		.byte	0x2e
 6618 0a9e 17       		.uleb128 0x17
 6619 0a9f 01       		.uleb128 0x1
 6620 0aa0 50       		.byte	0x50
 6621 0aa1 01       		.uleb128 0x1
 6622 0aa2 31       		.byte	0x31
 6623 0aa3 00       		.byte	0
 6624 0aa4 16       		.uleb128 0x16
 6625 0aa5 8E010000 		.4byte	.LVL32
 6626 0aa9 362A0000 		.4byte	0x2a36
 6627 0aad C20A0000 		.4byte	0xac2
 6628 0ab1 17       		.uleb128 0x17
 6629 0ab2 01       		.uleb128 0x1
 6630 0ab3 52       		.byte	0x52
 6631 0ab4 01       		.uleb128 0x1
 6632 0ab5 30       		.byte	0x30
 6633 0ab6 17       		.uleb128 0x17
 6634 0ab7 01       		.uleb128 0x1
 6635 0ab8 51       		.byte	0x51
 6636 0ab9 02       		.uleb128 0x2
 6637 0aba 91       		.byte	0x91
 6638 0abb 6C       		.sleb128 -20
 6639 0abc 17       		.uleb128 0x17
 6640 0abd 01       		.uleb128 0x1
 6641 0abe 50       		.byte	0x50
 6642 0abf 01       		.uleb128 0x1
 6643 0ac0 31       		.byte	0x31
 6644 0ac1 00       		.byte	0
 6645 0ac2 16       		.uleb128 0x16
 6646 0ac3 96010000 		.4byte	.LVL33
 6647 0ac7 572A0000 		.4byte	0x2a57
 6648 0acb D70A0000 		.4byte	0xad7
 6649 0acf 17       		.uleb128 0x17
 6650 0ad0 01       		.uleb128 0x1
 6651 0ad1 50       		.byte	0x50
 6652 0ad2 03       		.uleb128 0x3
 6653 0ad3 0A       		.byte	0xa
 6654 0ad4 2C01     		.2byte	0x12c
 6655 0ad6 00       		.byte	0
 6656 0ad7 16       		.uleb128 0x16
 6657 0ad8 BC010000 		.4byte	.LVL34
 6658 0adc 362A0000 		.4byte	0x2a36
 6659 0ae0 F50A0000 		.4byte	0xaf5
 6660 0ae4 17       		.uleb128 0x17
 6661 0ae5 01       		.uleb128 0x1
ARM GAS  C:\Users\RECEPC~1\AppData\Local\Temp\ccoGpf2X.s 			page 157


 6662 0ae6 52       		.byte	0x52
 6663 0ae7 01       		.uleb128 0x1
 6664 0ae8 30       		.byte	0x30
 6665 0ae9 17       		.uleb128 0x17
 6666 0aea 01       		.uleb128 0x1
 6667 0aeb 51       		.byte	0x51
 6668 0aec 02       		.uleb128 0x2
 6669 0aed 91       		.byte	0x91
 6670 0aee 60       		.sleb128 -32
 6671 0aef 17       		.uleb128 0x17
 6672 0af0 01       		.uleb128 0x1
 6673 0af1 50       		.byte	0x50
 6674 0af2 01       		.uleb128 0x1
 6675 0af3 31       		.byte	0x31
 6676 0af4 00       		.byte	0
 6677 0af5 16       		.uleb128 0x16
 6678 0af6 E4010000 		.4byte	.LVL35
 6679 0afa 362A0000 		.4byte	0x2a36
 6680 0afe 130B0000 		.4byte	0xb13
 6681 0b02 17       		.uleb128 0x17
 6682 0b03 01       		.uleb128 0x1
 6683 0b04 52       		.byte	0x52
 6684 0b05 01       		.uleb128 0x1
 6685 0b06 30       		.byte	0x30
 6686 0b07 17       		.uleb128 0x17
 6687 0b08 01       		.uleb128 0x1
 6688 0b09 51       		.byte	0x51
 6689 0b0a 02       		.uleb128 0x2
 6690 0b0b 91       		.byte	0x91
 6691 0b0c 54       		.sleb128 -44
 6692 0b0d 17       		.uleb128 0x17
 6693 0b0e 01       		.uleb128 0x1
 6694 0b0f 50       		.byte	0x50
 6695 0b10 01       		.uleb128 0x1
 6696 0b11 31       		.byte	0x31
 6697 0b12 00       		.byte	0
 6698 0b13 16       		.uleb128 0x16
 6699 0b14 0C020000 		.4byte	.LVL36
 6700 0b18 362A0000 		.4byte	0x2a36
 6701 0b1c 310B0000 		.4byte	0xb31
 6702 0b20 17       		.uleb128 0x17
 6703 0b21 01       		.uleb128 0x1
 6704 0b22 52       		.byte	0x52
 6705 0b23 01       		.uleb128 0x1
 6706 0b24 30       		.byte	0x30
 6707 0b25 17       		.uleb128 0x17
 6708 0b26 01       		.uleb128 0x1
 6709 0b27 51       		.byte	0x51
 6710 0b28 02       		.uleb128 0x2
 6711 0b29 91       		.byte	0x91
 6712 0b2a 48       		.sleb128 -56
 6713 0b2b 17       		.uleb128 0x17
 6714 0b2c 01       		.uleb128 0x1
 6715 0b2d 50       		.byte	0x50
 6716 0b2e 01       		.uleb128 0x1
 6717 0b2f 31       		.byte	0x31
 6718 0b30 00       		.byte	0
ARM GAS  C:\Users\RECEPC~1\AppData\Local\Temp\ccoGpf2X.s 			page 158


 6719 0b31 16       		.uleb128 0x16
 6720 0b32 34020000 		.4byte	.LVL37
 6721 0b36 362A0000 		.4byte	0x2a36
 6722 0b3a 500B0000 		.4byte	0xb50
 6723 0b3e 17       		.uleb128 0x17
 6724 0b3f 01       		.uleb128 0x1
 6725 0b40 52       		.byte	0x52
 6726 0b41 01       		.uleb128 0x1
 6727 0b42 30       		.byte	0x30
 6728 0b43 17       		.uleb128 0x17
 6729 0b44 01       		.uleb128 0x1
 6730 0b45 51       		.byte	0x51
 6731 0b46 03       		.uleb128 0x3
 6732 0b47 91       		.byte	0x91
 6733 0b48 BC7F     		.sleb128 -68
 6734 0b4a 17       		.uleb128 0x17
 6735 0b4b 01       		.uleb128 0x1
 6736 0b4c 50       		.byte	0x50
 6737 0b4d 01       		.uleb128 0x1
 6738 0b4e 31       		.byte	0x31
 6739 0b4f 00       		.byte	0
 6740 0b50 16       		.uleb128 0x16
 6741 0b51 46020000 		.4byte	.LVL38
 6742 0b55 362A0000 		.4byte	0x2a36
 6743 0b59 6F0B0000 		.4byte	0xb6f
 6744 0b5d 17       		.uleb128 0x17
 6745 0b5e 01       		.uleb128 0x1
 6746 0b5f 52       		.byte	0x52
 6747 0b60 01       		.uleb128 0x1
 6748 0b61 46       		.byte	0x46
 6749 0b62 17       		.uleb128 0x17
 6750 0b63 01       		.uleb128 0x1
 6751 0b64 51       		.byte	0x51
 6752 0b65 03       		.uleb128 0x3
 6753 0b66 91       		.byte	0x91
 6754 0b67 A47F     		.sleb128 -92
 6755 0b69 17       		.uleb128 0x17
 6756 0b6a 01       		.uleb128 0x1
 6757 0b6b 50       		.byte	0x50
 6758 0b6c 01       		.uleb128 0x1
 6759 0b6d 31       		.byte	0x31
 6760 0b6e 00       		.byte	0
 6761 0b6f 16       		.uleb128 0x16
 6762 0b70 58020000 		.4byte	.LVL39
 6763 0b74 362A0000 		.4byte	0x2a36
 6764 0b78 8E0B0000 		.4byte	0xb8e
 6765 0b7c 17       		.uleb128 0x17
 6766 0b7d 01       		.uleb128 0x1
 6767 0b7e 52       		.byte	0x52
 6768 0b7f 01       		.uleb128 0x1
 6769 0b80 46       		.byte	0x46
 6770 0b81 17       		.uleb128 0x17
 6771 0b82 01       		.uleb128 0x1
 6772 0b83 51       		.byte	0x51
 6773 0b84 03       		.uleb128 0x3
 6774 0b85 91       		.byte	0x91
 6775 0b86 987F     		.sleb128 -104
ARM GAS  C:\Users\RECEPC~1\AppData\Local\Temp\ccoGpf2X.s 			page 159


 6776 0b88 17       		.uleb128 0x17
 6777 0b89 01       		.uleb128 0x1
 6778 0b8a 50       		.byte	0x50
 6779 0b8b 01       		.uleb128 0x1
 6780 0b8c 31       		.byte	0x31
 6781 0b8d 00       		.byte	0
 6782 0b8e 18       		.uleb128 0x18
 6783 0b8f 68020000 		.4byte	.LVL40
 6784 0b93 202A0000 		.4byte	0x2a20
 6785 0b97 17       		.uleb128 0x17
 6786 0b98 01       		.uleb128 0x1
 6787 0b99 51       		.byte	0x51
 6788 0b9a 01       		.uleb128 0x1
 6789 0b9b 30       		.byte	0x30
 6790 0b9c 17       		.uleb128 0x17
 6791 0b9d 01       		.uleb128 0x1
 6792 0b9e 50       		.byte	0x50
 6793 0b9f 01       		.uleb128 0x1
 6794 0ba0 31       		.byte	0x31
 6795 0ba1 00       		.byte	0
 6796 0ba2 00       		.byte	0
 6797 0ba3 0A       		.uleb128 0xa
 6798 0ba4 8C000000 		.4byte	0x8c
 6799 0ba8 B30B0000 		.4byte	0xbb3
 6800 0bac 0B       		.uleb128 0xb
 6801 0bad 27010000 		.4byte	0x127
 6802 0bb1 09       		.byte	0x9
 6803 0bb2 00       		.byte	0
 6804 0bb3 15       		.uleb128 0x15
 6805 0bb4 87070000 		.4byte	.LASF159
 6806 0bb8 01       		.byte	0x1
 6807 0bb9 B0       		.byte	0xb0
 6808 0bba 00000000 		.4byte	.LFB67
 6809 0bbe 50000000 		.4byte	.LFE67-.LFB67
 6810 0bc2 01       		.uleb128 0x1
 6811 0bc3 9C       		.byte	0x9c
 6812 0bc4 2F0C0000 		.4byte	0xc2f
 6813 0bc8 16       		.uleb128 0x16
 6814 0bc9 12000000 		.4byte	.LVL41
 6815 0bcd 202A0000 		.4byte	0x2a20
 6816 0bd1 E00B0000 		.4byte	0xbe0
 6817 0bd5 17       		.uleb128 0x17
 6818 0bd6 01       		.uleb128 0x1
 6819 0bd7 51       		.byte	0x51
 6820 0bd8 01       		.uleb128 0x1
 6821 0bd9 31       		.byte	0x31
 6822 0bda 17       		.uleb128 0x17
 6823 0bdb 01       		.uleb128 0x1
 6824 0bdc 50       		.byte	0x50
 6825 0bdd 01       		.uleb128 0x1
 6826 0bde 32       		.byte	0x32
 6827 0bdf 00       		.byte	0
 6828 0be0 16       		.uleb128 0x16
 6829 0be1 28000000 		.4byte	.LVL42
 6830 0be5 202A0000 		.4byte	0x2a20
 6831 0be9 F90B0000 		.4byte	0xbf9
 6832 0bed 17       		.uleb128 0x17
ARM GAS  C:\Users\RECEPC~1\AppData\Local\Temp\ccoGpf2X.s 			page 160


 6833 0bee 01       		.uleb128 0x1
 6834 0bef 51       		.byte	0x51
 6835 0bf0 02       		.uleb128 0x2
 6836 0bf1 08       		.byte	0x8
 6837 0bf2 2E       		.byte	0x2e
 6838 0bf3 17       		.uleb128 0x17
 6839 0bf4 01       		.uleb128 0x1
 6840 0bf5 50       		.byte	0x50
 6841 0bf6 01       		.uleb128 0x1
 6842 0bf7 32       		.byte	0x32
 6843 0bf8 00       		.byte	0
 6844 0bf9 16       		.uleb128 0x16
 6845 0bfa 38000000 		.4byte	.LVL43
 6846 0bfe 202A0000 		.4byte	0x2a20
 6847 0c02 110C0000 		.4byte	0xc11
 6848 0c06 17       		.uleb128 0x17
 6849 0c07 01       		.uleb128 0x1
 6850 0c08 51       		.byte	0x51
 6851 0c09 01       		.uleb128 0x1
 6852 0c0a 30       		.byte	0x30
 6853 0c0b 17       		.uleb128 0x17
 6854 0c0c 01       		.uleb128 0x1
 6855 0c0d 50       		.byte	0x50
 6856 0c0e 01       		.uleb128 0x1
 6857 0c0f 32       		.byte	0x32
 6858 0c10 00       		.byte	0
 6859 0c11 18       		.uleb128 0x18
 6860 0c12 42000000 		.4byte	.LVL44
 6861 0c16 362A0000 		.4byte	0x2a36
 6862 0c1a 17       		.uleb128 0x17
 6863 0c1b 01       		.uleb128 0x1
 6864 0c1c 52       		.byte	0x52
 6865 0c1d 01       		.uleb128 0x1
 6866 0c1e 30       		.byte	0x30
 6867 0c1f 17       		.uleb128 0x17
 6868 0c20 01       		.uleb128 0x1
 6869 0c21 51       		.byte	0x51
 6870 0c22 05       		.uleb128 0x5
 6871 0c23 03       		.byte	0x3
 6872 0c24 00000000 		.4byte	.LANCHOR1
 6873 0c28 17       		.uleb128 0x17
 6874 0c29 01       		.uleb128 0x1
 6875 0c2a 50       		.byte	0x50
 6876 0c2b 01       		.uleb128 0x1
 6877 0c2c 32       		.byte	0x32
 6878 0c2d 00       		.byte	0
 6879 0c2e 00       		.byte	0
 6880 0c2f 15       		.uleb128 0x15
 6881 0c30 32080000 		.4byte	.LASF160
 6882 0c34 01       		.byte	0x1
 6883 0c35 C7       		.byte	0xc7
 6884 0c36 00000000 		.4byte	.LFB68
 6885 0c3a C4000000 		.4byte	.LFE68-.LFB68
 6886 0c3e 01       		.uleb128 0x1
 6887 0c3f 9C       		.byte	0x9c
 6888 0c40 5C0D0000 		.4byte	0xd5c
 6889 0c44 14       		.uleb128 0x14
ARM GAS  C:\Users\RECEPC~1\AppData\Local\Temp\ccoGpf2X.s 			page 161


 6890 0c45 06000000 		.4byte	.LVL45
 6891 0c49 682A0000 		.4byte	0x2a68
 6892 0c4d 14       		.uleb128 0x14
 6893 0c4e 16000000 		.4byte	.LVL46
 6894 0c52 732A0000 		.4byte	0x2a73
 6895 0c56 14       		.uleb128 0x14
 6896 0c57 1A000000 		.4byte	.LVL47
 6897 0c5b 882A0000 		.4byte	0x2a88
 6898 0c5f 16       		.uleb128 0x16
 6899 0c60 24000000 		.4byte	.LVL48
 6900 0c64 202A0000 		.4byte	0x2a20
 6901 0c68 770C0000 		.4byte	0xc77
 6902 0c6c 17       		.uleb128 0x17
 6903 0c6d 01       		.uleb128 0x1
 6904 0c6e 51       		.byte	0x51
 6905 0c6f 01       		.uleb128 0x1
 6906 0c70 30       		.byte	0x30
 6907 0c71 17       		.uleb128 0x17
 6908 0c72 01       		.uleb128 0x1
 6909 0c73 50       		.byte	0x50
 6910 0c74 01       		.uleb128 0x1
 6911 0c75 31       		.byte	0x31
 6912 0c76 00       		.byte	0
 6913 0c77 16       		.uleb128 0x16
 6914 0c78 2C000000 		.4byte	.LVL49
 6915 0c7c 202A0000 		.4byte	0x2a20
 6916 0c80 8F0C0000 		.4byte	0xc8f
 6917 0c84 17       		.uleb128 0x17
 6918 0c85 01       		.uleb128 0x1
 6919 0c86 51       		.byte	0x51
 6920 0c87 01       		.uleb128 0x1
 6921 0c88 30       		.byte	0x30
 6922 0c89 17       		.uleb128 0x17
 6923 0c8a 01       		.uleb128 0x1
 6924 0c8b 50       		.byte	0x50
 6925 0c8c 01       		.uleb128 0x1
 6926 0c8d 32       		.byte	0x32
 6927 0c8e 00       		.byte	0
 6928 0c8f 14       		.uleb128 0x14
 6929 0c90 3C000000 		.4byte	.LVL50
 6930 0c94 732A0000 		.4byte	0x2a73
 6931 0c98 14       		.uleb128 0x14
 6932 0c99 40000000 		.4byte	.LVL51
 6933 0c9d 882A0000 		.4byte	0x2a88
 6934 0ca1 16       		.uleb128 0x16
 6935 0ca2 4A000000 		.4byte	.LVL52
 6936 0ca6 202A0000 		.4byte	0x2a20
 6937 0caa B90C0000 		.4byte	0xcb9
 6938 0cae 17       		.uleb128 0x17
 6939 0caf 01       		.uleb128 0x1
 6940 0cb0 51       		.byte	0x51
 6941 0cb1 01       		.uleb128 0x1
 6942 0cb2 30       		.byte	0x30
 6943 0cb3 17       		.uleb128 0x17
 6944 0cb4 01       		.uleb128 0x1
 6945 0cb5 50       		.byte	0x50
 6946 0cb6 01       		.uleb128 0x1
ARM GAS  C:\Users\RECEPC~1\AppData\Local\Temp\ccoGpf2X.s 			page 162


 6947 0cb7 31       		.byte	0x31
 6948 0cb8 00       		.byte	0
 6949 0cb9 16       		.uleb128 0x16
 6950 0cba 52000000 		.4byte	.LVL53
 6951 0cbe 202A0000 		.4byte	0x2a20
 6952 0cc2 D10C0000 		.4byte	0xcd1
 6953 0cc6 17       		.uleb128 0x17
 6954 0cc7 01       		.uleb128 0x1
 6955 0cc8 51       		.byte	0x51
 6956 0cc9 01       		.uleb128 0x1
 6957 0cca 30       		.byte	0x30
 6958 0ccb 17       		.uleb128 0x17
 6959 0ccc 01       		.uleb128 0x1
 6960 0ccd 50       		.byte	0x50
 6961 0cce 01       		.uleb128 0x1
 6962 0ccf 32       		.byte	0x32
 6963 0cd0 00       		.byte	0
 6964 0cd1 14       		.uleb128 0x14
 6965 0cd2 60000000 		.4byte	.LVL54
 6966 0cd6 732A0000 		.4byte	0x2a73
 6967 0cda 14       		.uleb128 0x14
 6968 0cdb 64000000 		.4byte	.LVL55
 6969 0cdf 882A0000 		.4byte	0x2a88
 6970 0ce3 14       		.uleb128 0x14
 6971 0ce4 70000000 		.4byte	.LVL56
 6972 0ce8 732A0000 		.4byte	0x2a73
 6973 0cec 14       		.uleb128 0x14
 6974 0ced 74000000 		.4byte	.LVL57
 6975 0cf1 882A0000 		.4byte	0x2a88
 6976 0cf5 14       		.uleb128 0x14
 6977 0cf6 7A000000 		.4byte	.LVL58
 6978 0cfa 682A0000 		.4byte	0x2a68
 6979 0cfe 14       		.uleb128 0x14
 6980 0cff 86000000 		.4byte	.LVL59
 6981 0d03 732A0000 		.4byte	0x2a73
 6982 0d07 14       		.uleb128 0x14
 6983 0d08 94000000 		.4byte	.LVL60
 6984 0d0c 732A0000 		.4byte	0x2a73
 6985 0d10 14       		.uleb128 0x14
 6986 0d11 A0000000 		.4byte	.LVL61
 6987 0d15 A42A0000 		.4byte	0x2aa4
 6988 0d19 14       		.uleb128 0x14
 6989 0d1a A4000000 		.4byte	.LVL62
 6990 0d1e AC070000 		.4byte	0x7ac
 6991 0d22 16       		.uleb128 0x16
 6992 0d23 AE000000 		.4byte	.LVL63
 6993 0d27 202A0000 		.4byte	0x2a20
 6994 0d2b 3A0D0000 		.4byte	0xd3a
 6995 0d2f 17       		.uleb128 0x17
 6996 0d30 01       		.uleb128 0x1
 6997 0d31 51       		.byte	0x51
 6998 0d32 01       		.uleb128 0x1
 6999 0d33 39       		.byte	0x39
 7000 0d34 17       		.uleb128 0x17
 7001 0d35 01       		.uleb128 0x1
 7002 0d36 50       		.byte	0x50
 7003 0d37 01       		.uleb128 0x1
ARM GAS  C:\Users\RECEPC~1\AppData\Local\Temp\ccoGpf2X.s 			page 163


 7004 0d38 31       		.byte	0x31
 7005 0d39 00       		.byte	0
 7006 0d3a 16       		.uleb128 0x16
 7007 0d3b B6000000 		.4byte	.LVL64
 7008 0d3f 202A0000 		.4byte	0x2a20
 7009 0d43 520D0000 		.4byte	0xd52
 7010 0d47 17       		.uleb128 0x17
 7011 0d48 01       		.uleb128 0x1
 7012 0d49 51       		.byte	0x51
 7013 0d4a 01       		.uleb128 0x1
 7014 0d4b 39       		.byte	0x39
 7015 0d4c 17       		.uleb128 0x17
 7016 0d4d 01       		.uleb128 0x1
 7017 0d4e 50       		.byte	0x50
 7018 0d4f 01       		.uleb128 0x1
 7019 0d50 32       		.byte	0x32
 7020 0d51 00       		.byte	0
 7021 0d52 14       		.uleb128 0x14
 7022 0d53 BA000000 		.4byte	.LVL65
 7023 0d57 2F0C0000 		.4byte	0xc2f
 7024 0d5b 00       		.byte	0
 7025 0d5c 15       		.uleb128 0x15
 7026 0d5d 03110000 		.4byte	.LASF161
 7027 0d61 01       		.byte	0x1
 7028 0d62 EB       		.byte	0xeb
 7029 0d63 00000000 		.4byte	.LFB69
 7030 0d67 AC000000 		.4byte	.LFE69-.LFB69
 7031 0d6b 01       		.uleb128 0x1
 7032 0d6c 9C       		.byte	0x9c
 7033 0d6d EB0E0000 		.4byte	0xeeb
 7034 0d71 19       		.uleb128 0x19
 7035 0d72 86030000 		.4byte	.LASF162
 7036 0d76 01       		.byte	0x1
 7037 0d77 EC       		.byte	0xec
 7038 0d78 EB0E0000 		.4byte	0xeeb
 7039 0d7c 02       		.uleb128 0x2
 7040 0d7d 91       		.byte	0x91
 7041 0d7e 5C       		.sleb128 -36
 7042 0d7f 1A       		.uleb128 0x1a
 7043 0d80 7800     		.ascii	"x\000"
 7044 0d82 01       		.byte	0x1
 7045 0d83 ED       		.byte	0xed
 7046 0d84 AD000000 		.4byte	0xad
 7047 0d88 00000000 		.4byte	.LLST0
 7048 0d8c 16       		.uleb128 0x16
 7049 0d8d 22000000 		.4byte	.LVL68
 7050 0d91 B92A0000 		.4byte	0x2ab9
 7051 0d95 AD0D0000 		.4byte	0xdad
 7052 0d99 17       		.uleb128 0x17
 7053 0d9a 01       		.uleb128 0x1
 7054 0d9b 51       		.byte	0x51
 7055 0d9c 0A       		.uleb128 0xa
 7056 0d9d 91       		.byte	0x91
 7057 0d9e 00       		.sleb128 0
 7058 0d9f 74       		.byte	0x74
 7059 0da0 00       		.sleb128 0
 7060 0da1 22       		.byte	0x22
ARM GAS  C:\Users\RECEPC~1\AppData\Local\Temp\ccoGpf2X.s 			page 164


 7061 0da2 08       		.byte	0x8
 7062 0da3 24       		.byte	0x24
 7063 0da4 1C       		.byte	0x1c
 7064 0da5 94       		.byte	0x94
 7065 0da6 01       		.byte	0x1
 7066 0da7 17       		.uleb128 0x17
 7067 0da8 01       		.uleb128 0x1
 7068 0da9 50       		.byte	0x50
 7069 0daa 01       		.uleb128 0x1
 7070 0dab 31       		.byte	0x31
 7071 0dac 00       		.byte	0
 7072 0dad 16       		.uleb128 0x16
 7073 0dae 32000000 		.4byte	.LVL71
 7074 0db2 B92A0000 		.4byte	0x2ab9
 7075 0db6 C50D0000 		.4byte	0xdc5
 7076 0dba 17       		.uleb128 0x17
 7077 0dbb 01       		.uleb128 0x1
 7078 0dbc 51       		.byte	0x51
 7079 0dbd 01       		.uleb128 0x1
 7080 0dbe 3A       		.byte	0x3a
 7081 0dbf 17       		.uleb128 0x17
 7082 0dc0 01       		.uleb128 0x1
 7083 0dc1 50       		.byte	0x50
 7084 0dc2 01       		.uleb128 0x1
 7085 0dc3 31       		.byte	0x31
 7086 0dc4 00       		.byte	0
 7087 0dc5 16       		.uleb128 0x16
 7088 0dc6 3A000000 		.4byte	.LVL72
 7089 0dca B92A0000 		.4byte	0x2ab9
 7090 0dce DD0D0000 		.4byte	0xddd
 7091 0dd2 17       		.uleb128 0x17
 7092 0dd3 01       		.uleb128 0x1
 7093 0dd4 51       		.byte	0x51
 7094 0dd5 01       		.uleb128 0x1
 7095 0dd6 3A       		.byte	0x3a
 7096 0dd7 17       		.uleb128 0x17
 7097 0dd8 01       		.uleb128 0x1
 7098 0dd9 50       		.byte	0x50
 7099 0dda 01       		.uleb128 0x1
 7100 0ddb 31       		.byte	0x31
 7101 0ddc 00       		.byte	0
 7102 0ddd 16       		.uleb128 0x16
 7103 0dde 42000000 		.4byte	.LVL73
 7104 0de2 B92A0000 		.4byte	0x2ab9
 7105 0de6 F50D0000 		.4byte	0xdf5
 7106 0dea 17       		.uleb128 0x17
 7107 0deb 01       		.uleb128 0x1
 7108 0dec 51       		.byte	0x51
 7109 0ded 01       		.uleb128 0x1
 7110 0dee 3A       		.byte	0x3a
 7111 0def 17       		.uleb128 0x17
 7112 0df0 01       		.uleb128 0x1
 7113 0df1 50       		.byte	0x50
 7114 0df2 01       		.uleb128 0x1
 7115 0df3 31       		.byte	0x31
 7116 0df4 00       		.byte	0
 7117 0df5 16       		.uleb128 0x16
ARM GAS  C:\Users\RECEPC~1\AppData\Local\Temp\ccoGpf2X.s 			page 165


 7118 0df6 4A000000 		.4byte	.LVL74
 7119 0dfa B92A0000 		.4byte	0x2ab9
 7120 0dfe 0D0E0000 		.4byte	0xe0d
 7121 0e02 17       		.uleb128 0x17
 7122 0e03 01       		.uleb128 0x1
 7123 0e04 51       		.byte	0x51
 7124 0e05 01       		.uleb128 0x1
 7125 0e06 3A       		.byte	0x3a
 7126 0e07 17       		.uleb128 0x17
 7127 0e08 01       		.uleb128 0x1
 7128 0e09 50       		.byte	0x50
 7129 0e0a 01       		.uleb128 0x1
 7130 0e0b 31       		.byte	0x31
 7131 0e0c 00       		.byte	0
 7132 0e0d 16       		.uleb128 0x16
 7133 0e0e 52000000 		.4byte	.LVL75
 7134 0e12 B92A0000 		.4byte	0x2ab9
 7135 0e16 250E0000 		.4byte	0xe25
 7136 0e1a 17       		.uleb128 0x17
 7137 0e1b 01       		.uleb128 0x1
 7138 0e1c 51       		.byte	0x51
 7139 0e1d 01       		.uleb128 0x1
 7140 0e1e 3A       		.byte	0x3a
 7141 0e1f 17       		.uleb128 0x17
 7142 0e20 01       		.uleb128 0x1
 7143 0e21 50       		.byte	0x50
 7144 0e22 01       		.uleb128 0x1
 7145 0e23 31       		.byte	0x31
 7146 0e24 00       		.byte	0
 7147 0e25 16       		.uleb128 0x16
 7148 0e26 5A000000 		.4byte	.LVL76
 7149 0e2a B92A0000 		.4byte	0x2ab9
 7150 0e2e 3D0E0000 		.4byte	0xe3d
 7151 0e32 17       		.uleb128 0x17
 7152 0e33 01       		.uleb128 0x1
 7153 0e34 51       		.byte	0x51
 7154 0e35 01       		.uleb128 0x1
 7155 0e36 3A       		.byte	0x3a
 7156 0e37 17       		.uleb128 0x17
 7157 0e38 01       		.uleb128 0x1
 7158 0e39 50       		.byte	0x50
 7159 0e3a 01       		.uleb128 0x1
 7160 0e3b 31       		.byte	0x31
 7161 0e3c 00       		.byte	0
 7162 0e3d 16       		.uleb128 0x16
 7163 0e3e 6C000000 		.4byte	.LVL78
 7164 0e42 B92A0000 		.4byte	0x2ab9
 7165 0e46 5E0E0000 		.4byte	0xe5e
 7166 0e4a 17       		.uleb128 0x17
 7167 0e4b 01       		.uleb128 0x1
 7168 0e4c 51       		.byte	0x51
 7169 0e4d 0A       		.uleb128 0xa
 7170 0e4e 91       		.byte	0x91
 7171 0e4f 00       		.sleb128 0
 7172 0e50 74       		.byte	0x74
 7173 0e51 00       		.sleb128 0
 7174 0e52 22       		.byte	0x22
ARM GAS  C:\Users\RECEPC~1\AppData\Local\Temp\ccoGpf2X.s 			page 166


 7175 0e53 08       		.byte	0x8
 7176 0e54 24       		.byte	0x24
 7177 0e55 1C       		.byte	0x1c
 7178 0e56 94       		.byte	0x94
 7179 0e57 01       		.byte	0x1
 7180 0e58 17       		.uleb128 0x17
 7181 0e59 01       		.uleb128 0x1
 7182 0e5a 50       		.byte	0x50
 7183 0e5b 01       		.uleb128 0x1
 7184 0e5c 32       		.byte	0x32
 7185 0e5d 00       		.byte	0
 7186 0e5e 16       		.uleb128 0x16
 7187 0e5f 7C000000 		.4byte	.LVL81
 7188 0e63 B92A0000 		.4byte	0x2ab9
 7189 0e67 760E0000 		.4byte	0xe76
 7190 0e6b 17       		.uleb128 0x17
 7191 0e6c 01       		.uleb128 0x1
 7192 0e6d 51       		.byte	0x51
 7193 0e6e 01       		.uleb128 0x1
 7194 0e6f 3A       		.byte	0x3a
 7195 0e70 17       		.uleb128 0x17
 7196 0e71 01       		.uleb128 0x1
 7197 0e72 50       		.byte	0x50
 7198 0e73 01       		.uleb128 0x1
 7199 0e74 32       		.byte	0x32
 7200 0e75 00       		.byte	0
 7201 0e76 16       		.uleb128 0x16
 7202 0e77 84000000 		.4byte	.LVL82
 7203 0e7b B92A0000 		.4byte	0x2ab9
 7204 0e7f 8E0E0000 		.4byte	0xe8e
 7205 0e83 17       		.uleb128 0x17
 7206 0e84 01       		.uleb128 0x1
 7207 0e85 51       		.byte	0x51
 7208 0e86 01       		.uleb128 0x1
 7209 0e87 3A       		.byte	0x3a
 7210 0e88 17       		.uleb128 0x17
 7211 0e89 01       		.uleb128 0x1
 7212 0e8a 50       		.byte	0x50
 7213 0e8b 01       		.uleb128 0x1
 7214 0e8c 32       		.byte	0x32
 7215 0e8d 00       		.byte	0
 7216 0e8e 16       		.uleb128 0x16
 7217 0e8f 8C000000 		.4byte	.LVL83
 7218 0e93 B92A0000 		.4byte	0x2ab9
 7219 0e97 A60E0000 		.4byte	0xea6
 7220 0e9b 17       		.uleb128 0x17
 7221 0e9c 01       		.uleb128 0x1
 7222 0e9d 51       		.byte	0x51
 7223 0e9e 01       		.uleb128 0x1
 7224 0e9f 3A       		.byte	0x3a
 7225 0ea0 17       		.uleb128 0x17
 7226 0ea1 01       		.uleb128 0x1
 7227 0ea2 50       		.byte	0x50
 7228 0ea3 01       		.uleb128 0x1
 7229 0ea4 32       		.byte	0x32
 7230 0ea5 00       		.byte	0
 7231 0ea6 16       		.uleb128 0x16
ARM GAS  C:\Users\RECEPC~1\AppData\Local\Temp\ccoGpf2X.s 			page 167


 7232 0ea7 94000000 		.4byte	.LVL84
 7233 0eab B92A0000 		.4byte	0x2ab9
 7234 0eaf BE0E0000 		.4byte	0xebe
 7235 0eb3 17       		.uleb128 0x17
 7236 0eb4 01       		.uleb128 0x1
 7237 0eb5 51       		.byte	0x51
 7238 0eb6 01       		.uleb128 0x1
 7239 0eb7 3A       		.byte	0x3a
 7240 0eb8 17       		.uleb128 0x17
 7241 0eb9 01       		.uleb128 0x1
 7242 0eba 50       		.byte	0x50
 7243 0ebb 01       		.uleb128 0x1
 7244 0ebc 32       		.byte	0x32
 7245 0ebd 00       		.byte	0
 7246 0ebe 16       		.uleb128 0x16
 7247 0ebf 9C000000 		.4byte	.LVL85
 7248 0ec3 B92A0000 		.4byte	0x2ab9
 7249 0ec7 D60E0000 		.4byte	0xed6
 7250 0ecb 17       		.uleb128 0x17
 7251 0ecc 01       		.uleb128 0x1
 7252 0ecd 51       		.byte	0x51
 7253 0ece 01       		.uleb128 0x1
 7254 0ecf 3A       		.byte	0x3a
 7255 0ed0 17       		.uleb128 0x17
 7256 0ed1 01       		.uleb128 0x1
 7257 0ed2 50       		.byte	0x50
 7258 0ed3 01       		.uleb128 0x1
 7259 0ed4 32       		.byte	0x32
 7260 0ed5 00       		.byte	0
 7261 0ed6 18       		.uleb128 0x18
 7262 0ed7 A4000000 		.4byte	.LVL86
 7263 0edb B92A0000 		.4byte	0x2ab9
 7264 0edf 17       		.uleb128 0x17
 7265 0ee0 01       		.uleb128 0x1
 7266 0ee1 51       		.byte	0x51
 7267 0ee2 01       		.uleb128 0x1
 7268 0ee3 3A       		.byte	0x3a
 7269 0ee4 17       		.uleb128 0x17
 7270 0ee5 01       		.uleb128 0x1
 7271 0ee6 50       		.byte	0x50
 7272 0ee7 01       		.uleb128 0x1
 7273 0ee8 32       		.byte	0x32
 7274 0ee9 00       		.byte	0
 7275 0eea 00       		.byte	0
 7276 0eeb 0A       		.uleb128 0xa
 7277 0eec AD000000 		.4byte	0xad
 7278 0ef0 FB0E0000 		.4byte	0xefb
 7279 0ef4 0B       		.uleb128 0xb
 7280 0ef5 27010000 		.4byte	0x127
 7281 0ef9 10       		.byte	0x10
 7282 0efa 00       		.byte	0
 7283 0efb 13       		.uleb128 0x13
 7284 0efc 75000000 		.4byte	.LASF164
 7285 0f00 01       		.byte	0x1
 7286 0f01 0C01     		.2byte	0x10c
 7287 0f03 00000000 		.4byte	.LFB70
 7288 0f07 04010000 		.4byte	.LFE70-.LFB70
ARM GAS  C:\Users\RECEPC~1\AppData\Local\Temp\ccoGpf2X.s 			page 168


 7289 0f0b 01       		.uleb128 0x1
 7290 0f0c 9C       		.byte	0x9c
 7291 0f0d 03100000 		.4byte	0x1003
 7292 0f11 1B       		.uleb128 0x1b
 7293 0f12 7800     		.ascii	"x\000"
 7294 0f14 01       		.byte	0x1
 7295 0f15 0D01     		.2byte	0x10d
 7296 0f17 AD000000 		.4byte	0xad
 7297 0f1b 4C000000 		.4byte	.LLST1
 7298 0f1f 14       		.uleb128 0x14
 7299 0f20 0A000000 		.4byte	.LVL88
 7300 0f24 732A0000 		.4byte	0x2a73
 7301 0f28 14       		.uleb128 0x14
 7302 0f29 0E000000 		.4byte	.LVL89
 7303 0f2d 882A0000 		.4byte	0x2a88
 7304 0f31 14       		.uleb128 0x14
 7305 0f32 1A000000 		.4byte	.LVL90
 7306 0f36 732A0000 		.4byte	0x2a73
 7307 0f3a 14       		.uleb128 0x14
 7308 0f3b 1E000000 		.4byte	.LVL91
 7309 0f3f 882A0000 		.4byte	0x2a88
 7310 0f43 14       		.uleb128 0x14
 7311 0f44 46000000 		.4byte	.LVL98
 7312 0f48 732A0000 		.4byte	0x2a73
 7313 0f4c 14       		.uleb128 0x14
 7314 0f4d 52000000 		.4byte	.LVL99
 7315 0f51 732A0000 		.4byte	0x2a73
 7316 0f55 14       		.uleb128 0x14
 7317 0f56 64000000 		.4byte	.LVL100
 7318 0f5a 732A0000 		.4byte	0x2a73
 7319 0f5e 14       		.uleb128 0x14
 7320 0f5f 70000000 		.4byte	.LVL101
 7321 0f63 732A0000 		.4byte	0x2a73
 7322 0f67 14       		.uleb128 0x14
 7323 0f68 7A000000 		.4byte	.LVL102
 7324 0f6c 732A0000 		.4byte	0x2a73
 7325 0f70 14       		.uleb128 0x14
 7326 0f71 84000000 		.4byte	.LVL103
 7327 0f75 732A0000 		.4byte	0x2a73
 7328 0f79 14       		.uleb128 0x14
 7329 0f7a 90000000 		.4byte	.LVL104
 7330 0f7e 2F0C0000 		.4byte	0xc2f
 7331 0f82 14       		.uleb128 0x14
 7332 0f83 98000000 		.4byte	.LVL105
 7333 0f87 732A0000 		.4byte	0x2a73
 7334 0f8b 14       		.uleb128 0x14
 7335 0f8c 9C000000 		.4byte	.LVL106
 7336 0f90 882A0000 		.4byte	0x2a88
 7337 0f94 16       		.uleb128 0x16
 7338 0f95 A6000000 		.4byte	.LVL107
 7339 0f99 202A0000 		.4byte	0x2a20
 7340 0f9d AC0F0000 		.4byte	0xfac
 7341 0fa1 17       		.uleb128 0x17
 7342 0fa2 01       		.uleb128 0x1
 7343 0fa3 51       		.byte	0x51
 7344 0fa4 01       		.uleb128 0x1
 7345 0fa5 30       		.byte	0x30
ARM GAS  C:\Users\RECEPC~1\AppData\Local\Temp\ccoGpf2X.s 			page 169


 7346 0fa6 17       		.uleb128 0x17
 7347 0fa7 01       		.uleb128 0x1
 7348 0fa8 50       		.byte	0x50
 7349 0fa9 01       		.uleb128 0x1
 7350 0faa 31       		.byte	0x31
 7351 0fab 00       		.byte	0
 7352 0fac 16       		.uleb128 0x16
 7353 0fad AE000000 		.4byte	.LVL108
 7354 0fb1 202A0000 		.4byte	0x2a20
 7355 0fb5 C40F0000 		.4byte	0xfc4
 7356 0fb9 17       		.uleb128 0x17
 7357 0fba 01       		.uleb128 0x1
 7358 0fbb 51       		.byte	0x51
 7359 0fbc 01       		.uleb128 0x1
 7360 0fbd 30       		.byte	0x30
 7361 0fbe 17       		.uleb128 0x17
 7362 0fbf 01       		.uleb128 0x1
 7363 0fc0 50       		.byte	0x50
 7364 0fc1 01       		.uleb128 0x1
 7365 0fc2 32       		.byte	0x32
 7366 0fc3 00       		.byte	0
 7367 0fc4 14       		.uleb128 0x14
 7368 0fc5 C6000000 		.4byte	.LVL109
 7369 0fc9 732A0000 		.4byte	0x2a73
 7370 0fcd 14       		.uleb128 0x14
 7371 0fce CA000000 		.4byte	.LVL110
 7372 0fd2 882A0000 		.4byte	0x2a88
 7373 0fd6 16       		.uleb128 0x16
 7374 0fd7 D4000000 		.4byte	.LVL111
 7375 0fdb 202A0000 		.4byte	0x2a20
 7376 0fdf EE0F0000 		.4byte	0xfee
 7377 0fe3 17       		.uleb128 0x17
 7378 0fe4 01       		.uleb128 0x1
 7379 0fe5 51       		.byte	0x51
 7380 0fe6 01       		.uleb128 0x1
 7381 0fe7 30       		.byte	0x30
 7382 0fe8 17       		.uleb128 0x17
 7383 0fe9 01       		.uleb128 0x1
 7384 0fea 50       		.byte	0x50
 7385 0feb 01       		.uleb128 0x1
 7386 0fec 31       		.byte	0x31
 7387 0fed 00       		.byte	0
 7388 0fee 18       		.uleb128 0x18
 7389 0fef DC000000 		.4byte	.LVL112
 7390 0ff3 202A0000 		.4byte	0x2a20
 7391 0ff7 17       		.uleb128 0x17
 7392 0ff8 01       		.uleb128 0x1
 7393 0ff9 51       		.byte	0x51
 7394 0ffa 01       		.uleb128 0x1
 7395 0ffb 30       		.byte	0x30
 7396 0ffc 17       		.uleb128 0x17
 7397 0ffd 01       		.uleb128 0x1
 7398 0ffe 50       		.byte	0x50
 7399 0fff 01       		.uleb128 0x1
 7400 1000 32       		.byte	0x32
 7401 1001 00       		.byte	0
 7402 1002 00       		.byte	0
ARM GAS  C:\Users\RECEPC~1\AppData\Local\Temp\ccoGpf2X.s 			page 170


 7403 1003 13       		.uleb128 0x13
 7404 1004 BA020000 		.4byte	.LASF165
 7405 1008 01       		.byte	0x1
 7406 1009 3901     		.2byte	0x139
 7407 100b 00000000 		.4byte	.LFB71
 7408 100f E8120000 		.4byte	.LFE71-.LFB71
 7409 1013 01       		.uleb128 0x1
 7410 1014 9C       		.byte	0x9c
 7411 1015 A4200000 		.4byte	0x20a4
 7412 1019 1B       		.uleb128 0x1b
 7413 101a 7800     		.ascii	"x\000"
 7414 101c 01       		.byte	0x1
 7415 101d 3A01     		.2byte	0x13a
 7416 101f AD000000 		.4byte	0xad
 7417 1023 75000000 		.4byte	.LLST2
 7418 1027 1B       		.uleb128 0x1b
 7419 1028 7900     		.ascii	"y\000"
 7420 102a 01       		.byte	0x1
 7421 102b 3A01     		.2byte	0x13a
 7422 102d AD000000 		.4byte	0xad
 7423 1031 1F030000 		.4byte	.LLST3
 7424 1035 1C       		.uleb128 0x1c
 7425 1036 2E000000 		.4byte	.LASF166
 7426 103a 01       		.byte	0x1
 7427 103b 3A01     		.2byte	0x13a
 7428 103d AD000000 		.4byte	0xad
 7429 1041 77030000 		.4byte	.LLST4
 7430 1045 14       		.uleb128 0x14
 7431 1046 3C000000 		.4byte	.LVL113
 7432 104a B4080000 		.4byte	0x8b4
 7433 104e 14       		.uleb128 0x14
 7434 104f 46000000 		.4byte	.LVL114
 7435 1053 D32A0000 		.4byte	0x2ad3
 7436 1057 14       		.uleb128 0x14
 7437 1058 4A000000 		.4byte	.LVL115
 7438 105c DA2A0000 		.4byte	0x2ada
 7439 1060 14       		.uleb128 0x14
 7440 1061 62000000 		.4byte	.LVL116
 7441 1065 E12A0000 		.4byte	0x2ae1
 7442 1069 16       		.uleb128 0x16
 7443 106a 94000000 		.4byte	.LVL117
 7444 106e 202A0000 		.4byte	0x2a20
 7445 1072 81100000 		.4byte	0x1081
 7446 1076 17       		.uleb128 0x17
 7447 1077 01       		.uleb128 0x1
 7448 1078 51       		.byte	0x51
 7449 1079 01       		.uleb128 0x1
 7450 107a 34       		.byte	0x34
 7451 107b 17       		.uleb128 0x17
 7452 107c 01       		.uleb128 0x1
 7453 107d 50       		.byte	0x50
 7454 107e 01       		.uleb128 0x1
 7455 107f 31       		.byte	0x31
 7456 1080 00       		.byte	0
 7457 1081 16       		.uleb128 0x16
 7458 1082 9A000000 		.4byte	.LVL118
 7459 1086 572A0000 		.4byte	0x2a57
ARM GAS  C:\Users\RECEPC~1\AppData\Local\Temp\ccoGpf2X.s 			page 171


 7460 108a 94100000 		.4byte	0x1094
 7461 108e 17       		.uleb128 0x17
 7462 108f 01       		.uleb128 0x1
 7463 1090 50       		.byte	0x50
 7464 1091 01       		.uleb128 0x1
 7465 1092 3A       		.byte	0x3a
 7466 1093 00       		.byte	0
 7467 1094 14       		.uleb128 0x14
 7468 1095 9E000000 		.4byte	.LVL119
 7469 1099 EC2A0000 		.4byte	0x2aec
 7470 109d 14       		.uleb128 0x14
 7471 109e A6000000 		.4byte	.LVL120
 7472 10a2 E12A0000 		.4byte	0x2ae1
 7473 10a6 16       		.uleb128 0x16
 7474 10a7 FE000000 		.4byte	.LVL121
 7475 10ab 202A0000 		.4byte	0x2a20
 7476 10af BE100000 		.4byte	0x10be
 7477 10b3 17       		.uleb128 0x17
 7478 10b4 01       		.uleb128 0x1
 7479 10b5 51       		.byte	0x51
 7480 10b6 01       		.uleb128 0x1
 7481 10b7 35       		.byte	0x35
 7482 10b8 17       		.uleb128 0x17
 7483 10b9 01       		.uleb128 0x1
 7484 10ba 50       		.byte	0x50
 7485 10bb 01       		.uleb128 0x1
 7486 10bc 31       		.byte	0x31
 7487 10bd 00       		.byte	0
 7488 10be 16       		.uleb128 0x16
 7489 10bf 1C010000 		.4byte	.LVL122
 7490 10c3 202A0000 		.4byte	0x2a20
 7491 10c7 D7100000 		.4byte	0x10d7
 7492 10cb 17       		.uleb128 0x17
 7493 10cc 01       		.uleb128 0x1
 7494 10cd 51       		.byte	0x51
 7495 10ce 02       		.uleb128 0x2
 7496 10cf 08       		.byte	0x8
 7497 10d0 85       		.byte	0x85
 7498 10d1 17       		.uleb128 0x17
 7499 10d2 01       		.uleb128 0x1
 7500 10d3 50       		.byte	0x50
 7501 10d4 01       		.uleb128 0x1
 7502 10d5 31       		.byte	0x31
 7503 10d6 00       		.byte	0
 7504 10d7 16       		.uleb128 0x16
 7505 10d8 2C010000 		.4byte	.LVL123
 7506 10dc 202A0000 		.4byte	0x2a20
 7507 10e0 F0100000 		.4byte	0x10f0
 7508 10e4 17       		.uleb128 0x17
 7509 10e5 01       		.uleb128 0x1
 7510 10e6 51       		.byte	0x51
 7511 10e7 02       		.uleb128 0x2
 7512 10e8 08       		.byte	0x8
 7513 10e9 83       		.byte	0x83
 7514 10ea 17       		.uleb128 0x17
 7515 10eb 01       		.uleb128 0x1
 7516 10ec 50       		.byte	0x50
ARM GAS  C:\Users\RECEPC~1\AppData\Local\Temp\ccoGpf2X.s 			page 172


 7517 10ed 01       		.uleb128 0x1
 7518 10ee 31       		.byte	0x31
 7519 10ef 00       		.byte	0
 7520 10f0 16       		.uleb128 0x16
 7521 10f1 3C010000 		.4byte	.LVL124
 7522 10f5 202A0000 		.4byte	0x2a20
 7523 10f9 08110000 		.4byte	0x1108
 7524 10fd 17       		.uleb128 0x17
 7525 10fe 01       		.uleb128 0x1
 7526 10ff 51       		.byte	0x51
 7527 1100 01       		.uleb128 0x1
 7528 1101 31       		.byte	0x31
 7529 1102 17       		.uleb128 0x17
 7530 1103 01       		.uleb128 0x1
 7531 1104 50       		.byte	0x50
 7532 1105 01       		.uleb128 0x1
 7533 1106 31       		.byte	0x31
 7534 1107 00       		.byte	0
 7535 1108 16       		.uleb128 0x16
 7536 1109 4C010000 		.4byte	.LVL125
 7537 110d 202A0000 		.4byte	0x2a20
 7538 1111 20110000 		.4byte	0x1120
 7539 1115 17       		.uleb128 0x17
 7540 1116 01       		.uleb128 0x1
 7541 1117 51       		.byte	0x51
 7542 1118 01       		.uleb128 0x1
 7543 1119 31       		.byte	0x31
 7544 111a 17       		.uleb128 0x17
 7545 111b 01       		.uleb128 0x1
 7546 111c 50       		.byte	0x50
 7547 111d 01       		.uleb128 0x1
 7548 111e 31       		.byte	0x31
 7549 111f 00       		.byte	0
 7550 1120 16       		.uleb128 0x16
 7551 1121 52010000 		.4byte	.LVL126
 7552 1125 572A0000 		.4byte	0x2a57
 7553 1129 33110000 		.4byte	0x1133
 7554 112d 17       		.uleb128 0x17
 7555 112e 01       		.uleb128 0x1
 7556 112f 50       		.byte	0x50
 7557 1130 01       		.uleb128 0x1
 7558 1131 3A       		.byte	0x3a
 7559 1132 00       		.byte	0
 7560 1133 14       		.uleb128 0x14
 7561 1134 56010000 		.4byte	.LVL127
 7562 1138 EC2A0000 		.4byte	0x2aec
 7563 113c 14       		.uleb128 0x14
 7564 113d 5E010000 		.4byte	.LVL128
 7565 1141 E12A0000 		.4byte	0x2ae1
 7566 1145 16       		.uleb128 0x16
 7567 1146 D4010000 		.4byte	.LVL129
 7568 114a 202A0000 		.4byte	0x2a20
 7569 114e 5D110000 		.4byte	0x115d
 7570 1152 17       		.uleb128 0x17
 7571 1153 01       		.uleb128 0x1
 7572 1154 51       		.byte	0x51
 7573 1155 01       		.uleb128 0x1
ARM GAS  C:\Users\RECEPC~1\AppData\Local\Temp\ccoGpf2X.s 			page 173


 7574 1156 36       		.byte	0x36
 7575 1157 17       		.uleb128 0x17
 7576 1158 01       		.uleb128 0x1
 7577 1159 50       		.byte	0x50
 7578 115a 01       		.uleb128 0x1
 7579 115b 31       		.byte	0x31
 7580 115c 00       		.byte	0
 7581 115d 16       		.uleb128 0x16
 7582 115e E8010000 		.4byte	.LVL130
 7583 1162 F32A0000 		.4byte	0x2af3
 7584 1166 95110000 		.4byte	0x1195
 7585 116a 17       		.uleb128 0x17
 7586 116b 01       		.uleb128 0x1
 7587 116c 53       		.byte	0x53
 7588 116d 02       		.uleb128 0x2
 7589 116e 74       		.byte	0x74
 7590 116f 00       		.sleb128 0
 7591 1170 17       		.uleb128 0x17
 7592 1171 01       		.uleb128 0x1
 7593 1172 52       		.byte	0x52
 7594 1173 01       		.uleb128 0x1
 7595 1174 33       		.byte	0x33
 7596 1175 17       		.uleb128 0x17
 7597 1176 01       		.uleb128 0x1
 7598 1177 51       		.byte	0x51
 7599 1178 02       		.uleb128 0x2
 7600 1179 08       		.byte	0x8
 7601 117a 24       		.byte	0x24
 7602 117b 17       		.uleb128 0x17
 7603 117c 01       		.uleb128 0x1
 7604 117d 50       		.byte	0x50
 7605 117e 01       		.uleb128 0x1
 7606 117f 31       		.byte	0x31
 7607 1180 17       		.uleb128 0x17
 7608 1181 02       		.uleb128 0x2
 7609 1182 7D       		.byte	0x7d
 7610 1183 08       		.sleb128 8
 7611 1184 02       		.uleb128 0x2
 7612 1185 08       		.byte	0x8
 7613 1186 4E       		.byte	0x4e
 7614 1187 17       		.uleb128 0x17
 7615 1188 02       		.uleb128 0x2
 7616 1189 7D       		.byte	0x7d
 7617 118a 04       		.sleb128 4
 7618 118b 02       		.uleb128 0x2
 7619 118c 75       		.byte	0x75
 7620 118d 00       		.sleb128 0
 7621 118e 17       		.uleb128 0x17
 7622 118f 02       		.uleb128 0x2
 7623 1190 7D       		.byte	0x7d
 7624 1191 00       		.sleb128 0
 7625 1192 01       		.uleb128 0x1
 7626 1193 31       		.byte	0x31
 7627 1194 00       		.byte	0
 7628 1195 16       		.uleb128 0x16
 7629 1196 0C020000 		.4byte	.LVL131
 7630 119a 202A0000 		.4byte	0x2a20
ARM GAS  C:\Users\RECEPC~1\AppData\Local\Temp\ccoGpf2X.s 			page 174


 7631 119e AE110000 		.4byte	0x11ae
 7632 11a2 17       		.uleb128 0x17
 7633 11a3 01       		.uleb128 0x1
 7634 11a4 51       		.byte	0x51
 7635 11a5 01       		.uleb128 0x1
 7636 11a6 3D       		.byte	0x3d
 7637 11a7 17       		.uleb128 0x17
 7638 11a8 01       		.uleb128 0x1
 7639 11a9 50       		.byte	0x50
 7640 11aa 02       		.uleb128 0x2
 7641 11ab 74       		.byte	0x74
 7642 11ac 00       		.sleb128 0
 7643 11ad 00       		.byte	0
 7644 11ae 16       		.uleb128 0x16
 7645 11af 20020000 		.4byte	.LVL132
 7646 11b3 F32A0000 		.4byte	0x2af3
 7647 11b7 E7110000 		.4byte	0x11e7
 7648 11bb 17       		.uleb128 0x17
 7649 11bc 01       		.uleb128 0x1
 7650 11bd 53       		.byte	0x53
 7651 11be 01       		.uleb128 0x1
 7652 11bf 32       		.byte	0x32
 7653 11c0 17       		.uleb128 0x17
 7654 11c1 01       		.uleb128 0x1
 7655 11c2 52       		.byte	0x52
 7656 11c3 01       		.uleb128 0x1
 7657 11c4 33       		.byte	0x33
 7658 11c5 17       		.uleb128 0x17
 7659 11c6 01       		.uleb128 0x1
 7660 11c7 51       		.byte	0x51
 7661 11c8 02       		.uleb128 0x2
 7662 11c9 75       		.byte	0x75
 7663 11ca 00       		.sleb128 0
 7664 11cb 17       		.uleb128 0x17
 7665 11cc 01       		.uleb128 0x1
 7666 11cd 50       		.byte	0x50
 7667 11ce 02       		.uleb128 0x2
 7668 11cf 74       		.byte	0x74
 7669 11d0 00       		.sleb128 0
 7670 11d1 17       		.uleb128 0x17
 7671 11d2 02       		.uleb128 0x2
 7672 11d3 7D       		.byte	0x7d
 7673 11d4 08       		.sleb128 8
 7674 11d5 02       		.uleb128 0x2
 7675 11d6 08       		.byte	0x8
 7676 11d7 4E       		.byte	0x4e
 7677 11d8 17       		.uleb128 0x17
 7678 11d9 02       		.uleb128 0x2
 7679 11da 7D       		.byte	0x7d
 7680 11db 04       		.sleb128 4
 7681 11dc 02       		.uleb128 0x2
 7682 11dd 76       		.byte	0x76
 7683 11de 00       		.sleb128 0
 7684 11df 17       		.uleb128 0x17
 7685 11e0 02       		.uleb128 0x2
 7686 11e1 7D       		.byte	0x7d
 7687 11e2 00       		.sleb128 0
ARM GAS  C:\Users\RECEPC~1\AppData\Local\Temp\ccoGpf2X.s 			page 175


 7688 11e3 02       		.uleb128 0x2
 7689 11e4 74       		.byte	0x74
 7690 11e5 00       		.sleb128 0
 7691 11e6 00       		.byte	0
 7692 11e7 16       		.uleb128 0x16
 7693 11e8 86020000 		.4byte	.LVL143
 7694 11ec 202A0000 		.4byte	0x2a20
 7695 11f0 00120000 		.4byte	0x1200
 7696 11f4 17       		.uleb128 0x17
 7697 11f5 01       		.uleb128 0x1
 7698 11f6 51       		.byte	0x51
 7699 11f7 02       		.uleb128 0x2
 7700 11f8 08       		.byte	0x8
 7701 11f9 86       		.byte	0x86
 7702 11fa 17       		.uleb128 0x17
 7703 11fb 01       		.uleb128 0x1
 7704 11fc 50       		.byte	0x50
 7705 11fd 01       		.uleb128 0x1
 7706 11fe 31       		.byte	0x31
 7707 11ff 00       		.byte	0
 7708 1200 16       		.uleb128 0x16
 7709 1201 96020000 		.4byte	.LVL144
 7710 1205 202A0000 		.4byte	0x2a20
 7711 1209 18120000 		.4byte	0x1218
 7712 120d 17       		.uleb128 0x17
 7713 120e 01       		.uleb128 0x1
 7714 120f 51       		.byte	0x51
 7715 1210 01       		.uleb128 0x1
 7716 1211 31       		.byte	0x31
 7717 1212 17       		.uleb128 0x17
 7718 1213 01       		.uleb128 0x1
 7719 1214 50       		.byte	0x50
 7720 1215 01       		.uleb128 0x1
 7721 1216 31       		.byte	0x31
 7722 1217 00       		.byte	0
 7723 1218 16       		.uleb128 0x16
 7724 1219 A6020000 		.4byte	.LVL145
 7725 121d 202A0000 		.4byte	0x2a20
 7726 1221 30120000 		.4byte	0x1230
 7727 1225 17       		.uleb128 0x17
 7728 1226 01       		.uleb128 0x1
 7729 1227 51       		.byte	0x51
 7730 1228 01       		.uleb128 0x1
 7731 1229 31       		.byte	0x31
 7732 122a 17       		.uleb128 0x17
 7733 122b 01       		.uleb128 0x1
 7734 122c 50       		.byte	0x50
 7735 122d 01       		.uleb128 0x1
 7736 122e 31       		.byte	0x31
 7737 122f 00       		.byte	0
 7738 1230 16       		.uleb128 0x16
 7739 1231 B6020000 		.4byte	.LVL146
 7740 1235 202A0000 		.4byte	0x2a20
 7741 1239 48120000 		.4byte	0x1248
 7742 123d 17       		.uleb128 0x17
 7743 123e 01       		.uleb128 0x1
 7744 123f 51       		.byte	0x51
ARM GAS  C:\Users\RECEPC~1\AppData\Local\Temp\ccoGpf2X.s 			page 176


 7745 1240 01       		.uleb128 0x1
 7746 1241 31       		.byte	0x31
 7747 1242 17       		.uleb128 0x17
 7748 1243 01       		.uleb128 0x1
 7749 1244 50       		.byte	0x50
 7750 1245 01       		.uleb128 0x1
 7751 1246 31       		.byte	0x31
 7752 1247 00       		.byte	0
 7753 1248 16       		.uleb128 0x16
 7754 1249 BC020000 		.4byte	.LVL147
 7755 124d 572A0000 		.4byte	0x2a57
 7756 1251 5B120000 		.4byte	0x125b
 7757 1255 17       		.uleb128 0x17
 7758 1256 01       		.uleb128 0x1
 7759 1257 50       		.byte	0x50
 7760 1258 01       		.uleb128 0x1
 7761 1259 3A       		.byte	0x3a
 7762 125a 00       		.byte	0
 7763 125b 14       		.uleb128 0x14
 7764 125c C0020000 		.4byte	.LVL148
 7765 1260 EC2A0000 		.4byte	0x2aec
 7766 1264 16       		.uleb128 0x16
 7767 1265 E8020000 		.4byte	.LVL149
 7768 1269 222B0000 		.4byte	0x2b22
 7769 126d 7C120000 		.4byte	0x127c
 7770 1271 17       		.uleb128 0x17
 7771 1272 01       		.uleb128 0x1
 7772 1273 52       		.byte	0x52
 7773 1274 01       		.uleb128 0x1
 7774 1275 30       		.byte	0x30
 7775 1276 17       		.uleb128 0x17
 7776 1277 01       		.uleb128 0x1
 7777 1278 50       		.byte	0x50
 7778 1279 01       		.uleb128 0x1
 7779 127a 31       		.byte	0x31
 7780 127b 00       		.byte	0
 7781 127c 16       		.uleb128 0x16
 7782 127d 00030000 		.4byte	.LVL150
 7783 1281 202A0000 		.4byte	0x2a20
 7784 1285 94120000 		.4byte	0x1294
 7785 1289 17       		.uleb128 0x17
 7786 128a 01       		.uleb128 0x1
 7787 128b 51       		.byte	0x51
 7788 128c 01       		.uleb128 0x1
 7789 128d 31       		.byte	0x31
 7790 128e 17       		.uleb128 0x17
 7791 128f 01       		.uleb128 0x1
 7792 1290 50       		.byte	0x50
 7793 1291 01       		.uleb128 0x1
 7794 1292 31       		.byte	0x31
 7795 1293 00       		.byte	0
 7796 1294 16       		.uleb128 0x16
 7797 1295 34030000 		.4byte	.LVL157
 7798 1299 202A0000 		.4byte	0x2a20
 7799 129d AD120000 		.4byte	0x12ad
 7800 12a1 17       		.uleb128 0x17
 7801 12a2 01       		.uleb128 0x1
ARM GAS  C:\Users\RECEPC~1\AppData\Local\Temp\ccoGpf2X.s 			page 177


 7802 12a3 51       		.byte	0x51
 7803 12a4 02       		.uleb128 0x2
 7804 12a5 08       		.byte	0x8
 7805 12a6 86       		.byte	0x86
 7806 12a7 17       		.uleb128 0x17
 7807 12a8 01       		.uleb128 0x1
 7808 12a9 50       		.byte	0x50
 7809 12aa 01       		.uleb128 0x1
 7810 12ab 31       		.byte	0x31
 7811 12ac 00       		.byte	0
 7812 12ad 14       		.uleb128 0x14
 7813 12ae 3C030000 		.4byte	.LVL158
 7814 12b2 E12A0000 		.4byte	0x2ae1
 7815 12b6 16       		.uleb128 0x16
 7816 12b7 BE030000 		.4byte	.LVL159
 7817 12bb 202A0000 		.4byte	0x2a20
 7818 12bf CE120000 		.4byte	0x12ce
 7819 12c3 17       		.uleb128 0x17
 7820 12c4 01       		.uleb128 0x1
 7821 12c5 51       		.byte	0x51
 7822 12c6 01       		.uleb128 0x1
 7823 12c7 3B       		.byte	0x3b
 7824 12c8 17       		.uleb128 0x17
 7825 12c9 01       		.uleb128 0x1
 7826 12ca 50       		.byte	0x50
 7827 12cb 01       		.uleb128 0x1
 7828 12cc 31       		.byte	0x31
 7829 12cd 00       		.byte	0
 7830 12ce 16       		.uleb128 0x16
 7831 12cf D6030000 		.4byte	.LVL160
 7832 12d3 202A0000 		.4byte	0x2a20
 7833 12d7 E6120000 		.4byte	0x12e6
 7834 12db 17       		.uleb128 0x17
 7835 12dc 01       		.uleb128 0x1
 7836 12dd 51       		.byte	0x51
 7837 12de 01       		.uleb128 0x1
 7838 12df 3B       		.byte	0x3b
 7839 12e0 17       		.uleb128 0x17
 7840 12e1 01       		.uleb128 0x1
 7841 12e2 50       		.byte	0x50
 7842 12e3 01       		.uleb128 0x1
 7843 12e4 31       		.byte	0x31
 7844 12e5 00       		.byte	0
 7845 12e6 16       		.uleb128 0x16
 7846 12e7 EE030000 		.4byte	.LVL161
 7847 12eb 202A0000 		.4byte	0x2a20
 7848 12ef FE120000 		.4byte	0x12fe
 7849 12f3 17       		.uleb128 0x17
 7850 12f4 01       		.uleb128 0x1
 7851 12f5 51       		.byte	0x51
 7852 12f6 01       		.uleb128 0x1
 7853 12f7 3B       		.byte	0x3b
 7854 12f8 17       		.uleb128 0x17
 7855 12f9 01       		.uleb128 0x1
 7856 12fa 50       		.byte	0x50
 7857 12fb 01       		.uleb128 0x1
 7858 12fc 31       		.byte	0x31
ARM GAS  C:\Users\RECEPC~1\AppData\Local\Temp\ccoGpf2X.s 			page 178


 7859 12fd 00       		.byte	0
 7860 12fe 16       		.uleb128 0x16
 7861 12ff 06040000 		.4byte	.LVL162
 7862 1303 202A0000 		.4byte	0x2a20
 7863 1307 16130000 		.4byte	0x1316
 7864 130b 17       		.uleb128 0x17
 7865 130c 01       		.uleb128 0x1
 7866 130d 51       		.byte	0x51
 7867 130e 01       		.uleb128 0x1
 7868 130f 3B       		.byte	0x3b
 7869 1310 17       		.uleb128 0x17
 7870 1311 01       		.uleb128 0x1
 7871 1312 50       		.byte	0x50
 7872 1313 01       		.uleb128 0x1
 7873 1314 31       		.byte	0x31
 7874 1315 00       		.byte	0
 7875 1316 16       		.uleb128 0x16
 7876 1317 16040000 		.4byte	.LVL163
 7877 131b 202A0000 		.4byte	0x2a20
 7878 131f 2E130000 		.4byte	0x132e
 7879 1323 17       		.uleb128 0x17
 7880 1324 01       		.uleb128 0x1
 7881 1325 51       		.byte	0x51
 7882 1326 01       		.uleb128 0x1
 7883 1327 31       		.byte	0x31
 7884 1328 17       		.uleb128 0x17
 7885 1329 01       		.uleb128 0x1
 7886 132a 50       		.byte	0x50
 7887 132b 01       		.uleb128 0x1
 7888 132c 31       		.byte	0x31
 7889 132d 00       		.byte	0
 7890 132e 16       		.uleb128 0x16
 7891 132f 20040000 		.4byte	.LVL164
 7892 1333 202A0000 		.4byte	0x2a20
 7893 1337 46130000 		.4byte	0x1346
 7894 133b 17       		.uleb128 0x17
 7895 133c 01       		.uleb128 0x1
 7896 133d 51       		.byte	0x51
 7897 133e 01       		.uleb128 0x1
 7898 133f 31       		.byte	0x31
 7899 1340 17       		.uleb128 0x17
 7900 1341 01       		.uleb128 0x1
 7901 1342 50       		.byte	0x50
 7902 1343 01       		.uleb128 0x1
 7903 1344 31       		.byte	0x31
 7904 1345 00       		.byte	0
 7905 1346 16       		.uleb128 0x16
 7906 1347 2C040000 		.4byte	.LVL165
 7907 134b 572A0000 		.4byte	0x2a57
 7908 134f 59130000 		.4byte	0x1359
 7909 1353 17       		.uleb128 0x17
 7910 1354 01       		.uleb128 0x1
 7911 1355 50       		.byte	0x50
 7912 1356 01       		.uleb128 0x1
 7913 1357 3A       		.byte	0x3a
 7914 1358 00       		.byte	0
 7915 1359 14       		.uleb128 0x14
ARM GAS  C:\Users\RECEPC~1\AppData\Local\Temp\ccoGpf2X.s 			page 179


 7916 135a 30040000 		.4byte	.LVL166
 7917 135e EC2A0000 		.4byte	0x2aec
 7918 1362 16       		.uleb128 0x16
 7919 1363 3A040000 		.4byte	.LVL167
 7920 1367 412B0000 		.4byte	0x2b41
 7921 136b 79130000 		.4byte	0x1379
 7922 136f 17       		.uleb128 0x17
 7923 1370 01       		.uleb128 0x1
 7924 1371 50       		.byte	0x50
 7925 1372 05       		.uleb128 0x5
 7926 1373 03       		.byte	0x3
 7927 1374 00000000 		.4byte	animacion
 7928 1378 00       		.byte	0
 7929 1379 14       		.uleb128 0x14
 7930 137a 3E040000 		.4byte	.LVL168
 7931 137e 522B0000 		.4byte	0x2b52
 7932 1382 14       		.uleb128 0x14
 7933 1383 42040000 		.4byte	.LVL169
 7934 1387 E12A0000 		.4byte	0x2ae1
 7935 138b 16       		.uleb128 0x16
 7936 138c 96040000 		.4byte	.LVL170
 7937 1390 202A0000 		.4byte	0x2a20
 7938 1394 A3130000 		.4byte	0x13a3
 7939 1398 17       		.uleb128 0x17
 7940 1399 01       		.uleb128 0x1
 7941 139a 51       		.byte	0x51
 7942 139b 01       		.uleb128 0x1
 7943 139c 3A       		.byte	0x3a
 7944 139d 17       		.uleb128 0x17
 7945 139e 01       		.uleb128 0x1
 7946 139f 50       		.byte	0x50
 7947 13a0 01       		.uleb128 0x1
 7948 13a1 31       		.byte	0x31
 7949 13a2 00       		.byte	0
 7950 13a3 16       		.uleb128 0x16
 7951 13a4 AE040000 		.4byte	.LVL171
 7952 13a8 202A0000 		.4byte	0x2a20
 7953 13ac BB130000 		.4byte	0x13bb
 7954 13b0 17       		.uleb128 0x17
 7955 13b1 01       		.uleb128 0x1
 7956 13b2 51       		.byte	0x51
 7957 13b3 01       		.uleb128 0x1
 7958 13b4 31       		.byte	0x31
 7959 13b5 17       		.uleb128 0x17
 7960 13b6 01       		.uleb128 0x1
 7961 13b7 50       		.byte	0x50
 7962 13b8 01       		.uleb128 0x1
 7963 13b9 31       		.byte	0x31
 7964 13ba 00       		.byte	0
 7965 13bb 16       		.uleb128 0x16
 7966 13bc C8040000 		.4byte	.LVL172
 7967 13c0 202A0000 		.4byte	0x2a20
 7968 13c4 D3130000 		.4byte	0x13d3
 7969 13c8 17       		.uleb128 0x17
 7970 13c9 01       		.uleb128 0x1
 7971 13ca 51       		.byte	0x51
 7972 13cb 01       		.uleb128 0x1
ARM GAS  C:\Users\RECEPC~1\AppData\Local\Temp\ccoGpf2X.s 			page 180


 7973 13cc 37       		.byte	0x37
 7974 13cd 17       		.uleb128 0x17
 7975 13ce 01       		.uleb128 0x1
 7976 13cf 50       		.byte	0x50
 7977 13d0 01       		.uleb128 0x1
 7978 13d1 31       		.byte	0x31
 7979 13d2 00       		.byte	0
 7980 13d3 16       		.uleb128 0x16
 7981 13d4 D8040000 		.4byte	.LVL173
 7982 13d8 202A0000 		.4byte	0x2a20
 7983 13dc EB130000 		.4byte	0x13eb
 7984 13e0 17       		.uleb128 0x17
 7985 13e1 01       		.uleb128 0x1
 7986 13e2 51       		.byte	0x51
 7987 13e3 01       		.uleb128 0x1
 7988 13e4 31       		.byte	0x31
 7989 13e5 17       		.uleb128 0x17
 7990 13e6 01       		.uleb128 0x1
 7991 13e7 50       		.byte	0x50
 7992 13e8 01       		.uleb128 0x1
 7993 13e9 31       		.byte	0x31
 7994 13ea 00       		.byte	0
 7995 13eb 16       		.uleb128 0x16
 7996 13ec DE040000 		.4byte	.LVL174
 7997 13f0 572A0000 		.4byte	0x2a57
 7998 13f4 FE130000 		.4byte	0x13fe
 7999 13f8 17       		.uleb128 0x17
 8000 13f9 01       		.uleb128 0x1
 8001 13fa 50       		.byte	0x50
 8002 13fb 01       		.uleb128 0x1
 8003 13fc 3A       		.byte	0x3a
 8004 13fd 00       		.byte	0
 8005 13fe 14       		.uleb128 0x14
 8006 13ff E2040000 		.4byte	.LVL175
 8007 1403 EC2A0000 		.4byte	0x2aec
 8008 1407 16       		.uleb128 0x16
 8009 1408 FE040000 		.4byte	.LVL176
 8010 140c 202A0000 		.4byte	0x2a20
 8011 1410 1F140000 		.4byte	0x141f
 8012 1414 17       		.uleb128 0x17
 8013 1415 01       		.uleb128 0x1
 8014 1416 51       		.byte	0x51
 8015 1417 01       		.uleb128 0x1
 8016 1418 31       		.byte	0x31
 8017 1419 17       		.uleb128 0x17
 8018 141a 01       		.uleb128 0x1
 8019 141b 50       		.byte	0x50
 8020 141c 01       		.uleb128 0x1
 8021 141d 31       		.byte	0x31
 8022 141e 00       		.byte	0
 8023 141f 16       		.uleb128 0x16
 8024 1420 2A050000 		.4byte	.LVL177
 8025 1424 412B0000 		.4byte	0x2b41
 8026 1428 36140000 		.4byte	0x1436
 8027 142c 17       		.uleb128 0x17
 8028 142d 01       		.uleb128 0x1
 8029 142e 50       		.byte	0x50
ARM GAS  C:\Users\RECEPC~1\AppData\Local\Temp\ccoGpf2X.s 			page 181


 8030 142f 05       		.uleb128 0x5
 8031 1430 03       		.byte	0x3
 8032 1431 00000000 		.4byte	animacion
 8033 1435 00       		.byte	0
 8034 1436 14       		.uleb128 0x14
 8035 1437 2E050000 		.4byte	.LVL178
 8036 143b 522B0000 		.4byte	0x2b52
 8037 143f 14       		.uleb128 0x14
 8038 1440 36050000 		.4byte	.LVL179
 8039 1444 592B0000 		.4byte	0x2b59
 8040 1448 16       		.uleb128 0x16
 8041 1449 56050000 		.4byte	.LVL180
 8042 144d 6E2B0000 		.4byte	0x2b6e
 8043 1451 5F140000 		.4byte	0x145f
 8044 1455 17       		.uleb128 0x17
 8045 1456 01       		.uleb128 0x1
 8046 1457 52       		.byte	0x52
 8047 1458 05       		.uleb128 0x5
 8048 1459 03       		.byte	0x3
 8049 145a 65000000 		.4byte	bufferDisplay1+101
 8050 145e 00       		.byte	0
 8051 145f 14       		.uleb128 0x14
 8052 1460 60050000 		.4byte	.LVL181
 8053 1464 732A0000 		.4byte	0x2a73
 8054 1468 16       		.uleb128 0x16
 8055 1469 66050000 		.4byte	.LVL182
 8056 146d 572A0000 		.4byte	0x2a57
 8057 1471 7C140000 		.4byte	0x147c
 8058 1475 17       		.uleb128 0x17
 8059 1476 01       		.uleb128 0x1
 8060 1477 50       		.byte	0x50
 8061 1478 02       		.uleb128 0x2
 8062 1479 08       		.byte	0x8
 8063 147a 32       		.byte	0x32
 8064 147b 00       		.byte	0
 8065 147c 14       		.uleb128 0x14
 8066 147d 70050000 		.4byte	.LVL183
 8067 1481 922B0000 		.4byte	0x2b92
 8068 1485 16       		.uleb128 0x16
 8069 1486 76050000 		.4byte	.LVL184
 8070 148a 572A0000 		.4byte	0x2a57
 8071 148e 99140000 		.4byte	0x1499
 8072 1492 17       		.uleb128 0x17
 8073 1493 01       		.uleb128 0x1
 8074 1494 50       		.byte	0x50
 8075 1495 02       		.uleb128 0x2
 8076 1496 08       		.byte	0x8
 8077 1497 32       		.byte	0x32
 8078 1498 00       		.byte	0
 8079 1499 14       		.uleb128 0x14
 8080 149a 80050000 		.4byte	.LVL185
 8081 149e D32A0000 		.4byte	0x2ad3
 8082 14a2 14       		.uleb128 0x14
 8083 14a3 84050000 		.4byte	.LVL186
 8084 14a7 DA2A0000 		.4byte	0x2ada
 8085 14ab 16       		.uleb128 0x16
 8086 14ac 92050000 		.4byte	.LVL187
ARM GAS  C:\Users\RECEPC~1\AppData\Local\Temp\ccoGpf2X.s 			page 182


 8087 14b0 202A0000 		.4byte	0x2a20
 8088 14b4 C4140000 		.4byte	0x14c4
 8089 14b8 17       		.uleb128 0x17
 8090 14b9 01       		.uleb128 0x1
 8091 14ba 51       		.byte	0x51
 8092 14bb 02       		.uleb128 0x2
 8093 14bc 74       		.byte	0x74
 8094 14bd 00       		.sleb128 0
 8095 14be 17       		.uleb128 0x17
 8096 14bf 01       		.uleb128 0x1
 8097 14c0 50       		.byte	0x50
 8098 14c1 01       		.uleb128 0x1
 8099 14c2 31       		.byte	0x31
 8100 14c3 00       		.byte	0
 8101 14c4 16       		.uleb128 0x16
 8102 14c5 9C050000 		.4byte	.LVL188
 8103 14c9 362A0000 		.4byte	0x2a36
 8104 14cd E5140000 		.4byte	0x14e5
 8105 14d1 17       		.uleb128 0x17
 8106 14d2 01       		.uleb128 0x1
 8107 14d3 52       		.byte	0x52
 8108 14d4 01       		.uleb128 0x1
 8109 14d5 42       		.byte	0x42
 8110 14d6 17       		.uleb128 0x17
 8111 14d7 01       		.uleb128 0x1
 8112 14d8 51       		.byte	0x51
 8113 14d9 05       		.uleb128 0x5
 8114 14da 03       		.byte	0x3
 8115 14db 65000000 		.4byte	bufferDisplay1+101
 8116 14df 17       		.uleb128 0x17
 8117 14e0 01       		.uleb128 0x1
 8118 14e1 50       		.byte	0x50
 8119 14e2 01       		.uleb128 0x1
 8120 14e3 31       		.byte	0x31
 8121 14e4 00       		.byte	0
 8122 14e5 16       		.uleb128 0x16
 8123 14e6 AA050000 		.4byte	.LVL189
 8124 14ea 202A0000 		.4byte	0x2a20
 8125 14ee FD140000 		.4byte	0x14fd
 8126 14f2 17       		.uleb128 0x17
 8127 14f3 01       		.uleb128 0x1
 8128 14f4 51       		.byte	0x51
 8129 14f5 01       		.uleb128 0x1
 8130 14f6 30       		.byte	0x30
 8131 14f7 17       		.uleb128 0x17
 8132 14f8 01       		.uleb128 0x1
 8133 14f9 50       		.byte	0x50
 8134 14fa 01       		.uleb128 0x1
 8135 14fb 31       		.byte	0x31
 8136 14fc 00       		.byte	0
 8137 14fd 16       		.uleb128 0x16
 8138 14fe B0050000 		.4byte	.LVL190
 8139 1502 572A0000 		.4byte	0x2a57
 8140 1506 11150000 		.4byte	0x1511
 8141 150a 17       		.uleb128 0x17
 8142 150b 01       		.uleb128 0x1
 8143 150c 50       		.byte	0x50
ARM GAS  C:\Users\RECEPC~1\AppData\Local\Temp\ccoGpf2X.s 			page 183


 8144 150d 02       		.uleb128 0x2
 8145 150e 08       		.byte	0x8
 8146 150f C8       		.byte	0xc8
 8147 1510 00       		.byte	0
 8148 1511 16       		.uleb128 0x16
 8149 1512 B8050000 		.4byte	.LVL191
 8150 1516 202A0000 		.4byte	0x2a20
 8151 151a 29150000 		.4byte	0x1529
 8152 151e 17       		.uleb128 0x17
 8153 151f 01       		.uleb128 0x1
 8154 1520 51       		.byte	0x51
 8155 1521 01       		.uleb128 0x1
 8156 1522 31       		.byte	0x31
 8157 1523 17       		.uleb128 0x17
 8158 1524 01       		.uleb128 0x1
 8159 1525 50       		.byte	0x50
 8160 1526 01       		.uleb128 0x1
 8161 1527 31       		.byte	0x31
 8162 1528 00       		.byte	0
 8163 1529 16       		.uleb128 0x16
 8164 152a DA050000 		.4byte	.LVL192
 8165 152e 202A0000 		.4byte	0x2a20
 8166 1532 41150000 		.4byte	0x1541
 8167 1536 17       		.uleb128 0x17
 8168 1537 01       		.uleb128 0x1
 8169 1538 51       		.byte	0x51
 8170 1539 01       		.uleb128 0x1
 8171 153a 31       		.byte	0x31
 8172 153b 17       		.uleb128 0x17
 8173 153c 01       		.uleb128 0x1
 8174 153d 50       		.byte	0x50
 8175 153e 01       		.uleb128 0x1
 8176 153f 31       		.byte	0x31
 8177 1540 00       		.byte	0
 8178 1541 14       		.uleb128 0x14
 8179 1542 DE050000 		.4byte	.LVL193
 8180 1546 E12A0000 		.4byte	0x2ae1
 8181 154a 16       		.uleb128 0x16
 8182 154b 12060000 		.4byte	.LVL194
 8183 154f 202A0000 		.4byte	0x2a20
 8184 1553 62150000 		.4byte	0x1562
 8185 1557 17       		.uleb128 0x17
 8186 1558 01       		.uleb128 0x1
 8187 1559 51       		.byte	0x51
 8188 155a 01       		.uleb128 0x1
 8189 155b 31       		.byte	0x31
 8190 155c 17       		.uleb128 0x17
 8191 155d 01       		.uleb128 0x1
 8192 155e 50       		.byte	0x50
 8193 155f 01       		.uleb128 0x1
 8194 1560 31       		.byte	0x31
 8195 1561 00       		.byte	0
 8196 1562 16       		.uleb128 0x16
 8197 1563 1E060000 		.4byte	.LVL195
 8198 1567 572A0000 		.4byte	0x2a57
 8199 156b 75150000 		.4byte	0x1575
 8200 156f 17       		.uleb128 0x17
ARM GAS  C:\Users\RECEPC~1\AppData\Local\Temp\ccoGpf2X.s 			page 184


 8201 1570 01       		.uleb128 0x1
 8202 1571 50       		.byte	0x50
 8203 1572 01       		.uleb128 0x1
 8204 1573 3A       		.byte	0x3a
 8205 1574 00       		.byte	0
 8206 1575 14       		.uleb128 0x14
 8207 1576 22060000 		.4byte	.LVL196
 8208 157a EC2A0000 		.4byte	0x2aec
 8209 157e 14       		.uleb128 0x14
 8210 157f 2E060000 		.4byte	.LVL197
 8211 1583 732A0000 		.4byte	0x2a73
 8212 1587 16       		.uleb128 0x16
 8213 1588 5A060000 		.4byte	.LVL199
 8214 158c 202A0000 		.4byte	0x2a20
 8215 1590 9F150000 		.4byte	0x159f
 8216 1594 17       		.uleb128 0x17
 8217 1595 01       		.uleb128 0x1
 8218 1596 51       		.byte	0x51
 8219 1597 01       		.uleb128 0x1
 8220 1598 31       		.byte	0x31
 8221 1599 17       		.uleb128 0x17
 8222 159a 01       		.uleb128 0x1
 8223 159b 50       		.byte	0x50
 8224 159c 01       		.uleb128 0x1
 8225 159d 31       		.byte	0x31
 8226 159e 00       		.byte	0
 8227 159f 14       		.uleb128 0x14
 8228 15a0 78060000 		.4byte	.LVL200
 8229 15a4 A32B0000 		.4byte	0x2ba3
 8230 15a8 14       		.uleb128 0x14
 8231 15a9 8E060000 		.4byte	.LVL201
 8232 15ad B82B0000 		.4byte	0x2bb8
 8233 15b1 16       		.uleb128 0x16
 8234 15b2 9C060000 		.4byte	.LVL202
 8235 15b6 202A0000 		.4byte	0x2a20
 8236 15ba C9150000 		.4byte	0x15c9
 8237 15be 17       		.uleb128 0x17
 8238 15bf 01       		.uleb128 0x1
 8239 15c0 51       		.byte	0x51
 8240 15c1 01       		.uleb128 0x1
 8241 15c2 31       		.byte	0x31
 8242 15c3 17       		.uleb128 0x17
 8243 15c4 01       		.uleb128 0x1
 8244 15c5 50       		.byte	0x50
 8245 15c6 01       		.uleb128 0x1
 8246 15c7 31       		.byte	0x31
 8247 15c8 00       		.byte	0
 8248 15c9 16       		.uleb128 0x16
 8249 15ca B2060000 		.4byte	.LVL203
 8250 15ce 202A0000 		.4byte	0x2a20
 8251 15d2 E1150000 		.4byte	0x15e1
 8252 15d6 17       		.uleb128 0x17
 8253 15d7 01       		.uleb128 0x1
 8254 15d8 51       		.byte	0x51
 8255 15d9 01       		.uleb128 0x1
 8256 15da 3B       		.byte	0x3b
 8257 15db 17       		.uleb128 0x17
ARM GAS  C:\Users\RECEPC~1\AppData\Local\Temp\ccoGpf2X.s 			page 185


 8258 15dc 01       		.uleb128 0x1
 8259 15dd 50       		.byte	0x50
 8260 15de 01       		.uleb128 0x1
 8261 15df 31       		.byte	0x31
 8262 15e0 00       		.byte	0
 8263 15e1 14       		.uleb128 0x14
 8264 15e2 C6060000 		.4byte	.LVL204
 8265 15e6 A32B0000 		.4byte	0x2ba3
 8266 15ea 14       		.uleb128 0x14
 8267 15eb DC060000 		.4byte	.LVL205
 8268 15ef B82B0000 		.4byte	0x2bb8
 8269 15f3 16       		.uleb128 0x16
 8270 15f4 EA060000 		.4byte	.LVL206
 8271 15f8 202A0000 		.4byte	0x2a20
 8272 15fc 0B160000 		.4byte	0x160b
 8273 1600 17       		.uleb128 0x17
 8274 1601 01       		.uleb128 0x1
 8275 1602 51       		.byte	0x51
 8276 1603 01       		.uleb128 0x1
 8277 1604 31       		.byte	0x31
 8278 1605 17       		.uleb128 0x17
 8279 1606 01       		.uleb128 0x1
 8280 1607 50       		.byte	0x50
 8281 1608 01       		.uleb128 0x1
 8282 1609 31       		.byte	0x31
 8283 160a 00       		.byte	0
 8284 160b 16       		.uleb128 0x16
 8285 160c 00070000 		.4byte	.LVL207
 8286 1610 202A0000 		.4byte	0x2a20
 8287 1614 23160000 		.4byte	0x1623
 8288 1618 17       		.uleb128 0x17
 8289 1619 01       		.uleb128 0x1
 8290 161a 51       		.byte	0x51
 8291 161b 01       		.uleb128 0x1
 8292 161c 3B       		.byte	0x3b
 8293 161d 17       		.uleb128 0x17
 8294 161e 01       		.uleb128 0x1
 8295 161f 50       		.byte	0x50
 8296 1620 01       		.uleb128 0x1
 8297 1621 31       		.byte	0x31
 8298 1622 00       		.byte	0
 8299 1623 16       		.uleb128 0x16
 8300 1624 16070000 		.4byte	.LVL208
 8301 1628 222B0000 		.4byte	0x2b22
 8302 162c 40160000 		.4byte	0x1640
 8303 1630 17       		.uleb128 0x17
 8304 1631 01       		.uleb128 0x1
 8305 1632 52       		.byte	0x52
 8306 1633 01       		.uleb128 0x1
 8307 1634 30       		.byte	0x30
 8308 1635 17       		.uleb128 0x17
 8309 1636 01       		.uleb128 0x1
 8310 1637 51       		.byte	0x51
 8311 1638 01       		.uleb128 0x1
 8312 1639 3A       		.byte	0x3a
 8313 163a 17       		.uleb128 0x17
 8314 163b 01       		.uleb128 0x1
ARM GAS  C:\Users\RECEPC~1\AppData\Local\Temp\ccoGpf2X.s 			page 186


 8315 163c 50       		.byte	0x50
 8316 163d 01       		.uleb128 0x1
 8317 163e 31       		.byte	0x31
 8318 163f 00       		.byte	0
 8319 1640 16       		.uleb128 0x16
 8320 1641 58070000 		.4byte	.LVL215
 8321 1645 202A0000 		.4byte	0x2a20
 8322 1649 58160000 		.4byte	0x1658
 8323 164d 17       		.uleb128 0x17
 8324 164e 01       		.uleb128 0x1
 8325 164f 51       		.byte	0x51
 8326 1650 01       		.uleb128 0x1
 8327 1651 31       		.byte	0x31
 8328 1652 17       		.uleb128 0x17
 8329 1653 01       		.uleb128 0x1
 8330 1654 50       		.byte	0x50
 8331 1655 01       		.uleb128 0x1
 8332 1656 31       		.byte	0x31
 8333 1657 00       		.byte	0
 8334 1658 14       		.uleb128 0x14
 8335 1659 A4070000 		.4byte	.LVL230
 8336 165d EC2A0000 		.4byte	0x2aec
 8337 1661 14       		.uleb128 0x14
 8338 1662 10080000 		.4byte	.LVL237
 8339 1666 B82B0000 		.4byte	0x2bb8
 8340 166a 16       		.uleb128 0x16
 8341 166b 1E080000 		.4byte	.LVL238
 8342 166f 202A0000 		.4byte	0x2a20
 8343 1673 82160000 		.4byte	0x1682
 8344 1677 17       		.uleb128 0x17
 8345 1678 01       		.uleb128 0x1
 8346 1679 51       		.byte	0x51
 8347 167a 01       		.uleb128 0x1
 8348 167b 31       		.byte	0x31
 8349 167c 17       		.uleb128 0x17
 8350 167d 01       		.uleb128 0x1
 8351 167e 50       		.byte	0x50
 8352 167f 01       		.uleb128 0x1
 8353 1680 31       		.byte	0x31
 8354 1681 00       		.byte	0
 8355 1682 16       		.uleb128 0x16
 8356 1683 2C080000 		.4byte	.LVL239
 8357 1687 202A0000 		.4byte	0x2a20
 8358 168b 9A160000 		.4byte	0x169a
 8359 168f 17       		.uleb128 0x17
 8360 1690 01       		.uleb128 0x1
 8361 1691 51       		.byte	0x51
 8362 1692 01       		.uleb128 0x1
 8363 1693 37       		.byte	0x37
 8364 1694 17       		.uleb128 0x17
 8365 1695 01       		.uleb128 0x1
 8366 1696 50       		.byte	0x50
 8367 1697 01       		.uleb128 0x1
 8368 1698 31       		.byte	0x31
 8369 1699 00       		.byte	0
 8370 169a 16       		.uleb128 0x16
 8371 169b 58080000 		.4byte	.LVL246
ARM GAS  C:\Users\RECEPC~1\AppData\Local\Temp\ccoGpf2X.s 			page 187


 8372 169f 202A0000 		.4byte	0x2a20
 8373 16a3 B2160000 		.4byte	0x16b2
 8374 16a7 17       		.uleb128 0x17
 8375 16a8 01       		.uleb128 0x1
 8376 16a9 51       		.byte	0x51
 8377 16aa 01       		.uleb128 0x1
 8378 16ab 37       		.byte	0x37
 8379 16ac 17       		.uleb128 0x17
 8380 16ad 01       		.uleb128 0x1
 8381 16ae 50       		.byte	0x50
 8382 16af 01       		.uleb128 0x1
 8383 16b0 31       		.byte	0x31
 8384 16b1 00       		.byte	0
 8385 16b2 16       		.uleb128 0x16
 8386 16b3 B6080000 		.4byte	.LVL257
 8387 16b7 202A0000 		.4byte	0x2a20
 8388 16bb CB160000 		.4byte	0x16cb
 8389 16bf 17       		.uleb128 0x17
 8390 16c0 01       		.uleb128 0x1
 8391 16c1 51       		.byte	0x51
 8392 16c2 02       		.uleb128 0x2
 8393 16c3 08       		.byte	0x8
 8394 16c4 25       		.byte	0x25
 8395 16c5 17       		.uleb128 0x17
 8396 16c6 01       		.uleb128 0x1
 8397 16c7 50       		.byte	0x50
 8398 16c8 01       		.uleb128 0x1
 8399 16c9 31       		.byte	0x31
 8400 16ca 00       		.byte	0
 8401 16cb 14       		.uleb128 0x14
 8402 16cc BA080000 		.4byte	.LVL258
 8403 16d0 EC2A0000 		.4byte	0x2aec
 8404 16d4 14       		.uleb128 0x14
 8405 16d5 C2080000 		.4byte	.LVL259
 8406 16d9 E12A0000 		.4byte	0x2ae1
 8407 16dd 16       		.uleb128 0x16
 8408 16de 14090000 		.4byte	.LVL260
 8409 16e2 202A0000 		.4byte	0x2a20
 8410 16e6 F5160000 		.4byte	0x16f5
 8411 16ea 17       		.uleb128 0x17
 8412 16eb 01       		.uleb128 0x1
 8413 16ec 51       		.byte	0x51
 8414 16ed 01       		.uleb128 0x1
 8415 16ee 42       		.byte	0x42
 8416 16ef 17       		.uleb128 0x17
 8417 16f0 01       		.uleb128 0x1
 8418 16f1 50       		.byte	0x50
 8419 16f2 01       		.uleb128 0x1
 8420 16f3 31       		.byte	0x31
 8421 16f4 00       		.byte	0
 8422 16f5 16       		.uleb128 0x16
 8423 16f6 2E090000 		.4byte	.LVL261
 8424 16fa 202A0000 		.4byte	0x2a20
 8425 16fe 0D170000 		.4byte	0x170d
 8426 1702 17       		.uleb128 0x17
 8427 1703 01       		.uleb128 0x1
 8428 1704 51       		.byte	0x51
ARM GAS  C:\Users\RECEPC~1\AppData\Local\Temp\ccoGpf2X.s 			page 188


 8429 1705 01       		.uleb128 0x1
 8430 1706 37       		.byte	0x37
 8431 1707 17       		.uleb128 0x17
 8432 1708 01       		.uleb128 0x1
 8433 1709 50       		.byte	0x50
 8434 170a 01       		.uleb128 0x1
 8435 170b 31       		.byte	0x31
 8436 170c 00       		.byte	0
 8437 170d 16       		.uleb128 0x16
 8438 170e 38090000 		.4byte	.LVL262
 8439 1712 202A0000 		.4byte	0x2a20
 8440 1716 25170000 		.4byte	0x1725
 8441 171a 17       		.uleb128 0x17
 8442 171b 01       		.uleb128 0x1
 8443 171c 51       		.byte	0x51
 8444 171d 01       		.uleb128 0x1
 8445 171e 31       		.byte	0x31
 8446 171f 17       		.uleb128 0x17
 8447 1720 01       		.uleb128 0x1
 8448 1721 50       		.byte	0x50
 8449 1722 01       		.uleb128 0x1
 8450 1723 31       		.byte	0x31
 8451 1724 00       		.byte	0
 8452 1725 16       		.uleb128 0x16
 8453 1726 44090000 		.4byte	.LVL263
 8454 172a 572A0000 		.4byte	0x2a57
 8455 172e 38170000 		.4byte	0x1738
 8456 1732 17       		.uleb128 0x17
 8457 1733 01       		.uleb128 0x1
 8458 1734 50       		.byte	0x50
 8459 1735 01       		.uleb128 0x1
 8460 1736 3A       		.byte	0x3a
 8461 1737 00       		.byte	0
 8462 1738 14       		.uleb128 0x14
 8463 1739 48090000 		.4byte	.LVL264
 8464 173d EC2A0000 		.4byte	0x2aec
 8465 1741 16       		.uleb128 0x16
 8466 1742 52090000 		.4byte	.LVL265
 8467 1746 412B0000 		.4byte	0x2b41
 8468 174a 58170000 		.4byte	0x1758
 8469 174e 17       		.uleb128 0x17
 8470 174f 01       		.uleb128 0x1
 8471 1750 50       		.byte	0x50
 8472 1751 05       		.uleb128 0x5
 8473 1752 03       		.byte	0x3
 8474 1753 00000000 		.4byte	animacion
 8475 1757 00       		.byte	0
 8476 1758 14       		.uleb128 0x14
 8477 1759 56090000 		.4byte	.LVL266
 8478 175d 522B0000 		.4byte	0x2b52
 8479 1761 16       		.uleb128 0x16
 8480 1762 5C090000 		.4byte	.LVL267
 8481 1766 CE2B0000 		.4byte	0x2bce
 8482 176a 74170000 		.4byte	0x1774
 8483 176e 17       		.uleb128 0x17
 8484 176f 01       		.uleb128 0x1
 8485 1770 50       		.byte	0x50
ARM GAS  C:\Users\RECEPC~1\AppData\Local\Temp\ccoGpf2X.s 			page 189


 8486 1771 01       		.uleb128 0x1
 8487 1772 31       		.byte	0x31
 8488 1773 00       		.byte	0
 8489 1774 16       		.uleb128 0x16
 8490 1775 66090000 		.4byte	.LVL268
 8491 1779 E32B0000 		.4byte	0x2be3
 8492 177d 88170000 		.4byte	0x1788
 8493 1781 17       		.uleb128 0x17
 8494 1782 01       		.uleb128 0x1
 8495 1783 51       		.byte	0x51
 8496 1784 02       		.uleb128 0x2
 8497 1785 08       		.byte	0x8
 8498 1786 33       		.byte	0x33
 8499 1787 00       		.byte	0
 8500 1788 16       		.uleb128 0x16
 8501 1789 70090000 		.4byte	.LVL270
 8502 178d FD2B0000 		.4byte	0x2bfd
 8503 1791 9B170000 		.4byte	0x179b
 8504 1795 17       		.uleb128 0x17
 8505 1796 01       		.uleb128 0x1
 8506 1797 50       		.byte	0x50
 8507 1798 01       		.uleb128 0x1
 8508 1799 31       		.byte	0x31
 8509 179a 00       		.byte	0
 8510 179b 14       		.uleb128 0x14
 8511 179c 8E090000 		.4byte	.LVL277
 8512 17a0 122C0000 		.4byte	0x2c12
 8513 17a4 16       		.uleb128 0x16
 8514 17a5 F6090000 		.4byte	.LVL289
 8515 17a9 202A0000 		.4byte	0x2a20
 8516 17ad BC170000 		.4byte	0x17bc
 8517 17b1 17       		.uleb128 0x17
 8518 17b2 01       		.uleb128 0x1
 8519 17b3 51       		.byte	0x51
 8520 17b4 01       		.uleb128 0x1
 8521 17b5 43       		.byte	0x43
 8522 17b6 17       		.uleb128 0x17
 8523 17b7 01       		.uleb128 0x1
 8524 17b8 50       		.byte	0x50
 8525 17b9 01       		.uleb128 0x1
 8526 17ba 31       		.byte	0x31
 8527 17bb 00       		.byte	0
 8528 17bc 14       		.uleb128 0x14
 8529 17bd FA090000 		.4byte	.LVL290
 8530 17c1 EC2A0000 		.4byte	0x2aec
 8531 17c5 16       		.uleb128 0x16
 8532 17c6 020A0000 		.4byte	.LVL291
 8533 17ca 572A0000 		.4byte	0x2a57
 8534 17ce DA170000 		.4byte	0x17da
 8535 17d2 17       		.uleb128 0x17
 8536 17d3 01       		.uleb128 0x1
 8537 17d4 50       		.byte	0x50
 8538 17d5 03       		.uleb128 0x3
 8539 17d6 0A       		.byte	0xa
 8540 17d7 BC02     		.2byte	0x2bc
 8541 17d9 00       		.byte	0
 8542 17da 16       		.uleb128 0x16
ARM GAS  C:\Users\RECEPC~1\AppData\Local\Temp\ccoGpf2X.s 			page 190


 8543 17db 180A0000 		.4byte	.LVL292
 8544 17df 202A0000 		.4byte	0x2a20
 8545 17e3 F2170000 		.4byte	0x17f2
 8546 17e7 17       		.uleb128 0x17
 8547 17e8 01       		.uleb128 0x1
 8548 17e9 51       		.byte	0x51
 8549 17ea 01       		.uleb128 0x1
 8550 17eb 3E       		.byte	0x3e
 8551 17ec 17       		.uleb128 0x17
 8552 17ed 01       		.uleb128 0x1
 8553 17ee 50       		.byte	0x50
 8554 17ef 01       		.uleb128 0x1
 8555 17f0 31       		.byte	0x31
 8556 17f1 00       		.byte	0
 8557 17f2 16       		.uleb128 0x16
 8558 17f3 340A0000 		.4byte	.LVL293
 8559 17f7 202A0000 		.4byte	0x2a20
 8560 17fb 0A180000 		.4byte	0x180a
 8561 17ff 17       		.uleb128 0x17
 8562 1800 01       		.uleb128 0x1
 8563 1801 51       		.byte	0x51
 8564 1802 01       		.uleb128 0x1
 8565 1803 31       		.byte	0x31
 8566 1804 17       		.uleb128 0x17
 8567 1805 01       		.uleb128 0x1
 8568 1806 50       		.byte	0x50
 8569 1807 01       		.uleb128 0x1
 8570 1808 31       		.byte	0x31
 8571 1809 00       		.byte	0
 8572 180a 14       		.uleb128 0x14
 8573 180b 3C0A0000 		.4byte	.LVL294
 8574 180f E12A0000 		.4byte	0x2ae1
 8575 1813 16       		.uleb128 0x16
 8576 1814 9A0A0000 		.4byte	.LVL295
 8577 1818 202A0000 		.4byte	0x2a20
 8578 181c 2C180000 		.4byte	0x182c
 8579 1820 17       		.uleb128 0x17
 8580 1821 01       		.uleb128 0x1
 8581 1822 51       		.byte	0x51
 8582 1823 02       		.uleb128 0x2
 8583 1824 08       		.byte	0x8
 8584 1825 2A       		.byte	0x2a
 8585 1826 17       		.uleb128 0x17
 8586 1827 01       		.uleb128 0x1
 8587 1828 50       		.byte	0x50
 8588 1829 01       		.uleb128 0x1
 8589 182a 31       		.byte	0x31
 8590 182b 00       		.byte	0
 8591 182c 16       		.uleb128 0x16
 8592 182d A40A0000 		.4byte	.LVL296
 8593 1831 202A0000 		.4byte	0x2a20
 8594 1835 45180000 		.4byte	0x1845
 8595 1839 17       		.uleb128 0x17
 8596 183a 01       		.uleb128 0x1
 8597 183b 51       		.byte	0x51
 8598 183c 02       		.uleb128 0x2
 8599 183d 08       		.byte	0x8
ARM GAS  C:\Users\RECEPC~1\AppData\Local\Temp\ccoGpf2X.s 			page 191


 8600 183e 23       		.byte	0x23
 8601 183f 17       		.uleb128 0x17
 8602 1840 01       		.uleb128 0x1
 8603 1841 50       		.byte	0x50
 8604 1842 01       		.uleb128 0x1
 8605 1843 31       		.byte	0x31
 8606 1844 00       		.byte	0
 8607 1845 16       		.uleb128 0x16
 8608 1846 000B0000 		.4byte	.LVL297
 8609 184a 202A0000 		.4byte	0x2a20
 8610 184e 5E180000 		.4byte	0x185e
 8611 1852 17       		.uleb128 0x17
 8612 1853 01       		.uleb128 0x1
 8613 1854 51       		.byte	0x51
 8614 1855 02       		.uleb128 0x2
 8615 1856 08       		.byte	0x8
 8616 1857 25       		.byte	0x25
 8617 1858 17       		.uleb128 0x17
 8618 1859 01       		.uleb128 0x1
 8619 185a 50       		.byte	0x50
 8620 185b 01       		.uleb128 0x1
 8621 185c 31       		.byte	0x31
 8622 185d 00       		.byte	0
 8623 185e 16       		.uleb128 0x16
 8624 185f 100B0000 		.4byte	.LVL298
 8625 1863 202A0000 		.4byte	0x2a20
 8626 1867 77180000 		.4byte	0x1877
 8627 186b 17       		.uleb128 0x17
 8628 186c 01       		.uleb128 0x1
 8629 186d 51       		.byte	0x51
 8630 186e 02       		.uleb128 0x2
 8631 186f 08       		.byte	0x8
 8632 1870 83       		.byte	0x83
 8633 1871 17       		.uleb128 0x17
 8634 1872 01       		.uleb128 0x1
 8635 1873 50       		.byte	0x50
 8636 1874 01       		.uleb128 0x1
 8637 1875 31       		.byte	0x31
 8638 1876 00       		.byte	0
 8639 1877 16       		.uleb128 0x16
 8640 1878 200B0000 		.4byte	.LVL299
 8641 187c 202A0000 		.4byte	0x2a20
 8642 1880 8F180000 		.4byte	0x188f
 8643 1884 17       		.uleb128 0x17
 8644 1885 01       		.uleb128 0x1
 8645 1886 51       		.byte	0x51
 8646 1887 01       		.uleb128 0x1
 8647 1888 31       		.byte	0x31
 8648 1889 17       		.uleb128 0x17
 8649 188a 01       		.uleb128 0x1
 8650 188b 50       		.byte	0x50
 8651 188c 01       		.uleb128 0x1
 8652 188d 31       		.byte	0x31
 8653 188e 00       		.byte	0
 8654 188f 16       		.uleb128 0x16
 8655 1890 300B0000 		.4byte	.LVL300
 8656 1894 202A0000 		.4byte	0x2a20
ARM GAS  C:\Users\RECEPC~1\AppData\Local\Temp\ccoGpf2X.s 			page 192


 8657 1898 A7180000 		.4byte	0x18a7
 8658 189c 17       		.uleb128 0x17
 8659 189d 01       		.uleb128 0x1
 8660 189e 51       		.byte	0x51
 8661 189f 01       		.uleb128 0x1
 8662 18a0 31       		.byte	0x31
 8663 18a1 17       		.uleb128 0x17
 8664 18a2 01       		.uleb128 0x1
 8665 18a3 50       		.byte	0x50
 8666 18a4 01       		.uleb128 0x1
 8667 18a5 31       		.byte	0x31
 8668 18a6 00       		.byte	0
 8669 18a7 16       		.uleb128 0x16
 8670 18a8 400B0000 		.4byte	.LVL301
 8671 18ac 202A0000 		.4byte	0x2a20
 8672 18b0 BF180000 		.4byte	0x18bf
 8673 18b4 17       		.uleb128 0x17
 8674 18b5 01       		.uleb128 0x1
 8675 18b6 51       		.byte	0x51
 8676 18b7 01       		.uleb128 0x1
 8677 18b8 31       		.byte	0x31
 8678 18b9 17       		.uleb128 0x17
 8679 18ba 01       		.uleb128 0x1
 8680 18bb 50       		.byte	0x50
 8681 18bc 01       		.uleb128 0x1
 8682 18bd 31       		.byte	0x31
 8683 18be 00       		.byte	0
 8684 18bf 16       		.uleb128 0x16
 8685 18c0 460B0000 		.4byte	.LVL302
 8686 18c4 572A0000 		.4byte	0x2a57
 8687 18c8 D2180000 		.4byte	0x18d2
 8688 18cc 17       		.uleb128 0x17
 8689 18cd 01       		.uleb128 0x1
 8690 18ce 50       		.byte	0x50
 8691 18cf 01       		.uleb128 0x1
 8692 18d0 3A       		.byte	0x3a
 8693 18d1 00       		.byte	0
 8694 18d2 14       		.uleb128 0x14
 8695 18d3 4A0B0000 		.4byte	.LVL303
 8696 18d7 EC2A0000 		.4byte	0x2aec
 8697 18db 14       		.uleb128 0x14
 8698 18dc 500B0000 		.4byte	.LVL304
 8699 18e0 E12A0000 		.4byte	0x2ae1
 8700 18e4 16       		.uleb128 0x16
 8701 18e5 AC0B0000 		.4byte	.LVL305
 8702 18e9 202A0000 		.4byte	0x2a20
 8703 18ed FD180000 		.4byte	0x18fd
 8704 18f1 17       		.uleb128 0x17
 8705 18f2 01       		.uleb128 0x1
 8706 18f3 51       		.byte	0x51
 8707 18f4 02       		.uleb128 0x2
 8708 18f5 08       		.byte	0x8
 8709 18f6 24       		.byte	0x24
 8710 18f7 17       		.uleb128 0x17
 8711 18f8 01       		.uleb128 0x1
 8712 18f9 50       		.byte	0x50
 8713 18fa 01       		.uleb128 0x1
ARM GAS  C:\Users\RECEPC~1\AppData\Local\Temp\ccoGpf2X.s 			page 193


 8714 18fb 31       		.byte	0x31
 8715 18fc 00       		.byte	0
 8716 18fd 16       		.uleb128 0x16
 8717 18fe CA0B0000 		.4byte	.LVL306
 8718 1902 202A0000 		.4byte	0x2a20
 8719 1906 16190000 		.4byte	0x1916
 8720 190a 17       		.uleb128 0x17
 8721 190b 01       		.uleb128 0x1
 8722 190c 51       		.byte	0x51
 8723 190d 02       		.uleb128 0x2
 8724 190e 08       		.byte	0x8
 8725 190f 24       		.byte	0x24
 8726 1910 17       		.uleb128 0x17
 8727 1911 01       		.uleb128 0x1
 8728 1912 50       		.byte	0x50
 8729 1913 01       		.uleb128 0x1
 8730 1914 31       		.byte	0x31
 8731 1915 00       		.byte	0
 8732 1916 16       		.uleb128 0x16
 8733 1917 D40B0000 		.4byte	.LVL307
 8734 191b 202A0000 		.4byte	0x2a20
 8735 191f 2E190000 		.4byte	0x192e
 8736 1923 17       		.uleb128 0x17
 8737 1924 01       		.uleb128 0x1
 8738 1925 51       		.byte	0x51
 8739 1926 01       		.uleb128 0x1
 8740 1927 31       		.byte	0x31
 8741 1928 17       		.uleb128 0x17
 8742 1929 01       		.uleb128 0x1
 8743 192a 50       		.byte	0x50
 8744 192b 01       		.uleb128 0x1
 8745 192c 31       		.byte	0x31
 8746 192d 00       		.byte	0
 8747 192e 16       		.uleb128 0x16
 8748 192f E40B0000 		.4byte	.LVL308
 8749 1933 202A0000 		.4byte	0x2a20
 8750 1937 46190000 		.4byte	0x1946
 8751 193b 17       		.uleb128 0x17
 8752 193c 01       		.uleb128 0x1
 8753 193d 51       		.byte	0x51
 8754 193e 01       		.uleb128 0x1
 8755 193f 31       		.byte	0x31
 8756 1940 17       		.uleb128 0x17
 8757 1941 01       		.uleb128 0x1
 8758 1942 50       		.byte	0x50
 8759 1943 01       		.uleb128 0x1
 8760 1944 31       		.byte	0x31
 8761 1945 00       		.byte	0
 8762 1946 16       		.uleb128 0x16
 8763 1947 F00B0000 		.4byte	.LVL309
 8764 194b 572A0000 		.4byte	0x2a57
 8765 194f 59190000 		.4byte	0x1959
 8766 1953 17       		.uleb128 0x17
 8767 1954 01       		.uleb128 0x1
 8768 1955 50       		.byte	0x50
 8769 1956 01       		.uleb128 0x1
 8770 1957 3A       		.byte	0x3a
ARM GAS  C:\Users\RECEPC~1\AppData\Local\Temp\ccoGpf2X.s 			page 194


 8771 1958 00       		.byte	0
 8772 1959 14       		.uleb128 0x14
 8773 195a F40B0000 		.4byte	.LVL310
 8774 195e EC2A0000 		.4byte	0x2aec
 8775 1962 16       		.uleb128 0x16
 8776 1963 040C0000 		.4byte	.LVL311
 8777 1967 222B0000 		.4byte	0x2b22
 8778 196b 75190000 		.4byte	0x1975
 8779 196f 17       		.uleb128 0x17
 8780 1970 01       		.uleb128 0x1
 8781 1971 50       		.byte	0x50
 8782 1972 01       		.uleb128 0x1
 8783 1973 31       		.byte	0x31
 8784 1974 00       		.byte	0
 8785 1975 16       		.uleb128 0x16
 8786 1976 420C0000 		.4byte	.LVL318
 8787 197a 202A0000 		.4byte	0x2a20
 8788 197e 8D190000 		.4byte	0x198d
 8789 1982 17       		.uleb128 0x17
 8790 1983 01       		.uleb128 0x1
 8791 1984 51       		.byte	0x51
 8792 1985 01       		.uleb128 0x1
 8793 1986 31       		.byte	0x31
 8794 1987 17       		.uleb128 0x17
 8795 1988 01       		.uleb128 0x1
 8796 1989 50       		.byte	0x50
 8797 198a 01       		.uleb128 0x1
 8798 198b 31       		.byte	0x31
 8799 198c 00       		.byte	0
 8800 198d 16       		.uleb128 0x16
 8801 198e 680C0000 		.4byte	.LVL325
 8802 1992 202A0000 		.4byte	0x2a20
 8803 1996 A5190000 		.4byte	0x19a5
 8804 199a 17       		.uleb128 0x17
 8805 199b 01       		.uleb128 0x1
 8806 199c 51       		.byte	0x51
 8807 199d 01       		.uleb128 0x1
 8808 199e 31       		.byte	0x31
 8809 199f 17       		.uleb128 0x17
 8810 19a0 01       		.uleb128 0x1
 8811 19a1 50       		.byte	0x50
 8812 19a2 01       		.uleb128 0x1
 8813 19a3 31       		.byte	0x31
 8814 19a4 00       		.byte	0
 8815 19a5 16       		.uleb128 0x16
 8816 19a6 920C0000 		.4byte	.LVL332
 8817 19aa 202A0000 		.4byte	0x2a20
 8818 19ae BD190000 		.4byte	0x19bd
 8819 19b2 17       		.uleb128 0x17
 8820 19b3 01       		.uleb128 0x1
 8821 19b4 51       		.byte	0x51
 8822 19b5 01       		.uleb128 0x1
 8823 19b6 31       		.byte	0x31
 8824 19b7 17       		.uleb128 0x17
 8825 19b8 01       		.uleb128 0x1
 8826 19b9 50       		.byte	0x50
 8827 19ba 01       		.uleb128 0x1
ARM GAS  C:\Users\RECEPC~1\AppData\Local\Temp\ccoGpf2X.s 			page 195


 8828 19bb 31       		.byte	0x31
 8829 19bc 00       		.byte	0
 8830 19bd 16       		.uleb128 0x16
 8831 19be B80C0000 		.4byte	.LVL339
 8832 19c2 202A0000 		.4byte	0x2a20
 8833 19c6 D5190000 		.4byte	0x19d5
 8834 19ca 17       		.uleb128 0x17
 8835 19cb 01       		.uleb128 0x1
 8836 19cc 51       		.byte	0x51
 8837 19cd 01       		.uleb128 0x1
 8838 19ce 31       		.byte	0x31
 8839 19cf 17       		.uleb128 0x17
 8840 19d0 01       		.uleb128 0x1
 8841 19d1 50       		.byte	0x50
 8842 19d2 01       		.uleb128 0x1
 8843 19d3 31       		.byte	0x31
 8844 19d4 00       		.byte	0
 8845 19d5 14       		.uleb128 0x14
 8846 19d6 BC0C0000 		.4byte	.LVL340
 8847 19da EC2A0000 		.4byte	0x2aec
 8848 19de 16       		.uleb128 0x16
 8849 19df F80C0000 		.4byte	.LVL346
 8850 19e3 2C2C0000 		.4byte	0x2c2c
 8851 19e7 F5190000 		.4byte	0x19f5
 8852 19eb 17       		.uleb128 0x17
 8853 19ec 01       		.uleb128 0x1
 8854 19ed 50       		.byte	0x50
 8855 19ee 05       		.uleb128 0x5
 8856 19ef 03       		.byte	0x3
 8857 19f0 00000000 		.4byte	idStation
 8858 19f4 00       		.byte	0
 8859 19f5 16       		.uleb128 0x16
 8860 19f6 100D0000 		.4byte	.LVL347
 8861 19fa F1290000 		.4byte	0x29f1
 8862 19fe 081A0000 		.4byte	0x1a08
 8863 1a02 17       		.uleb128 0x17
 8864 1a03 01       		.uleb128 0x1
 8865 1a04 51       		.byte	0x51
 8866 1a05 01       		.uleb128 0x1
 8867 1a06 3A       		.byte	0x3a
 8868 1a07 00       		.byte	0
 8869 1a08 16       		.uleb128 0x16
 8870 1a09 180D0000 		.4byte	.LVL348
 8871 1a0d F1290000 		.4byte	0x29f1
 8872 1a11 1B1A0000 		.4byte	0x1a1b
 8873 1a15 17       		.uleb128 0x17
 8874 1a16 01       		.uleb128 0x1
 8875 1a17 51       		.byte	0x51
 8876 1a18 01       		.uleb128 0x1
 8877 1a19 3B       		.byte	0x3b
 8878 1a1a 00       		.byte	0
 8879 1a1b 16       		.uleb128 0x16
 8880 1a1c 260D0000 		.4byte	.LVL349
 8881 1a20 202A0000 		.4byte	0x2a20
 8882 1a24 341A0000 		.4byte	0x1a34
 8883 1a28 17       		.uleb128 0x17
 8884 1a29 01       		.uleb128 0x1
ARM GAS  C:\Users\RECEPC~1\AppData\Local\Temp\ccoGpf2X.s 			page 196


 8885 1a2a 51       		.byte	0x51
 8886 1a2b 02       		.uleb128 0x2
 8887 1a2c 08       		.byte	0x8
 8888 1a2d 5A       		.byte	0x5a
 8889 1a2e 17       		.uleb128 0x17
 8890 1a2f 01       		.uleb128 0x1
 8891 1a30 50       		.byte	0x50
 8892 1a31 01       		.uleb128 0x1
 8893 1a32 31       		.byte	0x31
 8894 1a33 00       		.byte	0
 8895 1a34 16       		.uleb128 0x16
 8896 1a35 520D0000 		.4byte	.LVL356
 8897 1a39 202A0000 		.4byte	0x2a20
 8898 1a3d 4D1A0000 		.4byte	0x1a4d
 8899 1a41 17       		.uleb128 0x17
 8900 1a42 01       		.uleb128 0x1
 8901 1a43 51       		.byte	0x51
 8902 1a44 02       		.uleb128 0x2
 8903 1a45 08       		.byte	0x8
 8904 1a46 5A       		.byte	0x5a
 8905 1a47 17       		.uleb128 0x17
 8906 1a48 01       		.uleb128 0x1
 8907 1a49 50       		.byte	0x50
 8908 1a4a 01       		.uleb128 0x1
 8909 1a4b 31       		.byte	0x31
 8910 1a4c 00       		.byte	0
 8911 1a4d 16       		.uleb128 0x16
 8912 1a4e 7E0D0000 		.4byte	.LVL363
 8913 1a52 202A0000 		.4byte	0x2a20
 8914 1a56 661A0000 		.4byte	0x1a66
 8915 1a5a 17       		.uleb128 0x17
 8916 1a5b 01       		.uleb128 0x1
 8917 1a5c 51       		.byte	0x51
 8918 1a5d 02       		.uleb128 0x2
 8919 1a5e 08       		.byte	0x8
 8920 1a5f 5A       		.byte	0x5a
 8921 1a60 17       		.uleb128 0x17
 8922 1a61 01       		.uleb128 0x1
 8923 1a62 50       		.byte	0x50
 8924 1a63 01       		.uleb128 0x1
 8925 1a64 31       		.byte	0x31
 8926 1a65 00       		.byte	0
 8927 1a66 16       		.uleb128 0x16
 8928 1a67 000E0000 		.4byte	.LVL370
 8929 1a6b 202A0000 		.4byte	0x2a20
 8930 1a6f 7F1A0000 		.4byte	0x1a7f
 8931 1a73 17       		.uleb128 0x17
 8932 1a74 01       		.uleb128 0x1
 8933 1a75 51       		.byte	0x51
 8934 1a76 02       		.uleb128 0x2
 8935 1a77 08       		.byte	0x8
 8936 1a78 26       		.byte	0x26
 8937 1a79 17       		.uleb128 0x17
 8938 1a7a 01       		.uleb128 0x1
 8939 1a7b 50       		.byte	0x50
 8940 1a7c 01       		.uleb128 0x1
 8941 1a7d 31       		.byte	0x31
ARM GAS  C:\Users\RECEPC~1\AppData\Local\Temp\ccoGpf2X.s 			page 197


 8942 1a7e 00       		.byte	0
 8943 1a7f 16       		.uleb128 0x16
 8944 1a80 080E0000 		.4byte	.LVL371
 8945 1a84 572A0000 		.4byte	0x2a57
 8946 1a88 941A0000 		.4byte	0x1a94
 8947 1a8c 17       		.uleb128 0x17
 8948 1a8d 01       		.uleb128 0x1
 8949 1a8e 50       		.byte	0x50
 8950 1a8f 03       		.uleb128 0x3
 8951 1a90 0A       		.byte	0xa
 8952 1a91 BC02     		.2byte	0x2bc
 8953 1a93 00       		.byte	0
 8954 1a94 16       		.uleb128 0x16
 8955 1a95 160E0000 		.4byte	.LVL372
 8956 1a99 202A0000 		.4byte	0x2a20
 8957 1a9d AD1A0000 		.4byte	0x1aad
 8958 1aa1 17       		.uleb128 0x17
 8959 1aa2 01       		.uleb128 0x1
 8960 1aa3 51       		.byte	0x51
 8961 1aa4 02       		.uleb128 0x2
 8962 1aa5 08       		.byte	0x8
 8963 1aa6 5A       		.byte	0x5a
 8964 1aa7 17       		.uleb128 0x17
 8965 1aa8 01       		.uleb128 0x1
 8966 1aa9 50       		.byte	0x50
 8967 1aaa 01       		.uleb128 0x1
 8968 1aab 31       		.byte	0x31
 8969 1aac 00       		.byte	0
 8970 1aad 16       		.uleb128 0x16
 8971 1aae 200E0000 		.4byte	.LVL373
 8972 1ab2 202A0000 		.4byte	0x2a20
 8973 1ab6 C61A0000 		.4byte	0x1ac6
 8974 1aba 17       		.uleb128 0x17
 8975 1abb 01       		.uleb128 0x1
 8976 1abc 51       		.byte	0x51
 8977 1abd 02       		.uleb128 0x2
 8978 1abe 08       		.byte	0x8
 8979 1abf 27       		.byte	0x27
 8980 1ac0 17       		.uleb128 0x17
 8981 1ac1 01       		.uleb128 0x1
 8982 1ac2 50       		.byte	0x50
 8983 1ac3 01       		.uleb128 0x1
 8984 1ac4 31       		.byte	0x31
 8985 1ac5 00       		.byte	0
 8986 1ac6 16       		.uleb128 0x16
 8987 1ac7 280E0000 		.4byte	.LVL374
 8988 1acb 572A0000 		.4byte	0x2a57
 8989 1acf DB1A0000 		.4byte	0x1adb
 8990 1ad3 17       		.uleb128 0x17
 8991 1ad4 01       		.uleb128 0x1
 8992 1ad5 50       		.byte	0x50
 8993 1ad6 03       		.uleb128 0x3
 8994 1ad7 0A       		.byte	0xa
 8995 1ad8 BC02     		.2byte	0x2bc
 8996 1ada 00       		.byte	0
 8997 1adb 16       		.uleb128 0x16
 8998 1adc 360E0000 		.4byte	.LVL375
ARM GAS  C:\Users\RECEPC~1\AppData\Local\Temp\ccoGpf2X.s 			page 198


 8999 1ae0 202A0000 		.4byte	0x2a20
 9000 1ae4 F31A0000 		.4byte	0x1af3
 9001 1ae8 17       		.uleb128 0x17
 9002 1ae9 01       		.uleb128 0x1
 9003 1aea 51       		.byte	0x51
 9004 1aeb 01       		.uleb128 0x1
 9005 1aec 31       		.byte	0x31
 9006 1aed 17       		.uleb128 0x17
 9007 1aee 01       		.uleb128 0x1
 9008 1aef 50       		.byte	0x50
 9009 1af0 01       		.uleb128 0x1
 9010 1af1 31       		.byte	0x31
 9011 1af2 00       		.byte	0
 9012 1af3 14       		.uleb128 0x14
 9013 1af4 3A0E0000 		.4byte	.LVL376
 9014 1af8 EC2A0000 		.4byte	0x2aec
 9015 1afc 14       		.uleb128 0x14
 9016 1afd 400E0000 		.4byte	.LVL377
 9017 1b01 E12A0000 		.4byte	0x2ae1
 9018 1b05 16       		.uleb128 0x16
 9019 1b06 D60E0000 		.4byte	.LVL378
 9020 1b0a 202A0000 		.4byte	0x2a20
 9021 1b0e 1D1B0000 		.4byte	0x1b1d
 9022 1b12 17       		.uleb128 0x17
 9023 1b13 01       		.uleb128 0x1
 9024 1b14 51       		.byte	0x51
 9025 1b15 01       		.uleb128 0x1
 9026 1b16 36       		.byte	0x36
 9027 1b17 17       		.uleb128 0x17
 9028 1b18 01       		.uleb128 0x1
 9029 1b19 50       		.byte	0x50
 9030 1b1a 01       		.uleb128 0x1
 9031 1b1b 31       		.byte	0x31
 9032 1b1c 00       		.byte	0
 9033 1b1d 14       		.uleb128 0x14
 9034 1b1e E20E0000 		.4byte	.LVL379
 9035 1b22 5C0D0000 		.4byte	0xd5c
 9036 1b26 16       		.uleb128 0x16
 9037 1b27 EA0E0000 		.4byte	.LVL380
 9038 1b2b 202A0000 		.4byte	0x2a20
 9039 1b2f 3F1B0000 		.4byte	0x1b3f
 9040 1b33 17       		.uleb128 0x17
 9041 1b34 01       		.uleb128 0x1
 9042 1b35 51       		.byte	0x51
 9043 1b36 02       		.uleb128 0x2
 9044 1b37 08       		.byte	0x8
 9045 1b38 6B       		.byte	0x6b
 9046 1b39 17       		.uleb128 0x17
 9047 1b3a 01       		.uleb128 0x1
 9048 1b3b 50       		.byte	0x50
 9049 1b3c 01       		.uleb128 0x1
 9050 1b3d 31       		.byte	0x31
 9051 1b3e 00       		.byte	0
 9052 1b3f 16       		.uleb128 0x16
 9053 1b40 160F0000 		.4byte	.LVL381
 9054 1b44 202A0000 		.4byte	0x2a20
 9055 1b48 571B0000 		.4byte	0x1b57
ARM GAS  C:\Users\RECEPC~1\AppData\Local\Temp\ccoGpf2X.s 			page 199


 9056 1b4c 17       		.uleb128 0x17
 9057 1b4d 01       		.uleb128 0x1
 9058 1b4e 51       		.byte	0x51
 9059 1b4f 01       		.uleb128 0x1
 9060 1b50 36       		.byte	0x36
 9061 1b51 17       		.uleb128 0x17
 9062 1b52 01       		.uleb128 0x1
 9063 1b53 50       		.byte	0x50
 9064 1b54 01       		.uleb128 0x1
 9065 1b55 31       		.byte	0x31
 9066 1b56 00       		.byte	0
 9067 1b57 16       		.uleb128 0x16
 9068 1b58 340F0000 		.4byte	.LVL382
 9069 1b5c 202A0000 		.4byte	0x2a20
 9070 1b60 701B0000 		.4byte	0x1b70
 9071 1b64 17       		.uleb128 0x17
 9072 1b65 01       		.uleb128 0x1
 9073 1b66 51       		.byte	0x51
 9074 1b67 02       		.uleb128 0x2
 9075 1b68 08       		.byte	0x8
 9076 1b69 3E       		.byte	0x3e
 9077 1b6a 17       		.uleb128 0x17
 9078 1b6b 01       		.uleb128 0x1
 9079 1b6c 50       		.byte	0x50
 9080 1b6d 01       		.uleb128 0x1
 9081 1b6e 31       		.byte	0x31
 9082 1b6f 00       		.byte	0
 9083 1b70 16       		.uleb128 0x16
 9084 1b71 3E0F0000 		.4byte	.LVL383
 9085 1b75 202A0000 		.4byte	0x2a20
 9086 1b79 881B0000 		.4byte	0x1b88
 9087 1b7d 17       		.uleb128 0x17
 9088 1b7e 01       		.uleb128 0x1
 9089 1b7f 51       		.byte	0x51
 9090 1b80 01       		.uleb128 0x1
 9091 1b81 31       		.byte	0x31
 9092 1b82 17       		.uleb128 0x17
 9093 1b83 01       		.uleb128 0x1
 9094 1b84 50       		.byte	0x50
 9095 1b85 01       		.uleb128 0x1
 9096 1b86 31       		.byte	0x31
 9097 1b87 00       		.byte	0
 9098 1b88 16       		.uleb128 0x16
 9099 1b89 4E0F0000 		.4byte	.LVL384
 9100 1b8d 202A0000 		.4byte	0x2a20
 9101 1b91 A01B0000 		.4byte	0x1ba0
 9102 1b95 17       		.uleb128 0x17
 9103 1b96 01       		.uleb128 0x1
 9104 1b97 51       		.byte	0x51
 9105 1b98 01       		.uleb128 0x1
 9106 1b99 31       		.byte	0x31
 9107 1b9a 17       		.uleb128 0x17
 9108 1b9b 01       		.uleb128 0x1
 9109 1b9c 50       		.byte	0x50
 9110 1b9d 01       		.uleb128 0x1
 9111 1b9e 31       		.byte	0x31
 9112 1b9f 00       		.byte	0
ARM GAS  C:\Users\RECEPC~1\AppData\Local\Temp\ccoGpf2X.s 			page 200


 9113 1ba0 16       		.uleb128 0x16
 9114 1ba1 5A0F0000 		.4byte	.LVL385
 9115 1ba5 572A0000 		.4byte	0x2a57
 9116 1ba9 B31B0000 		.4byte	0x1bb3
 9117 1bad 17       		.uleb128 0x17
 9118 1bae 01       		.uleb128 0x1
 9119 1baf 50       		.byte	0x50
 9120 1bb0 01       		.uleb128 0x1
 9121 1bb1 3A       		.byte	0x3a
 9122 1bb2 00       		.byte	0
 9123 1bb3 14       		.uleb128 0x14
 9124 1bb4 5E0F0000 		.4byte	.LVL386
 9125 1bb8 EC2A0000 		.4byte	0x2aec
 9126 1bbc 14       		.uleb128 0x14
 9127 1bbd 640F0000 		.4byte	.LVL387
 9128 1bc1 E12A0000 		.4byte	0x2ae1
 9129 1bc5 16       		.uleb128 0x16
 9130 1bc6 B20F0000 		.4byte	.LVL388
 9131 1bca 202A0000 		.4byte	0x2a20
 9132 1bce DE1B0000 		.4byte	0x1bde
 9133 1bd2 17       		.uleb128 0x17
 9134 1bd3 01       		.uleb128 0x1
 9135 1bd4 51       		.byte	0x51
 9136 1bd5 02       		.uleb128 0x2
 9137 1bd6 08       		.byte	0x8
 9138 1bd7 67       		.byte	0x67
 9139 1bd8 17       		.uleb128 0x17
 9140 1bd9 01       		.uleb128 0x1
 9141 1bda 50       		.byte	0x50
 9142 1bdb 01       		.uleb128 0x1
 9143 1bdc 31       		.byte	0x31
 9144 1bdd 00       		.byte	0
 9145 1bde 16       		.uleb128 0x16
 9146 1bdf CE0F0000 		.4byte	.LVL389
 9147 1be3 F1290000 		.4byte	0x29f1
 9148 1be7 F71B0000 		.4byte	0x1bf7
 9149 1beb 17       		.uleb128 0x17
 9150 1bec 01       		.uleb128 0x1
 9151 1bed 51       		.byte	0x51
 9152 1bee 01       		.uleb128 0x1
 9153 1bef 38       		.byte	0x38
 9154 1bf0 17       		.uleb128 0x17
 9155 1bf1 01       		.uleb128 0x1
 9156 1bf2 50       		.byte	0x50
 9157 1bf3 02       		.uleb128 0x2
 9158 1bf4 74       		.byte	0x74
 9159 1bf5 00       		.sleb128 0
 9160 1bf6 00       		.byte	0
 9161 1bf7 16       		.uleb128 0x16
 9162 1bf8 D60F0000 		.4byte	.LVL390
 9163 1bfc F1290000 		.4byte	0x29f1
 9164 1c00 0A1C0000 		.4byte	0x1c0a
 9165 1c04 17       		.uleb128 0x17
 9166 1c05 01       		.uleb128 0x1
 9167 1c06 51       		.byte	0x51
 9168 1c07 01       		.uleb128 0x1
 9169 1c08 39       		.byte	0x39
ARM GAS  C:\Users\RECEPC~1\AppData\Local\Temp\ccoGpf2X.s 			page 201


 9170 1c09 00       		.byte	0
 9171 1c0a 16       		.uleb128 0x16
 9172 1c0b DE0F0000 		.4byte	.LVL391
 9173 1c0f 202A0000 		.4byte	0x2a20
 9174 1c13 241C0000 		.4byte	0x1c24
 9175 1c17 17       		.uleb128 0x17
 9176 1c18 01       		.uleb128 0x1
 9177 1c19 51       		.byte	0x51
 9178 1c1a 02       		.uleb128 0x2
 9179 1c1b 08       		.byte	0x8
 9180 1c1c 5A       		.byte	0x5a
 9181 1c1d 17       		.uleb128 0x17
 9182 1c1e 01       		.uleb128 0x1
 9183 1c1f 50       		.byte	0x50
 9184 1c20 02       		.uleb128 0x2
 9185 1c21 74       		.byte	0x74
 9186 1c22 00       		.sleb128 0
 9187 1c23 00       		.byte	0
 9188 1c24 16       		.uleb128 0x16
 9189 1c25 E80F0000 		.4byte	.LVL392
 9190 1c29 202A0000 		.4byte	0x2a20
 9191 1c2d 3C1C0000 		.4byte	0x1c3c
 9192 1c31 17       		.uleb128 0x17
 9193 1c32 01       		.uleb128 0x1
 9194 1c33 51       		.byte	0x51
 9195 1c34 01       		.uleb128 0x1
 9196 1c35 31       		.byte	0x31
 9197 1c36 17       		.uleb128 0x17
 9198 1c37 01       		.uleb128 0x1
 9199 1c38 50       		.byte	0x50
 9200 1c39 01       		.uleb128 0x1
 9201 1c3a 31       		.byte	0x31
 9202 1c3b 00       		.byte	0
 9203 1c3c 16       		.uleb128 0x16
 9204 1c3d 24100000 		.4byte	.LVL393
 9205 1c41 202A0000 		.4byte	0x2a20
 9206 1c45 541C0000 		.4byte	0x1c54
 9207 1c49 17       		.uleb128 0x17
 9208 1c4a 01       		.uleb128 0x1
 9209 1c4b 51       		.byte	0x51
 9210 1c4c 01       		.uleb128 0x1
 9211 1c4d 31       		.byte	0x31
 9212 1c4e 17       		.uleb128 0x17
 9213 1c4f 01       		.uleb128 0x1
 9214 1c50 50       		.byte	0x50
 9215 1c51 01       		.uleb128 0x1
 9216 1c52 31       		.byte	0x31
 9217 1c53 00       		.byte	0
 9218 1c54 16       		.uleb128 0x16
 9219 1c55 30100000 		.4byte	.LVL394
 9220 1c59 572A0000 		.4byte	0x2a57
 9221 1c5d 671C0000 		.4byte	0x1c67
 9222 1c61 17       		.uleb128 0x17
 9223 1c62 01       		.uleb128 0x1
 9224 1c63 50       		.byte	0x50
 9225 1c64 01       		.uleb128 0x1
 9226 1c65 3A       		.byte	0x3a
ARM GAS  C:\Users\RECEPC~1\AppData\Local\Temp\ccoGpf2X.s 			page 202


 9227 1c66 00       		.byte	0
 9228 1c67 14       		.uleb128 0x14
 9229 1c68 34100000 		.4byte	.LVL395
 9230 1c6c EC2A0000 		.4byte	0x2aec
 9231 1c70 14       		.uleb128 0x14
 9232 1c71 3A100000 		.4byte	.LVL396
 9233 1c75 E12A0000 		.4byte	0x2ae1
 9234 1c79 16       		.uleb128 0x16
 9235 1c7a 9A100000 		.4byte	.LVL397
 9236 1c7e F1290000 		.4byte	0x29f1
 9237 1c82 911C0000 		.4byte	0x1c91
 9238 1c86 17       		.uleb128 0x17
 9239 1c87 01       		.uleb128 0x1
 9240 1c88 51       		.byte	0x51
 9241 1c89 01       		.uleb128 0x1
 9242 1c8a 38       		.byte	0x38
 9243 1c8b 17       		.uleb128 0x17
 9244 1c8c 01       		.uleb128 0x1
 9245 1c8d 50       		.byte	0x50
 9246 1c8e 01       		.uleb128 0x1
 9247 1c8f 32       		.byte	0x32
 9248 1c90 00       		.byte	0
 9249 1c91 16       		.uleb128 0x16
 9250 1c92 A2100000 		.4byte	.LVL398
 9251 1c96 F1290000 		.4byte	0x29f1
 9252 1c9a A41C0000 		.4byte	0x1ca4
 9253 1c9e 17       		.uleb128 0x17
 9254 1c9f 01       		.uleb128 0x1
 9255 1ca0 51       		.byte	0x51
 9256 1ca1 01       		.uleb128 0x1
 9257 1ca2 39       		.byte	0x39
 9258 1ca3 00       		.byte	0
 9259 1ca4 16       		.uleb128 0x16
 9260 1ca5 AA100000 		.4byte	.LVL399
 9261 1ca9 202A0000 		.4byte	0x2a20
 9262 1cad BD1C0000 		.4byte	0x1cbd
 9263 1cb1 17       		.uleb128 0x17
 9264 1cb2 01       		.uleb128 0x1
 9265 1cb3 51       		.byte	0x51
 9266 1cb4 02       		.uleb128 0x2
 9267 1cb5 08       		.byte	0x8
 9268 1cb6 5A       		.byte	0x5a
 9269 1cb7 17       		.uleb128 0x17
 9270 1cb8 01       		.uleb128 0x1
 9271 1cb9 50       		.byte	0x50
 9272 1cba 01       		.uleb128 0x1
 9273 1cbb 31       		.byte	0x31
 9274 1cbc 00       		.byte	0
 9275 1cbd 16       		.uleb128 0x16
 9276 1cbe C4100000 		.4byte	.LVL400
 9277 1cc2 F1290000 		.4byte	0x29f1
 9278 1cc6 D61C0000 		.4byte	0x1cd6
 9279 1cca 17       		.uleb128 0x17
 9280 1ccb 01       		.uleb128 0x1
 9281 1ccc 51       		.byte	0x51
 9282 1ccd 01       		.uleb128 0x1
 9283 1cce 38       		.byte	0x38
ARM GAS  C:\Users\RECEPC~1\AppData\Local\Temp\ccoGpf2X.s 			page 203


 9284 1ccf 17       		.uleb128 0x17
 9285 1cd0 01       		.uleb128 0x1
 9286 1cd1 50       		.byte	0x50
 9287 1cd2 02       		.uleb128 0x2
 9288 1cd3 74       		.byte	0x74
 9289 1cd4 00       		.sleb128 0
 9290 1cd5 00       		.byte	0
 9291 1cd6 16       		.uleb128 0x16
 9292 1cd7 CC100000 		.4byte	.LVL401
 9293 1cdb F1290000 		.4byte	0x29f1
 9294 1cdf E91C0000 		.4byte	0x1ce9
 9295 1ce3 17       		.uleb128 0x17
 9296 1ce4 01       		.uleb128 0x1
 9297 1ce5 51       		.byte	0x51
 9298 1ce6 01       		.uleb128 0x1
 9299 1ce7 39       		.byte	0x39
 9300 1ce8 00       		.byte	0
 9301 1ce9 16       		.uleb128 0x16
 9302 1cea D4100000 		.4byte	.LVL402
 9303 1cee 202A0000 		.4byte	0x2a20
 9304 1cf2 031D0000 		.4byte	0x1d03
 9305 1cf6 17       		.uleb128 0x17
 9306 1cf7 01       		.uleb128 0x1
 9307 1cf8 51       		.byte	0x51
 9308 1cf9 02       		.uleb128 0x2
 9309 1cfa 08       		.byte	0x8
 9310 1cfb 5A       		.byte	0x5a
 9311 1cfc 17       		.uleb128 0x17
 9312 1cfd 01       		.uleb128 0x1
 9313 1cfe 50       		.byte	0x50
 9314 1cff 02       		.uleb128 0x2
 9315 1d00 74       		.byte	0x74
 9316 1d01 00       		.sleb128 0
 9317 1d02 00       		.byte	0
 9318 1d03 16       		.uleb128 0x16
 9319 1d04 EC100000 		.4byte	.LVL403
 9320 1d08 F1290000 		.4byte	0x29f1
 9321 1d0c 1B1D0000 		.4byte	0x1d1b
 9322 1d10 17       		.uleb128 0x17
 9323 1d11 01       		.uleb128 0x1
 9324 1d12 51       		.byte	0x51
 9325 1d13 01       		.uleb128 0x1
 9326 1d14 38       		.byte	0x38
 9327 1d15 17       		.uleb128 0x17
 9328 1d16 01       		.uleb128 0x1
 9329 1d17 50       		.byte	0x50
 9330 1d18 01       		.uleb128 0x1
 9331 1d19 30       		.byte	0x30
 9332 1d1a 00       		.byte	0
 9333 1d1b 16       		.uleb128 0x16
 9334 1d1c F4100000 		.4byte	.LVL404
 9335 1d20 F1290000 		.4byte	0x29f1
 9336 1d24 2E1D0000 		.4byte	0x1d2e
 9337 1d28 17       		.uleb128 0x17
 9338 1d29 01       		.uleb128 0x1
 9339 1d2a 51       		.byte	0x51
 9340 1d2b 01       		.uleb128 0x1
ARM GAS  C:\Users\RECEPC~1\AppData\Local\Temp\ccoGpf2X.s 			page 204


 9341 1d2c 39       		.byte	0x39
 9342 1d2d 00       		.byte	0
 9343 1d2e 16       		.uleb128 0x16
 9344 1d2f FC100000 		.4byte	.LVL405
 9345 1d33 202A0000 		.4byte	0x2a20
 9346 1d37 471D0000 		.4byte	0x1d47
 9347 1d3b 17       		.uleb128 0x17
 9348 1d3c 01       		.uleb128 0x1
 9349 1d3d 51       		.byte	0x51
 9350 1d3e 02       		.uleb128 0x2
 9351 1d3f 08       		.byte	0x8
 9352 1d40 5A       		.byte	0x5a
 9353 1d41 17       		.uleb128 0x17
 9354 1d42 01       		.uleb128 0x1
 9355 1d43 50       		.byte	0x50
 9356 1d44 01       		.uleb128 0x1
 9357 1d45 31       		.byte	0x31
 9358 1d46 00       		.byte	0
 9359 1d47 16       		.uleb128 0x16
 9360 1d48 06110000 		.4byte	.LVL406
 9361 1d4c 202A0000 		.4byte	0x2a20
 9362 1d50 5F1D0000 		.4byte	0x1d5f
 9363 1d54 17       		.uleb128 0x17
 9364 1d55 01       		.uleb128 0x1
 9365 1d56 51       		.byte	0x51
 9366 1d57 01       		.uleb128 0x1
 9367 1d58 31       		.byte	0x31
 9368 1d59 17       		.uleb128 0x17
 9369 1d5a 01       		.uleb128 0x1
 9370 1d5b 50       		.byte	0x50
 9371 1d5c 01       		.uleb128 0x1
 9372 1d5d 31       		.byte	0x31
 9373 1d5e 00       		.byte	0
 9374 1d5f 16       		.uleb128 0x16
 9375 1d60 16110000 		.4byte	.LVL407
 9376 1d64 202A0000 		.4byte	0x2a20
 9377 1d68 771D0000 		.4byte	0x1d77
 9378 1d6c 17       		.uleb128 0x17
 9379 1d6d 01       		.uleb128 0x1
 9380 1d6e 51       		.byte	0x51
 9381 1d6f 01       		.uleb128 0x1
 9382 1d70 31       		.byte	0x31
 9383 1d71 17       		.uleb128 0x17
 9384 1d72 01       		.uleb128 0x1
 9385 1d73 50       		.byte	0x50
 9386 1d74 01       		.uleb128 0x1
 9387 1d75 31       		.byte	0x31
 9388 1d76 00       		.byte	0
 9389 1d77 16       		.uleb128 0x16
 9390 1d78 22110000 		.4byte	.LVL408
 9391 1d7c 572A0000 		.4byte	0x2a57
 9392 1d80 8A1D0000 		.4byte	0x1d8a
 9393 1d84 17       		.uleb128 0x17
 9394 1d85 01       		.uleb128 0x1
 9395 1d86 50       		.byte	0x50
 9396 1d87 01       		.uleb128 0x1
 9397 1d88 3A       		.byte	0x3a
ARM GAS  C:\Users\RECEPC~1\AppData\Local\Temp\ccoGpf2X.s 			page 205


 9398 1d89 00       		.byte	0
 9399 1d8a 14       		.uleb128 0x14
 9400 1d8b 26110000 		.4byte	.LVL409
 9401 1d8f EC2A0000 		.4byte	0x2aec
 9402 1d93 14       		.uleb128 0x14
 9403 1d94 2C110000 		.4byte	.LVL410
 9404 1d98 412C0000 		.4byte	0x2c41
 9405 1d9c 16       		.uleb128 0x16
 9406 1d9d 52110000 		.4byte	.LVL411
 9407 1da1 F32A0000 		.4byte	0x2af3
 9408 1da5 CF1D0000 		.4byte	0x1dcf
 9409 1da9 17       		.uleb128 0x17
 9410 1daa 01       		.uleb128 0x1
 9411 1dab 53       		.byte	0x53
 9412 1dac 01       		.uleb128 0x1
 9413 1dad 38       		.byte	0x38
 9414 1dae 17       		.uleb128 0x17
 9415 1daf 01       		.uleb128 0x1
 9416 1db0 52       		.byte	0x52
 9417 1db1 01       		.uleb128 0x1
 9418 1db2 3D       		.byte	0x3d
 9419 1db3 17       		.uleb128 0x17
 9420 1db4 01       		.uleb128 0x1
 9421 1db5 50       		.byte	0x50
 9422 1db6 02       		.uleb128 0x2
 9423 1db7 74       		.byte	0x74
 9424 1db8 00       		.sleb128 0
 9425 1db9 17       		.uleb128 0x17
 9426 1dba 02       		.uleb128 0x2
 9427 1dbb 7D       		.byte	0x7d
 9428 1dbc 08       		.sleb128 8
 9429 1dbd 02       		.uleb128 0x2
 9430 1dbe 75       		.byte	0x75
 9431 1dbf 00       		.sleb128 0
 9432 1dc0 17       		.uleb128 0x17
 9433 1dc1 02       		.uleb128 0x2
 9434 1dc2 7D       		.byte	0x7d
 9435 1dc3 04       		.sleb128 4
 9436 1dc4 02       		.uleb128 0x2
 9437 1dc5 76       		.byte	0x76
 9438 1dc6 00       		.sleb128 0
 9439 1dc7 17       		.uleb128 0x17
 9440 1dc8 02       		.uleb128 0x2
 9441 1dc9 7D       		.byte	0x7d
 9442 1dca 00       		.sleb128 0
 9443 1dcb 02       		.uleb128 0x2
 9444 1dcc 74       		.byte	0x74
 9445 1dcd 00       		.sleb128 0
 9446 1dce 00       		.byte	0
 9447 1dcf 16       		.uleb128 0x16
 9448 1dd0 6A110000 		.4byte	.LVL412
 9449 1dd4 F32A0000 		.4byte	0x2af3
 9450 1dd8 021E0000 		.4byte	0x1e02
 9451 1ddc 17       		.uleb128 0x17
 9452 1ddd 01       		.uleb128 0x1
 9453 1dde 53       		.byte	0x53
 9454 1ddf 01       		.uleb128 0x1
ARM GAS  C:\Users\RECEPC~1\AppData\Local\Temp\ccoGpf2X.s 			page 206


 9455 1de0 39       		.byte	0x39
 9456 1de1 17       		.uleb128 0x17
 9457 1de2 01       		.uleb128 0x1
 9458 1de3 52       		.byte	0x52
 9459 1de4 01       		.uleb128 0x1
 9460 1de5 3D       		.byte	0x3d
 9461 1de6 17       		.uleb128 0x17
 9462 1de7 01       		.uleb128 0x1
 9463 1de8 50       		.byte	0x50
 9464 1de9 02       		.uleb128 0x2
 9465 1dea 74       		.byte	0x74
 9466 1deb 00       		.sleb128 0
 9467 1dec 17       		.uleb128 0x17
 9468 1ded 02       		.uleb128 0x2
 9469 1dee 7D       		.byte	0x7d
 9470 1def 08       		.sleb128 8
 9471 1df0 02       		.uleb128 0x2
 9472 1df1 75       		.byte	0x75
 9473 1df2 00       		.sleb128 0
 9474 1df3 17       		.uleb128 0x17
 9475 1df4 02       		.uleb128 0x2
 9476 1df5 7D       		.byte	0x7d
 9477 1df6 04       		.sleb128 4
 9478 1df7 02       		.uleb128 0x2
 9479 1df8 76       		.byte	0x76
 9480 1df9 00       		.sleb128 0
 9481 1dfa 17       		.uleb128 0x17
 9482 1dfb 02       		.uleb128 0x2
 9483 1dfc 7D       		.byte	0x7d
 9484 1dfd 00       		.sleb128 0
 9485 1dfe 02       		.uleb128 0x2
 9486 1dff 74       		.byte	0x74
 9487 1e00 00       		.sleb128 0
 9488 1e01 00       		.byte	0
 9489 1e02 16       		.uleb128 0x16
 9490 1e03 7C110000 		.4byte	.LVL413
 9491 1e07 F32A0000 		.4byte	0x2af3
 9492 1e0b 3B1E0000 		.4byte	0x1e3b
 9493 1e0f 17       		.uleb128 0x17
 9494 1e10 01       		.uleb128 0x1
 9495 1e11 53       		.byte	0x53
 9496 1e12 01       		.uleb128 0x1
 9497 1e13 3A       		.byte	0x3a
 9498 1e14 17       		.uleb128 0x17
 9499 1e15 01       		.uleb128 0x1
 9500 1e16 52       		.byte	0x52
 9501 1e17 01       		.uleb128 0x1
 9502 1e18 3D       		.byte	0x3d
 9503 1e19 17       		.uleb128 0x17
 9504 1e1a 01       		.uleb128 0x1
 9505 1e1b 51       		.byte	0x51
 9506 1e1c 02       		.uleb128 0x2
 9507 1e1d 08       		.byte	0x8
 9508 1e1e 3A       		.byte	0x3a
 9509 1e1f 17       		.uleb128 0x17
 9510 1e20 01       		.uleb128 0x1
 9511 1e21 50       		.byte	0x50
ARM GAS  C:\Users\RECEPC~1\AppData\Local\Temp\ccoGpf2X.s 			page 207


 9512 1e22 02       		.uleb128 0x2
 9513 1e23 74       		.byte	0x74
 9514 1e24 00       		.sleb128 0
 9515 1e25 17       		.uleb128 0x17
 9516 1e26 02       		.uleb128 0x2
 9517 1e27 7D       		.byte	0x7d
 9518 1e28 08       		.sleb128 8
 9519 1e29 02       		.uleb128 0x2
 9520 1e2a 75       		.byte	0x75
 9521 1e2b 00       		.sleb128 0
 9522 1e2c 17       		.uleb128 0x17
 9523 1e2d 02       		.uleb128 0x2
 9524 1e2e 7D       		.byte	0x7d
 9525 1e2f 04       		.sleb128 4
 9526 1e30 02       		.uleb128 0x2
 9527 1e31 76       		.byte	0x76
 9528 1e32 00       		.sleb128 0
 9529 1e33 17       		.uleb128 0x17
 9530 1e34 02       		.uleb128 0x2
 9531 1e35 7D       		.byte	0x7d
 9532 1e36 00       		.sleb128 0
 9533 1e37 02       		.uleb128 0x2
 9534 1e38 74       		.byte	0x74
 9535 1e39 00       		.sleb128 0
 9536 1e3a 00       		.byte	0
 9537 1e3b 16       		.uleb128 0x16
 9538 1e3c 92110000 		.4byte	.LVL414
 9539 1e40 F32A0000 		.4byte	0x2af3
 9540 1e44 6E1E0000 		.4byte	0x1e6e
 9541 1e48 17       		.uleb128 0x17
 9542 1e49 01       		.uleb128 0x1
 9543 1e4a 53       		.byte	0x53
 9544 1e4b 01       		.uleb128 0x1
 9545 1e4c 3B       		.byte	0x3b
 9546 1e4d 17       		.uleb128 0x17
 9547 1e4e 01       		.uleb128 0x1
 9548 1e4f 52       		.byte	0x52
 9549 1e50 01       		.uleb128 0x1
 9550 1e51 3D       		.byte	0x3d
 9551 1e52 17       		.uleb128 0x17
 9552 1e53 01       		.uleb128 0x1
 9553 1e54 50       		.byte	0x50
 9554 1e55 02       		.uleb128 0x2
 9555 1e56 74       		.byte	0x74
 9556 1e57 00       		.sleb128 0
 9557 1e58 17       		.uleb128 0x17
 9558 1e59 02       		.uleb128 0x2
 9559 1e5a 7D       		.byte	0x7d
 9560 1e5b 08       		.sleb128 8
 9561 1e5c 02       		.uleb128 0x2
 9562 1e5d 75       		.byte	0x75
 9563 1e5e 00       		.sleb128 0
 9564 1e5f 17       		.uleb128 0x17
 9565 1e60 02       		.uleb128 0x2
 9566 1e61 7D       		.byte	0x7d
 9567 1e62 04       		.sleb128 4
 9568 1e63 02       		.uleb128 0x2
ARM GAS  C:\Users\RECEPC~1\AppData\Local\Temp\ccoGpf2X.s 			page 208


 9569 1e64 76       		.byte	0x76
 9570 1e65 00       		.sleb128 0
 9571 1e66 17       		.uleb128 0x17
 9572 1e67 02       		.uleb128 0x2
 9573 1e68 7D       		.byte	0x7d
 9574 1e69 00       		.sleb128 0
 9575 1e6a 02       		.uleb128 0x2
 9576 1e6b 74       		.byte	0x74
 9577 1e6c 00       		.sleb128 0
 9578 1e6d 00       		.byte	0
 9579 1e6e 16       		.uleb128 0x16
 9580 1e6f AA110000 		.4byte	.LVL415
 9581 1e73 F32A0000 		.4byte	0x2af3
 9582 1e77 A11E0000 		.4byte	0x1ea1
 9583 1e7b 17       		.uleb128 0x17
 9584 1e7c 01       		.uleb128 0x1
 9585 1e7d 53       		.byte	0x53
 9586 1e7e 01       		.uleb128 0x1
 9587 1e7f 3C       		.byte	0x3c
 9588 1e80 17       		.uleb128 0x17
 9589 1e81 01       		.uleb128 0x1
 9590 1e82 52       		.byte	0x52
 9591 1e83 01       		.uleb128 0x1
 9592 1e84 3D       		.byte	0x3d
 9593 1e85 17       		.uleb128 0x17
 9594 1e86 01       		.uleb128 0x1
 9595 1e87 50       		.byte	0x50
 9596 1e88 02       		.uleb128 0x2
 9597 1e89 74       		.byte	0x74
 9598 1e8a 00       		.sleb128 0
 9599 1e8b 17       		.uleb128 0x17
 9600 1e8c 02       		.uleb128 0x2
 9601 1e8d 7D       		.byte	0x7d
 9602 1e8e 08       		.sleb128 8
 9603 1e8f 02       		.uleb128 0x2
 9604 1e90 75       		.byte	0x75
 9605 1e91 00       		.sleb128 0
 9606 1e92 17       		.uleb128 0x17
 9607 1e93 02       		.uleb128 0x2
 9608 1e94 7D       		.byte	0x7d
 9609 1e95 04       		.sleb128 4
 9610 1e96 02       		.uleb128 0x2
 9611 1e97 76       		.byte	0x76
 9612 1e98 00       		.sleb128 0
 9613 1e99 17       		.uleb128 0x17
 9614 1e9a 02       		.uleb128 0x2
 9615 1e9b 7D       		.byte	0x7d
 9616 1e9c 00       		.sleb128 0
 9617 1e9d 02       		.uleb128 0x2
 9618 1e9e 74       		.byte	0x74
 9619 1e9f 00       		.sleb128 0
 9620 1ea0 00       		.byte	0
 9621 1ea1 14       		.uleb128 0x14
 9622 1ea2 AE110000 		.4byte	.LVL416
 9623 1ea6 522C0000 		.4byte	0x2c52
 9624 1eaa 16       		.uleb128 0x16
 9625 1eab D2110000 		.4byte	.LVL417
ARM GAS  C:\Users\RECEPC~1\AppData\Local\Temp\ccoGpf2X.s 			page 209


 9626 1eaf F32A0000 		.4byte	0x2af3
 9627 1eb3 DD1E0000 		.4byte	0x1edd
 9628 1eb7 17       		.uleb128 0x17
 9629 1eb8 01       		.uleb128 0x1
 9630 1eb9 53       		.byte	0x53
 9631 1eba 01       		.uleb128 0x1
 9632 1ebb 38       		.byte	0x38
 9633 1ebc 17       		.uleb128 0x17
 9634 1ebd 01       		.uleb128 0x1
 9635 1ebe 52       		.byte	0x52
 9636 1ebf 01       		.uleb128 0x1
 9637 1ec0 45       		.byte	0x45
 9638 1ec1 17       		.uleb128 0x17
 9639 1ec2 01       		.uleb128 0x1
 9640 1ec3 50       		.byte	0x50
 9641 1ec4 02       		.uleb128 0x2
 9642 1ec5 74       		.byte	0x74
 9643 1ec6 00       		.sleb128 0
 9644 1ec7 17       		.uleb128 0x17
 9645 1ec8 02       		.uleb128 0x2
 9646 1ec9 7D       		.byte	0x7d
 9647 1eca 08       		.sleb128 8
 9648 1ecb 02       		.uleb128 0x2
 9649 1ecc 75       		.byte	0x75
 9650 1ecd 00       		.sleb128 0
 9651 1ece 17       		.uleb128 0x17
 9652 1ecf 02       		.uleb128 0x2
 9653 1ed0 7D       		.byte	0x7d
 9654 1ed1 04       		.sleb128 4
 9655 1ed2 02       		.uleb128 0x2
 9656 1ed3 76       		.byte	0x76
 9657 1ed4 00       		.sleb128 0
 9658 1ed5 17       		.uleb128 0x17
 9659 1ed6 02       		.uleb128 0x2
 9660 1ed7 7D       		.byte	0x7d
 9661 1ed8 00       		.sleb128 0
 9662 1ed9 02       		.uleb128 0x2
 9663 1eda 74       		.byte	0x74
 9664 1edb 00       		.sleb128 0
 9665 1edc 00       		.byte	0
 9666 1edd 16       		.uleb128 0x16
 9667 1ede EA110000 		.4byte	.LVL418
 9668 1ee2 F32A0000 		.4byte	0x2af3
 9669 1ee6 101F0000 		.4byte	0x1f10
 9670 1eea 17       		.uleb128 0x17
 9671 1eeb 01       		.uleb128 0x1
 9672 1eec 53       		.byte	0x53
 9673 1eed 01       		.uleb128 0x1
 9674 1eee 39       		.byte	0x39
 9675 1eef 17       		.uleb128 0x17
 9676 1ef0 01       		.uleb128 0x1
 9677 1ef1 52       		.byte	0x52
 9678 1ef2 01       		.uleb128 0x1
 9679 1ef3 45       		.byte	0x45
 9680 1ef4 17       		.uleb128 0x17
 9681 1ef5 01       		.uleb128 0x1
 9682 1ef6 50       		.byte	0x50
ARM GAS  C:\Users\RECEPC~1\AppData\Local\Temp\ccoGpf2X.s 			page 210


 9683 1ef7 02       		.uleb128 0x2
 9684 1ef8 74       		.byte	0x74
 9685 1ef9 00       		.sleb128 0
 9686 1efa 17       		.uleb128 0x17
 9687 1efb 02       		.uleb128 0x2
 9688 1efc 7D       		.byte	0x7d
 9689 1efd 08       		.sleb128 8
 9690 1efe 02       		.uleb128 0x2
 9691 1eff 75       		.byte	0x75
 9692 1f00 00       		.sleb128 0
 9693 1f01 17       		.uleb128 0x17
 9694 1f02 02       		.uleb128 0x2
 9695 1f03 7D       		.byte	0x7d
 9696 1f04 04       		.sleb128 4
 9697 1f05 02       		.uleb128 0x2
 9698 1f06 76       		.byte	0x76
 9699 1f07 00       		.sleb128 0
 9700 1f08 17       		.uleb128 0x17
 9701 1f09 02       		.uleb128 0x2
 9702 1f0a 7D       		.byte	0x7d
 9703 1f0b 00       		.sleb128 0
 9704 1f0c 02       		.uleb128 0x2
 9705 1f0d 74       		.byte	0x74
 9706 1f0e 00       		.sleb128 0
 9707 1f0f 00       		.byte	0
 9708 1f10 16       		.uleb128 0x16
 9709 1f11 FC110000 		.4byte	.LVL419
 9710 1f15 F32A0000 		.4byte	0x2af3
 9711 1f19 491F0000 		.4byte	0x1f49
 9712 1f1d 17       		.uleb128 0x17
 9713 1f1e 01       		.uleb128 0x1
 9714 1f1f 53       		.byte	0x53
 9715 1f20 01       		.uleb128 0x1
 9716 1f21 3A       		.byte	0x3a
 9717 1f22 17       		.uleb128 0x17
 9718 1f23 01       		.uleb128 0x1
 9719 1f24 52       		.byte	0x52
 9720 1f25 01       		.uleb128 0x1
 9721 1f26 45       		.byte	0x45
 9722 1f27 17       		.uleb128 0x17
 9723 1f28 01       		.uleb128 0x1
 9724 1f29 51       		.byte	0x51
 9725 1f2a 02       		.uleb128 0x2
 9726 1f2b 08       		.byte	0x8
 9727 1f2c 2F       		.byte	0x2f
 9728 1f2d 17       		.uleb128 0x17
 9729 1f2e 01       		.uleb128 0x1
 9730 1f2f 50       		.byte	0x50
 9731 1f30 02       		.uleb128 0x2
 9732 1f31 74       		.byte	0x74
 9733 1f32 00       		.sleb128 0
 9734 1f33 17       		.uleb128 0x17
 9735 1f34 02       		.uleb128 0x2
 9736 1f35 7D       		.byte	0x7d
 9737 1f36 08       		.sleb128 8
 9738 1f37 02       		.uleb128 0x2
 9739 1f38 75       		.byte	0x75
ARM GAS  C:\Users\RECEPC~1\AppData\Local\Temp\ccoGpf2X.s 			page 211


 9740 1f39 00       		.sleb128 0
 9741 1f3a 17       		.uleb128 0x17
 9742 1f3b 02       		.uleb128 0x2
 9743 1f3c 7D       		.byte	0x7d
 9744 1f3d 04       		.sleb128 4
 9745 1f3e 02       		.uleb128 0x2
 9746 1f3f 76       		.byte	0x76
 9747 1f40 00       		.sleb128 0
 9748 1f41 17       		.uleb128 0x17
 9749 1f42 02       		.uleb128 0x2
 9750 1f43 7D       		.byte	0x7d
 9751 1f44 00       		.sleb128 0
 9752 1f45 02       		.uleb128 0x2
 9753 1f46 74       		.byte	0x74
 9754 1f47 00       		.sleb128 0
 9755 1f48 00       		.byte	0
 9756 1f49 16       		.uleb128 0x16
 9757 1f4a 16120000 		.4byte	.LVL420
 9758 1f4e F32A0000 		.4byte	0x2af3
 9759 1f52 7C1F0000 		.4byte	0x1f7c
 9760 1f56 17       		.uleb128 0x17
 9761 1f57 01       		.uleb128 0x1
 9762 1f58 53       		.byte	0x53
 9763 1f59 01       		.uleb128 0x1
 9764 1f5a 3B       		.byte	0x3b
 9765 1f5b 17       		.uleb128 0x17
 9766 1f5c 01       		.uleb128 0x1
 9767 1f5d 52       		.byte	0x52
 9768 1f5e 01       		.uleb128 0x1
 9769 1f5f 45       		.byte	0x45
 9770 1f60 17       		.uleb128 0x17
 9771 1f61 01       		.uleb128 0x1
 9772 1f62 50       		.byte	0x50
 9773 1f63 02       		.uleb128 0x2
 9774 1f64 74       		.byte	0x74
 9775 1f65 00       		.sleb128 0
 9776 1f66 17       		.uleb128 0x17
 9777 1f67 02       		.uleb128 0x2
 9778 1f68 7D       		.byte	0x7d
 9779 1f69 08       		.sleb128 8
 9780 1f6a 02       		.uleb128 0x2
 9781 1f6b 75       		.byte	0x75
 9782 1f6c 00       		.sleb128 0
 9783 1f6d 17       		.uleb128 0x17
 9784 1f6e 02       		.uleb128 0x2
 9785 1f6f 7D       		.byte	0x7d
 9786 1f70 04       		.sleb128 4
 9787 1f71 02       		.uleb128 0x2
 9788 1f72 76       		.byte	0x76
 9789 1f73 00       		.sleb128 0
 9790 1f74 17       		.uleb128 0x17
 9791 1f75 02       		.uleb128 0x2
 9792 1f76 7D       		.byte	0x7d
 9793 1f77 00       		.sleb128 0
 9794 1f78 02       		.uleb128 0x2
 9795 1f79 74       		.byte	0x74
 9796 1f7a 00       		.sleb128 0
ARM GAS  C:\Users\RECEPC~1\AppData\Local\Temp\ccoGpf2X.s 			page 212


 9797 1f7b 00       		.byte	0
 9798 1f7c 16       		.uleb128 0x16
 9799 1f7d 2E120000 		.4byte	.LVL421
 9800 1f81 F32A0000 		.4byte	0x2af3
 9801 1f85 AF1F0000 		.4byte	0x1faf
 9802 1f89 17       		.uleb128 0x17
 9803 1f8a 01       		.uleb128 0x1
 9804 1f8b 53       		.byte	0x53
 9805 1f8c 01       		.uleb128 0x1
 9806 1f8d 3C       		.byte	0x3c
 9807 1f8e 17       		.uleb128 0x17
 9808 1f8f 01       		.uleb128 0x1
 9809 1f90 52       		.byte	0x52
 9810 1f91 01       		.uleb128 0x1
 9811 1f92 45       		.byte	0x45
 9812 1f93 17       		.uleb128 0x17
 9813 1f94 01       		.uleb128 0x1
 9814 1f95 50       		.byte	0x50
 9815 1f96 02       		.uleb128 0x2
 9816 1f97 74       		.byte	0x74
 9817 1f98 00       		.sleb128 0
 9818 1f99 17       		.uleb128 0x17
 9819 1f9a 02       		.uleb128 0x2
 9820 1f9b 7D       		.byte	0x7d
 9821 1f9c 08       		.sleb128 8
 9822 1f9d 02       		.uleb128 0x2
 9823 1f9e 75       		.byte	0x75
 9824 1f9f 00       		.sleb128 0
 9825 1fa0 17       		.uleb128 0x17
 9826 1fa1 02       		.uleb128 0x2
 9827 1fa2 7D       		.byte	0x7d
 9828 1fa3 04       		.sleb128 4
 9829 1fa4 02       		.uleb128 0x2
 9830 1fa5 76       		.byte	0x76
 9831 1fa6 00       		.sleb128 0
 9832 1fa7 17       		.uleb128 0x17
 9833 1fa8 02       		.uleb128 0x2
 9834 1fa9 7D       		.byte	0x7d
 9835 1faa 00       		.sleb128 0
 9836 1fab 02       		.uleb128 0x2
 9837 1fac 74       		.byte	0x74
 9838 1fad 00       		.sleb128 0
 9839 1fae 00       		.byte	0
 9840 1faf 16       		.uleb128 0x16
 9841 1fb0 40120000 		.4byte	.LVL422
 9842 1fb4 F32A0000 		.4byte	0x2af3
 9843 1fb8 E81F0000 		.4byte	0x1fe8
 9844 1fbc 17       		.uleb128 0x17
 9845 1fbd 01       		.uleb128 0x1
 9846 1fbe 53       		.byte	0x53
 9847 1fbf 01       		.uleb128 0x1
 9848 1fc0 3D       		.byte	0x3d
 9849 1fc1 17       		.uleb128 0x17
 9850 1fc2 01       		.uleb128 0x1
 9851 1fc3 52       		.byte	0x52
 9852 1fc4 01       		.uleb128 0x1
 9853 1fc5 45       		.byte	0x45
ARM GAS  C:\Users\RECEPC~1\AppData\Local\Temp\ccoGpf2X.s 			page 213


 9854 1fc6 17       		.uleb128 0x17
 9855 1fc7 01       		.uleb128 0x1
 9856 1fc8 51       		.byte	0x51
 9857 1fc9 02       		.uleb128 0x2
 9858 1fca 08       		.byte	0x8
 9859 1fcb 2F       		.byte	0x2f
 9860 1fcc 17       		.uleb128 0x17
 9861 1fcd 01       		.uleb128 0x1
 9862 1fce 50       		.byte	0x50
 9863 1fcf 02       		.uleb128 0x2
 9864 1fd0 74       		.byte	0x74
 9865 1fd1 00       		.sleb128 0
 9866 1fd2 17       		.uleb128 0x17
 9867 1fd3 02       		.uleb128 0x2
 9868 1fd4 7D       		.byte	0x7d
 9869 1fd5 08       		.sleb128 8
 9870 1fd6 02       		.uleb128 0x2
 9871 1fd7 75       		.byte	0x75
 9872 1fd8 00       		.sleb128 0
 9873 1fd9 17       		.uleb128 0x17
 9874 1fda 02       		.uleb128 0x2
 9875 1fdb 7D       		.byte	0x7d
 9876 1fdc 04       		.sleb128 4
 9877 1fdd 02       		.uleb128 0x2
 9878 1fde 76       		.byte	0x76
 9879 1fdf 00       		.sleb128 0
 9880 1fe0 17       		.uleb128 0x17
 9881 1fe1 02       		.uleb128 0x2
 9882 1fe2 7D       		.byte	0x7d
 9883 1fe3 00       		.sleb128 0
 9884 1fe4 02       		.uleb128 0x2
 9885 1fe5 74       		.byte	0x74
 9886 1fe6 00       		.sleb128 0
 9887 1fe7 00       		.byte	0
 9888 1fe8 16       		.uleb128 0x16
 9889 1fe9 56120000 		.4byte	.LVL423
 9890 1fed F32A0000 		.4byte	0x2af3
 9891 1ff1 1B200000 		.4byte	0x201b
 9892 1ff5 17       		.uleb128 0x17
 9893 1ff6 01       		.uleb128 0x1
 9894 1ff7 53       		.byte	0x53
 9895 1ff8 01       		.uleb128 0x1
 9896 1ff9 3E       		.byte	0x3e
 9897 1ffa 17       		.uleb128 0x17
 9898 1ffb 01       		.uleb128 0x1
 9899 1ffc 52       		.byte	0x52
 9900 1ffd 01       		.uleb128 0x1
 9901 1ffe 45       		.byte	0x45
 9902 1fff 17       		.uleb128 0x17
 9903 2000 01       		.uleb128 0x1
 9904 2001 50       		.byte	0x50
 9905 2002 02       		.uleb128 0x2
 9906 2003 74       		.byte	0x74
 9907 2004 00       		.sleb128 0
 9908 2005 17       		.uleb128 0x17
 9909 2006 02       		.uleb128 0x2
 9910 2007 7D       		.byte	0x7d
ARM GAS  C:\Users\RECEPC~1\AppData\Local\Temp\ccoGpf2X.s 			page 214


 9911 2008 08       		.sleb128 8
 9912 2009 02       		.uleb128 0x2
 9913 200a 75       		.byte	0x75
 9914 200b 00       		.sleb128 0
 9915 200c 17       		.uleb128 0x17
 9916 200d 02       		.uleb128 0x2
 9917 200e 7D       		.byte	0x7d
 9918 200f 04       		.sleb128 4
 9919 2010 02       		.uleb128 0x2
 9920 2011 76       		.byte	0x76
 9921 2012 00       		.sleb128 0
 9922 2013 17       		.uleb128 0x17
 9923 2014 02       		.uleb128 0x2
 9924 2015 7D       		.byte	0x7d
 9925 2016 00       		.sleb128 0
 9926 2017 02       		.uleb128 0x2
 9927 2018 74       		.byte	0x74
 9928 2019 00       		.sleb128 0
 9929 201a 00       		.byte	0
 9930 201b 16       		.uleb128 0x16
 9931 201c 6E120000 		.4byte	.LVL424
 9932 2020 F32A0000 		.4byte	0x2af3
 9933 2024 4E200000 		.4byte	0x204e
 9934 2028 17       		.uleb128 0x17
 9935 2029 01       		.uleb128 0x1
 9936 202a 53       		.byte	0x53
 9937 202b 01       		.uleb128 0x1
 9938 202c 3F       		.byte	0x3f
 9939 202d 17       		.uleb128 0x17
 9940 202e 01       		.uleb128 0x1
 9941 202f 52       		.byte	0x52
 9942 2030 01       		.uleb128 0x1
 9943 2031 45       		.byte	0x45
 9944 2032 17       		.uleb128 0x17
 9945 2033 01       		.uleb128 0x1
 9946 2034 50       		.byte	0x50
 9947 2035 02       		.uleb128 0x2
 9948 2036 74       		.byte	0x74
 9949 2037 00       		.sleb128 0
 9950 2038 17       		.uleb128 0x17
 9951 2039 02       		.uleb128 0x2
 9952 203a 7D       		.byte	0x7d
 9953 203b 08       		.sleb128 8
 9954 203c 02       		.uleb128 0x2
 9955 203d 75       		.byte	0x75
 9956 203e 00       		.sleb128 0
 9957 203f 17       		.uleb128 0x17
 9958 2040 02       		.uleb128 0x2
 9959 2041 7D       		.byte	0x7d
 9960 2042 04       		.sleb128 4
 9961 2043 02       		.uleb128 0x2
 9962 2044 76       		.byte	0x76
 9963 2045 00       		.sleb128 0
 9964 2046 17       		.uleb128 0x17
 9965 2047 02       		.uleb128 0x2
 9966 2048 7D       		.byte	0x7d
 9967 2049 00       		.sleb128 0
ARM GAS  C:\Users\RECEPC~1\AppData\Local\Temp\ccoGpf2X.s 			page 215


 9968 204a 02       		.uleb128 0x2
 9969 204b 74       		.byte	0x74
 9970 204c 00       		.sleb128 0
 9971 204d 00       		.byte	0
 9972 204e 14       		.uleb128 0x14
 9973 204f 72120000 		.4byte	.LVL425
 9974 2053 E12A0000 		.4byte	0x2ae1
 9975 2057 16       		.uleb128 0x16
 9976 2058 B2120000 		.4byte	.LVL426
 9977 205c 202A0000 		.4byte	0x2a20
 9978 2060 6F200000 		.4byte	0x206f
 9979 2064 17       		.uleb128 0x17
 9980 2065 01       		.uleb128 0x1
 9981 2066 51       		.byte	0x51
 9982 2067 01       		.uleb128 0x1
 9983 2068 31       		.byte	0x31
 9984 2069 17       		.uleb128 0x17
 9985 206a 01       		.uleb128 0x1
 9986 206b 50       		.byte	0x50
 9987 206c 01       		.uleb128 0x1
 9988 206d 31       		.byte	0x31
 9989 206e 00       		.byte	0
 9990 206f 16       		.uleb128 0x16
 9991 2070 C2120000 		.4byte	.LVL427
 9992 2074 202A0000 		.4byte	0x2a20
 9993 2078 87200000 		.4byte	0x2087
 9994 207c 17       		.uleb128 0x17
 9995 207d 01       		.uleb128 0x1
 9996 207e 51       		.byte	0x51
 9997 207f 01       		.uleb128 0x1
 9998 2080 31       		.byte	0x31
 9999 2081 17       		.uleb128 0x17
 10000 2082 01       		.uleb128 0x1
 10001 2083 50       		.byte	0x50
 10002 2084 01       		.uleb128 0x1
 10003 2085 31       		.byte	0x31
 10004 2086 00       		.byte	0
 10005 2087 16       		.uleb128 0x16
 10006 2088 C8120000 		.4byte	.LVL428
 10007 208c 572A0000 		.4byte	0x2a57
 10008 2090 9A200000 		.4byte	0x209a
 10009 2094 17       		.uleb128 0x17
 10010 2095 01       		.uleb128 0x1
 10011 2096 50       		.byte	0x50
 10012 2097 01       		.uleb128 0x1
 10013 2098 3A       		.byte	0x3a
 10014 2099 00       		.byte	0
 10015 209a 14       		.uleb128 0x14
 10016 209b CC120000 		.4byte	.LVL429
 10017 209f EC2A0000 		.4byte	0x2aec
 10018 20a3 00       		.byte	0
 10019 20a4 13       		.uleb128 0x13
 10020 20a5 34060000 		.4byte	.LASF167
 10021 20a9 01       		.byte	0x1
 10022 20aa 5604     		.2byte	0x456
 10023 20ac 00000000 		.4byte	.LFB72
 10024 20b0 2C030000 		.4byte	.LFE72-.LFB72
ARM GAS  C:\Users\RECEPC~1\AppData\Local\Temp\ccoGpf2X.s 			page 216


 10025 20b4 01       		.uleb128 0x1
 10026 20b5 9C       		.byte	0x9c
 10027 20b6 9E230000 		.4byte	0x239e
 10028 20ba 14       		.uleb128 0x14
 10029 20bb 22000000 		.4byte	.LVL430
 10030 20bf B30B0000 		.4byte	0xbb3
 10031 20c3 16       		.uleb128 0x16
 10032 20c4 32000000 		.4byte	.LVL431
 10033 20c8 632C0000 		.4byte	0x2c63
 10034 20cc DC200000 		.4byte	0x20dc
 10035 20d0 17       		.uleb128 0x17
 10036 20d1 01       		.uleb128 0x1
 10037 20d2 51       		.byte	0x51
 10038 20d3 02       		.uleb128 0x2
 10039 20d4 08       		.byte	0x8
 10040 20d5 23       		.byte	0x23
 10041 20d6 17       		.uleb128 0x17
 10042 20d7 01       		.uleb128 0x1
 10043 20d8 50       		.byte	0x50
 10044 20d9 01       		.uleb128 0x1
 10045 20da 32       		.byte	0x32
 10046 20db 00       		.byte	0
 10047 20dc 14       		.uleb128 0x14
 10048 20dd 36000000 		.4byte	.LVL432
 10049 20e1 792C0000 		.4byte	0x2c79
 10050 20e5 16       		.uleb128 0x16
 10051 20e6 76000000 		.4byte	.LVL433
 10052 20ea 202A0000 		.4byte	0x2a20
 10053 20ee FD200000 		.4byte	0x20fd
 10054 20f2 17       		.uleb128 0x17
 10055 20f3 01       		.uleb128 0x1
 10056 20f4 51       		.byte	0x51
 10057 20f5 01       		.uleb128 0x1
 10058 20f6 34       		.byte	0x34
 10059 20f7 17       		.uleb128 0x17
 10060 20f8 01       		.uleb128 0x1
 10061 20f9 50       		.byte	0x50
 10062 20fa 01       		.uleb128 0x1
 10063 20fb 32       		.byte	0x32
 10064 20fc 00       		.byte	0
 10065 20fd 16       		.uleb128 0x16
 10066 20fe 80000000 		.4byte	.LVL434
 10067 2102 202A0000 		.4byte	0x2a20
 10068 2106 15210000 		.4byte	0x2115
 10069 210a 17       		.uleb128 0x17
 10070 210b 01       		.uleb128 0x1
 10071 210c 51       		.byte	0x51
 10072 210d 01       		.uleb128 0x1
 10073 210e 31       		.byte	0x31
 10074 210f 17       		.uleb128 0x17
 10075 2110 01       		.uleb128 0x1
 10076 2111 50       		.byte	0x50
 10077 2112 01       		.uleb128 0x1
 10078 2113 32       		.byte	0x32
 10079 2114 00       		.byte	0
 10080 2115 16       		.uleb128 0x16
 10081 2116 8C000000 		.4byte	.LVL435
ARM GAS  C:\Users\RECEPC~1\AppData\Local\Temp\ccoGpf2X.s 			page 217


 10082 211a 572A0000 		.4byte	0x2a57
 10083 211e 28210000 		.4byte	0x2128
 10084 2122 17       		.uleb128 0x17
 10085 2123 01       		.uleb128 0x1
 10086 2124 50       		.byte	0x50
 10087 2125 01       		.uleb128 0x1
 10088 2126 3A       		.byte	0x3a
 10089 2127 00       		.byte	0
 10090 2128 14       		.uleb128 0x14
 10091 2129 90000000 		.4byte	.LVL436
 10092 212d 842C0000 		.4byte	0x2c84
 10093 2131 14       		.uleb128 0x14
 10094 2132 96000000 		.4byte	.LVL437
 10095 2136 792C0000 		.4byte	0x2c79
 10096 213a 16       		.uleb128 0x16
 10097 213b E8000000 		.4byte	.LVL438
 10098 213f 202A0000 		.4byte	0x2a20
 10099 2143 52210000 		.4byte	0x2152
 10100 2147 17       		.uleb128 0x17
 10101 2148 01       		.uleb128 0x1
 10102 2149 51       		.byte	0x51
 10103 214a 01       		.uleb128 0x1
 10104 214b 35       		.byte	0x35
 10105 214c 17       		.uleb128 0x17
 10106 214d 01       		.uleb128 0x1
 10107 214e 50       		.byte	0x50
 10108 214f 01       		.uleb128 0x1
 10109 2150 32       		.byte	0x32
 10110 2151 00       		.byte	0
 10111 2152 16       		.uleb128 0x16
 10112 2153 F8000000 		.4byte	.LVL439
 10113 2157 202A0000 		.4byte	0x2a20
 10114 215b 6B210000 		.4byte	0x216b
 10115 215f 17       		.uleb128 0x17
 10116 2160 01       		.uleb128 0x1
 10117 2161 51       		.byte	0x51
 10118 2162 02       		.uleb128 0x2
 10119 2163 08       		.byte	0x8
 10120 2164 85       		.byte	0x85
 10121 2165 17       		.uleb128 0x17
 10122 2166 01       		.uleb128 0x1
 10123 2167 50       		.byte	0x50
 10124 2168 01       		.uleb128 0x1
 10125 2169 32       		.byte	0x32
 10126 216a 00       		.byte	0
 10127 216b 16       		.uleb128 0x16
 10128 216c 08010000 		.4byte	.LVL440
 10129 2170 202A0000 		.4byte	0x2a20
 10130 2174 84210000 		.4byte	0x2184
 10131 2178 17       		.uleb128 0x17
 10132 2179 01       		.uleb128 0x1
 10133 217a 51       		.byte	0x51
 10134 217b 02       		.uleb128 0x2
 10135 217c 08       		.byte	0x8
 10136 217d 83       		.byte	0x83
 10137 217e 17       		.uleb128 0x17
 10138 217f 01       		.uleb128 0x1
ARM GAS  C:\Users\RECEPC~1\AppData\Local\Temp\ccoGpf2X.s 			page 218


 10139 2180 50       		.byte	0x50
 10140 2181 01       		.uleb128 0x1
 10141 2182 32       		.byte	0x32
 10142 2183 00       		.byte	0
 10143 2184 16       		.uleb128 0x16
 10144 2185 18010000 		.4byte	.LVL441
 10145 2189 202A0000 		.4byte	0x2a20
 10146 218d 9C210000 		.4byte	0x219c
 10147 2191 17       		.uleb128 0x17
 10148 2192 01       		.uleb128 0x1
 10149 2193 51       		.byte	0x51
 10150 2194 01       		.uleb128 0x1
 10151 2195 31       		.byte	0x31
 10152 2196 17       		.uleb128 0x17
 10153 2197 01       		.uleb128 0x1
 10154 2198 50       		.byte	0x50
 10155 2199 01       		.uleb128 0x1
 10156 219a 32       		.byte	0x32
 10157 219b 00       		.byte	0
 10158 219c 16       		.uleb128 0x16
 10159 219d 28010000 		.4byte	.LVL442
 10160 21a1 202A0000 		.4byte	0x2a20
 10161 21a5 B4210000 		.4byte	0x21b4
 10162 21a9 17       		.uleb128 0x17
 10163 21aa 01       		.uleb128 0x1
 10164 21ab 51       		.byte	0x51
 10165 21ac 01       		.uleb128 0x1
 10166 21ad 31       		.byte	0x31
 10167 21ae 17       		.uleb128 0x17
 10168 21af 01       		.uleb128 0x1
 10169 21b0 50       		.byte	0x50
 10170 21b1 01       		.uleb128 0x1
 10171 21b2 32       		.byte	0x32
 10172 21b3 00       		.byte	0
 10173 21b4 16       		.uleb128 0x16
 10174 21b5 2E010000 		.4byte	.LVL443
 10175 21b9 572A0000 		.4byte	0x2a57
 10176 21bd C7210000 		.4byte	0x21c7
 10177 21c1 17       		.uleb128 0x17
 10178 21c2 01       		.uleb128 0x1
 10179 21c3 50       		.byte	0x50
 10180 21c4 01       		.uleb128 0x1
 10181 21c5 3A       		.byte	0x3a
 10182 21c6 00       		.byte	0
 10183 21c7 14       		.uleb128 0x14
 10184 21c8 32010000 		.4byte	.LVL444
 10185 21cc 842C0000 		.4byte	0x2c84
 10186 21d0 14       		.uleb128 0x14
 10187 21d1 38010000 		.4byte	.LVL445
 10188 21d5 792C0000 		.4byte	0x2c79
 10189 21d9 16       		.uleb128 0x16
 10190 21da 8E010000 		.4byte	.LVL446
 10191 21de 202A0000 		.4byte	0x2a20
 10192 21e2 F1210000 		.4byte	0x21f1
 10193 21e6 17       		.uleb128 0x17
 10194 21e7 01       		.uleb128 0x1
 10195 21e8 51       		.byte	0x51
ARM GAS  C:\Users\RECEPC~1\AppData\Local\Temp\ccoGpf2X.s 			page 219


 10196 21e9 01       		.uleb128 0x1
 10197 21ea 36       		.byte	0x36
 10198 21eb 17       		.uleb128 0x17
 10199 21ec 01       		.uleb128 0x1
 10200 21ed 50       		.byte	0x50
 10201 21ee 01       		.uleb128 0x1
 10202 21ef 32       		.byte	0x32
 10203 21f0 00       		.byte	0
 10204 21f1 16       		.uleb128 0x16
 10205 21f2 9E010000 		.4byte	.LVL447
 10206 21f6 202A0000 		.4byte	0x2a20
 10207 21fa 09220000 		.4byte	0x2209
 10208 21fe 17       		.uleb128 0x17
 10209 21ff 01       		.uleb128 0x1
 10210 2200 51       		.byte	0x51
 10211 2201 01       		.uleb128 0x1
 10212 2202 3D       		.byte	0x3d
 10213 2203 17       		.uleb128 0x17
 10214 2204 01       		.uleb128 0x1
 10215 2205 50       		.byte	0x50
 10216 2206 01       		.uleb128 0x1
 10217 2207 32       		.byte	0x32
 10218 2208 00       		.byte	0
 10219 2209 16       		.uleb128 0x16
 10220 220a AE010000 		.4byte	.LVL448
 10221 220e 202A0000 		.4byte	0x2a20
 10222 2212 21220000 		.4byte	0x2221
 10223 2216 17       		.uleb128 0x17
 10224 2217 01       		.uleb128 0x1
 10225 2218 51       		.byte	0x51
 10226 2219 01       		.uleb128 0x1
 10227 221a 3B       		.byte	0x3b
 10228 221b 17       		.uleb128 0x17
 10229 221c 01       		.uleb128 0x1
 10230 221d 50       		.byte	0x50
 10231 221e 01       		.uleb128 0x1
 10232 221f 32       		.byte	0x32
 10233 2220 00       		.byte	0
 10234 2221 16       		.uleb128 0x16
 10235 2222 BE010000 		.4byte	.LVL449
 10236 2226 202A0000 		.4byte	0x2a20
 10237 222a 39220000 		.4byte	0x2239
 10238 222e 17       		.uleb128 0x17
 10239 222f 01       		.uleb128 0x1
 10240 2230 51       		.byte	0x51
 10241 2231 01       		.uleb128 0x1
 10242 2232 31       		.byte	0x31
 10243 2233 17       		.uleb128 0x17
 10244 2234 01       		.uleb128 0x1
 10245 2235 50       		.byte	0x50
 10246 2236 01       		.uleb128 0x1
 10247 2237 32       		.byte	0x32
 10248 2238 00       		.byte	0
 10249 2239 16       		.uleb128 0x16
 10250 223a CE010000 		.4byte	.LVL450
 10251 223e 202A0000 		.4byte	0x2a20
 10252 2242 51220000 		.4byte	0x2251
ARM GAS  C:\Users\RECEPC~1\AppData\Local\Temp\ccoGpf2X.s 			page 220


 10253 2246 17       		.uleb128 0x17
 10254 2247 01       		.uleb128 0x1
 10255 2248 51       		.byte	0x51
 10256 2249 01       		.uleb128 0x1
 10257 224a 31       		.byte	0x31
 10258 224b 17       		.uleb128 0x17
 10259 224c 01       		.uleb128 0x1
 10260 224d 50       		.byte	0x50
 10261 224e 01       		.uleb128 0x1
 10262 224f 32       		.byte	0x32
 10263 2250 00       		.byte	0
 10264 2251 16       		.uleb128 0x16
 10265 2252 DE010000 		.4byte	.LVL451
 10266 2256 202A0000 		.4byte	0x2a20
 10267 225a 69220000 		.4byte	0x2269
 10268 225e 17       		.uleb128 0x17
 10269 225f 01       		.uleb128 0x1
 10270 2260 51       		.byte	0x51
 10271 2261 01       		.uleb128 0x1
 10272 2262 31       		.byte	0x31
 10273 2263 17       		.uleb128 0x17
 10274 2264 01       		.uleb128 0x1
 10275 2265 50       		.byte	0x50
 10276 2266 01       		.uleb128 0x1
 10277 2267 32       		.byte	0x32
 10278 2268 00       		.byte	0
 10279 2269 16       		.uleb128 0x16
 10280 226a E4010000 		.4byte	.LVL452
 10281 226e 572A0000 		.4byte	0x2a57
 10282 2272 7C220000 		.4byte	0x227c
 10283 2276 17       		.uleb128 0x17
 10284 2277 01       		.uleb128 0x1
 10285 2278 50       		.byte	0x50
 10286 2279 01       		.uleb128 0x1
 10287 227a 3A       		.byte	0x3a
 10288 227b 00       		.byte	0
 10289 227c 14       		.uleb128 0x14
 10290 227d E8010000 		.4byte	.LVL453
 10291 2281 842C0000 		.4byte	0x2c84
 10292 2285 14       		.uleb128 0x14
 10293 2286 EE010000 		.4byte	.LVL454
 10294 228a 792C0000 		.4byte	0x2c79
 10295 228e 16       		.uleb128 0x16
 10296 228f 2E020000 		.4byte	.LVL455
 10297 2293 202A0000 		.4byte	0x2a20
 10298 2297 A6220000 		.4byte	0x22a6
 10299 229b 17       		.uleb128 0x17
 10300 229c 01       		.uleb128 0x1
 10301 229d 51       		.byte	0x51
 10302 229e 01       		.uleb128 0x1
 10303 229f 31       		.byte	0x31
 10304 22a0 17       		.uleb128 0x17
 10305 22a1 01       		.uleb128 0x1
 10306 22a2 50       		.byte	0x50
 10307 22a3 01       		.uleb128 0x1
 10308 22a4 32       		.byte	0x32
 10309 22a5 00       		.byte	0
ARM GAS  C:\Users\RECEPC~1\AppData\Local\Temp\ccoGpf2X.s 			page 221


 10310 22a6 16       		.uleb128 0x16
 10311 22a7 3E020000 		.4byte	.LVL456
 10312 22ab 202A0000 		.4byte	0x2a20
 10313 22af BE220000 		.4byte	0x22be
 10314 22b3 17       		.uleb128 0x17
 10315 22b4 01       		.uleb128 0x1
 10316 22b5 51       		.byte	0x51
 10317 22b6 01       		.uleb128 0x1
 10318 22b7 31       		.byte	0x31
 10319 22b8 17       		.uleb128 0x17
 10320 22b9 01       		.uleb128 0x1
 10321 22ba 50       		.byte	0x50
 10322 22bb 01       		.uleb128 0x1
 10323 22bc 32       		.byte	0x32
 10324 22bd 00       		.byte	0
 10325 22be 16       		.uleb128 0x16
 10326 22bf 44020000 		.4byte	.LVL457
 10327 22c3 572A0000 		.4byte	0x2a57
 10328 22c7 D1220000 		.4byte	0x22d1
 10329 22cb 17       		.uleb128 0x17
 10330 22cc 01       		.uleb128 0x1
 10331 22cd 50       		.byte	0x50
 10332 22ce 01       		.uleb128 0x1
 10333 22cf 3A       		.byte	0x3a
 10334 22d0 00       		.byte	0
 10335 22d1 14       		.uleb128 0x14
 10336 22d2 48020000 		.4byte	.LVL458
 10337 22d6 842C0000 		.4byte	0x2c84
 10338 22da 14       		.uleb128 0x14
 10339 22db 4E020000 		.4byte	.LVL459
 10340 22df 792C0000 		.4byte	0x2c79
 10341 22e3 16       		.uleb128 0x16
 10342 22e4 8C020000 		.4byte	.LVL460
 10343 22e8 202A0000 		.4byte	0x2a20
 10344 22ec FB220000 		.4byte	0x22fb
 10345 22f0 17       		.uleb128 0x17
 10346 22f1 01       		.uleb128 0x1
 10347 22f2 51       		.byte	0x51
 10348 22f3 01       		.uleb128 0x1
 10349 22f4 31       		.byte	0x31
 10350 22f5 17       		.uleb128 0x17
 10351 22f6 01       		.uleb128 0x1
 10352 22f7 50       		.byte	0x50
 10353 22f8 01       		.uleb128 0x1
 10354 22f9 32       		.byte	0x32
 10355 22fa 00       		.byte	0
 10356 22fb 16       		.uleb128 0x16
 10357 22fc 9C020000 		.4byte	.LVL461
 10358 2300 202A0000 		.4byte	0x2a20
 10359 2304 13230000 		.4byte	0x2313
 10360 2308 17       		.uleb128 0x17
 10361 2309 01       		.uleb128 0x1
 10362 230a 51       		.byte	0x51
 10363 230b 01       		.uleb128 0x1
 10364 230c 31       		.byte	0x31
 10365 230d 17       		.uleb128 0x17
 10366 230e 01       		.uleb128 0x1
ARM GAS  C:\Users\RECEPC~1\AppData\Local\Temp\ccoGpf2X.s 			page 222


 10367 230f 50       		.byte	0x50
 10368 2310 01       		.uleb128 0x1
 10369 2311 32       		.byte	0x32
 10370 2312 00       		.byte	0
 10371 2313 16       		.uleb128 0x16
 10372 2314 A2020000 		.4byte	.LVL462
 10373 2318 572A0000 		.4byte	0x2a57
 10374 231c 26230000 		.4byte	0x2326
 10375 2320 17       		.uleb128 0x17
 10376 2321 01       		.uleb128 0x1
 10377 2322 50       		.byte	0x50
 10378 2323 01       		.uleb128 0x1
 10379 2324 3A       		.byte	0x3a
 10380 2325 00       		.byte	0
 10381 2326 14       		.uleb128 0x14
 10382 2327 A6020000 		.4byte	.LVL463
 10383 232b 842C0000 		.4byte	0x2c84
 10384 232f 14       		.uleb128 0x14
 10385 2330 B4020000 		.4byte	.LVL464
 10386 2334 792C0000 		.4byte	0x2c79
 10387 2338 16       		.uleb128 0x16
 10388 2339 F2020000 		.4byte	.LVL465
 10389 233d 202A0000 		.4byte	0x2a20
 10390 2341 50230000 		.4byte	0x2350
 10391 2345 17       		.uleb128 0x17
 10392 2346 01       		.uleb128 0x1
 10393 2347 51       		.byte	0x51
 10394 2348 01       		.uleb128 0x1
 10395 2349 3A       		.byte	0x3a
 10396 234a 17       		.uleb128 0x17
 10397 234b 01       		.uleb128 0x1
 10398 234c 50       		.byte	0x50
 10399 234d 01       		.uleb128 0x1
 10400 234e 32       		.byte	0x32
 10401 234f 00       		.byte	0
 10402 2350 16       		.uleb128 0x16
 10403 2351 02030000 		.4byte	.LVL466
 10404 2355 202A0000 		.4byte	0x2a20
 10405 2359 69230000 		.4byte	0x2369
 10406 235d 17       		.uleb128 0x17
 10407 235e 01       		.uleb128 0x1
 10408 235f 51       		.byte	0x51
 10409 2360 02       		.uleb128 0x2
 10410 2361 08       		.byte	0x8
 10411 2362 86       		.byte	0x86
 10412 2363 17       		.uleb128 0x17
 10413 2364 01       		.uleb128 0x1
 10414 2365 50       		.byte	0x50
 10415 2366 01       		.uleb128 0x1
 10416 2367 32       		.byte	0x32
 10417 2368 00       		.byte	0
 10418 2369 16       		.uleb128 0x16
 10419 236a 12030000 		.4byte	.LVL467
 10420 236e 202A0000 		.4byte	0x2a20
 10421 2372 81230000 		.4byte	0x2381
 10422 2376 17       		.uleb128 0x17
 10423 2377 01       		.uleb128 0x1
ARM GAS  C:\Users\RECEPC~1\AppData\Local\Temp\ccoGpf2X.s 			page 223


 10424 2378 51       		.byte	0x51
 10425 2379 01       		.uleb128 0x1
 10426 237a 31       		.byte	0x31
 10427 237b 17       		.uleb128 0x17
 10428 237c 01       		.uleb128 0x1
 10429 237d 50       		.byte	0x50
 10430 237e 01       		.uleb128 0x1
 10431 237f 32       		.byte	0x32
 10432 2380 00       		.byte	0
 10433 2381 16       		.uleb128 0x16
 10434 2382 1E030000 		.4byte	.LVL468
 10435 2386 572A0000 		.4byte	0x2a57
 10436 238a 94230000 		.4byte	0x2394
 10437 238e 17       		.uleb128 0x17
 10438 238f 01       		.uleb128 0x1
 10439 2390 50       		.byte	0x50
 10440 2391 01       		.uleb128 0x1
 10441 2392 3A       		.byte	0x3a
 10442 2393 00       		.byte	0
 10443 2394 14       		.uleb128 0x14
 10444 2395 22030000 		.4byte	.LVL469
 10445 2399 842C0000 		.4byte	0x2c84
 10446 239d 00       		.byte	0
 10447 239e 1D       		.uleb128 0x1d
 10448 239f 470B0000 		.4byte	.LASF287
 10449 23a3 01       		.byte	0x1
 10450 23a4 F204     		.2byte	0x4f2
 10451 23a6 00000000 		.4byte	.LFB73
 10452 23aa 02000000 		.4byte	.LFE73-.LFB73
 10453 23ae 01       		.uleb128 0x1
 10454 23af 9C       		.byte	0x9c
 10455 23b0 13       		.uleb128 0x13
 10456 23b1 B8000000 		.4byte	.LASF168
 10457 23b5 01       		.byte	0x1
 10458 23b6 1F05     		.2byte	0x51f
 10459 23b8 00000000 		.4byte	.LFB75
 10460 23bc 14000000 		.4byte	.LFE75-.LFB75
 10461 23c0 01       		.uleb128 0x1
 10462 23c1 9C       		.byte	0x9c
 10463 23c2 D0230000 		.4byte	0x23d0
 10464 23c6 14       		.uleb128 0x14
 10465 23c7 06000000 		.4byte	.LVL470
 10466 23cb 8B2C0000 		.4byte	0x2c8b
 10467 23cf 00       		.byte	0
 10468 23d0 1E       		.uleb128 0x1e
 10469 23d1 DD020000 		.4byte	.LASF169
 10470 23d5 01       		.byte	0x1
 10471 23d6 2505     		.2byte	0x525
 10472 23d8 7E000000 		.4byte	0x7e
 10473 23dc 00000000 		.4byte	.LFB76
 10474 23e0 8C000000 		.4byte	.LFE76-.LFB76
 10475 23e4 01       		.uleb128 0x1
 10476 23e5 9C       		.byte	0x9c
 10477 23e6 8E240000 		.4byte	0x248e
 10478 23ea 1B       		.uleb128 0x1b
 10479 23eb 7800     		.ascii	"x\000"
 10480 23ed 01       		.byte	0x1
ARM GAS  C:\Users\RECEPC~1\AppData\Local\Temp\ccoGpf2X.s 			page 224


 10481 23ee 2705     		.2byte	0x527
 10482 23f0 AD000000 		.4byte	0xad
 10483 23f4 8A030000 		.4byte	.LLST5
 10484 23f8 14       		.uleb128 0x14
 10485 23f9 08000000 		.4byte	.LVL471
 10486 23fd 57070000 		.4byte	0x757
 10487 2401 16       		.uleb128 0x16
 10488 2402 32000000 		.4byte	.LVL476
 10489 2406 F1290000 		.4byte	0x29f1
 10490 240a 1A240000 		.4byte	0x241a
 10491 240e 17       		.uleb128 0x17
 10492 240f 01       		.uleb128 0x1
 10493 2410 51       		.byte	0x51
 10494 2411 01       		.uleb128 0x1
 10495 2412 37       		.byte	0x37
 10496 2413 17       		.uleb128 0x17
 10497 2414 01       		.uleb128 0x1
 10498 2415 50       		.byte	0x50
 10499 2416 02       		.uleb128 0x2
 10500 2417 74       		.byte	0x74
 10501 2418 00       		.sleb128 0
 10502 2419 00       		.byte	0
 10503 241a 14       		.uleb128 0x14
 10504 241b 38000000 		.4byte	.LVL477
 10505 241f 43080000 		.4byte	0x843
 10506 2423 14       		.uleb128 0x14
 10507 2424 3C000000 		.4byte	.LVL478
 10508 2428 2F0C0000 		.4byte	0xc2f
 10509 242c 16       		.uleb128 0x16
 10510 242d 4A000000 		.4byte	.LVL479
 10511 2431 962C0000 		.4byte	0x2c96
 10512 2435 45240000 		.4byte	0x2445
 10513 2439 17       		.uleb128 0x17
 10514 243a 01       		.uleb128 0x1
 10515 243b 51       		.byte	0x51
 10516 243c 02       		.uleb128 0x2
 10517 243d 74       		.byte	0x74
 10518 243e 00       		.sleb128 0
 10519 243f 17       		.uleb128 0x17
 10520 2440 01       		.uleb128 0x1
 10521 2441 50       		.byte	0x50
 10522 2442 01       		.uleb128 0x1
 10523 2443 33       		.byte	0x33
 10524 2444 00       		.byte	0
 10525 2445 14       		.uleb128 0x14
 10526 2446 4E000000 		.4byte	.LVL480
 10527 244a AC2C0000 		.4byte	0x2cac
 10528 244e 14       		.uleb128 0x14
 10529 244f 58000000 		.4byte	.LVL481
 10530 2453 FB0E0000 		.4byte	0xefb
 10531 2457 14       		.uleb128 0x14
 10532 2458 5C000000 		.4byte	.LVL482
 10533 245c AC2C0000 		.4byte	0x2cac
 10534 2460 14       		.uleb128 0x14
 10535 2461 60000000 		.4byte	.LVL483
 10536 2465 03100000 		.4byte	0x1003
 10537 2469 14       		.uleb128 0x14
ARM GAS  C:\Users\RECEPC~1\AppData\Local\Temp\ccoGpf2X.s 			page 225


 10538 246a 64000000 		.4byte	.LVL484
 10539 246e AC2C0000 		.4byte	0x2cac
 10540 2472 14       		.uleb128 0x14
 10541 2473 68000000 		.4byte	.LVL485
 10542 2477 A4200000 		.4byte	0x20a4
 10543 247b 14       		.uleb128 0x14
 10544 247c 6C000000 		.4byte	.LVL486
 10545 2480 AC2C0000 		.4byte	0x2cac
 10546 2484 14       		.uleb128 0x14
 10547 2485 70000000 		.4byte	.LVL487
 10548 2489 AC2C0000 		.4byte	0x2cac
 10549 248d 00       		.byte	0
 10550 248e 0A       		.uleb128 0xa
 10551 248f AD000000 		.4byte	0xad
 10552 2493 9E240000 		.4byte	0x249e
 10553 2497 0B       		.uleb128 0xb
 10554 2498 27010000 		.4byte	0x127
 10555 249c 1F       		.byte	0x1f
 10556 249d 00       		.byte	0
 10557 249e 1F       		.uleb128 0x1f
 10558 249f 1C000000 		.4byte	.LASF170
 10559 24a3 06       		.byte	0x6
 10560 24a4 3E01     		.2byte	0x13e
 10561 24a6 AA240000 		.4byte	0x24aa
 10562 24aa 06       		.uleb128 0x6
 10563 24ab 8E240000 		.4byte	0x248e
 10564 24af 1F       		.uleb128 0x1f
 10565 24b0 330F0000 		.4byte	.LASF171
 10566 24b4 07       		.byte	0x7
 10567 24b5 3E01     		.2byte	0x13e
 10568 24b7 BB240000 		.4byte	0x24bb
 10569 24bb 06       		.uleb128 0x6
 10570 24bc 8E240000 		.4byte	0x248e
 10571 24c0 1F       		.uleb128 0x1f
 10572 24c1 780A0000 		.4byte	.LASF172
 10573 24c5 08       		.byte	0x8
 10574 24c6 5506     		.2byte	0x655
 10575 24c8 CC240000 		.4byte	0x24cc
 10576 24cc 06       		.uleb128 0x6
 10577 24cd A2000000 		.4byte	0xa2
 10578 24d1 20       		.uleb128 0x20
 10579 24d2 68060000 		.4byte	.LASF173
 10580 24d6 05       		.byte	0x5
 10581 24d7 2C       		.byte	0x2c
 10582 24d8 E2240000 		.4byte	0x24e2
 10583 24dc 05       		.uleb128 0x5
 10584 24dd 03       		.byte	0x3
 10585 24de 00000000 		.4byte	countAnimation1
 10586 24e2 06       		.uleb128 0x6
 10587 24e3 DF000000 		.4byte	0xdf
 10588 24e7 20       		.uleb128 0x20
 10589 24e8 78060000 		.4byte	.LASF174
 10590 24ec 05       		.byte	0x5
 10591 24ed 2D       		.byte	0x2d
 10592 24ee E2240000 		.4byte	0x24e2
 10593 24f2 05       		.uleb128 0x5
 10594 24f3 03       		.byte	0x3
ARM GAS  C:\Users\RECEPC~1\AppData\Local\Temp\ccoGpf2X.s 			page 226


 10595 24f4 00000000 		.4byte	countAnimation2
 10596 24f8 20       		.uleb128 0x20
 10597 24f9 110F0000 		.4byte	.LASF175
 10598 24fd 05       		.byte	0x5
 10599 24fe 2E       		.byte	0x2e
 10600 24ff E2240000 		.4byte	0x24e2
 10601 2503 05       		.uleb128 0x5
 10602 2504 03       		.byte	0x3
 10603 2505 00000000 		.4byte	countBeagleTX
 10604 2509 20       		.uleb128 0x20
 10605 250a 7C030000 		.4byte	.LASF176
 10606 250e 05       		.byte	0x5
 10607 250f 2F       		.byte	0x2f
 10608 2510 E2240000 		.4byte	0x24e2
 10609 2514 05       		.uleb128 0x5
 10610 2515 03       		.byte	0x3
 10611 2516 00000000 		.4byte	countPump
 10612 251a 20       		.uleb128 0x20
 10613 251b 4E050000 		.4byte	.LASF177
 10614 251f 05       		.byte	0x5
 10615 2520 30       		.byte	0x30
 10616 2521 0F010000 		.4byte	0x10f
 10617 2525 05       		.uleb128 0x5
 10618 2526 03       		.byte	0x3
 10619 2527 00000000 		.4byte	flowDisplay1
 10620 252b 20       		.uleb128 0x20
 10621 252c 5B050000 		.4byte	.LASF178
 10622 2530 05       		.byte	0x5
 10623 2531 31       		.byte	0x31
 10624 2532 0F010000 		.4byte	0x10f
 10625 2536 05       		.uleb128 0x5
 10626 2537 03       		.byte	0x3
 10627 2538 00000000 		.4byte	flowDisplay2
 10628 253c 20       		.uleb128 0x20
 10629 253d 68050000 		.4byte	.LASF179
 10630 2541 05       		.byte	0x5
 10631 2542 32       		.byte	0x32
 10632 2543 0F010000 		.4byte	0x10f
 10633 2547 05       		.uleb128 0x5
 10634 2548 03       		.byte	0x3
 10635 2549 00000000 		.4byte	flowDisplay3
 10636 254d 20       		.uleb128 0x20
 10637 254e 75050000 		.4byte	.LASF180
 10638 2552 05       		.byte	0x5
 10639 2553 33       		.byte	0x33
 10640 2554 0F010000 		.4byte	0x10f
 10641 2558 05       		.uleb128 0x5
 10642 2559 03       		.byte	0x3
 10643 255a 00000000 		.4byte	flowDisplay4
 10644 255e 20       		.uleb128 0x20
 10645 255f A0010000 		.4byte	.LASF181
 10646 2563 05       		.byte	0x5
 10647 2564 34       		.byte	0x34
 10648 2565 0A010000 		.4byte	0x10a
 10649 2569 05       		.uleb128 0x5
 10650 256a 03       		.byte	0x3
 10651 256b 00000000 		.4byte	numberKeys1
ARM GAS  C:\Users\RECEPC~1\AppData\Local\Temp\ccoGpf2X.s 			page 227


 10652 256f 20       		.uleb128 0x20
 10653 2570 AC010000 		.4byte	.LASF182
 10654 2574 05       		.byte	0x5
 10655 2575 35       		.byte	0x35
 10656 2576 0A010000 		.4byte	0x10a
 10657 257a 05       		.uleb128 0x5
 10658 257b 03       		.byte	0x3
 10659 257c 00000000 		.4byte	numberKeys2
 10660 2580 20       		.uleb128 0x20
 10661 2581 850D0000 		.4byte	.LASF183
 10662 2585 05       		.byte	0x5
 10663 2586 36       		.byte	0x36
 10664 2587 0A010000 		.4byte	0x10a
 10665 258b 05       		.uleb128 0x5
 10666 258c 03       		.byte	0x3
 10667 258d 00000000 		.4byte	flagPoint1
 10668 2591 20       		.uleb128 0x20
 10669 2592 900D0000 		.4byte	.LASF184
 10670 2596 05       		.byte	0x5
 10671 2597 37       		.byte	0x37
 10672 2598 0A010000 		.4byte	0x10a
 10673 259c 05       		.uleb128 0x5
 10674 259d 03       		.byte	0x3
 10675 259e 00000000 		.4byte	flagPoint2
 10676 25a2 20       		.uleb128 0x20
 10677 25a3 550D0000 		.4byte	.LASF185
 10678 25a7 05       		.byte	0x5
 10679 25a8 38       		.byte	0x38
 10680 25a9 0A010000 		.4byte	0x10a
 10681 25ad 05       		.uleb128 0x5
 10682 25ae 03       		.byte	0x3
 10683 25af 00000000 		.4byte	productNumber
 10684 25b3 20       		.uleb128 0x20
 10685 25b4 E60A0000 		.4byte	.LASF186
 10686 25b8 05       		.byte	0x5
 10687 25b9 39       		.byte	0x39
 10688 25ba 0F010000 		.4byte	0x10f
 10689 25be 05       		.uleb128 0x5
 10690 25bf 03       		.byte	0x3
 10691 25c0 00000000 		.4byte	delayPicture1
 10692 25c4 20       		.uleb128 0x20
 10693 25c5 F40A0000 		.4byte	.LASF187
 10694 25c9 05       		.byte	0x5
 10695 25ca 3A       		.byte	0x3a
 10696 25cb 0F010000 		.4byte	0x10f
 10697 25cf 05       		.uleb128 0x5
 10698 25d0 03       		.byte	0x3
 10699 25d1 00000000 		.4byte	delayPicture2
 10700 25d5 20       		.uleb128 0x20
 10701 25d6 DC090000 		.4byte	.LASF188
 10702 25da 05       		.byte	0x5
 10703 25db 3B       		.byte	0x3b
 10704 25dc 0A010000 		.4byte	0x10a
 10705 25e0 05       		.uleb128 0x5
 10706 25e1 03       		.byte	0x3
 10707 25e2 00000000 		.4byte	ppux10
 10708 25e6 20       		.uleb128 0x20
ARM GAS  C:\Users\RECEPC~1\AppData\Local\Temp\ccoGpf2X.s 			page 228


 10709 25e7 8B0B0000 		.4byte	.LASF189
 10710 25eb 05       		.byte	0x5
 10711 25ec 3C       		.byte	0x3c
 10712 25ed 0A010000 		.4byte	0x10a
 10713 25f1 05       		.uleb128 0x5
 10714 25f2 03       		.byte	0x3
 10715 25f3 00000000 		.4byte	decimalMoney
 10716 25f7 20       		.uleb128 0x20
 10717 25f8 E6010000 		.4byte	.LASF190
 10718 25fc 05       		.byte	0x5
 10719 25fd 3D       		.byte	0x3d
 10720 25fe 0A010000 		.4byte	0x10a
 10721 2602 05       		.uleb128 0x5
 10722 2603 03       		.byte	0x3
 10723 2604 00000000 		.4byte	decimalVolume
 10724 2608 20       		.uleb128 0x20
 10725 2609 8B020000 		.4byte	.LASF191
 10726 260d 05       		.byte	0x5
 10727 260e 3E       		.byte	0x3e
 10728 260f 19260000 		.4byte	0x2619
 10729 2613 05       		.uleb128 0x5
 10730 2614 03       		.byte	0x3
 10731 2615 00000000 		.4byte	symbols
 10732 2619 06       		.uleb128 0x6
 10733 261a 02040000 		.4byte	0x402
 10734 261e 0A       		.uleb128 0xa
 10735 261f AD000000 		.4byte	0xad
 10736 2623 2E260000 		.4byte	0x262e
 10737 2627 0B       		.uleb128 0xb
 10738 2628 27010000 		.4byte	0x127
 10739 262c 02       		.byte	0x2
 10740 262d 00       		.byte	0
 10741 262e 20       		.uleb128 0x20
 10742 262f E80D0000 		.4byte	.LASF192
 10743 2633 05       		.byte	0x5
 10744 2634 3F       		.byte	0x3f
 10745 2635 3F260000 		.4byte	0x263f
 10746 2639 05       		.uleb128 0x5
 10747 263a 03       		.byte	0x3
 10748 263b 00000000 		.4byte	time
 10749 263f 06       		.uleb128 0x6
 10750 2640 1E260000 		.4byte	0x261e
 10751 2644 20       		.uleb128 0x20
 10752 2645 31030000 		.4byte	.LASF193
 10753 2649 05       		.byte	0x5
 10754 264a 40       		.byte	0x40
 10755 264b 55260000 		.4byte	0x2655
 10756 264f 05       		.uleb128 0x5
 10757 2650 03       		.byte	0x3
 10758 2651 00000000 		.4byte	date
 10759 2655 06       		.uleb128 0x6
 10760 2656 1E260000 		.4byte	0x261e
 10761 265a 20       		.uleb128 0x20
 10762 265b 7D010000 		.4byte	.LASF194
 10763 265f 05       		.byte	0x5
 10764 2660 41       		.byte	0x41
 10765 2661 6B260000 		.4byte	0x266b
ARM GAS  C:\Users\RECEPC~1\AppData\Local\Temp\ccoGpf2X.s 			page 229


 10766 2665 05       		.uleb128 0x5
 10767 2666 03       		.byte	0x3
 10768 2667 00000000 		.4byte	screen
 10769 266b 06       		.uleb128 0x6
 10770 266c 02040000 		.4byte	0x402
 10771 2670 20       		.uleb128 0x20
 10772 2671 020A0000 		.4byte	.LASF195
 10773 2675 05       		.byte	0x5
 10774 2676 42       		.byte	0x42
 10775 2677 81260000 		.4byte	0x2681
 10776 267b 05       		.uleb128 0x5
 10777 267c 03       		.byte	0x3
 10778 267d 00000000 		.4byte	residue
 10779 2681 06       		.uleb128 0x6
 10780 2682 48040000 		.4byte	0x448
 10781 2686 0A       		.uleb128 0xa
 10782 2687 AD000000 		.4byte	0xad
 10783 268b 96260000 		.4byte	0x2696
 10784 268f 0B       		.uleb128 0xb
 10785 2690 27010000 		.4byte	0x127
 10786 2694 1D       		.byte	0x1d
 10787 2695 00       		.byte	0
 10788 2696 20       		.uleb128 0x20
 10789 2697 13000000 		.4byte	.LASF196
 10790 269b 05       		.byte	0x5
 10791 269c 43       		.byte	0x43
 10792 269d 86260000 		.4byte	0x2686
 10793 26a1 05       		.uleb128 0x5
 10794 26a2 03       		.byte	0x3
 10795 26a3 00000000 		.4byte	temporal
 10796 26a7 20       		.uleb128 0x20
 10797 26a8 2A0F0000 		.4byte	.LASF197
 10798 26ac 05       		.byte	0x5
 10799 26ad 44       		.byte	0x44
 10800 26ae B8260000 		.4byte	0x26b8
 10801 26b2 05       		.uleb128 0x5
 10802 26b3 03       		.byte	0x3
 10803 26b4 00000000 		.4byte	idSeller
 10804 26b8 06       		.uleb128 0x6
 10805 26b9 D2030000 		.4byte	0x3d2
 10806 26bd 20       		.uleb128 0x20
 10807 26be 55090000 		.4byte	.LASF198
 10808 26c2 05       		.byte	0x5
 10809 26c3 45       		.byte	0x45
 10810 26c4 0A010000 		.4byte	0x10a
 10811 26c8 05       		.uleb128 0x5
 10812 26c9 03       		.byte	0x3
 10813 26ca 00000000 		.4byte	typeIdSeller
 10814 26ce 0A       		.uleb128 0xa
 10815 26cf AD000000 		.4byte	0xad
 10816 26d3 DE260000 		.4byte	0x26de
 10817 26d7 0B       		.uleb128 0xb
 10818 26d8 27010000 		.4byte	0x127
 10819 26dc 07       		.byte	0x7
 10820 26dd 00       		.byte	0
 10821 26de 20       		.uleb128 0x20
 10822 26df B8010000 		.4byte	.LASF199
ARM GAS  C:\Users\RECEPC~1\AppData\Local\Temp\ccoGpf2X.s 			page 230


 10823 26e3 05       		.byte	0x5
 10824 26e4 46       		.byte	0x46
 10825 26e5 EF260000 		.4byte	0x26ef
 10826 26e9 05       		.uleb128 0x5
 10827 26ea 03       		.byte	0x3
 10828 26eb 00000000 		.4byte	passwordSeller
 10829 26ef 06       		.uleb128 0x6
 10830 26f0 CE260000 		.4byte	0x26ce
 10831 26f4 20       		.uleb128 0x20
 10832 26f5 850A0000 		.4byte	.LASF200
 10833 26f9 05       		.byte	0x5
 10834 26fa 47       		.byte	0x47
 10835 26fb 0A010000 		.4byte	0x10a
 10836 26ff 05       		.uleb128 0x5
 10837 2700 03       		.byte	0x3
 10838 2701 00000000 		.4byte	flagResetMux
 10839 2705 20       		.uleb128 0x20
 10840 2706 88060000 		.4byte	.LASF201
 10841 270a 05       		.byte	0x5
 10842 270b 48       		.byte	0x48
 10843 270c 0A010000 		.4byte	0x10a
 10844 2710 05       		.uleb128 0x5
 10845 2711 03       		.byte	0x3
 10846 2712 00000000 		.4byte	stateBeagleSoft
 10847 2716 20       		.uleb128 0x20
 10848 2717 23110000 		.4byte	.LASF202
 10849 271b 05       		.byte	0x5
 10850 271c 49       		.byte	0x49
 10851 271d 27270000 		.4byte	0x2727
 10852 2721 05       		.uleb128 0x5
 10853 2722 03       		.byte	0x3
 10854 2723 00000000 		.4byte	PrevStatePump
 10855 2727 06       		.uleb128 0x6
 10856 2728 39010000 		.4byte	0x139
 10857 272c 20       		.uleb128 0x20
 10858 272d 1F090000 		.4byte	.LASF203
 10859 2731 05       		.byte	0x5
 10860 2732 4A       		.byte	0x4a
 10861 2733 0A010000 		.4byte	0x10a
 10862 2737 05       		.uleb128 0x5
 10863 2738 03       		.byte	0x3
 10864 2739 00000000 		.4byte	PlateRequest
 10865 273d 20       		.uleb128 0x20
 10866 273e E10D0000 		.4byte	.LASF204
 10867 2742 05       		.byte	0x5
 10868 2743 4B       		.byte	0x4b
 10869 2744 4E270000 		.4byte	0x274e
 10870 2748 05       		.uleb128 0x5
 10871 2749 03       		.byte	0x3
 10872 274a 00000000 		.4byte	IDCast
 10873 274e 06       		.uleb128 0x6
 10874 274f 39010000 		.4byte	0x139
 10875 2753 20       		.uleb128 0x20
 10876 2754 09060000 		.4byte	.LASF205
 10877 2758 05       		.byte	0x5
 10878 2759 4D       		.byte	0x4d
 10879 275a AD000000 		.4byte	0xad
ARM GAS  C:\Users\RECEPC~1\AppData\Local\Temp\ccoGpf2X.s 			page 231


 10880 275e 05       		.uleb128 0x5
 10881 275f 03       		.byte	0x3
 10882 2760 00000000 		.4byte	UnitType
 10883 2764 20       		.uleb128 0x20
 10884 2765 AC0C0000 		.4byte	.LASF206
 10885 2769 05       		.byte	0x5
 10886 276a 4D       		.byte	0x4d
 10887 276b AD000000 		.4byte	0xad
 10888 276f 05       		.uleb128 0x5
 10889 2770 03       		.byte	0x3
 10890 2771 00000000 		.4byte	ConversionFactor
 10891 2775 20       		.uleb128 0x20
 10892 2776 AF0A0000 		.4byte	.LASF207
 10893 277a 05       		.byte	0x5
 10894 277b 4D       		.byte	0x4d
 10895 277c AD000000 		.4byte	0xad
 10896 2780 05       		.uleb128 0x5
 10897 2781 03       		.byte	0x3
 10898 2782 00000000 		.4byte	MoneyDec
 10899 2786 20       		.uleb128 0x20
 10900 2787 0E0E0000 		.4byte	.LASF208
 10901 278b 05       		.byte	0x5
 10902 278c 4D       		.byte	0x4d
 10903 278d AD000000 		.4byte	0xad
 10904 2791 05       		.uleb128 0x5
 10905 2792 03       		.byte	0x3
 10906 2793 00000000 		.4byte	VolDec
 10907 2797 20       		.uleb128 0x20
 10908 2798 A80B0000 		.4byte	.LASF209
 10909 279c 05       		.byte	0x5
 10910 279d 4D       		.byte	0x4d
 10911 279e AD000000 		.4byte	0xad
 10912 27a2 05       		.uleb128 0x5
 10913 27a3 03       		.byte	0x3
 10914 27a4 00000000 		.4byte	PPUDec
 10915 27a8 20       		.uleb128 0x20
 10916 27a9 C2070000 		.4byte	.LASF210
 10917 27ad 05       		.byte	0x5
 10918 27ae 4D       		.byte	0x4d
 10919 27af AD000000 		.4byte	0xad
 10920 27b3 05       		.uleb128 0x5
 10921 27b4 03       		.byte	0x3
 10922 27b5 00000000 		.4byte	DDMode
 10923 27b9 20       		.uleb128 0x20
 10924 27ba 82050000 		.4byte	.LASF211
 10925 27be 05       		.byte	0x5
 10926 27bf 4E       		.byte	0x4e
 10927 27c0 39010000 		.4byte	0x139
 10928 27c4 05       		.uleb128 0x5
 10929 27c5 03       		.byte	0x3
 10930 27c6 00000000 		.4byte	statePump
 10931 27ca 20       		.uleb128 0x20
 10932 27cb A4000000 		.4byte	.LASF212
 10933 27cf 05       		.byte	0x5
 10934 27d0 4F       		.byte	0x4f
 10935 27d1 AD000000 		.4byte	0xad
 10936 27d5 05       		.uleb128 0x5
ARM GAS  C:\Users\RECEPC~1\AppData\Local\Temp\ccoGpf2X.s 			page 232


 10937 27d6 03       		.byte	0x3
 10938 27d7 00000000 		.4byte	NumPositions
 10939 27db 20       		.uleb128 0x20
 10940 27dc B6050000 		.4byte	.LASF213
 10941 27e0 05       		.byte	0x5
 10942 27e1 50       		.byte	0x50
 10943 27e2 AD000000 		.4byte	0xad
 10944 27e6 05       		.uleb128 0x5
 10945 27e7 03       		.byte	0x3
 10946 27e8 00000000 		.4byte	lockTurn
 10947 27ec 20       		.uleb128 0x20
 10948 27ed B1000000 		.4byte	.LASF214
 10949 27f1 05       		.byte	0x5
 10950 27f2 51       		.byte	0x51
 10951 27f3 AD000000 		.4byte	0xad
 10952 27f7 05       		.uleb128 0x5
 10953 27f8 03       		.byte	0x3
 10954 27f9 00000000 		.4byte	digits
 10955 27fd 20       		.uleb128 0x20
 10956 27fe 700D0000 		.4byte	.LASF215
 10957 2802 05       		.byte	0x5
 10958 2803 52       		.byte	0x52
 10959 2804 AD000000 		.4byte	0xad
 10960 2808 05       		.uleb128 0x5
 10961 2809 03       		.byte	0x3
 10962 280a 00000000 		.4byte	hiddenKeys
 10963 280e 20       		.uleb128 0x20
 10964 280f 47070000 		.4byte	.LASF216
 10965 2813 05       		.byte	0x5
 10966 2814 53       		.byte	0x53
 10967 2815 AD000000 		.4byte	0xad
 10968 2819 05       		.uleb128 0x5
 10969 281a 03       		.byte	0x3
 10970 281b 00000000 		.4byte	PrinterType
 10971 281f 0A       		.uleb128 0xa
 10972 2820 EB000000 		.4byte	0xeb
 10973 2824 2F280000 		.4byte	0x282f
 10974 2828 0B       		.uleb128 0xb
 10975 2829 27010000 		.4byte	0x127
 10976 282d 05       		.byte	0x5
 10977 282e 00       		.byte	0
 10978 282f 20       		.uleb128 0x20
 10979 2830 E80E0000 		.4byte	.LASF217
 10980 2834 05       		.byte	0x5
 10981 2835 54       		.byte	0x54
 10982 2836 1F280000 		.4byte	0x281f
 10983 283a 05       		.uleb128 0x5
 10984 283b 03       		.byte	0x3
 10985 283c 00000000 		.4byte	VolUnit
 10986 2840 20       		.uleb128 0x20
 10987 2841 3F100000 		.4byte	.LASF218
 10988 2845 05       		.byte	0x5
 10989 2846 55       		.byte	0x55
 10990 2847 1E260000 		.4byte	0x261e
 10991 284b 05       		.uleb128 0x5
 10992 284c 03       		.byte	0x3
 10993 284d 00000000 		.4byte	dateDownHandle
ARM GAS  C:\Users\RECEPC~1\AppData\Local\Temp\ccoGpf2X.s 			page 233


 10994 2851 20       		.uleb128 0x20
 10995 2852 1B100000 		.4byte	.LASF219
 10996 2856 05       		.byte	0x5
 10997 2857 56       		.byte	0x56
 10998 2858 02040000 		.4byte	0x402
 10999 285c 05       		.uleb128 0x5
 11000 285d 03       		.byte	0x3
 11001 285e 00000000 		.4byte	timeDownHandle
 11002 2862 20       		.uleb128 0x20
 11003 2863 8D0F0000 		.4byte	.LASF220
 11004 2867 05       		.byte	0x5
 11005 2868 57       		.byte	0x57
 11006 2869 AD000000 		.4byte	0xad
 11007 286d 05       		.uleb128 0x5
 11008 286e 03       		.byte	0x3
 11009 286f 00000000 		.4byte	count_protector
 11010 2873 20       		.uleb128 0x20
 11011 2874 64100000 		.4byte	.LASF221
 11012 2878 05       		.byte	0x5
 11013 2879 57       		.byte	0x57
 11014 287a AD000000 		.4byte	0xad
 11015 287e 05       		.uleb128 0x5
 11016 287f 03       		.byte	0x3
 11017 2880 00000000 		.4byte	count_protector2
 11018 2884 20       		.uleb128 0x20
 11019 2885 6C0F0000 		.4byte	.LASF222
 11020 2889 05       		.byte	0x5
 11021 288a 58       		.byte	0x58
 11022 288b 28040000 		.4byte	0x428
 11023 288f 05       		.uleb128 0x5
 11024 2890 03       		.byte	0x3
 11025 2891 00000000 		.4byte	configAccess
 11026 2895 20       		.uleb128 0x20
 11027 2896 EB050000 		.4byte	.LASF223
 11028 289a 05       		.byte	0x5
 11029 289b 59       		.byte	0x59
 11030 289c AD000000 		.4byte	0xad
 11031 28a0 05       		.uleb128 0x5
 11032 28a1 03       		.byte	0x3
 11033 28a2 00000000 		.4byte	controlChar
 11034 28a6 0A       		.uleb128 0xa
 11035 28a7 EB000000 		.4byte	0xeb
 11036 28ab B6280000 		.4byte	0x28b6
 11037 28af 0B       		.uleb128 0xb
 11038 28b0 27010000 		.4byte	0x127
 11039 28b4 04       		.byte	0x4
 11040 28b5 00       		.byte	0
 11041 28b6 20       		.uleb128 0x20
 11042 28b7 440C0000 		.4byte	.LASF224
 11043 28bb 05       		.byte	0x5
 11044 28bc 5A       		.byte	0x5a
 11045 28bd A6280000 		.4byte	0x28a6
 11046 28c1 05       		.uleb128 0x5
 11047 28c2 03       		.byte	0x3
 11048 28c3 00000000 		.4byte	idStation
 11049 28c7 20       		.uleb128 0x20
 11050 28c8 9D0F0000 		.4byte	.LASF225
ARM GAS  C:\Users\RECEPC~1\AppData\Local\Temp\ccoGpf2X.s 			page 234


 11051 28cc 05       		.byte	0x5
 11052 28cd 5B       		.byte	0x5b
 11053 28ce 1E260000 		.4byte	0x261e
 11054 28d2 05       		.uleb128 0x5
 11055 28d3 03       		.byte	0x3
 11056 28d4 00000000 		.4byte	pumpGap
 11057 28d8 20       		.uleb128 0x20
 11058 28d9 BA080000 		.4byte	.LASF226
 11059 28dd 05       		.byte	0x5
 11060 28de 5C       		.byte	0x5c
 11061 28df AD000000 		.4byte	0xad
 11062 28e3 05       		.uleb128 0x5
 11063 28e4 03       		.byte	0x3
 11064 28e5 00000000 		.4byte	printPortA
 11065 28e9 20       		.uleb128 0x20
 11066 28ea DB000000 		.4byte	.LASF227
 11067 28ee 05       		.byte	0x5
 11068 28ef 5D       		.byte	0x5d
 11069 28f0 AD000000 		.4byte	0xad
 11070 28f4 05       		.uleb128 0x5
 11071 28f5 03       		.byte	0x3
 11072 28f6 00000000 		.4byte	printPortB
 11073 28fa 0A       		.uleb128 0xa
 11074 28fb AD000000 		.4byte	0xad
 11075 28ff 0B290000 		.4byte	0x290b
 11076 2903 21       		.uleb128 0x21
 11077 2904 27010000 		.4byte	0x127
 11078 2908 DB05     		.2byte	0x5db
 11079 290a 00       		.byte	0
 11080 290b 20       		.uleb128 0x20
 11081 290c 94070000 		.4byte	.LASF228
 11082 2910 05       		.byte	0x5
 11083 2911 5E       		.byte	0x5e
 11084 2912 FA280000 		.4byte	0x28fa
 11085 2916 05       		.uleb128 0x5
 11086 2917 03       		.byte	0x3
 11087 2918 00000000 		.4byte	buffer_rf
 11088 291c 20       		.uleb128 0x20
 11089 291d A2080000 		.4byte	.LASF229
 11090 2921 05       		.byte	0x5
 11091 2922 5F       		.byte	0x5f
 11092 2923 FA280000 		.4byte	0x28fa
 11093 2927 05       		.uleb128 0x5
 11094 2928 03       		.byte	0x3
 11095 2929 00000000 		.4byte	buffer_tx
 11096 292d 20       		.uleb128 0x20
 11097 292e 5B060000 		.4byte	.LASF230
 11098 2932 05       		.byte	0x5
 11099 2933 60       		.byte	0x60
 11100 2934 B9000000 		.4byte	0xb9
 11101 2938 05       		.uleb128 0x5
 11102 2939 03       		.byte	0x3
 11103 293a 00000000 		.4byte	intIDStation
 11104 293e 20       		.uleb128 0x20
 11105 293f 98060000 		.4byte	.LASF231
 11106 2943 05       		.byte	0x5
 11107 2944 A0       		.byte	0xa0
ARM GAS  C:\Users\RECEPC~1\AppData\Local\Temp\ccoGpf2X.s 			page 235


 11108 2945 49010000 		.4byte	0x149
 11109 2949 05       		.uleb128 0x5
 11110 294a 03       		.byte	0x3
 11111 294b 00000000 		.4byte	bufferDisplay1
 11112 294f 20       		.uleb128 0x20
 11113 2950 C5080000 		.4byte	.LASF232
 11114 2954 05       		.byte	0x5
 11115 2955 A1       		.byte	0xa1
 11116 2956 49010000 		.4byte	0x149
 11117 295a 05       		.uleb128 0x5
 11118 295b 03       		.byte	0x3
 11119 295c 00000000 		.4byte	bufferDisplay2
 11120 2960 20       		.uleb128 0x20
 11121 2961 D4080000 		.4byte	.LASF233
 11122 2965 05       		.byte	0x5
 11123 2966 A2       		.byte	0xa2
 11124 2967 49010000 		.4byte	0x149
 11125 296b 05       		.uleb128 0x5
 11126 296c 03       		.byte	0x3
 11127 296d 00000000 		.4byte	bufferDisplay3
 11128 2971 20       		.uleb128 0x20
 11129 2972 E3080000 		.4byte	.LASF234
 11130 2976 05       		.byte	0x5
 11131 2977 A3       		.byte	0xa3
 11132 2978 49010000 		.4byte	0x149
 11133 297c 05       		.uleb128 0x5
 11134 297d 03       		.byte	0x3
 11135 297e 00000000 		.4byte	bufferDisplay4
 11136 2982 20       		.uleb128 0x20
 11137 2983 F1100000 		.4byte	.LASF235
 11138 2987 05       		.byte	0x5
 11139 2988 C2       		.byte	0xc2
 11140 2989 85050000 		.4byte	0x585
 11141 298d 05       		.uleb128 0x5
 11142 298e 03       		.byte	0x3
 11143 298f 00000000 		.4byte	side
 11144 2993 20       		.uleb128 0x20
 11145 2994 AF0B0000 		.4byte	.LASF236
 11146 2998 01       		.byte	0x1
 11147 2999 1C       		.byte	0x1c
 11148 299a E2030000 		.4byte	0x3e2
 11149 299e 05       		.uleb128 0x5
 11150 299f 03       		.byte	0x3
 11151 29a0 00000000 		.4byte	MuxVersion
 11152 29a4 20       		.uleb128 0x20
 11153 29a5 630D0000 		.4byte	.LASF237
 11154 29a9 01       		.byte	0x1
 11155 29aa 1D       		.byte	0x1d
 11156 29ab 28040000 		.4byte	0x428
 11157 29af 05       		.uleb128 0x5
 11158 29b0 03       		.byte	0x3
 11159 29b1 00000000 		.4byte	passwordPump
 11160 29b5 22       		.uleb128 0x22
 11161 29b6 0D010000 		.4byte	.LASF250
 11162 29ba 10       		.byte	0x10
 11163 29bb 5E       		.byte	0x5e
 11164 29bc AD000000 		.4byte	0xad
ARM GAS  C:\Users\RECEPC~1\AppData\Local\Temp\ccoGpf2X.s 			page 236


 11165 29c0 23       		.uleb128 0x23
 11166 29c1 D1050000 		.4byte	.LASF238
 11167 29c5 09       		.byte	0x9
 11168 29c6 1F       		.byte	0x1f
 11169 29c7 23       		.uleb128 0x23
 11170 29c8 060F0000 		.4byte	.LASF239
 11171 29cc 0A       		.byte	0xa
 11172 29cd 54       		.byte	0x54
 11173 29ce 23       		.uleb128 0x23
 11174 29cf 14110000 		.4byte	.LASF240
 11175 29d3 06       		.byte	0x6
 11176 29d4 54       		.byte	0x54
 11177 29d5 23       		.uleb128 0x23
 11178 29d6 0F0D0000 		.4byte	.LASF241
 11179 29da 07       		.byte	0x7
 11180 29db 54       		.byte	0x54
 11181 29dc 23       		.uleb128 0x23
 11182 29dd 60030000 		.4byte	.LASF242
 11183 29e1 0B       		.byte	0xb
 11184 29e2 54       		.byte	0x54
 11185 29e3 23       		.uleb128 0x23
 11186 29e4 4E100000 		.4byte	.LASF243
 11187 29e8 0C       		.byte	0xc
 11188 29e9 AC       		.byte	0xac
 11189 29ea 23       		.uleb128 0x23
 11190 29eb 790F0000 		.4byte	.LASF244
 11191 29ef 0D       		.byte	0xd
 11192 29f0 54       		.byte	0x54
 11193 29f1 24       		.uleb128 0x24
 11194 29f2 D80F0000 		.4byte	.LASF245
 11195 29f6 09       		.byte	0x9
 11196 29f7 21       		.byte	0x21
 11197 29f8 FE000000 		.4byte	0xfe
 11198 29fc 0B2A0000 		.4byte	0x2a0b
 11199 2a00 25       		.uleb128 0x25
 11200 2a01 AD000000 		.4byte	0xad
 11201 2a05 25       		.uleb128 0x25
 11202 2a06 B9000000 		.4byte	0xb9
 11203 2a0a 00       		.byte	0
 11204 2a0b 24       		.uleb128 0x24
 11205 2a0c 430D0000 		.4byte	.LASF246
 11206 2a10 09       		.byte	0x9
 11207 2a11 23       		.byte	0x23
 11208 2a12 AD000000 		.4byte	0xad
 11209 2a16 202A0000 		.4byte	0x2a20
 11210 2a1a 25       		.uleb128 0x25
 11211 2a1b B9000000 		.4byte	0xb9
 11212 2a1f 00       		.byte	0
 11213 2a20 26       		.uleb128 0x26
 11214 2a21 E6100000 		.4byte	.LASF247
 11215 2a25 0E       		.byte	0xe
 11216 2a26 22       		.byte	0x22
 11217 2a27 362A0000 		.4byte	0x2a36
 11218 2a2b 25       		.uleb128 0x25
 11219 2a2c AD000000 		.4byte	0xad
 11220 2a30 25       		.uleb128 0x25
 11221 2a31 B9000000 		.4byte	0xb9
ARM GAS  C:\Users\RECEPC~1\AppData\Local\Temp\ccoGpf2X.s 			page 237


 11222 2a35 00       		.byte	0
 11223 2a36 26       		.uleb128 0x26
 11224 2a37 940E0000 		.4byte	.LASF248
 11225 2a3b 0E       		.byte	0xe
 11226 2a3c 29       		.byte	0x29
 11227 2a3d 512A0000 		.4byte	0x2a51
 11228 2a41 25       		.uleb128 0x25
 11229 2a42 AD000000 		.4byte	0xad
 11230 2a46 25       		.uleb128 0x25
 11231 2a47 512A0000 		.4byte	0x2a51
 11232 2a4b 25       		.uleb128 0x25
 11233 2a4c AD000000 		.4byte	0xad
 11234 2a50 00       		.byte	0
 11235 2a51 07       		.uleb128 0x7
 11236 2a52 04       		.byte	0x4
 11237 2a53 AD000000 		.4byte	0xad
 11238 2a57 26       		.uleb128 0x26
 11239 2a58 5C100000 		.4byte	.LASF249
 11240 2a5c 0F       		.byte	0xf
 11241 2a5d 77       		.byte	0x77
 11242 2a5e 682A0000 		.4byte	0x2a68
 11243 2a62 25       		.uleb128 0x25
 11244 2a63 C5000000 		.4byte	0xc5
 11245 2a67 00       		.byte	0
 11246 2a68 22       		.uleb128 0x22
 11247 2a69 D4060000 		.4byte	.LASF251
 11248 2a6d 11       		.byte	0x11
 11249 2a6e 23       		.byte	0x23
 11250 2a6f AD000000 		.4byte	0xad
 11251 2a73 24       		.uleb128 0x24
 11252 2a74 51000000 		.4byte	.LASF252
 11253 2a78 11       		.byte	0x11
 11254 2a79 22       		.byte	0x22
 11255 2a7a AD000000 		.4byte	0xad
 11256 2a7e 882A0000 		.4byte	0x2a88
 11257 2a82 25       		.uleb128 0x25
 11258 2a83 AD000000 		.4byte	0xad
 11259 2a87 00       		.byte	0
 11260 2a88 24       		.uleb128 0x24
 11261 2a89 E2020000 		.4byte	.LASF253
 11262 2a8d 11       		.byte	0x11
 11263 2a8e 2D       		.byte	0x2d
 11264 2a8f 9D2A0000 		.4byte	0x2a9d
 11265 2a93 9D2A0000 		.4byte	0x2a9d
 11266 2a97 25       		.uleb128 0x25
 11267 2a98 AD000000 		.4byte	0xad
 11268 2a9c 00       		.byte	0
 11269 2a9d 02       		.uleb128 0x2
 11270 2a9e 01       		.byte	0x1
 11271 2a9f 02       		.byte	0x2
 11272 2aa0 2B030000 		.4byte	.LASF254
 11273 2aa4 24       		.uleb128 0x24
 11274 2aa5 540B0000 		.4byte	.LASF255
 11275 2aa9 11       		.byte	0x11
 11276 2aaa 29       		.byte	0x29
 11277 2aab AD000000 		.4byte	0xad
 11278 2aaf B92A0000 		.4byte	0x2ab9
ARM GAS  C:\Users\RECEPC~1\AppData\Local\Temp\ccoGpf2X.s 			page 238


 11279 2ab3 25       		.uleb128 0x25
 11280 2ab4 AD000000 		.4byte	0xad
 11281 2ab8 00       		.byte	0
 11282 2ab9 24       		.uleb128 0x24
 11283 2aba 880E0000 		.4byte	.LASF256
 11284 2abe 12       		.byte	0x12
 11285 2abf 27       		.byte	0x27
 11286 2ac0 AD000000 		.4byte	0xad
 11287 2ac4 D32A0000 		.4byte	0x2ad3
 11288 2ac8 25       		.uleb128 0x25
 11289 2ac9 AD000000 		.4byte	0xad
 11290 2acd 25       		.uleb128 0x25
 11291 2ace AD000000 		.4byte	0xad
 11292 2ad2 00       		.byte	0
 11293 2ad3 23       		.uleb128 0x23
 11294 2ad4 80020000 		.4byte	.LASF257
 11295 2ad8 13       		.byte	0x13
 11296 2ad9 19       		.byte	0x19
 11297 2ada 23       		.uleb128 0x23
 11298 2adb 68010000 		.4byte	.LASF258
 11299 2adf 10       		.byte	0x10
 11300 2ae0 5B       		.byte	0x5b
 11301 2ae1 22       		.uleb128 0x22
 11302 2ae2 010C0000 		.4byte	.LASF259
 11303 2ae6 06       		.byte	0x6
 11304 2ae7 73       		.byte	0x73
 11305 2ae8 AD000000 		.4byte	0xad
 11306 2aec 23       		.uleb128 0x23
 11307 2aed 44060000 		.4byte	.LASF260
 11308 2af1 06       		.byte	0x6
 11309 2af2 75       		.byte	0x75
 11310 2af3 26       		.uleb128 0x26
 11311 2af4 DD010000 		.4byte	.LASF261
 11312 2af8 0E       		.byte	0xe
 11313 2af9 24       		.byte	0x24
 11314 2afa 222B0000 		.4byte	0x2b22
 11315 2afe 25       		.uleb128 0x25
 11316 2aff 8C000000 		.4byte	0x8c
 11317 2b03 25       		.uleb128 0x25
 11318 2b04 8C000000 		.4byte	0x8c
 11319 2b08 25       		.uleb128 0x25
 11320 2b09 97000000 		.4byte	0x97
 11321 2b0d 25       		.uleb128 0x25
 11322 2b0e 97000000 		.4byte	0x97
 11323 2b12 25       		.uleb128 0x25
 11324 2b13 8C000000 		.4byte	0x8c
 11325 2b17 25       		.uleb128 0x25
 11326 2b18 97000000 		.4byte	0x97
 11327 2b1c 25       		.uleb128 0x25
 11328 2b1d 8C000000 		.4byte	0x8c
 11329 2b21 00       		.byte	0
 11330 2b22 24       		.uleb128 0x24
 11331 2b23 31070000 		.4byte	.LASF262
 11332 2b27 14       		.byte	0x14
 11333 2b28 15       		.byte	0x15
 11334 2b29 AD000000 		.4byte	0xad
 11335 2b2d 412B0000 		.4byte	0x2b41
ARM GAS  C:\Users\RECEPC~1\AppData\Local\Temp\ccoGpf2X.s 			page 239


 11336 2b31 25       		.uleb128 0x25
 11337 2b32 AD000000 		.4byte	0xad
 11338 2b36 25       		.uleb128 0x25
 11339 2b37 AD000000 		.4byte	0xad
 11340 2b3b 25       		.uleb128 0x25
 11341 2b3c AD000000 		.4byte	0xad
 11342 2b40 00       		.byte	0
 11343 2b41 26       		.uleb128 0x26
 11344 2b42 AC080000 		.4byte	.LASF263
 11345 2b46 13       		.byte	0x13
 11346 2b47 18       		.byte	0x18
 11347 2b48 522B0000 		.4byte	0x2b52
 11348 2b4c 25       		.uleb128 0x25
 11349 2b4d 14010000 		.4byte	0x114
 11350 2b51 00       		.byte	0
 11351 2b52 23       		.uleb128 0x23
 11352 2b53 CA030000 		.4byte	.LASF264
 11353 2b57 10       		.byte	0x10
 11354 2b58 5A       		.byte	0x5a
 11355 2b59 24       		.uleb128 0x24
 11356 2b5a A3040000 		.4byte	.LASF265
 11357 2b5e 11       		.byte	0x11
 11358 2b5f 2A       		.byte	0x2a
 11359 2b60 AD000000 		.4byte	0xad
 11360 2b64 6E2B0000 		.4byte	0x2b6e
 11361 2b68 25       		.uleb128 0x25
 11362 2b69 AD000000 		.4byte	0xad
 11363 2b6d 00       		.byte	0
 11364 2b6e 24       		.uleb128 0x24
 11365 2b6f B2100000 		.4byte	.LASF266
 11366 2b73 11       		.byte	0x11
 11367 2b74 2B       		.byte	0x2b
 11368 2b75 AD000000 		.4byte	0xad
 11369 2b79 922B0000 		.4byte	0x2b92
 11370 2b7d 25       		.uleb128 0x25
 11371 2b7e AD000000 		.4byte	0xad
 11372 2b82 25       		.uleb128 0x25
 11373 2b83 EB000000 		.4byte	0xeb
 11374 2b87 25       		.uleb128 0x25
 11375 2b88 512A0000 		.4byte	0x2a51
 11376 2b8c 25       		.uleb128 0x25
 11377 2b8d AD000000 		.4byte	0xad
 11378 2b91 00       		.byte	0
 11379 2b92 26       		.uleb128 0x26
 11380 2b93 84010000 		.4byte	.LASF267
 11381 2b97 0A       		.byte	0xa
 11382 2b98 8A       		.byte	0x8a
 11383 2b99 A32B0000 		.4byte	0x2ba3
 11384 2b9d 25       		.uleb128 0x25
 11385 2b9e AD000000 		.4byte	0xad
 11386 2ba2 00       		.byte	0
 11387 2ba3 24       		.uleb128 0x24
 11388 2ba4 4D090000 		.4byte	.LASF268
 11389 2ba8 11       		.byte	0x11
 11390 2ba9 2C       		.byte	0x2c
 11391 2baa AD000000 		.4byte	0xad
 11392 2bae B82B0000 		.4byte	0x2bb8
ARM GAS  C:\Users\RECEPC~1\AppData\Local\Temp\ccoGpf2X.s 			page 240


 11393 2bb2 25       		.uleb128 0x25
 11394 2bb3 AD000000 		.4byte	0xad
 11395 2bb7 00       		.byte	0
 11396 2bb8 26       		.uleb128 0x26
 11397 2bb9 22030000 		.4byte	.LASF269
 11398 2bbd 15       		.byte	0x15
 11399 2bbe 25       		.byte	0x25
 11400 2bbf CE2B0000 		.4byte	0x2bce
 11401 2bc3 25       		.uleb128 0x25
 11402 2bc4 AD000000 		.4byte	0xad
 11403 2bc8 25       		.uleb128 0x25
 11404 2bc9 AD000000 		.4byte	0xad
 11405 2bcd 00       		.byte	0
 11406 2bce 24       		.uleb128 0x24
 11407 2bcf D50B0000 		.4byte	.LASF270
 11408 2bd3 16       		.byte	0x16
 11409 2bd4 21       		.byte	0x21
 11410 2bd5 AD000000 		.4byte	0xad
 11411 2bd9 E32B0000 		.4byte	0x2be3
 11412 2bdd 25       		.uleb128 0x25
 11413 2bde AD000000 		.4byte	0xad
 11414 2be2 00       		.byte	0
 11415 2be3 24       		.uleb128 0x24
 11416 2be4 6C0A0000 		.4byte	.LASF271
 11417 2be8 16       		.byte	0x16
 11418 2be9 22       		.byte	0x22
 11419 2bea AD000000 		.4byte	0xad
 11420 2bee FD2B0000 		.4byte	0x2bfd
 11421 2bf2 25       		.uleb128 0x25
 11422 2bf3 AD000000 		.4byte	0xad
 11423 2bf7 25       		.uleb128 0x25
 11424 2bf8 AD000000 		.4byte	0xad
 11425 2bfc 00       		.byte	0
 11426 2bfd 24       		.uleb128 0x24
 11427 2bfe FE010000 		.4byte	.LASF272
 11428 2c02 16       		.byte	0x16
 11429 2c03 23       		.byte	0x23
 11430 2c04 AD000000 		.4byte	0xad
 11431 2c08 122C0000 		.4byte	0x2c12
 11432 2c0c 25       		.uleb128 0x25
 11433 2c0d AD000000 		.4byte	0xad
 11434 2c11 00       		.byte	0
 11435 2c12 24       		.uleb128 0x24
 11436 2c13 FA040000 		.4byte	.LASF273
 11437 2c17 16       		.byte	0x16
 11438 2c18 24       		.byte	0x24
 11439 2c19 AD000000 		.4byte	0xad
 11440 2c1d 2C2C0000 		.4byte	0x2c2c
 11441 2c21 25       		.uleb128 0x25
 11442 2c22 AD000000 		.4byte	0xad
 11443 2c26 25       		.uleb128 0x25
 11444 2c27 AD000000 		.4byte	0xad
 11445 2c2b 00       		.byte	0
 11446 2c2c 24       		.uleb128 0x24
 11447 2c2d 43020000 		.4byte	.LASF274
 11448 2c31 17       		.byte	0x17
 11449 2c32 4A       		.byte	0x4a
ARM GAS  C:\Users\RECEPC~1\AppData\Local\Temp\ccoGpf2X.s 			page 241


 11450 2c33 7E000000 		.4byte	0x7e
 11451 2c37 412C0000 		.4byte	0x2c41
 11452 2c3b 25       		.uleb128 0x25
 11453 2c3c 2E010000 		.4byte	0x12e
 11454 2c40 00       		.byte	0
 11455 2c41 27       		.uleb128 0x27
 11456 2c42 62090000 		.4byte	.LASF275
 11457 2c46 12       		.byte	0x12
 11458 2c47 21       		.byte	0x21
 11459 2c48 AD000000 		.4byte	0xad
 11460 2c4c 522C0000 		.4byte	0x2c52
 11461 2c50 28       		.uleb128 0x28
 11462 2c51 00       		.byte	0
 11463 2c52 27       		.uleb128 0x27
 11464 2c53 FB0E0000 		.4byte	.LASF276
 11465 2c57 12       		.byte	0x12
 11466 2c58 22       		.byte	0x22
 11467 2c59 AD000000 		.4byte	0xad
 11468 2c5d 632C0000 		.4byte	0x2c63
 11469 2c61 28       		.uleb128 0x28
 11470 2c62 00       		.byte	0
 11471 2c63 26       		.uleb128 0x26
 11472 2c64 4E010000 		.4byte	.LASF277
 11473 2c68 0E       		.byte	0xe
 11474 2c69 26       		.byte	0x26
 11475 2c6a 792C0000 		.4byte	0x2c79
 11476 2c6e 25       		.uleb128 0x25
 11477 2c6f AD000000 		.4byte	0xad
 11478 2c73 25       		.uleb128 0x25
 11479 2c74 AD000000 		.4byte	0xad
 11480 2c78 00       		.byte	0
 11481 2c79 22       		.uleb128 0x22
 11482 2c7a 7E100000 		.4byte	.LASF278
 11483 2c7e 07       		.byte	0x7
 11484 2c7f 73       		.byte	0x73
 11485 2c80 AD000000 		.4byte	0xad
 11486 2c84 23       		.uleb128 0x23
 11487 2c85 C40E0000 		.4byte	.LASF279
 11488 2c89 07       		.byte	0x7
 11489 2c8a 75       		.byte	0x75
 11490 2c8b 22       		.uleb128 0x22
 11491 2c8c 420E0000 		.4byte	.LASF280
 11492 2c90 18       		.byte	0x18
 11493 2c91 5E       		.byte	0x5e
 11494 2c92 AD000000 		.4byte	0xad
 11495 2c96 26       		.uleb128 0x26
 11496 2c97 1E0D0000 		.4byte	.LASF281
 11497 2c9b 0F       		.byte	0xf
 11498 2c9c 73       		.byte	0x73
 11499 2c9d AC2C0000 		.4byte	0x2cac
 11500 2ca1 25       		.uleb128 0x25
 11501 2ca2 AD000000 		.4byte	0xad
 11502 2ca6 25       		.uleb128 0x25
 11503 2ca7 AD000000 		.4byte	0xad
 11504 2cab 00       		.byte	0
 11505 2cac 23       		.uleb128 0x23
 11506 2cad B7070000 		.4byte	.LASF282
ARM GAS  C:\Users\RECEPC~1\AppData\Local\Temp\ccoGpf2X.s 			page 242


 11507 2cb1 0F       		.byte	0xf
 11508 2cb2 74       		.byte	0x74
 11509 2cb3 00       		.byte	0
 11510              		.section	.debug_abbrev,"",%progbits
 11511              	.Ldebug_abbrev0:
 11512 0000 01       		.uleb128 0x1
 11513 0001 11       		.uleb128 0x11
 11514 0002 01       		.byte	0x1
 11515 0003 25       		.uleb128 0x25
 11516 0004 0E       		.uleb128 0xe
 11517 0005 13       		.uleb128 0x13
 11518 0006 0B       		.uleb128 0xb
 11519 0007 03       		.uleb128 0x3
 11520 0008 0E       		.uleb128 0xe
 11521 0009 1B       		.uleb128 0x1b
 11522 000a 0E       		.uleb128 0xe
 11523 000b 55       		.uleb128 0x55
 11524 000c 17       		.uleb128 0x17
 11525 000d 11       		.uleb128 0x11
 11526 000e 01       		.uleb128 0x1
 11527 000f 10       		.uleb128 0x10
 11528 0010 17       		.uleb128 0x17
 11529 0011 00       		.byte	0
 11530 0012 00       		.byte	0
 11531 0013 02       		.uleb128 0x2
 11532 0014 24       		.uleb128 0x24
 11533 0015 00       		.byte	0
 11534 0016 0B       		.uleb128 0xb
 11535 0017 0B       		.uleb128 0xb
 11536 0018 3E       		.uleb128 0x3e
 11537 0019 0B       		.uleb128 0xb
 11538 001a 03       		.uleb128 0x3
 11539 001b 0E       		.uleb128 0xe
 11540 001c 00       		.byte	0
 11541 001d 00       		.byte	0
 11542 001e 03       		.uleb128 0x3
 11543 001f 16       		.uleb128 0x16
 11544 0020 00       		.byte	0
 11545 0021 03       		.uleb128 0x3
 11546 0022 0E       		.uleb128 0xe
 11547 0023 3A       		.uleb128 0x3a
 11548 0024 0B       		.uleb128 0xb
 11549 0025 3B       		.uleb128 0x3b
 11550 0026 0B       		.uleb128 0xb
 11551 0027 49       		.uleb128 0x49
 11552 0028 13       		.uleb128 0x13
 11553 0029 00       		.byte	0
 11554 002a 00       		.byte	0
 11555 002b 04       		.uleb128 0x4
 11556 002c 24       		.uleb128 0x24
 11557 002d 00       		.byte	0
 11558 002e 0B       		.uleb128 0xb
 11559 002f 0B       		.uleb128 0xb
 11560 0030 3E       		.uleb128 0x3e
 11561 0031 0B       		.uleb128 0xb
 11562 0032 03       		.uleb128 0x3
 11563 0033 08       		.uleb128 0x8
ARM GAS  C:\Users\RECEPC~1\AppData\Local\Temp\ccoGpf2X.s 			page 243


 11564 0034 00       		.byte	0
 11565 0035 00       		.byte	0
 11566 0036 05       		.uleb128 0x5
 11567 0037 16       		.uleb128 0x16
 11568 0038 00       		.byte	0
 11569 0039 03       		.uleb128 0x3
 11570 003a 0E       		.uleb128 0xe
 11571 003b 3A       		.uleb128 0x3a
 11572 003c 0B       		.uleb128 0xb
 11573 003d 3B       		.uleb128 0x3b
 11574 003e 05       		.uleb128 0x5
 11575 003f 49       		.uleb128 0x49
 11576 0040 13       		.uleb128 0x13
 11577 0041 00       		.byte	0
 11578 0042 00       		.byte	0
 11579 0043 06       		.uleb128 0x6
 11580 0044 35       		.uleb128 0x35
 11581 0045 00       		.byte	0
 11582 0046 49       		.uleb128 0x49
 11583 0047 13       		.uleb128 0x13
 11584 0048 00       		.byte	0
 11585 0049 00       		.byte	0
 11586 004a 07       		.uleb128 0x7
 11587 004b 0F       		.uleb128 0xf
 11588 004c 00       		.byte	0
 11589 004d 0B       		.uleb128 0xb
 11590 004e 0B       		.uleb128 0xb
 11591 004f 49       		.uleb128 0x49
 11592 0050 13       		.uleb128 0x13
 11593 0051 00       		.byte	0
 11594 0052 00       		.byte	0
 11595 0053 08       		.uleb128 0x8
 11596 0054 15       		.uleb128 0x15
 11597 0055 00       		.byte	0
 11598 0056 27       		.uleb128 0x27
 11599 0057 19       		.uleb128 0x19
 11600 0058 00       		.byte	0
 11601 0059 00       		.byte	0
 11602 005a 09       		.uleb128 0x9
 11603 005b 26       		.uleb128 0x26
 11604 005c 00       		.byte	0
 11605 005d 49       		.uleb128 0x49
 11606 005e 13       		.uleb128 0x13
 11607 005f 00       		.byte	0
 11608 0060 00       		.byte	0
 11609 0061 0A       		.uleb128 0xa
 11610 0062 01       		.uleb128 0x1
 11611 0063 01       		.byte	0x1
 11612 0064 49       		.uleb128 0x49
 11613 0065 13       		.uleb128 0x13
 11614 0066 01       		.uleb128 0x1
 11615 0067 13       		.uleb128 0x13
 11616 0068 00       		.byte	0
 11617 0069 00       		.byte	0
 11618 006a 0B       		.uleb128 0xb
 11619 006b 21       		.uleb128 0x21
 11620 006c 00       		.byte	0
ARM GAS  C:\Users\RECEPC~1\AppData\Local\Temp\ccoGpf2X.s 			page 244


 11621 006d 49       		.uleb128 0x49
 11622 006e 13       		.uleb128 0x13
 11623 006f 2F       		.uleb128 0x2f
 11624 0070 0B       		.uleb128 0xb
 11625 0071 00       		.byte	0
 11626 0072 00       		.byte	0
 11627 0073 0C       		.uleb128 0xc
 11628 0074 13       		.uleb128 0x13
 11629 0075 01       		.byte	0x1
 11630 0076 03       		.uleb128 0x3
 11631 0077 0E       		.uleb128 0xe
 11632 0078 0B       		.uleb128 0xb
 11633 0079 05       		.uleb128 0x5
 11634 007a 3A       		.uleb128 0x3a
 11635 007b 0B       		.uleb128 0xb
 11636 007c 3B       		.uleb128 0x3b
 11637 007d 0B       		.uleb128 0xb
 11638 007e 01       		.uleb128 0x1
 11639 007f 13       		.uleb128 0x13
 11640 0080 00       		.byte	0
 11641 0081 00       		.byte	0
 11642 0082 0D       		.uleb128 0xd
 11643 0083 0D       		.uleb128 0xd
 11644 0084 00       		.byte	0
 11645 0085 03       		.uleb128 0x3
 11646 0086 0E       		.uleb128 0xe
 11647 0087 3A       		.uleb128 0x3a
 11648 0088 0B       		.uleb128 0xb
 11649 0089 3B       		.uleb128 0x3b
 11650 008a 0B       		.uleb128 0xb
 11651 008b 49       		.uleb128 0x49
 11652 008c 13       		.uleb128 0x13
 11653 008d 38       		.uleb128 0x38
 11654 008e 0B       		.uleb128 0xb
 11655 008f 00       		.byte	0
 11656 0090 00       		.byte	0
 11657 0091 0E       		.uleb128 0xe
 11658 0092 0D       		.uleb128 0xd
 11659 0093 00       		.byte	0
 11660 0094 03       		.uleb128 0x3
 11661 0095 0E       		.uleb128 0xe
 11662 0096 3A       		.uleb128 0x3a
 11663 0097 0B       		.uleb128 0xb
 11664 0098 3B       		.uleb128 0x3b
 11665 0099 0B       		.uleb128 0xb
 11666 009a 49       		.uleb128 0x49
 11667 009b 13       		.uleb128 0x13
 11668 009c 38       		.uleb128 0x38
 11669 009d 05       		.uleb128 0x5
 11670 009e 00       		.byte	0
 11671 009f 00       		.byte	0
 11672 00a0 0F       		.uleb128 0xf
 11673 00a1 0D       		.uleb128 0xd
 11674 00a2 00       		.byte	0
 11675 00a3 03       		.uleb128 0x3
 11676 00a4 08       		.uleb128 0x8
 11677 00a5 3A       		.uleb128 0x3a
ARM GAS  C:\Users\RECEPC~1\AppData\Local\Temp\ccoGpf2X.s 			page 245


 11678 00a6 0B       		.uleb128 0xb
 11679 00a7 3B       		.uleb128 0x3b
 11680 00a8 0B       		.uleb128 0xb
 11681 00a9 49       		.uleb128 0x49
 11682 00aa 13       		.uleb128 0x13
 11683 00ab 38       		.uleb128 0x38
 11684 00ac 0B       		.uleb128 0xb
 11685 00ad 00       		.byte	0
 11686 00ae 00       		.byte	0
 11687 00af 10       		.uleb128 0x10
 11688 00b0 0D       		.uleb128 0xd
 11689 00b1 00       		.byte	0
 11690 00b2 03       		.uleb128 0x3
 11691 00b3 08       		.uleb128 0x8
 11692 00b4 3A       		.uleb128 0x3a
 11693 00b5 0B       		.uleb128 0xb
 11694 00b6 3B       		.uleb128 0x3b
 11695 00b7 0B       		.uleb128 0xb
 11696 00b8 49       		.uleb128 0x49
 11697 00b9 13       		.uleb128 0x13
 11698 00ba 38       		.uleb128 0x38
 11699 00bb 05       		.uleb128 0x5
 11700 00bc 00       		.byte	0
 11701 00bd 00       		.byte	0
 11702 00be 11       		.uleb128 0x11
 11703 00bf 04       		.uleb128 0x4
 11704 00c0 01       		.byte	0x1
 11705 00c1 03       		.uleb128 0x3
 11706 00c2 0E       		.uleb128 0xe
 11707 00c3 0B       		.uleb128 0xb
 11708 00c4 0B       		.uleb128 0xb
 11709 00c5 3A       		.uleb128 0x3a
 11710 00c6 0B       		.uleb128 0xb
 11711 00c7 3B       		.uleb128 0x3b
 11712 00c8 0B       		.uleb128 0xb
 11713 00c9 01       		.uleb128 0x1
 11714 00ca 13       		.uleb128 0x13
 11715 00cb 00       		.byte	0
 11716 00cc 00       		.byte	0
 11717 00cd 12       		.uleb128 0x12
 11718 00ce 28       		.uleb128 0x28
 11719 00cf 00       		.byte	0
 11720 00d0 03       		.uleb128 0x3
 11721 00d1 0E       		.uleb128 0xe
 11722 00d2 1C       		.uleb128 0x1c
 11723 00d3 0D       		.uleb128 0xd
 11724 00d4 00       		.byte	0
 11725 00d5 00       		.byte	0
 11726 00d6 13       		.uleb128 0x13
 11727 00d7 2E       		.uleb128 0x2e
 11728 00d8 01       		.byte	0x1
 11729 00d9 3F       		.uleb128 0x3f
 11730 00da 19       		.uleb128 0x19
 11731 00db 03       		.uleb128 0x3
 11732 00dc 0E       		.uleb128 0xe
 11733 00dd 3A       		.uleb128 0x3a
 11734 00de 0B       		.uleb128 0xb
ARM GAS  C:\Users\RECEPC~1\AppData\Local\Temp\ccoGpf2X.s 			page 246


 11735 00df 3B       		.uleb128 0x3b
 11736 00e0 05       		.uleb128 0x5
 11737 00e1 27       		.uleb128 0x27
 11738 00e2 19       		.uleb128 0x19
 11739 00e3 11       		.uleb128 0x11
 11740 00e4 01       		.uleb128 0x1
 11741 00e5 12       		.uleb128 0x12
 11742 00e6 06       		.uleb128 0x6
 11743 00e7 40       		.uleb128 0x40
 11744 00e8 18       		.uleb128 0x18
 11745 00e9 9742     		.uleb128 0x2117
 11746 00eb 19       		.uleb128 0x19
 11747 00ec 01       		.uleb128 0x1
 11748 00ed 13       		.uleb128 0x13
 11749 00ee 00       		.byte	0
 11750 00ef 00       		.byte	0
 11751 00f0 14       		.uleb128 0x14
 11752 00f1 898201   		.uleb128 0x4109
 11753 00f4 00       		.byte	0
 11754 00f5 11       		.uleb128 0x11
 11755 00f6 01       		.uleb128 0x1
 11756 00f7 31       		.uleb128 0x31
 11757 00f8 13       		.uleb128 0x13
 11758 00f9 00       		.byte	0
 11759 00fa 00       		.byte	0
 11760 00fb 15       		.uleb128 0x15
 11761 00fc 2E       		.uleb128 0x2e
 11762 00fd 01       		.byte	0x1
 11763 00fe 3F       		.uleb128 0x3f
 11764 00ff 19       		.uleb128 0x19
 11765 0100 03       		.uleb128 0x3
 11766 0101 0E       		.uleb128 0xe
 11767 0102 3A       		.uleb128 0x3a
 11768 0103 0B       		.uleb128 0xb
 11769 0104 3B       		.uleb128 0x3b
 11770 0105 0B       		.uleb128 0xb
 11771 0106 11       		.uleb128 0x11
 11772 0107 01       		.uleb128 0x1
 11773 0108 12       		.uleb128 0x12
 11774 0109 06       		.uleb128 0x6
 11775 010a 40       		.uleb128 0x40
 11776 010b 18       		.uleb128 0x18
 11777 010c 9742     		.uleb128 0x2117
 11778 010e 19       		.uleb128 0x19
 11779 010f 01       		.uleb128 0x1
 11780 0110 13       		.uleb128 0x13
 11781 0111 00       		.byte	0
 11782 0112 00       		.byte	0
 11783 0113 16       		.uleb128 0x16
 11784 0114 898201   		.uleb128 0x4109
 11785 0117 01       		.byte	0x1
 11786 0118 11       		.uleb128 0x11
 11787 0119 01       		.uleb128 0x1
 11788 011a 31       		.uleb128 0x31
 11789 011b 13       		.uleb128 0x13
 11790 011c 01       		.uleb128 0x1
 11791 011d 13       		.uleb128 0x13
ARM GAS  C:\Users\RECEPC~1\AppData\Local\Temp\ccoGpf2X.s 			page 247


 11792 011e 00       		.byte	0
 11793 011f 00       		.byte	0
 11794 0120 17       		.uleb128 0x17
 11795 0121 8A8201   		.uleb128 0x410a
 11796 0124 00       		.byte	0
 11797 0125 02       		.uleb128 0x2
 11798 0126 18       		.uleb128 0x18
 11799 0127 9142     		.uleb128 0x2111
 11800 0129 18       		.uleb128 0x18
 11801 012a 00       		.byte	0
 11802 012b 00       		.byte	0
 11803 012c 18       		.uleb128 0x18
 11804 012d 898201   		.uleb128 0x4109
 11805 0130 01       		.byte	0x1
 11806 0131 11       		.uleb128 0x11
 11807 0132 01       		.uleb128 0x1
 11808 0133 31       		.uleb128 0x31
 11809 0134 13       		.uleb128 0x13
 11810 0135 00       		.byte	0
 11811 0136 00       		.byte	0
 11812 0137 19       		.uleb128 0x19
 11813 0138 34       		.uleb128 0x34
 11814 0139 00       		.byte	0
 11815 013a 03       		.uleb128 0x3
 11816 013b 0E       		.uleb128 0xe
 11817 013c 3A       		.uleb128 0x3a
 11818 013d 0B       		.uleb128 0xb
 11819 013e 3B       		.uleb128 0x3b
 11820 013f 0B       		.uleb128 0xb
 11821 0140 49       		.uleb128 0x49
 11822 0141 13       		.uleb128 0x13
 11823 0142 02       		.uleb128 0x2
 11824 0143 18       		.uleb128 0x18
 11825 0144 00       		.byte	0
 11826 0145 00       		.byte	0
 11827 0146 1A       		.uleb128 0x1a
 11828 0147 34       		.uleb128 0x34
 11829 0148 00       		.byte	0
 11830 0149 03       		.uleb128 0x3
 11831 014a 08       		.uleb128 0x8
 11832 014b 3A       		.uleb128 0x3a
 11833 014c 0B       		.uleb128 0xb
 11834 014d 3B       		.uleb128 0x3b
 11835 014e 0B       		.uleb128 0xb
 11836 014f 49       		.uleb128 0x49
 11837 0150 13       		.uleb128 0x13
 11838 0151 02       		.uleb128 0x2
 11839 0152 17       		.uleb128 0x17
 11840 0153 00       		.byte	0
 11841 0154 00       		.byte	0
 11842 0155 1B       		.uleb128 0x1b
 11843 0156 34       		.uleb128 0x34
 11844 0157 00       		.byte	0
 11845 0158 03       		.uleb128 0x3
 11846 0159 08       		.uleb128 0x8
 11847 015a 3A       		.uleb128 0x3a
 11848 015b 0B       		.uleb128 0xb
ARM GAS  C:\Users\RECEPC~1\AppData\Local\Temp\ccoGpf2X.s 			page 248


 11849 015c 3B       		.uleb128 0x3b
 11850 015d 05       		.uleb128 0x5
 11851 015e 49       		.uleb128 0x49
 11852 015f 13       		.uleb128 0x13
 11853 0160 02       		.uleb128 0x2
 11854 0161 17       		.uleb128 0x17
 11855 0162 00       		.byte	0
 11856 0163 00       		.byte	0
 11857 0164 1C       		.uleb128 0x1c
 11858 0165 34       		.uleb128 0x34
 11859 0166 00       		.byte	0
 11860 0167 03       		.uleb128 0x3
 11861 0168 0E       		.uleb128 0xe
 11862 0169 3A       		.uleb128 0x3a
 11863 016a 0B       		.uleb128 0xb
 11864 016b 3B       		.uleb128 0x3b
 11865 016c 05       		.uleb128 0x5
 11866 016d 49       		.uleb128 0x49
 11867 016e 13       		.uleb128 0x13
 11868 016f 02       		.uleb128 0x2
 11869 0170 17       		.uleb128 0x17
 11870 0171 00       		.byte	0
 11871 0172 00       		.byte	0
 11872 0173 1D       		.uleb128 0x1d
 11873 0174 2E       		.uleb128 0x2e
 11874 0175 00       		.byte	0
 11875 0176 3F       		.uleb128 0x3f
 11876 0177 19       		.uleb128 0x19
 11877 0178 03       		.uleb128 0x3
 11878 0179 0E       		.uleb128 0xe
 11879 017a 3A       		.uleb128 0x3a
 11880 017b 0B       		.uleb128 0xb
 11881 017c 3B       		.uleb128 0x3b
 11882 017d 05       		.uleb128 0x5
 11883 017e 27       		.uleb128 0x27
 11884 017f 19       		.uleb128 0x19
 11885 0180 11       		.uleb128 0x11
 11886 0181 01       		.uleb128 0x1
 11887 0182 12       		.uleb128 0x12
 11888 0183 06       		.uleb128 0x6
 11889 0184 40       		.uleb128 0x40
 11890 0185 18       		.uleb128 0x18
 11891 0186 9742     		.uleb128 0x2117
 11892 0188 19       		.uleb128 0x19
 11893 0189 00       		.byte	0
 11894 018a 00       		.byte	0
 11895 018b 1E       		.uleb128 0x1e
 11896 018c 2E       		.uleb128 0x2e
 11897 018d 01       		.byte	0x1
 11898 018e 3F       		.uleb128 0x3f
 11899 018f 19       		.uleb128 0x19
 11900 0190 03       		.uleb128 0x3
 11901 0191 0E       		.uleb128 0xe
 11902 0192 3A       		.uleb128 0x3a
 11903 0193 0B       		.uleb128 0xb
 11904 0194 3B       		.uleb128 0x3b
 11905 0195 05       		.uleb128 0x5
ARM GAS  C:\Users\RECEPC~1\AppData\Local\Temp\ccoGpf2X.s 			page 249


 11906 0196 49       		.uleb128 0x49
 11907 0197 13       		.uleb128 0x13
 11908 0198 11       		.uleb128 0x11
 11909 0199 01       		.uleb128 0x1
 11910 019a 12       		.uleb128 0x12
 11911 019b 06       		.uleb128 0x6
 11912 019c 40       		.uleb128 0x40
 11913 019d 18       		.uleb128 0x18
 11914 019e 9742     		.uleb128 0x2117
 11915 01a0 19       		.uleb128 0x19
 11916 01a1 01       		.uleb128 0x1
 11917 01a2 13       		.uleb128 0x13
 11918 01a3 00       		.byte	0
 11919 01a4 00       		.byte	0
 11920 01a5 1F       		.uleb128 0x1f
 11921 01a6 34       		.uleb128 0x34
 11922 01a7 00       		.byte	0
 11923 01a8 03       		.uleb128 0x3
 11924 01a9 0E       		.uleb128 0xe
 11925 01aa 3A       		.uleb128 0x3a
 11926 01ab 0B       		.uleb128 0xb
 11927 01ac 3B       		.uleb128 0x3b
 11928 01ad 05       		.uleb128 0x5
 11929 01ae 49       		.uleb128 0x49
 11930 01af 13       		.uleb128 0x13
 11931 01b0 3F       		.uleb128 0x3f
 11932 01b1 19       		.uleb128 0x19
 11933 01b2 3C       		.uleb128 0x3c
 11934 01b3 19       		.uleb128 0x19
 11935 01b4 00       		.byte	0
 11936 01b5 00       		.byte	0
 11937 01b6 20       		.uleb128 0x20
 11938 01b7 34       		.uleb128 0x34
 11939 01b8 00       		.byte	0
 11940 01b9 03       		.uleb128 0x3
 11941 01ba 0E       		.uleb128 0xe
 11942 01bb 3A       		.uleb128 0x3a
 11943 01bc 0B       		.uleb128 0xb
 11944 01bd 3B       		.uleb128 0x3b
 11945 01be 0B       		.uleb128 0xb
 11946 01bf 49       		.uleb128 0x49
 11947 01c0 13       		.uleb128 0x13
 11948 01c1 3F       		.uleb128 0x3f
 11949 01c2 19       		.uleb128 0x19
 11950 01c3 02       		.uleb128 0x2
 11951 01c4 18       		.uleb128 0x18
 11952 01c5 00       		.byte	0
 11953 01c6 00       		.byte	0
 11954 01c7 21       		.uleb128 0x21
 11955 01c8 21       		.uleb128 0x21
 11956 01c9 00       		.byte	0
 11957 01ca 49       		.uleb128 0x49
 11958 01cb 13       		.uleb128 0x13
 11959 01cc 2F       		.uleb128 0x2f
 11960 01cd 05       		.uleb128 0x5
 11961 01ce 00       		.byte	0
 11962 01cf 00       		.byte	0
ARM GAS  C:\Users\RECEPC~1\AppData\Local\Temp\ccoGpf2X.s 			page 250


 11963 01d0 22       		.uleb128 0x22
 11964 01d1 2E       		.uleb128 0x2e
 11965 01d2 00       		.byte	0
 11966 01d3 3F       		.uleb128 0x3f
 11967 01d4 19       		.uleb128 0x19
 11968 01d5 03       		.uleb128 0x3
 11969 01d6 0E       		.uleb128 0xe
 11970 01d7 3A       		.uleb128 0x3a
 11971 01d8 0B       		.uleb128 0xb
 11972 01d9 3B       		.uleb128 0x3b
 11973 01da 0B       		.uleb128 0xb
 11974 01db 27       		.uleb128 0x27
 11975 01dc 19       		.uleb128 0x19
 11976 01dd 49       		.uleb128 0x49
 11977 01de 13       		.uleb128 0x13
 11978 01df 3C       		.uleb128 0x3c
 11979 01e0 19       		.uleb128 0x19
 11980 01e1 00       		.byte	0
 11981 01e2 00       		.byte	0
 11982 01e3 23       		.uleb128 0x23
 11983 01e4 2E       		.uleb128 0x2e
 11984 01e5 00       		.byte	0
 11985 01e6 3F       		.uleb128 0x3f
 11986 01e7 19       		.uleb128 0x19
 11987 01e8 03       		.uleb128 0x3
 11988 01e9 0E       		.uleb128 0xe
 11989 01ea 3A       		.uleb128 0x3a
 11990 01eb 0B       		.uleb128 0xb
 11991 01ec 3B       		.uleb128 0x3b
 11992 01ed 0B       		.uleb128 0xb
 11993 01ee 27       		.uleb128 0x27
 11994 01ef 19       		.uleb128 0x19
 11995 01f0 3C       		.uleb128 0x3c
 11996 01f1 19       		.uleb128 0x19
 11997 01f2 00       		.byte	0
 11998 01f3 00       		.byte	0
 11999 01f4 24       		.uleb128 0x24
 12000 01f5 2E       		.uleb128 0x2e
 12001 01f6 01       		.byte	0x1
 12002 01f7 3F       		.uleb128 0x3f
 12003 01f8 19       		.uleb128 0x19
 12004 01f9 03       		.uleb128 0x3
 12005 01fa 0E       		.uleb128 0xe
 12006 01fb 3A       		.uleb128 0x3a
 12007 01fc 0B       		.uleb128 0xb
 12008 01fd 3B       		.uleb128 0x3b
 12009 01fe 0B       		.uleb128 0xb
 12010 01ff 27       		.uleb128 0x27
 12011 0200 19       		.uleb128 0x19
 12012 0201 49       		.uleb128 0x49
 12013 0202 13       		.uleb128 0x13
 12014 0203 3C       		.uleb128 0x3c
 12015 0204 19       		.uleb128 0x19
 12016 0205 01       		.uleb128 0x1
 12017 0206 13       		.uleb128 0x13
 12018 0207 00       		.byte	0
 12019 0208 00       		.byte	0
ARM GAS  C:\Users\RECEPC~1\AppData\Local\Temp\ccoGpf2X.s 			page 251


 12020 0209 25       		.uleb128 0x25
 12021 020a 05       		.uleb128 0x5
 12022 020b 00       		.byte	0
 12023 020c 49       		.uleb128 0x49
 12024 020d 13       		.uleb128 0x13
 12025 020e 00       		.byte	0
 12026 020f 00       		.byte	0
 12027 0210 26       		.uleb128 0x26
 12028 0211 2E       		.uleb128 0x2e
 12029 0212 01       		.byte	0x1
 12030 0213 3F       		.uleb128 0x3f
 12031 0214 19       		.uleb128 0x19
 12032 0215 03       		.uleb128 0x3
 12033 0216 0E       		.uleb128 0xe
 12034 0217 3A       		.uleb128 0x3a
 12035 0218 0B       		.uleb128 0xb
 12036 0219 3B       		.uleb128 0x3b
 12037 021a 0B       		.uleb128 0xb
 12038 021b 27       		.uleb128 0x27
 12039 021c 19       		.uleb128 0x19
 12040 021d 3C       		.uleb128 0x3c
 12041 021e 19       		.uleb128 0x19
 12042 021f 01       		.uleb128 0x1
 12043 0220 13       		.uleb128 0x13
 12044 0221 00       		.byte	0
 12045 0222 00       		.byte	0
 12046 0223 27       		.uleb128 0x27
 12047 0224 2E       		.uleb128 0x2e
 12048 0225 01       		.byte	0x1
 12049 0226 3F       		.uleb128 0x3f
 12050 0227 19       		.uleb128 0x19
 12051 0228 03       		.uleb128 0x3
 12052 0229 0E       		.uleb128 0xe
 12053 022a 3A       		.uleb128 0x3a
 12054 022b 0B       		.uleb128 0xb
 12055 022c 3B       		.uleb128 0x3b
 12056 022d 0B       		.uleb128 0xb
 12057 022e 49       		.uleb128 0x49
 12058 022f 13       		.uleb128 0x13
 12059 0230 3C       		.uleb128 0x3c
 12060 0231 19       		.uleb128 0x19
 12061 0232 01       		.uleb128 0x1
 12062 0233 13       		.uleb128 0x13
 12063 0234 00       		.byte	0
 12064 0235 00       		.byte	0
 12065 0236 28       		.uleb128 0x28
 12066 0237 18       		.uleb128 0x18
 12067 0238 00       		.byte	0
 12068 0239 00       		.byte	0
 12069 023a 00       		.byte	0
 12070 023b 00       		.byte	0
 12071              		.section	.debug_loc,"",%progbits
 12072              	.Ldebug_loc0:
 12073              	.LLST0:
 12074 0000 10000000 		.4byte	.LVL66
 12075 0004 14000000 		.4byte	.LVL67
 12076 0008 0200     		.2byte	0x2
ARM GAS  C:\Users\RECEPC~1\AppData\Local\Temp\ccoGpf2X.s 			page 252


 12077 000a 30       		.byte	0x30
 12078 000b 9F       		.byte	0x9f
 12079 000c 14000000 		.4byte	.LVL67
 12080 0010 24000000 		.4byte	.LVL69
 12081 0014 0100     		.2byte	0x1
 12082 0016 54       		.byte	0x54
 12083 0017 26000000 		.4byte	.LVL70
 12084 001b 5A000000 		.4byte	.LVL76
 12085 001f 0100     		.2byte	0x1
 12086 0021 54       		.byte	0x54
 12087 0022 5A000000 		.4byte	.LVL76
 12088 0026 5E000000 		.4byte	.LVL77
 12089 002a 0200     		.2byte	0x2
 12090 002c 30       		.byte	0x30
 12091 002d 9F       		.byte	0x9f
 12092 002e 5E000000 		.4byte	.LVL77
 12093 0032 6E000000 		.4byte	.LVL79
 12094 0036 0100     		.2byte	0x1
 12095 0038 54       		.byte	0x54
 12096 0039 70000000 		.4byte	.LVL80
 12097 003d A8000000 		.4byte	.LVL87
 12098 0041 0100     		.2byte	0x1
 12099 0043 54       		.byte	0x54
 12100 0044 00000000 		.4byte	0
 12101 0048 00000000 		.4byte	0
 12102              	.LLST1:
 12103 004c 22000000 		.4byte	.LVL92
 12104 0050 2C000000 		.4byte	.LVL93
 12105 0054 0100     		.2byte	0x1
 12106 0056 53       		.byte	0x53
 12107 0057 2E000000 		.4byte	.LVL94
 12108 005b 30000000 		.4byte	.LVL95
 12109 005f 0100     		.2byte	0x1
 12110 0061 53       		.byte	0x53
 12111 0062 32000000 		.4byte	.LVL96
 12112 0066 36000000 		.4byte	.LVL97
 12113 006a 0100     		.2byte	0x1
 12114 006c 53       		.byte	0x53
 12115 006d 00000000 		.4byte	0
 12116 0071 00000000 		.4byte	0
 12117              	.LLST2:
 12118 0075 30020000 		.4byte	.LVL133
 12119 0079 34020000 		.4byte	.LVL134
 12120 007d 0200     		.2byte	0x2
 12121 007f 31       		.byte	0x31
 12122 0080 9F       		.byte	0x9f
 12123 0081 34020000 		.4byte	.LVL134
 12124 0085 40020000 		.4byte	.LVL135
 12125 0089 0100     		.2byte	0x1
 12126 008b 53       		.byte	0x53
 12127 008c 42020000 		.4byte	.LVL136
 12128 0090 50020000 		.4byte	.LVL137
 12129 0094 0100     		.2byte	0x1
 12130 0096 53       		.byte	0x53
 12131 0097 60020000 		.4byte	.LVL138
 12132 009b 64020000 		.4byte	.LVL139
 12133 009f 0200     		.2byte	0x2
ARM GAS  C:\Users\RECEPC~1\AppData\Local\Temp\ccoGpf2X.s 			page 253


 12134 00a1 30       		.byte	0x30
 12135 00a2 9F       		.byte	0x9f
 12136 00a3 64020000 		.4byte	.LVL139
 12137 00a7 72020000 		.4byte	.LVL140
 12138 00ab 0100     		.2byte	0x1
 12139 00ad 53       		.byte	0x53
 12140 00ae 74020000 		.4byte	.LVL141
 12141 00b2 7C020000 		.4byte	.LVL142
 12142 00b6 0100     		.2byte	0x1
 12143 00b8 53       		.byte	0x53
 12144 00b9 04030000 		.4byte	.LVL151
 12145 00bd 16030000 		.4byte	.LVL152
 12146 00c1 0100     		.2byte	0x1
 12147 00c3 53       		.byte	0x53
 12148 00c4 18030000 		.4byte	.LVL153
 12149 00c8 1A030000 		.4byte	.LVL154
 12150 00cc 0100     		.2byte	0x1
 12151 00ce 53       		.byte	0x53
 12152 00cf 1C030000 		.4byte	.LVL155
 12153 00d3 2A030000 		.4byte	.LVL156
 12154 00d7 0100     		.2byte	0x1
 12155 00d9 53       		.byte	0x53
 12156 00da 34070000 		.4byte	.LVL209
 12157 00de 40070000 		.4byte	.LVL210
 12158 00e2 0100     		.2byte	0x1
 12159 00e4 53       		.byte	0x53
 12160 00e5 42070000 		.4byte	.LVL211
 12161 00e9 44070000 		.4byte	.LVL212
 12162 00ed 0100     		.2byte	0x1
 12163 00ef 53       		.byte	0x53
 12164 00f0 46070000 		.4byte	.LVL213
 12165 00f4 4E070000 		.4byte	.LVL214
 12166 00f8 0100     		.2byte	0x1
 12167 00fa 53       		.byte	0x53
 12168 00fb 5A070000 		.4byte	.LVL216
 12169 00ff 66070000 		.4byte	.LVL217
 12170 0103 0100     		.2byte	0x1
 12171 0105 53       		.byte	0x53
 12172 0106 68070000 		.4byte	.LVL218
 12173 010a 6A070000 		.4byte	.LVL219
 12174 010e 0100     		.2byte	0x1
 12175 0110 53       		.byte	0x53
 12176 0111 6C070000 		.4byte	.LVL220
 12177 0115 7E070000 		.4byte	.LVL221
 12178 0119 0100     		.2byte	0x1
 12179 011b 53       		.byte	0x53
 12180 011c 80070000 		.4byte	.LVL222
 12181 0120 82070000 		.4byte	.LVL223
 12182 0124 0100     		.2byte	0x1
 12183 0126 53       		.byte	0x53
 12184 0127 84070000 		.4byte	.LVL224
 12185 012b 96070000 		.4byte	.LVL225
 12186 012f 0100     		.2byte	0x1
 12187 0131 53       		.byte	0x53
 12188 0132 98070000 		.4byte	.LVL226
 12189 0136 9A070000 		.4byte	.LVL227
 12190 013a 0100     		.2byte	0x1
ARM GAS  C:\Users\RECEPC~1\AppData\Local\Temp\ccoGpf2X.s 			page 254


 12191 013c 53       		.byte	0x53
 12192 013d 9C070000 		.4byte	.LVL228
 12193 0141 A0070000 		.4byte	.LVL229
 12194 0145 0100     		.2byte	0x1
 12195 0147 53       		.byte	0x53
 12196 0148 BE070000 		.4byte	.LVL231
 12197 014c CC070000 		.4byte	.LVL232
 12198 0150 0100     		.2byte	0x1
 12199 0152 53       		.byte	0x53
 12200 0153 CE070000 		.4byte	.LVL233
 12201 0157 F0070000 		.4byte	.LVL234
 12202 015b 0100     		.2byte	0x1
 12203 015d 53       		.byte	0x53
 12204 015e F2070000 		.4byte	.LVL235
 12205 0162 FE070000 		.4byte	.LVL236
 12206 0166 0100     		.2byte	0x1
 12207 0168 53       		.byte	0x53
 12208 0169 2E080000 		.4byte	.LVL240
 12209 016d 3C080000 		.4byte	.LVL241
 12210 0171 0100     		.2byte	0x1
 12211 0173 53       		.byte	0x53
 12212 0174 3E080000 		.4byte	.LVL242
 12213 0178 40080000 		.4byte	.LVL243
 12214 017c 0100     		.2byte	0x1
 12215 017e 53       		.byte	0x53
 12216 017f 42080000 		.4byte	.LVL244
 12217 0183 50080000 		.4byte	.LVL245
 12218 0187 0100     		.2byte	0x1
 12219 0189 53       		.byte	0x53
 12220 018a 5A080000 		.4byte	.LVL247
 12221 018e 68080000 		.4byte	.LVL248
 12222 0192 0100     		.2byte	0x1
 12223 0194 53       		.byte	0x53
 12224 0195 6A080000 		.4byte	.LVL249
 12225 0199 6C080000 		.4byte	.LVL250
 12226 019d 0100     		.2byte	0x1
 12227 019f 53       		.byte	0x53
 12228 01a0 6E080000 		.4byte	.LVL251
 12229 01a4 78080000 		.4byte	.LVL252
 12230 01a8 0100     		.2byte	0x1
 12231 01aa 53       		.byte	0x53
 12232 01ab 7C080000 		.4byte	.LVL253
 12233 01af 8A080000 		.4byte	.LVL254
 12234 01b3 0100     		.2byte	0x1
 12235 01b5 53       		.byte	0x53
 12236 01b6 8C080000 		.4byte	.LVL255
 12237 01ba 94080000 		.4byte	.LVL256
 12238 01be 0100     		.2byte	0x1
 12239 01c0 53       		.byte	0x53
 12240 01c1 6A090000 		.4byte	.LVL269
 12241 01c5 76090000 		.4byte	.LVL271
 12242 01c9 0100     		.2byte	0x1
 12243 01cb 54       		.byte	0x54
 12244 01cc 78090000 		.4byte	.LVL272
 12245 01d0 7A090000 		.4byte	.LVL273
 12246 01d4 0100     		.2byte	0x1
 12247 01d6 54       		.byte	0x54
ARM GAS  C:\Users\RECEPC~1\AppData\Local\Temp\ccoGpf2X.s 			page 255


 12248 01d7 7C090000 		.4byte	.LVL274
 12249 01db 84090000 		.4byte	.LVL275
 12250 01df 0100     		.2byte	0x1
 12251 01e1 54       		.byte	0x54
 12252 01e2 86090000 		.4byte	.LVL276
 12253 01e6 90090000 		.4byte	.LVL278
 12254 01ea 0100     		.2byte	0x1
 12255 01ec 54       		.byte	0x54
 12256 01ed 92090000 		.4byte	.LVL279
 12257 01f1 A4090000 		.4byte	.LVL280
 12258 01f5 0100     		.2byte	0x1
 12259 01f7 54       		.byte	0x54
 12260 01f8 A4090000 		.4byte	.LVL280
 12261 01fc A8090000 		.4byte	.LVL281
 12262 0200 0200     		.2byte	0x2
 12263 0202 31       		.byte	0x31
 12264 0203 9F       		.byte	0x9f
 12265 0204 A8090000 		.4byte	.LVL281
 12266 0208 E8090000 		.4byte	.LVL286
 12267 020c 0100     		.2byte	0x1
 12268 020e 51       		.byte	0x51
 12269 020f EA090000 		.4byte	.LVL287
 12270 0213 F2090000 		.4byte	.LVL288
 12271 0217 0100     		.2byte	0x1
 12272 0219 51       		.byte	0x51
 12273 021a 220C0000 		.4byte	.LVL312
 12274 021e 2A0C0000 		.4byte	.LVL313
 12275 0222 0100     		.2byte	0x1
 12276 0224 53       		.byte	0x53
 12277 0225 2C0C0000 		.4byte	.LVL314
 12278 0229 2E0C0000 		.4byte	.LVL315
 12279 022d 0100     		.2byte	0x1
 12280 022f 53       		.byte	0x53
 12281 0230 300C0000 		.4byte	.LVL316
 12282 0234 380C0000 		.4byte	.LVL317
 12283 0238 0100     		.2byte	0x1
 12284 023a 53       		.byte	0x53
 12285 023b 440C0000 		.4byte	.LVL319
 12286 023f 4C0C0000 		.4byte	.LVL320
 12287 0243 0100     		.2byte	0x1
 12288 0245 53       		.byte	0x53
 12289 0246 4E0C0000 		.4byte	.LVL321
 12290 024a 500C0000 		.4byte	.LVL322
 12291 024e 0100     		.2byte	0x1
 12292 0250 53       		.byte	0x53
 12293 0251 520C0000 		.4byte	.LVL323
 12294 0255 5E0C0000 		.4byte	.LVL324
 12295 0259 0100     		.2byte	0x1
 12296 025b 53       		.byte	0x53
 12297 025c 6A0C0000 		.4byte	.LVL326
 12298 0260 760C0000 		.4byte	.LVL327
 12299 0264 0100     		.2byte	0x1
 12300 0266 53       		.byte	0x53
 12301 0267 780C0000 		.4byte	.LVL328
 12302 026b 7A0C0000 		.4byte	.LVL329
 12303 026f 0100     		.2byte	0x1
 12304 0271 53       		.byte	0x53
ARM GAS  C:\Users\RECEPC~1\AppData\Local\Temp\ccoGpf2X.s 			page 256


 12305 0272 7C0C0000 		.4byte	.LVL330
 12306 0276 880C0000 		.4byte	.LVL331
 12307 027a 0100     		.2byte	0x1
 12308 027c 53       		.byte	0x53
 12309 027d 940C0000 		.4byte	.LVL333
 12310 0281 9C0C0000 		.4byte	.LVL334
 12311 0285 0100     		.2byte	0x1
 12312 0287 53       		.byte	0x53
 12313 0288 9E0C0000 		.4byte	.LVL335
 12314 028c A00C0000 		.4byte	.LVL336
 12315 0290 0100     		.2byte	0x1
 12316 0292 53       		.byte	0x53
 12317 0293 A20C0000 		.4byte	.LVL337
 12318 0297 AE0C0000 		.4byte	.LVL338
 12319 029b 0100     		.2byte	0x1
 12320 029d 53       		.byte	0x53
 12321 029e D60C0000 		.4byte	.LVL341
 12322 02a2 E80C0000 		.4byte	.LVL343
 12323 02a6 0100     		.2byte	0x1
 12324 02a8 53       		.byte	0x53
 12325 02a9 EA0C0000 		.4byte	.LVL344
 12326 02ad F20C0000 		.4byte	.LVL345
 12327 02b1 0100     		.2byte	0x1
 12328 02b3 53       		.byte	0x53
 12329 02b4 280D0000 		.4byte	.LVL350
 12330 02b8 360D0000 		.4byte	.LVL351
 12331 02bc 0100     		.2byte	0x1
 12332 02be 53       		.byte	0x53
 12333 02bf 380D0000 		.4byte	.LVL352
 12334 02c3 3A0D0000 		.4byte	.LVL353
 12335 02c7 0100     		.2byte	0x1
 12336 02c9 53       		.byte	0x53
 12337 02ca 3C0D0000 		.4byte	.LVL354
 12338 02ce 480D0000 		.4byte	.LVL355
 12339 02d2 0100     		.2byte	0x1
 12340 02d4 53       		.byte	0x53
 12341 02d5 540D0000 		.4byte	.LVL357
 12342 02d9 620D0000 		.4byte	.LVL358
 12343 02dd 0100     		.2byte	0x1
 12344 02df 53       		.byte	0x53
 12345 02e0 640D0000 		.4byte	.LVL359
 12346 02e4 660D0000 		.4byte	.LVL360
 12347 02e8 0100     		.2byte	0x1
 12348 02ea 53       		.byte	0x53
 12349 02eb 680D0000 		.4byte	.LVL361
 12350 02ef 740D0000 		.4byte	.LVL362
 12351 02f3 0100     		.2byte	0x1
 12352 02f5 53       		.byte	0x53
 12353 02f6 AC0D0000 		.4byte	.LVL364
 12354 02fa BA0D0000 		.4byte	.LVL365
 12355 02fe 0100     		.2byte	0x1
 12356 0300 53       		.byte	0x53
 12357 0301 BC0D0000 		.4byte	.LVL366
 12358 0305 BE0D0000 		.4byte	.LVL367
 12359 0309 0100     		.2byte	0x1
 12360 030b 53       		.byte	0x53
 12361 030c C00D0000 		.4byte	.LVL368
ARM GAS  C:\Users\RECEPC~1\AppData\Local\Temp\ccoGpf2X.s 			page 257


 12362 0310 CA0D0000 		.4byte	.LVL369
 12363 0314 0100     		.2byte	0x1
 12364 0316 53       		.byte	0x53
 12365 0317 00000000 		.4byte	0
 12366 031b 00000000 		.4byte	0
 12367              	.LLST3:
 12368 031f 86090000 		.4byte	.LVL276
 12369 0323 8D090000 		.4byte	.LVL277-1
 12370 0327 0100     		.2byte	0x1
 12371 0329 50       		.byte	0x50
 12372 032a 8E090000 		.4byte	.LVL277
 12373 032e A4090000 		.4byte	.LVL280
 12374 0332 0100     		.2byte	0x1
 12375 0334 50       		.byte	0x50
 12376 0335 A4090000 		.4byte	.LVL280
 12377 0339 A8090000 		.4byte	.LVL281
 12378 033d 0200     		.2byte	0x2
 12379 033f 40       		.byte	0x40
 12380 0340 9F       		.byte	0x9f
 12381 0341 A8090000 		.4byte	.LVL281
 12382 0345 C8090000 		.4byte	.LVL282
 12383 0349 0100     		.2byte	0x1
 12384 034b 53       		.byte	0x53
 12385 034c CA090000 		.4byte	.LVL283
 12386 0350 E4090000 		.4byte	.LVL284
 12387 0354 0100     		.2byte	0x1
 12388 0356 53       		.byte	0x53
 12389 0357 E4090000 		.4byte	.LVL284
 12390 035b E6090000 		.4byte	.LVL285
 12391 035f 0300     		.2byte	0x3
 12392 0361 73       		.byte	0x73
 12393 0362 01       		.sleb128 1
 12394 0363 9F       		.byte	0x9f
 12395 0364 E6090000 		.4byte	.LVL285
 12396 0368 F5090000 		.4byte	.LVL289-1
 12397 036c 0100     		.2byte	0x1
 12398 036e 53       		.byte	0x53
 12399 036f 00000000 		.4byte	0
 12400 0373 00000000 		.4byte	0
 12401              	.LLST4:
 12402 0377 2E060000 		.4byte	.LVL197
 12403 037b 30060000 		.4byte	.LVL198
 12404 037f 0100     		.2byte	0x1
 12405 0381 50       		.byte	0x50
 12406 0382 00000000 		.4byte	0
 12407 0386 00000000 		.4byte	0
 12408              	.LLST5:
 12409 038a 08000000 		.4byte	.LVL471
 12410 038e 0C000000 		.4byte	.LVL472
 12411 0392 0200     		.2byte	0x2
 12412 0394 30       		.byte	0x30
 12413 0395 9F       		.byte	0x9f
 12414 0396 0C000000 		.4byte	.LVL472
 12415 039a 14000000 		.4byte	.LVL473
 12416 039e 0100     		.2byte	0x1
 12417 03a0 53       		.byte	0x53
 12418 03a1 16000000 		.4byte	.LVL474
ARM GAS  C:\Users\RECEPC~1\AppData\Local\Temp\ccoGpf2X.s 			page 258


 12419 03a5 1C000000 		.4byte	.LVL475
 12420 03a9 0100     		.2byte	0x1
 12421 03ab 53       		.byte	0x53
 12422 03ac 00000000 		.4byte	0
 12423 03b0 00000000 		.4byte	0
 12424              		.section	.debug_aranges,"",%progbits
 12425 0000 84000000 		.4byte	0x84
 12426 0004 0200     		.2byte	0x2
 12427 0006 00000000 		.4byte	.Ldebug_info0
 12428 000a 04       		.byte	0x4
 12429 000b 00       		.byte	0
 12430 000c 0000     		.2byte	0
 12431 000e 0000     		.2byte	0
 12432 0010 00000000 		.4byte	.LFB74
 12433 0014 14000000 		.4byte	.LFE74-.LFB74
 12434 0018 00000000 		.4byte	.LFB63
 12435 001c 20000000 		.4byte	.LFE63-.LFB63
 12436 0020 00000000 		.4byte	.LFB64
 12437 0024 68000000 		.4byte	.LFE64-.LFB64
 12438 0028 00000000 		.4byte	.LFB65
 12439 002c 44000000 		.4byte	.LFE65-.LFB65
 12440 0030 00000000 		.4byte	.LFB66
 12441 0034 8C020000 		.4byte	.LFE66-.LFB66
 12442 0038 00000000 		.4byte	.LFB67
 12443 003c 50000000 		.4byte	.LFE67-.LFB67
 12444 0040 00000000 		.4byte	.LFB68
 12445 0044 C4000000 		.4byte	.LFE68-.LFB68
 12446 0048 00000000 		.4byte	.LFB69
 12447 004c AC000000 		.4byte	.LFE69-.LFB69
 12448 0050 00000000 		.4byte	.LFB70
 12449 0054 04010000 		.4byte	.LFE70-.LFB70
 12450 0058 00000000 		.4byte	.LFB71
 12451 005c E8120000 		.4byte	.LFE71-.LFB71
 12452 0060 00000000 		.4byte	.LFB72
 12453 0064 2C030000 		.4byte	.LFE72-.LFB72
 12454 0068 00000000 		.4byte	.LFB73
 12455 006c 02000000 		.4byte	.LFE73-.LFB73
 12456 0070 00000000 		.4byte	.LFB75
 12457 0074 14000000 		.4byte	.LFE75-.LFB75
 12458 0078 00000000 		.4byte	.LFB76
 12459 007c 8C000000 		.4byte	.LFE76-.LFB76
 12460 0080 00000000 		.4byte	0
 12461 0084 00000000 		.4byte	0
 12462              		.section	.debug_ranges,"",%progbits
 12463              	.Ldebug_ranges0:
 12464 0000 00000000 		.4byte	.LFB74
 12465 0004 14000000 		.4byte	.LFE74
 12466 0008 00000000 		.4byte	.LFB63
 12467 000c 20000000 		.4byte	.LFE63
 12468 0010 00000000 		.4byte	.LFB64
 12469 0014 68000000 		.4byte	.LFE64
 12470 0018 00000000 		.4byte	.LFB65
 12471 001c 44000000 		.4byte	.LFE65
 12472 0020 00000000 		.4byte	.LFB66
 12473 0024 8C020000 		.4byte	.LFE66
 12474 0028 00000000 		.4byte	.LFB67
 12475 002c 50000000 		.4byte	.LFE67
ARM GAS  C:\Users\RECEPC~1\AppData\Local\Temp\ccoGpf2X.s 			page 259


 12476 0030 00000000 		.4byte	.LFB68
 12477 0034 C4000000 		.4byte	.LFE68
 12478 0038 00000000 		.4byte	.LFB69
 12479 003c AC000000 		.4byte	.LFE69
 12480 0040 00000000 		.4byte	.LFB70
 12481 0044 04010000 		.4byte	.LFE70
 12482 0048 00000000 		.4byte	.LFB71
 12483 004c E8120000 		.4byte	.LFE71
 12484 0050 00000000 		.4byte	.LFB72
 12485 0054 2C030000 		.4byte	.LFE72
 12486 0058 00000000 		.4byte	.LFB73
 12487 005c 02000000 		.4byte	.LFE73
 12488 0060 00000000 		.4byte	.LFB75
 12489 0064 14000000 		.4byte	.LFE75
 12490 0068 00000000 		.4byte	.LFB76
 12491 006c 8C000000 		.4byte	.LFE76
 12492 0070 00000000 		.4byte	0
 12493 0074 00000000 		.4byte	0
 12494              		.section	.debug_line,"",%progbits
 12495              	.Ldebug_line0:
 12496 0000 20090000 		.section	.debug_str,"MS",%progbits,1
 12496      02005A02 
 12496      00000201 
 12496      FB0E0D00 
 12496      01010101 
 12497              	.LASF35:
 12498 0000 76616C75 		.ascii	"valueKeys\000"
 12498      654B6579 
 12498      7300
 12499              	.LASF25:
 12500 000a 73697A65 		.ascii	"sizetype\000"
 12500      74797065 
 12500      00
 12501              	.LASF196:
 12502 0013 74656D70 		.ascii	"temporal\000"
 12502      6F72616C 
 12502      00
 12503              	.LASF170:
 12504 001c 44697370 		.ascii	"Display1_rxBuffer\000"
 12504      6C617931 
 12504      5F727842 
 12504      75666665 
 12504      7200
 12505              	.LASF166:
 12506 002e 6C6F6361 		.ascii	"localStatePump\000"
 12506      6C537461 
 12506      74655075 
 12506      6D7000
 12507              	.LASF99:
 12508 003d 44495350 		.ascii	"DISPLAY_SUBA_MANIJA\000"
 12508      4C41595F 
 12508      53554241 
 12508      5F4D414E 
 12508      494A4100 
 12509              	.LASF252:
 12510 0051 6765745F 		.ascii	"get_state\000"
 12510      73746174 
ARM GAS  C:\Users\RECEPC~1\AppData\Local\Temp\ccoGpf2X.s 			page 260


 12510      6500
 12511              	.LASF31:
 12512 005b 6D6F6E65 		.ascii	"moneySelectedSale\000"
 12512      7953656C 
 12512      65637465 
 12512      6453616C 
 12512      6500
 12513              	.LASF14:
 12514 006d 696E7433 		.ascii	"int32_t\000"
 12514      325F7400 
 12515              	.LASF164:
 12516 0075 506F6C6C 		.ascii	"PollingPump\000"
 12516      696E6750 
 12516      756D7000 
 12517              	.LASF26:
 12518 0081 69645479 		.ascii	"idType\000"
 12518      706500
 12519              	.LASF17:
 12520 0088 75696E74 		.ascii	"uint32\000"
 12520      333200
 12521              	.LASF119:
 12522 008f 44495350 		.ascii	"DISPLAY_COPIA_RECIBO\000"
 12522      4C41595F 
 12522      434F5049 
 12522      415F5245 
 12522      4349424F 
 12523              	.LASF212:
 12524 00a4 4E756D50 		.ascii	"NumPositions\000"
 12524      6F736974 
 12524      696F6E73 
 12524      00
 12525              	.LASF214:
 12526 00b1 64696769 		.ascii	"digits\000"
 12526      747300
 12527              	.LASF168:
 12528 00b8 616E696D 		.ascii	"animacion2\000"
 12528      6163696F 
 12528      6E3200
 12529              	.LASF57:
 12530 00c3 666C6167 		.ascii	"flagEndSale\000"
 12530      456E6453 
 12530      616C6500 
 12531              	.LASF55:
 12532 00cf 666C6167 		.ascii	"flagPayment\000"
 12532      5061796D 
 12532      656E7400 
 12533              	.LASF227:
 12534 00db 7072696E 		.ascii	"printPortB\000"
 12534      74506F72 
 12534      744200
 12535              	.LASF65:
 12536 00e6 7175616E 		.ascii	"quantAvailableMark\000"
 12536      74417661 
 12536      696C6162 
 12536      6C654D61 
 12536      726B00
 12537              	.LASF131:
ARM GAS  C:\Users\RECEPC~1\AppData\Local\Temp\ccoGpf2X.s 			page 261


 12538 00f9 44495350 		.ascii	"DISPLAY_ABRIR_TURNO\000"
 12538      4C41595F 
 12538      41425249 
 12538      525F5455 
 12538      524E4F00 
 12539              	.LASF250:
 12540 010d 54696D65 		.ascii	"Timer_Animacion_ReadStatusRegister\000"
 12540      725F416E 
 12540      696D6163 
 12540      696F6E5F 
 12540      52656164 
 12541              	.LASF118:
 12542 0130 44495350 		.ascii	"DISPLAY_CONFIGURACIONES\000"
 12542      4C41595F 
 12542      434F4E46 
 12542      49475552 
 12542      4143494F 
 12543              	.LASF21:
 12544 0148 63686172 		.ascii	"char8\000"
 12544      3800
 12545              	.LASF277:
 12546 014e 53686F77 		.ascii	"ShowRectangle\000"
 12546      52656374 
 12546      616E676C 
 12546      6500
 12547              	.LASF51:
 12548 015c 6C696365 		.ascii	"licenceSale\000"
 12548      6E636553 
 12548      616C6500 
 12549              	.LASF258:
 12550 0168 54696D65 		.ascii	"Timer_Animacion_Stop\000"
 12550      725F416E 
 12550      696D6163 
 12550      696F6E5F 
 12550      53746F70 
 12551              	.LASF194:
 12552 017d 73637265 		.ascii	"screen\000"
 12552      656E00
 12553              	.LASF267:
 12554 0184 50756D70 		.ascii	"Pump_PutChar\000"
 12554      5F507574 
 12554      43686172 
 12554      00
 12555              	.LASF74:
 12556 0191 666C6167 		.ascii	"flagActiveSale\000"
 12556      41637469 
 12556      76655361 
 12556      6C6500
 12557              	.LASF181:
 12558 01a0 6E756D62 		.ascii	"numberKeys1\000"
 12558      65724B65 
 12558      79733100 
 12559              	.LASF182:
 12560 01ac 6E756D62 		.ascii	"numberKeys2\000"
 12560      65724B65 
 12560      79733200 
 12561              	.LASF199:
ARM GAS  C:\Users\RECEPC~1\AppData\Local\Temp\ccoGpf2X.s 			page 262


 12562 01b8 70617373 		.ascii	"passwordSeller\000"
 12562      776F7264 
 12562      53656C6C 
 12562      657200
 12563              	.LASF71:
 12564 01c7 7072696E 		.ascii	"printers\000"
 12564      74657273 
 12564      00
 12565              	.LASF62:
 12566 01d0 73657269 		.ascii	"serialMarket\000"
 12566      616C4D61 
 12566      726B6574 
 12566      00
 12567              	.LASF261:
 12568 01dd 57726974 		.ascii	"WriteLCD\000"
 12568      654C4344 
 12568      00
 12569              	.LASF190:
 12570 01e6 64656369 		.ascii	"decimalVolume\000"
 12570      6D616C56 
 12570      6F6C756D 
 12570      6500
 12571              	.LASF3:
 12572 01f4 5F5F7569 		.ascii	"__uint8_t\000"
 12572      6E74385F 
 12572      7400
 12573              	.LASF272:
 12574 01fe 746F7563 		.ascii	"touch_read_byte\000"
 12574      685F7265 
 12574      61645F62 
 12574      79746500 
 12575              	.LASF96:
 12576 020e 44495350 		.ascii	"DISPLAY_INTRODUZCA_VALOR2\000"
 12576      4C41595F 
 12576      494E5452 
 12576      4F44555A 
 12576      43415F56 
 12577              	.LASF60:
 12578 0228 766F6C75 		.ascii	"volumeQuota\000"
 12578      6D655175 
 12578      6F746100 
 12579              	.LASF56:
 12580 0234 666C6167 		.ascii	"flagLiftHandle\000"
 12580      4C696674 
 12580      48616E64 
 12580      6C6500
 12581              	.LASF274:
 12582 0243 61746F69 		.ascii	"atoi\000"
 12582      00
 12583              	.LASF27:
 12584 0248 69645365 		.ascii	"idSerial\000"
 12584      7269616C 
 12584      00
 12585              	.LASF138:
 12586 0251 44495350 		.ascii	"DISPLAY_IDENTIFICADOR_ESTACION\000"
 12586      4C41595F 
 12586      4944454E 
ARM GAS  C:\Users\RECEPC~1\AppData\Local\Temp\ccoGpf2X.s 			page 263


 12586      54494649 
 12586      4341444F 
 12587              	.LASF20:
 12588 0270 75696E74 		.ascii	"uint64\000"
 12588      363400
 12589              	.LASF7:
 12590 0277 6C6F6E67 		.ascii	"long int\000"
 12590      20696E74 
 12590      00
 12591              	.LASF257:
 12592 0280 6973725F 		.ascii	"isr_3_Stop\000"
 12592      335F5374 
 12592      6F7000
 12593              	.LASF191:
 12594 028b 73796D62 		.ascii	"symbols\000"
 12594      6F6C7300 
 12595              	.LASF148:
 12596 0293 6C6F6164 		.ascii	"loadConfiguration\000"
 12596      436F6E66 
 12596      69677572 
 12596      6174696F 
 12596      6E00
 12597              	.LASF286:
 12598 02a5 5F415641 		.ascii	"_AVAILABLE_DISPLAYS_\000"
 12598      494C4142 
 12598      4C455F44 
 12598      4953504C 
 12598      4159535F 
 12599              	.LASF165:
 12600 02ba 506F6C6C 		.ascii	"PollingDisplay1\000"
 12600      696E6744 
 12600      6973706C 
 12600      61793100 
 12601              	.LASF45:
 12602 02ca 746F7461 		.ascii	"totalMoneyPrevious\000"
 12602      6C4D6F6E 
 12602      65795072 
 12602      6576696F 
 12602      757300
 12603              	.LASF169:
 12604 02dd 6D61696E 		.ascii	"main\000"
 12604      00
 12605              	.LASF253:
 12606 02e2 50756D70 		.ascii	"PumpIsInValidState\000"
 12606      4973496E 
 12606      56616C69 
 12606      64537461 
 12606      746500
 12607              	.LASF116:
 12608 02f5 44495350 		.ascii	"DISPLAY_INTRODUZCA_KILOMETRAJE\000"
 12608      4C41595F 
 12608      494E5452 
 12608      4F44555A 
 12608      43415F4B 
 12609              	.LASF89:
 12610 0314 44495350 		.ascii	"DISPLAY_ERROR\000"
 12610      4C41595F 
ARM GAS  C:\Users\RECEPC~1\AppData\Local\Temp\ccoGpf2X.s 			page 264


 12610      4552524F 
 12610      5200
 12611              	.LASF269:
 12612 0322 696D7072 		.ascii	"imprimir\000"
 12612      696D6972 
 12612      00
 12613              	.LASF254:
 12614 032b 5F426F6F 		.ascii	"_Bool\000"
 12614      6C00
 12615              	.LASF193:
 12616 0331 64617465 		.ascii	"date\000"
 12616      00
 12617              	.LASF66:
 12618 0336 70726963 		.ascii	"priceTotalMarket\000"
 12618      65546F74 
 12618      616C4D61 
 12618      726B6574 
 12618      00
 12619              	.LASF124:
 12620 0347 44495350 		.ascii	"DISPLAY_POR_FAVOR_ESPERE\000"
 12620      4C41595F 
 12620      504F525F 
 12620      4641564F 
 12620      525F4553 
 12621              	.LASF242:
 12622 0360 5072696E 		.ascii	"Printer_Start\000"
 12622      7465725F 
 12622      53746172 
 12622      7400
 12623              	.LASF129:
 12624 036e 44495350 		.ascii	"DISPLAY_FECHA\000"
 12624      4C41595F 
 12624      46454348 
 12624      4100
 12625              	.LASF176:
 12626 037c 636F756E 		.ascii	"countPump\000"
 12626      7450756D 
 12626      7000
 12627              	.LASF162:
 12628 0386 6461746F 		.ascii	"dato\000"
 12628      00
 12629              	.LASF0:
 12630 038b 7369676E 		.ascii	"signed char\000"
 12630      65642063 
 12630      68617200 
 12631              	.LASF12:
 12632 0397 75696E74 		.ascii	"uint8_t\000"
 12632      385F7400 
 12633              	.LASF110:
 12634 039f 44495350 		.ascii	"DISPLAY_ID_DIGITAL\000"
 12634      4C41595F 
 12634      49445F44 
 12634      49474954 
 12634      414C00
 12635              	.LASF108:
 12636 03b2 44495350 		.ascii	"DISPLAY_TIEMPO_EXPIRADO\000"
 12636      4C41595F 
ARM GAS  C:\Users\RECEPC~1\AppData\Local\Temp\ccoGpf2X.s 			page 265


 12636      5449454D 
 12636      504F5F45 
 12636      58504952 
 12637              	.LASF264:
 12638 03ca 54696D65 		.ascii	"Timer_Animacion_Start\000"
 12638      725F416E 
 12638      696D6163 
 12638      696F6E5F 
 12638      53746172 
 12639              	.LASF37:
 12640 03e0 73616C65 		.ascii	"saleType\000"
 12640      54797065 
 12640      00
 12641              	.LASF134:
 12642 03e9 44495350 		.ascii	"DISPLAY_USUARIO_VALIDO\000"
 12642      4C41595F 
 12642      55535541 
 12642      52494F5F 
 12642      56414C49 
 12643              	.LASF132:
 12644 0400 44495350 		.ascii	"DISPLAY_CERRAR_TURNO\000"
 12644      4C41595F 
 12644      43455252 
 12644      41525F54 
 12644      55524E4F 
 12645              	.LASF283:
 12646 0415 474E5520 		.ascii	"GNU C 4.9.3 20150303 (release) [ARM/embedded-4_9-br"
 12646      4320342E 
 12646      392E3320 
 12646      32303135 
 12646      30333033 
 12647 0448 616E6368 		.ascii	"anch revision 221220] -mcpu=cortex-m3 -mthumb -g -O"
 12647      20726576 
 12647      6973696F 
 12647      6E203232 
 12647      31323230 
 12648 047b 67202D66 		.ascii	"g -ffunction-sections -ffat-lto-objects\000"
 12648      66756E63 
 12648      74696F6E 
 12648      2D736563 
 12648      74696F6E 
 12649              	.LASF265:
 12650 04a3 50756D70 		.ascii	"PumpHoseActiveState\000"
 12650      486F7365 
 12650      41637469 
 12650      76655374 
 12650      61746500 
 12651              	.LASF121:
 12652 04b7 44495350 		.ascii	"DISPLAY_SELECCIONE_POSICION\000"
 12652      4C41595F 
 12652      53454C45 
 12652      4343494F 
 12652      4E455F50 
 12653              	.LASF1:
 12654 04d3 756E7369 		.ascii	"unsigned char\000"
 12654      676E6564 
 12654      20636861 
ARM GAS  C:\Users\RECEPC~1\AppData\Local\Temp\ccoGpf2X.s 			page 266


 12654      7200
 12655              	.LASF95:
 12656 04e1 44495350 		.ascii	"DISPLAY_INTRODUZCA_VALOR\000"
 12656      4C41595F 
 12656      494E5452 
 12656      4F44555A 
 12656      43415F56 
 12657              	.LASF273:
 12658 04fa 6372635F 		.ascii	"crc_check\000"
 12658      63686563 
 12658      6B00
 12659              	.LASF123:
 12660 0504 44495350 		.ascii	"DISPLAY_ESPERANDO_AUTORIZACION\000"
 12660      4C41595F 
 12660      45535045 
 12660      52414E44 
 12660      4F5F4155 
 12661              	.LASF67:
 12662 0523 70726963 		.ascii	"priceUnitMarket\000"
 12662      65556E69 
 12662      744D6172 
 12662      6B657400 
 12663              	.LASF76:
 12664 0533 73686966 		.ascii	"shiftPassword\000"
 12664      74506173 
 12664      73776F72 
 12664      6400
 12665              	.LASF79:
 12666 0541 746F7461 		.ascii	"totalsHandle\000"
 12666      6C734861 
 12666      6E646C65 
 12666      00
 12667              	.LASF177:
 12668 054e 666C6F77 		.ascii	"flowDisplay1\000"
 12668      44697370 
 12668      6C617931 
 12668      00
 12669              	.LASF178:
 12670 055b 666C6F77 		.ascii	"flowDisplay2\000"
 12670      44697370 
 12670      6C617932 
 12670      00
 12671              	.LASF179:
 12672 0568 666C6F77 		.ascii	"flowDisplay3\000"
 12672      44697370 
 12672      6C617933 
 12672      00
 12673              	.LASF180:
 12674 0575 666C6F77 		.ascii	"flowDisplay4\000"
 12674      44697370 
 12674      6C617934 
 12674      00
 12675              	.LASF211:
 12676 0582 73746174 		.ascii	"statePump\000"
 12676      6550756D 
 12676      7000
 12677              	.LASF22:
ARM GAS  C:\Users\RECEPC~1\AppData\Local\Temp\ccoGpf2X.s 			page 267


 12678 058c 63686172 		.ascii	"char\000"
 12678      00
 12679              	.LASF136:
 12680 0591 44495350 		.ascii	"DISPLAY_AMBAS_IMPRESORAS_FUNCIONANDO\000"
 12680      4C41595F 
 12680      414D4241 
 12680      535F494D 
 12680      50524553 
 12681              	.LASF213:
 12682 05b6 6C6F636B 		.ascii	"lockTurn\000"
 12682      5475726E 
 12682      00
 12683              	.LASF29:
 12684 05bf 666C6167 		.ascii	"flagWayToPayMixed\000"
 12684      57617954 
 12684      6F506179 
 12684      4D697865 
 12684      6400
 12685              	.LASF238:
 12686 05d1 45455052 		.ascii	"EEPROM_1_Start\000"
 12686      4F4D5F31 
 12686      5F537461 
 12686      727400
 12687              	.LASF4:
 12688 05e0 5F5F7569 		.ascii	"__uint16_t\000"
 12688      6E743136 
 12688      5F7400
 12689              	.LASF223:
 12690 05eb 636F6E74 		.ascii	"controlChar\000"
 12690      726F6C43 
 12690      68617200 
 12691              	.LASF146:
 12692 05f7 476C6F62 		.ascii	"GlobalInitializer\000"
 12692      616C496E 
 12692      69746961 
 12692      6C697A65 
 12692      7200
 12693              	.LASF205:
 12694 0609 556E6974 		.ascii	"UnitType\000"
 12694      54797065 
 12694      00
 12695              	.LASF42:
 12696 0612 73746174 		.ascii	"stateMux\000"
 12696      654D7578 
 12696      00
 12697              	.LASF104:
 12698 061b 44495350 		.ascii	"DISPLAY_INGRESE_PASSWORD\000"
 12698      4C41595F 
 12698      494E4752 
 12698      4553455F 
 12698      50415353 
 12699              	.LASF167:
 12700 0634 506F6C6C 		.ascii	"PollingDisplay2\000"
 12700      696E6744 
 12700      6973706C 
 12700      61793200 
 12701              	.LASF260:
ARM GAS  C:\Users\RECEPC~1\AppData\Local\Temp\ccoGpf2X.s 			page 268


 12702 0644 44697370 		.ascii	"Display1_ClearRxBuffer\000"
 12702      6C617931 
 12702      5F436C65 
 12702      61725278 
 12702      42756666 
 12703              	.LASF230:
 12704 065b 696E7449 		.ascii	"intIDStation\000"
 12704      44537461 
 12704      74696F6E 
 12704      00
 12705              	.LASF173:
 12706 0668 636F756E 		.ascii	"countAnimation1\000"
 12706      74416E69 
 12706      6D617469 
 12706      6F6E3100 
 12707              	.LASF174:
 12708 0678 636F756E 		.ascii	"countAnimation2\000"
 12708      74416E69 
 12708      6D617469 
 12708      6F6E3200 
 12709              	.LASF201:
 12710 0688 73746174 		.ascii	"stateBeagleSoft\000"
 12710      65426561 
 12710      676C6553 
 12710      6F667400 
 12711              	.LASF231:
 12712 0698 62756666 		.ascii	"bufferDisplay1\000"
 12712      65724469 
 12712      73706C61 
 12712      793100
 12713              	.LASF39:
 12714 06a7 70726573 		.ascii	"presetType\000"
 12714      65745479 
 12714      706500
 12715              	.LASF101:
 12716 06b2 44495350 		.ascii	"DISPLAY_BAJE_MANIJA\000"
 12716      4C41595F 
 12716      42414A45 
 12716      5F4D414E 
 12716      494A4100 
 12717              	.LASF72:
 12718 06c6 666C6167 		.ascii	"flagChangePPU\000"
 12718      4368616E 
 12718      67655050 
 12718      5500
 12719              	.LASF251:
 12720 06d4 6765745F 		.ascii	"get_position\000"
 12720      706F7369 
 12720      74696F6E 
 12720      00
 12721              	.LASF46:
 12722 06e1 746F7461 		.ascii	"totalVolumePrevious\000"
 12722      6C566F6C 
 12722      756D6550 
 12722      72657669 
 12722      6F757300 
 12723              	.LASF94:
ARM GAS  C:\Users\RECEPC~1\AppData\Local\Temp\ccoGpf2X.s 			page 269


 12724 06f5 44495350 		.ascii	"DISPLAY_FORMA_PROGRAMACION\000"
 12724      4C41595F 
 12724      464F524D 
 12724      415F5052 
 12724      4F475241 
 12725              	.LASF147:
 12726 0710 53746F72 		.ascii	"StoreConfiguration\000"
 12726      65436F6E 
 12726      66696775 
 12726      72617469 
 12726      6F6E00
 12727              	.LASF80:
 12728 0723 70707541 		.ascii	"ppuAuthorized\000"
 12728      7574686F 
 12728      72697A65 
 12728      6400
 12729              	.LASF262:
 12730 0731 616C7068 		.ascii	"alphanumeric_keyboard\000"
 12730      616E756D 
 12730      65726963 
 12730      5F6B6579 
 12730      626F6172 
 12731              	.LASF216:
 12732 0747 5072696E 		.ascii	"PrinterType\000"
 12732      74657254 
 12732      79706500 
 12733              	.LASF77:
 12734 0753 62756666 		.ascii	"buffer\000"
 12734      657200
 12735              	.LASF91:
 12736 075a 44495350 		.ascii	"DISPLAY_INICIO1\000"
 12736      4C41595F 
 12736      494E4943 
 12736      494F3100 
 12737              	.LASF92:
 12738 076a 44495350 		.ascii	"DISPLAY_INICIO2\000"
 12738      4C41595F 
 12738      494E4943 
 12738      494F3200 
 12739              	.LASF149:
 12740 077a 496E6974 		.ascii	"InitDisplay1\000"
 12740      44697370 
 12740      6C617931 
 12740      00
 12741              	.LASF159:
 12742 0787 496E6974 		.ascii	"InitDisplay2\000"
 12742      44697370 
 12742      6C617932 
 12742      00
 12743              	.LASF228:
 12744 0794 62756666 		.ascii	"buffer_rf\000"
 12744      65725F72 
 12744      6600
 12745              	.LASF135:
 12746 079e 44495350 		.ascii	"DISPLAY_USUARIO_INVALIDO\000"
 12746      4C41595F 
 12746      55535541 
ARM GAS  C:\Users\RECEPC~1\AppData\Local\Temp\ccoGpf2X.s 			page 270


 12746      52494F5F 
 12746      494E5641 
 12747              	.LASF282:
 12748 07b7 43795764 		.ascii	"CyWdtClear\000"
 12748      74436C65 
 12748      617200
 12749              	.LASF210:
 12750 07c2 44444D6F 		.ascii	"DDMode\000"
 12750      646500
 12751              	.LASF8:
 12752 07c9 6C6F6E67 		.ascii	"long unsigned int\000"
 12752      20756E73 
 12752      69676E65 
 12752      6420696E 
 12752      7400
 12753              	.LASF140:
 12754 07db 44495350 		.ascii	"DISPLAY_DUMMY0\000"
 12754      4C41595F 
 12754      44554D4D 
 12754      593000
 12755              	.LASF141:
 12756 07ea 44495350 		.ascii	"DISPLAY_DUMMY1\000"
 12756      4C41595F 
 12756      44554D4D 
 12756      593100
 12757              	.LASF142:
 12758 07f9 44495350 		.ascii	"DISPLAY_DUMMY2\000"
 12758      4C41595F 
 12758      44554D4D 
 12758      593200
 12759              	.LASF143:
 12760 0808 44495350 		.ascii	"DISPLAY_DUMMY3\000"
 12760      4C41595F 
 12760      44554D4D 
 12760      593300
 12761              	.LASF120:
 12762 0817 44495350 		.ascii	"DISPLAY_IMPRIMIENDO_RECIBO\000"
 12762      4C41595F 
 12762      494D5052 
 12762      494D4945 
 12762      4E444F5F 
 12763              	.LASF160:
 12764 0832 496E6974 		.ascii	"InitPump\000"
 12764      50756D70 
 12764      00
 12765              	.LASF84:
 12766 083b 70726F64 		.ascii	"productSale\000"
 12766      75637453 
 12766      616C6500 
 12767              	.LASF50:
 12768 0847 746F7461 		.ascii	"totalPPUAfter\000"
 12768      6C505055 
 12768      41667465 
 12768      7200
 12769              	.LASF30:
 12770 0855 73656C65 		.ascii	"selectedSale\000"
 12770      63746564 
ARM GAS  C:\Users\RECEPC~1\AppData\Local\Temp\ccoGpf2X.s 			page 271


 12770      53616C65 
 12770      00
 12771              	.LASF59:
 12772 0862 6D6F6E65 		.ascii	"moneyQuota\000"
 12772      7951756F 
 12772      746100
 12773              	.LASF32:
 12774 086d 73657269 		.ascii	"serialSelectedSale\000"
 12774      616C5365 
 12774      6C656374 
 12774      65645361 
 12774      6C6500
 12775              	.LASF61:
 12776 0880 70707551 		.ascii	"ppuQuota\000"
 12776      756F7461 
 12776      00
 12777              	.LASF64:
 12778 0889 7175616E 		.ascii	"quantityMarket\000"
 12778      74697479 
 12778      4D61726B 
 12778      657400
 12779              	.LASF163:
 12780 0898 616E696D 		.ascii	"animacion\000"
 12780      6163696F 
 12780      6E00
 12781              	.LASF229:
 12782 08a2 62756666 		.ascii	"buffer_tx\000"
 12782      65725F74 
 12782      7800
 12783              	.LASF263:
 12784 08ac 6973725F 		.ascii	"isr_3_StartEx\000"
 12784      335F5374 
 12784      61727445 
 12784      7800
 12785              	.LASF226:
 12786 08ba 7072696E 		.ascii	"printPortA\000"
 12786      74506F72 
 12786      744100
 12787              	.LASF232:
 12788 08c5 62756666 		.ascii	"bufferDisplay2\000"
 12788      65724469 
 12788      73706C61 
 12788      793200
 12789              	.LASF233:
 12790 08d4 62756666 		.ascii	"bufferDisplay3\000"
 12790      65724469 
 12790      73706C61 
 12790      793300
 12791              	.LASF234:
 12792 08e3 62756666 		.ascii	"bufferDisplay4\000"
 12792      65724469 
 12792      73706C61 
 12792      793400
 12793              	.LASF107:
 12794 08f2 44495350 		.ascii	"DISPLAY_NUEVO_PASSWORD\000"
 12794      4C41595F 
 12794      4E554556 
ARM GAS  C:\Users\RECEPC~1\AppData\Local\Temp\ccoGpf2X.s 			page 272


 12794      4F5F5041 
 12794      5353574F 
 12795              	.LASF113:
 12796 0909 44495350 		.ascii	"DISPLAY_ID_RECONOCIDO\000"
 12796      4C41595F 
 12796      49445F52 
 12796      45434F4E 
 12796      4F434944 
 12797              	.LASF203:
 12798 091f 506C6174 		.ascii	"PlateRequest\000"
 12798      65526571 
 12798      75657374 
 12798      00
 12799              	.LASF137:
 12800 092c 44495350 		.ascii	"DISPLAY_IMPRESORA_NO_FUNCIONANDO\000"
 12800      4C41595F 
 12800      494D5052 
 12800      45534F52 
 12800      415F4E4F 
 12801              	.LASF268:
 12802 094d 67657453 		.ascii	"getSale\000"
 12802      616C6500 
 12803              	.LASF198:
 12804 0955 74797065 		.ascii	"typeIdSeller\000"
 12804      49645365 
 12804      6C6C6572 
 12804      00
 12805              	.LASF275:
 12806 0962 6C656572 		.ascii	"leer_hora\000"
 12806      5F686F72 
 12806      6100
 12807              	.LASF9:
 12808 096c 6C6F6E67 		.ascii	"long long int\000"
 12808      206C6F6E 
 12808      6720696E 
 12808      7400
 12809              	.LASF125:
 12810 097a 44495350 		.ascii	"DISPLAY_AUTORIZACION_ACEPTADA\000"
 12810      4C41595F 
 12810      4155544F 
 12810      52495A41 
 12810      43494F4E 
 12811              	.LASF103:
 12812 0998 44495350 		.ascii	"DISPLAY_DESEA_IMPRIMIR_RECIBO\000"
 12812      4C41595F 
 12812      44455345 
 12812      415F494D 
 12812      5052494D 
 12813              	.LASF109:
 12814 09b6 44495350 		.ascii	"DISPLAY_GRACIAS_VUELVA_PRONTO\000"
 12814      4C41595F 
 12814      47524143 
 12814      4941535F 
 12814      5655454C 
 12815              	.LASF150:
 12816 09d4 696E6954 		.ascii	"iniText\000"
 12816      65787400 
ARM GAS  C:\Users\RECEPC~1\AppData\Local\Temp\ccoGpf2X.s 			page 273


 12817              	.LASF188:
 12818 09dc 70707578 		.ascii	"ppux10\000"
 12818      313000
 12819              	.LASF19:
 12820 09e3 646F7562 		.ascii	"double\000"
 12820      6C6500
 12821              	.LASF105:
 12822 09ea 44495350 		.ascii	"DISPLAY_PASSWORD_VALIDO\000"
 12822      4C41595F 
 12822      50415353 
 12822      574F5244 
 12822      5F56414C 
 12823              	.LASF195:
 12824 0a02 72657369 		.ascii	"residue\000"
 12824      64756500 
 12825              	.LASF97:
 12826 0a0a 44495350 		.ascii	"DISPLAY_SELECCIONE_PRODUCTO3\000"
 12826      4C41595F 
 12826      53454C45 
 12826      4343494F 
 12826      4E455F50 
 12827              	.LASF98:
 12828 0a27 44495350 		.ascii	"DISPLAY_SELECCIONE_PRODUCTO4\000"
 12828      4C41595F 
 12828      53454C45 
 12828      4343494F 
 12828      4E455F50 
 12829              	.LASF106:
 12830 0a44 44495350 		.ascii	"DISPLAY_PASSWORD_INVALIDO\000"
 12830      4C41595F 
 12830      50415353 
 12830      574F5244 
 12830      5F494E56 
 12831              	.LASF63:
 12832 0a5e 70726F64 		.ascii	"productMarket\000"
 12832      7563744D 
 12832      61726B65 
 12832      7400
 12833              	.LASF271:
 12834 0a6c 746F7563 		.ascii	"touch_write\000"
 12834      685F7772 
 12834      69746500 
 12835              	.LASF172:
 12836 0a78 49544D5F 		.ascii	"ITM_RxBuffer\000"
 12836      52784275 
 12836      66666572 
 12836      00
 12837              	.LASF200:
 12838 0a85 666C6167 		.ascii	"flagResetMux\000"
 12838      52657365 
 12838      744D7578 
 12838      00
 12839              	.LASF18:
 12840 0a92 666C6F61 		.ascii	"float\000"
 12840      7400
 12841              	.LASF68:
 12842 0a98 746F7461 		.ascii	"totalMarket\000"
ARM GAS  C:\Users\RECEPC~1\AppData\Local\Temp\ccoGpf2X.s 			page 274


 12842      6C4D6172 
 12842      6B657400 
 12843              	.LASF82:
 12844 0aa4 766F6C75 		.ascii	"volumeSale\000"
 12844      6D655361 
 12844      6C6500
 12845              	.LASF207:
 12846 0aaf 4D6F6E65 		.ascii	"MoneyDec\000"
 12846      79446563 
 12846      00
 12847              	.LASF75:
 12848 0ab8 73686966 		.ascii	"shiftId\000"
 12848      74496400 
 12849              	.LASF11:
 12850 0ac0 756E7369 		.ascii	"unsigned int\000"
 12850      676E6564 
 12850      20696E74 
 12850      00
 12851              	.LASF111:
 12852 0acd 44495350 		.ascii	"DISPLAY_ID_NO_RECONOCIDO\000"
 12852      4C41595F 
 12852      49445F4E 
 12852      4F5F5245 
 12852      434F4E4F 
 12853              	.LASF186:
 12854 0ae6 64656C61 		.ascii	"delayPicture1\000"
 12854      79506963 
 12854      74757265 
 12854      3100
 12855              	.LASF187:
 12856 0af4 64656C61 		.ascii	"delayPicture2\000"
 12856      79506963 
 12856      74757265 
 12856      3200
 12857              	.LASF78:
 12858 0b02 706F7369 		.ascii	"position\000"
 12858      74696F6E 
 12858      00
 12859              	.LASF102:
 12860 0b0b 44495350 		.ascii	"DISPLAY_DIGITE_PLACA\000"
 12860      4C41595F 
 12860      44494749 
 12860      54455F50 
 12860      4C414341 
 12861              	.LASF38:
 12862 0b20 73616C65 		.ascii	"salePerform\000"
 12862      50657266 
 12862      6F726D00 
 12863              	.LASF69:
 12864 0b2c 666C6167 		.ascii	"flagProductmarket\000"
 12864      50726F64 
 12864      7563746D 
 12864      61726B65 
 12864      7400
 12865              	.LASF23:
 12866 0b3e 63797374 		.ascii	"cystatus\000"
 12866      61747573 
ARM GAS  C:\Users\RECEPC~1\AppData\Local\Temp\ccoGpf2X.s 			page 275


 12866      00
 12867              	.LASF287:
 12868 0b47 5246436F 		.ascii	"RFConsulting\000"
 12868      6E73756C 
 12868      74696E67 
 12868      00
 12869              	.LASF255:
 12870 0b54 50756D70 		.ascii	"PumpCompleteConfiguration\000"
 12870      436F6D70 
 12870      6C657465 
 12870      436F6E66 
 12870      69677572 
 12871              	.LASF40:
 12872 0b6e 70726573 		.ascii	"presetValue\000"
 12872      65745661 
 12872      6C756500 
 12873              	.LASF33:
 12874 0b7a 6B657962 		.ascii	"keyboardWayToPay\000"
 12874      6F617264 
 12874      57617954 
 12874      6F506179 
 12874      00
 12875              	.LASF189:
 12876 0b8b 64656369 		.ascii	"decimalMoney\000"
 12876      6D616C4D 
 12876      6F6E6579 
 12876      00
 12877              	.LASF48:
 12878 0b98 746F7461 		.ascii	"totalMoneyAfter\000"
 12878      6C4D6F6E 
 12878      65794166 
 12878      74657200 
 12879              	.LASF209:
 12880 0ba8 50505544 		.ascii	"PPUDec\000"
 12880      656300
 12881              	.LASF236:
 12882 0baf 4D757856 		.ascii	"MuxVersion\000"
 12882      65727369 
 12882      6F6E00
 12883              	.LASF144:
 12884 0bba 44495350 		.ascii	"DISPLAY_SIDE_DUMMY_DISPLAY\000"
 12884      4C41595F 
 12884      53494445 
 12884      5F44554D 
 12884      4D595F44 
 12885              	.LASF270:
 12886 0bd5 746F7563 		.ascii	"touch_present\000"
 12886      685F7072 
 12886      6573656E 
 12886      7400
 12887              	.LASF127:
 12888 0be3 44495350 		.ascii	"DISPLAY_CONFIGURAR_FECHA_HORA\000"
 12888      4C41595F 
 12888      434F4E46 
 12888      49475552 
 12888      41525F46 
 12889              	.LASF259:
ARM GAS  C:\Users\RECEPC~1\AppData\Local\Temp\ccoGpf2X.s 			page 276


 12890 0c01 44697370 		.ascii	"Display1_GetRxBufferSize\000"
 12890      6C617931 
 12890      5F476574 
 12890      52784275 
 12890      66666572 
 12891              	.LASF44:
 12892 0c1a 74696D65 		.ascii	"timeLiftHandle\000"
 12892      4C696674 
 12892      48616E64 
 12892      6C6500
 12893              	.LASF43:
 12894 0c29 64617465 		.ascii	"dateLiftHandle\000"
 12894      4C696674 
 12894      48616E64 
 12894      6C6500
 12895              	.LASF156:
 12896 0c38 44697370 		.ascii	"DisplayMode\000"
 12896      6C61794D 
 12896      6F646500 
 12897              	.LASF224:
 12898 0c44 69645374 		.ascii	"idStation\000"
 12898      6174696F 
 12898      6E00
 12899              	.LASF122:
 12900 0c4e 44495350 		.ascii	"DISPLAY_OPERACION_CANCELADA\000"
 12900      4C41595F 
 12900      4F504552 
 12900      4143494F 
 12900      4E5F4341 
 12901              	.LASF117:
 12902 0c6a 44495350 		.ascii	"DISPLAY_OPERACIONES\000"
 12902      4C41595F 
 12902      4F504552 
 12902      4143494F 
 12902      4E455300 
 12903              	.LASF36:
 12904 0c7e 76656869 		.ascii	"vehicleType\000"
 12904      636C6554 
 12904      79706500 
 12905              	.LASF151:
 12906 0c8a 556E6974 		.ascii	"Unit\000"
 12906      00
 12907              	.LASF90:
 12908 0c8f 44495350 		.ascii	"DISPLAY_INICIO0\000"
 12908      4C41595F 
 12908      494E4943 
 12908      494F3000 
 12909              	.LASF24:
 12910 0c9f 63796973 		.ascii	"cyisraddress\000"
 12910      72616464 
 12910      72657373 
 12910      00
 12911              	.LASF206:
 12912 0cac 436F6E76 		.ascii	"ConversionFactor\000"
 12912      65727369 
 12912      6F6E4661 
 12912      63746F72 
ARM GAS  C:\Users\RECEPC~1\AppData\Local\Temp\ccoGpf2X.s 			page 277


 12912      00
 12913              	.LASF112:
 12914 0cbd 44495350 		.ascii	"DISPLAY_ESPERANDO_ID\000"
 12914      4C41595F 
 12914      45535045 
 12914      52414E44 
 12914      4F5F4944 
 12915              	.LASF87:
 12916 0cd2 686F7365 		.ascii	"hoseNumber\000"
 12916      4E756D62 
 12916      657200
 12917              	.LASF93:
 12918 0cdd 44495350 		.ascii	"DISPLAY_FORMA_PAGO_DESEADA\000"
 12918      4C41595F 
 12918      464F524D 
 12918      415F5041 
 12918      474F5F44 
 12919              	.LASF10:
 12920 0cf8 6C6F6E67 		.ascii	"long long unsigned int\000"
 12920      206C6F6E 
 12920      6720756E 
 12920      7369676E 
 12920      65642069 
 12921              	.LASF241:
 12922 0d0f 44697370 		.ascii	"Display2_Start\000"
 12922      6C617932 
 12922      5F537461 
 12922      727400
 12923              	.LASF281:
 12924 0d1e 43795764 		.ascii	"CyWdtStart\000"
 12924      74537461 
 12924      727400
 12925              	.LASF13:
 12926 0d29 75696E74 		.ascii	"uint16_t\000"
 12926      31365F74 
 12926      00
 12927              	.LASF49:
 12928 0d32 746F7461 		.ascii	"totalVolumeAfter\000"
 12928      6C566F6C 
 12928      756D6541 
 12928      66746572 
 12928      00
 12929              	.LASF246:
 12930 0d43 45455052 		.ascii	"EEPROM_1_ReadByte\000"
 12930      4F4D5F31 
 12930      5F526561 
 12930      64427974 
 12930      6500
 12931              	.LASF185:
 12932 0d55 70726F64 		.ascii	"productNumber\000"
 12932      7563744E 
 12932      756D6265 
 12932      7200
 12933              	.LASF237:
 12934 0d63 70617373 		.ascii	"passwordPump\000"
 12934      776F7264 
 12934      50756D70 
ARM GAS  C:\Users\RECEPC~1\AppData\Local\Temp\ccoGpf2X.s 			page 278


 12934      00
 12935              	.LASF215:
 12936 0d70 68696464 		.ascii	"hiddenKeys\000"
 12936      656E4B65 
 12936      797300
 12937              	.LASF73:
 12938 0d7b 666C6167 		.ascii	"flagPrint\000"
 12938      5072696E 
 12938      7400
 12939              	.LASF183:
 12940 0d85 666C6167 		.ascii	"flagPoint1\000"
 12940      506F696E 
 12940      743100
 12941              	.LASF184:
 12942 0d90 666C6167 		.ascii	"flagPoint2\000"
 12942      506F696E 
 12942      743200
 12943              	.LASF285:
 12944 0d9b 433A5C55 		.ascii	"C:\\Users\\Recepcion\\Documents\\GitHub\\NSY-DH\\Wo"
 12944      73657273 
 12944      5C526563 
 12944      65706369 
 12944      6F6E5C44 
 12945 0dc8 726B7370 		.ascii	"rkspace01\\Design01.cydsn\000"
 12945      61636530 
 12945      315C4465 
 12945      7369676E 
 12945      30312E63 
 12946              	.LASF204:
 12947 0de1 49444361 		.ascii	"IDCast\000"
 12947      737400
 12948              	.LASF192:
 12949 0de8 74696D65 		.ascii	"time\000"
 12949      00
 12950              	.LASF100:
 12951 0ded 44495350 		.ascii	"DISPLAY_DESPACHANDO\000"
 12951      4C41595F 
 12951      44455350 
 12951      41434841 
 12951      4E444F00 
 12952              	.LASF128:
 12953 0e01 44495350 		.ascii	"DISPLAY_HORA\000"
 12953      4C41595F 
 12953      484F5241 
 12953      00
 12954              	.LASF208:
 12955 0e0e 566F6C44 		.ascii	"VolDec\000"
 12955      656300
 12956              	.LASF115:
 12957 0e15 44495350 		.ascii	"DISPLAY_INTRODUZCA_VOLUMEN\000"
 12957      4C41595F 
 12957      494E5452 
 12957      4F44555A 
 12957      43415F56 
 12958              	.LASF34:
 12959 0e30 61757468 		.ascii	"authorizationFlag\000"
 12959      6F72697A 
ARM GAS  C:\Users\RECEPC~1\AppData\Local\Temp\ccoGpf2X.s 			page 279


 12959      6174696F 
 12959      6E466C61 
 12959      6700
 12960              	.LASF280:
 12961 0e42 54696D65 		.ascii	"Timer_Animacion2_ReadStatusRegister\000"
 12961      725F416E 
 12961      696D6163 
 12961      696F6E32 
 12961      5F526561 
 12962              	.LASF86:
 12963 0e66 686F7365 		.ascii	"hose\000"
 12963      00
 12964              	.LASF133:
 12965 0e6b 44495350 		.ascii	"DISPLAY_CANCELADO_X_PC\000"
 12965      4C41595F 
 12965      43414E43 
 12965      454C4144 
 12965      4F5F585F 
 12966              	.LASF15:
 12967 0e82 75696E74 		.ascii	"uint8\000"
 12967      3800
 12968              	.LASF256:
 12969 0e88 77726974 		.ascii	"write_psoc1\000"
 12969      655F7073 
 12969      6F633100 
 12970              	.LASF248:
 12971 0e94 53686F77 		.ascii	"ShowMessage\000"
 12971      4D657373 
 12971      61676500 
 12972              	.LASF2:
 12973 0ea0 73686F72 		.ascii	"short int\000"
 12973      7420696E 
 12973      7400
 12974              	.LASF139:
 12975 0eaa 44495350 		.ascii	"DISPLAY_PRECIO_POR_UNIDAD\000"
 12975      4C41595F 
 12975      50524543 
 12975      494F5F50 
 12975      4F525F55 
 12976              	.LASF279:
 12977 0ec4 44697370 		.ascii	"Display2_ClearRxBuffer\000"
 12977      6C617932 
 12977      5F436C65 
 12977      61725278 
 12977      42756666 
 12978              	.LASF145:
 12979 0edb 44495350 		.ascii	"DISPLAY_NULL\000"
 12979      4C41595F 
 12979      4E554C4C 
 12979      00
 12980              	.LASF217:
 12981 0ee8 566F6C55 		.ascii	"VolUnit\000"
 12981      6E697400 
 12982              	.LASF85:
 12983 0ef0 61637469 		.ascii	"activeHose\000"
 12983      7665486F 
 12983      736500
ARM GAS  C:\Users\RECEPC~1\AppData\Local\Temp\ccoGpf2X.s 			page 280


 12984              	.LASF276:
 12985 0efb 6C656572 		.ascii	"leer_fecha\000"
 12985      5F666563 
 12985      686100
 12986              	.LASF239:
 12987 0f06 50756D70 		.ascii	"Pump_Start\000"
 12987      5F537461 
 12987      727400
 12988              	.LASF175:
 12989 0f11 636F756E 		.ascii	"countBeagleTX\000"
 12989      74426561 
 12989      676C6554 
 12989      5800
 12990              	.LASF53:
 12991 0f1f 6964656E 		.ascii	"identySale\000"
 12991      74795361 
 12991      6C6500
 12992              	.LASF197:
 12993 0f2a 69645365 		.ascii	"idSeller\000"
 12993      6C6C6572 
 12993      00
 12994              	.LASF171:
 12995 0f33 44697370 		.ascii	"Display2_rxBuffer\000"
 12995      6C617932 
 12995      5F727842 
 12995      75666665 
 12995      7200
 12996              	.LASF83:
 12997 0f45 70707553 		.ascii	"ppuSale\000"
 12997      616C6500 
 12998              	.LASF114:
 12999 0f4d 44495350 		.ascii	"DISPLAY_INTRODUZCA_CEDULA\000"
 12999      4C41595F 
 12999      494E5452 
 12999      4F44555A 
 12999      43415F43 
 13000              	.LASF88:
 13001 0f67 70756D70 		.ascii	"pump\000"
 13001      00
 13002              	.LASF222:
 13003 0f6c 636F6E66 		.ascii	"configAccess\000"
 13003      69674163 
 13003      63657373 
 13003      00
 13004              	.LASF244:
 13005 0f79 52465F43 		.ascii	"RF_Connection_Start\000"
 13005      6F6E6E65 
 13005      6374696F 
 13005      6E5F5374 
 13005      61727400 
 13006              	.LASF220:
 13007 0f8d 636F756E 		.ascii	"count_protector\000"
 13007      745F7072 
 13007      6F746563 
 13007      746F7200 
 13008              	.LASF225:
 13009 0f9d 70756D70 		.ascii	"pumpGap\000"
ARM GAS  C:\Users\RECEPC~1\AppData\Local\Temp\ccoGpf2X.s 			page 281


 13009      47617000 
 13010              	.LASF155:
 13011 0fa5 44697370 		.ascii	"DisplayMode0\000"
 13011      6C61794D 
 13011      6F646530 
 13011      00
 13012              	.LASF52:
 13013 0fb2 6D696C65 		.ascii	"mileageSale\000"
 13013      61676553 
 13013      616C6500 
 13014              	.LASF157:
 13015 0fbe 44697370 		.ascii	"DisplayMode2\000"
 13015      6C61794D 
 13015      6F646532 
 13015      00
 13016              	.LASF158:
 13017 0fcb 44697370 		.ascii	"DisplayMode3\000"
 13017      6C61794D 
 13017      6F646533 
 13017      00
 13018              	.LASF245:
 13019 0fd8 45455052 		.ascii	"EEPROM_1_WriteByte\000"
 13019      4F4D5F31 
 13019      5F577269 
 13019      74654279 
 13019      746500
 13020              	.LASF47:
 13021 0feb 746F7461 		.ascii	"totalPPUPrevious\000"
 13021      6C505055 
 13021      50726576 
 13021      696F7573 
 13021      00
 13022              	.LASF130:
 13023 0ffc 44495350 		.ascii	"DISPLAY_OPCION_TURNO\000"
 13023      4C41595F 
 13023      4F504349 
 13023      4F4E5F54 
 13023      55524E4F 
 13024              	.LASF81:
 13025 1011 6D6F6E65 		.ascii	"moneySale\000"
 13025      7953616C 
 13025      6500
 13026              	.LASF219:
 13027 101b 74696D65 		.ascii	"timeDownHandle\000"
 13027      446F776E 
 13027      48616E64 
 13027      6C6500
 13028              	.LASF41:
 13029 102a 70726F64 		.ascii	"productType\000"
 13029      75637454 
 13029      79706500 
 13030              	.LASF28:
 13031 1036 77617954 		.ascii	"wayToPay\000"
 13031      6F506179 
 13031      00
 13032              	.LASF218:
 13033 103f 64617465 		.ascii	"dateDownHandle\000"
ARM GAS  C:\Users\RECEPC~1\AppData\Local\Temp\ccoGpf2X.s 			page 282


 13033      446F776E 
 13033      48616E64 
 13033      6C6500
 13034              	.LASF243:
 13035 104e 4932435F 		.ascii	"I2C_Bus_Start\000"
 13035      4275735F 
 13035      53746172 
 13035      7400
 13036              	.LASF249:
 13037 105c 43794465 		.ascii	"CyDelay\000"
 13037      6C617900 
 13038              	.LASF221:
 13039 1064 636F756E 		.ascii	"count_protector2\000"
 13039      745F7072 
 13039      6F746563 
 13039      746F7232 
 13039      00
 13040              	.LASF284:
 13041 1075 2E5C6D61 		.ascii	".\\main.c\000"
 13041      696E2E63 
 13041      00
 13042              	.LASF278:
 13043 107e 44697370 		.ascii	"Display2_GetRxBufferSize\000"
 13043      6C617932 
 13043      5F476574 
 13043      52784275 
 13043      66666572 
 13044              	.LASF5:
 13045 1097 73686F72 		.ascii	"short unsigned int\000"
 13045      7420756E 
 13045      7369676E 
 13045      65642069 
 13045      6E7400
 13046              	.LASF58:
 13047 10aa 6D657373 		.ascii	"message\000"
 13047      61676500 
 13048              	.LASF266:
 13049 10b2 50726573 		.ascii	"PresetData\000"
 13049      65744461 
 13049      746100
 13050              	.LASF6:
 13051 10bd 5F5F696E 		.ascii	"__int32_t\000"
 13051      7433325F 
 13051      7400
 13052              	.LASF152:
 13053 10c7 556E6974 		.ascii	"Unit2\000"
 13053      3200
 13054              	.LASF153:
 13055 10cd 556E6974 		.ascii	"Unit3\000"
 13055      3300
 13056              	.LASF154:
 13057 10d3 556E6974 		.ascii	"Unit4\000"
 13057      3400
 13058              	.LASF54:
 13059 10d9 666C6167 		.ascii	"flagKeyboard\000"
 13059      4B657962 
 13059      6F617264 
ARM GAS  C:\Users\RECEPC~1\AppData\Local\Temp\ccoGpf2X.s 			page 283


 13059      00
 13060              	.LASF247:
 13061 10e6 53657450 		.ascii	"SetPicture\000"
 13061      69637475 
 13061      726500
 13062              	.LASF235:
 13063 10f1 73696465 		.ascii	"side\000"
 13063      00
 13064              	.LASF70:
 13065 10f6 70726963 		.ascii	"priceConsign\000"
 13065      65436F6E 
 13065      7369676E 
 13065      00
 13066              	.LASF161:
 13067 1103 5072696E 		.ascii	"PrintTest\000"
 13067      74546573 
 13067      7400
 13068              	.LASF16:
 13069 110d 75696E74 		.ascii	"uint16\000"
 13069      313600
 13070              	.LASF240:
 13071 1114 44697370 		.ascii	"Display1_Start\000"
 13071      6C617931 
 13071      5F537461 
 13071      727400
 13072              	.LASF202:
 13073 1123 50726576 		.ascii	"PrevStatePump\000"
 13073      53746174 
 13073      6550756D 
 13073      7000
 13074              	.LASF126:
 13075 1131 44495350 		.ascii	"DISPLAY_AUTORIZACION_RECHAZADA\000"
 13075      4C41595F 
 13075      4155544F 
 13075      52495A41 
 13075      43494F4E 
 13076              		.ident	"GCC: (GNU Tools for ARM Embedded Processors) 4.9.3 20150303 (release) [ARM/embedded-4_9-br
