ARM GAS  C:\Users\RECEPC~1\AppData\Local\Temp\ccTEGtgN.s 			page 1


   1              		.syntax unified
   2              		.cpu cortex-m3
   3              		.fpu softvfp
   4              		.eabi_attribute 20, 1
   5              		.eabi_attribute 21, 1
   6              		.eabi_attribute 23, 3
   7              		.eabi_attribute 24, 1
   8              		.eabi_attribute 25, 1
   9              		.eabi_attribute 26, 1
  10              		.eabi_attribute 30, 1
  11              		.eabi_attribute 34, 1
  12              		.eabi_attribute 18, 4
  13              		.thumb
  14              		.file	"protocol.c"
  15              		.text
  16              	.Ltext0:
  17              		.cfi_sections	.debug_frame
  18              		.section	.text.get_state,"ax",%progbits
  19              		.align	2
  20              		.global	get_state
  21              		.thumb
  22              		.thumb_func
  23              		.type	get_state, %function
  24              	get_state:
  25              	.LFB63:
  26              		.file 1 ".\\protocol.c"
   1:.\protocol.c  **** /*
   2:.\protocol.c  **** ***************************************************************************************************
   3:.\protocol.c  **** *                                         MUX ADVANCE CODE
   4:.\protocol.c  **** *
   5:.\protocol.c  **** *                             (c) Copyright 2016; Sistemas Insepet LTDA
   6:.\protocol.c  **** *
   7:.\protocol.c  **** *               All rights reserved.  Protected by international copyright laws.
   8:.\protocol.c  **** *               Knowledge of the source code may NOT be used to develop a similar product.
   9:.\protocol.c  **** *               Please help us continue to provide the Embedded community with the finest
  10:.\protocol.c  **** *               software available.  Your honesty is greatly appreciated.
  11:.\protocol.c  **** ***************************************************************************************************
  12:.\protocol.c  **** */
  13:.\protocol.c  **** 
  14:.\protocol.c  **** /*
  15:.\protocol.c  **** ***************************************************************************************************
  16:.\protocol.c  **** *
  17:.\protocol.c  **** *                                             MUX ADVANCE CODE
  18:.\protocol.c  **** *
  19:.\protocol.c  **** *                                             CYPRESS PSoC5LP
  20:.\protocol.c  **** *                                                with the
  21:.\protocol.c  **** *                                            CY8C5969AXI-LP035
  22:.\protocol.c  **** *
  23:.\protocol.c  **** * Filename      : protocol.c
  24:.\protocol.c  **** * Version       : V1.00
  25:.\protocol.c  **** * Programmer(s) : 
  26:.\protocol.c  ****                   
  27:.\protocol.c  **** ***************************************************************************************************
  28:.\protocol.c  **** */
  29:.\protocol.c  **** 
  30:.\protocol.c  **** 
  31:.\protocol.c  **** /*
ARM GAS  C:\Users\RECEPC~1\AppData\Local\Temp\ccTEGtgN.s 			page 2


  32:.\protocol.c  **** ***************************************************************************************************
  33:.\protocol.c  **** *                                             INCLUDE FILES
  34:.\protocol.c  **** ***************************************************************************************************
  35:.\protocol.c  **** */
  36:.\protocol.c  **** #include <device.h>
  37:.\protocol.c  **** #include <variables.h>
  38:.\protocol.c  **** #include <stdbool.h>
  39:.\protocol.c  **** uint8_t GetLRC(char8 *_pbuffer);
  40:.\protocol.c  **** /*
  41:.\protocol.c  **** ***************************************************************************************************
  42:.\protocol.c  **** *                                    uint8 get_state(uint8 pos)
  43:.\protocol.c  **** *
  44:.\protocol.c  **** * Description : 
  45:.\protocol.c  **** *               
  46:.\protocol.c  **** *
  47:.\protocol.c  **** * Argument(s) : none
  48:.\protocol.c  **** *
  49:.\protocol.c  **** * Return(s)   : none
  50:.\protocol.c  **** *
  51:.\protocol.c  **** * Caller(s)   : 
  52:.\protocol.c  **** *
  53:.\protocol.c  **** * Note(s)     : none.
  54:.\protocol.c  **** ***************************************************************************************************
  55:.\protocol.c  **** */
  56:.\protocol.c  **** 
  57:.\protocol.c  **** uint8 get_state(uint8 pos){
  27              		.loc 1 57 0
  28              		.cfi_startproc
  29              		@ args = 0, pretend = 0, frame = 0
  30              		@ frame_needed = 0, uses_anonymous_args = 0
  31              	.LVL0:
  32 0000 10B5     		push	{r4, lr}
  33              		.cfi_def_cfa_offset 8
  34              		.cfi_offset 4, -8
  35              		.cfi_offset 14, -4
  36 0002 0446     		mov	r4, r0
  58:.\protocol.c  ****     uint8 state;
  59:.\protocol.c  ****     Pump_ClearRxBuffer();
  37              		.loc 1 59 0
  38 0004 FFF7FEFF 		bl	Pump_ClearRxBuffer
  39              	.LVL1:
  60:.\protocol.c  ****     Pump_PutChar(pos);
  40              		.loc 1 60 0
  41 0008 2046     		mov	r0, r4
  42 000a FFF7FEFF 		bl	Pump_PutChar
  43              	.LVL2:
  61:.\protocol.c  ****     CyDelay(60);
  44              		.loc 1 61 0
  45 000e 3C20     		movs	r0, #60
  46 0010 FFF7FEFF 		bl	CyDelay
  47              	.LVL3:
  62:.\protocol.c  ****     if(Pump_GetRxBufferSize()>=1){
  48              		.loc 1 62 0
  49 0014 FFF7FEFF 		bl	Pump_GetRxBufferSize
  50              	.LVL4:
  51 0018 38B1     		cbz	r0, .L3
  63:.\protocol.c  ****         state=(Pump_ReadRxData()&0xF0)>>4;
ARM GAS  C:\Users\RECEPC~1\AppData\Local\Temp\ccTEGtgN.s 			page 3


  52              		.loc 1 63 0
  53 001a FFF7FEFF 		bl	Pump_ReadRxData
  54              	.LVL5:
  55 001e C0F30714 		ubfx	r4, r0, #4, #8
  56              	.LVL6:
  64:.\protocol.c  ****         //state = Pump_ReadRxData();
  65:.\protocol.c  ****         Pump_ClearRxBuffer();
  57              		.loc 1 65 0
  58 0022 FFF7FEFF 		bl	Pump_ClearRxBuffer
  59              	.LVL7:
  66:.\protocol.c  ****         return state;
  60              		.loc 1 66 0
  61 0026 2046     		mov	r0, r4
  62 0028 10BD     		pop	{r4, pc}
  63              	.LVL8:
  64              	.L3:
  67:.\protocol.c  ****     }
  68:.\protocol.c  ****     else{
  69:.\protocol.c  ****         return 0;
  65              		.loc 1 69 0
  66 002a 0020     		movs	r0, #0
  70:.\protocol.c  ****     }
  71:.\protocol.c  **** }
  67              		.loc 1 71 0
  68 002c 10BD     		pop	{r4, pc}
  69              		.cfi_endproc
  70              	.LFE63:
  71              		.size	get_state, .-get_state
  72 002e 00BF     		.section	.text.get_position,"ax",%progbits
  73              		.align	2
  74              		.global	get_position
  75              		.thumb
  76              		.thumb_func
  77              		.type	get_position, %function
  78              	get_position:
  79              	.LFB64:
  72:.\protocol.c  **** 
  73:.\protocol.c  **** /*
  74:.\protocol.c  **** ***************************************************************************************************
  75:.\protocol.c  **** *                                         uint8 get_position(void)
  76:.\protocol.c  **** *
  77:.\protocol.c  **** * Description : 
  78:.\protocol.c  **** *               
  79:.\protocol.c  **** *
  80:.\protocol.c  **** * Argument(s) : none
  81:.\protocol.c  **** *
  82:.\protocol.c  **** * Return(s)   : none
  83:.\protocol.c  **** *
  84:.\protocol.c  **** * Caller(s)   : 
  85:.\protocol.c  **** *
  86:.\protocol.c  **** * Note(s)     : none.
  87:.\protocol.c  **** ***************************************************************************************************
  88:.\protocol.c  **** */
  89:.\protocol.c  **** uint8 get_position(void){
  80              		.loc 1 89 0
  81              		.cfi_startproc
  82              		@ args = 0, pretend = 0, frame = 0
ARM GAS  C:\Users\RECEPC~1\AppData\Local\Temp\ccTEGtgN.s 			page 4


  83              		@ frame_needed = 0, uses_anonymous_args = 0
  84 0000 10B5     		push	{r4, lr}
  85              		.cfi_def_cfa_offset 8
  86              		.cfi_offset 4, -8
  87              		.cfi_offset 14, -4
  90:.\protocol.c  ****     uint8 x;            
  91:.\protocol.c  ****     side.a.dir=0xff;
  88              		.loc 1 91 0
  89 0002 464B     		ldr	r3, .L20
  90 0004 FF22     		movs	r2, #255
  91 0006 1A70     		strb	r2, [r3]
  92:.\protocol.c  ****     side.b.dir=0xff;
  92              		.loc 1 92 0
  93 0008 83F80221 		strb	r2, [r3, #258]
  93:.\protocol.c  ****     side.c.dir=0xff;
  94              		.loc 1 93 0
  95 000c 83F80422 		strb	r2, [r3, #516]
  94:.\protocol.c  ****     side.d.dir=0xff;
  96              		.loc 1 94 0
  97 0010 83F80623 		strb	r2, [r3, #774]
  98              	.LVL9:
  95:.\protocol.c  ****     for(x=1;x<=16;x++){
  99              		.loc 1 95 0
 100 0014 0124     		movs	r4, #1
 101 0016 54E0     		b	.L6
 102              	.LVL10:
 103              	.L11:
  96:.\protocol.c  ****         Pump_PutChar(x);
 104              		.loc 1 96 0
 105 0018 2046     		mov	r0, r4
 106 001a FFF7FEFF 		bl	Pump_PutChar
 107              	.LVL11:
  97:.\protocol.c  ****         CyDelay(100);           
 108              		.loc 1 97 0
 109 001e 6420     		movs	r0, #100
 110 0020 FFF7FEFF 		bl	CyDelay
 111              	.LVL12:
  98:.\protocol.c  ****         
  99:.\protocol.c  ****         if((Pump_GetRxBufferSize()>=1)&&(side.a.dir==0xff)){
 112              		.loc 1 99 0
 113 0024 FFF7FEFF 		bl	Pump_GetRxBufferSize
 114              	.LVL13:
 115 0028 38B1     		cbz	r0, .L7
 116              		.loc 1 99 0 is_stmt 0 discriminator 1
 117 002a 3C4B     		ldr	r3, .L20
 118 002c 1B78     		ldrb	r3, [r3]	@ zero_extendqisi2
 119 002e FF2B     		cmp	r3, #255
 120 0030 03D1     		bne	.L7
 100:.\protocol.c  ****            side.a.dir=x;	
 121              		.loc 1 100 0 is_stmt 1
 122 0032 3A4B     		ldr	r3, .L20
 123 0034 1C70     		strb	r4, [r3]
 101:.\protocol.c  ****            Pump_ClearRxBuffer();
 124              		.loc 1 101 0
 125 0036 FFF7FEFF 		bl	Pump_ClearRxBuffer
 126              	.LVL14:
 127              	.L7:
ARM GAS  C:\Users\RECEPC~1\AppData\Local\Temp\ccTEGtgN.s 			page 5


 102:.\protocol.c  ****         }
 103:.\protocol.c  ****         if((Pump_GetRxBufferSize()>=1)&&(x!=side.a.dir)&&(side.b.dir==0xff)){
 128              		.loc 1 103 0
 129 003a FFF7FEFF 		bl	Pump_GetRxBufferSize
 130              	.LVL15:
 131 003e 68B1     		cbz	r0, .L8
 132              		.loc 1 103 0 is_stmt 0 discriminator 1
 133 0040 364B     		ldr	r3, .L20
 134 0042 1B78     		ldrb	r3, [r3]	@ zero_extendqisi2
 135 0044 A342     		cmp	r3, r4
 136 0046 09D0     		beq	.L8
 137              		.loc 1 103 0 discriminator 2
 138 0048 344B     		ldr	r3, .L20
 139 004a 93F80231 		ldrb	r3, [r3, #258]	@ zero_extendqisi2
 140 004e FF2B     		cmp	r3, #255
 141 0050 04D1     		bne	.L8
 104:.\protocol.c  ****            side.b.dir=x;
 142              		.loc 1 104 0 is_stmt 1
 143 0052 324B     		ldr	r3, .L20
 144 0054 83F80241 		strb	r4, [r3, #258]
 105:.\protocol.c  ****            Pump_ClearRxBuffer();
 145              		.loc 1 105 0
 146 0058 FFF7FEFF 		bl	Pump_ClearRxBuffer
 147              	.LVL16:
 148              	.L8:
 106:.\protocol.c  ****         }
 107:.\protocol.c  ****         if((Pump_GetRxBufferSize()>=1)&&(x!=side.a.dir)&&(x!=side.b.dir)&&(side.c.dir==0xff)){
 149              		.loc 1 107 0
 150 005c FFF7FEFF 		bl	Pump_GetRxBufferSize
 151              	.LVL17:
 152 0060 90B1     		cbz	r0, .L9
 153              		.loc 1 107 0 is_stmt 0 discriminator 1
 154 0062 2E4B     		ldr	r3, .L20
 155 0064 1B78     		ldrb	r3, [r3]	@ zero_extendqisi2
 156 0066 A342     		cmp	r3, r4
 157 0068 0ED0     		beq	.L9
 158              		.loc 1 107 0 discriminator 2
 159 006a 2C4B     		ldr	r3, .L20
 160 006c 93F80231 		ldrb	r3, [r3, #258]	@ zero_extendqisi2
 161 0070 A342     		cmp	r3, r4
 162 0072 09D0     		beq	.L9
 163              		.loc 1 107 0 discriminator 3
 164 0074 294B     		ldr	r3, .L20
 165 0076 93F80432 		ldrb	r3, [r3, #516]	@ zero_extendqisi2
 166 007a FF2B     		cmp	r3, #255
 167 007c 04D1     		bne	.L9
 108:.\protocol.c  ****            side.c.dir=x;
 168              		.loc 1 108 0 is_stmt 1
 169 007e 274B     		ldr	r3, .L20
 170 0080 83F80442 		strb	r4, [r3, #516]
 109:.\protocol.c  ****            Pump_ClearRxBuffer();
 171              		.loc 1 109 0
 172 0084 FFF7FEFF 		bl	Pump_ClearRxBuffer
 173              	.LVL18:
 174              	.L9:
 110:.\protocol.c  ****         }
 111:.\protocol.c  ****         if((Pump_GetRxBufferSize()>=1)&&(x!=side.a.dir)&&(x!=side.b.dir)&&(x!=side.c.dir)&&(side.d.
ARM GAS  C:\Users\RECEPC~1\AppData\Local\Temp\ccTEGtgN.s 			page 6


 175              		.loc 1 111 0
 176 0088 FFF7FEFF 		bl	Pump_GetRxBufferSize
 177              	.LVL19:
 178 008c B8B1     		cbz	r0, .L10
 179              		.loc 1 111 0 is_stmt 0 discriminator 1
 180 008e 234B     		ldr	r3, .L20
 181 0090 1B78     		ldrb	r3, [r3]	@ zero_extendqisi2
 182 0092 A342     		cmp	r3, r4
 183 0094 13D0     		beq	.L10
 184              		.loc 1 111 0 discriminator 2
 185 0096 214B     		ldr	r3, .L20
 186 0098 93F80231 		ldrb	r3, [r3, #258]	@ zero_extendqisi2
 187 009c A342     		cmp	r3, r4
 188 009e 0ED0     		beq	.L10
 189              		.loc 1 111 0 discriminator 3
 190 00a0 1E4B     		ldr	r3, .L20
 191 00a2 93F80432 		ldrb	r3, [r3, #516]	@ zero_extendqisi2
 192 00a6 A342     		cmp	r3, r4
 193 00a8 09D0     		beq	.L10
 194              		.loc 1 111 0 discriminator 4
 195 00aa 1C4B     		ldr	r3, .L20
 196 00ac 93F80633 		ldrb	r3, [r3, #774]	@ zero_extendqisi2
 197 00b0 FF2B     		cmp	r3, #255
 198 00b2 04D1     		bne	.L10
 112:.\protocol.c  ****            side.d.dir=x;
 199              		.loc 1 112 0 is_stmt 1
 200 00b4 194B     		ldr	r3, .L20
 201 00b6 83F80643 		strb	r4, [r3, #774]
 113:.\protocol.c  ****            Pump_ClearRxBuffer();
 202              		.loc 1 113 0
 203 00ba FFF7FEFF 		bl	Pump_ClearRxBuffer
 204              	.LVL20:
 205              	.L10:
  95:.\protocol.c  ****         Pump_PutChar(x);
 206              		.loc 1 95 0 discriminator 2
 207 00be 0134     		adds	r4, r4, #1
 208              	.LVL21:
 209 00c0 E4B2     		uxtb	r4, r4
 210              	.LVL22:
 211              	.L6:
  95:.\protocol.c  ****         Pump_PutChar(x);
 212              		.loc 1 95 0 is_stmt 0 discriminator 1
 213 00c2 102C     		cmp	r4, #16
 214 00c4 A8D9     		bls	.L11
 114:.\protocol.c  ****         }
 115:.\protocol.c  ****                         
 116:.\protocol.c  ****     }
 117:.\protocol.c  ****     if((side.a.dir!=0xff)&&(side.b.dir!=0xff)&&(side.c.dir!=0xff)&&(side.d.dir!=0xff)){
 215              		.loc 1 117 0 is_stmt 1
 216 00c6 154B     		ldr	r3, .L20
 217 00c8 1B78     		ldrb	r3, [r3]	@ zero_extendqisi2
 218 00ca FF2B     		cmp	r3, #255
 219 00cc 0ED0     		beq	.L12
 220              		.loc 1 117 0 is_stmt 0 discriminator 1
 221 00ce 134A     		ldr	r2, .L20
 222 00d0 92F80221 		ldrb	r2, [r2, #258]	@ zero_extendqisi2
 223 00d4 FF2A     		cmp	r2, #255
ARM GAS  C:\Users\RECEPC~1\AppData\Local\Temp\ccTEGtgN.s 			page 7


 224 00d6 09D0     		beq	.L12
 225              		.loc 1 117 0 discriminator 2
 226 00d8 104A     		ldr	r2, .L20
 227 00da 92F80422 		ldrb	r2, [r2, #516]	@ zero_extendqisi2
 228 00de FF2A     		cmp	r2, #255
 229 00e0 04D0     		beq	.L12
 230              		.loc 1 117 0 discriminator 3
 231 00e2 0E4A     		ldr	r2, .L20
 232 00e4 92F80623 		ldrb	r2, [r2, #774]	@ zero_extendqisi2
 233 00e8 FF2A     		cmp	r2, #255
 234 00ea 0FD1     		bne	.L15
 235              	.L12:
 118:.\protocol.c  ****         return 4;
 119:.\protocol.c  ****     }
 120:.\protocol.c  ****     if((side.a.dir!=0xff)&&(side.b.dir!=0xff)){
 236              		.loc 1 120 0 is_stmt 1
 237 00ec FF2B     		cmp	r3, #255
 238 00ee 04D0     		beq	.L14
 239              		.loc 1 120 0 is_stmt 0 discriminator 1
 240 00f0 0A4A     		ldr	r2, .L20
 241 00f2 92F80221 		ldrb	r2, [r2, #258]	@ zero_extendqisi2
 242 00f6 FF2A     		cmp	r2, #255
 243 00f8 0AD1     		bne	.L16
 244              	.L14:
 121:.\protocol.c  ****         return 2;
 122:.\protocol.c  ****     }
 123:.\protocol.c  ****     else{
 124:.\protocol.c  ****         if((side.a.dir!=0xff)||(side.b.dir!=0xff)){
 245              		.loc 1 124 0 is_stmt 1
 246 00fa FF2B     		cmp	r3, #255
 247 00fc 0AD1     		bne	.L17
 248              		.loc 1 124 0 is_stmt 0 discriminator 1
 249 00fe 074B     		ldr	r3, .L20
 250 0100 93F80231 		ldrb	r3, [r3, #258]	@ zero_extendqisi2
 251 0104 FF2B     		cmp	r3, #255
 252 0106 07D0     		beq	.L18
 125:.\protocol.c  ****             return 1;
 253              		.loc 1 125 0 is_stmt 1
 254 0108 0120     		movs	r0, #1
 255 010a 10BD     		pop	{r4, pc}
 256              	.LVL23:
 257              	.L15:
 118:.\protocol.c  ****         return 4;
 258              		.loc 1 118 0
 259 010c 0420     		movs	r0, #4
 260 010e 10BD     		pop	{r4, pc}
 261              	.LVL24:
 262              	.L16:
 121:.\protocol.c  ****         return 2;
 263              		.loc 1 121 0
 264 0110 0220     		movs	r0, #2
 265 0112 10BD     		pop	{r4, pc}
 266              	.LVL25:
 267              	.L17:
 268              		.loc 1 125 0
 269 0114 0120     		movs	r0, #1
 270 0116 10BD     		pop	{r4, pc}
ARM GAS  C:\Users\RECEPC~1\AppData\Local\Temp\ccTEGtgN.s 			page 8


 271              	.LVL26:
 272              	.L18:
 126:.\protocol.c  ****         }
 127:.\protocol.c  ****         else{
 128:.\protocol.c  ****             return 0;
 273              		.loc 1 128 0
 274 0118 0020     		movs	r0, #0
 129:.\protocol.c  ****         }
 130:.\protocol.c  ****     }
 131:.\protocol.c  **** }
 275              		.loc 1 131 0
 276 011a 10BD     		pop	{r4, pc}
 277              	.LVL27:
 278              	.L21:
 279              		.align	2
 280              	.L20:
 281 011c 00000000 		.word	side
 282              		.cfi_endproc
 283              	.LFE64:
 284              		.size	get_position, .-get_position
 285              		.section	.text.PumpIsInValidState,"ax",%progbits
 286              		.align	2
 287              		.global	PumpIsInValidState
 288              		.thumb
 289              		.thumb_func
 290              		.type	PumpIsInValidState, %function
 291              	PumpIsInValidState:
 292              	.LFB67:
 132:.\protocol.c  **** 
 133:.\protocol.c  **** 
 134:.\protocol.c  **** 
 135:.\protocol.c  **** uint8 PumpCompleteConfiguration( uint8 side){   
 136:.\protocol.c  ****     uint8 state,x;
 137:.\protocol.c  ****     char8 SendComand[9];
 138:.\protocol.c  ****     char8 PumpDataReceive =0;    
 139:.\protocol.c  ****     
 140:.\protocol.c  ****     uint8 BufferSize = 0;
 141:.\protocol.c  **** ///////////////////////////////////////////////////////////////////////////////////////////////////
 142:.\protocol.c  ****     state = get_state(side);
 143:.\protocol.c  ****     if(state == 0x06){
 144:.\protocol.c  ****         Pump_PutChar(0x20|side);
 145:.\protocol.c  ****         CyDelay(50);
 146:.\protocol.c  ****         PumpDataReceive = Pump_ReadRxData();
 147:.\protocol.c  ****     }
 148:.\protocol.c  ****     Pump_ClearRxBuffer();
 149:.\protocol.c  ****     if(PumpDataReceive == (0xd0|side)){    
 150:.\protocol.c  ****         SendComand[0] = SOM; //Start Of Message    
 151:.\protocol.c  ****         SendComand[1] = (0xE9);//Data Length
 152:.\protocol.c  ****         SendComand[2] = (0xFE);//Special Functions Next (0xB0 0xB0 0xBE)
 153:.\protocol.c  ****         SendComand[3] = (0xEE);//Complete Pump Configuration Request (sf1)
 154:.\protocol.c  ****         SendComand[4] = (0xE0);//Complete Pump Configuration Request (sf2)
 155:.\protocol.c  ****         SendComand[5] = (0xE0);//Complete Pump Configuration Request (sf3)
 156:.\protocol.c  ****         SendComand[6] = (0xFB);
 157:.\protocol.c  ****         SendComand[7] = GetLRC(SendComand);
 158:.\protocol.c  ****         SendComand[8] = (EOM);
 159:.\protocol.c  ****         for(x=0; x<=8;x++){
 160:.\protocol.c  ****             Pump_PutChar(SendComand[x]);
ARM GAS  C:\Users\RECEPC~1\AppData\Local\Temp\ccTEGtgN.s 			page 9


 161:.\protocol.c  ****         } 
 162:.\protocol.c  ****         CyDelay(200);
 163:.\protocol.c  ****     }
 164:.\protocol.c  ****     BufferSize =Pump_GetRxBufferSize();
 165:.\protocol.c  ****     char8 buffer[BufferSize];
 166:.\protocol.c  ****     for(x=0;x<=BufferSize;x++){
 167:.\protocol.c  ****        buffer[x]=Pump_ReadRxData(); 
 168:.\protocol.c  ****     }
 169:.\protocol.c  ****     Pump_ClearRxBuffer();
 170:.\protocol.c  **** ///////////////////////////////////////////////////////////////////////////////////////////////////
 171:.\protocol.c  ****     UnitType            = buffer [10] &0x0F;
 172:.\protocol.c  ****     ConversionFactor    = buffer [12] &0x0F;
 173:.\protocol.c  ****     MoneyDec            = buffer [14] &0x0F;
 174:.\protocol.c  ****     VolDec              = buffer [16] &0x0F;
 175:.\protocol.c  ****     PPUDec              = buffer [18] &0x0F;
 176:.\protocol.c  ****     DDMode              = buffer [20] &0x0F;
 177:.\protocol.c  ****     
 178:.\protocol.c  ****     return 0;
 179:.\protocol.c  **** } 
 180:.\protocol.c  **** 
 181:.\protocol.c  **** uint8 PumpHoseActiveState(uint8 side){       
 182:.\protocol.c  ****     uint8 state,x;
 183:.\protocol.c  ****     char8 SendComand[9];
 184:.\protocol.c  ****     char8 PumpDataReceive =0;    
 185:.\protocol.c  ****     
 186:.\protocol.c  ****     uint8 BufferSize = 0;
 187:.\protocol.c  **** ///////////////////////////////////////////////////////////////////////////////////////////////////
 188:.\protocol.c  ****     state = get_state(side);
 189:.\protocol.c  ****     if(state == PUMP_IDLE || state == PUMP_CALLING){
 190:.\protocol.c  ****         Pump_PutChar(0x20|side);
 191:.\protocol.c  ****         CyDelay(50);
 192:.\protocol.c  ****         PumpDataReceive = Pump_ReadRxData();
 193:.\protocol.c  ****     }
 194:.\protocol.c  ****     Pump_ClearRxBuffer();
 195:.\protocol.c  ****     if(PumpDataReceive == (0xd0|side)){
 196:.\protocol.c  ****         SendComand[0] = SOM;//Start Of Message
 197:.\protocol.c  ****         SendComand[1] = 0xE9;//Data Length
 198:.\protocol.c  ****         SendComand[2] = 0xFE;//Special Functions Next (0xB0 0xB0 0xB6)
 199:.\protocol.c  ****         SendComand[3] = 0xE0;//Complete Pump Configuration Request (sf1)
 200:.\protocol.c  ****         SendComand[4] = 0xE1;//Complete Pump Configuration Request (sf2)
 201:.\protocol.c  ****         SendComand[5] = 0xE0;//Complete Pump Configuration Request (sf3)
 202:.\protocol.c  ****         SendComand[6] = 0xFB;
 203:.\protocol.c  ****         SendComand[7] = GetLRC(SendComand);
 204:.\protocol.c  ****         SendComand[8] = EOM;
 205:.\protocol.c  ****         for(x=0; x<=8;x++){
 206:.\protocol.c  ****             Pump_PutChar(SendComand[x]);
 207:.\protocol.c  ****         } 
 208:.\protocol.c  ****         if(UnitType > 0){
 209:.\protocol.c  ****             CyDelay(700);
 210:.\protocol.c  ****         }else{
 211:.\protocol.c  ****             CyDelay(200);
 212:.\protocol.c  ****         }
 213:.\protocol.c  ****     }    
 214:.\protocol.c  **** ///////////////////////////////////////////////////////////////////////////////////////////////////
 215:.\protocol.c  ****     BufferSize =Pump_GetRxBufferSize();
 216:.\protocol.c  ****     char8 buffer[BufferSize];
 217:.\protocol.c  ****     for(x=0;x<=BufferSize;x++){
ARM GAS  C:\Users\RECEPC~1\AppData\Local\Temp\ccTEGtgN.s 			page 10


 218:.\protocol.c  ****        buffer[x]=Pump_ReadRxData(); 
 219:.\protocol.c  ****     }
 220:.\protocol.c  ****     Pump_ClearRxBuffer();
 221:.\protocol.c  ****     if((buffer[0x0D] & 0x0F) == 0x01){
 222:.\protocol.c  ****         return (buffer[0x0E] & 0x0F);
 223:.\protocol.c  ****     }
 224:.\protocol.c  ****     
 225:.\protocol.c  ****     return 0;
 226:.\protocol.c  ****     
 227:.\protocol.c  **** }
 228:.\protocol.c  **** 
 229:.\protocol.c  **** 
 230:.\protocol.c  **** bool PumpIsInValidState(state)
 231:.\protocol.c  **** {
 293              		.loc 1 231 0
 294              		.cfi_startproc
 295              		@ args = 0, pretend = 0, frame = 0
 296              		@ frame_needed = 0, uses_anonymous_args = 0
 297              		@ link register save eliminated.
 298              	.LVL28:
 232:.\protocol.c  ****     bool retval = false;    
 233:.\protocol.c  ****     switch(state)
 299              		.loc 1 233 0
 300 0000 30B1     		cbz	r0, .L25
 301 0002 0028     		cmp	r0, #0
 302 0004 02DB     		blt	.L23
 303 0006 831F     		subs	r3, r0, #6
 304 0008 062B     		cmp	r3, #6
 305 000a 01D9     		bls	.L25
 306              	.L23:
 232:.\protocol.c  ****     bool retval = false;    
 307              		.loc 1 232 0
 308 000c 0020     		movs	r0, #0
 309              	.LVL29:
 310 000e 7047     		bx	lr
 311              	.LVL30:
 312              	.L25:
 234:.\protocol.c  ****     {
 235:.\protocol.c  ****         case PUMP_IDLE:
 236:.\protocol.c  ****         case PUMP_CALLING:
 237:.\protocol.c  ****         case PUMP_AUTHORIZED:
 238:.\protocol.c  ****         case PUMP_BUSY:
 239:.\protocol.c  ****         case PUMP_PEOT:
 240:.\protocol.c  ****         case PUMP_FEOT:
 241:.\protocol.c  ****         case PUMP_STOPPED:
 242:.\protocol.c  ****         case PUMP_FAIL:
 243:.\protocol.c  ****             retval = true;
 313              		.loc 1 243 0
 314 0010 0120     		movs	r0, #1
 315              	.LVL31:
 244:.\protocol.c  ****             break;
 245:.\protocol.c  ****     }
 246:.\protocol.c  ****     return retval;
 247:.\protocol.c  **** }
 316              		.loc 1 247 0
 317 0012 7047     		bx	lr
 318              		.cfi_endproc
ARM GAS  C:\Users\RECEPC~1\AppData\Local\Temp\ccTEGtgN.s 			page 11


 319              	.LFE67:
 320              		.size	PumpIsInValidState, .-PumpIsInValidState
 321              		.section	.text.GetLRC,"ax",%progbits
 322              		.align	2
 323              		.global	GetLRC
 324              		.thumb
 325              		.thumb_func
 326              		.type	GetLRC, %function
 327              	GetLRC:
 328              	.LFB68:
 248:.\protocol.c  **** 
 249:.\protocol.c  **** 
 250:.\protocol.c  **** 
 251:.\protocol.c  **** uint8_t GetLRC(char8 *_pbuffer)
 252:.\protocol.c  **** {
 329              		.loc 1 252 0
 330              		.cfi_startproc
 331              		@ args = 0, pretend = 0, frame = 0
 332              		@ frame_needed = 0, uses_anonymous_args = 0
 333              		@ link register save eliminated.
 334              	.LVL32:
 253:.\protocol.c  ****     uint8_t lrc = 0;
 335              		.loc 1 253 0
 336 0000 0021     		movs	r1, #0
 254:.\protocol.c  ****     while(*_pbuffer != 0xFB)
 337              		.loc 1 254 0
 338 0002 04E0     		b	.L27
 339              	.LVL33:
 340              	.L28:
 255:.\protocol.c  ****     {
 256:.\protocol.c  ****         lrc += (*_pbuffer & 0x0F);
 341              		.loc 1 256 0
 342 0004 03F00F03 		and	r3, r3, #15
 343 0008 0B44     		add	r3, r3, r1
 344 000a D9B2     		uxtb	r1, r3
 345              	.LVL34:
 257:.\protocol.c  ****         _pbuffer++;
 346              		.loc 1 257 0
 347 000c 0130     		adds	r0, r0, #1
 348              	.LVL35:
 349              	.L27:
 254:.\protocol.c  ****     while(*_pbuffer != 0xFB)
 350              		.loc 1 254 0
 351 000e 0378     		ldrb	r3, [r0]	@ zero_extendqisi2
 352 0010 FB2B     		cmp	r3, #251
 353 0012 F7D1     		bne	.L28
 258:.\protocol.c  ****     }
 259:.\protocol.c  ****     lrc += (*_pbuffer & 0x0F);
 354              		.loc 1 259 0
 355 0014 03F00F02 		and	r2, r3, #15
 356 0018 8818     		adds	r0, r1, r2
 357              	.LVL36:
 260:.\protocol.c  ****     return (((~lrc + 1) & 0x0F) | 0xE0);
 358              		.loc 1 260 0
 359 001a 4042     		negs	r0, r0
 360              	.LVL37:
 361 001c 00F00F00 		and	r0, r0, #15
ARM GAS  C:\Users\RECEPC~1\AppData\Local\Temp\ccTEGtgN.s 			page 12


 362              	.LVL38:
 261:.\protocol.c  **** }
 363              		.loc 1 261 0
 364 0020 40F0E000 		orr	r0, r0, #224
 365 0024 7047     		bx	lr
 366              		.cfi_endproc
 367              	.LFE68:
 368              		.size	GetLRC, .-GetLRC
 369 0026 00BF     		.section	.text.PumpCompleteConfiguration,"ax",%progbits
 370              		.align	2
 371              		.global	PumpCompleteConfiguration
 372              		.thumb
 373              		.thumb_func
 374              		.type	PumpCompleteConfiguration, %function
 375              	PumpCompleteConfiguration:
 376              	.LFB65:
 135:.\protocol.c  ****     uint8 state,x;
 377              		.loc 1 135 0
 378              		.cfi_startproc
 379              		@ args = 0, pretend = 0, frame = 16
 380              		@ frame_needed = 1, uses_anonymous_args = 0
 381              	.LVL39:
 382 0000 F0B5     		push	{r4, r5, r6, r7, lr}
 383              		.cfi_def_cfa_offset 20
 384              		.cfi_offset 4, -20
 385              		.cfi_offset 5, -16
 386              		.cfi_offset 6, -12
 387              		.cfi_offset 7, -8
 388              		.cfi_offset 14, -4
 389 0002 85B0     		sub	sp, sp, #20
 390              		.cfi_def_cfa_offset 40
 391 0004 00AF     		add	r7, sp, #0
 392              		.cfi_def_cfa_register 7
 393 0006 0446     		mov	r4, r0
 394              	.LVL40:
 142:.\protocol.c  ****     if(state == 0x06){
 395              		.loc 1 142 0
 396 0008 FFF7FEFF 		bl	get_state
 397              	.LVL41:
 143:.\protocol.c  ****         Pump_PutChar(0x20|side);
 398              		.loc 1 143 0
 399 000c 0628     		cmp	r0, #6
 400 000e 0AD1     		bne	.L36
 144:.\protocol.c  ****         CyDelay(50);
 401              		.loc 1 144 0
 402 0010 44F02000 		orr	r0, r4, #32
 403              	.LVL42:
 404 0014 FFF7FEFF 		bl	Pump_PutChar
 405              	.LVL43:
 145:.\protocol.c  ****         PumpDataReceive = Pump_ReadRxData();
 406              		.loc 1 145 0
 407 0018 3220     		movs	r0, #50
 408 001a FFF7FEFF 		bl	CyDelay
 409              	.LVL44:
 146:.\protocol.c  ****     }
 410              		.loc 1 146 0
 411 001e FFF7FEFF 		bl	Pump_ReadRxData
ARM GAS  C:\Users\RECEPC~1\AppData\Local\Temp\ccTEGtgN.s 			page 13


 412              	.LVL45:
 413 0022 0546     		mov	r5, r0
 414              	.LVL46:
 415 0024 00E0     		b	.L30
 416              	.LVL47:
 417              	.L36:
 138:.\protocol.c  ****     
 418              		.loc 1 138 0
 419 0026 0025     		movs	r5, #0
 420              	.LVL48:
 421              	.L30:
 148:.\protocol.c  ****     if(PumpDataReceive == (0xd0|side)){    
 422              		.loc 1 148 0
 423 0028 FFF7FEFF 		bl	Pump_ClearRxBuffer
 424              	.LVL49:
 149:.\protocol.c  ****         SendComand[0] = SOM; //Start Of Message    
 425              		.loc 1 149 0
 426 002c 44F0D004 		orr	r4, r4, #208
 427 0030 AC42     		cmp	r4, r5
 428 0032 22D1     		bne	.L31
 150:.\protocol.c  ****         SendComand[1] = (0xE9);//Data Length
 429              		.loc 1 150 0
 430 0034 FF23     		movs	r3, #255
 431 0036 3B71     		strb	r3, [r7, #4]
 151:.\protocol.c  ****         SendComand[2] = (0xFE);//Special Functions Next (0xB0 0xB0 0xBE)
 432              		.loc 1 151 0
 433 0038 E923     		movs	r3, #233
 434 003a 7B71     		strb	r3, [r7, #5]
 152:.\protocol.c  ****         SendComand[3] = (0xEE);//Complete Pump Configuration Request (sf1)
 435              		.loc 1 152 0
 436 003c FE23     		movs	r3, #254
 437 003e BB71     		strb	r3, [r7, #6]
 153:.\protocol.c  ****         SendComand[4] = (0xE0);//Complete Pump Configuration Request (sf2)
 438              		.loc 1 153 0
 439 0040 EE23     		movs	r3, #238
 440 0042 FB71     		strb	r3, [r7, #7]
 154:.\protocol.c  ****         SendComand[5] = (0xE0);//Complete Pump Configuration Request (sf3)
 441              		.loc 1 154 0
 442 0044 E023     		movs	r3, #224
 443 0046 3B72     		strb	r3, [r7, #8]
 155:.\protocol.c  ****         SendComand[6] = (0xFB);
 444              		.loc 1 155 0
 445 0048 7B72     		strb	r3, [r7, #9]
 156:.\protocol.c  ****         SendComand[7] = GetLRC(SendComand);
 446              		.loc 1 156 0
 447 004a FB23     		movs	r3, #251
 448 004c BB72     		strb	r3, [r7, #10]
 157:.\protocol.c  ****         SendComand[8] = (EOM);
 449              		.loc 1 157 0
 450 004e 381D     		adds	r0, r7, #4
 451 0050 FFF7FEFF 		bl	GetLRC
 452              	.LVL50:
 453 0054 F872     		strb	r0, [r7, #11]
 158:.\protocol.c  ****         for(x=0; x<=8;x++){
 454              		.loc 1 158 0
 455 0056 F023     		movs	r3, #240
 456 0058 3B73     		strb	r3, [r7, #12]
ARM GAS  C:\Users\RECEPC~1\AppData\Local\Temp\ccTEGtgN.s 			page 14


 457              	.LVL51:
 159:.\protocol.c  ****             Pump_PutChar(SendComand[x]);
 458              		.loc 1 159 0
 459 005a 0024     		movs	r4, #0
 460 005c 08E0     		b	.L32
 461              	.LVL52:
 462              	.L33:
 160:.\protocol.c  ****         } 
 463              		.loc 1 160 0 discriminator 3
 464 005e 07F11003 		add	r3, r7, #16
 465 0062 2344     		add	r3, r3, r4
 466 0064 13F80C0C 		ldrb	r0, [r3, #-12]	@ zero_extendqisi2
 467 0068 FFF7FEFF 		bl	Pump_PutChar
 468              	.LVL53:
 159:.\protocol.c  ****             Pump_PutChar(SendComand[x]);
 469              		.loc 1 159 0 discriminator 3
 470 006c 0134     		adds	r4, r4, #1
 471              	.LVL54:
 472 006e E4B2     		uxtb	r4, r4
 473              	.LVL55:
 474              	.L32:
 159:.\protocol.c  ****             Pump_PutChar(SendComand[x]);
 475              		.loc 1 159 0 is_stmt 0 discriminator 1
 476 0070 082C     		cmp	r4, #8
 477 0072 F4D9     		bls	.L33
 162:.\protocol.c  ****     }
 478              		.loc 1 162 0 is_stmt 1
 479 0074 C820     		movs	r0, #200
 480 0076 FFF7FEFF 		bl	CyDelay
 481              	.LVL56:
 482              	.L31:
 164:.\protocol.c  ****     char8 buffer[BufferSize];
 483              		.loc 1 164 0
 484 007a FFF7FEFF 		bl	Pump_GetRxBufferSize
 485              	.LVL57:
 486 007e C6B2     		uxtb	r6, r0
 487              	.LVL58:
 165:.\protocol.c  ****     for(x=0;x<=BufferSize;x++){
 488              		.loc 1 165 0
 489 0080 F31D     		adds	r3, r6, #7
 490 0082 23F00703 		bic	r3, r3, #7
 491 0086 ADEB030D 		sub	sp, sp, r3
 492 008a 6D46     		mov	r5, sp
 493              	.LVL59:
 166:.\protocol.c  ****        buffer[x]=Pump_ReadRxData(); 
 494              		.loc 1 166 0
 495 008c 0024     		movs	r4, #0
 496 008e 04E0     		b	.L34
 497              	.LVL60:
 498              	.L35:
 167:.\protocol.c  ****     }
 499              		.loc 1 167 0 discriminator 3
 500 0090 FFF7FEFF 		bl	Pump_ReadRxData
 501              	.LVL61:
 502 0094 2855     		strb	r0, [r5, r4]
 166:.\protocol.c  ****        buffer[x]=Pump_ReadRxData(); 
 503              		.loc 1 166 0 discriminator 3
ARM GAS  C:\Users\RECEPC~1\AppData\Local\Temp\ccTEGtgN.s 			page 15


 504 0096 0134     		adds	r4, r4, #1
 505              	.LVL62:
 506 0098 E4B2     		uxtb	r4, r4
 507              	.LVL63:
 508              	.L34:
 166:.\protocol.c  ****        buffer[x]=Pump_ReadRxData(); 
 509              		.loc 1 166 0 is_stmt 0 discriminator 1
 510 009a B442     		cmp	r4, r6
 511 009c F8D9     		bls	.L35
 169:.\protocol.c  **** ///////////////////////////////////////////////////////////////////////////////////////////////////
 512              		.loc 1 169 0 is_stmt 1
 513 009e FFF7FEFF 		bl	Pump_ClearRxBuffer
 514              	.LVL64:
 171:.\protocol.c  ****     ConversionFactor    = buffer [12] &0x0F;
 515              		.loc 1 171 0
 516 00a2 AB7A     		ldrb	r3, [r5, #10]	@ zero_extendqisi2
 517 00a4 03F00F03 		and	r3, r3, #15
 518 00a8 0F4A     		ldr	r2, .L38
 519 00aa 1370     		strb	r3, [r2]
 172:.\protocol.c  ****     MoneyDec            = buffer [14] &0x0F;
 520              		.loc 1 172 0
 521 00ac 2B7B     		ldrb	r3, [r5, #12]	@ zero_extendqisi2
 522 00ae 03F00F03 		and	r3, r3, #15
 523 00b2 0E4A     		ldr	r2, .L38+4
 524 00b4 1370     		strb	r3, [r2]
 173:.\protocol.c  ****     VolDec              = buffer [16] &0x0F;
 525              		.loc 1 173 0
 526 00b6 AB7B     		ldrb	r3, [r5, #14]	@ zero_extendqisi2
 527 00b8 03F00F03 		and	r3, r3, #15
 528 00bc 0C4A     		ldr	r2, .L38+8
 529 00be 1370     		strb	r3, [r2]
 174:.\protocol.c  ****     PPUDec              = buffer [18] &0x0F;
 530              		.loc 1 174 0
 531 00c0 2B7C     		ldrb	r3, [r5, #16]	@ zero_extendqisi2
 532 00c2 03F00F03 		and	r3, r3, #15
 533 00c6 0B4A     		ldr	r2, .L38+12
 534 00c8 1370     		strb	r3, [r2]
 175:.\protocol.c  ****     DDMode              = buffer [20] &0x0F;
 535              		.loc 1 175 0
 536 00ca AB7C     		ldrb	r3, [r5, #18]	@ zero_extendqisi2
 537 00cc 03F00F03 		and	r3, r3, #15
 538 00d0 094A     		ldr	r2, .L38+16
 539 00d2 1370     		strb	r3, [r2]
 176:.\protocol.c  ****     
 540              		.loc 1 176 0
 541 00d4 2B7D     		ldrb	r3, [r5, #20]	@ zero_extendqisi2
 542 00d6 03F00F03 		and	r3, r3, #15
 543 00da 084A     		ldr	r2, .L38+20
 544 00dc 1370     		strb	r3, [r2]
 179:.\protocol.c  **** 
 545              		.loc 1 179 0
 546 00de 0020     		movs	r0, #0
 547 00e0 1437     		adds	r7, r7, #20
 548              		.cfi_def_cfa_offset 20
 549 00e2 BD46     		mov	sp, r7
 550              		.cfi_def_cfa_register 13
 551              		@ sp needed
ARM GAS  C:\Users\RECEPC~1\AppData\Local\Temp\ccTEGtgN.s 			page 16


 552 00e4 F0BD     		pop	{r4, r5, r6, r7, pc}
 553              	.LVL65:
 554              	.L39:
 555 00e6 00BF     		.align	2
 556              	.L38:
 557 00e8 00000000 		.word	UnitType
 558 00ec 00000000 		.word	ConversionFactor
 559 00f0 00000000 		.word	MoneyDec
 560 00f4 00000000 		.word	VolDec
 561 00f8 00000000 		.word	PPUDec
 562 00fc 00000000 		.word	DDMode
 563              		.cfi_endproc
 564              	.LFE65:
 565              		.size	PumpCompleteConfiguration, .-PumpCompleteConfiguration
 566              		.section	.text.PumpHoseActiveState,"ax",%progbits
 567              		.align	2
 568              		.global	PumpHoseActiveState
 569              		.thumb
 570              		.thumb_func
 571              		.type	PumpHoseActiveState, %function
 572              	PumpHoseActiveState:
 573              	.LFB66:
 181:.\protocol.c  ****     uint8 state,x;
 574              		.loc 1 181 0
 575              		.cfi_startproc
 576              		@ args = 0, pretend = 0, frame = 16
 577              		@ frame_needed = 1, uses_anonymous_args = 0
 578              	.LVL66:
 579 0000 F0B5     		push	{r4, r5, r6, r7, lr}
 580              		.cfi_def_cfa_offset 20
 581              		.cfi_offset 4, -20
 582              		.cfi_offset 5, -16
 583              		.cfi_offset 6, -12
 584              		.cfi_offset 7, -8
 585              		.cfi_offset 14, -4
 586 0002 85B0     		sub	sp, sp, #20
 587              		.cfi_def_cfa_offset 40
 588 0004 00AF     		add	r7, sp, #0
 589              		.cfi_def_cfa_register 7
 590 0006 0446     		mov	r4, r0
 591              	.LVL67:
 188:.\protocol.c  ****     if(state == PUMP_IDLE || state == PUMP_CALLING){
 592              		.loc 1 188 0
 593 0008 FFF7FEFF 		bl	get_state
 594              	.LVL68:
 189:.\protocol.c  ****         Pump_PutChar(0x20|side);
 595              		.loc 1 189 0
 596 000c 0638     		subs	r0, r0, #6
 597              	.LVL69:
 598 000e C0B2     		uxtb	r0, r0
 599 0010 0128     		cmp	r0, #1
 600 0012 0AD8     		bhi	.L49
 190:.\protocol.c  ****         CyDelay(50);
 601              		.loc 1 190 0
 602 0014 44F02000 		orr	r0, r4, #32
 603 0018 FFF7FEFF 		bl	Pump_PutChar
 604              	.LVL70:
ARM GAS  C:\Users\RECEPC~1\AppData\Local\Temp\ccTEGtgN.s 			page 17


 191:.\protocol.c  ****         PumpDataReceive = Pump_ReadRxData();
 605              		.loc 1 191 0
 606 001c 3220     		movs	r0, #50
 607 001e FFF7FEFF 		bl	CyDelay
 608              	.LVL71:
 192:.\protocol.c  ****     }
 609              		.loc 1 192 0
 610 0022 FFF7FEFF 		bl	Pump_ReadRxData
 611              	.LVL72:
 612 0026 0546     		mov	r5, r0
 613              	.LVL73:
 614 0028 00E0     		b	.L41
 615              	.LVL74:
 616              	.L49:
 184:.\protocol.c  ****     
 617              		.loc 1 184 0
 618 002a 0025     		movs	r5, #0
 619              	.LVL75:
 620              	.L41:
 194:.\protocol.c  ****     if(PumpDataReceive == (0xd0|side)){
 621              		.loc 1 194 0
 622 002c FFF7FEFF 		bl	Pump_ClearRxBuffer
 623              	.LVL76:
 195:.\protocol.c  ****         SendComand[0] = SOM;//Start Of Message
 624              		.loc 1 195 0
 625 0030 44F0D004 		orr	r4, r4, #208
 626 0034 AC42     		cmp	r4, r5
 627 0036 2AD1     		bne	.L42
 196:.\protocol.c  ****         SendComand[1] = 0xE9;//Data Length
 628              		.loc 1 196 0
 629 0038 FF23     		movs	r3, #255
 630 003a 3B71     		strb	r3, [r7, #4]
 197:.\protocol.c  ****         SendComand[2] = 0xFE;//Special Functions Next (0xB0 0xB0 0xB6)
 631              		.loc 1 197 0
 632 003c E923     		movs	r3, #233
 633 003e 7B71     		strb	r3, [r7, #5]
 198:.\protocol.c  ****         SendComand[3] = 0xE0;//Complete Pump Configuration Request (sf1)
 634              		.loc 1 198 0
 635 0040 FE23     		movs	r3, #254
 636 0042 BB71     		strb	r3, [r7, #6]
 199:.\protocol.c  ****         SendComand[4] = 0xE1;//Complete Pump Configuration Request (sf2)
 637              		.loc 1 199 0
 638 0044 E023     		movs	r3, #224
 639 0046 FB71     		strb	r3, [r7, #7]
 200:.\protocol.c  ****         SendComand[5] = 0xE0;//Complete Pump Configuration Request (sf3)
 640              		.loc 1 200 0
 641 0048 E122     		movs	r2, #225
 642 004a 3A72     		strb	r2, [r7, #8]
 201:.\protocol.c  ****         SendComand[6] = 0xFB;
 643              		.loc 1 201 0
 644 004c 7B72     		strb	r3, [r7, #9]
 202:.\protocol.c  ****         SendComand[7] = GetLRC(SendComand);
 645              		.loc 1 202 0
 646 004e FB23     		movs	r3, #251
 647 0050 BB72     		strb	r3, [r7, #10]
 203:.\protocol.c  ****         SendComand[8] = EOM;
 648              		.loc 1 203 0
ARM GAS  C:\Users\RECEPC~1\AppData\Local\Temp\ccTEGtgN.s 			page 18


 649 0052 381D     		adds	r0, r7, #4
 650 0054 FFF7FEFF 		bl	GetLRC
 651              	.LVL77:
 652 0058 F872     		strb	r0, [r7, #11]
 204:.\protocol.c  ****         for(x=0; x<=8;x++){
 653              		.loc 1 204 0
 654 005a F023     		movs	r3, #240
 655 005c 3B73     		strb	r3, [r7, #12]
 656              	.LVL78:
 205:.\protocol.c  ****             Pump_PutChar(SendComand[x]);
 657              		.loc 1 205 0
 658 005e 0024     		movs	r4, #0
 659 0060 08E0     		b	.L43
 660              	.LVL79:
 661              	.L44:
 206:.\protocol.c  ****         } 
 662              		.loc 1 206 0 discriminator 3
 663 0062 07F11003 		add	r3, r7, #16
 664 0066 2344     		add	r3, r3, r4
 665 0068 13F80C0C 		ldrb	r0, [r3, #-12]	@ zero_extendqisi2
 666 006c FFF7FEFF 		bl	Pump_PutChar
 667              	.LVL80:
 205:.\protocol.c  ****             Pump_PutChar(SendComand[x]);
 668              		.loc 1 205 0 discriminator 3
 669 0070 0134     		adds	r4, r4, #1
 670              	.LVL81:
 671 0072 E4B2     		uxtb	r4, r4
 672              	.LVL82:
 673              	.L43:
 205:.\protocol.c  ****             Pump_PutChar(SendComand[x]);
 674              		.loc 1 205 0 is_stmt 0 discriminator 1
 675 0074 082C     		cmp	r4, #8
 676 0076 F4D9     		bls	.L44
 208:.\protocol.c  ****             CyDelay(700);
 677              		.loc 1 208 0 is_stmt 1
 678 0078 154B     		ldr	r3, .L52
 679 007a 1B78     		ldrb	r3, [r3]	@ zero_extendqisi2
 680 007c 23B1     		cbz	r3, .L45
 209:.\protocol.c  ****         }else{
 681              		.loc 1 209 0
 682 007e 4FF42F70 		mov	r0, #700
 683 0082 FFF7FEFF 		bl	CyDelay
 684              	.LVL83:
 685 0086 02E0     		b	.L42
 686              	.L45:
 211:.\protocol.c  ****         }
 687              		.loc 1 211 0
 688 0088 C820     		movs	r0, #200
 689 008a FFF7FEFF 		bl	CyDelay
 690              	.LVL84:
 691              	.L42:
 215:.\protocol.c  ****     char8 buffer[BufferSize];
 692              		.loc 1 215 0
 693 008e FFF7FEFF 		bl	Pump_GetRxBufferSize
 694              	.LVL85:
 695 0092 C5B2     		uxtb	r5, r0
 696              	.LVL86:
ARM GAS  C:\Users\RECEPC~1\AppData\Local\Temp\ccTEGtgN.s 			page 19


 216:.\protocol.c  ****     for(x=0;x<=BufferSize;x++){
 697              		.loc 1 216 0
 698 0094 EB1D     		adds	r3, r5, #7
 699 0096 23F00703 		bic	r3, r3, #7
 700 009a ADEB030D 		sub	sp, sp, r3
 701 009e 6E46     		mov	r6, sp
 702              	.LVL87:
 217:.\protocol.c  ****        buffer[x]=Pump_ReadRxData(); 
 703              		.loc 1 217 0
 704 00a0 0024     		movs	r4, #0
 705 00a2 04E0     		b	.L46
 706              	.LVL88:
 707              	.L47:
 218:.\protocol.c  ****     }
 708              		.loc 1 218 0 discriminator 3
 709 00a4 FFF7FEFF 		bl	Pump_ReadRxData
 710              	.LVL89:
 711 00a8 3055     		strb	r0, [r6, r4]
 217:.\protocol.c  ****        buffer[x]=Pump_ReadRxData(); 
 712              		.loc 1 217 0 discriminator 3
 713 00aa 0134     		adds	r4, r4, #1
 714              	.LVL90:
 715 00ac E4B2     		uxtb	r4, r4
 716              	.LVL91:
 717              	.L46:
 217:.\protocol.c  ****        buffer[x]=Pump_ReadRxData(); 
 718              		.loc 1 217 0 is_stmt 0 discriminator 1
 719 00ae AC42     		cmp	r4, r5
 720 00b0 F8D9     		bls	.L47
 220:.\protocol.c  ****     if((buffer[0x0D] & 0x0F) == 0x01){
 721              		.loc 1 220 0 is_stmt 1
 722 00b2 FFF7FEFF 		bl	Pump_ClearRxBuffer
 723              	.LVL92:
 221:.\protocol.c  ****         return (buffer[0x0E] & 0x0F);
 724              		.loc 1 221 0
 725 00b6 737B     		ldrb	r3, [r6, #13]	@ zero_extendqisi2
 726 00b8 03F00F03 		and	r3, r3, #15
 727 00bc 012B     		cmp	r3, #1
 728 00be 03D1     		bne	.L50
 222:.\protocol.c  ****     }
 729              		.loc 1 222 0
 730 00c0 B07B     		ldrb	r0, [r6, #14]	@ zero_extendqisi2
 731 00c2 00F00F00 		and	r0, r0, #15
 732 00c6 00E0     		b	.L48
 733              	.L50:
 225:.\protocol.c  ****     
 734              		.loc 1 225 0
 735 00c8 0020     		movs	r0, #0
 736              	.L48:
 227:.\protocol.c  **** 
 737              		.loc 1 227 0
 738 00ca 1437     		adds	r7, r7, #20
 739              		.cfi_def_cfa_offset 20
 740 00cc BD46     		mov	sp, r7
 741              		.cfi_def_cfa_register 13
 742              		@ sp needed
 743 00ce F0BD     		pop	{r4, r5, r6, r7, pc}
ARM GAS  C:\Users\RECEPC~1\AppData\Local\Temp\ccTEGtgN.s 			page 20


 744              	.LVL93:
 745              	.L53:
 746              		.align	2
 747              	.L52:
 748 00d0 00000000 		.word	UnitType
 749              		.cfi_endproc
 750              	.LFE66:
 751              		.size	PumpHoseActiveState, .-PumpHoseActiveState
 752              		.comm	side,1032,4
 753              		.comm	bufferDisplay4,661,4
 754              		.comm	bufferDisplay3,661,4
 755              		.comm	bufferDisplay2,661,4
 756              		.comm	bufferDisplay1,661,4
 757              		.comm	NumPositions,1,1
 758              		.comm	statePump,4,4
 759              		.comm	DDMode,1,1
 760              		.comm	PPUDec,1,1
 761              		.comm	VolDec,1,1
 762              		.comm	MoneyDec,1,1
 763              		.comm	ConversionFactor,1,1
 764              		.comm	UnitType,1,1
 765              		.comm	PlateRequest,1,1
 766              		.comm	PrevStatePump,4,4
 767              		.comm	stateBeagleSoft,1,1
 768              		.comm	flagResetMux,1,1
 769              		.comm	passwordSeller,8,4
 770              		.comm	typeIdSeller,1,1
 771              		.comm	idSeller,25,4
 772              		.comm	lockTurn,1,1
 773              		.comm	turn,1,1
 774              		.comm	temporal,30,4
 775              		.comm	residue,14,4
 776              		.comm	screen,2,4
 777              		.comm	date,3,4
 778              		.comm	time,3,4
 779              		.comm	symbols,2,4
 780              		.comm	decimalVolume,1,1
 781              		.comm	decimalMoney,1,1
 782              		.comm	ppux10,1,1
 783              		.comm	delayPicture2,4,4
 784              		.comm	delayPicture1,4,4
 785              		.comm	presetFast,30,4
 786              		.comm	productNumber,1,1
 787              		.comm	button,960,4
 788              		.comm	flagPoint2,1,1
 789              		.comm	flagPoint1,1,1
 790              		.comm	numberKeys2,1,1
 791              		.comm	numberKeys1,1,1
 792              		.comm	ipAdress,12,4
 793              		.comm	digits,1,1
 794              		.comm	flowDisplay4,4,4
 795              		.comm	flowDisplay3,4,4
 796              		.comm	flowDisplay2,4,4
 797              		.comm	flowDisplay1,4,4
 798              		.comm	countPump,8,8
 799              		.comm	countBeagleTX,8,8
 800              		.comm	countAnimation2,8,8
ARM GAS  C:\Users\RECEPC~1\AppData\Local\Temp\ccTEGtgN.s 			page 21


 801              		.comm	countAnimation1,8,8
 802              		.text
 803              	.Letext0:
 804              		.file 2 "c:\\program files (x86)\\cypress\\psoc creator\\3.3\\psoc creator\\import\\gnu\\arm\\4.9.
 805              		.file 3 "c:\\program files (x86)\\cypress\\psoc creator\\3.3\\psoc creator\\import\\gnu\\arm\\4.9.
 806              		.file 4 "Generated_Source\\PSoC5/cytypes.h"
 807              		.file 5 "./variables.h"
 808              		.file 6 "Generated_Source\\PSoC5/core_cm3.h"
 809              		.file 7 "Generated_Source\\PSoC5/Pump.h"
 810              		.file 8 "Generated_Source\\PSoC5/CyLib.h"