ARM GAS  C:\Users\RECEPC~1\AppData\Local\Temp\ccnklw4g.s 			page 1


   1              		.syntax unified
   2              		.cpu cortex-m3
   3              		.fpu softvfp
   4              		.eabi_attribute 20, 1
   5              		.eabi_attribute 21, 1
   6              		.eabi_attribute 23, 3
   7              		.eabi_attribute 24, 1
   8              		.eabi_attribute 25, 1
   9              		.eabi_attribute 26, 1
  10              		.eabi_attribute 30, 1
  11              		.eabi_attribute 34, 1
  12              		.eabi_attribute 18, 4
  13              		.thumb
  14              		.file	"protocol.c"
  15              		.text
  16              	.Ltext0:
  17              		.cfi_sections	.debug_frame
  18              		.section	.text.get_state,"ax",%progbits
  19              		.align	2
  20              		.global	get_state
  21              		.thumb
  22              		.thumb_func
  23              		.type	get_state, %function
  24              	get_state:
  25              	.LFB63:
  26              		.file 1 ".\\protocol.c"
   1:.\protocol.c  **** /*
   2:.\protocol.c  **** ***************************************************************************************************
   3:.\protocol.c  **** *                                         MUX ADVANCE CODE
   4:.\protocol.c  **** *
   5:.\protocol.c  **** *                             (c) Copyright 2016; Sistemas Insepet LTDA
   6:.\protocol.c  **** *
   7:.\protocol.c  **** *               All rights reserved.  Protected by international copyright laws.
   8:.\protocol.c  **** *               Knowledge of the source code may NOT be used to develop a similar product.
   9:.\protocol.c  **** *               Please help us continue to provide the Embedded community with the finest
  10:.\protocol.c  **** *               software available.  Your honesty is greatly appreciated.
  11:.\protocol.c  **** ***************************************************************************************************
  12:.\protocol.c  **** */
  13:.\protocol.c  **** 
  14:.\protocol.c  **** /*
  15:.\protocol.c  **** ***************************************************************************************************
  16:.\protocol.c  **** *
  17:.\protocol.c  **** *                                             MUX ADVANCE CODE
  18:.\protocol.c  **** *
  19:.\protocol.c  **** *                                             CYPRESS PSoC5LP
  20:.\protocol.c  **** *                                                with the
  21:.\protocol.c  **** *                                            CY8C5969AXI-LP035
  22:.\protocol.c  **** *
  23:.\protocol.c  **** * Filename      : protocol.c
  24:.\protocol.c  **** * Version       : V1.00
  25:.\protocol.c  **** * Programmer(s) : 
  26:.\protocol.c  ****                   
  27:.\protocol.c  **** ***************************************************************************************************
  28:.\protocol.c  **** */
  29:.\protocol.c  **** 
  30:.\protocol.c  **** 
  31:.\protocol.c  **** /*
ARM GAS  C:\Users\RECEPC~1\AppData\Local\Temp\ccnklw4g.s 			page 2


  32:.\protocol.c  **** ***************************************************************************************************
  33:.\protocol.c  **** *                                             INCLUDE FILES
  34:.\protocol.c  **** ***************************************************************************************************
  35:.\protocol.c  **** */
  36:.\protocol.c  **** #include <device.h>
  37:.\protocol.c  **** #include <variables.h>
  38:.\protocol.c  **** #include <stdbool.h>
  39:.\protocol.c  **** #include <stdio.h>
  40:.\protocol.c  **** #include <stdlib.h>
  41:.\protocol.c  **** #include <string.h>
  42:.\protocol.c  **** uint8_t GetLRC(char8 *_pbuffer);
  43:.\protocol.c  **** /*
  44:.\protocol.c  **** ***************************************************************************************************
  45:.\protocol.c  **** *                                    uint8 get_state(uint8 pos)
  46:.\protocol.c  **** *
  47:.\protocol.c  **** * Description : 
  48:.\protocol.c  **** *               
  49:.\protocol.c  **** *
  50:.\protocol.c  **** * Argument(s) : none
  51:.\protocol.c  **** *
  52:.\protocol.c  **** * Return(s)   : none
  53:.\protocol.c  **** *
  54:.\protocol.c  **** * Caller(s)   : 
  55:.\protocol.c  **** *
  56:.\protocol.c  **** * Note(s)     : none.
  57:.\protocol.c  **** ***************************************************************************************************
  58:.\protocol.c  **** */
  59:.\protocol.c  **** 
  60:.\protocol.c  **** uint8 get_state(uint8 pos){
  27              		.loc 1 60 0
  28              		.cfi_startproc
  29              		@ args = 0, pretend = 0, frame = 0
  30              		@ frame_needed = 0, uses_anonymous_args = 0
  31              	.LVL0:
  32 0000 10B5     		push	{r4, lr}
  33              		.cfi_def_cfa_offset 8
  34              		.cfi_offset 4, -8
  35              		.cfi_offset 14, -4
  36 0002 0446     		mov	r4, r0
  61:.\protocol.c  ****     uint8 state;
  62:.\protocol.c  ****     Pump_ClearRxBuffer();
  37              		.loc 1 62 0
  38 0004 FFF7FEFF 		bl	Pump_ClearRxBuffer
  39              	.LVL1:
  63:.\protocol.c  ****     Pump_PutChar(pos);
  40              		.loc 1 63 0
  41 0008 2046     		mov	r0, r4
  42 000a FFF7FEFF 		bl	Pump_PutChar
  43              	.LVL2:
  64:.\protocol.c  ****     CyDelay(60);
  44              		.loc 1 64 0
  45 000e 3C20     		movs	r0, #60
  46 0010 FFF7FEFF 		bl	CyDelay
  47              	.LVL3:
  65:.\protocol.c  ****     if(Pump_GetRxBufferSize()>=1){
  48              		.loc 1 65 0
  49 0014 FFF7FEFF 		bl	Pump_GetRxBufferSize
ARM GAS  C:\Users\RECEPC~1\AppData\Local\Temp\ccnklw4g.s 			page 3


  50              	.LVL4:
  51 0018 38B1     		cbz	r0, .L3
  66:.\protocol.c  ****         state=(Pump_ReadRxData()&0xF0)>>4;
  52              		.loc 1 66 0
  53 001a FFF7FEFF 		bl	Pump_ReadRxData
  54              	.LVL5:
  55 001e C0F30714 		ubfx	r4, r0, #4, #8
  56              	.LVL6:
  67:.\protocol.c  ****         //state = Pump_ReadRxData();
  68:.\protocol.c  ****         Pump_ClearRxBuffer();
  57              		.loc 1 68 0
  58 0022 FFF7FEFF 		bl	Pump_ClearRxBuffer
  59              	.LVL7:
  69:.\protocol.c  ****         return state;
  60              		.loc 1 69 0
  61 0026 2046     		mov	r0, r4
  62 0028 10BD     		pop	{r4, pc}
  63              	.LVL8:
  64              	.L3:
  70:.\protocol.c  ****     }
  71:.\protocol.c  ****     else{
  72:.\protocol.c  ****         return 0;
  65              		.loc 1 72 0
  66 002a 0020     		movs	r0, #0
  73:.\protocol.c  ****     }
  74:.\protocol.c  **** }
  67              		.loc 1 74 0
  68 002c 10BD     		pop	{r4, pc}
  69              		.cfi_endproc
  70              	.LFE63:
  71              		.size	get_state, .-get_state
  72 002e 00BF     		.section	.text.get_position,"ax",%progbits
  73              		.align	2
  74              		.global	get_position
  75              		.thumb
  76              		.thumb_func
  77              		.type	get_position, %function
  78              	get_position:
  79              	.LFB64:
  75:.\protocol.c  **** 
  76:.\protocol.c  **** /*
  77:.\protocol.c  **** ***************************************************************************************************
  78:.\protocol.c  **** *                                         uint8 get_position(void)
  79:.\protocol.c  **** *
  80:.\protocol.c  **** * Description : 
  81:.\protocol.c  **** *               
  82:.\protocol.c  **** *
  83:.\protocol.c  **** * Argument(s) : none
  84:.\protocol.c  **** *
  85:.\protocol.c  **** * Return(s)   : none
  86:.\protocol.c  **** *
  87:.\protocol.c  **** * Caller(s)   : 
  88:.\protocol.c  **** *
  89:.\protocol.c  **** * Note(s)     : none.
  90:.\protocol.c  **** ***************************************************************************************************
  91:.\protocol.c  **** */
  92:.\protocol.c  **** uint8 get_position(void){
ARM GAS  C:\Users\RECEPC~1\AppData\Local\Temp\ccnklw4g.s 			page 4


  80              		.loc 1 92 0
  81              		.cfi_startproc
  82              		@ args = 0, pretend = 0, frame = 0
  83              		@ frame_needed = 0, uses_anonymous_args = 0
  84 0000 10B5     		push	{r4, lr}
  85              		.cfi_def_cfa_offset 8
  86              		.cfi_offset 4, -8
  87              		.cfi_offset 14, -4
  93:.\protocol.c  ****     uint8 x;            
  94:.\protocol.c  ****     side.a.dir=0xff;
  88              		.loc 1 94 0
  89 0002 464B     		ldr	r3, .L20
  90 0004 FF22     		movs	r2, #255
  91 0006 1A70     		strb	r2, [r3]
  95:.\protocol.c  ****     side.b.dir=0xff;
  92              		.loc 1 95 0
  93 0008 83F80821 		strb	r2, [r3, #264]
  96:.\protocol.c  ****     side.c.dir=0xff;
  94              		.loc 1 96 0
  95 000c 83F81022 		strb	r2, [r3, #528]
  97:.\protocol.c  ****     side.d.dir=0xff;
  96              		.loc 1 97 0
  97 0010 83F81823 		strb	r2, [r3, #792]
  98              	.LVL9:
  98:.\protocol.c  ****     for(x=1;x<=16;x++){
  99              		.loc 1 98 0
 100 0014 0124     		movs	r4, #1
 101 0016 54E0     		b	.L6
 102              	.LVL10:
 103              	.L11:
  99:.\protocol.c  ****         Pump_PutChar(x);
 104              		.loc 1 99 0
 105 0018 2046     		mov	r0, r4
 106 001a FFF7FEFF 		bl	Pump_PutChar
 107              	.LVL11:
 100:.\protocol.c  ****         CyDelay(100);           
 108              		.loc 1 100 0
 109 001e 6420     		movs	r0, #100
 110 0020 FFF7FEFF 		bl	CyDelay
 111              	.LVL12:
 101:.\protocol.c  ****         
 102:.\protocol.c  ****         if((Pump_GetRxBufferSize()>=1)&&(side.a.dir==0xff)){
 112              		.loc 1 102 0
 113 0024 FFF7FEFF 		bl	Pump_GetRxBufferSize
 114              	.LVL13:
 115 0028 38B1     		cbz	r0, .L7
 116              		.loc 1 102 0 is_stmt 0 discriminator 1
 117 002a 3C4B     		ldr	r3, .L20
 118 002c 1B78     		ldrb	r3, [r3]	@ zero_extendqisi2
 119 002e FF2B     		cmp	r3, #255
 120 0030 03D1     		bne	.L7
 103:.\protocol.c  ****            side.a.dir=x;	
 121              		.loc 1 103 0 is_stmt 1
 122 0032 3A4B     		ldr	r3, .L20
 123 0034 1C70     		strb	r4, [r3]
 104:.\protocol.c  ****            Pump_ClearRxBuffer();
 124              		.loc 1 104 0
ARM GAS  C:\Users\RECEPC~1\AppData\Local\Temp\ccnklw4g.s 			page 5


 125 0036 FFF7FEFF 		bl	Pump_ClearRxBuffer
 126              	.LVL14:
 127              	.L7:
 105:.\protocol.c  ****         }
 106:.\protocol.c  ****         if((Pump_GetRxBufferSize()>=1)&&(x!=side.a.dir)&&(side.b.dir==0xff)){
 128              		.loc 1 106 0
 129 003a FFF7FEFF 		bl	Pump_GetRxBufferSize
 130              	.LVL15:
 131 003e 68B1     		cbz	r0, .L8
 132              		.loc 1 106 0 is_stmt 0 discriminator 1
 133 0040 364B     		ldr	r3, .L20
 134 0042 1B78     		ldrb	r3, [r3]	@ zero_extendqisi2
 135 0044 A342     		cmp	r3, r4
 136 0046 09D0     		beq	.L8
 137              		.loc 1 106 0 discriminator 2
 138 0048 344B     		ldr	r3, .L20
 139 004a 93F80831 		ldrb	r3, [r3, #264]	@ zero_extendqisi2
 140 004e FF2B     		cmp	r3, #255
 141 0050 04D1     		bne	.L8
 107:.\protocol.c  ****            side.b.dir=x;
 142              		.loc 1 107 0 is_stmt 1
 143 0052 324B     		ldr	r3, .L20
 144 0054 83F80841 		strb	r4, [r3, #264]
 108:.\protocol.c  ****            Pump_ClearRxBuffer();
 145              		.loc 1 108 0
 146 0058 FFF7FEFF 		bl	Pump_ClearRxBuffer
 147              	.LVL16:
 148              	.L8:
 109:.\protocol.c  ****         }
 110:.\protocol.c  ****         if((Pump_GetRxBufferSize()>=1)&&(x!=side.a.dir)&&(x!=side.b.dir)&&(side.c.dir==0xff)){
 149              		.loc 1 110 0
 150 005c FFF7FEFF 		bl	Pump_GetRxBufferSize
 151              	.LVL17:
 152 0060 90B1     		cbz	r0, .L9
 153              		.loc 1 110 0 is_stmt 0 discriminator 1
 154 0062 2E4B     		ldr	r3, .L20
 155 0064 1B78     		ldrb	r3, [r3]	@ zero_extendqisi2
 156 0066 A342     		cmp	r3, r4
 157 0068 0ED0     		beq	.L9
 158              		.loc 1 110 0 discriminator 2
 159 006a 2C4B     		ldr	r3, .L20
 160 006c 93F80831 		ldrb	r3, [r3, #264]	@ zero_extendqisi2
 161 0070 A342     		cmp	r3, r4
 162 0072 09D0     		beq	.L9
 163              		.loc 1 110 0 discriminator 3
 164 0074 294B     		ldr	r3, .L20
 165 0076 93F81032 		ldrb	r3, [r3, #528]	@ zero_extendqisi2
 166 007a FF2B     		cmp	r3, #255
 167 007c 04D1     		bne	.L9
 111:.\protocol.c  ****            side.c.dir=x;
 168              		.loc 1 111 0 is_stmt 1
 169 007e 274B     		ldr	r3, .L20
 170 0080 83F81042 		strb	r4, [r3, #528]
 112:.\protocol.c  ****            Pump_ClearRxBuffer();
 171              		.loc 1 112 0
 172 0084 FFF7FEFF 		bl	Pump_ClearRxBuffer
 173              	.LVL18:
ARM GAS  C:\Users\RECEPC~1\AppData\Local\Temp\ccnklw4g.s 			page 6


 174              	.L9:
 113:.\protocol.c  ****         }
 114:.\protocol.c  ****         if((Pump_GetRxBufferSize()>=1)&&(x!=side.a.dir)&&(x!=side.b.dir)&&(x!=side.c.dir)&&(side.d.
 175              		.loc 1 114 0
 176 0088 FFF7FEFF 		bl	Pump_GetRxBufferSize
 177              	.LVL19:
 178 008c B8B1     		cbz	r0, .L10
 179              		.loc 1 114 0 is_stmt 0 discriminator 1
 180 008e 234B     		ldr	r3, .L20
 181 0090 1B78     		ldrb	r3, [r3]	@ zero_extendqisi2
 182 0092 A342     		cmp	r3, r4
 183 0094 13D0     		beq	.L10
 184              		.loc 1 114 0 discriminator 2
 185 0096 214B     		ldr	r3, .L20
 186 0098 93F80831 		ldrb	r3, [r3, #264]	@ zero_extendqisi2
 187 009c A342     		cmp	r3, r4
 188 009e 0ED0     		beq	.L10
 189              		.loc 1 114 0 discriminator 3
 190 00a0 1E4B     		ldr	r3, .L20
 191 00a2 93F81032 		ldrb	r3, [r3, #528]	@ zero_extendqisi2
 192 00a6 A342     		cmp	r3, r4
 193 00a8 09D0     		beq	.L10
 194              		.loc 1 114 0 discriminator 4
 195 00aa 1C4B     		ldr	r3, .L20
 196 00ac 93F81833 		ldrb	r3, [r3, #792]	@ zero_extendqisi2
 197 00b0 FF2B     		cmp	r3, #255
 198 00b2 04D1     		bne	.L10
 115:.\protocol.c  ****            side.d.dir=x;
 199              		.loc 1 115 0 is_stmt 1
 200 00b4 194B     		ldr	r3, .L20
 201 00b6 83F81843 		strb	r4, [r3, #792]
 116:.\protocol.c  ****            Pump_ClearRxBuffer();
 202              		.loc 1 116 0
 203 00ba FFF7FEFF 		bl	Pump_ClearRxBuffer
 204              	.LVL20:
 205              	.L10:
  98:.\protocol.c  ****         Pump_PutChar(x);
 206              		.loc 1 98 0 discriminator 2
 207 00be 0134     		adds	r4, r4, #1
 208              	.LVL21:
 209 00c0 E4B2     		uxtb	r4, r4
 210              	.LVL22:
 211              	.L6:
  98:.\protocol.c  ****         Pump_PutChar(x);
 212              		.loc 1 98 0 is_stmt 0 discriminator 1
 213 00c2 102C     		cmp	r4, #16
 214 00c4 A8D9     		bls	.L11
 117:.\protocol.c  ****         }
 118:.\protocol.c  ****                         
 119:.\protocol.c  ****     }
 120:.\protocol.c  ****     if((side.a.dir!=0xff)&&(side.b.dir!=0xff)&&(side.c.dir!=0xff)&&(side.d.dir!=0xff)){
 215              		.loc 1 120 0 is_stmt 1
 216 00c6 154B     		ldr	r3, .L20
 217 00c8 1B78     		ldrb	r3, [r3]	@ zero_extendqisi2
 218 00ca FF2B     		cmp	r3, #255
 219 00cc 0ED0     		beq	.L12
 220              		.loc 1 120 0 is_stmt 0 discriminator 1
ARM GAS  C:\Users\RECEPC~1\AppData\Local\Temp\ccnklw4g.s 			page 7


 221 00ce 134A     		ldr	r2, .L20
 222 00d0 92F80821 		ldrb	r2, [r2, #264]	@ zero_extendqisi2
 223 00d4 FF2A     		cmp	r2, #255
 224 00d6 09D0     		beq	.L12
 225              		.loc 1 120 0 discriminator 2
 226 00d8 104A     		ldr	r2, .L20
 227 00da 92F81022 		ldrb	r2, [r2, #528]	@ zero_extendqisi2
 228 00de FF2A     		cmp	r2, #255
 229 00e0 04D0     		beq	.L12
 230              		.loc 1 120 0 discriminator 3
 231 00e2 0E4A     		ldr	r2, .L20
 232 00e4 92F81823 		ldrb	r2, [r2, #792]	@ zero_extendqisi2
 233 00e8 FF2A     		cmp	r2, #255
 234 00ea 0FD1     		bne	.L15
 235              	.L12:
 121:.\protocol.c  ****         return 4;
 122:.\protocol.c  ****     }
 123:.\protocol.c  ****     if((side.a.dir!=0xff)&&(side.b.dir!=0xff)){
 236              		.loc 1 123 0 is_stmt 1
 237 00ec FF2B     		cmp	r3, #255
 238 00ee 04D0     		beq	.L14
 239              		.loc 1 123 0 is_stmt 0 discriminator 1
 240 00f0 0A4A     		ldr	r2, .L20
 241 00f2 92F80821 		ldrb	r2, [r2, #264]	@ zero_extendqisi2
 242 00f6 FF2A     		cmp	r2, #255
 243 00f8 0AD1     		bne	.L16
 244              	.L14:
 124:.\protocol.c  ****         return 2;
 125:.\protocol.c  ****     }
 126:.\protocol.c  ****     else{
 127:.\protocol.c  ****         if((side.a.dir!=0xff)||(side.b.dir!=0xff)){
 245              		.loc 1 127 0 is_stmt 1
 246 00fa FF2B     		cmp	r3, #255
 247 00fc 0AD1     		bne	.L17
 248              		.loc 1 127 0 is_stmt 0 discriminator 1
 249 00fe 074B     		ldr	r3, .L20
 250 0100 93F80831 		ldrb	r3, [r3, #264]	@ zero_extendqisi2
 251 0104 FF2B     		cmp	r3, #255
 252 0106 07D0     		beq	.L18
 128:.\protocol.c  ****             return 1;
 253              		.loc 1 128 0 is_stmt 1
 254 0108 0120     		movs	r0, #1
 255 010a 10BD     		pop	{r4, pc}
 256              	.LVL23:
 257              	.L15:
 121:.\protocol.c  ****         return 4;
 258              		.loc 1 121 0
 259 010c 0420     		movs	r0, #4
 260 010e 10BD     		pop	{r4, pc}
 261              	.LVL24:
 262              	.L16:
 124:.\protocol.c  ****         return 2;
 263              		.loc 1 124 0
 264 0110 0220     		movs	r0, #2
 265 0112 10BD     		pop	{r4, pc}
 266              	.LVL25:
 267              	.L17:
ARM GAS  C:\Users\RECEPC~1\AppData\Local\Temp\ccnklw4g.s 			page 8


 268              		.loc 1 128 0
 269 0114 0120     		movs	r0, #1
 270 0116 10BD     		pop	{r4, pc}
 271              	.LVL26:
 272              	.L18:
 129:.\protocol.c  ****         }
 130:.\protocol.c  ****         else{
 131:.\protocol.c  ****             return 0;
 273              		.loc 1 131 0
 274 0118 0020     		movs	r0, #0
 132:.\protocol.c  ****         }
 133:.\protocol.c  ****     }
 134:.\protocol.c  **** }
 275              		.loc 1 134 0
 276 011a 10BD     		pop	{r4, pc}
 277              	.LVL27:
 278              	.L21:
 279              		.align	2
 280              	.L20:
 281 011c 00000000 		.word	side
 282              		.cfi_endproc
 283              	.LFE64:
 284              		.size	get_position, .-get_position
 285              		.section	.text.getTotals,"ax",%progbits
 286              		.align	2
 287              		.global	getTotals
 288              		.thumb
 289              		.thumb_func
 290              		.type	getTotals, %function
 291              	getTotals:
 292              	.LFB65:
 135:.\protocol.c  **** 
 136:.\protocol.c  **** /*
 137:.\protocol.c  **** ***************************************************************************************************
 138:.\protocol.c  **** *                                    uint8 get_totals(uint8 pos)
 139:.\protocol.c  **** *
 140:.\protocol.c  **** * Description : 
 141:.\protocol.c  **** *               
 142:.\protocol.c  **** *
 143:.\protocol.c  **** * Argument(s) : none
 144:.\protocol.c  **** *
 145:.\protocol.c  **** * Return(s)   : none
 146:.\protocol.c  **** *
 147:.\protocol.c  **** * Caller(s)   : 
 148:.\protocol.c  **** *
 149:.\protocol.c  **** * Note(s)     : none.
 150:.\protocol.c  **** ***************************************************************************************************
 151:.\protocol.c  **** */
 152:.\protocol.c  **** 
 153:.\protocol.c  **** uint8 getTotals(uint8 pos){
 293              		.loc 1 153 0
 294              		.cfi_startproc
 295              		@ args = 0, pretend = 0, frame = 0
 296              		@ frame_needed = 0, uses_anonymous_args = 0
 297              	.LVL28:
 298 0000 F8B5     		push	{r3, r4, r5, r6, r7, lr}
 299              		.cfi_def_cfa_offset 24
ARM GAS  C:\Users\RECEPC~1\AppData\Local\Temp\ccnklw4g.s 			page 9


 300              		.cfi_offset 3, -24
 301              		.cfi_offset 4, -20
 302              		.cfi_offset 5, -16
 303              		.cfi_offset 6, -12
 304              		.cfi_offset 7, -8
 305              		.cfi_offset 14, -4
 306 0002 0546     		mov	r5, r0
 154:.\protocol.c  ****     uint8 x,y,z,w,gradeHandle;
 155:.\protocol.c  ****     Pump_ClearRxBuffer();
 307              		.loc 1 155 0
 308 0004 FFF7FEFF 		bl	Pump_ClearRxBuffer
 309              	.LVL29:
 156:.\protocol.c  ****     Pump_PutChar(0x50|pos);
 310              		.loc 1 156 0
 311 0008 45F05000 		orr	r0, r5, #80
 312 000c FFF7FEFF 		bl	Pump_PutChar
 313              	.LVL30:
 157:.\protocol.c  ****     CyWdtClear();
 314              		.loc 1 157 0
 315 0010 FFF7FEFF 		bl	CyWdtClear
 316              	.LVL31:
 158:.\protocol.c  ****     CyDelay(900);
 317              		.loc 1 158 0
 318 0014 4FF46170 		mov	r0, #900
 319 0018 FFF7FEFF 		bl	CyDelay
 320              	.LVL32:
 159:.\protocol.c  ****     CyWdtClear();
 321              		.loc 1 159 0
 322 001c FFF7FEFF 		bl	CyWdtClear
 323              	.LVL33:
 160:.\protocol.c  ****     x=Pump_GetRxBufferSize();
 324              		.loc 1 160 0
 325 0020 FFF7FEFF 		bl	Pump_GetRxBufferSize
 326              	.LVL34:
 327 0024 C0B2     		uxtb	r0, r0
 328              	.LVL35:
 161:.\protocol.c  ****     if((x==34)||(x==64)||(x==94)||(x==124)){//Version 5 รณ 6 digitos
 329              		.loc 1 161 0
 330 0026 2228     		cmp	r0, #34
 331 0028 06D0     		beq	.L23
 332              		.loc 1 161 0 is_stmt 0 discriminator 1
 333 002a 4028     		cmp	r0, #64
 334 002c 04D0     		beq	.L23
 335              		.loc 1 161 0 discriminator 2
 336 002e 5E28     		cmp	r0, #94
 337 0030 02D0     		beq	.L23
 338              		.loc 1 161 0 discriminator 3
 339 0032 7C28     		cmp	r0, #124
 340 0034 40F02281 		bne	.L24
 341              	.L23:
 162:.\protocol.c  ****         if((Pump_rxBuffer[0]==0xFF)&&(Pump_rxBuffer[1]==0xF6)&&(Pump_rxBuffer[3]==0xF9)){
 342              		.loc 1 162 0 is_stmt 1
 343 0038 B44B     		ldr	r3, .L99
 344 003a 1B78     		ldrb	r3, [r3]	@ zero_extendqisi2
 345 003c DBB2     		uxtb	r3, r3
 346 003e FF2B     		cmp	r3, #255
 347 0040 40F01881 		bne	.L25
ARM GAS  C:\Users\RECEPC~1\AppData\Local\Temp\ccnklw4g.s 			page 10


 348              		.loc 1 162 0 is_stmt 0 discriminator 1
 349 0044 B14B     		ldr	r3, .L99
 350 0046 5B78     		ldrb	r3, [r3, #1]	@ zero_extendqisi2
 351 0048 DBB2     		uxtb	r3, r3
 352 004a F62B     		cmp	r3, #246
 353 004c 40F01281 		bne	.L25
 354              		.loc 1 162 0 discriminator 2
 355 0050 AE4B     		ldr	r3, .L99
 356 0052 DB78     		ldrb	r3, [r3, #3]	@ zero_extendqisi2
 357 0054 DBB2     		uxtb	r3, r3
 358 0056 F92B     		cmp	r3, #249
 359 0058 40F00C81 		bne	.L25
 163:.\protocol.c  ****             gradeHandle=(x/30)&0x07;//Identificando cantidad de mangueras en el surtidor
 360              		.loc 1 163 0 is_stmt 1
 361 005c AC4C     		ldr	r4, .L99+4
 362 005e A4FB0030 		umull	r3, r0, r4, r0
 363              	.LVL36:
 364 0062 C0F30214 		ubfx	r4, r0, #4, #3
 365              	.LVL37:
 164:.\protocol.c  ****             if(pos==side.a.dir){
 366              		.loc 1 164 0
 367 0066 AB4B     		ldr	r3, .L99+8
 368 0068 1B78     		ldrb	r3, [r3]	@ zero_extendqisi2
 369 006a AB42     		cmp	r3, r5
 370 006c 1DD0     		beq	.L80
 371 006e 0026     		movs	r6, #0
 372 0070 99E0     		b	.L27
 373              	.LVL38:
 374              	.L28:
 165:.\protocol.c  ****                 for(x=0;x<4;x++){
 166:.\protocol.c  ****                     for(y=0;y<3;y++){
 167:.\protocol.c  ****                         for(z=0;z<14;z++){
 168:.\protocol.c  ****                             side.a.totalsHandle[x][y][z]=0;
 375              		.loc 1 168 0 discriminator 3
 376 0072 C5EB0510 		rsb	r0, r5, r5, lsl #4
 377 0076 06EB4603 		add	r3, r6, r6, lsl #1
 378 007a C3EB0312 		rsb	r2, r3, r3, lsl #4
 379 007e 0346     		mov	r3, r0
 380 0080 1344     		add	r3, r3, r2
 381 0082 A44A     		ldr	r2, .L99+8
 382 0084 1344     		add	r3, r3, r2
 383 0086 0B44     		add	r3, r3, r1
 384 0088 0022     		movs	r2, #0
 385 008a 5A70     		strb	r2, [r3, #1]
 167:.\protocol.c  ****                             side.a.totalsHandle[x][y][z]=0;
 386              		.loc 1 167 0 discriminator 3
 387 008c 0131     		adds	r1, r1, #1
 388              	.LVL39:
 389 008e C9B2     		uxtb	r1, r1
 390              	.LVL40:
 391 0090 00E0     		b	.L29
 392              	.LVL41:
 393              	.L81:
 394 0092 0021     		movs	r1, #0
 395              	.L29:
 396              	.LVL42:
 167:.\protocol.c  ****                             side.a.totalsHandle[x][y][z]=0;
ARM GAS  C:\Users\RECEPC~1\AppData\Local\Temp\ccnklw4g.s 			page 11


 397              		.loc 1 167 0 is_stmt 0 discriminator 1
 398 0094 0D29     		cmp	r1, #13
 399 0096 ECD9     		bls	.L28
 166:.\protocol.c  ****                         for(z=0;z<14;z++){
 400              		.loc 1 166 0 is_stmt 1 discriminator 2
 401 0098 0135     		adds	r5, r5, #1
 402              	.LVL43:
 403 009a EDB2     		uxtb	r5, r5
 404              	.LVL44:
 405 009c 00E0     		b	.L30
 406              	.LVL45:
 407              	.L82:
 408 009e 0025     		movs	r5, #0
 409              	.L30:
 410              	.LVL46:
 166:.\protocol.c  ****                         for(z=0;z<14;z++){
 411              		.loc 1 166 0 is_stmt 0 discriminator 1
 412 00a0 022D     		cmp	r5, #2
 413 00a2 F6D9     		bls	.L81
 165:.\protocol.c  ****                 for(x=0;x<4;x++){
 414              		.loc 1 165 0 is_stmt 1 discriminator 2
 415 00a4 0136     		adds	r6, r6, #1
 416              	.LVL47:
 417 00a6 F6B2     		uxtb	r6, r6
 418              	.LVL48:
 419 00a8 00E0     		b	.L26
 420              	.LVL49:
 421              	.L80:
 422 00aa 0026     		movs	r6, #0
 423              	.L26:
 424              	.LVL50:
 165:.\protocol.c  ****                 for(x=0;x<4;x++){
 425              		.loc 1 165 0 is_stmt 0 discriminator 1
 426 00ac 032E     		cmp	r6, #3
 427 00ae F6D9     		bls	.L82
 428 00b0 0025     		movs	r5, #0
 429 00b2 2F46     		mov	r7, r5
 430 00b4 55E0     		b	.L31
 431              	.LVL51:
 432              	.L34:
 169:.\protocol.c  ****                         }
 170:.\protocol.c  ****                     }
 171:.\protocol.c  ****                 }
 172:.\protocol.c  ****                 w=0;
 173:.\protocol.c  ****                 for(x=0;x<gradeHandle;x++){
 174:.\protocol.c  ****                     for(y=0;y<=2;y++){
 175:.\protocol.c  ****                         for(z=1;z<=8;z++){
 176:.\protocol.c  ****                             side.a.totalsHandle[x][y][9-z]=(Pump_rxBuffer[w+4]&0x0F)+0x30;
 433              		.loc 1 176 0 is_stmt 1
 434 00b6 2B1D     		adds	r3, r5, #4
 435 00b8 944A     		ldr	r2, .L99
 436 00ba D05C     		ldrb	r0, [r2, r3]	@ zero_extendqisi2
 437 00bc C6EB061E 		rsb	lr, r6, r6, lsl #4
 438 00c0 07EB4703 		add	r3, r7, r7, lsl #1
 439 00c4 C3EB0312 		rsb	r2, r3, r3, lsl #4
 440 00c8 7346     		mov	r3, lr
 441 00ca 1344     		add	r3, r3, r2
ARM GAS  C:\Users\RECEPC~1\AppData\Local\Temp\ccnklw4g.s 			page 12


 442 00cc 914A     		ldr	r2, .L99+8
 443 00ce 1344     		add	r3, r3, r2
 444 00d0 5B1A     		subs	r3, r3, r1
 445 00d2 00F00F02 		and	r2, r0, #15
 446 00d6 3032     		adds	r2, r2, #48
 447 00d8 9A72     		strb	r2, [r3, #10]
 177:.\protocol.c  ****                             w++;
 448              		.loc 1 177 0
 449 00da 0135     		adds	r5, r5, #1
 450              	.LVL52:
 451 00dc EDB2     		uxtb	r5, r5
 452              	.LVL53:
 178:.\protocol.c  ****                             if((y==2)&&(z==4)){
 453              		.loc 1 178 0
 454 00de 022E     		cmp	r6, #2
 455 00e0 01D1     		bne	.L32
 456              		.loc 1 178 0 is_stmt 0 discriminator 1
 457 00e2 0429     		cmp	r1, #4
 458 00e4 05D0     		beq	.L33
 459              	.L32:
 175:.\protocol.c  ****                             side.a.totalsHandle[x][y][9-z]=(Pump_rxBuffer[w+4]&0x0F)+0x30;
 460              		.loc 1 175 0 is_stmt 1 discriminator 2
 461 00e6 0131     		adds	r1, r1, #1
 462              	.LVL54:
 463 00e8 C9B2     		uxtb	r1, r1
 464              	.LVL55:
 465 00ea 00E0     		b	.L35
 466              	.LVL56:
 467              	.L83:
 468 00ec 0121     		movs	r1, #1
 469              	.L35:
 470              	.LVL57:
 175:.\protocol.c  ****                             side.a.totalsHandle[x][y][9-z]=(Pump_rxBuffer[w+4]&0x0F)+0x30;
 471              		.loc 1 175 0 is_stmt 0 discriminator 1
 472 00ee 0829     		cmp	r1, #8
 473 00f0 E1D9     		bls	.L34
 474              	.L33:
 179:.\protocol.c  ****                                 break;
 180:.\protocol.c  ****                             }
 181:.\protocol.c  ****                         }
 182:.\protocol.c  ****                         w++;
 475              		.loc 1 182 0 is_stmt 1 discriminator 2
 476 00f2 0135     		adds	r5, r5, #1
 477              	.LVL58:
 478 00f4 EDB2     		uxtb	r5, r5
 479              	.LVL59:
 174:.\protocol.c  ****                         for(z=1;z<=8;z++){
 480              		.loc 1 174 0 discriminator 2
 481 00f6 0136     		adds	r6, r6, #1
 482              	.LVL60:
 483 00f8 F6B2     		uxtb	r6, r6
 484              	.LVL61:
 485 00fa 00E0     		b	.L39
 486              	.LVL62:
 487              	.L84:
 488 00fc 0026     		movs	r6, #0
 489              	.L39:
ARM GAS  C:\Users\RECEPC~1\AppData\Local\Temp\ccnklw4g.s 			page 13


 490              	.LVL63:
 174:.\protocol.c  ****                         for(z=1;z<=8;z++){
 491              		.loc 1 174 0 is_stmt 0 discriminator 1
 492 00fe 022E     		cmp	r6, #2
 493 0100 F4D9     		bls	.L83
 183:.\protocol.c  ****                     }
 184:.\protocol.c  ****                     w=w+7;
 494              		.loc 1 184 0 is_stmt 1
 495 0102 0735     		adds	r5, r5, #7
 496              	.LVL64:
 497 0104 EDB2     		uxtb	r5, r5
 498              	.LVL65:
 185:.\protocol.c  ****                     for(z=4;z>=1;z--){
 499              		.loc 1 185 0
 500 0106 0422     		movs	r2, #4
 501 0108 0CE0     		b	.L36
 502              	.LVL66:
 503              	.L37:
 186:.\protocol.c  ****                         side.a.totalsHandle[x][2][z]=side.a.totalsHandle[x][2][z+4];
 504              		.loc 1 186 0 discriminator 3
 505 010a 07EB4703 		add	r3, r7, r7, lsl #1
 506 010e C3EB0313 		rsb	r3, r3, r3, lsl #4
 507 0112 8049     		ldr	r1, .L99+8
 508 0114 0B44     		add	r3, r3, r1
 509 0116 D118     		adds	r1, r2, r3
 510 0118 91F82310 		ldrb	r1, [r1, #35]	@ zero_extendqisi2
 511 011c 1344     		add	r3, r3, r2
 512 011e D977     		strb	r1, [r3, #31]
 185:.\protocol.c  ****                     for(z=4;z>=1;z--){
 513              		.loc 1 185 0 discriminator 3
 514 0120 013A     		subs	r2, r2, #1
 515              	.LVL67:
 516 0122 D2B2     		uxtb	r2, r2
 517              	.LVL68:
 518              	.L36:
 185:.\protocol.c  ****                     for(z=4;z>=1;z--){
 519              		.loc 1 185 0 is_stmt 0 discriminator 1
 520 0124 002A     		cmp	r2, #0
 521 0126 F0D1     		bne	.L37
 187:.\protocol.c  ****                     }
 188:.\protocol.c  ****                     side.a.totalsHandle[x][0][0]=8;
 522              		.loc 1 188 0 is_stmt 1
 523 0128 07EB4703 		add	r3, r7, r7, lsl #1
 524 012c C3EB0313 		rsb	r3, r3, r3, lsl #4
 525 0130 784A     		ldr	r2, .L99+8
 526              	.LVL69:
 527 0132 1344     		add	r3, r3, r2
 528 0134 0822     		movs	r2, #8
 529 0136 5A70     		strb	r2, [r3, #1]
 189:.\protocol.c  ****                     side.a.totalsHandle[x][1][0]=8;
 530              		.loc 1 189 0
 531 0138 1A74     		strb	r2, [r3, #16]
 190:.\protocol.c  ****                     side.a.totalsHandle[x][2][0]=4;
 532              		.loc 1 190 0
 533 013a 0422     		movs	r2, #4
 534 013c DA77     		strb	r2, [r3, #31]
 191:.\protocol.c  ****                     if(ppux10==1){
ARM GAS  C:\Users\RECEPC~1\AppData\Local\Temp\ccnklw4g.s 			page 14


 535              		.loc 1 191 0
 536 013e 764B     		ldr	r3, .L99+12
 537 0140 1B78     		ldrb	r3, [r3]	@ zero_extendqisi2
 538 0142 DBB2     		uxtb	r3, r3
 539 0144 012B     		cmp	r3, #1
 540 0146 0AD1     		bne	.L38
 192:.\protocol.c  ****                         side.a.totalsHandle[x][2][0]=5;
 541              		.loc 1 192 0
 542 0148 07EB4703 		add	r3, r7, r7, lsl #1
 543 014c C3EB0313 		rsb	r3, r3, r3, lsl #4
 544 0150 704A     		ldr	r2, .L99+8
 545 0152 1344     		add	r3, r3, r2
 546 0154 0522     		movs	r2, #5
 547 0156 DA77     		strb	r2, [r3, #31]
 193:.\protocol.c  ****                         side.a.totalsHandle[x][2][5]='0';
 548              		.loc 1 193 0
 549 0158 3022     		movs	r2, #48
 550 015a 83F82420 		strb	r2, [r3, #36]
 551              	.L38:
 173:.\protocol.c  ****                     for(y=0;y<=2;y++){
 552              		.loc 1 173 0 discriminator 2
 553 015e 0137     		adds	r7, r7, #1
 554              	.LVL70:
 555 0160 FFB2     		uxtb	r7, r7
 556              	.LVL71:
 557              	.L31:
 173:.\protocol.c  ****                     for(y=0;y<=2;y++){
 558              		.loc 1 173 0 is_stmt 0 discriminator 1
 559 0162 A742     		cmp	r7, r4
 560 0164 CAD3     		bcc	.L84
 194:.\protocol.c  ****                     }
 195:.\protocol.c  ****                 }
 196:.\protocol.c  ****                 Pump_ClearRxBuffer();
 561              		.loc 1 196 0 is_stmt 1
 562 0166 FFF7FEFF 		bl	Pump_ClearRxBuffer
 563              	.LVL72:
 197:.\protocol.c  ****                 return gradeHandle;
 564              		.loc 1 197 0
 565 016a 2046     		mov	r0, r4
 566 016c F8BD     		pop	{r3, r4, r5, r6, r7, pc}
 567              	.LVL73:
 568              	.L41:
 198:.\protocol.c  ****             }else{
 199:.\protocol.c  ****                 for(x=0;x<4;x++){
 200:.\protocol.c  ****                     for(y=0;y<3;y++){
 201:.\protocol.c  ****                         for(z=0;z<14;z++){
 202:.\protocol.c  ****                             side.b.totalsHandle[x][y][z]=0;
 569              		.loc 1 202 0 discriminator 3
 570 016e C5EB0510 		rsb	r0, r5, r5, lsl #4
 571 0172 06EB4603 		add	r3, r6, r6, lsl #1
 572 0176 C3EB0312 		rsb	r2, r3, r3, lsl #4
 573 017a 0346     		mov	r3, r0
 574 017c 1344     		add	r3, r3, r2
 575 017e 654A     		ldr	r2, .L99+8
 576 0180 1344     		add	r3, r3, r2
 577 0182 0B44     		add	r3, r3, r1
 578 0184 0022     		movs	r2, #0
ARM GAS  C:\Users\RECEPC~1\AppData\Local\Temp\ccnklw4g.s 			page 15


 579 0186 83F80921 		strb	r2, [r3, #265]
 201:.\protocol.c  ****                             side.b.totalsHandle[x][y][z]=0;
 580              		.loc 1 201 0 discriminator 3
 581 018a 0131     		adds	r1, r1, #1
 582              	.LVL74:
 583 018c C9B2     		uxtb	r1, r1
 584              	.LVL75:
 585 018e 00E0     		b	.L42
 586              	.LVL76:
 587              	.L85:
 588 0190 0021     		movs	r1, #0
 589              	.L42:
 590              	.LVL77:
 201:.\protocol.c  ****                             side.b.totalsHandle[x][y][z]=0;
 591              		.loc 1 201 0 is_stmt 0 discriminator 1
 592 0192 0D29     		cmp	r1, #13
 593 0194 EBD9     		bls	.L41
 200:.\protocol.c  ****                         for(z=0;z<14;z++){
 594              		.loc 1 200 0 is_stmt 1 discriminator 2
 595 0196 0135     		adds	r5, r5, #1
 596              	.LVL78:
 597 0198 EDB2     		uxtb	r5, r5
 598              	.LVL79:
 599 019a 00E0     		b	.L43
 600              	.LVL80:
 601              	.L86:
 602 019c 0025     		movs	r5, #0
 603              	.L43:
 604              	.LVL81:
 200:.\protocol.c  ****                         for(z=0;z<14;z++){
 605              		.loc 1 200 0 is_stmt 0 discriminator 1
 606 019e 022D     		cmp	r5, #2
 607 01a0 F6D9     		bls	.L85
 199:.\protocol.c  ****                     for(y=0;y<3;y++){
 608              		.loc 1 199 0 is_stmt 1 discriminator 2
 609 01a2 0136     		adds	r6, r6, #1
 610              	.LVL82:
 611 01a4 F6B2     		uxtb	r6, r6
 612              	.LVL83:
 613              	.L27:
 199:.\protocol.c  ****                     for(y=0;y<3;y++){
 614              		.loc 1 199 0 is_stmt 0 discriminator 1
 615 01a6 032E     		cmp	r6, #3
 616 01a8 F8D9     		bls	.L86
 617 01aa 0025     		movs	r5, #0
 618 01ac 2F46     		mov	r7, r5
 619 01ae 5BE0     		b	.L44
 620              	.LVL84:
 621              	.L47:
 203:.\protocol.c  ****                         }
 204:.\protocol.c  ****                     }
 205:.\protocol.c  ****                 }
 206:.\protocol.c  ****                 w=0;
 207:.\protocol.c  ****                 for(x=0;x<gradeHandle;x++){
 208:.\protocol.c  ****                     for(y=0;y<=2;y++){
 209:.\protocol.c  ****                         for(z=1;z<=8;z++){
 210:.\protocol.c  ****                             side.b.totalsHandle[x][y][9-z]=(Pump_rxBuffer[w+4]&0x0F)+0x30;
ARM GAS  C:\Users\RECEPC~1\AppData\Local\Temp\ccnklw4g.s 			page 16


 622              		.loc 1 210 0 is_stmt 1
 623 01b0 2B1D     		adds	r3, r5, #4
 624 01b2 564A     		ldr	r2, .L99
 625 01b4 D05C     		ldrb	r0, [r2, r3]	@ zero_extendqisi2
 626 01b6 C6EB061E 		rsb	lr, r6, r6, lsl #4
 627 01ba 07EB4703 		add	r3, r7, r7, lsl #1
 628 01be C3EB0312 		rsb	r2, r3, r3, lsl #4
 629 01c2 7346     		mov	r3, lr
 630 01c4 1344     		add	r3, r3, r2
 631 01c6 534A     		ldr	r2, .L99+8
 632 01c8 1344     		add	r3, r3, r2
 633 01ca 5B1A     		subs	r3, r3, r1
 634 01cc 00F00F02 		and	r2, r0, #15
 635 01d0 3032     		adds	r2, r2, #48
 636 01d2 83F81221 		strb	r2, [r3, #274]
 211:.\protocol.c  ****                             w++;
 637              		.loc 1 211 0
 638 01d6 0135     		adds	r5, r5, #1
 639              	.LVL85:
 640 01d8 EDB2     		uxtb	r5, r5
 641              	.LVL86:
 212:.\protocol.c  ****                             if((y==2)&&(z==4)){
 642              		.loc 1 212 0
 643 01da 022E     		cmp	r6, #2
 644 01dc 01D1     		bne	.L45
 645              		.loc 1 212 0 is_stmt 0 discriminator 1
 646 01de 0429     		cmp	r1, #4
 647 01e0 05D0     		beq	.L46
 648              	.L45:
 209:.\protocol.c  ****                             side.b.totalsHandle[x][y][9-z]=(Pump_rxBuffer[w+4]&0x0F)+0x30;
 649              		.loc 1 209 0 is_stmt 1 discriminator 2
 650 01e2 0131     		adds	r1, r1, #1
 651              	.LVL87:
 652 01e4 C9B2     		uxtb	r1, r1
 653              	.LVL88:
 654 01e6 00E0     		b	.L48
 655              	.LVL89:
 656              	.L87:
 657 01e8 0121     		movs	r1, #1
 658              	.L48:
 659              	.LVL90:
 209:.\protocol.c  ****                             side.b.totalsHandle[x][y][9-z]=(Pump_rxBuffer[w+4]&0x0F)+0x30;
 660              		.loc 1 209 0 is_stmt 0 discriminator 1
 661 01ea 0829     		cmp	r1, #8
 662 01ec E0D9     		bls	.L47
 663              	.L46:
 213:.\protocol.c  ****                                 break;
 214:.\protocol.c  ****                             }
 215:.\protocol.c  ****                         }
 216:.\protocol.c  ****                         w++;
 664              		.loc 1 216 0 is_stmt 1 discriminator 2
 665 01ee 0135     		adds	r5, r5, #1
 666              	.LVL91:
 667 01f0 EDB2     		uxtb	r5, r5
 668              	.LVL92:
 208:.\protocol.c  ****                         for(z=1;z<=8;z++){
 669              		.loc 1 208 0 discriminator 2
ARM GAS  C:\Users\RECEPC~1\AppData\Local\Temp\ccnklw4g.s 			page 17


 670 01f2 0136     		adds	r6, r6, #1
 671              	.LVL93:
 672 01f4 F6B2     		uxtb	r6, r6
 673              	.LVL94:
 674 01f6 00E0     		b	.L52
 675              	.LVL95:
 676              	.L88:
 677 01f8 0026     		movs	r6, #0
 678              	.L52:
 679              	.LVL96:
 208:.\protocol.c  ****                         for(z=1;z<=8;z++){
 680              		.loc 1 208 0 is_stmt 0 discriminator 1
 681 01fa 022E     		cmp	r6, #2
 682 01fc F4D9     		bls	.L87
 217:.\protocol.c  ****                     }
 218:.\protocol.c  ****                     w=w+7;
 683              		.loc 1 218 0 is_stmt 1
 684 01fe 0735     		adds	r5, r5, #7
 685              	.LVL97:
 686 0200 EDB2     		uxtb	r5, r5
 687              	.LVL98:
 219:.\protocol.c  ****                     for(z=4;z>=1;z--){
 688              		.loc 1 219 0
 689 0202 0422     		movs	r2, #4
 690 0204 0DE0     		b	.L49
 691              	.LVL99:
 692              	.L50:
 220:.\protocol.c  ****                         side.b.totalsHandle[x][2][z]=side.b.totalsHandle[x][2][z+4];
 693              		.loc 1 220 0 discriminator 3
 694 0206 07EB4703 		add	r3, r7, r7, lsl #1
 695 020a C3EB0313 		rsb	r3, r3, r3, lsl #4
 696 020e 4149     		ldr	r1, .L99+8
 697 0210 0B44     		add	r3, r3, r1
 698 0212 D118     		adds	r1, r2, r3
 699 0214 91F82B11 		ldrb	r1, [r1, #299]	@ zero_extendqisi2
 700 0218 1344     		add	r3, r3, r2
 701 021a 83F82711 		strb	r1, [r3, #295]
 219:.\protocol.c  ****                     for(z=4;z>=1;z--){
 702              		.loc 1 219 0 discriminator 3
 703 021e 013A     		subs	r2, r2, #1
 704              	.LVL100:
 705 0220 D2B2     		uxtb	r2, r2
 706              	.LVL101:
 707              	.L49:
 219:.\protocol.c  ****                     for(z=4;z>=1;z--){
 708              		.loc 1 219 0 is_stmt 0 discriminator 1
 709 0222 002A     		cmp	r2, #0
 710 0224 EFD1     		bne	.L50
 221:.\protocol.c  ****                     }
 222:.\protocol.c  ****                     side.b.totalsHandle[x][0][0]=8;
 711              		.loc 1 222 0 is_stmt 1
 712 0226 07EB4703 		add	r3, r7, r7, lsl #1
 713 022a C3EB0313 		rsb	r3, r3, r3, lsl #4
 714 022e 394A     		ldr	r2, .L99+8
 715              	.LVL102:
 716 0230 1344     		add	r3, r3, r2
 717 0232 0822     		movs	r2, #8
ARM GAS  C:\Users\RECEPC~1\AppData\Local\Temp\ccnklw4g.s 			page 18


 718 0234 83F80921 		strb	r2, [r3, #265]
 223:.\protocol.c  ****                     side.b.totalsHandle[x][1][0]=8;
 719              		.loc 1 223 0
 720 0238 83F81821 		strb	r2, [r3, #280]
 224:.\protocol.c  ****                     side.b.totalsHandle[x][2][0]=4;
 721              		.loc 1 224 0
 722 023c 0422     		movs	r2, #4
 723 023e 83F82721 		strb	r2, [r3, #295]
 225:.\protocol.c  ****                     if(ppux10==1){
 724              		.loc 1 225 0
 725 0242 354B     		ldr	r3, .L99+12
 726 0244 1B78     		ldrb	r3, [r3]	@ zero_extendqisi2
 727 0246 DBB2     		uxtb	r3, r3
 728 0248 012B     		cmp	r3, #1
 729 024a 0BD1     		bne	.L51
 226:.\protocol.c  ****                         side.b.totalsHandle[x][2][0]=5;
 730              		.loc 1 226 0
 731 024c 07EB4703 		add	r3, r7, r7, lsl #1
 732 0250 C3EB0313 		rsb	r3, r3, r3, lsl #4
 733 0254 2F4A     		ldr	r2, .L99+8
 734 0256 1344     		add	r3, r3, r2
 735 0258 0522     		movs	r2, #5
 736 025a 83F82721 		strb	r2, [r3, #295]
 227:.\protocol.c  ****                         side.b.totalsHandle[x][2][5]='0';
 737              		.loc 1 227 0
 738 025e 3022     		movs	r2, #48
 739 0260 83F82C21 		strb	r2, [r3, #300]
 740              	.L51:
 207:.\protocol.c  ****                     for(y=0;y<=2;y++){
 741              		.loc 1 207 0 discriminator 2
 742 0264 0137     		adds	r7, r7, #1
 743              	.LVL103:
 744 0266 FFB2     		uxtb	r7, r7
 745              	.LVL104:
 746              	.L44:
 207:.\protocol.c  ****                     for(y=0;y<=2;y++){
 747              		.loc 1 207 0 is_stmt 0 discriminator 1
 748 0268 A742     		cmp	r7, r4
 749 026a C5D3     		bcc	.L88
 228:.\protocol.c  ****                     }
 229:.\protocol.c  ****                 }
 230:.\protocol.c  ****                 Pump_ClearRxBuffer();
 750              		.loc 1 230 0 is_stmt 1
 751 026c FFF7FEFF 		bl	Pump_ClearRxBuffer
 752              	.LVL105:
 231:.\protocol.c  ****                 return gradeHandle;
 753              		.loc 1 231 0
 754 0270 2046     		mov	r0, r4
 755 0272 F8BD     		pop	{r3, r4, r5, r6, r7, pc}
 756              	.LVL106:
 757              	.L25:
 232:.\protocol.c  ****             }
 233:.\protocol.c  ****         }else{
 234:.\protocol.c  ****             Pump_ClearRxBuffer();
 758              		.loc 1 234 0
 759 0274 FFF7FEFF 		bl	Pump_ClearRxBuffer
 760              	.LVL107:
ARM GAS  C:\Users\RECEPC~1\AppData\Local\Temp\ccnklw4g.s 			page 19


 235:.\protocol.c  ****             return 0;
 761              		.loc 1 235 0
 762 0278 0020     		movs	r0, #0
 763 027a F8BD     		pop	{r3, r4, r5, r6, r7, pc}
 764              	.LVL108:
 765              	.L24:
 236:.\protocol.c  ****         }
 237:.\protocol.c  ****     }else if((x==46)||(x==88)||(x==130)||(x==172)){//Version 7 digitos
 766              		.loc 1 237 0
 767 027c 2E28     		cmp	r0, #46
 768 027e 06D0     		beq	.L53
 769              		.loc 1 237 0 is_stmt 0 discriminator 1
 770 0280 5828     		cmp	r0, #88
 771 0282 04D0     		beq	.L53
 772              		.loc 1 237 0 discriminator 2
 773 0284 8228     		cmp	r0, #130
 774 0286 02D0     		beq	.L53
 775              		.loc 1 237 0 discriminator 3
 776 0288 AC28     		cmp	r0, #172
 777 028a 40F00B81 		bne	.L54
 778              	.L53:
 238:.\protocol.c  ****         if((Pump_rxBuffer[0]==0xFF)&&(Pump_rxBuffer[1]==0xF6)&&(Pump_rxBuffer[3]==0xF9)){
 779              		.loc 1 238 0 is_stmt 1
 780 028e 1F4B     		ldr	r3, .L99
 781 0290 1B78     		ldrb	r3, [r3]	@ zero_extendqisi2
 782 0292 DBB2     		uxtb	r3, r3
 783 0294 FF2B     		cmp	r3, #255
 784 0296 40F00181 		bne	.L55
 785              		.loc 1 238 0 is_stmt 0 discriminator 1
 786 029a 1C4B     		ldr	r3, .L99
 787 029c 5B78     		ldrb	r3, [r3, #1]	@ zero_extendqisi2
 788 029e DBB2     		uxtb	r3, r3
 789 02a0 F62B     		cmp	r3, #246
 790 02a2 40F0FB80 		bne	.L55
 791              		.loc 1 238 0 discriminator 2
 792 02a6 194B     		ldr	r3, .L99
 793 02a8 DB78     		ldrb	r3, [r3, #3]	@ zero_extendqisi2
 794 02aa DBB2     		uxtb	r3, r3
 795 02ac F92B     		cmp	r3, #249
 796 02ae 40F0F580 		bne	.L55
 239:.\protocol.c  ****             gradeHandle=(x/40)&0x07;//Identificando cantidad de mangueras en el surtidor
 797              		.loc 1 239 0 is_stmt 1
 798 02b2 1A4C     		ldr	r4, .L99+16
 799 02b4 A4FB0030 		umull	r3, r0, r4, r0
 800              	.LVL109:
 801 02b8 4409     		lsrs	r4, r0, #5
 802              	.LVL110:
 240:.\protocol.c  ****             if(pos==side.a.dir){
 803              		.loc 1 240 0
 804 02ba 164B     		ldr	r3, .L99+8
 805 02bc 1B78     		ldrb	r3, [r3]	@ zero_extendqisi2
 806 02be AB42     		cmp	r3, r5
 807 02c0 1DD0     		beq	.L89
 808 02c2 0026     		movs	r6, #0
 809 02c4 94E0     		b	.L57
 810              	.LVL111:
 811              	.L58:
ARM GAS  C:\Users\RECEPC~1\AppData\Local\Temp\ccnklw4g.s 			page 20


 241:.\protocol.c  ****                 for(x=0;x<4;x++){
 242:.\protocol.c  ****                     for(y=0;y<3;y++){
 243:.\protocol.c  ****                         for(z=0;z<14;z++){
 244:.\protocol.c  ****                             side.a.totalsHandle[x][y][z]=0;
 812              		.loc 1 244 0 discriminator 3
 813 02c6 C5EB0510 		rsb	r0, r5, r5, lsl #4
 814 02ca 06EB4603 		add	r3, r6, r6, lsl #1
 815 02ce C3EB0312 		rsb	r2, r3, r3, lsl #4
 816 02d2 0346     		mov	r3, r0
 817 02d4 1344     		add	r3, r3, r2
 818 02d6 0F4A     		ldr	r2, .L99+8
 819 02d8 1344     		add	r3, r3, r2
 820 02da 0B44     		add	r3, r3, r1
 821 02dc 0022     		movs	r2, #0
 822 02de 5A70     		strb	r2, [r3, #1]
 243:.\protocol.c  ****                             side.a.totalsHandle[x][y][z]=0;
 823              		.loc 1 243 0 discriminator 3
 824 02e0 0131     		adds	r1, r1, #1
 825              	.LVL112:
 826 02e2 C9B2     		uxtb	r1, r1
 827              	.LVL113:
 828 02e4 00E0     		b	.L59
 829              	.LVL114:
 830              	.L90:
 831 02e6 0021     		movs	r1, #0
 832              	.L59:
 833              	.LVL115:
 243:.\protocol.c  ****                             side.a.totalsHandle[x][y][z]=0;
 834              		.loc 1 243 0 is_stmt 0 discriminator 1
 835 02e8 0D29     		cmp	r1, #13
 836 02ea ECD9     		bls	.L58
 242:.\protocol.c  ****                         for(z=0;z<14;z++){
 837              		.loc 1 242 0 is_stmt 1 discriminator 2
 838 02ec 0135     		adds	r5, r5, #1
 839              	.LVL116:
 840 02ee EDB2     		uxtb	r5, r5
 841              	.LVL117:
 842 02f0 00E0     		b	.L60
 843              	.LVL118:
 844              	.L91:
 845 02f2 0025     		movs	r5, #0
 846              	.L60:
 847              	.LVL119:
 242:.\protocol.c  ****                         for(z=0;z<14;z++){
 848              		.loc 1 242 0 is_stmt 0 discriminator 1
 849 02f4 022D     		cmp	r5, #2
 850 02f6 F6D9     		bls	.L90
 241:.\protocol.c  ****                 for(x=0;x<4;x++){
 851              		.loc 1 241 0 is_stmt 1 discriminator 2
 852 02f8 0136     		adds	r6, r6, #1
 853              	.LVL120:
 854 02fa F6B2     		uxtb	r6, r6
 855              	.LVL121:
 856 02fc 00E0     		b	.L56
 857              	.LVL122:
 858              	.L89:
 859 02fe 0026     		movs	r6, #0
ARM GAS  C:\Users\RECEPC~1\AppData\Local\Temp\ccnklw4g.s 			page 21


 860              	.L56:
 861              	.LVL123:
 241:.\protocol.c  ****                 for(x=0;x<4;x++){
 862              		.loc 1 241 0 is_stmt 0 discriminator 1
 863 0300 032E     		cmp	r6, #3
 864 0302 F6D9     		bls	.L91
 865 0304 0025     		movs	r5, #0
 866 0306 2F46     		mov	r7, r5
 867 0308 50E0     		b	.L61
 868              	.L100:
 869 030a 00BF     		.align	2
 870              	.L99:
 871 030c 00000000 		.word	Pump_rxBuffer
 872 0310 89888888 		.word	-2004318071
 873 0314 00000000 		.word	side
 874 0318 00000000 		.word	ppux10
 875 031c CDCCCCCC 		.word	-858993459
 876              	.LVL124:
 877              	.L64:
 245:.\protocol.c  ****                         }
 246:.\protocol.c  ****                     }
 247:.\protocol.c  ****                 }
 248:.\protocol.c  ****                 w=0;
 249:.\protocol.c  ****                 for(x=0;x<gradeHandle;x++){
 250:.\protocol.c  ****                     for(y=0;y<=2;y++){
 251:.\protocol.c  ****                         for(z=1;z<=12;z++){
 252:.\protocol.c  ****                             side.a.totalsHandle[x][y][13-z]=(Pump_rxBuffer[w+4]&0x0F)+0x30;
 878              		.loc 1 252 0 is_stmt 1
 879 0320 2B1D     		adds	r3, r5, #4
 880 0322 624A     		ldr	r2, .L101
 881 0324 D05C     		ldrb	r0, [r2, r3]	@ zero_extendqisi2
 882 0326 C6EB061E 		rsb	lr, r6, r6, lsl #4
 883 032a 07EB4703 		add	r3, r7, r7, lsl #1
 884 032e C3EB0312 		rsb	r2, r3, r3, lsl #4
 885 0332 7346     		mov	r3, lr
 886 0334 1344     		add	r3, r3, r2
 887 0336 5E4A     		ldr	r2, .L101+4
 888 0338 1344     		add	r3, r3, r2
 889 033a 5B1A     		subs	r3, r3, r1
 890 033c 00F00F02 		and	r2, r0, #15
 891 0340 3032     		adds	r2, r2, #48
 892 0342 9A73     		strb	r2, [r3, #14]
 253:.\protocol.c  ****                             w++;
 893              		.loc 1 253 0
 894 0344 0135     		adds	r5, r5, #1
 895              	.LVL125:
 896 0346 EDB2     		uxtb	r5, r5
 897              	.LVL126:
 254:.\protocol.c  ****                             if((y==2)&&(z==6)){
 898              		.loc 1 254 0
 899 0348 022E     		cmp	r6, #2
 900 034a 01D1     		bne	.L62
 901              		.loc 1 254 0 is_stmt 0 discriminator 1
 902 034c 0629     		cmp	r1, #6
 903 034e 05D0     		beq	.L63
 904              	.L62:
 251:.\protocol.c  ****                             side.a.totalsHandle[x][y][13-z]=(Pump_rxBuffer[w+4]&0x0F)+0x30;
ARM GAS  C:\Users\RECEPC~1\AppData\Local\Temp\ccnklw4g.s 			page 22


 905              		.loc 1 251 0 is_stmt 1 discriminator 2
 906 0350 0131     		adds	r1, r1, #1
 907              	.LVL127:
 908 0352 C9B2     		uxtb	r1, r1
 909              	.LVL128:
 910 0354 00E0     		b	.L65
 911              	.LVL129:
 912              	.L92:
 913 0356 0121     		movs	r1, #1
 914              	.L65:
 915              	.LVL130:
 251:.\protocol.c  ****                             side.a.totalsHandle[x][y][13-z]=(Pump_rxBuffer[w+4]&0x0F)+0x30;
 916              		.loc 1 251 0 is_stmt 0 discriminator 1
 917 0358 0C29     		cmp	r1, #12
 918 035a E1D9     		bls	.L64
 919              	.L63:
 255:.\protocol.c  ****                                 break;
 256:.\protocol.c  ****                             }
 257:.\protocol.c  ****                         }
 258:.\protocol.c  ****                         w++;
 920              		.loc 1 258 0 is_stmt 1 discriminator 2
 921 035c 0135     		adds	r5, r5, #1
 922              	.LVL131:
 923 035e EDB2     		uxtb	r5, r5
 924              	.LVL132:
 250:.\protocol.c  ****                         for(z=1;z<=12;z++){
 925              		.loc 1 250 0 discriminator 2
 926 0360 0136     		adds	r6, r6, #1
 927              	.LVL133:
 928 0362 F6B2     		uxtb	r6, r6
 929              	.LVL134:
 930 0364 00E0     		b	.L68
 931              	.LVL135:
 932              	.L93:
 933 0366 0026     		movs	r6, #0
 934              	.L68:
 935              	.LVL136:
 250:.\protocol.c  ****                         for(z=1;z<=12;z++){
 936              		.loc 1 250 0 is_stmt 0 discriminator 1
 937 0368 022E     		cmp	r6, #2
 938 036a F4D9     		bls	.L92
 259:.\protocol.c  ****                     }
 260:.\protocol.c  ****                     w=w+9;
 939              		.loc 1 260 0 is_stmt 1
 940 036c 0935     		adds	r5, r5, #9
 941              	.LVL137:
 942 036e EDB2     		uxtb	r5, r5
 943              	.LVL138:
 261:.\protocol.c  ****                     for(z=6;z>=1;z--){
 944              		.loc 1 261 0
 945 0370 0622     		movs	r2, #6
 946 0372 0CE0     		b	.L66
 947              	.LVL139:
 948              	.L67:
 262:.\protocol.c  ****                         side.a.totalsHandle[x][2][z]=side.a.totalsHandle[x][2][z+6];
 949              		.loc 1 262 0 discriminator 3
 950 0374 07EB4703 		add	r3, r7, r7, lsl #1
ARM GAS  C:\Users\RECEPC~1\AppData\Local\Temp\ccnklw4g.s 			page 23


 951 0378 C3EB0313 		rsb	r3, r3, r3, lsl #4
 952 037c 4C49     		ldr	r1, .L101+4
 953 037e 0B44     		add	r3, r3, r1
 954 0380 D118     		adds	r1, r2, r3
 955 0382 91F82510 		ldrb	r1, [r1, #37]	@ zero_extendqisi2
 956 0386 1344     		add	r3, r3, r2
 957 0388 D977     		strb	r1, [r3, #31]
 261:.\protocol.c  ****                     for(z=6;z>=1;z--){
 958              		.loc 1 261 0 discriminator 3
 959 038a 013A     		subs	r2, r2, #1
 960              	.LVL140:
 961 038c D2B2     		uxtb	r2, r2
 962              	.LVL141:
 963              	.L66:
 261:.\protocol.c  ****                     for(z=6;z>=1;z--){
 964              		.loc 1 261 0 is_stmt 0 discriminator 1
 965 038e 002A     		cmp	r2, #0
 966 0390 F0D1     		bne	.L67
 263:.\protocol.c  ****                     }
 264:.\protocol.c  ****                     side.a.totalsHandle[x][0][0]=12;
 967              		.loc 1 264 0 is_stmt 1 discriminator 2
 968 0392 07EB4703 		add	r3, r7, r7, lsl #1
 969 0396 C3EB0313 		rsb	r3, r3, r3, lsl #4
 970 039a 454A     		ldr	r2, .L101+4
 971              	.LVL142:
 972 039c 1344     		add	r3, r3, r2
 973 039e 0C22     		movs	r2, #12
 974 03a0 5A70     		strb	r2, [r3, #1]
 265:.\protocol.c  ****                     side.a.totalsHandle[x][1][0]=12;
 975              		.loc 1 265 0 discriminator 2
 976 03a2 1A74     		strb	r2, [r3, #16]
 266:.\protocol.c  ****                     side.a.totalsHandle[x][2][0]=6;
 977              		.loc 1 266 0 discriminator 2
 978 03a4 0622     		movs	r2, #6
 979 03a6 DA77     		strb	r2, [r3, #31]
 249:.\protocol.c  ****                     for(y=0;y<=2;y++){
 980              		.loc 1 249 0 discriminator 2
 981 03a8 0137     		adds	r7, r7, #1
 982              	.LVL143:
 983 03aa FFB2     		uxtb	r7, r7
 984              	.LVL144:
 985              	.L61:
 249:.\protocol.c  ****                     for(y=0;y<=2;y++){
 986              		.loc 1 249 0 is_stmt 0 discriminator 1
 987 03ac A742     		cmp	r7, r4
 988 03ae DAD3     		bcc	.L93
 267:.\protocol.c  ****                 }
 268:.\protocol.c  ****                 Pump_ClearRxBuffer();
 989              		.loc 1 268 0 is_stmt 1
 990 03b0 FFF7FEFF 		bl	Pump_ClearRxBuffer
 991              	.LVL145:
 269:.\protocol.c  ****                 return gradeHandle;
 992              		.loc 1 269 0
 993 03b4 2046     		mov	r0, r4
 994 03b6 F8BD     		pop	{r3, r4, r5, r6, r7, pc}
 995              	.LVL146:
 996              	.L69:
ARM GAS  C:\Users\RECEPC~1\AppData\Local\Temp\ccnklw4g.s 			page 24


 270:.\protocol.c  ****             }else{
 271:.\protocol.c  ****                 for(x=0;x<4;x++){
 272:.\protocol.c  ****                     for(y=0;y<3;y++){
 273:.\protocol.c  ****                         for(z=0;z<14;z++){
 274:.\protocol.c  ****                             side.b.totalsHandle[x][y][z]=0;
 997              		.loc 1 274 0 discriminator 3
 998 03b8 C5EB0510 		rsb	r0, r5, r5, lsl #4
 999 03bc 06EB4603 		add	r3, r6, r6, lsl #1
 1000 03c0 C3EB0312 		rsb	r2, r3, r3, lsl #4
 1001 03c4 0346     		mov	r3, r0
 1002 03c6 1344     		add	r3, r3, r2
 1003 03c8 394A     		ldr	r2, .L101+4
 1004 03ca 1344     		add	r3, r3, r2
 1005 03cc 0B44     		add	r3, r3, r1
 1006 03ce 0022     		movs	r2, #0
 1007 03d0 83F80921 		strb	r2, [r3, #265]
 273:.\protocol.c  ****                             side.b.totalsHandle[x][y][z]=0;
 1008              		.loc 1 273 0 discriminator 3
 1009 03d4 0131     		adds	r1, r1, #1
 1010              	.LVL147:
 1011 03d6 C9B2     		uxtb	r1, r1
 1012              	.LVL148:
 1013 03d8 00E0     		b	.L70
 1014              	.LVL149:
 1015              	.L94:
 1016 03da 0021     		movs	r1, #0
 1017              	.L70:
 1018              	.LVL150:
 273:.\protocol.c  ****                             side.b.totalsHandle[x][y][z]=0;
 1019              		.loc 1 273 0 is_stmt 0 discriminator 1
 1020 03dc 0D29     		cmp	r1, #13
 1021 03de EBD9     		bls	.L69
 272:.\protocol.c  ****                         for(z=0;z<14;z++){
 1022              		.loc 1 272 0 is_stmt 1 discriminator 2
 1023 03e0 0135     		adds	r5, r5, #1
 1024              	.LVL151:
 1025 03e2 EDB2     		uxtb	r5, r5
 1026              	.LVL152:
 1027 03e4 00E0     		b	.L71
 1028              	.LVL153:
 1029              	.L95:
 1030 03e6 0025     		movs	r5, #0
 1031              	.L71:
 1032              	.LVL154:
 272:.\protocol.c  ****                         for(z=0;z<14;z++){
 1033              		.loc 1 272 0 is_stmt 0 discriminator 1
 1034 03e8 022D     		cmp	r5, #2
 1035 03ea F6D9     		bls	.L94
 271:.\protocol.c  ****                     for(y=0;y<3;y++){
 1036              		.loc 1 271 0 is_stmt 1 discriminator 2
 1037 03ec 0136     		adds	r6, r6, #1
 1038              	.LVL155:
 1039 03ee F6B2     		uxtb	r6, r6
 1040              	.LVL156:
 1041              	.L57:
 271:.\protocol.c  ****                     for(y=0;y<3;y++){
 1042              		.loc 1 271 0 is_stmt 0 discriminator 1
ARM GAS  C:\Users\RECEPC~1\AppData\Local\Temp\ccnklw4g.s 			page 25


 1043 03f0 032E     		cmp	r6, #3
 1044 03f2 F8D9     		bls	.L95
 1045 03f4 0025     		movs	r5, #0
 1046 03f6 2F46     		mov	r7, r5
 1047 03f8 4AE0     		b	.L72
 1048              	.LVL157:
 1049              	.L75:
 275:.\protocol.c  ****                         }
 276:.\protocol.c  ****                     }
 277:.\protocol.c  ****                 }
 278:.\protocol.c  ****                 w=0;
 279:.\protocol.c  ****                 for(x=0;x<gradeHandle;x++){
 280:.\protocol.c  ****                     for(y=0;y<=2;y++){
 281:.\protocol.c  ****                         for(z=1;z<=12;z++){
 282:.\protocol.c  ****                             side.b.totalsHandle[x][y][13-z]=(Pump_rxBuffer[w+4]&0x0F)+0x30;
 1050              		.loc 1 282 0 is_stmt 1
 1051 03fa 2B1D     		adds	r3, r5, #4
 1052 03fc 2B4A     		ldr	r2, .L101
 1053 03fe D05C     		ldrb	r0, [r2, r3]	@ zero_extendqisi2
 1054 0400 C6EB061E 		rsb	lr, r6, r6, lsl #4
 1055 0404 07EB4703 		add	r3, r7, r7, lsl #1
 1056 0408 C3EB0312 		rsb	r2, r3, r3, lsl #4
 1057 040c 7346     		mov	r3, lr
 1058 040e 1344     		add	r3, r3, r2
 1059 0410 274A     		ldr	r2, .L101+4
 1060 0412 1344     		add	r3, r3, r2
 1061 0414 5B1A     		subs	r3, r3, r1
 1062 0416 00F00F02 		and	r2, r0, #15
 1063 041a 3032     		adds	r2, r2, #48
 1064 041c 83F81621 		strb	r2, [r3, #278]
 283:.\protocol.c  ****                             w++;
 1065              		.loc 1 283 0
 1066 0420 0135     		adds	r5, r5, #1
 1067              	.LVL158:
 1068 0422 EDB2     		uxtb	r5, r5
 1069              	.LVL159:
 284:.\protocol.c  ****                             if((y==2)&&(z==6)){
 1070              		.loc 1 284 0
 1071 0424 022E     		cmp	r6, #2
 1072 0426 01D1     		bne	.L73
 1073              		.loc 1 284 0 is_stmt 0 discriminator 1
 1074 0428 0629     		cmp	r1, #6
 1075 042a 05D0     		beq	.L74
 1076              	.L73:
 281:.\protocol.c  ****                             side.b.totalsHandle[x][y][13-z]=(Pump_rxBuffer[w+4]&0x0F)+0x30;
 1077              		.loc 1 281 0 is_stmt 1 discriminator 2
 1078 042c 0131     		adds	r1, r1, #1
 1079              	.LVL160:
 1080 042e C9B2     		uxtb	r1, r1
 1081              	.LVL161:
 1082 0430 00E0     		b	.L76
 1083              	.LVL162:
 1084              	.L96:
 1085 0432 0121     		movs	r1, #1
 1086              	.L76:
 1087              	.LVL163:
 281:.\protocol.c  ****                             side.b.totalsHandle[x][y][13-z]=(Pump_rxBuffer[w+4]&0x0F)+0x30;
ARM GAS  C:\Users\RECEPC~1\AppData\Local\Temp\ccnklw4g.s 			page 26


 1088              		.loc 1 281 0 is_stmt 0 discriminator 1
 1089 0434 0C29     		cmp	r1, #12
 1090 0436 E0D9     		bls	.L75
 1091              	.L74:
 285:.\protocol.c  ****                                 break;
 286:.\protocol.c  ****                             }
 287:.\protocol.c  ****                         }
 288:.\protocol.c  ****                         w++;
 1092              		.loc 1 288 0 is_stmt 1 discriminator 2
 1093 0438 0135     		adds	r5, r5, #1
 1094              	.LVL164:
 1095 043a EDB2     		uxtb	r5, r5
 1096              	.LVL165:
 280:.\protocol.c  ****                         for(z=1;z<=12;z++){
 1097              		.loc 1 280 0 discriminator 2
 1098 043c 0136     		adds	r6, r6, #1
 1099              	.LVL166:
 1100 043e F6B2     		uxtb	r6, r6
 1101              	.LVL167:
 1102 0440 00E0     		b	.L79
 1103              	.LVL168:
 1104              	.L97:
 1105 0442 0026     		movs	r6, #0
 1106              	.L79:
 1107              	.LVL169:
 280:.\protocol.c  ****                         for(z=1;z<=12;z++){
 1108              		.loc 1 280 0 is_stmt 0 discriminator 1
 1109 0444 022E     		cmp	r6, #2
 1110 0446 F4D9     		bls	.L96
 289:.\protocol.c  ****                     }
 290:.\protocol.c  ****                     w=w+9;
 1111              		.loc 1 290 0 is_stmt 1
 1112 0448 0935     		adds	r5, r5, #9
 1113              	.LVL170:
 1114 044a EDB2     		uxtb	r5, r5
 1115              	.LVL171:
 291:.\protocol.c  ****                     for(z=6;z>=1;z--){
 1116              		.loc 1 291 0
 1117 044c 0622     		movs	r2, #6
 1118 044e 0DE0     		b	.L77
 1119              	.LVL172:
 1120              	.L78:
 292:.\protocol.c  ****                         side.b.totalsHandle[x][2][z]=side.b.totalsHandle[x][2][z+6];
 1121              		.loc 1 292 0 discriminator 3
 1122 0450 07EB4703 		add	r3, r7, r7, lsl #1
 1123 0454 C3EB0313 		rsb	r3, r3, r3, lsl #4
 1124 0458 1549     		ldr	r1, .L101+4
 1125 045a 0B44     		add	r3, r3, r1
 1126 045c D118     		adds	r1, r2, r3
 1127 045e 91F82D11 		ldrb	r1, [r1, #301]	@ zero_extendqisi2
 1128 0462 1344     		add	r3, r3, r2
 1129 0464 83F82711 		strb	r1, [r3, #295]
 291:.\protocol.c  ****                     for(z=6;z>=1;z--){
 1130              		.loc 1 291 0 discriminator 3
 1131 0468 013A     		subs	r2, r2, #1
 1132              	.LVL173:
 1133 046a D2B2     		uxtb	r2, r2
ARM GAS  C:\Users\RECEPC~1\AppData\Local\Temp\ccnklw4g.s 			page 27


 1134              	.LVL174:
 1135              	.L77:
 291:.\protocol.c  ****                     for(z=6;z>=1;z--){
 1136              		.loc 1 291 0 is_stmt 0 discriminator 1
 1137 046c 002A     		cmp	r2, #0
 1138 046e EFD1     		bne	.L78
 293:.\protocol.c  ****                     }
 294:.\protocol.c  ****                     side.b.totalsHandle[x][0][0]=12;
 1139              		.loc 1 294 0 is_stmt 1 discriminator 2
 1140 0470 07EB4703 		add	r3, r7, r7, lsl #1
 1141 0474 C3EB0313 		rsb	r3, r3, r3, lsl #4
 1142 0478 0D4A     		ldr	r2, .L101+4
 1143              	.LVL175:
 1144 047a 1344     		add	r3, r3, r2
 1145 047c 0C22     		movs	r2, #12
 1146 047e 83F80921 		strb	r2, [r3, #265]
 295:.\protocol.c  ****                     side.b.totalsHandle[x][1][0]=12;
 1147              		.loc 1 295 0 discriminator 2
 1148 0482 83F81821 		strb	r2, [r3, #280]
 296:.\protocol.c  ****                     side.b.totalsHandle[x][2][0]=6;
 1149              		.loc 1 296 0 discriminator 2
 1150 0486 0622     		movs	r2, #6
 1151 0488 83F82721 		strb	r2, [r3, #295]
 279:.\protocol.c  ****                     for(y=0;y<=2;y++){
 1152              		.loc 1 279 0 discriminator 2
 1153 048c 0137     		adds	r7, r7, #1
 1154              	.LVL176:
 1155 048e FFB2     		uxtb	r7, r7
 1156              	.LVL177:
 1157              	.L72:
 279:.\protocol.c  ****                     for(y=0;y<=2;y++){
 1158              		.loc 1 279 0 is_stmt 0 discriminator 1
 1159 0490 A742     		cmp	r7, r4
 1160 0492 D6D3     		bcc	.L97
 297:.\protocol.c  ****                 }
 298:.\protocol.c  ****                 Pump_ClearRxBuffer();
 1161              		.loc 1 298 0 is_stmt 1
 1162 0494 FFF7FEFF 		bl	Pump_ClearRxBuffer
 1163              	.LVL178:
 299:.\protocol.c  ****                 return gradeHandle;
 1164              		.loc 1 299 0
 1165 0498 2046     		mov	r0, r4
 1166 049a F8BD     		pop	{r3, r4, r5, r6, r7, pc}
 1167              	.LVL179:
 1168              	.L55:
 300:.\protocol.c  ****             }
 301:.\protocol.c  ****         }else{
 302:.\protocol.c  ****             Pump_ClearRxBuffer();
 1169              		.loc 1 302 0
 1170 049c FFF7FEFF 		bl	Pump_ClearRxBuffer
 1171              	.LVL180:
 303:.\protocol.c  ****             return 0;
 1172              		.loc 1 303 0
 1173 04a0 0020     		movs	r0, #0
 1174 04a2 F8BD     		pop	{r3, r4, r5, r6, r7, pc}
 1175              	.LVL181:
 1176              	.L54:
ARM GAS  C:\Users\RECEPC~1\AppData\Local\Temp\ccnklw4g.s 			page 28


 304:.\protocol.c  ****         }
 305:.\protocol.c  ****     }else{
 306:.\protocol.c  ****         Pump_ClearRxBuffer();
 1177              		.loc 1 306 0
 1178 04a4 FFF7FEFF 		bl	Pump_ClearRxBuffer
 1179              	.LVL182:
 307:.\protocol.c  ****         return 0;
 1180              		.loc 1 307 0
 1181 04a8 0020     		movs	r0, #0
 308:.\protocol.c  ****     }
 309:.\protocol.c  ****     Pump_ClearRxBuffer();
 310:.\protocol.c  ****     return 0;
 311:.\protocol.c  **** }
 1182              		.loc 1 311 0
 1183 04aa F8BD     		pop	{r3, r4, r5, r6, r7, pc}
 1184              	.L102:
 1185              		.align	2
 1186              	.L101:
 1187 04ac 00000000 		.word	Pump_rxBuffer
 1188 04b0 00000000 		.word	side
 1189              		.cfi_endproc
 1190              	.LFE65:
 1191              		.size	getTotals, .-getTotals
 1192              		.section	.text.priceChange,"ax",%progbits
 1193              		.align	2
 1194              		.global	priceChange
 1195              		.thumb
 1196              		.thumb_func
 1197              		.type	priceChange, %function
 1198              	priceChange:
 1199              	.LFB66:
 312:.\protocol.c  **** /*
 313:.\protocol.c  **** ***************************************************************************************************
 314:.\protocol.c  **** *                                         uint8 price_change(uint8 pos)
 315:.\protocol.c  **** *
 316:.\protocol.c  **** * Description : 
 317:.\protocol.c  **** *               
 318:.\protocol.c  **** *
 319:.\protocol.c  **** * Argument(s) : none
 320:.\protocol.c  **** *
 321:.\protocol.c  **** * Return(s)   : none
 322:.\protocol.c  **** *
 323:.\protocol.c  **** * Caller(s)   : 
 324:.\protocol.c  **** *
 325:.\protocol.c  **** * Note(s)     : none.
 326:.\protocol.c  **** ***************************************************************************************************
 327:.\protocol.c  **** */
 328:.\protocol.c  **** uint8 priceChange(uint8 pos,uint8 handle,uint8 *value){
 1200              		.loc 1 328 0
 1201              		.cfi_startproc
 1202              		@ args = 0, pretend = 0, frame = 16
 1203              		@ frame_needed = 0, uses_anonymous_args = 0
 1204              	.LVL183:
 1205 0000 F0B5     		push	{r4, r5, r6, r7, lr}
 1206              		.cfi_def_cfa_offset 20
 1207              		.cfi_offset 4, -20
 1208              		.cfi_offset 5, -16
ARM GAS  C:\Users\RECEPC~1\AppData\Local\Temp\ccnklw4g.s 			page 29


 1209              		.cfi_offset 6, -12
 1210              		.cfi_offset 7, -8
 1211              		.cfi_offset 14, -4
 1212 0002 85B0     		sub	sp, sp, #20
 1213              		.cfi_def_cfa_offset 40
 1214 0004 0446     		mov	r4, r0
 1215 0006 0E46     		mov	r6, r1
 1216 0008 1546     		mov	r5, r2
 329:.\protocol.c  **** 	uint8 buffer[15]={0xFF,0,0xF4,0xF6,0,0xF7,0,0,0,0,0,0,0,0,0},size,x,y;
 1217              		.loc 1 329 0
 1218 000a 714F     		ldr	r7, .L132
 1219 000c 6B46     		mov	r3, sp
 1220 000e 3868     		ldr	r0, [r7]	@ unaligned
 1221              	.LVL184:
 1222 0010 7968     		ldr	r1, [r7, #4]	@ unaligned
 1223              	.LVL185:
 1224 0012 BA68     		ldr	r2, [r7, #8]	@ unaligned
 1225              	.LVL186:
 1226 0014 07C3     		stmia	r3!, {r0, r1, r2}
 1227 0016 B989     		ldrh	r1, [r7, #12]	@ unaligned
 1228 0018 BA7B     		ldrb	r2, [r7, #14]	@ zero_extendqisi2
 1229 001a 1980     		strh	r1, [r3]	@ unaligned
 1230 001c 9A70     		strb	r2, [r3, #2]
 1231              	.LVL187:
 330:.\protocol.c  ****     for(x=1;x<=6;x++){
 1232              		.loc 1 330 0
 1233 001e 0123     		movs	r3, #1
 1234 0020 10E0     		b	.L104
 1235              	.LVL188:
 1236              	.L109:
 331:.\protocol.c  ****         if(value[x]==','){
 1237              		.loc 1 331 0
 1238 0022 EA5C     		ldrb	r2, [r5, r3]	@ zero_extendqisi2
 1239 0024 2C2A     		cmp	r2, #44
 1240 0026 0BD1     		bne	.L105
 1241 0028 05E0     		b	.L106
 1242              	.LVL189:
 1243              	.L107:
 332:.\protocol.c  ****             for(y=x;y>=2;y--){
 333:.\protocol.c  ****                 value[y]=value[y-1];
 1244              		.loc 1 333 0 discriminator 3
 1245 002a EA18     		adds	r2, r5, r3
 1246 002c 12F8012C 		ldrb	r2, [r2, #-1]	@ zero_extendqisi2
 1247 0030 EA54     		strb	r2, [r5, r3]
 332:.\protocol.c  ****             for(y=x;y>=2;y--){
 1248              		.loc 1 332 0 discriminator 3
 1249 0032 013B     		subs	r3, r3, #1
 1250              	.LVL190:
 1251 0034 DBB2     		uxtb	r3, r3
 1252              	.LVL191:
 1253              	.L106:
 332:.\protocol.c  ****             for(y=x;y>=2;y--){
 1254              		.loc 1 332 0 is_stmt 0 discriminator 1
 1255 0036 012B     		cmp	r3, #1
 1256 0038 F7D8     		bhi	.L107
 334:.\protocol.c  ****             }
 335:.\protocol.c  ****             value[1]='0';
ARM GAS  C:\Users\RECEPC~1\AppData\Local\Temp\ccnklw4g.s 			page 30


 1257              		.loc 1 335 0 is_stmt 1
 1258 003a 3023     		movs	r3, #48
 1259              	.LVL192:
 1260 003c 6B70     		strb	r3, [r5, #1]
 336:.\protocol.c  ****             break;
 1261              		.loc 1 336 0
 1262 003e 03E0     		b	.L108
 1263              	.LVL193:
 1264              	.L105:
 330:.\protocol.c  ****         if(value[x]==','){
 1265              		.loc 1 330 0 discriminator 2
 1266 0040 0133     		adds	r3, r3, #1
 1267              	.LVL194:
 1268 0042 DBB2     		uxtb	r3, r3
 1269              	.LVL195:
 1270              	.L104:
 330:.\protocol.c  ****         if(value[x]==','){
 1271              		.loc 1 330 0 is_stmt 0 discriminator 1
 1272 0044 062B     		cmp	r3, #6
 1273 0046 ECD9     		bls	.L109
 1274              	.LVL196:
 1275              	.L108:
 337:.\protocol.c  ****         }
 338:.\protocol.c  ****     }
 339:.\protocol.c  **** 	if(digits!=7){
 1276              		.loc 1 339 0 is_stmt 1
 1277 0048 624B     		ldr	r3, .L132+4
 1278 004a 1B78     		ldrb	r3, [r3]	@ zero_extendqisi2
 1279 004c 072B     		cmp	r3, #7
 1280 004e 4CD0     		beq	.L110
 340:.\protocol.c  **** 		buffer[1]=0xE5;
 1281              		.loc 1 340 0
 1282 0050 E523     		movs	r3, #229
 1283 0052 8DF80130 		strb	r3, [sp, #1]
 341:.\protocol.c  **** 		buffer[4]=(0xE0|((handle&0x0f)));
 1284              		.loc 1 341 0
 1285 0056 06F00F03 		and	r3, r6, #15
 1286 005a 63F01F03 		orn	r3, r3, #31
 1287 005e 8DF80430 		strb	r3, [sp, #4]
 342:.\protocol.c  **** 		if(ppux10==0){
 1288              		.loc 1 342 0
 1289 0062 5D4B     		ldr	r3, .L132+8
 1290 0064 1B78     		ldrb	r3, [r3]	@ zero_extendqisi2
 1291 0066 13F0FF0F 		tst	r3, #255
 1292 006a 0DD0     		beq	.L126
 1293 006c 0023     		movs	r3, #0
 1294 006e 1AE0     		b	.L112
 1295              	.LVL197:
 1296              	.L113:
 343:.\protocol.c  **** 			for(x=0;x<4;x++){
 344:.\protocol.c  **** 				buffer[6+x]=(0xE0|(value[x]&0x0F));
 1297              		.loc 1 344 0 discriminator 3
 1298 0070 EA5C     		ldrb	r2, [r5, r3]	@ zero_extendqisi2
 1299 0072 04A9     		add	r1, sp, #16
 1300 0074 1944     		add	r1, r1, r3
 1301 0076 02F00F02 		and	r2, r2, #15
 1302 007a 62F01F02 		orn	r2, r2, #31
ARM GAS  C:\Users\RECEPC~1\AppData\Local\Temp\ccnklw4g.s 			page 31


 1303 007e 01F80A2C 		strb	r2, [r1, #-10]
 343:.\protocol.c  **** 			for(x=0;x<4;x++){
 1304              		.loc 1 343 0 discriminator 3
 1305 0082 0133     		adds	r3, r3, #1
 1306              	.LVL198:
 1307 0084 DBB2     		uxtb	r3, r3
 1308              	.LVL199:
 1309 0086 00E0     		b	.L111
 1310              	.LVL200:
 1311              	.L126:
 1312 0088 0023     		movs	r3, #0
 1313              	.L111:
 1314              	.LVL201:
 343:.\protocol.c  **** 			for(x=0;x<4;x++){
 1315              		.loc 1 343 0 is_stmt 0 discriminator 1
 1316 008a 032B     		cmp	r3, #3
 1317 008c F0D9     		bls	.L113
 1318 008e 0CE0     		b	.L114
 1319              	.L115:
 345:.\protocol.c  **** 			}
 346:.\protocol.c  **** 		}else{
 347:.\protocol.c  ****             for(x=0;x<3;x++){
 348:.\protocol.c  **** 				buffer[6+x]=(0xE0|(value[x]&0x0F));
 1320              		.loc 1 348 0 is_stmt 1 discriminator 3
 1321 0090 EA5C     		ldrb	r2, [r5, r3]	@ zero_extendqisi2
 1322 0092 04A9     		add	r1, sp, #16
 1323 0094 1944     		add	r1, r1, r3
 1324 0096 02F00F02 		and	r2, r2, #15
 1325 009a 62F01F02 		orn	r2, r2, #31
 1326 009e 01F80A2C 		strb	r2, [r1, #-10]
 347:.\protocol.c  **** 				buffer[6+x]=(0xE0|(value[x]&0x0F));
 1327              		.loc 1 347 0 discriminator 3
 1328 00a2 0133     		adds	r3, r3, #1
 1329              	.LVL202:
 1330 00a4 DBB2     		uxtb	r3, r3
 1331              	.LVL203:
 1332              	.L112:
 347:.\protocol.c  **** 				buffer[6+x]=(0xE0|(value[x]&0x0F));
 1333              		.loc 1 347 0 is_stmt 0 discriminator 1
 1334 00a6 022B     		cmp	r3, #2
 1335 00a8 F2D9     		bls	.L115
 1336              	.L114:
 349:.\protocol.c  **** 			}	
 350:.\protocol.c  **** 		}
 351:.\protocol.c  **** 		buffer[10]=0xFB;
 1337              		.loc 1 351 0 is_stmt 1
 1338 00aa FB23     		movs	r3, #251
 1339              	.LVL204:
 1340 00ac 8DF80A30 		strb	r3, [sp, #10]
 1341              	.LVL205:
 352:.\protocol.c  **** 		for(x=0;x<=10;x++){
 1342              		.loc 1 352 0
 1343 00b0 0023     		movs	r3, #0
 1344 00b2 0CE0     		b	.L116
 1345              	.LVL206:
 1346              	.L117:
 353:.\protocol.c  **** 			buffer[11]+=(buffer[x]&0x0F);	
ARM GAS  C:\Users\RECEPC~1\AppData\Local\Temp\ccnklw4g.s 			page 32


 1347              		.loc 1 353 0 discriminator 3
 1348 00b4 04AA     		add	r2, sp, #16
 1349 00b6 1A44     		add	r2, r2, r3
 1350 00b8 12F8102C 		ldrb	r2, [r2, #-16]	@ zero_extendqisi2
 1351 00bc 02F00F02 		and	r2, r2, #15
 1352 00c0 9DF80B10 		ldrb	r1, [sp, #11]	@ zero_extendqisi2
 1353 00c4 0A44     		add	r2, r2, r1
 1354 00c6 8DF80B20 		strb	r2, [sp, #11]
 352:.\protocol.c  **** 		for(x=0;x<=10;x++){
 1355              		.loc 1 352 0 discriminator 3
 1356 00ca 0133     		adds	r3, r3, #1
 1357              	.LVL207:
 1358 00cc DBB2     		uxtb	r3, r3
 1359              	.LVL208:
 1360              	.L116:
 352:.\protocol.c  **** 		for(x=0;x<=10;x++){
 1361              		.loc 1 352 0 is_stmt 0 discriminator 1
 1362 00ce 0A2B     		cmp	r3, #10
 1363 00d0 F0D9     		bls	.L117
 354:.\protocol.c  **** 		}
 355:.\protocol.c  **** 		buffer[11]=(((~buffer[11])+1)&0x0F)|0xE0;
 1364              		.loc 1 355 0 is_stmt 1
 1365 00d2 9DF80B30 		ldrb	r3, [sp, #11]	@ zero_extendqisi2
 1366              	.LVL209:
 1367 00d6 5B42     		negs	r3, r3
 1368 00d8 03F00F03 		and	r3, r3, #15
 1369 00dc 63F01F03 		orn	r3, r3, #31
 1370 00e0 8DF80B30 		strb	r3, [sp, #11]
 356:.\protocol.c  **** 		buffer[12]=0xF0;
 1371              		.loc 1 356 0
 1372 00e4 F023     		movs	r3, #240
 1373 00e6 8DF80C30 		strb	r3, [sp, #12]
 1374              	.LVL210:
 1375              	.L110:
 357:.\protocol.c  **** 		size=12;
 358:.\protocol.c  **** 	}
 359:.\protocol.c  **** 	if(digits==7){
 1376              		.loc 1 359 0
 1377 00ea 3A4B     		ldr	r3, .L132+4
 1378 00ec 1B78     		ldrb	r3, [r3]	@ zero_extendqisi2
 1379 00ee 072B     		cmp	r3, #7
 1380 00f0 39D1     		bne	.L127
 360:.\protocol.c  **** 		buffer[1]=0xE3;
 1381              		.loc 1 360 0
 1382 00f2 E323     		movs	r3, #227
 1383 00f4 8DF80130 		strb	r3, [sp, #1]
 361:.\protocol.c  **** 		buffer[4]=(0xE0|((handle&0x0f)));	
 1384              		.loc 1 361 0
 1385 00f8 06F00F06 		and	r6, r6, #15
 1386 00fc 66F01F06 		orn	r6, r6, #31
 1387 0100 8DF80460 		strb	r6, [sp, #4]
 1388              	.LVL211:
 362:.\protocol.c  ****         for(x=0;x<6;x++){
 1389              		.loc 1 362 0
 1390 0104 0023     		movs	r3, #0
 1391 0106 0AE0     		b	.L119
 1392              	.LVL212:
ARM GAS  C:\Users\RECEPC~1\AppData\Local\Temp\ccnklw4g.s 			page 33


 1393              	.L120:
 363:.\protocol.c  ****             buffer[6+x]=(0xE0|(value[x]&0x0F));
 1394              		.loc 1 363 0 discriminator 3
 1395 0108 EA5C     		ldrb	r2, [r5, r3]	@ zero_extendqisi2
 1396 010a 04A9     		add	r1, sp, #16
 1397 010c 1944     		add	r1, r1, r3
 1398 010e 02F00F02 		and	r2, r2, #15
 1399 0112 62F01F02 		orn	r2, r2, #31
 1400 0116 01F80A2C 		strb	r2, [r1, #-10]
 362:.\protocol.c  ****         for(x=0;x<6;x++){
 1401              		.loc 1 362 0 discriminator 3
 1402 011a 0133     		adds	r3, r3, #1
 1403              	.LVL213:
 1404 011c DBB2     		uxtb	r3, r3
 1405              	.LVL214:
 1406              	.L119:
 362:.\protocol.c  ****         for(x=0;x<6;x++){
 1407              		.loc 1 362 0 is_stmt 0 discriminator 1
 1408 011e 052B     		cmp	r3, #5
 1409 0120 F2D9     		bls	.L120
 364:.\protocol.c  ****         }	
 365:.\protocol.c  **** 		buffer[12]=0xFB;
 1410              		.loc 1 365 0 is_stmt 1
 1411 0122 FB23     		movs	r3, #251
 1412              	.LVL215:
 1413 0124 8DF80C30 		strb	r3, [sp, #12]
 1414              	.LVL216:
 366:.\protocol.c  **** 		for(x=0;x<=12;x++){
 1415              		.loc 1 366 0
 1416 0128 0023     		movs	r3, #0
 1417 012a 0CE0     		b	.L121
 1418              	.LVL217:
 1419              	.L122:
 367:.\protocol.c  **** 			buffer[13]+=(buffer[x]&0x0F);	
 1420              		.loc 1 367 0 discriminator 3
 1421 012c 04AA     		add	r2, sp, #16
 1422 012e 1A44     		add	r2, r2, r3
 1423 0130 12F8102C 		ldrb	r2, [r2, #-16]	@ zero_extendqisi2
 1424 0134 02F00F02 		and	r2, r2, #15
 1425 0138 9DF80D10 		ldrb	r1, [sp, #13]	@ zero_extendqisi2
 1426 013c 0A44     		add	r2, r2, r1
 1427 013e 8DF80D20 		strb	r2, [sp, #13]
 366:.\protocol.c  **** 		for(x=0;x<=12;x++){
 1428              		.loc 1 366 0 discriminator 3
 1429 0142 0133     		adds	r3, r3, #1
 1430              	.LVL218:
 1431 0144 DBB2     		uxtb	r3, r3
 1432              	.LVL219:
 1433              	.L121:
 366:.\protocol.c  **** 		for(x=0;x<=12;x++){
 1434              		.loc 1 366 0 is_stmt 0 discriminator 1
 1435 0146 0C2B     		cmp	r3, #12
 1436 0148 F0D9     		bls	.L122
 368:.\protocol.c  **** 		}
 369:.\protocol.c  **** 		buffer[13]=(((~buffer[13])+1)&0x0F)|0xE0;
 1437              		.loc 1 369 0 is_stmt 1
 1438 014a 9DF80D30 		ldrb	r3, [sp, #13]	@ zero_extendqisi2
ARM GAS  C:\Users\RECEPC~1\AppData\Local\Temp\ccnklw4g.s 			page 34


 1439              	.LVL220:
 1440 014e 5B42     		negs	r3, r3
 1441 0150 03F00F03 		and	r3, r3, #15
 1442 0154 63F01F03 		orn	r3, r3, #31
 1443 0158 8DF80D30 		strb	r3, [sp, #13]
 370:.\protocol.c  **** 		buffer[14]=0xF0;
 1444              		.loc 1 370 0
 1445 015c F023     		movs	r3, #240
 1446 015e 8DF80E30 		strb	r3, [sp, #14]
 1447              	.LVL221:
 371:.\protocol.c  **** 		size=14;
 1448              		.loc 1 371 0
 1449 0162 0E26     		movs	r6, #14
 1450 0164 00E0     		b	.L118
 1451              	.LVL222:
 1452              	.L127:
 1453 0166 0C26     		movs	r6, #12
 1454              	.LVL223:
 1455              	.L118:
 372:.\protocol.c  **** 	}	
 373:.\protocol.c  ****     Pump_ClearRxBuffer();
 1456              		.loc 1 373 0
 1457 0168 FFF7FEFF 		bl	Pump_ClearRxBuffer
 1458              	.LVL224:
 374:.\protocol.c  **** 	Pump_PutChar(0x20|pos);	
 1459              		.loc 1 374 0
 1460 016c 44F02000 		orr	r0, r4, #32
 1461 0170 FFF7FEFF 		bl	Pump_PutChar
 1462              	.LVL225:
 375:.\protocol.c  ****     CyDelay(100);
 1463              		.loc 1 375 0
 1464 0174 6420     		movs	r0, #100
 1465 0176 FFF7FEFF 		bl	CyDelay
 1466              	.LVL226:
 376:.\protocol.c  ****     if(Pump_GetRxBufferSize()>=1){
 1467              		.loc 1 376 0
 1468 017a FFF7FEFF 		bl	Pump_GetRxBufferSize
 1469              	.LVL227:
 1470 017e F0B1     		cbz	r0, .L128
 377:.\protocol.c  **** 		if(Pump_ReadRxData()==(0xD0|pos)){
 1471              		.loc 1 377 0
 1472 0180 FFF7FEFF 		bl	Pump_ReadRxData
 1473              	.LVL228:
 1474 0184 44F0D003 		orr	r3, r4, #208
 1475 0188 9842     		cmp	r0, r3
 1476 018a 1AD1     		bne	.L129
 378:.\protocol.c  ****             Pump_ClearRxBuffer();
 1477              		.loc 1 378 0
 1478 018c FFF7FEFF 		bl	Pump_ClearRxBuffer
 1479              	.LVL229:
 379:.\protocol.c  ****             for(x=0;x<=size;x++){
 1480              		.loc 1 379 0
 1481 0190 0025     		movs	r5, #0
 1482              	.LVL230:
 1483 0192 07E0     		b	.L124
 1484              	.LVL231:
 1485              	.L125:
ARM GAS  C:\Users\RECEPC~1\AppData\Local\Temp\ccnklw4g.s 			page 35


 380:.\protocol.c  ****                	Pump_PutChar(buffer[x]); 	
 1486              		.loc 1 380 0 discriminator 3
 1487 0194 04AB     		add	r3, sp, #16
 1488 0196 2B44     		add	r3, r3, r5
 1489 0198 13F8100C 		ldrb	r0, [r3, #-16]	@ zero_extendqisi2
 1490 019c FFF7FEFF 		bl	Pump_PutChar
 1491              	.LVL232:
 379:.\protocol.c  ****             for(x=0;x<=size;x++){
 1492              		.loc 1 379 0 discriminator 3
 1493 01a0 0135     		adds	r5, r5, #1
 1494              	.LVL233:
 1495 01a2 EDB2     		uxtb	r5, r5
 1496              	.LVL234:
 1497              	.L124:
 379:.\protocol.c  ****             for(x=0;x<=size;x++){
 1498              		.loc 1 379 0 is_stmt 0 discriminator 1
 1499 01a4 B542     		cmp	r5, r6
 1500 01a6 F5D9     		bls	.L125
 381:.\protocol.c  ****             }
 382:.\protocol.c  ****             Pump_ClearRxBuffer();
 1501              		.loc 1 382 0 is_stmt 1
 1502 01a8 FFF7FEFF 		bl	Pump_ClearRxBuffer
 1503              	.LVL235:
 383:.\protocol.c  **** 			CyDelay(50);
 1504              		.loc 1 383 0
 1505 01ac 3220     		movs	r0, #50
 1506 01ae FFF7FEFF 		bl	CyDelay
 1507              	.LVL236:
 384:.\protocol.c  **** 			if(get_state(pos)==0){
 1508              		.loc 1 384 0
 1509 01b2 2046     		mov	r0, r4
 1510 01b4 FFF7FEFF 		bl	get_state
 1511              	.LVL237:
 1512 01b8 0346     		mov	r3, r0
 1513 01ba 20B9     		cbnz	r0, .L130
 1514 01bc 04E0     		b	.L123
 1515              	.LVL238:
 1516              	.L128:
 385:.\protocol.c  **** 				return 0;
 386:.\protocol.c  **** 			}
 387:.\protocol.c  **** 			else{
 388:.\protocol.c  **** 				return 1;
 389:.\protocol.c  **** 			}
 390:.\protocol.c  **** 		}
 391:.\protocol.c  **** 		else{
 392:.\protocol.c  **** 			return 0;
 393:.\protocol.c  **** 		}
 394:.\protocol.c  **** 	}
 395:.\protocol.c  **** 	else{
 396:.\protocol.c  **** 		return 0;	
 1517              		.loc 1 396 0
 1518 01be 0023     		movs	r3, #0
 1519 01c0 02E0     		b	.L123
 1520              	.L129:
 392:.\protocol.c  **** 		}
 1521              		.loc 1 392 0
 1522 01c2 0023     		movs	r3, #0
ARM GAS  C:\Users\RECEPC~1\AppData\Local\Temp\ccnklw4g.s 			page 36


 1523 01c4 00E0     		b	.L123
 1524              	.LVL239:
 1525              	.L130:
 388:.\protocol.c  **** 			}
 1526              		.loc 1 388 0
 1527 01c6 0123     		movs	r3, #1
 1528              	.LVL240:
 1529              	.L123:
 397:.\protocol.c  **** 	}
 398:.\protocol.c  **** }
 1530              		.loc 1 398 0
 1531 01c8 1846     		mov	r0, r3
 1532 01ca 05B0     		add	sp, sp, #20
 1533              		.cfi_def_cfa_offset 20
 1534              		@ sp needed
 1535 01cc F0BD     		pop	{r4, r5, r6, r7, pc}
 1536              	.LVL241:
 1537              	.L133:
 1538 01ce 00BF     		.align	2
 1539              	.L132:
 1540 01d0 00000000 		.word	.LANCHOR0
 1541 01d4 00000000 		.word	digits
 1542 01d8 00000000 		.word	ppux10
 1543              		.cfi_endproc
 1544              	.LFE66:
 1545              		.size	priceChange, .-priceChange
 1546              		.section	.text.getSale,"ax",%progbits
 1547              		.align	2
 1548              		.global	getSale
 1549              		.thumb
 1550              		.thumb_func
 1551              		.type	getSale, %function
 1552              	getSale:
 1553              	.LFB70:
 399:.\protocol.c  **** 
 400:.\protocol.c  **** /*
 401:.\protocol.c  **** ***************************************************************************************************
 402:.\protocol.c  **** *                  uint8 preset_data(uint8 pos, uint8 grade, uint8 *value, uint8 preset)
 403:.\protocol.c  **** *
 404:.\protocol.c  **** * Description : 
 405:.\protocol.c  **** *               
 406:.\protocol.c  **** *
 407:.\protocol.c  **** * Argument(s) : none
 408:.\protocol.c  **** *
 409:.\protocol.c  **** * Return(s)   : none
 410:.\protocol.c  **** *
 411:.\protocol.c  **** * Caller(s)   : 
 412:.\protocol.c  **** *
 413:.\protocol.c  **** * Note(s)     : none.
 414:.\protocol.c  **** ***************************************************************************************************
 415:.\protocol.c  **** */
 416:.\protocol.c  **** uint8 PresetData(uint8 sideR, char8 grade, uint8 *value, uint8 preset){
 417:.\protocol.c  ****     char8 SendComand[18]={0,0,0,0,0,0,0,0,0,0,0,0,0,0,0,0,0,0};
 418:.\protocol.c  ****     uint8 state,x,y,z;    
 419:.\protocol.c  ****     char8 PumpDataReceive =0;
 420:.\protocol.c  ****     x = 0;
 421:.\protocol.c  ****     z = 0;
ARM GAS  C:\Users\RECEPC~1\AppData\Local\Temp\ccnklw4g.s 			page 37


 422:.\protocol.c  ****     preset = 0;
 423:.\protocol.c  ****     state = get_state(sideR);
 424:.\protocol.c  ****     if(state == 0x06 || state == 0x07){
 425:.\protocol.c  ****         Pump_PutChar(0x20|sideR);
 426:.\protocol.c  ****         CyDelay(50);
 427:.\protocol.c  ****         PumpDataReceive = Pump_ReadRxData();
 428:.\protocol.c  ****     }
 429:.\protocol.c  ****     Pump_ClearRxBuffer();
 430:.\protocol.c  ****     Pump_ClearRxBuffer();
 431:.\protocol.c  ****     if(PumpDataReceive == (0xd0|sideR)){
 432:.\protocol.c  ****         SendComand[x] = SOM; x++;
 433:.\protocol.c  ****         SendComand[x] = 0xE1; x++;
 434:.\protocol.c  ****         if(sideR == side.a.dir){
 435:.\protocol.c  ****             SendComand[x] = 0xF0 | (bufferDisplay1.presetType[0]&0x0F); x++;
 436:.\protocol.c  ****             SendComand[x] = 0xF6; x++;
 437:.\protocol.c  ****             SendComand[x] = 0xE0 | ((grade-1)&0x0F); x++;
 438:.\protocol.c  ****             SendComand[x] = PRDn; x++;
 439:.\protocol.c  ****             if(bufferDisplay1.presetType[1] == 'F'){
 440:.\protocol.c  ****                 for(y = x; y < digits+x; y ++ ){
 441:.\protocol.c  ****                     SendComand[y] = 0xE9;                    
 442:.\protocol.c  ****                 }                
 443:.\protocol.c  ****                 x = y;
 444:.\protocol.c  ****                 for(y = x; y < 14; y ++ ){
 445:.\protocol.c  ****                     SendComand[y] = 0xE0;
 446:.\protocol.c  ****                     x++;
 447:.\protocol.c  ****                 }                
 448:.\protocol.c  ****             }
 449:.\protocol.c  ****             if(bufferDisplay1.presetType[1] == 'D'){
 450:.\protocol.c  ****                 z = value[0];
 451:.\protocol.c  ****                 for(y = x; y < value[0]+x; y ++ ){
 452:.\protocol.c  ****                     SendComand[y] = 0xE0|(value[z]&0x0F); z--;                    
 453:.\protocol.c  ****                 }                
 454:.\protocol.c  ****                 x = y;
 455:.\protocol.c  ****                 for(y = x; y < 14; y ++ ){
 456:.\protocol.c  ****                     SendComand[y] = 0xE0;
 457:.\protocol.c  ****                     x++;
 458:.\protocol.c  ****                 }                
 459:.\protocol.c  ****             }
 460:.\protocol.c  ****             if(bufferDisplay1.presetType[1] == 'V'){
 461:.\protocol.c  ****                 z = value[0];
 462:.\protocol.c  ****                 for(y = x; y < value[0]+x; y ++ ){
 463:.\protocol.c  ****                     SendComand[y] = 0xE0|(value[z]&0x0F); z--;                    
 464:.\protocol.c  ****                 }                
 465:.\protocol.c  ****                 x = y;
 466:.\protocol.c  ****                 for(y = x; y < 14; y ++ ){
 467:.\protocol.c  ****                     SendComand[y] = 0xE0;
 468:.\protocol.c  ****                     x++;
 469:.\protocol.c  ****                 }                
 470:.\protocol.c  ****             }
 471:.\protocol.c  ****             SendComand[x] = 0xFB;  x++;
 472:.\protocol.c  ****             SendComand[x] = GetLRC(SendComand);  x++;
 473:.\protocol.c  ****             SendComand[x] = (EOM);
 474:.\protocol.c  ****             for(y=0; y<=x;y++){
 475:.\protocol.c  ****                 Pump_PutChar(SendComand[y]);
 476:.\protocol.c  ****             } 
 477:.\protocol.c  ****             CyDelay(50);
 478:.\protocol.c  ****             return 1;
ARM GAS  C:\Users\RECEPC~1\AppData\Local\Temp\ccnklw4g.s 			page 38


 479:.\protocol.c  ****         }
 480:.\protocol.c  ****         if(sideR == side.b.dir){
 481:.\protocol.c  ****             SendComand[x] = 0xF0 | (bufferDisplay2.presetType[0]&0x0F); x++;
 482:.\protocol.c  ****             SendComand[x] = 0xF6; x++;
 483:.\protocol.c  ****             SendComand[x] = 0xE0 | ((grade-1)&0x0F); x++;
 484:.\protocol.c  ****             SendComand[x] = PRDn; x++;
 485:.\protocol.c  ****             if(bufferDisplay2.presetType[1] == 'F'){
 486:.\protocol.c  ****                 for(y = x; y < digits+x; y ++ ){
 487:.\protocol.c  ****                     SendComand[y] = 0xE9;                    
 488:.\protocol.c  ****                 }                
 489:.\protocol.c  ****                 x = y;
 490:.\protocol.c  ****                 for(y = x; y < 14; y ++ ){
 491:.\protocol.c  ****                     SendComand[y] = 0xE0;
 492:.\protocol.c  ****                     x++;
 493:.\protocol.c  ****                 }                
 494:.\protocol.c  ****             }
 495:.\protocol.c  ****             if(bufferDisplay2.presetType[1] == 'D'){
 496:.\protocol.c  ****                 z = value[0];
 497:.\protocol.c  ****                 for(y = x; y < value[0]+x; y ++ ){
 498:.\protocol.c  ****                     SendComand[y] = 0xE0|(value[z]&0x0F); z--;                    
 499:.\protocol.c  ****                 }                
 500:.\protocol.c  ****                 x = y;
 501:.\protocol.c  ****                 for(y = x; y < 14; y ++ ){
 502:.\protocol.c  ****                     SendComand[y] = 0xE0;
 503:.\protocol.c  ****                     x++;
 504:.\protocol.c  ****                 }                
 505:.\protocol.c  ****             }
 506:.\protocol.c  ****             if(bufferDisplay2.presetType[1] == 'V'){
 507:.\protocol.c  ****                 z = value[0];
 508:.\protocol.c  ****                 for(y = x; y < value[0]+x; y ++ ){
 509:.\protocol.c  ****                     SendComand[y] = 0xE0|(value[z]&0x0F); z--;                    
 510:.\protocol.c  ****                 }                
 511:.\protocol.c  ****                 x = y;
 512:.\protocol.c  ****                 for(y = x; y < 14; y ++ ){
 513:.\protocol.c  ****                     SendComand[y] = 0xE0;
 514:.\protocol.c  ****                     x++;
 515:.\protocol.c  ****                 }                
 516:.\protocol.c  ****             }
 517:.\protocol.c  ****             SendComand[x] = 0xFB;  x++;
 518:.\protocol.c  ****             SendComand[x] = GetLRC(SendComand);  x++;
 519:.\protocol.c  ****             SendComand[x] = (EOM);
 520:.\protocol.c  ****             for(y=0; y<=x;y++){
 521:.\protocol.c  ****                 Pump_PutChar(SendComand[y]);
 522:.\protocol.c  ****             } 
 523:.\protocol.c  ****             CyDelay(50);
 524:.\protocol.c  ****             return 1;
 525:.\protocol.c  ****         }
 526:.\protocol.c  ****     }
 527:.\protocol.c  ****     return 0;
 528:.\protocol.c  **** }
 529:.\protocol.c  **** 
 530:.\protocol.c  **** 
 531:.\protocol.c  **** 
 532:.\protocol.c  **** uint8 PumpCompleteConfiguration( uint8 side){   
 533:.\protocol.c  ****     uint8 state,x;
 534:.\protocol.c  ****     char8 SendComand[9];
 535:.\protocol.c  ****     char8 PumpDataReceive =0;    
ARM GAS  C:\Users\RECEPC~1\AppData\Local\Temp\ccnklw4g.s 			page 39


 536:.\protocol.c  ****     
 537:.\protocol.c  ****     uint8 BufferSize = 0;
 538:.\protocol.c  **** ///////////////////////////////////////////////////////////////////////////////////////////////////
 539:.\protocol.c  ****     state = get_state(side);
 540:.\protocol.c  ****     if(state == 0x06){
 541:.\protocol.c  ****         Pump_PutChar(0x20|side);
 542:.\protocol.c  ****         CyDelay(50);
 543:.\protocol.c  ****         PumpDataReceive = Pump_ReadRxData();
 544:.\protocol.c  ****     }
 545:.\protocol.c  ****     Pump_ClearRxBuffer();
 546:.\protocol.c  ****     if(PumpDataReceive == (0xd0|side)){    
 547:.\protocol.c  ****         SendComand[0] = SOM; //Start Of Message    
 548:.\protocol.c  ****         SendComand[1] = (0xE9);//Data Length
 549:.\protocol.c  ****         SendComand[2] = (0xFE);//Special Functions Next (0xB0 0xB0 0xBE)
 550:.\protocol.c  ****         SendComand[3] = (0xEE);//Complete Pump Configuration Request (sf1)
 551:.\protocol.c  ****         SendComand[4] = (0xE0);//Complete Pump Configuration Request (sf2)
 552:.\protocol.c  ****         SendComand[5] = (0xE0);//Complete Pump Configuration Request (sf3)
 553:.\protocol.c  ****         SendComand[6] = (0xFB);
 554:.\protocol.c  ****         SendComand[7] = GetLRC(SendComand);
 555:.\protocol.c  ****         SendComand[8] = (EOM);
 556:.\protocol.c  ****         for(x=0; x<=8;x++){
 557:.\protocol.c  ****             Pump_PutChar(SendComand[x]);
 558:.\protocol.c  ****         } 
 559:.\protocol.c  ****         CyDelay(200);
 560:.\protocol.c  ****     }
 561:.\protocol.c  ****     BufferSize =Pump_GetRxBufferSize();
 562:.\protocol.c  ****     char8 buffer[BufferSize];
 563:.\protocol.c  ****     for(x=0;x<=BufferSize;x++){
 564:.\protocol.c  ****        buffer[x]=Pump_ReadRxData(); 
 565:.\protocol.c  ****     }
 566:.\protocol.c  ****     Pump_ClearRxBuffer();
 567:.\protocol.c  **** ///////////////////////////////////////////////////////////////////////////////////////////////////
 568:.\protocol.c  ****     UnitType            =  buffer [10] &0x0F;
 569:.\protocol.c  ****     ConversionFactor    =  buffer [12] &0x0F;
 570:.\protocol.c  ****     if(ConversionFactor == 1){
 571:.\protocol.c  ****         VolUnit[0] = 0x47;
 572:.\protocol.c  ****         VolUnit[1] = 0x61;
 573:.\protocol.c  ****         VolUnit[2] = 0x6C;
 574:.\protocol.c  ****         VolUnit[3] = 0x20;
 575:.\protocol.c  ****         VolUnit[4] = 0x20;
 576:.\protocol.c  ****         VolUnit[5] = 0x20;
 577:.\protocol.c  ****     }
 578:.\protocol.c  ****     if(ConversionFactor == 2){
 579:.\protocol.c  ****         VolUnit[0] = 0x55;
 580:.\protocol.c  ****         VolUnit[1] = 0x6B;
 581:.\protocol.c  ****         VolUnit[2] = 0x20;
 582:.\protocol.c  ****         VolUnit[3] = 0x47;
 583:.\protocol.c  ****         VolUnit[4] = 0x61;
 584:.\protocol.c  ****         VolUnit[5] = 0x6C;        
 585:.\protocol.c  ****     }
 586:.\protocol.c  ****     MoneyDec            = (buffer [14] &0x0F)-1;
 587:.\protocol.c  ****     if( (buffer [16]&0x0F) == 1 || (buffer [16]&0x0F) == 4){
 588:.\protocol.c  ****         VolDec              = 3;
 589:.\protocol.c  ****     }
 590:.\protocol.c  ****     if( (buffer [16]&0x0F) == 3 || (buffer [16]&0x0F) == 0){
 591:.\protocol.c  ****         VolDec              = 2;
 592:.\protocol.c  ****     }
ARM GAS  C:\Users\RECEPC~1\AppData\Local\Temp\ccnklw4g.s 			page 40


 593:.\protocol.c  ****     if( (buffer [16]&0x0F) == 2){
 594:.\protocol.c  ****         VolDec              = 1;
 595:.\protocol.c  ****     }
 596:.\protocol.c  ****     PPUDec              = (buffer [18]&0x0F)-1;
 597:.\protocol.c  ****     DDMode              =  buffer [20] &0x0F;
 598:.\protocol.c  ****     
 599:.\protocol.c  ****     return 0;
 600:.\protocol.c  **** } 
 601:.\protocol.c  **** 
 602:.\protocol.c  **** uint8 PumpHoseActiveState(uint8 side){       
 603:.\protocol.c  ****     uint8 state,x;
 604:.\protocol.c  ****     char8 SendComand[9];
 605:.\protocol.c  ****     char8 PumpDataReceive =0;    
 606:.\protocol.c  ****     
 607:.\protocol.c  ****     uint8 BufferSize = 0;
 608:.\protocol.c  **** ///////////////////////////////////////////////////////////////////////////////////////////////////
 609:.\protocol.c  ****     state = get_state(side);
 610:.\protocol.c  ****     if(state == PUMP_IDLE || state == PUMP_CALLING){
 611:.\protocol.c  ****         Pump_PutChar(0x20|side);
 612:.\protocol.c  ****         CyDelay(50);
 613:.\protocol.c  ****         PumpDataReceive = Pump_ReadRxData();
 614:.\protocol.c  ****     }
 615:.\protocol.c  ****     Pump_ClearRxBuffer();
 616:.\protocol.c  ****     if(PumpDataReceive == (0xd0|side)){
 617:.\protocol.c  ****         SendComand[0] = SOM;//Start Of Message
 618:.\protocol.c  ****         SendComand[1] = 0xE9;//Data Length
 619:.\protocol.c  ****         SendComand[2] = 0xFE;//Special Functions Next (0xB0 0xB0 0xB6)
 620:.\protocol.c  ****         SendComand[3] = 0xE0;//Complete Pump Configuration Request (sf1)
 621:.\protocol.c  ****         SendComand[4] = 0xE1;//Complete Pump Configuration Request (sf2)
 622:.\protocol.c  ****         SendComand[5] = 0xE0;//Complete Pump Configuration Request (sf3)
 623:.\protocol.c  ****         SendComand[6] = 0xFB;
 624:.\protocol.c  ****         SendComand[7] = GetLRC(SendComand);
 625:.\protocol.c  ****         SendComand[8] = EOM;
 626:.\protocol.c  ****         for(x=0; x<=8;x++){
 627:.\protocol.c  ****             Pump_PutChar(SendComand[x]);
 628:.\protocol.c  ****         } 
 629:.\protocol.c  ****         if(UnitType > 0){
 630:.\protocol.c  ****             CyDelay(500);
 631:.\protocol.c  ****         }else{
 632:.\protocol.c  ****             CyDelay(150);
 633:.\protocol.c  ****         }
 634:.\protocol.c  ****     }    
 635:.\protocol.c  **** ///////////////////////////////////////////////////////////////////////////////////////////////////
 636:.\protocol.c  ****     BufferSize =Pump_GetRxBufferSize();
 637:.\protocol.c  ****     char8 buffer[BufferSize];
 638:.\protocol.c  ****     for(x=0;x<=BufferSize;x++){
 639:.\protocol.c  ****        buffer[x]=Pump_ReadRxData(); 
 640:.\protocol.c  ****     }
 641:.\protocol.c  ****     Pump_ClearRxBuffer();
 642:.\protocol.c  ****     if((buffer[0x0C] & 0x0F) == 0x01){
 643:.\protocol.c  ****         return (buffer[0x0E] & 0x0F);
 644:.\protocol.c  ****     }
 645:.\protocol.c  ****     
 646:.\protocol.c  ****     return 0;
 647:.\protocol.c  ****     
 648:.\protocol.c  **** }
 649:.\protocol.c  **** 
ARM GAS  C:\Users\RECEPC~1\AppData\Local\Temp\ccnklw4g.s 			page 41


 650:.\protocol.c  **** /*
 651:.\protocol.c  **** ***************************************************************************************************
 652:.\protocol.c  **** *                                         uint8 get_sale(uint8 pos)
 653:.\protocol.c  **** *
 654:.\protocol.c  **** * Description : 
 655:.\protocol.c  **** *               
 656:.\protocol.c  **** *
 657:.\protocol.c  **** * Argument(s) : none
 658:.\protocol.c  **** *
 659:.\protocol.c  **** * Return(s)   : none
 660:.\protocol.c  **** *
 661:.\protocol.c  **** * Caller(s)   : 
 662:.\protocol.c  **** *
 663:.\protocol.c  **** * Note(s)     : none.
 664:.\protocol.c  **** ***************************************************************************************************
 665:.\protocol.c  **** */
 666:.\protocol.c  **** uint8 getSale(uint8 pos){
 1554              		.loc 1 666 0
 1555              		.cfi_startproc
 1556              		@ args = 0, pretend = 0, frame = 0
 1557              		@ frame_needed = 0, uses_anonymous_args = 0
 1558              	.LVL242:
 1559 0000 10B5     		push	{r4, lr}
 1560              		.cfi_def_cfa_offset 8
 1561              		.cfi_offset 4, -8
 1562              		.cfi_offset 14, -4
 1563 0002 0446     		mov	r4, r0
 667:.\protocol.c  **** 	uint8 x;    
 668:.\protocol.c  **** 	Pump_ClearRxBuffer();
 1564              		.loc 1 668 0
 1565 0004 FFF7FEFF 		bl	Pump_ClearRxBuffer
 1566              	.LVL243:
 669:.\protocol.c  **** 	Pump_PutChar(0x40|pos);
 1567              		.loc 1 669 0
 1568 0008 44F04000 		orr	r0, r4, #64
 1569 000c FFF7FEFF 		bl	Pump_PutChar
 1570              	.LVL244:
 670:.\protocol.c  ****     CyDelay(250);
 1571              		.loc 1 670 0
 1572 0010 FA20     		movs	r0, #250
 1573 0012 FFF7FEFF 		bl	CyDelay
 1574              	.LVL245:
 671:.\protocol.c  ****     CyWdtClear();
 1575              		.loc 1 671 0
 1576 0016 FFF7FEFF 		bl	CyWdtClear
 1577              	.LVL246:
 672:.\protocol.c  **** 	if((digits!=7)&&(Pump_GetRxBufferSize()==33)){
 1578              		.loc 1 672 0
 1579 001a B74B     		ldr	r3, .L182
 1580 001c 1B78     		ldrb	r3, [r3]	@ zero_extendqisi2
 1581 001e 072B     		cmp	r3, #7
 1582 0020 00F0F280 		beq	.L135
 1583              		.loc 1 672 0 is_stmt 0 discriminator 1
 1584 0024 FFF7FEFF 		bl	Pump_GetRxBufferSize
 1585              	.LVL247:
 1586 0028 2128     		cmp	r0, #33
 1587 002a 40F0ED80 		bne	.L135
ARM GAS  C:\Users\RECEPC~1\AppData\Local\Temp\ccnklw4g.s 			page 42


 673:.\protocol.c  **** 		if((Pump_rxBuffer[0]==0xFF)&&(Pump_rxBuffer[2]==0xF8)&&(Pump_rxBuffer[32]==0xF0)){
 1588              		.loc 1 673 0 is_stmt 1
 1589 002e B34B     		ldr	r3, .L182+4
 1590 0030 1B78     		ldrb	r3, [r3]	@ zero_extendqisi2
 1591 0032 DBB2     		uxtb	r3, r3
 1592 0034 FF2B     		cmp	r3, #255
 1593 0036 40F0AF81 		bne	.L171
 1594              		.loc 1 673 0 is_stmt 0 discriminator 1
 1595 003a B04B     		ldr	r3, .L182+4
 1596 003c 9B78     		ldrb	r3, [r3, #2]	@ zero_extendqisi2
 1597 003e DBB2     		uxtb	r3, r3
 1598 0040 F82B     		cmp	r3, #248
 1599 0042 40F0AB81 		bne	.L172
 1600              		.loc 1 673 0 discriminator 2
 1601 0046 AD4B     		ldr	r3, .L182+4
 1602 0048 93F82030 		ldrb	r3, [r3, #32]	@ zero_extendqisi2
 1603 004c DBB2     		uxtb	r3, r3
 1604 004e F02B     		cmp	r3, #240
 1605 0050 40F0A681 		bne	.L173
 674:.\protocol.c  **** 			if(pos==side.a.dir){
 1606              		.loc 1 674 0 is_stmt 1
 1607 0054 AA4B     		ldr	r3, .L182+8
 1608 0056 1B78     		ldrb	r3, [r3]	@ zero_extendqisi2
 1609 0058 A342     		cmp	r3, r4
 1610 005a 6AD1     		bne	.L137
 675:.\protocol.c  **** 				side.a.productSale=((Pump_rxBuffer[9]&0x0F)+1)+0x30;
 1611              		.loc 1 675 0
 1612 005c A74B     		ldr	r3, .L182+4
 1613 005e 5B7A     		ldrb	r3, [r3, #9]	@ zero_extendqisi2
 1614 0060 03F00F03 		and	r3, r3, #15
 1615 0064 3133     		adds	r3, r3, #49
 1616 0066 A64A     		ldr	r2, .L182+8
 1617 0068 82F8FF30 		strb	r3, [r2, #255]
 1618              	.LVL248:
 676:.\protocol.c  **** 				for(x=1;x<=4;x++){
 1619              		.loc 1 676 0
 1620 006c 0123     		movs	r3, #1
 1621 006e 0CE0     		b	.L138
 1622              	.LVL249:
 1623              	.L139:
 677:.\protocol.c  **** 					side.a.ppuSale[5-x]=((Pump_rxBuffer[x+11]&0x0F)+0x30);
 1624              		.loc 1 677 0 discriminator 3
 1625 0070 03F10B02 		add	r2, r3, #11
 1626 0074 A149     		ldr	r1, .L182+4
 1627 0076 8A5C     		ldrb	r2, [r1, r2]	@ zero_extendqisi2
 1628 0078 A249     		ldr	r1, .L182+12
 1629 007a C91A     		subs	r1, r1, r3
 1630 007c 02F00F02 		and	r2, r2, #15
 1631 0080 3032     		adds	r2, r2, #48
 1632 0082 81F8F120 		strb	r2, [r1, #241]
 676:.\protocol.c  **** 				for(x=1;x<=4;x++){
 1633              		.loc 1 676 0 discriminator 3
 1634 0086 0133     		adds	r3, r3, #1
 1635              	.LVL250:
 1636 0088 DBB2     		uxtb	r3, r3
 1637              	.LVL251:
 1638              	.L138:
ARM GAS  C:\Users\RECEPC~1\AppData\Local\Temp\ccnklw4g.s 			page 43


 676:.\protocol.c  **** 				for(x=1;x<=4;x++){
 1639              		.loc 1 676 0 is_stmt 0 discriminator 1
 1640 008a 042B     		cmp	r3, #4
 1641 008c F0D9     		bls	.L139
 678:.\protocol.c  **** 				}
 679:.\protocol.c  ****                 side.a.ppuSale[0]=4;
 1642              		.loc 1 679 0 is_stmt 1
 1643 008e 0422     		movs	r2, #4
 1644 0090 9B4B     		ldr	r3, .L182+8
 1645              	.LVL252:
 1646 0092 83F8F120 		strb	r2, [r3, #241]
 680:.\protocol.c  ****                 if(ppux10==1){
 1647              		.loc 1 680 0
 1648 0096 9C4B     		ldr	r3, .L182+16
 1649 0098 1B78     		ldrb	r3, [r3]	@ zero_extendqisi2
 1650 009a DBB2     		uxtb	r3, r3
 1651 009c 012B     		cmp	r3, #1
 1652 009e 06D1     		bne	.L140
 681:.\protocol.c  ****                     side.a.ppuSale[0]=5;
 1653              		.loc 1 681 0
 1654 00a0 974B     		ldr	r3, .L182+8
 1655 00a2 0522     		movs	r2, #5
 1656 00a4 83F8F120 		strb	r2, [r3, #241]
 682:.\protocol.c  ****                     side.a.ppuSale[5]='0';
 1657              		.loc 1 682 0
 1658 00a8 3022     		movs	r2, #48
 1659 00aa 83F8F620 		strb	r2, [r3, #246]
 1660              	.L140:
 676:.\protocol.c  **** 					side.a.ppuSale[5-x]=((Pump_rxBuffer[x+11]&0x0F)+0x30);
 1661              		.loc 1 676 0 discriminator 1
 1662 00ae 0123     		movs	r3, #1
 1663 00b0 0CE0     		b	.L141
 1664              	.LVL253:
 1665              	.L142:
 683:.\protocol.c  ****                 }
 684:.\protocol.c  **** 				for(x=1;x<=6;x++){
 685:.\protocol.c  **** 					side.a.volumeSale[7-x]=((Pump_rxBuffer[x+16]&0x0F)+0x30);
 1666              		.loc 1 685 0 discriminator 3
 1667 00b2 03F11002 		add	r2, r3, #16
 1668 00b6 9149     		ldr	r1, .L182+4
 1669 00b8 8A5C     		ldrb	r2, [r1, r2]	@ zero_extendqisi2
 1670 00ba 9449     		ldr	r1, .L182+20
 1671 00bc C91A     		subs	r1, r1, r3
 1672 00be 02F00F02 		and	r2, r2, #15
 1673 00c2 3032     		adds	r2, r2, #48
 1674 00c4 81F8E320 		strb	r2, [r1, #227]
 684:.\protocol.c  **** 					side.a.volumeSale[7-x]=((Pump_rxBuffer[x+16]&0x0F)+0x30);
 1675              		.loc 1 684 0 discriminator 3
 1676 00c8 0133     		adds	r3, r3, #1
 1677              	.LVL254:
 1678 00ca DBB2     		uxtb	r3, r3
 1679              	.LVL255:
 1680              	.L141:
 684:.\protocol.c  **** 					side.a.volumeSale[7-x]=((Pump_rxBuffer[x+16]&0x0F)+0x30);
 1681              		.loc 1 684 0 is_stmt 0 discriminator 1
 1682 00cc 062B     		cmp	r3, #6
 1683 00ce F0D9     		bls	.L142
ARM GAS  C:\Users\RECEPC~1\AppData\Local\Temp\ccnklw4g.s 			page 44


 686:.\protocol.c  **** 				}		
 687:.\protocol.c  ****                 side.a.volumeSale[0]=6;                
 1684              		.loc 1 687 0 is_stmt 1
 1685 00d0 0622     		movs	r2, #6
 1686 00d2 8B4B     		ldr	r3, .L182+8
 1687              	.LVL256:
 1688 00d4 83F8E320 		strb	r2, [r3, #227]
 1689              	.LVL257:
 688:.\protocol.c  **** 				for(x=1;x<=6;x++){
 1690              		.loc 1 688 0
 1691 00d8 0123     		movs	r3, #1
 1692 00da 0CE0     		b	.L143
 1693              	.LVL258:
 1694              	.L144:
 689:.\protocol.c  **** 					side.a.moneySale[7-x]=((Pump_rxBuffer[x+23]&0x0F)+0x30);
 1695              		.loc 1 689 0 discriminator 3
 1696 00dc 03F11702 		add	r2, r3, #23
 1697 00e0 8649     		ldr	r1, .L182+4
 1698 00e2 8A5C     		ldrb	r2, [r1, r2]	@ zero_extendqisi2
 1699 00e4 8949     		ldr	r1, .L182+20
 1700 00e6 C91A     		subs	r1, r1, r3
 1701 00e8 02F00F02 		and	r2, r2, #15
 1702 00ec 3032     		adds	r2, r2, #48
 1703 00ee 81F8D520 		strb	r2, [r1, #213]
 688:.\protocol.c  **** 				for(x=1;x<=6;x++){
 1704              		.loc 1 688 0 discriminator 3
 1705 00f2 0133     		adds	r3, r3, #1
 1706              	.LVL259:
 1707 00f4 DBB2     		uxtb	r3, r3
 1708              	.LVL260:
 1709              	.L143:
 688:.\protocol.c  **** 				for(x=1;x<=6;x++){
 1710              		.loc 1 688 0 is_stmt 0 discriminator 1
 1711 00f6 062B     		cmp	r3, #6
 1712 00f8 F0D9     		bls	.L144
 690:.\protocol.c  **** 				}
 691:.\protocol.c  ****                 if(digits==5){
 1713              		.loc 1 691 0 is_stmt 1
 1714 00fa 7F4B     		ldr	r3, .L182
 1715              	.LVL261:
 1716 00fc 1B78     		ldrb	r3, [r3]	@ zero_extendqisi2
 1717 00fe 052B     		cmp	r3, #5
 1718 0100 11D1     		bne	.L146
 1719 0102 09E0     		b	.L174
 1720              	.LVL262:
 1721              	.L147:
 692:.\protocol.c  ****                     for(x=6;x>1;x--){
 693:.\protocol.c  ****                         side.a.moneySale[x]=side.a.moneySale[x-1];
 1722              		.loc 1 693 0 discriminator 3
 1723 0104 5A1E     		subs	r2, r3, #1
 1724 0106 7E49     		ldr	r1, .L182+8
 1725 0108 8818     		adds	r0, r1, r2
 1726 010a 90F8D500 		ldrb	r0, [r0, #213]	@ zero_extendqisi2
 1727 010e 0B44     		add	r3, r3, r1
 1728              	.LVL263:
 1729 0110 83F8D500 		strb	r0, [r3, #213]
 692:.\protocol.c  ****                     for(x=6;x>1;x--){
ARM GAS  C:\Users\RECEPC~1\AppData\Local\Temp\ccnklw4g.s 			page 45


 1730              		.loc 1 692 0 discriminator 3
 1731 0114 D3B2     		uxtb	r3, r2
 1732              	.LVL264:
 1733 0116 00E0     		b	.L145
 1734              	.LVL265:
 1735              	.L174:
 1736 0118 0623     		movs	r3, #6
 1737              	.L145:
 1738              	.LVL266:
 692:.\protocol.c  ****                     for(x=6;x>1;x--){
 1739              		.loc 1 692 0 is_stmt 0 discriminator 1
 1740 011a 012B     		cmp	r3, #1
 1741 011c F2D8     		bhi	.L147
 694:.\protocol.c  ****                     }
 695:.\protocol.c  ****                     side.a.moneySale[1]='0';
 1742              		.loc 1 695 0 is_stmt 1
 1743 011e 3022     		movs	r2, #48
 1744 0120 774B     		ldr	r3, .L182+8
 1745              	.LVL267:
 1746 0122 83F8D620 		strb	r2, [r3, #214]
 1747              	.L146:
 696:.\protocol.c  ****                 }
 697:.\protocol.c  ****                 side.a.moneySale[0]=6;
 1748              		.loc 1 697 0
 1749 0126 0622     		movs	r2, #6
 1750 0128 754B     		ldr	r3, .L182+8
 1751 012a 83F8D520 		strb	r2, [r3, #213]
 698:.\protocol.c  **** 			}
 699:.\protocol.c  **** 			else{
 700:.\protocol.c  **** 				side.b.productSale=((Pump_rxBuffer[9]&0x0F)+1)+0x30;
 701:.\protocol.c  **** 				for(x=1;x<=4;x++){
 702:.\protocol.c  **** 					side.b.ppuSale[5-x]=((Pump_rxBuffer[x+11]&0x0F)+0x30);
 703:.\protocol.c  **** 				}
 704:.\protocol.c  ****                 side.b.ppuSale[0]=4;
 705:.\protocol.c  ****                 if(ppux10==1){
 706:.\protocol.c  ****                     side.b.ppuSale[0]=5;
 707:.\protocol.c  ****                     side.b.ppuSale[5]='0';
 708:.\protocol.c  ****                 }
 709:.\protocol.c  **** 				for(x=1;x<=6;x++){
 710:.\protocol.c  **** 					side.b.volumeSale[7-x]=((Pump_rxBuffer[x+16]&0x0F)+0x30);
 711:.\protocol.c  **** 				}
 712:.\protocol.c  ****                 side.b.volumeSale[0]=6;
 713:.\protocol.c  **** 				for(x=1;x<=6;x++){
 714:.\protocol.c  **** 					side.b.moneySale[7-x]=((Pump_rxBuffer[x+23]&0x0F)+0x30);
 715:.\protocol.c  **** 				}	
 716:.\protocol.c  ****                 if(digits==5){
 717:.\protocol.c  ****                     for(x=6;x>1;x--){
 718:.\protocol.c  ****                         side.b.moneySale[x]=side.b.moneySale[x-1];
 719:.\protocol.c  ****                     }
 720:.\protocol.c  ****                     side.b.moneySale[1]='0';
 721:.\protocol.c  ****                 }
 722:.\protocol.c  ****                 side.b.moneySale[0]=6;
 723:.\protocol.c  **** 			}
 724:.\protocol.c  **** 			return 1;
 1752              		.loc 1 724 0
 1753 012e 0120     		movs	r0, #1
 1754 0130 10BD     		pop	{r4, pc}
ARM GAS  C:\Users\RECEPC~1\AppData\Local\Temp\ccnklw4g.s 			page 46


 1755              	.L137:
 700:.\protocol.c  **** 				for(x=1;x<=4;x++){
 1756              		.loc 1 700 0
 1757 0132 724B     		ldr	r3, .L182+4
 1758 0134 5B7A     		ldrb	r3, [r3, #9]	@ zero_extendqisi2
 1759 0136 03F00F03 		and	r3, r3, #15
 1760 013a 3133     		adds	r3, r3, #49
 1761 013c 704A     		ldr	r2, .L182+8
 1762 013e 82F80732 		strb	r3, [r2, #519]
 1763              	.LVL268:
 701:.\protocol.c  **** 					side.b.ppuSale[5-x]=((Pump_rxBuffer[x+11]&0x0F)+0x30);
 1764              		.loc 1 701 0
 1765 0142 0123     		movs	r3, #1
 1766 0144 0CE0     		b	.L148
 1767              	.LVL269:
 1768              	.L149:
 702:.\protocol.c  **** 				}
 1769              		.loc 1 702 0 discriminator 3
 1770 0146 03F10B02 		add	r2, r3, #11
 1771 014a 6C49     		ldr	r1, .L182+4
 1772 014c 8A5C     		ldrb	r2, [r1, r2]	@ zero_extendqisi2
 1773 014e 6D49     		ldr	r1, .L182+12
 1774 0150 C91A     		subs	r1, r1, r3
 1775 0152 02F00F02 		and	r2, r2, #15
 1776 0156 3032     		adds	r2, r2, #48
 1777 0158 81F8F921 		strb	r2, [r1, #505]
 701:.\protocol.c  **** 					side.b.ppuSale[5-x]=((Pump_rxBuffer[x+11]&0x0F)+0x30);
 1778              		.loc 1 701 0 discriminator 3
 1779 015c 0133     		adds	r3, r3, #1
 1780              	.LVL270:
 1781 015e DBB2     		uxtb	r3, r3
 1782              	.LVL271:
 1783              	.L148:
 701:.\protocol.c  **** 					side.b.ppuSale[5-x]=((Pump_rxBuffer[x+11]&0x0F)+0x30);
 1784              		.loc 1 701 0 is_stmt 0 discriminator 1
 1785 0160 042B     		cmp	r3, #4
 1786 0162 F0D9     		bls	.L149
 704:.\protocol.c  ****                 if(ppux10==1){
 1787              		.loc 1 704 0 is_stmt 1
 1788 0164 0422     		movs	r2, #4
 1789 0166 664B     		ldr	r3, .L182+8
 1790              	.LVL272:
 1791 0168 83F8F921 		strb	r2, [r3, #505]
 705:.\protocol.c  ****                     side.b.ppuSale[0]=5;
 1792              		.loc 1 705 0
 1793 016c 664B     		ldr	r3, .L182+16
 1794 016e 1B78     		ldrb	r3, [r3]	@ zero_extendqisi2
 1795 0170 DBB2     		uxtb	r3, r3
 1796 0172 012B     		cmp	r3, #1
 1797 0174 06D1     		bne	.L150
 706:.\protocol.c  ****                     side.b.ppuSale[5]='0';
 1798              		.loc 1 706 0
 1799 0176 624B     		ldr	r3, .L182+8
 1800 0178 0522     		movs	r2, #5
 1801 017a 83F8F921 		strb	r2, [r3, #505]
 707:.\protocol.c  ****                 }
 1802              		.loc 1 707 0
ARM GAS  C:\Users\RECEPC~1\AppData\Local\Temp\ccnklw4g.s 			page 47


 1803 017e 3022     		movs	r2, #48
 1804 0180 83F8FE21 		strb	r2, [r3, #510]
 1805              	.L150:
 701:.\protocol.c  **** 					side.b.ppuSale[5-x]=((Pump_rxBuffer[x+11]&0x0F)+0x30);
 1806              		.loc 1 701 0 discriminator 1
 1807 0184 0123     		movs	r3, #1
 1808 0186 0CE0     		b	.L151
 1809              	.LVL273:
 1810              	.L152:
 710:.\protocol.c  **** 				}
 1811              		.loc 1 710 0 discriminator 3
 1812 0188 03F11002 		add	r2, r3, #16
 1813 018c 5B49     		ldr	r1, .L182+4
 1814 018e 8A5C     		ldrb	r2, [r1, r2]	@ zero_extendqisi2
 1815 0190 5E49     		ldr	r1, .L182+20
 1816 0192 C91A     		subs	r1, r1, r3
 1817 0194 02F00F02 		and	r2, r2, #15
 1818 0198 3032     		adds	r2, r2, #48
 1819 019a 81F8EB21 		strb	r2, [r1, #491]
 709:.\protocol.c  **** 					side.b.volumeSale[7-x]=((Pump_rxBuffer[x+16]&0x0F)+0x30);
 1820              		.loc 1 709 0 discriminator 3
 1821 019e 0133     		adds	r3, r3, #1
 1822              	.LVL274:
 1823 01a0 DBB2     		uxtb	r3, r3
 1824              	.LVL275:
 1825              	.L151:
 709:.\protocol.c  **** 					side.b.volumeSale[7-x]=((Pump_rxBuffer[x+16]&0x0F)+0x30);
 1826              		.loc 1 709 0 is_stmt 0 discriminator 1
 1827 01a2 062B     		cmp	r3, #6
 1828 01a4 F0D9     		bls	.L152
 712:.\protocol.c  **** 				for(x=1;x<=6;x++){
 1829              		.loc 1 712 0 is_stmt 1
 1830 01a6 0622     		movs	r2, #6
 1831 01a8 554B     		ldr	r3, .L182+8
 1832              	.LVL276:
 1833 01aa 83F8EB21 		strb	r2, [r3, #491]
 1834              	.LVL277:
 713:.\protocol.c  **** 					side.b.moneySale[7-x]=((Pump_rxBuffer[x+23]&0x0F)+0x30);
 1835              		.loc 1 713 0
 1836 01ae 0123     		movs	r3, #1
 1837 01b0 0CE0     		b	.L153
 1838              	.LVL278:
 1839              	.L154:
 714:.\protocol.c  **** 				}	
 1840              		.loc 1 714 0 discriminator 3
 1841 01b2 03F11702 		add	r2, r3, #23
 1842 01b6 5149     		ldr	r1, .L182+4
 1843 01b8 8A5C     		ldrb	r2, [r1, r2]	@ zero_extendqisi2
 1844 01ba 5449     		ldr	r1, .L182+20
 1845 01bc C91A     		subs	r1, r1, r3
 1846 01be 02F00F02 		and	r2, r2, #15
 1847 01c2 3032     		adds	r2, r2, #48
 1848 01c4 81F8DD21 		strb	r2, [r1, #477]
 713:.\protocol.c  **** 					side.b.moneySale[7-x]=((Pump_rxBuffer[x+23]&0x0F)+0x30);
 1849              		.loc 1 713 0 discriminator 3
 1850 01c8 0133     		adds	r3, r3, #1
 1851              	.LVL279:
ARM GAS  C:\Users\RECEPC~1\AppData\Local\Temp\ccnklw4g.s 			page 48


 1852 01ca DBB2     		uxtb	r3, r3
 1853              	.LVL280:
 1854              	.L153:
 713:.\protocol.c  **** 					side.b.moneySale[7-x]=((Pump_rxBuffer[x+23]&0x0F)+0x30);
 1855              		.loc 1 713 0 is_stmt 0 discriminator 1
 1856 01cc 062B     		cmp	r3, #6
 1857 01ce F0D9     		bls	.L154
 716:.\protocol.c  ****                     for(x=6;x>1;x--){
 1858              		.loc 1 716 0 is_stmt 1
 1859 01d0 494B     		ldr	r3, .L182
 1860              	.LVL281:
 1861 01d2 1B78     		ldrb	r3, [r3]	@ zero_extendqisi2
 1862 01d4 052B     		cmp	r3, #5
 1863 01d6 11D1     		bne	.L156
 1864 01d8 09E0     		b	.L175
 1865              	.LVL282:
 1866              	.L157:
 718:.\protocol.c  ****                     }
 1867              		.loc 1 718 0 discriminator 3
 1868 01da 5A1E     		subs	r2, r3, #1
 1869 01dc 4849     		ldr	r1, .L182+8
 1870 01de 8818     		adds	r0, r1, r2
 1871 01e0 90F8DD01 		ldrb	r0, [r0, #477]	@ zero_extendqisi2
 1872 01e4 0B44     		add	r3, r3, r1
 1873              	.LVL283:
 1874 01e6 83F8DD01 		strb	r0, [r3, #477]
 717:.\protocol.c  ****                         side.b.moneySale[x]=side.b.moneySale[x-1];
 1875              		.loc 1 717 0 discriminator 3
 1876 01ea D3B2     		uxtb	r3, r2
 1877              	.LVL284:
 1878 01ec 00E0     		b	.L155
 1879              	.LVL285:
 1880              	.L175:
 1881 01ee 0623     		movs	r3, #6
 1882              	.L155:
 1883              	.LVL286:
 717:.\protocol.c  ****                         side.b.moneySale[x]=side.b.moneySale[x-1];
 1884              		.loc 1 717 0 is_stmt 0 discriminator 1
 1885 01f0 012B     		cmp	r3, #1
 1886 01f2 F2D8     		bhi	.L157
 720:.\protocol.c  ****                 }
 1887              		.loc 1 720 0 is_stmt 1
 1888 01f4 3022     		movs	r2, #48
 1889 01f6 424B     		ldr	r3, .L182+8
 1890              	.LVL287:
 1891 01f8 83F8DE21 		strb	r2, [r3, #478]
 1892              	.L156:
 722:.\protocol.c  **** 			}
 1893              		.loc 1 722 0
 1894 01fc 0622     		movs	r2, #6
 1895 01fe 404B     		ldr	r3, .L182+8
 1896 0200 83F8DD21 		strb	r2, [r3, #477]
 1897              		.loc 1 724 0
 1898 0204 0120     		movs	r0, #1
 1899 0206 10BD     		pop	{r4, pc}
 1900              	.L135:
 725:.\protocol.c  **** 		}
ARM GAS  C:\Users\RECEPC~1\AppData\Local\Temp\ccnklw4g.s 			page 49


 726:.\protocol.c  **** 		else{
 727:.\protocol.c  **** 			return 0;
 728:.\protocol.c  **** 		}
 729:.\protocol.c  **** 	}
 730:.\protocol.c  **** 	else if((digits==7)&&(Pump_GetRxBufferSize()==39)){
 1901              		.loc 1 730 0
 1902 0208 3B4B     		ldr	r3, .L182
 1903 020a 1B78     		ldrb	r3, [r3]	@ zero_extendqisi2
 1904 020c 072B     		cmp	r3, #7
 1905 020e 40F0C980 		bne	.L176
 1906              		.loc 1 730 0 is_stmt 0 discriminator 1
 1907 0212 FFF7FEFF 		bl	Pump_GetRxBufferSize
 1908              	.LVL288:
 1909 0216 2728     		cmp	r0, #39
 1910 0218 40F0C680 		bne	.L177
 731:.\protocol.c  **** 		if((Pump_rxBuffer[0]==0xFF)&&(Pump_rxBuffer[2]==0xF8)&&(Pump_rxBuffer[38]==0xF0)){
 1911              		.loc 1 731 0 is_stmt 1
 1912 021c 374B     		ldr	r3, .L182+4
 1913 021e 1B78     		ldrb	r3, [r3]	@ zero_extendqisi2
 1914 0220 DBB2     		uxtb	r3, r3
 1915 0222 FF2B     		cmp	r3, #255
 1916 0224 40F0C280 		bne	.L178
 1917              		.loc 1 731 0 is_stmt 0 discriminator 1
 1918 0228 344B     		ldr	r3, .L182+4
 1919 022a 9B78     		ldrb	r3, [r3, #2]	@ zero_extendqisi2
 1920 022c DBB2     		uxtb	r3, r3
 1921 022e F82B     		cmp	r3, #248
 1922 0230 40F0BE80 		bne	.L179
 1923              		.loc 1 731 0 discriminator 2
 1924 0234 314B     		ldr	r3, .L182+4
 1925 0236 93F82630 		ldrb	r3, [r3, #38]	@ zero_extendqisi2
 1926 023a DBB2     		uxtb	r3, r3
 1927 023c F02B     		cmp	r3, #240
 1928 023e 40F0B980 		bne	.L180
 732:.\protocol.c  **** 			if(pos==side.a.dir){
 1929              		.loc 1 732 0 is_stmt 1
 1930 0242 2F4B     		ldr	r3, .L182+8
 1931 0244 1B78     		ldrb	r3, [r3]	@ zero_extendqisi2
 1932 0246 A342     		cmp	r3, r4
 1933 0248 4BD1     		bne	.L158
 733:.\protocol.c  **** 				side.a.productSale=((Pump_rxBuffer[9]&0x0F)+1)+0x30;
 1934              		.loc 1 733 0
 1935 024a 2C4B     		ldr	r3, .L182+4
 1936 024c 5B7A     		ldrb	r3, [r3, #9]	@ zero_extendqisi2
 1937 024e 03F00F03 		and	r3, r3, #15
 1938 0252 3133     		adds	r3, r3, #49
 1939 0254 2A4A     		ldr	r2, .L182+8
 1940 0256 82F8FF30 		strb	r3, [r2, #255]
 1941              	.LVL289:
 734:.\protocol.c  **** 				for(x=1;x<=6;x++){
 1942              		.loc 1 734 0
 1943 025a 0123     		movs	r3, #1
 1944 025c 0CE0     		b	.L159
 1945              	.LVL290:
 1946              	.L160:
 735:.\protocol.c  **** 					side.a.ppuSale[7-x]=((Pump_rxBuffer[x+11]&0x0F)+0x30);
 1947              		.loc 1 735 0 discriminator 3
ARM GAS  C:\Users\RECEPC~1\AppData\Local\Temp\ccnklw4g.s 			page 50


 1948 025e 03F10B02 		add	r2, r3, #11
 1949 0262 2649     		ldr	r1, .L182+4
 1950 0264 8A5C     		ldrb	r2, [r1, r2]	@ zero_extendqisi2
 1951 0266 2949     		ldr	r1, .L182+20
 1952 0268 C91A     		subs	r1, r1, r3
 1953 026a 02F00F02 		and	r2, r2, #15
 1954 026e 3032     		adds	r2, r2, #48
 1955 0270 81F8F120 		strb	r2, [r1, #241]
 734:.\protocol.c  **** 				for(x=1;x<=6;x++){
 1956              		.loc 1 734 0 discriminator 3
 1957 0274 0133     		adds	r3, r3, #1
 1958              	.LVL291:
 1959 0276 DBB2     		uxtb	r3, r3
 1960              	.LVL292:
 1961              	.L159:
 734:.\protocol.c  **** 				for(x=1;x<=6;x++){
 1962              		.loc 1 734 0 is_stmt 0 discriminator 1
 1963 0278 062B     		cmp	r3, #6
 1964 027a F0D9     		bls	.L160
 736:.\protocol.c  **** 				}
 737:.\protocol.c  ****                 side.a.ppuSale[0]=6;
 1965              		.loc 1 737 0 is_stmt 1
 1966 027c 0622     		movs	r2, #6
 1967 027e 204B     		ldr	r3, .L182+8
 1968              	.LVL293:
 1969 0280 83F8F120 		strb	r2, [r3, #241]
 1970              	.LVL294:
 738:.\protocol.c  **** 				for(x=1;x<=8;x++){
 1971              		.loc 1 738 0
 1972 0284 0123     		movs	r3, #1
 1973 0286 0CE0     		b	.L161
 1974              	.LVL295:
 1975              	.L162:
 739:.\protocol.c  **** 					side.a.volumeSale[9-x]=((Pump_rxBuffer[x+18]&0x0F)+0x30);
 1976              		.loc 1 739 0 discriminator 3
 1977 0288 03F11202 		add	r2, r3, #18
 1978 028c 1B49     		ldr	r1, .L182+4
 1979 028e 8A5C     		ldrb	r2, [r1, r2]	@ zero_extendqisi2
 1980 0290 1F49     		ldr	r1, .L182+24
 1981 0292 C91A     		subs	r1, r1, r3
 1982 0294 02F00F02 		and	r2, r2, #15
 1983 0298 3032     		adds	r2, r2, #48
 1984 029a 81F8E320 		strb	r2, [r1, #227]
 738:.\protocol.c  **** 				for(x=1;x<=8;x++){
 1985              		.loc 1 738 0 discriminator 3
 1986 029e 0133     		adds	r3, r3, #1
 1987              	.LVL296:
 1988 02a0 DBB2     		uxtb	r3, r3
 1989              	.LVL297:
 1990              	.L161:
 738:.\protocol.c  **** 				for(x=1;x<=8;x++){
 1991              		.loc 1 738 0 is_stmt 0 discriminator 1
 1992 02a2 082B     		cmp	r3, #8
 1993 02a4 F0D9     		bls	.L162
 740:.\protocol.c  **** 				}		
 741:.\protocol.c  ****                 side.a.volumeSale[0]=8;
 1994              		.loc 1 741 0 is_stmt 1
ARM GAS  C:\Users\RECEPC~1\AppData\Local\Temp\ccnklw4g.s 			page 51


 1995 02a6 0822     		movs	r2, #8
 1996 02a8 154B     		ldr	r3, .L182+8
 1997              	.LVL298:
 1998 02aa 83F8E320 		strb	r2, [r3, #227]
 1999              	.LVL299:
 742:.\protocol.c  **** 				for(x=1;x<=7;x++){
 2000              		.loc 1 742 0
 2001 02ae 0123     		movs	r3, #1
 2002 02b0 0CE0     		b	.L163
 2003              	.LVL300:
 2004              	.L164:
 743:.\protocol.c  **** 					side.a.moneySale[9-x]=((Pump_rxBuffer[x+28]&0x0F)+0x30);
 2005              		.loc 1 743 0 discriminator 3
 2006 02b2 03F11C02 		add	r2, r3, #28
 2007 02b6 1149     		ldr	r1, .L182+4
 2008 02b8 8A5C     		ldrb	r2, [r1, r2]	@ zero_extendqisi2
 2009 02ba 1549     		ldr	r1, .L182+24
 2010 02bc C91A     		subs	r1, r1, r3
 2011 02be 02F00F02 		and	r2, r2, #15
 2012 02c2 3032     		adds	r2, r2, #48
 2013 02c4 81F8D520 		strb	r2, [r1, #213]
 742:.\protocol.c  **** 				for(x=1;x<=7;x++){
 2014              		.loc 1 742 0 discriminator 3
 2015 02c8 0133     		adds	r3, r3, #1
 2016              	.LVL301:
 2017 02ca DBB2     		uxtb	r3, r3
 2018              	.LVL302:
 2019              	.L163:
 742:.\protocol.c  **** 				for(x=1;x<=7;x++){
 2020              		.loc 1 742 0 is_stmt 0 discriminator 1
 2021 02cc 072B     		cmp	r3, #7
 2022 02ce F0D9     		bls	.L164
 744:.\protocol.c  **** 				}
 745:.\protocol.c  ****                 side.a.moneySale[1]='0';
 2023              		.loc 1 745 0 is_stmt 1
 2024 02d0 0B4B     		ldr	r3, .L182+8
 2025              	.LVL303:
 2026 02d2 3022     		movs	r2, #48
 2027 02d4 83F8D620 		strb	r2, [r3, #214]
 746:.\protocol.c  ****                 side.a.moneySale[0]=8;
 2028              		.loc 1 746 0
 2029 02d8 0822     		movs	r2, #8
 2030 02da 83F8D520 		strb	r2, [r3, #213]
 747:.\protocol.c  **** 			}
 748:.\protocol.c  **** 			else{
 749:.\protocol.c  **** 				side.b.productSale=((Pump_rxBuffer[9]&0x0F)+1)+0x30;
 750:.\protocol.c  **** 				for(x=1;x<=6;x++){
 751:.\protocol.c  **** 					side.b.ppuSale[7-x]=((Pump_rxBuffer[x+11]&0x0F)+0x30);
 752:.\protocol.c  **** 				}
 753:.\protocol.c  ****                 side.b.ppuSale[0]=6;
 754:.\protocol.c  **** 				for(x=1;x<=8;x++){
 755:.\protocol.c  **** 					side.b.volumeSale[9-x]=((Pump_rxBuffer[x+18]&0x0F)+0x30);
 756:.\protocol.c  **** 				}	
 757:.\protocol.c  ****                 side.b.volumeSale[0]=8;
 758:.\protocol.c  **** 				for(x=1;x<=7;x++){
 759:.\protocol.c  **** 					side.b.moneySale[9-x]=((Pump_rxBuffer[x+28]&0x0F)+0x30);
 760:.\protocol.c  **** 				}	
ARM GAS  C:\Users\RECEPC~1\AppData\Local\Temp\ccnklw4g.s 			page 52


 761:.\protocol.c  ****                 side.b.moneySale[1]='0';
 762:.\protocol.c  ****                 side.b.moneySale[0]=8;
 763:.\protocol.c  **** 			}
 764:.\protocol.c  **** 			return 1;
 2031              		.loc 1 764 0
 2032 02de 0120     		movs	r0, #1
 2033 02e0 10BD     		pop	{r4, pc}
 2034              	.L158:
 749:.\protocol.c  **** 				for(x=1;x<=6;x++){
 2035              		.loc 1 749 0
 2036 02e2 064B     		ldr	r3, .L182+4
 2037 02e4 5B7A     		ldrb	r3, [r3, #9]	@ zero_extendqisi2
 2038 02e6 03F00F03 		and	r3, r3, #15
 2039 02ea 3133     		adds	r3, r3, #49
 2040 02ec 044A     		ldr	r2, .L182+8
 2041 02ee 82F80732 		strb	r3, [r2, #519]
 2042              	.LVL304:
 750:.\protocol.c  **** 					side.b.ppuSale[7-x]=((Pump_rxBuffer[x+11]&0x0F)+0x30);
 2043              		.loc 1 750 0
 2044 02f2 0123     		movs	r3, #1
 2045 02f4 1BE0     		b	.L165
 2046              	.L183:
 2047 02f6 00BF     		.align	2
 2048              	.L182:
 2049 02f8 00000000 		.word	digits
 2050 02fc 00000000 		.word	Pump_rxBuffer
 2051 0300 00000000 		.word	side
 2052 0304 05000000 		.word	side+5
 2053 0308 00000000 		.word	ppux10
 2054 030c 07000000 		.word	side+7
 2055 0310 09000000 		.word	side+9
 2056              	.LVL305:
 2057              	.L166:
 751:.\protocol.c  **** 				}
 2058              		.loc 1 751 0 discriminator 3
 2059 0314 03F10B02 		add	r2, r3, #11
 2060 0318 2749     		ldr	r1, .L184
 2061 031a 8A5C     		ldrb	r2, [r1, r2]	@ zero_extendqisi2
 2062 031c 2749     		ldr	r1, .L184+4
 2063 031e C91A     		subs	r1, r1, r3
 2064 0320 02F00F02 		and	r2, r2, #15
 2065 0324 3032     		adds	r2, r2, #48
 2066 0326 81F8F921 		strb	r2, [r1, #505]
 750:.\protocol.c  **** 					side.b.ppuSale[7-x]=((Pump_rxBuffer[x+11]&0x0F)+0x30);
 2067              		.loc 1 750 0 discriminator 3
 2068 032a 0133     		adds	r3, r3, #1
 2069              	.LVL306:
 2070 032c DBB2     		uxtb	r3, r3
 2071              	.LVL307:
 2072              	.L165:
 750:.\protocol.c  **** 					side.b.ppuSale[7-x]=((Pump_rxBuffer[x+11]&0x0F)+0x30);
 2073              		.loc 1 750 0 is_stmt 0 discriminator 1
 2074 032e 062B     		cmp	r3, #6
 2075 0330 F0D9     		bls	.L166
 753:.\protocol.c  **** 				for(x=1;x<=8;x++){
 2076              		.loc 1 753 0 is_stmt 1
 2077 0332 0622     		movs	r2, #6
ARM GAS  C:\Users\RECEPC~1\AppData\Local\Temp\ccnklw4g.s 			page 53


 2078 0334 224B     		ldr	r3, .L184+8
 2079              	.LVL308:
 2080 0336 83F8F921 		strb	r2, [r3, #505]
 2081              	.LVL309:
 754:.\protocol.c  **** 					side.b.volumeSale[9-x]=((Pump_rxBuffer[x+18]&0x0F)+0x30);
 2082              		.loc 1 754 0
 2083 033a 0123     		movs	r3, #1
 2084 033c 0CE0     		b	.L167
 2085              	.LVL310:
 2086              	.L168:
 755:.\protocol.c  **** 				}	
 2087              		.loc 1 755 0 discriminator 3
 2088 033e 03F11202 		add	r2, r3, #18
 2089 0342 1D49     		ldr	r1, .L184
 2090 0344 8A5C     		ldrb	r2, [r1, r2]	@ zero_extendqisi2
 2091 0346 1F49     		ldr	r1, .L184+12
 2092 0348 C91A     		subs	r1, r1, r3
 2093 034a 02F00F02 		and	r2, r2, #15
 2094 034e 3032     		adds	r2, r2, #48
 2095 0350 81F8EB21 		strb	r2, [r1, #491]
 754:.\protocol.c  **** 					side.b.volumeSale[9-x]=((Pump_rxBuffer[x+18]&0x0F)+0x30);
 2096              		.loc 1 754 0 discriminator 3
 2097 0354 0133     		adds	r3, r3, #1
 2098              	.LVL311:
 2099 0356 DBB2     		uxtb	r3, r3
 2100              	.LVL312:
 2101              	.L167:
 754:.\protocol.c  **** 					side.b.volumeSale[9-x]=((Pump_rxBuffer[x+18]&0x0F)+0x30);
 2102              		.loc 1 754 0 is_stmt 0 discriminator 1
 2103 0358 082B     		cmp	r3, #8
 2104 035a F0D9     		bls	.L168
 757:.\protocol.c  **** 				for(x=1;x<=7;x++){
 2105              		.loc 1 757 0 is_stmt 1
 2106 035c 0822     		movs	r2, #8
 2107 035e 184B     		ldr	r3, .L184+8
 2108              	.LVL313:
 2109 0360 83F8EB21 		strb	r2, [r3, #491]
 2110              	.LVL314:
 758:.\protocol.c  **** 					side.b.moneySale[9-x]=((Pump_rxBuffer[x+28]&0x0F)+0x30);
 2111              		.loc 1 758 0
 2112 0364 0123     		movs	r3, #1
 2113 0366 0CE0     		b	.L169
 2114              	.LVL315:
 2115              	.L170:
 759:.\protocol.c  **** 				}	
 2116              		.loc 1 759 0 discriminator 3
 2117 0368 03F11C02 		add	r2, r3, #28
 2118 036c 1249     		ldr	r1, .L184
 2119 036e 8A5C     		ldrb	r2, [r1, r2]	@ zero_extendqisi2
 2120 0370 1449     		ldr	r1, .L184+12
 2121 0372 C91A     		subs	r1, r1, r3
 2122 0374 02F00F02 		and	r2, r2, #15
 2123 0378 3032     		adds	r2, r2, #48
 2124 037a 81F8DD21 		strb	r2, [r1, #477]
 758:.\protocol.c  **** 					side.b.moneySale[9-x]=((Pump_rxBuffer[x+28]&0x0F)+0x30);
 2125              		.loc 1 758 0 discriminator 3
 2126 037e 0133     		adds	r3, r3, #1
ARM GAS  C:\Users\RECEPC~1\AppData\Local\Temp\ccnklw4g.s 			page 54


 2127              	.LVL316:
 2128 0380 DBB2     		uxtb	r3, r3
 2129              	.LVL317:
 2130              	.L169:
 758:.\protocol.c  **** 					side.b.moneySale[9-x]=((Pump_rxBuffer[x+28]&0x0F)+0x30);
 2131              		.loc 1 758 0 is_stmt 0 discriminator 1
 2132 0382 072B     		cmp	r3, #7
 2133 0384 F0D9     		bls	.L170
 761:.\protocol.c  ****                 side.b.moneySale[0]=8;
 2134              		.loc 1 761 0 is_stmt 1
 2135 0386 0E4B     		ldr	r3, .L184+8
 2136              	.LVL318:
 2137 0388 3022     		movs	r2, #48
 2138 038a 83F8DE21 		strb	r2, [r3, #478]
 762:.\protocol.c  **** 			}
 2139              		.loc 1 762 0
 2140 038e 0822     		movs	r2, #8
 2141 0390 83F8DD21 		strb	r2, [r3, #477]
 2142              		.loc 1 764 0
 2143 0394 0120     		movs	r0, #1
 2144 0396 10BD     		pop	{r4, pc}
 2145              	.L171:
 727:.\protocol.c  **** 		}
 2146              		.loc 1 727 0
 2147 0398 0020     		movs	r0, #0
 2148 039a 10BD     		pop	{r4, pc}
 2149              	.L172:
 2150 039c 0020     		movs	r0, #0
 2151 039e 10BD     		pop	{r4, pc}
 2152              	.L173:
 2153 03a0 0020     		movs	r0, #0
 2154 03a2 10BD     		pop	{r4, pc}
 2155              	.L176:
 765:.\protocol.c  **** 		}
 766:.\protocol.c  **** 		else{
 767:.\protocol.c  **** 			return 0;
 768:.\protocol.c  **** 		}
 769:.\protocol.c  **** 	}
 770:.\protocol.c  **** 	return 0;
 2156              		.loc 1 770 0
 2157 03a4 0020     		movs	r0, #0
 2158 03a6 10BD     		pop	{r4, pc}
 2159              	.L177:
 2160 03a8 0020     		movs	r0, #0
 2161 03aa 10BD     		pop	{r4, pc}
 2162              	.L178:
 767:.\protocol.c  **** 		}
 2163              		.loc 1 767 0
 2164 03ac 0020     		movs	r0, #0
 2165 03ae 10BD     		pop	{r4, pc}
 2166              	.L179:
 2167 03b0 0020     		movs	r0, #0
 2168 03b2 10BD     		pop	{r4, pc}
 2169              	.L180:
 2170 03b4 0020     		movs	r0, #0
 771:.\protocol.c  **** }
 2171              		.loc 1 771 0
ARM GAS  C:\Users\RECEPC~1\AppData\Local\Temp\ccnklw4g.s 			page 55


 2172 03b6 10BD     		pop	{r4, pc}
 2173              	.L185:
 2174              		.align	2
 2175              	.L184:
 2176 03b8 00000000 		.word	Pump_rxBuffer
 2177 03bc 07000000 		.word	side+7
 2178 03c0 00000000 		.word	side
 2179 03c4 09000000 		.word	side+9
 2180              		.cfi_endproc
 2181              	.LFE70:
 2182              		.size	getSale, .-getSale
 2183              		.section	.text.PumpIsInValidState,"ax",%progbits
 2184              		.align	2
 2185              		.global	PumpIsInValidState
 2186              		.thumb
 2187              		.thumb_func
 2188              		.type	PumpIsInValidState, %function
 2189              	PumpIsInValidState:
 2190              	.LFB71:
 772:.\protocol.c  **** 
 773:.\protocol.c  **** 
 774:.\protocol.c  **** bool PumpIsInValidState(state)
 775:.\protocol.c  **** {
 2191              		.loc 1 775 0
 2192              		.cfi_startproc
 2193              		@ args = 0, pretend = 0, frame = 0
 2194              		@ frame_needed = 0, uses_anonymous_args = 0
 2195              		@ link register save eliminated.
 2196              	.LVL319:
 776:.\protocol.c  ****     bool retval = false;    
 777:.\protocol.c  ****     switch(state)
 2197              		.loc 1 777 0
 2198 0000 30B1     		cbz	r0, .L189
 2199 0002 0028     		cmp	r0, #0
 2200 0004 02DB     		blt	.L187
 2201 0006 831F     		subs	r3, r0, #6
 2202 0008 062B     		cmp	r3, #6
 2203 000a 01D9     		bls	.L189
 2204              	.L187:
 776:.\protocol.c  ****     bool retval = false;    
 2205              		.loc 1 776 0
 2206 000c 0020     		movs	r0, #0
 2207              	.LVL320:
 2208 000e 7047     		bx	lr
 2209              	.LVL321:
 2210              	.L189:
 778:.\protocol.c  ****     {
 779:.\protocol.c  ****         case PUMP_IDLE:
 780:.\protocol.c  ****         case PUMP_CALLING:
 781:.\protocol.c  ****         case PUMP_AUTHORIZED:
 782:.\protocol.c  ****         case PUMP_BUSY:
 783:.\protocol.c  ****         case PUMP_PEOT:
 784:.\protocol.c  ****         case PUMP_FEOT:
 785:.\protocol.c  ****         case PUMP_STOPPED:
 786:.\protocol.c  ****         case PUMP_FAIL:
 787:.\protocol.c  ****             retval = true;
 2211              		.loc 1 787 0
ARM GAS  C:\Users\RECEPC~1\AppData\Local\Temp\ccnklw4g.s 			page 56


 2212 0010 0120     		movs	r0, #1
 2213              	.LVL322:
 788:.\protocol.c  ****             break;
 789:.\protocol.c  ****     }
 790:.\protocol.c  ****     return retval;
 791:.\protocol.c  **** }
 2214              		.loc 1 791 0
 2215 0012 7047     		bx	lr
 2216              		.cfi_endproc
 2217              	.LFE71:
 2218              		.size	PumpIsInValidState, .-PumpIsInValidState
 2219              		.section	.text.GetLRC,"ax",%progbits
 2220              		.align	2
 2221              		.global	GetLRC
 2222              		.thumb
 2223              		.thumb_func
 2224              		.type	GetLRC, %function
 2225              	GetLRC:
 2226              	.LFB72:
 792:.\protocol.c  **** 
 793:.\protocol.c  **** 
 794:.\protocol.c  **** 
 795:.\protocol.c  **** uint8_t GetLRC(char8 *_pbuffer)
 796:.\protocol.c  **** {
 2227              		.loc 1 796 0
 2228              		.cfi_startproc
 2229              		@ args = 0, pretend = 0, frame = 0
 2230              		@ frame_needed = 0, uses_anonymous_args = 0
 2231              		@ link register save eliminated.
 2232              	.LVL323:
 797:.\protocol.c  ****     uint8_t lrc = 0;
 2233              		.loc 1 797 0
 2234 0000 0021     		movs	r1, #0
 798:.\protocol.c  ****     while(*_pbuffer != 0xFB)
 2235              		.loc 1 798 0
 2236 0002 04E0     		b	.L191
 2237              	.LVL324:
 2238              	.L192:
 799:.\protocol.c  ****     {
 800:.\protocol.c  ****         lrc += (*_pbuffer & 0x0F);
 2239              		.loc 1 800 0
 2240 0004 03F00F03 		and	r3, r3, #15
 2241 0008 0B44     		add	r3, r3, r1
 2242 000a D9B2     		uxtb	r1, r3
 2243              	.LVL325:
 801:.\protocol.c  ****         _pbuffer++;
 2244              		.loc 1 801 0
 2245 000c 0130     		adds	r0, r0, #1
 2246              	.LVL326:
 2247              	.L191:
 798:.\protocol.c  ****     while(*_pbuffer != 0xFB)
 2248              		.loc 1 798 0
 2249 000e 0378     		ldrb	r3, [r0]	@ zero_extendqisi2
 2250 0010 FB2B     		cmp	r3, #251
 2251 0012 F7D1     		bne	.L192
 802:.\protocol.c  ****     }
 803:.\protocol.c  ****     lrc += (*_pbuffer & 0x0F);
ARM GAS  C:\Users\RECEPC~1\AppData\Local\Temp\ccnklw4g.s 			page 57


 2252              		.loc 1 803 0
 2253 0014 03F00F02 		and	r2, r3, #15
 2254 0018 8818     		adds	r0, r1, r2
 2255              	.LVL327:
 804:.\protocol.c  ****     return (((~lrc + 1) & 0x0F) | 0xE0);
 2256              		.loc 1 804 0
 2257 001a 4042     		negs	r0, r0
 2258              	.LVL328:
 2259 001c 00F00F00 		and	r0, r0, #15
 2260              	.LVL329:
 805:.\protocol.c  **** }
 2261              		.loc 1 805 0
 2262 0020 40F0E000 		orr	r0, r0, #224
 2263 0024 7047     		bx	lr
 2264              		.cfi_endproc
 2265              	.LFE72:
 2266              		.size	GetLRC, .-GetLRC
 2267 0026 00BF     		.section	.text.PresetData,"ax",%progbits
 2268              		.align	2
 2269              		.global	PresetData
 2270              		.thumb
 2271              		.thumb_func
 2272              		.type	PresetData, %function
 2273              	PresetData:
 2274              	.LFB67:
 416:.\protocol.c  ****     char8 SendComand[18]={0,0,0,0,0,0,0,0,0,0,0,0,0,0,0,0,0,0};
 2275              		.loc 1 416 0
 2276              		.cfi_startproc
 2277              		@ args = 0, pretend = 0, frame = 24
 2278              		@ frame_needed = 0, uses_anonymous_args = 0
 2279              	.LVL330:
 2280 0000 F0B5     		push	{r4, r5, r6, r7, lr}
 2281              		.cfi_def_cfa_offset 20
 2282              		.cfi_offset 4, -20
 2283              		.cfi_offset 5, -16
 2284              		.cfi_offset 6, -12
 2285              		.cfi_offset 7, -8
 2286              		.cfi_offset 14, -4
 2287 0002 87B0     		sub	sp, sp, #28
 2288              		.cfi_def_cfa_offset 48
 2289 0004 0546     		mov	r5, r0
 2290 0006 0E46     		mov	r6, r1
 2291 0008 1446     		mov	r4, r2
 417:.\protocol.c  ****     uint8 state,x,y,z;    
 2292              		.loc 1 417 0
 2293 000a 0023     		movs	r3, #0
 2294              	.LVL331:
 2295 000c 0193     		str	r3, [sp, #4]
 2296 000e 0293     		str	r3, [sp, #8]
 2297 0010 0393     		str	r3, [sp, #12]
 2298 0012 0493     		str	r3, [sp, #16]
 2299 0014 ADF81430 		strh	r3, [sp, #20]	@ movhi
 2300              	.LVL332:
 423:.\protocol.c  ****     if(state == 0x06 || state == 0x07){
 2301              		.loc 1 423 0
 2302 0018 FFF7FEFF 		bl	get_state
 2303              	.LVL333:
ARM GAS  C:\Users\RECEPC~1\AppData\Local\Temp\ccnklw4g.s 			page 58


 424:.\protocol.c  ****         Pump_PutChar(0x20|sideR);
 2304              		.loc 1 424 0
 2305 001c 0638     		subs	r0, r0, #6
 2306              	.LVL334:
 2307 001e C0B2     		uxtb	r0, r0
 2308 0020 0128     		cmp	r0, #1
 2309 0022 0AD8     		bhi	.L231
 425:.\protocol.c  ****         CyDelay(50);
 2310              		.loc 1 425 0
 2311 0024 45F02000 		orr	r0, r5, #32
 2312 0028 FFF7FEFF 		bl	Pump_PutChar
 2313              	.LVL335:
 426:.\protocol.c  ****         PumpDataReceive = Pump_ReadRxData();
 2314              		.loc 1 426 0
 2315 002c 3220     		movs	r0, #50
 2316 002e FFF7FEFF 		bl	CyDelay
 2317              	.LVL336:
 427:.\protocol.c  ****     }
 2318              		.loc 1 427 0
 2319 0032 FFF7FEFF 		bl	Pump_ReadRxData
 2320              	.LVL337:
 2321 0036 0746     		mov	r7, r0
 2322              	.LVL338:
 2323 0038 00E0     		b	.L194
 2324              	.LVL339:
 2325              	.L231:
 419:.\protocol.c  ****     x = 0;
 2326              		.loc 1 419 0
 2327 003a 0027     		movs	r7, #0
 2328              	.LVL340:
 2329              	.L194:
 429:.\protocol.c  ****     Pump_ClearRxBuffer();
 2330              		.loc 1 429 0
 2331 003c FFF7FEFF 		bl	Pump_ClearRxBuffer
 2332              	.LVL341:
 430:.\protocol.c  ****     if(PumpDataReceive == (0xd0|sideR)){
 2333              		.loc 1 430 0
 2334 0040 FFF7FEFF 		bl	Pump_ClearRxBuffer
 2335              	.LVL342:
 431:.\protocol.c  ****         SendComand[x] = SOM; x++;
 2336              		.loc 1 431 0
 2337 0044 45F0D003 		orr	r3, r5, #208
 2338 0048 BB42     		cmp	r3, r7
 2339 004a 40F05381 		bne	.L232
 432:.\protocol.c  ****         SendComand[x] = 0xE1; x++;
 2340              		.loc 1 432 0
 2341 004e FF23     		movs	r3, #255
 2342 0050 8DF80430 		strb	r3, [sp, #4]
 2343              	.LVL343:
 433:.\protocol.c  ****         if(sideR == side.a.dir){
 2344              		.loc 1 433 0
 2345 0054 E123     		movs	r3, #225
 2346 0056 8DF80530 		strb	r3, [sp, #5]
 2347              	.LVL344:
 434:.\protocol.c  ****             SendComand[x] = 0xF0 | (bufferDisplay1.presetType[0]&0x0F); x++;
 2348              		.loc 1 434 0
 2349 005a A94B     		ldr	r3, .L237
ARM GAS  C:\Users\RECEPC~1\AppData\Local\Temp\ccnklw4g.s 			page 59


 2350 005c 1B78     		ldrb	r3, [r3]	@ zero_extendqisi2
 2351 005e AB42     		cmp	r3, r5
 2352 0060 40F0A180 		bne	.L196
 435:.\protocol.c  ****             SendComand[x] = 0xF6; x++;
 2353              		.loc 1 435 0
 2354 0064 A74A     		ldr	r2, .L237+4
 2355 0066 92F86330 		ldrb	r3, [r2, #99]	@ zero_extendqisi2
 2356 006a 63F00F03 		orn	r3, r3, #15
 2357 006e 8DF80630 		strb	r3, [sp, #6]
 2358              	.LVL345:
 436:.\protocol.c  ****             SendComand[x] = 0xE0 | ((grade-1)&0x0F); x++;
 2359              		.loc 1 436 0
 2360 0072 F623     		movs	r3, #246
 2361 0074 8DF80730 		strb	r3, [sp, #7]
 2362              	.LVL346:
 437:.\protocol.c  ****             SendComand[x] = PRDn; x++;
 2363              		.loc 1 437 0
 2364 0078 013E     		subs	r6, r6, #1
 2365 007a 06F00F06 		and	r6, r6, #15
 2366 007e 66F01F06 		orn	r6, r6, #31
 2367 0082 8DF80860 		strb	r6, [sp, #8]
 2368              	.LVL347:
 438:.\protocol.c  ****             if(bufferDisplay1.presetType[1] == 'F'){
 2369              		.loc 1 438 0
 2370 0086 F823     		movs	r3, #248
 2371 0088 8DF80930 		strb	r3, [sp, #9]
 2372              	.LVL348:
 439:.\protocol.c  ****                 for(y = x; y < digits+x; y ++ ){
 2373              		.loc 1 439 0
 2374 008c 92F86450 		ldrb	r5, [r2, #100]	@ zero_extendqisi2
 2375 0090 462D     		cmp	r5, #70
 2376 0092 09D0     		beq	.L233
 438:.\protocol.c  ****             if(bufferDisplay1.presetType[1] == 'F'){
 2377              		.loc 1 438 0
 2378 0094 0623     		movs	r3, #6
 2379 0096 1AE0     		b	.L198
 2380              	.LVL349:
 2381              	.L199:
 441:.\protocol.c  ****                 }                
 2382              		.loc 1 441 0 discriminator 3
 2383 0098 06AA     		add	r2, sp, #24
 2384 009a 1A44     		add	r2, r2, r3
 2385 009c E921     		movs	r1, #233
 2386 009e 02F8141C 		strb	r1, [r2, #-20]
 440:.\protocol.c  ****                     SendComand[y] = 0xE9;                    
 2387              		.loc 1 440 0 discriminator 3
 2388 00a2 0133     		adds	r3, r3, #1
 2389              	.LVL350:
 2390 00a4 DBB2     		uxtb	r3, r3
 2391              	.LVL351:
 2392 00a6 00E0     		b	.L197
 2393              	.LVL352:
 2394              	.L233:
 2395 00a8 0623     		movs	r3, #6
 2396              	.L197:
 2397              	.LVL353:
 440:.\protocol.c  ****                     SendComand[y] = 0xE9;                    
ARM GAS  C:\Users\RECEPC~1\AppData\Local\Temp\ccnklw4g.s 			page 60


 2398              		.loc 1 440 0 is_stmt 0 discriminator 1
 2399 00aa 974A     		ldr	r2, .L237+8
 2400 00ac 1278     		ldrb	r2, [r2]	@ zero_extendqisi2
 2401 00ae 0632     		adds	r2, r2, #6
 2402 00b0 9342     		cmp	r3, r2
 2403 00b2 F1DB     		blt	.L199
 2404              	.LVL354:
 444:.\protocol.c  ****                     SendComand[y] = 0xE0;
 2405              		.loc 1 444 0 is_stmt 1
 2406 00b4 1A46     		mov	r2, r3
 2407 00b6 08E0     		b	.L200
 2408              	.LVL355:
 2409              	.L201:
 445:.\protocol.c  ****                     x++;
 2410              		.loc 1 445 0 discriminator 3
 2411 00b8 06A9     		add	r1, sp, #24
 2412 00ba 1144     		add	r1, r1, r2
 2413 00bc E020     		movs	r0, #224
 2414 00be 01F8140C 		strb	r0, [r1, #-20]
 446:.\protocol.c  ****                 }                
 2415              		.loc 1 446 0 discriminator 3
 2416 00c2 0133     		adds	r3, r3, #1
 2417              	.LVL356:
 2418 00c4 DBB2     		uxtb	r3, r3
 2419              	.LVL357:
 444:.\protocol.c  ****                     SendComand[y] = 0xE0;
 2420              		.loc 1 444 0 discriminator 3
 2421 00c6 0132     		adds	r2, r2, #1
 2422              	.LVL358:
 2423 00c8 D2B2     		uxtb	r2, r2
 2424              	.LVL359:
 2425              	.L200:
 444:.\protocol.c  ****                     SendComand[y] = 0xE0;
 2426              		.loc 1 444 0 is_stmt 0 discriminator 1
 2427 00ca 0D2A     		cmp	r2, #13
 2428 00cc F4D9     		bls	.L201
 2429              	.LVL360:
 2430              	.L198:
 449:.\protocol.c  ****                 z = value[0];
 2431              		.loc 1 449 0 is_stmt 1
 2432 00ce 442D     		cmp	r5, #68
 2433 00d0 20D1     		bne	.L202
 450:.\protocol.c  ****                 for(y = x; y < value[0]+x; y ++ ){
 2434              		.loc 1 450 0
 2435 00d2 2078     		ldrb	r0, [r4]	@ zero_extendqisi2
 2436              	.LVL361:
 451:.\protocol.c  ****                     SendComand[y] = 0xE0|(value[z]&0x0F); z--;                    
 2437              		.loc 1 451 0
 2438 00d4 1A46     		mov	r2, r3
 2439 00d6 0CE0     		b	.L203
 2440              	.LVL362:
 2441              	.L204:
 452:.\protocol.c  ****                 }                
 2442              		.loc 1 452 0 discriminator 3
 2443 00d8 215C     		ldrb	r1, [r4, r0]	@ zero_extendqisi2
 2444 00da 06AE     		add	r6, sp, #24
 2445 00dc 1644     		add	r6, r6, r2
ARM GAS  C:\Users\RECEPC~1\AppData\Local\Temp\ccnklw4g.s 			page 61


 2446 00de 01F00F01 		and	r1, r1, #15
 2447 00e2 61F01F01 		orn	r1, r1, #31
 2448 00e6 06F8141C 		strb	r1, [r6, #-20]
 2449 00ea 0138     		subs	r0, r0, #1
 2450              	.LVL363:
 2451 00ec C0B2     		uxtb	r0, r0
 2452              	.LVL364:
 451:.\protocol.c  ****                     SendComand[y] = 0xE0|(value[z]&0x0F); z--;                    
 2453              		.loc 1 451 0 discriminator 3
 2454 00ee 0132     		adds	r2, r2, #1
 2455              	.LVL365:
 2456 00f0 D2B2     		uxtb	r2, r2
 2457              	.LVL366:
 2458              	.L203:
 451:.\protocol.c  ****                     SendComand[y] = 0xE0|(value[z]&0x0F); z--;                    
 2459              		.loc 1 451 0 is_stmt 0 discriminator 1
 2460 00f2 2178     		ldrb	r1, [r4]	@ zero_extendqisi2
 2461 00f4 1944     		add	r1, r1, r3
 2462 00f6 8A42     		cmp	r2, r1
 2463 00f8 EEDB     		blt	.L204
 454:.\protocol.c  ****                 for(y = x; y < 14; y ++ ){
 2464              		.loc 1 454 0 is_stmt 1
 2465 00fa 1346     		mov	r3, r2
 2466              	.LVL367:
 455:.\protocol.c  ****                     SendComand[y] = 0xE0;
 2467              		.loc 1 455 0
 2468 00fc 08E0     		b	.L205
 2469              	.LVL368:
 2470              	.L206:
 456:.\protocol.c  ****                     x++;
 2471              		.loc 1 456 0 discriminator 3
 2472 00fe 06A9     		add	r1, sp, #24
 2473 0100 1144     		add	r1, r1, r2
 2474 0102 E020     		movs	r0, #224
 2475 0104 01F8140C 		strb	r0, [r1, #-20]
 457:.\protocol.c  ****                 }                
 2476              		.loc 1 457 0 discriminator 3
 2477 0108 0133     		adds	r3, r3, #1
 2478              	.LVL369:
 2479 010a DBB2     		uxtb	r3, r3
 2480              	.LVL370:
 455:.\protocol.c  ****                     SendComand[y] = 0xE0;
 2481              		.loc 1 455 0 discriminator 3
 2482 010c 0132     		adds	r2, r2, #1
 2483              	.LVL371:
 2484 010e D2B2     		uxtb	r2, r2
 2485              	.LVL372:
 2486              	.L205:
 455:.\protocol.c  ****                     SendComand[y] = 0xE0;
 2487              		.loc 1 455 0 is_stmt 0 discriminator 1
 2488 0110 0D2A     		cmp	r2, #13
 2489 0112 F4D9     		bls	.L206
 2490              	.LVL373:
 2491              	.L202:
 460:.\protocol.c  ****                 z = value[0];
 2492              		.loc 1 460 0 is_stmt 1
 2493 0114 562D     		cmp	r5, #86
ARM GAS  C:\Users\RECEPC~1\AppData\Local\Temp\ccnklw4g.s 			page 62


 2494 0116 20D1     		bne	.L207
 461:.\protocol.c  ****                 for(y = x; y < value[0]+x; y ++ ){
 2495              		.loc 1 461 0
 2496 0118 2078     		ldrb	r0, [r4]	@ zero_extendqisi2
 2497              	.LVL374:
 462:.\protocol.c  ****                     SendComand[y] = 0xE0|(value[z]&0x0F); z--;                    
 2498              		.loc 1 462 0
 2499 011a 1A46     		mov	r2, r3
 2500 011c 0CE0     		b	.L208
 2501              	.LVL375:
 2502              	.L209:
 463:.\protocol.c  ****                 }                
 2503              		.loc 1 463 0 discriminator 3
 2504 011e 215C     		ldrb	r1, [r4, r0]	@ zero_extendqisi2
 2505 0120 06AD     		add	r5, sp, #24
 2506 0122 1544     		add	r5, r5, r2
 2507 0124 01F00F01 		and	r1, r1, #15
 2508 0128 61F01F01 		orn	r1, r1, #31
 2509 012c 05F8141C 		strb	r1, [r5, #-20]
 2510 0130 0138     		subs	r0, r0, #1
 2511              	.LVL376:
 2512 0132 C0B2     		uxtb	r0, r0
 2513              	.LVL377:
 462:.\protocol.c  ****                     SendComand[y] = 0xE0|(value[z]&0x0F); z--;                    
 2514              		.loc 1 462 0 discriminator 3
 2515 0134 0132     		adds	r2, r2, #1
 2516              	.LVL378:
 2517 0136 D2B2     		uxtb	r2, r2
 2518              	.LVL379:
 2519              	.L208:
 462:.\protocol.c  ****                     SendComand[y] = 0xE0|(value[z]&0x0F); z--;                    
 2520              		.loc 1 462 0 is_stmt 0 discriminator 1
 2521 0138 2178     		ldrb	r1, [r4]	@ zero_extendqisi2
 2522 013a 1944     		add	r1, r1, r3
 2523 013c 8A42     		cmp	r2, r1
 2524 013e EEDB     		blt	.L209
 465:.\protocol.c  ****                 for(y = x; y < 14; y ++ ){
 2525              		.loc 1 465 0 is_stmt 1
 2526 0140 1346     		mov	r3, r2
 2527              	.LVL380:
 466:.\protocol.c  ****                     SendComand[y] = 0xE0;
 2528              		.loc 1 466 0
 2529 0142 08E0     		b	.L210
 2530              	.LVL381:
 2531              	.L211:
 467:.\protocol.c  ****                     x++;
 2532              		.loc 1 467 0 discriminator 3
 2533 0144 06A9     		add	r1, sp, #24
 2534 0146 1144     		add	r1, r1, r2
 2535 0148 E020     		movs	r0, #224
 2536 014a 01F8140C 		strb	r0, [r1, #-20]
 468:.\protocol.c  ****                 }                
 2537              		.loc 1 468 0 discriminator 3
 2538 014e 0133     		adds	r3, r3, #1
 2539              	.LVL382:
 2540 0150 DBB2     		uxtb	r3, r3
 2541              	.LVL383:
ARM GAS  C:\Users\RECEPC~1\AppData\Local\Temp\ccnklw4g.s 			page 63


 466:.\protocol.c  ****                     SendComand[y] = 0xE0;
 2542              		.loc 1 466 0 discriminator 3
 2543 0152 0132     		adds	r2, r2, #1
 2544              	.LVL384:
 2545 0154 D2B2     		uxtb	r2, r2
 2546              	.LVL385:
 2547              	.L210:
 466:.\protocol.c  ****                     SendComand[y] = 0xE0;
 2548              		.loc 1 466 0 is_stmt 0 discriminator 1
 2549 0156 0D2A     		cmp	r2, #13
 2550 0158 F4D9     		bls	.L211
 2551              	.LVL386:
 2552              	.L207:
 471:.\protocol.c  ****             SendComand[x] = GetLRC(SendComand);  x++;
 2553              		.loc 1 471 0 is_stmt 1
 2554 015a 06AA     		add	r2, sp, #24
 2555 015c 1A44     		add	r2, r2, r3
 2556 015e FB21     		movs	r1, #251
 2557 0160 02F8141C 		strb	r1, [r2, #-20]
 2558 0164 5D1C     		adds	r5, r3, #1
 2559 0166 EDB2     		uxtb	r5, r5
 2560              	.LVL387:
 472:.\protocol.c  ****             SendComand[x] = (EOM);
 2561              		.loc 1 472 0
 2562 0168 01A8     		add	r0, sp, #4
 2563 016a FFF7FEFF 		bl	GetLRC
 2564              	.LVL388:
 2565 016e 06AB     		add	r3, sp, #24
 2566 0170 2B44     		add	r3, r3, r5
 2567 0172 03F8140C 		strb	r0, [r3, #-20]
 2568 0176 0135     		adds	r5, r5, #1
 2569              	.LVL389:
 2570 0178 EDB2     		uxtb	r5, r5
 2571              	.LVL390:
 473:.\protocol.c  ****             for(y=0; y<=x;y++){
 2572              		.loc 1 473 0
 2573 017a 06AB     		add	r3, sp, #24
 2574 017c 2B44     		add	r3, r3, r5
 2575 017e F022     		movs	r2, #240
 2576 0180 03F8142C 		strb	r2, [r3, #-20]
 2577              	.LVL391:
 474:.\protocol.c  ****                 Pump_PutChar(SendComand[y]);
 2578              		.loc 1 474 0
 2579 0184 0024     		movs	r4, #0
 2580              	.LVL392:
 2581 0186 07E0     		b	.L212
 2582              	.LVL393:
 2583              	.L213:
 475:.\protocol.c  ****             } 
 2584              		.loc 1 475 0 discriminator 3
 2585 0188 06AB     		add	r3, sp, #24
 2586 018a 2344     		add	r3, r3, r4
 2587 018c 13F8140C 		ldrb	r0, [r3, #-20]	@ zero_extendqisi2
 2588 0190 FFF7FEFF 		bl	Pump_PutChar
 2589              	.LVL394:
 474:.\protocol.c  ****                 Pump_PutChar(SendComand[y]);
 2590              		.loc 1 474 0 discriminator 3
ARM GAS  C:\Users\RECEPC~1\AppData\Local\Temp\ccnklw4g.s 			page 64


 2591 0194 0134     		adds	r4, r4, #1
 2592              	.LVL395:
 2593 0196 E4B2     		uxtb	r4, r4
 2594              	.LVL396:
 2595              	.L212:
 474:.\protocol.c  ****                 Pump_PutChar(SendComand[y]);
 2596              		.loc 1 474 0 is_stmt 0 discriminator 1
 2597 0198 AC42     		cmp	r4, r5
 2598 019a F5D9     		bls	.L213
 477:.\protocol.c  ****             return 1;
 2599              		.loc 1 477 0 is_stmt 1
 2600 019c 3220     		movs	r0, #50
 2601 019e FFF7FEFF 		bl	CyDelay
 2602              	.LVL397:
 478:.\protocol.c  ****         }
 2603              		.loc 1 478 0
 2604 01a2 0120     		movs	r0, #1
 2605 01a4 A9E0     		b	.L195
 2606              	.LVL398:
 2607              	.L196:
 480:.\protocol.c  ****             SendComand[x] = 0xF0 | (bufferDisplay2.presetType[0]&0x0F); x++;
 2608              		.loc 1 480 0
 2609 01a6 564B     		ldr	r3, .L237
 2610 01a8 93F80831 		ldrb	r3, [r3, #264]	@ zero_extendqisi2
 2611 01ac AB42     		cmp	r3, r5
 2612 01ae 40F0A380 		bne	.L234
 481:.\protocol.c  ****             SendComand[x] = 0xF6; x++;
 2613              		.loc 1 481 0
 2614 01b2 564A     		ldr	r2, .L237+12
 2615 01b4 92F86330 		ldrb	r3, [r2, #99]	@ zero_extendqisi2
 2616 01b8 63F00F03 		orn	r3, r3, #15
 2617 01bc 8DF80630 		strb	r3, [sp, #6]
 2618              	.LVL399:
 482:.\protocol.c  ****             SendComand[x] = 0xE0 | ((grade-1)&0x0F); x++;
 2619              		.loc 1 482 0
 2620 01c0 F623     		movs	r3, #246
 2621 01c2 8DF80730 		strb	r3, [sp, #7]
 2622              	.LVL400:
 483:.\protocol.c  ****             SendComand[x] = PRDn; x++;
 2623              		.loc 1 483 0
 2624 01c6 013E     		subs	r6, r6, #1
 2625 01c8 06F00F06 		and	r6, r6, #15
 2626 01cc 66F01F06 		orn	r6, r6, #31
 2627 01d0 8DF80860 		strb	r6, [sp, #8]
 2628              	.LVL401:
 484:.\protocol.c  ****             if(bufferDisplay2.presetType[1] == 'F'){
 2629              		.loc 1 484 0
 2630 01d4 F823     		movs	r3, #248
 2631 01d6 8DF80930 		strb	r3, [sp, #9]
 2632              	.LVL402:
 485:.\protocol.c  ****                 for(y = x; y < digits+x; y ++ ){
 2633              		.loc 1 485 0
 2634 01da 92F86450 		ldrb	r5, [r2, #100]	@ zero_extendqisi2
 2635 01de 462D     		cmp	r5, #70
 2636 01e0 09D0     		beq	.L235
 484:.\protocol.c  ****             if(bufferDisplay2.presetType[1] == 'F'){
 2637              		.loc 1 484 0
ARM GAS  C:\Users\RECEPC~1\AppData\Local\Temp\ccnklw4g.s 			page 65


 2638 01e2 0623     		movs	r3, #6
 2639 01e4 1AE0     		b	.L215
 2640              	.LVL403:
 2641              	.L216:
 487:.\protocol.c  ****                 }                
 2642              		.loc 1 487 0 discriminator 3
 2643 01e6 06AA     		add	r2, sp, #24
 2644 01e8 1A44     		add	r2, r2, r3
 2645 01ea E921     		movs	r1, #233
 2646 01ec 02F8141C 		strb	r1, [r2, #-20]
 486:.\protocol.c  ****                     SendComand[y] = 0xE9;                    
 2647              		.loc 1 486 0 discriminator 3
 2648 01f0 0133     		adds	r3, r3, #1
 2649              	.LVL404:
 2650 01f2 DBB2     		uxtb	r3, r3
 2651              	.LVL405:
 2652 01f4 00E0     		b	.L214
 2653              	.LVL406:
 2654              	.L235:
 2655 01f6 0623     		movs	r3, #6
 2656              	.L214:
 2657              	.LVL407:
 486:.\protocol.c  ****                     SendComand[y] = 0xE9;                    
 2658              		.loc 1 486 0 is_stmt 0 discriminator 1
 2659 01f8 434A     		ldr	r2, .L237+8
 2660 01fa 1278     		ldrb	r2, [r2]	@ zero_extendqisi2
 2661 01fc 0632     		adds	r2, r2, #6
 2662 01fe 9342     		cmp	r3, r2
 2663 0200 F1DB     		blt	.L216
 2664              	.LVL408:
 490:.\protocol.c  ****                     SendComand[y] = 0xE0;
 2665              		.loc 1 490 0 is_stmt 1
 2666 0202 1A46     		mov	r2, r3
 2667 0204 08E0     		b	.L217
 2668              	.LVL409:
 2669              	.L218:
 491:.\protocol.c  ****                     x++;
 2670              		.loc 1 491 0 discriminator 3
 2671 0206 06A9     		add	r1, sp, #24
 2672 0208 1144     		add	r1, r1, r2
 2673 020a E020     		movs	r0, #224
 2674 020c 01F8140C 		strb	r0, [r1, #-20]
 492:.\protocol.c  ****                 }                
 2675              		.loc 1 492 0 discriminator 3
 2676 0210 0133     		adds	r3, r3, #1
 2677              	.LVL410:
 2678 0212 DBB2     		uxtb	r3, r3
 2679              	.LVL411:
 490:.\protocol.c  ****                     SendComand[y] = 0xE0;
 2680              		.loc 1 490 0 discriminator 3
 2681 0214 0132     		adds	r2, r2, #1
 2682              	.LVL412:
 2683 0216 D2B2     		uxtb	r2, r2
 2684              	.LVL413:
 2685              	.L217:
 490:.\protocol.c  ****                     SendComand[y] = 0xE0;
 2686              		.loc 1 490 0 is_stmt 0 discriminator 1
ARM GAS  C:\Users\RECEPC~1\AppData\Local\Temp\ccnklw4g.s 			page 66


 2687 0218 0D2A     		cmp	r2, #13
 2688 021a F4D9     		bls	.L218
 2689              	.LVL414:
 2690              	.L215:
 495:.\protocol.c  ****                 z = value[0];
 2691              		.loc 1 495 0 is_stmt 1
 2692 021c 442D     		cmp	r5, #68
 2693 021e 20D1     		bne	.L219
 496:.\protocol.c  ****                 for(y = x; y < value[0]+x; y ++ ){
 2694              		.loc 1 496 0
 2695 0220 2078     		ldrb	r0, [r4]	@ zero_extendqisi2
 2696              	.LVL415:
 497:.\protocol.c  ****                     SendComand[y] = 0xE0|(value[z]&0x0F); z--;                    
 2697              		.loc 1 497 0
 2698 0222 1A46     		mov	r2, r3
 2699 0224 0CE0     		b	.L220
 2700              	.LVL416:
 2701              	.L221:
 498:.\protocol.c  ****                 }                
 2702              		.loc 1 498 0 discriminator 3
 2703 0226 215C     		ldrb	r1, [r4, r0]	@ zero_extendqisi2
 2704 0228 06AE     		add	r6, sp, #24
 2705 022a 1644     		add	r6, r6, r2
 2706 022c 01F00F01 		and	r1, r1, #15
 2707 0230 61F01F01 		orn	r1, r1, #31
 2708 0234 06F8141C 		strb	r1, [r6, #-20]
 2709 0238 0138     		subs	r0, r0, #1
 2710              	.LVL417:
 2711 023a C0B2     		uxtb	r0, r0
 2712              	.LVL418:
 497:.\protocol.c  ****                     SendComand[y] = 0xE0|(value[z]&0x0F); z--;                    
 2713              		.loc 1 497 0 discriminator 3
 2714 023c 0132     		adds	r2, r2, #1
 2715              	.LVL419:
 2716 023e D2B2     		uxtb	r2, r2
 2717              	.LVL420:
 2718              	.L220:
 497:.\protocol.c  ****                     SendComand[y] = 0xE0|(value[z]&0x0F); z--;                    
 2719              		.loc 1 497 0 is_stmt 0 discriminator 1
 2720 0240 2178     		ldrb	r1, [r4]	@ zero_extendqisi2
 2721 0242 1944     		add	r1, r1, r3
 2722 0244 8A42     		cmp	r2, r1
 2723 0246 EEDB     		blt	.L221
 500:.\protocol.c  ****                 for(y = x; y < 14; y ++ ){
 2724              		.loc 1 500 0 is_stmt 1
 2725 0248 1346     		mov	r3, r2
 2726              	.LVL421:
 501:.\protocol.c  ****                     SendComand[y] = 0xE0;
 2727              		.loc 1 501 0
 2728 024a 08E0     		b	.L222
 2729              	.LVL422:
 2730              	.L223:
 502:.\protocol.c  ****                     x++;
 2731              		.loc 1 502 0 discriminator 3
 2732 024c 06A9     		add	r1, sp, #24
 2733 024e 1144     		add	r1, r1, r2
 2734 0250 E020     		movs	r0, #224
ARM GAS  C:\Users\RECEPC~1\AppData\Local\Temp\ccnklw4g.s 			page 67


 2735 0252 01F8140C 		strb	r0, [r1, #-20]
 503:.\protocol.c  ****                 }                
 2736              		.loc 1 503 0 discriminator 3
 2737 0256 0133     		adds	r3, r3, #1
 2738              	.LVL423:
 2739 0258 DBB2     		uxtb	r3, r3
 2740              	.LVL424:
 501:.\protocol.c  ****                     SendComand[y] = 0xE0;
 2741              		.loc 1 501 0 discriminator 3
 2742 025a 0132     		adds	r2, r2, #1
 2743              	.LVL425:
 2744 025c D2B2     		uxtb	r2, r2
 2745              	.LVL426:
 2746              	.L222:
 501:.\protocol.c  ****                     SendComand[y] = 0xE0;
 2747              		.loc 1 501 0 is_stmt 0 discriminator 1
 2748 025e 0D2A     		cmp	r2, #13
 2749 0260 F4D9     		bls	.L223
 2750              	.LVL427:
 2751              	.L219:
 506:.\protocol.c  ****                 z = value[0];
 2752              		.loc 1 506 0 is_stmt 1
 2753 0262 562D     		cmp	r5, #86
 2754 0264 20D1     		bne	.L224
 507:.\protocol.c  ****                 for(y = x; y < value[0]+x; y ++ ){
 2755              		.loc 1 507 0
 2756 0266 2078     		ldrb	r0, [r4]	@ zero_extendqisi2
 2757              	.LVL428:
 508:.\protocol.c  ****                     SendComand[y] = 0xE0|(value[z]&0x0F); z--;                    
 2758              		.loc 1 508 0
 2759 0268 1A46     		mov	r2, r3
 2760 026a 0CE0     		b	.L225
 2761              	.LVL429:
 2762              	.L226:
 509:.\protocol.c  ****                 }                
 2763              		.loc 1 509 0 discriminator 3
 2764 026c 215C     		ldrb	r1, [r4, r0]	@ zero_extendqisi2
 2765 026e 06AD     		add	r5, sp, #24
 2766 0270 1544     		add	r5, r5, r2
 2767 0272 01F00F01 		and	r1, r1, #15
 2768 0276 61F01F01 		orn	r1, r1, #31
 2769 027a 05F8141C 		strb	r1, [r5, #-20]
 2770 027e 0138     		subs	r0, r0, #1
 2771              	.LVL430:
 2772 0280 C0B2     		uxtb	r0, r0
 2773              	.LVL431:
 508:.\protocol.c  ****                     SendComand[y] = 0xE0|(value[z]&0x0F); z--;                    
 2774              		.loc 1 508 0 discriminator 3
 2775 0282 0132     		adds	r2, r2, #1
 2776              	.LVL432:
 2777 0284 D2B2     		uxtb	r2, r2
 2778              	.LVL433:
 2779              	.L225:
 508:.\protocol.c  ****                     SendComand[y] = 0xE0|(value[z]&0x0F); z--;                    
 2780              		.loc 1 508 0 is_stmt 0 discriminator 1
 2781 0286 2178     		ldrb	r1, [r4]	@ zero_extendqisi2
 2782 0288 1944     		add	r1, r1, r3
ARM GAS  C:\Users\RECEPC~1\AppData\Local\Temp\ccnklw4g.s 			page 68


 2783 028a 8A42     		cmp	r2, r1
 2784 028c EEDB     		blt	.L226
 511:.\protocol.c  ****                 for(y = x; y < 14; y ++ ){
 2785              		.loc 1 511 0 is_stmt 1
 2786 028e 1346     		mov	r3, r2
 2787              	.LVL434:
 512:.\protocol.c  ****                     SendComand[y] = 0xE0;
 2788              		.loc 1 512 0
 2789 0290 08E0     		b	.L227
 2790              	.LVL435:
 2791              	.L228:
 513:.\protocol.c  ****                     x++;
 2792              		.loc 1 513 0 discriminator 3
 2793 0292 06A9     		add	r1, sp, #24
 2794 0294 1144     		add	r1, r1, r2
 2795 0296 E020     		movs	r0, #224
 2796 0298 01F8140C 		strb	r0, [r1, #-20]
 514:.\protocol.c  ****                 }                
 2797              		.loc 1 514 0 discriminator 3
 2798 029c 0133     		adds	r3, r3, #1
 2799              	.LVL436:
 2800 029e DBB2     		uxtb	r3, r3
 2801              	.LVL437:
 512:.\protocol.c  ****                     SendComand[y] = 0xE0;
 2802              		.loc 1 512 0 discriminator 3
 2803 02a0 0132     		adds	r2, r2, #1
 2804              	.LVL438:
 2805 02a2 D2B2     		uxtb	r2, r2
 2806              	.LVL439:
 2807              	.L227:
 512:.\protocol.c  ****                     SendComand[y] = 0xE0;
 2808              		.loc 1 512 0 is_stmt 0 discriminator 1
 2809 02a4 0D2A     		cmp	r2, #13
 2810 02a6 F4D9     		bls	.L228
 2811              	.LVL440:
 2812              	.L224:
 517:.\protocol.c  ****             SendComand[x] = GetLRC(SendComand);  x++;
 2813              		.loc 1 517 0 is_stmt 1
 2814 02a8 06AA     		add	r2, sp, #24
 2815 02aa 1A44     		add	r2, r2, r3
 2816 02ac FB21     		movs	r1, #251
 2817 02ae 02F8141C 		strb	r1, [r2, #-20]
 2818 02b2 5D1C     		adds	r5, r3, #1
 2819 02b4 EDB2     		uxtb	r5, r5
 2820              	.LVL441:
 518:.\protocol.c  ****             SendComand[x] = (EOM);
 2821              		.loc 1 518 0
 2822 02b6 01A8     		add	r0, sp, #4
 2823 02b8 FFF7FEFF 		bl	GetLRC
 2824              	.LVL442:
 2825 02bc 06AB     		add	r3, sp, #24
 2826 02be 2B44     		add	r3, r3, r5
 2827 02c0 03F8140C 		strb	r0, [r3, #-20]
 2828 02c4 0135     		adds	r5, r5, #1
 2829              	.LVL443:
 2830 02c6 EDB2     		uxtb	r5, r5
 2831              	.LVL444:
ARM GAS  C:\Users\RECEPC~1\AppData\Local\Temp\ccnklw4g.s 			page 69


 519:.\protocol.c  ****             for(y=0; y<=x;y++){
 2832              		.loc 1 519 0
 2833 02c8 06AB     		add	r3, sp, #24
 2834 02ca 2B44     		add	r3, r3, r5
 2835 02cc F022     		movs	r2, #240
 2836 02ce 03F8142C 		strb	r2, [r3, #-20]
 2837              	.LVL445:
 520:.\protocol.c  ****                 Pump_PutChar(SendComand[y]);
 2838              		.loc 1 520 0
 2839 02d2 0024     		movs	r4, #0
 2840              	.LVL446:
 2841 02d4 07E0     		b	.L229
 2842              	.LVL447:
 2843              	.L230:
 521:.\protocol.c  ****             } 
 2844              		.loc 1 521 0 discriminator 3
 2845 02d6 06AB     		add	r3, sp, #24
 2846 02d8 2344     		add	r3, r3, r4
 2847 02da 13F8140C 		ldrb	r0, [r3, #-20]	@ zero_extendqisi2
 2848 02de FFF7FEFF 		bl	Pump_PutChar
 2849              	.LVL448:
 520:.\protocol.c  ****                 Pump_PutChar(SendComand[y]);
 2850              		.loc 1 520 0 discriminator 3
 2851 02e2 0134     		adds	r4, r4, #1
 2852              	.LVL449:
 2853 02e4 E4B2     		uxtb	r4, r4
 2854              	.LVL450:
 2855              	.L229:
 520:.\protocol.c  ****                 Pump_PutChar(SendComand[y]);
 2856              		.loc 1 520 0 is_stmt 0 discriminator 1
 2857 02e6 AC42     		cmp	r4, r5
 2858 02e8 F5D9     		bls	.L230
 523:.\protocol.c  ****             return 1;
 2859              		.loc 1 523 0 is_stmt 1
 2860 02ea 3220     		movs	r0, #50
 2861 02ec FFF7FEFF 		bl	CyDelay
 2862              	.LVL451:
 524:.\protocol.c  ****         }
 2863              		.loc 1 524 0
 2864 02f0 0120     		movs	r0, #1
 2865 02f2 02E0     		b	.L195
 2866              	.LVL452:
 2867              	.L232:
 527:.\protocol.c  **** }
 2868              		.loc 1 527 0
 2869 02f4 0020     		movs	r0, #0
 2870 02f6 00E0     		b	.L195
 2871              	.LVL453:
 2872              	.L234:
 2873 02f8 0020     		movs	r0, #0
 2874              	.LVL454:
 2875              	.L195:
 528:.\protocol.c  **** 
 2876              		.loc 1 528 0
 2877 02fa 07B0     		add	sp, sp, #28
 2878              		.cfi_def_cfa_offset 20
 2879              		@ sp needed
ARM GAS  C:\Users\RECEPC~1\AppData\Local\Temp\ccnklw4g.s 			page 70


 2880 02fc F0BD     		pop	{r4, r5, r6, r7, pc}
 2881              	.LVL455:
 2882              	.L238:
 2883 02fe 00BF     		.align	2
 2884              	.L237:
 2885 0300 00000000 		.word	side
 2886 0304 00000000 		.word	bufferDisplay1
 2887 0308 00000000 		.word	digits
 2888 030c 00000000 		.word	bufferDisplay2
 2889              		.cfi_endproc
 2890              	.LFE67:
 2891              		.size	PresetData, .-PresetData
 2892              		.section	.text.PumpCompleteConfiguration,"ax",%progbits
 2893              		.align	2
 2894              		.global	PumpCompleteConfiguration
 2895              		.thumb
 2896              		.thumb_func
 2897              		.type	PumpCompleteConfiguration, %function
 2898              	PumpCompleteConfiguration:
 2899              	.LFB68:
 532:.\protocol.c  ****     uint8 state,x;
 2900              		.loc 1 532 0
 2901              		.cfi_startproc
 2902              		@ args = 0, pretend = 0, frame = 16
 2903              		@ frame_needed = 1, uses_anonymous_args = 0
 2904              	.LVL456:
 2905 0000 F0B5     		push	{r4, r5, r6, r7, lr}
 2906              		.cfi_def_cfa_offset 20
 2907              		.cfi_offset 4, -20
 2908              		.cfi_offset 5, -16
 2909              		.cfi_offset 6, -12
 2910              		.cfi_offset 7, -8
 2911              		.cfi_offset 14, -4
 2912 0002 85B0     		sub	sp, sp, #20
 2913              		.cfi_def_cfa_offset 40
 2914 0004 00AF     		add	r7, sp, #0
 2915              		.cfi_def_cfa_register 7
 2916 0006 0446     		mov	r4, r0
 2917              	.LVL457:
 539:.\protocol.c  ****     if(state == 0x06){
 2918              		.loc 1 539 0
 2919 0008 FFF7FEFF 		bl	get_state
 2920              	.LVL458:
 540:.\protocol.c  ****         Pump_PutChar(0x20|side);
 2921              		.loc 1 540 0
 2922 000c 0628     		cmp	r0, #6
 2923 000e 0AD1     		bne	.L253
 541:.\protocol.c  ****         CyDelay(50);
 2924              		.loc 1 541 0
 2925 0010 44F02000 		orr	r0, r4, #32
 2926              	.LVL459:
 2927 0014 FFF7FEFF 		bl	Pump_PutChar
 2928              	.LVL460:
 542:.\protocol.c  ****         PumpDataReceive = Pump_ReadRxData();
 2929              		.loc 1 542 0
 2930 0018 3220     		movs	r0, #50
 2931 001a FFF7FEFF 		bl	CyDelay
ARM GAS  C:\Users\RECEPC~1\AppData\Local\Temp\ccnklw4g.s 			page 71


 2932              	.LVL461:
 543:.\protocol.c  ****     }
 2933              		.loc 1 543 0
 2934 001e FFF7FEFF 		bl	Pump_ReadRxData
 2935              	.LVL462:
 2936 0022 0546     		mov	r5, r0
 2937              	.LVL463:
 2938 0024 00E0     		b	.L240
 2939              	.LVL464:
 2940              	.L253:
 535:.\protocol.c  ****     
 2941              		.loc 1 535 0
 2942 0026 0025     		movs	r5, #0
 2943              	.LVL465:
 2944              	.L240:
 545:.\protocol.c  ****     if(PumpDataReceive == (0xd0|side)){    
 2945              		.loc 1 545 0
 2946 0028 FFF7FEFF 		bl	Pump_ClearRxBuffer
 2947              	.LVL466:
 546:.\protocol.c  ****         SendComand[0] = SOM; //Start Of Message    
 2948              		.loc 1 546 0
 2949 002c 44F0D004 		orr	r4, r4, #208
 2950 0030 AC42     		cmp	r4, r5
 2951 0032 22D1     		bne	.L241
 547:.\protocol.c  ****         SendComand[1] = (0xE9);//Data Length
 2952              		.loc 1 547 0
 2953 0034 FF23     		movs	r3, #255
 2954 0036 3B71     		strb	r3, [r7, #4]
 548:.\protocol.c  ****         SendComand[2] = (0xFE);//Special Functions Next (0xB0 0xB0 0xBE)
 2955              		.loc 1 548 0
 2956 0038 E923     		movs	r3, #233
 2957 003a 7B71     		strb	r3, [r7, #5]
 549:.\protocol.c  ****         SendComand[3] = (0xEE);//Complete Pump Configuration Request (sf1)
 2958              		.loc 1 549 0
 2959 003c FE23     		movs	r3, #254
 2960 003e BB71     		strb	r3, [r7, #6]
 550:.\protocol.c  ****         SendComand[4] = (0xE0);//Complete Pump Configuration Request (sf2)
 2961              		.loc 1 550 0
 2962 0040 EE23     		movs	r3, #238
 2963 0042 FB71     		strb	r3, [r7, #7]
 551:.\protocol.c  ****         SendComand[5] = (0xE0);//Complete Pump Configuration Request (sf3)
 2964              		.loc 1 551 0
 2965 0044 E023     		movs	r3, #224
 2966 0046 3B72     		strb	r3, [r7, #8]
 552:.\protocol.c  ****         SendComand[6] = (0xFB);
 2967              		.loc 1 552 0
 2968 0048 7B72     		strb	r3, [r7, #9]
 553:.\protocol.c  ****         SendComand[7] = GetLRC(SendComand);
 2969              		.loc 1 553 0
 2970 004a FB23     		movs	r3, #251
 2971 004c BB72     		strb	r3, [r7, #10]
 554:.\protocol.c  ****         SendComand[8] = (EOM);
 2972              		.loc 1 554 0
 2973 004e 381D     		adds	r0, r7, #4
 2974 0050 FFF7FEFF 		bl	GetLRC
 2975              	.LVL467:
 2976 0054 F872     		strb	r0, [r7, #11]
ARM GAS  C:\Users\RECEPC~1\AppData\Local\Temp\ccnklw4g.s 			page 72


 555:.\protocol.c  ****         for(x=0; x<=8;x++){
 2977              		.loc 1 555 0
 2978 0056 F023     		movs	r3, #240
 2979 0058 3B73     		strb	r3, [r7, #12]
 2980              	.LVL468:
 556:.\protocol.c  ****             Pump_PutChar(SendComand[x]);
 2981              		.loc 1 556 0
 2982 005a 0024     		movs	r4, #0
 2983 005c 08E0     		b	.L242
 2984              	.LVL469:
 2985              	.L243:
 557:.\protocol.c  ****         } 
 2986              		.loc 1 557 0 discriminator 3
 2987 005e 07F11003 		add	r3, r7, #16
 2988 0062 2344     		add	r3, r3, r4
 2989 0064 13F80C0C 		ldrb	r0, [r3, #-12]	@ zero_extendqisi2
 2990 0068 FFF7FEFF 		bl	Pump_PutChar
 2991              	.LVL470:
 556:.\protocol.c  ****             Pump_PutChar(SendComand[x]);
 2992              		.loc 1 556 0 discriminator 3
 2993 006c 0134     		adds	r4, r4, #1
 2994              	.LVL471:
 2995 006e E4B2     		uxtb	r4, r4
 2996              	.LVL472:
 2997              	.L242:
 556:.\protocol.c  ****             Pump_PutChar(SendComand[x]);
 2998              		.loc 1 556 0 is_stmt 0 discriminator 1
 2999 0070 082C     		cmp	r4, #8
 3000 0072 F4D9     		bls	.L243
 559:.\protocol.c  ****     }
 3001              		.loc 1 559 0 is_stmt 1
 3002 0074 C820     		movs	r0, #200
 3003 0076 FFF7FEFF 		bl	CyDelay
 3004              	.LVL473:
 3005              	.L241:
 561:.\protocol.c  ****     char8 buffer[BufferSize];
 3006              		.loc 1 561 0
 3007 007a FFF7FEFF 		bl	Pump_GetRxBufferSize
 3008              	.LVL474:
 3009 007e C6B2     		uxtb	r6, r0
 3010              	.LVL475:
 562:.\protocol.c  ****     for(x=0;x<=BufferSize;x++){
 3011              		.loc 1 562 0
 3012 0080 F31D     		adds	r3, r6, #7
 3013 0082 23F00703 		bic	r3, r3, #7
 3014 0086 ADEB030D 		sub	sp, sp, r3
 3015 008a 6D46     		mov	r5, sp
 3016              	.LVL476:
 563:.\protocol.c  ****        buffer[x]=Pump_ReadRxData(); 
 3017              		.loc 1 563 0
 3018 008c 0024     		movs	r4, #0
 3019 008e 04E0     		b	.L244
 3020              	.LVL477:
 3021              	.L245:
 564:.\protocol.c  ****     }
 3022              		.loc 1 564 0 discriminator 3
 3023 0090 FFF7FEFF 		bl	Pump_ReadRxData
ARM GAS  C:\Users\RECEPC~1\AppData\Local\Temp\ccnklw4g.s 			page 73


 3024              	.LVL478:
 3025 0094 2855     		strb	r0, [r5, r4]
 563:.\protocol.c  ****        buffer[x]=Pump_ReadRxData(); 
 3026              		.loc 1 563 0 discriminator 3
 3027 0096 0134     		adds	r4, r4, #1
 3028              	.LVL479:
 3029 0098 E4B2     		uxtb	r4, r4
 3030              	.LVL480:
 3031              	.L244:
 563:.\protocol.c  ****        buffer[x]=Pump_ReadRxData(); 
 3032              		.loc 1 563 0 is_stmt 0 discriminator 1
 3033 009a B442     		cmp	r4, r6
 3034 009c F8D9     		bls	.L245
 566:.\protocol.c  **** ///////////////////////////////////////////////////////////////////////////////////////////////////
 3035              		.loc 1 566 0 is_stmt 1
 3036 009e FFF7FEFF 		bl	Pump_ClearRxBuffer
 3037              	.LVL481:
 568:.\protocol.c  ****     ConversionFactor    =  buffer [12] &0x0F;
 3038              		.loc 1 568 0
 3039 00a2 AB7A     		ldrb	r3, [r5, #10]	@ zero_extendqisi2
 3040 00a4 03F00F03 		and	r3, r3, #15
 3041 00a8 264A     		ldr	r2, .L255
 3042 00aa 1370     		strb	r3, [r2]
 569:.\protocol.c  ****     if(ConversionFactor == 1){
 3043              		.loc 1 569 0
 3044 00ac 2B7B     		ldrb	r3, [r5, #12]	@ zero_extendqisi2
 3045 00ae 03F00F03 		and	r3, r3, #15
 3046 00b2 254A     		ldr	r2, .L255+4
 3047 00b4 1370     		strb	r3, [r2]
 570:.\protocol.c  ****         VolUnit[0] = 0x47;
 3048              		.loc 1 570 0
 3049 00b6 012B     		cmp	r3, #1
 3050 00b8 0AD1     		bne	.L246
 571:.\protocol.c  ****         VolUnit[1] = 0x61;
 3051              		.loc 1 571 0
 3052 00ba 244A     		ldr	r2, .L255+8
 3053 00bc 4721     		movs	r1, #71
 3054 00be 1170     		strb	r1, [r2]
 572:.\protocol.c  ****         VolUnit[2] = 0x6C;
 3055              		.loc 1 572 0
 3056 00c0 6121     		movs	r1, #97
 3057 00c2 5170     		strb	r1, [r2, #1]
 573:.\protocol.c  ****         VolUnit[3] = 0x20;
 3058              		.loc 1 573 0
 3059 00c4 6C21     		movs	r1, #108
 3060 00c6 9170     		strb	r1, [r2, #2]
 574:.\protocol.c  ****         VolUnit[4] = 0x20;
 3061              		.loc 1 574 0
 3062 00c8 2021     		movs	r1, #32
 3063 00ca D170     		strb	r1, [r2, #3]
 575:.\protocol.c  ****         VolUnit[5] = 0x20;
 3064              		.loc 1 575 0
 3065 00cc 1171     		strb	r1, [r2, #4]
 576:.\protocol.c  ****     }
 3066              		.loc 1 576 0
 3067 00ce 5171     		strb	r1, [r2, #5]
 3068              	.L246:
ARM GAS  C:\Users\RECEPC~1\AppData\Local\Temp\ccnklw4g.s 			page 74


 578:.\protocol.c  ****         VolUnit[0] = 0x55;
 3069              		.loc 1 578 0
 3070 00d0 022B     		cmp	r3, #2
 3071 00d2 0CD1     		bne	.L247
 579:.\protocol.c  ****         VolUnit[1] = 0x6B;
 3072              		.loc 1 579 0
 3073 00d4 1D4B     		ldr	r3, .L255+8
 3074 00d6 5522     		movs	r2, #85
 3075 00d8 1A70     		strb	r2, [r3]
 580:.\protocol.c  ****         VolUnit[2] = 0x20;
 3076              		.loc 1 580 0
 3077 00da 6B22     		movs	r2, #107
 3078 00dc 5A70     		strb	r2, [r3, #1]
 581:.\protocol.c  ****         VolUnit[3] = 0x47;
 3079              		.loc 1 581 0
 3080 00de 2022     		movs	r2, #32
 3081 00e0 9A70     		strb	r2, [r3, #2]
 582:.\protocol.c  ****         VolUnit[4] = 0x61;
 3082              		.loc 1 582 0
 3083 00e2 4722     		movs	r2, #71
 3084 00e4 DA70     		strb	r2, [r3, #3]
 583:.\protocol.c  ****         VolUnit[5] = 0x6C;        
 3085              		.loc 1 583 0
 3086 00e6 6122     		movs	r2, #97
 3087 00e8 1A71     		strb	r2, [r3, #4]
 584:.\protocol.c  ****     }
 3088              		.loc 1 584 0
 3089 00ea 6C22     		movs	r2, #108
 3090 00ec 5A71     		strb	r2, [r3, #5]
 3091              	.L247:
 586:.\protocol.c  ****     if( (buffer [16]&0x0F) == 1 || (buffer [16]&0x0F) == 4){
 3092              		.loc 1 586 0
 3093 00ee AB7B     		ldrb	r3, [r5, #14]	@ zero_extendqisi2
 3094 00f0 03F00F03 		and	r3, r3, #15
 3095 00f4 013B     		subs	r3, r3, #1
 3096 00f6 164A     		ldr	r2, .L255+12
 3097 00f8 1370     		strb	r3, [r2]
 587:.\protocol.c  ****         VolDec              = 3;
 3098              		.loc 1 587 0
 3099 00fa 2B7C     		ldrb	r3, [r5, #16]	@ zero_extendqisi2
 3100 00fc 03F00F03 		and	r3, r3, #15
 3101 0100 012B     		cmp	r3, #1
 3102 0102 01D0     		beq	.L248
 587:.\protocol.c  ****         VolDec              = 3;
 3103              		.loc 1 587 0 is_stmt 0 discriminator 1
 3104 0104 042B     		cmp	r3, #4
 3105 0106 02D1     		bne	.L249
 3106              	.L248:
 588:.\protocol.c  ****     }
 3107              		.loc 1 588 0 is_stmt 1
 3108 0108 0321     		movs	r1, #3
 3109 010a 124A     		ldr	r2, .L255+16
 3110 010c 1170     		strb	r1, [r2]
 3111              	.L249:
 590:.\protocol.c  ****         VolDec              = 2;
 3112              		.loc 1 590 0
 3113 010e 032B     		cmp	r3, #3
ARM GAS  C:\Users\RECEPC~1\AppData\Local\Temp\ccnklw4g.s 			page 75


 3114 0110 00D0     		beq	.L250
 590:.\protocol.c  ****         VolDec              = 2;
 3115              		.loc 1 590 0 is_stmt 0 discriminator 1
 3116 0112 13B9     		cbnz	r3, .L251
 3117              	.L250:
 591:.\protocol.c  ****     }
 3118              		.loc 1 591 0 is_stmt 1
 3119 0114 0221     		movs	r1, #2
 3120 0116 0F4A     		ldr	r2, .L255+16
 3121 0118 1170     		strb	r1, [r2]
 3122              	.L251:
 593:.\protocol.c  ****         VolDec              = 1;
 3123              		.loc 1 593 0
 3124 011a 022B     		cmp	r3, #2
 3125 011c 02D1     		bne	.L252
 594:.\protocol.c  ****     }
 3126              		.loc 1 594 0
 3127 011e 0122     		movs	r2, #1
 3128 0120 0C4B     		ldr	r3, .L255+16
 3129 0122 1A70     		strb	r2, [r3]
 3130              	.L252:
 596:.\protocol.c  ****     DDMode              =  buffer [20] &0x0F;
 3131              		.loc 1 596 0
 3132 0124 AB7C     		ldrb	r3, [r5, #18]	@ zero_extendqisi2
 3133 0126 03F00F03 		and	r3, r3, #15
 3134 012a 013B     		subs	r3, r3, #1
 3135 012c 0A4A     		ldr	r2, .L255+20
 3136 012e 1370     		strb	r3, [r2]
 597:.\protocol.c  ****     
 3137              		.loc 1 597 0
 3138 0130 2B7D     		ldrb	r3, [r5, #20]	@ zero_extendqisi2
 3139 0132 03F00F03 		and	r3, r3, #15
 3140 0136 094A     		ldr	r2, .L255+24
 3141 0138 1370     		strb	r3, [r2]
 600:.\protocol.c  **** 
 3142              		.loc 1 600 0
 3143 013a 0020     		movs	r0, #0
 3144 013c 1437     		adds	r7, r7, #20
 3145              		.cfi_def_cfa_offset 20
 3146 013e BD46     		mov	sp, r7
 3147              		.cfi_def_cfa_register 13
 3148              		@ sp needed
 3149 0140 F0BD     		pop	{r4, r5, r6, r7, pc}
 3150              	.LVL482:
 3151              	.L256:
 3152 0142 00BF     		.align	2
 3153              	.L255:
 3154 0144 00000000 		.word	UnitType
 3155 0148 00000000 		.word	ConversionFactor
 3156 014c 00000000 		.word	VolUnit
 3157 0150 00000000 		.word	MoneyDec
 3158 0154 00000000 		.word	VolDec
 3159 0158 00000000 		.word	PPUDec
 3160 015c 00000000 		.word	DDMode
 3161              		.cfi_endproc
 3162              	.LFE68:
 3163              		.size	PumpCompleteConfiguration, .-PumpCompleteConfiguration
ARM GAS  C:\Users\RECEPC~1\AppData\Local\Temp\ccnklw4g.s 			page 76


 3164              		.section	.text.PumpHoseActiveState,"ax",%progbits
 3165              		.align	2
 3166              		.global	PumpHoseActiveState
 3167              		.thumb
 3168              		.thumb_func
 3169              		.type	PumpHoseActiveState, %function
 3170              	PumpHoseActiveState:
 3171              	.LFB69:
 602:.\protocol.c  ****     uint8 state,x;
 3172              		.loc 1 602 0
 3173              		.cfi_startproc
 3174              		@ args = 0, pretend = 0, frame = 16
 3175              		@ frame_needed = 1, uses_anonymous_args = 0
 3176              	.LVL483:
 3177 0000 F0B5     		push	{r4, r5, r6, r7, lr}
 3178              		.cfi_def_cfa_offset 20
 3179              		.cfi_offset 4, -20
 3180              		.cfi_offset 5, -16
 3181              		.cfi_offset 6, -12
 3182              		.cfi_offset 7, -8
 3183              		.cfi_offset 14, -4
 3184 0002 85B0     		sub	sp, sp, #20
 3185              		.cfi_def_cfa_offset 40
 3186 0004 00AF     		add	r7, sp, #0
 3187              		.cfi_def_cfa_register 7
 3188 0006 0446     		mov	r4, r0
 3189              	.LVL484:
 609:.\protocol.c  ****     if(state == PUMP_IDLE || state == PUMP_CALLING){
 3190              		.loc 1 609 0
 3191 0008 FFF7FEFF 		bl	get_state
 3192              	.LVL485:
 610:.\protocol.c  ****         Pump_PutChar(0x20|side);
 3193              		.loc 1 610 0
 3194 000c 0638     		subs	r0, r0, #6
 3195              	.LVL486:
 3196 000e C0B2     		uxtb	r0, r0
 3197 0010 0128     		cmp	r0, #1
 3198 0012 0AD8     		bhi	.L266
 611:.\protocol.c  ****         CyDelay(50);
 3199              		.loc 1 611 0
 3200 0014 44F02000 		orr	r0, r4, #32
 3201 0018 FFF7FEFF 		bl	Pump_PutChar
 3202              	.LVL487:
 612:.\protocol.c  ****         PumpDataReceive = Pump_ReadRxData();
 3203              		.loc 1 612 0
 3204 001c 3220     		movs	r0, #50
 3205 001e FFF7FEFF 		bl	CyDelay
 3206              	.LVL488:
 613:.\protocol.c  ****     }
 3207              		.loc 1 613 0
 3208 0022 FFF7FEFF 		bl	Pump_ReadRxData
 3209              	.LVL489:
 3210 0026 0546     		mov	r5, r0
 3211              	.LVL490:
 3212 0028 00E0     		b	.L258
 3213              	.LVL491:
 3214              	.L266:
ARM GAS  C:\Users\RECEPC~1\AppData\Local\Temp\ccnklw4g.s 			page 77


 605:.\protocol.c  ****     
 3215              		.loc 1 605 0
 3216 002a 0025     		movs	r5, #0
 3217              	.LVL492:
 3218              	.L258:
 615:.\protocol.c  ****     if(PumpDataReceive == (0xd0|side)){
 3219              		.loc 1 615 0
 3220 002c FFF7FEFF 		bl	Pump_ClearRxBuffer
 3221              	.LVL493:
 616:.\protocol.c  ****         SendComand[0] = SOM;//Start Of Message
 3222              		.loc 1 616 0
 3223 0030 44F0D004 		orr	r4, r4, #208
 3224 0034 AC42     		cmp	r4, r5
 3225 0036 2AD1     		bne	.L259
 617:.\protocol.c  ****         SendComand[1] = 0xE9;//Data Length
 3226              		.loc 1 617 0
 3227 0038 FF23     		movs	r3, #255
 3228 003a 3B71     		strb	r3, [r7, #4]
 618:.\protocol.c  ****         SendComand[2] = 0xFE;//Special Functions Next (0xB0 0xB0 0xB6)
 3229              		.loc 1 618 0
 3230 003c E923     		movs	r3, #233
 3231 003e 7B71     		strb	r3, [r7, #5]
 619:.\protocol.c  ****         SendComand[3] = 0xE0;//Complete Pump Configuration Request (sf1)
 3232              		.loc 1 619 0
 3233 0040 FE23     		movs	r3, #254
 3234 0042 BB71     		strb	r3, [r7, #6]
 620:.\protocol.c  ****         SendComand[4] = 0xE1;//Complete Pump Configuration Request (sf2)
 3235              		.loc 1 620 0
 3236 0044 E023     		movs	r3, #224
 3237 0046 FB71     		strb	r3, [r7, #7]
 621:.\protocol.c  ****         SendComand[5] = 0xE0;//Complete Pump Configuration Request (sf3)
 3238              		.loc 1 621 0
 3239 0048 E122     		movs	r2, #225
 3240 004a 3A72     		strb	r2, [r7, #8]
 622:.\protocol.c  ****         SendComand[6] = 0xFB;
 3241              		.loc 1 622 0
 3242 004c 7B72     		strb	r3, [r7, #9]
 623:.\protocol.c  ****         SendComand[7] = GetLRC(SendComand);
 3243              		.loc 1 623 0
 3244 004e FB23     		movs	r3, #251
 3245 0050 BB72     		strb	r3, [r7, #10]
 624:.\protocol.c  ****         SendComand[8] = EOM;
 3246              		.loc 1 624 0
 3247 0052 381D     		adds	r0, r7, #4
 3248 0054 FFF7FEFF 		bl	GetLRC
 3249              	.LVL494:
 3250 0058 F872     		strb	r0, [r7, #11]
 625:.\protocol.c  ****         for(x=0; x<=8;x++){
 3251              		.loc 1 625 0
 3252 005a F023     		movs	r3, #240
 3253 005c 3B73     		strb	r3, [r7, #12]
 3254              	.LVL495:
 626:.\protocol.c  ****             Pump_PutChar(SendComand[x]);
 3255              		.loc 1 626 0
 3256 005e 0024     		movs	r4, #0
 3257 0060 08E0     		b	.L260
 3258              	.LVL496:
ARM GAS  C:\Users\RECEPC~1\AppData\Local\Temp\ccnklw4g.s 			page 78


 3259              	.L261:
 627:.\protocol.c  ****         } 
 3260              		.loc 1 627 0 discriminator 3
 3261 0062 07F11003 		add	r3, r7, #16
 3262 0066 2344     		add	r3, r3, r4
 3263 0068 13F80C0C 		ldrb	r0, [r3, #-12]	@ zero_extendqisi2
 3264 006c FFF7FEFF 		bl	Pump_PutChar
 3265              	.LVL497:
 626:.\protocol.c  ****             Pump_PutChar(SendComand[x]);
 3266              		.loc 1 626 0 discriminator 3
 3267 0070 0134     		adds	r4, r4, #1
 3268              	.LVL498:
 3269 0072 E4B2     		uxtb	r4, r4
 3270              	.LVL499:
 3271              	.L260:
 626:.\protocol.c  ****             Pump_PutChar(SendComand[x]);
 3272              		.loc 1 626 0 is_stmt 0 discriminator 1
 3273 0074 082C     		cmp	r4, #8
 3274 0076 F4D9     		bls	.L261
 629:.\protocol.c  ****             CyDelay(500);
 3275              		.loc 1 629 0 is_stmt 1
 3276 0078 154B     		ldr	r3, .L269
 3277 007a 1B78     		ldrb	r3, [r3]	@ zero_extendqisi2
 3278 007c 23B1     		cbz	r3, .L262
 630:.\protocol.c  ****         }else{
 3279              		.loc 1 630 0
 3280 007e 4FF4FA70 		mov	r0, #500
 3281 0082 FFF7FEFF 		bl	CyDelay
 3282              	.LVL500:
 3283 0086 02E0     		b	.L259
 3284              	.L262:
 632:.\protocol.c  ****         }
 3285              		.loc 1 632 0
 3286 0088 9620     		movs	r0, #150
 3287 008a FFF7FEFF 		bl	CyDelay
 3288              	.LVL501:
 3289              	.L259:
 636:.\protocol.c  ****     char8 buffer[BufferSize];
 3290              		.loc 1 636 0
 3291 008e FFF7FEFF 		bl	Pump_GetRxBufferSize
 3292              	.LVL502:
 3293 0092 C5B2     		uxtb	r5, r0
 3294              	.LVL503:
 637:.\protocol.c  ****     for(x=0;x<=BufferSize;x++){
 3295              		.loc 1 637 0
 3296 0094 EB1D     		adds	r3, r5, #7
 3297 0096 23F00703 		bic	r3, r3, #7
 3298 009a ADEB030D 		sub	sp, sp, r3
 3299 009e 6E46     		mov	r6, sp
 3300              	.LVL504:
 638:.\protocol.c  ****        buffer[x]=Pump_ReadRxData(); 
 3301              		.loc 1 638 0
 3302 00a0 0024     		movs	r4, #0
 3303 00a2 04E0     		b	.L263
 3304              	.LVL505:
 3305              	.L264:
 639:.\protocol.c  ****     }
ARM GAS  C:\Users\RECEPC~1\AppData\Local\Temp\ccnklw4g.s 			page 79


 3306              		.loc 1 639 0 discriminator 3
 3307 00a4 FFF7FEFF 		bl	Pump_ReadRxData
 3308              	.LVL506:
 3309 00a8 3055     		strb	r0, [r6, r4]
 638:.\protocol.c  ****        buffer[x]=Pump_ReadRxData(); 
 3310              		.loc 1 638 0 discriminator 3
 3311 00aa 0134     		adds	r4, r4, #1
 3312              	.LVL507:
 3313 00ac E4B2     		uxtb	r4, r4
 3314              	.LVL508:
 3315              	.L263:
 638:.\protocol.c  ****        buffer[x]=Pump_ReadRxData(); 
 3316              		.loc 1 638 0 is_stmt 0 discriminator 1
 3317 00ae AC42     		cmp	r4, r5
 3318 00b0 F8D9     		bls	.L264
 641:.\protocol.c  ****     if((buffer[0x0C] & 0x0F) == 0x01){
 3319              		.loc 1 641 0 is_stmt 1
 3320 00b2 FFF7FEFF 		bl	Pump_ClearRxBuffer
 3321              	.LVL509:
 642:.\protocol.c  ****         return (buffer[0x0E] & 0x0F);
 3322              		.loc 1 642 0
 3323 00b6 337B     		ldrb	r3, [r6, #12]	@ zero_extendqisi2
 3324 00b8 03F00F03 		and	r3, r3, #15
 3325 00bc 012B     		cmp	r3, #1
 3326 00be 03D1     		bne	.L267
 643:.\protocol.c  ****     }
 3327              		.loc 1 643 0
 3328 00c0 B07B     		ldrb	r0, [r6, #14]	@ zero_extendqisi2
 3329 00c2 00F00F00 		and	r0, r0, #15
 3330 00c6 00E0     		b	.L265
 3331              	.L267:
 646:.\protocol.c  ****     
 3332              		.loc 1 646 0
 3333 00c8 0020     		movs	r0, #0
 3334              	.L265:
 648:.\protocol.c  **** 
 3335              		.loc 1 648 0
 3336 00ca 1437     		adds	r7, r7, #20
 3337              		.cfi_def_cfa_offset 20
 3338 00cc BD46     		mov	sp, r7
 3339              		.cfi_def_cfa_register 13
 3340              		@ sp needed
 3341 00ce F0BD     		pop	{r4, r5, r6, r7, pc}
 3342              	.LVL510:
 3343              	.L270:
 3344              		.align	2
 3345              	.L269:
 3346 00d0 00000000 		.word	UnitType
 3347              		.cfi_endproc
 3348              	.LFE69:
 3349              		.size	PumpHoseActiveState, .-PumpHoseActiveState
 3350              		.comm	side,1056,4
 3351              		.comm	bufferDisplay4,332,4
 3352              		.comm	bufferDisplay3,332,4
 3353              		.comm	bufferDisplay2,332,4
 3354              		.comm	bufferDisplay1,332,4
 3355              		.comm	GradesHose,5,4
ARM GAS  C:\Users\RECEPC~1\AppData\Local\Temp\ccnklw4g.s 			page 80


 3356              		.comm	CopiasCredito,1,1
 3357              		.comm	Encabezado4,30,4
 3358              		.comm	Encabezado3,30,4
 3359              		.comm	Encabezado2,30,4
 3360              		.comm	Encabezado1,30,4
 3361              		.comm	intIDStation,2,2
 3362              		.comm	buffer_txEOT,60,4
 3363              		.comm	buffer_txPreset,60,4
 3364              		.comm	buffer_tx,512,4
 3365              		.comm	buffer_rf,512,4
 3366              		.comm	printPortB,1,1
 3367              		.comm	printPortA,1,1
 3368              		.comm	pumpGap,3,4
 3369              		.comm	idStation,5,4
 3370              		.comm	controlChar,1,1
 3371              		.comm	configAccess,5,4
 3372              		.comm	count_protector2,1,1
 3373              		.comm	count_protector,1,1
 3374              		.comm	timeDownHandle,2,4
 3375              		.comm	dateDownHandle,3,4
 3376              		.comm	VolUnit,6,4
 3377              		.comm	PrinterType,1,1
 3378              		.comm	hiddenKeys,1,1
 3379              		.comm	digits,1,1
 3380              		.comm	lockTurn,1,1
 3381              		.comm	NumPositions,1,1
 3382              		.comm	statePump,4,4
 3383              		.comm	DDMode,1,1
 3384              		.comm	PPUDec,1,1
 3385              		.comm	VolDec,1,1
 3386              		.comm	MoneyDec,1,1
 3387              		.comm	ConversionFactor,1,1
 3388              		.comm	UnitType,1,1
 3389              		.comm	sizeSendB,1,1
 3390              		.comm	sizeSendA,1,1
 3391              		.comm	ShiftState,1,1
 3392              		.comm	CGrade,1,1
 3393              		.comm	tempPPU,5,4
 3394              		.comm	tempPreset,8,4
 3395              		.comm	temporal,30,4
 3396              		.comm	counterRF,1,1
 3397              		.comm	ActiveRF,1,1
 3398              		.comm	IDCast,2,4
 3399              		.comm	PlateRequest,1,1
 3400              		.comm	PrevStatePump,4,4
 3401              		.comm	stateBeagleSoft,1,1
 3402              		.comm	flagResetMux,1,1
 3403              		.comm	passwordSeller,8,4
 3404              		.comm	typeIdSeller,1,1
 3405              		.comm	idSeller,25,4
 3406              		.comm	residue,14,4
 3407              		.comm	screen,2,4
 3408              		.comm	date,3,4
 3409              		.comm	time,3,4
 3410              		.comm	symbols,2,4
 3411              		.comm	decimalVolume,1,1
 3412              		.comm	decimalMoney,1,1
ARM GAS  C:\Users\RECEPC~1\AppData\Local\Temp\ccnklw4g.s 			page 81


 3413              		.comm	ppux10,1,1
 3414              		.comm	delayPicture2,4,4
 3415              		.comm	delayPicture1,4,4
 3416              		.comm	productNumber,1,1
 3417              		.comm	flagPoint2,1,1
 3418              		.comm	flagPoint1,1,1
 3419              		.comm	numberKeys2,1,1
 3420              		.comm	numberKeys1,1,1
 3421              		.comm	flowDisplay4,4,4
 3422              		.comm	flowDisplay3,4,4
 3423              		.comm	flowDisplay2,4,4
 3424              		.comm	flowDisplay1,4,4
 3425              		.comm	countLCD,8,8
 3426              		.comm	countPump,8,8
 3427              		.comm	countTX,8,8
 3428              		.comm	countRX,8,8
 3429              		.comm	countAnimation2,8,8
 3430              		.comm	countAnimation1,8,8
 3431              		.section	.rodata
 3432              		.align	2
 3433              		.set	.LANCHOR0,. + 0
 3434              	.LC0:
 3435 0000 FF       		.byte	-1
 3436 0001 00       		.byte	0
 3437 0002 F4       		.byte	-12
 3438 0003 F6       		.byte	-10
 3439 0004 00       		.byte	0
 3440 0005 F7       		.byte	-9
 3441 0006 00       		.byte	0
 3442 0007 00       		.byte	0
 3443 0008 00       		.byte	0
 3444 0009 00       		.byte	0
 3445 000a 00       		.byte	0
 3446 000b 00       		.byte	0
 3447 000c 00       		.byte	0
 3448 000d 00       		.byte	0
 3449 000e 00       		.byte	0
 3450 000f 00       		.text
 3451              	.Letext0:
 3452              		.file 2 "c:\\program files (x86)\\cypress\\psoc creator\\3.3\\psoc creator\\import\\gnu\\arm\\4.9.
 3453              		.file 3 "c:\\program files (x86)\\cypress\\psoc creator\\3.3\\psoc creator\\import\\gnu\\arm\\4.9.
 3454              		.file 4 "Generated_Source\\PSoC5/cytypes.h"
 3455              		.file 5 "./variables.h"
 3456              		.file 6 "Generated_Source\\PSoC5/Pump.h"
 3457              		.file 7 "Generated_Source\\PSoC5/core_cm3.h"
 3458              		.file 8 "Generated_Source\\PSoC5/CyLib.h"
 3459              		.section	.debug_info,"",%progbits
 3460              	.Ldebug_info0:
 3461 0000 8A140000 		.4byte	0x148a
 3462 0004 0400     		.2byte	0x4
 3463 0006 00000000 		.4byte	.Ldebug_abbrev0
 3464 000a 04       		.byte	0x4
 3465 000b 01       		.uleb128 0x1
 3466 000c FB070000 		.4byte	.LASF205
 3467 0010 01       		.byte	0x1
 3468 0011 EB020000 		.4byte	.LASF206
 3469 0015 AA080000 		.4byte	.LASF207
ARM GAS  C:\Users\RECEPC~1\AppData\Local\Temp\ccnklw4g.s 			page 82


 3470 0019 00000000 		.4byte	.Ldebug_ranges0+0
 3471 001d 00000000 		.4byte	0
 3472 0021 00000000 		.4byte	.Ldebug_line0
 3473 0025 02       		.uleb128 0x2
 3474 0026 01       		.byte	0x1
 3475 0027 06       		.byte	0x6
 3476 0028 3B090000 		.4byte	.LASF0
 3477 002c 03       		.uleb128 0x3
 3478 002d EC060000 		.4byte	.LASF4
 3479 0031 02       		.byte	0x2
 3480 0032 1D       		.byte	0x1d
 3481 0033 37000000 		.4byte	0x37
 3482 0037 02       		.uleb128 0x2
 3483 0038 01       		.byte	0x1
 3484 0039 08       		.byte	0x8
 3485 003a E0070000 		.4byte	.LASF1
 3486 003e 02       		.uleb128 0x2
 3487 003f 02       		.byte	0x2
 3488 0040 05       		.byte	0x5
 3489 0041 1F060000 		.4byte	.LASF2
 3490 0045 02       		.uleb128 0x2
 3491 0046 02       		.byte	0x2
 3492 0047 07       		.byte	0x7
 3493 0048 57090000 		.4byte	.LASF3
 3494 004c 03       		.uleb128 0x3
 3495 004d BF000000 		.4byte	.LASF5
 3496 0051 02       		.byte	0x2
 3497 0052 3F       		.byte	0x3f
 3498 0053 57000000 		.4byte	0x57
 3499 0057 02       		.uleb128 0x2
 3500 0058 04       		.byte	0x4
 3501 0059 05       		.byte	0x5
 3502 005a 29060000 		.4byte	.LASF6
 3503 005e 02       		.uleb128 0x2
 3504 005f 04       		.byte	0x4
 3505 0060 07       		.byte	0x7
 3506 0061 84070000 		.4byte	.LASF7
 3507 0065 02       		.uleb128 0x2
 3508 0066 08       		.byte	0x8
 3509 0067 05       		.byte	0x5
 3510 0068 77040000 		.4byte	.LASF8
 3511 006c 02       		.uleb128 0x2
 3512 006d 08       		.byte	0x8
 3513 006e 07       		.byte	0x7
 3514 006f EF010000 		.4byte	.LASF9
 3515 0073 04       		.uleb128 0x4
 3516 0074 04       		.byte	0x4
 3517 0075 05       		.byte	0x5
 3518 0076 696E7400 		.ascii	"int\000"
 3519 007a 02       		.uleb128 0x2
 3520 007b 04       		.byte	0x4
 3521 007c 07       		.byte	0x7
 3522 007d A6000000 		.4byte	.LASF10
 3523 0081 03       		.uleb128 0x3
 3524 0082 0D040000 		.4byte	.LASF11
 3525 0086 03       		.byte	0x3
 3526 0087 15       		.byte	0x15
ARM GAS  C:\Users\RECEPC~1\AppData\Local\Temp\ccnklw4g.s 			page 83


 3527 0088 2C000000 		.4byte	0x2c
 3528 008c 03       		.uleb128 0x3
 3529 008d B2070000 		.4byte	.LASF12
 3530 0091 03       		.byte	0x3
 3531 0092 2C       		.byte	0x2c
 3532 0093 4C000000 		.4byte	0x4c
 3533 0097 05       		.uleb128 0x5
 3534 0098 87090000 		.4byte	.LASF13
 3535 009c 04       		.byte	0x4
 3536 009d 3801     		.2byte	0x138
 3537 009f 37000000 		.4byte	0x37
 3538 00a3 05       		.uleb128 0x5
 3539 00a4 FC030000 		.4byte	.LASF14
 3540 00a8 04       		.byte	0x4
 3541 00a9 3901     		.2byte	0x139
 3542 00ab 45000000 		.4byte	0x45
 3543 00af 05       		.uleb128 0x5
 3544 00b0 3F050000 		.4byte	.LASF15
 3545 00b4 04       		.byte	0x4
 3546 00b5 3A01     		.2byte	0x13a
 3547 00b7 5E000000 		.4byte	0x5e
 3548 00bb 02       		.uleb128 0x2
 3549 00bc 04       		.byte	0x4
 3550 00bd 04       		.byte	0x4
 3551 00be 8D010000 		.4byte	.LASF16
 3552 00c2 02       		.uleb128 0x2
 3553 00c3 08       		.byte	0x8
 3554 00c4 04       		.byte	0x4
 3555 00c5 8D090000 		.4byte	.LASF17
 3556 00c9 05       		.uleb128 0x5
 3557 00ca 1F070000 		.4byte	.LASF18
 3558 00ce 04       		.byte	0x4
 3559 00cf 4401     		.2byte	0x144
 3560 00d1 6C000000 		.4byte	0x6c
 3561 00d5 05       		.uleb128 0x5
 3562 00d6 31040000 		.4byte	.LASF19
 3563 00da 04       		.byte	0x4
 3564 00db 4901     		.2byte	0x149
 3565 00dd E1000000 		.4byte	0xe1
 3566 00e1 02       		.uleb128 0x2
 3567 00e2 01       		.byte	0x1
 3568 00e3 08       		.byte	0x8
 3569 00e4 A4030000 		.4byte	.LASF20
 3570 00e8 06       		.uleb128 0x6
 3571 00e9 97000000 		.4byte	0x97
 3572 00ed 06       		.uleb128 0x6
 3573 00ee AF000000 		.4byte	0xaf
 3574 00f2 02       		.uleb128 0x2
 3575 00f3 04       		.byte	0x4
 3576 00f4 07       		.byte	0x7
 3577 00f5 7B070000 		.4byte	.LASF21
 3578 00f9 07       		.uleb128 0x7
 3579 00fa 97000000 		.4byte	0x97
 3580 00fe 09010000 		.4byte	0x109
 3581 0102 08       		.uleb128 0x8
 3582 0103 F2000000 		.4byte	0xf2
 3583 0107 03       		.byte	0x3
ARM GAS  C:\Users\RECEPC~1\AppData\Local\Temp\ccnklw4g.s 			page 84


 3584 0108 00       		.byte	0
 3585 0109 09       		.uleb128 0x9
 3586 010a 7C000000 		.4byte	.LASF64
 3587 010e 4C01     		.2byte	0x14c
 3588 0110 05       		.byte	0x5
 3589 0111 7E       		.byte	0x7e
 3590 0112 1D030000 		.4byte	0x31d
 3591 0116 0A       		.uleb128 0xa
 3592 0117 F5000000 		.4byte	.LASF22
 3593 011b 05       		.byte	0x5
 3594 011c 7F       		.byte	0x7f
 3595 011d 97000000 		.4byte	0x97
 3596 0121 00       		.byte	0
 3597 0122 0A       		.uleb128 0xa
 3598 0123 9E020000 		.4byte	.LASF23
 3599 0127 05       		.byte	0x5
 3600 0128 80       		.byte	0x80
 3601 0129 1D030000 		.4byte	0x31d
 3602 012d 01       		.byte	0x1
 3603 012e 0A       		.uleb128 0xa
 3604 012f 94090000 		.4byte	.LASF24
 3605 0133 05       		.byte	0x5
 3606 0134 81       		.byte	0x81
 3607 0135 97000000 		.4byte	0x97
 3608 0139 1A       		.byte	0x1a
 3609 013a 0A       		.uleb128 0xa
 3610 013b CE070000 		.4byte	.LASF25
 3611 013f 05       		.byte	0x5
 3612 0140 82       		.byte	0x82
 3613 0141 97000000 		.4byte	0x97
 3614 0145 1B       		.byte	0x1b
 3615 0146 0A       		.uleb128 0xa
 3616 0147 1A010000 		.4byte	.LASF26
 3617 014b 05       		.byte	0x5
 3618 014c 83       		.byte	0x83
 3619 014d 2D030000 		.4byte	0x32d
 3620 0151 1C       		.byte	0x1c
 3621 0152 0A       		.uleb128 0xa
 3622 0153 DD050000 		.4byte	.LASF27
 3623 0157 05       		.byte	0x5
 3624 0158 84       		.byte	0x84
 3625 0159 2D030000 		.4byte	0x32d
 3626 015d 26       		.byte	0x26
 3627 015e 0A       		.uleb128 0xa
 3628 015f DD090000 		.4byte	.LASF28
 3629 0163 05       		.byte	0x5
 3630 0164 85       		.byte	0x85
 3631 0165 1D030000 		.4byte	0x31d
 3632 0169 30       		.byte	0x30
 3633 016a 0A       		.uleb128 0xa
 3634 016b A7050000 		.4byte	.LASF29
 3635 016f 05       		.byte	0x5
 3636 0170 86       		.byte	0x86
 3637 0171 97000000 		.4byte	0x97
 3638 0175 49       		.byte	0x49
 3639 0176 0A       		.uleb128 0xa
 3640 0177 89080000 		.4byte	.LASF30
ARM GAS  C:\Users\RECEPC~1\AppData\Local\Temp\ccnklw4g.s 			page 85


 3641 017b 05       		.byte	0x5
 3642 017c 87       		.byte	0x87
 3643 017d 97000000 		.4byte	0x97
 3644 0181 4A       		.byte	0x4a
 3645 0182 0A       		.uleb128 0xa
 3646 0183 9A030000 		.4byte	.LASF31
 3647 0187 05       		.byte	0x5
 3648 0188 88       		.byte	0x88
 3649 0189 3D030000 		.4byte	0x33d
 3650 018d 4B       		.byte	0x4b
 3651 018e 0A       		.uleb128 0xa
 3652 018f EA040000 		.4byte	.LASF32
 3653 0193 05       		.byte	0x5
 3654 0194 89       		.byte	0x89
 3655 0195 97000000 		.4byte	0x97
 3656 0199 60       		.byte	0x60
 3657 019a 0A       		.uleb128 0xa
 3658 019b 73030000 		.4byte	.LASF33
 3659 019f 05       		.byte	0x5
 3660 01a0 8A       		.byte	0x8a
 3661 01a1 97000000 		.4byte	0x97
 3662 01a5 61       		.byte	0x61
 3663 01a6 0A       		.uleb128 0xa
 3664 01a7 9A000000 		.4byte	.LASF34
 3665 01ab 05       		.byte	0x5
 3666 01ac 8B       		.byte	0x8b
 3667 01ad 97000000 		.4byte	0x97
 3668 01b1 62       		.byte	0x62
 3669 01b2 0A       		.uleb128 0xa
 3670 01b3 FF080000 		.4byte	.LASF35
 3671 01b7 05       		.byte	0x5
 3672 01b8 8C       		.byte	0x8c
 3673 01b9 4D030000 		.4byte	0x34d
 3674 01bd 63       		.byte	0x63
 3675 01be 0A       		.uleb128 0xa
 3676 01bf 4E030000 		.4byte	.LASF36
 3677 01c3 05       		.byte	0x5
 3678 01c4 8D       		.byte	0x8d
 3679 01c5 5D030000 		.4byte	0x35d
 3680 01c9 65       		.byte	0x65
 3681 01ca 0A       		.uleb128 0xa
 3682 01cb 7B020000 		.4byte	.LASF37
 3683 01cf 05       		.byte	0x5
 3684 01d0 8E       		.byte	0x8e
 3685 01d1 97000000 		.4byte	0x97
 3686 01d5 79       		.byte	0x79
 3687 01d6 0A       		.uleb128 0xa
 3688 01d7 42070000 		.4byte	.LASF38
 3689 01db 05       		.byte	0x5
 3690 01dc 8F       		.byte	0x8f
 3691 01dd 73030000 		.4byte	0x373
 3692 01e1 7A       		.byte	0x7a
 3693 01e2 0A       		.uleb128 0xa
 3694 01e3 97060000 		.4byte	.LASF39
 3695 01e7 05       		.byte	0x5
 3696 01e8 90       		.byte	0x90
 3697 01e9 83030000 		.4byte	0x383
ARM GAS  C:\Users\RECEPC~1\AppData\Local\Temp\ccnklw4g.s 			page 86


 3698 01ed 7F       		.byte	0x7f
 3699 01ee 0A       		.uleb128 0xa
 3700 01ef AC090000 		.4byte	.LASF40
 3701 01f3 05       		.byte	0x5
 3702 01f4 91       		.byte	0x91
 3703 01f5 83030000 		.4byte	0x383
 3704 01f9 85       		.byte	0x85
 3705 01fa 0A       		.uleb128 0xa
 3706 01fb BF050000 		.4byte	.LASF41
 3707 01ff 05       		.byte	0x5
 3708 0200 92       		.byte	0x92
 3709 0201 93030000 		.4byte	0x393
 3710 0205 8B       		.byte	0x8b
 3711 0206 0A       		.uleb128 0xa
 3712 0207 1D020000 		.4byte	.LASF42
 3713 020b 05       		.byte	0x5
 3714 020c 93       		.byte	0x93
 3715 020d 93030000 		.4byte	0x393
 3716 0211 99       		.byte	0x99
 3717 0212 0A       		.uleb128 0xa
 3718 0213 BA040000 		.4byte	.LASF43
 3719 0217 05       		.byte	0x5
 3720 0218 94       		.byte	0x94
 3721 0219 93030000 		.4byte	0x393
 3722 021d A7       		.byte	0xa7
 3723 021e 0A       		.uleb128 0xa
 3724 021f 40040000 		.4byte	.LASF44
 3725 0223 05       		.byte	0x5
 3726 0224 95       		.byte	0x95
 3727 0225 93030000 		.4byte	0x393
 3728 0229 B5       		.byte	0xb5
 3729 022a 0A       		.uleb128 0xa
 3730 022b 05070000 		.4byte	.LASF45
 3731 022f 05       		.byte	0x5
 3732 0230 96       		.byte	0x96
 3733 0231 93030000 		.4byte	0x393
 3734 0235 C3       		.byte	0xc3
 3735 0236 0A       		.uleb128 0xa
 3736 0237 8D050000 		.4byte	.LASF46
 3737 023b 05       		.byte	0x5
 3738 023c 97       		.byte	0x97
 3739 023d 93030000 		.4byte	0x393
 3740 0241 D1       		.byte	0xd1
 3741 0242 0A       		.uleb128 0xa
 3742 0243 06060000 		.4byte	.LASF47
 3743 0247 05       		.byte	0x5
 3744 0248 98       		.byte	0x98
 3745 0249 A3030000 		.4byte	0x3a3
 3746 024d DF       		.byte	0xdf
 3747 024e 0A       		.uleb128 0xa
 3748 024f D1020000 		.4byte	.LASF48
 3749 0253 05       		.byte	0x5
 3750 0254 99       		.byte	0x99
 3751 0255 A3030000 		.4byte	0x3a3
 3752 0259 EA       		.byte	0xea
 3753 025a 0A       		.uleb128 0xa
 3754 025b 68030000 		.4byte	.LASF49
ARM GAS  C:\Users\RECEPC~1\AppData\Local\Temp\ccnklw4g.s 			page 87


 3755 025f 05       		.byte	0x5
 3756 0260 9A       		.byte	0x9a
 3757 0261 A3030000 		.4byte	0x3a3
 3758 0265 F5       		.byte	0xf5
 3759 0266 0B       		.uleb128 0xb
 3760 0267 13050000 		.4byte	.LASF50
 3761 026b 05       		.byte	0x5
 3762 026c 9B       		.byte	0x9b
 3763 026d 97000000 		.4byte	0x97
 3764 0271 0001     		.2byte	0x100
 3765 0273 0B       		.uleb128 0xb
 3766 0274 25040000 		.4byte	.LASF51
 3767 0278 05       		.byte	0x5
 3768 0279 9C       		.byte	0x9c
 3769 027a 97000000 		.4byte	0x97
 3770 027e 0101     		.2byte	0x101
 3771 0280 0B       		.uleb128 0xb
 3772 0281 C9000000 		.4byte	.LASF52
 3773 0285 05       		.byte	0x5
 3774 0286 9D       		.byte	0x9d
 3775 0287 97000000 		.4byte	0x97
 3776 028b 0201     		.2byte	0x102
 3777 028d 0B       		.uleb128 0xb
 3778 028e 81060000 		.4byte	.LASF53
 3779 0292 05       		.byte	0x5
 3780 0293 9E       		.byte	0x9e
 3781 0294 97000000 		.4byte	0x97
 3782 0298 0301     		.2byte	0x103
 3783 029a 0B       		.uleb128 0xb
 3784 029b 50040000 		.4byte	.LASF54
 3785 029f 05       		.byte	0x5
 3786 02a0 9F       		.byte	0x9f
 3787 02a1 2D030000 		.4byte	0x32d
 3788 02a5 0401     		.2byte	0x104
 3789 02a7 0B       		.uleb128 0xb
 3790 02a8 66000000 		.4byte	.LASF55
 3791 02ac 05       		.byte	0x5
 3792 02ad A0       		.byte	0xa0
 3793 02ae 2D030000 		.4byte	0x32d
 3794 02b2 0E01     		.2byte	0x10e
 3795 02b4 0B       		.uleb128 0xb
 3796 02b5 37040000 		.4byte	.LASF56
 3797 02b9 05       		.byte	0x5
 3798 02ba A1       		.byte	0xa1
 3799 02bb 2D030000 		.4byte	0x32d
 3800 02bf 1801     		.2byte	0x118
 3801 02c1 0B       		.uleb128 0xb
 3802 02c2 12060000 		.4byte	.LASF57
 3803 02c6 05       		.byte	0x5
 3804 02c7 A2       		.byte	0xa2
 3805 02c8 B3030000 		.4byte	0x3b3
 3806 02cc 2201     		.2byte	0x122
 3807 02ce 0B       		.uleb128 0xb
 3808 02cf 5B040000 		.4byte	.LASF58
 3809 02d3 05       		.byte	0x5
 3810 02d4 A3       		.byte	0xa3
 3811 02d5 4D030000 		.4byte	0x34d
ARM GAS  C:\Users\RECEPC~1\AppData\Local\Temp\ccnklw4g.s 			page 88


 3812 02d9 3101     		.2byte	0x131
 3813 02db 0B       		.uleb128 0xb
 3814 02dc DD020000 		.4byte	.LASF59
 3815 02e0 05       		.byte	0x5
 3816 02e1 A4       		.byte	0xa4
 3817 02e2 97000000 		.4byte	0x97
 3818 02e6 3301     		.2byte	0x133
 3819 02e8 0B       		.uleb128 0xb
 3820 02e9 A8070000 		.4byte	.LASF60
 3821 02ed 05       		.byte	0x5
 3822 02ee A5       		.byte	0xa5
 3823 02ef 97000000 		.4byte	0x97
 3824 02f3 3401     		.2byte	0x134
 3825 02f5 0B       		.uleb128 0xb
 3826 02f6 FE020000 		.4byte	.LASF61
 3827 02fa 05       		.byte	0x5
 3828 02fb A6       		.byte	0xa6
 3829 02fc 97000000 		.4byte	0x97
 3830 0300 3501     		.2byte	0x135
 3831 0302 0B       		.uleb128 0xb
 3832 0303 66060000 		.4byte	.LASF62
 3833 0307 05       		.byte	0x5
 3834 0308 A7       		.byte	0xa7
 3835 0309 A3030000 		.4byte	0x3a3
 3836 030d 3601     		.2byte	0x136
 3837 030f 0B       		.uleb128 0xb
 3838 0310 2D090000 		.4byte	.LASF63
 3839 0314 05       		.byte	0x5
 3840 0315 A8       		.byte	0xa8
 3841 0316 A3030000 		.4byte	0x3a3
 3842 031a 4101     		.2byte	0x141
 3843 031c 00       		.byte	0
 3844 031d 07       		.uleb128 0x7
 3845 031e 97000000 		.4byte	0x97
 3846 0322 2D030000 		.4byte	0x32d
 3847 0326 08       		.uleb128 0x8
 3848 0327 F2000000 		.4byte	0xf2
 3849 032b 18       		.byte	0x18
 3850 032c 00       		.byte	0
 3851 032d 07       		.uleb128 0x7
 3852 032e 97000000 		.4byte	0x97
 3853 0332 3D030000 		.4byte	0x33d
 3854 0336 08       		.uleb128 0x8
 3855 0337 F2000000 		.4byte	0xf2
 3856 033b 09       		.byte	0x9
 3857 033c 00       		.byte	0
 3858 033d 07       		.uleb128 0x7
 3859 033e 97000000 		.4byte	0x97
 3860 0342 4D030000 		.4byte	0x34d
 3861 0346 08       		.uleb128 0x8
 3862 0347 F2000000 		.4byte	0xf2
 3863 034b 14       		.byte	0x14
 3864 034c 00       		.byte	0
 3865 034d 07       		.uleb128 0x7
 3866 034e 97000000 		.4byte	0x97
 3867 0352 5D030000 		.4byte	0x35d
 3868 0356 08       		.uleb128 0x8
ARM GAS  C:\Users\RECEPC~1\AppData\Local\Temp\ccnklw4g.s 			page 89


 3869 0357 F2000000 		.4byte	0xf2
 3870 035b 01       		.byte	0x1
 3871 035c 00       		.byte	0
 3872 035d 07       		.uleb128 0x7
 3873 035e 97000000 		.4byte	0x97
 3874 0362 73030000 		.4byte	0x373
 3875 0366 08       		.uleb128 0x8
 3876 0367 F2000000 		.4byte	0xf2
 3877 036b 01       		.byte	0x1
 3878 036c 08       		.uleb128 0x8
 3879 036d F2000000 		.4byte	0xf2
 3880 0371 09       		.byte	0x9
 3881 0372 00       		.byte	0
 3882 0373 07       		.uleb128 0x7
 3883 0374 97000000 		.4byte	0x97
 3884 0378 83030000 		.4byte	0x383
 3885 037c 08       		.uleb128 0x8
 3886 037d F2000000 		.4byte	0xf2
 3887 0381 04       		.byte	0x4
 3888 0382 00       		.byte	0
 3889 0383 07       		.uleb128 0x7
 3890 0384 97000000 		.4byte	0x97
 3891 0388 93030000 		.4byte	0x393
 3892 038c 08       		.uleb128 0x8
 3893 038d F2000000 		.4byte	0xf2
 3894 0391 05       		.byte	0x5
 3895 0392 00       		.byte	0
 3896 0393 07       		.uleb128 0x7
 3897 0394 97000000 		.4byte	0x97
 3898 0398 A3030000 		.4byte	0x3a3
 3899 039c 08       		.uleb128 0x8
 3900 039d F2000000 		.4byte	0xf2
 3901 03a1 0D       		.byte	0xd
 3902 03a2 00       		.byte	0
 3903 03a3 07       		.uleb128 0x7
 3904 03a4 97000000 		.4byte	0x97
 3905 03a8 B3030000 		.4byte	0x3b3
 3906 03ac 08       		.uleb128 0x8
 3907 03ad F2000000 		.4byte	0xf2
 3908 03b1 0A       		.byte	0xa
 3909 03b2 00       		.byte	0
 3910 03b3 07       		.uleb128 0x7
 3911 03b4 97000000 		.4byte	0x97
 3912 03b8 C3030000 		.4byte	0x3c3
 3913 03bc 08       		.uleb128 0x8
 3914 03bd F2000000 		.4byte	0xf2
 3915 03c1 0E       		.byte	0xe
 3916 03c2 00       		.byte	0
 3917 03c3 09       		.uleb128 0x9
 3918 03c4 F0090000 		.4byte	.LASF65
 3919 03c8 0801     		.2byte	0x108
 3920 03ca 05       		.byte	0x5
 3921 03cb B9       		.byte	0xb9
 3922 03cc 8D040000 		.4byte	0x48d
 3923 03d0 0C       		.uleb128 0xc
 3924 03d1 64697200 		.ascii	"dir\000"
 3925 03d5 05       		.byte	0x5
ARM GAS  C:\Users\RECEPC~1\AppData\Local\Temp\ccnklw4g.s 			page 90


 3926 03d6 BA       		.byte	0xba
 3927 03d7 97000000 		.4byte	0x97
 3928 03db 00       		.byte	0
 3929 03dc 0A       		.uleb128 0xa
 3930 03dd 41030000 		.4byte	.LASF66
 3931 03e1 05       		.byte	0x5
 3932 03e2 BB       		.byte	0xbb
 3933 03e3 8D040000 		.4byte	0x48d
 3934 03e7 01       		.byte	0x1
 3935 03e8 0A       		.uleb128 0xa
 3936 03e9 CF090000 		.4byte	.LASF67
 3937 03ed 05       		.byte	0x5
 3938 03ee BC       		.byte	0xbc
 3939 03ef A9040000 		.4byte	0x4a9
 3940 03f3 B5       		.byte	0xb5
 3941 03f4 0A       		.uleb128 0xa
 3942 03f5 6D040000 		.4byte	.LASF68
 3943 03f9 05       		.byte	0x5
 3944 03fa BD       		.byte	0xbd
 3945 03fb 93030000 		.4byte	0x393
 3946 03ff D5       		.byte	0xd5
 3947 0400 0A       		.uleb128 0xa
 3948 0401 0A090000 		.4byte	.LASF69
 3949 0405 05       		.byte	0x5
 3950 0406 BE       		.byte	0xbe
 3951 0407 93030000 		.4byte	0x393
 3952 040b E3       		.byte	0xe3
 3953 040c 0A       		.uleb128 0xa
 3954 040d 85040000 		.4byte	.LASF70
 3955 0411 05       		.byte	0x5
 3956 0412 BF       		.byte	0xbf
 3957 0413 93030000 		.4byte	0x393
 3958 0417 F1       		.byte	0xf1
 3959 0418 0A       		.uleb128 0xa
 3960 0419 7B090000 		.4byte	.LASF71
 3961 041d 05       		.byte	0x5
 3962 041e C0       		.byte	0xc0
 3963 041f 97000000 		.4byte	0x97
 3964 0423 FF       		.byte	0xff
 3965 0424 0B       		.uleb128 0xb
 3966 0425 9D070000 		.4byte	.LASF72
 3967 0429 05       		.byte	0x5
 3968 042a C1       		.byte	0xc1
 3969 042b 97000000 		.4byte	0x97
 3970 042f 0001     		.2byte	0x100
 3971 0431 0B       		.uleb128 0xb
 3972 0432 DB010000 		.4byte	.LASF73
 3973 0436 05       		.byte	0x5
 3974 0437 C2       		.byte	0xc2
 3975 0438 97000000 		.4byte	0x97
 3976 043c 0101     		.2byte	0x101
 3977 043e 0B       		.uleb128 0xb
 3978 043f B6060000 		.4byte	.LASF74
 3979 0443 05       		.byte	0x5
 3980 0444 C3       		.byte	0xc3
 3981 0445 97000000 		.4byte	0x97
 3982 0449 0201     		.2byte	0x102
ARM GAS  C:\Users\RECEPC~1\AppData\Local\Temp\ccnklw4g.s 			page 91


 3983 044b 0B       		.uleb128 0xb
 3984 044c 090A0000 		.4byte	.LASF75
 3985 0450 05       		.byte	0x5
 3986 0451 C4       		.byte	0xc4
 3987 0452 97000000 		.4byte	0x97
 3988 0456 0301     		.2byte	0x103
 3989 0458 0B       		.uleb128 0xb
 3990 0459 46000000 		.4byte	.LASF76
 3991 045d 05       		.byte	0x5
 3992 045e C5       		.byte	0xc5
 3993 045f 97000000 		.4byte	0x97
 3994 0463 0401     		.2byte	0x104
 3995 0465 0B       		.uleb128 0xb
 3996 0466 4A010000 		.4byte	.LASF77
 3997 046a 05       		.byte	0x5
 3998 046b C6       		.byte	0xc6
 3999 046c 97000000 		.4byte	0x97
 4000 0470 0501     		.2byte	0x105
 4001 0472 0B       		.uleb128 0xb
 4002 0473 A6090000 		.4byte	.LASF78
 4003 0477 05       		.byte	0x5
 4004 0478 C7       		.byte	0xc7
 4005 0479 97000000 		.4byte	0x97
 4006 047d 0601     		.2byte	0x106
 4007 047f 0B       		.uleb128 0xb
 4008 0480 58000000 		.4byte	.LASF79
 4009 0484 05       		.byte	0x5
 4010 0485 C8       		.byte	0xc8
 4011 0486 97000000 		.4byte	0x97
 4012 048a 0701     		.2byte	0x107
 4013 048c 00       		.byte	0
 4014 048d 07       		.uleb128 0x7
 4015 048e 97000000 		.4byte	0x97
 4016 0492 A9040000 		.4byte	0x4a9
 4017 0496 08       		.uleb128 0x8
 4018 0497 F2000000 		.4byte	0xf2
 4019 049b 03       		.byte	0x3
 4020 049c 08       		.uleb128 0x8
 4021 049d F2000000 		.4byte	0xf2
 4022 04a1 02       		.byte	0x2
 4023 04a2 08       		.uleb128 0x8
 4024 04a3 F2000000 		.4byte	0xf2
 4025 04a7 0E       		.byte	0xe
 4026 04a8 00       		.byte	0
 4027 04a9 07       		.uleb128 0x7
 4028 04aa 97000000 		.4byte	0x97
 4029 04ae BF040000 		.4byte	0x4bf
 4030 04b2 08       		.uleb128 0x8
 4031 04b3 F2000000 		.4byte	0xf2
 4032 04b7 03       		.byte	0x3
 4033 04b8 08       		.uleb128 0x8
 4034 04b9 F2000000 		.4byte	0xf2
 4035 04bd 07       		.byte	0x7
 4036 04be 00       		.byte	0
 4037 04bf 09       		.uleb128 0x9
 4038 04c0 9B080000 		.4byte	.LASF80
 4039 04c4 2004     		.2byte	0x420
ARM GAS  C:\Users\RECEPC~1\AppData\Local\Temp\ccnklw4g.s 			page 92


 4040 04c6 05       		.byte	0x5
 4041 04c7 CB       		.byte	0xcb
 4042 04c8 F8040000 		.4byte	0x4f8
 4043 04cc 0C       		.uleb128 0xc
 4044 04cd 6100     		.ascii	"a\000"
 4045 04cf 05       		.byte	0x5
 4046 04d0 CC       		.byte	0xcc
 4047 04d1 C3030000 		.4byte	0x3c3
 4048 04d5 00       		.byte	0
 4049 04d6 0D       		.uleb128 0xd
 4050 04d7 6200     		.ascii	"b\000"
 4051 04d9 05       		.byte	0x5
 4052 04da CD       		.byte	0xcd
 4053 04db C3030000 		.4byte	0x3c3
 4054 04df 0801     		.2byte	0x108
 4055 04e1 0D       		.uleb128 0xd
 4056 04e2 6300     		.ascii	"c\000"
 4057 04e4 05       		.byte	0x5
 4058 04e5 CE       		.byte	0xce
 4059 04e6 C3030000 		.4byte	0x3c3
 4060 04ea 1002     		.2byte	0x210
 4061 04ec 0D       		.uleb128 0xd
 4062 04ed 6400     		.ascii	"d\000"
 4063 04ef 05       		.byte	0x5
 4064 04f0 CF       		.byte	0xcf
 4065 04f1 C3030000 		.4byte	0x3c3
 4066 04f5 1803     		.2byte	0x318
 4067 04f7 00       		.byte	0
 4068 04f8 0E       		.uleb128 0xe
 4069 04f9 A6060000 		.4byte	.LASF84
 4070 04fd 01       		.byte	0x1
 4071 04fe 05       		.byte	0x5
 4072 04ff D5       		.byte	0xd5
 4073 0500 52050000 		.4byte	0x552
 4074 0504 0F       		.uleb128 0xf
 4075 0505 534F4D00 		.ascii	"SOM\000"
 4076 0509 FF01     		.sleb128 255
 4077 050b 0F       		.uleb128 0xf
 4078 050c 56505400 		.ascii	"VPT\000"
 4079 0510 F101     		.sleb128 241
 4080 0512 0F       		.uleb128 0xf
 4081 0513 4D505400 		.ascii	"MPT\000"
 4082 0517 F201     		.sleb128 242
 4083 0519 0F       		.uleb128 0xf
 4084 051a 48446E00 		.ascii	"HDn\000"
 4085 051e F601     		.sleb128 246
 4086 0520 10       		.uleb128 0x10
 4087 0521 00000000 		.4byte	.LASF81
 4088 0525 F701     		.sleb128 247
 4089 0527 10       		.uleb128 0x10
 4090 0528 C2070000 		.4byte	.LASF82
 4091 052c F801     		.sleb128 248
 4092 052e 0F       		.uleb128 0xf
 4093 052f 56446E00 		.ascii	"VDn\000"
 4094 0533 F901     		.sleb128 249
 4095 0535 0F       		.uleb128 0xf
 4096 0536 4D446E00 		.ascii	"MDn\000"
ARM GAS  C:\Users\RECEPC~1\AppData\Local\Temp\ccnklw4g.s 			page 93


 4097 053a FA01     		.sleb128 250
 4098 053c 10       		.uleb128 0x10
 4099 053d 03040000 		.4byte	.LASF83
 4100 0541 FB01     		.sleb128 251
 4101 0543 0F       		.uleb128 0xf
 4102 0544 53466E00 		.ascii	"SFn\000"
 4103 0548 FE01     		.sleb128 254
 4104 054a 0F       		.uleb128 0xf
 4105 054b 454F4D00 		.ascii	"EOM\000"
 4106 054f F001     		.sleb128 240
 4107 0551 00       		.byte	0
 4108 0552 11       		.uleb128 0x11
 4109 0553 45020000 		.4byte	.LASF85
 4110 0557 01       		.byte	0x1
 4111 0558 05       		.byte	0x5
 4112 0559 3001     		.2byte	0x130
 4113 055b 90050000 		.4byte	0x590
 4114 055f 10       		.uleb128 0x10
 4115 0560 D8000000 		.4byte	.LASF86
 4116 0564 00       		.sleb128 0
 4117 0565 10       		.uleb128 0x10
 4118 0566 83010000 		.4byte	.LASF87
 4119 056a 06       		.sleb128 6
 4120 056b 10       		.uleb128 0x10
 4121 056c F6040000 		.4byte	.LASF88
 4122 0570 07       		.sleb128 7
 4123 0571 10       		.uleb128 0x10
 4124 0572 46050000 		.4byte	.LASF89
 4125 0576 08       		.sleb128 8
 4126 0577 10       		.uleb128 0x10
 4127 0578 7C030000 		.4byte	.LASF90
 4128 057c 09       		.sleb128 9
 4129 057d 10       		.uleb128 0x10
 4130 057e A0080000 		.4byte	.LASF91
 4131 0582 0A       		.sleb128 10
 4132 0583 10       		.uleb128 0x10
 4133 0584 06020000 		.4byte	.LASF92
 4134 0588 0B       		.sleb128 11
 4135 0589 10       		.uleb128 0x10
 4136 058a BA030000 		.4byte	.LASF93
 4137 058e 0C       		.sleb128 12
 4138 058f 00       		.byte	0
 4139 0590 12       		.uleb128 0x12
 4140 0591 F2030000 		.4byte	.LASF94
 4141 0595 01       		.byte	0x1
 4142 0596 3C       		.byte	0x3c
 4143 0597 97000000 		.4byte	0x97
 4144 059b 00000000 		.4byte	.LFB63
 4145 059f 2E000000 		.4byte	.LFE63-.LFB63
 4146 05a3 01       		.uleb128 0x1
 4147 05a4 9C       		.byte	0x9c
 4148 05a5 14060000 		.4byte	0x614
 4149 05a9 13       		.uleb128 0x13
 4150 05aa 706F7300 		.ascii	"pos\000"
 4151 05ae 01       		.byte	0x1
 4152 05af 3C       		.byte	0x3c
 4153 05b0 97000000 		.4byte	0x97
ARM GAS  C:\Users\RECEPC~1\AppData\Local\Temp\ccnklw4g.s 			page 94


 4154 05b4 00000000 		.4byte	.LLST0
 4155 05b8 14       		.uleb128 0x14
 4156 05b9 F9080000 		.4byte	.LASF96
 4157 05bd 01       		.byte	0x1
 4158 05be 3D       		.byte	0x3d
 4159 05bf 97000000 		.4byte	0x97
 4160 05c3 21000000 		.4byte	.LLST1
 4161 05c7 15       		.uleb128 0x15
 4162 05c8 08000000 		.4byte	.LVL1
 4163 05cc 47140000 		.4byte	0x1447
 4164 05d0 16       		.uleb128 0x16
 4165 05d1 0E000000 		.4byte	.LVL2
 4166 05d5 4E140000 		.4byte	0x144e
 4167 05d9 E4050000 		.4byte	0x5e4
 4168 05dd 17       		.uleb128 0x17
 4169 05de 01       		.uleb128 0x1
 4170 05df 50       		.byte	0x50
 4171 05e0 02       		.uleb128 0x2
 4172 05e1 74       		.byte	0x74
 4173 05e2 00       		.sleb128 0
 4174 05e3 00       		.byte	0
 4175 05e4 16       		.uleb128 0x16
 4176 05e5 14000000 		.4byte	.LVL3
 4177 05e9 5F140000 		.4byte	0x145f
 4178 05ed F8050000 		.4byte	0x5f8
 4179 05f1 17       		.uleb128 0x17
 4180 05f2 01       		.uleb128 0x1
 4181 05f3 50       		.byte	0x50
 4182 05f4 02       		.uleb128 0x2
 4183 05f5 08       		.byte	0x8
 4184 05f6 3C       		.byte	0x3c
 4185 05f7 00       		.byte	0
 4186 05f8 15       		.uleb128 0x15
 4187 05f9 18000000 		.4byte	.LVL4
 4188 05fd 70140000 		.4byte	0x1470
 4189 0601 15       		.uleb128 0x15
 4190 0602 1E000000 		.4byte	.LVL5
 4191 0606 7B140000 		.4byte	0x147b
 4192 060a 15       		.uleb128 0x15
 4193 060b 26000000 		.4byte	.LVL7
 4194 060f 47140000 		.4byte	0x1447
 4195 0613 00       		.byte	0
 4196 0614 12       		.uleb128 0x12
 4197 0615 03010000 		.4byte	.LASF95
 4198 0619 01       		.byte	0x1
 4199 061a 5C       		.byte	0x5c
 4200 061b 97000000 		.4byte	0x97
 4201 061f 00000000 		.4byte	.LFB64
 4202 0623 20010000 		.4byte	.LFE64-.LFB64
 4203 0627 01       		.uleb128 0x1
 4204 0628 9C       		.byte	0x9c
 4205 0629 AB060000 		.4byte	0x6ab
 4206 062d 18       		.uleb128 0x18
 4207 062e 7800     		.ascii	"x\000"
 4208 0630 01       		.byte	0x1
 4209 0631 5D       		.byte	0x5d
 4210 0632 97000000 		.4byte	0x97
ARM GAS  C:\Users\RECEPC~1\AppData\Local\Temp\ccnklw4g.s 			page 95


 4211 0636 34000000 		.4byte	.LLST2
 4212 063a 16       		.uleb128 0x16
 4213 063b 1E000000 		.4byte	.LVL11
 4214 063f 4E140000 		.4byte	0x144e
 4215 0643 4E060000 		.4byte	0x64e
 4216 0647 17       		.uleb128 0x17
 4217 0648 01       		.uleb128 0x1
 4218 0649 50       		.byte	0x50
 4219 064a 02       		.uleb128 0x2
 4220 064b 74       		.byte	0x74
 4221 064c 00       		.sleb128 0
 4222 064d 00       		.byte	0
 4223 064e 16       		.uleb128 0x16
 4224 064f 24000000 		.4byte	.LVL12
 4225 0653 5F140000 		.4byte	0x145f
 4226 0657 62060000 		.4byte	0x662
 4227 065b 17       		.uleb128 0x17
 4228 065c 01       		.uleb128 0x1
 4229 065d 50       		.byte	0x50
 4230 065e 02       		.uleb128 0x2
 4231 065f 08       		.byte	0x8
 4232 0660 64       		.byte	0x64
 4233 0661 00       		.byte	0
 4234 0662 15       		.uleb128 0x15
 4235 0663 28000000 		.4byte	.LVL13
 4236 0667 70140000 		.4byte	0x1470
 4237 066b 15       		.uleb128 0x15
 4238 066c 3A000000 		.4byte	.LVL14
 4239 0670 47140000 		.4byte	0x1447
 4240 0674 15       		.uleb128 0x15
 4241 0675 3E000000 		.4byte	.LVL15
 4242 0679 70140000 		.4byte	0x1470
 4243 067d 15       		.uleb128 0x15
 4244 067e 5C000000 		.4byte	.LVL16
 4245 0682 47140000 		.4byte	0x1447
 4246 0686 15       		.uleb128 0x15
 4247 0687 60000000 		.4byte	.LVL17
 4248 068b 70140000 		.4byte	0x1470
 4249 068f 15       		.uleb128 0x15
 4250 0690 88000000 		.4byte	.LVL18
 4251 0694 47140000 		.4byte	0x1447
 4252 0698 15       		.uleb128 0x15
 4253 0699 8C000000 		.4byte	.LVL19
 4254 069d 70140000 		.4byte	0x1470
 4255 06a1 15       		.uleb128 0x15
 4256 06a2 BE000000 		.4byte	.LVL20
 4257 06a6 47140000 		.4byte	0x1447
 4258 06aa 00       		.byte	0
 4259 06ab 12       		.uleb128 0x12
 4260 06ac 8D060000 		.4byte	.LASF97
 4261 06b0 01       		.byte	0x1
 4262 06b1 99       		.byte	0x99
 4263 06b2 97000000 		.4byte	0x97
 4264 06b6 00000000 		.4byte	.LFB65
 4265 06ba B4040000 		.4byte	.LFE65-.LFB65
 4266 06be 01       		.uleb128 0x1
 4267 06bf 9C       		.byte	0x9c
ARM GAS  C:\Users\RECEPC~1\AppData\Local\Temp\ccnklw4g.s 			page 96


 4268 06c0 A6070000 		.4byte	0x7a6
 4269 06c4 13       		.uleb128 0x13
 4270 06c5 706F7300 		.ascii	"pos\000"
 4271 06c9 01       		.byte	0x1
 4272 06ca 99       		.byte	0x99
 4273 06cb 97000000 		.4byte	0x97
 4274 06cf 5E000000 		.4byte	.LLST3
 4275 06d3 18       		.uleb128 0x18
 4276 06d4 7800     		.ascii	"x\000"
 4277 06d6 01       		.byte	0x1
 4278 06d7 9A       		.byte	0x9a
 4279 06d8 97000000 		.4byte	0x97
 4280 06dc 7F000000 		.4byte	.LLST4
 4281 06e0 18       		.uleb128 0x18
 4282 06e1 7900     		.ascii	"y\000"
 4283 06e3 01       		.byte	0x1
 4284 06e4 9A       		.byte	0x9a
 4285 06e5 97000000 		.4byte	0x97
 4286 06e9 84010000 		.4byte	.LLST5
 4287 06ed 18       		.uleb128 0x18
 4288 06ee 7A00     		.ascii	"z\000"
 4289 06f0 01       		.byte	0x1
 4290 06f1 9A       		.byte	0x9a
 4291 06f2 97000000 		.4byte	0x97
 4292 06f6 94020000 		.4byte	.LLST6
 4293 06fa 18       		.uleb128 0x18
 4294 06fb 7700     		.ascii	"w\000"
 4295 06fd 01       		.byte	0x1
 4296 06fe 9A       		.byte	0x9a
 4297 06ff 97000000 		.4byte	0x97
 4298 0703 2C040000 		.4byte	.LLST7
 4299 0707 14       		.uleb128 0x14
 4300 0708 63050000 		.4byte	.LASF98
 4301 070c 01       		.byte	0x1
 4302 070d 9A       		.byte	0x9a
 4303 070e 97000000 		.4byte	0x97
 4304 0712 E4040000 		.4byte	.LLST8
 4305 0716 15       		.uleb128 0x15
 4306 0717 08000000 		.4byte	.LVL29
 4307 071b 47140000 		.4byte	0x1447
 4308 071f 16       		.uleb128 0x16
 4309 0720 10000000 		.4byte	.LVL30
 4310 0724 4E140000 		.4byte	0x144e
 4311 0728 36070000 		.4byte	0x736
 4312 072c 17       		.uleb128 0x17
 4313 072d 01       		.uleb128 0x1
 4314 072e 50       		.byte	0x50
 4315 072f 05       		.uleb128 0x5
 4316 0730 75       		.byte	0x75
 4317 0731 00       		.sleb128 0
 4318 0732 08       		.byte	0x8
 4319 0733 50       		.byte	0x50
 4320 0734 21       		.byte	0x21
 4321 0735 00       		.byte	0
 4322 0736 15       		.uleb128 0x15
 4323 0737 14000000 		.4byte	.LVL31
 4324 073b 86140000 		.4byte	0x1486
ARM GAS  C:\Users\RECEPC~1\AppData\Local\Temp\ccnklw4g.s 			page 97


 4325 073f 16       		.uleb128 0x16
 4326 0740 1C000000 		.4byte	.LVL32
 4327 0744 5F140000 		.4byte	0x145f
 4328 0748 54070000 		.4byte	0x754
 4329 074c 17       		.uleb128 0x17
 4330 074d 01       		.uleb128 0x1
 4331 074e 50       		.byte	0x50
 4332 074f 03       		.uleb128 0x3
 4333 0750 0A       		.byte	0xa
 4334 0751 8403     		.2byte	0x384
 4335 0753 00       		.byte	0
 4336 0754 15       		.uleb128 0x15
 4337 0755 20000000 		.4byte	.LVL33
 4338 0759 86140000 		.4byte	0x1486
 4339 075d 15       		.uleb128 0x15
 4340 075e 24000000 		.4byte	.LVL34
 4341 0762 70140000 		.4byte	0x1470
 4342 0766 15       		.uleb128 0x15
 4343 0767 6A010000 		.4byte	.LVL72
 4344 076b 47140000 		.4byte	0x1447
 4345 076f 15       		.uleb128 0x15
 4346 0770 70020000 		.4byte	.LVL105
 4347 0774 47140000 		.4byte	0x1447
 4348 0778 15       		.uleb128 0x15
 4349 0779 78020000 		.4byte	.LVL107
 4350 077d 47140000 		.4byte	0x1447
 4351 0781 15       		.uleb128 0x15
 4352 0782 B4030000 		.4byte	.LVL145
 4353 0786 47140000 		.4byte	0x1447
 4354 078a 15       		.uleb128 0x15
 4355 078b 98040000 		.4byte	.LVL178
 4356 078f 47140000 		.4byte	0x1447
 4357 0793 15       		.uleb128 0x15
 4358 0794 A0040000 		.4byte	.LVL180
 4359 0798 47140000 		.4byte	0x1447
 4360 079c 15       		.uleb128 0x15
 4361 079d A8040000 		.4byte	.LVL182
 4362 07a1 47140000 		.4byte	0x1447
 4363 07a5 00       		.byte	0
 4364 07a6 19       		.uleb128 0x19
 4365 07a7 9B050000 		.4byte	.LASF99
 4366 07ab 01       		.byte	0x1
 4367 07ac 4801     		.2byte	0x148
 4368 07ae 97000000 		.4byte	0x97
 4369 07b2 00000000 		.4byte	.LFB66
 4370 07b6 DC010000 		.4byte	.LFE66-.LFB66
 4371 07ba 01       		.uleb128 0x1
 4372 07bb 9C       		.byte	0x9c
 4373 07bc C4080000 		.4byte	0x8c4
 4374 07c0 1A       		.uleb128 0x1a
 4375 07c1 706F7300 		.ascii	"pos\000"
 4376 07c5 01       		.byte	0x1
 4377 07c6 4801     		.2byte	0x148
 4378 07c8 97000000 		.4byte	0x97
 4379 07cc 02050000 		.4byte	.LLST9
 4380 07d0 1B       		.uleb128 0x1b
 4381 07d1 74090000 		.4byte	.LASF100
ARM GAS  C:\Users\RECEPC~1\AppData\Local\Temp\ccnklw4g.s 			page 98


 4382 07d5 01       		.byte	0x1
 4383 07d6 4801     		.2byte	0x148
 4384 07d8 97000000 		.4byte	0x97
 4385 07dc 23050000 		.4byte	.LLST10
 4386 07e0 1B       		.uleb128 0x1b
 4387 07e1 75020000 		.4byte	.LASF101
 4388 07e5 01       		.byte	0x1
 4389 07e6 4801     		.2byte	0x148
 4390 07e8 C4080000 		.4byte	0x8c4
 4391 07ec 44050000 		.4byte	.LLST11
 4392 07f0 1C       		.uleb128 0x1c
 4393 07f1 7C000000 		.4byte	.LASF64
 4394 07f5 01       		.byte	0x1
 4395 07f6 4901     		.2byte	0x149
 4396 07f8 B3030000 		.4byte	0x3b3
 4397 07fc 02       		.uleb128 0x2
 4398 07fd 91       		.byte	0x91
 4399 07fe 58       		.sleb128 -40
 4400 07ff 1D       		.uleb128 0x1d
 4401 0800 20050000 		.4byte	.LASF102
 4402 0804 01       		.byte	0x1
 4403 0805 4901     		.2byte	0x149
 4404 0807 97000000 		.4byte	0x97
 4405 080b 89050000 		.4byte	.LLST12
 4406 080f 1E       		.uleb128 0x1e
 4407 0810 7800     		.ascii	"x\000"
 4408 0812 01       		.byte	0x1
 4409 0813 4901     		.2byte	0x149
 4410 0815 97000000 		.4byte	0x97
 4411 0819 C0050000 		.4byte	.LLST13
 4412 081d 1E       		.uleb128 0x1e
 4413 081e 7900     		.ascii	"y\000"
 4414 0820 01       		.byte	0x1
 4415 0821 4901     		.2byte	0x149
 4416 0823 97000000 		.4byte	0x97
 4417 0827 B4060000 		.4byte	.LLST14
 4418 082b 15       		.uleb128 0x15
 4419 082c 6C010000 		.4byte	.LVL224
 4420 0830 47140000 		.4byte	0x1447
 4421 0834 16       		.uleb128 0x16
 4422 0835 74010000 		.4byte	.LVL225
 4423 0839 4E140000 		.4byte	0x144e
 4424 083d 4B080000 		.4byte	0x84b
 4425 0841 17       		.uleb128 0x17
 4426 0842 01       		.uleb128 0x1
 4427 0843 50       		.byte	0x50
 4428 0844 05       		.uleb128 0x5
 4429 0845 74       		.byte	0x74
 4430 0846 00       		.sleb128 0
 4431 0847 08       		.byte	0x8
 4432 0848 20       		.byte	0x20
 4433 0849 21       		.byte	0x21
 4434 084a 00       		.byte	0
 4435 084b 16       		.uleb128 0x16
 4436 084c 7A010000 		.4byte	.LVL226
 4437 0850 5F140000 		.4byte	0x145f
 4438 0854 5F080000 		.4byte	0x85f
ARM GAS  C:\Users\RECEPC~1\AppData\Local\Temp\ccnklw4g.s 			page 99


 4439 0858 17       		.uleb128 0x17
 4440 0859 01       		.uleb128 0x1
 4441 085a 50       		.byte	0x50
 4442 085b 02       		.uleb128 0x2
 4443 085c 08       		.byte	0x8
 4444 085d 64       		.byte	0x64
 4445 085e 00       		.byte	0
 4446 085f 15       		.uleb128 0x15
 4447 0860 7E010000 		.4byte	.LVL227
 4448 0864 70140000 		.4byte	0x1470
 4449 0868 15       		.uleb128 0x15
 4450 0869 84010000 		.4byte	.LVL228
 4451 086d 7B140000 		.4byte	0x147b
 4452 0871 15       		.uleb128 0x15
 4453 0872 90010000 		.4byte	.LVL229
 4454 0876 47140000 		.4byte	0x1447
 4455 087a 16       		.uleb128 0x16
 4456 087b A0010000 		.4byte	.LVL232
 4457 087f 4E140000 		.4byte	0x144e
 4458 0883 96080000 		.4byte	0x896
 4459 0887 17       		.uleb128 0x17
 4460 0888 01       		.uleb128 0x1
 4461 0889 50       		.byte	0x50
 4462 088a 0A       		.uleb128 0xa
 4463 088b 91       		.byte	0x91
 4464 088c 00       		.sleb128 0
 4465 088d 75       		.byte	0x75
 4466 088e 00       		.sleb128 0
 4467 088f 22       		.byte	0x22
 4468 0890 08       		.byte	0x8
 4469 0891 28       		.byte	0x28
 4470 0892 1C       		.byte	0x1c
 4471 0893 94       		.byte	0x94
 4472 0894 01       		.byte	0x1
 4473 0895 00       		.byte	0
 4474 0896 15       		.uleb128 0x15
 4475 0897 AC010000 		.4byte	.LVL235
 4476 089b 47140000 		.4byte	0x1447
 4477 089f 16       		.uleb128 0x16
 4478 08a0 B2010000 		.4byte	.LVL236
 4479 08a4 5F140000 		.4byte	0x145f
 4480 08a8 B3080000 		.4byte	0x8b3
 4481 08ac 17       		.uleb128 0x17
 4482 08ad 01       		.uleb128 0x1
 4483 08ae 50       		.byte	0x50
 4484 08af 02       		.uleb128 0x2
 4485 08b0 08       		.byte	0x8
 4486 08b1 32       		.byte	0x32
 4487 08b2 00       		.byte	0
 4488 08b3 1F       		.uleb128 0x1f
 4489 08b4 B8010000 		.4byte	.LVL237
 4490 08b8 90050000 		.4byte	0x590
 4491 08bc 17       		.uleb128 0x17
 4492 08bd 01       		.uleb128 0x1
 4493 08be 50       		.byte	0x50
 4494 08bf 02       		.uleb128 0x2
 4495 08c0 74       		.byte	0x74
ARM GAS  C:\Users\RECEPC~1\AppData\Local\Temp\ccnklw4g.s 			page 100


 4496 08c1 00       		.sleb128 0
 4497 08c2 00       		.byte	0
 4498 08c3 00       		.byte	0
 4499 08c4 20       		.uleb128 0x20
 4500 08c5 04       		.byte	0x4
 4501 08c6 97000000 		.4byte	0x97
 4502 08ca 19       		.uleb128 0x19
 4503 08cb 54010000 		.4byte	.LASF103
 4504 08cf 01       		.byte	0x1
 4505 08d0 9A02     		.2byte	0x29a
 4506 08d2 97000000 		.4byte	0x97
 4507 08d6 00000000 		.4byte	.LFB70
 4508 08da C8030000 		.4byte	.LFE70-.LFB70
 4509 08de 01       		.uleb128 0x1
 4510 08df 9C       		.byte	0x9c
 4511 08e0 52090000 		.4byte	0x952
 4512 08e4 1A       		.uleb128 0x1a
 4513 08e5 706F7300 		.ascii	"pos\000"
 4514 08e9 01       		.byte	0x1
 4515 08ea 9A02     		.2byte	0x29a
 4516 08ec 97000000 		.4byte	0x97
 4517 08f0 D2060000 		.4byte	.LLST15
 4518 08f4 1E       		.uleb128 0x1e
 4519 08f5 7800     		.ascii	"x\000"
 4520 08f7 01       		.byte	0x1
 4521 08f8 9B02     		.2byte	0x29b
 4522 08fa 97000000 		.4byte	0x97
 4523 08fe F3060000 		.4byte	.LLST16
 4524 0902 15       		.uleb128 0x15
 4525 0903 08000000 		.4byte	.LVL243
 4526 0907 47140000 		.4byte	0x1447
 4527 090b 16       		.uleb128 0x16
 4528 090c 10000000 		.4byte	.LVL244
 4529 0910 4E140000 		.4byte	0x144e
 4530 0914 22090000 		.4byte	0x922
 4531 0918 17       		.uleb128 0x17
 4532 0919 01       		.uleb128 0x1
 4533 091a 50       		.byte	0x50
 4534 091b 05       		.uleb128 0x5
 4535 091c 74       		.byte	0x74
 4536 091d 00       		.sleb128 0
 4537 091e 08       		.byte	0x8
 4538 091f 40       		.byte	0x40
 4539 0920 21       		.byte	0x21
 4540 0921 00       		.byte	0
 4541 0922 16       		.uleb128 0x16
 4542 0923 16000000 		.4byte	.LVL245
 4543 0927 5F140000 		.4byte	0x145f
 4544 092b 36090000 		.4byte	0x936
 4545 092f 17       		.uleb128 0x17
 4546 0930 01       		.uleb128 0x1
 4547 0931 50       		.byte	0x50
 4548 0932 02       		.uleb128 0x2
 4549 0933 08       		.byte	0x8
 4550 0934 FA       		.byte	0xfa
 4551 0935 00       		.byte	0
 4552 0936 15       		.uleb128 0x15
ARM GAS  C:\Users\RECEPC~1\AppData\Local\Temp\ccnklw4g.s 			page 101


 4553 0937 1A000000 		.4byte	.LVL246
 4554 093b 86140000 		.4byte	0x1486
 4555 093f 15       		.uleb128 0x15
 4556 0940 28000000 		.4byte	.LVL247
 4557 0944 70140000 		.4byte	0x1470
 4558 0948 15       		.uleb128 0x15
 4559 0949 16020000 		.4byte	.LVL288
 4560 094d 70140000 		.4byte	0x1470
 4561 0951 00       		.byte	0
 4562 0952 21       		.uleb128 0x21
 4563 0953 7A050000 		.4byte	.LASF208
 4564 0957 01       		.byte	0x1
 4565 0958 0603     		.2byte	0x306
 4566 095a 8D090000 		.4byte	0x98d
 4567 095e 00000000 		.4byte	.LFB71
 4568 0962 14000000 		.4byte	.LFE71-.LFB71
 4569 0966 01       		.uleb128 0x1
 4570 0967 9C       		.byte	0x9c
 4571 0968 8D090000 		.4byte	0x98d
 4572 096c 1B       		.uleb128 0x1b
 4573 096d F9080000 		.4byte	.LASF96
 4574 0971 01       		.byte	0x1
 4575 0972 0603     		.2byte	0x306
 4576 0974 73000000 		.4byte	0x73
 4577 0978 BD080000 		.4byte	.LLST17
 4578 097c 1D       		.uleb128 0x1d
 4579 097d 6E020000 		.4byte	.LASF104
 4580 0981 01       		.byte	0x1
 4581 0982 0803     		.2byte	0x308
 4582 0984 8D090000 		.4byte	0x98d
 4583 0988 F7080000 		.4byte	.LLST18
 4584 098c 00       		.byte	0
 4585 098d 02       		.uleb128 0x2
 4586 098e 01       		.byte	0x1
 4587 098f 02       		.byte	0x2
 4588 0990 F8020000 		.4byte	.LASF105
 4589 0994 19       		.uleb128 0x19
 4590 0995 C7070000 		.4byte	.LASF106
 4591 0999 01       		.byte	0x1
 4592 099a 1B03     		.2byte	0x31b
 4593 099c 81000000 		.4byte	0x81
 4594 09a0 00000000 		.4byte	.LFB72
 4595 09a4 26000000 		.4byte	.LFE72-.LFB72
 4596 09a8 01       		.uleb128 0x1
 4597 09a9 9C       		.byte	0x9c
 4598 09aa CF090000 		.4byte	0x9cf
 4599 09ae 1B       		.uleb128 0x1b
 4600 09af 9D090000 		.4byte	.LASF107
 4601 09b3 01       		.byte	0x1
 4602 09b4 1B03     		.2byte	0x31b
 4603 09b6 CF090000 		.4byte	0x9cf
 4604 09ba 16090000 		.4byte	.LLST19
 4605 09be 1E       		.uleb128 0x1e
 4606 09bf 6C726300 		.ascii	"lrc\000"
 4607 09c3 01       		.byte	0x1
 4608 09c4 1D03     		.2byte	0x31d
 4609 09c6 81000000 		.4byte	0x81
ARM GAS  C:\Users\RECEPC~1\AppData\Local\Temp\ccnklw4g.s 			page 102


 4610 09ca 34090000 		.4byte	.LLST20
 4611 09ce 00       		.byte	0
 4612 09cf 20       		.uleb128 0x20
 4613 09d0 04       		.byte	0x4
 4614 09d1 D5000000 		.4byte	0xd5
 4615 09d5 19       		.uleb128 0x19
 4616 09d6 15090000 		.4byte	.LASF108
 4617 09da 01       		.byte	0x1
 4618 09db A001     		.2byte	0x1a0
 4619 09dd 97000000 		.4byte	0x97
 4620 09e1 00000000 		.4byte	.LFB67
 4621 09e5 10030000 		.4byte	.LFE67-.LFB67
 4622 09e9 01       		.uleb128 0x1
 4623 09ea 9C       		.byte	0x9c
 4624 09eb 410B0000 		.4byte	0xb41
 4625 09ef 1B       		.uleb128 0x1b
 4626 09f0 7B060000 		.4byte	.LASF109
 4627 09f4 01       		.byte	0x1
 4628 09f5 A001     		.2byte	0x1a0
 4629 09f7 97000000 		.4byte	0x97
 4630 09fb 7C090000 		.4byte	.LLST21
 4631 09ff 1B       		.uleb128 0x1b
 4632 0a00 A6090000 		.4byte	.LASF78
 4633 0a04 01       		.byte	0x1
 4634 0a05 A001     		.2byte	0x1a0
 4635 0a07 D5000000 		.4byte	0xd5
 4636 0a0b 9D090000 		.4byte	.LLST22
 4637 0a0f 1B       		.uleb128 0x1b
 4638 0a10 75020000 		.4byte	.LASF101
 4639 0a14 01       		.byte	0x1
 4640 0a15 A001     		.2byte	0x1a0
 4641 0a17 C4080000 		.4byte	0x8c4
 4642 0a1b BE090000 		.4byte	.LLST23
 4643 0a1f 1B       		.uleb128 0x1b
 4644 0a20 72010000 		.4byte	.LASF110
 4645 0a24 01       		.byte	0x1
 4646 0a25 A001     		.2byte	0x1a0
 4647 0a27 97000000 		.4byte	0x97
 4648 0a2b 1C0A0000 		.4byte	.LLST24
 4649 0a2f 1C       		.uleb128 0x1c
 4650 0a30 93010000 		.4byte	.LASF111
 4651 0a34 01       		.byte	0x1
 4652 0a35 A101     		.2byte	0x1a1
 4653 0a37 410B0000 		.4byte	0xb41
 4654 0a3b 02       		.uleb128 0x2
 4655 0a3c 91       		.byte	0x91
 4656 0a3d 54       		.sleb128 -44
 4657 0a3e 1D       		.uleb128 0x1d
 4658 0a3f F9080000 		.4byte	.LASF96
 4659 0a43 01       		.byte	0x1
 4660 0a44 A201     		.2byte	0x1a2
 4661 0a46 97000000 		.4byte	0x97
 4662 0a4a 490A0000 		.4byte	.LLST25
 4663 0a4e 1E       		.uleb128 0x1e
 4664 0a4f 7800     		.ascii	"x\000"
 4665 0a51 01       		.byte	0x1
 4666 0a52 A201     		.2byte	0x1a2
ARM GAS  C:\Users\RECEPC~1\AppData\Local\Temp\ccnklw4g.s 			page 103


 4667 0a54 97000000 		.4byte	0x97
 4668 0a58 5C0A0000 		.4byte	.LLST26
 4669 0a5c 1E       		.uleb128 0x1e
 4670 0a5d 7900     		.ascii	"y\000"
 4671 0a5f 01       		.byte	0x1
 4672 0a60 A201     		.2byte	0x1a2
 4673 0a62 97000000 		.4byte	0x97
 4674 0a66 020C0000 		.4byte	.LLST27
 4675 0a6a 1E       		.uleb128 0x1e
 4676 0a6b 7A00     		.ascii	"z\000"
 4677 0a6d 01       		.byte	0x1
 4678 0a6e A201     		.2byte	0x1a2
 4679 0a70 97000000 		.4byte	0x97
 4680 0a74 6C0D0000 		.4byte	.LLST28
 4681 0a78 1D       		.uleb128 0x1d
 4682 0a79 27010000 		.4byte	.LASF112
 4683 0a7d 01       		.byte	0x1
 4684 0a7e A301     		.2byte	0x1a3
 4685 0a80 D5000000 		.4byte	0xd5
 4686 0a84 F00D0000 		.4byte	.LLST29
 4687 0a88 16       		.uleb128 0x16
 4688 0a89 1C000000 		.4byte	.LVL333
 4689 0a8d 90050000 		.4byte	0x590
 4690 0a91 9C0A0000 		.4byte	0xa9c
 4691 0a95 17       		.uleb128 0x17
 4692 0a96 01       		.uleb128 0x1
 4693 0a97 50       		.byte	0x50
 4694 0a98 02       		.uleb128 0x2
 4695 0a99 75       		.byte	0x75
 4696 0a9a 00       		.sleb128 0
 4697 0a9b 00       		.byte	0
 4698 0a9c 16       		.uleb128 0x16
 4699 0a9d 2C000000 		.4byte	.LVL335
 4700 0aa1 4E140000 		.4byte	0x144e
 4701 0aa5 B30A0000 		.4byte	0xab3
 4702 0aa9 17       		.uleb128 0x17
 4703 0aaa 01       		.uleb128 0x1
 4704 0aab 50       		.byte	0x50
 4705 0aac 05       		.uleb128 0x5
 4706 0aad 75       		.byte	0x75
 4707 0aae 00       		.sleb128 0
 4708 0aaf 08       		.byte	0x8
 4709 0ab0 20       		.byte	0x20
 4710 0ab1 21       		.byte	0x21
 4711 0ab2 00       		.byte	0
 4712 0ab3 16       		.uleb128 0x16
 4713 0ab4 32000000 		.4byte	.LVL336
 4714 0ab8 5F140000 		.4byte	0x145f
 4715 0abc C70A0000 		.4byte	0xac7
 4716 0ac0 17       		.uleb128 0x17
 4717 0ac1 01       		.uleb128 0x1
 4718 0ac2 50       		.byte	0x50
 4719 0ac3 02       		.uleb128 0x2
 4720 0ac4 08       		.byte	0x8
 4721 0ac5 32       		.byte	0x32
 4722 0ac6 00       		.byte	0
 4723 0ac7 15       		.uleb128 0x15
ARM GAS  C:\Users\RECEPC~1\AppData\Local\Temp\ccnklw4g.s 			page 104


 4724 0ac8 36000000 		.4byte	.LVL337
 4725 0acc 7B140000 		.4byte	0x147b
 4726 0ad0 15       		.uleb128 0x15
 4727 0ad1 40000000 		.4byte	.LVL341
 4728 0ad5 47140000 		.4byte	0x1447
 4729 0ad9 15       		.uleb128 0x15
 4730 0ada 44000000 		.4byte	.LVL342
 4731 0ade 47140000 		.4byte	0x1447
 4732 0ae2 16       		.uleb128 0x16
 4733 0ae3 6E010000 		.4byte	.LVL388
 4734 0ae7 94090000 		.4byte	0x994
 4735 0aeb F60A0000 		.4byte	0xaf6
 4736 0aef 17       		.uleb128 0x17
 4737 0af0 01       		.uleb128 0x1
 4738 0af1 50       		.byte	0x50
 4739 0af2 02       		.uleb128 0x2
 4740 0af3 91       		.byte	0x91
 4741 0af4 54       		.sleb128 -44
 4742 0af5 00       		.byte	0
 4743 0af6 15       		.uleb128 0x15
 4744 0af7 94010000 		.4byte	.LVL394
 4745 0afb 4E140000 		.4byte	0x144e
 4746 0aff 16       		.uleb128 0x16
 4747 0b00 A2010000 		.4byte	.LVL397
 4748 0b04 5F140000 		.4byte	0x145f
 4749 0b08 130B0000 		.4byte	0xb13
 4750 0b0c 17       		.uleb128 0x17
 4751 0b0d 01       		.uleb128 0x1
 4752 0b0e 50       		.byte	0x50
 4753 0b0f 02       		.uleb128 0x2
 4754 0b10 08       		.byte	0x8
 4755 0b11 32       		.byte	0x32
 4756 0b12 00       		.byte	0
 4757 0b13 16       		.uleb128 0x16
 4758 0b14 BC020000 		.4byte	.LVL442
 4759 0b18 94090000 		.4byte	0x994
 4760 0b1c 270B0000 		.4byte	0xb27
 4761 0b20 17       		.uleb128 0x17
 4762 0b21 01       		.uleb128 0x1
 4763 0b22 50       		.byte	0x50
 4764 0b23 02       		.uleb128 0x2
 4765 0b24 91       		.byte	0x91
 4766 0b25 54       		.sleb128 -44
 4767 0b26 00       		.byte	0
 4768 0b27 15       		.uleb128 0x15
 4769 0b28 E2020000 		.4byte	.LVL448
 4770 0b2c 4E140000 		.4byte	0x144e
 4771 0b30 1F       		.uleb128 0x1f
 4772 0b31 F0020000 		.4byte	.LVL451
 4773 0b35 5F140000 		.4byte	0x145f
 4774 0b39 17       		.uleb128 0x17
 4775 0b3a 01       		.uleb128 0x1
 4776 0b3b 50       		.byte	0x50
 4777 0b3c 02       		.uleb128 0x2
 4778 0b3d 08       		.byte	0x8
 4779 0b3e 32       		.byte	0x32
 4780 0b3f 00       		.byte	0
ARM GAS  C:\Users\RECEPC~1\AppData\Local\Temp\ccnklw4g.s 			page 105


 4781 0b40 00       		.byte	0
 4782 0b41 07       		.uleb128 0x7
 4783 0b42 D5000000 		.4byte	0xd5
 4784 0b46 510B0000 		.4byte	0xb51
 4785 0b4a 08       		.uleb128 0x8
 4786 0b4b F2000000 		.4byte	0xf2
 4787 0b4f 11       		.byte	0x11
 4788 0b50 00       		.byte	0
 4789 0b51 19       		.uleb128 0x19
 4790 0b52 25050000 		.4byte	.LASF113
 4791 0b56 01       		.byte	0x1
 4792 0b57 1402     		.2byte	0x214
 4793 0b59 97000000 		.4byte	0x97
 4794 0b5d 00000000 		.4byte	.LFB68
 4795 0b61 60010000 		.4byte	.LFE68-.LFB68
 4796 0b65 01       		.uleb128 0x1
 4797 0b66 9C       		.byte	0x9c
 4798 0b67 7F0C0000 		.4byte	0xc7f
 4799 0b6b 1B       		.uleb128 0x1b
 4800 0b6c B0020000 		.4byte	.LASF114
 4801 0b70 01       		.byte	0x1
 4802 0b71 1402     		.2byte	0x214
 4803 0b73 97000000 		.4byte	0x97
 4804 0b77 260E0000 		.4byte	.LLST30
 4805 0b7b 1D       		.uleb128 0x1d
 4806 0b7c F9080000 		.4byte	.LASF96
 4807 0b80 01       		.byte	0x1
 4808 0b81 1502     		.2byte	0x215
 4809 0b83 97000000 		.4byte	0x97
 4810 0b87 470E0000 		.4byte	.LLST31
 4811 0b8b 1E       		.uleb128 0x1e
 4812 0b8c 7800     		.ascii	"x\000"
 4813 0b8e 01       		.byte	0x1
 4814 0b8f 1502     		.2byte	0x215
 4815 0b91 97000000 		.4byte	0x97
 4816 0b95 650E0000 		.4byte	.LLST32
 4817 0b99 1C       		.uleb128 0x1c
 4818 0b9a 93010000 		.4byte	.LASF111
 4819 0b9e 01       		.byte	0x1
 4820 0b9f 1602     		.2byte	0x216
 4821 0ba1 7F0C0000 		.4byte	0xc7f
 4822 0ba5 02       		.uleb128 0x2
 4823 0ba6 91       		.byte	0x91
 4824 0ba7 5C       		.sleb128 -36
 4825 0ba8 1D       		.uleb128 0x1d
 4826 0ba9 27010000 		.4byte	.LASF112
 4827 0bad 01       		.byte	0x1
 4828 0bae 1702     		.2byte	0x217
 4829 0bb0 D5000000 		.4byte	0xd5
 4830 0bb4 B10E0000 		.4byte	.LLST33
 4831 0bb8 1D       		.uleb128 0x1d
 4832 0bb9 DF030000 		.4byte	.LASF115
 4833 0bbd 01       		.byte	0x1
 4834 0bbe 1902     		.2byte	0x219
 4835 0bc0 97000000 		.4byte	0x97
 4836 0bc4 E70E0000 		.4byte	.LLST34
 4837 0bc8 22       		.uleb128 0x22
ARM GAS  C:\Users\RECEPC~1\AppData\Local\Temp\ccnklw4g.s 			page 106


 4838 0bc9 A20C0000 		.4byte	0xca2
 4839 0bcd 060F0000 		.4byte	.LLST35
 4840 0bd1 1D       		.uleb128 0x1d
 4841 0bd2 7C000000 		.4byte	.LASF64
 4842 0bd6 01       		.byte	0x1
 4843 0bd7 3202     		.2byte	0x232
 4844 0bd9 8F0C0000 		.4byte	0xc8f
 4845 0bdd 200F0000 		.4byte	.LLST36
 4846 0be1 16       		.uleb128 0x16
 4847 0be2 0C000000 		.4byte	.LVL458
 4848 0be6 90050000 		.4byte	0x590
 4849 0bea F50B0000 		.4byte	0xbf5
 4850 0bee 17       		.uleb128 0x17
 4851 0bef 01       		.uleb128 0x1
 4852 0bf0 50       		.byte	0x50
 4853 0bf1 02       		.uleb128 0x2
 4854 0bf2 74       		.byte	0x74
 4855 0bf3 00       		.sleb128 0
 4856 0bf4 00       		.byte	0
 4857 0bf5 16       		.uleb128 0x16
 4858 0bf6 18000000 		.4byte	.LVL460
 4859 0bfa 4E140000 		.4byte	0x144e
 4860 0bfe 0C0C0000 		.4byte	0xc0c
 4861 0c02 17       		.uleb128 0x17
 4862 0c03 01       		.uleb128 0x1
 4863 0c04 50       		.byte	0x50
 4864 0c05 05       		.uleb128 0x5
 4865 0c06 74       		.byte	0x74
 4866 0c07 00       		.sleb128 0
 4867 0c08 08       		.byte	0x8
 4868 0c09 20       		.byte	0x20
 4869 0c0a 21       		.byte	0x21
 4870 0c0b 00       		.byte	0
 4871 0c0c 16       		.uleb128 0x16
 4872 0c0d 1E000000 		.4byte	.LVL461
 4873 0c11 5F140000 		.4byte	0x145f
 4874 0c15 200C0000 		.4byte	0xc20
 4875 0c19 17       		.uleb128 0x17
 4876 0c1a 01       		.uleb128 0x1
 4877 0c1b 50       		.byte	0x50
 4878 0c1c 02       		.uleb128 0x2
 4879 0c1d 08       		.byte	0x8
 4880 0c1e 32       		.byte	0x32
 4881 0c1f 00       		.byte	0
 4882 0c20 15       		.uleb128 0x15
 4883 0c21 22000000 		.4byte	.LVL462
 4884 0c25 7B140000 		.4byte	0x147b
 4885 0c29 15       		.uleb128 0x15
 4886 0c2a 2C000000 		.4byte	.LVL466
 4887 0c2e 47140000 		.4byte	0x1447
 4888 0c32 16       		.uleb128 0x16
 4889 0c33 54000000 		.4byte	.LVL467
 4890 0c37 94090000 		.4byte	0x994
 4891 0c3b 460C0000 		.4byte	0xc46
 4892 0c3f 17       		.uleb128 0x17
 4893 0c40 01       		.uleb128 0x1
 4894 0c41 50       		.byte	0x50
ARM GAS  C:\Users\RECEPC~1\AppData\Local\Temp\ccnklw4g.s 			page 107


 4895 0c42 02       		.uleb128 0x2
 4896 0c43 7D       		.byte	0x7d
 4897 0c44 14       		.sleb128 20
 4898 0c45 00       		.byte	0
 4899 0c46 15       		.uleb128 0x15
 4900 0c47 6C000000 		.4byte	.LVL470
 4901 0c4b 4E140000 		.4byte	0x144e
 4902 0c4f 16       		.uleb128 0x16
 4903 0c50 7A000000 		.4byte	.LVL473
 4904 0c54 5F140000 		.4byte	0x145f
 4905 0c58 630C0000 		.4byte	0xc63
 4906 0c5c 17       		.uleb128 0x17
 4907 0c5d 01       		.uleb128 0x1
 4908 0c5e 50       		.byte	0x50
 4909 0c5f 02       		.uleb128 0x2
 4910 0c60 08       		.byte	0x8
 4911 0c61 C8       		.byte	0xc8
 4912 0c62 00       		.byte	0
 4913 0c63 15       		.uleb128 0x15
 4914 0c64 7E000000 		.4byte	.LVL474
 4915 0c68 70140000 		.4byte	0x1470
 4916 0c6c 15       		.uleb128 0x15
 4917 0c6d 94000000 		.4byte	.LVL478
 4918 0c71 7B140000 		.4byte	0x147b
 4919 0c75 15       		.uleb128 0x15
 4920 0c76 A2000000 		.4byte	.LVL481
 4921 0c7a 47140000 		.4byte	0x1447
 4922 0c7e 00       		.byte	0
 4923 0c7f 07       		.uleb128 0x7
 4924 0c80 D5000000 		.4byte	0xd5
 4925 0c84 8F0C0000 		.4byte	0xc8f
 4926 0c88 08       		.uleb128 0x8
 4927 0c89 F2000000 		.4byte	0xf2
 4928 0c8d 08       		.byte	0x8
 4929 0c8e 00       		.byte	0
 4930 0c8f 07       		.uleb128 0x7
 4931 0c90 D5000000 		.4byte	0xd5
 4932 0c94 A20C0000 		.4byte	0xca2
 4933 0c98 23       		.uleb128 0x23
 4934 0c99 F2000000 		.4byte	0xf2
 4935 0c9d C80B0000 		.4byte	0xbc8
 4936 0ca1 00       		.byte	0
 4937 0ca2 24       		.uleb128 0x24
 4938 0ca3 F2000000 		.4byte	0xf2
 4939 0ca7 19       		.uleb128 0x19
 4940 0ca8 86030000 		.4byte	.LASF116
 4941 0cac 01       		.byte	0x1
 4942 0cad 5A02     		.2byte	0x25a
 4943 0caf 97000000 		.4byte	0x97
 4944 0cb3 00000000 		.4byte	.LFB69
 4945 0cb7 D4000000 		.4byte	.LFE69-.LFB69
 4946 0cbb 01       		.uleb128 0x1
 4947 0cbc 9C       		.byte	0x9c
 4948 0cbd EA0D0000 		.4byte	0xdea
 4949 0cc1 1B       		.uleb128 0x1b
 4950 0cc2 B0020000 		.4byte	.LASF114
 4951 0cc6 01       		.byte	0x1
ARM GAS  C:\Users\RECEPC~1\AppData\Local\Temp\ccnklw4g.s 			page 108


 4952 0cc7 5A02     		.2byte	0x25a
 4953 0cc9 97000000 		.4byte	0x97
 4954 0ccd 340F0000 		.4byte	.LLST37
 4955 0cd1 1D       		.uleb128 0x1d
 4956 0cd2 F9080000 		.4byte	.LASF96
 4957 0cd6 01       		.byte	0x1
 4958 0cd7 5B02     		.2byte	0x25b
 4959 0cd9 97000000 		.4byte	0x97
 4960 0cdd 550F0000 		.4byte	.LLST38
 4961 0ce1 1E       		.uleb128 0x1e
 4962 0ce2 7800     		.ascii	"x\000"
 4963 0ce4 01       		.byte	0x1
 4964 0ce5 5B02     		.2byte	0x25b
 4965 0ce7 97000000 		.4byte	0x97
 4966 0ceb 680F0000 		.4byte	.LLST39
 4967 0cef 1C       		.uleb128 0x1c
 4968 0cf0 93010000 		.4byte	.LASF111
 4969 0cf4 01       		.byte	0x1
 4970 0cf5 5C02     		.2byte	0x25c
 4971 0cf7 7F0C0000 		.4byte	0xc7f
 4972 0cfb 02       		.uleb128 0x2
 4973 0cfc 91       		.byte	0x91
 4974 0cfd 5C       		.sleb128 -36
 4975 0cfe 1D       		.uleb128 0x1d
 4976 0cff 27010000 		.4byte	.LASF112
 4977 0d03 01       		.byte	0x1
 4978 0d04 5D02     		.2byte	0x25d
 4979 0d06 D5000000 		.4byte	0xd5
 4980 0d0a B40F0000 		.4byte	.LLST40
 4981 0d0e 1D       		.uleb128 0x1d
 4982 0d0f DF030000 		.4byte	.LASF115
 4983 0d13 01       		.byte	0x1
 4984 0d14 5F02     		.2byte	0x25f
 4985 0d16 97000000 		.4byte	0x97
 4986 0d1a EA0F0000 		.4byte	.LLST41
 4987 0d1e 22       		.uleb128 0x22
 4988 0d1f FD0D0000 		.4byte	0xdfd
 4989 0d23 09100000 		.4byte	.LLST42
 4990 0d27 1D       		.uleb128 0x1d
 4991 0d28 7C000000 		.4byte	.LASF64
 4992 0d2c 01       		.byte	0x1
 4993 0d2d 7D02     		.2byte	0x27d
 4994 0d2f EA0D0000 		.4byte	0xdea
 4995 0d33 23100000 		.4byte	.LLST43
 4996 0d37 16       		.uleb128 0x16
 4997 0d38 0C000000 		.4byte	.LVL485
 4998 0d3c 90050000 		.4byte	0x590
 4999 0d40 4B0D0000 		.4byte	0xd4b
 5000 0d44 17       		.uleb128 0x17
 5001 0d45 01       		.uleb128 0x1
 5002 0d46 50       		.byte	0x50
 5003 0d47 02       		.uleb128 0x2
 5004 0d48 74       		.byte	0x74
 5005 0d49 00       		.sleb128 0
 5006 0d4a 00       		.byte	0
 5007 0d4b 16       		.uleb128 0x16
 5008 0d4c 1C000000 		.4byte	.LVL487
ARM GAS  C:\Users\RECEPC~1\AppData\Local\Temp\ccnklw4g.s 			page 109


 5009 0d50 4E140000 		.4byte	0x144e
 5010 0d54 620D0000 		.4byte	0xd62
 5011 0d58 17       		.uleb128 0x17
 5012 0d59 01       		.uleb128 0x1
 5013 0d5a 50       		.byte	0x50
 5014 0d5b 05       		.uleb128 0x5
 5015 0d5c 74       		.byte	0x74
 5016 0d5d 00       		.sleb128 0
 5017 0d5e 08       		.byte	0x8
 5018 0d5f 20       		.byte	0x20
 5019 0d60 21       		.byte	0x21
 5020 0d61 00       		.byte	0
 5021 0d62 16       		.uleb128 0x16
 5022 0d63 22000000 		.4byte	.LVL488
 5023 0d67 5F140000 		.4byte	0x145f
 5024 0d6b 760D0000 		.4byte	0xd76
 5025 0d6f 17       		.uleb128 0x17
 5026 0d70 01       		.uleb128 0x1
 5027 0d71 50       		.byte	0x50
 5028 0d72 02       		.uleb128 0x2
 5029 0d73 08       		.byte	0x8
 5030 0d74 32       		.byte	0x32
 5031 0d75 00       		.byte	0
 5032 0d76 15       		.uleb128 0x15
 5033 0d77 26000000 		.4byte	.LVL489
 5034 0d7b 7B140000 		.4byte	0x147b
 5035 0d7f 15       		.uleb128 0x15
 5036 0d80 30000000 		.4byte	.LVL493
 5037 0d84 47140000 		.4byte	0x1447
 5038 0d88 16       		.uleb128 0x16
 5039 0d89 58000000 		.4byte	.LVL494
 5040 0d8d 94090000 		.4byte	0x994
 5041 0d91 9C0D0000 		.4byte	0xd9c
 5042 0d95 17       		.uleb128 0x17
 5043 0d96 01       		.uleb128 0x1
 5044 0d97 50       		.byte	0x50
 5045 0d98 02       		.uleb128 0x2
 5046 0d99 7D       		.byte	0x7d
 5047 0d9a 14       		.sleb128 20
 5048 0d9b 00       		.byte	0
 5049 0d9c 15       		.uleb128 0x15
 5050 0d9d 70000000 		.4byte	.LVL497
 5051 0da1 4E140000 		.4byte	0x144e
 5052 0da5 16       		.uleb128 0x16
 5053 0da6 86000000 		.4byte	.LVL500
 5054 0daa 5F140000 		.4byte	0x145f
 5055 0dae BA0D0000 		.4byte	0xdba
 5056 0db2 17       		.uleb128 0x17
 5057 0db3 01       		.uleb128 0x1
 5058 0db4 50       		.byte	0x50
 5059 0db5 03       		.uleb128 0x3
 5060 0db6 0A       		.byte	0xa
 5061 0db7 F401     		.2byte	0x1f4
 5062 0db9 00       		.byte	0
 5063 0dba 16       		.uleb128 0x16
 5064 0dbb 8E000000 		.4byte	.LVL501
 5065 0dbf 5F140000 		.4byte	0x145f
ARM GAS  C:\Users\RECEPC~1\AppData\Local\Temp\ccnklw4g.s 			page 110


 5066 0dc3 CE0D0000 		.4byte	0xdce
 5067 0dc7 17       		.uleb128 0x17
 5068 0dc8 01       		.uleb128 0x1
 5069 0dc9 50       		.byte	0x50
 5070 0dca 02       		.uleb128 0x2
 5071 0dcb 08       		.byte	0x8
 5072 0dcc 96       		.byte	0x96
 5073 0dcd 00       		.byte	0
 5074 0dce 15       		.uleb128 0x15
 5075 0dcf 92000000 		.4byte	.LVL502
 5076 0dd3 70140000 		.4byte	0x1470
 5077 0dd7 15       		.uleb128 0x15
 5078 0dd8 A8000000 		.4byte	.LVL506
 5079 0ddc 7B140000 		.4byte	0x147b
 5080 0de0 15       		.uleb128 0x15
 5081 0de1 B6000000 		.4byte	.LVL509
 5082 0de5 47140000 		.4byte	0x1447
 5083 0de9 00       		.byte	0
 5084 0dea 07       		.uleb128 0x7
 5085 0deb D5000000 		.4byte	0xd5
 5086 0def FD0D0000 		.4byte	0xdfd
 5087 0df3 23       		.uleb128 0x23
 5088 0df4 F2000000 		.4byte	0xf2
 5089 0df8 1E0D0000 		.4byte	0xd1e
 5090 0dfc 00       		.byte	0
 5091 0dfd 24       		.uleb128 0x24
 5092 0dfe F2000000 		.4byte	0xf2
 5093 0e02 07       		.uleb128 0x7
 5094 0e03 97000000 		.4byte	0x97
 5095 0e07 120E0000 		.4byte	0xe12
 5096 0e0b 08       		.uleb128 0x8
 5097 0e0c F2000000 		.4byte	0xf2
 5098 0e10 FF       		.byte	0xff
 5099 0e11 00       		.byte	0
 5100 0e12 25       		.uleb128 0x25
 5101 0e13 5A030000 		.4byte	.LASF117
 5102 0e17 06       		.byte	0x6
 5103 0e18 3E01     		.2byte	0x13e
 5104 0e1a 1E0E0000 		.4byte	0xe1e
 5105 0e1e 06       		.uleb128 0x6
 5106 0e1f 020E0000 		.4byte	0xe02
 5107 0e23 25       		.uleb128 0x25
 5108 0e24 4E060000 		.4byte	.LASF118
 5109 0e28 07       		.byte	0x7
 5110 0e29 5506     		.2byte	0x655
 5111 0e2b 2F0E0000 		.4byte	0xe2f
 5112 0e2f 06       		.uleb128 0x6
 5113 0e30 8C000000 		.4byte	0x8c
 5114 0e34 26       		.uleb128 0x26
 5115 0e35 8D040000 		.4byte	.LASF119
 5116 0e39 05       		.byte	0x5
 5117 0e3a 2C       		.byte	0x2c
 5118 0e3b 450E0000 		.4byte	0xe45
 5119 0e3f 05       		.uleb128 0x5
 5120 0e40 03       		.byte	0x3
 5121 0e41 00000000 		.4byte	countAnimation1
 5122 0e45 06       		.uleb128 0x6
ARM GAS  C:\Users\RECEPC~1\AppData\Local\Temp\ccnklw4g.s 			page 111


 5123 0e46 C9000000 		.4byte	0xc9
 5124 0e4a 26       		.uleb128 0x26
 5125 0e4b CB040000 		.4byte	.LASF120
 5126 0e4f 05       		.byte	0x5
 5127 0e50 2D       		.byte	0x2d
 5128 0e51 450E0000 		.4byte	0xe45
 5129 0e55 05       		.uleb128 0x5
 5130 0e56 03       		.byte	0x3
 5131 0e57 00000000 		.4byte	countAnimation2
 5132 0e5b 26       		.uleb128 0x26
 5133 0e5c 50000000 		.4byte	.LASF121
 5134 0e60 05       		.byte	0x5
 5135 0e61 2E       		.byte	0x2e
 5136 0e62 450E0000 		.4byte	0xe45
 5137 0e66 05       		.uleb128 0x5
 5138 0e67 03       		.byte	0x3
 5139 0e68 00000000 		.4byte	countRX
 5140 0e6c 26       		.uleb128 0x26
 5141 0e6d 42010000 		.4byte	.LASF122
 5142 0e71 05       		.byte	0x5
 5143 0e72 2F       		.byte	0x2f
 5144 0e73 450E0000 		.4byte	0xe45
 5145 0e77 05       		.uleb128 0x5
 5146 0e78 03       		.byte	0x3
 5147 0e79 00000000 		.4byte	countTX
 5148 0e7d 26       		.uleb128 0x26
 5149 0e7e 6A090000 		.4byte	.LASF123
 5150 0e82 05       		.byte	0x5
 5151 0e83 30       		.byte	0x30
 5152 0e84 450E0000 		.4byte	0xe45
 5153 0e88 05       		.uleb128 0x5
 5154 0e89 03       		.byte	0x3
 5155 0e8a 00000000 		.4byte	countPump
 5156 0e8e 26       		.uleb128 0x26
 5157 0e8f 16000000 		.4byte	.LASF124
 5158 0e93 05       		.byte	0x5
 5159 0e94 31       		.byte	0x31
 5160 0e95 450E0000 		.4byte	0xe45
 5161 0e99 05       		.uleb128 0x5
 5162 0e9a 03       		.byte	0x3
 5163 0e9b 00000000 		.4byte	countLCD
 5164 0e9f 26       		.uleb128 0x26
 5165 0ea0 0D030000 		.4byte	.LASF125
 5166 0ea4 05       		.byte	0x5
 5167 0ea5 32       		.byte	0x32
 5168 0ea6 ED000000 		.4byte	0xed
 5169 0eaa 05       		.uleb128 0x5
 5170 0eab 03       		.byte	0x3
 5171 0eac 00000000 		.4byte	flowDisplay1
 5172 0eb0 26       		.uleb128 0x26
 5173 0eb1 1A030000 		.4byte	.LASF126
 5174 0eb5 05       		.byte	0x5
 5175 0eb6 33       		.byte	0x33
 5176 0eb7 ED000000 		.4byte	0xed
 5177 0ebb 05       		.uleb128 0x5
 5178 0ebc 03       		.byte	0x3
 5179 0ebd 00000000 		.4byte	flowDisplay2
ARM GAS  C:\Users\RECEPC~1\AppData\Local\Temp\ccnklw4g.s 			page 112


 5180 0ec1 26       		.uleb128 0x26
 5181 0ec2 27030000 		.4byte	.LASF127
 5182 0ec6 05       		.byte	0x5
 5183 0ec7 34       		.byte	0x34
 5184 0ec8 ED000000 		.4byte	0xed
 5185 0ecc 05       		.uleb128 0x5
 5186 0ecd 03       		.byte	0x3
 5187 0ece 00000000 		.4byte	flowDisplay3
 5188 0ed2 26       		.uleb128 0x26
 5189 0ed3 34030000 		.4byte	.LASF128
 5190 0ed7 05       		.byte	0x5
 5191 0ed8 35       		.byte	0x35
 5192 0ed9 ED000000 		.4byte	0xed
 5193 0edd 05       		.uleb128 0x5
 5194 0ede 03       		.byte	0x3
 5195 0edf 00000000 		.4byte	flowDisplay4
 5196 0ee3 26       		.uleb128 0x26
 5197 0ee4 C7030000 		.4byte	.LASF129
 5198 0ee8 05       		.byte	0x5
 5199 0ee9 36       		.byte	0x36
 5200 0eea E8000000 		.4byte	0xe8
 5201 0eee 05       		.uleb128 0x5
 5202 0eef 03       		.byte	0x3
 5203 0ef0 00000000 		.4byte	numberKeys1
 5204 0ef4 26       		.uleb128 0x26
 5205 0ef5 D3030000 		.4byte	.LASF130
 5206 0ef9 05       		.byte	0x5
 5207 0efa 37       		.byte	0x37
 5208 0efb E8000000 		.4byte	0xe8
 5209 0eff 05       		.uleb128 0x5
 5210 0f00 03       		.byte	0x3
 5211 0f01 00000000 		.4byte	numberKeys2
 5212 0f05 26       		.uleb128 0x26
 5213 0f06 D2050000 		.4byte	.LASF131
 5214 0f0a 05       		.byte	0x5
 5215 0f0b 38       		.byte	0x38
 5216 0f0c E8000000 		.4byte	0xe8
 5217 0f10 05       		.uleb128 0x5
 5218 0f11 03       		.byte	0x3
 5219 0f12 00000000 		.4byte	flagPoint1
 5220 0f16 26       		.uleb128 0x26
 5221 0f17 37010000 		.4byte	.LASF132
 5222 0f1b 05       		.byte	0x5
 5223 0f1c 39       		.byte	0x39
 5224 0f1d E8000000 		.4byte	0xe8
 5225 0f21 05       		.uleb128 0x5
 5226 0f22 03       		.byte	0x3
 5227 0f23 00000000 		.4byte	flagPoint2
 5228 0f27 26       		.uleb128 0x26
 5229 0f28 87020000 		.4byte	.LASF133
 5230 0f2c 05       		.byte	0x5
 5231 0f2d 3A       		.byte	0x3a
 5232 0f2e E8000000 		.4byte	0xe8
 5233 0f32 05       		.uleb128 0x5
 5234 0f33 03       		.byte	0x3
 5235 0f34 00000000 		.4byte	productNumber
 5236 0f38 26       		.uleb128 0x26
ARM GAS  C:\Users\RECEPC~1\AppData\Local\Temp\ccnklw4g.s 			page 113


 5237 0f39 26070000 		.4byte	.LASF134
 5238 0f3d 05       		.byte	0x5
 5239 0f3e 3B       		.byte	0x3b
 5240 0f3f ED000000 		.4byte	0xed
 5241 0f43 05       		.uleb128 0x5
 5242 0f44 03       		.byte	0x3
 5243 0f45 00000000 		.4byte	delayPicture1
 5244 0f49 26       		.uleb128 0x26
 5245 0f4a 34070000 		.4byte	.LASF135
 5246 0f4e 05       		.byte	0x5
 5247 0f4f 3C       		.byte	0x3c
 5248 0f50 ED000000 		.4byte	0xed
 5249 0f54 05       		.uleb128 0x5
 5250 0f55 03       		.byte	0x3
 5251 0f56 00000000 		.4byte	delayPicture2
 5252 0f5a 26       		.uleb128 0x26
 5253 0f5b B8050000 		.4byte	.LASF136
 5254 0f5f 05       		.byte	0x5
 5255 0f60 3D       		.byte	0x3d
 5256 0f61 E8000000 		.4byte	0xe8
 5257 0f65 05       		.uleb128 0x5
 5258 0f66 03       		.byte	0x3
 5259 0f67 00000000 		.4byte	ppux10
 5260 0f6b 26       		.uleb128 0x26
 5261 0f6c 8D000000 		.4byte	.LASF137
 5262 0f70 05       		.byte	0x5
 5263 0f71 3E       		.byte	0x3e
 5264 0f72 E8000000 		.4byte	0xe8
 5265 0f76 05       		.uleb128 0x5
 5266 0f77 03       		.byte	0x3
 5267 0f78 00000000 		.4byte	decimalMoney
 5268 0f7c 26       		.uleb128 0x26
 5269 0f7d 2A000000 		.4byte	.LASF138
 5270 0f81 05       		.byte	0x5
 5271 0f82 3F       		.byte	0x3f
 5272 0f83 E8000000 		.4byte	0xe8
 5273 0f87 05       		.uleb128 0x5
 5274 0f88 03       		.byte	0x3
 5275 0f89 00000000 		.4byte	decimalVolume
 5276 0f8d 26       		.uleb128 0x26
 5277 0f8e EF050000 		.4byte	.LASF139
 5278 0f92 05       		.byte	0x5
 5279 0f93 40       		.byte	0x40
 5280 0f94 9E0F0000 		.4byte	0xf9e
 5281 0f98 05       		.uleb128 0x5
 5282 0f99 03       		.byte	0x3
 5283 0f9a 00000000 		.4byte	symbols
 5284 0f9e 06       		.uleb128 0x6
 5285 0f9f 4D030000 		.4byte	0x34d
 5286 0fa3 07       		.uleb128 0x7
 5287 0fa4 97000000 		.4byte	0x97
 5288 0fa8 B30F0000 		.4byte	0xfb3
 5289 0fac 08       		.uleb128 0x8
 5290 0fad F2000000 		.4byte	0xf2
 5291 0fb1 02       		.byte	0x2
 5292 0fb2 00       		.byte	0
 5293 0fb3 26       		.uleb128 0x26
ARM GAS  C:\Users\RECEPC~1\AppData\Local\Temp\ccnklw4g.s 			page 114


 5294 0fb4 53020000 		.4byte	.LASF140
 5295 0fb8 05       		.byte	0x5
 5296 0fb9 41       		.byte	0x41
 5297 0fba C40F0000 		.4byte	0xfc4
 5298 0fbe 05       		.uleb128 0x5
 5299 0fbf 03       		.byte	0x3
 5300 0fc0 00000000 		.4byte	time
 5301 0fc4 06       		.uleb128 0x6
 5302 0fc5 A30F0000 		.4byte	0xfa3
 5303 0fc9 26       		.uleb128 0x26
 5304 0fca 08040000 		.4byte	.LASF141
 5305 0fce 05       		.byte	0x5
 5306 0fcf 42       		.byte	0x42
 5307 0fd0 DA0F0000 		.4byte	0xfda
 5308 0fd4 05       		.uleb128 0x5
 5309 0fd5 03       		.byte	0x3
 5310 0fd6 00000000 		.4byte	date
 5311 0fda 06       		.uleb128 0x6
 5312 0fdb A30F0000 		.4byte	0xfa3
 5313 0fdf 26       		.uleb128 0x26
 5314 0fe0 B5020000 		.4byte	.LASF142
 5315 0fe4 05       		.byte	0x5
 5316 0fe5 43       		.byte	0x43
 5317 0fe6 F00F0000 		.4byte	0xff0
 5318 0fea 05       		.uleb128 0x5
 5319 0feb 03       		.byte	0x3
 5320 0fec 00000000 		.4byte	screen
 5321 0ff0 06       		.uleb128 0x6
 5322 0ff1 4D030000 		.4byte	0x34d
 5323 0ff5 26       		.uleb128 0x26
 5324 0ff6 E2000000 		.4byte	.LASF143
 5325 0ffa 05       		.byte	0x5
 5326 0ffb 44       		.byte	0x44
 5327 0ffc 06100000 		.4byte	0x1006
 5328 1000 05       		.uleb128 0x5
 5329 1001 03       		.byte	0x3
 5330 1002 00000000 		.4byte	residue
 5331 1006 06       		.uleb128 0x6
 5332 1007 93030000 		.4byte	0x393
 5333 100b 26       		.uleb128 0x26
 5334 100c 95020000 		.4byte	.LASF144
 5335 1010 05       		.byte	0x5
 5336 1011 45       		.byte	0x45
 5337 1012 1C100000 		.4byte	0x101c
 5338 1016 05       		.uleb128 0x5
 5339 1017 03       		.byte	0x3
 5340 1018 00000000 		.4byte	idSeller
 5341 101c 06       		.uleb128 0x6
 5342 101d 1D030000 		.4byte	0x31d
 5343 1021 26       		.uleb128 0x26
 5344 1022 6E060000 		.4byte	.LASF145
 5345 1026 05       		.byte	0x5
 5346 1027 46       		.byte	0x46
 5347 1028 E8000000 		.4byte	0xe8
 5348 102c 05       		.uleb128 0x5
 5349 102d 03       		.byte	0x3
 5350 102e 00000000 		.4byte	typeIdSeller
ARM GAS  C:\Users\RECEPC~1\AppData\Local\Temp\ccnklw4g.s 			page 115


 5351 1032 07       		.uleb128 0x7
 5352 1033 97000000 		.4byte	0x97
 5353 1037 42100000 		.4byte	0x1042
 5354 103b 08       		.uleb128 0x8
 5355 103c F2000000 		.4byte	0xf2
 5356 1040 07       		.byte	0x7
 5357 1041 00       		.byte	0
 5358 1042 26       		.uleb128 0x26
 5359 1043 F6060000 		.4byte	.LASF146
 5360 1047 05       		.byte	0x5
 5361 1048 47       		.byte	0x47
 5362 1049 53100000 		.4byte	0x1053
 5363 104d 05       		.uleb128 0x5
 5364 104e 03       		.byte	0x3
 5365 104f 00000000 		.4byte	passwordSeller
 5366 1053 06       		.uleb128 0x6
 5367 1054 32100000 		.4byte	0x1032
 5368 1058 26       		.uleb128 0x26
 5369 1059 56050000 		.4byte	.LASF147
 5370 105d 05       		.byte	0x5
 5371 105e 48       		.byte	0x48
 5372 105f E8000000 		.4byte	0xe8
 5373 1063 05       		.uleb128 0x5
 5374 1064 03       		.byte	0x3
 5375 1065 00000000 		.4byte	flagResetMux
 5376 1069 26       		.uleb128 0x26
 5377 106a AA040000 		.4byte	.LASF148
 5378 106e 05       		.byte	0x5
 5379 106f 49       		.byte	0x49
 5380 1070 E8000000 		.4byte	0xe8
 5381 1074 05       		.uleb128 0x5
 5382 1075 03       		.byte	0x3
 5383 1076 00000000 		.4byte	stateBeagleSoft
 5384 107a 26       		.uleb128 0x26
 5385 107b 38000000 		.4byte	.LASF149
 5386 107f 05       		.byte	0x5
 5387 1080 4A       		.byte	0x4a
 5388 1081 8B100000 		.4byte	0x108b
 5389 1085 05       		.uleb128 0x5
 5390 1086 03       		.byte	0x3
 5391 1087 00000000 		.4byte	PrevStatePump
 5392 108b 06       		.uleb128 0x6
 5393 108c F9000000 		.4byte	0xf9
 5394 1090 26       		.uleb128 0x26
 5395 1091 10020000 		.4byte	.LASF150
 5396 1095 05       		.byte	0x5
 5397 1096 4B       		.byte	0x4b
 5398 1097 E8000000 		.4byte	0xe8
 5399 109b 05       		.uleb128 0x5
 5400 109c 03       		.byte	0x3
 5401 109d 00000000 		.4byte	PlateRequest
 5402 10a1 26       		.uleb128 0x26
 5403 10a2 47060000 		.4byte	.LASF151
 5404 10a6 05       		.byte	0x5
 5405 10a7 4C       		.byte	0x4c
 5406 10a8 B2100000 		.4byte	0x10b2
 5407 10ac 05       		.uleb128 0x5
ARM GAS  C:\Users\RECEPC~1\AppData\Local\Temp\ccnklw4g.s 			page 116


 5408 10ad 03       		.byte	0x3
 5409 10ae 00000000 		.4byte	IDCast
 5410 10b2 06       		.uleb128 0x6
 5411 10b3 4D030000 		.4byte	0x34d
 5412 10b7 26       		.uleb128 0x26
 5413 10b8 64040000 		.4byte	.LASF152
 5414 10bc 05       		.byte	0x5
 5415 10bd 4D       		.byte	0x4d
 5416 10be E8000000 		.4byte	0xe8
 5417 10c2 05       		.uleb128 0x5
 5418 10c3 03       		.byte	0x3
 5419 10c4 00000000 		.4byte	ActiveRF
 5420 10c8 26       		.uleb128 0x26
 5421 10c9 68010000 		.4byte	.LASF153
 5422 10cd 05       		.byte	0x5
 5423 10ce 4E       		.byte	0x4e
 5424 10cf E8000000 		.4byte	0xe8
 5425 10d3 05       		.uleb128 0x5
 5426 10d4 03       		.byte	0x3
 5427 10d5 00000000 		.4byte	counterRF
 5428 10d9 07       		.uleb128 0x7
 5429 10da 97000000 		.4byte	0x97
 5430 10de E9100000 		.4byte	0x10e9
 5431 10e2 08       		.uleb128 0x8
 5432 10e3 F2000000 		.4byte	0xf2
 5433 10e7 1D       		.byte	0x1d
 5434 10e8 00       		.byte	0
 5435 10e9 26       		.uleb128 0x26
 5436 10ea F0080000 		.4byte	.LASF154
 5437 10ee 05       		.byte	0x5
 5438 10ef 4F       		.byte	0x4f
 5439 10f0 FA100000 		.4byte	0x10fa
 5440 10f4 05       		.uleb128 0x5
 5441 10f5 03       		.byte	0x3
 5442 10f6 00000000 		.4byte	temporal
 5443 10fa 06       		.uleb128 0x6
 5444 10fb D9100000 		.4byte	0x10d9
 5445 10ff 26       		.uleb128 0x26
 5446 1100 EA000000 		.4byte	.LASF155
 5447 1104 05       		.byte	0x5
 5448 1105 50       		.byte	0x50
 5449 1106 10110000 		.4byte	0x1110
 5450 110a 05       		.uleb128 0x5
 5451 110b 03       		.byte	0x3
 5452 110c 00000000 		.4byte	tempPreset
 5453 1110 06       		.uleb128 0x6
 5454 1111 32100000 		.4byte	0x1032
 5455 1115 26       		.uleb128 0x26
 5456 1116 F9090000 		.4byte	.LASF156
 5457 111a 05       		.byte	0x5
 5458 111b 51       		.byte	0x51
 5459 111c 26110000 		.4byte	0x1126
 5460 1120 05       		.uleb128 0x5
 5461 1121 03       		.byte	0x3
 5462 1122 00000000 		.4byte	tempPPU
 5463 1126 06       		.uleb128 0x6
 5464 1127 73030000 		.4byte	0x373
ARM GAS  C:\Users\RECEPC~1\AppData\Local\Temp\ccnklw4g.s 			page 117


 5465 112b 26       		.uleb128 0x26
 5466 112c 9E010000 		.4byte	.LASF157
 5467 1130 05       		.byte	0x5
 5468 1131 52       		.byte	0x52
 5469 1132 E8000000 		.4byte	0xe8
 5470 1136 05       		.uleb128 0x5
 5471 1137 03       		.byte	0x3
 5472 1138 00000000 		.4byte	CGrade
 5473 113c 26       		.uleb128 0x26
 5474 113d B8010000 		.4byte	.LASF158
 5475 1141 05       		.byte	0x5
 5476 1142 53       		.byte	0x53
 5477 1143 E8000000 		.4byte	0xe8
 5478 1147 05       		.uleb128 0x5
 5479 1148 03       		.byte	0x3
 5480 1149 00000000 		.4byte	ShiftState
 5481 114d 26       		.uleb128 0x26
 5482 114e BB090000 		.4byte	.LASF159
 5483 1152 05       		.byte	0x5
 5484 1153 54       		.byte	0x54
 5485 1154 E8000000 		.4byte	0xe8
 5486 1158 05       		.uleb128 0x5
 5487 1159 03       		.byte	0x3
 5488 115a 00000000 		.4byte	sizeSendA
 5489 115e 26       		.uleb128 0x26
 5490 115f C5090000 		.4byte	.LASF160
 5491 1163 05       		.byte	0x5
 5492 1164 55       		.byte	0x55
 5493 1165 E8000000 		.4byte	0xe8
 5494 1169 05       		.uleb128 0x5
 5495 116a 03       		.byte	0x3
 5496 116b 00000000 		.4byte	sizeSendB
 5497 116f 26       		.uleb128 0x26
 5498 1170 16070000 		.4byte	.LASF161
 5499 1174 05       		.byte	0x5
 5500 1175 57       		.byte	0x57
 5501 1176 97000000 		.4byte	0x97
 5502 117a 05       		.uleb128 0x5
 5503 117b 03       		.byte	0x3
 5504 117c 00000000 		.4byte	UnitType
 5505 1180 26       		.uleb128 0x26
 5506 1181 A9030000 		.4byte	.LASF162
 5507 1185 05       		.byte	0x5
 5508 1186 57       		.byte	0x57
 5509 1187 97000000 		.4byte	0x97
 5510 118b 05       		.uleb128 0x5
 5511 118c 03       		.byte	0x3
 5512 118d 00000000 		.4byte	ConversionFactor
 5513 1191 26       		.uleb128 0x26
 5514 1192 C3010000 		.4byte	.LASF163
 5515 1196 05       		.byte	0x5
 5516 1197 57       		.byte	0x57
 5517 1198 97000000 		.4byte	0x97
 5518 119c 05       		.uleb128 0x5
 5519 119d 03       		.byte	0x3
 5520 119e 00000000 		.4byte	MoneyDec
 5521 11a2 26       		.uleb128 0x26
ARM GAS  C:\Users\RECEPC~1\AppData\Local\Temp\ccnklw4g.s 			page 118


 5522 11a3 40060000 		.4byte	.LASF164
 5523 11a7 05       		.byte	0x5
 5524 11a8 57       		.byte	0x57
 5525 11a9 97000000 		.4byte	0x97
 5526 11ad 05       		.uleb128 0x5
 5527 11ae 03       		.byte	0x3
 5528 11af 00000000 		.4byte	VolDec
 5529 11b3 26       		.uleb128 0x26
 5530 11b4 96070000 		.4byte	.LASF165
 5531 11b8 05       		.byte	0x5
 5532 11b9 57       		.byte	0x57
 5533 11ba 97000000 		.4byte	0x97
 5534 11be 05       		.uleb128 0x5
 5535 11bf 03       		.byte	0x3
 5536 11c0 00000000 		.4byte	PPUDec
 5537 11c4 26       		.uleb128 0x26
 5538 11c5 FC000000 		.4byte	.LASF166
 5539 11c9 05       		.byte	0x5
 5540 11ca 57       		.byte	0x57
 5541 11cb 97000000 		.4byte	0x97
 5542 11cf 05       		.uleb128 0x5
 5543 11d0 03       		.byte	0x3
 5544 11d1 00000000 		.4byte	DDMode
 5545 11d5 26       		.uleb128 0x26
 5546 11d6 72000000 		.4byte	.LASF167
 5547 11da 05       		.byte	0x5
 5548 11db 58       		.byte	0x58
 5549 11dc F9000000 		.4byte	0xf9
 5550 11e0 05       		.uleb128 0x5
 5551 11e1 03       		.byte	0x3
 5552 11e2 00000000 		.4byte	statePump
 5553 11e6 26       		.uleb128 0x26
 5554 11e7 9D040000 		.4byte	.LASF168
 5555 11eb 05       		.byte	0x5
 5556 11ec 59       		.byte	0x59
 5557 11ed 97000000 		.4byte	0x97
 5558 11f1 05       		.uleb128 0x5
 5559 11f2 03       		.byte	0x3
 5560 11f3 00000000 		.4byte	NumPositions
 5561 11f7 26       		.uleb128 0x26
 5562 11f8 A7020000 		.4byte	.LASF169
 5563 11fc 05       		.byte	0x5
 5564 11fd 5A       		.byte	0x5a
 5565 11fe 97000000 		.4byte	0x97
 5566 1202 05       		.uleb128 0x5
 5567 1203 03       		.byte	0x3
 5568 1204 00000000 		.4byte	lockTurn
 5569 1208 26       		.uleb128 0x26
 5570 1209 3E020000 		.4byte	.LASF170
 5571 120d 05       		.byte	0x5
 5572 120e 5B       		.byte	0x5b
 5573 120f 97000000 		.4byte	0x97
 5574 1213 05       		.uleb128 0x5
 5575 1214 03       		.byte	0x3
 5576 1215 00000000 		.4byte	digits
 5577 1219 26       		.uleb128 0x26
 5578 121a 5B060000 		.4byte	.LASF171
ARM GAS  C:\Users\RECEPC~1\AppData\Local\Temp\ccnklw4g.s 			page 119


 5579 121e 05       		.byte	0x5
 5580 121f 5C       		.byte	0x5c
 5581 1220 97000000 		.4byte	0x97
 5582 1224 05       		.uleb128 0x5
 5583 1225 03       		.byte	0x3
 5584 1226 00000000 		.4byte	hiddenKeys
 5585 122a 26       		.uleb128 0x26
 5586 122b B3000000 		.4byte	.LASF172
 5587 122f 05       		.byte	0x5
 5588 1230 5D       		.byte	0x5d
 5589 1231 97000000 		.4byte	0x97
 5590 1235 05       		.uleb128 0x5
 5591 1236 03       		.byte	0x3
 5592 1237 00000000 		.4byte	PrinterType
 5593 123b 07       		.uleb128 0x7
 5594 123c D5000000 		.4byte	0xd5
 5595 1240 4B120000 		.4byte	0x124b
 5596 1244 08       		.uleb128 0x8
 5597 1245 F2000000 		.4byte	0xf2
 5598 1249 05       		.byte	0x5
 5599 124a 00       		.byte	0
 5600 124b 26       		.uleb128 0x26
 5601 124c BA070000 		.4byte	.LASF173
 5602 1250 05       		.byte	0x5
 5603 1251 5E       		.byte	0x5e
 5604 1252 3B120000 		.4byte	0x123b
 5605 1256 05       		.uleb128 0x5
 5606 1257 03       		.byte	0x3
 5607 1258 00000000 		.4byte	VolUnit
 5608 125c 26       		.uleb128 0x26
 5609 125d F7050000 		.4byte	.LASF174
 5610 1261 05       		.byte	0x5
 5611 1262 5F       		.byte	0x5f
 5612 1263 A30F0000 		.4byte	0xfa3
 5613 1267 05       		.uleb128 0x5
 5614 1268 03       		.byte	0x3
 5615 1269 00000000 		.4byte	dateDownHandle
 5616 126d 26       		.uleb128 0x26
 5617 126e DB040000 		.4byte	.LASF175
 5618 1272 05       		.byte	0x5
 5619 1273 60       		.byte	0x60
 5620 1274 4D030000 		.4byte	0x34d
 5621 1278 05       		.uleb128 0x5
 5622 1279 03       		.byte	0x3
 5623 127a 00000000 		.4byte	timeDownHandle
 5624 127e 26       		.uleb128 0x26
 5625 127f 47090000 		.4byte	.LASF176
 5626 1283 05       		.byte	0x5
 5627 1284 61       		.byte	0x61
 5628 1285 97000000 		.4byte	0x97
 5629 1289 05       		.uleb128 0x5
 5630 128a 03       		.byte	0x3
 5631 128b 00000000 		.4byte	count_protector
 5632 128f 26       		.uleb128 0x26
 5633 1290 05000000 		.4byte	.LASF177
 5634 1294 05       		.byte	0x5
 5635 1295 61       		.byte	0x61
ARM GAS  C:\Users\RECEPC~1\AppData\Local\Temp\ccnklw4g.s 			page 120


 5636 1296 97000000 		.4byte	0x97
 5637 129a 05       		.uleb128 0x5
 5638 129b 03       		.byte	0x3
 5639 129c 00000000 		.4byte	count_protector2
 5640 12a0 26       		.uleb128 0x26
 5641 12a1 31020000 		.4byte	.LASF178
 5642 12a5 05       		.byte	0x5
 5643 12a6 62       		.byte	0x62
 5644 12a7 73030000 		.4byte	0x373
 5645 12ab 05       		.uleb128 0x5
 5646 12ac 03       		.byte	0x3
 5647 12ad 00000000 		.4byte	configAccess
 5648 12b1 26       		.uleb128 0x26
 5649 12b2 5C010000 		.4byte	.LASF179
 5650 12b6 05       		.byte	0x5
 5651 12b7 63       		.byte	0x63
 5652 12b8 97000000 		.4byte	0x97
 5653 12bc 05       		.uleb128 0x5
 5654 12bd 03       		.byte	0x3
 5655 12be 00000000 		.4byte	controlChar
 5656 12c2 07       		.uleb128 0x7
 5657 12c3 D5000000 		.4byte	0xd5
 5658 12c7 D2120000 		.4byte	0x12d2
 5659 12cb 08       		.uleb128 0x8
 5660 12cc F2000000 		.4byte	0xf2
 5661 12d0 04       		.byte	0x4
 5662 12d1 00       		.byte	0
 5663 12d2 26       		.uleb128 0x26
 5664 12d3 10010000 		.4byte	.LASF180
 5665 12d7 05       		.byte	0x5
 5666 12d8 64       		.byte	0x64
 5667 12d9 C2120000 		.4byte	0x12c2
 5668 12dd 05       		.uleb128 0x5
 5669 12de 03       		.byte	0x3
 5670 12df 00000000 		.4byte	idStation
 5671 12e3 26       		.uleb128 0x26
 5672 12e4 010A0000 		.4byte	.LASF181
 5673 12e8 05       		.byte	0x5
 5674 12e9 65       		.byte	0x65
 5675 12ea A30F0000 		.4byte	0xfa3
 5676 12ee 05       		.uleb128 0x5
 5677 12ef 03       		.byte	0x3
 5678 12f0 00000000 		.4byte	pumpGap
 5679 12f4 26       		.uleb128 0x26
 5680 12f5 58020000 		.4byte	.LASF182
 5681 12f9 05       		.byte	0x5
 5682 12fa 66       		.byte	0x66
 5683 12fb 97000000 		.4byte	0x97
 5684 12ff 05       		.uleb128 0x5
 5685 1300 03       		.byte	0x3
 5686 1301 00000000 		.4byte	printPortA
 5687 1305 26       		.uleb128 0x26
 5688 1306 63020000 		.4byte	.LASF183
 5689 130a 05       		.byte	0x5
 5690 130b 67       		.byte	0x67
 5691 130c 97000000 		.4byte	0x97
 5692 1310 05       		.uleb128 0x5
ARM GAS  C:\Users\RECEPC~1\AppData\Local\Temp\ccnklw4g.s 			page 121


 5693 1311 03       		.byte	0x3
 5694 1312 00000000 		.4byte	printPortB
 5695 1316 07       		.uleb128 0x7
 5696 1317 97000000 		.4byte	0x97
 5697 131b 27130000 		.4byte	0x1327
 5698 131f 27       		.uleb128 0x27
 5699 1320 F2000000 		.4byte	0xf2
 5700 1324 FF01     		.2byte	0x1ff
 5701 1326 00       		.byte	0
 5702 1327 26       		.uleb128 0x26
 5703 1328 83000000 		.4byte	.LASF184
 5704 132c 05       		.byte	0x5
 5705 132d 68       		.byte	0x68
 5706 132e 16130000 		.4byte	0x1316
 5707 1332 05       		.uleb128 0x5
 5708 1333 03       		.byte	0x3
 5709 1334 00000000 		.4byte	buffer_rf
 5710 1338 26       		.uleb128 0x26
 5711 1339 79010000 		.4byte	.LASF185
 5712 133d 05       		.byte	0x5
 5713 133e 69       		.byte	0x69
 5714 133f 16130000 		.4byte	0x1316
 5715 1343 05       		.uleb128 0x5
 5716 1344 03       		.byte	0x3
 5717 1345 00000000 		.4byte	buffer_tx
 5718 1349 07       		.uleb128 0x7
 5719 134a 97000000 		.4byte	0x97
 5720 134e 59130000 		.4byte	0x1359
 5721 1352 08       		.uleb128 0x8
 5722 1353 F2000000 		.4byte	0xf2
 5723 1357 3B       		.byte	0x3b
 5724 1358 00       		.byte	0
 5725 1359 26       		.uleb128 0x26
 5726 135a 03050000 		.4byte	.LASF186
 5727 135e 05       		.byte	0x5
 5728 135f 6A       		.byte	0x6a
 5729 1360 49130000 		.4byte	0x1349
 5730 1364 05       		.uleb128 0x5
 5731 1365 03       		.byte	0x3
 5732 1366 00000000 		.4byte	buffer_txPreset
 5733 136a 26       		.uleb128 0x26
 5734 136b 20090000 		.4byte	.LASF187
 5735 136f 05       		.byte	0x5
 5736 1370 6B       		.byte	0x6b
 5737 1371 49130000 		.4byte	0x1349
 5738 1375 05       		.uleb128 0x5
 5739 1376 03       		.byte	0x3
 5740 1377 00000000 		.4byte	buffer_txEOT
 5741 137b 26       		.uleb128 0x26
 5742 137c D0060000 		.4byte	.LASF188
 5743 1380 05       		.byte	0x5
 5744 1381 6C       		.byte	0x6c
 5745 1382 A3000000 		.4byte	0xa3
 5746 1386 05       		.uleb128 0x5
 5747 1387 03       		.byte	0x3
 5748 1388 00000000 		.4byte	intIDStation
 5749 138c 26       		.uleb128 0x26
ARM GAS  C:\Users\RECEPC~1\AppData\Local\Temp\ccnklw4g.s 			page 122


 5750 138d 4B070000 		.4byte	.LASF189
 5751 1391 05       		.byte	0x5
 5752 1392 6D       		.byte	0x6d
 5753 1393 D9100000 		.4byte	0x10d9
 5754 1397 05       		.uleb128 0x5
 5755 1398 03       		.byte	0x3
 5756 1399 00000000 		.4byte	Encabezado1
 5757 139d 26       		.uleb128 0x26
 5758 139e 57070000 		.4byte	.LASF190
 5759 13a2 05       		.byte	0x5
 5760 13a3 6E       		.byte	0x6e
 5761 13a4 D9100000 		.4byte	0x10d9
 5762 13a8 05       		.uleb128 0x5
 5763 13a9 03       		.byte	0x3
 5764 13aa 00000000 		.4byte	Encabezado2
 5765 13ae 26       		.uleb128 0x26
 5766 13af 63070000 		.4byte	.LASF191
 5767 13b3 05       		.byte	0x5
 5768 13b4 6F       		.byte	0x6f
 5769 13b5 D9100000 		.4byte	0x10d9
 5770 13b9 05       		.uleb128 0x5
 5771 13ba 03       		.byte	0x3
 5772 13bb 00000000 		.4byte	Encabezado3
 5773 13bf 26       		.uleb128 0x26
 5774 13c0 6F070000 		.4byte	.LASF192
 5775 13c4 05       		.byte	0x5
 5776 13c5 70       		.byte	0x70
 5777 13c6 D9100000 		.4byte	0x10d9
 5778 13ca 05       		.uleb128 0x5
 5779 13cb 03       		.byte	0x3
 5780 13cc 00000000 		.4byte	Encabezado4
 5781 13d0 26       		.uleb128 0x26
 5782 13d1 32060000 		.4byte	.LASF193
 5783 13d5 05       		.byte	0x5
 5784 13d6 71       		.byte	0x71
 5785 13d7 97000000 		.4byte	0x97
 5786 13db 05       		.uleb128 0x5
 5787 13dc 03       		.byte	0x3
 5788 13dd 00000000 		.4byte	CopiasCredito
 5789 13e1 26       		.uleb128 0x26
 5790 13e2 1F000000 		.4byte	.LASF194
 5791 13e6 05       		.byte	0x5
 5792 13e7 72       		.byte	0x72
 5793 13e8 73030000 		.4byte	0x373
 5794 13ec 05       		.uleb128 0x5
 5795 13ed 03       		.byte	0x3
 5796 13ee 00000000 		.4byte	GradesHose
 5797 13f2 26       		.uleb128 0x26
 5798 13f3 CC010000 		.4byte	.LASF195
 5799 13f7 05       		.byte	0x5
 5800 13f8 AB       		.byte	0xab
 5801 13f9 09010000 		.4byte	0x109
 5802 13fd 05       		.uleb128 0x5
 5803 13fe 03       		.byte	0x3
 5804 13ff 00000000 		.4byte	bufferDisplay1
 5805 1403 26       		.uleb128 0x26
 5806 1404 C1060000 		.4byte	.LASF196
ARM GAS  C:\Users\RECEPC~1\AppData\Local\Temp\ccnklw4g.s 			page 123


 5807 1408 05       		.byte	0x5
 5808 1409 AC       		.byte	0xac
 5809 140a 09010000 		.4byte	0x109
 5810 140e 05       		.uleb128 0x5
 5811 140f 03       		.byte	0x3
 5812 1410 00000000 		.4byte	bufferDisplay2
 5813 1414 26       		.uleb128 0x26
 5814 1415 E0010000 		.4byte	.LASF197
 5815 1419 05       		.byte	0x5
 5816 141a AD       		.byte	0xad
 5817 141b 09010000 		.4byte	0x109
 5818 141f 05       		.uleb128 0x5
 5819 1420 03       		.byte	0x3
 5820 1421 00000000 		.4byte	bufferDisplay3
 5821 1425 26       		.uleb128 0x26
 5822 1426 DD060000 		.4byte	.LASF198
 5823 142a 05       		.byte	0x5
 5824 142b AE       		.byte	0xae
 5825 142c 09010000 		.4byte	0x109
 5826 1430 05       		.uleb128 0x5
 5827 1431 03       		.byte	0x3
 5828 1432 00000000 		.4byte	bufferDisplay4
 5829 1436 26       		.uleb128 0x26
 5830 1437 B0020000 		.4byte	.LASF114
 5831 143b 05       		.byte	0x5
 5832 143c D2       		.byte	0xd2
 5833 143d BF040000 		.4byte	0x4bf
 5834 1441 05       		.uleb128 0x5
 5835 1442 03       		.byte	0x3
 5836 1443 00000000 		.4byte	side
 5837 1447 28       		.uleb128 0x28
 5838 1448 A5010000 		.4byte	.LASF203
 5839 144c 06       		.byte	0x6
 5840 144d 75       		.byte	0x75
 5841 144e 29       		.uleb128 0x29
 5842 144f EE070000 		.4byte	.LASF199
 5843 1453 06       		.byte	0x6
 5844 1454 8A       		.byte	0x8a
 5845 1455 5F140000 		.4byte	0x145f
 5846 1459 2A       		.uleb128 0x2a
 5847 145a 97000000 		.4byte	0x97
 5848 145e 00       		.byte	0
 5849 145f 29       		.uleb128 0x29
 5850 1460 EA030000 		.4byte	.LASF200
 5851 1464 08       		.byte	0x8
 5852 1465 77       		.byte	0x77
 5853 1466 70140000 		.4byte	0x1470
 5854 146a 2A       		.uleb128 0x2a
 5855 146b AF000000 		.4byte	0xaf
 5856 146f 00       		.byte	0
 5857 1470 2B       		.uleb128 0x2b
 5858 1471 BC020000 		.4byte	.LASF201
 5859 1475 06       		.byte	0x6
 5860 1476 73       		.byte	0x73
 5861 1477 A3000000 		.4byte	0xa3
 5862 147b 2B       		.uleb128 0x2b
 5863 147c 15040000 		.4byte	.LASF202
ARM GAS  C:\Users\RECEPC~1\AppData\Local\Temp\ccnklw4g.s 			page 124


 5864 1480 06       		.byte	0x6
 5865 1481 6F       		.byte	0x6f
 5866 1482 97000000 		.4byte	0x97
 5867 1486 28       		.uleb128 0x28
 5868 1487 6F050000 		.4byte	.LASF204
 5869 148b 08       		.byte	0x8
 5870 148c 74       		.byte	0x74
 5871 148d 00       		.byte	0
 5872              		.section	.debug_abbrev,"",%progbits
 5873              	.Ldebug_abbrev0:
 5874 0000 01       		.uleb128 0x1
 5875 0001 11       		.uleb128 0x11
 5876 0002 01       		.byte	0x1
 5877 0003 25       		.uleb128 0x25
 5878 0004 0E       		.uleb128 0xe
 5879 0005 13       		.uleb128 0x13
 5880 0006 0B       		.uleb128 0xb
 5881 0007 03       		.uleb128 0x3
 5882 0008 0E       		.uleb128 0xe
 5883 0009 1B       		.uleb128 0x1b
 5884 000a 0E       		.uleb128 0xe
 5885 000b 55       		.uleb128 0x55
 5886 000c 17       		.uleb128 0x17
 5887 000d 11       		.uleb128 0x11
 5888 000e 01       		.uleb128 0x1
 5889 000f 10       		.uleb128 0x10
 5890 0010 17       		.uleb128 0x17
 5891 0011 00       		.byte	0
 5892 0012 00       		.byte	0
 5893 0013 02       		.uleb128 0x2
 5894 0014 24       		.uleb128 0x24
 5895 0015 00       		.byte	0
 5896 0016 0B       		.uleb128 0xb
 5897 0017 0B       		.uleb128 0xb
 5898 0018 3E       		.uleb128 0x3e
 5899 0019 0B       		.uleb128 0xb
 5900 001a 03       		.uleb128 0x3
 5901 001b 0E       		.uleb128 0xe
 5902 001c 00       		.byte	0
 5903 001d 00       		.byte	0
 5904 001e 03       		.uleb128 0x3
 5905 001f 16       		.uleb128 0x16
 5906 0020 00       		.byte	0
 5907 0021 03       		.uleb128 0x3
 5908 0022 0E       		.uleb128 0xe
 5909 0023 3A       		.uleb128 0x3a
 5910 0024 0B       		.uleb128 0xb
 5911 0025 3B       		.uleb128 0x3b
 5912 0026 0B       		.uleb128 0xb
 5913 0027 49       		.uleb128 0x49
 5914 0028 13       		.uleb128 0x13
 5915 0029 00       		.byte	0
 5916 002a 00       		.byte	0
 5917 002b 04       		.uleb128 0x4
 5918 002c 24       		.uleb128 0x24
 5919 002d 00       		.byte	0
 5920 002e 0B       		.uleb128 0xb
ARM GAS  C:\Users\RECEPC~1\AppData\Local\Temp\ccnklw4g.s 			page 125


 5921 002f 0B       		.uleb128 0xb
 5922 0030 3E       		.uleb128 0x3e
 5923 0031 0B       		.uleb128 0xb
 5924 0032 03       		.uleb128 0x3
 5925 0033 08       		.uleb128 0x8
 5926 0034 00       		.byte	0
 5927 0035 00       		.byte	0
 5928 0036 05       		.uleb128 0x5
 5929 0037 16       		.uleb128 0x16
 5930 0038 00       		.byte	0
 5931 0039 03       		.uleb128 0x3
 5932 003a 0E       		.uleb128 0xe
 5933 003b 3A       		.uleb128 0x3a
 5934 003c 0B       		.uleb128 0xb
 5935 003d 3B       		.uleb128 0x3b
 5936 003e 05       		.uleb128 0x5
 5937 003f 49       		.uleb128 0x49
 5938 0040 13       		.uleb128 0x13
 5939 0041 00       		.byte	0
 5940 0042 00       		.byte	0
 5941 0043 06       		.uleb128 0x6
 5942 0044 35       		.uleb128 0x35
 5943 0045 00       		.byte	0
 5944 0046 49       		.uleb128 0x49
 5945 0047 13       		.uleb128 0x13
 5946 0048 00       		.byte	0
 5947 0049 00       		.byte	0
 5948 004a 07       		.uleb128 0x7
 5949 004b 01       		.uleb128 0x1
 5950 004c 01       		.byte	0x1
 5951 004d 49       		.uleb128 0x49
 5952 004e 13       		.uleb128 0x13
 5953 004f 01       		.uleb128 0x1
 5954 0050 13       		.uleb128 0x13
 5955 0051 00       		.byte	0
 5956 0052 00       		.byte	0
 5957 0053 08       		.uleb128 0x8
 5958 0054 21       		.uleb128 0x21
 5959 0055 00       		.byte	0
 5960 0056 49       		.uleb128 0x49
 5961 0057 13       		.uleb128 0x13
 5962 0058 2F       		.uleb128 0x2f
 5963 0059 0B       		.uleb128 0xb
 5964 005a 00       		.byte	0
 5965 005b 00       		.byte	0
 5966 005c 09       		.uleb128 0x9
 5967 005d 13       		.uleb128 0x13
 5968 005e 01       		.byte	0x1
 5969 005f 03       		.uleb128 0x3
 5970 0060 0E       		.uleb128 0xe
 5971 0061 0B       		.uleb128 0xb
 5972 0062 05       		.uleb128 0x5
 5973 0063 3A       		.uleb128 0x3a
 5974 0064 0B       		.uleb128 0xb
 5975 0065 3B       		.uleb128 0x3b
 5976 0066 0B       		.uleb128 0xb
 5977 0067 01       		.uleb128 0x1
ARM GAS  C:\Users\RECEPC~1\AppData\Local\Temp\ccnklw4g.s 			page 126


 5978 0068 13       		.uleb128 0x13
 5979 0069 00       		.byte	0
 5980 006a 00       		.byte	0
 5981 006b 0A       		.uleb128 0xa
 5982 006c 0D       		.uleb128 0xd
 5983 006d 00       		.byte	0
 5984 006e 03       		.uleb128 0x3
 5985 006f 0E       		.uleb128 0xe
 5986 0070 3A       		.uleb128 0x3a
 5987 0071 0B       		.uleb128 0xb
 5988 0072 3B       		.uleb128 0x3b
 5989 0073 0B       		.uleb128 0xb
 5990 0074 49       		.uleb128 0x49
 5991 0075 13       		.uleb128 0x13
 5992 0076 38       		.uleb128 0x38
 5993 0077 0B       		.uleb128 0xb
 5994 0078 00       		.byte	0
 5995 0079 00       		.byte	0
 5996 007a 0B       		.uleb128 0xb
 5997 007b 0D       		.uleb128 0xd
 5998 007c 00       		.byte	0
 5999 007d 03       		.uleb128 0x3
 6000 007e 0E       		.uleb128 0xe
 6001 007f 3A       		.uleb128 0x3a
 6002 0080 0B       		.uleb128 0xb
 6003 0081 3B       		.uleb128 0x3b
 6004 0082 0B       		.uleb128 0xb
 6005 0083 49       		.uleb128 0x49
 6006 0084 13       		.uleb128 0x13
 6007 0085 38       		.uleb128 0x38
 6008 0086 05       		.uleb128 0x5
 6009 0087 00       		.byte	0
 6010 0088 00       		.byte	0
 6011 0089 0C       		.uleb128 0xc
 6012 008a 0D       		.uleb128 0xd
 6013 008b 00       		.byte	0
 6014 008c 03       		.uleb128 0x3
 6015 008d 08       		.uleb128 0x8
 6016 008e 3A       		.uleb128 0x3a
 6017 008f 0B       		.uleb128 0xb
 6018 0090 3B       		.uleb128 0x3b
 6019 0091 0B       		.uleb128 0xb
 6020 0092 49       		.uleb128 0x49
 6021 0093 13       		.uleb128 0x13
 6022 0094 38       		.uleb128 0x38
 6023 0095 0B       		.uleb128 0xb
 6024 0096 00       		.byte	0
 6025 0097 00       		.byte	0
 6026 0098 0D       		.uleb128 0xd
 6027 0099 0D       		.uleb128 0xd
 6028 009a 00       		.byte	0
 6029 009b 03       		.uleb128 0x3
 6030 009c 08       		.uleb128 0x8
 6031 009d 3A       		.uleb128 0x3a
 6032 009e 0B       		.uleb128 0xb
 6033 009f 3B       		.uleb128 0x3b
 6034 00a0 0B       		.uleb128 0xb
ARM GAS  C:\Users\RECEPC~1\AppData\Local\Temp\ccnklw4g.s 			page 127


 6035 00a1 49       		.uleb128 0x49
 6036 00a2 13       		.uleb128 0x13
 6037 00a3 38       		.uleb128 0x38
 6038 00a4 05       		.uleb128 0x5
 6039 00a5 00       		.byte	0
 6040 00a6 00       		.byte	0
 6041 00a7 0E       		.uleb128 0xe
 6042 00a8 04       		.uleb128 0x4
 6043 00a9 01       		.byte	0x1
 6044 00aa 03       		.uleb128 0x3
 6045 00ab 0E       		.uleb128 0xe
 6046 00ac 0B       		.uleb128 0xb
 6047 00ad 0B       		.uleb128 0xb
 6048 00ae 3A       		.uleb128 0x3a
 6049 00af 0B       		.uleb128 0xb
 6050 00b0 3B       		.uleb128 0x3b
 6051 00b1 0B       		.uleb128 0xb
 6052 00b2 01       		.uleb128 0x1
 6053 00b3 13       		.uleb128 0x13
 6054 00b4 00       		.byte	0
 6055 00b5 00       		.byte	0
 6056 00b6 0F       		.uleb128 0xf
 6057 00b7 28       		.uleb128 0x28
 6058 00b8 00       		.byte	0
 6059 00b9 03       		.uleb128 0x3
 6060 00ba 08       		.uleb128 0x8
 6061 00bb 1C       		.uleb128 0x1c
 6062 00bc 0D       		.uleb128 0xd
 6063 00bd 00       		.byte	0
 6064 00be 00       		.byte	0
 6065 00bf 10       		.uleb128 0x10
 6066 00c0 28       		.uleb128 0x28
 6067 00c1 00       		.byte	0
 6068 00c2 03       		.uleb128 0x3
 6069 00c3 0E       		.uleb128 0xe
 6070 00c4 1C       		.uleb128 0x1c
 6071 00c5 0D       		.uleb128 0xd
 6072 00c6 00       		.byte	0
 6073 00c7 00       		.byte	0
 6074 00c8 11       		.uleb128 0x11
 6075 00c9 04       		.uleb128 0x4
 6076 00ca 01       		.byte	0x1
 6077 00cb 03       		.uleb128 0x3
 6078 00cc 0E       		.uleb128 0xe
 6079 00cd 0B       		.uleb128 0xb
 6080 00ce 0B       		.uleb128 0xb
 6081 00cf 3A       		.uleb128 0x3a
 6082 00d0 0B       		.uleb128 0xb
 6083 00d1 3B       		.uleb128 0x3b
 6084 00d2 05       		.uleb128 0x5
 6085 00d3 01       		.uleb128 0x1
 6086 00d4 13       		.uleb128 0x13
 6087 00d5 00       		.byte	0
 6088 00d6 00       		.byte	0
 6089 00d7 12       		.uleb128 0x12
 6090 00d8 2E       		.uleb128 0x2e
 6091 00d9 01       		.byte	0x1
ARM GAS  C:\Users\RECEPC~1\AppData\Local\Temp\ccnklw4g.s 			page 128


 6092 00da 3F       		.uleb128 0x3f
 6093 00db 19       		.uleb128 0x19
 6094 00dc 03       		.uleb128 0x3
 6095 00dd 0E       		.uleb128 0xe
 6096 00de 3A       		.uleb128 0x3a
 6097 00df 0B       		.uleb128 0xb
 6098 00e0 3B       		.uleb128 0x3b
 6099 00e1 0B       		.uleb128 0xb
 6100 00e2 27       		.uleb128 0x27
 6101 00e3 19       		.uleb128 0x19
 6102 00e4 49       		.uleb128 0x49
 6103 00e5 13       		.uleb128 0x13
 6104 00e6 11       		.uleb128 0x11
 6105 00e7 01       		.uleb128 0x1
 6106 00e8 12       		.uleb128 0x12
 6107 00e9 06       		.uleb128 0x6
 6108 00ea 40       		.uleb128 0x40
 6109 00eb 18       		.uleb128 0x18
 6110 00ec 9742     		.uleb128 0x2117
 6111 00ee 19       		.uleb128 0x19
 6112 00ef 01       		.uleb128 0x1
 6113 00f0 13       		.uleb128 0x13
 6114 00f1 00       		.byte	0
 6115 00f2 00       		.byte	0
 6116 00f3 13       		.uleb128 0x13
 6117 00f4 05       		.uleb128 0x5
 6118 00f5 00       		.byte	0
 6119 00f6 03       		.uleb128 0x3
 6120 00f7 08       		.uleb128 0x8
 6121 00f8 3A       		.uleb128 0x3a
 6122 00f9 0B       		.uleb128 0xb
 6123 00fa 3B       		.uleb128 0x3b
 6124 00fb 0B       		.uleb128 0xb
 6125 00fc 49       		.uleb128 0x49
 6126 00fd 13       		.uleb128 0x13
 6127 00fe 02       		.uleb128 0x2
 6128 00ff 17       		.uleb128 0x17
 6129 0100 00       		.byte	0
 6130 0101 00       		.byte	0
 6131 0102 14       		.uleb128 0x14
 6132 0103 34       		.uleb128 0x34
 6133 0104 00       		.byte	0
 6134 0105 03       		.uleb128 0x3
 6135 0106 0E       		.uleb128 0xe
 6136 0107 3A       		.uleb128 0x3a
 6137 0108 0B       		.uleb128 0xb
 6138 0109 3B       		.uleb128 0x3b
 6139 010a 0B       		.uleb128 0xb
 6140 010b 49       		.uleb128 0x49
 6141 010c 13       		.uleb128 0x13
 6142 010d 02       		.uleb128 0x2
 6143 010e 17       		.uleb128 0x17
 6144 010f 00       		.byte	0
 6145 0110 00       		.byte	0
 6146 0111 15       		.uleb128 0x15
 6147 0112 898201   		.uleb128 0x4109
 6148 0115 00       		.byte	0
ARM GAS  C:\Users\RECEPC~1\AppData\Local\Temp\ccnklw4g.s 			page 129


 6149 0116 11       		.uleb128 0x11
 6150 0117 01       		.uleb128 0x1
 6151 0118 31       		.uleb128 0x31
 6152 0119 13       		.uleb128 0x13
 6153 011a 00       		.byte	0
 6154 011b 00       		.byte	0
 6155 011c 16       		.uleb128 0x16
 6156 011d 898201   		.uleb128 0x4109
 6157 0120 01       		.byte	0x1
 6158 0121 11       		.uleb128 0x11
 6159 0122 01       		.uleb128 0x1
 6160 0123 31       		.uleb128 0x31
 6161 0124 13       		.uleb128 0x13
 6162 0125 01       		.uleb128 0x1
 6163 0126 13       		.uleb128 0x13
 6164 0127 00       		.byte	0
 6165 0128 00       		.byte	0
 6166 0129 17       		.uleb128 0x17
 6167 012a 8A8201   		.uleb128 0x410a
 6168 012d 00       		.byte	0
 6169 012e 02       		.uleb128 0x2
 6170 012f 18       		.uleb128 0x18
 6171 0130 9142     		.uleb128 0x2111
 6172 0132 18       		.uleb128 0x18
 6173 0133 00       		.byte	0
 6174 0134 00       		.byte	0
 6175 0135 18       		.uleb128 0x18
 6176 0136 34       		.uleb128 0x34
 6177 0137 00       		.byte	0
 6178 0138 03       		.uleb128 0x3
 6179 0139 08       		.uleb128 0x8
 6180 013a 3A       		.uleb128 0x3a
 6181 013b 0B       		.uleb128 0xb
 6182 013c 3B       		.uleb128 0x3b
 6183 013d 0B       		.uleb128 0xb
 6184 013e 49       		.uleb128 0x49
 6185 013f 13       		.uleb128 0x13
 6186 0140 02       		.uleb128 0x2
 6187 0141 17       		.uleb128 0x17
 6188 0142 00       		.byte	0
 6189 0143 00       		.byte	0
 6190 0144 19       		.uleb128 0x19
 6191 0145 2E       		.uleb128 0x2e
 6192 0146 01       		.byte	0x1
 6193 0147 3F       		.uleb128 0x3f
 6194 0148 19       		.uleb128 0x19
 6195 0149 03       		.uleb128 0x3
 6196 014a 0E       		.uleb128 0xe
 6197 014b 3A       		.uleb128 0x3a
 6198 014c 0B       		.uleb128 0xb
 6199 014d 3B       		.uleb128 0x3b
 6200 014e 05       		.uleb128 0x5
 6201 014f 27       		.uleb128 0x27
 6202 0150 19       		.uleb128 0x19
 6203 0151 49       		.uleb128 0x49
 6204 0152 13       		.uleb128 0x13
 6205 0153 11       		.uleb128 0x11
ARM GAS  C:\Users\RECEPC~1\AppData\Local\Temp\ccnklw4g.s 			page 130


 6206 0154 01       		.uleb128 0x1
 6207 0155 12       		.uleb128 0x12
 6208 0156 06       		.uleb128 0x6
 6209 0157 40       		.uleb128 0x40
 6210 0158 18       		.uleb128 0x18
 6211 0159 9742     		.uleb128 0x2117
 6212 015b 19       		.uleb128 0x19
 6213 015c 01       		.uleb128 0x1
 6214 015d 13       		.uleb128 0x13
 6215 015e 00       		.byte	0
 6216 015f 00       		.byte	0
 6217 0160 1A       		.uleb128 0x1a
 6218 0161 05       		.uleb128 0x5
 6219 0162 00       		.byte	0
 6220 0163 03       		.uleb128 0x3
 6221 0164 08       		.uleb128 0x8
 6222 0165 3A       		.uleb128 0x3a
 6223 0166 0B       		.uleb128 0xb
 6224 0167 3B       		.uleb128 0x3b
 6225 0168 05       		.uleb128 0x5
 6226 0169 49       		.uleb128 0x49
 6227 016a 13       		.uleb128 0x13
 6228 016b 02       		.uleb128 0x2
 6229 016c 17       		.uleb128 0x17
 6230 016d 00       		.byte	0
 6231 016e 00       		.byte	0
 6232 016f 1B       		.uleb128 0x1b
 6233 0170 05       		.uleb128 0x5
 6234 0171 00       		.byte	0
 6235 0172 03       		.uleb128 0x3
 6236 0173 0E       		.uleb128 0xe
 6237 0174 3A       		.uleb128 0x3a
 6238 0175 0B       		.uleb128 0xb
 6239 0176 3B       		.uleb128 0x3b
 6240 0177 05       		.uleb128 0x5
 6241 0178 49       		.uleb128 0x49
 6242 0179 13       		.uleb128 0x13
 6243 017a 02       		.uleb128 0x2
 6244 017b 17       		.uleb128 0x17
 6245 017c 00       		.byte	0
 6246 017d 00       		.byte	0
 6247 017e 1C       		.uleb128 0x1c
 6248 017f 34       		.uleb128 0x34
 6249 0180 00       		.byte	0
 6250 0181 03       		.uleb128 0x3
 6251 0182 0E       		.uleb128 0xe
 6252 0183 3A       		.uleb128 0x3a
 6253 0184 0B       		.uleb128 0xb
 6254 0185 3B       		.uleb128 0x3b
 6255 0186 05       		.uleb128 0x5
 6256 0187 49       		.uleb128 0x49
 6257 0188 13       		.uleb128 0x13
 6258 0189 02       		.uleb128 0x2
 6259 018a 18       		.uleb128 0x18
 6260 018b 00       		.byte	0
 6261 018c 00       		.byte	0
 6262 018d 1D       		.uleb128 0x1d
ARM GAS  C:\Users\RECEPC~1\AppData\Local\Temp\ccnklw4g.s 			page 131


 6263 018e 34       		.uleb128 0x34
 6264 018f 00       		.byte	0
 6265 0190 03       		.uleb128 0x3
 6266 0191 0E       		.uleb128 0xe
 6267 0192 3A       		.uleb128 0x3a
 6268 0193 0B       		.uleb128 0xb
 6269 0194 3B       		.uleb128 0x3b
 6270 0195 05       		.uleb128 0x5
 6271 0196 49       		.uleb128 0x49
 6272 0197 13       		.uleb128 0x13
 6273 0198 02       		.uleb128 0x2
 6274 0199 17       		.uleb128 0x17
 6275 019a 00       		.byte	0
 6276 019b 00       		.byte	0
 6277 019c 1E       		.uleb128 0x1e
 6278 019d 34       		.uleb128 0x34
 6279 019e 00       		.byte	0
 6280 019f 03       		.uleb128 0x3
 6281 01a0 08       		.uleb128 0x8
 6282 01a1 3A       		.uleb128 0x3a
 6283 01a2 0B       		.uleb128 0xb
 6284 01a3 3B       		.uleb128 0x3b
 6285 01a4 05       		.uleb128 0x5
 6286 01a5 49       		.uleb128 0x49
 6287 01a6 13       		.uleb128 0x13
 6288 01a7 02       		.uleb128 0x2
 6289 01a8 17       		.uleb128 0x17
 6290 01a9 00       		.byte	0
 6291 01aa 00       		.byte	0
 6292 01ab 1F       		.uleb128 0x1f
 6293 01ac 898201   		.uleb128 0x4109
 6294 01af 01       		.byte	0x1
 6295 01b0 11       		.uleb128 0x11
 6296 01b1 01       		.uleb128 0x1
 6297 01b2 31       		.uleb128 0x31
 6298 01b3 13       		.uleb128 0x13
 6299 01b4 00       		.byte	0
 6300 01b5 00       		.byte	0
 6301 01b6 20       		.uleb128 0x20
 6302 01b7 0F       		.uleb128 0xf
 6303 01b8 00       		.byte	0
 6304 01b9 0B       		.uleb128 0xb
 6305 01ba 0B       		.uleb128 0xb
 6306 01bb 49       		.uleb128 0x49
 6307 01bc 13       		.uleb128 0x13
 6308 01bd 00       		.byte	0
 6309 01be 00       		.byte	0
 6310 01bf 21       		.uleb128 0x21
 6311 01c0 2E       		.uleb128 0x2e
 6312 01c1 01       		.byte	0x1
 6313 01c2 3F       		.uleb128 0x3f
 6314 01c3 19       		.uleb128 0x19
 6315 01c4 03       		.uleb128 0x3
 6316 01c5 0E       		.uleb128 0xe
 6317 01c6 3A       		.uleb128 0x3a
 6318 01c7 0B       		.uleb128 0xb
 6319 01c8 3B       		.uleb128 0x3b
ARM GAS  C:\Users\RECEPC~1\AppData\Local\Temp\ccnklw4g.s 			page 132


 6320 01c9 05       		.uleb128 0x5
 6321 01ca 49       		.uleb128 0x49
 6322 01cb 13       		.uleb128 0x13
 6323 01cc 11       		.uleb128 0x11
 6324 01cd 01       		.uleb128 0x1
 6325 01ce 12       		.uleb128 0x12
 6326 01cf 06       		.uleb128 0x6
 6327 01d0 40       		.uleb128 0x40
 6328 01d1 18       		.uleb128 0x18
 6329 01d2 9742     		.uleb128 0x2117
 6330 01d4 19       		.uleb128 0x19
 6331 01d5 01       		.uleb128 0x1
 6332 01d6 13       		.uleb128 0x13
 6333 01d7 00       		.byte	0
 6334 01d8 00       		.byte	0
 6335 01d9 22       		.uleb128 0x22
 6336 01da 34       		.uleb128 0x34
 6337 01db 00       		.byte	0
 6338 01dc 34       		.uleb128 0x34
 6339 01dd 19       		.uleb128 0x19
 6340 01de 49       		.uleb128 0x49
 6341 01df 13       		.uleb128 0x13
 6342 01e0 02       		.uleb128 0x2
 6343 01e1 17       		.uleb128 0x17
 6344 01e2 00       		.byte	0
 6345 01e3 00       		.byte	0
 6346 01e4 23       		.uleb128 0x23
 6347 01e5 21       		.uleb128 0x21
 6348 01e6 00       		.byte	0
 6349 01e7 49       		.uleb128 0x49
 6350 01e8 13       		.uleb128 0x13
 6351 01e9 2F       		.uleb128 0x2f
 6352 01ea 13       		.uleb128 0x13
 6353 01eb 00       		.byte	0
 6354 01ec 00       		.byte	0
 6355 01ed 24       		.uleb128 0x24
 6356 01ee 26       		.uleb128 0x26
 6357 01ef 00       		.byte	0
 6358 01f0 49       		.uleb128 0x49
 6359 01f1 13       		.uleb128 0x13
 6360 01f2 00       		.byte	0
 6361 01f3 00       		.byte	0
 6362 01f4 25       		.uleb128 0x25
 6363 01f5 34       		.uleb128 0x34
 6364 01f6 00       		.byte	0
 6365 01f7 03       		.uleb128 0x3
 6366 01f8 0E       		.uleb128 0xe
 6367 01f9 3A       		.uleb128 0x3a
 6368 01fa 0B       		.uleb128 0xb
 6369 01fb 3B       		.uleb128 0x3b
 6370 01fc 05       		.uleb128 0x5
 6371 01fd 49       		.uleb128 0x49
 6372 01fe 13       		.uleb128 0x13
 6373 01ff 3F       		.uleb128 0x3f
 6374 0200 19       		.uleb128 0x19
 6375 0201 3C       		.uleb128 0x3c
 6376 0202 19       		.uleb128 0x19
ARM GAS  C:\Users\RECEPC~1\AppData\Local\Temp\ccnklw4g.s 			page 133


 6377 0203 00       		.byte	0
 6378 0204 00       		.byte	0
 6379 0205 26       		.uleb128 0x26
 6380 0206 34       		.uleb128 0x34
 6381 0207 00       		.byte	0
 6382 0208 03       		.uleb128 0x3
 6383 0209 0E       		.uleb128 0xe
 6384 020a 3A       		.uleb128 0x3a
 6385 020b 0B       		.uleb128 0xb
 6386 020c 3B       		.uleb128 0x3b
 6387 020d 0B       		.uleb128 0xb
 6388 020e 49       		.uleb128 0x49
 6389 020f 13       		.uleb128 0x13
 6390 0210 3F       		.uleb128 0x3f
 6391 0211 19       		.uleb128 0x19
 6392 0212 02       		.uleb128 0x2
 6393 0213 18       		.uleb128 0x18
 6394 0214 00       		.byte	0
 6395 0215 00       		.byte	0
 6396 0216 27       		.uleb128 0x27
 6397 0217 21       		.uleb128 0x21
 6398 0218 00       		.byte	0
 6399 0219 49       		.uleb128 0x49
 6400 021a 13       		.uleb128 0x13
 6401 021b 2F       		.uleb128 0x2f
 6402 021c 05       		.uleb128 0x5
 6403 021d 00       		.byte	0
 6404 021e 00       		.byte	0
 6405 021f 28       		.uleb128 0x28
 6406 0220 2E       		.uleb128 0x2e
 6407 0221 00       		.byte	0
 6408 0222 3F       		.uleb128 0x3f
 6409 0223 19       		.uleb128 0x19
 6410 0224 03       		.uleb128 0x3
 6411 0225 0E       		.uleb128 0xe
 6412 0226 3A       		.uleb128 0x3a
 6413 0227 0B       		.uleb128 0xb
 6414 0228 3B       		.uleb128 0x3b
 6415 0229 0B       		.uleb128 0xb
 6416 022a 27       		.uleb128 0x27
 6417 022b 19       		.uleb128 0x19
 6418 022c 3C       		.uleb128 0x3c
 6419 022d 19       		.uleb128 0x19
 6420 022e 00       		.byte	0
 6421 022f 00       		.byte	0
 6422 0230 29       		.uleb128 0x29
 6423 0231 2E       		.uleb128 0x2e
 6424 0232 01       		.byte	0x1
 6425 0233 3F       		.uleb128 0x3f
 6426 0234 19       		.uleb128 0x19
 6427 0235 03       		.uleb128 0x3
 6428 0236 0E       		.uleb128 0xe
 6429 0237 3A       		.uleb128 0x3a
 6430 0238 0B       		.uleb128 0xb
 6431 0239 3B       		.uleb128 0x3b
 6432 023a 0B       		.uleb128 0xb
 6433 023b 27       		.uleb128 0x27
ARM GAS  C:\Users\RECEPC~1\AppData\Local\Temp\ccnklw4g.s 			page 134


 6434 023c 19       		.uleb128 0x19
 6435 023d 3C       		.uleb128 0x3c
 6436 023e 19       		.uleb128 0x19
 6437 023f 01       		.uleb128 0x1
 6438 0240 13       		.uleb128 0x13
 6439 0241 00       		.byte	0
 6440 0242 00       		.byte	0
 6441 0243 2A       		.uleb128 0x2a
 6442 0244 05       		.uleb128 0x5
 6443 0245 00       		.byte	0
 6444 0246 49       		.uleb128 0x49
 6445 0247 13       		.uleb128 0x13
 6446 0248 00       		.byte	0
 6447 0249 00       		.byte	0
 6448 024a 2B       		.uleb128 0x2b
 6449 024b 2E       		.uleb128 0x2e
 6450 024c 00       		.byte	0
 6451 024d 3F       		.uleb128 0x3f
 6452 024e 19       		.uleb128 0x19
 6453 024f 03       		.uleb128 0x3
 6454 0250 0E       		.uleb128 0xe
 6455 0251 3A       		.uleb128 0x3a
 6456 0252 0B       		.uleb128 0xb
 6457 0253 3B       		.uleb128 0x3b
 6458 0254 0B       		.uleb128 0xb
 6459 0255 27       		.uleb128 0x27
 6460 0256 19       		.uleb128 0x19
 6461 0257 49       		.uleb128 0x49
 6462 0258 13       		.uleb128 0x13
 6463 0259 3C       		.uleb128 0x3c
 6464 025a 19       		.uleb128 0x19
 6465 025b 00       		.byte	0
 6466 025c 00       		.byte	0
 6467 025d 00       		.byte	0
 6468              		.section	.debug_loc,"",%progbits
 6469              	.Ldebug_loc0:
 6470              	.LLST0:
 6471 0000 00000000 		.4byte	.LVL0
 6472 0004 07000000 		.4byte	.LVL1-1
 6473 0008 0100     		.2byte	0x1
 6474 000a 50       		.byte	0x50
 6475 000b 07000000 		.4byte	.LVL1-1
 6476 000f 2E000000 		.4byte	.LFE63
 6477 0013 0400     		.2byte	0x4
 6478 0015 F3       		.byte	0xf3
 6479 0016 01       		.uleb128 0x1
 6480 0017 50       		.byte	0x50
 6481 0018 9F       		.byte	0x9f
 6482 0019 00000000 		.4byte	0
 6483 001d 00000000 		.4byte	0
 6484              	.LLST1:
 6485 0021 22000000 		.4byte	.LVL6
 6486 0025 2A000000 		.4byte	.LVL8
 6487 0029 0100     		.2byte	0x1
 6488 002b 54       		.byte	0x54
 6489 002c 00000000 		.4byte	0
 6490 0030 00000000 		.4byte	0
ARM GAS  C:\Users\RECEPC~1\AppData\Local\Temp\ccnklw4g.s 			page 135


 6491              	.LLST2:
 6492 0034 14000000 		.4byte	.LVL9
 6493 0038 18000000 		.4byte	.LVL10
 6494 003c 0200     		.2byte	0x2
 6495 003e 31       		.byte	0x31
 6496 003f 9F       		.byte	0x9f
 6497 0040 18000000 		.4byte	.LVL10
 6498 0044 C0000000 		.4byte	.LVL21
 6499 0048 0100     		.2byte	0x1
 6500 004a 54       		.byte	0x54
 6501 004b C2000000 		.4byte	.LVL22
 6502 004f 1C010000 		.4byte	.LVL27
 6503 0053 0100     		.2byte	0x1
 6504 0055 54       		.byte	0x54
 6505 0056 00000000 		.4byte	0
 6506 005a 00000000 		.4byte	0
 6507              	.LLST3:
 6508 005e 00000000 		.4byte	.LVL28
 6509 0062 07000000 		.4byte	.LVL29-1
 6510 0066 0100     		.2byte	0x1
 6511 0068 50       		.byte	0x50
 6512 0069 07000000 		.4byte	.LVL29-1
 6513 006d B4040000 		.4byte	.LFE65
 6514 0071 0400     		.2byte	0x4
 6515 0073 F3       		.byte	0xf3
 6516 0074 01       		.uleb128 0x1
 6517 0075 50       		.byte	0x50
 6518 0076 9F       		.byte	0x9f
 6519 0077 00000000 		.4byte	0
 6520 007b 00000000 		.4byte	0
 6521              	.LLST4:
 6522 007f 26000000 		.4byte	.LVL35
 6523 0083 62000000 		.4byte	.LVL36
 6524 0087 0100     		.2byte	0x1
 6525 0089 50       		.byte	0x50
 6526 008a 72000000 		.4byte	.LVL38
 6527 008e A6000000 		.4byte	.LVL47
 6528 0092 0100     		.2byte	0x1
 6529 0094 56       		.byte	0x56
 6530 0095 A8000000 		.4byte	.LVL48
 6531 0099 AA000000 		.4byte	.LVL49
 6532 009d 0100     		.2byte	0x1
 6533 009f 56       		.byte	0x56
 6534 00a0 AC000000 		.4byte	.LVL50
 6535 00a4 B6000000 		.4byte	.LVL51
 6536 00a8 0100     		.2byte	0x1
 6537 00aa 56       		.byte	0x56
 6538 00ab B6000000 		.4byte	.LVL51
 6539 00af 60010000 		.4byte	.LVL70
 6540 00b3 0100     		.2byte	0x1
 6541 00b5 57       		.byte	0x57
 6542 00b6 62010000 		.4byte	.LVL71
 6543 00ba 6E010000 		.4byte	.LVL73
 6544 00be 0100     		.2byte	0x1
 6545 00c0 57       		.byte	0x57
 6546 00c1 6E010000 		.4byte	.LVL73
 6547 00c5 A4010000 		.4byte	.LVL82
ARM GAS  C:\Users\RECEPC~1\AppData\Local\Temp\ccnklw4g.s 			page 136


 6548 00c9 0100     		.2byte	0x1
 6549 00cb 56       		.byte	0x56
 6550 00cc A6010000 		.4byte	.LVL83
 6551 00d0 B0010000 		.4byte	.LVL84
 6552 00d4 0100     		.2byte	0x1
 6553 00d6 56       		.byte	0x56
 6554 00d7 B0010000 		.4byte	.LVL84
 6555 00db 66020000 		.4byte	.LVL103
 6556 00df 0100     		.2byte	0x1
 6557 00e1 57       		.byte	0x57
 6558 00e2 68020000 		.4byte	.LVL104
 6559 00e6 74020000 		.4byte	.LVL106
 6560 00ea 0100     		.2byte	0x1
 6561 00ec 57       		.byte	0x57
 6562 00ed 74020000 		.4byte	.LVL106
 6563 00f1 77020000 		.4byte	.LVL107-1
 6564 00f5 0100     		.2byte	0x1
 6565 00f7 50       		.byte	0x50
 6566 00f8 7C020000 		.4byte	.LVL108
 6567 00fc B8020000 		.4byte	.LVL109
 6568 0100 0100     		.2byte	0x1
 6569 0102 50       		.byte	0x50
 6570 0103 C6020000 		.4byte	.LVL111
 6571 0107 FA020000 		.4byte	.LVL120
 6572 010b 0100     		.2byte	0x1
 6573 010d 56       		.byte	0x56
 6574 010e FC020000 		.4byte	.LVL121
 6575 0112 FE020000 		.4byte	.LVL122
 6576 0116 0100     		.2byte	0x1
 6577 0118 56       		.byte	0x56
 6578 0119 00030000 		.4byte	.LVL123
 6579 011d 20030000 		.4byte	.LVL124
 6580 0121 0100     		.2byte	0x1
 6581 0123 56       		.byte	0x56
 6582 0124 20030000 		.4byte	.LVL124
 6583 0128 AA030000 		.4byte	.LVL143
 6584 012c 0100     		.2byte	0x1
 6585 012e 57       		.byte	0x57
 6586 012f AC030000 		.4byte	.LVL144
 6587 0133 B8030000 		.4byte	.LVL146
 6588 0137 0100     		.2byte	0x1
 6589 0139 57       		.byte	0x57
 6590 013a B8030000 		.4byte	.LVL146
 6591 013e EE030000 		.4byte	.LVL155
 6592 0142 0100     		.2byte	0x1
 6593 0144 56       		.byte	0x56
 6594 0145 F0030000 		.4byte	.LVL156
 6595 0149 FA030000 		.4byte	.LVL157
 6596 014d 0100     		.2byte	0x1
 6597 014f 56       		.byte	0x56
 6598 0150 FA030000 		.4byte	.LVL157
 6599 0154 8E040000 		.4byte	.LVL176
 6600 0158 0100     		.2byte	0x1
 6601 015a 57       		.byte	0x57
 6602 015b 90040000 		.4byte	.LVL177
 6603 015f 9C040000 		.4byte	.LVL179
 6604 0163 0100     		.2byte	0x1
ARM GAS  C:\Users\RECEPC~1\AppData\Local\Temp\ccnklw4g.s 			page 137


 6605 0165 57       		.byte	0x57
 6606 0166 9C040000 		.4byte	.LVL179
 6607 016a 9F040000 		.4byte	.LVL180-1
 6608 016e 0100     		.2byte	0x1
 6609 0170 50       		.byte	0x50
 6610 0171 A4040000 		.4byte	.LVL181
 6611 0175 A7040000 		.4byte	.LVL182-1
 6612 0179 0100     		.2byte	0x1
 6613 017b 50       		.byte	0x50
 6614 017c 00000000 		.4byte	0
 6615 0180 00000000 		.4byte	0
 6616              	.LLST5:
 6617 0184 72000000 		.4byte	.LVL38
 6618 0188 9A000000 		.4byte	.LVL43
 6619 018c 0100     		.2byte	0x1
 6620 018e 55       		.byte	0x55
 6621 018f 9C000000 		.4byte	.LVL44
 6622 0193 9E000000 		.4byte	.LVL45
 6623 0197 0100     		.2byte	0x1
 6624 0199 55       		.byte	0x55
 6625 019a A0000000 		.4byte	.LVL46
 6626 019e AA000000 		.4byte	.LVL49
 6627 01a2 0100     		.2byte	0x1
 6628 01a4 55       		.byte	0x55
 6629 01a5 B6000000 		.4byte	.LVL51
 6630 01a9 F8000000 		.4byte	.LVL60
 6631 01ad 0100     		.2byte	0x1
 6632 01af 56       		.byte	0x56
 6633 01b0 FA000000 		.4byte	.LVL61
 6634 01b4 FC000000 		.4byte	.LVL62
 6635 01b8 0100     		.2byte	0x1
 6636 01ba 56       		.byte	0x56
 6637 01bb FE000000 		.4byte	.LVL63
 6638 01bf 62010000 		.4byte	.LVL71
 6639 01c3 0100     		.2byte	0x1
 6640 01c5 56       		.byte	0x56
 6641 01c6 6E010000 		.4byte	.LVL73
 6642 01ca 98010000 		.4byte	.LVL78
 6643 01ce 0100     		.2byte	0x1
 6644 01d0 55       		.byte	0x55
 6645 01d1 9A010000 		.4byte	.LVL79
 6646 01d5 9C010000 		.4byte	.LVL80
 6647 01d9 0100     		.2byte	0x1
 6648 01db 55       		.byte	0x55
 6649 01dc 9E010000 		.4byte	.LVL81
 6650 01e0 A6010000 		.4byte	.LVL83
 6651 01e4 0100     		.2byte	0x1
 6652 01e6 55       		.byte	0x55
 6653 01e7 B0010000 		.4byte	.LVL84
 6654 01eb F4010000 		.4byte	.LVL93
 6655 01ef 0100     		.2byte	0x1
 6656 01f1 56       		.byte	0x56
 6657 01f2 F6010000 		.4byte	.LVL94
 6658 01f6 F8010000 		.4byte	.LVL95
 6659 01fa 0100     		.2byte	0x1
 6660 01fc 56       		.byte	0x56
 6661 01fd FA010000 		.4byte	.LVL96
ARM GAS  C:\Users\RECEPC~1\AppData\Local\Temp\ccnklw4g.s 			page 138


 6662 0201 68020000 		.4byte	.LVL104
 6663 0205 0100     		.2byte	0x1
 6664 0207 56       		.byte	0x56
 6665 0208 C6020000 		.4byte	.LVL111
 6666 020c EE020000 		.4byte	.LVL116
 6667 0210 0100     		.2byte	0x1
 6668 0212 55       		.byte	0x55
 6669 0213 F0020000 		.4byte	.LVL117
 6670 0217 F2020000 		.4byte	.LVL118
 6671 021b 0100     		.2byte	0x1
 6672 021d 55       		.byte	0x55
 6673 021e F4020000 		.4byte	.LVL119
 6674 0222 FE020000 		.4byte	.LVL122
 6675 0226 0100     		.2byte	0x1
 6676 0228 55       		.byte	0x55
 6677 0229 20030000 		.4byte	.LVL124
 6678 022d 62030000 		.4byte	.LVL133
 6679 0231 0100     		.2byte	0x1
 6680 0233 56       		.byte	0x56
 6681 0234 64030000 		.4byte	.LVL134
 6682 0238 66030000 		.4byte	.LVL135
 6683 023c 0100     		.2byte	0x1
 6684 023e 56       		.byte	0x56
 6685 023f 68030000 		.4byte	.LVL136
 6686 0243 AC030000 		.4byte	.LVL144
 6687 0247 0100     		.2byte	0x1
 6688 0249 56       		.byte	0x56
 6689 024a B8030000 		.4byte	.LVL146
 6690 024e E2030000 		.4byte	.LVL151
 6691 0252 0100     		.2byte	0x1
 6692 0254 55       		.byte	0x55
 6693 0255 E4030000 		.4byte	.LVL152
 6694 0259 E6030000 		.4byte	.LVL153
 6695 025d 0100     		.2byte	0x1
 6696 025f 55       		.byte	0x55
 6697 0260 E8030000 		.4byte	.LVL154
 6698 0264 F0030000 		.4byte	.LVL156
 6699 0268 0100     		.2byte	0x1
 6700 026a 55       		.byte	0x55
 6701 026b FA030000 		.4byte	.LVL157
 6702 026f 3E040000 		.4byte	.LVL166
 6703 0273 0100     		.2byte	0x1
 6704 0275 56       		.byte	0x56
 6705 0276 40040000 		.4byte	.LVL167
 6706 027a 42040000 		.4byte	.LVL168
 6707 027e 0100     		.2byte	0x1
 6708 0280 56       		.byte	0x56
 6709 0281 44040000 		.4byte	.LVL169
 6710 0285 90040000 		.4byte	.LVL177
 6711 0289 0100     		.2byte	0x1
 6712 028b 56       		.byte	0x56
 6713 028c 00000000 		.4byte	0
 6714 0290 00000000 		.4byte	0
 6715              	.LLST6:
 6716 0294 72000000 		.4byte	.LVL38
 6717 0298 8E000000 		.4byte	.LVL39
 6718 029c 0100     		.2byte	0x1
ARM GAS  C:\Users\RECEPC~1\AppData\Local\Temp\ccnklw4g.s 			page 139


 6719 029e 51       		.byte	0x51
 6720 029f 90000000 		.4byte	.LVL40
 6721 02a3 92000000 		.4byte	.LVL41
 6722 02a7 0100     		.2byte	0x1
 6723 02a9 51       		.byte	0x51
 6724 02aa 94000000 		.4byte	.LVL42
 6725 02ae 9E000000 		.4byte	.LVL45
 6726 02b2 0100     		.2byte	0x1
 6727 02b4 51       		.byte	0x51
 6728 02b5 B6000000 		.4byte	.LVL51
 6729 02b9 E8000000 		.4byte	.LVL54
 6730 02bd 0100     		.2byte	0x1
 6731 02bf 51       		.byte	0x51
 6732 02c0 EA000000 		.4byte	.LVL55
 6733 02c4 EC000000 		.4byte	.LVL56
 6734 02c8 0100     		.2byte	0x1
 6735 02ca 51       		.byte	0x51
 6736 02cb EE000000 		.4byte	.LVL57
 6737 02cf FC000000 		.4byte	.LVL62
 6738 02d3 0100     		.2byte	0x1
 6739 02d5 51       		.byte	0x51
 6740 02d6 06010000 		.4byte	.LVL65
 6741 02da 0A010000 		.4byte	.LVL66
 6742 02de 0200     		.2byte	0x2
 6743 02e0 34       		.byte	0x34
 6744 02e1 9F       		.byte	0x9f
 6745 02e2 0A010000 		.4byte	.LVL66
 6746 02e6 22010000 		.4byte	.LVL67
 6747 02ea 0100     		.2byte	0x1
 6748 02ec 52       		.byte	0x52
 6749 02ed 24010000 		.4byte	.LVL68
 6750 02f1 32010000 		.4byte	.LVL69
 6751 02f5 0100     		.2byte	0x1
 6752 02f7 52       		.byte	0x52
 6753 02f8 6E010000 		.4byte	.LVL73
 6754 02fc 8C010000 		.4byte	.LVL74
 6755 0300 0100     		.2byte	0x1
 6756 0302 51       		.byte	0x51
 6757 0303 8E010000 		.4byte	.LVL75
 6758 0307 90010000 		.4byte	.LVL76
 6759 030b 0100     		.2byte	0x1
 6760 030d 51       		.byte	0x51
 6761 030e 92010000 		.4byte	.LVL77
 6762 0312 9C010000 		.4byte	.LVL80
 6763 0316 0100     		.2byte	0x1
 6764 0318 51       		.byte	0x51
 6765 0319 B0010000 		.4byte	.LVL84
 6766 031d E4010000 		.4byte	.LVL87
 6767 0321 0100     		.2byte	0x1
 6768 0323 51       		.byte	0x51
 6769 0324 E6010000 		.4byte	.LVL88
 6770 0328 E8010000 		.4byte	.LVL89
 6771 032c 0100     		.2byte	0x1
 6772 032e 51       		.byte	0x51
 6773 032f EA010000 		.4byte	.LVL90
 6774 0333 F8010000 		.4byte	.LVL95
 6775 0337 0100     		.2byte	0x1
ARM GAS  C:\Users\RECEPC~1\AppData\Local\Temp\ccnklw4g.s 			page 140


 6776 0339 51       		.byte	0x51
 6777 033a 02020000 		.4byte	.LVL98
 6778 033e 06020000 		.4byte	.LVL99
 6779 0342 0200     		.2byte	0x2
 6780 0344 34       		.byte	0x34
 6781 0345 9F       		.byte	0x9f
 6782 0346 06020000 		.4byte	.LVL99
 6783 034a 20020000 		.4byte	.LVL100
 6784 034e 0100     		.2byte	0x1
 6785 0350 52       		.byte	0x52
 6786 0351 22020000 		.4byte	.LVL101
 6787 0355 30020000 		.4byte	.LVL102
 6788 0359 0100     		.2byte	0x1
 6789 035b 52       		.byte	0x52
 6790 035c C6020000 		.4byte	.LVL111
 6791 0360 E2020000 		.4byte	.LVL112
 6792 0364 0100     		.2byte	0x1
 6793 0366 51       		.byte	0x51
 6794 0367 E4020000 		.4byte	.LVL113
 6795 036b E6020000 		.4byte	.LVL114
 6796 036f 0100     		.2byte	0x1
 6797 0371 51       		.byte	0x51
 6798 0372 E8020000 		.4byte	.LVL115
 6799 0376 F2020000 		.4byte	.LVL118
 6800 037a 0100     		.2byte	0x1
 6801 037c 51       		.byte	0x51
 6802 037d 20030000 		.4byte	.LVL124
 6803 0381 52030000 		.4byte	.LVL127
 6804 0385 0100     		.2byte	0x1
 6805 0387 51       		.byte	0x51
 6806 0388 54030000 		.4byte	.LVL128
 6807 038c 56030000 		.4byte	.LVL129
 6808 0390 0100     		.2byte	0x1
 6809 0392 51       		.byte	0x51
 6810 0393 58030000 		.4byte	.LVL130
 6811 0397 66030000 		.4byte	.LVL135
 6812 039b 0100     		.2byte	0x1
 6813 039d 51       		.byte	0x51
 6814 039e 70030000 		.4byte	.LVL138
 6815 03a2 74030000 		.4byte	.LVL139
 6816 03a6 0200     		.2byte	0x2
 6817 03a8 36       		.byte	0x36
 6818 03a9 9F       		.byte	0x9f
 6819 03aa 74030000 		.4byte	.LVL139
 6820 03ae 8C030000 		.4byte	.LVL140
 6821 03b2 0100     		.2byte	0x1
 6822 03b4 52       		.byte	0x52
 6823 03b5 8E030000 		.4byte	.LVL141
 6824 03b9 9C030000 		.4byte	.LVL142
 6825 03bd 0100     		.2byte	0x1
 6826 03bf 52       		.byte	0x52
 6827 03c0 B8030000 		.4byte	.LVL146
 6828 03c4 D6030000 		.4byte	.LVL147
 6829 03c8 0100     		.2byte	0x1
 6830 03ca 51       		.byte	0x51
 6831 03cb D8030000 		.4byte	.LVL148
 6832 03cf DA030000 		.4byte	.LVL149
ARM GAS  C:\Users\RECEPC~1\AppData\Local\Temp\ccnklw4g.s 			page 141


 6833 03d3 0100     		.2byte	0x1
 6834 03d5 51       		.byte	0x51
 6835 03d6 DC030000 		.4byte	.LVL150
 6836 03da E6030000 		.4byte	.LVL153
 6837 03de 0100     		.2byte	0x1
 6838 03e0 51       		.byte	0x51
 6839 03e1 FA030000 		.4byte	.LVL157
 6840 03e5 2E040000 		.4byte	.LVL160
 6841 03e9 0100     		.2byte	0x1
 6842 03eb 51       		.byte	0x51
 6843 03ec 30040000 		.4byte	.LVL161
 6844 03f0 32040000 		.4byte	.LVL162
 6845 03f4 0100     		.2byte	0x1
 6846 03f6 51       		.byte	0x51
 6847 03f7 34040000 		.4byte	.LVL163
 6848 03fb 42040000 		.4byte	.LVL168
 6849 03ff 0100     		.2byte	0x1
 6850 0401 51       		.byte	0x51
 6851 0402 4C040000 		.4byte	.LVL171
 6852 0406 50040000 		.4byte	.LVL172
 6853 040a 0200     		.2byte	0x2
 6854 040c 36       		.byte	0x36
 6855 040d 9F       		.byte	0x9f
 6856 040e 50040000 		.4byte	.LVL172
 6857 0412 6A040000 		.4byte	.LVL173
 6858 0416 0100     		.2byte	0x1
 6859 0418 52       		.byte	0x52
 6860 0419 6C040000 		.4byte	.LVL174
 6861 041d 7A040000 		.4byte	.LVL175
 6862 0421 0100     		.2byte	0x1
 6863 0423 52       		.byte	0x52
 6864 0424 00000000 		.4byte	0
 6865 0428 00000000 		.4byte	0
 6866              	.LLST7:
 6867 042c B6000000 		.4byte	.LVL51
 6868 0430 DC000000 		.4byte	.LVL52
 6869 0434 0100     		.2byte	0x1
 6870 0436 55       		.byte	0x55
 6871 0437 DE000000 		.4byte	.LVL53
 6872 043b F4000000 		.4byte	.LVL58
 6873 043f 0100     		.2byte	0x1
 6874 0441 55       		.byte	0x55
 6875 0442 F6000000 		.4byte	.LVL59
 6876 0446 04010000 		.4byte	.LVL64
 6877 044a 0100     		.2byte	0x1
 6878 044c 55       		.byte	0x55
 6879 044d 06010000 		.4byte	.LVL65
 6880 0451 6E010000 		.4byte	.LVL73
 6881 0455 0100     		.2byte	0x1
 6882 0457 55       		.byte	0x55
 6883 0458 B0010000 		.4byte	.LVL84
 6884 045c D8010000 		.4byte	.LVL85
 6885 0460 0100     		.2byte	0x1
 6886 0462 55       		.byte	0x55
 6887 0463 DA010000 		.4byte	.LVL86
 6888 0467 F0010000 		.4byte	.LVL91
 6889 046b 0100     		.2byte	0x1
ARM GAS  C:\Users\RECEPC~1\AppData\Local\Temp\ccnklw4g.s 			page 142


 6890 046d 55       		.byte	0x55
 6891 046e F2010000 		.4byte	.LVL92
 6892 0472 00020000 		.4byte	.LVL97
 6893 0476 0100     		.2byte	0x1
 6894 0478 55       		.byte	0x55
 6895 0479 02020000 		.4byte	.LVL98
 6896 047d 74020000 		.4byte	.LVL106
 6897 0481 0100     		.2byte	0x1
 6898 0483 55       		.byte	0x55
 6899 0484 20030000 		.4byte	.LVL124
 6900 0488 46030000 		.4byte	.LVL125
 6901 048c 0100     		.2byte	0x1
 6902 048e 55       		.byte	0x55
 6903 048f 48030000 		.4byte	.LVL126
 6904 0493 5E030000 		.4byte	.LVL131
 6905 0497 0100     		.2byte	0x1
 6906 0499 55       		.byte	0x55
 6907 049a 60030000 		.4byte	.LVL132
 6908 049e 6E030000 		.4byte	.LVL137
 6909 04a2 0100     		.2byte	0x1
 6910 04a4 55       		.byte	0x55
 6911 04a5 70030000 		.4byte	.LVL138
 6912 04a9 B8030000 		.4byte	.LVL146
 6913 04ad 0100     		.2byte	0x1
 6914 04af 55       		.byte	0x55
 6915 04b0 FA030000 		.4byte	.LVL157
 6916 04b4 22040000 		.4byte	.LVL158
 6917 04b8 0100     		.2byte	0x1
 6918 04ba 55       		.byte	0x55
 6919 04bb 24040000 		.4byte	.LVL159
 6920 04bf 3A040000 		.4byte	.LVL164
 6921 04c3 0100     		.2byte	0x1
 6922 04c5 55       		.byte	0x55
 6923 04c6 3C040000 		.4byte	.LVL165
 6924 04ca 4A040000 		.4byte	.LVL170
 6925 04ce 0100     		.2byte	0x1
 6926 04d0 55       		.byte	0x55
 6927 04d1 4C040000 		.4byte	.LVL171
 6928 04d5 9C040000 		.4byte	.LVL179
 6929 04d9 0100     		.2byte	0x1
 6930 04db 55       		.byte	0x55
 6931 04dc 00000000 		.4byte	0
 6932 04e0 00000000 		.4byte	0
 6933              	.LLST8:
 6934 04e4 66000000 		.4byte	.LVL37
 6935 04e8 74020000 		.4byte	.LVL106
 6936 04ec 0100     		.2byte	0x1
 6937 04ee 54       		.byte	0x54
 6938 04ef BA020000 		.4byte	.LVL110
 6939 04f3 9C040000 		.4byte	.LVL179
 6940 04f7 0100     		.2byte	0x1
 6941 04f9 54       		.byte	0x54
 6942 04fa 00000000 		.4byte	0
 6943 04fe 00000000 		.4byte	0
 6944              	.LLST9:
 6945 0502 00000000 		.4byte	.LVL183
 6946 0506 10000000 		.4byte	.LVL184
ARM GAS  C:\Users\RECEPC~1\AppData\Local\Temp\ccnklw4g.s 			page 143


 6947 050a 0100     		.2byte	0x1
 6948 050c 50       		.byte	0x50
 6949 050d 10000000 		.4byte	.LVL184
 6950 0511 DC010000 		.4byte	.LFE66
 6951 0515 0400     		.2byte	0x4
 6952 0517 F3       		.byte	0xf3
 6953 0518 01       		.uleb128 0x1
 6954 0519 50       		.byte	0x50
 6955 051a 9F       		.byte	0x9f
 6956 051b 00000000 		.4byte	0
 6957 051f 00000000 		.4byte	0
 6958              	.LLST10:
 6959 0523 00000000 		.4byte	.LVL183
 6960 0527 12000000 		.4byte	.LVL185
 6961 052b 0100     		.2byte	0x1
 6962 052d 51       		.byte	0x51
 6963 052e 12000000 		.4byte	.LVL185
 6964 0532 DC010000 		.4byte	.LFE66
 6965 0536 0400     		.2byte	0x4
 6966 0538 F3       		.byte	0xf3
 6967 0539 01       		.uleb128 0x1
 6968 053a 51       		.byte	0x51
 6969 053b 9F       		.byte	0x9f
 6970 053c 00000000 		.4byte	0
 6971 0540 00000000 		.4byte	0
 6972              	.LLST11:
 6973 0544 00000000 		.4byte	.LVL183
 6974 0548 14000000 		.4byte	.LVL186
 6975 054c 0100     		.2byte	0x1
 6976 054e 52       		.byte	0x52
 6977 054f 14000000 		.4byte	.LVL186
 6978 0553 92010000 		.4byte	.LVL230
 6979 0557 0100     		.2byte	0x1
 6980 0559 55       		.byte	0x55
 6981 055a 92010000 		.4byte	.LVL230
 6982 055e BE010000 		.4byte	.LVL238
 6983 0562 0400     		.2byte	0x4
 6984 0564 F3       		.byte	0xf3
 6985 0565 01       		.uleb128 0x1
 6986 0566 52       		.byte	0x52
 6987 0567 9F       		.byte	0x9f
 6988 0568 BE010000 		.4byte	.LVL238
 6989 056c C6010000 		.4byte	.LVL239
 6990 0570 0100     		.2byte	0x1
 6991 0572 55       		.byte	0x55
 6992 0573 C6010000 		.4byte	.LVL239
 6993 0577 DC010000 		.4byte	.LFE66
 6994 057b 0400     		.2byte	0x4
 6995 057d F3       		.byte	0xf3
 6996 057e 01       		.uleb128 0x1
 6997 057f 52       		.byte	0x52
 6998 0580 9F       		.byte	0x9f
 6999 0581 00000000 		.4byte	0
 7000 0585 00000000 		.4byte	0
 7001              	.LLST12:
 7002 0589 EA000000 		.4byte	.LVL210
 7003 058d 62010000 		.4byte	.LVL221
ARM GAS  C:\Users\RECEPC~1\AppData\Local\Temp\ccnklw4g.s 			page 144


 7004 0591 0200     		.2byte	0x2
 7005 0593 3C       		.byte	0x3c
 7006 0594 9F       		.byte	0x9f
 7007 0595 62010000 		.4byte	.LVL221
 7008 0599 66010000 		.4byte	.LVL222
 7009 059d 0200     		.2byte	0x2
 7010 059f 3E       		.byte	0x3e
 7011 05a0 9F       		.byte	0x9f
 7012 05a1 66010000 		.4byte	.LVL222
 7013 05a5 68010000 		.4byte	.LVL223
 7014 05a9 0200     		.2byte	0x2
 7015 05ab 3C       		.byte	0x3c
 7016 05ac 9F       		.byte	0x9f
 7017 05ad 68010000 		.4byte	.LVL223
 7018 05b1 CE010000 		.4byte	.LVL241
 7019 05b5 0100     		.2byte	0x1
 7020 05b7 56       		.byte	0x56
 7021 05b8 00000000 		.4byte	0
 7022 05bc 00000000 		.4byte	0
 7023              	.LLST13:
 7024 05c0 1E000000 		.4byte	.LVL187
 7025 05c4 22000000 		.4byte	.LVL188
 7026 05c8 0200     		.2byte	0x2
 7027 05ca 31       		.byte	0x31
 7028 05cb 9F       		.byte	0x9f
 7029 05cc 22000000 		.4byte	.LVL188
 7030 05d0 2A000000 		.4byte	.LVL189
 7031 05d4 0100     		.2byte	0x1
 7032 05d6 53       		.byte	0x53
 7033 05d7 40000000 		.4byte	.LVL193
 7034 05db 42000000 		.4byte	.LVL194
 7035 05df 0100     		.2byte	0x1
 7036 05e1 53       		.byte	0x53
 7037 05e2 44000000 		.4byte	.LVL195
 7038 05e6 48000000 		.4byte	.LVL196
 7039 05ea 0100     		.2byte	0x1
 7040 05ec 53       		.byte	0x53
 7041 05ed 70000000 		.4byte	.LVL197
 7042 05f1 84000000 		.4byte	.LVL198
 7043 05f5 0100     		.2byte	0x1
 7044 05f7 53       		.byte	0x53
 7045 05f8 86000000 		.4byte	.LVL199
 7046 05fc 88000000 		.4byte	.LVL200
 7047 0600 0100     		.2byte	0x1
 7048 0602 53       		.byte	0x53
 7049 0603 8A000000 		.4byte	.LVL201
 7050 0607 A4000000 		.4byte	.LVL202
 7051 060b 0100     		.2byte	0x1
 7052 060d 53       		.byte	0x53
 7053 060e A6000000 		.4byte	.LVL203
 7054 0612 AC000000 		.4byte	.LVL204
 7055 0616 0100     		.2byte	0x1
 7056 0618 53       		.byte	0x53
 7057 0619 B0000000 		.4byte	.LVL205
 7058 061d B4000000 		.4byte	.LVL206
 7059 0621 0200     		.2byte	0x2
 7060 0623 30       		.byte	0x30
ARM GAS  C:\Users\RECEPC~1\AppData\Local\Temp\ccnklw4g.s 			page 145


 7061 0624 9F       		.byte	0x9f
 7062 0625 B4000000 		.4byte	.LVL206
 7063 0629 CC000000 		.4byte	.LVL207
 7064 062d 0100     		.2byte	0x1
 7065 062f 53       		.byte	0x53
 7066 0630 CE000000 		.4byte	.LVL208
 7067 0634 D6000000 		.4byte	.LVL209
 7068 0638 0100     		.2byte	0x1
 7069 063a 53       		.byte	0x53
 7070 063b 04010000 		.4byte	.LVL211
 7071 063f 08010000 		.4byte	.LVL212
 7072 0643 0200     		.2byte	0x2
 7073 0645 30       		.byte	0x30
 7074 0646 9F       		.byte	0x9f
 7075 0647 08010000 		.4byte	.LVL212
 7076 064b 1C010000 		.4byte	.LVL213
 7077 064f 0100     		.2byte	0x1
 7078 0651 53       		.byte	0x53
 7079 0652 1E010000 		.4byte	.LVL214
 7080 0656 24010000 		.4byte	.LVL215
 7081 065a 0100     		.2byte	0x1
 7082 065c 53       		.byte	0x53
 7083 065d 28010000 		.4byte	.LVL216
 7084 0661 2C010000 		.4byte	.LVL217
 7085 0665 0200     		.2byte	0x2
 7086 0667 30       		.byte	0x30
 7087 0668 9F       		.byte	0x9f
 7088 0669 2C010000 		.4byte	.LVL217
 7089 066d 44010000 		.4byte	.LVL218
 7090 0671 0100     		.2byte	0x1
 7091 0673 53       		.byte	0x53
 7092 0674 46010000 		.4byte	.LVL219
 7093 0678 4E010000 		.4byte	.LVL220
 7094 067c 0100     		.2byte	0x1
 7095 067e 53       		.byte	0x53
 7096 067f 90010000 		.4byte	.LVL229
 7097 0683 94010000 		.4byte	.LVL231
 7098 0687 0200     		.2byte	0x2
 7099 0689 30       		.byte	0x30
 7100 068a 9F       		.byte	0x9f
 7101 068b 94010000 		.4byte	.LVL231
 7102 068f A2010000 		.4byte	.LVL233
 7103 0693 0100     		.2byte	0x1
 7104 0695 55       		.byte	0x55
 7105 0696 A4010000 		.4byte	.LVL234
 7106 069a BE010000 		.4byte	.LVL238
 7107 069e 0100     		.2byte	0x1
 7108 06a0 55       		.byte	0x55
 7109 06a1 C6010000 		.4byte	.LVL239
 7110 06a5 C8010000 		.4byte	.LVL240
 7111 06a9 0100     		.2byte	0x1
 7112 06ab 55       		.byte	0x55
 7113 06ac 00000000 		.4byte	0
 7114 06b0 00000000 		.4byte	0
 7115              	.LLST14:
 7116 06b4 2A000000 		.4byte	.LVL189
 7117 06b8 34000000 		.4byte	.LVL190
ARM GAS  C:\Users\RECEPC~1\AppData\Local\Temp\ccnklw4g.s 			page 146


 7118 06bc 0100     		.2byte	0x1
 7119 06be 53       		.byte	0x53
 7120 06bf 36000000 		.4byte	.LVL191
 7121 06c3 3C000000 		.4byte	.LVL192
 7122 06c7 0100     		.2byte	0x1
 7123 06c9 53       		.byte	0x53
 7124 06ca 00000000 		.4byte	0
 7125 06ce 00000000 		.4byte	0
 7126              	.LLST15:
 7127 06d2 00000000 		.4byte	.LVL242
 7128 06d6 07000000 		.4byte	.LVL243-1
 7129 06da 0100     		.2byte	0x1
 7130 06dc 50       		.byte	0x50
 7131 06dd 07000000 		.4byte	.LVL243-1
 7132 06e1 C8030000 		.4byte	.LFE70
 7133 06e5 0400     		.2byte	0x4
 7134 06e7 F3       		.byte	0xf3
 7135 06e8 01       		.uleb128 0x1
 7136 06e9 50       		.byte	0x50
 7137 06ea 9F       		.byte	0x9f
 7138 06eb 00000000 		.4byte	0
 7139 06ef 00000000 		.4byte	0
 7140              	.LLST16:
 7141 06f3 6C000000 		.4byte	.LVL248
 7142 06f7 70000000 		.4byte	.LVL249
 7143 06fb 0200     		.2byte	0x2
 7144 06fd 31       		.byte	0x31
 7145 06fe 9F       		.byte	0x9f
 7146 06ff 70000000 		.4byte	.LVL249
 7147 0703 88000000 		.4byte	.LVL250
 7148 0707 0100     		.2byte	0x1
 7149 0709 53       		.byte	0x53
 7150 070a 8A000000 		.4byte	.LVL251
 7151 070e 92000000 		.4byte	.LVL252
 7152 0712 0100     		.2byte	0x1
 7153 0714 53       		.byte	0x53
 7154 0715 B2000000 		.4byte	.LVL253
 7155 0719 CA000000 		.4byte	.LVL254
 7156 071d 0100     		.2byte	0x1
 7157 071f 53       		.byte	0x53
 7158 0720 CC000000 		.4byte	.LVL255
 7159 0724 D4000000 		.4byte	.LVL256
 7160 0728 0100     		.2byte	0x1
 7161 072a 53       		.byte	0x53
 7162 072b D8000000 		.4byte	.LVL257
 7163 072f DC000000 		.4byte	.LVL258
 7164 0733 0200     		.2byte	0x2
 7165 0735 31       		.byte	0x31
 7166 0736 9F       		.byte	0x9f
 7167 0737 DC000000 		.4byte	.LVL258
 7168 073b F4000000 		.4byte	.LVL259
 7169 073f 0100     		.2byte	0x1
 7170 0741 53       		.byte	0x53
 7171 0742 F6000000 		.4byte	.LVL260
 7172 0746 FC000000 		.4byte	.LVL261
 7173 074a 0100     		.2byte	0x1
 7174 074c 53       		.byte	0x53
ARM GAS  C:\Users\RECEPC~1\AppData\Local\Temp\ccnklw4g.s 			page 147


 7175 074d 04010000 		.4byte	.LVL262
 7176 0751 10010000 		.4byte	.LVL263
 7177 0755 0100     		.2byte	0x1
 7178 0757 53       		.byte	0x53
 7179 0758 16010000 		.4byte	.LVL264
 7180 075c 18010000 		.4byte	.LVL265
 7181 0760 0100     		.2byte	0x1
 7182 0762 53       		.byte	0x53
 7183 0763 1A010000 		.4byte	.LVL266
 7184 0767 22010000 		.4byte	.LVL267
 7185 076b 0100     		.2byte	0x1
 7186 076d 53       		.byte	0x53
 7187 076e 42010000 		.4byte	.LVL268
 7188 0772 46010000 		.4byte	.LVL269
 7189 0776 0200     		.2byte	0x2
 7190 0778 31       		.byte	0x31
 7191 0779 9F       		.byte	0x9f
 7192 077a 46010000 		.4byte	.LVL269
 7193 077e 5E010000 		.4byte	.LVL270
 7194 0782 0100     		.2byte	0x1
 7195 0784 53       		.byte	0x53
 7196 0785 60010000 		.4byte	.LVL271
 7197 0789 68010000 		.4byte	.LVL272
 7198 078d 0100     		.2byte	0x1
 7199 078f 53       		.byte	0x53
 7200 0790 88010000 		.4byte	.LVL273
 7201 0794 A0010000 		.4byte	.LVL274
 7202 0798 0100     		.2byte	0x1
 7203 079a 53       		.byte	0x53
 7204 079b A2010000 		.4byte	.LVL275
 7205 079f AA010000 		.4byte	.LVL276
 7206 07a3 0100     		.2byte	0x1
 7207 07a5 53       		.byte	0x53
 7208 07a6 AE010000 		.4byte	.LVL277
 7209 07aa B2010000 		.4byte	.LVL278
 7210 07ae 0200     		.2byte	0x2
 7211 07b0 31       		.byte	0x31
 7212 07b1 9F       		.byte	0x9f
 7213 07b2 B2010000 		.4byte	.LVL278
 7214 07b6 CA010000 		.4byte	.LVL279
 7215 07ba 0100     		.2byte	0x1
 7216 07bc 53       		.byte	0x53
 7217 07bd CC010000 		.4byte	.LVL280
 7218 07c1 D2010000 		.4byte	.LVL281
 7219 07c5 0100     		.2byte	0x1
 7220 07c7 53       		.byte	0x53
 7221 07c8 DA010000 		.4byte	.LVL282
 7222 07cc E6010000 		.4byte	.LVL283
 7223 07d0 0100     		.2byte	0x1
 7224 07d2 53       		.byte	0x53
 7225 07d3 EC010000 		.4byte	.LVL284
 7226 07d7 EE010000 		.4byte	.LVL285
 7227 07db 0100     		.2byte	0x1
 7228 07dd 53       		.byte	0x53
 7229 07de F0010000 		.4byte	.LVL286
 7230 07e2 F8010000 		.4byte	.LVL287
 7231 07e6 0100     		.2byte	0x1
ARM GAS  C:\Users\RECEPC~1\AppData\Local\Temp\ccnklw4g.s 			page 148


 7232 07e8 53       		.byte	0x53
 7233 07e9 5A020000 		.4byte	.LVL289
 7234 07ed 5E020000 		.4byte	.LVL290
 7235 07f1 0200     		.2byte	0x2
 7236 07f3 31       		.byte	0x31
 7237 07f4 9F       		.byte	0x9f
 7238 07f5 5E020000 		.4byte	.LVL290
 7239 07f9 76020000 		.4byte	.LVL291
 7240 07fd 0100     		.2byte	0x1
 7241 07ff 53       		.byte	0x53
 7242 0800 78020000 		.4byte	.LVL292
 7243 0804 80020000 		.4byte	.LVL293
 7244 0808 0100     		.2byte	0x1
 7245 080a 53       		.byte	0x53
 7246 080b 84020000 		.4byte	.LVL294
 7247 080f 88020000 		.4byte	.LVL295
 7248 0813 0200     		.2byte	0x2
 7249 0815 31       		.byte	0x31
 7250 0816 9F       		.byte	0x9f
 7251 0817 88020000 		.4byte	.LVL295
 7252 081b A0020000 		.4byte	.LVL296
 7253 081f 0100     		.2byte	0x1
 7254 0821 53       		.byte	0x53
 7255 0822 A2020000 		.4byte	.LVL297
 7256 0826 AA020000 		.4byte	.LVL298
 7257 082a 0100     		.2byte	0x1
 7258 082c 53       		.byte	0x53
 7259 082d AE020000 		.4byte	.LVL299
 7260 0831 B2020000 		.4byte	.LVL300
 7261 0835 0200     		.2byte	0x2
 7262 0837 31       		.byte	0x31
 7263 0838 9F       		.byte	0x9f
 7264 0839 B2020000 		.4byte	.LVL300
 7265 083d CA020000 		.4byte	.LVL301
 7266 0841 0100     		.2byte	0x1
 7267 0843 53       		.byte	0x53
 7268 0844 CC020000 		.4byte	.LVL302
 7269 0848 D2020000 		.4byte	.LVL303
 7270 084c 0100     		.2byte	0x1
 7271 084e 53       		.byte	0x53
 7272 084f F2020000 		.4byte	.LVL304
 7273 0853 14030000 		.4byte	.LVL305
 7274 0857 0200     		.2byte	0x2
 7275 0859 31       		.byte	0x31
 7276 085a 9F       		.byte	0x9f
 7277 085b 14030000 		.4byte	.LVL305
 7278 085f 2C030000 		.4byte	.LVL306
 7279 0863 0100     		.2byte	0x1
 7280 0865 53       		.byte	0x53
 7281 0866 2E030000 		.4byte	.LVL307
 7282 086a 36030000 		.4byte	.LVL308
 7283 086e 0100     		.2byte	0x1
 7284 0870 53       		.byte	0x53
 7285 0871 3A030000 		.4byte	.LVL309
 7286 0875 3E030000 		.4byte	.LVL310
 7287 0879 0200     		.2byte	0x2
 7288 087b 31       		.byte	0x31
ARM GAS  C:\Users\RECEPC~1\AppData\Local\Temp\ccnklw4g.s 			page 149


 7289 087c 9F       		.byte	0x9f
 7290 087d 3E030000 		.4byte	.LVL310
 7291 0881 56030000 		.4byte	.LVL311
 7292 0885 0100     		.2byte	0x1
 7293 0887 53       		.byte	0x53
 7294 0888 58030000 		.4byte	.LVL312
 7295 088c 60030000 		.4byte	.LVL313
 7296 0890 0100     		.2byte	0x1
 7297 0892 53       		.byte	0x53
 7298 0893 64030000 		.4byte	.LVL314
 7299 0897 68030000 		.4byte	.LVL315
 7300 089b 0200     		.2byte	0x2
 7301 089d 31       		.byte	0x31
 7302 089e 9F       		.byte	0x9f
 7303 089f 68030000 		.4byte	.LVL315
 7304 08a3 80030000 		.4byte	.LVL316
 7305 08a7 0100     		.2byte	0x1
 7306 08a9 53       		.byte	0x53
 7307 08aa 82030000 		.4byte	.LVL317
 7308 08ae 88030000 		.4byte	.LVL318
 7309 08b2 0100     		.2byte	0x1
 7310 08b4 53       		.byte	0x53
 7311 08b5 00000000 		.4byte	0
 7312 08b9 00000000 		.4byte	0
 7313              	.LLST17:
 7314 08bd 00000000 		.4byte	.LVL319
 7315 08c1 0E000000 		.4byte	.LVL320
 7316 08c5 0100     		.2byte	0x1
 7317 08c7 50       		.byte	0x50
 7318 08c8 0E000000 		.4byte	.LVL320
 7319 08cc 10000000 		.4byte	.LVL321
 7320 08d0 0400     		.2byte	0x4
 7321 08d2 F3       		.byte	0xf3
 7322 08d3 01       		.uleb128 0x1
 7323 08d4 50       		.byte	0x50
 7324 08d5 9F       		.byte	0x9f
 7325 08d6 10000000 		.4byte	.LVL321
 7326 08da 12000000 		.4byte	.LVL322
 7327 08de 0100     		.2byte	0x1
 7328 08e0 50       		.byte	0x50
 7329 08e1 12000000 		.4byte	.LVL322
 7330 08e5 14000000 		.4byte	.LFE71
 7331 08e9 0400     		.2byte	0x4
 7332 08eb F3       		.byte	0xf3
 7333 08ec 01       		.uleb128 0x1
 7334 08ed 50       		.byte	0x50
 7335 08ee 9F       		.byte	0x9f
 7336 08ef 00000000 		.4byte	0
 7337 08f3 00000000 		.4byte	0
 7338              	.LLST18:
 7339 08f7 00000000 		.4byte	.LVL319
 7340 08fb 12000000 		.4byte	.LVL322
 7341 08ff 0200     		.2byte	0x2
 7342 0901 30       		.byte	0x30
 7343 0902 9F       		.byte	0x9f
 7344 0903 12000000 		.4byte	.LVL322
 7345 0907 14000000 		.4byte	.LFE71
ARM GAS  C:\Users\RECEPC~1\AppData\Local\Temp\ccnklw4g.s 			page 150


 7346 090b 0100     		.2byte	0x1
 7347 090d 50       		.byte	0x50
 7348 090e 00000000 		.4byte	0
 7349 0912 00000000 		.4byte	0
 7350              	.LLST19:
 7351 0916 00000000 		.4byte	.LVL323
 7352 091a 0E000000 		.4byte	.LVL326
 7353 091e 0100     		.2byte	0x1
 7354 0920 50       		.byte	0x50
 7355 0921 0E000000 		.4byte	.LVL326
 7356 0925 1A000000 		.4byte	.LVL327
 7357 0929 0100     		.2byte	0x1
 7358 092b 50       		.byte	0x50
 7359 092c 00000000 		.4byte	0
 7360 0930 00000000 		.4byte	0
 7361              	.LLST20:
 7362 0934 00000000 		.4byte	.LVL323
 7363 0938 04000000 		.4byte	.LVL324
 7364 093c 0200     		.2byte	0x2
 7365 093e 30       		.byte	0x30
 7366 093f 9F       		.byte	0x9f
 7367 0940 04000000 		.4byte	.LVL324
 7368 0944 1A000000 		.4byte	.LVL327
 7369 0948 0100     		.2byte	0x1
 7370 094a 51       		.byte	0x51
 7371 094b 1A000000 		.4byte	.LVL327
 7372 094f 1C000000 		.4byte	.LVL328
 7373 0953 0100     		.2byte	0x1
 7374 0955 50       		.byte	0x50
 7375 0956 1C000000 		.4byte	.LVL328
 7376 095a 20000000 		.4byte	.LVL329
 7377 095e 0400     		.2byte	0x4
 7378 0960 70       		.byte	0x70
 7379 0961 00       		.sleb128 0
 7380 0962 1F       		.byte	0x1f
 7381 0963 9F       		.byte	0x9f
 7382 0964 20000000 		.4byte	.LVL329
 7383 0968 26000000 		.4byte	.LFE72
 7384 096c 0600     		.2byte	0x6
 7385 096e 71       		.byte	0x71
 7386 096f 00       		.sleb128 0
 7387 0970 72       		.byte	0x72
 7388 0971 00       		.sleb128 0
 7389 0972 22       		.byte	0x22
 7390 0973 9F       		.byte	0x9f
 7391 0974 00000000 		.4byte	0
 7392 0978 00000000 		.4byte	0
 7393              	.LLST21:
 7394 097c 00000000 		.4byte	.LVL330
 7395 0980 1B000000 		.4byte	.LVL333-1
 7396 0984 0100     		.2byte	0x1
 7397 0986 50       		.byte	0x50
 7398 0987 1B000000 		.4byte	.LVL333-1
 7399 098b 10030000 		.4byte	.LFE67
 7400 098f 0400     		.2byte	0x4
 7401 0991 F3       		.byte	0xf3
 7402 0992 01       		.uleb128 0x1
ARM GAS  C:\Users\RECEPC~1\AppData\Local\Temp\ccnklw4g.s 			page 151


 7403 0993 50       		.byte	0x50
 7404 0994 9F       		.byte	0x9f
 7405 0995 00000000 		.4byte	0
 7406 0999 00000000 		.4byte	0
 7407              	.LLST22:
 7408 099d 00000000 		.4byte	.LVL330
 7409 09a1 1B000000 		.4byte	.LVL333-1
 7410 09a5 0100     		.2byte	0x1
 7411 09a7 51       		.byte	0x51
 7412 09a8 1B000000 		.4byte	.LVL333-1
 7413 09ac 10030000 		.4byte	.LFE67
 7414 09b0 0400     		.2byte	0x4
 7415 09b2 F3       		.byte	0xf3
 7416 09b3 01       		.uleb128 0x1
 7417 09b4 51       		.byte	0x51
 7418 09b5 9F       		.byte	0x9f
 7419 09b6 00000000 		.4byte	0
 7420 09ba 00000000 		.4byte	0
 7421              	.LLST23:
 7422 09be 00000000 		.4byte	.LVL330
 7423 09c2 1B000000 		.4byte	.LVL333-1
 7424 09c6 0100     		.2byte	0x1
 7425 09c8 52       		.byte	0x52
 7426 09c9 1B000000 		.4byte	.LVL333-1
 7427 09cd 86010000 		.4byte	.LVL392
 7428 09d1 0100     		.2byte	0x1
 7429 09d3 54       		.byte	0x54
 7430 09d4 86010000 		.4byte	.LVL392
 7431 09d8 A6010000 		.4byte	.LVL398
 7432 09dc 0400     		.2byte	0x4
 7433 09de F3       		.byte	0xf3
 7434 09df 01       		.uleb128 0x1
 7435 09e0 52       		.byte	0x52
 7436 09e1 9F       		.byte	0x9f
 7437 09e2 A6010000 		.4byte	.LVL398
 7438 09e6 D4020000 		.4byte	.LVL446
 7439 09ea 0100     		.2byte	0x1
 7440 09ec 54       		.byte	0x54
 7441 09ed D4020000 		.4byte	.LVL446
 7442 09f1 F4020000 		.4byte	.LVL452
 7443 09f5 0400     		.2byte	0x4
 7444 09f7 F3       		.byte	0xf3
 7445 09f8 01       		.uleb128 0x1
 7446 09f9 52       		.byte	0x52
 7447 09fa 9F       		.byte	0x9f
 7448 09fb F4020000 		.4byte	.LVL452
 7449 09ff FA020000 		.4byte	.LVL454
 7450 0a03 0100     		.2byte	0x1
 7451 0a05 54       		.byte	0x54
 7452 0a06 FA020000 		.4byte	.LVL454
 7453 0a0a 10030000 		.4byte	.LFE67
 7454 0a0e 0400     		.2byte	0x4
 7455 0a10 F3       		.byte	0xf3
 7456 0a11 01       		.uleb128 0x1
 7457 0a12 52       		.byte	0x52
 7458 0a13 9F       		.byte	0x9f
 7459 0a14 00000000 		.4byte	0
ARM GAS  C:\Users\RECEPC~1\AppData\Local\Temp\ccnklw4g.s 			page 152


 7460 0a18 00000000 		.4byte	0
 7461              	.LLST24:
 7462 0a1c 00000000 		.4byte	.LVL330
 7463 0a20 0C000000 		.4byte	.LVL331
 7464 0a24 0100     		.2byte	0x1
 7465 0a26 53       		.byte	0x53
 7466 0a27 0C000000 		.4byte	.LVL331
 7467 0a2b 18000000 		.4byte	.LVL332
 7468 0a2f 0400     		.2byte	0x4
 7469 0a31 F3       		.byte	0xf3
 7470 0a32 01       		.uleb128 0x1
 7471 0a33 53       		.byte	0x53
 7472 0a34 9F       		.byte	0x9f
 7473 0a35 18000000 		.4byte	.LVL332
 7474 0a39 10030000 		.4byte	.LFE67
 7475 0a3d 0200     		.2byte	0x2
 7476 0a3f 30       		.byte	0x30
 7477 0a40 9F       		.byte	0x9f
 7478 0a41 00000000 		.4byte	0
 7479 0a45 00000000 		.4byte	0
 7480              	.LLST25:
 7481 0a49 1C000000 		.4byte	.LVL333
 7482 0a4d 1E000000 		.4byte	.LVL334
 7483 0a51 0100     		.2byte	0x1
 7484 0a53 50       		.byte	0x50
 7485 0a54 00000000 		.4byte	0
 7486 0a58 00000000 		.4byte	0
 7487              	.LLST26:
 7488 0a5c 18000000 		.4byte	.LVL332
 7489 0a60 54000000 		.4byte	.LVL343
 7490 0a64 0200     		.2byte	0x2
 7491 0a66 30       		.byte	0x30
 7492 0a67 9F       		.byte	0x9f
 7493 0a68 54000000 		.4byte	.LVL343
 7494 0a6c 5A000000 		.4byte	.LVL344
 7495 0a70 0200     		.2byte	0x2
 7496 0a72 31       		.byte	0x31
 7497 0a73 9F       		.byte	0x9f
 7498 0a74 5A000000 		.4byte	.LVL344
 7499 0a78 72000000 		.4byte	.LVL345
 7500 0a7c 0200     		.2byte	0x2
 7501 0a7e 32       		.byte	0x32
 7502 0a7f 9F       		.byte	0x9f
 7503 0a80 72000000 		.4byte	.LVL345
 7504 0a84 78000000 		.4byte	.LVL346
 7505 0a88 0200     		.2byte	0x2
 7506 0a8a 33       		.byte	0x33
 7507 0a8b 9F       		.byte	0x9f
 7508 0a8c 78000000 		.4byte	.LVL346
 7509 0a90 86000000 		.4byte	.LVL347
 7510 0a94 0200     		.2byte	0x2
 7511 0a96 34       		.byte	0x34
 7512 0a97 9F       		.byte	0x9f
 7513 0a98 86000000 		.4byte	.LVL347
 7514 0a9c 8C000000 		.4byte	.LVL348
 7515 0aa0 0200     		.2byte	0x2
 7516 0aa2 35       		.byte	0x35
ARM GAS  C:\Users\RECEPC~1\AppData\Local\Temp\ccnklw4g.s 			page 153


 7517 0aa3 9F       		.byte	0x9f
 7518 0aa4 8C000000 		.4byte	.LVL348
 7519 0aa8 B4000000 		.4byte	.LVL354
 7520 0aac 0200     		.2byte	0x2
 7521 0aae 36       		.byte	0x36
 7522 0aaf 9F       		.byte	0x9f
 7523 0ab0 B4000000 		.4byte	.LVL354
 7524 0ab4 C4000000 		.4byte	.LVL356
 7525 0ab8 0100     		.2byte	0x1
 7526 0aba 53       		.byte	0x53
 7527 0abb C6000000 		.4byte	.LVL357
 7528 0abf FC000000 		.4byte	.LVL367
 7529 0ac3 0100     		.2byte	0x1
 7530 0ac5 53       		.byte	0x53
 7531 0ac6 FC000000 		.4byte	.LVL367
 7532 0aca FE000000 		.4byte	.LVL368
 7533 0ace 0100     		.2byte	0x1
 7534 0ad0 52       		.byte	0x52
 7535 0ad1 FE000000 		.4byte	.LVL368
 7536 0ad5 0A010000 		.4byte	.LVL369
 7537 0ad9 0100     		.2byte	0x1
 7538 0adb 53       		.byte	0x53
 7539 0adc 0C010000 		.4byte	.LVL370
 7540 0ae0 42010000 		.4byte	.LVL380
 7541 0ae4 0100     		.2byte	0x1
 7542 0ae6 53       		.byte	0x53
 7543 0ae7 42010000 		.4byte	.LVL380
 7544 0aeb 44010000 		.4byte	.LVL381
 7545 0aef 0100     		.2byte	0x1
 7546 0af1 52       		.byte	0x52
 7547 0af2 44010000 		.4byte	.LVL381
 7548 0af6 50010000 		.4byte	.LVL382
 7549 0afa 0100     		.2byte	0x1
 7550 0afc 53       		.byte	0x53
 7551 0afd 52010000 		.4byte	.LVL383
 7552 0b01 68010000 		.4byte	.LVL387
 7553 0b05 0100     		.2byte	0x1
 7554 0b07 53       		.byte	0x53
 7555 0b08 68010000 		.4byte	.LVL387
 7556 0b0c 78010000 		.4byte	.LVL389
 7557 0b10 0100     		.2byte	0x1
 7558 0b12 55       		.byte	0x55
 7559 0b13 78010000 		.4byte	.LVL389
 7560 0b17 7A010000 		.4byte	.LVL390
 7561 0b1b 0300     		.2byte	0x3
 7562 0b1d 75       		.byte	0x75
 7563 0b1e 7F       		.sleb128 -1
 7564 0b1f 9F       		.byte	0x9f
 7565 0b20 7A010000 		.4byte	.LVL390
 7566 0b24 A6010000 		.4byte	.LVL398
 7567 0b28 0100     		.2byte	0x1
 7568 0b2a 55       		.byte	0x55
 7569 0b2b A6010000 		.4byte	.LVL398
 7570 0b2f C0010000 		.4byte	.LVL399
 7571 0b33 0200     		.2byte	0x2
 7572 0b35 32       		.byte	0x32
 7573 0b36 9F       		.byte	0x9f
ARM GAS  C:\Users\RECEPC~1\AppData\Local\Temp\ccnklw4g.s 			page 154


 7574 0b37 C0010000 		.4byte	.LVL399
 7575 0b3b C6010000 		.4byte	.LVL400
 7576 0b3f 0200     		.2byte	0x2
 7577 0b41 33       		.byte	0x33
 7578 0b42 9F       		.byte	0x9f
 7579 0b43 C6010000 		.4byte	.LVL400
 7580 0b47 D4010000 		.4byte	.LVL401
 7581 0b4b 0200     		.2byte	0x2
 7582 0b4d 34       		.byte	0x34
 7583 0b4e 9F       		.byte	0x9f
 7584 0b4f D4010000 		.4byte	.LVL401
 7585 0b53 DA010000 		.4byte	.LVL402
 7586 0b57 0200     		.2byte	0x2
 7587 0b59 35       		.byte	0x35
 7588 0b5a 9F       		.byte	0x9f
 7589 0b5b DA010000 		.4byte	.LVL402
 7590 0b5f 02020000 		.4byte	.LVL408
 7591 0b63 0200     		.2byte	0x2
 7592 0b65 36       		.byte	0x36
 7593 0b66 9F       		.byte	0x9f
 7594 0b67 02020000 		.4byte	.LVL408
 7595 0b6b 12020000 		.4byte	.LVL410
 7596 0b6f 0100     		.2byte	0x1
 7597 0b71 53       		.byte	0x53
 7598 0b72 14020000 		.4byte	.LVL411
 7599 0b76 4A020000 		.4byte	.LVL421
 7600 0b7a 0100     		.2byte	0x1
 7601 0b7c 53       		.byte	0x53
 7602 0b7d 4A020000 		.4byte	.LVL421
 7603 0b81 4C020000 		.4byte	.LVL422
 7604 0b85 0100     		.2byte	0x1
 7605 0b87 52       		.byte	0x52
 7606 0b88 4C020000 		.4byte	.LVL422
 7607 0b8c 58020000 		.4byte	.LVL423
 7608 0b90 0100     		.2byte	0x1
 7609 0b92 53       		.byte	0x53
 7610 0b93 5A020000 		.4byte	.LVL424
 7611 0b97 90020000 		.4byte	.LVL434
 7612 0b9b 0100     		.2byte	0x1
 7613 0b9d 53       		.byte	0x53
 7614 0b9e 90020000 		.4byte	.LVL434
 7615 0ba2 92020000 		.4byte	.LVL435
 7616 0ba6 0100     		.2byte	0x1
 7617 0ba8 52       		.byte	0x52
 7618 0ba9 92020000 		.4byte	.LVL435
 7619 0bad 9E020000 		.4byte	.LVL436
 7620 0bb1 0100     		.2byte	0x1
 7621 0bb3 53       		.byte	0x53
 7622 0bb4 A0020000 		.4byte	.LVL437
 7623 0bb8 B6020000 		.4byte	.LVL441
 7624 0bbc 0100     		.2byte	0x1
 7625 0bbe 53       		.byte	0x53
 7626 0bbf B6020000 		.4byte	.LVL441
 7627 0bc3 C6020000 		.4byte	.LVL443
 7628 0bc7 0100     		.2byte	0x1
 7629 0bc9 55       		.byte	0x55
 7630 0bca C6020000 		.4byte	.LVL443
ARM GAS  C:\Users\RECEPC~1\AppData\Local\Temp\ccnklw4g.s 			page 155


 7631 0bce C8020000 		.4byte	.LVL444
 7632 0bd2 0300     		.2byte	0x3
 7633 0bd4 75       		.byte	0x75
 7634 0bd5 7F       		.sleb128 -1
 7635 0bd6 9F       		.byte	0x9f
 7636 0bd7 C8020000 		.4byte	.LVL444
 7637 0bdb F4020000 		.4byte	.LVL452
 7638 0bdf 0100     		.2byte	0x1
 7639 0be1 55       		.byte	0x55
 7640 0be2 F4020000 		.4byte	.LVL452
 7641 0be6 F8020000 		.4byte	.LVL453
 7642 0bea 0200     		.2byte	0x2
 7643 0bec 30       		.byte	0x30
 7644 0bed 9F       		.byte	0x9f
 7645 0bee F8020000 		.4byte	.LVL453
 7646 0bf2 FA020000 		.4byte	.LVL454
 7647 0bf6 0200     		.2byte	0x2
 7648 0bf8 32       		.byte	0x32
 7649 0bf9 9F       		.byte	0x9f
 7650 0bfa 00000000 		.4byte	0
 7651 0bfe 00000000 		.4byte	0
 7652              	.LLST27:
 7653 0c02 98000000 		.4byte	.LVL349
 7654 0c06 A4000000 		.4byte	.LVL350
 7655 0c0a 0100     		.2byte	0x1
 7656 0c0c 53       		.byte	0x53
 7657 0c0d A6000000 		.4byte	.LVL351
 7658 0c11 A8000000 		.4byte	.LVL352
 7659 0c15 0100     		.2byte	0x1
 7660 0c17 53       		.byte	0x53
 7661 0c18 AA000000 		.4byte	.LVL353
 7662 0c1c B8000000 		.4byte	.LVL355
 7663 0c20 0100     		.2byte	0x1
 7664 0c22 53       		.byte	0x53
 7665 0c23 B8000000 		.4byte	.LVL355
 7666 0c27 C8000000 		.4byte	.LVL358
 7667 0c2b 0100     		.2byte	0x1
 7668 0c2d 52       		.byte	0x52
 7669 0c2e CA000000 		.4byte	.LVL359
 7670 0c32 CE000000 		.4byte	.LVL360
 7671 0c36 0100     		.2byte	0x1
 7672 0c38 52       		.byte	0x52
 7673 0c39 D4000000 		.4byte	.LVL361
 7674 0c3d D8000000 		.4byte	.LVL362
 7675 0c41 0100     		.2byte	0x1
 7676 0c43 53       		.byte	0x53
 7677 0c44 D8000000 		.4byte	.LVL362
 7678 0c48 F0000000 		.4byte	.LVL365
 7679 0c4c 0100     		.2byte	0x1
 7680 0c4e 52       		.byte	0x52
 7681 0c4f F2000000 		.4byte	.LVL366
 7682 0c53 0E010000 		.4byte	.LVL371
 7683 0c57 0100     		.2byte	0x1
 7684 0c59 52       		.byte	0x52
 7685 0c5a 10010000 		.4byte	.LVL372
 7686 0c5e 14010000 		.4byte	.LVL373
 7687 0c62 0100     		.2byte	0x1
ARM GAS  C:\Users\RECEPC~1\AppData\Local\Temp\ccnklw4g.s 			page 156


 7688 0c64 52       		.byte	0x52
 7689 0c65 1A010000 		.4byte	.LVL374
 7690 0c69 1E010000 		.4byte	.LVL375
 7691 0c6d 0100     		.2byte	0x1
 7692 0c6f 53       		.byte	0x53
 7693 0c70 1E010000 		.4byte	.LVL375
 7694 0c74 36010000 		.4byte	.LVL378
 7695 0c78 0100     		.2byte	0x1
 7696 0c7a 52       		.byte	0x52
 7697 0c7b 38010000 		.4byte	.LVL379
 7698 0c7f 54010000 		.4byte	.LVL384
 7699 0c83 0100     		.2byte	0x1
 7700 0c85 52       		.byte	0x52
 7701 0c86 56010000 		.4byte	.LVL385
 7702 0c8a 5A010000 		.4byte	.LVL386
 7703 0c8e 0100     		.2byte	0x1
 7704 0c90 52       		.byte	0x52
 7705 0c91 84010000 		.4byte	.LVL391
 7706 0c95 88010000 		.4byte	.LVL393
 7707 0c99 0200     		.2byte	0x2
 7708 0c9b 30       		.byte	0x30
 7709 0c9c 9F       		.byte	0x9f
 7710 0c9d 88010000 		.4byte	.LVL393
 7711 0ca1 96010000 		.4byte	.LVL395
 7712 0ca5 0100     		.2byte	0x1
 7713 0ca7 54       		.byte	0x54
 7714 0ca8 98010000 		.4byte	.LVL396
 7715 0cac A6010000 		.4byte	.LVL398
 7716 0cb0 0100     		.2byte	0x1
 7717 0cb2 54       		.byte	0x54
 7718 0cb3 E6010000 		.4byte	.LVL403
 7719 0cb7 F2010000 		.4byte	.LVL404
 7720 0cbb 0100     		.2byte	0x1
 7721 0cbd 53       		.byte	0x53
 7722 0cbe F4010000 		.4byte	.LVL405
 7723 0cc2 F6010000 		.4byte	.LVL406
 7724 0cc6 0100     		.2byte	0x1
 7725 0cc8 53       		.byte	0x53
 7726 0cc9 F8010000 		.4byte	.LVL407
 7727 0ccd 06020000 		.4byte	.LVL409
 7728 0cd1 0100     		.2byte	0x1
 7729 0cd3 53       		.byte	0x53
 7730 0cd4 06020000 		.4byte	.LVL409
 7731 0cd8 16020000 		.4byte	.LVL412
 7732 0cdc 0100     		.2byte	0x1
 7733 0cde 52       		.byte	0x52
 7734 0cdf 18020000 		.4byte	.LVL413
 7735 0ce3 1C020000 		.4byte	.LVL414
 7736 0ce7 0100     		.2byte	0x1
 7737 0ce9 52       		.byte	0x52
 7738 0cea 22020000 		.4byte	.LVL415
 7739 0cee 26020000 		.4byte	.LVL416
 7740 0cf2 0100     		.2byte	0x1
 7741 0cf4 53       		.byte	0x53
 7742 0cf5 26020000 		.4byte	.LVL416
 7743 0cf9 3E020000 		.4byte	.LVL419
 7744 0cfd 0100     		.2byte	0x1
ARM GAS  C:\Users\RECEPC~1\AppData\Local\Temp\ccnklw4g.s 			page 157


 7745 0cff 52       		.byte	0x52
 7746 0d00 40020000 		.4byte	.LVL420
 7747 0d04 5C020000 		.4byte	.LVL425
 7748 0d08 0100     		.2byte	0x1
 7749 0d0a 52       		.byte	0x52
 7750 0d0b 5E020000 		.4byte	.LVL426
 7751 0d0f 62020000 		.4byte	.LVL427
 7752 0d13 0100     		.2byte	0x1
 7753 0d15 52       		.byte	0x52
 7754 0d16 68020000 		.4byte	.LVL428
 7755 0d1a 6C020000 		.4byte	.LVL429
 7756 0d1e 0100     		.2byte	0x1
 7757 0d20 53       		.byte	0x53
 7758 0d21 6C020000 		.4byte	.LVL429
 7759 0d25 84020000 		.4byte	.LVL432
 7760 0d29 0100     		.2byte	0x1
 7761 0d2b 52       		.byte	0x52
 7762 0d2c 86020000 		.4byte	.LVL433
 7763 0d30 A2020000 		.4byte	.LVL438
 7764 0d34 0100     		.2byte	0x1
 7765 0d36 52       		.byte	0x52
 7766 0d37 A4020000 		.4byte	.LVL439
 7767 0d3b A8020000 		.4byte	.LVL440
 7768 0d3f 0100     		.2byte	0x1
 7769 0d41 52       		.byte	0x52
 7770 0d42 D2020000 		.4byte	.LVL445
 7771 0d46 D6020000 		.4byte	.LVL447
 7772 0d4a 0200     		.2byte	0x2
 7773 0d4c 30       		.byte	0x30
 7774 0d4d 9F       		.byte	0x9f
 7775 0d4e D6020000 		.4byte	.LVL447
 7776 0d52 E4020000 		.4byte	.LVL449
 7777 0d56 0100     		.2byte	0x1
 7778 0d58 54       		.byte	0x54
 7779 0d59 E6020000 		.4byte	.LVL450
 7780 0d5d F4020000 		.4byte	.LVL452
 7781 0d61 0100     		.2byte	0x1
 7782 0d63 54       		.byte	0x54
 7783 0d64 00000000 		.4byte	0
 7784 0d68 00000000 		.4byte	0
 7785              	.LLST28:
 7786 0d6c 18000000 		.4byte	.LVL332
 7787 0d70 D4000000 		.4byte	.LVL361
 7788 0d74 0200     		.2byte	0x2
 7789 0d76 30       		.byte	0x30
 7790 0d77 9F       		.byte	0x9f
 7791 0d78 D4000000 		.4byte	.LVL361
 7792 0d7c EC000000 		.4byte	.LVL363
 7793 0d80 0100     		.2byte	0x1
 7794 0d82 50       		.byte	0x50
 7795 0d83 EE000000 		.4byte	.LVL364
 7796 0d87 FE000000 		.4byte	.LVL368
 7797 0d8b 0100     		.2byte	0x1
 7798 0d8d 50       		.byte	0x50
 7799 0d8e 1A010000 		.4byte	.LVL374
 7800 0d92 32010000 		.4byte	.LVL376
 7801 0d96 0100     		.2byte	0x1
ARM GAS  C:\Users\RECEPC~1\AppData\Local\Temp\ccnklw4g.s 			page 158


 7802 0d98 50       		.byte	0x50
 7803 0d99 34010000 		.4byte	.LVL377
 7804 0d9d 44010000 		.4byte	.LVL381
 7805 0da1 0100     		.2byte	0x1
 7806 0da3 50       		.byte	0x50
 7807 0da4 A6010000 		.4byte	.LVL398
 7808 0da8 22020000 		.4byte	.LVL415
 7809 0dac 0200     		.2byte	0x2
 7810 0dae 30       		.byte	0x30
 7811 0daf 9F       		.byte	0x9f
 7812 0db0 22020000 		.4byte	.LVL415
 7813 0db4 3A020000 		.4byte	.LVL417
 7814 0db8 0100     		.2byte	0x1
 7815 0dba 50       		.byte	0x50
 7816 0dbb 3C020000 		.4byte	.LVL418
 7817 0dbf 4C020000 		.4byte	.LVL422
 7818 0dc3 0100     		.2byte	0x1
 7819 0dc5 50       		.byte	0x50
 7820 0dc6 68020000 		.4byte	.LVL428
 7821 0dca 80020000 		.4byte	.LVL430
 7822 0dce 0100     		.2byte	0x1
 7823 0dd0 50       		.byte	0x50
 7824 0dd1 82020000 		.4byte	.LVL431
 7825 0dd5 92020000 		.4byte	.LVL435
 7826 0dd9 0100     		.2byte	0x1
 7827 0ddb 50       		.byte	0x50
 7828 0ddc F4020000 		.4byte	.LVL452
 7829 0de0 FA020000 		.4byte	.LVL454
 7830 0de4 0200     		.2byte	0x2
 7831 0de6 30       		.byte	0x30
 7832 0de7 9F       		.byte	0x9f
 7833 0de8 00000000 		.4byte	0
 7834 0dec 00000000 		.4byte	0
 7835              	.LLST29:
 7836 0df0 18000000 		.4byte	.LVL332
 7837 0df4 38000000 		.4byte	.LVL338
 7838 0df8 0200     		.2byte	0x2
 7839 0dfa 30       		.byte	0x30
 7840 0dfb 9F       		.byte	0x9f
 7841 0dfc 38000000 		.4byte	.LVL338
 7842 0e00 3A000000 		.4byte	.LVL339
 7843 0e04 0100     		.2byte	0x1
 7844 0e06 57       		.byte	0x57
 7845 0e07 3A000000 		.4byte	.LVL339
 7846 0e0b 3C000000 		.4byte	.LVL340
 7847 0e0f 0200     		.2byte	0x2
 7848 0e11 30       		.byte	0x30
 7849 0e12 9F       		.byte	0x9f
 7850 0e13 3C000000 		.4byte	.LVL340
 7851 0e17 FE020000 		.4byte	.LVL455
 7852 0e1b 0100     		.2byte	0x1
 7853 0e1d 57       		.byte	0x57
 7854 0e1e 00000000 		.4byte	0
 7855 0e22 00000000 		.4byte	0
 7856              	.LLST30:
 7857 0e26 00000000 		.4byte	.LVL456
 7858 0e2a 0B000000 		.4byte	.LVL458-1
ARM GAS  C:\Users\RECEPC~1\AppData\Local\Temp\ccnklw4g.s 			page 159


 7859 0e2e 0100     		.2byte	0x1
 7860 0e30 50       		.byte	0x50
 7861 0e31 0B000000 		.4byte	.LVL458-1
 7862 0e35 60010000 		.4byte	.LFE68
 7863 0e39 0400     		.2byte	0x4
 7864 0e3b F3       		.byte	0xf3
 7865 0e3c 01       		.uleb128 0x1
 7866 0e3d 50       		.byte	0x50
 7867 0e3e 9F       		.byte	0x9f
 7868 0e3f 00000000 		.4byte	0
 7869 0e43 00000000 		.4byte	0
 7870              	.LLST31:
 7871 0e47 0C000000 		.4byte	.LVL458
 7872 0e4b 14000000 		.4byte	.LVL459
 7873 0e4f 0100     		.2byte	0x1
 7874 0e51 50       		.byte	0x50
 7875 0e52 26000000 		.4byte	.LVL464
 7876 0e56 28000000 		.4byte	.LVL465
 7877 0e5a 0100     		.2byte	0x1
 7878 0e5c 50       		.byte	0x50
 7879 0e5d 00000000 		.4byte	0
 7880 0e61 00000000 		.4byte	0
 7881              	.LLST32:
 7882 0e65 5A000000 		.4byte	.LVL468
 7883 0e69 5E000000 		.4byte	.LVL469
 7884 0e6d 0200     		.2byte	0x2
 7885 0e6f 30       		.byte	0x30
 7886 0e70 9F       		.byte	0x9f
 7887 0e71 5E000000 		.4byte	.LVL469
 7888 0e75 6E000000 		.4byte	.LVL471
 7889 0e79 0100     		.2byte	0x1
 7890 0e7b 54       		.byte	0x54
 7891 0e7c 70000000 		.4byte	.LVL472
 7892 0e80 7A000000 		.4byte	.LVL473
 7893 0e84 0100     		.2byte	0x1
 7894 0e86 54       		.byte	0x54
 7895 0e87 8C000000 		.4byte	.LVL476
 7896 0e8b 90000000 		.4byte	.LVL477
 7897 0e8f 0200     		.2byte	0x2
 7898 0e91 30       		.byte	0x30
 7899 0e92 9F       		.byte	0x9f
 7900 0e93 90000000 		.4byte	.LVL477
 7901 0e97 98000000 		.4byte	.LVL479
 7902 0e9b 0100     		.2byte	0x1
 7903 0e9d 54       		.byte	0x54
 7904 0e9e 9A000000 		.4byte	.LVL480
 7905 0ea2 42010000 		.4byte	.LVL482
 7906 0ea6 0100     		.2byte	0x1
 7907 0ea8 54       		.byte	0x54
 7908 0ea9 00000000 		.4byte	0
 7909 0ead 00000000 		.4byte	0
 7910              	.LLST33:
 7911 0eb1 08000000 		.4byte	.LVL457
 7912 0eb5 24000000 		.4byte	.LVL463
 7913 0eb9 0200     		.2byte	0x2
 7914 0ebb 30       		.byte	0x30
 7915 0ebc 9F       		.byte	0x9f
ARM GAS  C:\Users\RECEPC~1\AppData\Local\Temp\ccnklw4g.s 			page 160


 7916 0ebd 24000000 		.4byte	.LVL463
 7917 0ec1 26000000 		.4byte	.LVL464
 7918 0ec5 0100     		.2byte	0x1
 7919 0ec7 55       		.byte	0x55
 7920 0ec8 26000000 		.4byte	.LVL464
 7921 0ecc 28000000 		.4byte	.LVL465
 7922 0ed0 0200     		.2byte	0x2
 7923 0ed2 30       		.byte	0x30
 7924 0ed3 9F       		.byte	0x9f
 7925 0ed4 28000000 		.4byte	.LVL465
 7926 0ed8 8C000000 		.4byte	.LVL476
 7927 0edc 0100     		.2byte	0x1
 7928 0ede 55       		.byte	0x55
 7929 0edf 00000000 		.4byte	0
 7930 0ee3 00000000 		.4byte	0
 7931              	.LLST34:
 7932 0ee7 08000000 		.4byte	.LVL457
 7933 0eeb 80000000 		.4byte	.LVL475
 7934 0eef 0200     		.2byte	0x2
 7935 0ef1 30       		.byte	0x30
 7936 0ef2 9F       		.byte	0x9f
 7937 0ef3 80000000 		.4byte	.LVL475
 7938 0ef7 42010000 		.4byte	.LVL482
 7939 0efb 0100     		.2byte	0x1
 7940 0efd 56       		.byte	0x56
 7941 0efe 00000000 		.4byte	0
 7942 0f02 00000000 		.4byte	0
 7943              	.LLST35:
 7944 0f06 80000000 		.4byte	.LVL475
 7945 0f0a 42010000 		.4byte	.LVL482
 7946 0f0e 0800     		.2byte	0x8
 7947 0f10 76       		.byte	0x76
 7948 0f11 00       		.sleb128 0
 7949 0f12 08       		.byte	0x8
 7950 0f13 FF       		.byte	0xff
 7951 0f14 1A       		.byte	0x1a
 7952 0f15 31       		.byte	0x31
 7953 0f16 1C       		.byte	0x1c
 7954 0f17 9F       		.byte	0x9f
 7955 0f18 00000000 		.4byte	0
 7956 0f1c 00000000 		.4byte	0
 7957              	.LLST36:
 7958 0f20 8C000000 		.4byte	.LVL476
 7959 0f24 42010000 		.4byte	.LVL482
 7960 0f28 0200     		.2byte	0x2
 7961 0f2a 75       		.byte	0x75
 7962 0f2b 00       		.sleb128 0
 7963 0f2c 00000000 		.4byte	0
 7964 0f30 00000000 		.4byte	0
 7965              	.LLST37:
 7966 0f34 00000000 		.4byte	.LVL483
 7967 0f38 0B000000 		.4byte	.LVL485-1
 7968 0f3c 0100     		.2byte	0x1
 7969 0f3e 50       		.byte	0x50
 7970 0f3f 0B000000 		.4byte	.LVL485-1
 7971 0f43 D4000000 		.4byte	.LFE69
 7972 0f47 0400     		.2byte	0x4
ARM GAS  C:\Users\RECEPC~1\AppData\Local\Temp\ccnklw4g.s 			page 161


 7973 0f49 F3       		.byte	0xf3
 7974 0f4a 01       		.uleb128 0x1
 7975 0f4b 50       		.byte	0x50
 7976 0f4c 9F       		.byte	0x9f
 7977 0f4d 00000000 		.4byte	0
 7978 0f51 00000000 		.4byte	0
 7979              	.LLST38:
 7980 0f55 0C000000 		.4byte	.LVL485
 7981 0f59 0E000000 		.4byte	.LVL486
 7982 0f5d 0100     		.2byte	0x1
 7983 0f5f 50       		.byte	0x50
 7984 0f60 00000000 		.4byte	0
 7985 0f64 00000000 		.4byte	0
 7986              	.LLST39:
 7987 0f68 5E000000 		.4byte	.LVL495
 7988 0f6c 62000000 		.4byte	.LVL496
 7989 0f70 0200     		.2byte	0x2
 7990 0f72 30       		.byte	0x30
 7991 0f73 9F       		.byte	0x9f
 7992 0f74 62000000 		.4byte	.LVL496
 7993 0f78 72000000 		.4byte	.LVL498
 7994 0f7c 0100     		.2byte	0x1
 7995 0f7e 54       		.byte	0x54
 7996 0f7f 74000000 		.4byte	.LVL499
 7997 0f83 8E000000 		.4byte	.LVL501
 7998 0f87 0100     		.2byte	0x1
 7999 0f89 54       		.byte	0x54
 8000 0f8a A0000000 		.4byte	.LVL504
 8001 0f8e A4000000 		.4byte	.LVL505
 8002 0f92 0200     		.2byte	0x2
 8003 0f94 30       		.byte	0x30
 8004 0f95 9F       		.byte	0x9f
 8005 0f96 A4000000 		.4byte	.LVL505
 8006 0f9a AC000000 		.4byte	.LVL507
 8007 0f9e 0100     		.2byte	0x1
 8008 0fa0 54       		.byte	0x54
 8009 0fa1 AE000000 		.4byte	.LVL508
 8010 0fa5 D0000000 		.4byte	.LVL510
 8011 0fa9 0100     		.2byte	0x1
 8012 0fab 54       		.byte	0x54
 8013 0fac 00000000 		.4byte	0
 8014 0fb0 00000000 		.4byte	0
 8015              	.LLST40:
 8016 0fb4 08000000 		.4byte	.LVL484
 8017 0fb8 28000000 		.4byte	.LVL490
 8018 0fbc 0200     		.2byte	0x2
 8019 0fbe 30       		.byte	0x30
 8020 0fbf 9F       		.byte	0x9f
 8021 0fc0 28000000 		.4byte	.LVL490
 8022 0fc4 2A000000 		.4byte	.LVL491
 8023 0fc8 0100     		.2byte	0x1
 8024 0fca 55       		.byte	0x55
 8025 0fcb 2A000000 		.4byte	.LVL491
 8026 0fcf 2C000000 		.4byte	.LVL492
 8027 0fd3 0200     		.2byte	0x2
 8028 0fd5 30       		.byte	0x30
 8029 0fd6 9F       		.byte	0x9f
ARM GAS  C:\Users\RECEPC~1\AppData\Local\Temp\ccnklw4g.s 			page 162


 8030 0fd7 2C000000 		.4byte	.LVL492
 8031 0fdb 94000000 		.4byte	.LVL503
 8032 0fdf 0100     		.2byte	0x1
 8033 0fe1 55       		.byte	0x55
 8034 0fe2 00000000 		.4byte	0
 8035 0fe6 00000000 		.4byte	0
 8036              	.LLST41:
 8037 0fea 08000000 		.4byte	.LVL484
 8038 0fee 94000000 		.4byte	.LVL503
 8039 0ff2 0200     		.2byte	0x2
 8040 0ff4 30       		.byte	0x30
 8041 0ff5 9F       		.byte	0x9f
 8042 0ff6 94000000 		.4byte	.LVL503
 8043 0ffa D0000000 		.4byte	.LVL510
 8044 0ffe 0100     		.2byte	0x1
 8045 1000 55       		.byte	0x55
 8046 1001 00000000 		.4byte	0
 8047 1005 00000000 		.4byte	0
 8048              	.LLST42:
 8049 1009 94000000 		.4byte	.LVL503
 8050 100d D0000000 		.4byte	.LVL510
 8051 1011 0800     		.2byte	0x8
 8052 1013 75       		.byte	0x75
 8053 1014 00       		.sleb128 0
 8054 1015 08       		.byte	0x8
 8055 1016 FF       		.byte	0xff
 8056 1017 1A       		.byte	0x1a
 8057 1018 31       		.byte	0x31
 8058 1019 1C       		.byte	0x1c
 8059 101a 9F       		.byte	0x9f
 8060 101b 00000000 		.4byte	0
 8061 101f 00000000 		.4byte	0
 8062              	.LLST43:
 8063 1023 A0000000 		.4byte	.LVL504
 8064 1027 D0000000 		.4byte	.LVL510
 8065 102b 0200     		.2byte	0x2
 8066 102d 76       		.byte	0x76
 8067 102e 00       		.sleb128 0
 8068 102f 00000000 		.4byte	0
 8069 1033 00000000 		.4byte	0
 8070              		.section	.debug_aranges,"",%progbits
 8071 0000 64000000 		.4byte	0x64
 8072 0004 0200     		.2byte	0x2
 8073 0006 00000000 		.4byte	.Ldebug_info0
 8074 000a 04       		.byte	0x4
 8075 000b 00       		.byte	0
 8076 000c 0000     		.2byte	0
 8077 000e 0000     		.2byte	0
 8078 0010 00000000 		.4byte	.LFB63
 8079 0014 2E000000 		.4byte	.LFE63-.LFB63
 8080 0018 00000000 		.4byte	.LFB64
 8081 001c 20010000 		.4byte	.LFE64-.LFB64
 8082 0020 00000000 		.4byte	.LFB65
 8083 0024 B4040000 		.4byte	.LFE65-.LFB65
 8084 0028 00000000 		.4byte	.LFB66
 8085 002c DC010000 		.4byte	.LFE66-.LFB66
 8086 0030 00000000 		.4byte	.LFB70
ARM GAS  C:\Users\RECEPC~1\AppData\Local\Temp\ccnklw4g.s 			page 163


 8087 0034 C8030000 		.4byte	.LFE70-.LFB70
 8088 0038 00000000 		.4byte	.LFB71
 8089 003c 14000000 		.4byte	.LFE71-.LFB71
 8090 0040 00000000 		.4byte	.LFB72
 8091 0044 26000000 		.4byte	.LFE72-.LFB72
 8092 0048 00000000 		.4byte	.LFB67
 8093 004c 10030000 		.4byte	.LFE67-.LFB67
 8094 0050 00000000 		.4byte	.LFB68
 8095 0054 60010000 		.4byte	.LFE68-.LFB68
 8096 0058 00000000 		.4byte	.LFB69
 8097 005c D4000000 		.4byte	.LFE69-.LFB69
 8098 0060 00000000 		.4byte	0
 8099 0064 00000000 		.4byte	0
 8100              		.section	.debug_ranges,"",%progbits
 8101              	.Ldebug_ranges0:
 8102 0000 00000000 		.4byte	.LFB63
 8103 0004 2E000000 		.4byte	.LFE63
 8104 0008 00000000 		.4byte	.LFB64
 8105 000c 20010000 		.4byte	.LFE64
 8106 0010 00000000 		.4byte	.LFB65
 8107 0014 B4040000 		.4byte	.LFE65
 8108 0018 00000000 		.4byte	.LFB66
 8109 001c DC010000 		.4byte	.LFE66
 8110 0020 00000000 		.4byte	.LFB70
 8111 0024 C8030000 		.4byte	.LFE70
 8112 0028 00000000 		.4byte	.LFB71
 8113 002c 14000000 		.4byte	.LFE71
 8114 0030 00000000 		.4byte	.LFB72
 8115 0034 26000000 		.4byte	.LFE72
 8116 0038 00000000 		.4byte	.LFB67
 8117 003c 10030000 		.4byte	.LFE67
 8118 0040 00000000 		.4byte	.LFB68
 8119 0044 60010000 		.4byte	.LFE68
 8120 0048 00000000 		.4byte	.LFB69
 8121 004c D4000000 		.4byte	.LFE69
 8122 0050 00000000 		.4byte	0
 8123 0054 00000000 		.4byte	0
 8124              		.section	.debug_line,"",%progbits
 8125              	.Ldebug_line0:
 8126 0000 2F090000 		.section	.debug_str,"MS",%progbits,1
 8126      02007301 
 8126      00000201 
 8126      FB0E0D00 
 8126      01010101 
 8127              	.LASF81:
 8128 0000 5055446E 		.ascii	"PUDn\000"
 8128      00
 8129              	.LASF177:
 8130 0005 636F756E 		.ascii	"count_protector2\000"
 8130      745F7072 
 8130      6F746563 
 8130      746F7232 
 8130      00
 8131              	.LASF124:
 8132 0016 636F756E 		.ascii	"countLCD\000"
 8132      744C4344 
 8132      00
ARM GAS  C:\Users\RECEPC~1\AppData\Local\Temp\ccnklw4g.s 			page 164


 8133              	.LASF194:
 8134 001f 47726164 		.ascii	"GradesHose\000"
 8134      6573486F 
 8134      736500
 8135              	.LASF138:
 8136 002a 64656369 		.ascii	"decimalVolume\000"
 8136      6D616C56 
 8136      6F6C756D 
 8136      6500
 8137              	.LASF149:
 8138 0038 50726576 		.ascii	"PrevStatePump\000"
 8138      53746174 
 8138      6550756D 
 8138      7000
 8139              	.LASF76:
 8140 0046 70756D70 		.ascii	"pumpState\000"
 8140      53746174 
 8140      6500
 8141              	.LASF121:
 8142 0050 636F756E 		.ascii	"countRX\000"
 8142      74525800 
 8143              	.LASF79:
 8144 0058 52467374 		.ascii	"RFstateReport\000"
 8144      61746552 
 8144      65706F72 
 8144      7400
 8145              	.LASF55:
 8146 0066 766F6C75 		.ascii	"volumeQuota\000"
 8146      6D655175 
 8146      6F746100 
 8147              	.LASF167:
 8148 0072 73746174 		.ascii	"statePump\000"
 8148      6550756D 
 8148      7000
 8149              	.LASF64:
 8150 007c 62756666 		.ascii	"buffer\000"
 8150      657200
 8151              	.LASF184:
 8152 0083 62756666 		.ascii	"buffer_rf\000"
 8152      65725F72 
 8152      6600
 8153              	.LASF137:
 8154 008d 64656369 		.ascii	"decimalMoney\000"
 8154      6D616C4D 
 8154      6F6E6579 
 8154      00
 8155              	.LASF34:
 8156 009a 73616C65 		.ascii	"salePerform\000"
 8156      50657266 
 8156      6F726D00 
 8157              	.LASF10:
 8158 00a6 756E7369 		.ascii	"unsigned int\000"
 8158      676E6564 
 8158      20696E74 
 8158      00
 8159              	.LASF172:
 8160 00b3 5072696E 		.ascii	"PrinterType\000"
ARM GAS  C:\Users\RECEPC~1\AppData\Local\Temp\ccnklw4g.s 			page 165


 8160      74657254 
 8160      79706500 
 8161              	.LASF5:
 8162 00bf 5F5F696E 		.ascii	"__int32_t\000"
 8162      7433325F 
 8162      7400
 8163              	.LASF52:
 8164 00c9 666C6167 		.ascii	"flagLiftHandle\000"
 8164      4C696674 
 8164      48616E64 
 8164      6C6500
 8165              	.LASF86:
 8166 00d8 50554D50 		.ascii	"PUMP_FAIL\000"
 8166      5F464149 
 8166      4C00
 8167              	.LASF143:
 8168 00e2 72657369 		.ascii	"residue\000"
 8168      64756500 
 8169              	.LASF155:
 8170 00ea 74656D70 		.ascii	"tempPreset\000"
 8170      50726573 
 8170      657400
 8171              	.LASF22:
 8172 00f5 69645479 		.ascii	"idType\000"
 8172      706500
 8173              	.LASF166:
 8174 00fc 44444D6F 		.ascii	"DDMode\000"
 8174      646500
 8175              	.LASF95:
 8176 0103 6765745F 		.ascii	"get_position\000"
 8176      706F7369 
 8176      74696F6E 
 8176      00
 8177              	.LASF180:
 8178 0110 69645374 		.ascii	"idStation\000"
 8178      6174696F 
 8178      6E00
 8179              	.LASF26:
 8180 011a 73656C65 		.ascii	"selectedSale\000"
 8180      63746564 
 8180      53616C65 
 8180      00
 8181              	.LASF112:
 8182 0127 50756D70 		.ascii	"PumpDataReceive\000"
 8182      44617461 
 8182      52656365 
 8182      69766500 
 8183              	.LASF132:
 8184 0137 666C6167 		.ascii	"flagPoint2\000"
 8184      506F696E 
 8184      743200
 8185              	.LASF122:
 8186 0142 636F756E 		.ascii	"countTX\000"
 8186      74545800 
 8187              	.LASF77:
 8188 014a 6368616E 		.ascii	"changePPU\000"
 8188      67655050 
ARM GAS  C:\Users\RECEPC~1\AppData\Local\Temp\ccnklw4g.s 			page 166


 8188      5500
 8189              	.LASF103:
 8190 0154 67657453 		.ascii	"getSale\000"
 8190      616C6500 
 8191              	.LASF179:
 8192 015c 636F6E74 		.ascii	"controlChar\000"
 8192      726F6C43 
 8192      68617200 
 8193              	.LASF153:
 8194 0168 636F756E 		.ascii	"counterRF\000"
 8194      74657252 
 8194      4600
 8195              	.LASF110:
 8196 0172 70726573 		.ascii	"preset\000"
 8196      657400
 8197              	.LASF185:
 8198 0179 62756666 		.ascii	"buffer_tx\000"
 8198      65725F74 
 8198      7800
 8199              	.LASF87:
 8200 0183 50554D50 		.ascii	"PUMP_IDLE\000"
 8200      5F49444C 
 8200      4500
 8201              	.LASF16:
 8202 018d 666C6F61 		.ascii	"float\000"
 8202      7400
 8203              	.LASF111:
 8204 0193 53656E64 		.ascii	"SendComand\000"
 8204      436F6D61 
 8204      6E6400
 8205              	.LASF157:
 8206 019e 43477261 		.ascii	"CGrade\000"
 8206      646500
 8207              	.LASF203:
 8208 01a5 50756D70 		.ascii	"Pump_ClearRxBuffer\000"
 8208      5F436C65 
 8208      61725278 
 8208      42756666 
 8208      657200
 8209              	.LASF158:
 8210 01b8 53686966 		.ascii	"ShiftState\000"
 8210      74537461 
 8210      746500
 8211              	.LASF163:
 8212 01c3 4D6F6E65 		.ascii	"MoneyDec\000"
 8212      79446563 
 8212      00
 8213              	.LASF195:
 8214 01cc 62756666 		.ascii	"bufferDisplay1\000"
 8214      65724469 
 8214      73706C61 
 8214      793100
 8215              	.LASF73:
 8216 01db 686F7365 		.ascii	"hose\000"
 8216      00
 8217              	.LASF197:
 8218 01e0 62756666 		.ascii	"bufferDisplay3\000"
ARM GAS  C:\Users\RECEPC~1\AppData\Local\Temp\ccnklw4g.s 			page 167


 8218      65724469 
 8218      73706C61 
 8218      793300
 8219              	.LASF9:
 8220 01ef 6C6F6E67 		.ascii	"long long unsigned int\000"
 8220      206C6F6E 
 8220      6720756E 
 8220      7369676E 
 8220      65642069 
 8221              	.LASF92:
 8222 0206 50554D50 		.ascii	"PUMP_FEOT\000"
 8222      5F46454F 
 8222      5400
 8223              	.LASF150:
 8224 0210 506C6174 		.ascii	"PlateRequest\000"
 8224      65526571 
 8224      75657374 
 8224      00
 8225              	.LASF42:
 8226 021d 746F7461 		.ascii	"totalVolumePrevious\000"
 8226      6C566F6C 
 8226      756D6550 
 8226      72657669 
 8226      6F757300 
 8227              	.LASF178:
 8228 0231 636F6E66 		.ascii	"configAccess\000"
 8228      69674163 
 8228      63657373 
 8228      00
 8229              	.LASF170:
 8230 023e 64696769 		.ascii	"digits\000"
 8230      747300
 8231              	.LASF85:
 8232 0245 5F50554D 		.ascii	"_PUMP_STATES_\000"
 8232      505F5354 
 8232      41544553 
 8232      5F00
 8233              	.LASF140:
 8234 0253 74696D65 		.ascii	"time\000"
 8234      00
 8235              	.LASF182:
 8236 0258 7072696E 		.ascii	"printPortA\000"
 8236      74506F72 
 8236      744100
 8237              	.LASF183:
 8238 0263 7072696E 		.ascii	"printPortB\000"
 8238      74506F72 
 8238      744200
 8239              	.LASF104:
 8240 026e 72657476 		.ascii	"retval\000"
 8240      616C00
 8241              	.LASF101:
 8242 0275 76616C75 		.ascii	"value\000"
 8242      6500
 8243              	.LASF37:
 8244 027b 70726F64 		.ascii	"productType\000"
 8244      75637454 
ARM GAS  C:\Users\RECEPC~1\AppData\Local\Temp\ccnklw4g.s 			page 168


 8244      79706500 
 8245              	.LASF133:
 8246 0287 70726F64 		.ascii	"productNumber\000"
 8246      7563744E 
 8246      756D6265 
 8246      7200
 8247              	.LASF144:
 8248 0295 69645365 		.ascii	"idSeller\000"
 8248      6C6C6572 
 8248      00
 8249              	.LASF23:
 8250 029e 69645365 		.ascii	"idSerial\000"
 8250      7269616C 
 8250      00
 8251              	.LASF169:
 8252 02a7 6C6F636B 		.ascii	"lockTurn\000"
 8252      5475726E 
 8252      00
 8253              	.LASF114:
 8254 02b0 73696465 		.ascii	"side\000"
 8254      00
 8255              	.LASF142:
 8256 02b5 73637265 		.ascii	"screen\000"
 8256      656E00
 8257              	.LASF201:
 8258 02bc 50756D70 		.ascii	"Pump_GetRxBufferSize\000"
 8258      5F476574 
 8258      52784275 
 8258      66666572 
 8258      53697A65 
 8259              	.LASF48:
 8260 02d1 6D696C65 		.ascii	"mileageSale\000"
 8260      61676553 
 8260      616C6500 
 8261              	.LASF59:
 8262 02dd 666C6167 		.ascii	"flagChangePPU\000"
 8262      4368616E 
 8262      67655050 
 8262      5500
 8263              	.LASF206:
 8264 02eb 2E5C7072 		.ascii	".\\protocol.c\000"
 8264      6F746F63 
 8264      6F6C2E63 
 8264      00
 8265              	.LASF105:
 8266 02f8 5F426F6F 		.ascii	"_Bool\000"
 8266      6C00
 8267              	.LASF61:
 8268 02fe 666C6167 		.ascii	"flagActiveSale\000"
 8268      41637469 
 8268      76655361 
 8268      6C6500
 8269              	.LASF125:
 8270 030d 666C6F77 		.ascii	"flowDisplay1\000"
 8270      44697370 
 8270      6C617931 
 8270      00
ARM GAS  C:\Users\RECEPC~1\AppData\Local\Temp\ccnklw4g.s 			page 169


 8271              	.LASF126:
 8272 031a 666C6F77 		.ascii	"flowDisplay2\000"
 8272      44697370 
 8272      6C617932 
 8272      00
 8273              	.LASF127:
 8274 0327 666C6F77 		.ascii	"flowDisplay3\000"
 8274      44697370 
 8274      6C617933 
 8274      00
 8275              	.LASF128:
 8276 0334 666C6F77 		.ascii	"flowDisplay4\000"
 8276      44697370 
 8276      6C617934 
 8276      00
 8277              	.LASF66:
 8278 0341 746F7461 		.ascii	"totalsHandle\000"
 8278      6C734861 
 8278      6E646C65 
 8278      00
 8279              	.LASF36:
 8280 034e 70726573 		.ascii	"presetValue\000"
 8280      65745661 
 8280      6C756500 
 8281              	.LASF117:
 8282 035a 50756D70 		.ascii	"Pump_rxBuffer\000"
 8282      5F727842 
 8282      75666665 
 8282      7200
 8283              	.LASF49:
 8284 0368 6964656E 		.ascii	"identySale\000"
 8284      74795361 
 8284      6C6500
 8285              	.LASF33:
 8286 0373 73616C65 		.ascii	"saleType\000"
 8286      54797065 
 8286      00
 8287              	.LASF90:
 8288 037c 50554D50 		.ascii	"PUMP_BUSY\000"
 8288      5F425553 
 8288      5900
 8289              	.LASF116:
 8290 0386 50756D70 		.ascii	"PumpHoseActiveState\000"
 8290      486F7365 
 8290      41637469 
 8290      76655374 
 8290      61746500 
 8291              	.LASF31:
 8292 039a 76616C75 		.ascii	"valueKeys\000"
 8292      654B6579 
 8292      7300
 8293              	.LASF20:
 8294 03a4 63686172 		.ascii	"char\000"
 8294      00
 8295              	.LASF162:
 8296 03a9 436F6E76 		.ascii	"ConversionFactor\000"
 8296      65727369 
ARM GAS  C:\Users\RECEPC~1\AppData\Local\Temp\ccnklw4g.s 			page 170


 8296      6F6E4661 
 8296      63746F72 
 8296      00
 8297              	.LASF93:
 8298 03ba 50554D50 		.ascii	"PUMP_STOPPED\000"
 8298      5F53544F 
 8298      50504544 
 8298      00
 8299              	.LASF129:
 8300 03c7 6E756D62 		.ascii	"numberKeys1\000"
 8300      65724B65 
 8300      79733100 
 8301              	.LASF130:
 8302 03d3 6E756D62 		.ascii	"numberKeys2\000"
 8302      65724B65 
 8302      79733200 
 8303              	.LASF115:
 8304 03df 42756666 		.ascii	"BufferSize\000"
 8304      65725369 
 8304      7A6500
 8305              	.LASF200:
 8306 03ea 43794465 		.ascii	"CyDelay\000"
 8306      6C617900 
 8307              	.LASF94:
 8308 03f2 6765745F 		.ascii	"get_state\000"
 8308      73746174 
 8308      6500
 8309              	.LASF14:
 8310 03fc 75696E74 		.ascii	"uint16\000"
 8310      313600
 8311              	.LASF83:
 8312 0403 4C52436E 		.ascii	"LRCn\000"
 8312      00
 8313              	.LASF141:
 8314 0408 64617465 		.ascii	"date\000"
 8314      00
 8315              	.LASF11:
 8316 040d 75696E74 		.ascii	"uint8_t\000"
 8316      385F7400 
 8317              	.LASF202:
 8318 0415 50756D70 		.ascii	"Pump_ReadRxData\000"
 8318      5F526561 
 8318      64527844 
 8318      61746100 
 8319              	.LASF51:
 8320 0425 666C6167 		.ascii	"flagPayment\000"
 8320      5061796D 
 8320      656E7400 
 8321              	.LASF19:
 8322 0431 63686172 		.ascii	"char8\000"
 8322      3800
 8323              	.LASF56:
 8324 0437 70707551 		.ascii	"ppuQuota\000"
 8324      756F7461 
 8324      00
 8325              	.LASF44:
 8326 0440 746F7461 		.ascii	"totalMoneyAfter\000"
ARM GAS  C:\Users\RECEPC~1\AppData\Local\Temp\ccnklw4g.s 			page 171


 8326      6C4D6F6E 
 8326      65794166 
 8326      74657200 
 8327              	.LASF54:
 8328 0450 6D6F6E65 		.ascii	"moneyQuota\000"
 8328      7951756F 
 8328      746100
 8329              	.LASF58:
 8330 045b 7072696E 		.ascii	"printers\000"
 8330      74657273 
 8330      00
 8331              	.LASF152:
 8332 0464 41637469 		.ascii	"ActiveRF\000"
 8332      76655246 
 8332      00
 8333              	.LASF68:
 8334 046d 6D6F6E65 		.ascii	"moneySale\000"
 8334      7953616C 
 8334      6500
 8335              	.LASF8:
 8336 0477 6C6F6E67 		.ascii	"long long int\000"
 8336      206C6F6E 
 8336      6720696E 
 8336      7400
 8337              	.LASF70:
 8338 0485 70707553 		.ascii	"ppuSale\000"
 8338      616C6500 
 8339              	.LASF119:
 8340 048d 636F756E 		.ascii	"countAnimation1\000"
 8340      74416E69 
 8340      6D617469 
 8340      6F6E3100 
 8341              	.LASF168:
 8342 049d 4E756D50 		.ascii	"NumPositions\000"
 8342      6F736974 
 8342      696F6E73 
 8342      00
 8343              	.LASF148:
 8344 04aa 73746174 		.ascii	"stateBeagleSoft\000"
 8344      65426561 
 8344      676C6553 
 8344      6F667400 
 8345              	.LASF43:
 8346 04ba 746F7461 		.ascii	"totalPPUPrevious\000"
 8346      6C505055 
 8346      50726576 
 8346      696F7573 
 8346      00
 8347              	.LASF120:
 8348 04cb 636F756E 		.ascii	"countAnimation2\000"
 8348      74416E69 
 8348      6D617469 
 8348      6F6E3200 
 8349              	.LASF175:
 8350 04db 74696D65 		.ascii	"timeDownHandle\000"
 8350      446F776E 
 8350      48616E64 
ARM GAS  C:\Users\RECEPC~1\AppData\Local\Temp\ccnklw4g.s 			page 172


 8350      6C6500
 8351              	.LASF32:
 8352 04ea 76656869 		.ascii	"vehicleType\000"
 8352      636C6554 
 8352      79706500 
 8353              	.LASF88:
 8354 04f6 50554D50 		.ascii	"PUMP_CALLING\000"
 8354      5F43414C 
 8354      4C494E47 
 8354      00
 8355              	.LASF186:
 8356 0503 62756666 		.ascii	"buffer_txPreset\000"
 8356      65725F74 
 8356      78507265 
 8356      73657400 
 8357              	.LASF50:
 8358 0513 666C6167 		.ascii	"flagKeyboard\000"
 8358      4B657962 
 8358      6F617264 
 8358      00
 8359              	.LASF102:
 8360 0520 73697A65 		.ascii	"size\000"
 8360      00
 8361              	.LASF113:
 8362 0525 50756D70 		.ascii	"PumpCompleteConfiguration\000"
 8362      436F6D70 
 8362      6C657465 
 8362      436F6E66 
 8362      69677572 
 8363              	.LASF15:
 8364 053f 75696E74 		.ascii	"uint32\000"
 8364      333200
 8365              	.LASF89:
 8366 0546 50554D50 		.ascii	"PUMP_AUTHORIZED\000"
 8366      5F415554 
 8366      484F5249 
 8366      5A454400 
 8367              	.LASF147:
 8368 0556 666C6167 		.ascii	"flagResetMux\000"
 8368      52657365 
 8368      744D7578 
 8368      00
 8369              	.LASF98:
 8370 0563 67726164 		.ascii	"gradeHandle\000"
 8370      6548616E 
 8370      646C6500 
 8371              	.LASF204:
 8372 056f 43795764 		.ascii	"CyWdtClear\000"
 8372      74436C65 
 8372      617200
 8373              	.LASF208:
 8374 057a 50756D70 		.ascii	"PumpIsInValidState\000"
 8374      4973496E 
 8374      56616C69 
 8374      64537461 
 8374      746500
 8375              	.LASF46:
ARM GAS  C:\Users\RECEPC~1\AppData\Local\Temp\ccnklw4g.s 			page 173


 8376 058d 746F7461 		.ascii	"totalPPUAfter\000"
 8376      6C505055 
 8376      41667465 
 8376      7200
 8377              	.LASF99:
 8378 059b 70726963 		.ascii	"priceChange\000"
 8378      65436861 
 8378      6E676500 
 8379              	.LASF29:
 8380 05a7 6B657962 		.ascii	"keyboardWayToPay\000"
 8380      6F617264 
 8380      57617954 
 8380      6F506179 
 8380      00
 8381              	.LASF136:
 8382 05b8 70707578 		.ascii	"ppux10\000"
 8382      313000
 8383              	.LASF41:
 8384 05bf 746F7461 		.ascii	"totalMoneyPrevious\000"
 8384      6C4D6F6E 
 8384      65795072 
 8384      6576696F 
 8384      757300
 8385              	.LASF131:
 8386 05d2 666C6167 		.ascii	"flagPoint1\000"
 8386      506F696E 
 8386      743100
 8387              	.LASF27:
 8388 05dd 6D6F6E65 		.ascii	"moneySelectedSale\000"
 8388      7953656C 
 8388      65637465 
 8388      6453616C 
 8388      6500
 8389              	.LASF139:
 8390 05ef 73796D62 		.ascii	"symbols\000"
 8390      6F6C7300 
 8391              	.LASF174:
 8392 05f7 64617465 		.ascii	"dateDownHandle\000"
 8392      446F776E 
 8392      48616E64 
 8392      6C6500
 8393              	.LASF47:
 8394 0606 6C696365 		.ascii	"licenceSale\000"
 8394      6E636553 
 8394      616C6500 
 8395              	.LASF57:
 8396 0612 70726963 		.ascii	"priceConsign\000"
 8396      65436F6E 
 8396      7369676E 
 8396      00
 8397              	.LASF2:
 8398 061f 73686F72 		.ascii	"short int\000"
 8398      7420696E 
 8398      7400
 8399              	.LASF6:
 8400 0629 6C6F6E67 		.ascii	"long int\000"
 8400      20696E74 
ARM GAS  C:\Users\RECEPC~1\AppData\Local\Temp\ccnklw4g.s 			page 174


 8400      00
 8401              	.LASF193:
 8402 0632 436F7069 		.ascii	"CopiasCredito\000"
 8402      61734372 
 8402      65646974 
 8402      6F00
 8403              	.LASF164:
 8404 0640 566F6C44 		.ascii	"VolDec\000"
 8404      656300
 8405              	.LASF151:
 8406 0647 49444361 		.ascii	"IDCast\000"
 8406      737400
 8407              	.LASF118:
 8408 064e 49544D5F 		.ascii	"ITM_RxBuffer\000"
 8408      52784275 
 8408      66666572 
 8408      00
 8409              	.LASF171:
 8410 065b 68696464 		.ascii	"hiddenKeys\000"
 8410      656E4B65 
 8410      797300
 8411              	.LASF62:
 8412 0666 73686966 		.ascii	"shiftId\000"
 8412      74496400 
 8413              	.LASF145:
 8414 066e 74797065 		.ascii	"typeIdSeller\000"
 8414      49645365 
 8414      6C6C6572 
 8414      00
 8415              	.LASF109:
 8416 067b 73696465 		.ascii	"sideR\000"
 8416      5200
 8417              	.LASF53:
 8418 0681 666C6167 		.ascii	"flagEndSale\000"
 8418      456E6453 
 8418      616C6500 
 8419              	.LASF97:
 8420 068d 67657454 		.ascii	"getTotals\000"
 8420      6F74616C 
 8420      7300
 8421              	.LASF39:
 8422 0697 64617465 		.ascii	"dateLiftHandle\000"
 8422      4C696674 
 8422      48616E64 
 8422      6C6500
 8423              	.LASF84:
 8424 06a6 5F434F4E 		.ascii	"_CONTROL_WORDS_\000"
 8424      54524F4C 
 8424      5F574F52 
 8424      44535F00 
 8425              	.LASF74:
 8426 06b6 686F7365 		.ascii	"hoseNumber\000"
 8426      4E756D62 
 8426      657200
 8427              	.LASF196:
 8428 06c1 62756666 		.ascii	"bufferDisplay2\000"
 8428      65724469 
ARM GAS  C:\Users\RECEPC~1\AppData\Local\Temp\ccnklw4g.s 			page 175


 8428      73706C61 
 8428      793200
 8429              	.LASF188:
 8430 06d0 696E7449 		.ascii	"intIDStation\000"
 8430      44537461 
 8430      74696F6E 
 8430      00
 8431              	.LASF198:
 8432 06dd 62756666 		.ascii	"bufferDisplay4\000"
 8432      65724469 
 8432      73706C61 
 8432      793400
 8433              	.LASF4:
 8434 06ec 5F5F7569 		.ascii	"__uint8_t\000"
 8434      6E74385F 
 8434      7400
 8435              	.LASF146:
 8436 06f6 70617373 		.ascii	"passwordSeller\000"
 8436      776F7264 
 8436      53656C6C 
 8436      657200
 8437              	.LASF45:
 8438 0705 746F7461 		.ascii	"totalVolumeAfter\000"
 8438      6C566F6C 
 8438      756D6541 
 8438      66746572 
 8438      00
 8439              	.LASF161:
 8440 0716 556E6974 		.ascii	"UnitType\000"
 8440      54797065 
 8440      00
 8441              	.LASF18:
 8442 071f 75696E74 		.ascii	"uint64\000"
 8442      363400
 8443              	.LASF134:
 8444 0726 64656C61 		.ascii	"delayPicture1\000"
 8444      79506963 
 8444      74757265 
 8444      3100
 8445              	.LASF135:
 8446 0734 64656C61 		.ascii	"delayPicture2\000"
 8446      79506963 
 8446      74757265 
 8446      3200
 8447              	.LASF38:
 8448 0742 73746174 		.ascii	"stateMux\000"
 8448      654D7578 
 8448      00
 8449              	.LASF189:
 8450 074b 456E6361 		.ascii	"Encabezado1\000"
 8450      62657A61 
 8450      646F3100 
 8451              	.LASF190:
 8452 0757 456E6361 		.ascii	"Encabezado2\000"
 8452      62657A61 
 8452      646F3200 
 8453              	.LASF191:
ARM GAS  C:\Users\RECEPC~1\AppData\Local\Temp\ccnklw4g.s 			page 176


 8454 0763 456E6361 		.ascii	"Encabezado3\000"
 8454      62657A61 
 8454      646F3300 
 8455              	.LASF192:
 8456 076f 456E6361 		.ascii	"Encabezado4\000"
 8456      62657A61 
 8456      646F3400 
 8457              	.LASF21:
 8458 077b 73697A65 		.ascii	"sizetype\000"
 8458      74797065 
 8458      00
 8459              	.LASF7:
 8460 0784 6C6F6E67 		.ascii	"long unsigned int\000"
 8460      20756E73 
 8460      69676E65 
 8460      6420696E 
 8460      7400
 8461              	.LASF165:
 8462 0796 50505544 		.ascii	"PPUDec\000"
 8462      656300
 8463              	.LASF72:
 8464 079d 61637469 		.ascii	"activeHose\000"
 8464      7665486F 
 8464      736500
 8465              	.LASF60:
 8466 07a8 666C6167 		.ascii	"flagPrint\000"
 8466      5072696E 
 8466      7400
 8467              	.LASF12:
 8468 07b2 696E7433 		.ascii	"int32_t\000"
 8468      325F7400 
 8469              	.LASF173:
 8470 07ba 566F6C55 		.ascii	"VolUnit\000"
 8470      6E697400 
 8471              	.LASF82:
 8472 07c2 5052446E 		.ascii	"PRDn\000"
 8472      00
 8473              	.LASF106:
 8474 07c7 4765744C 		.ascii	"GetLRC\000"
 8474      524300
 8475              	.LASF25:
 8476 07ce 666C6167 		.ascii	"flagWayToPayMixed\000"
 8476      57617954 
 8476      6F506179 
 8476      4D697865 
 8476      6400
 8477              	.LASF1:
 8478 07e0 756E7369 		.ascii	"unsigned char\000"
 8478      676E6564 
 8478      20636861 
 8478      7200
 8479              	.LASF199:
 8480 07ee 50756D70 		.ascii	"Pump_PutChar\000"
 8480      5F507574 
 8480      43686172 
 8480      00
 8481              	.LASF205:
ARM GAS  C:\Users\RECEPC~1\AppData\Local\Temp\ccnklw4g.s 			page 177


 8482 07fb 474E5520 		.ascii	"GNU C 4.9.3 20150303 (release) [ARM/embedded-4_9-br"
 8482      4320342E 
 8482      392E3320 
 8482      32303135 
 8482      30333033 
 8483 082e 616E6368 		.ascii	"anch revision 221220] -mcpu=cortex-m3 -mthumb -g -O"
 8483      20726576 
 8483      6973696F 
 8483      6E203232 
 8483      31323230 
 8484 0861 67202D66 		.ascii	"g -ffunction-sections -ffat-lto-objects\000"
 8484      66756E63 
 8484      74696F6E 
 8484      2D736563 
 8484      74696F6E 
 8485              	.LASF30:
 8486 0889 61757468 		.ascii	"authorizationFlag\000"
 8486      6F72697A 
 8486      6174696F 
 8486      6E466C61 
 8486      6700
 8487              	.LASF80:
 8488 089b 70756D70 		.ascii	"pump\000"
 8488      00
 8489              	.LASF91:
 8490 08a0 50554D50 		.ascii	"PUMP_PEOT\000"
 8490      5F50454F 
 8490      5400
 8491              	.LASF207:
 8492 08aa 433A5C55 		.ascii	"C:\\Users\\Recepcion\\Documents\\GitHub\\NSY-DH\\Wo"
 8492      73657273 
 8492      5C526563 
 8492      65706369 
 8492      6F6E5C44 
 8493 08d7 726B7370 		.ascii	"rkspace01\\Design01.cydsn\000"
 8493      61636530 
 8493      315C4465 
 8493      7369676E 
 8493      30312E63 
 8494              	.LASF154:
 8495 08f0 74656D70 		.ascii	"temporal\000"
 8495      6F72616C 
 8495      00
 8496              	.LASF96:
 8497 08f9 73746174 		.ascii	"state\000"
 8497      6500
 8498              	.LASF35:
 8499 08ff 70726573 		.ascii	"presetType\000"
 8499      65745479 
 8499      706500
 8500              	.LASF69:
 8501 090a 766F6C75 		.ascii	"volumeSale\000"
 8501      6D655361 
 8501      6C6500
 8502              	.LASF108:
 8503 0915 50726573 		.ascii	"PresetData\000"
 8503      65744461 
ARM GAS  C:\Users\RECEPC~1\AppData\Local\Temp\ccnklw4g.s 			page 178


 8503      746100
 8504              	.LASF187:
 8505 0920 62756666 		.ascii	"buffer_txEOT\000"
 8505      65725F74 
 8505      78454F54 
 8505      00
 8506              	.LASF63:
 8507 092d 73686966 		.ascii	"shiftPassword\000"
 8507      74506173 
 8507      73776F72 
 8507      6400
 8508              	.LASF0:
 8509 093b 7369676E 		.ascii	"signed char\000"
 8509      65642063 
 8509      68617200 
 8510              	.LASF176:
 8511 0947 636F756E 		.ascii	"count_protector\000"
 8511      745F7072 
 8511      6F746563 
 8511      746F7200 
 8512              	.LASF3:
 8513 0957 73686F72 		.ascii	"short unsigned int\000"
 8513      7420756E 
 8513      7369676E 
 8513      65642069 
 8513      6E7400
 8514              	.LASF123:
 8515 096a 636F756E 		.ascii	"countPump\000"
 8515      7450756D 
 8515      7000
 8516              	.LASF100:
 8517 0974 68616E64 		.ascii	"handle\000"
 8517      6C6500
 8518              	.LASF71:
 8519 097b 70726F64 		.ascii	"productSale\000"
 8519      75637453 
 8519      616C6500 
 8520              	.LASF13:
 8521 0987 75696E74 		.ascii	"uint8\000"
 8521      3800
 8522              	.LASF17:
 8523 098d 646F7562 		.ascii	"double\000"
 8523      6C6500
 8524              	.LASF24:
 8525 0994 77617954 		.ascii	"wayToPay\000"
 8525      6F506179 
 8525      00
 8526              	.LASF107:
 8527 099d 5F706275 		.ascii	"_pbuffer\000"
 8527      66666572 
 8527      00
 8528              	.LASF78:
 8529 09a6 67726164 		.ascii	"grade\000"
 8529      6500
 8530              	.LASF40:
 8531 09ac 74696D65 		.ascii	"timeLiftHandle\000"
 8531      4C696674 
ARM GAS  C:\Users\RECEPC~1\AppData\Local\Temp\ccnklw4g.s 			page 179


 8531      48616E64 
 8531      6C6500
 8532              	.LASF159:
 8533 09bb 73697A65 		.ascii	"sizeSendA\000"
 8533      53656E64 
 8533      4100
 8534              	.LASF160:
 8535 09c5 73697A65 		.ascii	"sizeSendB\000"
 8535      53656E64 
 8535      4200
 8536              	.LASF67:
 8537 09cf 70707541 		.ascii	"ppuAuthorized\000"
 8537      7574686F 
 8537      72697A65 
 8537      6400
 8538              	.LASF28:
 8539 09dd 73657269 		.ascii	"serialSelectedSale\000"
 8539      616C5365 
 8539      6C656374 
 8539      65645361 
 8539      6C6500
 8540              	.LASF65:
 8541 09f0 706F7369 		.ascii	"position\000"
 8541      74696F6E 
 8541      00
 8542              	.LASF156:
 8543 09f9 74656D70 		.ascii	"tempPPU\000"
 8543      50505500 
 8544              	.LASF181:
 8545 0a01 70756D70 		.ascii	"pumpGap\000"
 8545      47617000 
 8546              	.LASF75:
 8547 0a09 72665374 		.ascii	"rfState\000"
 8547      61746500 
 8548              		.ident	"GCC: (GNU Tools for ARM Embedded Processors) 4.9.3 20150303 (release) [ARM/embedded-4_9-br
