ARM GAS  C:\Users\Lenovo\AppData\Local\Temp\ccd7Og9t.s 			page 1


   1              		.syntax unified
   2              		.cpu cortex-m3
   3              		.fpu softvfp
   4              		.eabi_attribute 20, 1
   5              		.eabi_attribute 21, 1
   6              		.eabi_attribute 23, 3
   7              		.eabi_attribute 24, 1
   8              		.eabi_attribute 25, 1
   9              		.eabi_attribute 26, 1
  10              		.eabi_attribute 30, 1
  11              		.eabi_attribute 34, 1
  12              		.eabi_attribute 18, 4
  13              		.thumb
  14              		.file	"protocol.c"
  15              		.text
  16              	.Ltext0:
  17              		.cfi_sections	.debug_frame
  18              		.section	.text.get_state,"ax",%progbits
  19              		.align	2
  20              		.global	get_state
  21              		.thumb
  22              		.thumb_func
  23              		.type	get_state, %function
  24              	get_state:
  25              	.LFB63:
  26              		.file 1 ".\\protocol.c"
   1:.\protocol.c  **** /*
   2:.\protocol.c  **** ***************************************************************************************************
   3:.\protocol.c  **** *                                         MUX ADVANCE CODE
   4:.\protocol.c  **** *
   5:.\protocol.c  **** *                             (c) Copyright 2016; Sistemas Insepet LTDA
   6:.\protocol.c  **** *
   7:.\protocol.c  **** *               All rights reserved.  Protected by international copyright laws.
   8:.\protocol.c  **** *               Knowledge of the source code may NOT be used to develop a similar product.
   9:.\protocol.c  **** *               Please help us continue to provide the Embedded community with the finest
  10:.\protocol.c  **** *               software available.  Your honesty is greatly appreciated.
  11:.\protocol.c  **** ***************************************************************************************************
  12:.\protocol.c  **** */
  13:.\protocol.c  **** 
  14:.\protocol.c  **** /*
  15:.\protocol.c  **** ***************************************************************************************************
  16:.\protocol.c  **** *
  17:.\protocol.c  **** *                                             MUX ADVANCE CODE
  18:.\protocol.c  **** *
  19:.\protocol.c  **** *                                             CYPRESS PSoC5LP
  20:.\protocol.c  **** *                                                with the
  21:.\protocol.c  **** *                                            CY8C5969AXI-LP035
  22:.\protocol.c  **** *
  23:.\protocol.c  **** * Filename      : protocol.c
  24:.\protocol.c  **** * Version       : V1.00
  25:.\protocol.c  **** * Programmer(s) : 
  26:.\protocol.c  ****                   
  27:.\protocol.c  **** ***************************************************************************************************
  28:.\protocol.c  **** */
  29:.\protocol.c  **** 
  30:.\protocol.c  **** 
  31:.\protocol.c  **** /*
ARM GAS  C:\Users\Lenovo\AppData\Local\Temp\ccd7Og9t.s 			page 2


  32:.\protocol.c  **** ***************************************************************************************************
  33:.\protocol.c  **** *                                             INCLUDE FILES
  34:.\protocol.c  **** ***************************************************************************************************
  35:.\protocol.c  **** */
  36:.\protocol.c  **** #include <device.h>
  37:.\protocol.c  **** #include <variables.h>
  38:.\protocol.c  **** #include <stdbool.h>
  39:.\protocol.c  **** uint8_t GetLRC(char8 *_pbuffer);
  40:.\protocol.c  **** /*
  41:.\protocol.c  **** ***************************************************************************************************
  42:.\protocol.c  **** *                                    uint8 get_state(uint8 pos)
  43:.\protocol.c  **** *
  44:.\protocol.c  **** * Description : 
  45:.\protocol.c  **** *               
  46:.\protocol.c  **** *
  47:.\protocol.c  **** * Argument(s) : none
  48:.\protocol.c  **** *
  49:.\protocol.c  **** * Return(s)   : none
  50:.\protocol.c  **** *
  51:.\protocol.c  **** * Caller(s)   : 
  52:.\protocol.c  **** *
  53:.\protocol.c  **** * Note(s)     : none.
  54:.\protocol.c  **** ***************************************************************************************************
  55:.\protocol.c  **** */
  56:.\protocol.c  **** 
  57:.\protocol.c  **** uint8 get_state(uint8 pos){
  27              		.loc 1 57 0
  28              		.cfi_startproc
  29              		@ args = 0, pretend = 0, frame = 0
  30              		@ frame_needed = 0, uses_anonymous_args = 0
  31              	.LVL0:
  32 0000 10B5     		push	{r4, lr}
  33              		.cfi_def_cfa_offset 8
  34              		.cfi_offset 4, -8
  35              		.cfi_offset 14, -4
  36 0002 0446     		mov	r4, r0
  58:.\protocol.c  ****     uint8 state;
  59:.\protocol.c  ****     Pump_ClearRxBuffer();
  37              		.loc 1 59 0
  38 0004 FFF7FEFF 		bl	Pump_ClearRxBuffer
  39              	.LVL1:
  60:.\protocol.c  ****     Pump_PutChar(pos);
  40              		.loc 1 60 0
  41 0008 2046     		mov	r0, r4
  42 000a FFF7FEFF 		bl	Pump_PutChar
  43              	.LVL2:
  61:.\protocol.c  ****     CyDelay(60);
  44              		.loc 1 61 0
  45 000e 3C20     		movs	r0, #60
  46 0010 FFF7FEFF 		bl	CyDelay
  47              	.LVL3:
  62:.\protocol.c  ****     if(Pump_GetRxBufferSize()>=1){
  48              		.loc 1 62 0
  49 0014 FFF7FEFF 		bl	Pump_GetRxBufferSize
  50              	.LVL4:
  51 0018 38B1     		cbz	r0, .L3
  63:.\protocol.c  ****         state=(Pump_ReadRxData()&0xF0)>>4;
ARM GAS  C:\Users\Lenovo\AppData\Local\Temp\ccd7Og9t.s 			page 3


  52              		.loc 1 63 0
  53 001a FFF7FEFF 		bl	Pump_ReadRxData
  54              	.LVL5:
  55 001e C0F30714 		ubfx	r4, r0, #4, #8
  56              	.LVL6:
  64:.\protocol.c  ****         //state = Pump_ReadRxData();
  65:.\protocol.c  ****         Pump_ClearRxBuffer();
  57              		.loc 1 65 0
  58 0022 FFF7FEFF 		bl	Pump_ClearRxBuffer
  59              	.LVL7:
  66:.\protocol.c  ****         return state;
  60              		.loc 1 66 0
  61 0026 2046     		mov	r0, r4
  62 0028 10BD     		pop	{r4, pc}
  63              	.LVL8:
  64              	.L3:
  67:.\protocol.c  ****     }
  68:.\protocol.c  ****     else{
  69:.\protocol.c  ****         return 0;
  65              		.loc 1 69 0
  66 002a 0020     		movs	r0, #0
  70:.\protocol.c  ****     }
  71:.\protocol.c  **** }
  67              		.loc 1 71 0
  68 002c 10BD     		pop	{r4, pc}
  69              		.cfi_endproc
  70              	.LFE63:
  71              		.size	get_state, .-get_state
  72 002e 00BF     		.section	.text.get_position,"ax",%progbits
  73              		.align	2
  74              		.global	get_position
  75              		.thumb
  76              		.thumb_func
  77              		.type	get_position, %function
  78              	get_position:
  79              	.LFB64:
  72:.\protocol.c  **** 
  73:.\protocol.c  **** /*
  74:.\protocol.c  **** ***************************************************************************************************
  75:.\protocol.c  **** *                                         uint8 get_position(void)
  76:.\protocol.c  **** *
  77:.\protocol.c  **** * Description : 
  78:.\protocol.c  **** *               
  79:.\protocol.c  **** *
  80:.\protocol.c  **** * Argument(s) : none
  81:.\protocol.c  **** *
  82:.\protocol.c  **** * Return(s)   : none
  83:.\protocol.c  **** *
  84:.\protocol.c  **** * Caller(s)   : 
  85:.\protocol.c  **** *
  86:.\protocol.c  **** * Note(s)     : none.
  87:.\protocol.c  **** ***************************************************************************************************
  88:.\protocol.c  **** */
  89:.\protocol.c  **** uint8 get_position(void){
  80              		.loc 1 89 0
  81              		.cfi_startproc
  82              		@ args = 0, pretend = 0, frame = 0
ARM GAS  C:\Users\Lenovo\AppData\Local\Temp\ccd7Og9t.s 			page 4


  83              		@ frame_needed = 0, uses_anonymous_args = 0
  84 0000 10B5     		push	{r4, lr}
  85              		.cfi_def_cfa_offset 8
  86              		.cfi_offset 4, -8
  87              		.cfi_offset 14, -4
  90:.\protocol.c  ****     uint8 x;            
  91:.\protocol.c  ****     side.a.dir=0xff;
  88              		.loc 1 91 0
  89 0002 464B     		ldr	r3, .L20
  90 0004 FF22     		movs	r2, #255
  91 0006 1A70     		strb	r2, [r3]
  92:.\protocol.c  ****     side.b.dir=0xff;
  92              		.loc 1 92 0
  93 0008 83F80321 		strb	r2, [r3, #259]
  93:.\protocol.c  ****     side.c.dir=0xff;
  94              		.loc 1 93 0
  95 000c 83F80622 		strb	r2, [r3, #518]
  94:.\protocol.c  ****     side.d.dir=0xff;
  96              		.loc 1 94 0
  97 0010 83F80923 		strb	r2, [r3, #777]
  98              	.LVL9:
  95:.\protocol.c  ****     for(x=1;x<=16;x++){
  99              		.loc 1 95 0
 100 0014 0124     		movs	r4, #1
 101 0016 54E0     		b	.L6
 102              	.LVL10:
 103              	.L11:
  96:.\protocol.c  ****         Pump_PutChar(x);
 104              		.loc 1 96 0
 105 0018 2046     		mov	r0, r4
 106 001a FFF7FEFF 		bl	Pump_PutChar
 107              	.LVL11:
  97:.\protocol.c  ****         CyDelay(100);           
 108              		.loc 1 97 0
 109 001e 6420     		movs	r0, #100
 110 0020 FFF7FEFF 		bl	CyDelay
 111              	.LVL12:
  98:.\protocol.c  ****         
  99:.\protocol.c  ****         if((Pump_GetRxBufferSize()>=1)&&(side.a.dir==0xff)){
 112              		.loc 1 99 0
 113 0024 FFF7FEFF 		bl	Pump_GetRxBufferSize
 114              	.LVL13:
 115 0028 38B1     		cbz	r0, .L7
 116              		.loc 1 99 0 is_stmt 0 discriminator 1
 117 002a 3C4B     		ldr	r3, .L20
 118 002c 1B78     		ldrb	r3, [r3]	@ zero_extendqisi2
 119 002e FF2B     		cmp	r3, #255
 120 0030 03D1     		bne	.L7
 100:.\protocol.c  ****            side.a.dir=x;	
 121              		.loc 1 100 0 is_stmt 1
 122 0032 3A4B     		ldr	r3, .L20
 123 0034 1C70     		strb	r4, [r3]
 101:.\protocol.c  ****            Pump_ClearRxBuffer();
 124              		.loc 1 101 0
 125 0036 FFF7FEFF 		bl	Pump_ClearRxBuffer
 126              	.LVL14:
 127              	.L7:
ARM GAS  C:\Users\Lenovo\AppData\Local\Temp\ccd7Og9t.s 			page 5


 102:.\protocol.c  ****         }
 103:.\protocol.c  ****         if((Pump_GetRxBufferSize()>=1)&&(x!=side.a.dir)&&(side.b.dir==0xff)){
 128              		.loc 1 103 0
 129 003a FFF7FEFF 		bl	Pump_GetRxBufferSize
 130              	.LVL15:
 131 003e 68B1     		cbz	r0, .L8
 132              		.loc 1 103 0 is_stmt 0 discriminator 1
 133 0040 364B     		ldr	r3, .L20
 134 0042 1B78     		ldrb	r3, [r3]	@ zero_extendqisi2
 135 0044 A342     		cmp	r3, r4
 136 0046 09D0     		beq	.L8
 137              		.loc 1 103 0 discriminator 2
 138 0048 344B     		ldr	r3, .L20
 139 004a 93F80331 		ldrb	r3, [r3, #259]	@ zero_extendqisi2
 140 004e FF2B     		cmp	r3, #255
 141 0050 04D1     		bne	.L8
 104:.\protocol.c  ****            side.b.dir=x;
 142              		.loc 1 104 0 is_stmt 1
 143 0052 324B     		ldr	r3, .L20
 144 0054 83F80341 		strb	r4, [r3, #259]
 105:.\protocol.c  ****            Pump_ClearRxBuffer();
 145              		.loc 1 105 0
 146 0058 FFF7FEFF 		bl	Pump_ClearRxBuffer
 147              	.LVL16:
 148              	.L8:
 106:.\protocol.c  ****         }
 107:.\protocol.c  ****         if((Pump_GetRxBufferSize()>=1)&&(x!=side.a.dir)&&(x!=side.b.dir)&&(side.c.dir==0xff)){
 149              		.loc 1 107 0
 150 005c FFF7FEFF 		bl	Pump_GetRxBufferSize
 151              	.LVL17:
 152 0060 90B1     		cbz	r0, .L9
 153              		.loc 1 107 0 is_stmt 0 discriminator 1
 154 0062 2E4B     		ldr	r3, .L20
 155 0064 1B78     		ldrb	r3, [r3]	@ zero_extendqisi2
 156 0066 A342     		cmp	r3, r4
 157 0068 0ED0     		beq	.L9
 158              		.loc 1 107 0 discriminator 2
 159 006a 2C4B     		ldr	r3, .L20
 160 006c 93F80331 		ldrb	r3, [r3, #259]	@ zero_extendqisi2
 161 0070 A342     		cmp	r3, r4
 162 0072 09D0     		beq	.L9
 163              		.loc 1 107 0 discriminator 3
 164 0074 294B     		ldr	r3, .L20
 165 0076 93F80632 		ldrb	r3, [r3, #518]	@ zero_extendqisi2
 166 007a FF2B     		cmp	r3, #255
 167 007c 04D1     		bne	.L9
 108:.\protocol.c  ****            side.c.dir=x;
 168              		.loc 1 108 0 is_stmt 1
 169 007e 274B     		ldr	r3, .L20
 170 0080 83F80642 		strb	r4, [r3, #518]
 109:.\protocol.c  ****            Pump_ClearRxBuffer();
 171              		.loc 1 109 0
 172 0084 FFF7FEFF 		bl	Pump_ClearRxBuffer
 173              	.LVL18:
 174              	.L9:
 110:.\protocol.c  ****         }
 111:.\protocol.c  ****         if((Pump_GetRxBufferSize()>=1)&&(x!=side.a.dir)&&(x!=side.b.dir)&&(x!=side.c.dir)&&(side.d.
ARM GAS  C:\Users\Lenovo\AppData\Local\Temp\ccd7Og9t.s 			page 6


 175              		.loc 1 111 0
 176 0088 FFF7FEFF 		bl	Pump_GetRxBufferSize
 177              	.LVL19:
 178 008c B8B1     		cbz	r0, .L10
 179              		.loc 1 111 0 is_stmt 0 discriminator 1
 180 008e 234B     		ldr	r3, .L20
 181 0090 1B78     		ldrb	r3, [r3]	@ zero_extendqisi2
 182 0092 A342     		cmp	r3, r4
 183 0094 13D0     		beq	.L10
 184              		.loc 1 111 0 discriminator 2
 185 0096 214B     		ldr	r3, .L20
 186 0098 93F80331 		ldrb	r3, [r3, #259]	@ zero_extendqisi2
 187 009c A342     		cmp	r3, r4
 188 009e 0ED0     		beq	.L10
 189              		.loc 1 111 0 discriminator 3
 190 00a0 1E4B     		ldr	r3, .L20
 191 00a2 93F80632 		ldrb	r3, [r3, #518]	@ zero_extendqisi2
 192 00a6 A342     		cmp	r3, r4
 193 00a8 09D0     		beq	.L10
 194              		.loc 1 111 0 discriminator 4
 195 00aa 1C4B     		ldr	r3, .L20
 196 00ac 93F80933 		ldrb	r3, [r3, #777]	@ zero_extendqisi2
 197 00b0 FF2B     		cmp	r3, #255
 198 00b2 04D1     		bne	.L10
 112:.\protocol.c  ****            side.d.dir=x;
 199              		.loc 1 112 0 is_stmt 1
 200 00b4 194B     		ldr	r3, .L20
 201 00b6 83F80943 		strb	r4, [r3, #777]
 113:.\protocol.c  ****            Pump_ClearRxBuffer();
 202              		.loc 1 113 0
 203 00ba FFF7FEFF 		bl	Pump_ClearRxBuffer
 204              	.LVL20:
 205              	.L10:
  95:.\protocol.c  ****         Pump_PutChar(x);
 206              		.loc 1 95 0 discriminator 2
 207 00be 0134     		adds	r4, r4, #1
 208              	.LVL21:
 209 00c0 E4B2     		uxtb	r4, r4
 210              	.LVL22:
 211              	.L6:
  95:.\protocol.c  ****         Pump_PutChar(x);
 212              		.loc 1 95 0 is_stmt 0 discriminator 1
 213 00c2 102C     		cmp	r4, #16
 214 00c4 A8D9     		bls	.L11
 114:.\protocol.c  ****         }
 115:.\protocol.c  ****                         
 116:.\protocol.c  ****     }
 117:.\protocol.c  ****     if((side.a.dir!=0xff)&&(side.b.dir!=0xff)&&(side.c.dir!=0xff)&&(side.d.dir!=0xff)){
 215              		.loc 1 117 0 is_stmt 1
 216 00c6 154B     		ldr	r3, .L20
 217 00c8 1B78     		ldrb	r3, [r3]	@ zero_extendqisi2
 218 00ca FF2B     		cmp	r3, #255
 219 00cc 0ED0     		beq	.L12
 220              		.loc 1 117 0 is_stmt 0 discriminator 1
 221 00ce 134A     		ldr	r2, .L20
 222 00d0 92F80321 		ldrb	r2, [r2, #259]	@ zero_extendqisi2
 223 00d4 FF2A     		cmp	r2, #255
ARM GAS  C:\Users\Lenovo\AppData\Local\Temp\ccd7Og9t.s 			page 7


 224 00d6 09D0     		beq	.L12
 225              		.loc 1 117 0 discriminator 2
 226 00d8 104A     		ldr	r2, .L20
 227 00da 92F80622 		ldrb	r2, [r2, #518]	@ zero_extendqisi2
 228 00de FF2A     		cmp	r2, #255
 229 00e0 04D0     		beq	.L12
 230              		.loc 1 117 0 discriminator 3
 231 00e2 0E4A     		ldr	r2, .L20
 232 00e4 92F80923 		ldrb	r2, [r2, #777]	@ zero_extendqisi2
 233 00e8 FF2A     		cmp	r2, #255
 234 00ea 0FD1     		bne	.L15
 235              	.L12:
 118:.\protocol.c  ****         return 4;
 119:.\protocol.c  ****     }
 120:.\protocol.c  ****     if((side.a.dir!=0xff)&&(side.b.dir!=0xff)){
 236              		.loc 1 120 0 is_stmt 1
 237 00ec FF2B     		cmp	r3, #255
 238 00ee 04D0     		beq	.L14
 239              		.loc 1 120 0 is_stmt 0 discriminator 1
 240 00f0 0A4A     		ldr	r2, .L20
 241 00f2 92F80321 		ldrb	r2, [r2, #259]	@ zero_extendqisi2
 242 00f6 FF2A     		cmp	r2, #255
 243 00f8 0AD1     		bne	.L16
 244              	.L14:
 121:.\protocol.c  ****         return 2;
 122:.\protocol.c  ****     }
 123:.\protocol.c  ****     else{
 124:.\protocol.c  ****         if((side.a.dir!=0xff)||(side.b.dir!=0xff)){
 245              		.loc 1 124 0 is_stmt 1
 246 00fa FF2B     		cmp	r3, #255
 247 00fc 0AD1     		bne	.L17
 248              		.loc 1 124 0 is_stmt 0 discriminator 1
 249 00fe 074B     		ldr	r3, .L20
 250 0100 93F80331 		ldrb	r3, [r3, #259]	@ zero_extendqisi2
 251 0104 FF2B     		cmp	r3, #255
 252 0106 07D0     		beq	.L18
 125:.\protocol.c  ****             return 1;
 253              		.loc 1 125 0 is_stmt 1
 254 0108 0120     		movs	r0, #1
 255 010a 10BD     		pop	{r4, pc}
 256              	.LVL23:
 257              	.L15:
 118:.\protocol.c  ****         return 4;
 258              		.loc 1 118 0
 259 010c 0420     		movs	r0, #4
 260 010e 10BD     		pop	{r4, pc}
 261              	.LVL24:
 262              	.L16:
 121:.\protocol.c  ****         return 2;
 263              		.loc 1 121 0
 264 0110 0220     		movs	r0, #2
 265 0112 10BD     		pop	{r4, pc}
 266              	.LVL25:
 267              	.L17:
 268              		.loc 1 125 0
 269 0114 0120     		movs	r0, #1
 270 0116 10BD     		pop	{r4, pc}
ARM GAS  C:\Users\Lenovo\AppData\Local\Temp\ccd7Og9t.s 			page 8


 271              	.LVL26:
 272              	.L18:
 126:.\protocol.c  ****         }
 127:.\protocol.c  ****         else{
 128:.\protocol.c  ****             return 0;
 273              		.loc 1 128 0
 274 0118 0020     		movs	r0, #0
 129:.\protocol.c  ****         }
 130:.\protocol.c  ****     }
 131:.\protocol.c  **** }
 275              		.loc 1 131 0
 276 011a 10BD     		pop	{r4, pc}
 277              	.LVL27:
 278              	.L21:
 279              		.align	2
 280              	.L20:
 281 011c 00000000 		.word	side
 282              		.cfi_endproc
 283              	.LFE64:
 284              		.size	get_position, .-get_position
 285              		.section	.text.getSale,"ax",%progbits
 286              		.align	2
 287              		.global	getSale
 288              		.thumb
 289              		.thumb_func
 290              		.type	getSale, %function
 291              	getSale:
 292              	.LFB68:
 132:.\protocol.c  **** /*
 133:.\protocol.c  **** ***************************************************************************************************
 134:.\protocol.c  **** *                  uint8 preset_data(uint8 pos, uint8 grade, uint8 *value, uint8 preset)
 135:.\protocol.c  **** *
 136:.\protocol.c  **** * Description : 
 137:.\protocol.c  **** *               
 138:.\protocol.c  **** *
 139:.\protocol.c  **** * Argument(s) : none
 140:.\protocol.c  **** *
 141:.\protocol.c  **** * Return(s)   : none
 142:.\protocol.c  **** *
 143:.\protocol.c  **** * Caller(s)   : 
 144:.\protocol.c  **** *
 145:.\protocol.c  **** * Note(s)     : none.
 146:.\protocol.c  **** ***************************************************************************************************
 147:.\protocol.c  **** */
 148:.\protocol.c  **** uint8 PresetData(uint8 side, char8 grade, uint8 *value, uint8 preset){
 149:.\protocol.c  ****     char8 SendComand[18]={0,0,0,0,0,0,0,0,0,0,0,0,0,0,0,0,0,0};
 150:.\protocol.c  ****     uint8 state,x,y,z;
 151:.\protocol.c  ****     char8 PumpDataReceive =0;    
 152:.\protocol.c  ****     x = 0;
 153:.\protocol.c  ****     z = 0;
 154:.\protocol.c  ****     preset = 0;
 155:.\protocol.c  ****     state = get_state(side);
 156:.\protocol.c  ****     if(state == 0x06 || state == 0x07){
 157:.\protocol.c  ****         Pump_PutChar(0x20|side);
 158:.\protocol.c  ****         CyDelay(50);
 159:.\protocol.c  ****         PumpDataReceive = Pump_ReadRxData();
 160:.\protocol.c  ****     }
ARM GAS  C:\Users\Lenovo\AppData\Local\Temp\ccd7Og9t.s 			page 9


 161:.\protocol.c  ****     Pump_ClearRxBuffer();
 162:.\protocol.c  ****     Pump_ClearRxBuffer();
 163:.\protocol.c  ****     if(PumpDataReceive == (0xd0|side)){
 164:.\protocol.c  ****         SendComand[x] = SOM; x++;
 165:.\protocol.c  ****         SendComand[x] = 0xE1; x++;
 166:.\protocol.c  ****         if(side == 1){
 167:.\protocol.c  ****             SendComand[x] = 0xF0 | (bufferDisplay1.presetType[0]&0x0F); x++;
 168:.\protocol.c  ****             SendComand[x] = 0xF6; x++;
 169:.\protocol.c  ****             SendComand[x] = 0xE0 | ((grade-1)&0x0F); x++;
 170:.\protocol.c  ****             SendComand[x] = PRDn; x++;
 171:.\protocol.c  ****             if(bufferDisplay1.presetType[1] == 'F'){
 172:.\protocol.c  ****                 for(y = x; y < digits+x; y ++ ){
 173:.\protocol.c  ****                     SendComand[y] = 0xE9;                    
 174:.\protocol.c  ****                 }                
 175:.\protocol.c  ****                 x = y;
 176:.\protocol.c  ****                 for(y = x; y < 14; y ++ ){
 177:.\protocol.c  ****                     SendComand[y] = 0xE0;
 178:.\protocol.c  ****                     x++;
 179:.\protocol.c  ****                 }                
 180:.\protocol.c  ****             }
 181:.\protocol.c  ****             if(bufferDisplay1.presetType[1] == 'D'){
 182:.\protocol.c  ****                 z = value[0];
 183:.\protocol.c  ****                 for(y = x; y < value[0]+x; y ++ ){
 184:.\protocol.c  ****                     SendComand[y] = 0xE0|(value[z]&0x0F); z--;                    
 185:.\protocol.c  ****                 }                
 186:.\protocol.c  ****                 x = y;
 187:.\protocol.c  ****                 for(y = x; y < 14; y ++ ){
 188:.\protocol.c  ****                     SendComand[y] = 0xE0;
 189:.\protocol.c  ****                     x++;
 190:.\protocol.c  ****                 }                
 191:.\protocol.c  ****             }
 192:.\protocol.c  ****             if(bufferDisplay1.presetType[1] == 'V'){
 193:.\protocol.c  ****                 z = value[0];
 194:.\protocol.c  ****                 for(y = x; y < value[0]+x; y ++ ){
 195:.\protocol.c  ****                     SendComand[y] = 0xE0|(value[z]&0x0F); z--;                    
 196:.\protocol.c  ****                 }                
 197:.\protocol.c  ****                 x = y;
 198:.\protocol.c  ****                 for(y = x; y < 14; y ++ ){
 199:.\protocol.c  ****                     SendComand[y] = 0xE0;
 200:.\protocol.c  ****                     x++;
 201:.\protocol.c  ****                 }                
 202:.\protocol.c  ****             }
 203:.\protocol.c  ****             SendComand[x] = 0xFB;  x++;
 204:.\protocol.c  ****             SendComand[x] = GetLRC(SendComand);  x++;
 205:.\protocol.c  ****             SendComand[x] = (EOM);
 206:.\protocol.c  ****             for(y=0; y<=x;y++){
 207:.\protocol.c  ****                 Pump_PutChar(SendComand[y]);
 208:.\protocol.c  ****             } 
 209:.\protocol.c  ****             CyDelay(50);
 210:.\protocol.c  ****             return 1;
 211:.\protocol.c  ****         }
 212:.\protocol.c  ****     }
 213:.\protocol.c  ****     return 0;
 214:.\protocol.c  **** }
 215:.\protocol.c  **** 
 216:.\protocol.c  **** 
 217:.\protocol.c  **** 
ARM GAS  C:\Users\Lenovo\AppData\Local\Temp\ccd7Og9t.s 			page 10


 218:.\protocol.c  **** uint8 PumpCompleteConfiguration( uint8 side){   
 219:.\protocol.c  ****     uint8 state,x;
 220:.\protocol.c  ****     char8 SendComand[9];
 221:.\protocol.c  ****     char8 PumpDataReceive =0;    
 222:.\protocol.c  ****     
 223:.\protocol.c  ****     uint8 BufferSize = 0;
 224:.\protocol.c  **** ///////////////////////////////////////////////////////////////////////////////////////////////////
 225:.\protocol.c  ****     state = get_state(side);
 226:.\protocol.c  ****     if(state == 0x06){
 227:.\protocol.c  ****         Pump_PutChar(0x20|side);
 228:.\protocol.c  ****         CyDelay(50);
 229:.\protocol.c  ****         PumpDataReceive = Pump_ReadRxData();
 230:.\protocol.c  ****     }
 231:.\protocol.c  ****     Pump_ClearRxBuffer();
 232:.\protocol.c  ****     if(PumpDataReceive == (0xd0|side)){    
 233:.\protocol.c  ****         SendComand[0] = SOM; //Start Of Message    
 234:.\protocol.c  ****         SendComand[1] = (0xE9);//Data Length
 235:.\protocol.c  ****         SendComand[2] = (0xFE);//Special Functions Next (0xB0 0xB0 0xBE)
 236:.\protocol.c  ****         SendComand[3] = (0xEE);//Complete Pump Configuration Request (sf1)
 237:.\protocol.c  ****         SendComand[4] = (0xE0);//Complete Pump Configuration Request (sf2)
 238:.\protocol.c  ****         SendComand[5] = (0xE0);//Complete Pump Configuration Request (sf3)
 239:.\protocol.c  ****         SendComand[6] = (0xFB);
 240:.\protocol.c  ****         SendComand[7] = GetLRC(SendComand);
 241:.\protocol.c  ****         SendComand[8] = (EOM);
 242:.\protocol.c  ****         for(x=0; x<=8;x++){
 243:.\protocol.c  ****             Pump_PutChar(SendComand[x]);
 244:.\protocol.c  ****         } 
 245:.\protocol.c  ****         CyDelay(200);
 246:.\protocol.c  ****     }
 247:.\protocol.c  ****     BufferSize =Pump_GetRxBufferSize();
 248:.\protocol.c  ****     char8 buffer[BufferSize];
 249:.\protocol.c  ****     for(x=0;x<=BufferSize;x++){
 250:.\protocol.c  ****        buffer[x]=Pump_ReadRxData(); 
 251:.\protocol.c  ****     }
 252:.\protocol.c  ****     Pump_ClearRxBuffer();
 253:.\protocol.c  **** ///////////////////////////////////////////////////////////////////////////////////////////////////
 254:.\protocol.c  ****     UnitType            =  buffer [10] &0x0F;
 255:.\protocol.c  ****     ConversionFactor    =  buffer [12] &0x0F;
 256:.\protocol.c  ****     MoneyDec            = (buffer [14] &0x0F)-1;
 257:.\protocol.c  ****     if( (buffer [16]&0x0F) == 1 || (buffer [16]&0x0F) == 4){
 258:.\protocol.c  ****         VolDec              = 3;
 259:.\protocol.c  ****     }
 260:.\protocol.c  ****     if( (buffer [16]&0x0F) == 3 || (buffer [16]&0x0F) == 0){
 261:.\protocol.c  ****         VolDec              = 2;
 262:.\protocol.c  ****     }
 263:.\protocol.c  ****     if( (buffer [16]&0x0F) == 2){
 264:.\protocol.c  ****         VolDec              = 1;
 265:.\protocol.c  ****     }
 266:.\protocol.c  ****     PPUDec              = (buffer [18]&0x0F)-1;
 267:.\protocol.c  ****     DDMode              =  buffer [20] &0x0F;
 268:.\protocol.c  ****     
 269:.\protocol.c  ****     return 0;
 270:.\protocol.c  **** } 
 271:.\protocol.c  **** 
 272:.\protocol.c  **** uint8 PumpHoseActiveState(uint8 side){       
 273:.\protocol.c  ****     uint8 state,x;
 274:.\protocol.c  ****     char8 SendComand[9];
ARM GAS  C:\Users\Lenovo\AppData\Local\Temp\ccd7Og9t.s 			page 11


 275:.\protocol.c  ****     char8 PumpDataReceive =0;    
 276:.\protocol.c  ****     
 277:.\protocol.c  ****     uint8 BufferSize = 0;
 278:.\protocol.c  **** ///////////////////////////////////////////////////////////////////////////////////////////////////
 279:.\protocol.c  ****     state = get_state(side);
 280:.\protocol.c  ****     if(state == PUMP_IDLE || state == PUMP_CALLING){
 281:.\protocol.c  ****         Pump_PutChar(0x20|side);
 282:.\protocol.c  ****         CyDelay(50);
 283:.\protocol.c  ****         PumpDataReceive = Pump_ReadRxData();
 284:.\protocol.c  ****     }
 285:.\protocol.c  ****     Pump_ClearRxBuffer();
 286:.\protocol.c  ****     if(PumpDataReceive == (0xd0|side)){
 287:.\protocol.c  ****         SendComand[0] = SOM;//Start Of Message
 288:.\protocol.c  ****         SendComand[1] = 0xE9;//Data Length
 289:.\protocol.c  ****         SendComand[2] = 0xFE;//Special Functions Next (0xB0 0xB0 0xB6)
 290:.\protocol.c  ****         SendComand[3] = 0xE0;//Complete Pump Configuration Request (sf1)
 291:.\protocol.c  ****         SendComand[4] = 0xE1;//Complete Pump Configuration Request (sf2)
 292:.\protocol.c  ****         SendComand[5] = 0xE0;//Complete Pump Configuration Request (sf3)
 293:.\protocol.c  ****         SendComand[6] = 0xFB;
 294:.\protocol.c  ****         SendComand[7] = GetLRC(SendComand);
 295:.\protocol.c  ****         SendComand[8] = EOM;
 296:.\protocol.c  ****         for(x=0; x<=8;x++){
 297:.\protocol.c  ****             Pump_PutChar(SendComand[x]);
 298:.\protocol.c  ****         } 
 299:.\protocol.c  ****         if(UnitType > 0){
 300:.\protocol.c  ****             CyDelay(700);
 301:.\protocol.c  ****         }else{
 302:.\protocol.c  ****             CyDelay(200);
 303:.\protocol.c  ****         }
 304:.\protocol.c  ****     }    
 305:.\protocol.c  **** ///////////////////////////////////////////////////////////////////////////////////////////////////
 306:.\protocol.c  ****     BufferSize =Pump_GetRxBufferSize();
 307:.\protocol.c  ****     char8 buffer[BufferSize];
 308:.\protocol.c  ****     for(x=0;x<=BufferSize;x++){
 309:.\protocol.c  ****        buffer[x]=Pump_ReadRxData(); 
 310:.\protocol.c  ****     }
 311:.\protocol.c  ****     Pump_ClearRxBuffer();
 312:.\protocol.c  ****     if((buffer[0x0C] & 0x0F) == 0x01){
 313:.\protocol.c  ****         return (buffer[0x0E] & 0x0F);
 314:.\protocol.c  ****     }
 315:.\protocol.c  ****     
 316:.\protocol.c  ****     return 0;
 317:.\protocol.c  ****     
 318:.\protocol.c  **** }
 319:.\protocol.c  **** 
 320:.\protocol.c  **** /*
 321:.\protocol.c  **** ***************************************************************************************************
 322:.\protocol.c  **** *                                         uint8 get_sale(uint8 pos)
 323:.\protocol.c  **** *
 324:.\protocol.c  **** * Description : 
 325:.\protocol.c  **** *               
 326:.\protocol.c  **** *
 327:.\protocol.c  **** * Argument(s) : none
 328:.\protocol.c  **** *
 329:.\protocol.c  **** * Return(s)   : none
 330:.\protocol.c  **** *
 331:.\protocol.c  **** * Caller(s)   : 
ARM GAS  C:\Users\Lenovo\AppData\Local\Temp\ccd7Og9t.s 			page 12


 332:.\protocol.c  **** *
 333:.\protocol.c  **** * Note(s)     : none.
 334:.\protocol.c  **** ***************************************************************************************************
 335:.\protocol.c  **** */
 336:.\protocol.c  **** uint8 getSale(uint8 pos){
 293              		.loc 1 336 0
 294              		.cfi_startproc
 295              		@ args = 0, pretend = 0, frame = 0
 296              		@ frame_needed = 0, uses_anonymous_args = 0
 297              	.LVL28:
 298 0000 10B5     		push	{r4, lr}
 299              		.cfi_def_cfa_offset 8
 300              		.cfi_offset 4, -8
 301              		.cfi_offset 14, -4
 302 0002 0446     		mov	r4, r0
 337:.\protocol.c  **** 	uint8 x;
 338:.\protocol.c  **** 	Pump_ClearRxBuffer();
 303              		.loc 1 338 0
 304 0004 FFF7FEFF 		bl	Pump_ClearRxBuffer
 305              	.LVL29:
 339:.\protocol.c  **** 	Pump_PutChar(0x40|pos);
 306              		.loc 1 339 0
 307 0008 44F04000 		orr	r0, r4, #64
 308 000c FFF7FEFF 		bl	Pump_PutChar
 309              	.LVL30:
 340:.\protocol.c  ****     CyDelay(300);
 310              		.loc 1 340 0
 311 0010 4FF49670 		mov	r0, #300
 312 0014 FFF7FEFF 		bl	CyDelay
 313              	.LVL31:
 341:.\protocol.c  ****     CyWdtClear();
 314              		.loc 1 341 0
 315 0018 FFF7FEFF 		bl	CyWdtClear
 316              	.LVL32:
 342:.\protocol.c  **** 	if((digits!=7)&&(Pump_GetRxBufferSize()==33)){
 317              		.loc 1 342 0
 318 001c B64B     		ldr	r3, .L70
 319 001e 1B78     		ldrb	r3, [r3]	@ zero_extendqisi2
 320 0020 072B     		cmp	r3, #7
 321 0022 00F0F280 		beq	.L23
 322              		.loc 1 342 0 is_stmt 0 discriminator 1
 323 0026 FFF7FEFF 		bl	Pump_GetRxBufferSize
 324              	.LVL33:
 325 002a 2128     		cmp	r0, #33
 326 002c 40F0ED80 		bne	.L23
 343:.\protocol.c  **** 		if((Pump_rxBuffer[0]==0xFF)&&(Pump_rxBuffer[2]==0xF8)&&(Pump_rxBuffer[32]==0xF0)){
 327              		.loc 1 343 0 is_stmt 1
 328 0030 B24B     		ldr	r3, .L70+4
 329 0032 1B78     		ldrb	r3, [r3]	@ zero_extendqisi2
 330 0034 DBB2     		uxtb	r3, r3
 331 0036 FF2B     		cmp	r3, #255
 332 0038 40F0AE81 		bne	.L59
 333              		.loc 1 343 0 is_stmt 0 discriminator 1
 334 003c AF4B     		ldr	r3, .L70+4
 335 003e 9B78     		ldrb	r3, [r3, #2]	@ zero_extendqisi2
 336 0040 DBB2     		uxtb	r3, r3
 337 0042 F82B     		cmp	r3, #248
ARM GAS  C:\Users\Lenovo\AppData\Local\Temp\ccd7Og9t.s 			page 13


 338 0044 40F0AA81 		bne	.L60
 339              		.loc 1 343 0 discriminator 2
 340 0048 AC4B     		ldr	r3, .L70+4
 341 004a 93F82030 		ldrb	r3, [r3, #32]	@ zero_extendqisi2
 342 004e DBB2     		uxtb	r3, r3
 343 0050 F02B     		cmp	r3, #240
 344 0052 40F0A581 		bne	.L61
 344:.\protocol.c  **** 			if(pos==side.a.dir){
 345              		.loc 1 344 0 is_stmt 1
 346 0056 AA4B     		ldr	r3, .L70+8
 347 0058 1B78     		ldrb	r3, [r3]	@ zero_extendqisi2
 348 005a A342     		cmp	r3, r4
 349 005c 6AD1     		bne	.L25
 345:.\protocol.c  **** 				side.a.productSale=((Pump_rxBuffer[9]&0x0F)+1)+0x30;
 350              		.loc 1 345 0
 351 005e A74B     		ldr	r3, .L70+4
 352 0060 5B7A     		ldrb	r3, [r3, #9]	@ zero_extendqisi2
 353 0062 03F00F03 		and	r3, r3, #15
 354 0066 3133     		adds	r3, r3, #49
 355 0068 A54A     		ldr	r2, .L70+8
 356 006a 82F8FF30 		strb	r3, [r2, #255]
 357              	.LVL34:
 346:.\protocol.c  **** 				for(x=1;x<=4;x++){
 358              		.loc 1 346 0
 359 006e 0123     		movs	r3, #1
 360 0070 0CE0     		b	.L26
 361              	.LVL35:
 362              	.L27:
 347:.\protocol.c  **** 					side.a.ppuSale[5-x]=((Pump_rxBuffer[x+11]&0x0F)+0x30);
 363              		.loc 1 347 0 discriminator 3
 364 0072 03F10B02 		add	r2, r3, #11
 365 0076 A149     		ldr	r1, .L70+4
 366 0078 8A5C     		ldrb	r2, [r1, r2]	@ zero_extendqisi2
 367 007a A249     		ldr	r1, .L70+12
 368 007c C91A     		subs	r1, r1, r3
 369 007e 02F00F02 		and	r2, r2, #15
 370 0082 3032     		adds	r2, r2, #48
 371 0084 81F8F120 		strb	r2, [r1, #241]
 346:.\protocol.c  **** 				for(x=1;x<=4;x++){
 372              		.loc 1 346 0 discriminator 3
 373 0088 0133     		adds	r3, r3, #1
 374              	.LVL36:
 375 008a DBB2     		uxtb	r3, r3
 376              	.LVL37:
 377              	.L26:
 346:.\protocol.c  **** 				for(x=1;x<=4;x++){
 378              		.loc 1 346 0 is_stmt 0 discriminator 1
 379 008c 042B     		cmp	r3, #4
 380 008e F0D9     		bls	.L27
 348:.\protocol.c  **** 				}
 349:.\protocol.c  ****                 side.a.ppuSale[0]=4;
 381              		.loc 1 349 0 is_stmt 1
 382 0090 0422     		movs	r2, #4
 383 0092 9B4B     		ldr	r3, .L70+8
 384              	.LVL38:
 385 0094 83F8F120 		strb	r2, [r3, #241]
 350:.\protocol.c  ****                 if(ppux10==1){
ARM GAS  C:\Users\Lenovo\AppData\Local\Temp\ccd7Og9t.s 			page 14


 386              		.loc 1 350 0
 387 0098 9B4B     		ldr	r3, .L70+16
 388 009a 1B78     		ldrb	r3, [r3]	@ zero_extendqisi2
 389 009c DBB2     		uxtb	r3, r3
 390 009e 012B     		cmp	r3, #1
 391 00a0 06D1     		bne	.L28
 351:.\protocol.c  ****                     side.a.ppuSale[0]=5;
 392              		.loc 1 351 0
 393 00a2 974B     		ldr	r3, .L70+8
 394 00a4 0522     		movs	r2, #5
 395 00a6 83F8F120 		strb	r2, [r3, #241]
 352:.\protocol.c  ****                     side.a.ppuSale[5]='0';
 396              		.loc 1 352 0
 397 00aa 3022     		movs	r2, #48
 398 00ac 83F8F620 		strb	r2, [r3, #246]
 399              	.L28:
 346:.\protocol.c  **** 					side.a.ppuSale[5-x]=((Pump_rxBuffer[x+11]&0x0F)+0x30);
 400              		.loc 1 346 0 discriminator 1
 401 00b0 0123     		movs	r3, #1
 402 00b2 0CE0     		b	.L29
 403              	.LVL39:
 404              	.L30:
 353:.\protocol.c  ****                 }
 354:.\protocol.c  **** 				for(x=1;x<=6;x++){
 355:.\protocol.c  **** 					side.a.volumeSale[7-x]=((Pump_rxBuffer[x+16]&0x0F)+0x30);
 405              		.loc 1 355 0 discriminator 3
 406 00b4 03F11002 		add	r2, r3, #16
 407 00b8 9049     		ldr	r1, .L70+4
 408 00ba 8A5C     		ldrb	r2, [r1, r2]	@ zero_extendqisi2
 409 00bc 9349     		ldr	r1, .L70+20
 410 00be C91A     		subs	r1, r1, r3
 411 00c0 02F00F02 		and	r2, r2, #15
 412 00c4 3032     		adds	r2, r2, #48
 413 00c6 81F8E320 		strb	r2, [r1, #227]
 354:.\protocol.c  **** 					side.a.volumeSale[7-x]=((Pump_rxBuffer[x+16]&0x0F)+0x30);
 414              		.loc 1 354 0 discriminator 3
 415 00ca 0133     		adds	r3, r3, #1
 416              	.LVL40:
 417 00cc DBB2     		uxtb	r3, r3
 418              	.LVL41:
 419              	.L29:
 354:.\protocol.c  **** 					side.a.volumeSale[7-x]=((Pump_rxBuffer[x+16]&0x0F)+0x30);
 420              		.loc 1 354 0 is_stmt 0 discriminator 1
 421 00ce 062B     		cmp	r3, #6
 422 00d0 F0D9     		bls	.L30
 356:.\protocol.c  **** 				}		
 357:.\protocol.c  ****                 side.a.volumeSale[0]=6;
 423              		.loc 1 357 0 is_stmt 1
 424 00d2 0622     		movs	r2, #6
 425 00d4 8A4B     		ldr	r3, .L70+8
 426              	.LVL42:
 427 00d6 83F8E320 		strb	r2, [r3, #227]
 428              	.LVL43:
 358:.\protocol.c  **** 				for(x=1;x<=6;x++){
 429              		.loc 1 358 0
 430 00da 0123     		movs	r3, #1
 431 00dc 0CE0     		b	.L31
ARM GAS  C:\Users\Lenovo\AppData\Local\Temp\ccd7Og9t.s 			page 15


 432              	.LVL44:
 433              	.L32:
 359:.\protocol.c  **** 					side.a.moneySale[7-x]=((Pump_rxBuffer[x+23]&0x0F)+0x30);
 434              		.loc 1 359 0 discriminator 3
 435 00de 03F11702 		add	r2, r3, #23
 436 00e2 8649     		ldr	r1, .L70+4
 437 00e4 8A5C     		ldrb	r2, [r1, r2]	@ zero_extendqisi2
 438 00e6 8949     		ldr	r1, .L70+20
 439 00e8 C91A     		subs	r1, r1, r3
 440 00ea 02F00F02 		and	r2, r2, #15
 441 00ee 3032     		adds	r2, r2, #48
 442 00f0 81F8D520 		strb	r2, [r1, #213]
 358:.\protocol.c  **** 				for(x=1;x<=6;x++){
 443              		.loc 1 358 0 discriminator 3
 444 00f4 0133     		adds	r3, r3, #1
 445              	.LVL45:
 446 00f6 DBB2     		uxtb	r3, r3
 447              	.LVL46:
 448              	.L31:
 358:.\protocol.c  **** 				for(x=1;x<=6;x++){
 449              		.loc 1 358 0 is_stmt 0 discriminator 1
 450 00f8 062B     		cmp	r3, #6
 451 00fa F0D9     		bls	.L32
 360:.\protocol.c  **** 				}
 361:.\protocol.c  ****                 if(digits==5){
 452              		.loc 1 361 0 is_stmt 1
 453 00fc 7E4B     		ldr	r3, .L70
 454              	.LVL47:
 455 00fe 1B78     		ldrb	r3, [r3]	@ zero_extendqisi2
 456 0100 052B     		cmp	r3, #5
 457 0102 11D1     		bne	.L34
 458 0104 09E0     		b	.L62
 459              	.LVL48:
 460              	.L35:
 362:.\protocol.c  ****                     for(x=6;x>1;x--){
 363:.\protocol.c  ****                         side.a.moneySale[x]=side.a.moneySale[x-1];
 461              		.loc 1 363 0 discriminator 3
 462 0106 5A1E     		subs	r2, r3, #1
 463 0108 7D49     		ldr	r1, .L70+8
 464 010a 8818     		adds	r0, r1, r2
 465 010c 90F8D500 		ldrb	r0, [r0, #213]	@ zero_extendqisi2
 466 0110 0B44     		add	r3, r3, r1
 467              	.LVL49:
 468 0112 83F8D500 		strb	r0, [r3, #213]
 362:.\protocol.c  ****                     for(x=6;x>1;x--){
 469              		.loc 1 362 0 discriminator 3
 470 0116 D3B2     		uxtb	r3, r2
 471              	.LVL50:
 472 0118 00E0     		b	.L33
 473              	.LVL51:
 474              	.L62:
 475 011a 0623     		movs	r3, #6
 476              	.L33:
 477              	.LVL52:
 362:.\protocol.c  ****                     for(x=6;x>1;x--){
 478              		.loc 1 362 0 is_stmt 0 discriminator 1
 479 011c 012B     		cmp	r3, #1
ARM GAS  C:\Users\Lenovo\AppData\Local\Temp\ccd7Og9t.s 			page 16


 480 011e F2D8     		bhi	.L35
 364:.\protocol.c  ****                     }
 365:.\protocol.c  ****                     side.a.moneySale[1]='0';
 481              		.loc 1 365 0 is_stmt 1
 482 0120 3022     		movs	r2, #48
 483 0122 774B     		ldr	r3, .L70+8
 484              	.LVL53:
 485 0124 83F8D620 		strb	r2, [r3, #214]
 486              	.L34:
 366:.\protocol.c  ****                 }
 367:.\protocol.c  ****                 side.a.moneySale[0]=6;
 487              		.loc 1 367 0
 488 0128 0622     		movs	r2, #6
 489 012a 754B     		ldr	r3, .L70+8
 490 012c 83F8D520 		strb	r2, [r3, #213]
 368:.\protocol.c  **** 			}
 369:.\protocol.c  **** 			else{
 370:.\protocol.c  **** 				side.b.productSale=((Pump_rxBuffer[9]&0x0F)+1)+0x30;
 371:.\protocol.c  **** 				for(x=1;x<=4;x++){
 372:.\protocol.c  **** 					side.b.ppuSale[5-x]=((Pump_rxBuffer[x+11]&0x0F)+0x30);
 373:.\protocol.c  **** 				}
 374:.\protocol.c  ****                 side.b.ppuSale[0]=4;
 375:.\protocol.c  ****                 if(ppux10==1){
 376:.\protocol.c  ****                     side.b.ppuSale[0]=5;
 377:.\protocol.c  ****                     side.b.ppuSale[5]='0';
 378:.\protocol.c  ****                 }
 379:.\protocol.c  **** 				for(x=1;x<=6;x++){
 380:.\protocol.c  **** 					side.b.volumeSale[7-x]=((Pump_rxBuffer[x+16]&0x0F)+0x30);
 381:.\protocol.c  **** 				}
 382:.\protocol.c  ****                 side.b.volumeSale[0]=6;
 383:.\protocol.c  **** 				for(x=1;x<=6;x++){
 384:.\protocol.c  **** 					side.b.moneySale[7-x]=((Pump_rxBuffer[x+23]&0x0F)+0x30);
 385:.\protocol.c  **** 				}	
 386:.\protocol.c  ****                 if(digits==5){
 387:.\protocol.c  ****                     for(x=6;x>1;x--){
 388:.\protocol.c  ****                         side.b.moneySale[x]=side.b.moneySale[x-1];
 389:.\protocol.c  ****                     }
 390:.\protocol.c  ****                     side.b.moneySale[1]='0';
 391:.\protocol.c  ****                 }
 392:.\protocol.c  ****                 side.b.moneySale[0]=6;
 393:.\protocol.c  **** 			}
 394:.\protocol.c  **** 			return 1;
 491              		.loc 1 394 0
 492 0130 0120     		movs	r0, #1
 493 0132 10BD     		pop	{r4, pc}
 494              	.L25:
 370:.\protocol.c  **** 				for(x=1;x<=4;x++){
 495              		.loc 1 370 0
 496 0134 714B     		ldr	r3, .L70+4
 497 0136 5B7A     		ldrb	r3, [r3, #9]	@ zero_extendqisi2
 498 0138 03F00F03 		and	r3, r3, #15
 499 013c 3133     		adds	r3, r3, #49
 500 013e 704A     		ldr	r2, .L70+8
 501 0140 82F80232 		strb	r3, [r2, #514]
 502              	.LVL54:
 371:.\protocol.c  **** 					side.b.ppuSale[5-x]=((Pump_rxBuffer[x+11]&0x0F)+0x30);
 503              		.loc 1 371 0
ARM GAS  C:\Users\Lenovo\AppData\Local\Temp\ccd7Og9t.s 			page 17


 504 0144 0123     		movs	r3, #1
 505 0146 0CE0     		b	.L36
 506              	.LVL55:
 507              	.L37:
 372:.\protocol.c  **** 				}
 508              		.loc 1 372 0 discriminator 3
 509 0148 03F10B02 		add	r2, r3, #11
 510 014c 6B49     		ldr	r1, .L70+4
 511 014e 8A5C     		ldrb	r2, [r1, r2]	@ zero_extendqisi2
 512 0150 6C49     		ldr	r1, .L70+12
 513 0152 C91A     		subs	r1, r1, r3
 514 0154 02F00F02 		and	r2, r2, #15
 515 0158 3032     		adds	r2, r2, #48
 516 015a 81F8F421 		strb	r2, [r1, #500]
 371:.\protocol.c  **** 					side.b.ppuSale[5-x]=((Pump_rxBuffer[x+11]&0x0F)+0x30);
 517              		.loc 1 371 0 discriminator 3
 518 015e 0133     		adds	r3, r3, #1
 519              	.LVL56:
 520 0160 DBB2     		uxtb	r3, r3
 521              	.LVL57:
 522              	.L36:
 371:.\protocol.c  **** 					side.b.ppuSale[5-x]=((Pump_rxBuffer[x+11]&0x0F)+0x30);
 523              		.loc 1 371 0 is_stmt 0 discriminator 1
 524 0162 042B     		cmp	r3, #4
 525 0164 F0D9     		bls	.L37
 374:.\protocol.c  ****                 if(ppux10==1){
 526              		.loc 1 374 0 is_stmt 1
 527 0166 0422     		movs	r2, #4
 528 0168 654B     		ldr	r3, .L70+8
 529              	.LVL58:
 530 016a 83F8F421 		strb	r2, [r3, #500]
 375:.\protocol.c  ****                     side.b.ppuSale[0]=5;
 531              		.loc 1 375 0
 532 016e 664B     		ldr	r3, .L70+16
 533 0170 1B78     		ldrb	r3, [r3]	@ zero_extendqisi2
 534 0172 DBB2     		uxtb	r3, r3
 535 0174 012B     		cmp	r3, #1
 536 0176 06D1     		bne	.L38
 376:.\protocol.c  ****                     side.b.ppuSale[5]='0';
 537              		.loc 1 376 0
 538 0178 614B     		ldr	r3, .L70+8
 539 017a 0522     		movs	r2, #5
 540 017c 83F8F421 		strb	r2, [r3, #500]
 377:.\protocol.c  ****                 }
 541              		.loc 1 377 0
 542 0180 3022     		movs	r2, #48
 543 0182 83F8F921 		strb	r2, [r3, #505]
 544              	.L38:
 371:.\protocol.c  **** 					side.b.ppuSale[5-x]=((Pump_rxBuffer[x+11]&0x0F)+0x30);
 545              		.loc 1 371 0 discriminator 1
 546 0186 0123     		movs	r3, #1
 547 0188 0CE0     		b	.L39
 548              	.LVL59:
 549              	.L40:
 380:.\protocol.c  **** 				}
 550              		.loc 1 380 0 discriminator 3
 551 018a 03F11002 		add	r2, r3, #16
ARM GAS  C:\Users\Lenovo\AppData\Local\Temp\ccd7Og9t.s 			page 18


 552 018e 5B49     		ldr	r1, .L70+4
 553 0190 8A5C     		ldrb	r2, [r1, r2]	@ zero_extendqisi2
 554 0192 5E49     		ldr	r1, .L70+20
 555 0194 C91A     		subs	r1, r1, r3
 556 0196 02F00F02 		and	r2, r2, #15
 557 019a 3032     		adds	r2, r2, #48
 558 019c 81F8E621 		strb	r2, [r1, #486]
 379:.\protocol.c  **** 					side.b.volumeSale[7-x]=((Pump_rxBuffer[x+16]&0x0F)+0x30);
 559              		.loc 1 379 0 discriminator 3
 560 01a0 0133     		adds	r3, r3, #1
 561              	.LVL60:
 562 01a2 DBB2     		uxtb	r3, r3
 563              	.LVL61:
 564              	.L39:
 379:.\protocol.c  **** 					side.b.volumeSale[7-x]=((Pump_rxBuffer[x+16]&0x0F)+0x30);
 565              		.loc 1 379 0 is_stmt 0 discriminator 1
 566 01a4 062B     		cmp	r3, #6
 567 01a6 F0D9     		bls	.L40
 382:.\protocol.c  **** 				for(x=1;x<=6;x++){
 568              		.loc 1 382 0 is_stmt 1
 569 01a8 0622     		movs	r2, #6
 570 01aa 554B     		ldr	r3, .L70+8
 571              	.LVL62:
 572 01ac 83F8E621 		strb	r2, [r3, #486]
 573              	.LVL63:
 383:.\protocol.c  **** 					side.b.moneySale[7-x]=((Pump_rxBuffer[x+23]&0x0F)+0x30);
 574              		.loc 1 383 0
 575 01b0 0123     		movs	r3, #1
 576 01b2 0CE0     		b	.L41
 577              	.LVL64:
 578              	.L42:
 384:.\protocol.c  **** 				}	
 579              		.loc 1 384 0 discriminator 3
 580 01b4 03F11702 		add	r2, r3, #23
 581 01b8 5049     		ldr	r1, .L70+4
 582 01ba 8A5C     		ldrb	r2, [r1, r2]	@ zero_extendqisi2
 583 01bc 5349     		ldr	r1, .L70+20
 584 01be C91A     		subs	r1, r1, r3
 585 01c0 02F00F02 		and	r2, r2, #15
 586 01c4 3032     		adds	r2, r2, #48
 587 01c6 81F8D821 		strb	r2, [r1, #472]
 383:.\protocol.c  **** 					side.b.moneySale[7-x]=((Pump_rxBuffer[x+23]&0x0F)+0x30);
 588              		.loc 1 383 0 discriminator 3
 589 01ca 0133     		adds	r3, r3, #1
 590              	.LVL65:
 591 01cc DBB2     		uxtb	r3, r3
 592              	.LVL66:
 593              	.L41:
 383:.\protocol.c  **** 					side.b.moneySale[7-x]=((Pump_rxBuffer[x+23]&0x0F)+0x30);
 594              		.loc 1 383 0 is_stmt 0 discriminator 1
 595 01ce 062B     		cmp	r3, #6
 596 01d0 F0D9     		bls	.L42
 386:.\protocol.c  ****                     for(x=6;x>1;x--){
 597              		.loc 1 386 0 is_stmt 1
 598 01d2 494B     		ldr	r3, .L70
 599              	.LVL67:
 600 01d4 1B78     		ldrb	r3, [r3]	@ zero_extendqisi2
ARM GAS  C:\Users\Lenovo\AppData\Local\Temp\ccd7Og9t.s 			page 19


 601 01d6 052B     		cmp	r3, #5
 602 01d8 11D1     		bne	.L44
 603 01da 09E0     		b	.L63
 604              	.LVL68:
 605              	.L45:
 388:.\protocol.c  ****                     }
 606              		.loc 1 388 0 discriminator 3
 607 01dc 5A1E     		subs	r2, r3, #1
 608 01de 4849     		ldr	r1, .L70+8
 609 01e0 8818     		adds	r0, r1, r2
 610 01e2 90F8D801 		ldrb	r0, [r0, #472]	@ zero_extendqisi2
 611 01e6 0B44     		add	r3, r3, r1
 612              	.LVL69:
 613 01e8 83F8D801 		strb	r0, [r3, #472]
 387:.\protocol.c  ****                         side.b.moneySale[x]=side.b.moneySale[x-1];
 614              		.loc 1 387 0 discriminator 3
 615 01ec D3B2     		uxtb	r3, r2
 616              	.LVL70:
 617 01ee 00E0     		b	.L43
 618              	.LVL71:
 619              	.L63:
 620 01f0 0623     		movs	r3, #6
 621              	.L43:
 622              	.LVL72:
 387:.\protocol.c  ****                         side.b.moneySale[x]=side.b.moneySale[x-1];
 623              		.loc 1 387 0 is_stmt 0 discriminator 1
 624 01f2 012B     		cmp	r3, #1
 625 01f4 F2D8     		bhi	.L45
 390:.\protocol.c  ****                 }
 626              		.loc 1 390 0 is_stmt 1
 627 01f6 3022     		movs	r2, #48
 628 01f8 414B     		ldr	r3, .L70+8
 629              	.LVL73:
 630 01fa 83F8D921 		strb	r2, [r3, #473]
 631              	.L44:
 392:.\protocol.c  **** 			}
 632              		.loc 1 392 0
 633 01fe 0622     		movs	r2, #6
 634 0200 3F4B     		ldr	r3, .L70+8
 635 0202 83F8D821 		strb	r2, [r3, #472]
 636              		.loc 1 394 0
 637 0206 0120     		movs	r0, #1
 638 0208 10BD     		pop	{r4, pc}
 639              	.L23:
 395:.\protocol.c  **** 		}
 396:.\protocol.c  **** 		else{
 397:.\protocol.c  **** 			return 0;
 398:.\protocol.c  **** 		}
 399:.\protocol.c  **** 	}
 400:.\protocol.c  **** 	else if((digits==7)&&(Pump_GetRxBufferSize()==39)){
 640              		.loc 1 400 0
 641 020a 3B4B     		ldr	r3, .L70
 642 020c 1B78     		ldrb	r3, [r3]	@ zero_extendqisi2
 643 020e 072B     		cmp	r3, #7
 644 0210 40F0C880 		bne	.L64
 645              		.loc 1 400 0 is_stmt 0 discriminator 1
 646 0214 FFF7FEFF 		bl	Pump_GetRxBufferSize
ARM GAS  C:\Users\Lenovo\AppData\Local\Temp\ccd7Og9t.s 			page 20


 647              	.LVL74:
 648 0218 2728     		cmp	r0, #39
 649 021a 40F0C580 		bne	.L65
 401:.\protocol.c  **** 		if((Pump_rxBuffer[0]==0xFF)&&(Pump_rxBuffer[2]==0xF8)&&(Pump_rxBuffer[38]==0xF0)){
 650              		.loc 1 401 0 is_stmt 1
 651 021e 374B     		ldr	r3, .L70+4
 652 0220 1B78     		ldrb	r3, [r3]	@ zero_extendqisi2
 653 0222 DBB2     		uxtb	r3, r3
 654 0224 FF2B     		cmp	r3, #255
 655 0226 40F0C180 		bne	.L66
 656              		.loc 1 401 0 is_stmt 0 discriminator 1
 657 022a 344B     		ldr	r3, .L70+4
 658 022c 9B78     		ldrb	r3, [r3, #2]	@ zero_extendqisi2
 659 022e DBB2     		uxtb	r3, r3
 660 0230 F82B     		cmp	r3, #248
 661 0232 40F0BD80 		bne	.L67
 662              		.loc 1 401 0 discriminator 2
 663 0236 314B     		ldr	r3, .L70+4
 664 0238 93F82630 		ldrb	r3, [r3, #38]	@ zero_extendqisi2
 665 023c DBB2     		uxtb	r3, r3
 666 023e F02B     		cmp	r3, #240
 667 0240 40F0B880 		bne	.L68
 402:.\protocol.c  **** 			if(pos==side.a.dir){
 668              		.loc 1 402 0 is_stmt 1
 669 0244 2E4B     		ldr	r3, .L70+8
 670 0246 1B78     		ldrb	r3, [r3]	@ zero_extendqisi2
 671 0248 A342     		cmp	r3, r4
 672 024a 4BD1     		bne	.L46
 403:.\protocol.c  **** 				side.a.productSale=((Pump_rxBuffer[9]&0x0F)+1)+0x30;
 673              		.loc 1 403 0
 674 024c 2B4B     		ldr	r3, .L70+4
 675 024e 5B7A     		ldrb	r3, [r3, #9]	@ zero_extendqisi2
 676 0250 03F00F03 		and	r3, r3, #15
 677 0254 3133     		adds	r3, r3, #49
 678 0256 2A4A     		ldr	r2, .L70+8
 679 0258 82F8FF30 		strb	r3, [r2, #255]
 680              	.LVL75:
 404:.\protocol.c  **** 				for(x=1;x<=6;x++){
 681              		.loc 1 404 0
 682 025c 0123     		movs	r3, #1
 683 025e 0CE0     		b	.L47
 684              	.LVL76:
 685              	.L48:
 405:.\protocol.c  **** 					side.a.ppuSale[7-x]=((Pump_rxBuffer[x+11]&0x0F)+0x30);
 686              		.loc 1 405 0 discriminator 3
 687 0260 03F10B02 		add	r2, r3, #11
 688 0264 2549     		ldr	r1, .L70+4
 689 0266 8A5C     		ldrb	r2, [r1, r2]	@ zero_extendqisi2
 690 0268 2849     		ldr	r1, .L70+20
 691 026a C91A     		subs	r1, r1, r3
 692 026c 02F00F02 		and	r2, r2, #15
 693 0270 3032     		adds	r2, r2, #48
 694 0272 81F8F120 		strb	r2, [r1, #241]
 404:.\protocol.c  **** 				for(x=1;x<=6;x++){
 695              		.loc 1 404 0 discriminator 3
 696 0276 0133     		adds	r3, r3, #1
 697              	.LVL77:
ARM GAS  C:\Users\Lenovo\AppData\Local\Temp\ccd7Og9t.s 			page 21


 698 0278 DBB2     		uxtb	r3, r3
 699              	.LVL78:
 700              	.L47:
 404:.\protocol.c  **** 				for(x=1;x<=6;x++){
 701              		.loc 1 404 0 is_stmt 0 discriminator 1
 702 027a 062B     		cmp	r3, #6
 703 027c F0D9     		bls	.L48
 406:.\protocol.c  **** 				}
 407:.\protocol.c  ****                 side.a.ppuSale[0]=6;
 704              		.loc 1 407 0 is_stmt 1
 705 027e 0622     		movs	r2, #6
 706 0280 1F4B     		ldr	r3, .L70+8
 707              	.LVL79:
 708 0282 83F8F120 		strb	r2, [r3, #241]
 709              	.LVL80:
 408:.\protocol.c  **** 				for(x=1;x<=8;x++){
 710              		.loc 1 408 0
 711 0286 0123     		movs	r3, #1
 712 0288 0CE0     		b	.L49
 713              	.LVL81:
 714              	.L50:
 409:.\protocol.c  **** 					side.a.volumeSale[9-x]=((Pump_rxBuffer[x+18]&0x0F)+0x30);
 715              		.loc 1 409 0 discriminator 3
 716 028a 03F11202 		add	r2, r3, #18
 717 028e 1B49     		ldr	r1, .L70+4
 718 0290 8A5C     		ldrb	r2, [r1, r2]	@ zero_extendqisi2
 719 0292 1F49     		ldr	r1, .L70+24
 720 0294 C91A     		subs	r1, r1, r3
 721 0296 02F00F02 		and	r2, r2, #15
 722 029a 3032     		adds	r2, r2, #48
 723 029c 81F8E320 		strb	r2, [r1, #227]
 408:.\protocol.c  **** 				for(x=1;x<=8;x++){
 724              		.loc 1 408 0 discriminator 3
 725 02a0 0133     		adds	r3, r3, #1
 726              	.LVL82:
 727 02a2 DBB2     		uxtb	r3, r3
 728              	.LVL83:
 729              	.L49:
 408:.\protocol.c  **** 				for(x=1;x<=8;x++){
 730              		.loc 1 408 0 is_stmt 0 discriminator 1
 731 02a4 082B     		cmp	r3, #8
 732 02a6 F0D9     		bls	.L50
 410:.\protocol.c  **** 				}		
 411:.\protocol.c  ****                 side.a.volumeSale[0]=8;
 733              		.loc 1 411 0 is_stmt 1
 734 02a8 0822     		movs	r2, #8
 735 02aa 154B     		ldr	r3, .L70+8
 736              	.LVL84:
 737 02ac 83F8E320 		strb	r2, [r3, #227]
 738              	.LVL85:
 412:.\protocol.c  **** 				for(x=1;x<=7;x++){
 739              		.loc 1 412 0
 740 02b0 0123     		movs	r3, #1
 741 02b2 0CE0     		b	.L51
 742              	.LVL86:
 743              	.L52:
 413:.\protocol.c  **** 					side.a.moneySale[9-x]=((Pump_rxBuffer[x+28]&0x0F)+0x30);
ARM GAS  C:\Users\Lenovo\AppData\Local\Temp\ccd7Og9t.s 			page 22


 744              		.loc 1 413 0 discriminator 3
 745 02b4 03F11C02 		add	r2, r3, #28
 746 02b8 1049     		ldr	r1, .L70+4
 747 02ba 8A5C     		ldrb	r2, [r1, r2]	@ zero_extendqisi2
 748 02bc 1449     		ldr	r1, .L70+24
 749 02be C91A     		subs	r1, r1, r3
 750 02c0 02F00F02 		and	r2, r2, #15
 751 02c4 3032     		adds	r2, r2, #48
 752 02c6 81F8D520 		strb	r2, [r1, #213]
 412:.\protocol.c  **** 				for(x=1;x<=7;x++){
 753              		.loc 1 412 0 discriminator 3
 754 02ca 0133     		adds	r3, r3, #1
 755              	.LVL87:
 756 02cc DBB2     		uxtb	r3, r3
 757              	.LVL88:
 758              	.L51:
 412:.\protocol.c  **** 				for(x=1;x<=7;x++){
 759              		.loc 1 412 0 is_stmt 0 discriminator 1
 760 02ce 072B     		cmp	r3, #7
 761 02d0 F0D9     		bls	.L52
 414:.\protocol.c  **** 				}
 415:.\protocol.c  ****                 side.a.moneySale[1]='0';
 762              		.loc 1 415 0 is_stmt 1
 763 02d2 0B4B     		ldr	r3, .L70+8
 764              	.LVL89:
 765 02d4 3022     		movs	r2, #48
 766 02d6 83F8D620 		strb	r2, [r3, #214]
 416:.\protocol.c  ****                 side.a.moneySale[0]=8;
 767              		.loc 1 416 0
 768 02da 0822     		movs	r2, #8
 769 02dc 83F8D520 		strb	r2, [r3, #213]
 417:.\protocol.c  **** 			}
 418:.\protocol.c  **** 			else{
 419:.\protocol.c  **** 				side.b.productSale=((Pump_rxBuffer[9]&0x0F)+1)+0x30;
 420:.\protocol.c  **** 				for(x=1;x<=6;x++){
 421:.\protocol.c  **** 					side.b.ppuSale[7-x]=((Pump_rxBuffer[x+11]&0x0F)+0x30);
 422:.\protocol.c  **** 				}
 423:.\protocol.c  ****                 side.b.ppuSale[0]=6;
 424:.\protocol.c  **** 				for(x=1;x<=8;x++){
 425:.\protocol.c  **** 					side.b.volumeSale[9-x]=((Pump_rxBuffer[x+18]&0x0F)+0x30);
 426:.\protocol.c  **** 				}	
 427:.\protocol.c  ****                 side.b.volumeSale[0]=8;
 428:.\protocol.c  **** 				for(x=1;x<=7;x++){
 429:.\protocol.c  **** 					side.b.moneySale[9-x]=((Pump_rxBuffer[x+28]&0x0F)+0x30);
 430:.\protocol.c  **** 				}	
 431:.\protocol.c  ****                 side.b.moneySale[1]='0';
 432:.\protocol.c  ****                 side.b.moneySale[0]=8;
 433:.\protocol.c  **** 			}
 434:.\protocol.c  **** 			return 1;
 770              		.loc 1 434 0
 771 02e0 0120     		movs	r0, #1
 772 02e2 10BD     		pop	{r4, pc}
 773              	.L46:
 419:.\protocol.c  **** 				for(x=1;x<=6;x++){
 774              		.loc 1 419 0
 775 02e4 054B     		ldr	r3, .L70+4
 776 02e6 5B7A     		ldrb	r3, [r3, #9]	@ zero_extendqisi2
ARM GAS  C:\Users\Lenovo\AppData\Local\Temp\ccd7Og9t.s 			page 23


 777 02e8 03F00F03 		and	r3, r3, #15
 778 02ec 3133     		adds	r3, r3, #49
 779 02ee 044A     		ldr	r2, .L70+8
 780 02f0 82F80232 		strb	r3, [r2, #514]
 781              	.LVL90:
 420:.\protocol.c  **** 					side.b.ppuSale[7-x]=((Pump_rxBuffer[x+11]&0x0F)+0x30);
 782              		.loc 1 420 0
 783 02f4 0123     		movs	r3, #1
 784 02f6 1AE0     		b	.L53
 785              	.L71:
 786              		.align	2
 787              	.L70:
 788 02f8 00000000 		.word	digits
 789 02fc 00000000 		.word	Pump_rxBuffer
 790 0300 00000000 		.word	side
 791 0304 05000000 		.word	side+5
 792 0308 00000000 		.word	ppux10
 793 030c 07000000 		.word	side+7
 794 0310 09000000 		.word	side+9
 795              	.LVL91:
 796              	.L54:
 421:.\protocol.c  **** 				}
 797              		.loc 1 421 0 discriminator 3
 798 0314 03F10B02 		add	r2, r3, #11
 799 0318 2749     		ldr	r1, .L72
 800 031a 8A5C     		ldrb	r2, [r1, r2]	@ zero_extendqisi2
 801 031c 2749     		ldr	r1, .L72+4
 802 031e C91A     		subs	r1, r1, r3
 803 0320 02F00F02 		and	r2, r2, #15
 804 0324 3032     		adds	r2, r2, #48
 805 0326 81F8F421 		strb	r2, [r1, #500]
 420:.\protocol.c  **** 					side.b.ppuSale[7-x]=((Pump_rxBuffer[x+11]&0x0F)+0x30);
 806              		.loc 1 420 0 discriminator 3
 807 032a 0133     		adds	r3, r3, #1
 808              	.LVL92:
 809 032c DBB2     		uxtb	r3, r3
 810              	.LVL93:
 811              	.L53:
 420:.\protocol.c  **** 					side.b.ppuSale[7-x]=((Pump_rxBuffer[x+11]&0x0F)+0x30);
 812              		.loc 1 420 0 is_stmt 0 discriminator 1
 813 032e 062B     		cmp	r3, #6
 814 0330 F0D9     		bls	.L54
 423:.\protocol.c  **** 				for(x=1;x<=8;x++){
 815              		.loc 1 423 0 is_stmt 1
 816 0332 0622     		movs	r2, #6
 817 0334 224B     		ldr	r3, .L72+8
 818              	.LVL94:
 819 0336 83F8F421 		strb	r2, [r3, #500]
 820              	.LVL95:
 424:.\protocol.c  **** 					side.b.volumeSale[9-x]=((Pump_rxBuffer[x+18]&0x0F)+0x30);
 821              		.loc 1 424 0
 822 033a 0123     		movs	r3, #1
 823 033c 0CE0     		b	.L55
 824              	.LVL96:
 825              	.L56:
 425:.\protocol.c  **** 				}	
 826              		.loc 1 425 0 discriminator 3
ARM GAS  C:\Users\Lenovo\AppData\Local\Temp\ccd7Og9t.s 			page 24


 827 033e 03F11202 		add	r2, r3, #18
 828 0342 1D49     		ldr	r1, .L72
 829 0344 8A5C     		ldrb	r2, [r1, r2]	@ zero_extendqisi2
 830 0346 1F49     		ldr	r1, .L72+12
 831 0348 C91A     		subs	r1, r1, r3
 832 034a 02F00F02 		and	r2, r2, #15
 833 034e 3032     		adds	r2, r2, #48
 834 0350 81F8E621 		strb	r2, [r1, #486]
 424:.\protocol.c  **** 					side.b.volumeSale[9-x]=((Pump_rxBuffer[x+18]&0x0F)+0x30);
 835              		.loc 1 424 0 discriminator 3
 836 0354 0133     		adds	r3, r3, #1
 837              	.LVL97:
 838 0356 DBB2     		uxtb	r3, r3
 839              	.LVL98:
 840              	.L55:
 424:.\protocol.c  **** 					side.b.volumeSale[9-x]=((Pump_rxBuffer[x+18]&0x0F)+0x30);
 841              		.loc 1 424 0 is_stmt 0 discriminator 1
 842 0358 082B     		cmp	r3, #8
 843 035a F0D9     		bls	.L56
 427:.\protocol.c  **** 				for(x=1;x<=7;x++){
 844              		.loc 1 427 0 is_stmt 1
 845 035c 0822     		movs	r2, #8
 846 035e 184B     		ldr	r3, .L72+8
 847              	.LVL99:
 848 0360 83F8E621 		strb	r2, [r3, #486]
 849              	.LVL100:
 428:.\protocol.c  **** 					side.b.moneySale[9-x]=((Pump_rxBuffer[x+28]&0x0F)+0x30);
 850              		.loc 1 428 0
 851 0364 0123     		movs	r3, #1
 852 0366 0CE0     		b	.L57
 853              	.LVL101:
 854              	.L58:
 429:.\protocol.c  **** 				}	
 855              		.loc 1 429 0 discriminator 3
 856 0368 03F11C02 		add	r2, r3, #28
 857 036c 1249     		ldr	r1, .L72
 858 036e 8A5C     		ldrb	r2, [r1, r2]	@ zero_extendqisi2
 859 0370 1449     		ldr	r1, .L72+12
 860 0372 C91A     		subs	r1, r1, r3
 861 0374 02F00F02 		and	r2, r2, #15
 862 0378 3032     		adds	r2, r2, #48
 863 037a 81F8D821 		strb	r2, [r1, #472]
 428:.\protocol.c  **** 					side.b.moneySale[9-x]=((Pump_rxBuffer[x+28]&0x0F)+0x30);
 864              		.loc 1 428 0 discriminator 3
 865 037e 0133     		adds	r3, r3, #1
 866              	.LVL102:
 867 0380 DBB2     		uxtb	r3, r3
 868              	.LVL103:
 869              	.L57:
 428:.\protocol.c  **** 					side.b.moneySale[9-x]=((Pump_rxBuffer[x+28]&0x0F)+0x30);
 870              		.loc 1 428 0 is_stmt 0 discriminator 1
 871 0382 072B     		cmp	r3, #7
 872 0384 F0D9     		bls	.L58
 431:.\protocol.c  ****                 side.b.moneySale[0]=8;
 873              		.loc 1 431 0 is_stmt 1
 874 0386 0E4B     		ldr	r3, .L72+8
 875              	.LVL104:
ARM GAS  C:\Users\Lenovo\AppData\Local\Temp\ccd7Og9t.s 			page 25


 876 0388 3022     		movs	r2, #48
 877 038a 83F8D921 		strb	r2, [r3, #473]
 432:.\protocol.c  **** 			}
 878              		.loc 1 432 0
 879 038e 0822     		movs	r2, #8
 880 0390 83F8D821 		strb	r2, [r3, #472]
 881              		.loc 1 434 0
 882 0394 0120     		movs	r0, #1
 883 0396 10BD     		pop	{r4, pc}
 884              	.L59:
 397:.\protocol.c  **** 		}
 885              		.loc 1 397 0
 886 0398 0020     		movs	r0, #0
 887 039a 10BD     		pop	{r4, pc}
 888              	.L60:
 889 039c 0020     		movs	r0, #0
 890 039e 10BD     		pop	{r4, pc}
 891              	.L61:
 892 03a0 0020     		movs	r0, #0
 893 03a2 10BD     		pop	{r4, pc}
 894              	.L64:
 435:.\protocol.c  **** 		}
 436:.\protocol.c  **** 		else{
 437:.\protocol.c  **** 			return 0;
 438:.\protocol.c  **** 		}
 439:.\protocol.c  **** 	}
 440:.\protocol.c  **** 	return 0;
 895              		.loc 1 440 0
 896 03a4 0020     		movs	r0, #0
 897 03a6 10BD     		pop	{r4, pc}
 898              	.L65:
 899 03a8 0020     		movs	r0, #0
 900 03aa 10BD     		pop	{r4, pc}
 901              	.L66:
 437:.\protocol.c  **** 		}
 902              		.loc 1 437 0
 903 03ac 0020     		movs	r0, #0
 904 03ae 10BD     		pop	{r4, pc}
 905              	.L67:
 906 03b0 0020     		movs	r0, #0
 907 03b2 10BD     		pop	{r4, pc}
 908              	.L68:
 909 03b4 0020     		movs	r0, #0
 441:.\protocol.c  **** }
 910              		.loc 1 441 0
 911 03b6 10BD     		pop	{r4, pc}
 912              	.L73:
 913              		.align	2
 914              	.L72:
 915 03b8 00000000 		.word	Pump_rxBuffer
 916 03bc 07000000 		.word	side+7
 917 03c0 00000000 		.word	side
 918 03c4 09000000 		.word	side+9
 919              		.cfi_endproc
 920              	.LFE68:
 921              		.size	getSale, .-getSale
 922              		.section	.text.PumpIsInValidState,"ax",%progbits
ARM GAS  C:\Users\Lenovo\AppData\Local\Temp\ccd7Og9t.s 			page 26


 923              		.align	2
 924              		.global	PumpIsInValidState
 925              		.thumb
 926              		.thumb_func
 927              		.type	PumpIsInValidState, %function
 928              	PumpIsInValidState:
 929              	.LFB69:
 442:.\protocol.c  **** 
 443:.\protocol.c  **** 
 444:.\protocol.c  **** bool PumpIsInValidState(state)
 445:.\protocol.c  **** {
 930              		.loc 1 445 0
 931              		.cfi_startproc
 932              		@ args = 0, pretend = 0, frame = 0
 933              		@ frame_needed = 0, uses_anonymous_args = 0
 934              		@ link register save eliminated.
 935              	.LVL105:
 446:.\protocol.c  ****     bool retval = false;    
 447:.\protocol.c  ****     switch(state)
 936              		.loc 1 447 0
 937 0000 30B1     		cbz	r0, .L77
 938 0002 0028     		cmp	r0, #0
 939 0004 02DB     		blt	.L75
 940 0006 831F     		subs	r3, r0, #6
 941 0008 062B     		cmp	r3, #6
 942 000a 01D9     		bls	.L77
 943              	.L75:
 446:.\protocol.c  ****     bool retval = false;    
 944              		.loc 1 446 0
 945 000c 0020     		movs	r0, #0
 946              	.LVL106:
 947 000e 7047     		bx	lr
 948              	.LVL107:
 949              	.L77:
 448:.\protocol.c  ****     {
 449:.\protocol.c  ****         case PUMP_IDLE:
 450:.\protocol.c  ****         case PUMP_CALLING:
 451:.\protocol.c  ****         case PUMP_AUTHORIZED:
 452:.\protocol.c  ****         case PUMP_BUSY:
 453:.\protocol.c  ****         case PUMP_PEOT:
 454:.\protocol.c  ****         case PUMP_FEOT:
 455:.\protocol.c  ****         case PUMP_STOPPED:
 456:.\protocol.c  ****         case PUMP_FAIL:
 457:.\protocol.c  ****             retval = true;
 950              		.loc 1 457 0
 951 0010 0120     		movs	r0, #1
 952              	.LVL108:
 458:.\protocol.c  ****             break;
 459:.\protocol.c  ****     }
 460:.\protocol.c  ****     return retval;
 461:.\protocol.c  **** }
 953              		.loc 1 461 0
 954 0012 7047     		bx	lr
 955              		.cfi_endproc
 956              	.LFE69:
 957              		.size	PumpIsInValidState, .-PumpIsInValidState
 958              		.section	.text.GetLRC,"ax",%progbits
ARM GAS  C:\Users\Lenovo\AppData\Local\Temp\ccd7Og9t.s 			page 27


 959              		.align	2
 960              		.global	GetLRC
 961              		.thumb
 962              		.thumb_func
 963              		.type	GetLRC, %function
 964              	GetLRC:
 965              	.LFB70:
 462:.\protocol.c  **** 
 463:.\protocol.c  **** 
 464:.\protocol.c  **** 
 465:.\protocol.c  **** uint8_t GetLRC(char8 *_pbuffer)
 466:.\protocol.c  **** {
 966              		.loc 1 466 0
 967              		.cfi_startproc
 968              		@ args = 0, pretend = 0, frame = 0
 969              		@ frame_needed = 0, uses_anonymous_args = 0
 970              		@ link register save eliminated.
 971              	.LVL109:
 467:.\protocol.c  ****     uint8_t lrc = 0;
 972              		.loc 1 467 0
 973 0000 0021     		movs	r1, #0
 468:.\protocol.c  ****     while(*_pbuffer != 0xFB)
 974              		.loc 1 468 0
 975 0002 04E0     		b	.L79
 976              	.LVL110:
 977              	.L80:
 469:.\protocol.c  ****     {
 470:.\protocol.c  ****         lrc += (*_pbuffer & 0x0F);
 978              		.loc 1 470 0
 979 0004 03F00F03 		and	r3, r3, #15
 980 0008 0B44     		add	r3, r3, r1
 981 000a D9B2     		uxtb	r1, r3
 982              	.LVL111:
 471:.\protocol.c  ****         _pbuffer++;
 983              		.loc 1 471 0
 984 000c 0130     		adds	r0, r0, #1
 985              	.LVL112:
 986              	.L79:
 468:.\protocol.c  ****     while(*_pbuffer != 0xFB)
 987              		.loc 1 468 0
 988 000e 0378     		ldrb	r3, [r0]	@ zero_extendqisi2
 989 0010 FB2B     		cmp	r3, #251
 990 0012 F7D1     		bne	.L80
 472:.\protocol.c  ****     }
 473:.\protocol.c  ****     lrc += (*_pbuffer & 0x0F);
 991              		.loc 1 473 0
 992 0014 03F00F02 		and	r2, r3, #15
 993 0018 8818     		adds	r0, r1, r2
 994              	.LVL113:
 474:.\protocol.c  ****     return (((~lrc + 1) & 0x0F) | 0xE0);
 995              		.loc 1 474 0
 996 001a 4042     		negs	r0, r0
 997              	.LVL114:
 998 001c 00F00F00 		and	r0, r0, #15
 999              	.LVL115:
 475:.\protocol.c  **** }
 1000              		.loc 1 475 0
ARM GAS  C:\Users\Lenovo\AppData\Local\Temp\ccd7Og9t.s 			page 28


 1001 0020 40F0E000 		orr	r0, r0, #224
 1002 0024 7047     		bx	lr
 1003              		.cfi_endproc
 1004              	.LFE70:
 1005              		.size	GetLRC, .-GetLRC
 1006 0026 00BF     		.section	.text.PresetData,"ax",%progbits
 1007              		.align	2
 1008              		.global	PresetData
 1009              		.thumb
 1010              		.thumb_func
 1011              		.type	PresetData, %function
 1012              	PresetData:
 1013              	.LFB65:
 148:.\protocol.c  ****     char8 SendComand[18]={0,0,0,0,0,0,0,0,0,0,0,0,0,0,0,0,0,0};
 1014              		.loc 1 148 0
 1015              		.cfi_startproc
 1016              		@ args = 0, pretend = 0, frame = 24
 1017              		@ frame_needed = 0, uses_anonymous_args = 0
 1018              	.LVL116:
 1019 0000 F0B5     		push	{r4, r5, r6, r7, lr}
 1020              		.cfi_def_cfa_offset 20
 1021              		.cfi_offset 4, -20
 1022              		.cfi_offset 5, -16
 1023              		.cfi_offset 6, -12
 1024              		.cfi_offset 7, -8
 1025              		.cfi_offset 14, -4
 1026 0002 87B0     		sub	sp, sp, #28
 1027              		.cfi_def_cfa_offset 48
 1028 0004 0546     		mov	r5, r0
 1029 0006 0E46     		mov	r6, r1
 1030 0008 1446     		mov	r4, r2
 149:.\protocol.c  ****     uint8 state,x,y,z;
 1031              		.loc 1 149 0
 1032 000a 0023     		movs	r3, #0
 1033              	.LVL117:
 1034 000c 0193     		str	r3, [sp, #4]
 1035 000e 0293     		str	r3, [sp, #8]
 1036 0010 0393     		str	r3, [sp, #12]
 1037 0012 0493     		str	r3, [sp, #16]
 1038 0014 ADF81430 		strh	r3, [sp, #20]	@ movhi
 1039              	.LVL118:
 155:.\protocol.c  ****     if(state == 0x06 || state == 0x07){
 1040              		.loc 1 155 0
 1041 0018 FFF7FEFF 		bl	get_state
 1042              	.LVL119:
 156:.\protocol.c  ****         Pump_PutChar(0x20|side);
 1043              		.loc 1 156 0
 1044 001c 0638     		subs	r0, r0, #6
 1045              	.LVL120:
 1046 001e C0B2     		uxtb	r0, r0
 1047 0020 0128     		cmp	r0, #1
 1048 0022 0AD8     		bhi	.L101
 157:.\protocol.c  ****         CyDelay(50);
 1049              		.loc 1 157 0
 1050 0024 45F02000 		orr	r0, r5, #32
 1051 0028 FFF7FEFF 		bl	Pump_PutChar
 1052              	.LVL121:
ARM GAS  C:\Users\Lenovo\AppData\Local\Temp\ccd7Og9t.s 			page 29


 158:.\protocol.c  ****         PumpDataReceive = Pump_ReadRxData();
 1053              		.loc 1 158 0
 1054 002c 3220     		movs	r0, #50
 1055 002e FFF7FEFF 		bl	CyDelay
 1056              	.LVL122:
 159:.\protocol.c  ****     }
 1057              		.loc 1 159 0
 1058 0032 FFF7FEFF 		bl	Pump_ReadRxData
 1059              	.LVL123:
 1060 0036 0746     		mov	r7, r0
 1061              	.LVL124:
 1062 0038 00E0     		b	.L82
 1063              	.LVL125:
 1064              	.L101:
 151:.\protocol.c  ****     x = 0;
 1065              		.loc 1 151 0
 1066 003a 0027     		movs	r7, #0
 1067              	.LVL126:
 1068              	.L82:
 161:.\protocol.c  ****     Pump_ClearRxBuffer();
 1069              		.loc 1 161 0
 1070 003c FFF7FEFF 		bl	Pump_ClearRxBuffer
 1071              	.LVL127:
 162:.\protocol.c  ****     if(PumpDataReceive == (0xd0|side)){
 1072              		.loc 1 162 0
 1073 0040 FFF7FEFF 		bl	Pump_ClearRxBuffer
 1074              	.LVL128:
 163:.\protocol.c  ****         SendComand[x] = SOM; x++;
 1075              		.loc 1 163 0
 1076 0044 45F0D003 		orr	r3, r5, #208
 1077 0048 BB42     		cmp	r3, r7
 1078 004a 40F0AA80 		bne	.L102
 164:.\protocol.c  ****         SendComand[x] = 0xE1; x++;
 1079              		.loc 1 164 0
 1080 004e FF23     		movs	r3, #255
 1081 0050 8DF80430 		strb	r3, [sp, #4]
 1082              	.LVL129:
 165:.\protocol.c  ****         if(side == 1){
 1083              		.loc 1 165 0
 1084 0054 E123     		movs	r3, #225
 1085 0056 8DF80530 		strb	r3, [sp, #5]
 1086              	.LVL130:
 166:.\protocol.c  ****             SendComand[x] = 0xF0 | (bufferDisplay1.presetType[0]&0x0F); x++;
 1087              		.loc 1 166 0
 1088 005a 012D     		cmp	r5, #1
 1089 005c 40F0A380 		bne	.L103
 167:.\protocol.c  ****             SendComand[x] = 0xF6; x++;
 1090              		.loc 1 167 0
 1091 0060 524A     		ldr	r2, .L106
 1092 0062 92F86330 		ldrb	r3, [r2, #99]	@ zero_extendqisi2
 1093 0066 63F00F03 		orn	r3, r3, #15
 1094 006a 8DF80630 		strb	r3, [sp, #6]
 1095              	.LVL131:
 168:.\protocol.c  ****             SendComand[x] = 0xE0 | ((grade-1)&0x0F); x++;
 1096              		.loc 1 168 0
 1097 006e F623     		movs	r3, #246
 1098 0070 8DF80730 		strb	r3, [sp, #7]
ARM GAS  C:\Users\Lenovo\AppData\Local\Temp\ccd7Og9t.s 			page 30


 1099              	.LVL132:
 169:.\protocol.c  ****             SendComand[x] = PRDn; x++;
 1100              		.loc 1 169 0
 1101 0074 013E     		subs	r6, r6, #1
 1102 0076 06F00F06 		and	r6, r6, #15
 1103 007a 66F01F06 		orn	r6, r6, #31
 1104 007e 8DF80860 		strb	r6, [sp, #8]
 1105              	.LVL133:
 170:.\protocol.c  ****             if(bufferDisplay1.presetType[1] == 'F'){
 1106              		.loc 1 170 0
 1107 0082 F823     		movs	r3, #248
 1108 0084 8DF80930 		strb	r3, [sp, #9]
 1109              	.LVL134:
 171:.\protocol.c  ****                 for(y = x; y < digits+x; y ++ ){
 1110              		.loc 1 171 0
 1111 0088 92F86450 		ldrb	r5, [r2, #100]	@ zero_extendqisi2
 1112 008c 462D     		cmp	r5, #70
 1113 008e 09D0     		beq	.L104
 170:.\protocol.c  ****             if(bufferDisplay1.presetType[1] == 'F'){
 1114              		.loc 1 170 0
 1115 0090 0623     		movs	r3, #6
 1116 0092 1AE0     		b	.L85
 1117              	.LVL135:
 1118              	.L86:
 173:.\protocol.c  ****                 }                
 1119              		.loc 1 173 0 discriminator 3
 1120 0094 06AA     		add	r2, sp, #24
 1121 0096 1A44     		add	r2, r2, r3
 1122 0098 E921     		movs	r1, #233
 1123 009a 02F8141C 		strb	r1, [r2, #-20]
 172:.\protocol.c  ****                     SendComand[y] = 0xE9;                    
 1124              		.loc 1 172 0 discriminator 3
 1125 009e 0133     		adds	r3, r3, #1
 1126              	.LVL136:
 1127 00a0 DBB2     		uxtb	r3, r3
 1128              	.LVL137:
 1129 00a2 00E0     		b	.L84
 1130              	.LVL138:
 1131              	.L104:
 1132 00a4 0623     		movs	r3, #6
 1133              	.L84:
 1134              	.LVL139:
 172:.\protocol.c  ****                     SendComand[y] = 0xE9;                    
 1135              		.loc 1 172 0 is_stmt 0 discriminator 1
 1136 00a6 424A     		ldr	r2, .L106+4
 1137 00a8 1278     		ldrb	r2, [r2]	@ zero_extendqisi2
 1138 00aa 0632     		adds	r2, r2, #6
 1139 00ac 9342     		cmp	r3, r2
 1140 00ae F1DB     		blt	.L86
 1141              	.LVL140:
 176:.\protocol.c  ****                     SendComand[y] = 0xE0;
 1142              		.loc 1 176 0 is_stmt 1
 1143 00b0 1A46     		mov	r2, r3
 1144 00b2 08E0     		b	.L87
 1145              	.LVL141:
 1146              	.L88:
 177:.\protocol.c  ****                     x++;
ARM GAS  C:\Users\Lenovo\AppData\Local\Temp\ccd7Og9t.s 			page 31


 1147              		.loc 1 177 0 discriminator 3
 1148 00b4 06A9     		add	r1, sp, #24
 1149 00b6 1144     		add	r1, r1, r2
 1150 00b8 E020     		movs	r0, #224
 1151 00ba 01F8140C 		strb	r0, [r1, #-20]
 178:.\protocol.c  ****                 }                
 1152              		.loc 1 178 0 discriminator 3
 1153 00be 0133     		adds	r3, r3, #1
 1154              	.LVL142:
 1155 00c0 DBB2     		uxtb	r3, r3
 1156              	.LVL143:
 176:.\protocol.c  ****                     SendComand[y] = 0xE0;
 1157              		.loc 1 176 0 discriminator 3
 1158 00c2 0132     		adds	r2, r2, #1
 1159              	.LVL144:
 1160 00c4 D2B2     		uxtb	r2, r2
 1161              	.LVL145:
 1162              	.L87:
 176:.\protocol.c  ****                     SendComand[y] = 0xE0;
 1163              		.loc 1 176 0 is_stmt 0 discriminator 1
 1164 00c6 0D2A     		cmp	r2, #13
 1165 00c8 F4D9     		bls	.L88
 1166              	.LVL146:
 1167              	.L85:
 181:.\protocol.c  ****                 z = value[0];
 1168              		.loc 1 181 0 is_stmt 1
 1169 00ca 442D     		cmp	r5, #68
 1170 00cc 20D1     		bne	.L89
 182:.\protocol.c  ****                 for(y = x; y < value[0]+x; y ++ ){
 1171              		.loc 1 182 0
 1172 00ce 2078     		ldrb	r0, [r4]	@ zero_extendqisi2
 1173              	.LVL147:
 183:.\protocol.c  ****                     SendComand[y] = 0xE0|(value[z]&0x0F); z--;                    
 1174              		.loc 1 183 0
 1175 00d0 1A46     		mov	r2, r3
 1176 00d2 0CE0     		b	.L90
 1177              	.LVL148:
 1178              	.L91:
 184:.\protocol.c  ****                 }                
 1179              		.loc 1 184 0 discriminator 3
 1180 00d4 215C     		ldrb	r1, [r4, r0]	@ zero_extendqisi2
 1181 00d6 06AE     		add	r6, sp, #24
 1182 00d8 1644     		add	r6, r6, r2
 1183 00da 01F00F01 		and	r1, r1, #15
 1184 00de 61F01F01 		orn	r1, r1, #31
 1185 00e2 06F8141C 		strb	r1, [r6, #-20]
 1186 00e6 0138     		subs	r0, r0, #1
 1187              	.LVL149:
 1188 00e8 C0B2     		uxtb	r0, r0
 1189              	.LVL150:
 183:.\protocol.c  ****                     SendComand[y] = 0xE0|(value[z]&0x0F); z--;                    
 1190              		.loc 1 183 0 discriminator 3
 1191 00ea 0132     		adds	r2, r2, #1
 1192              	.LVL151:
 1193 00ec D2B2     		uxtb	r2, r2
 1194              	.LVL152:
 1195              	.L90:
ARM GAS  C:\Users\Lenovo\AppData\Local\Temp\ccd7Og9t.s 			page 32


 183:.\protocol.c  ****                     SendComand[y] = 0xE0|(value[z]&0x0F); z--;                    
 1196              		.loc 1 183 0 is_stmt 0 discriminator 1
 1197 00ee 2178     		ldrb	r1, [r4]	@ zero_extendqisi2
 1198 00f0 1944     		add	r1, r1, r3
 1199 00f2 8A42     		cmp	r2, r1
 1200 00f4 EEDB     		blt	.L91
 186:.\protocol.c  ****                 for(y = x; y < 14; y ++ ){
 1201              		.loc 1 186 0 is_stmt 1
 1202 00f6 1346     		mov	r3, r2
 1203              	.LVL153:
 187:.\protocol.c  ****                     SendComand[y] = 0xE0;
 1204              		.loc 1 187 0
 1205 00f8 08E0     		b	.L92
 1206              	.LVL154:
 1207              	.L93:
 188:.\protocol.c  ****                     x++;
 1208              		.loc 1 188 0 discriminator 3
 1209 00fa 06A9     		add	r1, sp, #24
 1210 00fc 1144     		add	r1, r1, r2
 1211 00fe E020     		movs	r0, #224
 1212 0100 01F8140C 		strb	r0, [r1, #-20]
 189:.\protocol.c  ****                 }                
 1213              		.loc 1 189 0 discriminator 3
 1214 0104 0133     		adds	r3, r3, #1
 1215              	.LVL155:
 1216 0106 DBB2     		uxtb	r3, r3
 1217              	.LVL156:
 187:.\protocol.c  ****                     SendComand[y] = 0xE0;
 1218              		.loc 1 187 0 discriminator 3
 1219 0108 0132     		adds	r2, r2, #1
 1220              	.LVL157:
 1221 010a D2B2     		uxtb	r2, r2
 1222              	.LVL158:
 1223              	.L92:
 187:.\protocol.c  ****                     SendComand[y] = 0xE0;
 1224              		.loc 1 187 0 is_stmt 0 discriminator 1
 1225 010c 0D2A     		cmp	r2, #13
 1226 010e F4D9     		bls	.L93
 1227              	.LVL159:
 1228              	.L89:
 192:.\protocol.c  ****                 z = value[0];
 1229              		.loc 1 192 0 is_stmt 1
 1230 0110 562D     		cmp	r5, #86
 1231 0112 20D1     		bne	.L94
 193:.\protocol.c  ****                 for(y = x; y < value[0]+x; y ++ ){
 1232              		.loc 1 193 0
 1233 0114 2078     		ldrb	r0, [r4]	@ zero_extendqisi2
 1234              	.LVL160:
 194:.\protocol.c  ****                     SendComand[y] = 0xE0|(value[z]&0x0F); z--;                    
 1235              		.loc 1 194 0
 1236 0116 1A46     		mov	r2, r3
 1237 0118 0CE0     		b	.L95
 1238              	.LVL161:
 1239              	.L96:
 195:.\protocol.c  ****                 }                
 1240              		.loc 1 195 0 discriminator 3
 1241 011a 215C     		ldrb	r1, [r4, r0]	@ zero_extendqisi2
ARM GAS  C:\Users\Lenovo\AppData\Local\Temp\ccd7Og9t.s 			page 33


 1242 011c 06AD     		add	r5, sp, #24
 1243 011e 1544     		add	r5, r5, r2
 1244 0120 01F00F01 		and	r1, r1, #15
 1245 0124 61F01F01 		orn	r1, r1, #31
 1246 0128 05F8141C 		strb	r1, [r5, #-20]
 1247 012c 0138     		subs	r0, r0, #1
 1248              	.LVL162:
 1249 012e C0B2     		uxtb	r0, r0
 1250              	.LVL163:
 194:.\protocol.c  ****                     SendComand[y] = 0xE0|(value[z]&0x0F); z--;                    
 1251              		.loc 1 194 0 discriminator 3
 1252 0130 0132     		adds	r2, r2, #1
 1253              	.LVL164:
 1254 0132 D2B2     		uxtb	r2, r2
 1255              	.LVL165:
 1256              	.L95:
 194:.\protocol.c  ****                     SendComand[y] = 0xE0|(value[z]&0x0F); z--;                    
 1257              		.loc 1 194 0 is_stmt 0 discriminator 1
 1258 0134 2178     		ldrb	r1, [r4]	@ zero_extendqisi2
 1259 0136 1944     		add	r1, r1, r3
 1260 0138 8A42     		cmp	r2, r1
 1261 013a EEDB     		blt	.L96
 197:.\protocol.c  ****                 for(y = x; y < 14; y ++ ){
 1262              		.loc 1 197 0 is_stmt 1
 1263 013c 1346     		mov	r3, r2
 1264              	.LVL166:
 198:.\protocol.c  ****                     SendComand[y] = 0xE0;
 1265              		.loc 1 198 0
 1266 013e 08E0     		b	.L97
 1267              	.LVL167:
 1268              	.L98:
 199:.\protocol.c  ****                     x++;
 1269              		.loc 1 199 0 discriminator 3
 1270 0140 06A9     		add	r1, sp, #24
 1271 0142 1144     		add	r1, r1, r2
 1272 0144 E020     		movs	r0, #224
 1273 0146 01F8140C 		strb	r0, [r1, #-20]
 200:.\protocol.c  ****                 }                
 1274              		.loc 1 200 0 discriminator 3
 1275 014a 0133     		adds	r3, r3, #1
 1276              	.LVL168:
 1277 014c DBB2     		uxtb	r3, r3
 1278              	.LVL169:
 198:.\protocol.c  ****                     SendComand[y] = 0xE0;
 1279              		.loc 1 198 0 discriminator 3
 1280 014e 0132     		adds	r2, r2, #1
 1281              	.LVL170:
 1282 0150 D2B2     		uxtb	r2, r2
 1283              	.LVL171:
 1284              	.L97:
 198:.\protocol.c  ****                     SendComand[y] = 0xE0;
 1285              		.loc 1 198 0 is_stmt 0 discriminator 1
 1286 0152 0D2A     		cmp	r2, #13
 1287 0154 F4D9     		bls	.L98
 1288              	.LVL172:
 1289              	.L94:
 203:.\protocol.c  ****             SendComand[x] = GetLRC(SendComand);  x++;
ARM GAS  C:\Users\Lenovo\AppData\Local\Temp\ccd7Og9t.s 			page 34


 1290              		.loc 1 203 0 is_stmt 1
 1291 0156 06AA     		add	r2, sp, #24
 1292 0158 1A44     		add	r2, r2, r3
 1293 015a FB21     		movs	r1, #251
 1294 015c 02F8141C 		strb	r1, [r2, #-20]
 1295 0160 5D1C     		adds	r5, r3, #1
 1296 0162 EDB2     		uxtb	r5, r5
 1297              	.LVL173:
 204:.\protocol.c  ****             SendComand[x] = (EOM);
 1298              		.loc 1 204 0
 1299 0164 01A8     		add	r0, sp, #4
 1300 0166 FFF7FEFF 		bl	GetLRC
 1301              	.LVL174:
 1302 016a 06AB     		add	r3, sp, #24
 1303 016c 2B44     		add	r3, r3, r5
 1304 016e 03F8140C 		strb	r0, [r3, #-20]
 1305 0172 0135     		adds	r5, r5, #1
 1306              	.LVL175:
 1307 0174 EDB2     		uxtb	r5, r5
 1308              	.LVL176:
 205:.\protocol.c  ****             for(y=0; y<=x;y++){
 1309              		.loc 1 205 0
 1310 0176 06AB     		add	r3, sp, #24
 1311 0178 2B44     		add	r3, r3, r5
 1312 017a F022     		movs	r2, #240
 1313 017c 03F8142C 		strb	r2, [r3, #-20]
 1314              	.LVL177:
 206:.\protocol.c  ****                 Pump_PutChar(SendComand[y]);
 1315              		.loc 1 206 0
 1316 0180 0024     		movs	r4, #0
 1317              	.LVL178:
 1318 0182 07E0     		b	.L99
 1319              	.LVL179:
 1320              	.L100:
 207:.\protocol.c  ****             } 
 1321              		.loc 1 207 0 discriminator 3
 1322 0184 06AB     		add	r3, sp, #24
 1323 0186 2344     		add	r3, r3, r4
 1324 0188 13F8140C 		ldrb	r0, [r3, #-20]	@ zero_extendqisi2
 1325 018c FFF7FEFF 		bl	Pump_PutChar
 1326              	.LVL180:
 206:.\protocol.c  ****                 Pump_PutChar(SendComand[y]);
 1327              		.loc 1 206 0 discriminator 3
 1328 0190 0134     		adds	r4, r4, #1
 1329              	.LVL181:
 1330 0192 E4B2     		uxtb	r4, r4
 1331              	.LVL182:
 1332              	.L99:
 206:.\protocol.c  ****                 Pump_PutChar(SendComand[y]);
 1333              		.loc 1 206 0 is_stmt 0 discriminator 1
 1334 0194 AC42     		cmp	r4, r5
 1335 0196 F5D9     		bls	.L100
 209:.\protocol.c  ****             return 1;
 1336              		.loc 1 209 0 is_stmt 1
 1337 0198 3220     		movs	r0, #50
 1338 019a FFF7FEFF 		bl	CyDelay
 1339              	.LVL183:
ARM GAS  C:\Users\Lenovo\AppData\Local\Temp\ccd7Og9t.s 			page 35


 210:.\protocol.c  ****         }
 1340              		.loc 1 210 0
 1341 019e 0120     		movs	r0, #1
 1342 01a0 02E0     		b	.L83
 1343              	.LVL184:
 1344              	.L102:
 213:.\protocol.c  **** }
 1345              		.loc 1 213 0
 1346 01a2 0020     		movs	r0, #0
 1347 01a4 00E0     		b	.L83
 1348              	.LVL185:
 1349              	.L103:
 1350 01a6 0020     		movs	r0, #0
 1351              	.LVL186:
 1352              	.L83:
 214:.\protocol.c  **** 
 1353              		.loc 1 214 0
 1354 01a8 07B0     		add	sp, sp, #28
 1355              		.cfi_def_cfa_offset 20
 1356              		@ sp needed
 1357 01aa F0BD     		pop	{r4, r5, r6, r7, pc}
 1358              	.LVL187:
 1359              	.L107:
 1360              		.align	2
 1361              	.L106:
 1362 01ac 00000000 		.word	bufferDisplay1
 1363 01b0 00000000 		.word	digits
 1364              		.cfi_endproc
 1365              	.LFE65:
 1366              		.size	PresetData, .-PresetData
 1367              		.section	.text.PumpCompleteConfiguration,"ax",%progbits
 1368              		.align	2
 1369              		.global	PumpCompleteConfiguration
 1370              		.thumb
 1371              		.thumb_func
 1372              		.type	PumpCompleteConfiguration, %function
 1373              	PumpCompleteConfiguration:
 1374              	.LFB66:
 218:.\protocol.c  ****     uint8 state,x;
 1375              		.loc 1 218 0
 1376              		.cfi_startproc
 1377              		@ args = 0, pretend = 0, frame = 16
 1378              		@ frame_needed = 1, uses_anonymous_args = 0
 1379              	.LVL188:
 1380 0000 F0B5     		push	{r4, r5, r6, r7, lr}
 1381              		.cfi_def_cfa_offset 20
 1382              		.cfi_offset 4, -20
 1383              		.cfi_offset 5, -16
 1384              		.cfi_offset 6, -12
 1385              		.cfi_offset 7, -8
 1386              		.cfi_offset 14, -4
 1387 0002 85B0     		sub	sp, sp, #20
 1388              		.cfi_def_cfa_offset 40
 1389 0004 00AF     		add	r7, sp, #0
 1390              		.cfi_def_cfa_register 7
 1391 0006 0446     		mov	r4, r0
 1392              	.LVL189:
ARM GAS  C:\Users\Lenovo\AppData\Local\Temp\ccd7Og9t.s 			page 36


 225:.\protocol.c  ****     if(state == 0x06){
 1393              		.loc 1 225 0
 1394 0008 FFF7FEFF 		bl	get_state
 1395              	.LVL190:
 226:.\protocol.c  ****         Pump_PutChar(0x20|side);
 1396              		.loc 1 226 0
 1397 000c 0628     		cmp	r0, #6
 1398 000e 0AD1     		bne	.L120
 227:.\protocol.c  ****         CyDelay(50);
 1399              		.loc 1 227 0
 1400 0010 44F02000 		orr	r0, r4, #32
 1401              	.LVL191:
 1402 0014 FFF7FEFF 		bl	Pump_PutChar
 1403              	.LVL192:
 228:.\protocol.c  ****         PumpDataReceive = Pump_ReadRxData();
 1404              		.loc 1 228 0
 1405 0018 3220     		movs	r0, #50
 1406 001a FFF7FEFF 		bl	CyDelay
 1407              	.LVL193:
 229:.\protocol.c  ****     }
 1408              		.loc 1 229 0
 1409 001e FFF7FEFF 		bl	Pump_ReadRxData
 1410              	.LVL194:
 1411 0022 0546     		mov	r5, r0
 1412              	.LVL195:
 1413 0024 00E0     		b	.L109
 1414              	.LVL196:
 1415              	.L120:
 221:.\protocol.c  ****     
 1416              		.loc 1 221 0
 1417 0026 0025     		movs	r5, #0
 1418              	.LVL197:
 1419              	.L109:
 231:.\protocol.c  ****     if(PumpDataReceive == (0xd0|side)){    
 1420              		.loc 1 231 0
 1421 0028 FFF7FEFF 		bl	Pump_ClearRxBuffer
 1422              	.LVL198:
 232:.\protocol.c  ****         SendComand[0] = SOM; //Start Of Message    
 1423              		.loc 1 232 0
 1424 002c 44F0D004 		orr	r4, r4, #208
 1425 0030 AC42     		cmp	r4, r5
 1426 0032 22D1     		bne	.L110
 233:.\protocol.c  ****         SendComand[1] = (0xE9);//Data Length
 1427              		.loc 1 233 0
 1428 0034 FF23     		movs	r3, #255
 1429 0036 3B71     		strb	r3, [r7, #4]
 234:.\protocol.c  ****         SendComand[2] = (0xFE);//Special Functions Next (0xB0 0xB0 0xBE)
 1430              		.loc 1 234 0
 1431 0038 E923     		movs	r3, #233
 1432 003a 7B71     		strb	r3, [r7, #5]
 235:.\protocol.c  ****         SendComand[3] = (0xEE);//Complete Pump Configuration Request (sf1)
 1433              		.loc 1 235 0
 1434 003c FE23     		movs	r3, #254
 1435 003e BB71     		strb	r3, [r7, #6]
 236:.\protocol.c  ****         SendComand[4] = (0xE0);//Complete Pump Configuration Request (sf2)
 1436              		.loc 1 236 0
 1437 0040 EE23     		movs	r3, #238
ARM GAS  C:\Users\Lenovo\AppData\Local\Temp\ccd7Og9t.s 			page 37


 1438 0042 FB71     		strb	r3, [r7, #7]
 237:.\protocol.c  ****         SendComand[5] = (0xE0);//Complete Pump Configuration Request (sf3)
 1439              		.loc 1 237 0
 1440 0044 E023     		movs	r3, #224
 1441 0046 3B72     		strb	r3, [r7, #8]
 238:.\protocol.c  ****         SendComand[6] = (0xFB);
 1442              		.loc 1 238 0
 1443 0048 7B72     		strb	r3, [r7, #9]
 239:.\protocol.c  ****         SendComand[7] = GetLRC(SendComand);
 1444              		.loc 1 239 0
 1445 004a FB23     		movs	r3, #251
 1446 004c BB72     		strb	r3, [r7, #10]
 240:.\protocol.c  ****         SendComand[8] = (EOM);
 1447              		.loc 1 240 0
 1448 004e 381D     		adds	r0, r7, #4
 1449 0050 FFF7FEFF 		bl	GetLRC
 1450              	.LVL199:
 1451 0054 F872     		strb	r0, [r7, #11]
 241:.\protocol.c  ****         for(x=0; x<=8;x++){
 1452              		.loc 1 241 0
 1453 0056 F023     		movs	r3, #240
 1454 0058 3B73     		strb	r3, [r7, #12]
 1455              	.LVL200:
 242:.\protocol.c  ****             Pump_PutChar(SendComand[x]);
 1456              		.loc 1 242 0
 1457 005a 0024     		movs	r4, #0
 1458 005c 08E0     		b	.L111
 1459              	.LVL201:
 1460              	.L112:
 243:.\protocol.c  ****         } 
 1461              		.loc 1 243 0 discriminator 3
 1462 005e 07F11003 		add	r3, r7, #16
 1463 0062 2344     		add	r3, r3, r4
 1464 0064 13F80C0C 		ldrb	r0, [r3, #-12]	@ zero_extendqisi2
 1465 0068 FFF7FEFF 		bl	Pump_PutChar
 1466              	.LVL202:
 242:.\protocol.c  ****             Pump_PutChar(SendComand[x]);
 1467              		.loc 1 242 0 discriminator 3
 1468 006c 0134     		adds	r4, r4, #1
 1469              	.LVL203:
 1470 006e E4B2     		uxtb	r4, r4
 1471              	.LVL204:
 1472              	.L111:
 242:.\protocol.c  ****             Pump_PutChar(SendComand[x]);
 1473              		.loc 1 242 0 is_stmt 0 discriminator 1
 1474 0070 082C     		cmp	r4, #8
 1475 0072 F4D9     		bls	.L112
 245:.\protocol.c  ****     }
 1476              		.loc 1 245 0 is_stmt 1
 1477 0074 C820     		movs	r0, #200
 1478 0076 FFF7FEFF 		bl	CyDelay
 1479              	.LVL205:
 1480              	.L110:
 247:.\protocol.c  ****     char8 buffer[BufferSize];
 1481              		.loc 1 247 0
 1482 007a FFF7FEFF 		bl	Pump_GetRxBufferSize
 1483              	.LVL206:
ARM GAS  C:\Users\Lenovo\AppData\Local\Temp\ccd7Og9t.s 			page 38


 1484 007e C6B2     		uxtb	r6, r0
 1485              	.LVL207:
 248:.\protocol.c  ****     for(x=0;x<=BufferSize;x++){
 1486              		.loc 1 248 0
 1487 0080 F31D     		adds	r3, r6, #7
 1488 0082 23F00703 		bic	r3, r3, #7
 1489 0086 ADEB030D 		sub	sp, sp, r3
 1490 008a 6D46     		mov	r5, sp
 1491              	.LVL208:
 249:.\protocol.c  ****        buffer[x]=Pump_ReadRxData(); 
 1492              		.loc 1 249 0
 1493 008c 0024     		movs	r4, #0
 1494 008e 04E0     		b	.L113
 1495              	.LVL209:
 1496              	.L114:
 250:.\protocol.c  ****     }
 1497              		.loc 1 250 0 discriminator 3
 1498 0090 FFF7FEFF 		bl	Pump_ReadRxData
 1499              	.LVL210:
 1500 0094 2855     		strb	r0, [r5, r4]
 249:.\protocol.c  ****        buffer[x]=Pump_ReadRxData(); 
 1501              		.loc 1 249 0 discriminator 3
 1502 0096 0134     		adds	r4, r4, #1
 1503              	.LVL211:
 1504 0098 E4B2     		uxtb	r4, r4
 1505              	.LVL212:
 1506              	.L113:
 249:.\protocol.c  ****        buffer[x]=Pump_ReadRxData(); 
 1507              		.loc 1 249 0 is_stmt 0 discriminator 1
 1508 009a B442     		cmp	r4, r6
 1509 009c F8D9     		bls	.L114
 252:.\protocol.c  **** ///////////////////////////////////////////////////////////////////////////////////////////////////
 1510              		.loc 1 252 0 is_stmt 1
 1511 009e FFF7FEFF 		bl	Pump_ClearRxBuffer
 1512              	.LVL213:
 254:.\protocol.c  ****     ConversionFactor    =  buffer [12] &0x0F;
 1513              		.loc 1 254 0
 1514 00a2 AB7A     		ldrb	r3, [r5, #10]	@ zero_extendqisi2
 1515 00a4 03F00F03 		and	r3, r3, #15
 1516 00a8 184A     		ldr	r2, .L122
 1517 00aa 1370     		strb	r3, [r2]
 255:.\protocol.c  ****     MoneyDec            = (buffer [14] &0x0F)-1;
 1518              		.loc 1 255 0
 1519 00ac 2B7B     		ldrb	r3, [r5, #12]	@ zero_extendqisi2
 1520 00ae 03F00F03 		and	r3, r3, #15
 1521 00b2 174A     		ldr	r2, .L122+4
 1522 00b4 1370     		strb	r3, [r2]
 256:.\protocol.c  ****     if( (buffer [16]&0x0F) == 1 || (buffer [16]&0x0F) == 4){
 1523              		.loc 1 256 0
 1524 00b6 AB7B     		ldrb	r3, [r5, #14]	@ zero_extendqisi2
 1525 00b8 03F00F03 		and	r3, r3, #15
 1526 00bc 013B     		subs	r3, r3, #1
 1527 00be 154A     		ldr	r2, .L122+8
 1528 00c0 1370     		strb	r3, [r2]
 257:.\protocol.c  ****         VolDec              = 3;
 1529              		.loc 1 257 0
 1530 00c2 2B7C     		ldrb	r3, [r5, #16]	@ zero_extendqisi2
ARM GAS  C:\Users\Lenovo\AppData\Local\Temp\ccd7Og9t.s 			page 39


 1531 00c4 03F00F03 		and	r3, r3, #15
 1532 00c8 012B     		cmp	r3, #1
 1533 00ca 01D0     		beq	.L115
 257:.\protocol.c  ****         VolDec              = 3;
 1534              		.loc 1 257 0 is_stmt 0 discriminator 1
 1535 00cc 042B     		cmp	r3, #4
 1536 00ce 02D1     		bne	.L116
 1537              	.L115:
 258:.\protocol.c  ****     }
 1538              		.loc 1 258 0 is_stmt 1
 1539 00d0 0321     		movs	r1, #3
 1540 00d2 114A     		ldr	r2, .L122+12
 1541 00d4 1170     		strb	r1, [r2]
 1542              	.L116:
 260:.\protocol.c  ****         VolDec              = 2;
 1543              		.loc 1 260 0
 1544 00d6 032B     		cmp	r3, #3
 1545 00d8 00D0     		beq	.L117
 260:.\protocol.c  ****         VolDec              = 2;
 1546              		.loc 1 260 0 is_stmt 0 discriminator 1
 1547 00da 13B9     		cbnz	r3, .L118
 1548              	.L117:
 261:.\protocol.c  ****     }
 1549              		.loc 1 261 0 is_stmt 1
 1550 00dc 0221     		movs	r1, #2
 1551 00de 0E4A     		ldr	r2, .L122+12
 1552 00e0 1170     		strb	r1, [r2]
 1553              	.L118:
 263:.\protocol.c  ****         VolDec              = 1;
 1554              		.loc 1 263 0
 1555 00e2 022B     		cmp	r3, #2
 1556 00e4 02D1     		bne	.L119
 264:.\protocol.c  ****     }
 1557              		.loc 1 264 0
 1558 00e6 0122     		movs	r2, #1
 1559 00e8 0B4B     		ldr	r3, .L122+12
 1560 00ea 1A70     		strb	r2, [r3]
 1561              	.L119:
 266:.\protocol.c  ****     DDMode              =  buffer [20] &0x0F;
 1562              		.loc 1 266 0
 1563 00ec AB7C     		ldrb	r3, [r5, #18]	@ zero_extendqisi2
 1564 00ee 03F00F03 		and	r3, r3, #15
 1565 00f2 013B     		subs	r3, r3, #1
 1566 00f4 094A     		ldr	r2, .L122+16
 1567 00f6 1370     		strb	r3, [r2]
 267:.\protocol.c  ****     
 1568              		.loc 1 267 0
 1569 00f8 2B7D     		ldrb	r3, [r5, #20]	@ zero_extendqisi2
 1570 00fa 03F00F03 		and	r3, r3, #15
 1571 00fe 084A     		ldr	r2, .L122+20
 1572 0100 1370     		strb	r3, [r2]
 270:.\protocol.c  **** 
 1573              		.loc 1 270 0
 1574 0102 0020     		movs	r0, #0
 1575 0104 1437     		adds	r7, r7, #20
 1576              		.cfi_def_cfa_offset 20
 1577 0106 BD46     		mov	sp, r7
ARM GAS  C:\Users\Lenovo\AppData\Local\Temp\ccd7Og9t.s 			page 40


 1578              		.cfi_def_cfa_register 13
 1579              		@ sp needed
 1580 0108 F0BD     		pop	{r4, r5, r6, r7, pc}
 1581              	.LVL214:
 1582              	.L123:
 1583 010a 00BF     		.align	2
 1584              	.L122:
 1585 010c 00000000 		.word	UnitType
 1586 0110 00000000 		.word	ConversionFactor
 1587 0114 00000000 		.word	MoneyDec
 1588 0118 00000000 		.word	VolDec
 1589 011c 00000000 		.word	PPUDec
 1590 0120 00000000 		.word	DDMode
 1591              		.cfi_endproc
 1592              	.LFE66:
 1593              		.size	PumpCompleteConfiguration, .-PumpCompleteConfiguration
 1594              		.section	.text.PumpHoseActiveState,"ax",%progbits
 1595              		.align	2
 1596              		.global	PumpHoseActiveState
 1597              		.thumb
 1598              		.thumb_func
 1599              		.type	PumpHoseActiveState, %function
 1600              	PumpHoseActiveState:
 1601              	.LFB67:
 272:.\protocol.c  ****     uint8 state,x;
 1602              		.loc 1 272 0
 1603              		.cfi_startproc
 1604              		@ args = 0, pretend = 0, frame = 16
 1605              		@ frame_needed = 1, uses_anonymous_args = 0
 1606              	.LVL215:
 1607 0000 F0B5     		push	{r4, r5, r6, r7, lr}
 1608              		.cfi_def_cfa_offset 20
 1609              		.cfi_offset 4, -20
 1610              		.cfi_offset 5, -16
 1611              		.cfi_offset 6, -12
 1612              		.cfi_offset 7, -8
 1613              		.cfi_offset 14, -4
 1614 0002 85B0     		sub	sp, sp, #20
 1615              		.cfi_def_cfa_offset 40
 1616 0004 00AF     		add	r7, sp, #0
 1617              		.cfi_def_cfa_register 7
 1618 0006 0446     		mov	r4, r0
 1619              	.LVL216:
 279:.\protocol.c  ****     if(state == PUMP_IDLE || state == PUMP_CALLING){
 1620              		.loc 1 279 0
 1621 0008 FFF7FEFF 		bl	get_state
 1622              	.LVL217:
 280:.\protocol.c  ****         Pump_PutChar(0x20|side);
 1623              		.loc 1 280 0
 1624 000c 0638     		subs	r0, r0, #6
 1625              	.LVL218:
 1626 000e C0B2     		uxtb	r0, r0
 1627 0010 0128     		cmp	r0, #1
 1628 0012 0AD8     		bhi	.L133
 281:.\protocol.c  ****         CyDelay(50);
 1629              		.loc 1 281 0
 1630 0014 44F02000 		orr	r0, r4, #32
ARM GAS  C:\Users\Lenovo\AppData\Local\Temp\ccd7Og9t.s 			page 41


 1631 0018 FFF7FEFF 		bl	Pump_PutChar
 1632              	.LVL219:
 282:.\protocol.c  ****         PumpDataReceive = Pump_ReadRxData();
 1633              		.loc 1 282 0
 1634 001c 3220     		movs	r0, #50
 1635 001e FFF7FEFF 		bl	CyDelay
 1636              	.LVL220:
 283:.\protocol.c  ****     }
 1637              		.loc 1 283 0
 1638 0022 FFF7FEFF 		bl	Pump_ReadRxData
 1639              	.LVL221:
 1640 0026 0546     		mov	r5, r0
 1641              	.LVL222:
 1642 0028 00E0     		b	.L125
 1643              	.LVL223:
 1644              	.L133:
 275:.\protocol.c  ****     
 1645              		.loc 1 275 0
 1646 002a 0025     		movs	r5, #0
 1647              	.LVL224:
 1648              	.L125:
 285:.\protocol.c  ****     if(PumpDataReceive == (0xd0|side)){
 1649              		.loc 1 285 0
 1650 002c FFF7FEFF 		bl	Pump_ClearRxBuffer
 1651              	.LVL225:
 286:.\protocol.c  ****         SendComand[0] = SOM;//Start Of Message
 1652              		.loc 1 286 0
 1653 0030 44F0D004 		orr	r4, r4, #208
 1654 0034 AC42     		cmp	r4, r5
 1655 0036 2AD1     		bne	.L126
 287:.\protocol.c  ****         SendComand[1] = 0xE9;//Data Length
 1656              		.loc 1 287 0
 1657 0038 FF23     		movs	r3, #255
 1658 003a 3B71     		strb	r3, [r7, #4]
 288:.\protocol.c  ****         SendComand[2] = 0xFE;//Special Functions Next (0xB0 0xB0 0xB6)
 1659              		.loc 1 288 0
 1660 003c E923     		movs	r3, #233
 1661 003e 7B71     		strb	r3, [r7, #5]
 289:.\protocol.c  ****         SendComand[3] = 0xE0;//Complete Pump Configuration Request (sf1)
 1662              		.loc 1 289 0
 1663 0040 FE23     		movs	r3, #254
 1664 0042 BB71     		strb	r3, [r7, #6]
 290:.\protocol.c  ****         SendComand[4] = 0xE1;//Complete Pump Configuration Request (sf2)
 1665              		.loc 1 290 0
 1666 0044 E023     		movs	r3, #224
 1667 0046 FB71     		strb	r3, [r7, #7]
 291:.\protocol.c  ****         SendComand[5] = 0xE0;//Complete Pump Configuration Request (sf3)
 1668              		.loc 1 291 0
 1669 0048 E122     		movs	r2, #225
 1670 004a 3A72     		strb	r2, [r7, #8]
 292:.\protocol.c  ****         SendComand[6] = 0xFB;
 1671              		.loc 1 292 0
 1672 004c 7B72     		strb	r3, [r7, #9]
 293:.\protocol.c  ****         SendComand[7] = GetLRC(SendComand);
 1673              		.loc 1 293 0
 1674 004e FB23     		movs	r3, #251
 1675 0050 BB72     		strb	r3, [r7, #10]
ARM GAS  C:\Users\Lenovo\AppData\Local\Temp\ccd7Og9t.s 			page 42


 294:.\protocol.c  ****         SendComand[8] = EOM;
 1676              		.loc 1 294 0
 1677 0052 381D     		adds	r0, r7, #4
 1678 0054 FFF7FEFF 		bl	GetLRC
 1679              	.LVL226:
 1680 0058 F872     		strb	r0, [r7, #11]
 295:.\protocol.c  ****         for(x=0; x<=8;x++){
 1681              		.loc 1 295 0
 1682 005a F023     		movs	r3, #240
 1683 005c 3B73     		strb	r3, [r7, #12]
 1684              	.LVL227:
 296:.\protocol.c  ****             Pump_PutChar(SendComand[x]);
 1685              		.loc 1 296 0
 1686 005e 0024     		movs	r4, #0
 1687 0060 08E0     		b	.L127
 1688              	.LVL228:
 1689              	.L128:
 297:.\protocol.c  ****         } 
 1690              		.loc 1 297 0 discriminator 3
 1691 0062 07F11003 		add	r3, r7, #16
 1692 0066 2344     		add	r3, r3, r4
 1693 0068 13F80C0C 		ldrb	r0, [r3, #-12]	@ zero_extendqisi2
 1694 006c FFF7FEFF 		bl	Pump_PutChar
 1695              	.LVL229:
 296:.\protocol.c  ****             Pump_PutChar(SendComand[x]);
 1696              		.loc 1 296 0 discriminator 3
 1697 0070 0134     		adds	r4, r4, #1
 1698              	.LVL230:
 1699 0072 E4B2     		uxtb	r4, r4
 1700              	.LVL231:
 1701              	.L127:
 296:.\protocol.c  ****             Pump_PutChar(SendComand[x]);
 1702              		.loc 1 296 0 is_stmt 0 discriminator 1
 1703 0074 082C     		cmp	r4, #8
 1704 0076 F4D9     		bls	.L128
 299:.\protocol.c  ****             CyDelay(700);
 1705              		.loc 1 299 0 is_stmt 1
 1706 0078 154B     		ldr	r3, .L136
 1707 007a 1B78     		ldrb	r3, [r3]	@ zero_extendqisi2
 1708 007c 23B1     		cbz	r3, .L129
 300:.\protocol.c  ****         }else{
 1709              		.loc 1 300 0
 1710 007e 4FF42F70 		mov	r0, #700
 1711 0082 FFF7FEFF 		bl	CyDelay
 1712              	.LVL232:
 1713 0086 02E0     		b	.L126
 1714              	.L129:
 302:.\protocol.c  ****         }
 1715              		.loc 1 302 0
 1716 0088 C820     		movs	r0, #200
 1717 008a FFF7FEFF 		bl	CyDelay
 1718              	.LVL233:
 1719              	.L126:
 306:.\protocol.c  ****     char8 buffer[BufferSize];
 1720              		.loc 1 306 0
 1721 008e FFF7FEFF 		bl	Pump_GetRxBufferSize
 1722              	.LVL234:
ARM GAS  C:\Users\Lenovo\AppData\Local\Temp\ccd7Og9t.s 			page 43


 1723 0092 C5B2     		uxtb	r5, r0
 1724              	.LVL235:
 307:.\protocol.c  ****     for(x=0;x<=BufferSize;x++){
 1725              		.loc 1 307 0
 1726 0094 EB1D     		adds	r3, r5, #7
 1727 0096 23F00703 		bic	r3, r3, #7
 1728 009a ADEB030D 		sub	sp, sp, r3
 1729 009e 6E46     		mov	r6, sp
 1730              	.LVL236:
 308:.\protocol.c  ****        buffer[x]=Pump_ReadRxData(); 
 1731              		.loc 1 308 0
 1732 00a0 0024     		movs	r4, #0
 1733 00a2 04E0     		b	.L130
 1734              	.LVL237:
 1735              	.L131:
 309:.\protocol.c  ****     }
 1736              		.loc 1 309 0 discriminator 3
 1737 00a4 FFF7FEFF 		bl	Pump_ReadRxData
 1738              	.LVL238:
 1739 00a8 3055     		strb	r0, [r6, r4]
 308:.\protocol.c  ****        buffer[x]=Pump_ReadRxData(); 
 1740              		.loc 1 308 0 discriminator 3
 1741 00aa 0134     		adds	r4, r4, #1
 1742              	.LVL239:
 1743 00ac E4B2     		uxtb	r4, r4
 1744              	.LVL240:
 1745              	.L130:
 308:.\protocol.c  ****        buffer[x]=Pump_ReadRxData(); 
 1746              		.loc 1 308 0 is_stmt 0 discriminator 1
 1747 00ae AC42     		cmp	r4, r5
 1748 00b0 F8D9     		bls	.L131
 311:.\protocol.c  ****     if((buffer[0x0C] & 0x0F) == 0x01){
 1749              		.loc 1 311 0 is_stmt 1
 1750 00b2 FFF7FEFF 		bl	Pump_ClearRxBuffer
 1751              	.LVL241:
 312:.\protocol.c  ****         return (buffer[0x0E] & 0x0F);
 1752              		.loc 1 312 0
 1753 00b6 337B     		ldrb	r3, [r6, #12]	@ zero_extendqisi2
 1754 00b8 03F00F03 		and	r3, r3, #15
 1755 00bc 012B     		cmp	r3, #1
 1756 00be 03D1     		bne	.L134
 313:.\protocol.c  ****     }
 1757              		.loc 1 313 0
 1758 00c0 B07B     		ldrb	r0, [r6, #14]	@ zero_extendqisi2
 1759 00c2 00F00F00 		and	r0, r0, #15
 1760 00c6 00E0     		b	.L132
 1761              	.L134:
 316:.\protocol.c  ****     
 1762              		.loc 1 316 0
 1763 00c8 0020     		movs	r0, #0
 1764              	.L132:
 318:.\protocol.c  **** 
 1765              		.loc 1 318 0
 1766 00ca 1437     		adds	r7, r7, #20
 1767              		.cfi_def_cfa_offset 20
 1768 00cc BD46     		mov	sp, r7
 1769              		.cfi_def_cfa_register 13
ARM GAS  C:\Users\Lenovo\AppData\Local\Temp\ccd7Og9t.s 			page 44


 1770              		@ sp needed
 1771 00ce F0BD     		pop	{r4, r5, r6, r7, pc}
 1772              	.LVL242:
 1773              	.L137:
 1774              		.align	2
 1775              	.L136:
 1776 00d0 00000000 		.word	UnitType
 1777              		.cfi_endproc
 1778              	.LFE67:
 1779              		.size	PumpHoseActiveState, .-PumpHoseActiveState
 1780              		.comm	side,1036,4
 1781              		.comm	bufferDisplay4,637,4
 1782              		.comm	bufferDisplay3,637,4
 1783              		.comm	bufferDisplay2,637,4
 1784              		.comm	bufferDisplay1,637,4
 1785              		.comm	turn,1,1
 1786              		.comm	PrinterType,1,1
 1787              		.comm	digits,1,1
 1788              		.comm	NumPositions,1,1
 1789              		.comm	statePump,4,4
 1790              		.comm	DDMode,1,1
 1791              		.comm	PPUDec,1,1
 1792              		.comm	VolDec,1,1
 1793              		.comm	MoneyDec,1,1
 1794              		.comm	ConversionFactor,1,1
 1795              		.comm	UnitType,1,1
 1796              		.comm	PlateRequest,1,1
 1797              		.comm	PrevStatePump,4,4
 1798              		.comm	stateBeagleSoft,1,1
 1799              		.comm	flagResetMux,1,1
 1800              		.comm	passwordSeller,8,4
 1801              		.comm	typeIdSeller,1,1
 1802              		.comm	idSeller,25,4
 1803              		.comm	lockTurn,1,1
 1804              		.comm	temporal,30,4
 1805              		.comm	residue,14,4
 1806              		.comm	screen,2,4
 1807              		.comm	date,3,4
 1808              		.comm	time,3,4
 1809              		.comm	symbols,2,4
 1810              		.comm	decimalVolume,1,1
 1811              		.comm	decimalMoney,1,1
 1812              		.comm	ppux10,1,1
 1813              		.comm	delayPicture2,4,4
 1814              		.comm	delayPicture1,4,4
 1815              		.comm	productNumber,1,1
 1816              		.comm	flagPoint2,1,1
 1817              		.comm	flagPoint1,1,1
 1818              		.comm	numberKeys2,1,1
 1819              		.comm	numberKeys1,1,1
 1820              		.comm	flowDisplay4,4,4
 1821              		.comm	flowDisplay3,4,4
 1822              		.comm	flowDisplay2,4,4
 1823              		.comm	flowDisplay1,4,4
 1824              		.comm	countPump,8,8
 1825              		.comm	countBeagleTX,8,8
 1826              		.comm	countAnimation2,8,8
ARM GAS  C:\Users\Lenovo\AppData\Local\Temp\ccd7Og9t.s 			page 45


 1827              		.comm	countAnimation1,8,8
 1828              		.text
 1829              	.Letext0:
 1830              		.file 2 "c:\\program files (x86)\\cypress\\psoc creator\\3.3\\psoc creator\\import\\gnu\\arm\\4.9.
 1831              		.file 3 "c:\\program files (x86)\\cypress\\psoc creator\\3.3\\psoc creator\\import\\gnu\\arm\\4.9.
 1832              		.file 4 "Generated_Source\\PSoC5/cytypes.h"
 1833              		.file 5 "./variables.h"
 1834              		.file 6 "Generated_Source\\PSoC5/Pump.h"
 1835              		.file 7 "Generated_Source\\PSoC5/core_cm3.h"
 1836              		.file 8 "Generated_Source\\PSoC5/CyLib.h"
 1837              		.section	.debug_info,"",%progbits
 1838              	.Ldebug_info0:
 1839 0000 20100000 		.4byte	0x1020
 1840 0004 0400     		.2byte	0x4
 1841 0006 00000000 		.4byte	.Ldebug_abbrev0
 1842 000a 04       		.byte	0x4
 1843 000b 01       		.uleb128 0x1
 1844 000c 02070000 		.4byte	.LASF170
 1845 0010 01       		.byte	0x1
 1846 0011 72020000 		.4byte	.LASF171
 1847 0015 F4010000 		.4byte	.LASF172
 1848 0019 00000000 		.4byte	.Ldebug_ranges0+0
 1849 001d 00000000 		.4byte	0
 1850 0021 00000000 		.4byte	.Ldebug_line0
 1851 0025 02       		.uleb128 0x2
 1852 0026 01       		.byte	0x1
 1853 0027 06       		.byte	0x6
 1854 0028 18080000 		.4byte	.LASF0
 1855 002c 03       		.uleb128 0x3
 1856 002d 10060000 		.4byte	.LASF4
 1857 0031 02       		.byte	0x2
 1858 0032 1D       		.byte	0x1d
 1859 0033 37000000 		.4byte	0x37
 1860 0037 02       		.uleb128 0x2
 1861 0038 01       		.byte	0x1
 1862 0039 08       		.byte	0x8
 1863 003a E7060000 		.4byte	.LASF1
 1864 003e 02       		.uleb128 0x2
 1865 003f 02       		.byte	0x2
 1866 0040 05       		.byte	0x5
 1867 0041 7D050000 		.4byte	.LASF2
 1868 0045 02       		.uleb128 0x2
 1869 0046 02       		.byte	0x2
 1870 0047 07       		.byte	0x7
 1871 0048 24080000 		.4byte	.LASF3
 1872 004c 03       		.uleb128 0x3
 1873 004d 85000000 		.4byte	.LASF5
 1874 0051 02       		.byte	0x2
 1875 0052 3F       		.byte	0x3f
 1876 0053 57000000 		.4byte	0x57
 1877 0057 02       		.uleb128 0x2
 1878 0058 04       		.byte	0x4
 1879 0059 05       		.byte	0x5
 1880 005a 87050000 		.4byte	.LASF6
 1881 005e 02       		.uleb128 0x2
 1882 005f 04       		.byte	0x4
 1883 0060 07       		.byte	0x7
ARM GAS  C:\Users\Lenovo\AppData\Local\Temp\ccd7Og9t.s 			page 46


 1884 0061 78060000 		.4byte	.LASF7
 1885 0065 02       		.uleb128 0x2
 1886 0066 08       		.byte	0x8
 1887 0067 05       		.byte	0x5
 1888 0068 10040000 		.4byte	.LASF8
 1889 006c 02       		.uleb128 0x2
 1890 006d 08       		.byte	0x8
 1891 006e 07       		.byte	0x7
 1892 006f 59010000 		.4byte	.LASF9
 1893 0073 04       		.uleb128 0x4
 1894 0074 04       		.byte	0x4
 1895 0075 05       		.byte	0x5
 1896 0076 696E7400 		.ascii	"int\000"
 1897 007a 02       		.uleb128 0x2
 1898 007b 04       		.byte	0x4
 1899 007c 07       		.byte	0x7
 1900 007d 5E000000 		.4byte	.LASF10
 1901 0081 03       		.uleb128 0x3
 1902 0082 AF030000 		.4byte	.LASF11
 1903 0086 03       		.byte	0x3
 1904 0087 15       		.byte	0x15
 1905 0088 2C000000 		.4byte	0x2c
 1906 008c 03       		.uleb128 0x3
 1907 008d AE060000 		.4byte	.LASF12
 1908 0091 03       		.byte	0x3
 1909 0092 2C       		.byte	0x2c
 1910 0093 4C000000 		.4byte	0x4c
 1911 0097 05       		.uleb128 0x5
 1912 0098 4D080000 		.4byte	.LASF13
 1913 009c 04       		.byte	0x4
 1914 009d 3801     		.2byte	0x138
 1915 009f 37000000 		.4byte	0x37
 1916 00a3 05       		.uleb128 0x5
 1917 00a4 9E030000 		.4byte	.LASF14
 1918 00a8 04       		.byte	0x4
 1919 00a9 3901     		.2byte	0x139
 1920 00ab 45000000 		.4byte	0x45
 1921 00af 05       		.uleb128 0x5
 1922 00b0 CF040000 		.4byte	.LASF15
 1923 00b4 04       		.byte	0x4
 1924 00b5 3A01     		.2byte	0x13a
 1925 00b7 5E000000 		.4byte	0x5e
 1926 00bb 02       		.uleb128 0x2
 1927 00bc 04       		.byte	0x4
 1928 00bd 04       		.byte	0x4
 1929 00be 27010000 		.4byte	.LASF16
 1930 00c2 02       		.uleb128 0x2
 1931 00c3 08       		.byte	0x8
 1932 00c4 04       		.byte	0x4
 1933 00c5 53080000 		.4byte	.LASF17
 1934 00c9 05       		.uleb128 0x5
 1935 00ca 43060000 		.4byte	.LASF18
 1936 00ce 04       		.byte	0x4
 1937 00cf 4401     		.2byte	0x144
 1938 00d1 6C000000 		.4byte	0x6c
 1939 00d5 05       		.uleb128 0x5
 1940 00d6 D3030000 		.4byte	.LASF19
ARM GAS  C:\Users\Lenovo\AppData\Local\Temp\ccd7Og9t.s 			page 47


 1941 00da 04       		.byte	0x4
 1942 00db 4901     		.2byte	0x149
 1943 00dd E1000000 		.4byte	0xe1
 1944 00e1 02       		.uleb128 0x2
 1945 00e2 01       		.byte	0x1
 1946 00e3 08       		.byte	0x8
 1947 00e4 38030000 		.4byte	.LASF20
 1948 00e8 06       		.uleb128 0x6
 1949 00e9 97000000 		.4byte	0x97
 1950 00ed 06       		.uleb128 0x6
 1951 00ee AF000000 		.4byte	0xaf
 1952 00f2 02       		.uleb128 0x2
 1953 00f3 04       		.byte	0x4
 1954 00f4 07       		.byte	0x7
 1955 00f5 6F060000 		.4byte	.LASF21
 1956 00f9 07       		.uleb128 0x7
 1957 00fa 97000000 		.4byte	0x97
 1958 00fe 09010000 		.4byte	0x109
 1959 0102 08       		.uleb128 0x8
 1960 0103 F2000000 		.4byte	0xf2
 1961 0107 03       		.byte	0x3
 1962 0108 00       		.byte	0
 1963 0109 09       		.uleb128 0x9
 1964 010a 3E000000 		.4byte	.LASF72
 1965 010e 7D02     		.2byte	0x27d
 1966 0110 05       		.byte	0x5
 1967 0111 5C       		.byte	0x5c
 1968 0112 84030000 		.4byte	0x384
 1969 0116 0A       		.uleb128 0xa
 1970 0117 B0000000 		.4byte	.LASF22
 1971 011b 05       		.byte	0x5
 1972 011c 5D       		.byte	0x5d
 1973 011d 97000000 		.4byte	0x97
 1974 0121 00       		.byte	0
 1975 0122 0A       		.uleb128 0xa
 1976 0123 CE010000 		.4byte	.LASF23
 1977 0127 05       		.byte	0x5
 1978 0128 5E       		.byte	0x5e
 1979 0129 84030000 		.4byte	0x384
 1980 012d 01       		.byte	0x1
 1981 012e 0A       		.uleb128 0xa
 1982 012f 5A080000 		.4byte	.LASF24
 1983 0133 05       		.byte	0x5
 1984 0134 5F       		.byte	0x5f
 1985 0135 97000000 		.4byte	0x97
 1986 0139 1A       		.byte	0x1a
 1987 013a 0A       		.uleb128 0xa
 1988 013b D5060000 		.4byte	.LASF25
 1989 013f 05       		.byte	0x5
 1990 0140 60       		.byte	0x60
 1991 0141 97000000 		.4byte	0x97
 1992 0145 1B       		.byte	0x1b
 1993 0146 0A       		.uleb128 0xa
 1994 0147 CB000000 		.4byte	.LASF26
 1995 014b 05       		.byte	0x5
 1996 014c 61       		.byte	0x61
 1997 014d 94030000 		.4byte	0x394
ARM GAS  C:\Users\Lenovo\AppData\Local\Temp\ccd7Og9t.s 			page 48


 1998 0151 1C       		.byte	0x1c
 1999 0152 0A       		.uleb128 0xa
 2000 0153 4A050000 		.4byte	.LASF27
 2001 0157 05       		.byte	0x5
 2002 0158 62       		.byte	0x62
 2003 0159 94030000 		.4byte	0x394
 2004 015d 26       		.byte	0x26
 2005 015e 0A       		.uleb128 0xa
 2006 015f 8F080000 		.4byte	.LASF28
 2007 0163 05       		.byte	0x5
 2008 0164 63       		.byte	0x63
 2009 0165 84030000 		.4byte	0x384
 2010 0169 30       		.byte	0x30
 2011 016a 0A       		.uleb128 0xa
 2012 016b 14050000 		.4byte	.LASF29
 2013 016f 05       		.byte	0x5
 2014 0170 64       		.byte	0x64
 2015 0171 97000000 		.4byte	0x97
 2016 0175 49       		.byte	0x49
 2017 0176 0A       		.uleb128 0xa
 2018 0177 90070000 		.4byte	.LASF30
 2019 017b 05       		.byte	0x5
 2020 017c 65       		.byte	0x65
 2021 017d 97000000 		.4byte	0x97
 2022 0181 4A       		.byte	0x4a
 2023 0182 0A       		.uleb128 0xa
 2024 0183 2E030000 		.4byte	.LASF31
 2025 0187 05       		.byte	0x5
 2026 0188 66       		.byte	0x66
 2027 0189 A4030000 		.4byte	0x3a4
 2028 018d 4B       		.byte	0x4b
 2029 018e 0A       		.uleb128 0xa
 2030 018f 8F040000 		.4byte	.LASF32
 2031 0193 05       		.byte	0x5
 2032 0194 67       		.byte	0x67
 2033 0195 97000000 		.4byte	0x97
 2034 0199 60       		.byte	0x60
 2035 019a 0A       		.uleb128 0xa
 2036 019b 07030000 		.4byte	.LASF33
 2037 019f 05       		.byte	0x5
 2038 01a0 68       		.byte	0x68
 2039 01a1 97000000 		.4byte	0x97
 2040 01a5 61       		.byte	0x61
 2041 01a6 0A       		.uleb128 0xa
 2042 01a7 52000000 		.4byte	.LASF34
 2043 01ab 05       		.byte	0x5
 2044 01ac 69       		.byte	0x69
 2045 01ad 97000000 		.4byte	0x97
 2046 01b1 62       		.byte	0x62
 2047 01b2 0A       		.uleb128 0xa
 2048 01b3 DA070000 		.4byte	.LASF35
 2049 01b7 05       		.byte	0x5
 2050 01b8 6A       		.byte	0x6a
 2051 01b9 B4030000 		.4byte	0x3b4
 2052 01bd 63       		.byte	0x63
 2053 01be 0A       		.uleb128 0xa
 2054 01bf DD020000 		.4byte	.LASF36
ARM GAS  C:\Users\Lenovo\AppData\Local\Temp\ccd7Og9t.s 			page 49


 2055 01c3 05       		.byte	0x5
 2056 01c4 6B       		.byte	0x6b
 2057 01c5 C4030000 		.4byte	0x3c4
 2058 01c9 65       		.byte	0x65
 2059 01ca 0A       		.uleb128 0xa
 2060 01cb C2010000 		.4byte	.LASF37
 2061 01cf 05       		.byte	0x5
 2062 01d0 6C       		.byte	0x6c
 2063 01d1 97000000 		.4byte	0x97
 2064 01d5 79       		.byte	0x79
 2065 01d6 0A       		.uleb128 0xa
 2066 01d7 66060000 		.4byte	.LASF38
 2067 01db 05       		.byte	0x5
 2068 01dc 6D       		.byte	0x6d
 2069 01dd DA030000 		.4byte	0x3da
 2070 01e1 7A       		.byte	0x7a
 2071 01e2 0A       		.uleb128 0xa
 2072 01e3 B9050000 		.4byte	.LASF39
 2073 01e7 05       		.byte	0x5
 2074 01e8 6E       		.byte	0x6e
 2075 01e9 EA030000 		.4byte	0x3ea
 2076 01ed 7F       		.byte	0x7f
 2077 01ee 0A       		.uleb128 0xa
 2078 01ef E5010000 		.4byte	.LASF40
 2079 01f3 05       		.byte	0x5
 2080 01f4 6F       		.byte	0x6f
 2081 01f5 EA030000 		.4byte	0x3ea
 2082 01f9 85       		.byte	0x85
 2083 01fa 0A       		.uleb128 0xa
 2084 01fb 72080000 		.4byte	.LASF41
 2085 01ff 05       		.byte	0x5
 2086 0200 70       		.byte	0x70
 2087 0201 EA030000 		.4byte	0x3ea
 2088 0205 8B       		.byte	0x8b
 2089 0206 0A       		.uleb128 0xa
 2090 0207 80040000 		.4byte	.LASF42
 2091 020b 05       		.byte	0x5
 2092 020c 71       		.byte	0x71
 2093 020d EA030000 		.4byte	0x3ea
 2094 0211 91       		.byte	0x91
 2095 0212 0A       		.uleb128 0xa
 2096 0213 2C050000 		.4byte	.LASF43
 2097 0217 05       		.byte	0x5
 2098 0218 72       		.byte	0x72
 2099 0219 FA030000 		.4byte	0x3fa
 2100 021d 97       		.byte	0x97
 2101 021e 0A       		.uleb128 0xa
 2102 021f 87010000 		.4byte	.LASF44
 2103 0223 05       		.byte	0x5
 2104 0224 73       		.byte	0x73
 2105 0225 FA030000 		.4byte	0x3fa
 2106 0229 A5       		.byte	0xa5
 2107 022a 0A       		.uleb128 0xa
 2108 022b 53040000 		.4byte	.LASF45
 2109 022f 05       		.byte	0x5
 2110 0230 74       		.byte	0x74
 2111 0231 FA030000 		.4byte	0x3fa
ARM GAS  C:\Users\Lenovo\AppData\Local\Temp\ccd7Og9t.s 			page 50


 2112 0235 B3       		.byte	0xb3
 2113 0236 0A       		.uleb128 0xa
 2114 0237 E2030000 		.4byte	.LASF46
 2115 023b 05       		.byte	0x5
 2116 023c 75       		.byte	0x75
 2117 023d FA030000 		.4byte	0x3fa
 2118 0241 C1       		.byte	0xc1
 2119 0242 0A       		.uleb128 0xa
 2120 0243 29060000 		.4byte	.LASF47
 2121 0247 05       		.byte	0x5
 2122 0248 76       		.byte	0x76
 2123 0249 FA030000 		.4byte	0x3fa
 2124 024d CF       		.byte	0xcf
 2125 024e 0A       		.uleb128 0xa
 2126 024f 06050000 		.4byte	.LASF48
 2127 0253 05       		.byte	0x5
 2128 0254 77       		.byte	0x77
 2129 0255 FA030000 		.4byte	0x3fa
 2130 0259 DD       		.byte	0xdd
 2131 025a 0A       		.uleb128 0xa
 2132 025b 64050000 		.4byte	.LASF49
 2133 025f 05       		.byte	0x5
 2134 0260 78       		.byte	0x78
 2135 0261 0A040000 		.4byte	0x40a
 2136 0265 EB       		.byte	0xeb
 2137 0266 0A       		.uleb128 0xa
 2138 0267 58020000 		.4byte	.LASF50
 2139 026b 05       		.byte	0x5
 2140 026c 79       		.byte	0x79
 2141 026d 0A040000 		.4byte	0x40a
 2142 0271 F6       		.byte	0xf6
 2143 0272 0B       		.uleb128 0xb
 2144 0273 FC020000 		.4byte	.LASF51
 2145 0277 05       		.byte	0x5
 2146 0278 7A       		.byte	0x7a
 2147 0279 0A040000 		.4byte	0x40a
 2148 027d 0101     		.2byte	0x101
 2149 027f 0B       		.uleb128 0xb
 2150 0280 A8040000 		.4byte	.LASF52
 2151 0284 05       		.byte	0x5
 2152 0285 7B       		.byte	0x7b
 2153 0286 97000000 		.4byte	0x97
 2154 028a 0C01     		.2byte	0x10c
 2155 028c 0B       		.uleb128 0xb
 2156 028d C7030000 		.4byte	.LASF53
 2157 0291 05       		.byte	0x5
 2158 0292 7C       		.byte	0x7c
 2159 0293 97000000 		.4byte	0x97
 2160 0297 0D01     		.2byte	0x10d
 2161 0299 0B       		.uleb128 0xb
 2162 029a 8F000000 		.4byte	.LASF54
 2163 029e 05       		.byte	0x5
 2164 029f 7D       		.byte	0x7d
 2165 02a0 97000000 		.4byte	0x97
 2166 02a4 0E01     		.2byte	0x10e
 2167 02a6 0B       		.uleb128 0xb
 2168 02a7 AD050000 		.4byte	.LASF55
ARM GAS  C:\Users\Lenovo\AppData\Local\Temp\ccd7Og9t.s 			page 51


 2169 02ab 05       		.byte	0x5
 2170 02ac 7E       		.byte	0x7e
 2171 02ad 97000000 		.4byte	0x97
 2172 02b1 0F01     		.2byte	0x10f
 2173 02b3 0B       		.uleb128 0xb
 2174 02b4 2C000000 		.4byte	.LASF56
 2175 02b8 05       		.byte	0x5
 2176 02b9 7F       		.byte	0x7f
 2177 02ba 1A040000 		.4byte	0x41a
 2178 02be 1001     		.2byte	0x110
 2179 02c0 0B       		.uleb128 0xb
 2180 02c1 F2030000 		.4byte	.LASF57
 2181 02c5 05       		.byte	0x5
 2182 02c6 80       		.byte	0x80
 2183 02c7 94030000 		.4byte	0x394
 2184 02cb 5101     		.2byte	0x151
 2185 02cd 0B       		.uleb128 0xb
 2186 02ce 0A010000 		.4byte	.LASF58
 2187 02d2 05       		.byte	0x5
 2188 02d3 81       		.byte	0x81
 2189 02d4 94030000 		.4byte	0x394
 2190 02d8 5B01     		.2byte	0x15b
 2191 02da 0B       		.uleb128 0xb
 2192 02db D9030000 		.4byte	.LASF59
 2193 02df 05       		.byte	0x5
 2194 02e0 82       		.byte	0x82
 2195 02e1 94030000 		.4byte	0x394
 2196 02e5 6501     		.2byte	0x165
 2197 02e7 0B       		.uleb128 0xb
 2198 02e8 C3020000 		.4byte	.LASF60
 2199 02ec 05       		.byte	0x5
 2200 02ed 83       		.byte	0x83
 2201 02ee 2A040000 		.4byte	0x42a
 2202 02f2 6F01     		.2byte	0x16f
 2203 02f4 0B       		.uleb128 0xb
 2204 02f5 6B000000 		.4byte	.LASF61
 2205 02f9 05       		.byte	0x5
 2206 02fa 84       		.byte	0x84
 2207 02fb 2A040000 		.4byte	0x42a
 2208 02ff BA01     		.2byte	0x1ba
 2209 0301 0B       		.uleb128 0xb
 2210 0302 D8000000 		.4byte	.LASF62
 2211 0306 05       		.byte	0x5
 2212 0307 85       		.byte	0x85
 2213 0308 40040000 		.4byte	0x440
 2214 030c 0502     		.2byte	0x205
 2215 030e 0B       		.uleb128 0xb
 2216 030f C2060000 		.4byte	.LASF63
 2217 0313 05       		.byte	0x5
 2218 0314 86       		.byte	0x86
 2219 0315 40040000 		.4byte	0x440
 2220 0319 1402     		.2byte	0x214
 2221 031b 0B       		.uleb128 0xb
 2222 031c A2070000 		.4byte	.LASF64
 2223 0320 05       		.byte	0x5
 2224 0321 87       		.byte	0x87
 2225 0322 56040000 		.4byte	0x456
ARM GAS  C:\Users\Lenovo\AppData\Local\Temp\ccd7Og9t.s 			page 52


 2226 0326 2302     		.2byte	0x223
 2227 0328 0B       		.uleb128 0xb
 2228 0329 E5070000 		.4byte	.LASF65
 2229 032d 05       		.byte	0x5
 2230 032e 88       		.byte	0x88
 2231 032f 56040000 		.4byte	0x456
 2232 0333 4102     		.2byte	0x241
 2233 0335 0B       		.uleb128 0xb
 2234 0336 74040000 		.4byte	.LASF66
 2235 033a 05       		.byte	0x5
 2236 033b 89       		.byte	0x89
 2237 033c 94030000 		.4byte	0x394
 2238 0340 5F02     		.2byte	0x25f
 2239 0342 0B       		.uleb128 0xb
 2240 0343 9C060000 		.4byte	.LASF67
 2241 0347 05       		.byte	0x5
 2242 0348 8A       		.byte	0x8a
 2243 0349 97000000 		.4byte	0x97
 2244 034d 6902     		.2byte	0x269
 2245 034f 0B       		.uleb128 0xb
 2246 0350 70050000 		.4byte	.LASF68
 2247 0354 05       		.byte	0x5
 2248 0355 8B       		.byte	0x8b
 2249 0356 6C040000 		.4byte	0x46c
 2250 035a 6A02     		.2byte	0x26a
 2251 035c 0B       		.uleb128 0xb
 2252 035d FD030000 		.4byte	.LASF69
 2253 0361 05       		.byte	0x5
 2254 0362 8C       		.byte	0x8c
 2255 0363 B4030000 		.4byte	0x3b4
 2256 0367 7902     		.2byte	0x279
 2257 0369 0B       		.uleb128 0xb
 2258 036a 64020000 		.4byte	.LASF70
 2259 036e 05       		.byte	0x5
 2260 036f 8D       		.byte	0x8d
 2261 0370 97000000 		.4byte	0x97
 2262 0374 7B02     		.2byte	0x27b
 2263 0376 0B       		.uleb128 0xb
 2264 0377 85020000 		.4byte	.LASF71
 2265 037b 05       		.byte	0x5
 2266 037c 8E       		.byte	0x8e
 2267 037d 97000000 		.4byte	0x97
 2268 0381 7C02     		.2byte	0x27c
 2269 0383 00       		.byte	0
 2270 0384 07       		.uleb128 0x7
 2271 0385 97000000 		.4byte	0x97
 2272 0389 94030000 		.4byte	0x394
 2273 038d 08       		.uleb128 0x8
 2274 038e F2000000 		.4byte	0xf2
 2275 0392 18       		.byte	0x18
 2276 0393 00       		.byte	0
 2277 0394 07       		.uleb128 0x7
 2278 0395 97000000 		.4byte	0x97
 2279 0399 A4030000 		.4byte	0x3a4
 2280 039d 08       		.uleb128 0x8
 2281 039e F2000000 		.4byte	0xf2
 2282 03a2 09       		.byte	0x9
ARM GAS  C:\Users\Lenovo\AppData\Local\Temp\ccd7Og9t.s 			page 53


 2283 03a3 00       		.byte	0
 2284 03a4 07       		.uleb128 0x7
 2285 03a5 97000000 		.4byte	0x97
 2286 03a9 B4030000 		.4byte	0x3b4
 2287 03ad 08       		.uleb128 0x8
 2288 03ae F2000000 		.4byte	0xf2
 2289 03b2 14       		.byte	0x14
 2290 03b3 00       		.byte	0
 2291 03b4 07       		.uleb128 0x7
 2292 03b5 97000000 		.4byte	0x97
 2293 03b9 C4030000 		.4byte	0x3c4
 2294 03bd 08       		.uleb128 0x8
 2295 03be F2000000 		.4byte	0xf2
 2296 03c2 01       		.byte	0x1
 2297 03c3 00       		.byte	0
 2298 03c4 07       		.uleb128 0x7
 2299 03c5 97000000 		.4byte	0x97
 2300 03c9 DA030000 		.4byte	0x3da
 2301 03cd 08       		.uleb128 0x8
 2302 03ce F2000000 		.4byte	0xf2
 2303 03d2 01       		.byte	0x1
 2304 03d3 08       		.uleb128 0x8
 2305 03d4 F2000000 		.4byte	0xf2
 2306 03d8 09       		.byte	0x9
 2307 03d9 00       		.byte	0
 2308 03da 07       		.uleb128 0x7
 2309 03db 97000000 		.4byte	0x97
 2310 03df EA030000 		.4byte	0x3ea
 2311 03e3 08       		.uleb128 0x8
 2312 03e4 F2000000 		.4byte	0xf2
 2313 03e8 04       		.byte	0x4
 2314 03e9 00       		.byte	0
 2315 03ea 07       		.uleb128 0x7
 2316 03eb 97000000 		.4byte	0x97
 2317 03ef FA030000 		.4byte	0x3fa
 2318 03f3 08       		.uleb128 0x8
 2319 03f4 F2000000 		.4byte	0xf2
 2320 03f8 05       		.byte	0x5
 2321 03f9 00       		.byte	0
 2322 03fa 07       		.uleb128 0x7
 2323 03fb 97000000 		.4byte	0x97
 2324 03ff 0A040000 		.4byte	0x40a
 2325 0403 08       		.uleb128 0x8
 2326 0404 F2000000 		.4byte	0xf2
 2327 0408 0D       		.byte	0xd
 2328 0409 00       		.byte	0
 2329 040a 07       		.uleb128 0x7
 2330 040b 97000000 		.4byte	0x97
 2331 040f 1A040000 		.4byte	0x41a
 2332 0413 08       		.uleb128 0x8
 2333 0414 F2000000 		.4byte	0xf2
 2334 0418 0A       		.byte	0xa
 2335 0419 00       		.byte	0
 2336 041a 07       		.uleb128 0x7
 2337 041b 97000000 		.4byte	0x97
 2338 041f 2A040000 		.4byte	0x42a
 2339 0423 08       		.uleb128 0x8
ARM GAS  C:\Users\Lenovo\AppData\Local\Temp\ccd7Og9t.s 			page 54


 2340 0424 F2000000 		.4byte	0xf2
 2341 0428 40       		.byte	0x40
 2342 0429 00       		.byte	0
 2343 042a 07       		.uleb128 0x7
 2344 042b 97000000 		.4byte	0x97
 2345 042f 40040000 		.4byte	0x440
 2346 0433 08       		.uleb128 0x8
 2347 0434 F2000000 		.4byte	0xf2
 2348 0438 02       		.byte	0x2
 2349 0439 08       		.uleb128 0x8
 2350 043a F2000000 		.4byte	0xf2
 2351 043e 18       		.byte	0x18
 2352 043f 00       		.byte	0
 2353 0440 07       		.uleb128 0x7
 2354 0441 97000000 		.4byte	0x97
 2355 0445 56040000 		.4byte	0x456
 2356 0449 08       		.uleb128 0x8
 2357 044a F2000000 		.4byte	0xf2
 2358 044e 02       		.byte	0x2
 2359 044f 08       		.uleb128 0x8
 2360 0450 F2000000 		.4byte	0xf2
 2361 0454 04       		.byte	0x4
 2362 0455 00       		.byte	0
 2363 0456 07       		.uleb128 0x7
 2364 0457 97000000 		.4byte	0x97
 2365 045b 6C040000 		.4byte	0x46c
 2366 045f 08       		.uleb128 0x8
 2367 0460 F2000000 		.4byte	0xf2
 2368 0464 02       		.byte	0x2
 2369 0465 08       		.uleb128 0x8
 2370 0466 F2000000 		.4byte	0xf2
 2371 046a 09       		.byte	0x9
 2372 046b 00       		.byte	0
 2373 046c 07       		.uleb128 0x7
 2374 046d 97000000 		.4byte	0x97
 2375 0471 7C040000 		.4byte	0x47c
 2376 0475 08       		.uleb128 0x8
 2377 0476 F2000000 		.4byte	0xf2
 2378 047a 0E       		.byte	0xe
 2379 047b 00       		.byte	0
 2380 047c 09       		.uleb128 0x9
 2381 047d A2080000 		.4byte	.LASF73
 2382 0481 0301     		.2byte	0x103
 2383 0483 05       		.byte	0x5
 2384 0484 9F       		.byte	0x9f
 2385 0485 05050000 		.4byte	0x505
 2386 0489 0C       		.uleb128 0xc
 2387 048a 64697200 		.ascii	"dir\000"
 2388 048e 05       		.byte	0x5
 2389 048f A0       		.byte	0xa0
 2390 0490 97000000 		.4byte	0x97
 2391 0494 00       		.byte	0
 2392 0495 0A       		.uleb128 0xa
 2393 0496 D0020000 		.4byte	.LASF74
 2394 049a 05       		.byte	0x5
 2395 049b A1       		.byte	0xa1
 2396 049c 05050000 		.4byte	0x505
ARM GAS  C:\Users\Lenovo\AppData\Local\Temp\ccd7Og9t.s 			page 55


 2397 04a0 01       		.byte	0x1
 2398 04a1 0A       		.uleb128 0xa
 2399 04a2 81080000 		.4byte	.LASF75
 2400 04a6 05       		.byte	0x5
 2401 04a7 A2       		.byte	0xa2
 2402 04a8 21050000 		.4byte	0x521
 2403 04ac B5       		.byte	0xb5
 2404 04ad 0A       		.uleb128 0xa
 2405 04ae 06040000 		.4byte	.LASF76
 2406 04b2 05       		.byte	0x5
 2407 04b3 A3       		.byte	0xa3
 2408 04b4 FA030000 		.4byte	0x3fa
 2409 04b8 D5       		.byte	0xd5
 2410 04b9 0A       		.uleb128 0xa
 2411 04ba 02080000 		.4byte	.LASF77
 2412 04be 05       		.byte	0x5
 2413 04bf A4       		.byte	0xa4
 2414 04c0 FA030000 		.4byte	0x3fa
 2415 04c4 E3       		.byte	0xe3
 2416 04c5 0A       		.uleb128 0xa
 2417 04c6 1E040000 		.4byte	.LASF78
 2418 04ca 05       		.byte	0x5
 2419 04cb A5       		.byte	0xa5
 2420 04cc FA030000 		.4byte	0x3fa
 2421 04d0 F1       		.byte	0xf1
 2422 04d1 0A       		.uleb128 0xa
 2423 04d2 41080000 		.4byte	.LASF79
 2424 04d6 05       		.byte	0x5
 2425 04d7 A6       		.byte	0xa6
 2426 04d8 97000000 		.4byte	0x97
 2427 04dc FF       		.byte	0xff
 2428 04dd 0B       		.uleb128 0xb
 2429 04de 91060000 		.4byte	.LASF80
 2430 04e2 05       		.byte	0x5
 2431 04e3 A7       		.byte	0xa7
 2432 04e4 97000000 		.4byte	0x97
 2433 04e8 0001     		.2byte	0x100
 2434 04ea 0B       		.uleb128 0xb
 2435 04eb 54010000 		.4byte	.LASF81
 2436 04ef 05       		.byte	0x5
 2437 04f0 A8       		.byte	0xa8
 2438 04f1 97000000 		.4byte	0x97
 2439 04f5 0101     		.2byte	0x101
 2440 04f7 0B       		.uleb128 0xb
 2441 04f8 D8050000 		.4byte	.LASF82
 2442 04fc 05       		.byte	0x5
 2443 04fd A9       		.byte	0xa9
 2444 04fe 97000000 		.4byte	0x97
 2445 0502 0201     		.2byte	0x102
 2446 0504 00       		.byte	0
 2447 0505 07       		.uleb128 0x7
 2448 0506 97000000 		.4byte	0x97
 2449 050a 21050000 		.4byte	0x521
 2450 050e 08       		.uleb128 0x8
 2451 050f F2000000 		.4byte	0xf2
 2452 0513 03       		.byte	0x3
 2453 0514 08       		.uleb128 0x8
ARM GAS  C:\Users\Lenovo\AppData\Local\Temp\ccd7Og9t.s 			page 56


 2454 0515 F2000000 		.4byte	0xf2
 2455 0519 02       		.byte	0x2
 2456 051a 08       		.uleb128 0x8
 2457 051b F2000000 		.4byte	0xf2
 2458 051f 0E       		.byte	0xe
 2459 0520 00       		.byte	0
 2460 0521 07       		.uleb128 0x7
 2461 0522 97000000 		.4byte	0x97
 2462 0526 37050000 		.4byte	0x537
 2463 052a 08       		.uleb128 0x8
 2464 052b F2000000 		.4byte	0xf2
 2465 052f 03       		.byte	0x3
 2466 0530 08       		.uleb128 0x8
 2467 0531 F2000000 		.4byte	0xf2
 2468 0535 07       		.byte	0x7
 2469 0536 00       		.byte	0
 2470 0537 09       		.uleb128 0x9
 2471 0538 BC070000 		.4byte	.LASF83
 2472 053c 0C04     		.2byte	0x40c
 2473 053e 05       		.byte	0x5
 2474 053f AC       		.byte	0xac
 2475 0540 70050000 		.4byte	0x570
 2476 0544 0C       		.uleb128 0xc
 2477 0545 6100     		.ascii	"a\000"
 2478 0547 05       		.byte	0x5
 2479 0548 AD       		.byte	0xad
 2480 0549 7C040000 		.4byte	0x47c
 2481 054d 00       		.byte	0
 2482 054e 0D       		.uleb128 0xd
 2483 054f 6200     		.ascii	"b\000"
 2484 0551 05       		.byte	0x5
 2485 0552 AE       		.byte	0xae
 2486 0553 7C040000 		.4byte	0x47c
 2487 0557 0301     		.2byte	0x103
 2488 0559 0D       		.uleb128 0xd
 2489 055a 6300     		.ascii	"c\000"
 2490 055c 05       		.byte	0x5
 2491 055d AF       		.byte	0xaf
 2492 055e 7C040000 		.4byte	0x47c
 2493 0562 0602     		.2byte	0x206
 2494 0564 0D       		.uleb128 0xd
 2495 0565 6400     		.ascii	"d\000"
 2496 0567 05       		.byte	0x5
 2497 0568 B0       		.byte	0xb0
 2498 0569 7C040000 		.4byte	0x47c
 2499 056d 0903     		.2byte	0x309
 2500 056f 00       		.byte	0
 2501 0570 0E       		.uleb128 0xe
 2502 0571 C8050000 		.4byte	.LASF87
 2503 0575 01       		.byte	0x1
 2504 0576 05       		.byte	0x5
 2505 0577 B6       		.byte	0xb6
 2506 0578 CA050000 		.4byte	0x5ca
 2507 057c 0F       		.uleb128 0xf
 2508 057d 534F4D00 		.ascii	"SOM\000"
 2509 0581 FF01     		.sleb128 255
 2510 0583 0F       		.uleb128 0xf
ARM GAS  C:\Users\Lenovo\AppData\Local\Temp\ccd7Og9t.s 			page 57


 2511 0584 56505400 		.ascii	"VPT\000"
 2512 0588 F101     		.sleb128 241
 2513 058a 0F       		.uleb128 0xf
 2514 058b 4D505400 		.ascii	"MPT\000"
 2515 058f F201     		.sleb128 242
 2516 0591 0F       		.uleb128 0xf
 2517 0592 48446E00 		.ascii	"HDn\000"
 2518 0596 F601     		.sleb128 246
 2519 0598 10       		.uleb128 0x10
 2520 0599 00000000 		.4byte	.LASF84
 2521 059d F701     		.sleb128 247
 2522 059f 10       		.uleb128 0x10
 2523 05a0 B6060000 		.4byte	.LASF85
 2524 05a4 F801     		.sleb128 248
 2525 05a6 0F       		.uleb128 0xf
 2526 05a7 56446E00 		.ascii	"VDn\000"
 2527 05ab F901     		.sleb128 249
 2528 05ad 0F       		.uleb128 0xf
 2529 05ae 4D446E00 		.ascii	"MDn\000"
 2530 05b2 FA01     		.sleb128 250
 2531 05b4 10       		.uleb128 0x10
 2532 05b5 A5030000 		.4byte	.LASF86
 2533 05b9 FB01     		.sleb128 251
 2534 05bb 0F       		.uleb128 0xf
 2535 05bc 53466E00 		.ascii	"SFn\000"
 2536 05c0 FE01     		.sleb128 254
 2537 05c2 0F       		.uleb128 0xf
 2538 05c3 454F4D00 		.ascii	"EOM\000"
 2539 05c7 F001     		.sleb128 240
 2540 05c9 00       		.byte	0
 2541 05ca 11       		.uleb128 0x11
 2542 05cb A2010000 		.4byte	.LASF88
 2543 05cf 01       		.byte	0x1
 2544 05d0 05       		.byte	0x5
 2545 05d1 1101     		.2byte	0x111
 2546 05d3 08060000 		.4byte	0x608
 2547 05d7 10       		.uleb128 0x10
 2548 05d8 9E000000 		.4byte	.LASF89
 2549 05dc 00       		.sleb128 0
 2550 05dd 10       		.uleb128 0x10
 2551 05de 1D010000 		.4byte	.LASF90
 2552 05e2 06       		.sleb128 6
 2553 05e3 10       		.uleb128 0x10
 2554 05e4 9B040000 		.4byte	.LASF91
 2555 05e8 07       		.sleb128 7
 2556 05e9 10       		.uleb128 0x10
 2557 05ea D6040000 		.4byte	.LASF92
 2558 05ee 08       		.sleb128 8
 2559 05ef 10       		.uleb128 0x10
 2560 05f0 10030000 		.4byte	.LASF93
 2561 05f4 09       		.sleb128 9
 2562 05f5 10       		.uleb128 0x10
 2563 05f6 C1070000 		.4byte	.LASF94
 2564 05fa 0A       		.sleb128 10
 2565 05fb 10       		.uleb128 0x10
 2566 05fc 70010000 		.4byte	.LASF95
 2567 0600 0B       		.sleb128 11
ARM GAS  C:\Users\Lenovo\AppData\Local\Temp\ccd7Og9t.s 			page 58


 2568 0601 10       		.uleb128 0x10
 2569 0602 4E030000 		.4byte	.LASF96
 2570 0606 0C       		.sleb128 12
 2571 0607 00       		.byte	0
 2572 0608 12       		.uleb128 0x12
 2573 0609 94030000 		.4byte	.LASF97
 2574 060d 01       		.byte	0x1
 2575 060e 39       		.byte	0x39
 2576 060f 97000000 		.4byte	0x97
 2577 0613 00000000 		.4byte	.LFB63
 2578 0617 2E000000 		.4byte	.LFE63-.LFB63
 2579 061b 01       		.uleb128 0x1
 2580 061c 9C       		.byte	0x9c
 2581 061d 8C060000 		.4byte	0x68c
 2582 0621 13       		.uleb128 0x13
 2583 0622 706F7300 		.ascii	"pos\000"
 2584 0626 01       		.byte	0x1
 2585 0627 39       		.byte	0x39
 2586 0628 97000000 		.4byte	0x97
 2587 062c 00000000 		.4byte	.LLST0
 2588 0630 14       		.uleb128 0x14
 2589 0631 D4070000 		.4byte	.LASF99
 2590 0635 01       		.byte	0x1
 2591 0636 3A       		.byte	0x3a
 2592 0637 97000000 		.4byte	0x97
 2593 063b 21000000 		.4byte	.LLST1
 2594 063f 15       		.uleb128 0x15
 2595 0640 08000000 		.4byte	.LVL1
 2596 0644 DD0F0000 		.4byte	0xfdd
 2597 0648 16       		.uleb128 0x16
 2598 0649 0E000000 		.4byte	.LVL2
 2599 064d E40F0000 		.4byte	0xfe4
 2600 0651 5C060000 		.4byte	0x65c
 2601 0655 17       		.uleb128 0x17
 2602 0656 01       		.uleb128 0x1
 2603 0657 50       		.byte	0x50
 2604 0658 02       		.uleb128 0x2
 2605 0659 74       		.byte	0x74
 2606 065a 00       		.sleb128 0
 2607 065b 00       		.byte	0
 2608 065c 16       		.uleb128 0x16
 2609 065d 14000000 		.4byte	.LVL3
 2610 0661 F50F0000 		.4byte	0xff5
 2611 0665 70060000 		.4byte	0x670
 2612 0669 17       		.uleb128 0x17
 2613 066a 01       		.uleb128 0x1
 2614 066b 50       		.byte	0x50
 2615 066c 02       		.uleb128 0x2
 2616 066d 08       		.byte	0x8
 2617 066e 3C       		.byte	0x3c
 2618 066f 00       		.byte	0
 2619 0670 15       		.uleb128 0x15
 2620 0671 18000000 		.4byte	.LVL4
 2621 0675 06100000 		.4byte	0x1006
 2622 0679 15       		.uleb128 0x15
 2623 067a 1E000000 		.4byte	.LVL5
 2624 067e 11100000 		.4byte	0x1011
ARM GAS  C:\Users\Lenovo\AppData\Local\Temp\ccd7Og9t.s 			page 59


 2625 0682 15       		.uleb128 0x15
 2626 0683 26000000 		.4byte	.LVL7
 2627 0687 DD0F0000 		.4byte	0xfdd
 2628 068b 00       		.byte	0
 2629 068c 12       		.uleb128 0x12
 2630 068d BE000000 		.4byte	.LASF98
 2631 0691 01       		.byte	0x1
 2632 0692 59       		.byte	0x59
 2633 0693 97000000 		.4byte	0x97
 2634 0697 00000000 		.4byte	.LFB64
 2635 069b 20010000 		.4byte	.LFE64-.LFB64
 2636 069f 01       		.uleb128 0x1
 2637 06a0 9C       		.byte	0x9c
 2638 06a1 23070000 		.4byte	0x723
 2639 06a5 18       		.uleb128 0x18
 2640 06a6 7800     		.ascii	"x\000"
 2641 06a8 01       		.byte	0x1
 2642 06a9 5A       		.byte	0x5a
 2643 06aa 97000000 		.4byte	0x97
 2644 06ae 34000000 		.4byte	.LLST2
 2645 06b2 16       		.uleb128 0x16
 2646 06b3 1E000000 		.4byte	.LVL11
 2647 06b7 E40F0000 		.4byte	0xfe4
 2648 06bb C6060000 		.4byte	0x6c6
 2649 06bf 17       		.uleb128 0x17
 2650 06c0 01       		.uleb128 0x1
 2651 06c1 50       		.byte	0x50
 2652 06c2 02       		.uleb128 0x2
 2653 06c3 74       		.byte	0x74
 2654 06c4 00       		.sleb128 0
 2655 06c5 00       		.byte	0
 2656 06c6 16       		.uleb128 0x16
 2657 06c7 24000000 		.4byte	.LVL12
 2658 06cb F50F0000 		.4byte	0xff5
 2659 06cf DA060000 		.4byte	0x6da
 2660 06d3 17       		.uleb128 0x17
 2661 06d4 01       		.uleb128 0x1
 2662 06d5 50       		.byte	0x50
 2663 06d6 02       		.uleb128 0x2
 2664 06d7 08       		.byte	0x8
 2665 06d8 64       		.byte	0x64
 2666 06d9 00       		.byte	0
 2667 06da 15       		.uleb128 0x15
 2668 06db 28000000 		.4byte	.LVL13
 2669 06df 06100000 		.4byte	0x1006
 2670 06e3 15       		.uleb128 0x15
 2671 06e4 3A000000 		.4byte	.LVL14
 2672 06e8 DD0F0000 		.4byte	0xfdd
 2673 06ec 15       		.uleb128 0x15
 2674 06ed 3E000000 		.4byte	.LVL15
 2675 06f1 06100000 		.4byte	0x1006
 2676 06f5 15       		.uleb128 0x15
 2677 06f6 5C000000 		.4byte	.LVL16
 2678 06fa DD0F0000 		.4byte	0xfdd
 2679 06fe 15       		.uleb128 0x15
 2680 06ff 60000000 		.4byte	.LVL17
 2681 0703 06100000 		.4byte	0x1006
ARM GAS  C:\Users\Lenovo\AppData\Local\Temp\ccd7Og9t.s 			page 60


 2682 0707 15       		.uleb128 0x15
 2683 0708 88000000 		.4byte	.LVL18
 2684 070c DD0F0000 		.4byte	0xfdd
 2685 0710 15       		.uleb128 0x15
 2686 0711 8C000000 		.4byte	.LVL19
 2687 0715 06100000 		.4byte	0x1006
 2688 0719 15       		.uleb128 0x15
 2689 071a BE000000 		.4byte	.LVL20
 2690 071e DD0F0000 		.4byte	0xfdd
 2691 0722 00       		.byte	0
 2692 0723 19       		.uleb128 0x19
 2693 0724 02010000 		.4byte	.LASF100
 2694 0728 01       		.byte	0x1
 2695 0729 5001     		.2byte	0x150
 2696 072b 97000000 		.4byte	0x97
 2697 072f 00000000 		.4byte	.LFB68
 2698 0733 C8030000 		.4byte	.LFE68-.LFB68
 2699 0737 01       		.uleb128 0x1
 2700 0738 9C       		.byte	0x9c
 2701 0739 AC070000 		.4byte	0x7ac
 2702 073d 1A       		.uleb128 0x1a
 2703 073e 706F7300 		.ascii	"pos\000"
 2704 0742 01       		.byte	0x1
 2705 0743 5001     		.2byte	0x150
 2706 0745 97000000 		.4byte	0x97
 2707 0749 5E000000 		.4byte	.LLST3
 2708 074d 1B       		.uleb128 0x1b
 2709 074e 7800     		.ascii	"x\000"
 2710 0750 01       		.byte	0x1
 2711 0751 5101     		.2byte	0x151
 2712 0753 97000000 		.4byte	0x97
 2713 0757 7F000000 		.4byte	.LLST4
 2714 075b 15       		.uleb128 0x15
 2715 075c 08000000 		.4byte	.LVL29
 2716 0760 DD0F0000 		.4byte	0xfdd
 2717 0764 16       		.uleb128 0x16
 2718 0765 10000000 		.4byte	.LVL30
 2719 0769 E40F0000 		.4byte	0xfe4
 2720 076d 7B070000 		.4byte	0x77b
 2721 0771 17       		.uleb128 0x17
 2722 0772 01       		.uleb128 0x1
 2723 0773 50       		.byte	0x50
 2724 0774 05       		.uleb128 0x5
 2725 0775 74       		.byte	0x74
 2726 0776 00       		.sleb128 0
 2727 0777 08       		.byte	0x8
 2728 0778 40       		.byte	0x40
 2729 0779 21       		.byte	0x21
 2730 077a 00       		.byte	0
 2731 077b 16       		.uleb128 0x16
 2732 077c 18000000 		.4byte	.LVL31
 2733 0780 F50F0000 		.4byte	0xff5
 2734 0784 90070000 		.4byte	0x790
 2735 0788 17       		.uleb128 0x17
 2736 0789 01       		.uleb128 0x1
 2737 078a 50       		.byte	0x50
 2738 078b 03       		.uleb128 0x3
ARM GAS  C:\Users\Lenovo\AppData\Local\Temp\ccd7Og9t.s 			page 61


 2739 078c 0A       		.byte	0xa
 2740 078d 2C01     		.2byte	0x12c
 2741 078f 00       		.byte	0
 2742 0790 15       		.uleb128 0x15
 2743 0791 1C000000 		.4byte	.LVL32
 2744 0795 1C100000 		.4byte	0x101c
 2745 0799 15       		.uleb128 0x15
 2746 079a 2A000000 		.4byte	.LVL33
 2747 079e 06100000 		.4byte	0x1006
 2748 07a2 15       		.uleb128 0x15
 2749 07a3 18020000 		.4byte	.LVL74
 2750 07a7 06100000 		.4byte	0x1006
 2751 07ab 00       		.byte	0
 2752 07ac 1C       		.uleb128 0x1c
 2753 07ad F3040000 		.4byte	.LASF173
 2754 07b1 01       		.byte	0x1
 2755 07b2 BC01     		.2byte	0x1bc
 2756 07b4 E7070000 		.4byte	0x7e7
 2757 07b8 00000000 		.4byte	.LFB69
 2758 07bc 14000000 		.4byte	.LFE69-.LFB69
 2759 07c0 01       		.uleb128 0x1
 2760 07c1 9C       		.byte	0x9c
 2761 07c2 E7070000 		.4byte	0x7e7
 2762 07c6 1D       		.uleb128 0x1d
 2763 07c7 D4070000 		.4byte	.LASF99
 2764 07cb 01       		.byte	0x1
 2765 07cc BC01     		.2byte	0x1bc
 2766 07ce 73000000 		.4byte	0x73
 2767 07d2 49020000 		.4byte	.LLST5
 2768 07d6 1E       		.uleb128 0x1e
 2769 07d7 B5010000 		.4byte	.LASF101
 2770 07db 01       		.byte	0x1
 2771 07dc BE01     		.2byte	0x1be
 2772 07de E7070000 		.4byte	0x7e7
 2773 07e2 83020000 		.4byte	.LLST6
 2774 07e6 00       		.byte	0
 2775 07e7 02       		.uleb128 0x2
 2776 07e8 01       		.byte	0x1
 2777 07e9 02       		.byte	0x2
 2778 07ea 7F020000 		.4byte	.LASF102
 2779 07ee 19       		.uleb128 0x19
 2780 07ef BB060000 		.4byte	.LASF103
 2781 07f3 01       		.byte	0x1
 2782 07f4 D101     		.2byte	0x1d1
 2783 07f6 81000000 		.4byte	0x81
 2784 07fa 00000000 		.4byte	.LFB70
 2785 07fe 26000000 		.4byte	.LFE70-.LFB70
 2786 0802 01       		.uleb128 0x1
 2787 0803 9C       		.byte	0x9c
 2788 0804 29080000 		.4byte	0x829
 2789 0808 1D       		.uleb128 0x1d
 2790 0809 63080000 		.4byte	.LASF104
 2791 080d 01       		.byte	0x1
 2792 080e D101     		.2byte	0x1d1
 2793 0810 29080000 		.4byte	0x829
 2794 0814 A2020000 		.4byte	.LLST7
 2795 0818 1B       		.uleb128 0x1b
ARM GAS  C:\Users\Lenovo\AppData\Local\Temp\ccd7Og9t.s 			page 62


 2796 0819 6C726300 		.ascii	"lrc\000"
 2797 081d 01       		.byte	0x1
 2798 081e D301     		.2byte	0x1d3
 2799 0820 81000000 		.4byte	0x81
 2800 0824 C0020000 		.4byte	.LLST8
 2801 0828 00       		.byte	0
 2802 0829 1F       		.uleb128 0x1f
 2803 082a 04       		.byte	0x4
 2804 082b D5000000 		.4byte	0xd5
 2805 082f 12       		.uleb128 0x12
 2806 0830 0D080000 		.4byte	.LASF105
 2807 0834 01       		.byte	0x1
 2808 0835 94       		.byte	0x94
 2809 0836 97000000 		.4byte	0x97
 2810 083a 00000000 		.4byte	.LFB65
 2811 083e B4010000 		.4byte	.LFE65-.LFB65
 2812 0842 01       		.uleb128 0x1
 2813 0843 9C       		.byte	0x9c
 2814 0844 5F090000 		.4byte	0x95f
 2815 0848 20       		.uleb128 0x20
 2816 0849 37020000 		.4byte	.LASF106
 2817 084d 01       		.byte	0x1
 2818 084e 94       		.byte	0x94
 2819 084f 97000000 		.4byte	0x97
 2820 0853 08030000 		.4byte	.LLST9
 2821 0857 20       		.uleb128 0x20
 2822 0858 6C080000 		.4byte	.LASF107
 2823 085c 01       		.byte	0x1
 2824 085d 94       		.byte	0x94
 2825 085e D5000000 		.4byte	0xd5
 2826 0862 29030000 		.4byte	.LLST10
 2827 0866 20       		.uleb128 0x20
 2828 0867 BC010000 		.4byte	.LASF108
 2829 086b 01       		.byte	0x1
 2830 086c 94       		.byte	0x94
 2831 086d 5F090000 		.4byte	0x95f
 2832 0871 4A030000 		.4byte	.LLST11
 2833 0875 20       		.uleb128 0x20
 2834 0876 16010000 		.4byte	.LASF109
 2835 087a 01       		.byte	0x1
 2836 087b 94       		.byte	0x94
 2837 087c 97000000 		.4byte	0x97
 2838 0880 8F030000 		.4byte	.LLST12
 2839 0884 21       		.uleb128 0x21
 2840 0885 2D010000 		.4byte	.LASF110
 2841 0889 01       		.byte	0x1
 2842 088a 95       		.byte	0x95
 2843 088b 65090000 		.4byte	0x965
 2844 088f 02       		.uleb128 0x2
 2845 0890 91       		.byte	0x91
 2846 0891 54       		.sleb128 -44
 2847 0892 14       		.uleb128 0x14
 2848 0893 D4070000 		.4byte	.LASF99
 2849 0897 01       		.byte	0x1
 2850 0898 96       		.byte	0x96
 2851 0899 97000000 		.4byte	0x97
 2852 089d BC030000 		.4byte	.LLST13
ARM GAS  C:\Users\Lenovo\AppData\Local\Temp\ccd7Og9t.s 			page 63


 2853 08a1 18       		.uleb128 0x18
 2854 08a2 7800     		.ascii	"x\000"
 2855 08a4 01       		.byte	0x1
 2856 08a5 96       		.byte	0x96
 2857 08a6 97000000 		.4byte	0x97
 2858 08aa CF030000 		.4byte	.LLST14
 2859 08ae 18       		.uleb128 0x18
 2860 08af 7900     		.ascii	"y\000"
 2861 08b1 01       		.byte	0x1
 2862 08b2 96       		.byte	0x96
 2863 08b3 97000000 		.4byte	0x97
 2864 08b7 BE040000 		.4byte	.LLST15
 2865 08bb 18       		.uleb128 0x18
 2866 08bc 7A00     		.ascii	"z\000"
 2867 08be 01       		.byte	0x1
 2868 08bf 96       		.byte	0x96
 2869 08c0 97000000 		.4byte	0x97
 2870 08c4 77050000 		.4byte	.LLST16
 2871 08c8 14       		.uleb128 0x14
 2872 08c9 E7000000 		.4byte	.LASF111
 2873 08cd 01       		.byte	0x1
 2874 08ce 97       		.byte	0x97
 2875 08cf D5000000 		.4byte	0xd5
 2876 08d3 C3050000 		.4byte	.LLST17
 2877 08d7 16       		.uleb128 0x16
 2878 08d8 1C000000 		.4byte	.LVL119
 2879 08dc 08060000 		.4byte	0x608
 2880 08e0 EB080000 		.4byte	0x8eb
 2881 08e4 17       		.uleb128 0x17
 2882 08e5 01       		.uleb128 0x1
 2883 08e6 50       		.byte	0x50
 2884 08e7 02       		.uleb128 0x2
 2885 08e8 75       		.byte	0x75
 2886 08e9 00       		.sleb128 0
 2887 08ea 00       		.byte	0
 2888 08eb 16       		.uleb128 0x16
 2889 08ec 2C000000 		.4byte	.LVL121
 2890 08f0 E40F0000 		.4byte	0xfe4
 2891 08f4 02090000 		.4byte	0x902
 2892 08f8 17       		.uleb128 0x17
 2893 08f9 01       		.uleb128 0x1
 2894 08fa 50       		.byte	0x50
 2895 08fb 05       		.uleb128 0x5
 2896 08fc 75       		.byte	0x75
 2897 08fd 00       		.sleb128 0
 2898 08fe 08       		.byte	0x8
 2899 08ff 20       		.byte	0x20
 2900 0900 21       		.byte	0x21
 2901 0901 00       		.byte	0
 2902 0902 16       		.uleb128 0x16
 2903 0903 32000000 		.4byte	.LVL122
 2904 0907 F50F0000 		.4byte	0xff5
 2905 090b 16090000 		.4byte	0x916
 2906 090f 17       		.uleb128 0x17
 2907 0910 01       		.uleb128 0x1
 2908 0911 50       		.byte	0x50
 2909 0912 02       		.uleb128 0x2
ARM GAS  C:\Users\Lenovo\AppData\Local\Temp\ccd7Og9t.s 			page 64


 2910 0913 08       		.byte	0x8
 2911 0914 32       		.byte	0x32
 2912 0915 00       		.byte	0
 2913 0916 15       		.uleb128 0x15
 2914 0917 36000000 		.4byte	.LVL123
 2915 091b 11100000 		.4byte	0x1011
 2916 091f 15       		.uleb128 0x15
 2917 0920 40000000 		.4byte	.LVL127
 2918 0924 DD0F0000 		.4byte	0xfdd
 2919 0928 15       		.uleb128 0x15
 2920 0929 44000000 		.4byte	.LVL128
 2921 092d DD0F0000 		.4byte	0xfdd
 2922 0931 16       		.uleb128 0x16
 2923 0932 6A010000 		.4byte	.LVL174
 2924 0936 EE070000 		.4byte	0x7ee
 2925 093a 45090000 		.4byte	0x945
 2926 093e 17       		.uleb128 0x17
 2927 093f 01       		.uleb128 0x1
 2928 0940 50       		.byte	0x50
 2929 0941 02       		.uleb128 0x2
 2930 0942 91       		.byte	0x91
 2931 0943 54       		.sleb128 -44
 2932 0944 00       		.byte	0
 2933 0945 15       		.uleb128 0x15
 2934 0946 90010000 		.4byte	.LVL180
 2935 094a E40F0000 		.4byte	0xfe4
 2936 094e 22       		.uleb128 0x22
 2937 094f 9E010000 		.4byte	.LVL183
 2938 0953 F50F0000 		.4byte	0xff5
 2939 0957 17       		.uleb128 0x17
 2940 0958 01       		.uleb128 0x1
 2941 0959 50       		.byte	0x50
 2942 095a 02       		.uleb128 0x2
 2943 095b 08       		.byte	0x8
 2944 095c 32       		.byte	0x32
 2945 095d 00       		.byte	0
 2946 095e 00       		.byte	0
 2947 095f 1F       		.uleb128 0x1f
 2948 0960 04       		.byte	0x4
 2949 0961 97000000 		.4byte	0x97
 2950 0965 07       		.uleb128 0x7
 2951 0966 D5000000 		.4byte	0xd5
 2952 096a 75090000 		.4byte	0x975
 2953 096e 08       		.uleb128 0x8
 2954 096f F2000000 		.4byte	0xf2
 2955 0973 11       		.byte	0x11
 2956 0974 00       		.byte	0
 2957 0975 12       		.uleb128 0x12
 2958 0976 B5040000 		.4byte	.LASF112
 2959 097a 01       		.byte	0x1
 2960 097b DA       		.byte	0xda
 2961 097c 97000000 		.4byte	0x97
 2962 0980 00000000 		.4byte	.LFB66
 2963 0984 24010000 		.4byte	.LFE66-.LFB66
 2964 0988 01       		.uleb128 0x1
 2965 0989 9C       		.byte	0x9c
 2966 098a 9B0A0000 		.4byte	0xa9b
ARM GAS  C:\Users\Lenovo\AppData\Local\Temp\ccd7Og9t.s 			page 65


 2967 098e 20       		.uleb128 0x20
 2968 098f 37020000 		.4byte	.LASF106
 2969 0993 01       		.byte	0x1
 2970 0994 DA       		.byte	0xda
 2971 0995 97000000 		.4byte	0x97
 2972 0999 F9050000 		.4byte	.LLST18
 2973 099d 14       		.uleb128 0x14
 2974 099e D4070000 		.4byte	.LASF99
 2975 09a2 01       		.byte	0x1
 2976 09a3 DB       		.byte	0xdb
 2977 09a4 97000000 		.4byte	0x97
 2978 09a8 1A060000 		.4byte	.LLST19
 2979 09ac 18       		.uleb128 0x18
 2980 09ad 7800     		.ascii	"x\000"
 2981 09af 01       		.byte	0x1
 2982 09b0 DB       		.byte	0xdb
 2983 09b1 97000000 		.4byte	0x97
 2984 09b5 38060000 		.4byte	.LLST20
 2985 09b9 21       		.uleb128 0x21
 2986 09ba 2D010000 		.4byte	.LASF110
 2987 09be 01       		.byte	0x1
 2988 09bf DC       		.byte	0xdc
 2989 09c0 9B0A0000 		.4byte	0xa9b
 2990 09c4 02       		.uleb128 0x2
 2991 09c5 91       		.byte	0x91
 2992 09c6 5C       		.sleb128 -36
 2993 09c7 14       		.uleb128 0x14
 2994 09c8 E7000000 		.4byte	.LASF111
 2995 09cc 01       		.byte	0x1
 2996 09cd DD       		.byte	0xdd
 2997 09ce D5000000 		.4byte	0xd5
 2998 09d2 84060000 		.4byte	.LLST21
 2999 09d6 14       		.uleb128 0x14
 3000 09d7 81030000 		.4byte	.LASF113
 3001 09db 01       		.byte	0x1
 3002 09dc DF       		.byte	0xdf
 3003 09dd 97000000 		.4byte	0x97
 3004 09e1 BA060000 		.4byte	.LLST22
 3005 09e5 23       		.uleb128 0x23
 3006 09e6 BE0A0000 		.4byte	0xabe
 3007 09ea D9060000 		.4byte	.LLST23
 3008 09ee 14       		.uleb128 0x14
 3009 09ef 3E000000 		.4byte	.LASF72
 3010 09f3 01       		.byte	0x1
 3011 09f4 F8       		.byte	0xf8
 3012 09f5 AB0A0000 		.4byte	0xaab
 3013 09f9 F3060000 		.4byte	.LLST24
 3014 09fd 16       		.uleb128 0x16
 3015 09fe 0C000000 		.4byte	.LVL190
 3016 0a02 08060000 		.4byte	0x608
 3017 0a06 110A0000 		.4byte	0xa11
 3018 0a0a 17       		.uleb128 0x17
 3019 0a0b 01       		.uleb128 0x1
 3020 0a0c 50       		.byte	0x50
 3021 0a0d 02       		.uleb128 0x2
 3022 0a0e 74       		.byte	0x74
 3023 0a0f 00       		.sleb128 0
ARM GAS  C:\Users\Lenovo\AppData\Local\Temp\ccd7Og9t.s 			page 66


 3024 0a10 00       		.byte	0
 3025 0a11 16       		.uleb128 0x16
 3026 0a12 18000000 		.4byte	.LVL192
 3027 0a16 E40F0000 		.4byte	0xfe4
 3028 0a1a 280A0000 		.4byte	0xa28
 3029 0a1e 17       		.uleb128 0x17
 3030 0a1f 01       		.uleb128 0x1
 3031 0a20 50       		.byte	0x50
 3032 0a21 05       		.uleb128 0x5
 3033 0a22 74       		.byte	0x74
 3034 0a23 00       		.sleb128 0
 3035 0a24 08       		.byte	0x8
 3036 0a25 20       		.byte	0x20
 3037 0a26 21       		.byte	0x21
 3038 0a27 00       		.byte	0
 3039 0a28 16       		.uleb128 0x16
 3040 0a29 1E000000 		.4byte	.LVL193
 3041 0a2d F50F0000 		.4byte	0xff5
 3042 0a31 3C0A0000 		.4byte	0xa3c
 3043 0a35 17       		.uleb128 0x17
 3044 0a36 01       		.uleb128 0x1
 3045 0a37 50       		.byte	0x50
 3046 0a38 02       		.uleb128 0x2
 3047 0a39 08       		.byte	0x8
 3048 0a3a 32       		.byte	0x32
 3049 0a3b 00       		.byte	0
 3050 0a3c 15       		.uleb128 0x15
 3051 0a3d 22000000 		.4byte	.LVL194
 3052 0a41 11100000 		.4byte	0x1011
 3053 0a45 15       		.uleb128 0x15
 3054 0a46 2C000000 		.4byte	.LVL198
 3055 0a4a DD0F0000 		.4byte	0xfdd
 3056 0a4e 16       		.uleb128 0x16
 3057 0a4f 54000000 		.4byte	.LVL199
 3058 0a53 EE070000 		.4byte	0x7ee
 3059 0a57 620A0000 		.4byte	0xa62
 3060 0a5b 17       		.uleb128 0x17
 3061 0a5c 01       		.uleb128 0x1
 3062 0a5d 50       		.byte	0x50
 3063 0a5e 02       		.uleb128 0x2
 3064 0a5f 7D       		.byte	0x7d
 3065 0a60 14       		.sleb128 20
 3066 0a61 00       		.byte	0
 3067 0a62 15       		.uleb128 0x15
 3068 0a63 6C000000 		.4byte	.LVL202
 3069 0a67 E40F0000 		.4byte	0xfe4
 3070 0a6b 16       		.uleb128 0x16
 3071 0a6c 7A000000 		.4byte	.LVL205
 3072 0a70 F50F0000 		.4byte	0xff5
 3073 0a74 7F0A0000 		.4byte	0xa7f
 3074 0a78 17       		.uleb128 0x17
 3075 0a79 01       		.uleb128 0x1
 3076 0a7a 50       		.byte	0x50
 3077 0a7b 02       		.uleb128 0x2
 3078 0a7c 08       		.byte	0x8
 3079 0a7d C8       		.byte	0xc8
 3080 0a7e 00       		.byte	0
ARM GAS  C:\Users\Lenovo\AppData\Local\Temp\ccd7Og9t.s 			page 67


 3081 0a7f 15       		.uleb128 0x15
 3082 0a80 7E000000 		.4byte	.LVL206
 3083 0a84 06100000 		.4byte	0x1006
 3084 0a88 15       		.uleb128 0x15
 3085 0a89 94000000 		.4byte	.LVL210
 3086 0a8d 11100000 		.4byte	0x1011
 3087 0a91 15       		.uleb128 0x15
 3088 0a92 A2000000 		.4byte	.LVL213
 3089 0a96 DD0F0000 		.4byte	0xfdd
 3090 0a9a 00       		.byte	0
 3091 0a9b 07       		.uleb128 0x7
 3092 0a9c D5000000 		.4byte	0xd5
 3093 0aa0 AB0A0000 		.4byte	0xaab
 3094 0aa4 08       		.uleb128 0x8
 3095 0aa5 F2000000 		.4byte	0xf2
 3096 0aa9 08       		.byte	0x8
 3097 0aaa 00       		.byte	0
 3098 0aab 07       		.uleb128 0x7
 3099 0aac D5000000 		.4byte	0xd5
 3100 0ab0 BE0A0000 		.4byte	0xabe
 3101 0ab4 24       		.uleb128 0x24
 3102 0ab5 F2000000 		.4byte	0xf2
 3103 0ab9 E5090000 		.4byte	0x9e5
 3104 0abd 00       		.byte	0
 3105 0abe 25       		.uleb128 0x25
 3106 0abf F2000000 		.4byte	0xf2
 3107 0ac3 19       		.uleb128 0x19
 3108 0ac4 1A030000 		.4byte	.LASF114
 3109 0ac8 01       		.byte	0x1
 3110 0ac9 1001     		.2byte	0x110
 3111 0acb 97000000 		.4byte	0x97
 3112 0acf 00000000 		.4byte	.LFB67
 3113 0ad3 D4000000 		.4byte	.LFE67-.LFB67
 3114 0ad7 01       		.uleb128 0x1
 3115 0ad8 9C       		.byte	0x9c
 3116 0ad9 060C0000 		.4byte	0xc06
 3117 0add 1D       		.uleb128 0x1d
 3118 0ade 37020000 		.4byte	.LASF106
 3119 0ae2 01       		.byte	0x1
 3120 0ae3 1001     		.2byte	0x110
 3121 0ae5 97000000 		.4byte	0x97
 3122 0ae9 07070000 		.4byte	.LLST25
 3123 0aed 1E       		.uleb128 0x1e
 3124 0aee D4070000 		.4byte	.LASF99
 3125 0af2 01       		.byte	0x1
 3126 0af3 1101     		.2byte	0x111
 3127 0af5 97000000 		.4byte	0x97
 3128 0af9 28070000 		.4byte	.LLST26
 3129 0afd 1B       		.uleb128 0x1b
 3130 0afe 7800     		.ascii	"x\000"
 3131 0b00 01       		.byte	0x1
 3132 0b01 1101     		.2byte	0x111
 3133 0b03 97000000 		.4byte	0x97
 3134 0b07 3B070000 		.4byte	.LLST27
 3135 0b0b 26       		.uleb128 0x26
 3136 0b0c 2D010000 		.4byte	.LASF110
 3137 0b10 01       		.byte	0x1
ARM GAS  C:\Users\Lenovo\AppData\Local\Temp\ccd7Og9t.s 			page 68


 3138 0b11 1201     		.2byte	0x112
 3139 0b13 9B0A0000 		.4byte	0xa9b
 3140 0b17 02       		.uleb128 0x2
 3141 0b18 91       		.byte	0x91
 3142 0b19 5C       		.sleb128 -36
 3143 0b1a 1E       		.uleb128 0x1e
 3144 0b1b E7000000 		.4byte	.LASF111
 3145 0b1f 01       		.byte	0x1
 3146 0b20 1301     		.2byte	0x113
 3147 0b22 D5000000 		.4byte	0xd5
 3148 0b26 87070000 		.4byte	.LLST28
 3149 0b2a 1E       		.uleb128 0x1e
 3150 0b2b 81030000 		.4byte	.LASF113
 3151 0b2f 01       		.byte	0x1
 3152 0b30 1501     		.2byte	0x115
 3153 0b32 97000000 		.4byte	0x97
 3154 0b36 BD070000 		.4byte	.LLST29
 3155 0b3a 23       		.uleb128 0x23
 3156 0b3b 190C0000 		.4byte	0xc19
 3157 0b3f DC070000 		.4byte	.LLST30
 3158 0b43 1E       		.uleb128 0x1e
 3159 0b44 3E000000 		.4byte	.LASF72
 3160 0b48 01       		.byte	0x1
 3161 0b49 3301     		.2byte	0x133
 3162 0b4b 060C0000 		.4byte	0xc06
 3163 0b4f F6070000 		.4byte	.LLST31
 3164 0b53 16       		.uleb128 0x16
 3165 0b54 0C000000 		.4byte	.LVL217
 3166 0b58 08060000 		.4byte	0x608
 3167 0b5c 670B0000 		.4byte	0xb67
 3168 0b60 17       		.uleb128 0x17
 3169 0b61 01       		.uleb128 0x1
 3170 0b62 50       		.byte	0x50
 3171 0b63 02       		.uleb128 0x2
 3172 0b64 74       		.byte	0x74
 3173 0b65 00       		.sleb128 0
 3174 0b66 00       		.byte	0
 3175 0b67 16       		.uleb128 0x16
 3176 0b68 1C000000 		.4byte	.LVL219
 3177 0b6c E40F0000 		.4byte	0xfe4
 3178 0b70 7E0B0000 		.4byte	0xb7e
 3179 0b74 17       		.uleb128 0x17
 3180 0b75 01       		.uleb128 0x1
 3181 0b76 50       		.byte	0x50
 3182 0b77 05       		.uleb128 0x5
 3183 0b78 74       		.byte	0x74
 3184 0b79 00       		.sleb128 0
 3185 0b7a 08       		.byte	0x8
 3186 0b7b 20       		.byte	0x20
 3187 0b7c 21       		.byte	0x21
 3188 0b7d 00       		.byte	0
 3189 0b7e 16       		.uleb128 0x16
 3190 0b7f 22000000 		.4byte	.LVL220
 3191 0b83 F50F0000 		.4byte	0xff5
 3192 0b87 920B0000 		.4byte	0xb92
 3193 0b8b 17       		.uleb128 0x17
 3194 0b8c 01       		.uleb128 0x1
ARM GAS  C:\Users\Lenovo\AppData\Local\Temp\ccd7Og9t.s 			page 69


 3195 0b8d 50       		.byte	0x50
 3196 0b8e 02       		.uleb128 0x2
 3197 0b8f 08       		.byte	0x8
 3198 0b90 32       		.byte	0x32
 3199 0b91 00       		.byte	0
 3200 0b92 15       		.uleb128 0x15
 3201 0b93 26000000 		.4byte	.LVL221
 3202 0b97 11100000 		.4byte	0x1011
 3203 0b9b 15       		.uleb128 0x15
 3204 0b9c 30000000 		.4byte	.LVL225
 3205 0ba0 DD0F0000 		.4byte	0xfdd
 3206 0ba4 16       		.uleb128 0x16
 3207 0ba5 58000000 		.4byte	.LVL226
 3208 0ba9 EE070000 		.4byte	0x7ee
 3209 0bad B80B0000 		.4byte	0xbb8
 3210 0bb1 17       		.uleb128 0x17
 3211 0bb2 01       		.uleb128 0x1
 3212 0bb3 50       		.byte	0x50
 3213 0bb4 02       		.uleb128 0x2
 3214 0bb5 7D       		.byte	0x7d
 3215 0bb6 14       		.sleb128 20
 3216 0bb7 00       		.byte	0
 3217 0bb8 15       		.uleb128 0x15
 3218 0bb9 70000000 		.4byte	.LVL229
 3219 0bbd E40F0000 		.4byte	0xfe4
 3220 0bc1 16       		.uleb128 0x16
 3221 0bc2 86000000 		.4byte	.LVL232
 3222 0bc6 F50F0000 		.4byte	0xff5
 3223 0bca D60B0000 		.4byte	0xbd6
 3224 0bce 17       		.uleb128 0x17
 3225 0bcf 01       		.uleb128 0x1
 3226 0bd0 50       		.byte	0x50
 3227 0bd1 03       		.uleb128 0x3
 3228 0bd2 0A       		.byte	0xa
 3229 0bd3 BC02     		.2byte	0x2bc
 3230 0bd5 00       		.byte	0
 3231 0bd6 16       		.uleb128 0x16
 3232 0bd7 8E000000 		.4byte	.LVL233
 3233 0bdb F50F0000 		.4byte	0xff5
 3234 0bdf EA0B0000 		.4byte	0xbea
 3235 0be3 17       		.uleb128 0x17
 3236 0be4 01       		.uleb128 0x1
 3237 0be5 50       		.byte	0x50
 3238 0be6 02       		.uleb128 0x2
 3239 0be7 08       		.byte	0x8
 3240 0be8 C8       		.byte	0xc8
 3241 0be9 00       		.byte	0
 3242 0bea 15       		.uleb128 0x15
 3243 0beb 92000000 		.4byte	.LVL234
 3244 0bef 06100000 		.4byte	0x1006
 3245 0bf3 15       		.uleb128 0x15
 3246 0bf4 A8000000 		.4byte	.LVL238
 3247 0bf8 11100000 		.4byte	0x1011
 3248 0bfc 15       		.uleb128 0x15
 3249 0bfd B6000000 		.4byte	.LVL241
 3250 0c01 DD0F0000 		.4byte	0xfdd
 3251 0c05 00       		.byte	0
ARM GAS  C:\Users\Lenovo\AppData\Local\Temp\ccd7Og9t.s 			page 70


 3252 0c06 07       		.uleb128 0x7
 3253 0c07 D5000000 		.4byte	0xd5
 3254 0c0b 190C0000 		.4byte	0xc19
 3255 0c0f 24       		.uleb128 0x24
 3256 0c10 F2000000 		.4byte	0xf2
 3257 0c14 3A0B0000 		.4byte	0xb3a
 3258 0c18 00       		.byte	0
 3259 0c19 25       		.uleb128 0x25
 3260 0c1a F2000000 		.4byte	0xf2
 3261 0c1e 07       		.uleb128 0x7
 3262 0c1f 97000000 		.4byte	0x97
 3263 0c23 2E0C0000 		.4byte	0xc2e
 3264 0c27 08       		.uleb128 0x8
 3265 0c28 F2000000 		.4byte	0xf2
 3266 0c2c FF       		.byte	0xff
 3267 0c2d 00       		.byte	0
 3268 0c2e 27       		.uleb128 0x27
 3269 0c2f EE020000 		.4byte	.LASF115
 3270 0c33 06       		.byte	0x6
 3271 0c34 3E01     		.2byte	0x13e
 3272 0c36 3A0C0000 		.4byte	0xc3a
 3273 0c3a 06       		.uleb128 0x6
 3274 0c3b 1E0C0000 		.4byte	0xc1e
 3275 0c3f 27       		.uleb128 0x27
 3276 0c40 97050000 		.4byte	.LASF116
 3277 0c44 07       		.byte	0x7
 3278 0c45 5506     		.2byte	0x655
 3279 0c47 4B0C0000 		.4byte	0xc4b
 3280 0c4b 06       		.uleb128 0x6
 3281 0c4c 8C000000 		.4byte	0x8c
 3282 0c50 28       		.uleb128 0x28
 3283 0c51 26040000 		.4byte	.LASF117
 3284 0c55 05       		.byte	0x5
 3285 0c56 2C       		.byte	0x2c
 3286 0c57 610C0000 		.4byte	0xc61
 3287 0c5b 05       		.uleb128 0x5
 3288 0c5c 03       		.byte	0x3
 3289 0c5d 00000000 		.4byte	countAnimation1
 3290 0c61 06       		.uleb128 0x6
 3291 0c62 C9000000 		.4byte	0xc9
 3292 0c66 28       		.uleb128 0x28
 3293 0c67 64040000 		.4byte	.LASF118
 3294 0c6b 05       		.byte	0x5
 3295 0c6c 2D       		.byte	0x2d
 3296 0c6d 610C0000 		.4byte	0xc61
 3297 0c71 05       		.uleb128 0x5
 3298 0c72 03       		.byte	0x3
 3299 0c73 00000000 		.4byte	countAnimation2
 3300 0c77 28       		.uleb128 0x28
 3301 0c78 73030000 		.4byte	.LASF119
 3302 0c7c 05       		.byte	0x5
 3303 0c7d 2E       		.byte	0x2e
 3304 0c7e 610C0000 		.4byte	0xc61
 3305 0c82 05       		.uleb128 0x5
 3306 0c83 03       		.byte	0x3
 3307 0c84 00000000 		.4byte	countBeagleTX
 3308 0c88 28       		.uleb128 0x28
ARM GAS  C:\Users\Lenovo\AppData\Local\Temp\ccd7Og9t.s 			page 71


 3309 0c89 37080000 		.4byte	.LASF120
 3310 0c8d 05       		.byte	0x5
 3311 0c8e 2F       		.byte	0x2f
 3312 0c8f 610C0000 		.4byte	0xc61
 3313 0c93 05       		.uleb128 0x5
 3314 0c94 03       		.byte	0x3
 3315 0c95 00000000 		.4byte	countPump
 3316 0c99 28       		.uleb128 0x28
 3317 0c9a 8F020000 		.4byte	.LASF121
 3318 0c9e 05       		.byte	0x5
 3319 0c9f 30       		.byte	0x30
 3320 0ca0 ED000000 		.4byte	0xed
 3321 0ca4 05       		.uleb128 0x5
 3322 0ca5 03       		.byte	0x3
 3323 0ca6 00000000 		.4byte	flowDisplay1
 3324 0caa 28       		.uleb128 0x28
 3325 0cab 9C020000 		.4byte	.LASF122
 3326 0caf 05       		.byte	0x5
 3327 0cb0 31       		.byte	0x31
 3328 0cb1 ED000000 		.4byte	0xed
 3329 0cb5 05       		.uleb128 0x5
 3330 0cb6 03       		.byte	0x3
 3331 0cb7 00000000 		.4byte	flowDisplay2
 3332 0cbb 28       		.uleb128 0x28
 3333 0cbc A9020000 		.4byte	.LASF123
 3334 0cc0 05       		.byte	0x5
 3335 0cc1 32       		.byte	0x32
 3336 0cc2 ED000000 		.4byte	0xed
 3337 0cc6 05       		.uleb128 0x5
 3338 0cc7 03       		.byte	0x3
 3339 0cc8 00000000 		.4byte	flowDisplay3
 3340 0ccc 28       		.uleb128 0x28
 3341 0ccd B6020000 		.4byte	.LASF124
 3342 0cd1 05       		.byte	0x5
 3343 0cd2 33       		.byte	0x33
 3344 0cd3 ED000000 		.4byte	0xed
 3345 0cd7 05       		.uleb128 0x5
 3346 0cd8 03       		.byte	0x3
 3347 0cd9 00000000 		.4byte	flowDisplay4
 3348 0cdd 28       		.uleb128 0x28
 3349 0cde 5B030000 		.4byte	.LASF125
 3350 0ce2 05       		.byte	0x5
 3351 0ce3 34       		.byte	0x34
 3352 0ce4 E8000000 		.4byte	0xe8
 3353 0ce8 05       		.uleb128 0x5
 3354 0ce9 03       		.byte	0x3
 3355 0cea 00000000 		.4byte	numberKeys1
 3356 0cee 28       		.uleb128 0x28
 3357 0cef 67030000 		.4byte	.LASF126
 3358 0cf3 05       		.byte	0x5
 3359 0cf4 35       		.byte	0x35
 3360 0cf5 E8000000 		.4byte	0xe8
 3361 0cf9 05       		.uleb128 0x5
 3362 0cfa 03       		.byte	0x3
 3363 0cfb 00000000 		.4byte	numberKeys2
 3364 0cff 28       		.uleb128 0x28
 3365 0d00 3F050000 		.4byte	.LASF127
ARM GAS  C:\Users\Lenovo\AppData\Local\Temp\ccd7Og9t.s 			page 72


 3366 0d04 05       		.byte	0x5
 3367 0d05 36       		.byte	0x36
 3368 0d06 E8000000 		.4byte	0xe8
 3369 0d0a 05       		.uleb128 0x5
 3370 0d0b 03       		.byte	0x3
 3371 0d0c 00000000 		.4byte	flagPoint1
 3372 0d10 28       		.uleb128 0x28
 3373 0d11 F7000000 		.4byte	.LASF128
 3374 0d15 05       		.byte	0x5
 3375 0d16 37       		.byte	0x37
 3376 0d17 E8000000 		.4byte	0xe8
 3377 0d1b 05       		.uleb128 0x5
 3378 0d1c 03       		.byte	0x3
 3379 0d1d 00000000 		.4byte	flagPoint2
 3380 0d21 28       		.uleb128 0x28
 3381 0d22 D7010000 		.4byte	.LASF129
 3382 0d26 05       		.byte	0x5
 3383 0d27 38       		.byte	0x38
 3384 0d28 E8000000 		.4byte	0xe8
 3385 0d2c 05       		.uleb128 0x5
 3386 0d2d 03       		.byte	0x3
 3387 0d2e 00000000 		.4byte	productNumber
 3388 0d32 28       		.uleb128 0x28
 3389 0d33 4A060000 		.4byte	.LASF130
 3390 0d37 05       		.byte	0x5
 3391 0d38 39       		.byte	0x39
 3392 0d39 ED000000 		.4byte	0xed
 3393 0d3d 05       		.uleb128 0x5
 3394 0d3e 03       		.byte	0x3
 3395 0d3f 00000000 		.4byte	delayPicture1
 3396 0d43 28       		.uleb128 0x28
 3397 0d44 58060000 		.4byte	.LASF131
 3398 0d48 05       		.byte	0x5
 3399 0d49 3A       		.byte	0x3a
 3400 0d4a ED000000 		.4byte	0xed
 3401 0d4e 05       		.uleb128 0x5
 3402 0d4f 03       		.byte	0x3
 3403 0d50 00000000 		.4byte	delayPicture2
 3404 0d54 28       		.uleb128 0x28
 3405 0d55 25050000 		.4byte	.LASF132
 3406 0d59 05       		.byte	0x5
 3407 0d5a 3B       		.byte	0x3b
 3408 0d5b E8000000 		.4byte	0xe8
 3409 0d5f 05       		.uleb128 0x5
 3410 0d60 03       		.byte	0x3
 3411 0d61 00000000 		.4byte	ppux10
 3412 0d65 28       		.uleb128 0x28
 3413 0d66 45000000 		.4byte	.LASF133
 3414 0d6a 05       		.byte	0x5
 3415 0d6b 3C       		.byte	0x3c
 3416 0d6c E8000000 		.4byte	0xe8
 3417 0d70 05       		.uleb128 0x5
 3418 0d71 03       		.byte	0x3
 3419 0d72 00000000 		.4byte	decimalMoney
 3420 0d76 28       		.uleb128 0x28
 3421 0d77 10000000 		.4byte	.LASF134
 3422 0d7b 05       		.byte	0x5
ARM GAS  C:\Users\Lenovo\AppData\Local\Temp\ccd7Og9t.s 			page 73


 3423 0d7c 3D       		.byte	0x3d
 3424 0d7d E8000000 		.4byte	0xe8
 3425 0d81 05       		.uleb128 0x5
 3426 0d82 03       		.byte	0x3
 3427 0d83 00000000 		.4byte	decimalVolume
 3428 0d87 28       		.uleb128 0x28
 3429 0d88 5C050000 		.4byte	.LASF135
 3430 0d8c 05       		.byte	0x5
 3431 0d8d 3E       		.byte	0x3e
 3432 0d8e 980D0000 		.4byte	0xd98
 3433 0d92 05       		.uleb128 0x5
 3434 0d93 03       		.byte	0x3
 3435 0d94 00000000 		.4byte	symbols
 3436 0d98 06       		.uleb128 0x6
 3437 0d99 B4030000 		.4byte	0x3b4
 3438 0d9d 07       		.uleb128 0x7
 3439 0d9e 97000000 		.4byte	0x97
 3440 0da2 AD0D0000 		.4byte	0xdad
 3441 0da6 08       		.uleb128 0x8
 3442 0da7 F2000000 		.4byte	0xf2
 3443 0dab 02       		.byte	0x2
 3444 0dac 00       		.byte	0
 3445 0dad 28       		.uleb128 0x28
 3446 0dae B0010000 		.4byte	.LASF136
 3447 0db2 05       		.byte	0x5
 3448 0db3 3F       		.byte	0x3f
 3449 0db4 BE0D0000 		.4byte	0xdbe
 3450 0db8 05       		.uleb128 0x5
 3451 0db9 03       		.byte	0x3
 3452 0dba 00000000 		.4byte	time
 3453 0dbe 06       		.uleb128 0x6
 3454 0dbf 9D0D0000 		.4byte	0xd9d
 3455 0dc3 28       		.uleb128 0x28
 3456 0dc4 AA030000 		.4byte	.LASF137
 3457 0dc8 05       		.byte	0x5
 3458 0dc9 40       		.byte	0x40
 3459 0dca D40D0000 		.4byte	0xdd4
 3460 0dce 05       		.uleb128 0x5
 3461 0dcf 03       		.byte	0x3
 3462 0dd0 00000000 		.4byte	date
 3463 0dd4 06       		.uleb128 0x6
 3464 0dd5 9D0D0000 		.4byte	0xd9d
 3465 0dd9 28       		.uleb128 0x28
 3466 0dda 3C020000 		.4byte	.LASF138
 3467 0dde 05       		.byte	0x5
 3468 0ddf 41       		.byte	0x41
 3469 0de0 EA0D0000 		.4byte	0xdea
 3470 0de4 05       		.uleb128 0x5
 3471 0de5 03       		.byte	0x3
 3472 0de6 00000000 		.4byte	screen
 3473 0dea 06       		.uleb128 0x6
 3474 0deb B4030000 		.4byte	0x3b4
 3475 0def 28       		.uleb128 0x28
 3476 0df0 A8000000 		.4byte	.LASF139
 3477 0df4 05       		.byte	0x5
 3478 0df5 42       		.byte	0x42
 3479 0df6 000E0000 		.4byte	0xe00
ARM GAS  C:\Users\Lenovo\AppData\Local\Temp\ccd7Og9t.s 			page 74


 3480 0dfa 05       		.uleb128 0x5
 3481 0dfb 03       		.byte	0x3
 3482 0dfc 00000000 		.4byte	residue
 3483 0e00 06       		.uleb128 0x6
 3484 0e01 FA030000 		.4byte	0x3fa
 3485 0e05 07       		.uleb128 0x7
 3486 0e06 97000000 		.4byte	0x97
 3487 0e0a 150E0000 		.4byte	0xe15
 3488 0e0e 08       		.uleb128 0x8
 3489 0e0f F2000000 		.4byte	0xf2
 3490 0e13 1D       		.byte	0x1d
 3491 0e14 00       		.byte	0
 3492 0e15 28       		.uleb128 0x28
 3493 0e16 CB070000 		.4byte	.LASF140
 3494 0e1a 05       		.byte	0x5
 3495 0e1b 43       		.byte	0x43
 3496 0e1c 050E0000 		.4byte	0xe05
 3497 0e20 05       		.uleb128 0x5
 3498 0e21 03       		.byte	0x3
 3499 0e22 00000000 		.4byte	temporal
 3500 0e26 28       		.uleb128 0x28
 3501 0e27 A4050000 		.4byte	.LASF141
 3502 0e2b 05       		.byte	0x5
 3503 0e2c 44       		.byte	0x44
 3504 0e2d E8000000 		.4byte	0xe8
 3505 0e31 05       		.uleb128 0x5
 3506 0e32 03       		.byte	0x3
 3507 0e33 00000000 		.4byte	lockTurn
 3508 0e37 28       		.uleb128 0x28
 3509 0e38 B3070000 		.4byte	.LASF142
 3510 0e3c 05       		.byte	0x5
 3511 0e3d 45       		.byte	0x45
 3512 0e3e 480E0000 		.4byte	0xe48
 3513 0e42 05       		.uleb128 0x5
 3514 0e43 03       		.byte	0x3
 3515 0e44 00000000 		.4byte	idSeller
 3516 0e48 06       		.uleb128 0x6
 3517 0e49 84030000 		.4byte	0x384
 3518 0e4d 28       		.uleb128 0x28
 3519 0e4e F5070000 		.4byte	.LASF143
 3520 0e52 05       		.byte	0x5
 3521 0e53 46       		.byte	0x46
 3522 0e54 E8000000 		.4byte	0xe8
 3523 0e58 05       		.uleb128 0x5
 3524 0e59 03       		.byte	0x3
 3525 0e5a 00000000 		.4byte	typeIdSeller
 3526 0e5e 07       		.uleb128 0x7
 3527 0e5f 97000000 		.4byte	0x97
 3528 0e63 6E0E0000 		.4byte	0xe6e
 3529 0e67 08       		.uleb128 0x8
 3530 0e68 F2000000 		.4byte	0xf2
 3531 0e6c 07       		.byte	0x7
 3532 0e6d 00       		.byte	0
 3533 0e6e 28       		.uleb128 0x28
 3534 0e6f 1A060000 		.4byte	.LASF144
 3535 0e73 05       		.byte	0x5
 3536 0e74 47       		.byte	0x47
ARM GAS  C:\Users\Lenovo\AppData\Local\Temp\ccd7Og9t.s 			page 75


 3537 0e75 7F0E0000 		.4byte	0xe7f
 3538 0e79 05       		.uleb128 0x5
 3539 0e7a 03       		.byte	0x3
 3540 0e7b 00000000 		.4byte	passwordSeller
 3541 0e7f 06       		.uleb128 0x6
 3542 0e80 5E0E0000 		.4byte	0xe5e
 3543 0e84 28       		.uleb128 0x28
 3544 0e85 E6040000 		.4byte	.LASF145
 3545 0e89 05       		.byte	0x5
 3546 0e8a 48       		.byte	0x48
 3547 0e8b E8000000 		.4byte	0xe8
 3548 0e8f 05       		.uleb128 0x5
 3549 0e90 03       		.byte	0x3
 3550 0e91 00000000 		.4byte	flagResetMux
 3551 0e95 28       		.uleb128 0x28
 3552 0e96 43040000 		.4byte	.LASF146
 3553 0e9a 05       		.byte	0x5
 3554 0e9b 49       		.byte	0x49
 3555 0e9c E8000000 		.4byte	0xe8
 3556 0ea0 05       		.uleb128 0x5
 3557 0ea1 03       		.byte	0x3
 3558 0ea2 00000000 		.4byte	stateBeagleSoft
 3559 0ea6 28       		.uleb128 0x28
 3560 0ea7 1E000000 		.4byte	.LASF147
 3561 0eab 05       		.byte	0x5
 3562 0eac 4A       		.byte	0x4a
 3563 0ead B70E0000 		.4byte	0xeb7
 3564 0eb1 05       		.uleb128 0x5
 3565 0eb2 03       		.byte	0x3
 3566 0eb3 00000000 		.4byte	PrevStatePump
 3567 0eb7 06       		.uleb128 0x6
 3568 0eb8 F9000000 		.4byte	0xf9
 3569 0ebc 28       		.uleb128 0x28
 3570 0ebd 7A010000 		.4byte	.LASF148
 3571 0ec1 05       		.byte	0x5
 3572 0ec2 4B       		.byte	0x4b
 3573 0ec3 E8000000 		.4byte	0xe8
 3574 0ec7 05       		.uleb128 0x5
 3575 0ec8 03       		.byte	0x3
 3576 0ec9 00000000 		.4byte	PlateRequest
 3577 0ecd 28       		.uleb128 0x28
 3578 0ece 3A060000 		.4byte	.LASF149
 3579 0ed2 05       		.byte	0x5
 3580 0ed3 4D       		.byte	0x4d
 3581 0ed4 97000000 		.4byte	0x97
 3582 0ed8 05       		.uleb128 0x5
 3583 0ed9 03       		.byte	0x3
 3584 0eda 00000000 		.4byte	UnitType
 3585 0ede 28       		.uleb128 0x28
 3586 0edf 3D030000 		.4byte	.LASF150
 3587 0ee3 05       		.byte	0x5
 3588 0ee4 4D       		.byte	0x4d
 3589 0ee5 97000000 		.4byte	0x97
 3590 0ee9 05       		.uleb128 0x5
 3591 0eea 03       		.byte	0x3
 3592 0eeb 00000000 		.4byte	ConversionFactor
 3593 0eef 28       		.uleb128 0x28
ARM GAS  C:\Users\Lenovo\AppData\Local\Temp\ccd7Og9t.s 			page 76


 3594 0ef0 4B010000 		.4byte	.LASF151
 3595 0ef4 05       		.byte	0x5
 3596 0ef5 4D       		.byte	0x4d
 3597 0ef6 97000000 		.4byte	0x97
 3598 0efa 05       		.uleb128 0x5
 3599 0efb 03       		.byte	0x3
 3600 0efc 00000000 		.4byte	MoneyDec
 3601 0f00 28       		.uleb128 0x28
 3602 0f01 90050000 		.4byte	.LASF152
 3603 0f05 05       		.byte	0x5
 3604 0f06 4D       		.byte	0x4d
 3605 0f07 97000000 		.4byte	0x97
 3606 0f0b 05       		.uleb128 0x5
 3607 0f0c 03       		.byte	0x3
 3608 0f0d 00000000 		.4byte	VolDec
 3609 0f11 28       		.uleb128 0x28
 3610 0f12 8A060000 		.4byte	.LASF153
 3611 0f16 05       		.byte	0x5
 3612 0f17 4D       		.byte	0x4d
 3613 0f18 97000000 		.4byte	0x97
 3614 0f1c 05       		.uleb128 0x5
 3615 0f1d 03       		.byte	0x3
 3616 0f1e 00000000 		.4byte	PPUDec
 3617 0f22 28       		.uleb128 0x28
 3618 0f23 B7000000 		.4byte	.LASF154
 3619 0f27 05       		.byte	0x5
 3620 0f28 4D       		.byte	0x4d
 3621 0f29 97000000 		.4byte	0x97
 3622 0f2d 05       		.uleb128 0x5
 3623 0f2e 03       		.byte	0x3
 3624 0f2f 00000000 		.4byte	DDMode
 3625 0f33 28       		.uleb128 0x28
 3626 0f34 34000000 		.4byte	.LASF155
 3627 0f38 05       		.byte	0x5
 3628 0f39 4E       		.byte	0x4e
 3629 0f3a F9000000 		.4byte	0xf9
 3630 0f3e 05       		.uleb128 0x5
 3631 0f3f 03       		.byte	0x3
 3632 0f40 00000000 		.4byte	statePump
 3633 0f44 28       		.uleb128 0x28
 3634 0f45 36040000 		.4byte	.LASF156
 3635 0f49 05       		.byte	0x5
 3636 0f4a 4F       		.byte	0x4f
 3637 0f4b 97000000 		.4byte	0x97
 3638 0f4f 05       		.uleb128 0x5
 3639 0f50 03       		.byte	0x3
 3640 0f51 00000000 		.4byte	NumPositions
 3641 0f55 28       		.uleb128 0x28
 3642 0f56 9B010000 		.4byte	.LASF157
 3643 0f5a 05       		.byte	0x5
 3644 0f5b 50       		.byte	0x50
 3645 0f5c 97000000 		.4byte	0x97
 3646 0f60 05       		.uleb128 0x5
 3647 0f61 03       		.byte	0x3
 3648 0f62 00000000 		.4byte	digits
 3649 0f66 28       		.uleb128 0x28
 3650 0f67 79000000 		.4byte	.LASF158
ARM GAS  C:\Users\Lenovo\AppData\Local\Temp\ccd7Og9t.s 			page 77


 3651 0f6b 05       		.byte	0x5
 3652 0f6c 51       		.byte	0x51
 3653 0f6d 97000000 		.4byte	0x97
 3654 0f71 05       		.uleb128 0x5
 3655 0f72 03       		.byte	0x3
 3656 0f73 00000000 		.4byte	PrinterType
 3657 0f77 28       		.uleb128 0x28
 3658 0f78 E9020000 		.4byte	.LASF159
 3659 0f7c 05       		.byte	0x5
 3660 0f7d 52       		.byte	0x52
 3661 0f7e 97000000 		.4byte	0x97
 3662 0f82 05       		.uleb128 0x5
 3663 0f83 03       		.byte	0x3
 3664 0f84 00000000 		.4byte	turn
 3665 0f88 28       		.uleb128 0x28
 3666 0f89 AB080000 		.4byte	.LASF160
 3667 0f8d 05       		.byte	0x5
 3668 0f8e 91       		.byte	0x91
 3669 0f8f 09010000 		.4byte	0x109
 3670 0f93 05       		.uleb128 0x5
 3671 0f94 03       		.byte	0x3
 3672 0f95 00000000 		.4byte	bufferDisplay1
 3673 0f99 28       		.uleb128 0x28
 3674 0f9a E3050000 		.4byte	.LASF161
 3675 0f9e 05       		.byte	0x5
 3676 0f9f 92       		.byte	0x92
 3677 0fa0 09010000 		.4byte	0x109
 3678 0fa4 05       		.uleb128 0x5
 3679 0fa5 03       		.byte	0x3
 3680 0fa6 00000000 		.4byte	bufferDisplay2
 3681 0faa 28       		.uleb128 0x28
 3682 0fab F2050000 		.4byte	.LASF162
 3683 0faf 05       		.byte	0x5
 3684 0fb0 93       		.byte	0x93
 3685 0fb1 09010000 		.4byte	0x109
 3686 0fb5 05       		.uleb128 0x5
 3687 0fb6 03       		.byte	0x3
 3688 0fb7 00000000 		.4byte	bufferDisplay3
 3689 0fbb 28       		.uleb128 0x28
 3690 0fbc 01060000 		.4byte	.LASF163
 3691 0fc0 05       		.byte	0x5
 3692 0fc1 94       		.byte	0x94
 3693 0fc2 09010000 		.4byte	0x109
 3694 0fc6 05       		.uleb128 0x5
 3695 0fc7 03       		.byte	0x3
 3696 0fc8 00000000 		.4byte	bufferDisplay4
 3697 0fcc 28       		.uleb128 0x28
 3698 0fcd 37020000 		.4byte	.LASF106
 3699 0fd1 05       		.byte	0x5
 3700 0fd2 B3       		.byte	0xb3
 3701 0fd3 37050000 		.4byte	0x537
 3702 0fd7 05       		.uleb128 0x5
 3703 0fd8 03       		.byte	0x3
 3704 0fd9 00000000 		.4byte	side
 3705 0fdd 29       		.uleb128 0x29
 3706 0fde 38010000 		.4byte	.LASF168
 3707 0fe2 06       		.byte	0x6
ARM GAS  C:\Users\Lenovo\AppData\Local\Temp\ccd7Og9t.s 			page 78


 3708 0fe3 75       		.byte	0x75
 3709 0fe4 2A       		.uleb128 0x2a
 3710 0fe5 F5060000 		.4byte	.LASF164
 3711 0fe9 06       		.byte	0x6
 3712 0fea 8A       		.byte	0x8a
 3713 0feb F50F0000 		.4byte	0xff5
 3714 0fef 2B       		.uleb128 0x2b
 3715 0ff0 97000000 		.4byte	0x97
 3716 0ff4 00       		.byte	0
 3717 0ff5 2A       		.uleb128 0x2a
 3718 0ff6 8C030000 		.4byte	.LASF165
 3719 0ffa 08       		.byte	0x8
 3720 0ffb 77       		.byte	0x77
 3721 0ffc 06100000 		.4byte	0x1006
 3722 1000 2B       		.uleb128 0x2b
 3723 1001 AF000000 		.4byte	0xaf
 3724 1005 00       		.byte	0
 3725 1006 2C       		.uleb128 0x2c
 3726 1007 43020000 		.4byte	.LASF166
 3727 100b 06       		.byte	0x6
 3728 100c 73       		.byte	0x73
 3729 100d A3000000 		.4byte	0xa3
 3730 1011 2C       		.uleb128 0x2c
 3731 1012 B7030000 		.4byte	.LASF167
 3732 1016 06       		.byte	0x6
 3733 1017 6F       		.byte	0x6f
 3734 1018 97000000 		.4byte	0x97
 3735 101c 29       		.uleb128 0x29
 3736 101d 05000000 		.4byte	.LASF169
 3737 1021 08       		.byte	0x8
 3738 1022 74       		.byte	0x74
 3739 1023 00       		.byte	0
 3740              		.section	.debug_abbrev,"",%progbits
 3741              	.Ldebug_abbrev0:
 3742 0000 01       		.uleb128 0x1
 3743 0001 11       		.uleb128 0x11
 3744 0002 01       		.byte	0x1
 3745 0003 25       		.uleb128 0x25
 3746 0004 0E       		.uleb128 0xe
 3747 0005 13       		.uleb128 0x13
 3748 0006 0B       		.uleb128 0xb
 3749 0007 03       		.uleb128 0x3
 3750 0008 0E       		.uleb128 0xe
 3751 0009 1B       		.uleb128 0x1b
 3752 000a 0E       		.uleb128 0xe
 3753 000b 55       		.uleb128 0x55
 3754 000c 17       		.uleb128 0x17
 3755 000d 11       		.uleb128 0x11
 3756 000e 01       		.uleb128 0x1
 3757 000f 10       		.uleb128 0x10
 3758 0010 17       		.uleb128 0x17
 3759 0011 00       		.byte	0
 3760 0012 00       		.byte	0
 3761 0013 02       		.uleb128 0x2
 3762 0014 24       		.uleb128 0x24
 3763 0015 00       		.byte	0
 3764 0016 0B       		.uleb128 0xb
ARM GAS  C:\Users\Lenovo\AppData\Local\Temp\ccd7Og9t.s 			page 79


 3765 0017 0B       		.uleb128 0xb
 3766 0018 3E       		.uleb128 0x3e
 3767 0019 0B       		.uleb128 0xb
 3768 001a 03       		.uleb128 0x3
 3769 001b 0E       		.uleb128 0xe
 3770 001c 00       		.byte	0
 3771 001d 00       		.byte	0
 3772 001e 03       		.uleb128 0x3
 3773 001f 16       		.uleb128 0x16
 3774 0020 00       		.byte	0
 3775 0021 03       		.uleb128 0x3
 3776 0022 0E       		.uleb128 0xe
 3777 0023 3A       		.uleb128 0x3a
 3778 0024 0B       		.uleb128 0xb
 3779 0025 3B       		.uleb128 0x3b
 3780 0026 0B       		.uleb128 0xb
 3781 0027 49       		.uleb128 0x49
 3782 0028 13       		.uleb128 0x13
 3783 0029 00       		.byte	0
 3784 002a 00       		.byte	0
 3785 002b 04       		.uleb128 0x4
 3786 002c 24       		.uleb128 0x24
 3787 002d 00       		.byte	0
 3788 002e 0B       		.uleb128 0xb
 3789 002f 0B       		.uleb128 0xb
 3790 0030 3E       		.uleb128 0x3e
 3791 0031 0B       		.uleb128 0xb
 3792 0032 03       		.uleb128 0x3
 3793 0033 08       		.uleb128 0x8
 3794 0034 00       		.byte	0
 3795 0035 00       		.byte	0
 3796 0036 05       		.uleb128 0x5
 3797 0037 16       		.uleb128 0x16
 3798 0038 00       		.byte	0
 3799 0039 03       		.uleb128 0x3
 3800 003a 0E       		.uleb128 0xe
 3801 003b 3A       		.uleb128 0x3a
 3802 003c 0B       		.uleb128 0xb
 3803 003d 3B       		.uleb128 0x3b
 3804 003e 05       		.uleb128 0x5
 3805 003f 49       		.uleb128 0x49
 3806 0040 13       		.uleb128 0x13
 3807 0041 00       		.byte	0
 3808 0042 00       		.byte	0
 3809 0043 06       		.uleb128 0x6
 3810 0044 35       		.uleb128 0x35
 3811 0045 00       		.byte	0
 3812 0046 49       		.uleb128 0x49
 3813 0047 13       		.uleb128 0x13
 3814 0048 00       		.byte	0
 3815 0049 00       		.byte	0
 3816 004a 07       		.uleb128 0x7
 3817 004b 01       		.uleb128 0x1
 3818 004c 01       		.byte	0x1
 3819 004d 49       		.uleb128 0x49
 3820 004e 13       		.uleb128 0x13
 3821 004f 01       		.uleb128 0x1
ARM GAS  C:\Users\Lenovo\AppData\Local\Temp\ccd7Og9t.s 			page 80


 3822 0050 13       		.uleb128 0x13
 3823 0051 00       		.byte	0
 3824 0052 00       		.byte	0
 3825 0053 08       		.uleb128 0x8
 3826 0054 21       		.uleb128 0x21
 3827 0055 00       		.byte	0
 3828 0056 49       		.uleb128 0x49
 3829 0057 13       		.uleb128 0x13
 3830 0058 2F       		.uleb128 0x2f
 3831 0059 0B       		.uleb128 0xb
 3832 005a 00       		.byte	0
 3833 005b 00       		.byte	0
 3834 005c 09       		.uleb128 0x9
 3835 005d 13       		.uleb128 0x13
 3836 005e 01       		.byte	0x1
 3837 005f 03       		.uleb128 0x3
 3838 0060 0E       		.uleb128 0xe
 3839 0061 0B       		.uleb128 0xb
 3840 0062 05       		.uleb128 0x5
 3841 0063 3A       		.uleb128 0x3a
 3842 0064 0B       		.uleb128 0xb
 3843 0065 3B       		.uleb128 0x3b
 3844 0066 0B       		.uleb128 0xb
 3845 0067 01       		.uleb128 0x1
 3846 0068 13       		.uleb128 0x13
 3847 0069 00       		.byte	0
 3848 006a 00       		.byte	0
 3849 006b 0A       		.uleb128 0xa
 3850 006c 0D       		.uleb128 0xd
 3851 006d 00       		.byte	0
 3852 006e 03       		.uleb128 0x3
 3853 006f 0E       		.uleb128 0xe
 3854 0070 3A       		.uleb128 0x3a
 3855 0071 0B       		.uleb128 0xb
 3856 0072 3B       		.uleb128 0x3b
 3857 0073 0B       		.uleb128 0xb
 3858 0074 49       		.uleb128 0x49
 3859 0075 13       		.uleb128 0x13
 3860 0076 38       		.uleb128 0x38
 3861 0077 0B       		.uleb128 0xb
 3862 0078 00       		.byte	0
 3863 0079 00       		.byte	0
 3864 007a 0B       		.uleb128 0xb
 3865 007b 0D       		.uleb128 0xd
 3866 007c 00       		.byte	0
 3867 007d 03       		.uleb128 0x3
 3868 007e 0E       		.uleb128 0xe
 3869 007f 3A       		.uleb128 0x3a
 3870 0080 0B       		.uleb128 0xb
 3871 0081 3B       		.uleb128 0x3b
 3872 0082 0B       		.uleb128 0xb
 3873 0083 49       		.uleb128 0x49
 3874 0084 13       		.uleb128 0x13
 3875 0085 38       		.uleb128 0x38
 3876 0086 05       		.uleb128 0x5
 3877 0087 00       		.byte	0
 3878 0088 00       		.byte	0
ARM GAS  C:\Users\Lenovo\AppData\Local\Temp\ccd7Og9t.s 			page 81


 3879 0089 0C       		.uleb128 0xc
 3880 008a 0D       		.uleb128 0xd
 3881 008b 00       		.byte	0
 3882 008c 03       		.uleb128 0x3
 3883 008d 08       		.uleb128 0x8
 3884 008e 3A       		.uleb128 0x3a
 3885 008f 0B       		.uleb128 0xb
 3886 0090 3B       		.uleb128 0x3b
 3887 0091 0B       		.uleb128 0xb
 3888 0092 49       		.uleb128 0x49
 3889 0093 13       		.uleb128 0x13
 3890 0094 38       		.uleb128 0x38
 3891 0095 0B       		.uleb128 0xb
 3892 0096 00       		.byte	0
 3893 0097 00       		.byte	0
 3894 0098 0D       		.uleb128 0xd
 3895 0099 0D       		.uleb128 0xd
 3896 009a 00       		.byte	0
 3897 009b 03       		.uleb128 0x3
 3898 009c 08       		.uleb128 0x8
 3899 009d 3A       		.uleb128 0x3a
 3900 009e 0B       		.uleb128 0xb
 3901 009f 3B       		.uleb128 0x3b
 3902 00a0 0B       		.uleb128 0xb
 3903 00a1 49       		.uleb128 0x49
 3904 00a2 13       		.uleb128 0x13
 3905 00a3 38       		.uleb128 0x38
 3906 00a4 05       		.uleb128 0x5
 3907 00a5 00       		.byte	0
 3908 00a6 00       		.byte	0
 3909 00a7 0E       		.uleb128 0xe
 3910 00a8 04       		.uleb128 0x4
 3911 00a9 01       		.byte	0x1
 3912 00aa 03       		.uleb128 0x3
 3913 00ab 0E       		.uleb128 0xe
 3914 00ac 0B       		.uleb128 0xb
 3915 00ad 0B       		.uleb128 0xb
 3916 00ae 3A       		.uleb128 0x3a
 3917 00af 0B       		.uleb128 0xb
 3918 00b0 3B       		.uleb128 0x3b
 3919 00b1 0B       		.uleb128 0xb
 3920 00b2 01       		.uleb128 0x1
 3921 00b3 13       		.uleb128 0x13
 3922 00b4 00       		.byte	0
 3923 00b5 00       		.byte	0
 3924 00b6 0F       		.uleb128 0xf
 3925 00b7 28       		.uleb128 0x28
 3926 00b8 00       		.byte	0
 3927 00b9 03       		.uleb128 0x3
 3928 00ba 08       		.uleb128 0x8
 3929 00bb 1C       		.uleb128 0x1c
 3930 00bc 0D       		.uleb128 0xd
 3931 00bd 00       		.byte	0
 3932 00be 00       		.byte	0
 3933 00bf 10       		.uleb128 0x10
 3934 00c0 28       		.uleb128 0x28
 3935 00c1 00       		.byte	0
ARM GAS  C:\Users\Lenovo\AppData\Local\Temp\ccd7Og9t.s 			page 82


 3936 00c2 03       		.uleb128 0x3
 3937 00c3 0E       		.uleb128 0xe
 3938 00c4 1C       		.uleb128 0x1c
 3939 00c5 0D       		.uleb128 0xd
 3940 00c6 00       		.byte	0
 3941 00c7 00       		.byte	0
 3942 00c8 11       		.uleb128 0x11
 3943 00c9 04       		.uleb128 0x4
 3944 00ca 01       		.byte	0x1
 3945 00cb 03       		.uleb128 0x3
 3946 00cc 0E       		.uleb128 0xe
 3947 00cd 0B       		.uleb128 0xb
 3948 00ce 0B       		.uleb128 0xb
 3949 00cf 3A       		.uleb128 0x3a
 3950 00d0 0B       		.uleb128 0xb
 3951 00d1 3B       		.uleb128 0x3b
 3952 00d2 05       		.uleb128 0x5
 3953 00d3 01       		.uleb128 0x1
 3954 00d4 13       		.uleb128 0x13
 3955 00d5 00       		.byte	0
 3956 00d6 00       		.byte	0
 3957 00d7 12       		.uleb128 0x12
 3958 00d8 2E       		.uleb128 0x2e
 3959 00d9 01       		.byte	0x1
 3960 00da 3F       		.uleb128 0x3f
 3961 00db 19       		.uleb128 0x19
 3962 00dc 03       		.uleb128 0x3
 3963 00dd 0E       		.uleb128 0xe
 3964 00de 3A       		.uleb128 0x3a
 3965 00df 0B       		.uleb128 0xb
 3966 00e0 3B       		.uleb128 0x3b
 3967 00e1 0B       		.uleb128 0xb
 3968 00e2 27       		.uleb128 0x27
 3969 00e3 19       		.uleb128 0x19
 3970 00e4 49       		.uleb128 0x49
 3971 00e5 13       		.uleb128 0x13
 3972 00e6 11       		.uleb128 0x11
 3973 00e7 01       		.uleb128 0x1
 3974 00e8 12       		.uleb128 0x12
 3975 00e9 06       		.uleb128 0x6
 3976 00ea 40       		.uleb128 0x40
 3977 00eb 18       		.uleb128 0x18
 3978 00ec 9742     		.uleb128 0x2117
 3979 00ee 19       		.uleb128 0x19
 3980 00ef 01       		.uleb128 0x1
 3981 00f0 13       		.uleb128 0x13
 3982 00f1 00       		.byte	0
 3983 00f2 00       		.byte	0
 3984 00f3 13       		.uleb128 0x13
 3985 00f4 05       		.uleb128 0x5
 3986 00f5 00       		.byte	0
 3987 00f6 03       		.uleb128 0x3
 3988 00f7 08       		.uleb128 0x8
 3989 00f8 3A       		.uleb128 0x3a
 3990 00f9 0B       		.uleb128 0xb
 3991 00fa 3B       		.uleb128 0x3b
 3992 00fb 0B       		.uleb128 0xb
ARM GAS  C:\Users\Lenovo\AppData\Local\Temp\ccd7Og9t.s 			page 83


 3993 00fc 49       		.uleb128 0x49
 3994 00fd 13       		.uleb128 0x13
 3995 00fe 02       		.uleb128 0x2
 3996 00ff 17       		.uleb128 0x17
 3997 0100 00       		.byte	0
 3998 0101 00       		.byte	0
 3999 0102 14       		.uleb128 0x14
 4000 0103 34       		.uleb128 0x34
 4001 0104 00       		.byte	0
 4002 0105 03       		.uleb128 0x3
 4003 0106 0E       		.uleb128 0xe
 4004 0107 3A       		.uleb128 0x3a
 4005 0108 0B       		.uleb128 0xb
 4006 0109 3B       		.uleb128 0x3b
 4007 010a 0B       		.uleb128 0xb
 4008 010b 49       		.uleb128 0x49
 4009 010c 13       		.uleb128 0x13
 4010 010d 02       		.uleb128 0x2
 4011 010e 17       		.uleb128 0x17
 4012 010f 00       		.byte	0
 4013 0110 00       		.byte	0
 4014 0111 15       		.uleb128 0x15
 4015 0112 898201   		.uleb128 0x4109
 4016 0115 00       		.byte	0
 4017 0116 11       		.uleb128 0x11
 4018 0117 01       		.uleb128 0x1
 4019 0118 31       		.uleb128 0x31
 4020 0119 13       		.uleb128 0x13
 4021 011a 00       		.byte	0
 4022 011b 00       		.byte	0
 4023 011c 16       		.uleb128 0x16
 4024 011d 898201   		.uleb128 0x4109
 4025 0120 01       		.byte	0x1
 4026 0121 11       		.uleb128 0x11
 4027 0122 01       		.uleb128 0x1
 4028 0123 31       		.uleb128 0x31
 4029 0124 13       		.uleb128 0x13
 4030 0125 01       		.uleb128 0x1
 4031 0126 13       		.uleb128 0x13
 4032 0127 00       		.byte	0
 4033 0128 00       		.byte	0
 4034 0129 17       		.uleb128 0x17
 4035 012a 8A8201   		.uleb128 0x410a
 4036 012d 00       		.byte	0
 4037 012e 02       		.uleb128 0x2
 4038 012f 18       		.uleb128 0x18
 4039 0130 9142     		.uleb128 0x2111
 4040 0132 18       		.uleb128 0x18
 4041 0133 00       		.byte	0
 4042 0134 00       		.byte	0
 4043 0135 18       		.uleb128 0x18
 4044 0136 34       		.uleb128 0x34
 4045 0137 00       		.byte	0
 4046 0138 03       		.uleb128 0x3
 4047 0139 08       		.uleb128 0x8
 4048 013a 3A       		.uleb128 0x3a
 4049 013b 0B       		.uleb128 0xb
ARM GAS  C:\Users\Lenovo\AppData\Local\Temp\ccd7Og9t.s 			page 84


 4050 013c 3B       		.uleb128 0x3b
 4051 013d 0B       		.uleb128 0xb
 4052 013e 49       		.uleb128 0x49
 4053 013f 13       		.uleb128 0x13
 4054 0140 02       		.uleb128 0x2
 4055 0141 17       		.uleb128 0x17
 4056 0142 00       		.byte	0
 4057 0143 00       		.byte	0
 4058 0144 19       		.uleb128 0x19
 4059 0145 2E       		.uleb128 0x2e
 4060 0146 01       		.byte	0x1
 4061 0147 3F       		.uleb128 0x3f
 4062 0148 19       		.uleb128 0x19
 4063 0149 03       		.uleb128 0x3
 4064 014a 0E       		.uleb128 0xe
 4065 014b 3A       		.uleb128 0x3a
 4066 014c 0B       		.uleb128 0xb
 4067 014d 3B       		.uleb128 0x3b
 4068 014e 05       		.uleb128 0x5
 4069 014f 27       		.uleb128 0x27
 4070 0150 19       		.uleb128 0x19
 4071 0151 49       		.uleb128 0x49
 4072 0152 13       		.uleb128 0x13
 4073 0153 11       		.uleb128 0x11
 4074 0154 01       		.uleb128 0x1
 4075 0155 12       		.uleb128 0x12
 4076 0156 06       		.uleb128 0x6
 4077 0157 40       		.uleb128 0x40
 4078 0158 18       		.uleb128 0x18
 4079 0159 9742     		.uleb128 0x2117
 4080 015b 19       		.uleb128 0x19
 4081 015c 01       		.uleb128 0x1
 4082 015d 13       		.uleb128 0x13
 4083 015e 00       		.byte	0
 4084 015f 00       		.byte	0
 4085 0160 1A       		.uleb128 0x1a
 4086 0161 05       		.uleb128 0x5
 4087 0162 00       		.byte	0
 4088 0163 03       		.uleb128 0x3
 4089 0164 08       		.uleb128 0x8
 4090 0165 3A       		.uleb128 0x3a
 4091 0166 0B       		.uleb128 0xb
 4092 0167 3B       		.uleb128 0x3b
 4093 0168 05       		.uleb128 0x5
 4094 0169 49       		.uleb128 0x49
 4095 016a 13       		.uleb128 0x13
 4096 016b 02       		.uleb128 0x2
 4097 016c 17       		.uleb128 0x17
 4098 016d 00       		.byte	0
 4099 016e 00       		.byte	0
 4100 016f 1B       		.uleb128 0x1b
 4101 0170 34       		.uleb128 0x34
 4102 0171 00       		.byte	0
 4103 0172 03       		.uleb128 0x3
 4104 0173 08       		.uleb128 0x8
 4105 0174 3A       		.uleb128 0x3a
 4106 0175 0B       		.uleb128 0xb
ARM GAS  C:\Users\Lenovo\AppData\Local\Temp\ccd7Og9t.s 			page 85


 4107 0176 3B       		.uleb128 0x3b
 4108 0177 05       		.uleb128 0x5
 4109 0178 49       		.uleb128 0x49
 4110 0179 13       		.uleb128 0x13
 4111 017a 02       		.uleb128 0x2
 4112 017b 17       		.uleb128 0x17
 4113 017c 00       		.byte	0
 4114 017d 00       		.byte	0
 4115 017e 1C       		.uleb128 0x1c
 4116 017f 2E       		.uleb128 0x2e
 4117 0180 01       		.byte	0x1
 4118 0181 3F       		.uleb128 0x3f
 4119 0182 19       		.uleb128 0x19
 4120 0183 03       		.uleb128 0x3
 4121 0184 0E       		.uleb128 0xe
 4122 0185 3A       		.uleb128 0x3a
 4123 0186 0B       		.uleb128 0xb
 4124 0187 3B       		.uleb128 0x3b
 4125 0188 05       		.uleb128 0x5
 4126 0189 49       		.uleb128 0x49
 4127 018a 13       		.uleb128 0x13
 4128 018b 11       		.uleb128 0x11
 4129 018c 01       		.uleb128 0x1
 4130 018d 12       		.uleb128 0x12
 4131 018e 06       		.uleb128 0x6
 4132 018f 40       		.uleb128 0x40
 4133 0190 18       		.uleb128 0x18
 4134 0191 9742     		.uleb128 0x2117
 4135 0193 19       		.uleb128 0x19
 4136 0194 01       		.uleb128 0x1
 4137 0195 13       		.uleb128 0x13
 4138 0196 00       		.byte	0
 4139 0197 00       		.byte	0
 4140 0198 1D       		.uleb128 0x1d
 4141 0199 05       		.uleb128 0x5
 4142 019a 00       		.byte	0
 4143 019b 03       		.uleb128 0x3
 4144 019c 0E       		.uleb128 0xe
 4145 019d 3A       		.uleb128 0x3a
 4146 019e 0B       		.uleb128 0xb
 4147 019f 3B       		.uleb128 0x3b
 4148 01a0 05       		.uleb128 0x5
 4149 01a1 49       		.uleb128 0x49
 4150 01a2 13       		.uleb128 0x13
 4151 01a3 02       		.uleb128 0x2
 4152 01a4 17       		.uleb128 0x17
 4153 01a5 00       		.byte	0
 4154 01a6 00       		.byte	0
 4155 01a7 1E       		.uleb128 0x1e
 4156 01a8 34       		.uleb128 0x34
 4157 01a9 00       		.byte	0
 4158 01aa 03       		.uleb128 0x3
 4159 01ab 0E       		.uleb128 0xe
 4160 01ac 3A       		.uleb128 0x3a
 4161 01ad 0B       		.uleb128 0xb
 4162 01ae 3B       		.uleb128 0x3b
 4163 01af 05       		.uleb128 0x5
ARM GAS  C:\Users\Lenovo\AppData\Local\Temp\ccd7Og9t.s 			page 86


 4164 01b0 49       		.uleb128 0x49
 4165 01b1 13       		.uleb128 0x13
 4166 01b2 02       		.uleb128 0x2
 4167 01b3 17       		.uleb128 0x17
 4168 01b4 00       		.byte	0
 4169 01b5 00       		.byte	0
 4170 01b6 1F       		.uleb128 0x1f
 4171 01b7 0F       		.uleb128 0xf
 4172 01b8 00       		.byte	0
 4173 01b9 0B       		.uleb128 0xb
 4174 01ba 0B       		.uleb128 0xb
 4175 01bb 49       		.uleb128 0x49
 4176 01bc 13       		.uleb128 0x13
 4177 01bd 00       		.byte	0
 4178 01be 00       		.byte	0
 4179 01bf 20       		.uleb128 0x20
 4180 01c0 05       		.uleb128 0x5
 4181 01c1 00       		.byte	0
 4182 01c2 03       		.uleb128 0x3
 4183 01c3 0E       		.uleb128 0xe
 4184 01c4 3A       		.uleb128 0x3a
 4185 01c5 0B       		.uleb128 0xb
 4186 01c6 3B       		.uleb128 0x3b
 4187 01c7 0B       		.uleb128 0xb
 4188 01c8 49       		.uleb128 0x49
 4189 01c9 13       		.uleb128 0x13
 4190 01ca 02       		.uleb128 0x2
 4191 01cb 17       		.uleb128 0x17
 4192 01cc 00       		.byte	0
 4193 01cd 00       		.byte	0
 4194 01ce 21       		.uleb128 0x21
 4195 01cf 34       		.uleb128 0x34
 4196 01d0 00       		.byte	0
 4197 01d1 03       		.uleb128 0x3
 4198 01d2 0E       		.uleb128 0xe
 4199 01d3 3A       		.uleb128 0x3a
 4200 01d4 0B       		.uleb128 0xb
 4201 01d5 3B       		.uleb128 0x3b
 4202 01d6 0B       		.uleb128 0xb
 4203 01d7 49       		.uleb128 0x49
 4204 01d8 13       		.uleb128 0x13
 4205 01d9 02       		.uleb128 0x2
 4206 01da 18       		.uleb128 0x18
 4207 01db 00       		.byte	0
 4208 01dc 00       		.byte	0
 4209 01dd 22       		.uleb128 0x22
 4210 01de 898201   		.uleb128 0x4109
 4211 01e1 01       		.byte	0x1
 4212 01e2 11       		.uleb128 0x11
 4213 01e3 01       		.uleb128 0x1
 4214 01e4 31       		.uleb128 0x31
 4215 01e5 13       		.uleb128 0x13
 4216 01e6 00       		.byte	0
 4217 01e7 00       		.byte	0
 4218 01e8 23       		.uleb128 0x23
 4219 01e9 34       		.uleb128 0x34
 4220 01ea 00       		.byte	0
ARM GAS  C:\Users\Lenovo\AppData\Local\Temp\ccd7Og9t.s 			page 87


 4221 01eb 34       		.uleb128 0x34
 4222 01ec 19       		.uleb128 0x19
 4223 01ed 49       		.uleb128 0x49
 4224 01ee 13       		.uleb128 0x13
 4225 01ef 02       		.uleb128 0x2
 4226 01f0 17       		.uleb128 0x17
 4227 01f1 00       		.byte	0
 4228 01f2 00       		.byte	0
 4229 01f3 24       		.uleb128 0x24
 4230 01f4 21       		.uleb128 0x21
 4231 01f5 00       		.byte	0
 4232 01f6 49       		.uleb128 0x49
 4233 01f7 13       		.uleb128 0x13
 4234 01f8 2F       		.uleb128 0x2f
 4235 01f9 13       		.uleb128 0x13
 4236 01fa 00       		.byte	0
 4237 01fb 00       		.byte	0
 4238 01fc 25       		.uleb128 0x25
 4239 01fd 26       		.uleb128 0x26
 4240 01fe 00       		.byte	0
 4241 01ff 49       		.uleb128 0x49
 4242 0200 13       		.uleb128 0x13
 4243 0201 00       		.byte	0
 4244 0202 00       		.byte	0
 4245 0203 26       		.uleb128 0x26
 4246 0204 34       		.uleb128 0x34
 4247 0205 00       		.byte	0
 4248 0206 03       		.uleb128 0x3
 4249 0207 0E       		.uleb128 0xe
 4250 0208 3A       		.uleb128 0x3a
 4251 0209 0B       		.uleb128 0xb
 4252 020a 3B       		.uleb128 0x3b
 4253 020b 05       		.uleb128 0x5
 4254 020c 49       		.uleb128 0x49
 4255 020d 13       		.uleb128 0x13
 4256 020e 02       		.uleb128 0x2
 4257 020f 18       		.uleb128 0x18
 4258 0210 00       		.byte	0
 4259 0211 00       		.byte	0
 4260 0212 27       		.uleb128 0x27
 4261 0213 34       		.uleb128 0x34
 4262 0214 00       		.byte	0
 4263 0215 03       		.uleb128 0x3
 4264 0216 0E       		.uleb128 0xe
 4265 0217 3A       		.uleb128 0x3a
 4266 0218 0B       		.uleb128 0xb
 4267 0219 3B       		.uleb128 0x3b
 4268 021a 05       		.uleb128 0x5
 4269 021b 49       		.uleb128 0x49
 4270 021c 13       		.uleb128 0x13
 4271 021d 3F       		.uleb128 0x3f
 4272 021e 19       		.uleb128 0x19
 4273 021f 3C       		.uleb128 0x3c
 4274 0220 19       		.uleb128 0x19
 4275 0221 00       		.byte	0
 4276 0222 00       		.byte	0
 4277 0223 28       		.uleb128 0x28
ARM GAS  C:\Users\Lenovo\AppData\Local\Temp\ccd7Og9t.s 			page 88


 4278 0224 34       		.uleb128 0x34
 4279 0225 00       		.byte	0
 4280 0226 03       		.uleb128 0x3
 4281 0227 0E       		.uleb128 0xe
 4282 0228 3A       		.uleb128 0x3a
 4283 0229 0B       		.uleb128 0xb
 4284 022a 3B       		.uleb128 0x3b
 4285 022b 0B       		.uleb128 0xb
 4286 022c 49       		.uleb128 0x49
 4287 022d 13       		.uleb128 0x13
 4288 022e 3F       		.uleb128 0x3f
 4289 022f 19       		.uleb128 0x19
 4290 0230 02       		.uleb128 0x2
 4291 0231 18       		.uleb128 0x18
 4292 0232 00       		.byte	0
 4293 0233 00       		.byte	0
 4294 0234 29       		.uleb128 0x29
 4295 0235 2E       		.uleb128 0x2e
 4296 0236 00       		.byte	0
 4297 0237 3F       		.uleb128 0x3f
 4298 0238 19       		.uleb128 0x19
 4299 0239 03       		.uleb128 0x3
 4300 023a 0E       		.uleb128 0xe
 4301 023b 3A       		.uleb128 0x3a
 4302 023c 0B       		.uleb128 0xb
 4303 023d 3B       		.uleb128 0x3b
 4304 023e 0B       		.uleb128 0xb
 4305 023f 27       		.uleb128 0x27
 4306 0240 19       		.uleb128 0x19
 4307 0241 3C       		.uleb128 0x3c
 4308 0242 19       		.uleb128 0x19
 4309 0243 00       		.byte	0
 4310 0244 00       		.byte	0
 4311 0245 2A       		.uleb128 0x2a
 4312 0246 2E       		.uleb128 0x2e
 4313 0247 01       		.byte	0x1
 4314 0248 3F       		.uleb128 0x3f
 4315 0249 19       		.uleb128 0x19
 4316 024a 03       		.uleb128 0x3
 4317 024b 0E       		.uleb128 0xe
 4318 024c 3A       		.uleb128 0x3a
 4319 024d 0B       		.uleb128 0xb
 4320 024e 3B       		.uleb128 0x3b
 4321 024f 0B       		.uleb128 0xb
 4322 0250 27       		.uleb128 0x27
 4323 0251 19       		.uleb128 0x19
 4324 0252 3C       		.uleb128 0x3c
 4325 0253 19       		.uleb128 0x19
 4326 0254 01       		.uleb128 0x1
 4327 0255 13       		.uleb128 0x13
 4328 0256 00       		.byte	0
 4329 0257 00       		.byte	0
 4330 0258 2B       		.uleb128 0x2b
 4331 0259 05       		.uleb128 0x5
 4332 025a 00       		.byte	0
 4333 025b 49       		.uleb128 0x49
 4334 025c 13       		.uleb128 0x13
ARM GAS  C:\Users\Lenovo\AppData\Local\Temp\ccd7Og9t.s 			page 89


 4335 025d 00       		.byte	0
 4336 025e 00       		.byte	0
 4337 025f 2C       		.uleb128 0x2c
 4338 0260 2E       		.uleb128 0x2e
 4339 0261 00       		.byte	0
 4340 0262 3F       		.uleb128 0x3f
 4341 0263 19       		.uleb128 0x19
 4342 0264 03       		.uleb128 0x3
 4343 0265 0E       		.uleb128 0xe
 4344 0266 3A       		.uleb128 0x3a
 4345 0267 0B       		.uleb128 0xb
 4346 0268 3B       		.uleb128 0x3b
 4347 0269 0B       		.uleb128 0xb
 4348 026a 27       		.uleb128 0x27
 4349 026b 19       		.uleb128 0x19
 4350 026c 49       		.uleb128 0x49
 4351 026d 13       		.uleb128 0x13
 4352 026e 3C       		.uleb128 0x3c
 4353 026f 19       		.uleb128 0x19
 4354 0270 00       		.byte	0
 4355 0271 00       		.byte	0
 4356 0272 00       		.byte	0
 4357              		.section	.debug_loc,"",%progbits
 4358              	.Ldebug_loc0:
 4359              	.LLST0:
 4360 0000 00000000 		.4byte	.LVL0
 4361 0004 07000000 		.4byte	.LVL1-1
 4362 0008 0100     		.2byte	0x1
 4363 000a 50       		.byte	0x50
 4364 000b 07000000 		.4byte	.LVL1-1
 4365 000f 2E000000 		.4byte	.LFE63
 4366 0013 0400     		.2byte	0x4
 4367 0015 F3       		.byte	0xf3
 4368 0016 01       		.uleb128 0x1
 4369 0017 50       		.byte	0x50
 4370 0018 9F       		.byte	0x9f
 4371 0019 00000000 		.4byte	0
 4372 001d 00000000 		.4byte	0
 4373              	.LLST1:
 4374 0021 22000000 		.4byte	.LVL6
 4375 0025 2A000000 		.4byte	.LVL8
 4376 0029 0100     		.2byte	0x1
 4377 002b 54       		.byte	0x54
 4378 002c 00000000 		.4byte	0
 4379 0030 00000000 		.4byte	0
 4380              	.LLST2:
 4381 0034 14000000 		.4byte	.LVL9
 4382 0038 18000000 		.4byte	.LVL10
 4383 003c 0200     		.2byte	0x2
 4384 003e 31       		.byte	0x31
 4385 003f 9F       		.byte	0x9f
 4386 0040 18000000 		.4byte	.LVL10
 4387 0044 C0000000 		.4byte	.LVL21
 4388 0048 0100     		.2byte	0x1
 4389 004a 54       		.byte	0x54
 4390 004b C2000000 		.4byte	.LVL22
 4391 004f 1C010000 		.4byte	.LVL27
ARM GAS  C:\Users\Lenovo\AppData\Local\Temp\ccd7Og9t.s 			page 90


 4392 0053 0100     		.2byte	0x1
 4393 0055 54       		.byte	0x54
 4394 0056 00000000 		.4byte	0
 4395 005a 00000000 		.4byte	0
 4396              	.LLST3:
 4397 005e 00000000 		.4byte	.LVL28
 4398 0062 07000000 		.4byte	.LVL29-1
 4399 0066 0100     		.2byte	0x1
 4400 0068 50       		.byte	0x50
 4401 0069 07000000 		.4byte	.LVL29-1
 4402 006d C8030000 		.4byte	.LFE68
 4403 0071 0400     		.2byte	0x4
 4404 0073 F3       		.byte	0xf3
 4405 0074 01       		.uleb128 0x1
 4406 0075 50       		.byte	0x50
 4407 0076 9F       		.byte	0x9f
 4408 0077 00000000 		.4byte	0
 4409 007b 00000000 		.4byte	0
 4410              	.LLST4:
 4411 007f 6E000000 		.4byte	.LVL34
 4412 0083 72000000 		.4byte	.LVL35
 4413 0087 0200     		.2byte	0x2
 4414 0089 31       		.byte	0x31
 4415 008a 9F       		.byte	0x9f
 4416 008b 72000000 		.4byte	.LVL35
 4417 008f 8A000000 		.4byte	.LVL36
 4418 0093 0100     		.2byte	0x1
 4419 0095 53       		.byte	0x53
 4420 0096 8C000000 		.4byte	.LVL37
 4421 009a 94000000 		.4byte	.LVL38
 4422 009e 0100     		.2byte	0x1
 4423 00a0 53       		.byte	0x53
 4424 00a1 B4000000 		.4byte	.LVL39
 4425 00a5 CC000000 		.4byte	.LVL40
 4426 00a9 0100     		.2byte	0x1
 4427 00ab 53       		.byte	0x53
 4428 00ac CE000000 		.4byte	.LVL41
 4429 00b0 D6000000 		.4byte	.LVL42
 4430 00b4 0100     		.2byte	0x1
 4431 00b6 53       		.byte	0x53
 4432 00b7 DA000000 		.4byte	.LVL43
 4433 00bb DE000000 		.4byte	.LVL44
 4434 00bf 0200     		.2byte	0x2
 4435 00c1 31       		.byte	0x31
 4436 00c2 9F       		.byte	0x9f
 4437 00c3 DE000000 		.4byte	.LVL44
 4438 00c7 F6000000 		.4byte	.LVL45
 4439 00cb 0100     		.2byte	0x1
 4440 00cd 53       		.byte	0x53
 4441 00ce F8000000 		.4byte	.LVL46
 4442 00d2 FE000000 		.4byte	.LVL47
 4443 00d6 0100     		.2byte	0x1
 4444 00d8 53       		.byte	0x53
 4445 00d9 06010000 		.4byte	.LVL48
 4446 00dd 12010000 		.4byte	.LVL49
 4447 00e1 0100     		.2byte	0x1
 4448 00e3 53       		.byte	0x53
ARM GAS  C:\Users\Lenovo\AppData\Local\Temp\ccd7Og9t.s 			page 91


 4449 00e4 18010000 		.4byte	.LVL50
 4450 00e8 1A010000 		.4byte	.LVL51
 4451 00ec 0100     		.2byte	0x1
 4452 00ee 53       		.byte	0x53
 4453 00ef 1C010000 		.4byte	.LVL52
 4454 00f3 24010000 		.4byte	.LVL53
 4455 00f7 0100     		.2byte	0x1
 4456 00f9 53       		.byte	0x53
 4457 00fa 44010000 		.4byte	.LVL54
 4458 00fe 48010000 		.4byte	.LVL55
 4459 0102 0200     		.2byte	0x2
 4460 0104 31       		.byte	0x31
 4461 0105 9F       		.byte	0x9f
 4462 0106 48010000 		.4byte	.LVL55
 4463 010a 60010000 		.4byte	.LVL56
 4464 010e 0100     		.2byte	0x1
 4465 0110 53       		.byte	0x53
 4466 0111 62010000 		.4byte	.LVL57
 4467 0115 6A010000 		.4byte	.LVL58
 4468 0119 0100     		.2byte	0x1
 4469 011b 53       		.byte	0x53
 4470 011c 8A010000 		.4byte	.LVL59
 4471 0120 A2010000 		.4byte	.LVL60
 4472 0124 0100     		.2byte	0x1
 4473 0126 53       		.byte	0x53
 4474 0127 A4010000 		.4byte	.LVL61
 4475 012b AC010000 		.4byte	.LVL62
 4476 012f 0100     		.2byte	0x1
 4477 0131 53       		.byte	0x53
 4478 0132 B0010000 		.4byte	.LVL63
 4479 0136 B4010000 		.4byte	.LVL64
 4480 013a 0200     		.2byte	0x2
 4481 013c 31       		.byte	0x31
 4482 013d 9F       		.byte	0x9f
 4483 013e B4010000 		.4byte	.LVL64
 4484 0142 CC010000 		.4byte	.LVL65
 4485 0146 0100     		.2byte	0x1
 4486 0148 53       		.byte	0x53
 4487 0149 CE010000 		.4byte	.LVL66
 4488 014d D4010000 		.4byte	.LVL67
 4489 0151 0100     		.2byte	0x1
 4490 0153 53       		.byte	0x53
 4491 0154 DC010000 		.4byte	.LVL68
 4492 0158 E8010000 		.4byte	.LVL69
 4493 015c 0100     		.2byte	0x1
 4494 015e 53       		.byte	0x53
 4495 015f EE010000 		.4byte	.LVL70
 4496 0163 F0010000 		.4byte	.LVL71
 4497 0167 0100     		.2byte	0x1
 4498 0169 53       		.byte	0x53
 4499 016a F2010000 		.4byte	.LVL72
 4500 016e FA010000 		.4byte	.LVL73
 4501 0172 0100     		.2byte	0x1
 4502 0174 53       		.byte	0x53
 4503 0175 5C020000 		.4byte	.LVL75
 4504 0179 60020000 		.4byte	.LVL76
 4505 017d 0200     		.2byte	0x2
ARM GAS  C:\Users\Lenovo\AppData\Local\Temp\ccd7Og9t.s 			page 92


 4506 017f 31       		.byte	0x31
 4507 0180 9F       		.byte	0x9f
 4508 0181 60020000 		.4byte	.LVL76
 4509 0185 78020000 		.4byte	.LVL77
 4510 0189 0100     		.2byte	0x1
 4511 018b 53       		.byte	0x53
 4512 018c 7A020000 		.4byte	.LVL78
 4513 0190 82020000 		.4byte	.LVL79
 4514 0194 0100     		.2byte	0x1
 4515 0196 53       		.byte	0x53
 4516 0197 86020000 		.4byte	.LVL80
 4517 019b 8A020000 		.4byte	.LVL81
 4518 019f 0200     		.2byte	0x2
 4519 01a1 31       		.byte	0x31
 4520 01a2 9F       		.byte	0x9f
 4521 01a3 8A020000 		.4byte	.LVL81
 4522 01a7 A2020000 		.4byte	.LVL82
 4523 01ab 0100     		.2byte	0x1
 4524 01ad 53       		.byte	0x53
 4525 01ae A4020000 		.4byte	.LVL83
 4526 01b2 AC020000 		.4byte	.LVL84
 4527 01b6 0100     		.2byte	0x1
 4528 01b8 53       		.byte	0x53
 4529 01b9 B0020000 		.4byte	.LVL85
 4530 01bd B4020000 		.4byte	.LVL86
 4531 01c1 0200     		.2byte	0x2
 4532 01c3 31       		.byte	0x31
 4533 01c4 9F       		.byte	0x9f
 4534 01c5 B4020000 		.4byte	.LVL86
 4535 01c9 CC020000 		.4byte	.LVL87
 4536 01cd 0100     		.2byte	0x1
 4537 01cf 53       		.byte	0x53
 4538 01d0 CE020000 		.4byte	.LVL88
 4539 01d4 D4020000 		.4byte	.LVL89
 4540 01d8 0100     		.2byte	0x1
 4541 01da 53       		.byte	0x53
 4542 01db F4020000 		.4byte	.LVL90
 4543 01df 14030000 		.4byte	.LVL91
 4544 01e3 0200     		.2byte	0x2
 4545 01e5 31       		.byte	0x31
 4546 01e6 9F       		.byte	0x9f
 4547 01e7 14030000 		.4byte	.LVL91
 4548 01eb 2C030000 		.4byte	.LVL92
 4549 01ef 0100     		.2byte	0x1
 4550 01f1 53       		.byte	0x53
 4551 01f2 2E030000 		.4byte	.LVL93
 4552 01f6 36030000 		.4byte	.LVL94
 4553 01fa 0100     		.2byte	0x1
 4554 01fc 53       		.byte	0x53
 4555 01fd 3A030000 		.4byte	.LVL95
 4556 0201 3E030000 		.4byte	.LVL96
 4557 0205 0200     		.2byte	0x2
 4558 0207 31       		.byte	0x31
 4559 0208 9F       		.byte	0x9f
 4560 0209 3E030000 		.4byte	.LVL96
 4561 020d 56030000 		.4byte	.LVL97
 4562 0211 0100     		.2byte	0x1
ARM GAS  C:\Users\Lenovo\AppData\Local\Temp\ccd7Og9t.s 			page 93


 4563 0213 53       		.byte	0x53
 4564 0214 58030000 		.4byte	.LVL98
 4565 0218 60030000 		.4byte	.LVL99
 4566 021c 0100     		.2byte	0x1
 4567 021e 53       		.byte	0x53
 4568 021f 64030000 		.4byte	.LVL100
 4569 0223 68030000 		.4byte	.LVL101
 4570 0227 0200     		.2byte	0x2
 4571 0229 31       		.byte	0x31
 4572 022a 9F       		.byte	0x9f
 4573 022b 68030000 		.4byte	.LVL101
 4574 022f 80030000 		.4byte	.LVL102
 4575 0233 0100     		.2byte	0x1
 4576 0235 53       		.byte	0x53
 4577 0236 82030000 		.4byte	.LVL103
 4578 023a 88030000 		.4byte	.LVL104
 4579 023e 0100     		.2byte	0x1
 4580 0240 53       		.byte	0x53
 4581 0241 00000000 		.4byte	0
 4582 0245 00000000 		.4byte	0
 4583              	.LLST5:
 4584 0249 00000000 		.4byte	.LVL105
 4585 024d 0E000000 		.4byte	.LVL106
 4586 0251 0100     		.2byte	0x1
 4587 0253 50       		.byte	0x50
 4588 0254 0E000000 		.4byte	.LVL106
 4589 0258 10000000 		.4byte	.LVL107
 4590 025c 0400     		.2byte	0x4
 4591 025e F3       		.byte	0xf3
 4592 025f 01       		.uleb128 0x1
 4593 0260 50       		.byte	0x50
 4594 0261 9F       		.byte	0x9f
 4595 0262 10000000 		.4byte	.LVL107
 4596 0266 12000000 		.4byte	.LVL108
 4597 026a 0100     		.2byte	0x1
 4598 026c 50       		.byte	0x50
 4599 026d 12000000 		.4byte	.LVL108
 4600 0271 14000000 		.4byte	.LFE69
 4601 0275 0400     		.2byte	0x4
 4602 0277 F3       		.byte	0xf3
 4603 0278 01       		.uleb128 0x1
 4604 0279 50       		.byte	0x50
 4605 027a 9F       		.byte	0x9f
 4606 027b 00000000 		.4byte	0
 4607 027f 00000000 		.4byte	0
 4608              	.LLST6:
 4609 0283 00000000 		.4byte	.LVL105
 4610 0287 12000000 		.4byte	.LVL108
 4611 028b 0200     		.2byte	0x2
 4612 028d 30       		.byte	0x30
 4613 028e 9F       		.byte	0x9f
 4614 028f 12000000 		.4byte	.LVL108
 4615 0293 14000000 		.4byte	.LFE69
 4616 0297 0100     		.2byte	0x1
 4617 0299 50       		.byte	0x50
 4618 029a 00000000 		.4byte	0
 4619 029e 00000000 		.4byte	0
ARM GAS  C:\Users\Lenovo\AppData\Local\Temp\ccd7Og9t.s 			page 94


 4620              	.LLST7:
 4621 02a2 00000000 		.4byte	.LVL109
 4622 02a6 0E000000 		.4byte	.LVL112
 4623 02aa 0100     		.2byte	0x1
 4624 02ac 50       		.byte	0x50
 4625 02ad 0E000000 		.4byte	.LVL112
 4626 02b1 1A000000 		.4byte	.LVL113
 4627 02b5 0100     		.2byte	0x1
 4628 02b7 50       		.byte	0x50
 4629 02b8 00000000 		.4byte	0
 4630 02bc 00000000 		.4byte	0
 4631              	.LLST8:
 4632 02c0 00000000 		.4byte	.LVL109
 4633 02c4 04000000 		.4byte	.LVL110
 4634 02c8 0200     		.2byte	0x2
 4635 02ca 30       		.byte	0x30
 4636 02cb 9F       		.byte	0x9f
 4637 02cc 04000000 		.4byte	.LVL110
 4638 02d0 1A000000 		.4byte	.LVL113
 4639 02d4 0100     		.2byte	0x1
 4640 02d6 51       		.byte	0x51
 4641 02d7 1A000000 		.4byte	.LVL113
 4642 02db 1C000000 		.4byte	.LVL114
 4643 02df 0100     		.2byte	0x1
 4644 02e1 50       		.byte	0x50
 4645 02e2 1C000000 		.4byte	.LVL114
 4646 02e6 20000000 		.4byte	.LVL115
 4647 02ea 0400     		.2byte	0x4
 4648 02ec 70       		.byte	0x70
 4649 02ed 00       		.sleb128 0
 4650 02ee 1F       		.byte	0x1f
 4651 02ef 9F       		.byte	0x9f
 4652 02f0 20000000 		.4byte	.LVL115
 4653 02f4 26000000 		.4byte	.LFE70
 4654 02f8 0600     		.2byte	0x6
 4655 02fa 71       		.byte	0x71
 4656 02fb 00       		.sleb128 0
 4657 02fc 72       		.byte	0x72
 4658 02fd 00       		.sleb128 0
 4659 02fe 22       		.byte	0x22
 4660 02ff 9F       		.byte	0x9f
 4661 0300 00000000 		.4byte	0
 4662 0304 00000000 		.4byte	0
 4663              	.LLST9:
 4664 0308 00000000 		.4byte	.LVL116
 4665 030c 1B000000 		.4byte	.LVL119-1
 4666 0310 0100     		.2byte	0x1
 4667 0312 50       		.byte	0x50
 4668 0313 1B000000 		.4byte	.LVL119-1
 4669 0317 B4010000 		.4byte	.LFE65
 4670 031b 0400     		.2byte	0x4
 4671 031d F3       		.byte	0xf3
 4672 031e 01       		.uleb128 0x1
 4673 031f 50       		.byte	0x50
 4674 0320 9F       		.byte	0x9f
 4675 0321 00000000 		.4byte	0
 4676 0325 00000000 		.4byte	0
ARM GAS  C:\Users\Lenovo\AppData\Local\Temp\ccd7Og9t.s 			page 95


 4677              	.LLST10:
 4678 0329 00000000 		.4byte	.LVL116
 4679 032d 1B000000 		.4byte	.LVL119-1
 4680 0331 0100     		.2byte	0x1
 4681 0333 51       		.byte	0x51
 4682 0334 1B000000 		.4byte	.LVL119-1
 4683 0338 B4010000 		.4byte	.LFE65
 4684 033c 0400     		.2byte	0x4
 4685 033e F3       		.byte	0xf3
 4686 033f 01       		.uleb128 0x1
 4687 0340 51       		.byte	0x51
 4688 0341 9F       		.byte	0x9f
 4689 0342 00000000 		.4byte	0
 4690 0346 00000000 		.4byte	0
 4691              	.LLST11:
 4692 034a 00000000 		.4byte	.LVL116
 4693 034e 1B000000 		.4byte	.LVL119-1
 4694 0352 0100     		.2byte	0x1
 4695 0354 52       		.byte	0x52
 4696 0355 1B000000 		.4byte	.LVL119-1
 4697 0359 82010000 		.4byte	.LVL178
 4698 035d 0100     		.2byte	0x1
 4699 035f 54       		.byte	0x54
 4700 0360 82010000 		.4byte	.LVL178
 4701 0364 A2010000 		.4byte	.LVL184
 4702 0368 0400     		.2byte	0x4
 4703 036a F3       		.byte	0xf3
 4704 036b 01       		.uleb128 0x1
 4705 036c 52       		.byte	0x52
 4706 036d 9F       		.byte	0x9f
 4707 036e A2010000 		.4byte	.LVL184
 4708 0372 A8010000 		.4byte	.LVL186
 4709 0376 0100     		.2byte	0x1
 4710 0378 54       		.byte	0x54
 4711 0379 A8010000 		.4byte	.LVL186
 4712 037d B4010000 		.4byte	.LFE65
 4713 0381 0400     		.2byte	0x4
 4714 0383 F3       		.byte	0xf3
 4715 0384 01       		.uleb128 0x1
 4716 0385 52       		.byte	0x52
 4717 0386 9F       		.byte	0x9f
 4718 0387 00000000 		.4byte	0
 4719 038b 00000000 		.4byte	0
 4720              	.LLST12:
 4721 038f 00000000 		.4byte	.LVL116
 4722 0393 0C000000 		.4byte	.LVL117
 4723 0397 0100     		.2byte	0x1
 4724 0399 53       		.byte	0x53
 4725 039a 0C000000 		.4byte	.LVL117
 4726 039e 18000000 		.4byte	.LVL118
 4727 03a2 0400     		.2byte	0x4
 4728 03a4 F3       		.byte	0xf3
 4729 03a5 01       		.uleb128 0x1
 4730 03a6 53       		.byte	0x53
 4731 03a7 9F       		.byte	0x9f
 4732 03a8 18000000 		.4byte	.LVL118
 4733 03ac B4010000 		.4byte	.LFE65
ARM GAS  C:\Users\Lenovo\AppData\Local\Temp\ccd7Og9t.s 			page 96


 4734 03b0 0200     		.2byte	0x2
 4735 03b2 30       		.byte	0x30
 4736 03b3 9F       		.byte	0x9f
 4737 03b4 00000000 		.4byte	0
 4738 03b8 00000000 		.4byte	0
 4739              	.LLST13:
 4740 03bc 1C000000 		.4byte	.LVL119
 4741 03c0 1E000000 		.4byte	.LVL120
 4742 03c4 0100     		.2byte	0x1
 4743 03c6 50       		.byte	0x50
 4744 03c7 00000000 		.4byte	0
 4745 03cb 00000000 		.4byte	0
 4746              	.LLST14:
 4747 03cf 18000000 		.4byte	.LVL118
 4748 03d3 54000000 		.4byte	.LVL129
 4749 03d7 0200     		.2byte	0x2
 4750 03d9 30       		.byte	0x30
 4751 03da 9F       		.byte	0x9f
 4752 03db 54000000 		.4byte	.LVL129
 4753 03df 5A000000 		.4byte	.LVL130
 4754 03e3 0200     		.2byte	0x2
 4755 03e5 31       		.byte	0x31
 4756 03e6 9F       		.byte	0x9f
 4757 03e7 5A000000 		.4byte	.LVL130
 4758 03eb 6E000000 		.4byte	.LVL131
 4759 03ef 0200     		.2byte	0x2
 4760 03f1 32       		.byte	0x32
 4761 03f2 9F       		.byte	0x9f
 4762 03f3 6E000000 		.4byte	.LVL131
 4763 03f7 74000000 		.4byte	.LVL132
 4764 03fb 0200     		.2byte	0x2
 4765 03fd 33       		.byte	0x33
 4766 03fe 9F       		.byte	0x9f
 4767 03ff 74000000 		.4byte	.LVL132
 4768 0403 82000000 		.4byte	.LVL133
 4769 0407 0200     		.2byte	0x2
 4770 0409 34       		.byte	0x34
 4771 040a 9F       		.byte	0x9f
 4772 040b 82000000 		.4byte	.LVL133
 4773 040f 88000000 		.4byte	.LVL134
 4774 0413 0200     		.2byte	0x2
 4775 0415 35       		.byte	0x35
 4776 0416 9F       		.byte	0x9f
 4777 0417 88000000 		.4byte	.LVL134
 4778 041b B0000000 		.4byte	.LVL140
 4779 041f 0200     		.2byte	0x2
 4780 0421 36       		.byte	0x36
 4781 0422 9F       		.byte	0x9f
 4782 0423 B0000000 		.4byte	.LVL140
 4783 0427 C0000000 		.4byte	.LVL142
 4784 042b 0100     		.2byte	0x1
 4785 042d 53       		.byte	0x53
 4786 042e C2000000 		.4byte	.LVL143
 4787 0432 F8000000 		.4byte	.LVL153
 4788 0436 0100     		.2byte	0x1
 4789 0438 53       		.byte	0x53
 4790 0439 F8000000 		.4byte	.LVL153
ARM GAS  C:\Users\Lenovo\AppData\Local\Temp\ccd7Og9t.s 			page 97


 4791 043d FA000000 		.4byte	.LVL154
 4792 0441 0100     		.2byte	0x1
 4793 0443 52       		.byte	0x52
 4794 0444 FA000000 		.4byte	.LVL154
 4795 0448 06010000 		.4byte	.LVL155
 4796 044c 0100     		.2byte	0x1
 4797 044e 53       		.byte	0x53
 4798 044f 08010000 		.4byte	.LVL156
 4799 0453 3E010000 		.4byte	.LVL166
 4800 0457 0100     		.2byte	0x1
 4801 0459 53       		.byte	0x53
 4802 045a 3E010000 		.4byte	.LVL166
 4803 045e 40010000 		.4byte	.LVL167
 4804 0462 0100     		.2byte	0x1
 4805 0464 52       		.byte	0x52
 4806 0465 40010000 		.4byte	.LVL167
 4807 0469 4C010000 		.4byte	.LVL168
 4808 046d 0100     		.2byte	0x1
 4809 046f 53       		.byte	0x53
 4810 0470 4E010000 		.4byte	.LVL169
 4811 0474 64010000 		.4byte	.LVL173
 4812 0478 0100     		.2byte	0x1
 4813 047a 53       		.byte	0x53
 4814 047b 64010000 		.4byte	.LVL173
 4815 047f 74010000 		.4byte	.LVL175
 4816 0483 0100     		.2byte	0x1
 4817 0485 55       		.byte	0x55
 4818 0486 74010000 		.4byte	.LVL175
 4819 048a 76010000 		.4byte	.LVL176
 4820 048e 0300     		.2byte	0x3
 4821 0490 75       		.byte	0x75
 4822 0491 7F       		.sleb128 -1
 4823 0492 9F       		.byte	0x9f
 4824 0493 76010000 		.4byte	.LVL176
 4825 0497 A2010000 		.4byte	.LVL184
 4826 049b 0100     		.2byte	0x1
 4827 049d 55       		.byte	0x55
 4828 049e A2010000 		.4byte	.LVL184
 4829 04a2 A6010000 		.4byte	.LVL185
 4830 04a6 0200     		.2byte	0x2
 4831 04a8 30       		.byte	0x30
 4832 04a9 9F       		.byte	0x9f
 4833 04aa A6010000 		.4byte	.LVL185
 4834 04ae A8010000 		.4byte	.LVL186
 4835 04b2 0200     		.2byte	0x2
 4836 04b4 32       		.byte	0x32
 4837 04b5 9F       		.byte	0x9f
 4838 04b6 00000000 		.4byte	0
 4839 04ba 00000000 		.4byte	0
 4840              	.LLST15:
 4841 04be 94000000 		.4byte	.LVL135
 4842 04c2 A0000000 		.4byte	.LVL136
 4843 04c6 0100     		.2byte	0x1
 4844 04c8 53       		.byte	0x53
 4845 04c9 A2000000 		.4byte	.LVL137
 4846 04cd A4000000 		.4byte	.LVL138
 4847 04d1 0100     		.2byte	0x1
ARM GAS  C:\Users\Lenovo\AppData\Local\Temp\ccd7Og9t.s 			page 98


 4848 04d3 53       		.byte	0x53
 4849 04d4 A6000000 		.4byte	.LVL139
 4850 04d8 B4000000 		.4byte	.LVL141
 4851 04dc 0100     		.2byte	0x1
 4852 04de 53       		.byte	0x53
 4853 04df B4000000 		.4byte	.LVL141
 4854 04e3 C4000000 		.4byte	.LVL144
 4855 04e7 0100     		.2byte	0x1
 4856 04e9 52       		.byte	0x52
 4857 04ea C6000000 		.4byte	.LVL145
 4858 04ee CA000000 		.4byte	.LVL146
 4859 04f2 0100     		.2byte	0x1
 4860 04f4 52       		.byte	0x52
 4861 04f5 D0000000 		.4byte	.LVL147
 4862 04f9 D4000000 		.4byte	.LVL148
 4863 04fd 0100     		.2byte	0x1
 4864 04ff 53       		.byte	0x53
 4865 0500 D4000000 		.4byte	.LVL148
 4866 0504 EC000000 		.4byte	.LVL151
 4867 0508 0100     		.2byte	0x1
 4868 050a 52       		.byte	0x52
 4869 050b EE000000 		.4byte	.LVL152
 4870 050f 0A010000 		.4byte	.LVL157
 4871 0513 0100     		.2byte	0x1
 4872 0515 52       		.byte	0x52
 4873 0516 0C010000 		.4byte	.LVL158
 4874 051a 10010000 		.4byte	.LVL159
 4875 051e 0100     		.2byte	0x1
 4876 0520 52       		.byte	0x52
 4877 0521 16010000 		.4byte	.LVL160
 4878 0525 1A010000 		.4byte	.LVL161
 4879 0529 0100     		.2byte	0x1
 4880 052b 53       		.byte	0x53
 4881 052c 1A010000 		.4byte	.LVL161
 4882 0530 32010000 		.4byte	.LVL164
 4883 0534 0100     		.2byte	0x1
 4884 0536 52       		.byte	0x52
 4885 0537 34010000 		.4byte	.LVL165
 4886 053b 50010000 		.4byte	.LVL170
 4887 053f 0100     		.2byte	0x1
 4888 0541 52       		.byte	0x52
 4889 0542 52010000 		.4byte	.LVL171
 4890 0546 56010000 		.4byte	.LVL172
 4891 054a 0100     		.2byte	0x1
 4892 054c 52       		.byte	0x52
 4893 054d 80010000 		.4byte	.LVL177
 4894 0551 84010000 		.4byte	.LVL179
 4895 0555 0200     		.2byte	0x2
 4896 0557 30       		.byte	0x30
 4897 0558 9F       		.byte	0x9f
 4898 0559 84010000 		.4byte	.LVL179
 4899 055d 92010000 		.4byte	.LVL181
 4900 0561 0100     		.2byte	0x1
 4901 0563 54       		.byte	0x54
 4902 0564 94010000 		.4byte	.LVL182
 4903 0568 A2010000 		.4byte	.LVL184
 4904 056c 0100     		.2byte	0x1
ARM GAS  C:\Users\Lenovo\AppData\Local\Temp\ccd7Og9t.s 			page 99


 4905 056e 54       		.byte	0x54
 4906 056f 00000000 		.4byte	0
 4907 0573 00000000 		.4byte	0
 4908              	.LLST16:
 4909 0577 18000000 		.4byte	.LVL118
 4910 057b D0000000 		.4byte	.LVL147
 4911 057f 0200     		.2byte	0x2
 4912 0581 30       		.byte	0x30
 4913 0582 9F       		.byte	0x9f
 4914 0583 D0000000 		.4byte	.LVL147
 4915 0587 E8000000 		.4byte	.LVL149
 4916 058b 0100     		.2byte	0x1
 4917 058d 50       		.byte	0x50
 4918 058e EA000000 		.4byte	.LVL150
 4919 0592 FA000000 		.4byte	.LVL154
 4920 0596 0100     		.2byte	0x1
 4921 0598 50       		.byte	0x50
 4922 0599 16010000 		.4byte	.LVL160
 4923 059d 2E010000 		.4byte	.LVL162
 4924 05a1 0100     		.2byte	0x1
 4925 05a3 50       		.byte	0x50
 4926 05a4 30010000 		.4byte	.LVL163
 4927 05a8 40010000 		.4byte	.LVL167
 4928 05ac 0100     		.2byte	0x1
 4929 05ae 50       		.byte	0x50
 4930 05af A2010000 		.4byte	.LVL184
 4931 05b3 A8010000 		.4byte	.LVL186
 4932 05b7 0200     		.2byte	0x2
 4933 05b9 30       		.byte	0x30
 4934 05ba 9F       		.byte	0x9f
 4935 05bb 00000000 		.4byte	0
 4936 05bf 00000000 		.4byte	0
 4937              	.LLST17:
 4938 05c3 18000000 		.4byte	.LVL118
 4939 05c7 38000000 		.4byte	.LVL124
 4940 05cb 0200     		.2byte	0x2
 4941 05cd 30       		.byte	0x30
 4942 05ce 9F       		.byte	0x9f
 4943 05cf 38000000 		.4byte	.LVL124
 4944 05d3 3A000000 		.4byte	.LVL125
 4945 05d7 0100     		.2byte	0x1
 4946 05d9 57       		.byte	0x57
 4947 05da 3A000000 		.4byte	.LVL125
 4948 05de 3C000000 		.4byte	.LVL126
 4949 05e2 0200     		.2byte	0x2
 4950 05e4 30       		.byte	0x30
 4951 05e5 9F       		.byte	0x9f
 4952 05e6 3C000000 		.4byte	.LVL126
 4953 05ea AC010000 		.4byte	.LVL187
 4954 05ee 0100     		.2byte	0x1
 4955 05f0 57       		.byte	0x57
 4956 05f1 00000000 		.4byte	0
 4957 05f5 00000000 		.4byte	0
 4958              	.LLST18:
 4959 05f9 00000000 		.4byte	.LVL188
 4960 05fd 0B000000 		.4byte	.LVL190-1
 4961 0601 0100     		.2byte	0x1
ARM GAS  C:\Users\Lenovo\AppData\Local\Temp\ccd7Og9t.s 			page 100


 4962 0603 50       		.byte	0x50
 4963 0604 0B000000 		.4byte	.LVL190-1
 4964 0608 24010000 		.4byte	.LFE66
 4965 060c 0400     		.2byte	0x4
 4966 060e F3       		.byte	0xf3
 4967 060f 01       		.uleb128 0x1
 4968 0610 50       		.byte	0x50
 4969 0611 9F       		.byte	0x9f
 4970 0612 00000000 		.4byte	0
 4971 0616 00000000 		.4byte	0
 4972              	.LLST19:
 4973 061a 0C000000 		.4byte	.LVL190
 4974 061e 14000000 		.4byte	.LVL191
 4975 0622 0100     		.2byte	0x1
 4976 0624 50       		.byte	0x50
 4977 0625 26000000 		.4byte	.LVL196
 4978 0629 28000000 		.4byte	.LVL197
 4979 062d 0100     		.2byte	0x1
 4980 062f 50       		.byte	0x50
 4981 0630 00000000 		.4byte	0
 4982 0634 00000000 		.4byte	0
 4983              	.LLST20:
 4984 0638 5A000000 		.4byte	.LVL200
 4985 063c 5E000000 		.4byte	.LVL201
 4986 0640 0200     		.2byte	0x2
 4987 0642 30       		.byte	0x30
 4988 0643 9F       		.byte	0x9f
 4989 0644 5E000000 		.4byte	.LVL201
 4990 0648 6E000000 		.4byte	.LVL203
 4991 064c 0100     		.2byte	0x1
 4992 064e 54       		.byte	0x54
 4993 064f 70000000 		.4byte	.LVL204
 4994 0653 7A000000 		.4byte	.LVL205
 4995 0657 0100     		.2byte	0x1
 4996 0659 54       		.byte	0x54
 4997 065a 8C000000 		.4byte	.LVL208
 4998 065e 90000000 		.4byte	.LVL209
 4999 0662 0200     		.2byte	0x2
 5000 0664 30       		.byte	0x30
 5001 0665 9F       		.byte	0x9f
 5002 0666 90000000 		.4byte	.LVL209
 5003 066a 98000000 		.4byte	.LVL211
 5004 066e 0100     		.2byte	0x1
 5005 0670 54       		.byte	0x54
 5006 0671 9A000000 		.4byte	.LVL212
 5007 0675 0A010000 		.4byte	.LVL214
 5008 0679 0100     		.2byte	0x1
 5009 067b 54       		.byte	0x54
 5010 067c 00000000 		.4byte	0
 5011 0680 00000000 		.4byte	0
 5012              	.LLST21:
 5013 0684 08000000 		.4byte	.LVL189
 5014 0688 24000000 		.4byte	.LVL195
 5015 068c 0200     		.2byte	0x2
 5016 068e 30       		.byte	0x30
 5017 068f 9F       		.byte	0x9f
 5018 0690 24000000 		.4byte	.LVL195
ARM GAS  C:\Users\Lenovo\AppData\Local\Temp\ccd7Og9t.s 			page 101


 5019 0694 26000000 		.4byte	.LVL196
 5020 0698 0100     		.2byte	0x1
 5021 069a 55       		.byte	0x55
 5022 069b 26000000 		.4byte	.LVL196
 5023 069f 28000000 		.4byte	.LVL197
 5024 06a3 0200     		.2byte	0x2
 5025 06a5 30       		.byte	0x30
 5026 06a6 9F       		.byte	0x9f
 5027 06a7 28000000 		.4byte	.LVL197
 5028 06ab 8C000000 		.4byte	.LVL208
 5029 06af 0100     		.2byte	0x1
 5030 06b1 55       		.byte	0x55
 5031 06b2 00000000 		.4byte	0
 5032 06b6 00000000 		.4byte	0
 5033              	.LLST22:
 5034 06ba 08000000 		.4byte	.LVL189
 5035 06be 80000000 		.4byte	.LVL207
 5036 06c2 0200     		.2byte	0x2
 5037 06c4 30       		.byte	0x30
 5038 06c5 9F       		.byte	0x9f
 5039 06c6 80000000 		.4byte	.LVL207
 5040 06ca 0A010000 		.4byte	.LVL214
 5041 06ce 0100     		.2byte	0x1
 5042 06d0 56       		.byte	0x56
 5043 06d1 00000000 		.4byte	0
 5044 06d5 00000000 		.4byte	0
 5045              	.LLST23:
 5046 06d9 80000000 		.4byte	.LVL207
 5047 06dd 0A010000 		.4byte	.LVL214
 5048 06e1 0800     		.2byte	0x8
 5049 06e3 76       		.byte	0x76
 5050 06e4 00       		.sleb128 0
 5051 06e5 08       		.byte	0x8
 5052 06e6 FF       		.byte	0xff
 5053 06e7 1A       		.byte	0x1a
 5054 06e8 31       		.byte	0x31
 5055 06e9 1C       		.byte	0x1c
 5056 06ea 9F       		.byte	0x9f
 5057 06eb 00000000 		.4byte	0
 5058 06ef 00000000 		.4byte	0
 5059              	.LLST24:
 5060 06f3 8C000000 		.4byte	.LVL208
 5061 06f7 0A010000 		.4byte	.LVL214
 5062 06fb 0200     		.2byte	0x2
 5063 06fd 75       		.byte	0x75
 5064 06fe 00       		.sleb128 0
 5065 06ff 00000000 		.4byte	0
 5066 0703 00000000 		.4byte	0
 5067              	.LLST25:
 5068 0707 00000000 		.4byte	.LVL215
 5069 070b 0B000000 		.4byte	.LVL217-1
 5070 070f 0100     		.2byte	0x1
 5071 0711 50       		.byte	0x50
 5072 0712 0B000000 		.4byte	.LVL217-1
 5073 0716 D4000000 		.4byte	.LFE67
 5074 071a 0400     		.2byte	0x4
 5075 071c F3       		.byte	0xf3
ARM GAS  C:\Users\Lenovo\AppData\Local\Temp\ccd7Og9t.s 			page 102


 5076 071d 01       		.uleb128 0x1
 5077 071e 50       		.byte	0x50
 5078 071f 9F       		.byte	0x9f
 5079 0720 00000000 		.4byte	0
 5080 0724 00000000 		.4byte	0
 5081              	.LLST26:
 5082 0728 0C000000 		.4byte	.LVL217
 5083 072c 0E000000 		.4byte	.LVL218
 5084 0730 0100     		.2byte	0x1
 5085 0732 50       		.byte	0x50
 5086 0733 00000000 		.4byte	0
 5087 0737 00000000 		.4byte	0
 5088              	.LLST27:
 5089 073b 5E000000 		.4byte	.LVL227
 5090 073f 62000000 		.4byte	.LVL228
 5091 0743 0200     		.2byte	0x2
 5092 0745 30       		.byte	0x30
 5093 0746 9F       		.byte	0x9f
 5094 0747 62000000 		.4byte	.LVL228
 5095 074b 72000000 		.4byte	.LVL230
 5096 074f 0100     		.2byte	0x1
 5097 0751 54       		.byte	0x54
 5098 0752 74000000 		.4byte	.LVL231
 5099 0756 8E000000 		.4byte	.LVL233
 5100 075a 0100     		.2byte	0x1
 5101 075c 54       		.byte	0x54
 5102 075d A0000000 		.4byte	.LVL236
 5103 0761 A4000000 		.4byte	.LVL237
 5104 0765 0200     		.2byte	0x2
 5105 0767 30       		.byte	0x30
 5106 0768 9F       		.byte	0x9f
 5107 0769 A4000000 		.4byte	.LVL237
 5108 076d AC000000 		.4byte	.LVL239
 5109 0771 0100     		.2byte	0x1
 5110 0773 54       		.byte	0x54
 5111 0774 AE000000 		.4byte	.LVL240
 5112 0778 D0000000 		.4byte	.LVL242
 5113 077c 0100     		.2byte	0x1
 5114 077e 54       		.byte	0x54
 5115 077f 00000000 		.4byte	0
 5116 0783 00000000 		.4byte	0
 5117              	.LLST28:
 5118 0787 08000000 		.4byte	.LVL216
 5119 078b 28000000 		.4byte	.LVL222
 5120 078f 0200     		.2byte	0x2
 5121 0791 30       		.byte	0x30
 5122 0792 9F       		.byte	0x9f
 5123 0793 28000000 		.4byte	.LVL222
 5124 0797 2A000000 		.4byte	.LVL223
 5125 079b 0100     		.2byte	0x1
 5126 079d 55       		.byte	0x55
 5127 079e 2A000000 		.4byte	.LVL223
 5128 07a2 2C000000 		.4byte	.LVL224
 5129 07a6 0200     		.2byte	0x2
 5130 07a8 30       		.byte	0x30
 5131 07a9 9F       		.byte	0x9f
 5132 07aa 2C000000 		.4byte	.LVL224
ARM GAS  C:\Users\Lenovo\AppData\Local\Temp\ccd7Og9t.s 			page 103


 5133 07ae 94000000 		.4byte	.LVL235
 5134 07b2 0100     		.2byte	0x1
 5135 07b4 55       		.byte	0x55
 5136 07b5 00000000 		.4byte	0
 5137 07b9 00000000 		.4byte	0
 5138              	.LLST29:
 5139 07bd 08000000 		.4byte	.LVL216
 5140 07c1 94000000 		.4byte	.LVL235
 5141 07c5 0200     		.2byte	0x2
 5142 07c7 30       		.byte	0x30
 5143 07c8 9F       		.byte	0x9f
 5144 07c9 94000000 		.4byte	.LVL235
 5145 07cd D0000000 		.4byte	.LVL242
 5146 07d1 0100     		.2byte	0x1
 5147 07d3 55       		.byte	0x55
 5148 07d4 00000000 		.4byte	0
 5149 07d8 00000000 		.4byte	0
 5150              	.LLST30:
 5151 07dc 94000000 		.4byte	.LVL235
 5152 07e0 D0000000 		.4byte	.LVL242
 5153 07e4 0800     		.2byte	0x8
 5154 07e6 75       		.byte	0x75
 5155 07e7 00       		.sleb128 0
 5156 07e8 08       		.byte	0x8
 5157 07e9 FF       		.byte	0xff
 5158 07ea 1A       		.byte	0x1a
 5159 07eb 31       		.byte	0x31
 5160 07ec 1C       		.byte	0x1c
 5161 07ed 9F       		.byte	0x9f
 5162 07ee 00000000 		.4byte	0
 5163 07f2 00000000 		.4byte	0
 5164              	.LLST31:
 5165 07f6 A0000000 		.4byte	.LVL236
 5166 07fa D0000000 		.4byte	.LVL242
 5167 07fe 0200     		.2byte	0x2
 5168 0800 76       		.byte	0x76
 5169 0801 00       		.sleb128 0
 5170 0802 00000000 		.4byte	0
 5171 0806 00000000 		.4byte	0
 5172              		.section	.debug_aranges,"",%progbits
 5173 0000 54000000 		.4byte	0x54
 5174 0004 0200     		.2byte	0x2
 5175 0006 00000000 		.4byte	.Ldebug_info0
 5176 000a 04       		.byte	0x4
 5177 000b 00       		.byte	0
 5178 000c 0000     		.2byte	0
 5179 000e 0000     		.2byte	0
 5180 0010 00000000 		.4byte	.LFB63
 5181 0014 2E000000 		.4byte	.LFE63-.LFB63
 5182 0018 00000000 		.4byte	.LFB64
 5183 001c 20010000 		.4byte	.LFE64-.LFB64
 5184 0020 00000000 		.4byte	.LFB68
 5185 0024 C8030000 		.4byte	.LFE68-.LFB68
 5186 0028 00000000 		.4byte	.LFB69
 5187 002c 14000000 		.4byte	.LFE69-.LFB69
 5188 0030 00000000 		.4byte	.LFB70
 5189 0034 26000000 		.4byte	.LFE70-.LFB70
ARM GAS  C:\Users\Lenovo\AppData\Local\Temp\ccd7Og9t.s 			page 104


 5190 0038 00000000 		.4byte	.LFB65
 5191 003c B4010000 		.4byte	.LFE65-.LFB65
 5192 0040 00000000 		.4byte	.LFB66
 5193 0044 24010000 		.4byte	.LFE66-.LFB66
 5194 0048 00000000 		.4byte	.LFB67
 5195 004c D4000000 		.4byte	.LFE67-.LFB67
 5196 0050 00000000 		.4byte	0
 5197 0054 00000000 		.4byte	0
 5198              		.section	.debug_ranges,"",%progbits
 5199              	.Ldebug_ranges0:
 5200 0000 00000000 		.4byte	.LFB63
 5201 0004 2E000000 		.4byte	.LFE63
 5202 0008 00000000 		.4byte	.LFB64
 5203 000c 20010000 		.4byte	.LFE64
 5204 0010 00000000 		.4byte	.LFB68
 5205 0014 C8030000 		.4byte	.LFE68
 5206 0018 00000000 		.4byte	.LFB69
 5207 001c 14000000 		.4byte	.LFE69
 5208 0020 00000000 		.4byte	.LFB70
 5209 0024 26000000 		.4byte	.LFE70
 5210 0028 00000000 		.4byte	.LFB65
 5211 002c B4010000 		.4byte	.LFE65
 5212 0030 00000000 		.4byte	.LFB66
 5213 0034 24010000 		.4byte	.LFE66
 5214 0038 00000000 		.4byte	.LFB67
 5215 003c D4000000 		.4byte	.LFE67
 5216 0040 00000000 		.4byte	0
 5217 0044 00000000 		.4byte	0
 5218              		.section	.debug_line,"",%progbits
 5219              	.Ldebug_line0:
 5220 0000 49050000 		.section	.debug_str,"MS",%progbits,1
 5220      02007301 
 5220      00000201 
 5220      FB0E0D00 
 5220      01010101 
 5221              	.LASF84:
 5222 0000 5055446E 		.ascii	"PUDn\000"
 5222      00
 5223              	.LASF169:
 5224 0005 43795764 		.ascii	"CyWdtClear\000"
 5224      74436C65 
 5224      617200
 5225              	.LASF134:
 5226 0010 64656369 		.ascii	"decimalVolume\000"
 5226      6D616C56 
 5226      6F6C756D 
 5226      6500
 5227              	.LASF147:
 5228 001e 50726576 		.ascii	"PrevStatePump\000"
 5228      53746174 
 5228      6550756D 
 5228      7000
 5229              	.LASF56:
 5230 002c 6D657373 		.ascii	"message\000"
 5230      61676500 
 5231              	.LASF155:
 5232 0034 73746174 		.ascii	"statePump\000"
ARM GAS  C:\Users\Lenovo\AppData\Local\Temp\ccd7Og9t.s 			page 105


 5232      6550756D 
 5232      7000
 5233              	.LASF72:
 5234 003e 62756666 		.ascii	"buffer\000"
 5234      657200
 5235              	.LASF133:
 5236 0045 64656369 		.ascii	"decimalMoney\000"
 5236      6D616C4D 
 5236      6F6E6579 
 5236      00
 5237              	.LASF34:
 5238 0052 73616C65 		.ascii	"salePerform\000"
 5238      50657266 
 5238      6F726D00 
 5239              	.LASF10:
 5240 005e 756E7369 		.ascii	"unsigned int\000"
 5240      676E6564 
 5240      20696E74 
 5240      00
 5241              	.LASF61:
 5242 006b 70726F64 		.ascii	"productMarket\000"
 5242      7563744D 
 5242      61726B65 
 5242      7400
 5243              	.LASF158:
 5244 0079 5072696E 		.ascii	"PrinterType\000"
 5244      74657254 
 5244      79706500 
 5245              	.LASF5:
 5246 0085 5F5F696E 		.ascii	"__int32_t\000"
 5246      7433325F 
 5246      7400
 5247              	.LASF54:
 5248 008f 666C6167 		.ascii	"flagLiftHandle\000"
 5248      4C696674 
 5248      48616E64 
 5248      6C6500
 5249              	.LASF89:
 5250 009e 50554D50 		.ascii	"PUMP_FAIL\000"
 5250      5F464149 
 5250      4C00
 5251              	.LASF139:
 5252 00a8 72657369 		.ascii	"residue\000"
 5252      64756500 
 5253              	.LASF22:
 5254 00b0 69645479 		.ascii	"idType\000"
 5254      706500
 5255              	.LASF154:
 5256 00b7 44444D6F 		.ascii	"DDMode\000"
 5256      646500
 5257              	.LASF98:
 5258 00be 6765745F 		.ascii	"get_position\000"
 5258      706F7369 
 5258      74696F6E 
 5258      00
 5259              	.LASF26:
 5260 00cb 73656C65 		.ascii	"selectedSale\000"
ARM GAS  C:\Users\Lenovo\AppData\Local\Temp\ccd7Og9t.s 			page 106


 5260      63746564 
 5260      53616C65 
 5260      00
 5261              	.LASF62:
 5262 00d8 7175616E 		.ascii	"quantityMarket\000"
 5262      74697479 
 5262      4D61726B 
 5262      657400
 5263              	.LASF111:
 5264 00e7 50756D70 		.ascii	"PumpDataReceive\000"
 5264      44617461 
 5264      52656365 
 5264      69766500 
 5265              	.LASF128:
 5266 00f7 666C6167 		.ascii	"flagPoint2\000"
 5266      506F696E 
 5266      743200
 5267              	.LASF100:
 5268 0102 67657453 		.ascii	"getSale\000"
 5268      616C6500 
 5269              	.LASF58:
 5270 010a 766F6C75 		.ascii	"volumeQuota\000"
 5270      6D655175 
 5270      6F746100 
 5271              	.LASF109:
 5272 0116 70726573 		.ascii	"preset\000"
 5272      657400
 5273              	.LASF90:
 5274 011d 50554D50 		.ascii	"PUMP_IDLE\000"
 5274      5F49444C 
 5274      4500
 5275              	.LASF16:
 5276 0127 666C6F61 		.ascii	"float\000"
 5276      7400
 5277              	.LASF110:
 5278 012d 53656E64 		.ascii	"SendComand\000"
 5278      436F6D61 
 5278      6E6400
 5279              	.LASF168:
 5280 0138 50756D70 		.ascii	"Pump_ClearRxBuffer\000"
 5280      5F436C65 
 5280      61725278 
 5280      42756666 
 5280      657200
 5281              	.LASF151:
 5282 014b 4D6F6E65 		.ascii	"MoneyDec\000"
 5282      79446563 
 5282      00
 5283              	.LASF81:
 5284 0154 686F7365 		.ascii	"hose\000"
 5284      00
 5285              	.LASF9:
 5286 0159 6C6F6E67 		.ascii	"long long unsigned int\000"
 5286      206C6F6E 
 5286      6720756E 
 5286      7369676E 
 5286      65642069 
ARM GAS  C:\Users\Lenovo\AppData\Local\Temp\ccd7Og9t.s 			page 107


 5287              	.LASF95:
 5288 0170 50554D50 		.ascii	"PUMP_FEOT\000"
 5288      5F46454F 
 5288      5400
 5289              	.LASF148:
 5290 017a 506C6174 		.ascii	"PlateRequest\000"
 5290      65526571 
 5290      75657374 
 5290      00
 5291              	.LASF44:
 5292 0187 746F7461 		.ascii	"totalVolumePrevious\000"
 5292      6C566F6C 
 5292      756D6550 
 5292      72657669 
 5292      6F757300 
 5293              	.LASF157:
 5294 019b 64696769 		.ascii	"digits\000"
 5294      747300
 5295              	.LASF88:
 5296 01a2 5F50554D 		.ascii	"_PUMP_STATES_\000"
 5296      505F5354 
 5296      41544553 
 5296      5F00
 5297              	.LASF136:
 5298 01b0 74696D65 		.ascii	"time\000"
 5298      00
 5299              	.LASF101:
 5300 01b5 72657476 		.ascii	"retval\000"
 5300      616C00
 5301              	.LASF108:
 5302 01bc 76616C75 		.ascii	"value\000"
 5302      6500
 5303              	.LASF37:
 5304 01c2 70726F64 		.ascii	"productType\000"
 5304      75637454 
 5304      79706500 
 5305              	.LASF23:
 5306 01ce 69645365 		.ascii	"idSerial\000"
 5306      7269616C 
 5306      00
 5307              	.LASF129:
 5308 01d7 70726F64 		.ascii	"productNumber\000"
 5308      7563744E 
 5308      756D6265 
 5308      7200
 5309              	.LASF40:
 5310 01e5 64617465 		.ascii	"dateDownHandle\000"
 5310      446F776E 
 5310      48616E64 
 5310      6C6500
 5311              	.LASF172:
 5312 01f4 433A5C55 		.ascii	"C:\\Users\\Lenovo\\Documents\\GitHub\\NSY-DH\\Works"
 5312      73657273 
 5312      5C4C656E 
 5312      6F766F5C 
 5312      446F6375 
 5313 0221 70616365 		.ascii	"pace01\\Design01.cydsn\000"
ARM GAS  C:\Users\Lenovo\AppData\Local\Temp\ccd7Og9t.s 			page 108


 5313      30315C44 
 5313      65736967 
 5313      6E30312E 
 5313      63796473 
 5314              	.LASF106:
 5315 0237 73696465 		.ascii	"side\000"
 5315      00
 5316              	.LASF138:
 5317 023c 73637265 		.ascii	"screen\000"
 5317      656E00
 5318              	.LASF166:
 5319 0243 50756D70 		.ascii	"Pump_GetRxBufferSize\000"
 5319      5F476574 
 5319      52784275 
 5319      66666572 
 5319      53697A65 
 5320              	.LASF50:
 5321 0258 6D696C65 		.ascii	"mileageSale\000"
 5321      61676553 
 5321      616C6500 
 5322              	.LASF70:
 5323 0264 666C6167 		.ascii	"flagChangePPU\000"
 5323      4368616E 
 5323      67655050 
 5323      5500
 5324              	.LASF171:
 5325 0272 2E5C7072 		.ascii	".\\protocol.c\000"
 5325      6F746F63 
 5325      6F6C2E63 
 5325      00
 5326              	.LASF102:
 5327 027f 5F426F6F 		.ascii	"_Bool\000"
 5327      6C00
 5328              	.LASF71:
 5329 0285 666C6167 		.ascii	"flagPrint\000"
 5329      5072696E 
 5329      7400
 5330              	.LASF121:
 5331 028f 666C6F77 		.ascii	"flowDisplay1\000"
 5331      44697370 
 5331      6C617931 
 5331      00
 5332              	.LASF122:
 5333 029c 666C6F77 		.ascii	"flowDisplay2\000"
 5333      44697370 
 5333      6C617932 
 5333      00
 5334              	.LASF123:
 5335 02a9 666C6F77 		.ascii	"flowDisplay3\000"
 5335      44697370 
 5335      6C617933 
 5335      00
 5336              	.LASF124:
 5337 02b6 666C6F77 		.ascii	"flowDisplay4\000"
 5337      44697370 
 5337      6C617934 
 5337      00
ARM GAS  C:\Users\Lenovo\AppData\Local\Temp\ccd7Og9t.s 			page 109


 5338              	.LASF60:
 5339 02c3 73657269 		.ascii	"serialMarket\000"
 5339      616C4D61 
 5339      726B6574 
 5339      00
 5340              	.LASF74:
 5341 02d0 746F7461 		.ascii	"totalsHandle\000"
 5341      6C734861 
 5341      6E646C65 
 5341      00
 5342              	.LASF36:
 5343 02dd 70726573 		.ascii	"presetValue\000"
 5343      65745661 
 5343      6C756500 
 5344              	.LASF159:
 5345 02e9 7475726E 		.ascii	"turn\000"
 5345      00
 5346              	.LASF115:
 5347 02ee 50756D70 		.ascii	"Pump_rxBuffer\000"
 5347      5F727842 
 5347      75666665 
 5347      7200
 5348              	.LASF51:
 5349 02fc 6964656E 		.ascii	"identySale\000"
 5349      74795361 
 5349      6C6500
 5350              	.LASF33:
 5351 0307 73616C65 		.ascii	"saleType\000"
 5351      54797065 
 5351      00
 5352              	.LASF93:
 5353 0310 50554D50 		.ascii	"PUMP_BUSY\000"
 5353      5F425553 
 5353      5900
 5354              	.LASF114:
 5355 031a 50756D70 		.ascii	"PumpHoseActiveState\000"
 5355      486F7365 
 5355      41637469 
 5355      76655374 
 5355      61746500 
 5356              	.LASF31:
 5357 032e 76616C75 		.ascii	"valueKeys\000"
 5357      654B6579 
 5357      7300
 5358              	.LASF20:
 5359 0338 63686172 		.ascii	"char\000"
 5359      00
 5360              	.LASF150:
 5361 033d 436F6E76 		.ascii	"ConversionFactor\000"
 5361      65727369 
 5361      6F6E4661 
 5361      63746F72 
 5361      00
 5362              	.LASF96:
 5363 034e 50554D50 		.ascii	"PUMP_STOPPED\000"
 5363      5F53544F 
 5363      50504544 
ARM GAS  C:\Users\Lenovo\AppData\Local\Temp\ccd7Og9t.s 			page 110


 5363      00
 5364              	.LASF125:
 5365 035b 6E756D62 		.ascii	"numberKeys1\000"
 5365      65724B65 
 5365      79733100 
 5366              	.LASF126:
 5367 0367 6E756D62 		.ascii	"numberKeys2\000"
 5367      65724B65 
 5367      79733200 
 5368              	.LASF119:
 5369 0373 636F756E 		.ascii	"countBeagleTX\000"
 5369      74426561 
 5369      676C6554 
 5369      5800
 5370              	.LASF113:
 5371 0381 42756666 		.ascii	"BufferSize\000"
 5371      65725369 
 5371      7A6500
 5372              	.LASF165:
 5373 038c 43794465 		.ascii	"CyDelay\000"
 5373      6C617900 
 5374              	.LASF97:
 5375 0394 6765745F 		.ascii	"get_state\000"
 5375      73746174 
 5375      6500
 5376              	.LASF14:
 5377 039e 75696E74 		.ascii	"uint16\000"
 5377      313600
 5378              	.LASF86:
 5379 03a5 4C52436E 		.ascii	"LRCn\000"
 5379      00
 5380              	.LASF137:
 5381 03aa 64617465 		.ascii	"date\000"
 5381      00
 5382              	.LASF11:
 5383 03af 75696E74 		.ascii	"uint8_t\000"
 5383      385F7400 
 5384              	.LASF167:
 5385 03b7 50756D70 		.ascii	"Pump_ReadRxData\000"
 5385      5F526561 
 5385      64527844 
 5385      61746100 
 5386              	.LASF53:
 5387 03c7 666C6167 		.ascii	"flagPayment\000"
 5387      5061796D 
 5387      656E7400 
 5388              	.LASF19:
 5389 03d3 63686172 		.ascii	"char8\000"
 5389      3800
 5390              	.LASF59:
 5391 03d9 70707551 		.ascii	"ppuQuota\000"
 5391      756F7461 
 5391      00
 5392              	.LASF46:
 5393 03e2 746F7461 		.ascii	"totalMoneyAfter\000"
 5393      6C4D6F6E 
 5393      65794166 
ARM GAS  C:\Users\Lenovo\AppData\Local\Temp\ccd7Og9t.s 			page 111


 5393      74657200 
 5394              	.LASF57:
 5395 03f2 6D6F6E65 		.ascii	"moneyQuota\000"
 5395      7951756F 
 5395      746100
 5396              	.LASF69:
 5397 03fd 7072696E 		.ascii	"printers\000"
 5397      74657273 
 5397      00
 5398              	.LASF76:
 5399 0406 6D6F6E65 		.ascii	"moneySale\000"
 5399      7953616C 
 5399      6500
 5400              	.LASF8:
 5401 0410 6C6F6E67 		.ascii	"long long int\000"
 5401      206C6F6E 
 5401      6720696E 
 5401      7400
 5402              	.LASF78:
 5403 041e 70707553 		.ascii	"ppuSale\000"
 5403      616C6500 
 5404              	.LASF117:
 5405 0426 636F756E 		.ascii	"countAnimation1\000"
 5405      74416E69 
 5405      6D617469 
 5405      6F6E3100 
 5406              	.LASF156:
 5407 0436 4E756D50 		.ascii	"NumPositions\000"
 5407      6F736974 
 5407      696F6E73 
 5407      00
 5408              	.LASF146:
 5409 0443 73746174 		.ascii	"stateBeagleSoft\000"
 5409      65426561 
 5409      676C6553 
 5409      6F667400 
 5410              	.LASF45:
 5411 0453 746F7461 		.ascii	"totalPPUPrevious\000"
 5411      6C505055 
 5411      50726576 
 5411      696F7573 
 5411      00
 5412              	.LASF118:
 5413 0464 636F756E 		.ascii	"countAnimation2\000"
 5413      74416E69 
 5413      6D617469 
 5413      6F6E3200 
 5414              	.LASF66:
 5415 0474 746F7461 		.ascii	"totalMarket\000"
 5415      6C4D6172 
 5415      6B657400 
 5416              	.LASF42:
 5417 0480 74696D65 		.ascii	"timeDownHandle\000"
 5417      446F776E 
 5417      48616E64 
 5417      6C6500
 5418              	.LASF32:
ARM GAS  C:\Users\Lenovo\AppData\Local\Temp\ccd7Og9t.s 			page 112


 5419 048f 76656869 		.ascii	"vehicleType\000"
 5419      636C6554 
 5419      79706500 
 5420              	.LASF91:
 5421 049b 50554D50 		.ascii	"PUMP_CALLING\000"
 5421      5F43414C 
 5421      4C494E47 
 5421      00
 5422              	.LASF52:
 5423 04a8 666C6167 		.ascii	"flagKeyboard\000"
 5423      4B657962 
 5423      6F617264 
 5423      00
 5424              	.LASF112:
 5425 04b5 50756D70 		.ascii	"PumpCompleteConfiguration\000"
 5425      436F6D70 
 5425      6C657465 
 5425      436F6E66 
 5425      69677572 
 5426              	.LASF15:
 5427 04cf 75696E74 		.ascii	"uint32\000"
 5427      333200
 5428              	.LASF92:
 5429 04d6 50554D50 		.ascii	"PUMP_AUTHORIZED\000"
 5429      5F415554 
 5429      484F5249 
 5429      5A454400 
 5430              	.LASF145:
 5431 04e6 666C6167 		.ascii	"flagResetMux\000"
 5431      52657365 
 5431      744D7578 
 5431      00
 5432              	.LASF173:
 5433 04f3 50756D70 		.ascii	"PumpIsInValidState\000"
 5433      4973496E 
 5433      56616C69 
 5433      64537461 
 5433      746500
 5434              	.LASF48:
 5435 0506 746F7461 		.ascii	"totalPPUAfter\000"
 5435      6C505055 
 5435      41667465 
 5435      7200
 5436              	.LASF29:
 5437 0514 6B657962 		.ascii	"keyboardWayToPay\000"
 5437      6F617264 
 5437      57617954 
 5437      6F506179 
 5437      00
 5438              	.LASF132:
 5439 0525 70707578 		.ascii	"ppux10\000"
 5439      313000
 5440              	.LASF43:
 5441 052c 746F7461 		.ascii	"totalMoneyPrevious\000"
 5441      6C4D6F6E 
 5441      65795072 
 5441      6576696F 
ARM GAS  C:\Users\Lenovo\AppData\Local\Temp\ccd7Og9t.s 			page 113


 5441      757300
 5442              	.LASF127:
 5443 053f 666C6167 		.ascii	"flagPoint1\000"
 5443      506F696E 
 5443      743100
 5444              	.LASF27:
 5445 054a 6D6F6E65 		.ascii	"moneySelectedSale\000"
 5445      7953656C 
 5445      65637465 
 5445      6453616C 
 5445      6500
 5446              	.LASF135:
 5447 055c 73796D62 		.ascii	"symbols\000"
 5447      6F6C7300 
 5448              	.LASF49:
 5449 0564 6C696365 		.ascii	"licenceSale\000"
 5449      6E636553 
 5449      616C6500 
 5450              	.LASF68:
 5451 0570 70726963 		.ascii	"priceConsign\000"
 5451      65436F6E 
 5451      7369676E 
 5451      00
 5452              	.LASF2:
 5453 057d 73686F72 		.ascii	"short int\000"
 5453      7420696E 
 5453      7400
 5454              	.LASF6:
 5455 0587 6C6F6E67 		.ascii	"long int\000"
 5455      20696E74 
 5455      00
 5456              	.LASF152:
 5457 0590 566F6C44 		.ascii	"VolDec\000"
 5457      656300
 5458              	.LASF116:
 5459 0597 49544D5F 		.ascii	"ITM_RxBuffer\000"
 5459      52784275 
 5459      66666572 
 5459      00
 5460              	.LASF141:
 5461 05a4 6C6F636B 		.ascii	"lockTurn\000"
 5461      5475726E 
 5461      00
 5462              	.LASF55:
 5463 05ad 666C6167 		.ascii	"flagEndSale\000"
 5463      456E6453 
 5463      616C6500 
 5464              	.LASF39:
 5465 05b9 64617465 		.ascii	"dateLiftHandle\000"
 5465      4C696674 
 5465      48616E64 
 5465      6C6500
 5466              	.LASF87:
 5467 05c8 5F434F4E 		.ascii	"_CONTROL_WORDS_\000"
 5467      54524F4C 
 5467      5F574F52 
 5467      44535F00 
ARM GAS  C:\Users\Lenovo\AppData\Local\Temp\ccd7Og9t.s 			page 114


 5468              	.LASF82:
 5469 05d8 686F7365 		.ascii	"hoseNumber\000"
 5469      4E756D62 
 5469      657200
 5470              	.LASF161:
 5471 05e3 62756666 		.ascii	"bufferDisplay2\000"
 5471      65724469 
 5471      73706C61 
 5471      793200
 5472              	.LASF162:
 5473 05f2 62756666 		.ascii	"bufferDisplay3\000"
 5473      65724469 
 5473      73706C61 
 5473      793300
 5474              	.LASF163:
 5475 0601 62756666 		.ascii	"bufferDisplay4\000"
 5475      65724469 
 5475      73706C61 
 5475      793400
 5476              	.LASF4:
 5477 0610 5F5F7569 		.ascii	"__uint8_t\000"
 5477      6E74385F 
 5477      7400
 5478              	.LASF144:
 5479 061a 70617373 		.ascii	"passwordSeller\000"
 5479      776F7264 
 5479      53656C6C 
 5479      657200
 5480              	.LASF47:
 5481 0629 746F7461 		.ascii	"totalVolumeAfter\000"
 5481      6C566F6C 
 5481      756D6541 
 5481      66746572 
 5481      00
 5482              	.LASF149:
 5483 063a 556E6974 		.ascii	"UnitType\000"
 5483      54797065 
 5483      00
 5484              	.LASF18:
 5485 0643 75696E74 		.ascii	"uint64\000"
 5485      363400
 5486              	.LASF130:
 5487 064a 64656C61 		.ascii	"delayPicture1\000"
 5487      79506963 
 5487      74757265 
 5487      3100
 5488              	.LASF131:
 5489 0658 64656C61 		.ascii	"delayPicture2\000"
 5489      79506963 
 5489      74757265 
 5489      3200
 5490              	.LASF38:
 5491 0666 73746174 		.ascii	"stateMux\000"
 5491      654D7578 
 5491      00
 5492              	.LASF21:
 5493 066f 73697A65 		.ascii	"sizetype\000"
ARM GAS  C:\Users\Lenovo\AppData\Local\Temp\ccd7Og9t.s 			page 115


 5493      74797065 
 5493      00
 5494              	.LASF7:
 5495 0678 6C6F6E67 		.ascii	"long unsigned int\000"
 5495      20756E73 
 5495      69676E65 
 5495      6420696E 
 5495      7400
 5496              	.LASF153:
 5497 068a 50505544 		.ascii	"PPUDec\000"
 5497      656300
 5498              	.LASF80:
 5499 0691 61637469 		.ascii	"activeHose\000"
 5499      7665486F 
 5499      736500
 5500              	.LASF67:
 5501 069c 666C6167 		.ascii	"flagProductmarket\000"
 5501      50726F64 
 5501      7563746D 
 5501      61726B65 
 5501      7400
 5502              	.LASF12:
 5503 06ae 696E7433 		.ascii	"int32_t\000"
 5503      325F7400 
 5504              	.LASF85:
 5505 06b6 5052446E 		.ascii	"PRDn\000"
 5505      00
 5506              	.LASF103:
 5507 06bb 4765744C 		.ascii	"GetLRC\000"
 5507      524300
 5508              	.LASF63:
 5509 06c2 7175616E 		.ascii	"quantAvailableMark\000"
 5509      74417661 
 5509      696C6162 
 5509      6C654D61 
 5509      726B00
 5510              	.LASF25:
 5511 06d5 666C6167 		.ascii	"flagWayToPayMixed\000"
 5511      57617954 
 5511      6F506179 
 5511      4D697865 
 5511      6400
 5512              	.LASF1:
 5513 06e7 756E7369 		.ascii	"unsigned char\000"
 5513      676E6564 
 5513      20636861 
 5513      7200
 5514              	.LASF164:
 5515 06f5 50756D70 		.ascii	"Pump_PutChar\000"
 5515      5F507574 
 5515      43686172 
 5515      00
 5516              	.LASF170:
 5517 0702 474E5520 		.ascii	"GNU C 4.9.3 20150303 (release) [ARM/embedded-4_9-br"
 5517      4320342E 
 5517      392E3320 
 5517      32303135 
ARM GAS  C:\Users\Lenovo\AppData\Local\Temp\ccd7Og9t.s 			page 116


 5517      30333033 
 5518 0735 616E6368 		.ascii	"anch revision 221220] -mcpu=cortex-m3 -mthumb -g -O"
 5518      20726576 
 5518      6973696F 
 5518      6E203232 
 5518      31323230 
 5519 0768 67202D66 		.ascii	"g -ffunction-sections -ffat-lto-objects\000"
 5519      66756E63 
 5519      74696F6E 
 5519      2D736563 
 5519      74696F6E 
 5520              	.LASF30:
 5521 0790 61757468 		.ascii	"authorizationFlag\000"
 5521      6F72697A 
 5521      6174696F 
 5521      6E466C61 
 5521      6700
 5522              	.LASF64:
 5523 07a2 70726963 		.ascii	"priceTotalMarket\000"
 5523      65546F74 
 5523      616C4D61 
 5523      726B6574 
 5523      00
 5524              	.LASF142:
 5525 07b3 69645365 		.ascii	"idSeller\000"
 5525      6C6C6572 
 5525      00
 5526              	.LASF83:
 5527 07bc 70756D70 		.ascii	"pump\000"
 5527      00
 5528              	.LASF94:
 5529 07c1 50554D50 		.ascii	"PUMP_PEOT\000"
 5529      5F50454F 
 5529      5400
 5530              	.LASF140:
 5531 07cb 74656D70 		.ascii	"temporal\000"
 5531      6F72616C 
 5531      00
 5532              	.LASF99:
 5533 07d4 73746174 		.ascii	"state\000"
 5533      6500
 5534              	.LASF35:
 5535 07da 70726573 		.ascii	"presetType\000"
 5535      65745479 
 5535      706500
 5536              	.LASF65:
 5537 07e5 70726963 		.ascii	"priceUnitMarket\000"
 5537      65556E69 
 5537      744D6172 
 5537      6B657400 
 5538              	.LASF143:
 5539 07f5 74797065 		.ascii	"typeIdSeller\000"
 5539      49645365 
 5539      6C6C6572 
 5539      00
 5540              	.LASF77:
 5541 0802 766F6C75 		.ascii	"volumeSale\000"
ARM GAS  C:\Users\Lenovo\AppData\Local\Temp\ccd7Og9t.s 			page 117


 5541      6D655361 
 5541      6C6500
 5542              	.LASF105:
 5543 080d 50726573 		.ascii	"PresetData\000"
 5543      65744461 
 5543      746100
 5544              	.LASF0:
 5545 0818 7369676E 		.ascii	"signed char\000"
 5545      65642063 
 5545      68617200 
 5546              	.LASF3:
 5547 0824 73686F72 		.ascii	"short unsigned int\000"
 5547      7420756E 
 5547      7369676E 
 5547      65642069 
 5547      6E7400
 5548              	.LASF120:
 5549 0837 636F756E 		.ascii	"countPump\000"
 5549      7450756D 
 5549      7000
 5550              	.LASF79:
 5551 0841 70726F64 		.ascii	"productSale\000"
 5551      75637453 
 5551      616C6500 
 5552              	.LASF13:
 5553 084d 75696E74 		.ascii	"uint8\000"
 5553      3800
 5554              	.LASF17:
 5555 0853 646F7562 		.ascii	"double\000"
 5555      6C6500
 5556              	.LASF24:
 5557 085a 77617954 		.ascii	"wayToPay\000"
 5557      6F506179 
 5557      00
 5558              	.LASF104:
 5559 0863 5F706275 		.ascii	"_pbuffer\000"
 5559      66666572 
 5559      00
 5560              	.LASF107:
 5561 086c 67726164 		.ascii	"grade\000"
 5561      6500
 5562              	.LASF41:
 5563 0872 74696D65 		.ascii	"timeLiftHandle\000"
 5563      4C696674 
 5563      48616E64 
 5563      6C6500
 5564              	.LASF75:
 5565 0881 70707541 		.ascii	"ppuAuthorized\000"
 5565      7574686F 
 5565      72697A65 
 5565      6400
 5566              	.LASF28:
 5567 088f 73657269 		.ascii	"serialSelectedSale\000"
 5567      616C5365 
 5567      6C656374 
 5567      65645361 
 5567      6C6500
ARM GAS  C:\Users\Lenovo\AppData\Local\Temp\ccd7Og9t.s 			page 118


 5568              	.LASF73:
 5569 08a2 706F7369 		.ascii	"position\000"
 5569      74696F6E 
 5569      00
 5570              	.LASF160:
 5571 08ab 62756666 		.ascii	"bufferDisplay1\000"
 5571      65724469 
 5571      73706C61 
 5571      793100
 5572              		.ident	"GCC: (GNU Tools for ARM Embedded Processors) 4.9.3 20150303 (release) [ARM/embedded-4_9-br
