ARM GAS  C:\Users\RECEPC~1\AppData\Local\Temp\cc8eh59p.s 			page 1


   1              		.syntax unified
   2              		.cpu cortex-m3
   3              		.fpu softvfp
   4              		.eabi_attribute 20, 1
   5              		.eabi_attribute 21, 1
   6              		.eabi_attribute 23, 3
   7              		.eabi_attribute 24, 1
   8              		.eabi_attribute 25, 1
   9              		.eabi_attribute 26, 1
  10              		.eabi_attribute 30, 1
  11              		.eabi_attribute 34, 1
  12              		.eabi_attribute 18, 4
  13              		.thumb
  14              		.file	"protocol.c"
  15              		.text
  16              	.Ltext0:
  17              		.cfi_sections	.debug_frame
  18              		.section	.text.get_state,"ax",%progbits
  19              		.align	2
  20              		.global	get_state
  21              		.thumb
  22              		.thumb_func
  23              		.type	get_state, %function
  24              	get_state:
  25              	.LFB63:
  26              		.file 1 ".\\protocol.c"
   1:.\protocol.c  **** /*
   2:.\protocol.c  **** ***************************************************************************************************
   3:.\protocol.c  **** *                                         MUX ADVANCE CODE
   4:.\protocol.c  **** *
   5:.\protocol.c  **** *                             (c) Copyright 2016; Sistemas Insepet LTDA
   6:.\protocol.c  **** *
   7:.\protocol.c  **** *               All rights reserved.  Protected by international copyright laws.
   8:.\protocol.c  **** *               Knowledge of the source code may NOT be used to develop a similar product.
   9:.\protocol.c  **** *               Please help us continue to provide the Embedded community with the finest
  10:.\protocol.c  **** *               software available.  Your honesty is greatly appreciated.
  11:.\protocol.c  **** ***************************************************************************************************
  12:.\protocol.c  **** */
  13:.\protocol.c  **** 
  14:.\protocol.c  **** /*
  15:.\protocol.c  **** ***************************************************************************************************
  16:.\protocol.c  **** *
  17:.\protocol.c  **** *                                             MUX ADVANCE CODE
  18:.\protocol.c  **** *
  19:.\protocol.c  **** *                                             CYPRESS PSoC5LP
  20:.\protocol.c  **** *                                                with the
  21:.\protocol.c  **** *                                            CY8C5969AXI-LP035
  22:.\protocol.c  **** *
  23:.\protocol.c  **** * Filename      : protocol.c
  24:.\protocol.c  **** * Version       : V1.00
  25:.\protocol.c  **** * Programmer(s) : 
  26:.\protocol.c  ****                   
  27:.\protocol.c  **** ***************************************************************************************************
  28:.\protocol.c  **** */
  29:.\protocol.c  **** 
  30:.\protocol.c  **** 
  31:.\protocol.c  **** /*
ARM GAS  C:\Users\RECEPC~1\AppData\Local\Temp\cc8eh59p.s 			page 2


  32:.\protocol.c  **** ***************************************************************************************************
  33:.\protocol.c  **** *                                             INCLUDE FILES
  34:.\protocol.c  **** ***************************************************************************************************
  35:.\protocol.c  **** */
  36:.\protocol.c  **** #include <device.h>
  37:.\protocol.c  **** #include <variables.h>
  38:.\protocol.c  **** #include <stdbool.h>
  39:.\protocol.c  **** uint8_t GetLRC(char8 *_pbuffer);
  40:.\protocol.c  **** /*
  41:.\protocol.c  **** ***************************************************************************************************
  42:.\protocol.c  **** *                                    uint8 get_state(uint8 pos)
  43:.\protocol.c  **** *
  44:.\protocol.c  **** * Description : 
  45:.\protocol.c  **** *               
  46:.\protocol.c  **** *
  47:.\protocol.c  **** * Argument(s) : none
  48:.\protocol.c  **** *
  49:.\protocol.c  **** * Return(s)   : none
  50:.\protocol.c  **** *
  51:.\protocol.c  **** * Caller(s)   : 
  52:.\protocol.c  **** *
  53:.\protocol.c  **** * Note(s)     : none.
  54:.\protocol.c  **** ***************************************************************************************************
  55:.\protocol.c  **** */
  56:.\protocol.c  **** 
  57:.\protocol.c  **** uint8 get_state(uint8 pos){
  27              		.loc 1 57 0
  28              		.cfi_startproc
  29              		@ args = 0, pretend = 0, frame = 0
  30              		@ frame_needed = 0, uses_anonymous_args = 0
  31              	.LVL0:
  32 0000 10B5     		push	{r4, lr}
  33              		.cfi_def_cfa_offset 8
  34              		.cfi_offset 4, -8
  35              		.cfi_offset 14, -4
  36 0002 0446     		mov	r4, r0
  58:.\protocol.c  ****     uint8 state;
  59:.\protocol.c  ****     Pump_ClearRxBuffer();
  37              		.loc 1 59 0
  38 0004 FFF7FEFF 		bl	Pump_ClearRxBuffer
  39              	.LVL1:
  60:.\protocol.c  ****     Pump_PutChar(pos);
  40              		.loc 1 60 0
  41 0008 2046     		mov	r0, r4
  42 000a FFF7FEFF 		bl	Pump_PutChar
  43              	.LVL2:
  61:.\protocol.c  ****     CyDelay(60);
  44              		.loc 1 61 0
  45 000e 3C20     		movs	r0, #60
  46 0010 FFF7FEFF 		bl	CyDelay
  47              	.LVL3:
  62:.\protocol.c  ****     if(Pump_GetRxBufferSize()>=1){
  48              		.loc 1 62 0
  49 0014 FFF7FEFF 		bl	Pump_GetRxBufferSize
  50              	.LVL4:
  51 0018 38B1     		cbz	r0, .L3
  63:.\protocol.c  ****         state=(Pump_ReadRxData()&0xF0)>>4;
ARM GAS  C:\Users\RECEPC~1\AppData\Local\Temp\cc8eh59p.s 			page 3


  52              		.loc 1 63 0
  53 001a FFF7FEFF 		bl	Pump_ReadRxData
  54              	.LVL5:
  55 001e C0F30714 		ubfx	r4, r0, #4, #8
  56              	.LVL6:
  64:.\protocol.c  ****         //state = Pump_ReadRxData();
  65:.\protocol.c  ****         Pump_ClearRxBuffer();
  57              		.loc 1 65 0
  58 0022 FFF7FEFF 		bl	Pump_ClearRxBuffer
  59              	.LVL7:
  66:.\protocol.c  ****         return state;
  60              		.loc 1 66 0
  61 0026 2046     		mov	r0, r4
  62 0028 10BD     		pop	{r4, pc}
  63              	.LVL8:
  64              	.L3:
  67:.\protocol.c  ****     }
  68:.\protocol.c  ****     else{
  69:.\protocol.c  ****         return 0;
  65              		.loc 1 69 0
  66 002a 0020     		movs	r0, #0
  70:.\protocol.c  ****     }
  71:.\protocol.c  **** }
  67              		.loc 1 71 0
  68 002c 10BD     		pop	{r4, pc}
  69              		.cfi_endproc
  70              	.LFE63:
  71              		.size	get_state, .-get_state
  72 002e 00BF     		.section	.text.get_position,"ax",%progbits
  73              		.align	2
  74              		.global	get_position
  75              		.thumb
  76              		.thumb_func
  77              		.type	get_position, %function
  78              	get_position:
  79              	.LFB64:
  72:.\protocol.c  **** 
  73:.\protocol.c  **** /*
  74:.\protocol.c  **** ***************************************************************************************************
  75:.\protocol.c  **** *                                         uint8 get_position(void)
  76:.\protocol.c  **** *
  77:.\protocol.c  **** * Description : 
  78:.\protocol.c  **** *               
  79:.\protocol.c  **** *
  80:.\protocol.c  **** * Argument(s) : none
  81:.\protocol.c  **** *
  82:.\protocol.c  **** * Return(s)   : none
  83:.\protocol.c  **** *
  84:.\protocol.c  **** * Caller(s)   : 
  85:.\protocol.c  **** *
  86:.\protocol.c  **** * Note(s)     : none.
  87:.\protocol.c  **** ***************************************************************************************************
  88:.\protocol.c  **** */
  89:.\protocol.c  **** uint8 get_position(void){
  80              		.loc 1 89 0
  81              		.cfi_startproc
  82              		@ args = 0, pretend = 0, frame = 0
ARM GAS  C:\Users\RECEPC~1\AppData\Local\Temp\cc8eh59p.s 			page 4


  83              		@ frame_needed = 0, uses_anonymous_args = 0
  84 0000 10B5     		push	{r4, lr}
  85              		.cfi_def_cfa_offset 8
  86              		.cfi_offset 4, -8
  87              		.cfi_offset 14, -4
  90:.\protocol.c  ****     uint8 x;            
  91:.\protocol.c  ****     side.a.dir=0xff;
  88              		.loc 1 91 0
  89 0002 464B     		ldr	r3, .L20
  90 0004 FF22     		movs	r2, #255
  91 0006 1A70     		strb	r2, [r3]
  92:.\protocol.c  ****     side.b.dir=0xff;
  92              		.loc 1 92 0
  93 0008 83F80021 		strb	r2, [r3, #256]
  93:.\protocol.c  ****     side.c.dir=0xff;
  94              		.loc 1 93 0
  95 000c 83F80022 		strb	r2, [r3, #512]
  94:.\protocol.c  ****     side.d.dir=0xff;
  96              		.loc 1 94 0
  97 0010 83F80023 		strb	r2, [r3, #768]
  98              	.LVL9:
  95:.\protocol.c  ****     for(x=1;x<=16;x++){
  99              		.loc 1 95 0
 100 0014 0124     		movs	r4, #1
 101 0016 54E0     		b	.L6
 102              	.LVL10:
 103              	.L11:
  96:.\protocol.c  ****         Pump_PutChar(x);
 104              		.loc 1 96 0
 105 0018 2046     		mov	r0, r4
 106 001a FFF7FEFF 		bl	Pump_PutChar
 107              	.LVL11:
  97:.\protocol.c  ****         CyDelay(100);           
 108              		.loc 1 97 0
 109 001e 6420     		movs	r0, #100
 110 0020 FFF7FEFF 		bl	CyDelay
 111              	.LVL12:
  98:.\protocol.c  ****         
  99:.\protocol.c  ****         if((Pump_GetRxBufferSize()>=1)&&(side.a.dir==0xff)){
 112              		.loc 1 99 0
 113 0024 FFF7FEFF 		bl	Pump_GetRxBufferSize
 114              	.LVL13:
 115 0028 38B1     		cbz	r0, .L7
 116              		.loc 1 99 0 is_stmt 0 discriminator 1
 117 002a 3C4B     		ldr	r3, .L20
 118 002c 1B78     		ldrb	r3, [r3]	@ zero_extendqisi2
 119 002e FF2B     		cmp	r3, #255
 120 0030 03D1     		bne	.L7
 100:.\protocol.c  ****            side.a.dir=x;	
 121              		.loc 1 100 0 is_stmt 1
 122 0032 3A4B     		ldr	r3, .L20
 123 0034 1C70     		strb	r4, [r3]
 101:.\protocol.c  ****            Pump_ClearRxBuffer();
 124              		.loc 1 101 0
 125 0036 FFF7FEFF 		bl	Pump_ClearRxBuffer
 126              	.LVL14:
 127              	.L7:
ARM GAS  C:\Users\RECEPC~1\AppData\Local\Temp\cc8eh59p.s 			page 5


 102:.\protocol.c  ****         }
 103:.\protocol.c  ****         if((Pump_GetRxBufferSize()>=1)&&(x!=side.a.dir)&&(side.b.dir==0xff)){
 128              		.loc 1 103 0
 129 003a FFF7FEFF 		bl	Pump_GetRxBufferSize
 130              	.LVL15:
 131 003e 68B1     		cbz	r0, .L8
 132              		.loc 1 103 0 is_stmt 0 discriminator 1
 133 0040 364B     		ldr	r3, .L20
 134 0042 1B78     		ldrb	r3, [r3]	@ zero_extendqisi2
 135 0044 A342     		cmp	r3, r4
 136 0046 09D0     		beq	.L8
 137              		.loc 1 103 0 discriminator 2
 138 0048 344B     		ldr	r3, .L20
 139 004a 93F80031 		ldrb	r3, [r3, #256]	@ zero_extendqisi2
 140 004e FF2B     		cmp	r3, #255
 141 0050 04D1     		bne	.L8
 104:.\protocol.c  ****            side.b.dir=x;
 142              		.loc 1 104 0 is_stmt 1
 143 0052 324B     		ldr	r3, .L20
 144 0054 83F80041 		strb	r4, [r3, #256]
 105:.\protocol.c  ****            Pump_ClearRxBuffer();
 145              		.loc 1 105 0
 146 0058 FFF7FEFF 		bl	Pump_ClearRxBuffer
 147              	.LVL16:
 148              	.L8:
 106:.\protocol.c  ****         }
 107:.\protocol.c  ****         if((Pump_GetRxBufferSize()>=1)&&(x!=side.a.dir)&&(x!=side.b.dir)&&(side.c.dir==0xff)){
 149              		.loc 1 107 0
 150 005c FFF7FEFF 		bl	Pump_GetRxBufferSize
 151              	.LVL17:
 152 0060 90B1     		cbz	r0, .L9
 153              		.loc 1 107 0 is_stmt 0 discriminator 1
 154 0062 2E4B     		ldr	r3, .L20
 155 0064 1B78     		ldrb	r3, [r3]	@ zero_extendqisi2
 156 0066 A342     		cmp	r3, r4
 157 0068 0ED0     		beq	.L9
 158              		.loc 1 107 0 discriminator 2
 159 006a 2C4B     		ldr	r3, .L20
 160 006c 93F80031 		ldrb	r3, [r3, #256]	@ zero_extendqisi2
 161 0070 A342     		cmp	r3, r4
 162 0072 09D0     		beq	.L9
 163              		.loc 1 107 0 discriminator 3
 164 0074 294B     		ldr	r3, .L20
 165 0076 93F80032 		ldrb	r3, [r3, #512]	@ zero_extendqisi2
 166 007a FF2B     		cmp	r3, #255
 167 007c 04D1     		bne	.L9
 108:.\protocol.c  ****            side.c.dir=x;
 168              		.loc 1 108 0 is_stmt 1
 169 007e 274B     		ldr	r3, .L20
 170 0080 83F80042 		strb	r4, [r3, #512]
 109:.\protocol.c  ****            Pump_ClearRxBuffer();
 171              		.loc 1 109 0
 172 0084 FFF7FEFF 		bl	Pump_ClearRxBuffer
 173              	.LVL18:
 174              	.L9:
 110:.\protocol.c  ****         }
 111:.\protocol.c  ****         if((Pump_GetRxBufferSize()>=1)&&(x!=side.a.dir)&&(x!=side.b.dir)&&(x!=side.c.dir)&&(side.d.
ARM GAS  C:\Users\RECEPC~1\AppData\Local\Temp\cc8eh59p.s 			page 6


 175              		.loc 1 111 0
 176 0088 FFF7FEFF 		bl	Pump_GetRxBufferSize
 177              	.LVL19:
 178 008c B8B1     		cbz	r0, .L10
 179              		.loc 1 111 0 is_stmt 0 discriminator 1
 180 008e 234B     		ldr	r3, .L20
 181 0090 1B78     		ldrb	r3, [r3]	@ zero_extendqisi2
 182 0092 A342     		cmp	r3, r4
 183 0094 13D0     		beq	.L10
 184              		.loc 1 111 0 discriminator 2
 185 0096 214B     		ldr	r3, .L20
 186 0098 93F80031 		ldrb	r3, [r3, #256]	@ zero_extendqisi2
 187 009c A342     		cmp	r3, r4
 188 009e 0ED0     		beq	.L10
 189              		.loc 1 111 0 discriminator 3
 190 00a0 1E4B     		ldr	r3, .L20
 191 00a2 93F80032 		ldrb	r3, [r3, #512]	@ zero_extendqisi2
 192 00a6 A342     		cmp	r3, r4
 193 00a8 09D0     		beq	.L10
 194              		.loc 1 111 0 discriminator 4
 195 00aa 1C4B     		ldr	r3, .L20
 196 00ac 93F80033 		ldrb	r3, [r3, #768]	@ zero_extendqisi2
 197 00b0 FF2B     		cmp	r3, #255
 198 00b2 04D1     		bne	.L10
 112:.\protocol.c  ****            side.d.dir=x;
 199              		.loc 1 112 0 is_stmt 1
 200 00b4 194B     		ldr	r3, .L20
 201 00b6 83F80043 		strb	r4, [r3, #768]
 113:.\protocol.c  ****            Pump_ClearRxBuffer();
 202              		.loc 1 113 0
 203 00ba FFF7FEFF 		bl	Pump_ClearRxBuffer
 204              	.LVL20:
 205              	.L10:
  95:.\protocol.c  ****         Pump_PutChar(x);
 206              		.loc 1 95 0 discriminator 2
 207 00be 0134     		adds	r4, r4, #1
 208              	.LVL21:
 209 00c0 E4B2     		uxtb	r4, r4
 210              	.LVL22:
 211              	.L6:
  95:.\protocol.c  ****         Pump_PutChar(x);
 212              		.loc 1 95 0 is_stmt 0 discriminator 1
 213 00c2 102C     		cmp	r4, #16
 214 00c4 A8D9     		bls	.L11
 114:.\protocol.c  ****         }
 115:.\protocol.c  ****                         
 116:.\protocol.c  ****     }
 117:.\protocol.c  ****     if((side.a.dir!=0xff)&&(side.b.dir!=0xff)&&(side.c.dir!=0xff)&&(side.d.dir!=0xff)){
 215              		.loc 1 117 0 is_stmt 1
 216 00c6 154B     		ldr	r3, .L20
 217 00c8 1B78     		ldrb	r3, [r3]	@ zero_extendqisi2
 218 00ca FF2B     		cmp	r3, #255
 219 00cc 0ED0     		beq	.L12
 220              		.loc 1 117 0 is_stmt 0 discriminator 1
 221 00ce 134A     		ldr	r2, .L20
 222 00d0 92F80021 		ldrb	r2, [r2, #256]	@ zero_extendqisi2
 223 00d4 FF2A     		cmp	r2, #255
ARM GAS  C:\Users\RECEPC~1\AppData\Local\Temp\cc8eh59p.s 			page 7


 224 00d6 09D0     		beq	.L12
 225              		.loc 1 117 0 discriminator 2
 226 00d8 104A     		ldr	r2, .L20
 227 00da 92F80022 		ldrb	r2, [r2, #512]	@ zero_extendqisi2
 228 00de FF2A     		cmp	r2, #255
 229 00e0 04D0     		beq	.L12
 230              		.loc 1 117 0 discriminator 3
 231 00e2 0E4A     		ldr	r2, .L20
 232 00e4 92F80023 		ldrb	r2, [r2, #768]	@ zero_extendqisi2
 233 00e8 FF2A     		cmp	r2, #255
 234 00ea 0FD1     		bne	.L15
 235              	.L12:
 118:.\protocol.c  ****         return 4;
 119:.\protocol.c  ****     }
 120:.\protocol.c  ****     if((side.a.dir!=0xff)&&(side.b.dir!=0xff)){
 236              		.loc 1 120 0 is_stmt 1
 237 00ec FF2B     		cmp	r3, #255
 238 00ee 04D0     		beq	.L14
 239              		.loc 1 120 0 is_stmt 0 discriminator 1
 240 00f0 0A4A     		ldr	r2, .L20
 241 00f2 92F80021 		ldrb	r2, [r2, #256]	@ zero_extendqisi2
 242 00f6 FF2A     		cmp	r2, #255
 243 00f8 0AD1     		bne	.L16
 244              	.L14:
 121:.\protocol.c  ****         return 2;
 122:.\protocol.c  ****     }
 123:.\protocol.c  ****     else{
 124:.\protocol.c  ****         if((side.a.dir!=0xff)||(side.b.dir!=0xff)){
 245              		.loc 1 124 0 is_stmt 1
 246 00fa FF2B     		cmp	r3, #255
 247 00fc 0AD1     		bne	.L17
 248              		.loc 1 124 0 is_stmt 0 discriminator 1
 249 00fe 074B     		ldr	r3, .L20
 250 0100 93F80031 		ldrb	r3, [r3, #256]	@ zero_extendqisi2
 251 0104 FF2B     		cmp	r3, #255
 252 0106 07D0     		beq	.L18
 125:.\protocol.c  ****             return 1;
 253              		.loc 1 125 0 is_stmt 1
 254 0108 0120     		movs	r0, #1
 255 010a 10BD     		pop	{r4, pc}
 256              	.LVL23:
 257              	.L15:
 118:.\protocol.c  ****         return 4;
 258              		.loc 1 118 0
 259 010c 0420     		movs	r0, #4
 260 010e 10BD     		pop	{r4, pc}
 261              	.LVL24:
 262              	.L16:
 121:.\protocol.c  ****         return 2;
 263              		.loc 1 121 0
 264 0110 0220     		movs	r0, #2
 265 0112 10BD     		pop	{r4, pc}
 266              	.LVL25:
 267              	.L17:
 268              		.loc 1 125 0
 269 0114 0120     		movs	r0, #1
 270 0116 10BD     		pop	{r4, pc}
ARM GAS  C:\Users\RECEPC~1\AppData\Local\Temp\cc8eh59p.s 			page 8


 271              	.LVL26:
 272              	.L18:
 126:.\protocol.c  ****         }
 127:.\protocol.c  ****         else{
 128:.\protocol.c  ****             return 0;
 273              		.loc 1 128 0
 274 0118 0020     		movs	r0, #0
 129:.\protocol.c  ****         }
 130:.\protocol.c  ****     }
 131:.\protocol.c  **** }
 275              		.loc 1 131 0
 276 011a 10BD     		pop	{r4, pc}
 277              	.LVL27:
 278              	.L21:
 279              		.align	2
 280              	.L20:
 281 011c 00000000 		.word	side
 282              		.cfi_endproc
 283              	.LFE64:
 284              		.size	get_position, .-get_position
 285              		.section	.text.PumpIsInValidState,"ax",%progbits
 286              		.align	2
 287              		.global	PumpIsInValidState
 288              		.thumb
 289              		.thumb_func
 290              		.type	PumpIsInValidState, %function
 291              	PumpIsInValidState:
 292              	.LFB66:
 132:.\protocol.c  **** 
 133:.\protocol.c  **** 
 134:.\protocol.c  **** 
 135:.\protocol.c  **** uint8 PumpCompleteConfiguration( uint8 side){   
 136:.\protocol.c  ****     uint8 state,x;
 137:.\protocol.c  ****     char8 SendComand[9];
 138:.\protocol.c  ****     char8 PumpDataReceive =0;    
 139:.\protocol.c  ****     
 140:.\protocol.c  ****     uint8 BufferSize = 0;
 141:.\protocol.c  **** ///////////////////////////////////////////////////////////////////////////////////////////////////
 142:.\protocol.c  ****     state = get_state(side);
 143:.\protocol.c  ****     if(state == 0x06){
 144:.\protocol.c  ****         Pump_PutChar(0x20|side);
 145:.\protocol.c  ****         CyDelay(50);
 146:.\protocol.c  ****         PumpDataReceive = Pump_ReadRxData();
 147:.\protocol.c  ****     }
 148:.\protocol.c  ****     Pump_ClearRxBuffer();
 149:.\protocol.c  ****     if(PumpDataReceive == (0xd0|side)){    
 150:.\protocol.c  ****         SendComand[0] = SOM; //Start Of Message    
 151:.\protocol.c  ****         SendComand[1] = (0xE9);//Data Length
 152:.\protocol.c  ****         SendComand[2] = (0xFE);//Special Functions Next (0xB0 0xB0 0xBE)
 153:.\protocol.c  ****         SendComand[3] = (0xEE);//Complete Pump Configuration Request (sf1)
 154:.\protocol.c  ****         SendComand[4] = (0xE0);//Complete Pump Configuration Request (sf2)
 155:.\protocol.c  ****         SendComand[5] = (0xE0);//Complete Pump Configuration Request (sf3)
 156:.\protocol.c  ****         SendComand[6] = (0xFB);
 157:.\protocol.c  ****         SendComand[7] = GetLRC(SendComand);
 158:.\protocol.c  ****         SendComand[8] = (EOM);
 159:.\protocol.c  ****         for(x=0; x<=8;x++){
 160:.\protocol.c  ****             Pump_PutChar(SendComand[x]);
ARM GAS  C:\Users\RECEPC~1\AppData\Local\Temp\cc8eh59p.s 			page 9


 161:.\protocol.c  ****         } 
 162:.\protocol.c  ****         CyDelay(200);
 163:.\protocol.c  ****     }
 164:.\protocol.c  ****     BufferSize =Pump_GetRxBufferSize();
 165:.\protocol.c  ****     char8 buffer[BufferSize];
 166:.\protocol.c  ****     for(x=0;x<=BufferSize;x++){
 167:.\protocol.c  ****        buffer[x]=Pump_ReadRxData(); 
 168:.\protocol.c  ****     }
 169:.\protocol.c  ****     Pump_ClearRxBuffer();
 170:.\protocol.c  **** ///////////////////////////////////////////////////////////////////////////////////////////////////
 171:.\protocol.c  ****     UnitType            = buffer [10] &0x0F;
 172:.\protocol.c  ****     ConversionFactor    = buffer [12] &0x0F;
 173:.\protocol.c  ****     MoneyDec            = buffer [14] &0x0F;
 174:.\protocol.c  ****     VolDec              = buffer [16] &0x0F;
 175:.\protocol.c  ****     PPUDec              = buffer [18] &0x0F;
 176:.\protocol.c  ****     DDMode              = buffer [20] &0x0F;
 177:.\protocol.c  ****     
 178:.\protocol.c  ****     return 0;
 179:.\protocol.c  **** } 
 180:.\protocol.c  **** 
 181:.\protocol.c  **** bool PumpIsInValidState(state)
 182:.\protocol.c  **** {
 293              		.loc 1 182 0
 294              		.cfi_startproc
 295              		@ args = 0, pretend = 0, frame = 0
 296              		@ frame_needed = 0, uses_anonymous_args = 0
 297              		@ link register save eliminated.
 298              	.LVL28:
 183:.\protocol.c  ****     bool retval = false;    
 184:.\protocol.c  ****     switch(state)
 299              		.loc 1 184 0
 300 0000 30B1     		cbz	r0, .L25
 301 0002 0028     		cmp	r0, #0
 302 0004 02DB     		blt	.L23
 303 0006 831F     		subs	r3, r0, #6
 304 0008 062B     		cmp	r3, #6
 305 000a 01D9     		bls	.L25
 306              	.L23:
 183:.\protocol.c  ****     bool retval = false;    
 307              		.loc 1 183 0
 308 000c 0020     		movs	r0, #0
 309              	.LVL29:
 310 000e 7047     		bx	lr
 311              	.LVL30:
 312              	.L25:
 185:.\protocol.c  ****     {
 186:.\protocol.c  ****         case PUMP_IDLE:
 187:.\protocol.c  ****         case PUMP_CALLING:
 188:.\protocol.c  ****         case PUMP_AUTHORIZED:
 189:.\protocol.c  ****         case PUMP_BUSY:
 190:.\protocol.c  ****         case PUMP_PEOT:
 191:.\protocol.c  ****         case PUMP_FEOT:
 192:.\protocol.c  ****         case PUMP_STOPPED:
 193:.\protocol.c  ****         case PUMP_FAIL:
 194:.\protocol.c  ****             retval = true;
 313              		.loc 1 194 0
 314 0010 0120     		movs	r0, #1
ARM GAS  C:\Users\RECEPC~1\AppData\Local\Temp\cc8eh59p.s 			page 10


 315              	.LVL31:
 195:.\protocol.c  ****             break;
 196:.\protocol.c  ****     }
 197:.\protocol.c  ****     return retval;
 198:.\protocol.c  **** }
 316              		.loc 1 198 0
 317 0012 7047     		bx	lr
 318              		.cfi_endproc
 319              	.LFE66:
 320              		.size	PumpIsInValidState, .-PumpIsInValidState
 321              		.section	.text.GetLRC,"ax",%progbits
 322              		.align	2
 323              		.global	GetLRC
 324              		.thumb
 325              		.thumb_func
 326              		.type	GetLRC, %function
 327              	GetLRC:
 328              	.LFB67:
 199:.\protocol.c  **** 
 200:.\protocol.c  **** 
 201:.\protocol.c  **** 
 202:.\protocol.c  **** uint8_t GetLRC(char8 *_pbuffer)
 203:.\protocol.c  **** {
 329              		.loc 1 203 0
 330              		.cfi_startproc
 331              		@ args = 0, pretend = 0, frame = 0
 332              		@ frame_needed = 0, uses_anonymous_args = 0
 333              		@ link register save eliminated.
 334              	.LVL32:
 204:.\protocol.c  ****     uint8_t lrc = 0;
 335              		.loc 1 204 0
 336 0000 0021     		movs	r1, #0
 205:.\protocol.c  ****     while(*_pbuffer != 0xFB)
 337              		.loc 1 205 0
 338 0002 04E0     		b	.L27
 339              	.LVL33:
 340              	.L28:
 206:.\protocol.c  ****     {
 207:.\protocol.c  ****         lrc += (*_pbuffer & 0x0F);
 341              		.loc 1 207 0
 342 0004 03F00F03 		and	r3, r3, #15
 343 0008 0B44     		add	r3, r3, r1
 344 000a D9B2     		uxtb	r1, r3
 345              	.LVL34:
 208:.\protocol.c  ****         _pbuffer++;
 346              		.loc 1 208 0
 347 000c 0130     		adds	r0, r0, #1
 348              	.LVL35:
 349              	.L27:
 205:.\protocol.c  ****     while(*_pbuffer != 0xFB)
 350              		.loc 1 205 0
 351 000e 0378     		ldrb	r3, [r0]	@ zero_extendqisi2
 352 0010 FB2B     		cmp	r3, #251
 353 0012 F7D1     		bne	.L28
 209:.\protocol.c  ****     }
 210:.\protocol.c  ****     lrc += (*_pbuffer & 0x0F);
 354              		.loc 1 210 0
ARM GAS  C:\Users\RECEPC~1\AppData\Local\Temp\cc8eh59p.s 			page 11


 355 0014 03F00F02 		and	r2, r3, #15
 356 0018 8818     		adds	r0, r1, r2
 357              	.LVL36:
 211:.\protocol.c  ****     return (((~lrc + 1) & 0x0F) | 0xE0);
 358              		.loc 1 211 0
 359 001a 4042     		negs	r0, r0
 360              	.LVL37:
 361 001c 00F00F00 		and	r0, r0, #15
 362              	.LVL38:
 212:.\protocol.c  **** }
 363              		.loc 1 212 0
 364 0020 40F0E000 		orr	r0, r0, #224
 365 0024 7047     		bx	lr
 366              		.cfi_endproc
 367              	.LFE67:
 368              		.size	GetLRC, .-GetLRC
 369 0026 00BF     		.section	.text.PumpCompleteConfiguration,"ax",%progbits
 370              		.align	2
 371              		.global	PumpCompleteConfiguration
 372              		.thumb
 373              		.thumb_func
 374              		.type	PumpCompleteConfiguration, %function
 375              	PumpCompleteConfiguration:
 376              	.LFB65:
 135:.\protocol.c  ****     uint8 state,x;
 377              		.loc 1 135 0
 378              		.cfi_startproc
 379              		@ args = 0, pretend = 0, frame = 16
 380              		@ frame_needed = 1, uses_anonymous_args = 0
 381              	.LVL39:
 382 0000 F0B5     		push	{r4, r5, r6, r7, lr}
 383              		.cfi_def_cfa_offset 20
 384              		.cfi_offset 4, -20
 385              		.cfi_offset 5, -16
 386              		.cfi_offset 6, -12
 387              		.cfi_offset 7, -8
 388              		.cfi_offset 14, -4
 389 0002 85B0     		sub	sp, sp, #20
 390              		.cfi_def_cfa_offset 40
 391 0004 00AF     		add	r7, sp, #0
 392              		.cfi_def_cfa_register 7
 393 0006 0446     		mov	r4, r0
 394              	.LVL40:
 142:.\protocol.c  ****     if(state == 0x06){
 395              		.loc 1 142 0
 396 0008 FFF7FEFF 		bl	get_state
 397              	.LVL41:
 143:.\protocol.c  ****         Pump_PutChar(0x20|side);
 398              		.loc 1 143 0
 399 000c 0628     		cmp	r0, #6
 400 000e 0AD1     		bne	.L36
 144:.\protocol.c  ****         CyDelay(50);
 401              		.loc 1 144 0
 402 0010 44F02000 		orr	r0, r4, #32
 403              	.LVL42:
 404 0014 FFF7FEFF 		bl	Pump_PutChar
 405              	.LVL43:
ARM GAS  C:\Users\RECEPC~1\AppData\Local\Temp\cc8eh59p.s 			page 12


 145:.\protocol.c  ****         PumpDataReceive = Pump_ReadRxData();
 406              		.loc 1 145 0
 407 0018 3220     		movs	r0, #50
 408 001a FFF7FEFF 		bl	CyDelay
 409              	.LVL44:
 146:.\protocol.c  ****     }
 410              		.loc 1 146 0
 411 001e FFF7FEFF 		bl	Pump_ReadRxData
 412              	.LVL45:
 413 0022 0546     		mov	r5, r0
 414              	.LVL46:
 415 0024 00E0     		b	.L30
 416              	.LVL47:
 417              	.L36:
 138:.\protocol.c  ****     
 418              		.loc 1 138 0
 419 0026 0025     		movs	r5, #0
 420              	.LVL48:
 421              	.L30:
 148:.\protocol.c  ****     if(PumpDataReceive == (0xd0|side)){    
 422              		.loc 1 148 0
 423 0028 FFF7FEFF 		bl	Pump_ClearRxBuffer
 424              	.LVL49:
 149:.\protocol.c  ****         SendComand[0] = SOM; //Start Of Message    
 425              		.loc 1 149 0
 426 002c 44F0D004 		orr	r4, r4, #208
 427 0030 AC42     		cmp	r4, r5
 428 0032 22D1     		bne	.L31
 150:.\protocol.c  ****         SendComand[1] = (0xE9);//Data Length
 429              		.loc 1 150 0
 430 0034 FF23     		movs	r3, #255
 431 0036 3B71     		strb	r3, [r7, #4]
 151:.\protocol.c  ****         SendComand[2] = (0xFE);//Special Functions Next (0xB0 0xB0 0xBE)
 432              		.loc 1 151 0
 433 0038 E923     		movs	r3, #233
 434 003a 7B71     		strb	r3, [r7, #5]
 152:.\protocol.c  ****         SendComand[3] = (0xEE);//Complete Pump Configuration Request (sf1)
 435              		.loc 1 152 0
 436 003c FE23     		movs	r3, #254
 437 003e BB71     		strb	r3, [r7, #6]
 153:.\protocol.c  ****         SendComand[4] = (0xE0);//Complete Pump Configuration Request (sf2)
 438              		.loc 1 153 0
 439 0040 EE23     		movs	r3, #238
 440 0042 FB71     		strb	r3, [r7, #7]
 154:.\protocol.c  ****         SendComand[5] = (0xE0);//Complete Pump Configuration Request (sf3)
 441              		.loc 1 154 0
 442 0044 E023     		movs	r3, #224
 443 0046 3B72     		strb	r3, [r7, #8]
 155:.\protocol.c  ****         SendComand[6] = (0xFB);
 444              		.loc 1 155 0
 445 0048 7B72     		strb	r3, [r7, #9]
 156:.\protocol.c  ****         SendComand[7] = GetLRC(SendComand);
 446              		.loc 1 156 0
 447 004a FB23     		movs	r3, #251
 448 004c BB72     		strb	r3, [r7, #10]
 157:.\protocol.c  ****         SendComand[8] = (EOM);
 449              		.loc 1 157 0
ARM GAS  C:\Users\RECEPC~1\AppData\Local\Temp\cc8eh59p.s 			page 13


 450 004e 381D     		adds	r0, r7, #4
 451 0050 FFF7FEFF 		bl	GetLRC
 452              	.LVL50:
 453 0054 F872     		strb	r0, [r7, #11]
 158:.\protocol.c  ****         for(x=0; x<=8;x++){
 454              		.loc 1 158 0
 455 0056 F023     		movs	r3, #240
 456 0058 3B73     		strb	r3, [r7, #12]
 457              	.LVL51:
 159:.\protocol.c  ****             Pump_PutChar(SendComand[x]);
 458              		.loc 1 159 0
 459 005a 0024     		movs	r4, #0
 460 005c 08E0     		b	.L32
 461              	.LVL52:
 462              	.L33:
 160:.\protocol.c  ****         } 
 463              		.loc 1 160 0 discriminator 3
 464 005e 07F11003 		add	r3, r7, #16
 465 0062 2344     		add	r3, r3, r4
 466 0064 13F80C0C 		ldrb	r0, [r3, #-12]	@ zero_extendqisi2
 467 0068 FFF7FEFF 		bl	Pump_PutChar
 468              	.LVL53:
 159:.\protocol.c  ****             Pump_PutChar(SendComand[x]);
 469              		.loc 1 159 0 discriminator 3
 470 006c 0134     		adds	r4, r4, #1
 471              	.LVL54:
 472 006e E4B2     		uxtb	r4, r4
 473              	.LVL55:
 474              	.L32:
 159:.\protocol.c  ****             Pump_PutChar(SendComand[x]);
 475              		.loc 1 159 0 is_stmt 0 discriminator 1
 476 0070 082C     		cmp	r4, #8
 477 0072 F4D9     		bls	.L33
 162:.\protocol.c  ****     }
 478              		.loc 1 162 0 is_stmt 1
 479 0074 C820     		movs	r0, #200
 480 0076 FFF7FEFF 		bl	CyDelay
 481              	.LVL56:
 482              	.L31:
 164:.\protocol.c  ****     char8 buffer[BufferSize];
 483              		.loc 1 164 0
 484 007a FFF7FEFF 		bl	Pump_GetRxBufferSize
 485              	.LVL57:
 486 007e C6B2     		uxtb	r6, r0
 487              	.LVL58:
 165:.\protocol.c  ****     for(x=0;x<=BufferSize;x++){
 488              		.loc 1 165 0
 489 0080 F31D     		adds	r3, r6, #7
 490 0082 23F00703 		bic	r3, r3, #7
 491 0086 ADEB030D 		sub	sp, sp, r3
 492 008a 6D46     		mov	r5, sp
 493              	.LVL59:
 166:.\protocol.c  ****        buffer[x]=Pump_ReadRxData(); 
 494              		.loc 1 166 0
 495 008c 0024     		movs	r4, #0
 496 008e 04E0     		b	.L34
 497              	.LVL60:
ARM GAS  C:\Users\RECEPC~1\AppData\Local\Temp\cc8eh59p.s 			page 14


 498              	.L35:
 167:.\protocol.c  ****     }
 499              		.loc 1 167 0 discriminator 3
 500 0090 FFF7FEFF 		bl	Pump_ReadRxData
 501              	.LVL61:
 502 0094 2855     		strb	r0, [r5, r4]
 166:.\protocol.c  ****        buffer[x]=Pump_ReadRxData(); 
 503              		.loc 1 166 0 discriminator 3
 504 0096 0134     		adds	r4, r4, #1
 505              	.LVL62:
 506 0098 E4B2     		uxtb	r4, r4
 507              	.LVL63:
 508              	.L34:
 166:.\protocol.c  ****        buffer[x]=Pump_ReadRxData(); 
 509              		.loc 1 166 0 is_stmt 0 discriminator 1
 510 009a B442     		cmp	r4, r6
 511 009c F8D9     		bls	.L35
 169:.\protocol.c  **** ///////////////////////////////////////////////////////////////////////////////////////////////////
 512              		.loc 1 169 0 is_stmt 1
 513 009e FFF7FEFF 		bl	Pump_ClearRxBuffer
 514              	.LVL64:
 171:.\protocol.c  ****     ConversionFactor    = buffer [12] &0x0F;
 515              		.loc 1 171 0
 516 00a2 AB7A     		ldrb	r3, [r5, #10]	@ zero_extendqisi2
 517 00a4 03F00F03 		and	r3, r3, #15
 518 00a8 0F4A     		ldr	r2, .L38
 519 00aa 1370     		strb	r3, [r2]
 172:.\protocol.c  ****     MoneyDec            = buffer [14] &0x0F;
 520              		.loc 1 172 0
 521 00ac 2B7B     		ldrb	r3, [r5, #12]	@ zero_extendqisi2
 522 00ae 03F00F03 		and	r3, r3, #15
 523 00b2 0E4A     		ldr	r2, .L38+4
 524 00b4 1370     		strb	r3, [r2]
 173:.\protocol.c  ****     VolDec              = buffer [16] &0x0F;
 525              		.loc 1 173 0
 526 00b6 AB7B     		ldrb	r3, [r5, #14]	@ zero_extendqisi2
 527 00b8 03F00F03 		and	r3, r3, #15
 528 00bc 0C4A     		ldr	r2, .L38+8
 529 00be 1370     		strb	r3, [r2]
 174:.\protocol.c  ****     PPUDec              = buffer [18] &0x0F;
 530              		.loc 1 174 0
 531 00c0 2B7C     		ldrb	r3, [r5, #16]	@ zero_extendqisi2
 532 00c2 03F00F03 		and	r3, r3, #15
 533 00c6 0B4A     		ldr	r2, .L38+12
 534 00c8 1370     		strb	r3, [r2]
 175:.\protocol.c  ****     DDMode              = buffer [20] &0x0F;
 535              		.loc 1 175 0
 536 00ca AB7C     		ldrb	r3, [r5, #18]	@ zero_extendqisi2
 537 00cc 03F00F03 		and	r3, r3, #15
 538 00d0 094A     		ldr	r2, .L38+16
 539 00d2 1370     		strb	r3, [r2]
 176:.\protocol.c  ****     
 540              		.loc 1 176 0
 541 00d4 2B7D     		ldrb	r3, [r5, #20]	@ zero_extendqisi2
 542 00d6 03F00F03 		and	r3, r3, #15
 543 00da 084A     		ldr	r2, .L38+20
 544 00dc 1370     		strb	r3, [r2]
ARM GAS  C:\Users\RECEPC~1\AppData\Local\Temp\cc8eh59p.s 			page 15


 179:.\protocol.c  **** 
 545              		.loc 1 179 0
 546 00de 0020     		movs	r0, #0
 547 00e0 1437     		adds	r7, r7, #20
 548              		.cfi_def_cfa_offset 20
 549 00e2 BD46     		mov	sp, r7
 550              		.cfi_def_cfa_register 13
 551              		@ sp needed
 552 00e4 F0BD     		pop	{r4, r5, r6, r7, pc}
 553              	.LVL65:
 554              	.L39:
 555 00e6 00BF     		.align	2
 556              	.L38:
 557 00e8 00000000 		.word	UnitType
 558 00ec 00000000 		.word	ConversionFactor
 559 00f0 00000000 		.word	MoneyDec
 560 00f4 00000000 		.word	VolDec
 561 00f8 00000000 		.word	PPUDec
 562 00fc 00000000 		.word	DDMode
 563              		.cfi_endproc
 564              	.LFE65:
 565              		.size	PumpCompleteConfiguration, .-PumpCompleteConfiguration
 566              		.comm	side,1024,4
 567              		.comm	bufferDisplay4,661,4
 568              		.comm	bufferDisplay3,661,4
 569              		.comm	bufferDisplay2,661,4
 570              		.comm	bufferDisplay1,661,4
 571              		.comm	NumPositions,1,1
 572              		.comm	statePump,4,4
 573              		.comm	DDMode,1,1
 574              		.comm	PPUDec,1,1
 575              		.comm	VolDec,1,1
 576              		.comm	MoneyDec,1,1
 577              		.comm	ConversionFactor,1,1
 578              		.comm	UnitType,1,1
 579              		.comm	PrevScreen,1,1
 580              		.comm	PrevStatePump,4,4
 581              		.comm	stateBeagleSoft,1,1
 582              		.comm	flagResetMux,1,1
 583              		.comm	passwordSeller,8,4
 584              		.comm	typeIdSeller,1,1
 585              		.comm	idSeller,25,4
 586              		.comm	lockTurn,1,1
 587              		.comm	turn,1,1
 588              		.comm	temporalCom,30,4
 589              		.comm	temporal,30,4
 590              		.comm	residue,14,4
 591              		.comm	screen,2,4
 592              		.comm	date,3,4
 593              		.comm	time,3,4
 594              		.comm	symbols,2,4
 595              		.comm	decimalVolume,1,1
 596              		.comm	decimalMoney,1,1
 597              		.comm	ppux10,1,1
 598              		.comm	delayPicture2,4,4
 599              		.comm	delayPicture1,4,4
 600              		.comm	presetFast,30,4
ARM GAS  C:\Users\RECEPC~1\AppData\Local\Temp\cc8eh59p.s 			page 16


 601              		.comm	productNumber,1,1
 602              		.comm	button,960,4
 603              		.comm	flagPoint2,1,1
 604              		.comm	flagPoint1,1,1
 605              		.comm	numberKeys2,1,1
 606              		.comm	numberKeys1,1,1
 607              		.comm	ipAdress,12,4
 608              		.comm	digits,1,1
 609              		.comm	flowDisplay4,4,4
 610              		.comm	flowDisplay3,4,4
 611              		.comm	flowDisplay2,4,4
 612              		.comm	flowDisplay1,4,4
 613              		.comm	countPump,8,8
 614              		.comm	countBeagleTX,8,8
 615              		.comm	countAnimation2,8,8
 616              		.comm	countAnimation1,8,8
 617              		.text
 618              	.Letext0:
 619              		.file 2 "c:\\program files (x86)\\cypress\\psoc creator\\3.3\\psoc creator\\import\\gnu\\arm\\4.9.
 620              		.file 3 "c:\\program files (x86)\\cypress\\psoc creator\\3.3\\psoc creator\\import\\gnu\\arm\\4.9.
 621              		.file 4 "Generated_Source\\PSoC5/cytypes.h"
 622              		.file 5 "./variables.h"
 623              		.file 6 "Generated_Source\\PSoC5/core_cm3.h"
 624              		.file 7 "Generated_Source\\PSoC5/Pump.h"
 625              		.file 8 "Generated_Source\\PSoC5/CyLib.h"
 626              		.section	.debug_info,"",%progbits
 627              	.Ldebug_info0:
 628 0000 050D0000 		.4byte	0xd05
 629 0004 0400     		.2byte	0x4
 630 0006 00000000 		.4byte	.Ldebug_abbrev0
 631 000a 04       		.byte	0x4
 632 000b 01       		.uleb128 0x1
 633 000c 8A060000 		.4byte	.LASF161
 634 0010 01       		.byte	0x1
 635 0011 06020000 		.4byte	.LASF162
 636 0015 53070000 		.4byte	.LASF163
 637 0019 00000000 		.4byte	.Ldebug_ranges0+0
 638 001d 00000000 		.4byte	0
 639 0021 00000000 		.4byte	.Ldebug_line0
 640 0025 02       		.uleb128 0x2
 641 0026 01       		.byte	0x1
 642 0027 06       		.byte	0x6
 643 0028 CE070000 		.4byte	.LASF0
 644 002c 03       		.uleb128 0x3
 645 002d 96050000 		.4byte	.LASF4
 646 0031 02       		.byte	0x2
 647 0032 1D       		.byte	0x1d
 648 0033 37000000 		.4byte	0x37
 649 0037 02       		.uleb128 0x2
 650 0038 01       		.byte	0x1
 651 0039 08       		.byte	0x8
 652 003a 6F060000 		.4byte	.LASF1
 653 003e 02       		.uleb128 0x2
 654 003f 02       		.byte	0x2
 655 0040 05       		.byte	0x5
 656 0041 03050000 		.4byte	.LASF2
 657 0045 02       		.uleb128 0x2
ARM GAS  C:\Users\RECEPC~1\AppData\Local\Temp\cc8eh59p.s 			page 17


 658 0046 02       		.byte	0x2
 659 0047 07       		.byte	0x7
 660 0048 DA070000 		.4byte	.LASF3
 661 004c 03       		.uleb128 0x3
 662 004d 75000000 		.4byte	.LASF5
 663 0051 02       		.byte	0x2
 664 0052 3F       		.byte	0x3f
 665 0053 57000000 		.4byte	0x57
 666 0057 02       		.uleb128 0x2
 667 0058 04       		.byte	0x4
 668 0059 05       		.byte	0x5
 669 005a 0D050000 		.4byte	.LASF6
 670 005e 02       		.uleb128 0x2
 671 005f 04       		.byte	0x4
 672 0060 07       		.byte	0x7
 673 0061 FE050000 		.4byte	.LASF7
 674 0065 02       		.uleb128 0x2
 675 0066 08       		.byte	0x8
 676 0067 05       		.byte	0x5
 677 0068 96030000 		.4byte	.LASF8
 678 006c 02       		.uleb128 0x2
 679 006d 08       		.byte	0x8
 680 006e 07       		.byte	0x7
 681 006f 4A010000 		.4byte	.LASF9
 682 0073 04       		.uleb128 0x4
 683 0074 04       		.byte	0x4
 684 0075 05       		.byte	0x5
 685 0076 696E7400 		.ascii	"int\000"
 686 007a 02       		.uleb128 0x2
 687 007b 04       		.byte	0x4
 688 007c 07       		.byte	0x7
 689 007d 5A000000 		.4byte	.LASF10
 690 0081 03       		.uleb128 0x3
 691 0082 1E030000 		.4byte	.LASF11
 692 0086 03       		.byte	0x3
 693 0087 15       		.byte	0x15
 694 0088 2C000000 		.4byte	0x2c
 695 008c 03       		.uleb128 0x3
 696 008d 36060000 		.4byte	.LASF12
 697 0091 03       		.byte	0x3
 698 0092 2C       		.byte	0x2c
 699 0093 4C000000 		.4byte	0x4c
 700 0097 05       		.uleb128 0x5
 701 0098 03080000 		.4byte	.LASF13
 702 009c 04       		.byte	0x4
 703 009d 3801     		.2byte	0x138
 704 009f 37000000 		.4byte	0x37
 705 00a3 05       		.uleb128 0x5
 706 00a4 0D030000 		.4byte	.LASF14
 707 00a8 04       		.byte	0x4
 708 00a9 3901     		.2byte	0x139
 709 00ab 45000000 		.4byte	0x45
 710 00af 05       		.uleb128 0x5
 711 00b0 55040000 		.4byte	.LASF15
 712 00b4 04       		.byte	0x4
 713 00b5 3A01     		.2byte	0x13a
 714 00b7 5E000000 		.4byte	0x5e
ARM GAS  C:\Users\RECEPC~1\AppData\Local\Temp\cc8eh59p.s 			page 18


 715 00bb 02       		.uleb128 0x2
 716 00bc 04       		.byte	0x4
 717 00bd 04       		.byte	0x4
 718 00be 0F010000 		.4byte	.LASF16
 719 00c2 02       		.uleb128 0x2
 720 00c3 08       		.byte	0x8
 721 00c4 04       		.byte	0x4
 722 00c5 09080000 		.4byte	.LASF17
 723 00c9 05       		.uleb128 0x5
 724 00ca C9050000 		.4byte	.LASF18
 725 00ce 04       		.byte	0x4
 726 00cf 4401     		.2byte	0x144
 727 00d1 6C000000 		.4byte	0x6c
 728 00d5 05       		.uleb128 0x5
 729 00d6 42030000 		.4byte	.LASF19
 730 00da 04       		.byte	0x4
 731 00db 4901     		.2byte	0x149
 732 00dd E1000000 		.4byte	0xe1
 733 00e1 02       		.uleb128 0x2
 734 00e2 01       		.byte	0x1
 735 00e3 08       		.byte	0x8
 736 00e4 A7020000 		.4byte	.LASF20
 737 00e8 06       		.uleb128 0x6
 738 00e9 97000000 		.4byte	0x97
 739 00ed 06       		.uleb128 0x6
 740 00ee AF000000 		.4byte	0xaf
 741 00f2 02       		.uleb128 0x2
 742 00f3 04       		.byte	0x4
 743 00f4 07       		.byte	0x7
 744 00f5 F5050000 		.4byte	.LASF21
 745 00f9 07       		.uleb128 0x7
 746 00fa 97000000 		.4byte	0x97
 747 00fe 09010000 		.4byte	0x109
 748 0102 08       		.uleb128 0x8
 749 0103 F2000000 		.4byte	0xf2
 750 0107 03       		.byte	0x3
 751 0108 00       		.byte	0
 752 0109 09       		.uleb128 0x9
 753 010a 31000000 		.4byte	.LASF72
 754 010e 9502     		.2byte	0x295
 755 0110 05       		.byte	0x5
 756 0111 5F       		.byte	0x5f
 757 0112 85030000 		.4byte	0x385
 758 0116 0A       		.uleb128 0xa
 759 0117 A0000000 		.4byte	.LASF22
 760 011b 05       		.byte	0x5
 761 011c 60       		.byte	0x60
 762 011d 97000000 		.4byte	0x97
 763 0121 00       		.byte	0
 764 0122 0A       		.uleb128 0xa
 765 0123 C9010000 		.4byte	.LASF23
 766 0127 05       		.byte	0x5
 767 0128 61       		.byte	0x61
 768 0129 85030000 		.4byte	0x385
 769 012d 01       		.byte	0x1
 770 012e 0A       		.uleb128 0xa
 771 012f 48030000 		.4byte	.LASF24
ARM GAS  C:\Users\RECEPC~1\AppData\Local\Temp\cc8eh59p.s 			page 19


 772 0133 05       		.byte	0x5
 773 0134 62       		.byte	0x62
 774 0135 85030000 		.4byte	0x385
 775 0139 1A       		.byte	0x1a
 776 013a 0A       		.uleb128 0xa
 777 013b 10080000 		.4byte	.LASF25
 778 013f 05       		.byte	0x5
 779 0140 63       		.byte	0x63
 780 0141 97000000 		.4byte	0x97
 781 0145 33       		.byte	0x33
 782 0146 0A       		.uleb128 0xa
 783 0147 5D060000 		.4byte	.LASF26
 784 014b 05       		.byte	0x5
 785 014c 64       		.byte	0x64
 786 014d 97000000 		.4byte	0x97
 787 0151 34       		.byte	0x34
 788 0152 0A       		.uleb128 0xa
 789 0153 BB000000 		.4byte	.LASF27
 790 0157 05       		.byte	0x5
 791 0158 65       		.byte	0x65
 792 0159 95030000 		.4byte	0x395
 793 015d 35       		.byte	0x35
 794 015e 0A       		.uleb128 0xa
 795 015f D0040000 		.4byte	.LASF28
 796 0163 05       		.byte	0x5
 797 0164 66       		.byte	0x66
 798 0165 95030000 		.4byte	0x395
 799 0169 3F       		.byte	0x3f
 800 016a 0A       		.uleb128 0xa
 801 016b 3F080000 		.4byte	.LASF29
 802 016f 05       		.byte	0x5
 803 0170 67       		.byte	0x67
 804 0171 85030000 		.4byte	0x385
 805 0175 49       		.byte	0x49
 806 0176 0A       		.uleb128 0xa
 807 0177 9A040000 		.4byte	.LASF30
 808 017b 05       		.byte	0x5
 809 017c 68       		.byte	0x68
 810 017d 97000000 		.4byte	0x97
 811 0181 62       		.byte	0x62
 812 0182 0A       		.uleb128 0xa
 813 0183 18070000 		.4byte	.LASF31
 814 0187 05       		.byte	0x5
 815 0188 69       		.byte	0x69
 816 0189 97000000 		.4byte	0x97
 817 018d 63       		.byte	0x63
 818 018e 0A       		.uleb128 0xa
 819 018f 9D020000 		.4byte	.LASF32
 820 0193 05       		.byte	0x5
 821 0194 6A       		.byte	0x6a
 822 0195 A5030000 		.4byte	0x3a5
 823 0199 64       		.byte	0x64
 824 019a 0A       		.uleb128 0xa
 825 019b 15040000 		.4byte	.LASF33
 826 019f 05       		.byte	0x5
 827 01a0 6B       		.byte	0x6b
 828 01a1 97000000 		.4byte	0x97
ARM GAS  C:\Users\RECEPC~1\AppData\Local\Temp\cc8eh59p.s 			page 20


 829 01a5 79       		.byte	0x79
 830 01a6 0A       		.uleb128 0xa
 831 01a7 8A020000 		.4byte	.LASF34
 832 01ab 05       		.byte	0x5
 833 01ac 6C       		.byte	0x6c
 834 01ad 97000000 		.4byte	0x97
 835 01b1 7A       		.byte	0x7a
 836 01b2 0A       		.uleb128 0xa
 837 01b3 4E000000 		.4byte	.LASF35
 838 01b7 05       		.byte	0x5
 839 01b8 6D       		.byte	0x6d
 840 01b9 97000000 		.4byte	0x97
 841 01bd 7B       		.byte	0x7b
 842 01be 0A       		.uleb128 0xa
 843 01bf A8070000 		.4byte	.LASF36
 844 01c3 05       		.byte	0x5
 845 01c4 6E       		.byte	0x6e
 846 01c5 B5030000 		.4byte	0x3b5
 847 01c9 7C       		.byte	0x7c
 848 01ca 0A       		.uleb128 0xa
 849 01cb 6E020000 		.4byte	.LASF37
 850 01cf 05       		.byte	0x5
 851 01d0 6F       		.byte	0x6f
 852 01d1 C5030000 		.4byte	0x3c5
 853 01d5 7E       		.byte	0x7e
 854 01d6 0A       		.uleb128 0xa
 855 01d7 A0010000 		.4byte	.LASF38
 856 01db 05       		.byte	0x5
 857 01dc 70       		.byte	0x70
 858 01dd 97000000 		.4byte	0x97
 859 01e1 92       		.byte	0x92
 860 01e2 0A       		.uleb128 0xa
 861 01e3 EC050000 		.4byte	.LASF39
 862 01e7 05       		.byte	0x5
 863 01e8 71       		.byte	0x71
 864 01e9 DB030000 		.4byte	0x3db
 865 01ed 93       		.byte	0x93
 866 01ee 0A       		.uleb128 0xa
 867 01ef 4A050000 		.4byte	.LASF40
 868 01f3 05       		.byte	0x5
 869 01f4 72       		.byte	0x72
 870 01f5 EB030000 		.4byte	0x3eb
 871 01f9 98       		.byte	0x98
 872 01fa 0A       		.uleb128 0xa
 873 01fb BA010000 		.4byte	.LASF41
 874 01ff 05       		.byte	0x5
 875 0200 73       		.byte	0x73
 876 0201 EB030000 		.4byte	0x3eb
 877 0205 9E       		.byte	0x9e
 878 0206 0A       		.uleb128 0xa
 879 0207 22080000 		.4byte	.LASF42
 880 020b 05       		.byte	0x5
 881 020c 74       		.byte	0x74
 882 020d EB030000 		.4byte	0x3eb
 883 0211 A4       		.byte	0xa4
 884 0212 0A       		.uleb128 0xa
 885 0213 06040000 		.4byte	.LASF43
ARM GAS  C:\Users\RECEPC~1\AppData\Local\Temp\cc8eh59p.s 			page 21


 886 0217 05       		.byte	0x5
 887 0218 75       		.byte	0x75
 888 0219 EB030000 		.4byte	0x3eb
 889 021d AA       		.byte	0xaa
 890 021e 0A       		.uleb128 0xa
 891 021f B2040000 		.4byte	.LASF44
 892 0223 05       		.byte	0x5
 893 0224 76       		.byte	0x76
 894 0225 FB030000 		.4byte	0x3fb
 895 0229 B0       		.byte	0xb0
 896 022a 0A       		.uleb128 0xa
 897 022b 6B010000 		.4byte	.LASF45
 898 022f 05       		.byte	0x5
 899 0230 77       		.byte	0x77
 900 0231 FB030000 		.4byte	0x3fb
 901 0235 BE       		.byte	0xbe
 902 0236 0A       		.uleb128 0xa
 903 0237 D9030000 		.4byte	.LASF46
 904 023b 05       		.byte	0x5
 905 023c 78       		.byte	0x78
 906 023d FB030000 		.4byte	0x3fb
 907 0241 CC       		.byte	0xcc
 908 0242 0A       		.uleb128 0xa
 909 0243 5D030000 		.4byte	.LASF47
 910 0247 05       		.byte	0x5
 911 0248 79       		.byte	0x79
 912 0249 FB030000 		.4byte	0x3fb
 913 024d DA       		.byte	0xda
 914 024e 0A       		.uleb128 0xa
 915 024f AF050000 		.4byte	.LASF48
 916 0253 05       		.byte	0x5
 917 0254 7A       		.byte	0x7a
 918 0255 FB030000 		.4byte	0x3fb
 919 0259 E8       		.byte	0xe8
 920 025a 0A       		.uleb128 0xa
 921 025b 8C040000 		.4byte	.LASF49
 922 025f 05       		.byte	0x5
 923 0260 7B       		.byte	0x7b
 924 0261 FB030000 		.4byte	0x3fb
 925 0265 F6       		.byte	0xf6
 926 0266 0B       		.uleb128 0xb
 927 0267 EA040000 		.4byte	.LASF50
 928 026b 05       		.byte	0x5
 929 026c 7C       		.byte	0x7c
 930 026d 0B040000 		.4byte	0x40b
 931 0271 0401     		.2byte	0x104
 932 0273 0B       		.uleb128 0xb
 933 0274 EC010000 		.4byte	.LASF51
 934 0278 05       		.byte	0x5
 935 0279 7D       		.byte	0x7d
 936 027a 0B040000 		.4byte	0x40b
 937 027e 0F01     		.2byte	0x10f
 938 0280 0B       		.uleb128 0xb
 939 0281 7F020000 		.4byte	.LASF52
 940 0285 05       		.byte	0x5
 941 0286 7E       		.byte	0x7e
 942 0287 0B040000 		.4byte	0x40b
ARM GAS  C:\Users\RECEPC~1\AppData\Local\Temp\cc8eh59p.s 			page 22


 943 028b 1A01     		.2byte	0x11a
 944 028d 0B       		.uleb128 0xb
 945 028e 2E040000 		.4byte	.LASF53
 946 0292 05       		.byte	0x5
 947 0293 7F       		.byte	0x7f
 948 0294 97000000 		.4byte	0x97
 949 0298 2501     		.2byte	0x125
 950 029a 0B       		.uleb128 0xb
 951 029b 36030000 		.4byte	.LASF54
 952 029f 05       		.byte	0x5
 953 02a0 80       		.byte	0x80
 954 02a1 97000000 		.4byte	0x97
 955 02a5 2601     		.2byte	0x126
 956 02a7 0B       		.uleb128 0xb
 957 02a8 7F000000 		.4byte	.LASF55
 958 02ac 05       		.byte	0x5
 959 02ad 81       		.byte	0x81
 960 02ae 97000000 		.4byte	0x97
 961 02b2 2701     		.2byte	0x127
 962 02b4 0B       		.uleb128 0xb
 963 02b5 3E050000 		.4byte	.LASF56
 964 02b9 05       		.byte	0x5
 965 02ba 82       		.byte	0x82
 966 02bb 97000000 		.4byte	0x97
 967 02bf 2801     		.2byte	0x128
 968 02c1 0B       		.uleb128 0xb
 969 02c2 1F000000 		.4byte	.LASF57
 970 02c6 05       		.byte	0x5
 971 02c7 83       		.byte	0x83
 972 02c8 1B040000 		.4byte	0x41b
 973 02cc 2901     		.2byte	0x129
 974 02ce 0B       		.uleb128 0xb
 975 02cf 6D030000 		.4byte	.LASF58
 976 02d3 05       		.byte	0x5
 977 02d4 84       		.byte	0x84
 978 02d5 95030000 		.4byte	0x395
 979 02d9 6A01     		.2byte	0x16a
 980 02db 0B       		.uleb128 0xb
 981 02dc F9000000 		.4byte	.LASF59
 982 02e0 05       		.byte	0x5
 983 02e1 85       		.byte	0x85
 984 02e2 95030000 		.4byte	0x395
 985 02e6 7401     		.2byte	0x174
 986 02e8 0B       		.uleb128 0xb
 987 02e9 54030000 		.4byte	.LASF60
 988 02ed 05       		.byte	0x5
 989 02ee 86       		.byte	0x86
 990 02ef 95030000 		.4byte	0x395
 991 02f3 7E01     		.2byte	0x17e
 992 02f5 0B       		.uleb128 0xb
 993 02f6 54020000 		.4byte	.LASF61
 994 02fa 05       		.byte	0x5
 995 02fb 87       		.byte	0x87
 996 02fc 2B040000 		.4byte	0x42b
 997 0300 8801     		.2byte	0x188
 998 0302 0B       		.uleb128 0xb
 999 0303 67000000 		.4byte	.LASF62
ARM GAS  C:\Users\RECEPC~1\AppData\Local\Temp\cc8eh59p.s 			page 23


 1000 0307 05       		.byte	0x5
 1001 0308 88       		.byte	0x88
 1002 0309 2B040000 		.4byte	0x42b
 1003 030d D301     		.2byte	0x1d3
 1004 030f 0B       		.uleb128 0xb
 1005 0310 C8000000 		.4byte	.LASF63
 1006 0314 05       		.byte	0x5
 1007 0315 89       		.byte	0x89
 1008 0316 41040000 		.4byte	0x441
 1009 031a 1E02     		.2byte	0x21e
 1010 031c 0B       		.uleb128 0xb
 1011 031d 4A060000 		.4byte	.LASF64
 1012 0321 05       		.byte	0x5
 1013 0322 8A       		.byte	0x8a
 1014 0323 41040000 		.4byte	0x441
 1015 0327 2D02     		.2byte	0x22d
 1016 0329 0B       		.uleb128 0xb
 1017 032a 2A070000 		.4byte	.LASF65
 1018 032e 05       		.byte	0x5
 1019 032f 8B       		.byte	0x8b
 1020 0330 57040000 		.4byte	0x457
 1021 0334 3C02     		.2byte	0x23c
 1022 0336 0B       		.uleb128 0xb
 1023 0337 B3070000 		.4byte	.LASF66
 1024 033b 05       		.byte	0x5
 1025 033c 8C       		.byte	0x8c
 1026 033d 57040000 		.4byte	0x457
 1027 0341 5A02     		.2byte	0x25a
 1028 0343 0B       		.uleb128 0xb
 1029 0344 FA030000 		.4byte	.LASF67
 1030 0348 05       		.byte	0x5
 1031 0349 8D       		.byte	0x8d
 1032 034a 95030000 		.4byte	0x395
 1033 034e 7802     		.2byte	0x278
 1034 0350 0B       		.uleb128 0xb
 1035 0351 24060000 		.4byte	.LASF68
 1036 0355 05       		.byte	0x5
 1037 0356 8E       		.byte	0x8e
 1038 0357 97000000 		.4byte	0x97
 1039 035b 8202     		.2byte	0x282
 1040 035d 0B       		.uleb128 0xb
 1041 035e F6040000 		.4byte	.LASF69
 1042 0362 05       		.byte	0x5
 1043 0363 8F       		.byte	0x8f
 1044 0364 6D040000 		.4byte	0x46d
 1045 0368 8302     		.2byte	0x283
 1046 036a 0B       		.uleb128 0xb
 1047 036b 78030000 		.4byte	.LASF70
 1048 036f 05       		.byte	0x5
 1049 0370 90       		.byte	0x90
 1050 0371 B5030000 		.4byte	0x3b5
 1051 0375 9202     		.2byte	0x292
 1052 0377 0B       		.uleb128 0xb
 1053 0378 F8010000 		.4byte	.LASF71
 1054 037c 05       		.byte	0x5
 1055 037d 91       		.byte	0x91
 1056 037e 97000000 		.4byte	0x97
ARM GAS  C:\Users\RECEPC~1\AppData\Local\Temp\cc8eh59p.s 			page 24


 1057 0382 9402     		.2byte	0x294
 1058 0384 00       		.byte	0
 1059 0385 07       		.uleb128 0x7
 1060 0386 97000000 		.4byte	0x97
 1061 038a 95030000 		.4byte	0x395
 1062 038e 08       		.uleb128 0x8
 1063 038f F2000000 		.4byte	0xf2
 1064 0393 18       		.byte	0x18
 1065 0394 00       		.byte	0
 1066 0395 07       		.uleb128 0x7
 1067 0396 97000000 		.4byte	0x97
 1068 039a A5030000 		.4byte	0x3a5
 1069 039e 08       		.uleb128 0x8
 1070 039f F2000000 		.4byte	0xf2
 1071 03a3 09       		.byte	0x9
 1072 03a4 00       		.byte	0
 1073 03a5 07       		.uleb128 0x7
 1074 03a6 97000000 		.4byte	0x97
 1075 03aa B5030000 		.4byte	0x3b5
 1076 03ae 08       		.uleb128 0x8
 1077 03af F2000000 		.4byte	0xf2
 1078 03b3 14       		.byte	0x14
 1079 03b4 00       		.byte	0
 1080 03b5 07       		.uleb128 0x7
 1081 03b6 97000000 		.4byte	0x97
 1082 03ba C5030000 		.4byte	0x3c5
 1083 03be 08       		.uleb128 0x8
 1084 03bf F2000000 		.4byte	0xf2
 1085 03c3 01       		.byte	0x1
 1086 03c4 00       		.byte	0
 1087 03c5 07       		.uleb128 0x7
 1088 03c6 97000000 		.4byte	0x97
 1089 03ca DB030000 		.4byte	0x3db
 1090 03ce 08       		.uleb128 0x8
 1091 03cf F2000000 		.4byte	0xf2
 1092 03d3 01       		.byte	0x1
 1093 03d4 08       		.uleb128 0x8
 1094 03d5 F2000000 		.4byte	0xf2
 1095 03d9 09       		.byte	0x9
 1096 03da 00       		.byte	0
 1097 03db 07       		.uleb128 0x7
 1098 03dc 97000000 		.4byte	0x97
 1099 03e0 EB030000 		.4byte	0x3eb
 1100 03e4 08       		.uleb128 0x8
 1101 03e5 F2000000 		.4byte	0xf2
 1102 03e9 04       		.byte	0x4
 1103 03ea 00       		.byte	0
 1104 03eb 07       		.uleb128 0x7
 1105 03ec 97000000 		.4byte	0x97
 1106 03f0 FB030000 		.4byte	0x3fb
 1107 03f4 08       		.uleb128 0x8
 1108 03f5 F2000000 		.4byte	0xf2
 1109 03f9 05       		.byte	0x5
 1110 03fa 00       		.byte	0
 1111 03fb 07       		.uleb128 0x7
 1112 03fc 97000000 		.4byte	0x97
 1113 0400 0B040000 		.4byte	0x40b
ARM GAS  C:\Users\RECEPC~1\AppData\Local\Temp\cc8eh59p.s 			page 25


 1114 0404 08       		.uleb128 0x8
 1115 0405 F2000000 		.4byte	0xf2
 1116 0409 0D       		.byte	0xd
 1117 040a 00       		.byte	0
 1118 040b 07       		.uleb128 0x7
 1119 040c 97000000 		.4byte	0x97
 1120 0410 1B040000 		.4byte	0x41b
 1121 0414 08       		.uleb128 0x8
 1122 0415 F2000000 		.4byte	0xf2
 1123 0419 0A       		.byte	0xa
 1124 041a 00       		.byte	0
 1125 041b 07       		.uleb128 0x7
 1126 041c 97000000 		.4byte	0x97
 1127 0420 2B040000 		.4byte	0x42b
 1128 0424 08       		.uleb128 0x8
 1129 0425 F2000000 		.4byte	0xf2
 1130 0429 40       		.byte	0x40
 1131 042a 00       		.byte	0
 1132 042b 07       		.uleb128 0x7
 1133 042c 97000000 		.4byte	0x97
 1134 0430 41040000 		.4byte	0x441
 1135 0434 08       		.uleb128 0x8
 1136 0435 F2000000 		.4byte	0xf2
 1137 0439 02       		.byte	0x2
 1138 043a 08       		.uleb128 0x8
 1139 043b F2000000 		.4byte	0xf2
 1140 043f 18       		.byte	0x18
 1141 0440 00       		.byte	0
 1142 0441 07       		.uleb128 0x7
 1143 0442 97000000 		.4byte	0x97
 1144 0446 57040000 		.4byte	0x457
 1145 044a 08       		.uleb128 0x8
 1146 044b F2000000 		.4byte	0xf2
 1147 044f 02       		.byte	0x2
 1148 0450 08       		.uleb128 0x8
 1149 0451 F2000000 		.4byte	0xf2
 1150 0455 04       		.byte	0x4
 1151 0456 00       		.byte	0
 1152 0457 07       		.uleb128 0x7
 1153 0458 97000000 		.4byte	0x97
 1154 045c 6D040000 		.4byte	0x46d
 1155 0460 08       		.uleb128 0x8
 1156 0461 F2000000 		.4byte	0xf2
 1157 0465 02       		.byte	0x2
 1158 0466 08       		.uleb128 0x8
 1159 0467 F2000000 		.4byte	0xf2
 1160 046b 09       		.byte	0x9
 1161 046c 00       		.byte	0
 1162 046d 07       		.uleb128 0x7
 1163 046e 97000000 		.4byte	0x97
 1164 0472 7D040000 		.4byte	0x47d
 1165 0476 08       		.uleb128 0x8
 1166 0477 F2000000 		.4byte	0xf2
 1167 047b 0E       		.byte	0xe
 1168 047c 00       		.byte	0
 1169 047d 09       		.uleb128 0x9
 1170 047e 52080000 		.4byte	.LASF73
ARM GAS  C:\Users\RECEPC~1\AppData\Local\Temp\cc8eh59p.s 			page 26


 1171 0482 0001     		.2byte	0x100
 1172 0484 05       		.byte	0x5
 1173 0485 A2       		.byte	0xa2
 1174 0486 DF040000 		.4byte	0x4df
 1175 048a 0C       		.uleb128 0xc
 1176 048b 64697200 		.ascii	"dir\000"
 1177 048f 05       		.byte	0x5
 1178 0490 A3       		.byte	0xa3
 1179 0491 97000000 		.4byte	0x97
 1180 0495 00       		.byte	0
 1181 0496 0A       		.uleb128 0xa
 1182 0497 61020000 		.4byte	.LASF74
 1183 049b 05       		.byte	0x5
 1184 049c A4       		.byte	0xa4
 1185 049d DF040000 		.4byte	0x4df
 1186 04a1 01       		.byte	0x1
 1187 04a2 0A       		.uleb128 0xa
 1188 04a3 31080000 		.4byte	.LASF75
 1189 04a7 05       		.byte	0x5
 1190 04a8 A5       		.byte	0xa5
 1191 04a9 FB040000 		.4byte	0x4fb
 1192 04ad B5       		.byte	0xb5
 1193 04ae 0A       		.uleb128 0xa
 1194 04af 8C030000 		.4byte	.LASF76
 1195 04b3 05       		.byte	0x5
 1196 04b4 A6       		.byte	0xa6
 1197 04b5 FB030000 		.4byte	0x3fb
 1198 04b9 D5       		.byte	0xd5
 1199 04ba 0A       		.uleb128 0xa
 1200 04bb C3070000 		.4byte	.LASF77
 1201 04bf 05       		.byte	0x5
 1202 04c0 A7       		.byte	0xa7
 1203 04c1 FB030000 		.4byte	0x3fb
 1204 04c5 E3       		.byte	0xe3
 1205 04c6 0A       		.uleb128 0xa
 1206 04c7 A4030000 		.4byte	.LASF78
 1207 04cb 05       		.byte	0x5
 1208 04cc A8       		.byte	0xa8
 1209 04cd FB030000 		.4byte	0x3fb
 1210 04d1 F1       		.byte	0xf1
 1211 04d2 0A       		.uleb128 0xa
 1212 04d3 F7070000 		.4byte	.LASF79
 1213 04d7 05       		.byte	0x5
 1214 04d8 A9       		.byte	0xa9
 1215 04d9 97000000 		.4byte	0x97
 1216 04dd FF       		.byte	0xff
 1217 04de 00       		.byte	0
 1218 04df 07       		.uleb128 0x7
 1219 04e0 97000000 		.4byte	0x97
 1220 04e4 FB040000 		.4byte	0x4fb
 1221 04e8 08       		.uleb128 0x8
 1222 04e9 F2000000 		.4byte	0xf2
 1223 04ed 03       		.byte	0x3
 1224 04ee 08       		.uleb128 0x8
 1225 04ef F2000000 		.4byte	0xf2
 1226 04f3 02       		.byte	0x2
 1227 04f4 08       		.uleb128 0x8
ARM GAS  C:\Users\RECEPC~1\AppData\Local\Temp\cc8eh59p.s 			page 27


 1228 04f5 F2000000 		.4byte	0xf2
 1229 04f9 0E       		.byte	0xe
 1230 04fa 00       		.byte	0
 1231 04fb 07       		.uleb128 0x7
 1232 04fc 97000000 		.4byte	0x97
 1233 0500 11050000 		.4byte	0x511
 1234 0504 08       		.uleb128 0x8
 1235 0505 F2000000 		.4byte	0xf2
 1236 0509 03       		.byte	0x3
 1237 050a 08       		.uleb128 0x8
 1238 050b F2000000 		.4byte	0xf2
 1239 050f 07       		.byte	0x7
 1240 0510 00       		.byte	0
 1241 0511 09       		.uleb128 0x9
 1242 0512 44070000 		.4byte	.LASF80
 1243 0516 0004     		.2byte	0x400
 1244 0518 05       		.byte	0x5
 1245 0519 AC       		.byte	0xac
 1246 051a 4A050000 		.4byte	0x54a
 1247 051e 0C       		.uleb128 0xc
 1248 051f 6100     		.ascii	"a\000"
 1249 0521 05       		.byte	0x5
 1250 0522 AD       		.byte	0xad
 1251 0523 7D040000 		.4byte	0x47d
 1252 0527 00       		.byte	0
 1253 0528 0D       		.uleb128 0xd
 1254 0529 6200     		.ascii	"b\000"
 1255 052b 05       		.byte	0x5
 1256 052c AE       		.byte	0xae
 1257 052d 7D040000 		.4byte	0x47d
 1258 0531 0001     		.2byte	0x100
 1259 0533 0D       		.uleb128 0xd
 1260 0534 6300     		.ascii	"c\000"
 1261 0536 05       		.byte	0x5
 1262 0537 AF       		.byte	0xaf
 1263 0538 7D040000 		.4byte	0x47d
 1264 053c 0002     		.2byte	0x200
 1265 053e 0D       		.uleb128 0xd
 1266 053f 6400     		.ascii	"d\000"
 1267 0541 05       		.byte	0x5
 1268 0542 B0       		.byte	0xb0
 1269 0543 7D040000 		.4byte	0x47d
 1270 0547 0003     		.2byte	0x300
 1271 0549 00       		.byte	0
 1272 054a 0E       		.uleb128 0xe
 1273 054b 59050000 		.4byte	.LASF84
 1274 054f 01       		.byte	0x1
 1275 0550 05       		.byte	0x5
 1276 0551 B6       		.byte	0xb6
 1277 0552 A4050000 		.4byte	0x5a4
 1278 0556 0F       		.uleb128 0xf
 1279 0557 534F4D00 		.ascii	"SOM\000"
 1280 055b FF01     		.sleb128 255
 1281 055d 0F       		.uleb128 0xf
 1282 055e 56505400 		.ascii	"VPT\000"
 1283 0562 F101     		.sleb128 241
 1284 0564 0F       		.uleb128 0xf
ARM GAS  C:\Users\RECEPC~1\AppData\Local\Temp\cc8eh59p.s 			page 28


 1285 0565 4D505400 		.ascii	"MPT\000"
 1286 0569 F201     		.sleb128 242
 1287 056b 0F       		.uleb128 0xf
 1288 056c 48446E00 		.ascii	"HDn\000"
 1289 0570 F601     		.sleb128 246
 1290 0572 10       		.uleb128 0x10
 1291 0573 00000000 		.4byte	.LASF81
 1292 0577 F701     		.sleb128 247
 1293 0579 10       		.uleb128 0x10
 1294 057a 3E060000 		.4byte	.LASF82
 1295 057e F801     		.sleb128 248
 1296 0580 0F       		.uleb128 0xf
 1297 0581 56446E00 		.ascii	"VDn\000"
 1298 0585 F901     		.sleb128 249
 1299 0587 0F       		.uleb128 0xf
 1300 0588 4D446E00 		.ascii	"MDn\000"
 1301 058c FA01     		.sleb128 250
 1302 058e 10       		.uleb128 0x10
 1303 058f 14030000 		.4byte	.LASF83
 1304 0593 FB01     		.sleb128 251
 1305 0595 0F       		.uleb128 0xf
 1306 0596 53466E00 		.ascii	"SFn\000"
 1307 059a FE01     		.sleb128 254
 1308 059c 0F       		.uleb128 0xf
 1309 059d 454F4D00 		.ascii	"EOM\000"
 1310 05a1 F001     		.sleb128 240
 1311 05a3 00       		.byte	0
 1312 05a4 11       		.uleb128 0x11
 1313 05a5 86010000 		.4byte	.LASF85
 1314 05a9 01       		.byte	0x1
 1315 05aa 05       		.byte	0x5
 1316 05ab 1101     		.2byte	0x111
 1317 05ad E2050000 		.4byte	0x5e2
 1318 05b1 10       		.uleb128 0x10
 1319 05b2 8E000000 		.4byte	.LASF86
 1320 05b6 00       		.sleb128 0
 1321 05b7 10       		.uleb128 0x10
 1322 05b8 05010000 		.4byte	.LASF87
 1323 05bc 06       		.sleb128 6
 1324 05bd 10       		.uleb128 0x10
 1325 05be 21040000 		.4byte	.LASF88
 1326 05c2 07       		.sleb128 7
 1327 05c3 10       		.uleb128 0x10
 1328 05c4 5C040000 		.4byte	.LASF89
 1329 05c8 08       		.sleb128 8
 1330 05c9 10       		.uleb128 0x10
 1331 05ca 93020000 		.4byte	.LASF90
 1332 05ce 09       		.sleb128 9
 1333 05cf 10       		.uleb128 0x10
 1334 05d0 49070000 		.4byte	.LASF91
 1335 05d4 0A       		.sleb128 10
 1336 05d5 10       		.uleb128 0x10
 1337 05d6 61010000 		.4byte	.LASF92
 1338 05da 0B       		.sleb128 11
 1339 05db 10       		.uleb128 0x10
 1340 05dc BD020000 		.4byte	.LASF93
 1341 05e0 0C       		.sleb128 12
ARM GAS  C:\Users\RECEPC~1\AppData\Local\Temp\cc8eh59p.s 			page 29


 1342 05e1 00       		.byte	0
 1343 05e2 12       		.uleb128 0x12
 1344 05e3 03030000 		.4byte	.LASF94
 1345 05e7 01       		.byte	0x1
 1346 05e8 39       		.byte	0x39
 1347 05e9 97000000 		.4byte	0x97
 1348 05ed 00000000 		.4byte	.LFB63
 1349 05f1 2E000000 		.4byte	.LFE63-.LFB63
 1350 05f5 01       		.uleb128 0x1
 1351 05f6 9C       		.byte	0x9c
 1352 05f7 66060000 		.4byte	0x666
 1353 05fb 13       		.uleb128 0x13
 1354 05fc 706F7300 		.ascii	"pos\000"
 1355 0600 01       		.byte	0x1
 1356 0601 39       		.byte	0x39
 1357 0602 97000000 		.4byte	0x97
 1358 0606 00000000 		.4byte	.LLST0
 1359 060a 14       		.uleb128 0x14
 1360 060b A2070000 		.4byte	.LASF96
 1361 060f 01       		.byte	0x1
 1362 0610 3A       		.byte	0x3a
 1363 0611 97000000 		.4byte	0x97
 1364 0615 21000000 		.4byte	.LLST1
 1365 0619 15       		.uleb128 0x15
 1366 061a 08000000 		.4byte	.LVL1
 1367 061e C90C0000 		.4byte	0xcc9
 1368 0622 16       		.uleb128 0x16
 1369 0623 0E000000 		.4byte	.LVL2
 1370 0627 D00C0000 		.4byte	0xcd0
 1371 062b 36060000 		.4byte	0x636
 1372 062f 17       		.uleb128 0x17
 1373 0630 01       		.uleb128 0x1
 1374 0631 50       		.byte	0x50
 1375 0632 02       		.uleb128 0x2
 1376 0633 74       		.byte	0x74
 1377 0634 00       		.sleb128 0
 1378 0635 00       		.byte	0
 1379 0636 16       		.uleb128 0x16
 1380 0637 14000000 		.4byte	.LVL3
 1381 063b E10C0000 		.4byte	0xce1
 1382 063f 4A060000 		.4byte	0x64a
 1383 0643 17       		.uleb128 0x17
 1384 0644 01       		.uleb128 0x1
 1385 0645 50       		.byte	0x50
 1386 0646 02       		.uleb128 0x2
 1387 0647 08       		.byte	0x8
 1388 0648 3C       		.byte	0x3c
 1389 0649 00       		.byte	0
 1390 064a 15       		.uleb128 0x15
 1391 064b 18000000 		.4byte	.LVL4
 1392 064f F20C0000 		.4byte	0xcf2
 1393 0653 15       		.uleb128 0x15
 1394 0654 1E000000 		.4byte	.LVL5
 1395 0658 FD0C0000 		.4byte	0xcfd
 1396 065c 15       		.uleb128 0x15
 1397 065d 26000000 		.4byte	.LVL7
 1398 0661 C90C0000 		.4byte	0xcc9
ARM GAS  C:\Users\RECEPC~1\AppData\Local\Temp\cc8eh59p.s 			page 30


 1399 0665 00       		.byte	0
 1400 0666 12       		.uleb128 0x12
 1401 0667 AE000000 		.4byte	.LASF95
 1402 066b 01       		.byte	0x1
 1403 066c 59       		.byte	0x59
 1404 066d 97000000 		.4byte	0x97
 1405 0671 00000000 		.4byte	.LFB64
 1406 0675 20010000 		.4byte	.LFE64-.LFB64
 1407 0679 01       		.uleb128 0x1
 1408 067a 9C       		.byte	0x9c
 1409 067b FD060000 		.4byte	0x6fd
 1410 067f 18       		.uleb128 0x18
 1411 0680 7800     		.ascii	"x\000"
 1412 0682 01       		.byte	0x1
 1413 0683 5A       		.byte	0x5a
 1414 0684 97000000 		.4byte	0x97
 1415 0688 34000000 		.4byte	.LLST2
 1416 068c 16       		.uleb128 0x16
 1417 068d 1E000000 		.4byte	.LVL11
 1418 0691 D00C0000 		.4byte	0xcd0
 1419 0695 A0060000 		.4byte	0x6a0
 1420 0699 17       		.uleb128 0x17
 1421 069a 01       		.uleb128 0x1
 1422 069b 50       		.byte	0x50
 1423 069c 02       		.uleb128 0x2
 1424 069d 74       		.byte	0x74
 1425 069e 00       		.sleb128 0
 1426 069f 00       		.byte	0
 1427 06a0 16       		.uleb128 0x16
 1428 06a1 24000000 		.4byte	.LVL12
 1429 06a5 E10C0000 		.4byte	0xce1
 1430 06a9 B4060000 		.4byte	0x6b4
 1431 06ad 17       		.uleb128 0x17
 1432 06ae 01       		.uleb128 0x1
 1433 06af 50       		.byte	0x50
 1434 06b0 02       		.uleb128 0x2
 1435 06b1 08       		.byte	0x8
 1436 06b2 64       		.byte	0x64
 1437 06b3 00       		.byte	0
 1438 06b4 15       		.uleb128 0x15
 1439 06b5 28000000 		.4byte	.LVL13
 1440 06b9 F20C0000 		.4byte	0xcf2
 1441 06bd 15       		.uleb128 0x15
 1442 06be 3A000000 		.4byte	.LVL14
 1443 06c2 C90C0000 		.4byte	0xcc9
 1444 06c6 15       		.uleb128 0x15
 1445 06c7 3E000000 		.4byte	.LVL15
 1446 06cb F20C0000 		.4byte	0xcf2
 1447 06cf 15       		.uleb128 0x15
 1448 06d0 5C000000 		.4byte	.LVL16
 1449 06d4 C90C0000 		.4byte	0xcc9
 1450 06d8 15       		.uleb128 0x15
 1451 06d9 60000000 		.4byte	.LVL17
 1452 06dd F20C0000 		.4byte	0xcf2
 1453 06e1 15       		.uleb128 0x15
 1454 06e2 88000000 		.4byte	.LVL18
 1455 06e6 C90C0000 		.4byte	0xcc9
ARM GAS  C:\Users\RECEPC~1\AppData\Local\Temp\cc8eh59p.s 			page 31


 1456 06ea 15       		.uleb128 0x15
 1457 06eb 8C000000 		.4byte	.LVL19
 1458 06ef F20C0000 		.4byte	0xcf2
 1459 06f3 15       		.uleb128 0x15
 1460 06f4 BE000000 		.4byte	.LVL20
 1461 06f8 C90C0000 		.4byte	0xcc9
 1462 06fc 00       		.byte	0
 1463 06fd 19       		.uleb128 0x19
 1464 06fe 79040000 		.4byte	.LASF164
 1465 0702 01       		.byte	0x1
 1466 0703 B5       		.byte	0xb5
 1467 0704 35070000 		.4byte	0x735
 1468 0708 00000000 		.4byte	.LFB66
 1469 070c 14000000 		.4byte	.LFE66-.LFB66
 1470 0710 01       		.uleb128 0x1
 1471 0711 9C       		.byte	0x9c
 1472 0712 35070000 		.4byte	0x735
 1473 0716 1A       		.uleb128 0x1a
 1474 0717 A2070000 		.4byte	.LASF96
 1475 071b 01       		.byte	0x1
 1476 071c B5       		.byte	0xb5
 1477 071d 73000000 		.4byte	0x73
 1478 0721 5E000000 		.4byte	.LLST3
 1479 0725 14       		.uleb128 0x14
 1480 0726 99010000 		.4byte	.LASF97
 1481 072a 01       		.byte	0x1
 1482 072b B7       		.byte	0xb7
 1483 072c 35070000 		.4byte	0x735
 1484 0730 98000000 		.4byte	.LLST4
 1485 0734 00       		.byte	0
 1486 0735 02       		.uleb128 0x2
 1487 0736 01       		.byte	0x1
 1488 0737 02       		.byte	0x2
 1489 0738 13020000 		.4byte	.LASF98
 1490 073c 12       		.uleb128 0x12
 1491 073d 43060000 		.4byte	.LASF99
 1492 0741 01       		.byte	0x1
 1493 0742 CA       		.byte	0xca
 1494 0743 81000000 		.4byte	0x81
 1495 0747 00000000 		.4byte	.LFB67
 1496 074b 26000000 		.4byte	.LFE67-.LFB67
 1497 074f 01       		.uleb128 0x1
 1498 0750 9C       		.byte	0x9c
 1499 0751 74070000 		.4byte	0x774
 1500 0755 1A       		.uleb128 0x1a
 1501 0756 19080000 		.4byte	.LASF100
 1502 075a 01       		.byte	0x1
 1503 075b CA       		.byte	0xca
 1504 075c 74070000 		.4byte	0x774
 1505 0760 B7000000 		.4byte	.LLST5
 1506 0764 18       		.uleb128 0x18
 1507 0765 6C726300 		.ascii	"lrc\000"
 1508 0769 01       		.byte	0x1
 1509 076a CC       		.byte	0xcc
 1510 076b 81000000 		.4byte	0x81
 1511 076f D5000000 		.4byte	.LLST6
 1512 0773 00       		.byte	0
ARM GAS  C:\Users\RECEPC~1\AppData\Local\Temp\cc8eh59p.s 			page 32


 1513 0774 1B       		.uleb128 0x1b
 1514 0775 04       		.byte	0x4
 1515 0776 D5000000 		.4byte	0xd5
 1516 077a 12       		.uleb128 0x12
 1517 077b 3B040000 		.4byte	.LASF101
 1518 077f 01       		.byte	0x1
 1519 0780 87       		.byte	0x87
 1520 0781 97000000 		.4byte	0x97
 1521 0785 00000000 		.4byte	.LFB65
 1522 0789 00010000 		.4byte	.LFE65-.LFB65
 1523 078d 01       		.uleb128 0x1
 1524 078e 9C       		.byte	0x9c
 1525 078f A0080000 		.4byte	0x8a0
 1526 0793 1A       		.uleb128 0x1a
 1527 0794 D2010000 		.4byte	.LASF102
 1528 0798 01       		.byte	0x1
 1529 0799 87       		.byte	0x87
 1530 079a 97000000 		.4byte	0x97
 1531 079e 1D010000 		.4byte	.LLST7
 1532 07a2 14       		.uleb128 0x14
 1533 07a3 A2070000 		.4byte	.LASF96
 1534 07a7 01       		.byte	0x1
 1535 07a8 88       		.byte	0x88
 1536 07a9 97000000 		.4byte	0x97
 1537 07ad 3E010000 		.4byte	.LLST8
 1538 07b1 18       		.uleb128 0x18
 1539 07b2 7800     		.ascii	"x\000"
 1540 07b4 01       		.byte	0x1
 1541 07b5 88       		.byte	0x88
 1542 07b6 97000000 		.4byte	0x97
 1543 07ba 5C010000 		.4byte	.LLST9
 1544 07be 1C       		.uleb128 0x1c
 1545 07bf 15010000 		.4byte	.LASF103
 1546 07c3 01       		.byte	0x1
 1547 07c4 89       		.byte	0x89
 1548 07c5 A0080000 		.4byte	0x8a0
 1549 07c9 02       		.uleb128 0x2
 1550 07ca 91       		.byte	0x91
 1551 07cb 5C       		.sleb128 -36
 1552 07cc 14       		.uleb128 0x14
 1553 07cd D7000000 		.4byte	.LASF104
 1554 07d1 01       		.byte	0x1
 1555 07d2 8A       		.byte	0x8a
 1556 07d3 D5000000 		.4byte	0xd5
 1557 07d7 A8010000 		.4byte	.LLST10
 1558 07db 14       		.uleb128 0x14
 1559 07dc F0020000 		.4byte	.LASF105
 1560 07e0 01       		.byte	0x1
 1561 07e1 8C       		.byte	0x8c
 1562 07e2 97000000 		.4byte	0x97
 1563 07e6 DE010000 		.4byte	.LLST11
 1564 07ea 1D       		.uleb128 0x1d
 1565 07eb C3080000 		.4byte	0x8c3
 1566 07ef FD010000 		.4byte	.LLST12
 1567 07f3 14       		.uleb128 0x14
 1568 07f4 31000000 		.4byte	.LASF72
 1569 07f8 01       		.byte	0x1
ARM GAS  C:\Users\RECEPC~1\AppData\Local\Temp\cc8eh59p.s 			page 33


 1570 07f9 A5       		.byte	0xa5
 1571 07fa B0080000 		.4byte	0x8b0
 1572 07fe 17020000 		.4byte	.LLST13
 1573 0802 16       		.uleb128 0x16
 1574 0803 0C000000 		.4byte	.LVL41
 1575 0807 E2050000 		.4byte	0x5e2
 1576 080b 16080000 		.4byte	0x816
 1577 080f 17       		.uleb128 0x17
 1578 0810 01       		.uleb128 0x1
 1579 0811 50       		.byte	0x50
 1580 0812 02       		.uleb128 0x2
 1581 0813 74       		.byte	0x74
 1582 0814 00       		.sleb128 0
 1583 0815 00       		.byte	0
 1584 0816 16       		.uleb128 0x16
 1585 0817 18000000 		.4byte	.LVL43
 1586 081b D00C0000 		.4byte	0xcd0
 1587 081f 2D080000 		.4byte	0x82d
 1588 0823 17       		.uleb128 0x17
 1589 0824 01       		.uleb128 0x1
 1590 0825 50       		.byte	0x50
 1591 0826 05       		.uleb128 0x5
 1592 0827 74       		.byte	0x74
 1593 0828 00       		.sleb128 0
 1594 0829 08       		.byte	0x8
 1595 082a 20       		.byte	0x20
 1596 082b 21       		.byte	0x21
 1597 082c 00       		.byte	0
 1598 082d 16       		.uleb128 0x16
 1599 082e 1E000000 		.4byte	.LVL44
 1600 0832 E10C0000 		.4byte	0xce1
 1601 0836 41080000 		.4byte	0x841
 1602 083a 17       		.uleb128 0x17
 1603 083b 01       		.uleb128 0x1
 1604 083c 50       		.byte	0x50
 1605 083d 02       		.uleb128 0x2
 1606 083e 08       		.byte	0x8
 1607 083f 32       		.byte	0x32
 1608 0840 00       		.byte	0
 1609 0841 15       		.uleb128 0x15
 1610 0842 22000000 		.4byte	.LVL45
 1611 0846 FD0C0000 		.4byte	0xcfd
 1612 084a 15       		.uleb128 0x15
 1613 084b 2C000000 		.4byte	.LVL49
 1614 084f C90C0000 		.4byte	0xcc9
 1615 0853 16       		.uleb128 0x16
 1616 0854 54000000 		.4byte	.LVL50
 1617 0858 3C070000 		.4byte	0x73c
 1618 085c 67080000 		.4byte	0x867
 1619 0860 17       		.uleb128 0x17
 1620 0861 01       		.uleb128 0x1
 1621 0862 50       		.byte	0x50
 1622 0863 02       		.uleb128 0x2
 1623 0864 7D       		.byte	0x7d
 1624 0865 14       		.sleb128 20
 1625 0866 00       		.byte	0
 1626 0867 15       		.uleb128 0x15
ARM GAS  C:\Users\RECEPC~1\AppData\Local\Temp\cc8eh59p.s 			page 34


 1627 0868 6C000000 		.4byte	.LVL53
 1628 086c D00C0000 		.4byte	0xcd0
 1629 0870 16       		.uleb128 0x16
 1630 0871 7A000000 		.4byte	.LVL56
 1631 0875 E10C0000 		.4byte	0xce1
 1632 0879 84080000 		.4byte	0x884
 1633 087d 17       		.uleb128 0x17
 1634 087e 01       		.uleb128 0x1
 1635 087f 50       		.byte	0x50
 1636 0880 02       		.uleb128 0x2
 1637 0881 08       		.byte	0x8
 1638 0882 C8       		.byte	0xc8
 1639 0883 00       		.byte	0
 1640 0884 15       		.uleb128 0x15
 1641 0885 7E000000 		.4byte	.LVL57
 1642 0889 F20C0000 		.4byte	0xcf2
 1643 088d 15       		.uleb128 0x15
 1644 088e 94000000 		.4byte	.LVL61
 1645 0892 FD0C0000 		.4byte	0xcfd
 1646 0896 15       		.uleb128 0x15
 1647 0897 A2000000 		.4byte	.LVL64
 1648 089b C90C0000 		.4byte	0xcc9
 1649 089f 00       		.byte	0
 1650 08a0 07       		.uleb128 0x7
 1651 08a1 D5000000 		.4byte	0xd5
 1652 08a5 B0080000 		.4byte	0x8b0
 1653 08a9 08       		.uleb128 0x8
 1654 08aa F2000000 		.4byte	0xf2
 1655 08ae 08       		.byte	0x8
 1656 08af 00       		.byte	0
 1657 08b0 07       		.uleb128 0x7
 1658 08b1 D5000000 		.4byte	0xd5
 1659 08b5 C3080000 		.4byte	0x8c3
 1660 08b9 1E       		.uleb128 0x1e
 1661 08ba F2000000 		.4byte	0xf2
 1662 08be EA070000 		.4byte	0x7ea
 1663 08c2 00       		.byte	0
 1664 08c3 1F       		.uleb128 0x1f
 1665 08c4 F2000000 		.4byte	0xf2
 1666 08c8 20       		.uleb128 0x20
 1667 08c9 1D050000 		.4byte	.LASF106
 1668 08cd 06       		.byte	0x6
 1669 08ce 5506     		.2byte	0x655
 1670 08d0 D4080000 		.4byte	0x8d4
 1671 08d4 06       		.uleb128 0x6
 1672 08d5 8C000000 		.4byte	0x8c
 1673 08d9 21       		.uleb128 0x21
 1674 08da AC030000 		.4byte	.LASF107
 1675 08de 05       		.byte	0x5
 1676 08df 2C       		.byte	0x2c
 1677 08e0 EA080000 		.4byte	0x8ea
 1678 08e4 05       		.uleb128 0x5
 1679 08e5 03       		.byte	0x3
 1680 08e6 00000000 		.4byte	countAnimation1
 1681 08ea 06       		.uleb128 0x6
 1682 08eb C9000000 		.4byte	0xc9
 1683 08ef 21       		.uleb128 0x21
ARM GAS  C:\Users\RECEPC~1\AppData\Local\Temp\cc8eh59p.s 			page 35


 1684 08f0 EA030000 		.4byte	.LASF108
 1685 08f4 05       		.byte	0x5
 1686 08f5 2D       		.byte	0x2d
 1687 08f6 EA080000 		.4byte	0x8ea
 1688 08fa 05       		.uleb128 0x5
 1689 08fb 03       		.byte	0x3
 1690 08fc 00000000 		.4byte	countAnimation2
 1691 0900 21       		.uleb128 0x21
 1692 0901 E2020000 		.4byte	.LASF109
 1693 0905 05       		.byte	0x5
 1694 0906 2E       		.byte	0x2e
 1695 0907 EA080000 		.4byte	0x8ea
 1696 090b 05       		.uleb128 0x5
 1697 090c 03       		.byte	0x3
 1698 090d 00000000 		.4byte	countBeagleTX
 1699 0911 21       		.uleb128 0x21
 1700 0912 ED070000 		.4byte	.LASF110
 1701 0916 05       		.byte	0x5
 1702 0917 2F       		.byte	0x2f
 1703 0918 EA080000 		.4byte	0x8ea
 1704 091c 05       		.uleb128 0x5
 1705 091d 03       		.byte	0x3
 1706 091e 00000000 		.4byte	countPump
 1707 0922 21       		.uleb128 0x21
 1708 0923 20020000 		.4byte	.LASF111
 1709 0927 05       		.byte	0x5
 1710 0928 30       		.byte	0x30
 1711 0929 ED000000 		.4byte	0xed
 1712 092d 05       		.uleb128 0x5
 1713 092e 03       		.byte	0x3
 1714 092f 00000000 		.4byte	flowDisplay1
 1715 0933 21       		.uleb128 0x21
 1716 0934 2D020000 		.4byte	.LASF112
 1717 0938 05       		.byte	0x5
 1718 0939 31       		.byte	0x31
 1719 093a ED000000 		.4byte	0xed
 1720 093e 05       		.uleb128 0x5
 1721 093f 03       		.byte	0x3
 1722 0940 00000000 		.4byte	flowDisplay2
 1723 0944 21       		.uleb128 0x21
 1724 0945 3A020000 		.4byte	.LASF113
 1725 0949 05       		.byte	0x5
 1726 094a 32       		.byte	0x32
 1727 094b ED000000 		.4byte	0xed
 1728 094f 05       		.uleb128 0x5
 1729 0950 03       		.byte	0x3
 1730 0951 00000000 		.4byte	flowDisplay3
 1731 0955 21       		.uleb128 0x21
 1732 0956 47020000 		.4byte	.LASF114
 1733 095a 05       		.byte	0x5
 1734 095b 33       		.byte	0x33
 1735 095c ED000000 		.4byte	0xed
 1736 0960 05       		.uleb128 0x5
 1737 0961 03       		.byte	0x3
 1738 0962 00000000 		.4byte	flowDisplay4
 1739 0966 21       		.uleb128 0x21
 1740 0967 7F010000 		.4byte	.LASF115
ARM GAS  C:\Users\RECEPC~1\AppData\Local\Temp\cc8eh59p.s 			page 36


 1741 096b 05       		.byte	0x5
 1742 096c 34       		.byte	0x34
 1743 096d E8000000 		.4byte	0xe8
 1744 0971 05       		.uleb128 0x5
 1745 0972 03       		.byte	0x3
 1746 0973 00000000 		.4byte	digits
 1747 0977 07       		.uleb128 0x7
 1748 0978 97000000 		.4byte	0x97
 1749 097c 87090000 		.4byte	0x987
 1750 0980 08       		.uleb128 0x8
 1751 0981 F2000000 		.4byte	0xf2
 1752 0985 0B       		.byte	0xb
 1753 0986 00       		.byte	0
 1754 0987 21       		.uleb128 0x21
 1755 0988 38000000 		.4byte	.LASF116
 1756 098c 05       		.byte	0x5
 1757 098d 35       		.byte	0x35
 1758 098e 98090000 		.4byte	0x998
 1759 0992 05       		.uleb128 0x5
 1760 0993 03       		.byte	0x3
 1761 0994 00000000 		.4byte	ipAdress
 1762 0998 06       		.uleb128 0x6
 1763 0999 77090000 		.4byte	0x977
 1764 099d 21       		.uleb128 0x21
 1765 099e CA020000 		.4byte	.LASF117
 1766 09a2 05       		.byte	0x5
 1767 09a3 36       		.byte	0x36
 1768 09a4 E8000000 		.4byte	0xe8
 1769 09a8 05       		.uleb128 0x5
 1770 09a9 03       		.byte	0x3
 1771 09aa 00000000 		.4byte	numberKeys1
 1772 09ae 21       		.uleb128 0x21
 1773 09af D6020000 		.4byte	.LASF118
 1774 09b3 05       		.byte	0x5
 1775 09b4 37       		.byte	0x37
 1776 09b5 E8000000 		.4byte	0xe8
 1777 09b9 05       		.uleb128 0x5
 1778 09ba 03       		.byte	0x3
 1779 09bb 00000000 		.4byte	numberKeys2
 1780 09bf 21       		.uleb128 0x21
 1781 09c0 C5040000 		.4byte	.LASF119
 1782 09c4 05       		.byte	0x5
 1783 09c5 38       		.byte	0x38
 1784 09c6 E8000000 		.4byte	0xe8
 1785 09ca 05       		.uleb128 0x5
 1786 09cb 03       		.byte	0x3
 1787 09cc 00000000 		.4byte	flagPoint1
 1788 09d0 21       		.uleb128 0x21
 1789 09d1 E7000000 		.4byte	.LASF120
 1790 09d5 05       		.byte	0x5
 1791 09d6 39       		.byte	0x39
 1792 09d7 E8000000 		.4byte	0xe8
 1793 09db 05       		.uleb128 0x5
 1794 09dc 03       		.byte	0x3
 1795 09dd 00000000 		.4byte	flagPoint2
 1796 09e1 07       		.uleb128 0x7
 1797 09e2 97000000 		.4byte	0x97
ARM GAS  C:\Users\RECEPC~1\AppData\Local\Temp\cc8eh59p.s 			page 37


 1798 09e6 F7090000 		.4byte	0x9f7
 1799 09ea 08       		.uleb128 0x8
 1800 09eb F2000000 		.4byte	0xf2
 1801 09ef 77       		.byte	0x77
 1802 09f0 08       		.uleb128 0x8
 1803 09f1 F2000000 		.4byte	0xf2
 1804 09f5 07       		.byte	0x7
 1805 09f6 00       		.byte	0
 1806 09f7 21       		.uleb128 0x21
 1807 09f8 19020000 		.4byte	.LASF121
 1808 09fc 05       		.byte	0x5
 1809 09fd 3A       		.byte	0x3a
 1810 09fe 080A0000 		.4byte	0xa08
 1811 0a02 05       		.uleb128 0x5
 1812 0a03 03       		.byte	0x3
 1813 0a04 00000000 		.4byte	button
 1814 0a08 06       		.uleb128 0x6
 1815 0a09 E1090000 		.4byte	0x9e1
 1816 0a0d 21       		.uleb128 0x21
 1817 0a0e AC010000 		.4byte	.LASF122
 1818 0a12 05       		.byte	0x5
 1819 0a13 3B       		.byte	0x3b
 1820 0a14 E8000000 		.4byte	0xe8
 1821 0a18 05       		.uleb128 0x5
 1822 0a19 03       		.byte	0x3
 1823 0a1a 00000000 		.4byte	productNumber
 1824 0a1e 21       		.uleb128 0x21
 1825 0a1f 81030000 		.4byte	.LASF123
 1826 0a23 05       		.byte	0x5
 1827 0a24 3C       		.byte	0x3c
 1828 0a25 57040000 		.4byte	0x457
 1829 0a29 05       		.uleb128 0x5
 1830 0a2a 03       		.byte	0x3
 1831 0a2b 00000000 		.4byte	presetFast
 1832 0a2f 21       		.uleb128 0x21
 1833 0a30 D0050000 		.4byte	.LASF124
 1834 0a34 05       		.byte	0x5
 1835 0a35 3D       		.byte	0x3d
 1836 0a36 ED000000 		.4byte	0xed
 1837 0a3a 05       		.uleb128 0x5
 1838 0a3b 03       		.byte	0x3
 1839 0a3c 00000000 		.4byte	delayPicture1
 1840 0a40 21       		.uleb128 0x21
 1841 0a41 DE050000 		.4byte	.LASF125
 1842 0a45 05       		.byte	0x5
 1843 0a46 3E       		.byte	0x3e
 1844 0a47 ED000000 		.4byte	0xed
 1845 0a4b 05       		.uleb128 0x5
 1846 0a4c 03       		.byte	0x3
 1847 0a4d 00000000 		.4byte	delayPicture2
 1848 0a51 21       		.uleb128 0x21
 1849 0a52 AB040000 		.4byte	.LASF126
 1850 0a56 05       		.byte	0x5
 1851 0a57 3F       		.byte	0x3f
 1852 0a58 E8000000 		.4byte	0xe8
 1853 0a5c 05       		.uleb128 0x5
 1854 0a5d 03       		.byte	0x3
ARM GAS  C:\Users\RECEPC~1\AppData\Local\Temp\cc8eh59p.s 			page 38


 1855 0a5e 00000000 		.4byte	ppux10
 1856 0a62 21       		.uleb128 0x21
 1857 0a63 41000000 		.4byte	.LASF127
 1858 0a67 05       		.byte	0x5
 1859 0a68 40       		.byte	0x40
 1860 0a69 E8000000 		.4byte	0xe8
 1861 0a6d 05       		.uleb128 0x5
 1862 0a6e 03       		.byte	0x3
 1863 0a6f 00000000 		.4byte	decimalMoney
 1864 0a73 21       		.uleb128 0x21
 1865 0a74 05000000 		.4byte	.LASF128
 1866 0a78 05       		.byte	0x5
 1867 0a79 41       		.byte	0x41
 1868 0a7a E8000000 		.4byte	0xe8
 1869 0a7e 05       		.uleb128 0x5
 1870 0a7f 03       		.byte	0x3
 1871 0a80 00000000 		.4byte	decimalVolume
 1872 0a84 21       		.uleb128 0x21
 1873 0a85 E2040000 		.4byte	.LASF129
 1874 0a89 05       		.byte	0x5
 1875 0a8a 42       		.byte	0x42
 1876 0a8b 950A0000 		.4byte	0xa95
 1877 0a8f 05       		.uleb128 0x5
 1878 0a90 03       		.byte	0x3
 1879 0a91 00000000 		.4byte	symbols
 1880 0a95 06       		.uleb128 0x6
 1881 0a96 B5030000 		.4byte	0x3b5
 1882 0a9a 07       		.uleb128 0x7
 1883 0a9b 97000000 		.4byte	0x97
 1884 0a9f AA0A0000 		.4byte	0xaaa
 1885 0aa3 08       		.uleb128 0x8
 1886 0aa4 F2000000 		.4byte	0xf2
 1887 0aa8 02       		.byte	0x2
 1888 0aa9 00       		.byte	0
 1889 0aaa 21       		.uleb128 0x21
 1890 0aab 94010000 		.4byte	.LASF130
 1891 0aaf 05       		.byte	0x5
 1892 0ab0 43       		.byte	0x43
 1893 0ab1 BB0A0000 		.4byte	0xabb
 1894 0ab5 05       		.uleb128 0x5
 1895 0ab6 03       		.byte	0x3
 1896 0ab7 00000000 		.4byte	time
 1897 0abb 06       		.uleb128 0x6
 1898 0abc 9A0A0000 		.4byte	0xa9a
 1899 0ac0 21       		.uleb128 0x21
 1900 0ac1 19030000 		.4byte	.LASF131
 1901 0ac5 05       		.byte	0x5
 1902 0ac6 44       		.byte	0x44
 1903 0ac7 D10A0000 		.4byte	0xad1
 1904 0acb 05       		.uleb128 0x5
 1905 0acc 03       		.byte	0x3
 1906 0acd 00000000 		.4byte	date
 1907 0ad1 06       		.uleb128 0x6
 1908 0ad2 9A0A0000 		.4byte	0xa9a
 1909 0ad6 21       		.uleb128 0x21
 1910 0ad7 F2000000 		.4byte	.LASF132
 1911 0adb 05       		.byte	0x5
ARM GAS  C:\Users\RECEPC~1\AppData\Local\Temp\cc8eh59p.s 			page 39


 1912 0adc 45       		.byte	0x45
 1913 0add E70A0000 		.4byte	0xae7
 1914 0ae1 05       		.uleb128 0x5
 1915 0ae2 03       		.byte	0x3
 1916 0ae3 00000000 		.4byte	screen
 1917 0ae7 06       		.uleb128 0x6
 1918 0ae8 B5030000 		.4byte	0x3b5
 1919 0aec 21       		.uleb128 0x21
 1920 0aed 98000000 		.4byte	.LASF133
 1921 0af1 05       		.byte	0x5
 1922 0af2 46       		.byte	0x46
 1923 0af3 FD0A0000 		.4byte	0xafd
 1924 0af7 05       		.uleb128 0x5
 1925 0af8 03       		.byte	0x3
 1926 0af9 00000000 		.4byte	residue
 1927 0afd 06       		.uleb128 0x6
 1928 0afe FB030000 		.4byte	0x3fb
 1929 0b02 07       		.uleb128 0x7
 1930 0b03 97000000 		.4byte	0x97
 1931 0b07 120B0000 		.4byte	0xb12
 1932 0b0b 08       		.uleb128 0x8
 1933 0b0c F2000000 		.4byte	0xf2
 1934 0b10 1D       		.byte	0x1d
 1935 0b11 00       		.byte	0
 1936 0b12 21       		.uleb128 0x21
 1937 0b13 99070000 		.4byte	.LASF134
 1938 0b17 05       		.byte	0x5
 1939 0b18 47       		.byte	0x47
 1940 0b19 020B0000 		.4byte	0xb02
 1941 0b1d 05       		.uleb128 0x5
 1942 0b1e 03       		.byte	0x3
 1943 0b1f 00000000 		.4byte	temporal
 1944 0b23 21       		.uleb128 0x21
 1945 0b24 13000000 		.4byte	.LASF135
 1946 0b28 05       		.byte	0x5
 1947 0b29 48       		.byte	0x48
 1948 0b2a 020B0000 		.4byte	0xb02
 1949 0b2e 05       		.uleb128 0x5
 1950 0b2f 03       		.byte	0x3
 1951 0b30 00000000 		.4byte	temporalCom
 1952 0b34 21       		.uleb128 0x21
 1953 0b35 7A020000 		.4byte	.LASF136
 1954 0b39 05       		.byte	0x5
 1955 0b3a 49       		.byte	0x49
 1956 0b3b E8000000 		.4byte	0xe8
 1957 0b3f 05       		.uleb128 0x5
 1958 0b40 03       		.byte	0x3
 1959 0b41 00000000 		.4byte	turn
 1960 0b45 21       		.uleb128 0x21
 1961 0b46 2A050000 		.4byte	.LASF137
 1962 0b4a 05       		.byte	0x5
 1963 0b4b 4A       		.byte	0x4a
 1964 0b4c E8000000 		.4byte	0xe8
 1965 0b50 05       		.uleb128 0x5
 1966 0b51 03       		.byte	0x3
 1967 0b52 00000000 		.4byte	lockTurn
 1968 0b56 21       		.uleb128 0x21
ARM GAS  C:\Users\RECEPC~1\AppData\Local\Temp\cc8eh59p.s 			page 40


 1969 0b57 3B070000 		.4byte	.LASF138
 1970 0b5b 05       		.byte	0x5
 1971 0b5c 4B       		.byte	0x4b
 1972 0b5d 670B0000 		.4byte	0xb67
 1973 0b61 05       		.uleb128 0x5
 1974 0b62 03       		.byte	0x3
 1975 0b63 00000000 		.4byte	idSeller
 1976 0b67 06       		.uleb128 0x6
 1977 0b68 85030000 		.4byte	0x385
 1978 0b6c 21       		.uleb128 0x21
 1979 0b6d 17060000 		.4byte	.LASF139
 1980 0b71 05       		.byte	0x5
 1981 0b72 4C       		.byte	0x4c
 1982 0b73 E8000000 		.4byte	0xe8
 1983 0b77 05       		.uleb128 0x5
 1984 0b78 03       		.byte	0x3
 1985 0b79 00000000 		.4byte	typeIdSeller
 1986 0b7d 07       		.uleb128 0x7
 1987 0b7e 97000000 		.4byte	0x97
 1988 0b82 8D0B0000 		.4byte	0xb8d
 1989 0b86 08       		.uleb128 0x8
 1990 0b87 F2000000 		.4byte	0xf2
 1991 0b8b 07       		.byte	0x7
 1992 0b8c 00       		.byte	0
 1993 0b8d 21       		.uleb128 0x21
 1994 0b8e A0050000 		.4byte	.LASF140
 1995 0b92 05       		.byte	0x5
 1996 0b93 4D       		.byte	0x4d
 1997 0b94 9E0B0000 		.4byte	0xb9e
 1998 0b98 05       		.uleb128 0x5
 1999 0b99 03       		.byte	0x3
 2000 0b9a 00000000 		.4byte	passwordSeller
 2001 0b9e 06       		.uleb128 0x6
 2002 0b9f 7D0B0000 		.4byte	0xb7d
 2003 0ba3 21       		.uleb128 0x21
 2004 0ba4 6C040000 		.4byte	.LASF141
 2005 0ba8 05       		.byte	0x5
 2006 0ba9 4E       		.byte	0x4e
 2007 0baa E8000000 		.4byte	0xe8
 2008 0bae 05       		.uleb128 0x5
 2009 0baf 03       		.byte	0x3
 2010 0bb0 00000000 		.4byte	flagResetMux
 2011 0bb4 21       		.uleb128 0x21
 2012 0bb5 C9030000 		.4byte	.LASF142
 2013 0bb9 05       		.byte	0x5
 2014 0bba 4F       		.byte	0x4f
 2015 0bbb E8000000 		.4byte	0xe8
 2016 0bbf 05       		.uleb128 0x5
 2017 0bc0 03       		.byte	0x3
 2018 0bc1 00000000 		.4byte	stateBeagleSoft
 2019 0bc5 21       		.uleb128 0x21
 2020 0bc6 3C010000 		.4byte	.LASF143
 2021 0bca 05       		.byte	0x5
 2022 0bcb 50       		.byte	0x50
 2023 0bcc D60B0000 		.4byte	0xbd6
 2024 0bd0 05       		.uleb128 0x5
 2025 0bd1 03       		.byte	0x3
ARM GAS  C:\Users\RECEPC~1\AppData\Local\Temp\cc8eh59p.s 			page 41


 2026 0bd2 00000000 		.4byte	PrevStatePump
 2027 0bd6 06       		.uleb128 0x6
 2028 0bd7 F9000000 		.4byte	0xf9
 2029 0bdb 21       		.uleb128 0x21
 2030 0bdc 33050000 		.4byte	.LASF144
 2031 0be0 05       		.byte	0x5
 2032 0be1 51       		.byte	0x51
 2033 0be2 E8000000 		.4byte	0xe8
 2034 0be6 05       		.uleb128 0x5
 2035 0be7 03       		.byte	0x3
 2036 0be8 00000000 		.4byte	PrevScreen
 2037 0bec 21       		.uleb128 0x21
 2038 0bed C0050000 		.4byte	.LASF145
 2039 0bf1 05       		.byte	0x5
 2040 0bf2 53       		.byte	0x53
 2041 0bf3 97000000 		.4byte	0x97
 2042 0bf7 05       		.uleb128 0x5
 2043 0bf8 03       		.byte	0x3
 2044 0bf9 00000000 		.4byte	UnitType
 2045 0bfd 21       		.uleb128 0x21
 2046 0bfe AC020000 		.4byte	.LASF146
 2047 0c02 05       		.byte	0x5
 2048 0c03 53       		.byte	0x53
 2049 0c04 97000000 		.4byte	0x97
 2050 0c08 05       		.uleb128 0x5
 2051 0c09 03       		.byte	0x3
 2052 0c0a 00000000 		.4byte	ConversionFactor
 2053 0c0e 21       		.uleb128 0x21
 2054 0c0f 33010000 		.4byte	.LASF147
 2055 0c13 05       		.byte	0x5
 2056 0c14 53       		.byte	0x53
 2057 0c15 97000000 		.4byte	0x97
 2058 0c19 05       		.uleb128 0x5
 2059 0c1a 03       		.byte	0x3
 2060 0c1b 00000000 		.4byte	MoneyDec
 2061 0c1f 21       		.uleb128 0x21
 2062 0c20 16050000 		.4byte	.LASF148
 2063 0c24 05       		.byte	0x5
 2064 0c25 53       		.byte	0x53
 2065 0c26 97000000 		.4byte	0x97
 2066 0c2a 05       		.uleb128 0x5
 2067 0c2b 03       		.byte	0x3
 2068 0c2c 00000000 		.4byte	VolDec
 2069 0c30 21       		.uleb128 0x21
 2070 0c31 10060000 		.4byte	.LASF149
 2071 0c35 05       		.byte	0x5
 2072 0c36 53       		.byte	0x53
 2073 0c37 97000000 		.4byte	0x97
 2074 0c3b 05       		.uleb128 0x5
 2075 0c3c 03       		.byte	0x3
 2076 0c3d 00000000 		.4byte	PPUDec
 2077 0c41 21       		.uleb128 0x21
 2078 0c42 A7000000 		.4byte	.LASF150
 2079 0c46 05       		.byte	0x5
 2080 0c47 53       		.byte	0x53
 2081 0c48 97000000 		.4byte	0x97
 2082 0c4c 05       		.uleb128 0x5
ARM GAS  C:\Users\RECEPC~1\AppData\Local\Temp\cc8eh59p.s 			page 42


 2083 0c4d 03       		.byte	0x3
 2084 0c4e 00000000 		.4byte	DDMode
 2085 0c52 21       		.uleb128 0x21
 2086 0c53 27000000 		.4byte	.LASF151
 2087 0c57 05       		.byte	0x5
 2088 0c58 54       		.byte	0x54
 2089 0c59 F9000000 		.4byte	0xf9
 2090 0c5d 05       		.uleb128 0x5
 2091 0c5e 03       		.byte	0x3
 2092 0c5f 00000000 		.4byte	statePump
 2093 0c63 21       		.uleb128 0x21
 2094 0c64 BC030000 		.4byte	.LASF152
 2095 0c68 05       		.byte	0x5
 2096 0c69 55       		.byte	0x55
 2097 0c6a 97000000 		.4byte	0x97
 2098 0c6e 05       		.uleb128 0x5
 2099 0c6f 03       		.byte	0x3
 2100 0c70 00000000 		.4byte	NumPositions
 2101 0c74 21       		.uleb128 0x21
 2102 0c75 5B080000 		.4byte	.LASF153
 2103 0c79 05       		.byte	0x5
 2104 0c7a 94       		.byte	0x94
 2105 0c7b 09010000 		.4byte	0x109
 2106 0c7f 05       		.uleb128 0x5
 2107 0c80 03       		.byte	0x3
 2108 0c81 00000000 		.4byte	bufferDisplay1
 2109 0c85 21       		.uleb128 0x21
 2110 0c86 69050000 		.4byte	.LASF154
 2111 0c8a 05       		.byte	0x5
 2112 0c8b 95       		.byte	0x95
 2113 0c8c 09010000 		.4byte	0x109
 2114 0c90 05       		.uleb128 0x5
 2115 0c91 03       		.byte	0x3
 2116 0c92 00000000 		.4byte	bufferDisplay2
 2117 0c96 21       		.uleb128 0x21
 2118 0c97 78050000 		.4byte	.LASF155
 2119 0c9b 05       		.byte	0x5
 2120 0c9c 96       		.byte	0x96
 2121 0c9d 09010000 		.4byte	0x109
 2122 0ca1 05       		.uleb128 0x5
 2123 0ca2 03       		.byte	0x3
 2124 0ca3 00000000 		.4byte	bufferDisplay3
 2125 0ca7 21       		.uleb128 0x21
 2126 0ca8 87050000 		.4byte	.LASF156
 2127 0cac 05       		.byte	0x5
 2128 0cad 97       		.byte	0x97
 2129 0cae 09010000 		.4byte	0x109
 2130 0cb2 05       		.uleb128 0x5
 2131 0cb3 03       		.byte	0x3
 2132 0cb4 00000000 		.4byte	bufferDisplay4
 2133 0cb8 21       		.uleb128 0x21
 2134 0cb9 D2010000 		.4byte	.LASF102
 2135 0cbd 05       		.byte	0x5
 2136 0cbe B3       		.byte	0xb3
 2137 0cbf 11050000 		.4byte	0x511
 2138 0cc3 05       		.uleb128 0x5
 2139 0cc4 03       		.byte	0x3
ARM GAS  C:\Users\RECEPC~1\AppData\Local\Temp\cc8eh59p.s 			page 43


 2140 0cc5 00000000 		.4byte	side
 2141 0cc9 22       		.uleb128 0x22
 2142 0cca 20010000 		.4byte	.LASF165
 2143 0cce 07       		.byte	0x7
 2144 0ccf 75       		.byte	0x75
 2145 0cd0 23       		.uleb128 0x23
 2146 0cd1 7D060000 		.4byte	.LASF157
 2147 0cd5 07       		.byte	0x7
 2148 0cd6 8A       		.byte	0x8a
 2149 0cd7 E10C0000 		.4byte	0xce1
 2150 0cdb 24       		.uleb128 0x24
 2151 0cdc 97000000 		.4byte	0x97
 2152 0ce0 00       		.byte	0
 2153 0ce1 23       		.uleb128 0x23
 2154 0ce2 FB020000 		.4byte	.LASF158
 2155 0ce6 08       		.byte	0x8
 2156 0ce7 77       		.byte	0x77
 2157 0ce8 F20C0000 		.4byte	0xcf2
 2158 0cec 24       		.uleb128 0x24
 2159 0ced AF000000 		.4byte	0xaf
 2160 0cf1 00       		.byte	0
 2161 0cf2 25       		.uleb128 0x25
 2162 0cf3 D7010000 		.4byte	.LASF159
 2163 0cf7 07       		.byte	0x7
 2164 0cf8 73       		.byte	0x73
 2165 0cf9 A3000000 		.4byte	0xa3
 2166 0cfd 25       		.uleb128 0x25
 2167 0cfe 26030000 		.4byte	.LASF160
 2168 0d02 07       		.byte	0x7
 2169 0d03 6F       		.byte	0x6f
 2170 0d04 97000000 		.4byte	0x97
 2171 0d08 00       		.byte	0
 2172              		.section	.debug_abbrev,"",%progbits
 2173              	.Ldebug_abbrev0:
 2174 0000 01       		.uleb128 0x1
 2175 0001 11       		.uleb128 0x11
 2176 0002 01       		.byte	0x1
 2177 0003 25       		.uleb128 0x25
 2178 0004 0E       		.uleb128 0xe
 2179 0005 13       		.uleb128 0x13
 2180 0006 0B       		.uleb128 0xb
 2181 0007 03       		.uleb128 0x3
 2182 0008 0E       		.uleb128 0xe
 2183 0009 1B       		.uleb128 0x1b
 2184 000a 0E       		.uleb128 0xe
 2185 000b 55       		.uleb128 0x55
 2186 000c 17       		.uleb128 0x17
 2187 000d 11       		.uleb128 0x11
 2188 000e 01       		.uleb128 0x1
 2189 000f 10       		.uleb128 0x10
 2190 0010 17       		.uleb128 0x17
 2191 0011 00       		.byte	0
 2192 0012 00       		.byte	0
 2193 0013 02       		.uleb128 0x2
 2194 0014 24       		.uleb128 0x24
 2195 0015 00       		.byte	0
 2196 0016 0B       		.uleb128 0xb
ARM GAS  C:\Users\RECEPC~1\AppData\Local\Temp\cc8eh59p.s 			page 44


 2197 0017 0B       		.uleb128 0xb
 2198 0018 3E       		.uleb128 0x3e
 2199 0019 0B       		.uleb128 0xb
 2200 001a 03       		.uleb128 0x3
 2201 001b 0E       		.uleb128 0xe
 2202 001c 00       		.byte	0
 2203 001d 00       		.byte	0
 2204 001e 03       		.uleb128 0x3
 2205 001f 16       		.uleb128 0x16
 2206 0020 00       		.byte	0
 2207 0021 03       		.uleb128 0x3
 2208 0022 0E       		.uleb128 0xe
 2209 0023 3A       		.uleb128 0x3a
 2210 0024 0B       		.uleb128 0xb
 2211 0025 3B       		.uleb128 0x3b
 2212 0026 0B       		.uleb128 0xb
 2213 0027 49       		.uleb128 0x49
 2214 0028 13       		.uleb128 0x13
 2215 0029 00       		.byte	0
 2216 002a 00       		.byte	0
 2217 002b 04       		.uleb128 0x4
 2218 002c 24       		.uleb128 0x24
 2219 002d 00       		.byte	0
 2220 002e 0B       		.uleb128 0xb
 2221 002f 0B       		.uleb128 0xb
 2222 0030 3E       		.uleb128 0x3e
 2223 0031 0B       		.uleb128 0xb
 2224 0032 03       		.uleb128 0x3
 2225 0033 08       		.uleb128 0x8
 2226 0034 00       		.byte	0
 2227 0035 00       		.byte	0
 2228 0036 05       		.uleb128 0x5
 2229 0037 16       		.uleb128 0x16
 2230 0038 00       		.byte	0
 2231 0039 03       		.uleb128 0x3
 2232 003a 0E       		.uleb128 0xe
 2233 003b 3A       		.uleb128 0x3a
 2234 003c 0B       		.uleb128 0xb
 2235 003d 3B       		.uleb128 0x3b
 2236 003e 05       		.uleb128 0x5
 2237 003f 49       		.uleb128 0x49
 2238 0040 13       		.uleb128 0x13
 2239 0041 00       		.byte	0
 2240 0042 00       		.byte	0
 2241 0043 06       		.uleb128 0x6
 2242 0044 35       		.uleb128 0x35
 2243 0045 00       		.byte	0
 2244 0046 49       		.uleb128 0x49
 2245 0047 13       		.uleb128 0x13
 2246 0048 00       		.byte	0
 2247 0049 00       		.byte	0
 2248 004a 07       		.uleb128 0x7
 2249 004b 01       		.uleb128 0x1
 2250 004c 01       		.byte	0x1
 2251 004d 49       		.uleb128 0x49
 2252 004e 13       		.uleb128 0x13
 2253 004f 01       		.uleb128 0x1
ARM GAS  C:\Users\RECEPC~1\AppData\Local\Temp\cc8eh59p.s 			page 45


 2254 0050 13       		.uleb128 0x13
 2255 0051 00       		.byte	0
 2256 0052 00       		.byte	0
 2257 0053 08       		.uleb128 0x8
 2258 0054 21       		.uleb128 0x21
 2259 0055 00       		.byte	0
 2260 0056 49       		.uleb128 0x49
 2261 0057 13       		.uleb128 0x13
 2262 0058 2F       		.uleb128 0x2f
 2263 0059 0B       		.uleb128 0xb
 2264 005a 00       		.byte	0
 2265 005b 00       		.byte	0
 2266 005c 09       		.uleb128 0x9
 2267 005d 13       		.uleb128 0x13
 2268 005e 01       		.byte	0x1
 2269 005f 03       		.uleb128 0x3
 2270 0060 0E       		.uleb128 0xe
 2271 0061 0B       		.uleb128 0xb
 2272 0062 05       		.uleb128 0x5
 2273 0063 3A       		.uleb128 0x3a
 2274 0064 0B       		.uleb128 0xb
 2275 0065 3B       		.uleb128 0x3b
 2276 0066 0B       		.uleb128 0xb
 2277 0067 01       		.uleb128 0x1
 2278 0068 13       		.uleb128 0x13
 2279 0069 00       		.byte	0
 2280 006a 00       		.byte	0
 2281 006b 0A       		.uleb128 0xa
 2282 006c 0D       		.uleb128 0xd
 2283 006d 00       		.byte	0
 2284 006e 03       		.uleb128 0x3
 2285 006f 0E       		.uleb128 0xe
 2286 0070 3A       		.uleb128 0x3a
 2287 0071 0B       		.uleb128 0xb
 2288 0072 3B       		.uleb128 0x3b
 2289 0073 0B       		.uleb128 0xb
 2290 0074 49       		.uleb128 0x49
 2291 0075 13       		.uleb128 0x13
 2292 0076 38       		.uleb128 0x38
 2293 0077 0B       		.uleb128 0xb
 2294 0078 00       		.byte	0
 2295 0079 00       		.byte	0
 2296 007a 0B       		.uleb128 0xb
 2297 007b 0D       		.uleb128 0xd
 2298 007c 00       		.byte	0
 2299 007d 03       		.uleb128 0x3
 2300 007e 0E       		.uleb128 0xe
 2301 007f 3A       		.uleb128 0x3a
 2302 0080 0B       		.uleb128 0xb
 2303 0081 3B       		.uleb128 0x3b
 2304 0082 0B       		.uleb128 0xb
 2305 0083 49       		.uleb128 0x49
 2306 0084 13       		.uleb128 0x13
 2307 0085 38       		.uleb128 0x38
 2308 0086 05       		.uleb128 0x5
 2309 0087 00       		.byte	0
 2310 0088 00       		.byte	0
ARM GAS  C:\Users\RECEPC~1\AppData\Local\Temp\cc8eh59p.s 			page 46


 2311 0089 0C       		.uleb128 0xc
 2312 008a 0D       		.uleb128 0xd
 2313 008b 00       		.byte	0
 2314 008c 03       		.uleb128 0x3
 2315 008d 08       		.uleb128 0x8
 2316 008e 3A       		.uleb128 0x3a
 2317 008f 0B       		.uleb128 0xb
 2318 0090 3B       		.uleb128 0x3b
 2319 0091 0B       		.uleb128 0xb
 2320 0092 49       		.uleb128 0x49
 2321 0093 13       		.uleb128 0x13
 2322 0094 38       		.uleb128 0x38
 2323 0095 0B       		.uleb128 0xb
 2324 0096 00       		.byte	0
 2325 0097 00       		.byte	0
 2326 0098 0D       		.uleb128 0xd
 2327 0099 0D       		.uleb128 0xd
 2328 009a 00       		.byte	0
 2329 009b 03       		.uleb128 0x3
 2330 009c 08       		.uleb128 0x8
 2331 009d 3A       		.uleb128 0x3a
 2332 009e 0B       		.uleb128 0xb
 2333 009f 3B       		.uleb128 0x3b
 2334 00a0 0B       		.uleb128 0xb
 2335 00a1 49       		.uleb128 0x49
 2336 00a2 13       		.uleb128 0x13
 2337 00a3 38       		.uleb128 0x38
 2338 00a4 05       		.uleb128 0x5
 2339 00a5 00       		.byte	0
 2340 00a6 00       		.byte	0
 2341 00a7 0E       		.uleb128 0xe
 2342 00a8 04       		.uleb128 0x4
 2343 00a9 01       		.byte	0x1
 2344 00aa 03       		.uleb128 0x3
 2345 00ab 0E       		.uleb128 0xe
 2346 00ac 0B       		.uleb128 0xb
 2347 00ad 0B       		.uleb128 0xb
 2348 00ae 3A       		.uleb128 0x3a
 2349 00af 0B       		.uleb128 0xb
 2350 00b0 3B       		.uleb128 0x3b
 2351 00b1 0B       		.uleb128 0xb
 2352 00b2 01       		.uleb128 0x1
 2353 00b3 13       		.uleb128 0x13
 2354 00b4 00       		.byte	0
 2355 00b5 00       		.byte	0
 2356 00b6 0F       		.uleb128 0xf
 2357 00b7 28       		.uleb128 0x28
 2358 00b8 00       		.byte	0
 2359 00b9 03       		.uleb128 0x3
 2360 00ba 08       		.uleb128 0x8
 2361 00bb 1C       		.uleb128 0x1c
 2362 00bc 0D       		.uleb128 0xd
 2363 00bd 00       		.byte	0
 2364 00be 00       		.byte	0
 2365 00bf 10       		.uleb128 0x10
 2366 00c0 28       		.uleb128 0x28
 2367 00c1 00       		.byte	0
ARM GAS  C:\Users\RECEPC~1\AppData\Local\Temp\cc8eh59p.s 			page 47


 2368 00c2 03       		.uleb128 0x3
 2369 00c3 0E       		.uleb128 0xe
 2370 00c4 1C       		.uleb128 0x1c
 2371 00c5 0D       		.uleb128 0xd
 2372 00c6 00       		.byte	0
 2373 00c7 00       		.byte	0
 2374 00c8 11       		.uleb128 0x11
 2375 00c9 04       		.uleb128 0x4
 2376 00ca 01       		.byte	0x1
 2377 00cb 03       		.uleb128 0x3
 2378 00cc 0E       		.uleb128 0xe
 2379 00cd 0B       		.uleb128 0xb
 2380 00ce 0B       		.uleb128 0xb
 2381 00cf 3A       		.uleb128 0x3a
 2382 00d0 0B       		.uleb128 0xb
 2383 00d1 3B       		.uleb128 0x3b
 2384 00d2 05       		.uleb128 0x5
 2385 00d3 01       		.uleb128 0x1
 2386 00d4 13       		.uleb128 0x13
 2387 00d5 00       		.byte	0
 2388 00d6 00       		.byte	0
 2389 00d7 12       		.uleb128 0x12
 2390 00d8 2E       		.uleb128 0x2e
 2391 00d9 01       		.byte	0x1
 2392 00da 3F       		.uleb128 0x3f
 2393 00db 19       		.uleb128 0x19
 2394 00dc 03       		.uleb128 0x3
 2395 00dd 0E       		.uleb128 0xe
 2396 00de 3A       		.uleb128 0x3a
 2397 00df 0B       		.uleb128 0xb
 2398 00e0 3B       		.uleb128 0x3b
 2399 00e1 0B       		.uleb128 0xb
 2400 00e2 27       		.uleb128 0x27
 2401 00e3 19       		.uleb128 0x19
 2402 00e4 49       		.uleb128 0x49
 2403 00e5 13       		.uleb128 0x13
 2404 00e6 11       		.uleb128 0x11
 2405 00e7 01       		.uleb128 0x1
 2406 00e8 12       		.uleb128 0x12
 2407 00e9 06       		.uleb128 0x6
 2408 00ea 40       		.uleb128 0x40
 2409 00eb 18       		.uleb128 0x18
 2410 00ec 9742     		.uleb128 0x2117
 2411 00ee 19       		.uleb128 0x19
 2412 00ef 01       		.uleb128 0x1
 2413 00f0 13       		.uleb128 0x13
 2414 00f1 00       		.byte	0
 2415 00f2 00       		.byte	0
 2416 00f3 13       		.uleb128 0x13
 2417 00f4 05       		.uleb128 0x5
 2418 00f5 00       		.byte	0
 2419 00f6 03       		.uleb128 0x3
 2420 00f7 08       		.uleb128 0x8
 2421 00f8 3A       		.uleb128 0x3a
 2422 00f9 0B       		.uleb128 0xb
 2423 00fa 3B       		.uleb128 0x3b
 2424 00fb 0B       		.uleb128 0xb
ARM GAS  C:\Users\RECEPC~1\AppData\Local\Temp\cc8eh59p.s 			page 48


 2425 00fc 49       		.uleb128 0x49
 2426 00fd 13       		.uleb128 0x13
 2427 00fe 02       		.uleb128 0x2
 2428 00ff 17       		.uleb128 0x17
 2429 0100 00       		.byte	0
 2430 0101 00       		.byte	0
 2431 0102 14       		.uleb128 0x14
 2432 0103 34       		.uleb128 0x34
 2433 0104 00       		.byte	0
 2434 0105 03       		.uleb128 0x3
 2435 0106 0E       		.uleb128 0xe
 2436 0107 3A       		.uleb128 0x3a
 2437 0108 0B       		.uleb128 0xb
 2438 0109 3B       		.uleb128 0x3b
 2439 010a 0B       		.uleb128 0xb
 2440 010b 49       		.uleb128 0x49
 2441 010c 13       		.uleb128 0x13
 2442 010d 02       		.uleb128 0x2
 2443 010e 17       		.uleb128 0x17
 2444 010f 00       		.byte	0
 2445 0110 00       		.byte	0
 2446 0111 15       		.uleb128 0x15
 2447 0112 898201   		.uleb128 0x4109
 2448 0115 00       		.byte	0
 2449 0116 11       		.uleb128 0x11
 2450 0117 01       		.uleb128 0x1
 2451 0118 31       		.uleb128 0x31
 2452 0119 13       		.uleb128 0x13
 2453 011a 00       		.byte	0
 2454 011b 00       		.byte	0
 2455 011c 16       		.uleb128 0x16
 2456 011d 898201   		.uleb128 0x4109
 2457 0120 01       		.byte	0x1
 2458 0121 11       		.uleb128 0x11
 2459 0122 01       		.uleb128 0x1
 2460 0123 31       		.uleb128 0x31
 2461 0124 13       		.uleb128 0x13
 2462 0125 01       		.uleb128 0x1
 2463 0126 13       		.uleb128 0x13
 2464 0127 00       		.byte	0
 2465 0128 00       		.byte	0
 2466 0129 17       		.uleb128 0x17
 2467 012a 8A8201   		.uleb128 0x410a
 2468 012d 00       		.byte	0
 2469 012e 02       		.uleb128 0x2
 2470 012f 18       		.uleb128 0x18
 2471 0130 9142     		.uleb128 0x2111
 2472 0132 18       		.uleb128 0x18
 2473 0133 00       		.byte	0
 2474 0134 00       		.byte	0
 2475 0135 18       		.uleb128 0x18
 2476 0136 34       		.uleb128 0x34
 2477 0137 00       		.byte	0
 2478 0138 03       		.uleb128 0x3
 2479 0139 08       		.uleb128 0x8
 2480 013a 3A       		.uleb128 0x3a
 2481 013b 0B       		.uleb128 0xb
ARM GAS  C:\Users\RECEPC~1\AppData\Local\Temp\cc8eh59p.s 			page 49


 2482 013c 3B       		.uleb128 0x3b
 2483 013d 0B       		.uleb128 0xb
 2484 013e 49       		.uleb128 0x49
 2485 013f 13       		.uleb128 0x13
 2486 0140 02       		.uleb128 0x2
 2487 0141 17       		.uleb128 0x17
 2488 0142 00       		.byte	0
 2489 0143 00       		.byte	0
 2490 0144 19       		.uleb128 0x19
 2491 0145 2E       		.uleb128 0x2e
 2492 0146 01       		.byte	0x1
 2493 0147 3F       		.uleb128 0x3f
 2494 0148 19       		.uleb128 0x19
 2495 0149 03       		.uleb128 0x3
 2496 014a 0E       		.uleb128 0xe
 2497 014b 3A       		.uleb128 0x3a
 2498 014c 0B       		.uleb128 0xb
 2499 014d 3B       		.uleb128 0x3b
 2500 014e 0B       		.uleb128 0xb
 2501 014f 49       		.uleb128 0x49
 2502 0150 13       		.uleb128 0x13
 2503 0151 11       		.uleb128 0x11
 2504 0152 01       		.uleb128 0x1
 2505 0153 12       		.uleb128 0x12
 2506 0154 06       		.uleb128 0x6
 2507 0155 40       		.uleb128 0x40
 2508 0156 18       		.uleb128 0x18
 2509 0157 9742     		.uleb128 0x2117
 2510 0159 19       		.uleb128 0x19
 2511 015a 01       		.uleb128 0x1
 2512 015b 13       		.uleb128 0x13
 2513 015c 00       		.byte	0
 2514 015d 00       		.byte	0
 2515 015e 1A       		.uleb128 0x1a
 2516 015f 05       		.uleb128 0x5
 2517 0160 00       		.byte	0
 2518 0161 03       		.uleb128 0x3
 2519 0162 0E       		.uleb128 0xe
 2520 0163 3A       		.uleb128 0x3a
 2521 0164 0B       		.uleb128 0xb
 2522 0165 3B       		.uleb128 0x3b
 2523 0166 0B       		.uleb128 0xb
 2524 0167 49       		.uleb128 0x49
 2525 0168 13       		.uleb128 0x13
 2526 0169 02       		.uleb128 0x2
 2527 016a 17       		.uleb128 0x17
 2528 016b 00       		.byte	0
 2529 016c 00       		.byte	0
 2530 016d 1B       		.uleb128 0x1b
 2531 016e 0F       		.uleb128 0xf
 2532 016f 00       		.byte	0
 2533 0170 0B       		.uleb128 0xb
 2534 0171 0B       		.uleb128 0xb
 2535 0172 49       		.uleb128 0x49
 2536 0173 13       		.uleb128 0x13
 2537 0174 00       		.byte	0
 2538 0175 00       		.byte	0
ARM GAS  C:\Users\RECEPC~1\AppData\Local\Temp\cc8eh59p.s 			page 50


 2539 0176 1C       		.uleb128 0x1c
 2540 0177 34       		.uleb128 0x34
 2541 0178 00       		.byte	0
 2542 0179 03       		.uleb128 0x3
 2543 017a 0E       		.uleb128 0xe
 2544 017b 3A       		.uleb128 0x3a
 2545 017c 0B       		.uleb128 0xb
 2546 017d 3B       		.uleb128 0x3b
 2547 017e 0B       		.uleb128 0xb
 2548 017f 49       		.uleb128 0x49
 2549 0180 13       		.uleb128 0x13
 2550 0181 02       		.uleb128 0x2
 2551 0182 18       		.uleb128 0x18
 2552 0183 00       		.byte	0
 2553 0184 00       		.byte	0
 2554 0185 1D       		.uleb128 0x1d
 2555 0186 34       		.uleb128 0x34
 2556 0187 00       		.byte	0
 2557 0188 34       		.uleb128 0x34
 2558 0189 19       		.uleb128 0x19
 2559 018a 49       		.uleb128 0x49
 2560 018b 13       		.uleb128 0x13
 2561 018c 02       		.uleb128 0x2
 2562 018d 17       		.uleb128 0x17
 2563 018e 00       		.byte	0
 2564 018f 00       		.byte	0
 2565 0190 1E       		.uleb128 0x1e
 2566 0191 21       		.uleb128 0x21
 2567 0192 00       		.byte	0
 2568 0193 49       		.uleb128 0x49
 2569 0194 13       		.uleb128 0x13
 2570 0195 2F       		.uleb128 0x2f
 2571 0196 13       		.uleb128 0x13
 2572 0197 00       		.byte	0
 2573 0198 00       		.byte	0
 2574 0199 1F       		.uleb128 0x1f
 2575 019a 26       		.uleb128 0x26
 2576 019b 00       		.byte	0
 2577 019c 49       		.uleb128 0x49
 2578 019d 13       		.uleb128 0x13
 2579 019e 00       		.byte	0
 2580 019f 00       		.byte	0
 2581 01a0 20       		.uleb128 0x20
 2582 01a1 34       		.uleb128 0x34
 2583 01a2 00       		.byte	0
 2584 01a3 03       		.uleb128 0x3
 2585 01a4 0E       		.uleb128 0xe
 2586 01a5 3A       		.uleb128 0x3a
 2587 01a6 0B       		.uleb128 0xb
 2588 01a7 3B       		.uleb128 0x3b
 2589 01a8 05       		.uleb128 0x5
 2590 01a9 49       		.uleb128 0x49
 2591 01aa 13       		.uleb128 0x13
 2592 01ab 3F       		.uleb128 0x3f
 2593 01ac 19       		.uleb128 0x19
 2594 01ad 3C       		.uleb128 0x3c
 2595 01ae 19       		.uleb128 0x19
ARM GAS  C:\Users\RECEPC~1\AppData\Local\Temp\cc8eh59p.s 			page 51


 2596 01af 00       		.byte	0
 2597 01b0 00       		.byte	0
 2598 01b1 21       		.uleb128 0x21
 2599 01b2 34       		.uleb128 0x34
 2600 01b3 00       		.byte	0
 2601 01b4 03       		.uleb128 0x3
 2602 01b5 0E       		.uleb128 0xe
 2603 01b6 3A       		.uleb128 0x3a
 2604 01b7 0B       		.uleb128 0xb
 2605 01b8 3B       		.uleb128 0x3b
 2606 01b9 0B       		.uleb128 0xb
 2607 01ba 49       		.uleb128 0x49
 2608 01bb 13       		.uleb128 0x13
 2609 01bc 3F       		.uleb128 0x3f
 2610 01bd 19       		.uleb128 0x19
 2611 01be 02       		.uleb128 0x2
 2612 01bf 18       		.uleb128 0x18
 2613 01c0 00       		.byte	0
 2614 01c1 00       		.byte	0
 2615 01c2 22       		.uleb128 0x22
 2616 01c3 2E       		.uleb128 0x2e
 2617 01c4 00       		.byte	0
 2618 01c5 3F       		.uleb128 0x3f
 2619 01c6 19       		.uleb128 0x19
 2620 01c7 03       		.uleb128 0x3
 2621 01c8 0E       		.uleb128 0xe
 2622 01c9 3A       		.uleb128 0x3a
 2623 01ca 0B       		.uleb128 0xb
 2624 01cb 3B       		.uleb128 0x3b
 2625 01cc 0B       		.uleb128 0xb
 2626 01cd 27       		.uleb128 0x27
 2627 01ce 19       		.uleb128 0x19
 2628 01cf 3C       		.uleb128 0x3c
 2629 01d0 19       		.uleb128 0x19
 2630 01d1 00       		.byte	0
 2631 01d2 00       		.byte	0
 2632 01d3 23       		.uleb128 0x23
 2633 01d4 2E       		.uleb128 0x2e
 2634 01d5 01       		.byte	0x1
 2635 01d6 3F       		.uleb128 0x3f
 2636 01d7 19       		.uleb128 0x19
 2637 01d8 03       		.uleb128 0x3
 2638 01d9 0E       		.uleb128 0xe
 2639 01da 3A       		.uleb128 0x3a
 2640 01db 0B       		.uleb128 0xb
 2641 01dc 3B       		.uleb128 0x3b
 2642 01dd 0B       		.uleb128 0xb
 2643 01de 27       		.uleb128 0x27
 2644 01df 19       		.uleb128 0x19
 2645 01e0 3C       		.uleb128 0x3c
 2646 01e1 19       		.uleb128 0x19
 2647 01e2 01       		.uleb128 0x1
 2648 01e3 13       		.uleb128 0x13
 2649 01e4 00       		.byte	0
 2650 01e5 00       		.byte	0
 2651 01e6 24       		.uleb128 0x24
 2652 01e7 05       		.uleb128 0x5
ARM GAS  C:\Users\RECEPC~1\AppData\Local\Temp\cc8eh59p.s 			page 52


 2653 01e8 00       		.byte	0
 2654 01e9 49       		.uleb128 0x49
 2655 01ea 13       		.uleb128 0x13
 2656 01eb 00       		.byte	0
 2657 01ec 00       		.byte	0
 2658 01ed 25       		.uleb128 0x25
 2659 01ee 2E       		.uleb128 0x2e
 2660 01ef 00       		.byte	0
 2661 01f0 3F       		.uleb128 0x3f
 2662 01f1 19       		.uleb128 0x19
 2663 01f2 03       		.uleb128 0x3
 2664 01f3 0E       		.uleb128 0xe
 2665 01f4 3A       		.uleb128 0x3a
 2666 01f5 0B       		.uleb128 0xb
 2667 01f6 3B       		.uleb128 0x3b
 2668 01f7 0B       		.uleb128 0xb
 2669 01f8 27       		.uleb128 0x27
 2670 01f9 19       		.uleb128 0x19
 2671 01fa 49       		.uleb128 0x49
 2672 01fb 13       		.uleb128 0x13
 2673 01fc 3C       		.uleb128 0x3c
 2674 01fd 19       		.uleb128 0x19
 2675 01fe 00       		.byte	0
 2676 01ff 00       		.byte	0
 2677 0200 00       		.byte	0
 2678              		.section	.debug_loc,"",%progbits
 2679              	.Ldebug_loc0:
 2680              	.LLST0:
 2681 0000 00000000 		.4byte	.LVL0
 2682 0004 07000000 		.4byte	.LVL1-1
 2683 0008 0100     		.2byte	0x1
 2684 000a 50       		.byte	0x50
 2685 000b 07000000 		.4byte	.LVL1-1
 2686 000f 2E000000 		.4byte	.LFE63
 2687 0013 0400     		.2byte	0x4
 2688 0015 F3       		.byte	0xf3
 2689 0016 01       		.uleb128 0x1
 2690 0017 50       		.byte	0x50
 2691 0018 9F       		.byte	0x9f
 2692 0019 00000000 		.4byte	0
 2693 001d 00000000 		.4byte	0
 2694              	.LLST1:
 2695 0021 22000000 		.4byte	.LVL6
 2696 0025 2A000000 		.4byte	.LVL8
 2697 0029 0100     		.2byte	0x1
 2698 002b 54       		.byte	0x54
 2699 002c 00000000 		.4byte	0
 2700 0030 00000000 		.4byte	0
 2701              	.LLST2:
 2702 0034 14000000 		.4byte	.LVL9
 2703 0038 18000000 		.4byte	.LVL10
 2704 003c 0200     		.2byte	0x2
 2705 003e 31       		.byte	0x31
 2706 003f 9F       		.byte	0x9f
 2707 0040 18000000 		.4byte	.LVL10
 2708 0044 C0000000 		.4byte	.LVL21
 2709 0048 0100     		.2byte	0x1
ARM GAS  C:\Users\RECEPC~1\AppData\Local\Temp\cc8eh59p.s 			page 53


 2710 004a 54       		.byte	0x54
 2711 004b C2000000 		.4byte	.LVL22
 2712 004f 1C010000 		.4byte	.LVL27
 2713 0053 0100     		.2byte	0x1
 2714 0055 54       		.byte	0x54
 2715 0056 00000000 		.4byte	0
 2716 005a 00000000 		.4byte	0
 2717              	.LLST3:
 2718 005e 00000000 		.4byte	.LVL28
 2719 0062 0E000000 		.4byte	.LVL29
 2720 0066 0100     		.2byte	0x1
 2721 0068 50       		.byte	0x50
 2722 0069 0E000000 		.4byte	.LVL29
 2723 006d 10000000 		.4byte	.LVL30
 2724 0071 0400     		.2byte	0x4
 2725 0073 F3       		.byte	0xf3
 2726 0074 01       		.uleb128 0x1
 2727 0075 50       		.byte	0x50
 2728 0076 9F       		.byte	0x9f
 2729 0077 10000000 		.4byte	.LVL30
 2730 007b 12000000 		.4byte	.LVL31
 2731 007f 0100     		.2byte	0x1
 2732 0081 50       		.byte	0x50
 2733 0082 12000000 		.4byte	.LVL31
 2734 0086 14000000 		.4byte	.LFE66
 2735 008a 0400     		.2byte	0x4
 2736 008c F3       		.byte	0xf3
 2737 008d 01       		.uleb128 0x1
 2738 008e 50       		.byte	0x50
 2739 008f 9F       		.byte	0x9f
 2740 0090 00000000 		.4byte	0
 2741 0094 00000000 		.4byte	0
 2742              	.LLST4:
 2743 0098 00000000 		.4byte	.LVL28
 2744 009c 12000000 		.4byte	.LVL31
 2745 00a0 0200     		.2byte	0x2
 2746 00a2 30       		.byte	0x30
 2747 00a3 9F       		.byte	0x9f
 2748 00a4 12000000 		.4byte	.LVL31
 2749 00a8 14000000 		.4byte	.LFE66
 2750 00ac 0100     		.2byte	0x1
 2751 00ae 50       		.byte	0x50
 2752 00af 00000000 		.4byte	0
 2753 00b3 00000000 		.4byte	0
 2754              	.LLST5:
 2755 00b7 00000000 		.4byte	.LVL32
 2756 00bb 0E000000 		.4byte	.LVL35
 2757 00bf 0100     		.2byte	0x1
 2758 00c1 50       		.byte	0x50
 2759 00c2 0E000000 		.4byte	.LVL35
 2760 00c6 1A000000 		.4byte	.LVL36
 2761 00ca 0100     		.2byte	0x1
 2762 00cc 50       		.byte	0x50
 2763 00cd 00000000 		.4byte	0
 2764 00d1 00000000 		.4byte	0
 2765              	.LLST6:
 2766 00d5 00000000 		.4byte	.LVL32
ARM GAS  C:\Users\RECEPC~1\AppData\Local\Temp\cc8eh59p.s 			page 54


 2767 00d9 04000000 		.4byte	.LVL33
 2768 00dd 0200     		.2byte	0x2
 2769 00df 30       		.byte	0x30
 2770 00e0 9F       		.byte	0x9f
 2771 00e1 04000000 		.4byte	.LVL33
 2772 00e5 1A000000 		.4byte	.LVL36
 2773 00e9 0100     		.2byte	0x1
 2774 00eb 51       		.byte	0x51
 2775 00ec 1A000000 		.4byte	.LVL36
 2776 00f0 1C000000 		.4byte	.LVL37
 2777 00f4 0100     		.2byte	0x1
 2778 00f6 50       		.byte	0x50
 2779 00f7 1C000000 		.4byte	.LVL37
 2780 00fb 20000000 		.4byte	.LVL38
 2781 00ff 0400     		.2byte	0x4
 2782 0101 70       		.byte	0x70
 2783 0102 00       		.sleb128 0
 2784 0103 1F       		.byte	0x1f
 2785 0104 9F       		.byte	0x9f
 2786 0105 20000000 		.4byte	.LVL38
 2787 0109 26000000 		.4byte	.LFE67
 2788 010d 0600     		.2byte	0x6
 2789 010f 71       		.byte	0x71
 2790 0110 00       		.sleb128 0
 2791 0111 72       		.byte	0x72
 2792 0112 00       		.sleb128 0
 2793 0113 22       		.byte	0x22
 2794 0114 9F       		.byte	0x9f
 2795 0115 00000000 		.4byte	0
 2796 0119 00000000 		.4byte	0
 2797              	.LLST7:
 2798 011d 00000000 		.4byte	.LVL39
 2799 0121 0B000000 		.4byte	.LVL41-1
 2800 0125 0100     		.2byte	0x1
 2801 0127 50       		.byte	0x50
 2802 0128 0B000000 		.4byte	.LVL41-1
 2803 012c 00010000 		.4byte	.LFE65
 2804 0130 0400     		.2byte	0x4
 2805 0132 F3       		.byte	0xf3
 2806 0133 01       		.uleb128 0x1
 2807 0134 50       		.byte	0x50
 2808 0135 9F       		.byte	0x9f
 2809 0136 00000000 		.4byte	0
 2810 013a 00000000 		.4byte	0
 2811              	.LLST8:
 2812 013e 0C000000 		.4byte	.LVL41
 2813 0142 14000000 		.4byte	.LVL42
 2814 0146 0100     		.2byte	0x1
 2815 0148 50       		.byte	0x50
 2816 0149 26000000 		.4byte	.LVL47
 2817 014d 28000000 		.4byte	.LVL48
 2818 0151 0100     		.2byte	0x1
 2819 0153 50       		.byte	0x50
 2820 0154 00000000 		.4byte	0
 2821 0158 00000000 		.4byte	0
 2822              	.LLST9:
 2823 015c 5A000000 		.4byte	.LVL51
ARM GAS  C:\Users\RECEPC~1\AppData\Local\Temp\cc8eh59p.s 			page 55


 2824 0160 5E000000 		.4byte	.LVL52
 2825 0164 0200     		.2byte	0x2
 2826 0166 30       		.byte	0x30
 2827 0167 9F       		.byte	0x9f
 2828 0168 5E000000 		.4byte	.LVL52
 2829 016c 6E000000 		.4byte	.LVL54
 2830 0170 0100     		.2byte	0x1
 2831 0172 54       		.byte	0x54
 2832 0173 70000000 		.4byte	.LVL55
 2833 0177 7A000000 		.4byte	.LVL56
 2834 017b 0100     		.2byte	0x1
 2835 017d 54       		.byte	0x54
 2836 017e 8C000000 		.4byte	.LVL59
 2837 0182 90000000 		.4byte	.LVL60
 2838 0186 0200     		.2byte	0x2
 2839 0188 30       		.byte	0x30
 2840 0189 9F       		.byte	0x9f
 2841 018a 90000000 		.4byte	.LVL60
 2842 018e 98000000 		.4byte	.LVL62
 2843 0192 0100     		.2byte	0x1
 2844 0194 54       		.byte	0x54
 2845 0195 9A000000 		.4byte	.LVL63
 2846 0199 E6000000 		.4byte	.LVL65
 2847 019d 0100     		.2byte	0x1
 2848 019f 54       		.byte	0x54
 2849 01a0 00000000 		.4byte	0
 2850 01a4 00000000 		.4byte	0
 2851              	.LLST10:
 2852 01a8 08000000 		.4byte	.LVL40
 2853 01ac 24000000 		.4byte	.LVL46
 2854 01b0 0200     		.2byte	0x2
 2855 01b2 30       		.byte	0x30
 2856 01b3 9F       		.byte	0x9f
 2857 01b4 24000000 		.4byte	.LVL46
 2858 01b8 26000000 		.4byte	.LVL47
 2859 01bc 0100     		.2byte	0x1
 2860 01be 55       		.byte	0x55
 2861 01bf 26000000 		.4byte	.LVL47
 2862 01c3 28000000 		.4byte	.LVL48
 2863 01c7 0200     		.2byte	0x2
 2864 01c9 30       		.byte	0x30
 2865 01ca 9F       		.byte	0x9f
 2866 01cb 28000000 		.4byte	.LVL48
 2867 01cf 8C000000 		.4byte	.LVL59
 2868 01d3 0100     		.2byte	0x1
 2869 01d5 55       		.byte	0x55
 2870 01d6 00000000 		.4byte	0
 2871 01da 00000000 		.4byte	0
 2872              	.LLST11:
 2873 01de 08000000 		.4byte	.LVL40
 2874 01e2 80000000 		.4byte	.LVL58
 2875 01e6 0200     		.2byte	0x2
 2876 01e8 30       		.byte	0x30
 2877 01e9 9F       		.byte	0x9f
 2878 01ea 80000000 		.4byte	.LVL58
 2879 01ee E6000000 		.4byte	.LVL65
 2880 01f2 0100     		.2byte	0x1
ARM GAS  C:\Users\RECEPC~1\AppData\Local\Temp\cc8eh59p.s 			page 56


 2881 01f4 56       		.byte	0x56
 2882 01f5 00000000 		.4byte	0
 2883 01f9 00000000 		.4byte	0
 2884              	.LLST12:
 2885 01fd 80000000 		.4byte	.LVL58
 2886 0201 E6000000 		.4byte	.LVL65
 2887 0205 0800     		.2byte	0x8
 2888 0207 76       		.byte	0x76
 2889 0208 00       		.sleb128 0
 2890 0209 08       		.byte	0x8
 2891 020a FF       		.byte	0xff
 2892 020b 1A       		.byte	0x1a
 2893 020c 31       		.byte	0x31
 2894 020d 1C       		.byte	0x1c
 2895 020e 9F       		.byte	0x9f
 2896 020f 00000000 		.4byte	0
 2897 0213 00000000 		.4byte	0
 2898              	.LLST13:
 2899 0217 8C000000 		.4byte	.LVL59
 2900 021b E6000000 		.4byte	.LVL65
 2901 021f 0200     		.2byte	0x2
 2902 0221 75       		.byte	0x75
 2903 0222 00       		.sleb128 0
 2904 0223 00000000 		.4byte	0
 2905 0227 00000000 		.4byte	0
 2906              		.section	.debug_aranges,"",%progbits
 2907 0000 3C000000 		.4byte	0x3c
 2908 0004 0200     		.2byte	0x2
 2909 0006 00000000 		.4byte	.Ldebug_info0
 2910 000a 04       		.byte	0x4
 2911 000b 00       		.byte	0
 2912 000c 0000     		.2byte	0
 2913 000e 0000     		.2byte	0
 2914 0010 00000000 		.4byte	.LFB63
 2915 0014 2E000000 		.4byte	.LFE63-.LFB63
 2916 0018 00000000 		.4byte	.LFB64
 2917 001c 20010000 		.4byte	.LFE64-.LFB64
 2918 0020 00000000 		.4byte	.LFB66
 2919 0024 14000000 		.4byte	.LFE66-.LFB66
 2920 0028 00000000 		.4byte	.LFB67
 2921 002c 26000000 		.4byte	.LFE67-.LFB67
 2922 0030 00000000 		.4byte	.LFB65
 2923 0034 00010000 		.4byte	.LFE65-.LFB65
 2924 0038 00000000 		.4byte	0
 2925 003c 00000000 		.4byte	0
 2926              		.section	.debug_ranges,"",%progbits
 2927              	.Ldebug_ranges0:
 2928 0000 00000000 		.4byte	.LFB63
 2929 0004 2E000000 		.4byte	.LFE63
 2930 0008 00000000 		.4byte	.LFB64
 2931 000c 20010000 		.4byte	.LFE64
 2932 0010 00000000 		.4byte	.LFB66
 2933 0014 14000000 		.4byte	.LFE66
 2934 0018 00000000 		.4byte	.LFB67
 2935 001c 26000000 		.4byte	.LFE67
 2936 0020 00000000 		.4byte	.LFB65
 2937 0024 00010000 		.4byte	.LFE65
ARM GAS  C:\Users\RECEPC~1\AppData\Local\Temp\cc8eh59p.s 			page 57


 2938 0028 00000000 		.4byte	0
 2939 002c 00000000 		.4byte	0
 2940              		.section	.debug_line,"",%progbits
 2941              	.Ldebug_line0:
 2942 0000 A9020000 		.section	.debug_str,"MS",%progbits,1
 2942      02007301 
 2942      00000201 
 2942      FB0E0D00 
 2942      01010101 
 2943              	.LASF81:
 2944 0000 5055446E 		.ascii	"PUDn\000"
 2944      00
 2945              	.LASF128:
 2946 0005 64656369 		.ascii	"decimalVolume\000"
 2946      6D616C56 
 2946      6F6C756D 
 2946      6500
 2947              	.LASF135:
 2948 0013 74656D70 		.ascii	"temporalCom\000"
 2948      6F72616C 
 2948      436F6D00 
 2949              	.LASF57:
 2950 001f 6D657373 		.ascii	"message\000"
 2950      61676500 
 2951              	.LASF151:
 2952 0027 73746174 		.ascii	"statePump\000"
 2952      6550756D 
 2952      7000
 2953              	.LASF72:
 2954 0031 62756666 		.ascii	"buffer\000"
 2954      657200
 2955              	.LASF116:
 2956 0038 69704164 		.ascii	"ipAdress\000"
 2956      72657373 
 2956      00
 2957              	.LASF127:
 2958 0041 64656369 		.ascii	"decimalMoney\000"
 2958      6D616C4D 
 2958      6F6E6579 
 2958      00
 2959              	.LASF35:
 2960 004e 73616C65 		.ascii	"salePerform\000"
 2960      50657266 
 2960      6F726D00 
 2961              	.LASF10:
 2962 005a 756E7369 		.ascii	"unsigned int\000"
 2962      676E6564 
 2962      20696E74 
 2962      00
 2963              	.LASF62:
 2964 0067 70726F64 		.ascii	"productMarket\000"
 2964      7563744D 
 2964      61726B65 
 2964      7400
 2965              	.LASF5:
 2966 0075 5F5F696E 		.ascii	"__int32_t\000"
 2966      7433325F 
ARM GAS  C:\Users\RECEPC~1\AppData\Local\Temp\cc8eh59p.s 			page 58


 2966      7400
 2967              	.LASF55:
 2968 007f 666C6167 		.ascii	"flagLiftHandle\000"
 2968      4C696674 
 2968      48616E64 
 2968      6C6500
 2969              	.LASF86:
 2970 008e 50554D50 		.ascii	"PUMP_FAIL\000"
 2970      5F464149 
 2970      4C00
 2971              	.LASF133:
 2972 0098 72657369 		.ascii	"residue\000"
 2972      64756500 
 2973              	.LASF22:
 2974 00a0 69645479 		.ascii	"idType\000"
 2974      706500
 2975              	.LASF150:
 2976 00a7 44444D6F 		.ascii	"DDMode\000"
 2976      646500
 2977              	.LASF95:
 2978 00ae 6765745F 		.ascii	"get_position\000"
 2978      706F7369 
 2978      74696F6E 
 2978      00
 2979              	.LASF27:
 2980 00bb 73656C65 		.ascii	"selectedSale\000"
 2980      63746564 
 2980      53616C65 
 2980      00
 2981              	.LASF63:
 2982 00c8 7175616E 		.ascii	"quantityMarket\000"
 2982      74697479 
 2982      4D61726B 
 2982      657400
 2983              	.LASF104:
 2984 00d7 50756D70 		.ascii	"PumpDataReceive\000"
 2984      44617461 
 2984      52656365 
 2984      69766500 
 2985              	.LASF120:
 2986 00e7 666C6167 		.ascii	"flagPoint2\000"
 2986      506F696E 
 2986      743200
 2987              	.LASF132:
 2988 00f2 73637265 		.ascii	"screen\000"
 2988      656E00
 2989              	.LASF59:
 2990 00f9 766F6C75 		.ascii	"volumeQuota\000"
 2990      6D655175 
 2990      6F746100 
 2991              	.LASF87:
 2992 0105 50554D50 		.ascii	"PUMP_IDLE\000"
 2992      5F49444C 
 2992      4500
 2993              	.LASF16:
 2994 010f 666C6F61 		.ascii	"float\000"
 2994      7400
ARM GAS  C:\Users\RECEPC~1\AppData\Local\Temp\cc8eh59p.s 			page 59


 2995              	.LASF103:
 2996 0115 53656E64 		.ascii	"SendComand\000"
 2996      436F6D61 
 2996      6E6400
 2997              	.LASF165:
 2998 0120 50756D70 		.ascii	"Pump_ClearRxBuffer\000"
 2998      5F436C65 
 2998      61725278 
 2998      42756666 
 2998      657200
 2999              	.LASF147:
 3000 0133 4D6F6E65 		.ascii	"MoneyDec\000"
 3000      79446563 
 3000      00
 3001              	.LASF143:
 3002 013c 50726576 		.ascii	"PrevStatePump\000"
 3002      53746174 
 3002      6550756D 
 3002      7000
 3003              	.LASF9:
 3004 014a 6C6F6E67 		.ascii	"long long unsigned int\000"
 3004      206C6F6E 
 3004      6720756E 
 3004      7369676E 
 3004      65642069 
 3005              	.LASF92:
 3006 0161 50554D50 		.ascii	"PUMP_FEOT\000"
 3006      5F46454F 
 3006      5400
 3007              	.LASF45:
 3008 016b 746F7461 		.ascii	"totalVolumePrevious\000"
 3008      6C566F6C 
 3008      756D6550 
 3008      72657669 
 3008      6F757300 
 3009              	.LASF115:
 3010 017f 64696769 		.ascii	"digits\000"
 3010      747300
 3011              	.LASF85:
 3012 0186 5F50554D 		.ascii	"_PUMP_STATES_\000"
 3012      505F5354 
 3012      41544553 
 3012      5F00
 3013              	.LASF130:
 3014 0194 74696D65 		.ascii	"time\000"
 3014      00
 3015              	.LASF97:
 3016 0199 72657476 		.ascii	"retval\000"
 3016      616C00
 3017              	.LASF38:
 3018 01a0 70726F64 		.ascii	"productType\000"
 3018      75637454 
 3018      79706500 
 3019              	.LASF122:
 3020 01ac 70726F64 		.ascii	"productNumber\000"
 3020      7563744E 
 3020      756D6265 
ARM GAS  C:\Users\RECEPC~1\AppData\Local\Temp\cc8eh59p.s 			page 60


 3020      7200
 3021              	.LASF41:
 3022 01ba 64617465 		.ascii	"dateDownHandle\000"
 3022      446F776E 
 3022      48616E64 
 3022      6C6500
 3023              	.LASF23:
 3024 01c9 69645365 		.ascii	"idSerial\000"
 3024      7269616C 
 3024      00
 3025              	.LASF102:
 3026 01d2 73696465 		.ascii	"side\000"
 3026      00
 3027              	.LASF159:
 3028 01d7 50756D70 		.ascii	"Pump_GetRxBufferSize\000"
 3028      5F476574 
 3028      52784275 
 3028      66666572 
 3028      53697A65 
 3029              	.LASF51:
 3030 01ec 6D696C65 		.ascii	"mileageSale\000"
 3030      61676553 
 3030      616C6500 
 3031              	.LASF71:
 3032 01f8 666C6167 		.ascii	"flagChangePPU\000"
 3032      4368616E 
 3032      67655050 
 3032      5500
 3033              	.LASF162:
 3034 0206 2E5C7072 		.ascii	".\\protocol.c\000"
 3034      6F746F63 
 3034      6F6C2E63 
 3034      00
 3035              	.LASF98:
 3036 0213 5F426F6F 		.ascii	"_Bool\000"
 3036      6C00
 3037              	.LASF121:
 3038 0219 62757474 		.ascii	"button\000"
 3038      6F6E00
 3039              	.LASF111:
 3040 0220 666C6F77 		.ascii	"flowDisplay1\000"
 3040      44697370 
 3040      6C617931 
 3040      00
 3041              	.LASF112:
 3042 022d 666C6F77 		.ascii	"flowDisplay2\000"
 3042      44697370 
 3042      6C617932 
 3042      00
 3043              	.LASF113:
 3044 023a 666C6F77 		.ascii	"flowDisplay3\000"
 3044      44697370 
 3044      6C617933 
 3044      00
 3045              	.LASF114:
 3046 0247 666C6F77 		.ascii	"flowDisplay4\000"
 3046      44697370 
ARM GAS  C:\Users\RECEPC~1\AppData\Local\Temp\cc8eh59p.s 			page 61


 3046      6C617934 
 3046      00
 3047              	.LASF61:
 3048 0254 73657269 		.ascii	"serialMarket\000"
 3048      616C4D61 
 3048      726B6574 
 3048      00
 3049              	.LASF74:
 3050 0261 746F7461 		.ascii	"totalsHandle\000"
 3050      6C734861 
 3050      6E646C65 
 3050      00
 3051              	.LASF37:
 3052 026e 70726573 		.ascii	"presetValue\000"
 3052      65745661 
 3052      6C756500 
 3053              	.LASF136:
 3054 027a 7475726E 		.ascii	"turn\000"
 3054      00
 3055              	.LASF52:
 3056 027f 6964656E 		.ascii	"identySale\000"
 3056      74795361 
 3056      6C6500
 3057              	.LASF34:
 3058 028a 73616C65 		.ascii	"saleType\000"
 3058      54797065 
 3058      00
 3059              	.LASF90:
 3060 0293 50554D50 		.ascii	"PUMP_BUSY\000"
 3060      5F425553 
 3060      5900
 3061              	.LASF32:
 3062 029d 76616C75 		.ascii	"valueKeys\000"
 3062      654B6579 
 3062      7300
 3063              	.LASF20:
 3064 02a7 63686172 		.ascii	"char\000"
 3064      00
 3065              	.LASF146:
 3066 02ac 436F6E76 		.ascii	"ConversionFactor\000"
 3066      65727369 
 3066      6F6E4661 
 3066      63746F72 
 3066      00
 3067              	.LASF93:
 3068 02bd 50554D50 		.ascii	"PUMP_STOPPED\000"
 3068      5F53544F 
 3068      50504544 
 3068      00
 3069              	.LASF117:
 3070 02ca 6E756D62 		.ascii	"numberKeys1\000"
 3070      65724B65 
 3070      79733100 
 3071              	.LASF118:
 3072 02d6 6E756D62 		.ascii	"numberKeys2\000"
 3072      65724B65 
 3072      79733200 
ARM GAS  C:\Users\RECEPC~1\AppData\Local\Temp\cc8eh59p.s 			page 62


 3073              	.LASF109:
 3074 02e2 636F756E 		.ascii	"countBeagleTX\000"
 3074      74426561 
 3074      676C6554 
 3074      5800
 3075              	.LASF105:
 3076 02f0 42756666 		.ascii	"BufferSize\000"
 3076      65725369 
 3076      7A6500
 3077              	.LASF158:
 3078 02fb 43794465 		.ascii	"CyDelay\000"
 3078      6C617900 
 3079              	.LASF94:
 3080 0303 6765745F 		.ascii	"get_state\000"
 3080      73746174 
 3080      6500
 3081              	.LASF14:
 3082 030d 75696E74 		.ascii	"uint16\000"
 3082      313600
 3083              	.LASF83:
 3084 0314 4C52436E 		.ascii	"LRCn\000"
 3084      00
 3085              	.LASF131:
 3086 0319 64617465 		.ascii	"date\000"
 3086      00
 3087              	.LASF11:
 3088 031e 75696E74 		.ascii	"uint8_t\000"
 3088      385F7400 
 3089              	.LASF160:
 3090 0326 50756D70 		.ascii	"Pump_ReadRxData\000"
 3090      5F526561 
 3090      64527844 
 3090      61746100 
 3091              	.LASF54:
 3092 0336 666C6167 		.ascii	"flagPayment\000"
 3092      5061796D 
 3092      656E7400 
 3093              	.LASF19:
 3094 0342 63686172 		.ascii	"char8\000"
 3094      3800
 3095              	.LASF24:
 3096 0348 69645365 		.ascii	"idSerialCom\000"
 3096      7269616C 
 3096      436F6D00 
 3097              	.LASF60:
 3098 0354 70707551 		.ascii	"ppuQuota\000"
 3098      756F7461 
 3098      00
 3099              	.LASF47:
 3100 035d 746F7461 		.ascii	"totalMoneyAfter\000"
 3100      6C4D6F6E 
 3100      65794166 
 3100      74657200 
 3101              	.LASF58:
 3102 036d 6D6F6E65 		.ascii	"moneyQuota\000"
 3102      7951756F 
 3102      746100
ARM GAS  C:\Users\RECEPC~1\AppData\Local\Temp\cc8eh59p.s 			page 63


 3103              	.LASF70:
 3104 0378 7072696E 		.ascii	"printers\000"
 3104      74657273 
 3104      00
 3105              	.LASF123:
 3106 0381 70726573 		.ascii	"presetFast\000"
 3106      65744661 
 3106      737400
 3107              	.LASF76:
 3108 038c 6D6F6E65 		.ascii	"moneySale\000"
 3108      7953616C 
 3108      6500
 3109              	.LASF8:
 3110 0396 6C6F6E67 		.ascii	"long long int\000"
 3110      206C6F6E 
 3110      6720696E 
 3110      7400
 3111              	.LASF78:
 3112 03a4 70707553 		.ascii	"ppuSale\000"
 3112      616C6500 
 3113              	.LASF107:
 3114 03ac 636F756E 		.ascii	"countAnimation1\000"
 3114      74416E69 
 3114      6D617469 
 3114      6F6E3100 
 3115              	.LASF152:
 3116 03bc 4E756D50 		.ascii	"NumPositions\000"
 3116      6F736974 
 3116      696F6E73 
 3116      00
 3117              	.LASF142:
 3118 03c9 73746174 		.ascii	"stateBeagleSoft\000"
 3118      65426561 
 3118      676C6553 
 3118      6F667400 
 3119              	.LASF46:
 3120 03d9 746F7461 		.ascii	"totalPPUPrevious\000"
 3120      6C505055 
 3120      50726576 
 3120      696F7573 
 3120      00
 3121              	.LASF108:
 3122 03ea 636F756E 		.ascii	"countAnimation2\000"
 3122      74416E69 
 3122      6D617469 
 3122      6F6E3200 
 3123              	.LASF67:
 3124 03fa 746F7461 		.ascii	"totalMarket\000"
 3124      6C4D6172 
 3124      6B657400 
 3125              	.LASF43:
 3126 0406 74696D65 		.ascii	"timeDownHandle\000"
 3126      446F776E 
 3126      48616E64 
 3126      6C6500
 3127              	.LASF33:
 3128 0415 76656869 		.ascii	"vehicleType\000"
ARM GAS  C:\Users\RECEPC~1\AppData\Local\Temp\cc8eh59p.s 			page 64


 3128      636C6554 
 3128      79706500 
 3129              	.LASF88:
 3130 0421 50554D50 		.ascii	"PUMP_CALLING\000"
 3130      5F43414C 
 3130      4C494E47 
 3130      00
 3131              	.LASF53:
 3132 042e 666C6167 		.ascii	"flagKeyboard\000"
 3132      4B657962 
 3132      6F617264 
 3132      00
 3133              	.LASF101:
 3134 043b 50756D70 		.ascii	"PumpCompleteConfiguration\000"
 3134      436F6D70 
 3134      6C657465 
 3134      436F6E66 
 3134      69677572 
 3135              	.LASF15:
 3136 0455 75696E74 		.ascii	"uint32\000"
 3136      333200
 3137              	.LASF89:
 3138 045c 50554D50 		.ascii	"PUMP_AUTHORIZED\000"
 3138      5F415554 
 3138      484F5249 
 3138      5A454400 
 3139              	.LASF141:
 3140 046c 666C6167 		.ascii	"flagResetMux\000"
 3140      52657365 
 3140      744D7578 
 3140      00
 3141              	.LASF164:
 3142 0479 50756D70 		.ascii	"PumpIsInValidState\000"
 3142      4973496E 
 3142      56616C69 
 3142      64537461 
 3142      746500
 3143              	.LASF49:
 3144 048c 746F7461 		.ascii	"totalPPUAfter\000"
 3144      6C505055 
 3144      41667465 
 3144      7200
 3145              	.LASF30:
 3146 049a 6B657962 		.ascii	"keyboardWayToPay\000"
 3146      6F617264 
 3146      57617954 
 3146      6F506179 
 3146      00
 3147              	.LASF126:
 3148 04ab 70707578 		.ascii	"ppux10\000"
 3148      313000
 3149              	.LASF44:
 3150 04b2 746F7461 		.ascii	"totalMoneyPrevious\000"
 3150      6C4D6F6E 
 3150      65795072 
 3150      6576696F 
 3150      757300
ARM GAS  C:\Users\RECEPC~1\AppData\Local\Temp\cc8eh59p.s 			page 65


 3151              	.LASF119:
 3152 04c5 666C6167 		.ascii	"flagPoint1\000"
 3152      506F696E 
 3152      743100
 3153              	.LASF28:
 3154 04d0 6D6F6E65 		.ascii	"moneySelectedSale\000"
 3154      7953656C 
 3154      65637465 
 3154      6453616C 
 3154      6500
 3155              	.LASF129:
 3156 04e2 73796D62 		.ascii	"symbols\000"
 3156      6F6C7300 
 3157              	.LASF50:
 3158 04ea 6C696365 		.ascii	"licenceSale\000"
 3158      6E636553 
 3158      616C6500 
 3159              	.LASF69:
 3160 04f6 70726963 		.ascii	"priceConsign\000"
 3160      65436F6E 
 3160      7369676E 
 3160      00
 3161              	.LASF2:
 3162 0503 73686F72 		.ascii	"short int\000"
 3162      7420696E 
 3162      7400
 3163              	.LASF6:
 3164 050d 6C6F6E67 		.ascii	"long int\000"
 3164      20696E74 
 3164      00
 3165              	.LASF148:
 3166 0516 566F6C44 		.ascii	"VolDec\000"
 3166      656300
 3167              	.LASF106:
 3168 051d 49544D5F 		.ascii	"ITM_RxBuffer\000"
 3168      52784275 
 3168      66666572 
 3168      00
 3169              	.LASF137:
 3170 052a 6C6F636B 		.ascii	"lockTurn\000"
 3170      5475726E 
 3170      00
 3171              	.LASF144:
 3172 0533 50726576 		.ascii	"PrevScreen\000"
 3172      53637265 
 3172      656E00
 3173              	.LASF56:
 3174 053e 666C6167 		.ascii	"flagEndSale\000"
 3174      456E6453 
 3174      616C6500 
 3175              	.LASF40:
 3176 054a 64617465 		.ascii	"dateLiftHandle\000"
 3176      4C696674 
 3176      48616E64 
 3176      6C6500
 3177              	.LASF84:
 3178 0559 5F434F4E 		.ascii	"_CONTROL_WORDS_\000"
ARM GAS  C:\Users\RECEPC~1\AppData\Local\Temp\cc8eh59p.s 			page 66


 3178      54524F4C 
 3178      5F574F52 
 3178      44535F00 
 3179              	.LASF154:
 3180 0569 62756666 		.ascii	"bufferDisplay2\000"
 3180      65724469 
 3180      73706C61 
 3180      793200
 3181              	.LASF155:
 3182 0578 62756666 		.ascii	"bufferDisplay3\000"
 3182      65724469 
 3182      73706C61 
 3182      793300
 3183              	.LASF156:
 3184 0587 62756666 		.ascii	"bufferDisplay4\000"
 3184      65724469 
 3184      73706C61 
 3184      793400
 3185              	.LASF4:
 3186 0596 5F5F7569 		.ascii	"__uint8_t\000"
 3186      6E74385F 
 3186      7400
 3187              	.LASF140:
 3188 05a0 70617373 		.ascii	"passwordSeller\000"
 3188      776F7264 
 3188      53656C6C 
 3188      657200
 3189              	.LASF48:
 3190 05af 746F7461 		.ascii	"totalVolumeAfter\000"
 3190      6C566F6C 
 3190      756D6541 
 3190      66746572 
 3190      00
 3191              	.LASF145:
 3192 05c0 556E6974 		.ascii	"UnitType\000"
 3192      54797065 
 3192      00
 3193              	.LASF18:
 3194 05c9 75696E74 		.ascii	"uint64\000"
 3194      363400
 3195              	.LASF124:
 3196 05d0 64656C61 		.ascii	"delayPicture1\000"
 3196      79506963 
 3196      74757265 
 3196      3100
 3197              	.LASF125:
 3198 05de 64656C61 		.ascii	"delayPicture2\000"
 3198      79506963 
 3198      74757265 
 3198      3200
 3199              	.LASF39:
 3200 05ec 73746174 		.ascii	"stateMux\000"
 3200      654D7578 
 3200      00
 3201              	.LASF21:
 3202 05f5 73697A65 		.ascii	"sizetype\000"
 3202      74797065 
ARM GAS  C:\Users\RECEPC~1\AppData\Local\Temp\cc8eh59p.s 			page 67


 3202      00
 3203              	.LASF7:
 3204 05fe 6C6F6E67 		.ascii	"long unsigned int\000"
 3204      20756E73 
 3204      69676E65 
 3204      6420696E 
 3204      7400
 3205              	.LASF149:
 3206 0610 50505544 		.ascii	"PPUDec\000"
 3206      656300
 3207              	.LASF139:
 3208 0617 74797065 		.ascii	"typeIdSeller\000"
 3208      49645365 
 3208      6C6C6572 
 3208      00
 3209              	.LASF68:
 3210 0624 666C6167 		.ascii	"flagProductmarket\000"
 3210      50726F64 
 3210      7563746D 
 3210      61726B65 
 3210      7400
 3211              	.LASF12:
 3212 0636 696E7433 		.ascii	"int32_t\000"
 3212      325F7400 
 3213              	.LASF82:
 3214 063e 5052446E 		.ascii	"PRDn\000"
 3214      00
 3215              	.LASF99:
 3216 0643 4765744C 		.ascii	"GetLRC\000"
 3216      524300
 3217              	.LASF64:
 3218 064a 7175616E 		.ascii	"quantAvailableMark\000"
 3218      74417661 
 3218      696C6162 
 3218      6C654D61 
 3218      726B00
 3219              	.LASF26:
 3220 065d 666C6167 		.ascii	"flagWayToPayMixed\000"
 3220      57617954 
 3220      6F506179 
 3220      4D697865 
 3220      6400
 3221              	.LASF1:
 3222 066f 756E7369 		.ascii	"unsigned char\000"
 3222      676E6564 
 3222      20636861 
 3222      7200
 3223              	.LASF157:
 3224 067d 50756D70 		.ascii	"Pump_PutChar\000"
 3224      5F507574 
 3224      43686172 
 3224      00
 3225              	.LASF161:
 3226 068a 474E5520 		.ascii	"GNU C 4.9.3 20150303 (release) [ARM/embedded-4_9-br"
 3226      4320342E 
 3226      392E3320 
 3226      32303135 
ARM GAS  C:\Users\RECEPC~1\AppData\Local\Temp\cc8eh59p.s 			page 68


 3226      30333033 
 3227 06bd 616E6368 		.ascii	"anch revision 221220] -mcpu=cortex-m3 -mthumb -g -O"
 3227      20726576 
 3227      6973696F 
 3227      6E203232 
 3227      31323230 
 3228 06f0 67202D66 		.ascii	"g -ffunction-sections -ffat-lto-objects\000"
 3228      66756E63 
 3228      74696F6E 
 3228      2D736563 
 3228      74696F6E 
 3229              	.LASF31:
 3230 0718 61757468 		.ascii	"authorizationFlag\000"
 3230      6F72697A 
 3230      6174696F 
 3230      6E466C61 
 3230      6700
 3231              	.LASF65:
 3232 072a 70726963 		.ascii	"priceTotalMarket\000"
 3232      65546F74 
 3232      616C4D61 
 3232      726B6574 
 3232      00
 3233              	.LASF138:
 3234 073b 69645365 		.ascii	"idSeller\000"
 3234      6C6C6572 
 3234      00
 3235              	.LASF80:
 3236 0744 70756D70 		.ascii	"pump\000"
 3236      00
 3237              	.LASF91:
 3238 0749 50554D50 		.ascii	"PUMP_PEOT\000"
 3238      5F50454F 
 3238      5400
 3239              	.LASF163:
 3240 0753 433A5C55 		.ascii	"C:\\Users\\Recepcion\\Documents\\GitHub\\NSY-DH\\Wo"
 3240      73657273 
 3240      5C526563 
 3240      65706369 
 3240      6F6E5C44 
 3241 0780 726B7370 		.ascii	"rkspace01\\Design01.cydsn\000"
 3241      61636530 
 3241      315C4465 
 3241      7369676E 
 3241      30312E63 
 3242              	.LASF134:
 3243 0799 74656D70 		.ascii	"temporal\000"
 3243      6F72616C 
 3243      00
 3244              	.LASF96:
 3245 07a2 73746174 		.ascii	"state\000"
 3245      6500
 3246              	.LASF36:
 3247 07a8 70726573 		.ascii	"presetType\000"
 3247      65745479 
 3247      706500
 3248              	.LASF66:
ARM GAS  C:\Users\RECEPC~1\AppData\Local\Temp\cc8eh59p.s 			page 69


 3249 07b3 70726963 		.ascii	"priceUnitMarket\000"
 3249      65556E69 
 3249      744D6172 
 3249      6B657400 
 3250              	.LASF77:
 3251 07c3 766F6C75 		.ascii	"volumeSale\000"
 3251      6D655361 
 3251      6C6500
 3252              	.LASF0:
 3253 07ce 7369676E 		.ascii	"signed char\000"
 3253      65642063 
 3253      68617200 
 3254              	.LASF3:
 3255 07da 73686F72 		.ascii	"short unsigned int\000"
 3255      7420756E 
 3255      7369676E 
 3255      65642069 
 3255      6E7400
 3256              	.LASF110:
 3257 07ed 636F756E 		.ascii	"countPump\000"
 3257      7450756D 
 3257      7000
 3258              	.LASF79:
 3259 07f7 70726F64 		.ascii	"productSale\000"
 3259      75637453 
 3259      616C6500 
 3260              	.LASF13:
 3261 0803 75696E74 		.ascii	"uint8\000"
 3261      3800
 3262              	.LASF17:
 3263 0809 646F7562 		.ascii	"double\000"
 3263      6C6500
 3264              	.LASF25:
 3265 0810 77617954 		.ascii	"wayToPay\000"
 3265      6F506179 
 3265      00
 3266              	.LASF100:
 3267 0819 5F706275 		.ascii	"_pbuffer\000"
 3267      66666572 
 3267      00
 3268              	.LASF42:
 3269 0822 74696D65 		.ascii	"timeLiftHandle\000"
 3269      4C696674 
 3269      48616E64 
 3269      6C6500
 3270              	.LASF75:
 3271 0831 70707541 		.ascii	"ppuAuthorized\000"
 3271      7574686F 
 3271      72697A65 
 3271      6400
 3272              	.LASF29:
 3273 083f 73657269 		.ascii	"serialSelectedSale\000"
 3273      616C5365 
 3273      6C656374 
 3273      65645361 
 3273      6C6500
 3274              	.LASF73:
ARM GAS  C:\Users\RECEPC~1\AppData\Local\Temp\cc8eh59p.s 			page 70


 3275 0852 706F7369 		.ascii	"position\000"
 3275      74696F6E 
 3275      00
 3276              	.LASF153:
 3277 085b 62756666 		.ascii	"bufferDisplay1\000"
 3277      65724469 
 3277      73706C61 
 3277      793100
 3278              		.ident	"GCC: (GNU Tools for ARM Embedded Processors) 4.9.3 20150303 (release) [ARM/embedded-4_9-br
