ARM GAS  C:\Users\RECEPC~1\AppData\Local\Temp\ccTEGtgN.s 			page 1


   1              		.syntax unified
   2              		.cpu cortex-m3
   3              		.fpu softvfp
   4              		.eabi_attribute 20, 1
   5              		.eabi_attribute 21, 1
   6              		.eabi_attribute 23, 3
   7              		.eabi_attribute 24, 1
   8              		.eabi_attribute 25, 1
   9              		.eabi_attribute 26, 1
  10              		.eabi_attribute 30, 1
  11              		.eabi_attribute 34, 1
  12              		.eabi_attribute 18, 4
  13              		.thumb
  14              		.file	"protocol.c"
  15              		.text
  16              	.Ltext0:
  17              		.cfi_sections	.debug_frame
  18              		.section	.text.get_state,"ax",%progbits
  19              		.align	2
  20              		.global	get_state
  21              		.thumb
  22              		.thumb_func
  23              		.type	get_state, %function
  24              	get_state:
  25              	.LFB63:
  26              		.file 1 ".\\protocol.c"
   1:.\protocol.c  **** /*
   2:.\protocol.c  **** ***************************************************************************************************
   3:.\protocol.c  **** *                                         MUX ADVANCE CODE
   4:.\protocol.c  **** *
   5:.\protocol.c  **** *                             (c) Copyright 2016; Sistemas Insepet LTDA
   6:.\protocol.c  **** *
   7:.\protocol.c  **** *               All rights reserved.  Protected by international copyright laws.
   8:.\protocol.c  **** *               Knowledge of the source code may NOT be used to develop a similar product.
   9:.\protocol.c  **** *               Please help us continue to provide the Embedded community with the finest
  10:.\protocol.c  **** *               software available.  Your honesty is greatly appreciated.
  11:.\protocol.c  **** ***************************************************************************************************
  12:.\protocol.c  **** */
  13:.\protocol.c  **** 
  14:.\protocol.c  **** /*
  15:.\protocol.c  **** ***************************************************************************************************
  16:.\protocol.c  **** *
  17:.\protocol.c  **** *                                             MUX ADVANCE CODE
  18:.\protocol.c  **** *
  19:.\protocol.c  **** *                                             CYPRESS PSoC5LP
  20:.\protocol.c  **** *                                                with the
  21:.\protocol.c  **** *                                            CY8C5969AXI-LP035
  22:.\protocol.c  **** *
  23:.\protocol.c  **** * Filename      : protocol.c
  24:.\protocol.c  **** * Version       : V1.00
  25:.\protocol.c  **** * Programmer(s) : 
  26:.\protocol.c  ****                   
  27:.\protocol.c  **** ***************************************************************************************************
  28:.\protocol.c  **** */
  29:.\protocol.c  **** 
  30:.\protocol.c  **** 
  31:.\protocol.c  **** /*
ARM GAS  C:\Users\RECEPC~1\AppData\Local\Temp\ccTEGtgN.s 			page 2


  32:.\protocol.c  **** ***************************************************************************************************
  33:.\protocol.c  **** *                                             INCLUDE FILES
  34:.\protocol.c  **** ***************************************************************************************************
  35:.\protocol.c  **** */
  36:.\protocol.c  **** #include <device.h>
  37:.\protocol.c  **** #include <variables.h>
  38:.\protocol.c  **** #include <stdbool.h>
  39:.\protocol.c  **** uint8_t GetLRC(char8 *_pbuffer);
  40:.\protocol.c  **** /*
  41:.\protocol.c  **** ***************************************************************************************************
  42:.\protocol.c  **** *                                    uint8 get_state(uint8 pos)
  43:.\protocol.c  **** *
  44:.\protocol.c  **** * Description : 
  45:.\protocol.c  **** *               
  46:.\protocol.c  **** *
  47:.\protocol.c  **** * Argument(s) : none
  48:.\protocol.c  **** *
  49:.\protocol.c  **** * Return(s)   : none
  50:.\protocol.c  **** *
  51:.\protocol.c  **** * Caller(s)   : 
  52:.\protocol.c  **** *
  53:.\protocol.c  **** * Note(s)     : none.
  54:.\protocol.c  **** ***************************************************************************************************
  55:.\protocol.c  **** */
  56:.\protocol.c  **** 
  57:.\protocol.c  **** uint8 get_state(uint8 pos){
  27              		.loc 1 57 0
  28              		.cfi_startproc
  29              		@ args = 0, pretend = 0, frame = 0
  30              		@ frame_needed = 0, uses_anonymous_args = 0
  31              	.LVL0:
  32 0000 10B5     		push	{r4, lr}
  33              		.cfi_def_cfa_offset 8
  34              		.cfi_offset 4, -8
  35              		.cfi_offset 14, -4
  36 0002 0446     		mov	r4, r0
  58:.\protocol.c  ****     uint8 state;
  59:.\protocol.c  ****     Pump_ClearRxBuffer();
  37              		.loc 1 59 0
  38 0004 FFF7FEFF 		bl	Pump_ClearRxBuffer
  39              	.LVL1:
  60:.\protocol.c  ****     Pump_PutChar(pos);
  40              		.loc 1 60 0
  41 0008 2046     		mov	r0, r4
  42 000a FFF7FEFF 		bl	Pump_PutChar
  43              	.LVL2:
  61:.\protocol.c  ****     CyDelay(60);
  44              		.loc 1 61 0
  45 000e 3C20     		movs	r0, #60
  46 0010 FFF7FEFF 		bl	CyDelay
  47              	.LVL3:
  62:.\protocol.c  ****     if(Pump_GetRxBufferSize()>=1){
  48              		.loc 1 62 0
  49 0014 FFF7FEFF 		bl	Pump_GetRxBufferSize
  50              	.LVL4:
  51 0018 38B1     		cbz	r0, .L3
  63:.\protocol.c  ****         state=(Pump_ReadRxData()&0xF0)>>4;
ARM GAS  C:\Users\RECEPC~1\AppData\Local\Temp\ccTEGtgN.s 			page 3


  52              		.loc 1 63 0
  53 001a FFF7FEFF 		bl	Pump_ReadRxData
  54              	.LVL5:
  55 001e C0F30714 		ubfx	r4, r0, #4, #8
  56              	.LVL6:
  64:.\protocol.c  ****         //state = Pump_ReadRxData();
  65:.\protocol.c  ****         Pump_ClearRxBuffer();
  57              		.loc 1 65 0
  58 0022 FFF7FEFF 		bl	Pump_ClearRxBuffer
  59              	.LVL7:
  66:.\protocol.c  ****         return state;
  60              		.loc 1 66 0
  61 0026 2046     		mov	r0, r4
  62 0028 10BD     		pop	{r4, pc}
  63              	.LVL8:
  64              	.L3:
  67:.\protocol.c  ****     }
  68:.\protocol.c  ****     else{
  69:.\protocol.c  ****         return 0;
  65              		.loc 1 69 0
  66 002a 0020     		movs	r0, #0
  70:.\protocol.c  ****     }
  71:.\protocol.c  **** }
  67              		.loc 1 71 0
  68 002c 10BD     		pop	{r4, pc}
  69              		.cfi_endproc
  70              	.LFE63:
  71              		.size	get_state, .-get_state
  72 002e 00BF     		.section	.text.get_position,"ax",%progbits
  73              		.align	2
  74              		.global	get_position
  75              		.thumb
  76              		.thumb_func
  77              		.type	get_position, %function
  78              	get_position:
  79              	.LFB64:
  72:.\protocol.c  **** 
  73:.\protocol.c  **** /*
  74:.\protocol.c  **** ***************************************************************************************************
  75:.\protocol.c  **** *                                         uint8 get_position(void)
  76:.\protocol.c  **** *
  77:.\protocol.c  **** * Description : 
  78:.\protocol.c  **** *               
  79:.\protocol.c  **** *
  80:.\protocol.c  **** * Argument(s) : none
  81:.\protocol.c  **** *
  82:.\protocol.c  **** * Return(s)   : none
  83:.\protocol.c  **** *
  84:.\protocol.c  **** * Caller(s)   : 
  85:.\protocol.c  **** *
  86:.\protocol.c  **** * Note(s)     : none.
  87:.\protocol.c  **** ***************************************************************************************************
  88:.\protocol.c  **** */
  89:.\protocol.c  **** uint8 get_position(void){
  80              		.loc 1 89 0
  81              		.cfi_startproc
  82              		@ args = 0, pretend = 0, frame = 0
ARM GAS  C:\Users\RECEPC~1\AppData\Local\Temp\ccTEGtgN.s 			page 4


  83              		@ frame_needed = 0, uses_anonymous_args = 0
  84 0000 10B5     		push	{r4, lr}
  85              		.cfi_def_cfa_offset 8
  86              		.cfi_offset 4, -8
  87              		.cfi_offset 14, -4
  90:.\protocol.c  ****     uint8 x;            
  91:.\protocol.c  ****     side.a.dir=0xff;
  88              		.loc 1 91 0
  89 0002 464B     		ldr	r3, .L20
  90 0004 FF22     		movs	r2, #255
  91 0006 1A70     		strb	r2, [r3]
  92:.\protocol.c  ****     side.b.dir=0xff;
  92              		.loc 1 92 0
  93 0008 83F80221 		strb	r2, [r3, #258]
  93:.\protocol.c  ****     side.c.dir=0xff;
  94              		.loc 1 93 0
  95 000c 83F80422 		strb	r2, [r3, #516]
  94:.\protocol.c  ****     side.d.dir=0xff;
  96              		.loc 1 94 0
  97 0010 83F80623 		strb	r2, [r3, #774]
  98              	.LVL9:
  95:.\protocol.c  ****     for(x=1;x<=16;x++){
  99              		.loc 1 95 0
 100 0014 0124     		movs	r4, #1
 101 0016 54E0     		b	.L6
 102              	.LVL10:
 103              	.L11:
  96:.\protocol.c  ****         Pump_PutChar(x);
 104              		.loc 1 96 0
 105 0018 2046     		mov	r0, r4
 106 001a FFF7FEFF 		bl	Pump_PutChar
 107              	.LVL11:
  97:.\protocol.c  ****         CyDelay(100);           
 108              		.loc 1 97 0
 109 001e 6420     		movs	r0, #100
 110 0020 FFF7FEFF 		bl	CyDelay
 111              	.LVL12:
  98:.\protocol.c  ****         
  99:.\protocol.c  ****         if((Pump_GetRxBufferSize()>=1)&&(side.a.dir==0xff)){
 112              		.loc 1 99 0
 113 0024 FFF7FEFF 		bl	Pump_GetRxBufferSize
 114              	.LVL13:
 115 0028 38B1     		cbz	r0, .L7
 116              		.loc 1 99 0 is_stmt 0 discriminator 1
 117 002a 3C4B     		ldr	r3, .L20
 118 002c 1B78     		ldrb	r3, [r3]	@ zero_extendqisi2
 119 002e FF2B     		cmp	r3, #255
 120 0030 03D1     		bne	.L7
 100:.\protocol.c  ****            side.a.dir=x;	
 121              		.loc 1 100 0 is_stmt 1
 122 0032 3A4B     		ldr	r3, .L20
 123 0034 1C70     		strb	r4, [r3]
 101:.\protocol.c  ****            Pump_ClearRxBuffer();
 124              		.loc 1 101 0
 125 0036 FFF7FEFF 		bl	Pump_ClearRxBuffer
 126              	.LVL14:
 127              	.L7:
ARM GAS  C:\Users\RECEPC~1\AppData\Local\Temp\ccTEGtgN.s 			page 5


 102:.\protocol.c  ****         }
 103:.\protocol.c  ****         if((Pump_GetRxBufferSize()>=1)&&(x!=side.a.dir)&&(side.b.dir==0xff)){
 128              		.loc 1 103 0
 129 003a FFF7FEFF 		bl	Pump_GetRxBufferSize
 130              	.LVL15:
 131 003e 68B1     		cbz	r0, .L8
 132              		.loc 1 103 0 is_stmt 0 discriminator 1
 133 0040 364B     		ldr	r3, .L20
 134 0042 1B78     		ldrb	r3, [r3]	@ zero_extendqisi2
 135 0044 A342     		cmp	r3, r4
 136 0046 09D0     		beq	.L8
 137              		.loc 1 103 0 discriminator 2
 138 0048 344B     		ldr	r3, .L20
 139 004a 93F80231 		ldrb	r3, [r3, #258]	@ zero_extendqisi2
 140 004e FF2B     		cmp	r3, #255
 141 0050 04D1     		bne	.L8
 104:.\protocol.c  ****            side.b.dir=x;
 142              		.loc 1 104 0 is_stmt 1
 143 0052 324B     		ldr	r3, .L20
 144 0054 83F80241 		strb	r4, [r3, #258]
 105:.\protocol.c  ****            Pump_ClearRxBuffer();
 145              		.loc 1 105 0
 146 0058 FFF7FEFF 		bl	Pump_ClearRxBuffer
 147              	.LVL16:
 148              	.L8:
 106:.\protocol.c  ****         }
 107:.\protocol.c  ****         if((Pump_GetRxBufferSize()>=1)&&(x!=side.a.dir)&&(x!=side.b.dir)&&(side.c.dir==0xff)){
 149              		.loc 1 107 0
 150 005c FFF7FEFF 		bl	Pump_GetRxBufferSize
 151              	.LVL17:
 152 0060 90B1     		cbz	r0, .L9
 153              		.loc 1 107 0 is_stmt 0 discriminator 1
 154 0062 2E4B     		ldr	r3, .L20
 155 0064 1B78     		ldrb	r3, [r3]	@ zero_extendqisi2
 156 0066 A342     		cmp	r3, r4
 157 0068 0ED0     		beq	.L9
 158              		.loc 1 107 0 discriminator 2
 159 006a 2C4B     		ldr	r3, .L20
 160 006c 93F80231 		ldrb	r3, [r3, #258]	@ zero_extendqisi2
 161 0070 A342     		cmp	r3, r4
 162 0072 09D0     		beq	.L9
 163              		.loc 1 107 0 discriminator 3
 164 0074 294B     		ldr	r3, .L20
 165 0076 93F80432 		ldrb	r3, [r3, #516]	@ zero_extendqisi2
 166 007a FF2B     		cmp	r3, #255
 167 007c 04D1     		bne	.L9
 108:.\protocol.c  ****            side.c.dir=x;
 168              		.loc 1 108 0 is_stmt 1
 169 007e 274B     		ldr	r3, .L20
 170 0080 83F80442 		strb	r4, [r3, #516]
 109:.\protocol.c  ****            Pump_ClearRxBuffer();
 171              		.loc 1 109 0
 172 0084 FFF7FEFF 		bl	Pump_ClearRxBuffer
 173              	.LVL18:
 174              	.L9:
 110:.\protocol.c  ****         }
 111:.\protocol.c  ****         if((Pump_GetRxBufferSize()>=1)&&(x!=side.a.dir)&&(x!=side.b.dir)&&(x!=side.c.dir)&&(side.d.
ARM GAS  C:\Users\RECEPC~1\AppData\Local\Temp\ccTEGtgN.s 			page 6


 175              		.loc 1 111 0
 176 0088 FFF7FEFF 		bl	Pump_GetRxBufferSize
 177              	.LVL19:
 178 008c B8B1     		cbz	r0, .L10
 179              		.loc 1 111 0 is_stmt 0 discriminator 1
 180 008e 234B     		ldr	r3, .L20
 181 0090 1B78     		ldrb	r3, [r3]	@ zero_extendqisi2
 182 0092 A342     		cmp	r3, r4
 183 0094 13D0     		beq	.L10
 184              		.loc 1 111 0 discriminator 2
 185 0096 214B     		ldr	r3, .L20
 186 0098 93F80231 		ldrb	r3, [r3, #258]	@ zero_extendqisi2
 187 009c A342     		cmp	r3, r4
 188 009e 0ED0     		beq	.L10
 189              		.loc 1 111 0 discriminator 3
 190 00a0 1E4B     		ldr	r3, .L20
 191 00a2 93F80432 		ldrb	r3, [r3, #516]	@ zero_extendqisi2
 192 00a6 A342     		cmp	r3, r4
 193 00a8 09D0     		beq	.L10
 194              		.loc 1 111 0 discriminator 4
 195 00aa 1C4B     		ldr	r3, .L20
 196 00ac 93F80633 		ldrb	r3, [r3, #774]	@ zero_extendqisi2
 197 00b0 FF2B     		cmp	r3, #255
 198 00b2 04D1     		bne	.L10
 112:.\protocol.c  ****            side.d.dir=x;
 199              		.loc 1 112 0 is_stmt 1
 200 00b4 194B     		ldr	r3, .L20
 201 00b6 83F80643 		strb	r4, [r3, #774]
 113:.\protocol.c  ****            Pump_ClearRxBuffer();
 202              		.loc 1 113 0
 203 00ba FFF7FEFF 		bl	Pump_ClearRxBuffer
 204              	.LVL20:
 205              	.L10:
  95:.\protocol.c  ****         Pump_PutChar(x);
 206              		.loc 1 95 0 discriminator 2
 207 00be 0134     		adds	r4, r4, #1
 208              	.LVL21:
 209 00c0 E4B2     		uxtb	r4, r4
 210              	.LVL22:
 211              	.L6:
  95:.\protocol.c  ****         Pump_PutChar(x);
 212              		.loc 1 95 0 is_stmt 0 discriminator 1
 213 00c2 102C     		cmp	r4, #16
 214 00c4 A8D9     		bls	.L11
 114:.\protocol.c  ****         }
 115:.\protocol.c  ****                         
 116:.\protocol.c  ****     }
 117:.\protocol.c  ****     if((side.a.dir!=0xff)&&(side.b.dir!=0xff)&&(side.c.dir!=0xff)&&(side.d.dir!=0xff)){
 215              		.loc 1 117 0 is_stmt 1
 216 00c6 154B     		ldr	r3, .L20
 217 00c8 1B78     		ldrb	r3, [r3]	@ zero_extendqisi2
 218 00ca FF2B     		cmp	r3, #255
 219 00cc 0ED0     		beq	.L12
 220              		.loc 1 117 0 is_stmt 0 discriminator 1
 221 00ce 134A     		ldr	r2, .L20
 222 00d0 92F80221 		ldrb	r2, [r2, #258]	@ zero_extendqisi2
 223 00d4 FF2A     		cmp	r2, #255
ARM GAS  C:\Users\RECEPC~1\AppData\Local\Temp\ccTEGtgN.s 			page 7


 224 00d6 09D0     		beq	.L12
 225              		.loc 1 117 0 discriminator 2
 226 00d8 104A     		ldr	r2, .L20
 227 00da 92F80422 		ldrb	r2, [r2, #516]	@ zero_extendqisi2
 228 00de FF2A     		cmp	r2, #255
 229 00e0 04D0     		beq	.L12
 230              		.loc 1 117 0 discriminator 3
 231 00e2 0E4A     		ldr	r2, .L20
 232 00e4 92F80623 		ldrb	r2, [r2, #774]	@ zero_extendqisi2
 233 00e8 FF2A     		cmp	r2, #255
 234 00ea 0FD1     		bne	.L15
 235              	.L12:
 118:.\protocol.c  ****         return 4;
 119:.\protocol.c  ****     }
 120:.\protocol.c  ****     if((side.a.dir!=0xff)&&(side.b.dir!=0xff)){
 236              		.loc 1 120 0 is_stmt 1
 237 00ec FF2B     		cmp	r3, #255
 238 00ee 04D0     		beq	.L14
 239              		.loc 1 120 0 is_stmt 0 discriminator 1
 240 00f0 0A4A     		ldr	r2, .L20
 241 00f2 92F80221 		ldrb	r2, [r2, #258]	@ zero_extendqisi2
 242 00f6 FF2A     		cmp	r2, #255
 243 00f8 0AD1     		bne	.L16
 244              	.L14:
 121:.\protocol.c  ****         return 2;
 122:.\protocol.c  ****     }
 123:.\protocol.c  ****     else{
 124:.\protocol.c  ****         if((side.a.dir!=0xff)||(side.b.dir!=0xff)){
 245              		.loc 1 124 0 is_stmt 1
 246 00fa FF2B     		cmp	r3, #255
 247 00fc 0AD1     		bne	.L17
 248              		.loc 1 124 0 is_stmt 0 discriminator 1
 249 00fe 074B     		ldr	r3, .L20
 250 0100 93F80231 		ldrb	r3, [r3, #258]	@ zero_extendqisi2
 251 0104 FF2B     		cmp	r3, #255
 252 0106 07D0     		beq	.L18
 125:.\protocol.c  ****             return 1;
 253              		.loc 1 125 0 is_stmt 1
 254 0108 0120     		movs	r0, #1
 255 010a 10BD     		pop	{r4, pc}
 256              	.LVL23:
 257              	.L15:
 118:.\protocol.c  ****         return 4;
 258              		.loc 1 118 0
 259 010c 0420     		movs	r0, #4
 260 010e 10BD     		pop	{r4, pc}
 261              	.LVL24:
 262              	.L16:
 121:.\protocol.c  ****         return 2;
 263              		.loc 1 121 0
 264 0110 0220     		movs	r0, #2
 265 0112 10BD     		pop	{r4, pc}
 266              	.LVL25:
 267              	.L17:
 268              		.loc 1 125 0
 269 0114 0120     		movs	r0, #1
 270 0116 10BD     		pop	{r4, pc}
ARM GAS  C:\Users\RECEPC~1\AppData\Local\Temp\ccTEGtgN.s 			page 8


 271              	.LVL26:
 272              	.L18:
 126:.\protocol.c  ****         }
 127:.\protocol.c  ****         else{
 128:.\protocol.c  ****             return 0;
 273              		.loc 1 128 0
 274 0118 0020     		movs	r0, #0
 129:.\protocol.c  ****         }
 130:.\protocol.c  ****     }
 131:.\protocol.c  **** }
 275              		.loc 1 131 0
 276 011a 10BD     		pop	{r4, pc}
 277              	.LVL27:
 278              	.L21:
 279              		.align	2
 280              	.L20:
 281 011c 00000000 		.word	side
 282              		.cfi_endproc
 283              	.LFE64:
 284              		.size	get_position, .-get_position
 285              		.section	.text.PumpIsInValidState,"ax",%progbits
 286              		.align	2
 287              		.global	PumpIsInValidState
 288              		.thumb
 289              		.thumb_func
 290              		.type	PumpIsInValidState, %function
 291              	PumpIsInValidState:
 292              	.LFB67:
 132:.\protocol.c  **** 
 133:.\protocol.c  **** 
 134:.\protocol.c  **** 
 135:.\protocol.c  **** uint8 PumpCompleteConfiguration( uint8 side){   
 136:.\protocol.c  ****     uint8 state,x;
 137:.\protocol.c  ****     char8 SendComand[9];
 138:.\protocol.c  ****     char8 PumpDataReceive =0;    
 139:.\protocol.c  ****     
 140:.\protocol.c  ****     uint8 BufferSize = 0;
 141:.\protocol.c  **** ///////////////////////////////////////////////////////////////////////////////////////////////////
 142:.\protocol.c  ****     state = get_state(side);
 143:.\protocol.c  ****     if(state == 0x06){
 144:.\protocol.c  ****         Pump_PutChar(0x20|side);
 145:.\protocol.c  ****         CyDelay(50);
 146:.\protocol.c  ****         PumpDataReceive = Pump_ReadRxData();
 147:.\protocol.c  ****     }
 148:.\protocol.c  ****     Pump_ClearRxBuffer();
 149:.\protocol.c  ****     if(PumpDataReceive == (0xd0|side)){    
 150:.\protocol.c  ****         SendComand[0] = SOM; //Start Of Message    
 151:.\protocol.c  ****         SendComand[1] = (0xE9);//Data Length
 152:.\protocol.c  ****         SendComand[2] = (0xFE);//Special Functions Next (0xB0 0xB0 0xBE)
 153:.\protocol.c  ****         SendComand[3] = (0xEE);//Complete Pump Configuration Request (sf1)
 154:.\protocol.c  ****         SendComand[4] = (0xE0);//Complete Pump Configuration Request (sf2)
 155:.\protocol.c  ****         SendComand[5] = (0xE0);//Complete Pump Configuration Request (sf3)
 156:.\protocol.c  ****         SendComand[6] = (0xFB);
 157:.\protocol.c  ****         SendComand[7] = GetLRC(SendComand);
 158:.\protocol.c  ****         SendComand[8] = (EOM);
 159:.\protocol.c  ****         for(x=0; x<=8;x++){
 160:.\protocol.c  ****             Pump_PutChar(SendComand[x]);
ARM GAS  C:\Users\RECEPC~1\AppData\Local\Temp\ccTEGtgN.s 			page 9


 161:.\protocol.c  ****         } 
 162:.\protocol.c  ****         CyDelay(200);
 163:.\protocol.c  ****     }
 164:.\protocol.c  ****     BufferSize =Pump_GetRxBufferSize();
 165:.\protocol.c  ****     char8 buffer[BufferSize];
 166:.\protocol.c  ****     for(x=0;x<=BufferSize;x++){
 167:.\protocol.c  ****        buffer[x]=Pump_ReadRxData(); 
 168:.\protocol.c  ****     }
 169:.\protocol.c  ****     Pump_ClearRxBuffer();
 170:.\protocol.c  **** ///////////////////////////////////////////////////////////////////////////////////////////////////
 171:.\protocol.c  ****     UnitType            = buffer [10] &0x0F;
 172:.\protocol.c  ****     ConversionFactor    = buffer [12] &0x0F;
 173:.\protocol.c  ****     MoneyDec            = buffer [14] &0x0F;
 174:.\protocol.c  ****     VolDec              = buffer [16] &0x0F;
 175:.\protocol.c  ****     PPUDec              = buffer [18] &0x0F;
 176:.\protocol.c  ****     DDMode              = buffer [20] &0x0F;
 177:.\protocol.c  ****     
 178:.\protocol.c  ****     return 0;
 179:.\protocol.c  **** } 
 180:.\protocol.c  **** 
 181:.\protocol.c  **** uint8 PumpHoseActiveState(uint8 side){       
 182:.\protocol.c  ****     uint8 state,x;
 183:.\protocol.c  ****     char8 SendComand[9];
 184:.\protocol.c  ****     char8 PumpDataReceive =0;    
 185:.\protocol.c  ****     
 186:.\protocol.c  ****     uint8 BufferSize = 0;
 187:.\protocol.c  **** ///////////////////////////////////////////////////////////////////////////////////////////////////
 188:.\protocol.c  ****     state = get_state(side);
 189:.\protocol.c  ****     if(state == PUMP_IDLE || state == PUMP_CALLING){
 190:.\protocol.c  ****         Pump_PutChar(0x20|side);
 191:.\protocol.c  ****         CyDelay(50);
 192:.\protocol.c  ****         PumpDataReceive = Pump_ReadRxData();
 193:.\protocol.c  ****     }
 194:.\protocol.c  ****     Pump_ClearRxBuffer();
 195:.\protocol.c  ****     if(PumpDataReceive == (0xd0|side)){
 196:.\protocol.c  ****         SendComand[0] = SOM;//Start Of Message
 197:.\protocol.c  ****         SendComand[1] = 0xE9;//Data Length
 198:.\protocol.c  ****         SendComand[2] = 0xFE;//Special Functions Next (0xB0 0xB0 0xB6)
 199:.\protocol.c  ****         SendComand[3] = 0xE0;//Complete Pump Configuration Request (sf1)
 200:.\protocol.c  ****         SendComand[4] = 0xE1;//Complete Pump Configuration Request (sf2)
 201:.\protocol.c  ****         SendComand[5] = 0xE0;//Complete Pump Configuration Request (sf3)
 202:.\protocol.c  ****         SendComand[6] = 0xFB;
 203:.\protocol.c  ****         SendComand[7] = GetLRC(SendComand);
 204:.\protocol.c  ****         SendComand[8] = EOM;
 205:.\protocol.c  ****         for(x=0; x<=8;x++){
 206:.\protocol.c  ****             Pump_PutChar(SendComand[x]);
 207:.\protocol.c  ****         } 
 208:.\protocol.c  ****         if(UnitType > 0){
 209:.\protocol.c  ****             CyDelay(700);
 210:.\protocol.c  ****         }else{
 211:.\protocol.c  ****             CyDelay(200);
 212:.\protocol.c  ****         }
 213:.\protocol.c  ****     }    
 214:.\protocol.c  **** ///////////////////////////////////////////////////////////////////////////////////////////////////
 215:.\protocol.c  ****     BufferSize =Pump_GetRxBufferSize();
 216:.\protocol.c  ****     char8 buffer[BufferSize];
 217:.\protocol.c  ****     for(x=0;x<=BufferSize;x++){
ARM GAS  C:\Users\RECEPC~1\AppData\Local\Temp\ccTEGtgN.s 			page 10


 218:.\protocol.c  ****        buffer[x]=Pump_ReadRxData(); 
 219:.\protocol.c  ****     }
 220:.\protocol.c  ****     Pump_ClearRxBuffer();
 221:.\protocol.c  ****     if((buffer[0x0D] & 0x0F) == 0x01){
 222:.\protocol.c  ****         return (buffer[0x0E] & 0x0F);
 223:.\protocol.c  ****     }
 224:.\protocol.c  ****     
 225:.\protocol.c  ****     return 0;
 226:.\protocol.c  ****     
 227:.\protocol.c  **** }
 228:.\protocol.c  **** 
 229:.\protocol.c  **** 
 230:.\protocol.c  **** bool PumpIsInValidState(state)
 231:.\protocol.c  **** {
 293              		.loc 1 231 0
 294              		.cfi_startproc
 295              		@ args = 0, pretend = 0, frame = 0
 296              		@ frame_needed = 0, uses_anonymous_args = 0
 297              		@ link register save eliminated.
 298              	.LVL28:
 232:.\protocol.c  ****     bool retval = false;    
 233:.\protocol.c  ****     switch(state)
 299              		.loc 1 233 0
 300 0000 30B1     		cbz	r0, .L25
 301 0002 0028     		cmp	r0, #0
 302 0004 02DB     		blt	.L23
 303 0006 831F     		subs	r3, r0, #6
 304 0008 062B     		cmp	r3, #6
 305 000a 01D9     		bls	.L25
 306              	.L23:
 232:.\protocol.c  ****     bool retval = false;    
 307              		.loc 1 232 0
 308 000c 0020     		movs	r0, #0
 309              	.LVL29:
 310 000e 7047     		bx	lr
 311              	.LVL30:
 312              	.L25:
 234:.\protocol.c  ****     {
 235:.\protocol.c  ****         case PUMP_IDLE:
 236:.\protocol.c  ****         case PUMP_CALLING:
 237:.\protocol.c  ****         case PUMP_AUTHORIZED:
 238:.\protocol.c  ****         case PUMP_BUSY:
 239:.\protocol.c  ****         case PUMP_PEOT:
 240:.\protocol.c  ****         case PUMP_FEOT:
 241:.\protocol.c  ****         case PUMP_STOPPED:
 242:.\protocol.c  ****         case PUMP_FAIL:
 243:.\protocol.c  ****             retval = true;
 313              		.loc 1 243 0
 314 0010 0120     		movs	r0, #1
 315              	.LVL31:
 244:.\protocol.c  ****             break;
 245:.\protocol.c  ****     }
 246:.\protocol.c  ****     return retval;
 247:.\protocol.c  **** }
 316              		.loc 1 247 0
 317 0012 7047     		bx	lr
 318              		.cfi_endproc
ARM GAS  C:\Users\RECEPC~1\AppData\Local\Temp\ccTEGtgN.s 			page 11


 319              	.LFE67:
 320              		.size	PumpIsInValidState, .-PumpIsInValidState
 321              		.section	.text.GetLRC,"ax",%progbits
 322              		.align	2
 323              		.global	GetLRC
 324              		.thumb
 325              		.thumb_func
 326              		.type	GetLRC, %function
 327              	GetLRC:
 328              	.LFB68:
 248:.\protocol.c  **** 
 249:.\protocol.c  **** 
 250:.\protocol.c  **** 
 251:.\protocol.c  **** uint8_t GetLRC(char8 *_pbuffer)
 252:.\protocol.c  **** {
 329              		.loc 1 252 0
 330              		.cfi_startproc
 331              		@ args = 0, pretend = 0, frame = 0
 332              		@ frame_needed = 0, uses_anonymous_args = 0
 333              		@ link register save eliminated.
 334              	.LVL32:
 253:.\protocol.c  ****     uint8_t lrc = 0;
 335              		.loc 1 253 0
 336 0000 0021     		movs	r1, #0
 254:.\protocol.c  ****     while(*_pbuffer != 0xFB)
 337              		.loc 1 254 0
 338 0002 04E0     		b	.L27
 339              	.LVL33:
 340              	.L28:
 255:.\protocol.c  ****     {
 256:.\protocol.c  ****         lrc += (*_pbuffer & 0x0F);
 341              		.loc 1 256 0
 342 0004 03F00F03 		and	r3, r3, #15
 343 0008 0B44     		add	r3, r3, r1
 344 000a D9B2     		uxtb	r1, r3
 345              	.LVL34:
 257:.\protocol.c  ****         _pbuffer++;
 346              		.loc 1 257 0
 347 000c 0130     		adds	r0, r0, #1
 348              	.LVL35:
 349              	.L27:
 254:.\protocol.c  ****     while(*_pbuffer != 0xFB)
 350              		.loc 1 254 0
 351 000e 0378     		ldrb	r3, [r0]	@ zero_extendqisi2
 352 0010 FB2B     		cmp	r3, #251
 353 0012 F7D1     		bne	.L28
 258:.\protocol.c  ****     }
 259:.\protocol.c  ****     lrc += (*_pbuffer & 0x0F);
 354              		.loc 1 259 0
 355 0014 03F00F02 		and	r2, r3, #15
 356 0018 8818     		adds	r0, r1, r2
 357              	.LVL36:
 260:.\protocol.c  ****     return (((~lrc + 1) & 0x0F) | 0xE0);
 358              		.loc 1 260 0
 359 001a 4042     		negs	r0, r0
 360              	.LVL37:
 361 001c 00F00F00 		and	r0, r0, #15
ARM GAS  C:\Users\RECEPC~1\AppData\Local\Temp\ccTEGtgN.s 			page 12


 362              	.LVL38:
 261:.\protocol.c  **** }
 363              		.loc 1 261 0
 364 0020 40F0E000 		orr	r0, r0, #224
 365 0024 7047     		bx	lr
 366              		.cfi_endproc
 367              	.LFE68:
 368              		.size	GetLRC, .-GetLRC
 369 0026 00BF     		.section	.text.PumpCompleteConfiguration,"ax",%progbits
 370              		.align	2
 371              		.global	PumpCompleteConfiguration
 372              		.thumb
 373              		.thumb_func
 374              		.type	PumpCompleteConfiguration, %function
 375              	PumpCompleteConfiguration:
 376              	.LFB65:
 135:.\protocol.c  ****     uint8 state,x;
 377              		.loc 1 135 0
 378              		.cfi_startproc
 379              		@ args = 0, pretend = 0, frame = 16
 380              		@ frame_needed = 1, uses_anonymous_args = 0
 381              	.LVL39:
 382 0000 F0B5     		push	{r4, r5, r6, r7, lr}
 383              		.cfi_def_cfa_offset 20
 384              		.cfi_offset 4, -20
 385              		.cfi_offset 5, -16
 386              		.cfi_offset 6, -12
 387              		.cfi_offset 7, -8
 388              		.cfi_offset 14, -4
 389 0002 85B0     		sub	sp, sp, #20
 390              		.cfi_def_cfa_offset 40
 391 0004 00AF     		add	r7, sp, #0
 392              		.cfi_def_cfa_register 7
 393 0006 0446     		mov	r4, r0
 394              	.LVL40:
 142:.\protocol.c  ****     if(state == 0x06){
 395              		.loc 1 142 0
 396 0008 FFF7FEFF 		bl	get_state
 397              	.LVL41:
 143:.\protocol.c  ****         Pump_PutChar(0x20|side);
 398              		.loc 1 143 0
 399 000c 0628     		cmp	r0, #6
 400 000e 0AD1     		bne	.L36
 144:.\protocol.c  ****         CyDelay(50);
 401              		.loc 1 144 0
 402 0010 44F02000 		orr	r0, r4, #32
 403              	.LVL42:
 404 0014 FFF7FEFF 		bl	Pump_PutChar
 405              	.LVL43:
 145:.\protocol.c  ****         PumpDataReceive = Pump_ReadRxData();
 406              		.loc 1 145 0
 407 0018 3220     		movs	r0, #50
 408 001a FFF7FEFF 		bl	CyDelay
 409              	.LVL44:
 146:.\protocol.c  ****     }
 410              		.loc 1 146 0
 411 001e FFF7FEFF 		bl	Pump_ReadRxData
ARM GAS  C:\Users\RECEPC~1\AppData\Local\Temp\ccTEGtgN.s 			page 13


 412              	.LVL45:
 413 0022 0546     		mov	r5, r0
 414              	.LVL46:
 415 0024 00E0     		b	.L30
 416              	.LVL47:
 417              	.L36:
 138:.\protocol.c  ****     
 418              		.loc 1 138 0
 419 0026 0025     		movs	r5, #0
 420              	.LVL48:
 421              	.L30:
 148:.\protocol.c  ****     if(PumpDataReceive == (0xd0|side)){    
 422              		.loc 1 148 0
 423 0028 FFF7FEFF 		bl	Pump_ClearRxBuffer
 424              	.LVL49:
 149:.\protocol.c  ****         SendComand[0] = SOM; //Start Of Message    
 425              		.loc 1 149 0
 426 002c 44F0D004 		orr	r4, r4, #208
 427 0030 AC42     		cmp	r4, r5
 428 0032 22D1     		bne	.L31
 150:.\protocol.c  ****         SendComand[1] = (0xE9);//Data Length
 429              		.loc 1 150 0
 430 0034 FF23     		movs	r3, #255
 431 0036 3B71     		strb	r3, [r7, #4]
 151:.\protocol.c  ****         SendComand[2] = (0xFE);//Special Functions Next (0xB0 0xB0 0xBE)
 432              		.loc 1 151 0
 433 0038 E923     		movs	r3, #233
 434 003a 7B71     		strb	r3, [r7, #5]
 152:.\protocol.c  ****         SendComand[3] = (0xEE);//Complete Pump Configuration Request (sf1)
 435              		.loc 1 152 0
 436 003c FE23     		movs	r3, #254
 437 003e BB71     		strb	r3, [r7, #6]
 153:.\protocol.c  ****         SendComand[4] = (0xE0);//Complete Pump Configuration Request (sf2)
 438              		.loc 1 153 0
 439 0040 EE23     		movs	r3, #238
 440 0042 FB71     		strb	r3, [r7, #7]
 154:.\protocol.c  ****         SendComand[5] = (0xE0);//Complete Pump Configuration Request (sf3)
 441              		.loc 1 154 0
 442 0044 E023     		movs	r3, #224
 443 0046 3B72     		strb	r3, [r7, #8]
 155:.\protocol.c  ****         SendComand[6] = (0xFB);
 444              		.loc 1 155 0
 445 0048 7B72     		strb	r3, [r7, #9]
 156:.\protocol.c  ****         SendComand[7] = GetLRC(SendComand);
 446              		.loc 1 156 0
 447 004a FB23     		movs	r3, #251
 448 004c BB72     		strb	r3, [r7, #10]
 157:.\protocol.c  ****         SendComand[8] = (EOM);
 449              		.loc 1 157 0
 450 004e 381D     		adds	r0, r7, #4
 451 0050 FFF7FEFF 		bl	GetLRC
 452              	.LVL50:
 453 0054 F872     		strb	r0, [r7, #11]
 158:.\protocol.c  ****         for(x=0; x<=8;x++){
 454              		.loc 1 158 0
 455 0056 F023     		movs	r3, #240
 456 0058 3B73     		strb	r3, [r7, #12]
ARM GAS  C:\Users\RECEPC~1\AppData\Local\Temp\ccTEGtgN.s 			page 14


 457              	.LVL51:
 159:.\protocol.c  ****             Pump_PutChar(SendComand[x]);
 458              		.loc 1 159 0
 459 005a 0024     		movs	r4, #0
 460 005c 08E0     		b	.L32
 461              	.LVL52:
 462              	.L33:
 160:.\protocol.c  ****         } 
 463              		.loc 1 160 0 discriminator 3
 464 005e 07F11003 		add	r3, r7, #16
 465 0062 2344     		add	r3, r3, r4
 466 0064 13F80C0C 		ldrb	r0, [r3, #-12]	@ zero_extendqisi2
 467 0068 FFF7FEFF 		bl	Pump_PutChar
 468              	.LVL53:
 159:.\protocol.c  ****             Pump_PutChar(SendComand[x]);
 469              		.loc 1 159 0 discriminator 3
 470 006c 0134     		adds	r4, r4, #1
 471              	.LVL54:
 472 006e E4B2     		uxtb	r4, r4
 473              	.LVL55:
 474              	.L32:
 159:.\protocol.c  ****             Pump_PutChar(SendComand[x]);
 475              		.loc 1 159 0 is_stmt 0 discriminator 1
 476 0070 082C     		cmp	r4, #8
 477 0072 F4D9     		bls	.L33
 162:.\protocol.c  ****     }
 478              		.loc 1 162 0 is_stmt 1
 479 0074 C820     		movs	r0, #200
 480 0076 FFF7FEFF 		bl	CyDelay
 481              	.LVL56:
 482              	.L31:
 164:.\protocol.c  ****     char8 buffer[BufferSize];
 483              		.loc 1 164 0
 484 007a FFF7FEFF 		bl	Pump_GetRxBufferSize
 485              	.LVL57:
 486 007e C6B2     		uxtb	r6, r0
 487              	.LVL58:
 165:.\protocol.c  ****     for(x=0;x<=BufferSize;x++){
 488              		.loc 1 165 0
 489 0080 F31D     		adds	r3, r6, #7
 490 0082 23F00703 		bic	r3, r3, #7
 491 0086 ADEB030D 		sub	sp, sp, r3
 492 008a 6D46     		mov	r5, sp
 493              	.LVL59:
 166:.\protocol.c  ****        buffer[x]=Pump_ReadRxData(); 
 494              		.loc 1 166 0
 495 008c 0024     		movs	r4, #0
 496 008e 04E0     		b	.L34
 497              	.LVL60:
 498              	.L35:
 167:.\protocol.c  ****     }
 499              		.loc 1 167 0 discriminator 3
 500 0090 FFF7FEFF 		bl	Pump_ReadRxData
 501              	.LVL61:
 502 0094 2855     		strb	r0, [r5, r4]
 166:.\protocol.c  ****        buffer[x]=Pump_ReadRxData(); 
 503              		.loc 1 166 0 discriminator 3
ARM GAS  C:\Users\RECEPC~1\AppData\Local\Temp\ccTEGtgN.s 			page 15


 504 0096 0134     		adds	r4, r4, #1
 505              	.LVL62:
 506 0098 E4B2     		uxtb	r4, r4
 507              	.LVL63:
 508              	.L34:
 166:.\protocol.c  ****        buffer[x]=Pump_ReadRxData(); 
 509              		.loc 1 166 0 is_stmt 0 discriminator 1
 510 009a B442     		cmp	r4, r6
 511 009c F8D9     		bls	.L35
 169:.\protocol.c  **** ///////////////////////////////////////////////////////////////////////////////////////////////////
 512              		.loc 1 169 0 is_stmt 1
 513 009e FFF7FEFF 		bl	Pump_ClearRxBuffer
 514              	.LVL64:
 171:.\protocol.c  ****     ConversionFactor    = buffer [12] &0x0F;
 515              		.loc 1 171 0
 516 00a2 AB7A     		ldrb	r3, [r5, #10]	@ zero_extendqisi2
 517 00a4 03F00F03 		and	r3, r3, #15
 518 00a8 0F4A     		ldr	r2, .L38
 519 00aa 1370     		strb	r3, [r2]
 172:.\protocol.c  ****     MoneyDec            = buffer [14] &0x0F;
 520              		.loc 1 172 0
 521 00ac 2B7B     		ldrb	r3, [r5, #12]	@ zero_extendqisi2
 522 00ae 03F00F03 		and	r3, r3, #15
 523 00b2 0E4A     		ldr	r2, .L38+4
 524 00b4 1370     		strb	r3, [r2]
 173:.\protocol.c  ****     VolDec              = buffer [16] &0x0F;
 525              		.loc 1 173 0
 526 00b6 AB7B     		ldrb	r3, [r5, #14]	@ zero_extendqisi2
 527 00b8 03F00F03 		and	r3, r3, #15
 528 00bc 0C4A     		ldr	r2, .L38+8
 529 00be 1370     		strb	r3, [r2]
 174:.\protocol.c  ****     PPUDec              = buffer [18] &0x0F;
 530              		.loc 1 174 0
 531 00c0 2B7C     		ldrb	r3, [r5, #16]	@ zero_extendqisi2
 532 00c2 03F00F03 		and	r3, r3, #15
 533 00c6 0B4A     		ldr	r2, .L38+12
 534 00c8 1370     		strb	r3, [r2]
 175:.\protocol.c  ****     DDMode              = buffer [20] &0x0F;
 535              		.loc 1 175 0
 536 00ca AB7C     		ldrb	r3, [r5, #18]	@ zero_extendqisi2
 537 00cc 03F00F03 		and	r3, r3, #15
 538 00d0 094A     		ldr	r2, .L38+16
 539 00d2 1370     		strb	r3, [r2]
 176:.\protocol.c  ****     
 540              		.loc 1 176 0
 541 00d4 2B7D     		ldrb	r3, [r5, #20]	@ zero_extendqisi2
 542 00d6 03F00F03 		and	r3, r3, #15
 543 00da 084A     		ldr	r2, .L38+20
 544 00dc 1370     		strb	r3, [r2]
 179:.\protocol.c  **** 
 545              		.loc 1 179 0
 546 00de 0020     		movs	r0, #0
 547 00e0 1437     		adds	r7, r7, #20
 548              		.cfi_def_cfa_offset 20
 549 00e2 BD46     		mov	sp, r7
 550              		.cfi_def_cfa_register 13
 551              		@ sp needed
ARM GAS  C:\Users\RECEPC~1\AppData\Local\Temp\ccTEGtgN.s 			page 16


 552 00e4 F0BD     		pop	{r4, r5, r6, r7, pc}
 553              	.LVL65:
 554              	.L39:
 555 00e6 00BF     		.align	2
 556              	.L38:
 557 00e8 00000000 		.word	UnitType
 558 00ec 00000000 		.word	ConversionFactor
 559 00f0 00000000 		.word	MoneyDec
 560 00f4 00000000 		.word	VolDec
 561 00f8 00000000 		.word	PPUDec
 562 00fc 00000000 		.word	DDMode
 563              		.cfi_endproc
 564              	.LFE65:
 565              		.size	PumpCompleteConfiguration, .-PumpCompleteConfiguration
 566              		.section	.text.PumpHoseActiveState,"ax",%progbits
 567              		.align	2
 568              		.global	PumpHoseActiveState
 569              		.thumb
 570              		.thumb_func
 571              		.type	PumpHoseActiveState, %function
 572              	PumpHoseActiveState:
 573              	.LFB66:
 181:.\protocol.c  ****     uint8 state,x;
 574              		.loc 1 181 0
 575              		.cfi_startproc
 576              		@ args = 0, pretend = 0, frame = 16
 577              		@ frame_needed = 1, uses_anonymous_args = 0
 578              	.LVL66:
 579 0000 F0B5     		push	{r4, r5, r6, r7, lr}
 580              		.cfi_def_cfa_offset 20
 581              		.cfi_offset 4, -20
 582              		.cfi_offset 5, -16
 583              		.cfi_offset 6, -12
 584              		.cfi_offset 7, -8
 585              		.cfi_offset 14, -4
 586 0002 85B0     		sub	sp, sp, #20
 587              		.cfi_def_cfa_offset 40
 588 0004 00AF     		add	r7, sp, #0
 589              		.cfi_def_cfa_register 7
 590 0006 0446     		mov	r4, r0
 591              	.LVL67:
 188:.\protocol.c  ****     if(state == PUMP_IDLE || state == PUMP_CALLING){
 592              		.loc 1 188 0
 593 0008 FFF7FEFF 		bl	get_state
 594              	.LVL68:
 189:.\protocol.c  ****         Pump_PutChar(0x20|side);
 595              		.loc 1 189 0
 596 000c 0638     		subs	r0, r0, #6
 597              	.LVL69:
 598 000e C0B2     		uxtb	r0, r0
 599 0010 0128     		cmp	r0, #1
 600 0012 0AD8     		bhi	.L49
 190:.\protocol.c  ****         CyDelay(50);
 601              		.loc 1 190 0
 602 0014 44F02000 		orr	r0, r4, #32
 603 0018 FFF7FEFF 		bl	Pump_PutChar
 604              	.LVL70:
ARM GAS  C:\Users\RECEPC~1\AppData\Local\Temp\ccTEGtgN.s 			page 17


 191:.\protocol.c  ****         PumpDataReceive = Pump_ReadRxData();
 605              		.loc 1 191 0
 606 001c 3220     		movs	r0, #50
 607 001e FFF7FEFF 		bl	CyDelay
 608              	.LVL71:
 192:.\protocol.c  ****     }
 609              		.loc 1 192 0
 610 0022 FFF7FEFF 		bl	Pump_ReadRxData
 611              	.LVL72:
 612 0026 0546     		mov	r5, r0
 613              	.LVL73:
 614 0028 00E0     		b	.L41
 615              	.LVL74:
 616              	.L49:
 184:.\protocol.c  ****     
 617              		.loc 1 184 0
 618 002a 0025     		movs	r5, #0
 619              	.LVL75:
 620              	.L41:
 194:.\protocol.c  ****     if(PumpDataReceive == (0xd0|side)){
 621              		.loc 1 194 0
 622 002c FFF7FEFF 		bl	Pump_ClearRxBuffer
 623              	.LVL76:
 195:.\protocol.c  ****         SendComand[0] = SOM;//Start Of Message
 624              		.loc 1 195 0
 625 0030 44F0D004 		orr	r4, r4, #208
 626 0034 AC42     		cmp	r4, r5
 627 0036 2AD1     		bne	.L42
 196:.\protocol.c  ****         SendComand[1] = 0xE9;//Data Length
 628              		.loc 1 196 0
 629 0038 FF23     		movs	r3, #255
 630 003a 3B71     		strb	r3, [r7, #4]
 197:.\protocol.c  ****         SendComand[2] = 0xFE;//Special Functions Next (0xB0 0xB0 0xB6)
 631              		.loc 1 197 0
 632 003c E923     		movs	r3, #233
 633 003e 7B71     		strb	r3, [r7, #5]
 198:.\protocol.c  ****         SendComand[3] = 0xE0;//Complete Pump Configuration Request (sf1)
 634              		.loc 1 198 0
 635 0040 FE23     		movs	r3, #254
 636 0042 BB71     		strb	r3, [r7, #6]
 199:.\protocol.c  ****         SendComand[4] = 0xE1;//Complete Pump Configuration Request (sf2)
 637              		.loc 1 199 0
 638 0044 E023     		movs	r3, #224
 639 0046 FB71     		strb	r3, [r7, #7]
 200:.\protocol.c  ****         SendComand[5] = 0xE0;//Complete Pump Configuration Request (sf3)
 640              		.loc 1 200 0
 641 0048 E122     		movs	r2, #225
 642 004a 3A72     		strb	r2, [r7, #8]
 201:.\protocol.c  ****         SendComand[6] = 0xFB;
 643              		.loc 1 201 0
 644 004c 7B72     		strb	r3, [r7, #9]
 202:.\protocol.c  ****         SendComand[7] = GetLRC(SendComand);
 645              		.loc 1 202 0
 646 004e FB23     		movs	r3, #251
 647 0050 BB72     		strb	r3, [r7, #10]
 203:.\protocol.c  ****         SendComand[8] = EOM;
 648              		.loc 1 203 0
ARM GAS  C:\Users\RECEPC~1\AppData\Local\Temp\ccTEGtgN.s 			page 18


 649 0052 381D     		adds	r0, r7, #4
 650 0054 FFF7FEFF 		bl	GetLRC
 651              	.LVL77:
 652 0058 F872     		strb	r0, [r7, #11]
 204:.\protocol.c  ****         for(x=0; x<=8;x++){
 653              		.loc 1 204 0
 654 005a F023     		movs	r3, #240
 655 005c 3B73     		strb	r3, [r7, #12]
 656              	.LVL78:
 205:.\protocol.c  ****             Pump_PutChar(SendComand[x]);
 657              		.loc 1 205 0
 658 005e 0024     		movs	r4, #0
 659 0060 08E0     		b	.L43
 660              	.LVL79:
 661              	.L44:
 206:.\protocol.c  ****         } 
 662              		.loc 1 206 0 discriminator 3
 663 0062 07F11003 		add	r3, r7, #16
 664 0066 2344     		add	r3, r3, r4
 665 0068 13F80C0C 		ldrb	r0, [r3, #-12]	@ zero_extendqisi2
 666 006c FFF7FEFF 		bl	Pump_PutChar
 667              	.LVL80:
 205:.\protocol.c  ****             Pump_PutChar(SendComand[x]);
 668              		.loc 1 205 0 discriminator 3
 669 0070 0134     		adds	r4, r4, #1
 670              	.LVL81:
 671 0072 E4B2     		uxtb	r4, r4
 672              	.LVL82:
 673              	.L43:
 205:.\protocol.c  ****             Pump_PutChar(SendComand[x]);
 674              		.loc 1 205 0 is_stmt 0 discriminator 1
 675 0074 082C     		cmp	r4, #8
 676 0076 F4D9     		bls	.L44
 208:.\protocol.c  ****             CyDelay(700);
 677              		.loc 1 208 0 is_stmt 1
 678 0078 154B     		ldr	r3, .L52
 679 007a 1B78     		ldrb	r3, [r3]	@ zero_extendqisi2
 680 007c 23B1     		cbz	r3, .L45
 209:.\protocol.c  ****         }else{
 681              		.loc 1 209 0
 682 007e 4FF42F70 		mov	r0, #700
 683 0082 FFF7FEFF 		bl	CyDelay
 684              	.LVL83:
 685 0086 02E0     		b	.L42
 686              	.L45:
 211:.\protocol.c  ****         }
 687              		.loc 1 211 0
 688 0088 C820     		movs	r0, #200
 689 008a FFF7FEFF 		bl	CyDelay
 690              	.LVL84:
 691              	.L42:
 215:.\protocol.c  ****     char8 buffer[BufferSize];
 692              		.loc 1 215 0
 693 008e FFF7FEFF 		bl	Pump_GetRxBufferSize
 694              	.LVL85:
 695 0092 C5B2     		uxtb	r5, r0
 696              	.LVL86:
ARM GAS  C:\Users\RECEPC~1\AppData\Local\Temp\ccTEGtgN.s 			page 19


 216:.\protocol.c  ****     for(x=0;x<=BufferSize;x++){
 697              		.loc 1 216 0
 698 0094 EB1D     		adds	r3, r5, #7
 699 0096 23F00703 		bic	r3, r3, #7
 700 009a ADEB030D 		sub	sp, sp, r3
 701 009e 6E46     		mov	r6, sp
 702              	.LVL87:
 217:.\protocol.c  ****        buffer[x]=Pump_ReadRxData(); 
 703              		.loc 1 217 0
 704 00a0 0024     		movs	r4, #0
 705 00a2 04E0     		b	.L46
 706              	.LVL88:
 707              	.L47:
 218:.\protocol.c  ****     }
 708              		.loc 1 218 0 discriminator 3
 709 00a4 FFF7FEFF 		bl	Pump_ReadRxData
 710              	.LVL89:
 711 00a8 3055     		strb	r0, [r6, r4]
 217:.\protocol.c  ****        buffer[x]=Pump_ReadRxData(); 
 712              		.loc 1 217 0 discriminator 3
 713 00aa 0134     		adds	r4, r4, #1
 714              	.LVL90:
 715 00ac E4B2     		uxtb	r4, r4
 716              	.LVL91:
 717              	.L46:
 217:.\protocol.c  ****        buffer[x]=Pump_ReadRxData(); 
 718              		.loc 1 217 0 is_stmt 0 discriminator 1
 719 00ae AC42     		cmp	r4, r5
 720 00b0 F8D9     		bls	.L47
 220:.\protocol.c  ****     if((buffer[0x0D] & 0x0F) == 0x01){
 721              		.loc 1 220 0 is_stmt 1
 722 00b2 FFF7FEFF 		bl	Pump_ClearRxBuffer
 723              	.LVL92:
 221:.\protocol.c  ****         return (buffer[0x0E] & 0x0F);
 724              		.loc 1 221 0
 725 00b6 737B     		ldrb	r3, [r6, #13]	@ zero_extendqisi2
 726 00b8 03F00F03 		and	r3, r3, #15
 727 00bc 012B     		cmp	r3, #1
 728 00be 03D1     		bne	.L50
 222:.\protocol.c  ****     }
 729              		.loc 1 222 0
 730 00c0 B07B     		ldrb	r0, [r6, #14]	@ zero_extendqisi2
 731 00c2 00F00F00 		and	r0, r0, #15
 732 00c6 00E0     		b	.L48
 733              	.L50:
 225:.\protocol.c  ****     
 734              		.loc 1 225 0
 735 00c8 0020     		movs	r0, #0
 736              	.L48:
 227:.\protocol.c  **** 
 737              		.loc 1 227 0
 738 00ca 1437     		adds	r7, r7, #20
 739              		.cfi_def_cfa_offset 20
 740 00cc BD46     		mov	sp, r7
 741              		.cfi_def_cfa_register 13
 742              		@ sp needed
 743 00ce F0BD     		pop	{r4, r5, r6, r7, pc}
ARM GAS  C:\Users\RECEPC~1\AppData\Local\Temp\ccTEGtgN.s 			page 20


 744              	.LVL93:
 745              	.L53:
 746              		.align	2
 747              	.L52:
 748 00d0 00000000 		.word	UnitType
 749              		.cfi_endproc
 750              	.LFE66:
 751              		.size	PumpHoseActiveState, .-PumpHoseActiveState
 752              		.comm	side,1032,4
 753              		.comm	bufferDisplay4,661,4
 754              		.comm	bufferDisplay3,661,4
 755              		.comm	bufferDisplay2,661,4
 756              		.comm	bufferDisplay1,661,4
 757              		.comm	NumPositions,1,1
 758              		.comm	statePump,4,4
 759              		.comm	DDMode,1,1
 760              		.comm	PPUDec,1,1
 761              		.comm	VolDec,1,1
 762              		.comm	MoneyDec,1,1
 763              		.comm	ConversionFactor,1,1
 764              		.comm	UnitType,1,1
 765              		.comm	PlateRequest,1,1
 766              		.comm	PrevStatePump,4,4
 767              		.comm	stateBeagleSoft,1,1
 768              		.comm	flagResetMux,1,1
 769              		.comm	passwordSeller,8,4
 770              		.comm	typeIdSeller,1,1
 771              		.comm	idSeller,25,4
 772              		.comm	lockTurn,1,1
 773              		.comm	turn,1,1
 774              		.comm	temporal,30,4
 775              		.comm	residue,14,4
 776              		.comm	screen,2,4
 777              		.comm	date,3,4
 778              		.comm	time,3,4
 779              		.comm	symbols,2,4
 780              		.comm	decimalVolume,1,1
 781              		.comm	decimalMoney,1,1
 782              		.comm	ppux10,1,1
 783              		.comm	delayPicture2,4,4
 784              		.comm	delayPicture1,4,4
 785              		.comm	presetFast,30,4
 786              		.comm	productNumber,1,1
 787              		.comm	button,960,4
 788              		.comm	flagPoint2,1,1
 789              		.comm	flagPoint1,1,1
 790              		.comm	numberKeys2,1,1
 791              		.comm	numberKeys1,1,1
 792              		.comm	ipAdress,12,4
 793              		.comm	digits,1,1
 794              		.comm	flowDisplay4,4,4
 795              		.comm	flowDisplay3,4,4
 796              		.comm	flowDisplay2,4,4
 797              		.comm	flowDisplay1,4,4
 798              		.comm	countPump,8,8
 799              		.comm	countBeagleTX,8,8
 800              		.comm	countAnimation2,8,8
ARM GAS  C:\Users\RECEPC~1\AppData\Local\Temp\ccTEGtgN.s 			page 21


 801              		.comm	countAnimation1,8,8
 802              		.text
 803              	.Letext0:
 804              		.file 2 "c:\\program files (x86)\\cypress\\psoc creator\\3.3\\psoc creator\\import\\gnu\\arm\\4.9.
 805              		.file 3 "c:\\program files (x86)\\cypress\\psoc creator\\3.3\\psoc creator\\import\\gnu\\arm\\4.9.
 806              		.file 4 "Generated_Source\\PSoC5/cytypes.h"
 807              		.file 5 "./variables.h"
 808              		.file 6 "Generated_Source\\PSoC5/core_cm3.h"
 809              		.file 7 "Generated_Source\\PSoC5/Pump.h"
 810              		.file 8 "Generated_Source\\PSoC5/CyLib.h"
 811              		.section	.debug_info,"",%progbits
 812              	.Ldebug_info0:
 813 0000 610E0000 		.4byte	0xe61
 814 0004 0400     		.2byte	0x4
 815 0006 00000000 		.4byte	.Ldebug_abbrev0
 816 000a 04       		.byte	0x4
 817 000b 01       		.uleb128 0x1
 818 000c 97060000 		.4byte	.LASF163
 819 0010 01       		.byte	0x1
 820 0011 0C020000 		.4byte	.LASF164
 821 0015 60070000 		.4byte	.LASF165
 822 0019 00000000 		.4byte	.Ldebug_ranges0+0
 823 001d 00000000 		.4byte	0
 824 0021 00000000 		.4byte	.Ldebug_line0
 825 0025 02       		.uleb128 0x2
 826 0026 01       		.byte	0x1
 827 0027 06       		.byte	0x6
 828 0028 E8070000 		.4byte	.LASF0
 829 002c 03       		.uleb128 0x3
 830 002d A5050000 		.4byte	.LASF4
 831 0031 02       		.byte	0x2
 832 0032 1D       		.byte	0x1d
 833 0033 37000000 		.4byte	0x37
 834 0037 02       		.uleb128 0x2
 835 0038 01       		.byte	0x1
 836 0039 08       		.byte	0x8
 837 003a 7C060000 		.4byte	.LASF1
 838 003e 02       		.uleb128 0x2
 839 003f 02       		.byte	0x2
 840 0040 05       		.byte	0x5
 841 0041 1D050000 		.4byte	.LASF2
 842 0045 02       		.uleb128 0x2
 843 0046 02       		.byte	0x2
 844 0047 07       		.byte	0x7
 845 0048 F4070000 		.4byte	.LASF3
 846 004c 03       		.uleb128 0x3
 847 004d 77000000 		.4byte	.LASF5
 848 0051 02       		.byte	0x2
 849 0052 3F       		.byte	0x3f
 850 0053 57000000 		.4byte	0x57
 851 0057 02       		.uleb128 0x2
 852 0058 04       		.byte	0x4
 853 0059 05       		.byte	0x5
 854 005a 27050000 		.4byte	.LASF6
 855 005e 02       		.uleb128 0x2
 856 005f 04       		.byte	0x4
 857 0060 07       		.byte	0x7
ARM GAS  C:\Users\RECEPC~1\AppData\Local\Temp\ccTEGtgN.s 			page 22


 858 0061 0D060000 		.4byte	.LASF7
 859 0065 02       		.uleb128 0x2
 860 0066 08       		.byte	0x8
 861 0067 05       		.byte	0x5
 862 0068 B0030000 		.4byte	.LASF8
 863 006c 02       		.uleb128 0x2
 864 006d 08       		.byte	0x8
 865 006e 07       		.byte	0x7
 866 006f 50010000 		.4byte	.LASF9
 867 0073 04       		.uleb128 0x4
 868 0074 04       		.byte	0x4
 869 0075 05       		.byte	0x5
 870 0076 696E7400 		.ascii	"int\000"
 871 007a 02       		.uleb128 0x2
 872 007b 04       		.byte	0x4
 873 007c 07       		.byte	0x7
 874 007d 5C000000 		.4byte	.LASF10
 875 0081 03       		.uleb128 0x3
 876 0082 38030000 		.4byte	.LASF11
 877 0086 03       		.byte	0x3
 878 0087 15       		.byte	0x15
 879 0088 2C000000 		.4byte	0x2c
 880 008c 03       		.uleb128 0x3
 881 008d 43060000 		.4byte	.LASF12
 882 0091 03       		.byte	0x3
 883 0092 2C       		.byte	0x2c
 884 0093 4C000000 		.4byte	0x4c
 885 0097 05       		.uleb128 0x5
 886 0098 1D080000 		.4byte	.LASF13
 887 009c 04       		.byte	0x4
 888 009d 3801     		.2byte	0x138
 889 009f 37000000 		.4byte	0x37
 890 00a3 05       		.uleb128 0x5
 891 00a4 27030000 		.4byte	.LASF14
 892 00a8 04       		.byte	0x4
 893 00a9 3901     		.2byte	0x139
 894 00ab 45000000 		.4byte	0x45
 895 00af 05       		.uleb128 0x5
 896 00b0 6F040000 		.4byte	.LASF15
 897 00b4 04       		.byte	0x4
 898 00b5 3A01     		.2byte	0x13a
 899 00b7 5E000000 		.4byte	0x5e
 900 00bb 02       		.uleb128 0x2
 901 00bc 04       		.byte	0x4
 902 00bd 04       		.byte	0x4
 903 00be 1E010000 		.4byte	.LASF16
 904 00c2 02       		.uleb128 0x2
 905 00c3 08       		.byte	0x8
 906 00c4 04       		.byte	0x4
 907 00c5 23080000 		.4byte	.LASF17
 908 00c9 05       		.uleb128 0x5
 909 00ca D8050000 		.4byte	.LASF18
 910 00ce 04       		.byte	0x4
 911 00cf 4401     		.2byte	0x144
 912 00d1 6C000000 		.4byte	0x6c
 913 00d5 05       		.uleb128 0x5
 914 00d6 5C030000 		.4byte	.LASF19
ARM GAS  C:\Users\RECEPC~1\AppData\Local\Temp\ccTEGtgN.s 			page 23


 915 00da 04       		.byte	0x4
 916 00db 4901     		.2byte	0x149
 917 00dd E1000000 		.4byte	0xe1
 918 00e1 02       		.uleb128 0x2
 919 00e2 01       		.byte	0x1
 920 00e3 08       		.byte	0x8
 921 00e4 C1020000 		.4byte	.LASF20
 922 00e8 06       		.uleb128 0x6
 923 00e9 97000000 		.4byte	0x97
 924 00ed 06       		.uleb128 0x6
 925 00ee AF000000 		.4byte	0xaf
 926 00f2 02       		.uleb128 0x2
 927 00f3 04       		.byte	0x4
 928 00f4 07       		.byte	0x7
 929 00f5 04060000 		.4byte	.LASF21
 930 00f9 07       		.uleb128 0x7
 931 00fa 97000000 		.4byte	0x97
 932 00fe 09010000 		.4byte	0x109
 933 0102 08       		.uleb128 0x8
 934 0103 F2000000 		.4byte	0xf2
 935 0107 03       		.byte	0x3
 936 0108 00       		.byte	0
 937 0109 09       		.uleb128 0x9
 938 010a 33000000 		.4byte	.LASF72
 939 010e 9502     		.2byte	0x295
 940 0110 05       		.byte	0x5
 941 0111 5E       		.byte	0x5e
 942 0112 85030000 		.4byte	0x385
 943 0116 0A       		.uleb128 0xa
 944 0117 A2000000 		.4byte	.LASF22
 945 011b 05       		.byte	0x5
 946 011c 5F       		.byte	0x5f
 947 011d 97000000 		.4byte	0x97
 948 0121 00       		.byte	0
 949 0122 0A       		.uleb128 0xa
 950 0123 CF010000 		.4byte	.LASF23
 951 0127 05       		.byte	0x5
 952 0128 60       		.byte	0x60
 953 0129 85030000 		.4byte	0x385
 954 012d 01       		.byte	0x1
 955 012e 0A       		.uleb128 0xa
 956 012f 62030000 		.4byte	.LASF24
 957 0133 05       		.byte	0x5
 958 0134 61       		.byte	0x61
 959 0135 85030000 		.4byte	0x385
 960 0139 1A       		.byte	0x1a
 961 013a 0A       		.uleb128 0xa
 962 013b 2A080000 		.4byte	.LASF25
 963 013f 05       		.byte	0x5
 964 0140 62       		.byte	0x62
 965 0141 97000000 		.4byte	0x97
 966 0145 33       		.byte	0x33
 967 0146 0A       		.uleb128 0xa
 968 0147 6A060000 		.4byte	.LASF26
 969 014b 05       		.byte	0x5
 970 014c 63       		.byte	0x63
 971 014d 97000000 		.4byte	0x97
ARM GAS  C:\Users\RECEPC~1\AppData\Local\Temp\ccTEGtgN.s 			page 24


 972 0151 34       		.byte	0x34
 973 0152 0A       		.uleb128 0xa
 974 0153 BD000000 		.4byte	.LASF27
 975 0157 05       		.byte	0x5
 976 0158 64       		.byte	0x64
 977 0159 95030000 		.4byte	0x395
 978 015d 35       		.byte	0x35
 979 015e 0A       		.uleb128 0xa
 980 015f EA040000 		.4byte	.LASF28
 981 0163 05       		.byte	0x5
 982 0164 65       		.byte	0x65
 983 0165 95030000 		.4byte	0x395
 984 0169 3F       		.byte	0x3f
 985 016a 0A       		.uleb128 0xa
 986 016b 59080000 		.4byte	.LASF29
 987 016f 05       		.byte	0x5
 988 0170 66       		.byte	0x66
 989 0171 85030000 		.4byte	0x385
 990 0175 49       		.byte	0x49
 991 0176 0A       		.uleb128 0xa
 992 0177 B4040000 		.4byte	.LASF30
 993 017b 05       		.byte	0x5
 994 017c 67       		.byte	0x67
 995 017d 97000000 		.4byte	0x97
 996 0181 62       		.byte	0x62
 997 0182 0A       		.uleb128 0xa
 998 0183 25070000 		.4byte	.LASF31
 999 0187 05       		.byte	0x5
 1000 0188 68       		.byte	0x68
 1001 0189 97000000 		.4byte	0x97
 1002 018d 63       		.byte	0x63
 1003 018e 0A       		.uleb128 0xa
 1004 018f B7020000 		.4byte	.LASF32
 1005 0193 05       		.byte	0x5
 1006 0194 69       		.byte	0x69
 1007 0195 A5030000 		.4byte	0x3a5
 1008 0199 64       		.byte	0x64
 1009 019a 0A       		.uleb128 0xa
 1010 019b 2F040000 		.4byte	.LASF33
 1011 019f 05       		.byte	0x5
 1012 01a0 6A       		.byte	0x6a
 1013 01a1 97000000 		.4byte	0x97
 1014 01a5 79       		.byte	0x79
 1015 01a6 0A       		.uleb128 0xa
 1016 01a7 90020000 		.4byte	.LASF34
 1017 01ab 05       		.byte	0x5
 1018 01ac 6B       		.byte	0x6b
 1019 01ad 97000000 		.4byte	0x97
 1020 01b1 7A       		.byte	0x7a
 1021 01b2 0A       		.uleb128 0xa
 1022 01b3 50000000 		.4byte	.LASF35
 1023 01b7 05       		.byte	0x5
 1024 01b8 6C       		.byte	0x6c
 1025 01b9 97000000 		.4byte	0x97
 1026 01bd 7B       		.byte	0x7b
 1027 01be 0A       		.uleb128 0xa
 1028 01bf B5070000 		.4byte	.LASF36
ARM GAS  C:\Users\RECEPC~1\AppData\Local\Temp\ccTEGtgN.s 			page 25


 1029 01c3 05       		.byte	0x5
 1030 01c4 6D       		.byte	0x6d
 1031 01c5 B5030000 		.4byte	0x3b5
 1032 01c9 7C       		.byte	0x7c
 1033 01ca 0A       		.uleb128 0xa
 1034 01cb 74020000 		.4byte	.LASF37
 1035 01cf 05       		.byte	0x5
 1036 01d0 6E       		.byte	0x6e
 1037 01d1 C5030000 		.4byte	0x3c5
 1038 01d5 7E       		.byte	0x7e
 1039 01d6 0A       		.uleb128 0xa
 1040 01d7 A6010000 		.4byte	.LASF38
 1041 01db 05       		.byte	0x5
 1042 01dc 6F       		.byte	0x6f
 1043 01dd 97000000 		.4byte	0x97
 1044 01e1 92       		.byte	0x92
 1045 01e2 0A       		.uleb128 0xa
 1046 01e3 FB050000 		.4byte	.LASF39
 1047 01e7 05       		.byte	0x5
 1048 01e8 70       		.byte	0x70
 1049 01e9 DB030000 		.4byte	0x3db
 1050 01ed 93       		.byte	0x93
 1051 01ee 0A       		.uleb128 0xa
 1052 01ef 59050000 		.4byte	.LASF40
 1053 01f3 05       		.byte	0x5
 1054 01f4 71       		.byte	0x71
 1055 01f5 EB030000 		.4byte	0x3eb
 1056 01f9 98       		.byte	0x98
 1057 01fa 0A       		.uleb128 0xa
 1058 01fb C0010000 		.4byte	.LASF41
 1059 01ff 05       		.byte	0x5
 1060 0200 72       		.byte	0x72
 1061 0201 EB030000 		.4byte	0x3eb
 1062 0205 9E       		.byte	0x9e
 1063 0206 0A       		.uleb128 0xa
 1064 0207 3C080000 		.4byte	.LASF42
 1065 020b 05       		.byte	0x5
 1066 020c 73       		.byte	0x73
 1067 020d EB030000 		.4byte	0x3eb
 1068 0211 A4       		.byte	0xa4
 1069 0212 0A       		.uleb128 0xa
 1070 0213 20040000 		.4byte	.LASF43
 1071 0217 05       		.byte	0x5
 1072 0218 74       		.byte	0x74
 1073 0219 EB030000 		.4byte	0x3eb
 1074 021d AA       		.byte	0xaa
 1075 021e 0A       		.uleb128 0xa
 1076 021f CC040000 		.4byte	.LASF44
 1077 0223 05       		.byte	0x5
 1078 0224 75       		.byte	0x75
 1079 0225 FB030000 		.4byte	0x3fb
 1080 0229 B0       		.byte	0xb0
 1081 022a 0A       		.uleb128 0xa
 1082 022b 71010000 		.4byte	.LASF45
 1083 022f 05       		.byte	0x5
 1084 0230 76       		.byte	0x76
 1085 0231 FB030000 		.4byte	0x3fb
ARM GAS  C:\Users\RECEPC~1\AppData\Local\Temp\ccTEGtgN.s 			page 26


 1086 0235 BE       		.byte	0xbe
 1087 0236 0A       		.uleb128 0xa
 1088 0237 F3030000 		.4byte	.LASF46
 1089 023b 05       		.byte	0x5
 1090 023c 77       		.byte	0x77
 1091 023d FB030000 		.4byte	0x3fb
 1092 0241 CC       		.byte	0xcc
 1093 0242 0A       		.uleb128 0xa
 1094 0243 77030000 		.4byte	.LASF47
 1095 0247 05       		.byte	0x5
 1096 0248 78       		.byte	0x78
 1097 0249 FB030000 		.4byte	0x3fb
 1098 024d DA       		.byte	0xda
 1099 024e 0A       		.uleb128 0xa
 1100 024f BE050000 		.4byte	.LASF48
 1101 0253 05       		.byte	0x5
 1102 0254 79       		.byte	0x79
 1103 0255 FB030000 		.4byte	0x3fb
 1104 0259 E8       		.byte	0xe8
 1105 025a 0A       		.uleb128 0xa
 1106 025b A6040000 		.4byte	.LASF49
 1107 025f 05       		.byte	0x5
 1108 0260 7A       		.byte	0x7a
 1109 0261 FB030000 		.4byte	0x3fb
 1110 0265 F6       		.byte	0xf6
 1111 0266 0B       		.uleb128 0xb
 1112 0267 04050000 		.4byte	.LASF50
 1113 026b 05       		.byte	0x5
 1114 026c 7B       		.byte	0x7b
 1115 026d 0B040000 		.4byte	0x40b
 1116 0271 0401     		.2byte	0x104
 1117 0273 0B       		.uleb128 0xb
 1118 0274 F2010000 		.4byte	.LASF51
 1119 0278 05       		.byte	0x5
 1120 0279 7C       		.byte	0x7c
 1121 027a 0B040000 		.4byte	0x40b
 1122 027e 0F01     		.2byte	0x10f
 1123 0280 0B       		.uleb128 0xb
 1124 0281 85020000 		.4byte	.LASF52
 1125 0285 05       		.byte	0x5
 1126 0286 7D       		.byte	0x7d
 1127 0287 0B040000 		.4byte	0x40b
 1128 028b 1A01     		.2byte	0x11a
 1129 028d 0B       		.uleb128 0xb
 1130 028e 48040000 		.4byte	.LASF53
 1131 0292 05       		.byte	0x5
 1132 0293 7E       		.byte	0x7e
 1133 0294 97000000 		.4byte	0x97
 1134 0298 2501     		.2byte	0x125
 1135 029a 0B       		.uleb128 0xb
 1136 029b 50030000 		.4byte	.LASF54
 1137 029f 05       		.byte	0x5
 1138 02a0 7F       		.byte	0x7f
 1139 02a1 97000000 		.4byte	0x97
 1140 02a5 2601     		.2byte	0x126
 1141 02a7 0B       		.uleb128 0xb
 1142 02a8 81000000 		.4byte	.LASF55
ARM GAS  C:\Users\RECEPC~1\AppData\Local\Temp\ccTEGtgN.s 			page 27


 1143 02ac 05       		.byte	0x5
 1144 02ad 80       		.byte	0x80
 1145 02ae 97000000 		.4byte	0x97
 1146 02b2 2701     		.2byte	0x127
 1147 02b4 0B       		.uleb128 0xb
 1148 02b5 4D050000 		.4byte	.LASF56
 1149 02b9 05       		.byte	0x5
 1150 02ba 81       		.byte	0x81
 1151 02bb 97000000 		.4byte	0x97
 1152 02bf 2801     		.2byte	0x128
 1153 02c1 0B       		.uleb128 0xb
 1154 02c2 21000000 		.4byte	.LASF57
 1155 02c6 05       		.byte	0x5
 1156 02c7 82       		.byte	0x82
 1157 02c8 1B040000 		.4byte	0x41b
 1158 02cc 2901     		.2byte	0x129
 1159 02ce 0B       		.uleb128 0xb
 1160 02cf 87030000 		.4byte	.LASF58
 1161 02d3 05       		.byte	0x5
 1162 02d4 83       		.byte	0x83
 1163 02d5 95030000 		.4byte	0x395
 1164 02d9 6A01     		.2byte	0x16a
 1165 02db 0B       		.uleb128 0xb
 1166 02dc FB000000 		.4byte	.LASF59
 1167 02e0 05       		.byte	0x5
 1168 02e1 84       		.byte	0x84
 1169 02e2 95030000 		.4byte	0x395
 1170 02e6 7401     		.2byte	0x174
 1171 02e8 0B       		.uleb128 0xb
 1172 02e9 6E030000 		.4byte	.LASF60
 1173 02ed 05       		.byte	0x5
 1174 02ee 85       		.byte	0x85
 1175 02ef 95030000 		.4byte	0x395
 1176 02f3 7E01     		.2byte	0x17e
 1177 02f5 0B       		.uleb128 0xb
 1178 02f6 5A020000 		.4byte	.LASF61
 1179 02fa 05       		.byte	0x5
 1180 02fb 86       		.byte	0x86
 1181 02fc 2B040000 		.4byte	0x42b
 1182 0300 8801     		.2byte	0x188
 1183 0302 0B       		.uleb128 0xb
 1184 0303 69000000 		.4byte	.LASF62
 1185 0307 05       		.byte	0x5
 1186 0308 87       		.byte	0x87
 1187 0309 2B040000 		.4byte	0x42b
 1188 030d D301     		.2byte	0x1d3
 1189 030f 0B       		.uleb128 0xb
 1190 0310 CA000000 		.4byte	.LASF63
 1191 0314 05       		.byte	0x5
 1192 0315 88       		.byte	0x88
 1193 0316 41040000 		.4byte	0x441
 1194 031a 1E02     		.2byte	0x21e
 1195 031c 0B       		.uleb128 0xb
 1196 031d 57060000 		.4byte	.LASF64
 1197 0321 05       		.byte	0x5
 1198 0322 89       		.byte	0x89
 1199 0323 41040000 		.4byte	0x441
ARM GAS  C:\Users\RECEPC~1\AppData\Local\Temp\ccTEGtgN.s 			page 28


 1200 0327 2D02     		.2byte	0x22d
 1201 0329 0B       		.uleb128 0xb
 1202 032a 37070000 		.4byte	.LASF65
 1203 032e 05       		.byte	0x5
 1204 032f 8A       		.byte	0x8a
 1205 0330 57040000 		.4byte	0x457
 1206 0334 3C02     		.2byte	0x23c
 1207 0336 0B       		.uleb128 0xb
 1208 0337 C0070000 		.4byte	.LASF66
 1209 033b 05       		.byte	0x5
 1210 033c 8B       		.byte	0x8b
 1211 033d 57040000 		.4byte	0x457
 1212 0341 5A02     		.2byte	0x25a
 1213 0343 0B       		.uleb128 0xb
 1214 0344 14040000 		.4byte	.LASF67
 1215 0348 05       		.byte	0x5
 1216 0349 8C       		.byte	0x8c
 1217 034a 95030000 		.4byte	0x395
 1218 034e 7802     		.2byte	0x278
 1219 0350 0B       		.uleb128 0xb
 1220 0351 31060000 		.4byte	.LASF68
 1221 0355 05       		.byte	0x5
 1222 0356 8D       		.byte	0x8d
 1223 0357 97000000 		.4byte	0x97
 1224 035b 8202     		.2byte	0x282
 1225 035d 0B       		.uleb128 0xb
 1226 035e 10050000 		.4byte	.LASF69
 1227 0362 05       		.byte	0x5
 1228 0363 8E       		.byte	0x8e
 1229 0364 6D040000 		.4byte	0x46d
 1230 0368 8302     		.2byte	0x283
 1231 036a 0B       		.uleb128 0xb
 1232 036b 92030000 		.4byte	.LASF70
 1233 036f 05       		.byte	0x5
 1234 0370 8F       		.byte	0x8f
 1235 0371 B5030000 		.4byte	0x3b5
 1236 0375 9202     		.2byte	0x292
 1237 0377 0B       		.uleb128 0xb
 1238 0378 FE010000 		.4byte	.LASF71
 1239 037c 05       		.byte	0x5
 1240 037d 90       		.byte	0x90
 1241 037e 97000000 		.4byte	0x97
 1242 0382 9402     		.2byte	0x294
 1243 0384 00       		.byte	0
 1244 0385 07       		.uleb128 0x7
 1245 0386 97000000 		.4byte	0x97
 1246 038a 95030000 		.4byte	0x395
 1247 038e 08       		.uleb128 0x8
 1248 038f F2000000 		.4byte	0xf2
 1249 0393 18       		.byte	0x18
 1250 0394 00       		.byte	0
 1251 0395 07       		.uleb128 0x7
 1252 0396 97000000 		.4byte	0x97
 1253 039a A5030000 		.4byte	0x3a5
 1254 039e 08       		.uleb128 0x8
 1255 039f F2000000 		.4byte	0xf2
 1256 03a3 09       		.byte	0x9
ARM GAS  C:\Users\RECEPC~1\AppData\Local\Temp\ccTEGtgN.s 			page 29


 1257 03a4 00       		.byte	0
 1258 03a5 07       		.uleb128 0x7
 1259 03a6 97000000 		.4byte	0x97
 1260 03aa B5030000 		.4byte	0x3b5
 1261 03ae 08       		.uleb128 0x8
 1262 03af F2000000 		.4byte	0xf2
 1263 03b3 14       		.byte	0x14
 1264 03b4 00       		.byte	0
 1265 03b5 07       		.uleb128 0x7
 1266 03b6 97000000 		.4byte	0x97
 1267 03ba C5030000 		.4byte	0x3c5
 1268 03be 08       		.uleb128 0x8
 1269 03bf F2000000 		.4byte	0xf2
 1270 03c3 01       		.byte	0x1
 1271 03c4 00       		.byte	0
 1272 03c5 07       		.uleb128 0x7
 1273 03c6 97000000 		.4byte	0x97
 1274 03ca DB030000 		.4byte	0x3db
 1275 03ce 08       		.uleb128 0x8
 1276 03cf F2000000 		.4byte	0xf2
 1277 03d3 01       		.byte	0x1
 1278 03d4 08       		.uleb128 0x8
 1279 03d5 F2000000 		.4byte	0xf2
 1280 03d9 09       		.byte	0x9
 1281 03da 00       		.byte	0
 1282 03db 07       		.uleb128 0x7
 1283 03dc 97000000 		.4byte	0x97
 1284 03e0 EB030000 		.4byte	0x3eb
 1285 03e4 08       		.uleb128 0x8
 1286 03e5 F2000000 		.4byte	0xf2
 1287 03e9 04       		.byte	0x4
 1288 03ea 00       		.byte	0
 1289 03eb 07       		.uleb128 0x7
 1290 03ec 97000000 		.4byte	0x97
 1291 03f0 FB030000 		.4byte	0x3fb
 1292 03f4 08       		.uleb128 0x8
 1293 03f5 F2000000 		.4byte	0xf2
 1294 03f9 05       		.byte	0x5
 1295 03fa 00       		.byte	0
 1296 03fb 07       		.uleb128 0x7
 1297 03fc 97000000 		.4byte	0x97
 1298 0400 0B040000 		.4byte	0x40b
 1299 0404 08       		.uleb128 0x8
 1300 0405 F2000000 		.4byte	0xf2
 1301 0409 0D       		.byte	0xd
 1302 040a 00       		.byte	0
 1303 040b 07       		.uleb128 0x7
 1304 040c 97000000 		.4byte	0x97
 1305 0410 1B040000 		.4byte	0x41b
 1306 0414 08       		.uleb128 0x8
 1307 0415 F2000000 		.4byte	0xf2
 1308 0419 0A       		.byte	0xa
 1309 041a 00       		.byte	0
 1310 041b 07       		.uleb128 0x7
 1311 041c 97000000 		.4byte	0x97
 1312 0420 2B040000 		.4byte	0x42b
 1313 0424 08       		.uleb128 0x8
ARM GAS  C:\Users\RECEPC~1\AppData\Local\Temp\ccTEGtgN.s 			page 30


 1314 0425 F2000000 		.4byte	0xf2
 1315 0429 40       		.byte	0x40
 1316 042a 00       		.byte	0
 1317 042b 07       		.uleb128 0x7
 1318 042c 97000000 		.4byte	0x97
 1319 0430 41040000 		.4byte	0x441
 1320 0434 08       		.uleb128 0x8
 1321 0435 F2000000 		.4byte	0xf2
 1322 0439 02       		.byte	0x2
 1323 043a 08       		.uleb128 0x8
 1324 043b F2000000 		.4byte	0xf2
 1325 043f 18       		.byte	0x18
 1326 0440 00       		.byte	0
 1327 0441 07       		.uleb128 0x7
 1328 0442 97000000 		.4byte	0x97
 1329 0446 57040000 		.4byte	0x457
 1330 044a 08       		.uleb128 0x8
 1331 044b F2000000 		.4byte	0xf2
 1332 044f 02       		.byte	0x2
 1333 0450 08       		.uleb128 0x8
 1334 0451 F2000000 		.4byte	0xf2
 1335 0455 04       		.byte	0x4
 1336 0456 00       		.byte	0
 1337 0457 07       		.uleb128 0x7
 1338 0458 97000000 		.4byte	0x97
 1339 045c 6D040000 		.4byte	0x46d
 1340 0460 08       		.uleb128 0x8
 1341 0461 F2000000 		.4byte	0xf2
 1342 0465 02       		.byte	0x2
 1343 0466 08       		.uleb128 0x8
 1344 0467 F2000000 		.4byte	0xf2
 1345 046b 09       		.byte	0x9
 1346 046c 00       		.byte	0
 1347 046d 07       		.uleb128 0x7
 1348 046e 97000000 		.4byte	0x97
 1349 0472 7D040000 		.4byte	0x47d
 1350 0476 08       		.uleb128 0x8
 1351 0477 F2000000 		.4byte	0xf2
 1352 047b 0E       		.byte	0xe
 1353 047c 00       		.byte	0
 1354 047d 09       		.uleb128 0x9
 1355 047e 6C080000 		.4byte	.LASF73
 1356 0482 0201     		.2byte	0x102
 1357 0484 05       		.byte	0x5
 1358 0485 A1       		.byte	0xa1
 1359 0486 F9040000 		.4byte	0x4f9
 1360 048a 0C       		.uleb128 0xc
 1361 048b 64697200 		.ascii	"dir\000"
 1362 048f 05       		.byte	0x5
 1363 0490 A2       		.byte	0xa2
 1364 0491 97000000 		.4byte	0x97
 1365 0495 00       		.byte	0
 1366 0496 0A       		.uleb128 0xa
 1367 0497 67020000 		.4byte	.LASF74
 1368 049b 05       		.byte	0x5
 1369 049c A3       		.byte	0xa3
 1370 049d F9040000 		.4byte	0x4f9
ARM GAS  C:\Users\RECEPC~1\AppData\Local\Temp\ccTEGtgN.s 			page 31


 1371 04a1 01       		.byte	0x1
 1372 04a2 0A       		.uleb128 0xa
 1373 04a3 4B080000 		.4byte	.LASF75
 1374 04a7 05       		.byte	0x5
 1375 04a8 A4       		.byte	0xa4
 1376 04a9 15050000 		.4byte	0x515
 1377 04ad B5       		.byte	0xb5
 1378 04ae 0A       		.uleb128 0xa
 1379 04af A6030000 		.4byte	.LASF76
 1380 04b3 05       		.byte	0x5
 1381 04b4 A5       		.byte	0xa5
 1382 04b5 FB030000 		.4byte	0x3fb
 1383 04b9 D5       		.byte	0xd5
 1384 04ba 0A       		.uleb128 0xa
 1385 04bb DD070000 		.4byte	.LASF77
 1386 04bf 05       		.byte	0x5
 1387 04c0 A6       		.byte	0xa6
 1388 04c1 FB030000 		.4byte	0x3fb
 1389 04c5 E3       		.byte	0xe3
 1390 04c6 0A       		.uleb128 0xa
 1391 04c7 BE030000 		.4byte	.LASF78
 1392 04cb 05       		.byte	0x5
 1393 04cc A7       		.byte	0xa7
 1394 04cd FB030000 		.4byte	0x3fb
 1395 04d1 F1       		.byte	0xf1
 1396 04d2 0A       		.uleb128 0xa
 1397 04d3 11080000 		.4byte	.LASF79
 1398 04d7 05       		.byte	0x5
 1399 04d8 A8       		.byte	0xa8
 1400 04d9 97000000 		.4byte	0x97
 1401 04dd FF       		.byte	0xff
 1402 04de 0B       		.uleb128 0xb
 1403 04df 26060000 		.4byte	.LASF80
 1404 04e3 05       		.byte	0x5
 1405 04e4 A9       		.byte	0xa9
 1406 04e5 97000000 		.4byte	0x97
 1407 04e9 0001     		.2byte	0x100
 1408 04eb 0B       		.uleb128 0xb
 1409 04ec 4B010000 		.4byte	.LASF81
 1410 04f0 05       		.byte	0x5
 1411 04f1 AA       		.byte	0xaa
 1412 04f2 97000000 		.4byte	0x97
 1413 04f6 0101     		.2byte	0x101
 1414 04f8 00       		.byte	0
 1415 04f9 07       		.uleb128 0x7
 1416 04fa 97000000 		.4byte	0x97
 1417 04fe 15050000 		.4byte	0x515
 1418 0502 08       		.uleb128 0x8
 1419 0503 F2000000 		.4byte	0xf2
 1420 0507 03       		.byte	0x3
 1421 0508 08       		.uleb128 0x8
 1422 0509 F2000000 		.4byte	0xf2
 1423 050d 02       		.byte	0x2
 1424 050e 08       		.uleb128 0x8
 1425 050f F2000000 		.4byte	0xf2
 1426 0513 0E       		.byte	0xe
 1427 0514 00       		.byte	0
ARM GAS  C:\Users\RECEPC~1\AppData\Local\Temp\ccTEGtgN.s 			page 32


 1428 0515 07       		.uleb128 0x7
 1429 0516 97000000 		.4byte	0x97
 1430 051a 2B050000 		.4byte	0x52b
 1431 051e 08       		.uleb128 0x8
 1432 051f F2000000 		.4byte	0xf2
 1433 0523 03       		.byte	0x3
 1434 0524 08       		.uleb128 0x8
 1435 0525 F2000000 		.4byte	0xf2
 1436 0529 07       		.byte	0x7
 1437 052a 00       		.byte	0
 1438 052b 09       		.uleb128 0x9
 1439 052c 51070000 		.4byte	.LASF82
 1440 0530 0804     		.2byte	0x408
 1441 0532 05       		.byte	0x5
 1442 0533 AD       		.byte	0xad
 1443 0534 64050000 		.4byte	0x564
 1444 0538 0C       		.uleb128 0xc
 1445 0539 6100     		.ascii	"a\000"
 1446 053b 05       		.byte	0x5
 1447 053c AE       		.byte	0xae
 1448 053d 7D040000 		.4byte	0x47d
 1449 0541 00       		.byte	0
 1450 0542 0D       		.uleb128 0xd
 1451 0543 6200     		.ascii	"b\000"
 1452 0545 05       		.byte	0x5
 1453 0546 AF       		.byte	0xaf
 1454 0547 7D040000 		.4byte	0x47d
 1455 054b 0201     		.2byte	0x102
 1456 054d 0D       		.uleb128 0xd
 1457 054e 6300     		.ascii	"c\000"
 1458 0550 05       		.byte	0x5
 1459 0551 B0       		.byte	0xb0
 1460 0552 7D040000 		.4byte	0x47d
 1461 0556 0402     		.2byte	0x204
 1462 0558 0D       		.uleb128 0xd
 1463 0559 6400     		.ascii	"d\000"
 1464 055b 05       		.byte	0x5
 1465 055c B1       		.byte	0xb1
 1466 055d 7D040000 		.4byte	0x47d
 1467 0561 0603     		.2byte	0x306
 1468 0563 00       		.byte	0
 1469 0564 0E       		.uleb128 0xe
 1470 0565 68050000 		.4byte	.LASF86
 1471 0569 01       		.byte	0x1
 1472 056a 05       		.byte	0x5
 1473 056b B7       		.byte	0xb7
 1474 056c BE050000 		.4byte	0x5be
 1475 0570 0F       		.uleb128 0xf
 1476 0571 534F4D00 		.ascii	"SOM\000"
 1477 0575 FF01     		.sleb128 255
 1478 0577 0F       		.uleb128 0xf
 1479 0578 56505400 		.ascii	"VPT\000"
 1480 057c F101     		.sleb128 241
 1481 057e 0F       		.uleb128 0xf
 1482 057f 4D505400 		.ascii	"MPT\000"
 1483 0583 F201     		.sleb128 242
 1484 0585 0F       		.uleb128 0xf
ARM GAS  C:\Users\RECEPC~1\AppData\Local\Temp\ccTEGtgN.s 			page 33


 1485 0586 48446E00 		.ascii	"HDn\000"
 1486 058a F601     		.sleb128 246
 1487 058c 10       		.uleb128 0x10
 1488 058d 00000000 		.4byte	.LASF83
 1489 0591 F701     		.sleb128 247
 1490 0593 10       		.uleb128 0x10
 1491 0594 4B060000 		.4byte	.LASF84
 1492 0598 F801     		.sleb128 248
 1493 059a 0F       		.uleb128 0xf
 1494 059b 56446E00 		.ascii	"VDn\000"
 1495 059f F901     		.sleb128 249
 1496 05a1 0F       		.uleb128 0xf
 1497 05a2 4D446E00 		.ascii	"MDn\000"
 1498 05a6 FA01     		.sleb128 250
 1499 05a8 10       		.uleb128 0x10
 1500 05a9 2E030000 		.4byte	.LASF85
 1501 05ad FB01     		.sleb128 251
 1502 05af 0F       		.uleb128 0xf
 1503 05b0 53466E00 		.ascii	"SFn\000"
 1504 05b4 FE01     		.sleb128 254
 1505 05b6 0F       		.uleb128 0xf
 1506 05b7 454F4D00 		.ascii	"EOM\000"
 1507 05bb F001     		.sleb128 240
 1508 05bd 00       		.byte	0
 1509 05be 11       		.uleb128 0x11
 1510 05bf 8C010000 		.4byte	.LASF87
 1511 05c3 01       		.byte	0x1
 1512 05c4 05       		.byte	0x5
 1513 05c5 1201     		.2byte	0x112
 1514 05c7 FC050000 		.4byte	0x5fc
 1515 05cb 10       		.uleb128 0x10
 1516 05cc 90000000 		.4byte	.LASF88
 1517 05d0 00       		.sleb128 0
 1518 05d1 10       		.uleb128 0x10
 1519 05d2 14010000 		.4byte	.LASF89
 1520 05d6 06       		.sleb128 6
 1521 05d7 10       		.uleb128 0x10
 1522 05d8 3B040000 		.4byte	.LASF90
 1523 05dc 07       		.sleb128 7
 1524 05dd 10       		.uleb128 0x10
 1525 05de 76040000 		.4byte	.LASF91
 1526 05e2 08       		.sleb128 8
 1527 05e3 10       		.uleb128 0x10
 1528 05e4 99020000 		.4byte	.LASF92
 1529 05e8 09       		.sleb128 9
 1530 05e9 10       		.uleb128 0x10
 1531 05ea 56070000 		.4byte	.LASF93
 1532 05ee 0A       		.sleb128 10
 1533 05ef 10       		.uleb128 0x10
 1534 05f0 67010000 		.4byte	.LASF94
 1535 05f4 0B       		.sleb128 11
 1536 05f5 10       		.uleb128 0x10
 1537 05f6 D7020000 		.4byte	.LASF95
 1538 05fa 0C       		.sleb128 12
 1539 05fb 00       		.byte	0
 1540 05fc 12       		.uleb128 0x12
 1541 05fd 1D030000 		.4byte	.LASF96
ARM GAS  C:\Users\RECEPC~1\AppData\Local\Temp\ccTEGtgN.s 			page 34


 1542 0601 01       		.byte	0x1
 1543 0602 39       		.byte	0x39
 1544 0603 97000000 		.4byte	0x97
 1545 0607 00000000 		.4byte	.LFB63
 1546 060b 2E000000 		.4byte	.LFE63-.LFB63
 1547 060f 01       		.uleb128 0x1
 1548 0610 9C       		.byte	0x9c
 1549 0611 80060000 		.4byte	0x680
 1550 0615 13       		.uleb128 0x13
 1551 0616 706F7300 		.ascii	"pos\000"
 1552 061a 01       		.byte	0x1
 1553 061b 39       		.byte	0x39
 1554 061c 97000000 		.4byte	0x97
 1555 0620 00000000 		.4byte	.LLST0
 1556 0624 14       		.uleb128 0x14
 1557 0625 AF070000 		.4byte	.LASF98
 1558 0629 01       		.byte	0x1
 1559 062a 3A       		.byte	0x3a
 1560 062b 97000000 		.4byte	0x97
 1561 062f 21000000 		.4byte	.LLST1
 1562 0633 15       		.uleb128 0x15
 1563 0634 08000000 		.4byte	.LVL1
 1564 0638 250E0000 		.4byte	0xe25
 1565 063c 16       		.uleb128 0x16
 1566 063d 0E000000 		.4byte	.LVL2
 1567 0641 2C0E0000 		.4byte	0xe2c
 1568 0645 50060000 		.4byte	0x650
 1569 0649 17       		.uleb128 0x17
 1570 064a 01       		.uleb128 0x1
 1571 064b 50       		.byte	0x50
 1572 064c 02       		.uleb128 0x2
 1573 064d 74       		.byte	0x74
 1574 064e 00       		.sleb128 0
 1575 064f 00       		.byte	0
 1576 0650 16       		.uleb128 0x16
 1577 0651 14000000 		.4byte	.LVL3
 1578 0655 3D0E0000 		.4byte	0xe3d
 1579 0659 64060000 		.4byte	0x664
 1580 065d 17       		.uleb128 0x17
 1581 065e 01       		.uleb128 0x1
 1582 065f 50       		.byte	0x50
 1583 0660 02       		.uleb128 0x2
 1584 0661 08       		.byte	0x8
 1585 0662 3C       		.byte	0x3c
 1586 0663 00       		.byte	0
 1587 0664 15       		.uleb128 0x15
 1588 0665 18000000 		.4byte	.LVL4
 1589 0669 4E0E0000 		.4byte	0xe4e
 1590 066d 15       		.uleb128 0x15
 1591 066e 1E000000 		.4byte	.LVL5
 1592 0672 590E0000 		.4byte	0xe59
 1593 0676 15       		.uleb128 0x15
 1594 0677 26000000 		.4byte	.LVL7
 1595 067b 250E0000 		.4byte	0xe25
 1596 067f 00       		.byte	0
 1597 0680 12       		.uleb128 0x12
 1598 0681 B0000000 		.4byte	.LASF97
ARM GAS  C:\Users\RECEPC~1\AppData\Local\Temp\ccTEGtgN.s 			page 35


 1599 0685 01       		.byte	0x1
 1600 0686 59       		.byte	0x59
 1601 0687 97000000 		.4byte	0x97
 1602 068b 00000000 		.4byte	.LFB64
 1603 068f 20010000 		.4byte	.LFE64-.LFB64
 1604 0693 01       		.uleb128 0x1
 1605 0694 9C       		.byte	0x9c
 1606 0695 17070000 		.4byte	0x717
 1607 0699 18       		.uleb128 0x18
 1608 069a 7800     		.ascii	"x\000"
 1609 069c 01       		.byte	0x1
 1610 069d 5A       		.byte	0x5a
 1611 069e 97000000 		.4byte	0x97
 1612 06a2 34000000 		.4byte	.LLST2
 1613 06a6 16       		.uleb128 0x16
 1614 06a7 1E000000 		.4byte	.LVL11
 1615 06ab 2C0E0000 		.4byte	0xe2c
 1616 06af BA060000 		.4byte	0x6ba
 1617 06b3 17       		.uleb128 0x17
 1618 06b4 01       		.uleb128 0x1
 1619 06b5 50       		.byte	0x50
 1620 06b6 02       		.uleb128 0x2
 1621 06b7 74       		.byte	0x74
 1622 06b8 00       		.sleb128 0
 1623 06b9 00       		.byte	0
 1624 06ba 16       		.uleb128 0x16
 1625 06bb 24000000 		.4byte	.LVL12
 1626 06bf 3D0E0000 		.4byte	0xe3d
 1627 06c3 CE060000 		.4byte	0x6ce
 1628 06c7 17       		.uleb128 0x17
 1629 06c8 01       		.uleb128 0x1
 1630 06c9 50       		.byte	0x50
 1631 06ca 02       		.uleb128 0x2
 1632 06cb 08       		.byte	0x8
 1633 06cc 64       		.byte	0x64
 1634 06cd 00       		.byte	0
 1635 06ce 15       		.uleb128 0x15
 1636 06cf 28000000 		.4byte	.LVL13
 1637 06d3 4E0E0000 		.4byte	0xe4e
 1638 06d7 15       		.uleb128 0x15
 1639 06d8 3A000000 		.4byte	.LVL14
 1640 06dc 250E0000 		.4byte	0xe25
 1641 06e0 15       		.uleb128 0x15
 1642 06e1 3E000000 		.4byte	.LVL15
 1643 06e5 4E0E0000 		.4byte	0xe4e
 1644 06e9 15       		.uleb128 0x15
 1645 06ea 5C000000 		.4byte	.LVL16
 1646 06ee 250E0000 		.4byte	0xe25
 1647 06f2 15       		.uleb128 0x15
 1648 06f3 60000000 		.4byte	.LVL17
 1649 06f7 4E0E0000 		.4byte	0xe4e
 1650 06fb 15       		.uleb128 0x15
 1651 06fc 88000000 		.4byte	.LVL18
 1652 0700 250E0000 		.4byte	0xe25
 1653 0704 15       		.uleb128 0x15
 1654 0705 8C000000 		.4byte	.LVL19
 1655 0709 4E0E0000 		.4byte	0xe4e
ARM GAS  C:\Users\RECEPC~1\AppData\Local\Temp\ccTEGtgN.s 			page 36


 1656 070d 15       		.uleb128 0x15
 1657 070e BE000000 		.4byte	.LVL20
 1658 0712 250E0000 		.4byte	0xe25
 1659 0716 00       		.byte	0
 1660 0717 19       		.uleb128 0x19
 1661 0718 93040000 		.4byte	.LASF166
 1662 071c 01       		.byte	0x1
 1663 071d E6       		.byte	0xe6
 1664 071e 4F070000 		.4byte	0x74f
 1665 0722 00000000 		.4byte	.LFB67
 1666 0726 14000000 		.4byte	.LFE67-.LFB67
 1667 072a 01       		.uleb128 0x1
 1668 072b 9C       		.byte	0x9c
 1669 072c 4F070000 		.4byte	0x74f
 1670 0730 1A       		.uleb128 0x1a
 1671 0731 AF070000 		.4byte	.LASF98
 1672 0735 01       		.byte	0x1
 1673 0736 E6       		.byte	0xe6
 1674 0737 73000000 		.4byte	0x73
 1675 073b 5E000000 		.4byte	.LLST3
 1676 073f 14       		.uleb128 0x14
 1677 0740 9F010000 		.4byte	.LASF99
 1678 0744 01       		.byte	0x1
 1679 0745 E8       		.byte	0xe8
 1680 0746 4F070000 		.4byte	0x74f
 1681 074a 98000000 		.4byte	.LLST4
 1682 074e 00       		.byte	0
 1683 074f 02       		.uleb128 0x2
 1684 0750 01       		.byte	0x1
 1685 0751 02       		.byte	0x2
 1686 0752 19020000 		.4byte	.LASF100
 1687 0756 12       		.uleb128 0x12
 1688 0757 50060000 		.4byte	.LASF101
 1689 075b 01       		.byte	0x1
 1690 075c FB       		.byte	0xfb
 1691 075d 81000000 		.4byte	0x81
 1692 0761 00000000 		.4byte	.LFB68
 1693 0765 26000000 		.4byte	.LFE68-.LFB68
 1694 0769 01       		.uleb128 0x1
 1695 076a 9C       		.byte	0x9c
 1696 076b 8E070000 		.4byte	0x78e
 1697 076f 1A       		.uleb128 0x1a
 1698 0770 33080000 		.4byte	.LASF102
 1699 0774 01       		.byte	0x1
 1700 0775 FB       		.byte	0xfb
 1701 0776 8E070000 		.4byte	0x78e
 1702 077a B7000000 		.4byte	.LLST5
 1703 077e 18       		.uleb128 0x18
 1704 077f 6C726300 		.ascii	"lrc\000"
 1705 0783 01       		.byte	0x1
 1706 0784 FD       		.byte	0xfd
 1707 0785 81000000 		.4byte	0x81
 1708 0789 D5000000 		.4byte	.LLST6
 1709 078d 00       		.byte	0
 1710 078e 1B       		.uleb128 0x1b
 1711 078f 04       		.byte	0x4
 1712 0790 D5000000 		.4byte	0xd5
ARM GAS  C:\Users\RECEPC~1\AppData\Local\Temp\ccTEGtgN.s 			page 37


 1713 0794 12       		.uleb128 0x12
 1714 0795 55040000 		.4byte	.LASF103
 1715 0799 01       		.byte	0x1
 1716 079a 87       		.byte	0x87
 1717 079b 97000000 		.4byte	0x97
 1718 079f 00000000 		.4byte	.LFB65
 1719 07a3 00010000 		.4byte	.LFE65-.LFB65
 1720 07a7 01       		.uleb128 0x1
 1721 07a8 9C       		.byte	0x9c
 1722 07a9 BA080000 		.4byte	0x8ba
 1723 07ad 1A       		.uleb128 0x1a
 1724 07ae D8010000 		.4byte	.LASF104
 1725 07b2 01       		.byte	0x1
 1726 07b3 87       		.byte	0x87
 1727 07b4 97000000 		.4byte	0x97
 1728 07b8 1D010000 		.4byte	.LLST7
 1729 07bc 14       		.uleb128 0x14
 1730 07bd AF070000 		.4byte	.LASF98
 1731 07c1 01       		.byte	0x1
 1732 07c2 88       		.byte	0x88
 1733 07c3 97000000 		.4byte	0x97
 1734 07c7 3E010000 		.4byte	.LLST8
 1735 07cb 18       		.uleb128 0x18
 1736 07cc 7800     		.ascii	"x\000"
 1737 07ce 01       		.byte	0x1
 1738 07cf 88       		.byte	0x88
 1739 07d0 97000000 		.4byte	0x97
 1740 07d4 5C010000 		.4byte	.LLST9
 1741 07d8 1C       		.uleb128 0x1c
 1742 07d9 24010000 		.4byte	.LASF105
 1743 07dd 01       		.byte	0x1
 1744 07de 89       		.byte	0x89
 1745 07df BA080000 		.4byte	0x8ba
 1746 07e3 02       		.uleb128 0x2
 1747 07e4 91       		.byte	0x91
 1748 07e5 5C       		.sleb128 -36
 1749 07e6 14       		.uleb128 0x14
 1750 07e7 D9000000 		.4byte	.LASF106
 1751 07eb 01       		.byte	0x1
 1752 07ec 8A       		.byte	0x8a
 1753 07ed D5000000 		.4byte	0xd5
 1754 07f1 A8010000 		.4byte	.LLST10
 1755 07f5 14       		.uleb128 0x14
 1756 07f6 0A030000 		.4byte	.LASF107
 1757 07fa 01       		.byte	0x1
 1758 07fb 8C       		.byte	0x8c
 1759 07fc 97000000 		.4byte	0x97
 1760 0800 DE010000 		.4byte	.LLST11
 1761 0804 1D       		.uleb128 0x1d
 1762 0805 DD080000 		.4byte	0x8dd
 1763 0809 FD010000 		.4byte	.LLST12
 1764 080d 14       		.uleb128 0x14
 1765 080e 33000000 		.4byte	.LASF72
 1766 0812 01       		.byte	0x1
 1767 0813 A5       		.byte	0xa5
 1768 0814 CA080000 		.4byte	0x8ca
 1769 0818 17020000 		.4byte	.LLST13
ARM GAS  C:\Users\RECEPC~1\AppData\Local\Temp\ccTEGtgN.s 			page 38


 1770 081c 16       		.uleb128 0x16
 1771 081d 0C000000 		.4byte	.LVL41
 1772 0821 FC050000 		.4byte	0x5fc
 1773 0825 30080000 		.4byte	0x830
 1774 0829 17       		.uleb128 0x17
 1775 082a 01       		.uleb128 0x1
 1776 082b 50       		.byte	0x50
 1777 082c 02       		.uleb128 0x2
 1778 082d 74       		.byte	0x74
 1779 082e 00       		.sleb128 0
 1780 082f 00       		.byte	0
 1781 0830 16       		.uleb128 0x16
 1782 0831 18000000 		.4byte	.LVL43
 1783 0835 2C0E0000 		.4byte	0xe2c
 1784 0839 47080000 		.4byte	0x847
 1785 083d 17       		.uleb128 0x17
 1786 083e 01       		.uleb128 0x1
 1787 083f 50       		.byte	0x50
 1788 0840 05       		.uleb128 0x5
 1789 0841 74       		.byte	0x74
 1790 0842 00       		.sleb128 0
 1791 0843 08       		.byte	0x8
 1792 0844 20       		.byte	0x20
 1793 0845 21       		.byte	0x21
 1794 0846 00       		.byte	0
 1795 0847 16       		.uleb128 0x16
 1796 0848 1E000000 		.4byte	.LVL44
 1797 084c 3D0E0000 		.4byte	0xe3d
 1798 0850 5B080000 		.4byte	0x85b
 1799 0854 17       		.uleb128 0x17
 1800 0855 01       		.uleb128 0x1
 1801 0856 50       		.byte	0x50
 1802 0857 02       		.uleb128 0x2
 1803 0858 08       		.byte	0x8
 1804 0859 32       		.byte	0x32
 1805 085a 00       		.byte	0
 1806 085b 15       		.uleb128 0x15
 1807 085c 22000000 		.4byte	.LVL45
 1808 0860 590E0000 		.4byte	0xe59
 1809 0864 15       		.uleb128 0x15
 1810 0865 2C000000 		.4byte	.LVL49
 1811 0869 250E0000 		.4byte	0xe25
 1812 086d 16       		.uleb128 0x16
 1813 086e 54000000 		.4byte	.LVL50
 1814 0872 56070000 		.4byte	0x756
 1815 0876 81080000 		.4byte	0x881
 1816 087a 17       		.uleb128 0x17
 1817 087b 01       		.uleb128 0x1
 1818 087c 50       		.byte	0x50
 1819 087d 02       		.uleb128 0x2
 1820 087e 7D       		.byte	0x7d
 1821 087f 14       		.sleb128 20
 1822 0880 00       		.byte	0
 1823 0881 15       		.uleb128 0x15
 1824 0882 6C000000 		.4byte	.LVL53
 1825 0886 2C0E0000 		.4byte	0xe2c
 1826 088a 16       		.uleb128 0x16
ARM GAS  C:\Users\RECEPC~1\AppData\Local\Temp\ccTEGtgN.s 			page 39


 1827 088b 7A000000 		.4byte	.LVL56
 1828 088f 3D0E0000 		.4byte	0xe3d
 1829 0893 9E080000 		.4byte	0x89e
 1830 0897 17       		.uleb128 0x17
 1831 0898 01       		.uleb128 0x1
 1832 0899 50       		.byte	0x50
 1833 089a 02       		.uleb128 0x2
 1834 089b 08       		.byte	0x8
 1835 089c C8       		.byte	0xc8
 1836 089d 00       		.byte	0
 1837 089e 15       		.uleb128 0x15
 1838 089f 7E000000 		.4byte	.LVL57
 1839 08a3 4E0E0000 		.4byte	0xe4e
 1840 08a7 15       		.uleb128 0x15
 1841 08a8 94000000 		.4byte	.LVL61
 1842 08ac 590E0000 		.4byte	0xe59
 1843 08b0 15       		.uleb128 0x15
 1844 08b1 A2000000 		.4byte	.LVL64
 1845 08b5 250E0000 		.4byte	0xe25
 1846 08b9 00       		.byte	0
 1847 08ba 07       		.uleb128 0x7
 1848 08bb D5000000 		.4byte	0xd5
 1849 08bf CA080000 		.4byte	0x8ca
 1850 08c3 08       		.uleb128 0x8
 1851 08c4 F2000000 		.4byte	0xf2
 1852 08c8 08       		.byte	0x8
 1853 08c9 00       		.byte	0
 1854 08ca 07       		.uleb128 0x7
 1855 08cb D5000000 		.4byte	0xd5
 1856 08cf DD080000 		.4byte	0x8dd
 1857 08d3 1E       		.uleb128 0x1e
 1858 08d4 F2000000 		.4byte	0xf2
 1859 08d8 04080000 		.4byte	0x804
 1860 08dc 00       		.byte	0
 1861 08dd 1F       		.uleb128 0x1f
 1862 08de F2000000 		.4byte	0xf2
 1863 08e2 12       		.uleb128 0x12
 1864 08e3 A3020000 		.4byte	.LASF108
 1865 08e7 01       		.byte	0x1
 1866 08e8 B5       		.byte	0xb5
 1867 08e9 97000000 		.4byte	0x97
 1868 08ed 00000000 		.4byte	.LFB66
 1869 08f1 D4000000 		.4byte	.LFE66-.LFB66
 1870 08f5 01       		.uleb128 0x1
 1871 08f6 9C       		.byte	0x9c
 1872 08f7 1D0A0000 		.4byte	0xa1d
 1873 08fb 1A       		.uleb128 0x1a
 1874 08fc D8010000 		.4byte	.LASF104
 1875 0900 01       		.byte	0x1
 1876 0901 B5       		.byte	0xb5
 1877 0902 97000000 		.4byte	0x97
 1878 0906 2B020000 		.4byte	.LLST14
 1879 090a 14       		.uleb128 0x14
 1880 090b AF070000 		.4byte	.LASF98
 1881 090f 01       		.byte	0x1
 1882 0910 B6       		.byte	0xb6
 1883 0911 97000000 		.4byte	0x97
ARM GAS  C:\Users\RECEPC~1\AppData\Local\Temp\ccTEGtgN.s 			page 40


 1884 0915 4C020000 		.4byte	.LLST15
 1885 0919 18       		.uleb128 0x18
 1886 091a 7800     		.ascii	"x\000"
 1887 091c 01       		.byte	0x1
 1888 091d B6       		.byte	0xb6
 1889 091e 97000000 		.4byte	0x97
 1890 0922 5F020000 		.4byte	.LLST16
 1891 0926 1C       		.uleb128 0x1c
 1892 0927 24010000 		.4byte	.LASF105
 1893 092b 01       		.byte	0x1
 1894 092c B7       		.byte	0xb7
 1895 092d BA080000 		.4byte	0x8ba
 1896 0931 02       		.uleb128 0x2
 1897 0932 91       		.byte	0x91
 1898 0933 5C       		.sleb128 -36
 1899 0934 14       		.uleb128 0x14
 1900 0935 D9000000 		.4byte	.LASF106
 1901 0939 01       		.byte	0x1
 1902 093a B8       		.byte	0xb8
 1903 093b D5000000 		.4byte	0xd5
 1904 093f AB020000 		.4byte	.LLST17
 1905 0943 14       		.uleb128 0x14
 1906 0944 0A030000 		.4byte	.LASF107
 1907 0948 01       		.byte	0x1
 1908 0949 BA       		.byte	0xba
 1909 094a 97000000 		.4byte	0x97
 1910 094e E1020000 		.4byte	.LLST18
 1911 0952 1D       		.uleb128 0x1d
 1912 0953 300A0000 		.4byte	0xa30
 1913 0957 00030000 		.4byte	.LLST19
 1914 095b 14       		.uleb128 0x14
 1915 095c 33000000 		.4byte	.LASF72
 1916 0960 01       		.byte	0x1
 1917 0961 D8       		.byte	0xd8
 1918 0962 1D0A0000 		.4byte	0xa1d
 1919 0966 1A030000 		.4byte	.LLST20
 1920 096a 16       		.uleb128 0x16
 1921 096b 0C000000 		.4byte	.LVL68
 1922 096f FC050000 		.4byte	0x5fc
 1923 0973 7E090000 		.4byte	0x97e
 1924 0977 17       		.uleb128 0x17
 1925 0978 01       		.uleb128 0x1
 1926 0979 50       		.byte	0x50
 1927 097a 02       		.uleb128 0x2
 1928 097b 74       		.byte	0x74
 1929 097c 00       		.sleb128 0
 1930 097d 00       		.byte	0
 1931 097e 16       		.uleb128 0x16
 1932 097f 1C000000 		.4byte	.LVL70
 1933 0983 2C0E0000 		.4byte	0xe2c
 1934 0987 95090000 		.4byte	0x995
 1935 098b 17       		.uleb128 0x17
 1936 098c 01       		.uleb128 0x1
 1937 098d 50       		.byte	0x50
 1938 098e 05       		.uleb128 0x5
 1939 098f 74       		.byte	0x74
 1940 0990 00       		.sleb128 0
ARM GAS  C:\Users\RECEPC~1\AppData\Local\Temp\ccTEGtgN.s 			page 41


 1941 0991 08       		.byte	0x8
 1942 0992 20       		.byte	0x20
 1943 0993 21       		.byte	0x21
 1944 0994 00       		.byte	0
 1945 0995 16       		.uleb128 0x16
 1946 0996 22000000 		.4byte	.LVL71
 1947 099a 3D0E0000 		.4byte	0xe3d
 1948 099e A9090000 		.4byte	0x9a9
 1949 09a2 17       		.uleb128 0x17
 1950 09a3 01       		.uleb128 0x1
 1951 09a4 50       		.byte	0x50
 1952 09a5 02       		.uleb128 0x2
 1953 09a6 08       		.byte	0x8
 1954 09a7 32       		.byte	0x32
 1955 09a8 00       		.byte	0
 1956 09a9 15       		.uleb128 0x15
 1957 09aa 26000000 		.4byte	.LVL72
 1958 09ae 590E0000 		.4byte	0xe59
 1959 09b2 15       		.uleb128 0x15
 1960 09b3 30000000 		.4byte	.LVL76
 1961 09b7 250E0000 		.4byte	0xe25
 1962 09bb 16       		.uleb128 0x16
 1963 09bc 58000000 		.4byte	.LVL77
 1964 09c0 56070000 		.4byte	0x756
 1965 09c4 CF090000 		.4byte	0x9cf
 1966 09c8 17       		.uleb128 0x17
 1967 09c9 01       		.uleb128 0x1
 1968 09ca 50       		.byte	0x50
 1969 09cb 02       		.uleb128 0x2
 1970 09cc 7D       		.byte	0x7d
 1971 09cd 14       		.sleb128 20
 1972 09ce 00       		.byte	0
 1973 09cf 15       		.uleb128 0x15
 1974 09d0 70000000 		.4byte	.LVL80
 1975 09d4 2C0E0000 		.4byte	0xe2c
 1976 09d8 16       		.uleb128 0x16
 1977 09d9 86000000 		.4byte	.LVL83
 1978 09dd 3D0E0000 		.4byte	0xe3d
 1979 09e1 ED090000 		.4byte	0x9ed
 1980 09e5 17       		.uleb128 0x17
 1981 09e6 01       		.uleb128 0x1
 1982 09e7 50       		.byte	0x50
 1983 09e8 03       		.uleb128 0x3
 1984 09e9 0A       		.byte	0xa
 1985 09ea BC02     		.2byte	0x2bc
 1986 09ec 00       		.byte	0
 1987 09ed 16       		.uleb128 0x16
 1988 09ee 8E000000 		.4byte	.LVL84
 1989 09f2 3D0E0000 		.4byte	0xe3d
 1990 09f6 010A0000 		.4byte	0xa01
 1991 09fa 17       		.uleb128 0x17
 1992 09fb 01       		.uleb128 0x1
 1993 09fc 50       		.byte	0x50
 1994 09fd 02       		.uleb128 0x2
 1995 09fe 08       		.byte	0x8
 1996 09ff C8       		.byte	0xc8
 1997 0a00 00       		.byte	0
ARM GAS  C:\Users\RECEPC~1\AppData\Local\Temp\ccTEGtgN.s 			page 42


 1998 0a01 15       		.uleb128 0x15
 1999 0a02 92000000 		.4byte	.LVL85
 2000 0a06 4E0E0000 		.4byte	0xe4e
 2001 0a0a 15       		.uleb128 0x15
 2002 0a0b A8000000 		.4byte	.LVL89
 2003 0a0f 590E0000 		.4byte	0xe59
 2004 0a13 15       		.uleb128 0x15
 2005 0a14 B6000000 		.4byte	.LVL92
 2006 0a18 250E0000 		.4byte	0xe25
 2007 0a1c 00       		.byte	0
 2008 0a1d 07       		.uleb128 0x7
 2009 0a1e D5000000 		.4byte	0xd5
 2010 0a22 300A0000 		.4byte	0xa30
 2011 0a26 1E       		.uleb128 0x1e
 2012 0a27 F2000000 		.4byte	0xf2
 2013 0a2b 52090000 		.4byte	0x952
 2014 0a2f 00       		.byte	0
 2015 0a30 1F       		.uleb128 0x1f
 2016 0a31 F2000000 		.4byte	0xf2
 2017 0a35 20       		.uleb128 0x20
 2018 0a36 37050000 		.4byte	.LASF109
 2019 0a3a 06       		.byte	0x6
 2020 0a3b 5506     		.2byte	0x655
 2021 0a3d 410A0000 		.4byte	0xa41
 2022 0a41 06       		.uleb128 0x6
 2023 0a42 8C000000 		.4byte	0x8c
 2024 0a46 21       		.uleb128 0x21
 2025 0a47 C6030000 		.4byte	.LASF110
 2026 0a4b 05       		.byte	0x5
 2027 0a4c 2C       		.byte	0x2c
 2028 0a4d 570A0000 		.4byte	0xa57
 2029 0a51 05       		.uleb128 0x5
 2030 0a52 03       		.byte	0x3
 2031 0a53 00000000 		.4byte	countAnimation1
 2032 0a57 06       		.uleb128 0x6
 2033 0a58 C9000000 		.4byte	0xc9
 2034 0a5c 21       		.uleb128 0x21
 2035 0a5d 04040000 		.4byte	.LASF111
 2036 0a61 05       		.byte	0x5
 2037 0a62 2D       		.byte	0x2d
 2038 0a63 570A0000 		.4byte	0xa57
 2039 0a67 05       		.uleb128 0x5
 2040 0a68 03       		.byte	0x3
 2041 0a69 00000000 		.4byte	countAnimation2
 2042 0a6d 21       		.uleb128 0x21
 2043 0a6e FC020000 		.4byte	.LASF112
 2044 0a72 05       		.byte	0x5
 2045 0a73 2E       		.byte	0x2e
 2046 0a74 570A0000 		.4byte	0xa57
 2047 0a78 05       		.uleb128 0x5
 2048 0a79 03       		.byte	0x3
 2049 0a7a 00000000 		.4byte	countBeagleTX
 2050 0a7e 21       		.uleb128 0x21
 2051 0a7f 07080000 		.4byte	.LASF113
 2052 0a83 05       		.byte	0x5
 2053 0a84 2F       		.byte	0x2f
 2054 0a85 570A0000 		.4byte	0xa57
ARM GAS  C:\Users\RECEPC~1\AppData\Local\Temp\ccTEGtgN.s 			page 43


 2055 0a89 05       		.uleb128 0x5
 2056 0a8a 03       		.byte	0x3
 2057 0a8b 00000000 		.4byte	countPump
 2058 0a8f 21       		.uleb128 0x21
 2059 0a90 26020000 		.4byte	.LASF114
 2060 0a94 05       		.byte	0x5
 2061 0a95 30       		.byte	0x30
 2062 0a96 ED000000 		.4byte	0xed
 2063 0a9a 05       		.uleb128 0x5
 2064 0a9b 03       		.byte	0x3
 2065 0a9c 00000000 		.4byte	flowDisplay1
 2066 0aa0 21       		.uleb128 0x21
 2067 0aa1 33020000 		.4byte	.LASF115
 2068 0aa5 05       		.byte	0x5
 2069 0aa6 31       		.byte	0x31
 2070 0aa7 ED000000 		.4byte	0xed
 2071 0aab 05       		.uleb128 0x5
 2072 0aac 03       		.byte	0x3
 2073 0aad 00000000 		.4byte	flowDisplay2
 2074 0ab1 21       		.uleb128 0x21
 2075 0ab2 40020000 		.4byte	.LASF116
 2076 0ab6 05       		.byte	0x5
 2077 0ab7 32       		.byte	0x32
 2078 0ab8 ED000000 		.4byte	0xed
 2079 0abc 05       		.uleb128 0x5
 2080 0abd 03       		.byte	0x3
 2081 0abe 00000000 		.4byte	flowDisplay3
 2082 0ac2 21       		.uleb128 0x21
 2083 0ac3 4D020000 		.4byte	.LASF117
 2084 0ac7 05       		.byte	0x5
 2085 0ac8 33       		.byte	0x33
 2086 0ac9 ED000000 		.4byte	0xed
 2087 0acd 05       		.uleb128 0x5
 2088 0ace 03       		.byte	0x3
 2089 0acf 00000000 		.4byte	flowDisplay4
 2090 0ad3 21       		.uleb128 0x21
 2091 0ad4 85010000 		.4byte	.LASF118
 2092 0ad8 05       		.byte	0x5
 2093 0ad9 34       		.byte	0x34
 2094 0ada E8000000 		.4byte	0xe8
 2095 0ade 05       		.uleb128 0x5
 2096 0adf 03       		.byte	0x3
 2097 0ae0 00000000 		.4byte	digits
 2098 0ae4 07       		.uleb128 0x7
 2099 0ae5 97000000 		.4byte	0x97
 2100 0ae9 F40A0000 		.4byte	0xaf4
 2101 0aed 08       		.uleb128 0x8
 2102 0aee F2000000 		.4byte	0xf2
 2103 0af2 0B       		.byte	0xb
 2104 0af3 00       		.byte	0
 2105 0af4 21       		.uleb128 0x21
 2106 0af5 3A000000 		.4byte	.LASF119
 2107 0af9 05       		.byte	0x5
 2108 0afa 35       		.byte	0x35
 2109 0afb 050B0000 		.4byte	0xb05
 2110 0aff 05       		.uleb128 0x5
 2111 0b00 03       		.byte	0x3
ARM GAS  C:\Users\RECEPC~1\AppData\Local\Temp\ccTEGtgN.s 			page 44


 2112 0b01 00000000 		.4byte	ipAdress
 2113 0b05 06       		.uleb128 0x6
 2114 0b06 E40A0000 		.4byte	0xae4
 2115 0b0a 21       		.uleb128 0x21
 2116 0b0b E4020000 		.4byte	.LASF120
 2117 0b0f 05       		.byte	0x5
 2118 0b10 36       		.byte	0x36
 2119 0b11 E8000000 		.4byte	0xe8
 2120 0b15 05       		.uleb128 0x5
 2121 0b16 03       		.byte	0x3
 2122 0b17 00000000 		.4byte	numberKeys1
 2123 0b1b 21       		.uleb128 0x21
 2124 0b1c F0020000 		.4byte	.LASF121
 2125 0b20 05       		.byte	0x5
 2126 0b21 37       		.byte	0x37
 2127 0b22 E8000000 		.4byte	0xe8
 2128 0b26 05       		.uleb128 0x5
 2129 0b27 03       		.byte	0x3
 2130 0b28 00000000 		.4byte	numberKeys2
 2131 0b2c 21       		.uleb128 0x21
 2132 0b2d DF040000 		.4byte	.LASF122
 2133 0b31 05       		.byte	0x5
 2134 0b32 38       		.byte	0x38
 2135 0b33 E8000000 		.4byte	0xe8
 2136 0b37 05       		.uleb128 0x5
 2137 0b38 03       		.byte	0x3
 2138 0b39 00000000 		.4byte	flagPoint1
 2139 0b3d 21       		.uleb128 0x21
 2140 0b3e E9000000 		.4byte	.LASF123
 2141 0b42 05       		.byte	0x5
 2142 0b43 39       		.byte	0x39
 2143 0b44 E8000000 		.4byte	0xe8
 2144 0b48 05       		.uleb128 0x5
 2145 0b49 03       		.byte	0x3
 2146 0b4a 00000000 		.4byte	flagPoint2
 2147 0b4e 07       		.uleb128 0x7
 2148 0b4f 97000000 		.4byte	0x97
 2149 0b53 640B0000 		.4byte	0xb64
 2150 0b57 08       		.uleb128 0x8
 2151 0b58 F2000000 		.4byte	0xf2
 2152 0b5c 77       		.byte	0x77
 2153 0b5d 08       		.uleb128 0x8
 2154 0b5e F2000000 		.4byte	0xf2
 2155 0b62 07       		.byte	0x7
 2156 0b63 00       		.byte	0
 2157 0b64 21       		.uleb128 0x21
 2158 0b65 1F020000 		.4byte	.LASF124
 2159 0b69 05       		.byte	0x5
 2160 0b6a 3A       		.byte	0x3a
 2161 0b6b 750B0000 		.4byte	0xb75
 2162 0b6f 05       		.uleb128 0x5
 2163 0b70 03       		.byte	0x3
 2164 0b71 00000000 		.4byte	button
 2165 0b75 06       		.uleb128 0x6
 2166 0b76 4E0B0000 		.4byte	0xb4e
 2167 0b7a 21       		.uleb128 0x21
 2168 0b7b B2010000 		.4byte	.LASF125
ARM GAS  C:\Users\RECEPC~1\AppData\Local\Temp\ccTEGtgN.s 			page 45


 2169 0b7f 05       		.byte	0x5
 2170 0b80 3B       		.byte	0x3b
 2171 0b81 E8000000 		.4byte	0xe8
 2172 0b85 05       		.uleb128 0x5
 2173 0b86 03       		.byte	0x3
 2174 0b87 00000000 		.4byte	productNumber
 2175 0b8b 21       		.uleb128 0x21
 2176 0b8c 9B030000 		.4byte	.LASF126
 2177 0b90 05       		.byte	0x5
 2178 0b91 3C       		.byte	0x3c
 2179 0b92 57040000 		.4byte	0x457
 2180 0b96 05       		.uleb128 0x5
 2181 0b97 03       		.byte	0x3
 2182 0b98 00000000 		.4byte	presetFast
 2183 0b9c 21       		.uleb128 0x21
 2184 0b9d DF050000 		.4byte	.LASF127
 2185 0ba1 05       		.byte	0x5
 2186 0ba2 3D       		.byte	0x3d
 2187 0ba3 ED000000 		.4byte	0xed
 2188 0ba7 05       		.uleb128 0x5
 2189 0ba8 03       		.byte	0x3
 2190 0ba9 00000000 		.4byte	delayPicture1
 2191 0bad 21       		.uleb128 0x21
 2192 0bae ED050000 		.4byte	.LASF128
 2193 0bb2 05       		.byte	0x5
 2194 0bb3 3E       		.byte	0x3e
 2195 0bb4 ED000000 		.4byte	0xed
 2196 0bb8 05       		.uleb128 0x5
 2197 0bb9 03       		.byte	0x3
 2198 0bba 00000000 		.4byte	delayPicture2
 2199 0bbe 21       		.uleb128 0x21
 2200 0bbf C5040000 		.4byte	.LASF129
 2201 0bc3 05       		.byte	0x5
 2202 0bc4 3F       		.byte	0x3f
 2203 0bc5 E8000000 		.4byte	0xe8
 2204 0bc9 05       		.uleb128 0x5
 2205 0bca 03       		.byte	0x3
 2206 0bcb 00000000 		.4byte	ppux10
 2207 0bcf 21       		.uleb128 0x21
 2208 0bd0 43000000 		.4byte	.LASF130
 2209 0bd4 05       		.byte	0x5
 2210 0bd5 40       		.byte	0x40
 2211 0bd6 E8000000 		.4byte	0xe8
 2212 0bda 05       		.uleb128 0x5
 2213 0bdb 03       		.byte	0x3
 2214 0bdc 00000000 		.4byte	decimalMoney
 2215 0be0 21       		.uleb128 0x21
 2216 0be1 05000000 		.4byte	.LASF131
 2217 0be5 05       		.byte	0x5
 2218 0be6 41       		.byte	0x41
 2219 0be7 E8000000 		.4byte	0xe8
 2220 0beb 05       		.uleb128 0x5
 2221 0bec 03       		.byte	0x3
 2222 0bed 00000000 		.4byte	decimalVolume
 2223 0bf1 21       		.uleb128 0x21
 2224 0bf2 FC040000 		.4byte	.LASF132
 2225 0bf6 05       		.byte	0x5
ARM GAS  C:\Users\RECEPC~1\AppData\Local\Temp\ccTEGtgN.s 			page 46


 2226 0bf7 42       		.byte	0x42
 2227 0bf8 020C0000 		.4byte	0xc02
 2228 0bfc 05       		.uleb128 0x5
 2229 0bfd 03       		.byte	0x3
 2230 0bfe 00000000 		.4byte	symbols
 2231 0c02 06       		.uleb128 0x6
 2232 0c03 B5030000 		.4byte	0x3b5
 2233 0c07 07       		.uleb128 0x7
 2234 0c08 97000000 		.4byte	0x97
 2235 0c0c 170C0000 		.4byte	0xc17
 2236 0c10 08       		.uleb128 0x8
 2237 0c11 F2000000 		.4byte	0xf2
 2238 0c15 02       		.byte	0x2
 2239 0c16 00       		.byte	0
 2240 0c17 21       		.uleb128 0x21
 2241 0c18 9A010000 		.4byte	.LASF133
 2242 0c1c 05       		.byte	0x5
 2243 0c1d 43       		.byte	0x43
 2244 0c1e 280C0000 		.4byte	0xc28
 2245 0c22 05       		.uleb128 0x5
 2246 0c23 03       		.byte	0x3
 2247 0c24 00000000 		.4byte	time
 2248 0c28 06       		.uleb128 0x6
 2249 0c29 070C0000 		.4byte	0xc07
 2250 0c2d 21       		.uleb128 0x21
 2251 0c2e 33030000 		.4byte	.LASF134
 2252 0c32 05       		.byte	0x5
 2253 0c33 44       		.byte	0x44
 2254 0c34 3E0C0000 		.4byte	0xc3e
 2255 0c38 05       		.uleb128 0x5
 2256 0c39 03       		.byte	0x3
 2257 0c3a 00000000 		.4byte	date
 2258 0c3e 06       		.uleb128 0x6
 2259 0c3f 070C0000 		.4byte	0xc07
 2260 0c43 21       		.uleb128 0x21
 2261 0c44 F4000000 		.4byte	.LASF135
 2262 0c48 05       		.byte	0x5
 2263 0c49 45       		.byte	0x45
 2264 0c4a 540C0000 		.4byte	0xc54
 2265 0c4e 05       		.uleb128 0x5
 2266 0c4f 03       		.byte	0x3
 2267 0c50 00000000 		.4byte	screen
 2268 0c54 06       		.uleb128 0x6
 2269 0c55 B5030000 		.4byte	0x3b5
 2270 0c59 21       		.uleb128 0x21
 2271 0c5a 9A000000 		.4byte	.LASF136
 2272 0c5e 05       		.byte	0x5
 2273 0c5f 46       		.byte	0x46
 2274 0c60 6A0C0000 		.4byte	0xc6a
 2275 0c64 05       		.uleb128 0x5
 2276 0c65 03       		.byte	0x3
 2277 0c66 00000000 		.4byte	residue
 2278 0c6a 06       		.uleb128 0x6
 2279 0c6b FB030000 		.4byte	0x3fb
 2280 0c6f 07       		.uleb128 0x7
 2281 0c70 97000000 		.4byte	0x97
 2282 0c74 7F0C0000 		.4byte	0xc7f
ARM GAS  C:\Users\RECEPC~1\AppData\Local\Temp\ccTEGtgN.s 			page 47


 2283 0c78 08       		.uleb128 0x8
 2284 0c79 F2000000 		.4byte	0xf2
 2285 0c7d 1D       		.byte	0x1d
 2286 0c7e 00       		.byte	0
 2287 0c7f 21       		.uleb128 0x21
 2288 0c80 A6070000 		.4byte	.LASF137
 2289 0c84 05       		.byte	0x5
 2290 0c85 47       		.byte	0x47
 2291 0c86 6F0C0000 		.4byte	0xc6f
 2292 0c8a 05       		.uleb128 0x5
 2293 0c8b 03       		.byte	0x3
 2294 0c8c 00000000 		.4byte	temporal
 2295 0c90 21       		.uleb128 0x21
 2296 0c91 80020000 		.4byte	.LASF138
 2297 0c95 05       		.byte	0x5
 2298 0c96 48       		.byte	0x48
 2299 0c97 E8000000 		.4byte	0xe8
 2300 0c9b 05       		.uleb128 0x5
 2301 0c9c 03       		.byte	0x3
 2302 0c9d 00000000 		.4byte	turn
 2303 0ca1 21       		.uleb128 0x21
 2304 0ca2 44050000 		.4byte	.LASF139
 2305 0ca6 05       		.byte	0x5
 2306 0ca7 49       		.byte	0x49
 2307 0ca8 E8000000 		.4byte	0xe8
 2308 0cac 05       		.uleb128 0x5
 2309 0cad 03       		.byte	0x3
 2310 0cae 00000000 		.4byte	lockTurn
 2311 0cb2 21       		.uleb128 0x21
 2312 0cb3 48070000 		.4byte	.LASF140
 2313 0cb7 05       		.byte	0x5
 2314 0cb8 4A       		.byte	0x4a
 2315 0cb9 C30C0000 		.4byte	0xcc3
 2316 0cbd 05       		.uleb128 0x5
 2317 0cbe 03       		.byte	0x3
 2318 0cbf 00000000 		.4byte	idSeller
 2319 0cc3 06       		.uleb128 0x6
 2320 0cc4 85030000 		.4byte	0x385
 2321 0cc8 21       		.uleb128 0x21
 2322 0cc9 D0070000 		.4byte	.LASF141
 2323 0ccd 05       		.byte	0x5
 2324 0cce 4B       		.byte	0x4b
 2325 0ccf E8000000 		.4byte	0xe8
 2326 0cd3 05       		.uleb128 0x5
 2327 0cd4 03       		.byte	0x3
 2328 0cd5 00000000 		.4byte	typeIdSeller
 2329 0cd9 07       		.uleb128 0x7
 2330 0cda 97000000 		.4byte	0x97
 2331 0cde E90C0000 		.4byte	0xce9
 2332 0ce2 08       		.uleb128 0x8
 2333 0ce3 F2000000 		.4byte	0xf2
 2334 0ce7 07       		.byte	0x7
 2335 0ce8 00       		.byte	0
 2336 0ce9 21       		.uleb128 0x21
 2337 0cea AF050000 		.4byte	.LASF142
 2338 0cee 05       		.byte	0x5
 2339 0cef 4C       		.byte	0x4c
ARM GAS  C:\Users\RECEPC~1\AppData\Local\Temp\ccTEGtgN.s 			page 48


 2340 0cf0 FA0C0000 		.4byte	0xcfa
 2341 0cf4 05       		.uleb128 0x5
 2342 0cf5 03       		.byte	0x3
 2343 0cf6 00000000 		.4byte	passwordSeller
 2344 0cfa 06       		.uleb128 0x6
 2345 0cfb D90C0000 		.4byte	0xcd9
 2346 0cff 21       		.uleb128 0x21
 2347 0d00 86040000 		.4byte	.LASF143
 2348 0d04 05       		.byte	0x5
 2349 0d05 4D       		.byte	0x4d
 2350 0d06 E8000000 		.4byte	0xe8
 2351 0d0a 05       		.uleb128 0x5
 2352 0d0b 03       		.byte	0x3
 2353 0d0c 00000000 		.4byte	flagResetMux
 2354 0d10 21       		.uleb128 0x21
 2355 0d11 E3030000 		.4byte	.LASF144
 2356 0d15 05       		.byte	0x5
 2357 0d16 4E       		.byte	0x4e
 2358 0d17 E8000000 		.4byte	0xe8
 2359 0d1b 05       		.uleb128 0x5
 2360 0d1c 03       		.byte	0x3
 2361 0d1d 00000000 		.4byte	stateBeagleSoft
 2362 0d21 21       		.uleb128 0x21
 2363 0d22 13000000 		.4byte	.LASF145
 2364 0d26 05       		.byte	0x5
 2365 0d27 4F       		.byte	0x4f
 2366 0d28 320D0000 		.4byte	0xd32
 2367 0d2c 05       		.uleb128 0x5
 2368 0d2d 03       		.byte	0x3
 2369 0d2e 00000000 		.4byte	PrevStatePump
 2370 0d32 06       		.uleb128 0x6
 2371 0d33 F9000000 		.4byte	0xf9
 2372 0d37 21       		.uleb128 0x21
 2373 0d38 07010000 		.4byte	.LASF146
 2374 0d3c 05       		.byte	0x5
 2375 0d3d 50       		.byte	0x50
 2376 0d3e E8000000 		.4byte	0xe8
 2377 0d42 05       		.uleb128 0x5
 2378 0d43 03       		.byte	0x3
 2379 0d44 00000000 		.4byte	PlateRequest
 2380 0d48 21       		.uleb128 0x21
 2381 0d49 CF050000 		.4byte	.LASF147
 2382 0d4d 05       		.byte	0x5
 2383 0d4e 52       		.byte	0x52
 2384 0d4f 97000000 		.4byte	0x97
 2385 0d53 05       		.uleb128 0x5
 2386 0d54 03       		.byte	0x3
 2387 0d55 00000000 		.4byte	UnitType
 2388 0d59 21       		.uleb128 0x21
 2389 0d5a C6020000 		.4byte	.LASF148
 2390 0d5e 05       		.byte	0x5
 2391 0d5f 52       		.byte	0x52
 2392 0d60 97000000 		.4byte	0x97
 2393 0d64 05       		.uleb128 0x5
 2394 0d65 03       		.byte	0x3
 2395 0d66 00000000 		.4byte	ConversionFactor
 2396 0d6a 21       		.uleb128 0x21
ARM GAS  C:\Users\RECEPC~1\AppData\Local\Temp\ccTEGtgN.s 			page 49


 2397 0d6b 42010000 		.4byte	.LASF149
 2398 0d6f 05       		.byte	0x5
 2399 0d70 52       		.byte	0x52
 2400 0d71 97000000 		.4byte	0x97
 2401 0d75 05       		.uleb128 0x5
 2402 0d76 03       		.byte	0x3
 2403 0d77 00000000 		.4byte	MoneyDec
 2404 0d7b 21       		.uleb128 0x21
 2405 0d7c 30050000 		.4byte	.LASF150
 2406 0d80 05       		.byte	0x5
 2407 0d81 52       		.byte	0x52
 2408 0d82 97000000 		.4byte	0x97
 2409 0d86 05       		.uleb128 0x5
 2410 0d87 03       		.byte	0x3
 2411 0d88 00000000 		.4byte	VolDec
 2412 0d8c 21       		.uleb128 0x21
 2413 0d8d 1F060000 		.4byte	.LASF151
 2414 0d91 05       		.byte	0x5
 2415 0d92 52       		.byte	0x52
 2416 0d93 97000000 		.4byte	0x97
 2417 0d97 05       		.uleb128 0x5
 2418 0d98 03       		.byte	0x3
 2419 0d99 00000000 		.4byte	PPUDec
 2420 0d9d 21       		.uleb128 0x21
 2421 0d9e A9000000 		.4byte	.LASF152
 2422 0da2 05       		.byte	0x5
 2423 0da3 52       		.byte	0x52
 2424 0da4 97000000 		.4byte	0x97
 2425 0da8 05       		.uleb128 0x5
 2426 0da9 03       		.byte	0x3
 2427 0daa 00000000 		.4byte	DDMode
 2428 0dae 21       		.uleb128 0x21
 2429 0daf 29000000 		.4byte	.LASF153
 2430 0db3 05       		.byte	0x5
 2431 0db4 53       		.byte	0x53
 2432 0db5 F9000000 		.4byte	0xf9
 2433 0db9 05       		.uleb128 0x5
 2434 0dba 03       		.byte	0x3
 2435 0dbb 00000000 		.4byte	statePump
 2436 0dbf 21       		.uleb128 0x21
 2437 0dc0 D6030000 		.4byte	.LASF154
 2438 0dc4 05       		.byte	0x5
 2439 0dc5 54       		.byte	0x54
 2440 0dc6 97000000 		.4byte	0x97
 2441 0dca 05       		.uleb128 0x5
 2442 0dcb 03       		.byte	0x3
 2443 0dcc 00000000 		.4byte	NumPositions
 2444 0dd0 21       		.uleb128 0x21
 2445 0dd1 75080000 		.4byte	.LASF155
 2446 0dd5 05       		.byte	0x5
 2447 0dd6 93       		.byte	0x93
 2448 0dd7 09010000 		.4byte	0x109
 2449 0ddb 05       		.uleb128 0x5
 2450 0ddc 03       		.byte	0x3
 2451 0ddd 00000000 		.4byte	bufferDisplay1
 2452 0de1 21       		.uleb128 0x21
 2453 0de2 78050000 		.4byte	.LASF156
ARM GAS  C:\Users\RECEPC~1\AppData\Local\Temp\ccTEGtgN.s 			page 50


 2454 0de6 05       		.byte	0x5
 2455 0de7 94       		.byte	0x94
 2456 0de8 09010000 		.4byte	0x109
 2457 0dec 05       		.uleb128 0x5
 2458 0ded 03       		.byte	0x3
 2459 0dee 00000000 		.4byte	bufferDisplay2
 2460 0df2 21       		.uleb128 0x21
 2461 0df3 87050000 		.4byte	.LASF157
 2462 0df7 05       		.byte	0x5
 2463 0df8 95       		.byte	0x95
 2464 0df9 09010000 		.4byte	0x109
 2465 0dfd 05       		.uleb128 0x5
 2466 0dfe 03       		.byte	0x3
 2467 0dff 00000000 		.4byte	bufferDisplay3
 2468 0e03 21       		.uleb128 0x21
 2469 0e04 96050000 		.4byte	.LASF158
 2470 0e08 05       		.byte	0x5
 2471 0e09 96       		.byte	0x96
 2472 0e0a 09010000 		.4byte	0x109
 2473 0e0e 05       		.uleb128 0x5
 2474 0e0f 03       		.byte	0x3
 2475 0e10 00000000 		.4byte	bufferDisplay4
 2476 0e14 21       		.uleb128 0x21
 2477 0e15 D8010000 		.4byte	.LASF104
 2478 0e19 05       		.byte	0x5
 2479 0e1a B4       		.byte	0xb4
 2480 0e1b 2B050000 		.4byte	0x52b
 2481 0e1f 05       		.uleb128 0x5
 2482 0e20 03       		.byte	0x3
 2483 0e21 00000000 		.4byte	side
 2484 0e25 22       		.uleb128 0x22
 2485 0e26 2F010000 		.4byte	.LASF167
 2486 0e2a 07       		.byte	0x7
 2487 0e2b 75       		.byte	0x75
 2488 0e2c 23       		.uleb128 0x23
 2489 0e2d 8A060000 		.4byte	.LASF159
 2490 0e31 07       		.byte	0x7
 2491 0e32 8A       		.byte	0x8a
 2492 0e33 3D0E0000 		.4byte	0xe3d
 2493 0e37 24       		.uleb128 0x24
 2494 0e38 97000000 		.4byte	0x97
 2495 0e3c 00       		.byte	0
 2496 0e3d 23       		.uleb128 0x23
 2497 0e3e 15030000 		.4byte	.LASF160
 2498 0e42 08       		.byte	0x8
 2499 0e43 77       		.byte	0x77
 2500 0e44 4E0E0000 		.4byte	0xe4e
 2501 0e48 24       		.uleb128 0x24
 2502 0e49 AF000000 		.4byte	0xaf
 2503 0e4d 00       		.byte	0
 2504 0e4e 25       		.uleb128 0x25
 2505 0e4f DD010000 		.4byte	.LASF161
 2506 0e53 07       		.byte	0x7
 2507 0e54 73       		.byte	0x73
 2508 0e55 A3000000 		.4byte	0xa3
 2509 0e59 25       		.uleb128 0x25
 2510 0e5a 40030000 		.4byte	.LASF162
ARM GAS  C:\Users\RECEPC~1\AppData\Local\Temp\ccTEGtgN.s 			page 51


 2511 0e5e 07       		.byte	0x7
 2512 0e5f 6F       		.byte	0x6f
 2513 0e60 97000000 		.4byte	0x97
 2514 0e64 00       		.byte	0
 2515              		.section	.debug_abbrev,"",%progbits
 2516              	.Ldebug_abbrev0:
 2517 0000 01       		.uleb128 0x1
 2518 0001 11       		.uleb128 0x11
 2519 0002 01       		.byte	0x1
 2520 0003 25       		.uleb128 0x25
 2521 0004 0E       		.uleb128 0xe
 2522 0005 13       		.uleb128 0x13
 2523 0006 0B       		.uleb128 0xb
 2524 0007 03       		.uleb128 0x3
 2525 0008 0E       		.uleb128 0xe
 2526 0009 1B       		.uleb128 0x1b
 2527 000a 0E       		.uleb128 0xe
 2528 000b 55       		.uleb128 0x55
 2529 000c 17       		.uleb128 0x17
 2530 000d 11       		.uleb128 0x11
 2531 000e 01       		.uleb128 0x1
 2532 000f 10       		.uleb128 0x10
 2533 0010 17       		.uleb128 0x17
 2534 0011 00       		.byte	0
 2535 0012 00       		.byte	0
 2536 0013 02       		.uleb128 0x2
 2537 0014 24       		.uleb128 0x24
 2538 0015 00       		.byte	0
 2539 0016 0B       		.uleb128 0xb
 2540 0017 0B       		.uleb128 0xb
 2541 0018 3E       		.uleb128 0x3e
 2542 0019 0B       		.uleb128 0xb
 2543 001a 03       		.uleb128 0x3
 2544 001b 0E       		.uleb128 0xe
 2545 001c 00       		.byte	0
 2546 001d 00       		.byte	0
 2547 001e 03       		.uleb128 0x3
 2548 001f 16       		.uleb128 0x16
 2549 0020 00       		.byte	0
 2550 0021 03       		.uleb128 0x3
 2551 0022 0E       		.uleb128 0xe
 2552 0023 3A       		.uleb128 0x3a
 2553 0024 0B       		.uleb128 0xb
 2554 0025 3B       		.uleb128 0x3b
 2555 0026 0B       		.uleb128 0xb
 2556 0027 49       		.uleb128 0x49
 2557 0028 13       		.uleb128 0x13
 2558 0029 00       		.byte	0
 2559 002a 00       		.byte	0
 2560 002b 04       		.uleb128 0x4
 2561 002c 24       		.uleb128 0x24
 2562 002d 00       		.byte	0
 2563 002e 0B       		.uleb128 0xb
 2564 002f 0B       		.uleb128 0xb
 2565 0030 3E       		.uleb128 0x3e
 2566 0031 0B       		.uleb128 0xb
 2567 0032 03       		.uleb128 0x3
ARM GAS  C:\Users\RECEPC~1\AppData\Local\Temp\ccTEGtgN.s 			page 52


 2568 0033 08       		.uleb128 0x8
 2569 0034 00       		.byte	0
 2570 0035 00       		.byte	0
 2571 0036 05       		.uleb128 0x5
 2572 0037 16       		.uleb128 0x16
 2573 0038 00       		.byte	0
 2574 0039 03       		.uleb128 0x3
 2575 003a 0E       		.uleb128 0xe
 2576 003b 3A       		.uleb128 0x3a
 2577 003c 0B       		.uleb128 0xb
 2578 003d 3B       		.uleb128 0x3b
 2579 003e 05       		.uleb128 0x5
 2580 003f 49       		.uleb128 0x49
 2581 0040 13       		.uleb128 0x13
 2582 0041 00       		.byte	0
 2583 0042 00       		.byte	0
 2584 0043 06       		.uleb128 0x6
 2585 0044 35       		.uleb128 0x35
 2586 0045 00       		.byte	0
 2587 0046 49       		.uleb128 0x49
 2588 0047 13       		.uleb128 0x13
 2589 0048 00       		.byte	0
 2590 0049 00       		.byte	0
 2591 004a 07       		.uleb128 0x7
 2592 004b 01       		.uleb128 0x1
 2593 004c 01       		.byte	0x1
 2594 004d 49       		.uleb128 0x49
 2595 004e 13       		.uleb128 0x13
 2596 004f 01       		.uleb128 0x1
 2597 0050 13       		.uleb128 0x13
 2598 0051 00       		.byte	0
 2599 0052 00       		.byte	0
 2600 0053 08       		.uleb128 0x8
 2601 0054 21       		.uleb128 0x21
 2602 0055 00       		.byte	0
 2603 0056 49       		.uleb128 0x49
 2604 0057 13       		.uleb128 0x13
 2605 0058 2F       		.uleb128 0x2f
 2606 0059 0B       		.uleb128 0xb
 2607 005a 00       		.byte	0
 2608 005b 00       		.byte	0
 2609 005c 09       		.uleb128 0x9
 2610 005d 13       		.uleb128 0x13
 2611 005e 01       		.byte	0x1
 2612 005f 03       		.uleb128 0x3
 2613 0060 0E       		.uleb128 0xe
 2614 0061 0B       		.uleb128 0xb
 2615 0062 05       		.uleb128 0x5
 2616 0063 3A       		.uleb128 0x3a
 2617 0064 0B       		.uleb128 0xb
 2618 0065 3B       		.uleb128 0x3b
 2619 0066 0B       		.uleb128 0xb
 2620 0067 01       		.uleb128 0x1
 2621 0068 13       		.uleb128 0x13
 2622 0069 00       		.byte	0
 2623 006a 00       		.byte	0
 2624 006b 0A       		.uleb128 0xa
ARM GAS  C:\Users\RECEPC~1\AppData\Local\Temp\ccTEGtgN.s 			page 53


 2625 006c 0D       		.uleb128 0xd
 2626 006d 00       		.byte	0
 2627 006e 03       		.uleb128 0x3
 2628 006f 0E       		.uleb128 0xe
 2629 0070 3A       		.uleb128 0x3a
 2630 0071 0B       		.uleb128 0xb
 2631 0072 3B       		.uleb128 0x3b
 2632 0073 0B       		.uleb128 0xb
 2633 0074 49       		.uleb128 0x49
 2634 0075 13       		.uleb128 0x13
 2635 0076 38       		.uleb128 0x38
 2636 0077 0B       		.uleb128 0xb
 2637 0078 00       		.byte	0
 2638 0079 00       		.byte	0
 2639 007a 0B       		.uleb128 0xb
 2640 007b 0D       		.uleb128 0xd
 2641 007c 00       		.byte	0
 2642 007d 03       		.uleb128 0x3
 2643 007e 0E       		.uleb128 0xe
 2644 007f 3A       		.uleb128 0x3a
 2645 0080 0B       		.uleb128 0xb
 2646 0081 3B       		.uleb128 0x3b
 2647 0082 0B       		.uleb128 0xb
 2648 0083 49       		.uleb128 0x49
 2649 0084 13       		.uleb128 0x13
 2650 0085 38       		.uleb128 0x38
 2651 0086 05       		.uleb128 0x5
 2652 0087 00       		.byte	0
 2653 0088 00       		.byte	0
 2654 0089 0C       		.uleb128 0xc
 2655 008a 0D       		.uleb128 0xd
 2656 008b 00       		.byte	0
 2657 008c 03       		.uleb128 0x3
 2658 008d 08       		.uleb128 0x8
 2659 008e 3A       		.uleb128 0x3a
 2660 008f 0B       		.uleb128 0xb
 2661 0090 3B       		.uleb128 0x3b
 2662 0091 0B       		.uleb128 0xb
 2663 0092 49       		.uleb128 0x49
 2664 0093 13       		.uleb128 0x13
 2665 0094 38       		.uleb128 0x38
 2666 0095 0B       		.uleb128 0xb
 2667 0096 00       		.byte	0
 2668 0097 00       		.byte	0
 2669 0098 0D       		.uleb128 0xd
 2670 0099 0D       		.uleb128 0xd
 2671 009a 00       		.byte	0
 2672 009b 03       		.uleb128 0x3
 2673 009c 08       		.uleb128 0x8
 2674 009d 3A       		.uleb128 0x3a
 2675 009e 0B       		.uleb128 0xb
 2676 009f 3B       		.uleb128 0x3b
 2677 00a0 0B       		.uleb128 0xb
 2678 00a1 49       		.uleb128 0x49
 2679 00a2 13       		.uleb128 0x13
 2680 00a3 38       		.uleb128 0x38
 2681 00a4 05       		.uleb128 0x5
ARM GAS  C:\Users\RECEPC~1\AppData\Local\Temp\ccTEGtgN.s 			page 54


 2682 00a5 00       		.byte	0
 2683 00a6 00       		.byte	0
 2684 00a7 0E       		.uleb128 0xe
 2685 00a8 04       		.uleb128 0x4
 2686 00a9 01       		.byte	0x1
 2687 00aa 03       		.uleb128 0x3
 2688 00ab 0E       		.uleb128 0xe
 2689 00ac 0B       		.uleb128 0xb
 2690 00ad 0B       		.uleb128 0xb
 2691 00ae 3A       		.uleb128 0x3a
 2692 00af 0B       		.uleb128 0xb
 2693 00b0 3B       		.uleb128 0x3b
 2694 00b1 0B       		.uleb128 0xb
 2695 00b2 01       		.uleb128 0x1
 2696 00b3 13       		.uleb128 0x13
 2697 00b4 00       		.byte	0
 2698 00b5 00       		.byte	0
 2699 00b6 0F       		.uleb128 0xf
 2700 00b7 28       		.uleb128 0x28
 2701 00b8 00       		.byte	0
 2702 00b9 03       		.uleb128 0x3
 2703 00ba 08       		.uleb128 0x8
 2704 00bb 1C       		.uleb128 0x1c
 2705 00bc 0D       		.uleb128 0xd
 2706 00bd 00       		.byte	0
 2707 00be 00       		.byte	0
 2708 00bf 10       		.uleb128 0x10
 2709 00c0 28       		.uleb128 0x28
 2710 00c1 00       		.byte	0
 2711 00c2 03       		.uleb128 0x3
 2712 00c3 0E       		.uleb128 0xe
 2713 00c4 1C       		.uleb128 0x1c
 2714 00c5 0D       		.uleb128 0xd
 2715 00c6 00       		.byte	0
 2716 00c7 00       		.byte	0
 2717 00c8 11       		.uleb128 0x11
 2718 00c9 04       		.uleb128 0x4
 2719 00ca 01       		.byte	0x1
 2720 00cb 03       		.uleb128 0x3
 2721 00cc 0E       		.uleb128 0xe
 2722 00cd 0B       		.uleb128 0xb
 2723 00ce 0B       		.uleb128 0xb
 2724 00cf 3A       		.uleb128 0x3a
 2725 00d0 0B       		.uleb128 0xb
 2726 00d1 3B       		.uleb128 0x3b
 2727 00d2 05       		.uleb128 0x5
 2728 00d3 01       		.uleb128 0x1
 2729 00d4 13       		.uleb128 0x13
 2730 00d5 00       		.byte	0
 2731 00d6 00       		.byte	0
 2732 00d7 12       		.uleb128 0x12
 2733 00d8 2E       		.uleb128 0x2e
 2734 00d9 01       		.byte	0x1
 2735 00da 3F       		.uleb128 0x3f
 2736 00db 19       		.uleb128 0x19
 2737 00dc 03       		.uleb128 0x3
 2738 00dd 0E       		.uleb128 0xe
ARM GAS  C:\Users\RECEPC~1\AppData\Local\Temp\ccTEGtgN.s 			page 55


 2739 00de 3A       		.uleb128 0x3a
 2740 00df 0B       		.uleb128 0xb
 2741 00e0 3B       		.uleb128 0x3b
 2742 00e1 0B       		.uleb128 0xb
 2743 00e2 27       		.uleb128 0x27
 2744 00e3 19       		.uleb128 0x19
 2745 00e4 49       		.uleb128 0x49
 2746 00e5 13       		.uleb128 0x13
 2747 00e6 11       		.uleb128 0x11
 2748 00e7 01       		.uleb128 0x1
 2749 00e8 12       		.uleb128 0x12
 2750 00e9 06       		.uleb128 0x6
 2751 00ea 40       		.uleb128 0x40
 2752 00eb 18       		.uleb128 0x18
 2753 00ec 9742     		.uleb128 0x2117
 2754 00ee 19       		.uleb128 0x19
 2755 00ef 01       		.uleb128 0x1
 2756 00f0 13       		.uleb128 0x13
 2757 00f1 00       		.byte	0
 2758 00f2 00       		.byte	0
 2759 00f3 13       		.uleb128 0x13
 2760 00f4 05       		.uleb128 0x5
 2761 00f5 00       		.byte	0
 2762 00f6 03       		.uleb128 0x3
 2763 00f7 08       		.uleb128 0x8
 2764 00f8 3A       		.uleb128 0x3a
 2765 00f9 0B       		.uleb128 0xb
 2766 00fa 3B       		.uleb128 0x3b
 2767 00fb 0B       		.uleb128 0xb
 2768 00fc 49       		.uleb128 0x49
 2769 00fd 13       		.uleb128 0x13
 2770 00fe 02       		.uleb128 0x2
 2771 00ff 17       		.uleb128 0x17
 2772 0100 00       		.byte	0
 2773 0101 00       		.byte	0
 2774 0102 14       		.uleb128 0x14
 2775 0103 34       		.uleb128 0x34
 2776 0104 00       		.byte	0
 2777 0105 03       		.uleb128 0x3
 2778 0106 0E       		.uleb128 0xe
 2779 0107 3A       		.uleb128 0x3a
 2780 0108 0B       		.uleb128 0xb
 2781 0109 3B       		.uleb128 0x3b
 2782 010a 0B       		.uleb128 0xb
 2783 010b 49       		.uleb128 0x49
 2784 010c 13       		.uleb128 0x13
 2785 010d 02       		.uleb128 0x2
 2786 010e 17       		.uleb128 0x17
 2787 010f 00       		.byte	0
 2788 0110 00       		.byte	0
 2789 0111 15       		.uleb128 0x15
 2790 0112 898201   		.uleb128 0x4109
 2791 0115 00       		.byte	0
 2792 0116 11       		.uleb128 0x11
 2793 0117 01       		.uleb128 0x1
 2794 0118 31       		.uleb128 0x31
 2795 0119 13       		.uleb128 0x13
ARM GAS  C:\Users\RECEPC~1\AppData\Local\Temp\ccTEGtgN.s 			page 56


 2796 011a 00       		.byte	0
 2797 011b 00       		.byte	0
 2798 011c 16       		.uleb128 0x16
 2799 011d 898201   		.uleb128 0x4109
 2800 0120 01       		.byte	0x1
 2801 0121 11       		.uleb128 0x11
 2802 0122 01       		.uleb128 0x1
 2803 0123 31       		.uleb128 0x31
 2804 0124 13       		.uleb128 0x13
 2805 0125 01       		.uleb128 0x1
 2806 0126 13       		.uleb128 0x13
 2807 0127 00       		.byte	0
 2808 0128 00       		.byte	0
 2809 0129 17       		.uleb128 0x17
 2810 012a 8A8201   		.uleb128 0x410a
 2811 012d 00       		.byte	0
 2812 012e 02       		.uleb128 0x2
 2813 012f 18       		.uleb128 0x18
 2814 0130 9142     		.uleb128 0x2111
 2815 0132 18       		.uleb128 0x18
 2816 0133 00       		.byte	0
 2817 0134 00       		.byte	0
 2818 0135 18       		.uleb128 0x18
 2819 0136 34       		.uleb128 0x34
 2820 0137 00       		.byte	0
 2821 0138 03       		.uleb128 0x3
 2822 0139 08       		.uleb128 0x8
 2823 013a 3A       		.uleb128 0x3a
 2824 013b 0B       		.uleb128 0xb
 2825 013c 3B       		.uleb128 0x3b
 2826 013d 0B       		.uleb128 0xb
 2827 013e 49       		.uleb128 0x49
 2828 013f 13       		.uleb128 0x13
 2829 0140 02       		.uleb128 0x2
 2830 0141 17       		.uleb128 0x17
 2831 0142 00       		.byte	0
 2832 0143 00       		.byte	0
 2833 0144 19       		.uleb128 0x19
 2834 0145 2E       		.uleb128 0x2e
 2835 0146 01       		.byte	0x1
 2836 0147 3F       		.uleb128 0x3f
 2837 0148 19       		.uleb128 0x19
 2838 0149 03       		.uleb128 0x3
 2839 014a 0E       		.uleb128 0xe
 2840 014b 3A       		.uleb128 0x3a
 2841 014c 0B       		.uleb128 0xb
 2842 014d 3B       		.uleb128 0x3b
 2843 014e 0B       		.uleb128 0xb
 2844 014f 49       		.uleb128 0x49
 2845 0150 13       		.uleb128 0x13
 2846 0151 11       		.uleb128 0x11
 2847 0152 01       		.uleb128 0x1
 2848 0153 12       		.uleb128 0x12
 2849 0154 06       		.uleb128 0x6
 2850 0155 40       		.uleb128 0x40
 2851 0156 18       		.uleb128 0x18
 2852 0157 9742     		.uleb128 0x2117
ARM GAS  C:\Users\RECEPC~1\AppData\Local\Temp\ccTEGtgN.s 			page 57


 2853 0159 19       		.uleb128 0x19
 2854 015a 01       		.uleb128 0x1
 2855 015b 13       		.uleb128 0x13
 2856 015c 00       		.byte	0
 2857 015d 00       		.byte	0
 2858 015e 1A       		.uleb128 0x1a
 2859 015f 05       		.uleb128 0x5
 2860 0160 00       		.byte	0
 2861 0161 03       		.uleb128 0x3
 2862 0162 0E       		.uleb128 0xe
 2863 0163 3A       		.uleb128 0x3a
 2864 0164 0B       		.uleb128 0xb
 2865 0165 3B       		.uleb128 0x3b
 2866 0166 0B       		.uleb128 0xb
 2867 0167 49       		.uleb128 0x49
 2868 0168 13       		.uleb128 0x13
 2869 0169 02       		.uleb128 0x2
 2870 016a 17       		.uleb128 0x17
 2871 016b 00       		.byte	0
 2872 016c 00       		.byte	0
 2873 016d 1B       		.uleb128 0x1b
 2874 016e 0F       		.uleb128 0xf
 2875 016f 00       		.byte	0
 2876 0170 0B       		.uleb128 0xb
 2877 0171 0B       		.uleb128 0xb
 2878 0172 49       		.uleb128 0x49
 2879 0173 13       		.uleb128 0x13
 2880 0174 00       		.byte	0
 2881 0175 00       		.byte	0
 2882 0176 1C       		.uleb128 0x1c
 2883 0177 34       		.uleb128 0x34
 2884 0178 00       		.byte	0
 2885 0179 03       		.uleb128 0x3
 2886 017a 0E       		.uleb128 0xe
 2887 017b 3A       		.uleb128 0x3a
 2888 017c 0B       		.uleb128 0xb
 2889 017d 3B       		.uleb128 0x3b
 2890 017e 0B       		.uleb128 0xb
 2891 017f 49       		.uleb128 0x49
 2892 0180 13       		.uleb128 0x13
 2893 0181 02       		.uleb128 0x2
 2894 0182 18       		.uleb128 0x18
 2895 0183 00       		.byte	0
 2896 0184 00       		.byte	0
 2897 0185 1D       		.uleb128 0x1d
 2898 0186 34       		.uleb128 0x34
 2899 0187 00       		.byte	0
 2900 0188 34       		.uleb128 0x34
 2901 0189 19       		.uleb128 0x19
 2902 018a 49       		.uleb128 0x49
 2903 018b 13       		.uleb128 0x13
 2904 018c 02       		.uleb128 0x2
 2905 018d 17       		.uleb128 0x17
 2906 018e 00       		.byte	0
 2907 018f 00       		.byte	0
 2908 0190 1E       		.uleb128 0x1e
 2909 0191 21       		.uleb128 0x21
ARM GAS  C:\Users\RECEPC~1\AppData\Local\Temp\ccTEGtgN.s 			page 58


 2910 0192 00       		.byte	0
 2911 0193 49       		.uleb128 0x49
 2912 0194 13       		.uleb128 0x13
 2913 0195 2F       		.uleb128 0x2f
 2914 0196 13       		.uleb128 0x13
 2915 0197 00       		.byte	0
 2916 0198 00       		.byte	0
 2917 0199 1F       		.uleb128 0x1f
 2918 019a 26       		.uleb128 0x26
 2919 019b 00       		.byte	0
 2920 019c 49       		.uleb128 0x49
 2921 019d 13       		.uleb128 0x13
 2922 019e 00       		.byte	0
 2923 019f 00       		.byte	0
 2924 01a0 20       		.uleb128 0x20
 2925 01a1 34       		.uleb128 0x34
 2926 01a2 00       		.byte	0
 2927 01a3 03       		.uleb128 0x3
 2928 01a4 0E       		.uleb128 0xe
 2929 01a5 3A       		.uleb128 0x3a
 2930 01a6 0B       		.uleb128 0xb
 2931 01a7 3B       		.uleb128 0x3b
 2932 01a8 05       		.uleb128 0x5
 2933 01a9 49       		.uleb128 0x49
 2934 01aa 13       		.uleb128 0x13
 2935 01ab 3F       		.uleb128 0x3f
 2936 01ac 19       		.uleb128 0x19
 2937 01ad 3C       		.uleb128 0x3c
 2938 01ae 19       		.uleb128 0x19
 2939 01af 00       		.byte	0
 2940 01b0 00       		.byte	0
 2941 01b1 21       		.uleb128 0x21
 2942 01b2 34       		.uleb128 0x34
 2943 01b3 00       		.byte	0
 2944 01b4 03       		.uleb128 0x3
 2945 01b5 0E       		.uleb128 0xe
 2946 01b6 3A       		.uleb128 0x3a
 2947 01b7 0B       		.uleb128 0xb
 2948 01b8 3B       		.uleb128 0x3b
 2949 01b9 0B       		.uleb128 0xb
 2950 01ba 49       		.uleb128 0x49
 2951 01bb 13       		.uleb128 0x13
 2952 01bc 3F       		.uleb128 0x3f
 2953 01bd 19       		.uleb128 0x19
 2954 01be 02       		.uleb128 0x2
 2955 01bf 18       		.uleb128 0x18
 2956 01c0 00       		.byte	0
 2957 01c1 00       		.byte	0
 2958 01c2 22       		.uleb128 0x22
 2959 01c3 2E       		.uleb128 0x2e
 2960 01c4 00       		.byte	0
 2961 01c5 3F       		.uleb128 0x3f
 2962 01c6 19       		.uleb128 0x19
 2963 01c7 03       		.uleb128 0x3
 2964 01c8 0E       		.uleb128 0xe
 2965 01c9 3A       		.uleb128 0x3a
 2966 01ca 0B       		.uleb128 0xb
ARM GAS  C:\Users\RECEPC~1\AppData\Local\Temp\ccTEGtgN.s 			page 59


 2967 01cb 3B       		.uleb128 0x3b
 2968 01cc 0B       		.uleb128 0xb
 2969 01cd 27       		.uleb128 0x27
 2970 01ce 19       		.uleb128 0x19
 2971 01cf 3C       		.uleb128 0x3c
 2972 01d0 19       		.uleb128 0x19
 2973 01d1 00       		.byte	0
 2974 01d2 00       		.byte	0
 2975 01d3 23       		.uleb128 0x23
 2976 01d4 2E       		.uleb128 0x2e
 2977 01d5 01       		.byte	0x1
 2978 01d6 3F       		.uleb128 0x3f
 2979 01d7 19       		.uleb128 0x19
 2980 01d8 03       		.uleb128 0x3
 2981 01d9 0E       		.uleb128 0xe
 2982 01da 3A       		.uleb128 0x3a
 2983 01db 0B       		.uleb128 0xb
 2984 01dc 3B       		.uleb128 0x3b
 2985 01dd 0B       		.uleb128 0xb
 2986 01de 27       		.uleb128 0x27
 2987 01df 19       		.uleb128 0x19
 2988 01e0 3C       		.uleb128 0x3c
 2989 01e1 19       		.uleb128 0x19
 2990 01e2 01       		.uleb128 0x1
 2991 01e3 13       		.uleb128 0x13
 2992 01e4 00       		.byte	0
 2993 01e5 00       		.byte	0
 2994 01e6 24       		.uleb128 0x24
 2995 01e7 05       		.uleb128 0x5
 2996 01e8 00       		.byte	0
 2997 01e9 49       		.uleb128 0x49
 2998 01ea 13       		.uleb128 0x13
 2999 01eb 00       		.byte	0
 3000 01ec 00       		.byte	0
 3001 01ed 25       		.uleb128 0x25
 3002 01ee 2E       		.uleb128 0x2e
 3003 01ef 00       		.byte	0
 3004 01f0 3F       		.uleb128 0x3f
 3005 01f1 19       		.uleb128 0x19
 3006 01f2 03       		.uleb128 0x3
 3007 01f3 0E       		.uleb128 0xe
 3008 01f4 3A       		.uleb128 0x3a
 3009 01f5 0B       		.uleb128 0xb
 3010 01f6 3B       		.uleb128 0x3b
 3011 01f7 0B       		.uleb128 0xb
 3012 01f8 27       		.uleb128 0x27
 3013 01f9 19       		.uleb128 0x19
 3014 01fa 49       		.uleb128 0x49
 3015 01fb 13       		.uleb128 0x13
 3016 01fc 3C       		.uleb128 0x3c
 3017 01fd 19       		.uleb128 0x19
 3018 01fe 00       		.byte	0
 3019 01ff 00       		.byte	0
 3020 0200 00       		.byte	0
 3021              		.section	.debug_loc,"",%progbits
 3022              	.Ldebug_loc0:
 3023              	.LLST0:
ARM GAS  C:\Users\RECEPC~1\AppData\Local\Temp\ccTEGtgN.s 			page 60


 3024 0000 00000000 		.4byte	.LVL0
 3025 0004 07000000 		.4byte	.LVL1-1
 3026 0008 0100     		.2byte	0x1
 3027 000a 50       		.byte	0x50
 3028 000b 07000000 		.4byte	.LVL1-1
 3029 000f 2E000000 		.4byte	.LFE63
 3030 0013 0400     		.2byte	0x4
 3031 0015 F3       		.byte	0xf3
 3032 0016 01       		.uleb128 0x1
 3033 0017 50       		.byte	0x50
 3034 0018 9F       		.byte	0x9f
 3035 0019 00000000 		.4byte	0
 3036 001d 00000000 		.4byte	0
 3037              	.LLST1:
 3038 0021 22000000 		.4byte	.LVL6
 3039 0025 2A000000 		.4byte	.LVL8
 3040 0029 0100     		.2byte	0x1
 3041 002b 54       		.byte	0x54
 3042 002c 00000000 		.4byte	0
 3043 0030 00000000 		.4byte	0
 3044              	.LLST2:
 3045 0034 14000000 		.4byte	.LVL9
 3046 0038 18000000 		.4byte	.LVL10
 3047 003c 0200     		.2byte	0x2
 3048 003e 31       		.byte	0x31
 3049 003f 9F       		.byte	0x9f
 3050 0040 18000000 		.4byte	.LVL10
 3051 0044 C0000000 		.4byte	.LVL21
 3052 0048 0100     		.2byte	0x1
 3053 004a 54       		.byte	0x54
 3054 004b C2000000 		.4byte	.LVL22
 3055 004f 1C010000 		.4byte	.LVL27
 3056 0053 0100     		.2byte	0x1
 3057 0055 54       		.byte	0x54
 3058 0056 00000000 		.4byte	0
 3059 005a 00000000 		.4byte	0
 3060              	.LLST3:
 3061 005e 00000000 		.4byte	.LVL28
 3062 0062 0E000000 		.4byte	.LVL29
 3063 0066 0100     		.2byte	0x1
 3064 0068 50       		.byte	0x50
 3065 0069 0E000000 		.4byte	.LVL29
 3066 006d 10000000 		.4byte	.LVL30
 3067 0071 0400     		.2byte	0x4
 3068 0073 F3       		.byte	0xf3
 3069 0074 01       		.uleb128 0x1
 3070 0075 50       		.byte	0x50
 3071 0076 9F       		.byte	0x9f
 3072 0077 10000000 		.4byte	.LVL30
 3073 007b 12000000 		.4byte	.LVL31
 3074 007f 0100     		.2byte	0x1
 3075 0081 50       		.byte	0x50
 3076 0082 12000000 		.4byte	.LVL31
 3077 0086 14000000 		.4byte	.LFE67
 3078 008a 0400     		.2byte	0x4
 3079 008c F3       		.byte	0xf3
 3080 008d 01       		.uleb128 0x1
ARM GAS  C:\Users\RECEPC~1\AppData\Local\Temp\ccTEGtgN.s 			page 61


 3081 008e 50       		.byte	0x50
 3082 008f 9F       		.byte	0x9f
 3083 0090 00000000 		.4byte	0
 3084 0094 00000000 		.4byte	0
 3085              	.LLST4:
 3086 0098 00000000 		.4byte	.LVL28
 3087 009c 12000000 		.4byte	.LVL31
 3088 00a0 0200     		.2byte	0x2
 3089 00a2 30       		.byte	0x30
 3090 00a3 9F       		.byte	0x9f
 3091 00a4 12000000 		.4byte	.LVL31
 3092 00a8 14000000 		.4byte	.LFE67
 3093 00ac 0100     		.2byte	0x1
 3094 00ae 50       		.byte	0x50
 3095 00af 00000000 		.4byte	0
 3096 00b3 00000000 		.4byte	0
 3097              	.LLST5:
 3098 00b7 00000000 		.4byte	.LVL32
 3099 00bb 0E000000 		.4byte	.LVL35
 3100 00bf 0100     		.2byte	0x1
 3101 00c1 50       		.byte	0x50
 3102 00c2 0E000000 		.4byte	.LVL35
 3103 00c6 1A000000 		.4byte	.LVL36
 3104 00ca 0100     		.2byte	0x1
 3105 00cc 50       		.byte	0x50
 3106 00cd 00000000 		.4byte	0
 3107 00d1 00000000 		.4byte	0
 3108              	.LLST6:
 3109 00d5 00000000 		.4byte	.LVL32
 3110 00d9 04000000 		.4byte	.LVL33
 3111 00dd 0200     		.2byte	0x2
 3112 00df 30       		.byte	0x30
 3113 00e0 9F       		.byte	0x9f
 3114 00e1 04000000 		.4byte	.LVL33
 3115 00e5 1A000000 		.4byte	.LVL36
 3116 00e9 0100     		.2byte	0x1
 3117 00eb 51       		.byte	0x51
 3118 00ec 1A000000 		.4byte	.LVL36
 3119 00f0 1C000000 		.4byte	.LVL37
 3120 00f4 0100     		.2byte	0x1
 3121 00f6 50       		.byte	0x50
 3122 00f7 1C000000 		.4byte	.LVL37
 3123 00fb 20000000 		.4byte	.LVL38
 3124 00ff 0400     		.2byte	0x4
 3125 0101 70       		.byte	0x70
 3126 0102 00       		.sleb128 0
 3127 0103 1F       		.byte	0x1f
 3128 0104 9F       		.byte	0x9f
 3129 0105 20000000 		.4byte	.LVL38
 3130 0109 26000000 		.4byte	.LFE68
 3131 010d 0600     		.2byte	0x6
 3132 010f 71       		.byte	0x71
 3133 0110 00       		.sleb128 0
 3134 0111 72       		.byte	0x72
 3135 0112 00       		.sleb128 0
 3136 0113 22       		.byte	0x22
 3137 0114 9F       		.byte	0x9f
ARM GAS  C:\Users\RECEPC~1\AppData\Local\Temp\ccTEGtgN.s 			page 62


 3138 0115 00000000 		.4byte	0
 3139 0119 00000000 		.4byte	0
 3140              	.LLST7:
 3141 011d 00000000 		.4byte	.LVL39
 3142 0121 0B000000 		.4byte	.LVL41-1
 3143 0125 0100     		.2byte	0x1
 3144 0127 50       		.byte	0x50
 3145 0128 0B000000 		.4byte	.LVL41-1
 3146 012c 00010000 		.4byte	.LFE65
 3147 0130 0400     		.2byte	0x4
 3148 0132 F3       		.byte	0xf3
 3149 0133 01       		.uleb128 0x1
 3150 0134 50       		.byte	0x50
 3151 0135 9F       		.byte	0x9f
 3152 0136 00000000 		.4byte	0
 3153 013a 00000000 		.4byte	0
 3154              	.LLST8:
 3155 013e 0C000000 		.4byte	.LVL41
 3156 0142 14000000 		.4byte	.LVL42
 3157 0146 0100     		.2byte	0x1
 3158 0148 50       		.byte	0x50
 3159 0149 26000000 		.4byte	.LVL47
 3160 014d 28000000 		.4byte	.LVL48
 3161 0151 0100     		.2byte	0x1
 3162 0153 50       		.byte	0x50
 3163 0154 00000000 		.4byte	0
 3164 0158 00000000 		.4byte	0
 3165              	.LLST9:
 3166 015c 5A000000 		.4byte	.LVL51
 3167 0160 5E000000 		.4byte	.LVL52
 3168 0164 0200     		.2byte	0x2
 3169 0166 30       		.byte	0x30
 3170 0167 9F       		.byte	0x9f
 3171 0168 5E000000 		.4byte	.LVL52
 3172 016c 6E000000 		.4byte	.LVL54
 3173 0170 0100     		.2byte	0x1
 3174 0172 54       		.byte	0x54
 3175 0173 70000000 		.4byte	.LVL55
 3176 0177 7A000000 		.4byte	.LVL56
 3177 017b 0100     		.2byte	0x1
 3178 017d 54       		.byte	0x54
 3179 017e 8C000000 		.4byte	.LVL59
 3180 0182 90000000 		.4byte	.LVL60
 3181 0186 0200     		.2byte	0x2
 3182 0188 30       		.byte	0x30
 3183 0189 9F       		.byte	0x9f
 3184 018a 90000000 		.4byte	.LVL60
 3185 018e 98000000 		.4byte	.LVL62
 3186 0192 0100     		.2byte	0x1
 3187 0194 54       		.byte	0x54
 3188 0195 9A000000 		.4byte	.LVL63
 3189 0199 E6000000 		.4byte	.LVL65
 3190 019d 0100     		.2byte	0x1
 3191 019f 54       		.byte	0x54
 3192 01a0 00000000 		.4byte	0
 3193 01a4 00000000 		.4byte	0
 3194              	.LLST10:
ARM GAS  C:\Users\RECEPC~1\AppData\Local\Temp\ccTEGtgN.s 			page 63


 3195 01a8 08000000 		.4byte	.LVL40
 3196 01ac 24000000 		.4byte	.LVL46
 3197 01b0 0200     		.2byte	0x2
 3198 01b2 30       		.byte	0x30
 3199 01b3 9F       		.byte	0x9f
 3200 01b4 24000000 		.4byte	.LVL46
 3201 01b8 26000000 		.4byte	.LVL47
 3202 01bc 0100     		.2byte	0x1
 3203 01be 55       		.byte	0x55
 3204 01bf 26000000 		.4byte	.LVL47
 3205 01c3 28000000 		.4byte	.LVL48
 3206 01c7 0200     		.2byte	0x2
 3207 01c9 30       		.byte	0x30
 3208 01ca 9F       		.byte	0x9f
 3209 01cb 28000000 		.4byte	.LVL48
 3210 01cf 8C000000 		.4byte	.LVL59
 3211 01d3 0100     		.2byte	0x1
 3212 01d5 55       		.byte	0x55
 3213 01d6 00000000 		.4byte	0
 3214 01da 00000000 		.4byte	0
 3215              	.LLST11:
 3216 01de 08000000 		.4byte	.LVL40
 3217 01e2 80000000 		.4byte	.LVL58
 3218 01e6 0200     		.2byte	0x2
 3219 01e8 30       		.byte	0x30
 3220 01e9 9F       		.byte	0x9f
 3221 01ea 80000000 		.4byte	.LVL58
 3222 01ee E6000000 		.4byte	.LVL65
 3223 01f2 0100     		.2byte	0x1
 3224 01f4 56       		.byte	0x56
 3225 01f5 00000000 		.4byte	0
 3226 01f9 00000000 		.4byte	0
 3227              	.LLST12:
 3228 01fd 80000000 		.4byte	.LVL58
 3229 0201 E6000000 		.4byte	.LVL65
 3230 0205 0800     		.2byte	0x8
 3231 0207 76       		.byte	0x76
 3232 0208 00       		.sleb128 0
 3233 0209 08       		.byte	0x8
 3234 020a FF       		.byte	0xff
 3235 020b 1A       		.byte	0x1a
 3236 020c 31       		.byte	0x31
 3237 020d 1C       		.byte	0x1c
 3238 020e 9F       		.byte	0x9f
 3239 020f 00000000 		.4byte	0
 3240 0213 00000000 		.4byte	0
 3241              	.LLST13:
 3242 0217 8C000000 		.4byte	.LVL59
 3243 021b E6000000 		.4byte	.LVL65
 3244 021f 0200     		.2byte	0x2
 3245 0221 75       		.byte	0x75
 3246 0222 00       		.sleb128 0
 3247 0223 00000000 		.4byte	0
 3248 0227 00000000 		.4byte	0
 3249              	.LLST14:
 3250 022b 00000000 		.4byte	.LVL66
 3251 022f 0B000000 		.4byte	.LVL68-1
ARM GAS  C:\Users\RECEPC~1\AppData\Local\Temp\ccTEGtgN.s 			page 64


 3252 0233 0100     		.2byte	0x1
 3253 0235 50       		.byte	0x50
 3254 0236 0B000000 		.4byte	.LVL68-1
 3255 023a D4000000 		.4byte	.LFE66
 3256 023e 0400     		.2byte	0x4
 3257 0240 F3       		.byte	0xf3
 3258 0241 01       		.uleb128 0x1
 3259 0242 50       		.byte	0x50
 3260 0243 9F       		.byte	0x9f
 3261 0244 00000000 		.4byte	0
 3262 0248 00000000 		.4byte	0
 3263              	.LLST15:
 3264 024c 0C000000 		.4byte	.LVL68
 3265 0250 0E000000 		.4byte	.LVL69
 3266 0254 0100     		.2byte	0x1
 3267 0256 50       		.byte	0x50
 3268 0257 00000000 		.4byte	0
 3269 025b 00000000 		.4byte	0
 3270              	.LLST16:
 3271 025f 5E000000 		.4byte	.LVL78
 3272 0263 62000000 		.4byte	.LVL79
 3273 0267 0200     		.2byte	0x2
 3274 0269 30       		.byte	0x30
 3275 026a 9F       		.byte	0x9f
 3276 026b 62000000 		.4byte	.LVL79
 3277 026f 72000000 		.4byte	.LVL81
 3278 0273 0100     		.2byte	0x1
 3279 0275 54       		.byte	0x54
 3280 0276 74000000 		.4byte	.LVL82
 3281 027a 8E000000 		.4byte	.LVL84
 3282 027e 0100     		.2byte	0x1
 3283 0280 54       		.byte	0x54
 3284 0281 A0000000 		.4byte	.LVL87
 3285 0285 A4000000 		.4byte	.LVL88
 3286 0289 0200     		.2byte	0x2
 3287 028b 30       		.byte	0x30
 3288 028c 9F       		.byte	0x9f
 3289 028d A4000000 		.4byte	.LVL88
 3290 0291 AC000000 		.4byte	.LVL90
 3291 0295 0100     		.2byte	0x1
 3292 0297 54       		.byte	0x54
 3293 0298 AE000000 		.4byte	.LVL91
 3294 029c D0000000 		.4byte	.LVL93
 3295 02a0 0100     		.2byte	0x1
 3296 02a2 54       		.byte	0x54
 3297 02a3 00000000 		.4byte	0
 3298 02a7 00000000 		.4byte	0
 3299              	.LLST17:
 3300 02ab 08000000 		.4byte	.LVL67
 3301 02af 28000000 		.4byte	.LVL73
 3302 02b3 0200     		.2byte	0x2
 3303 02b5 30       		.byte	0x30
 3304 02b6 9F       		.byte	0x9f
 3305 02b7 28000000 		.4byte	.LVL73
 3306 02bb 2A000000 		.4byte	.LVL74
 3307 02bf 0100     		.2byte	0x1
 3308 02c1 55       		.byte	0x55
ARM GAS  C:\Users\RECEPC~1\AppData\Local\Temp\ccTEGtgN.s 			page 65


 3309 02c2 2A000000 		.4byte	.LVL74
 3310 02c6 2C000000 		.4byte	.LVL75
 3311 02ca 0200     		.2byte	0x2
 3312 02cc 30       		.byte	0x30
 3313 02cd 9F       		.byte	0x9f
 3314 02ce 2C000000 		.4byte	.LVL75
 3315 02d2 94000000 		.4byte	.LVL86
 3316 02d6 0100     		.2byte	0x1
 3317 02d8 55       		.byte	0x55
 3318 02d9 00000000 		.4byte	0
 3319 02dd 00000000 		.4byte	0
 3320              	.LLST18:
 3321 02e1 08000000 		.4byte	.LVL67
 3322 02e5 94000000 		.4byte	.LVL86
 3323 02e9 0200     		.2byte	0x2
 3324 02eb 30       		.byte	0x30
 3325 02ec 9F       		.byte	0x9f
 3326 02ed 94000000 		.4byte	.LVL86
 3327 02f1 D0000000 		.4byte	.LVL93
 3328 02f5 0100     		.2byte	0x1
 3329 02f7 55       		.byte	0x55
 3330 02f8 00000000 		.4byte	0
 3331 02fc 00000000 		.4byte	0
 3332              	.LLST19:
 3333 0300 94000000 		.4byte	.LVL86
 3334 0304 D0000000 		.4byte	.LVL93
 3335 0308 0800     		.2byte	0x8
 3336 030a 75       		.byte	0x75
 3337 030b 00       		.sleb128 0
 3338 030c 08       		.byte	0x8
 3339 030d FF       		.byte	0xff
 3340 030e 1A       		.byte	0x1a
 3341 030f 31       		.byte	0x31
 3342 0310 1C       		.byte	0x1c
 3343 0311 9F       		.byte	0x9f
 3344 0312 00000000 		.4byte	0
 3345 0316 00000000 		.4byte	0
 3346              	.LLST20:
 3347 031a A0000000 		.4byte	.LVL87
 3348 031e D0000000 		.4byte	.LVL93
 3349 0322 0200     		.2byte	0x2
 3350 0324 76       		.byte	0x76
 3351 0325 00       		.sleb128 0
 3352 0326 00000000 		.4byte	0
 3353 032a 00000000 		.4byte	0
 3354              		.section	.debug_aranges,"",%progbits
 3355 0000 44000000 		.4byte	0x44
 3356 0004 0200     		.2byte	0x2
 3357 0006 00000000 		.4byte	.Ldebug_info0
 3358 000a 04       		.byte	0x4
 3359 000b 00       		.byte	0
 3360 000c 0000     		.2byte	0
 3361 000e 0000     		.2byte	0
 3362 0010 00000000 		.4byte	.LFB63
 3363 0014 2E000000 		.4byte	.LFE63-.LFB63
 3364 0018 00000000 		.4byte	.LFB64
 3365 001c 20010000 		.4byte	.LFE64-.LFB64
ARM GAS  C:\Users\RECEPC~1\AppData\Local\Temp\ccTEGtgN.s 			page 66


 3366 0020 00000000 		.4byte	.LFB67
 3367 0024 14000000 		.4byte	.LFE67-.LFB67
 3368 0028 00000000 		.4byte	.LFB68
 3369 002c 26000000 		.4byte	.LFE68-.LFB68
 3370 0030 00000000 		.4byte	.LFB65
 3371 0034 00010000 		.4byte	.LFE65-.LFB65
 3372 0038 00000000 		.4byte	.LFB66
 3373 003c D4000000 		.4byte	.LFE66-.LFB66
 3374 0040 00000000 		.4byte	0
 3375 0044 00000000 		.4byte	0
 3376              		.section	.debug_ranges,"",%progbits
 3377              	.Ldebug_ranges0:
 3378 0000 00000000 		.4byte	.LFB63
 3379 0004 2E000000 		.4byte	.LFE63
 3380 0008 00000000 		.4byte	.LFB64
 3381 000c 20010000 		.4byte	.LFE64
 3382 0010 00000000 		.4byte	.LFB67
 3383 0014 14000000 		.4byte	.LFE67
 3384 0018 00000000 		.4byte	.LFB68
 3385 001c 26000000 		.4byte	.LFE68
 3386 0020 00000000 		.4byte	.LFB65
 3387 0024 00010000 		.4byte	.LFE65
 3388 0028 00000000 		.4byte	.LFB66
 3389 002c D4000000 		.4byte	.LFE66
 3390 0030 00000000 		.4byte	0
 3391 0034 00000000 		.4byte	0
 3392              		.section	.debug_line,"",%progbits
 3393              	.Ldebug_line0:
 3394 0000 FC020000 		.section	.debug_str,"MS",%progbits,1
 3394      02007301 
 3394      00000201 
 3394      FB0E0D00 
 3394      01010101 
 3395              	.LASF83:
 3396 0000 5055446E 		.ascii	"PUDn\000"
 3396      00
 3397              	.LASF131:
 3398 0005 64656369 		.ascii	"decimalVolume\000"
 3398      6D616C56 
 3398      6F6C756D 
 3398      6500
 3399              	.LASF145:
 3400 0013 50726576 		.ascii	"PrevStatePump\000"
 3400      53746174 
 3400      6550756D 
 3400      7000
 3401              	.LASF57:
 3402 0021 6D657373 		.ascii	"message\000"
 3402      61676500 
 3403              	.LASF153:
 3404 0029 73746174 		.ascii	"statePump\000"
 3404      6550756D 
 3404      7000
 3405              	.LASF72:
 3406 0033 62756666 		.ascii	"buffer\000"
 3406      657200
 3407              	.LASF119:
ARM GAS  C:\Users\RECEPC~1\AppData\Local\Temp\ccTEGtgN.s 			page 67


 3408 003a 69704164 		.ascii	"ipAdress\000"
 3408      72657373 
 3408      00
 3409              	.LASF130:
 3410 0043 64656369 		.ascii	"decimalMoney\000"
 3410      6D616C4D 
 3410      6F6E6579 
 3410      00
 3411              	.LASF35:
 3412 0050 73616C65 		.ascii	"salePerform\000"
 3412      50657266 
 3412      6F726D00 
 3413              	.LASF10:
 3414 005c 756E7369 		.ascii	"unsigned int\000"
 3414      676E6564 
 3414      20696E74 
 3414      00
 3415              	.LASF62:
 3416 0069 70726F64 		.ascii	"productMarket\000"
 3416      7563744D 
 3416      61726B65 
 3416      7400
 3417              	.LASF5:
 3418 0077 5F5F696E 		.ascii	"__int32_t\000"
 3418      7433325F 
 3418      7400
 3419              	.LASF55:
 3420 0081 666C6167 		.ascii	"flagLiftHandle\000"
 3420      4C696674 
 3420      48616E64 
 3420      6C6500
 3421              	.LASF88:
 3422 0090 50554D50 		.ascii	"PUMP_FAIL\000"
 3422      5F464149 
 3422      4C00
 3423              	.LASF136:
 3424 009a 72657369 		.ascii	"residue\000"
 3424      64756500 
 3425              	.LASF22:
 3426 00a2 69645479 		.ascii	"idType\000"
 3426      706500
 3427              	.LASF152:
 3428 00a9 44444D6F 		.ascii	"DDMode\000"
 3428      646500
 3429              	.LASF97:
 3430 00b0 6765745F 		.ascii	"get_position\000"
 3430      706F7369 
 3430      74696F6E 
 3430      00
 3431              	.LASF27:
 3432 00bd 73656C65 		.ascii	"selectedSale\000"
 3432      63746564 
 3432      53616C65 
 3432      00
 3433              	.LASF63:
 3434 00ca 7175616E 		.ascii	"quantityMarket\000"
 3434      74697479 
ARM GAS  C:\Users\RECEPC~1\AppData\Local\Temp\ccTEGtgN.s 			page 68


 3434      4D61726B 
 3434      657400
 3435              	.LASF106:
 3436 00d9 50756D70 		.ascii	"PumpDataReceive\000"
 3436      44617461 
 3436      52656365 
 3436      69766500 
 3437              	.LASF123:
 3438 00e9 666C6167 		.ascii	"flagPoint2\000"
 3438      506F696E 
 3438      743200
 3439              	.LASF135:
 3440 00f4 73637265 		.ascii	"screen\000"
 3440      656E00
 3441              	.LASF59:
 3442 00fb 766F6C75 		.ascii	"volumeQuota\000"
 3442      6D655175 
 3442      6F746100 
 3443              	.LASF146:
 3444 0107 506C6174 		.ascii	"PlateRequest\000"
 3444      65526571 
 3444      75657374 
 3444      00
 3445              	.LASF89:
 3446 0114 50554D50 		.ascii	"PUMP_IDLE\000"
 3446      5F49444C 
 3446      4500
 3447              	.LASF16:
 3448 011e 666C6F61 		.ascii	"float\000"
 3448      7400
 3449              	.LASF105:
 3450 0124 53656E64 		.ascii	"SendComand\000"
 3450      436F6D61 
 3450      6E6400
 3451              	.LASF167:
 3452 012f 50756D70 		.ascii	"Pump_ClearRxBuffer\000"
 3452      5F436C65 
 3452      61725278 
 3452      42756666 
 3452      657200
 3453              	.LASF149:
 3454 0142 4D6F6E65 		.ascii	"MoneyDec\000"
 3454      79446563 
 3454      00
 3455              	.LASF81:
 3456 014b 686F7365 		.ascii	"hose\000"
 3456      00
 3457              	.LASF9:
 3458 0150 6C6F6E67 		.ascii	"long long unsigned int\000"
 3458      206C6F6E 
 3458      6720756E 
 3458      7369676E 
 3458      65642069 
 3459              	.LASF94:
 3460 0167 50554D50 		.ascii	"PUMP_FEOT\000"
 3460      5F46454F 
 3460      5400
ARM GAS  C:\Users\RECEPC~1\AppData\Local\Temp\ccTEGtgN.s 			page 69


 3461              	.LASF45:
 3462 0171 746F7461 		.ascii	"totalVolumePrevious\000"
 3462      6C566F6C 
 3462      756D6550 
 3462      72657669 
 3462      6F757300 
 3463              	.LASF118:
 3464 0185 64696769 		.ascii	"digits\000"
 3464      747300
 3465              	.LASF87:
 3466 018c 5F50554D 		.ascii	"_PUMP_STATES_\000"
 3466      505F5354 
 3466      41544553 
 3466      5F00
 3467              	.LASF133:
 3468 019a 74696D65 		.ascii	"time\000"
 3468      00
 3469              	.LASF99:
 3470 019f 72657476 		.ascii	"retval\000"
 3470      616C00
 3471              	.LASF38:
 3472 01a6 70726F64 		.ascii	"productType\000"
 3472      75637454 
 3472      79706500 
 3473              	.LASF125:
 3474 01b2 70726F64 		.ascii	"productNumber\000"
 3474      7563744E 
 3474      756D6265 
 3474      7200
 3475              	.LASF41:
 3476 01c0 64617465 		.ascii	"dateDownHandle\000"
 3476      446F776E 
 3476      48616E64 
 3476      6C6500
 3477              	.LASF23:
 3478 01cf 69645365 		.ascii	"idSerial\000"
 3478      7269616C 
 3478      00
 3479              	.LASF104:
 3480 01d8 73696465 		.ascii	"side\000"
 3480      00
 3481              	.LASF161:
 3482 01dd 50756D70 		.ascii	"Pump_GetRxBufferSize\000"
 3482      5F476574 
 3482      52784275 
 3482      66666572 
 3482      53697A65 
 3483              	.LASF51:
 3484 01f2 6D696C65 		.ascii	"mileageSale\000"
 3484      61676553 
 3484      616C6500 
 3485              	.LASF71:
 3486 01fe 666C6167 		.ascii	"flagChangePPU\000"
 3486      4368616E 
 3486      67655050 
 3486      5500
 3487              	.LASF164:
ARM GAS  C:\Users\RECEPC~1\AppData\Local\Temp\ccTEGtgN.s 			page 70


 3488 020c 2E5C7072 		.ascii	".\\protocol.c\000"
 3488      6F746F63 
 3488      6F6C2E63 
 3488      00
 3489              	.LASF100:
 3490 0219 5F426F6F 		.ascii	"_Bool\000"
 3490      6C00
 3491              	.LASF124:
 3492 021f 62757474 		.ascii	"button\000"
 3492      6F6E00
 3493              	.LASF114:
 3494 0226 666C6F77 		.ascii	"flowDisplay1\000"
 3494      44697370 
 3494      6C617931 
 3494      00
 3495              	.LASF115:
 3496 0233 666C6F77 		.ascii	"flowDisplay2\000"
 3496      44697370 
 3496      6C617932 
 3496      00
 3497              	.LASF116:
 3498 0240 666C6F77 		.ascii	"flowDisplay3\000"
 3498      44697370 
 3498      6C617933 
 3498      00
 3499              	.LASF117:
 3500 024d 666C6F77 		.ascii	"flowDisplay4\000"
 3500      44697370 
 3500      6C617934 
 3500      00
 3501              	.LASF61:
 3502 025a 73657269 		.ascii	"serialMarket\000"
 3502      616C4D61 
 3502      726B6574 
 3502      00
 3503              	.LASF74:
 3504 0267 746F7461 		.ascii	"totalsHandle\000"
 3504      6C734861 
 3504      6E646C65 
 3504      00
 3505              	.LASF37:
 3506 0274 70726573 		.ascii	"presetValue\000"
 3506      65745661 
 3506      6C756500 
 3507              	.LASF138:
 3508 0280 7475726E 		.ascii	"turn\000"
 3508      00
 3509              	.LASF52:
 3510 0285 6964656E 		.ascii	"identySale\000"
 3510      74795361 
 3510      6C6500
 3511              	.LASF34:
 3512 0290 73616C65 		.ascii	"saleType\000"
 3512      54797065 
 3512      00
 3513              	.LASF92:
 3514 0299 50554D50 		.ascii	"PUMP_BUSY\000"
ARM GAS  C:\Users\RECEPC~1\AppData\Local\Temp\ccTEGtgN.s 			page 71


 3514      5F425553 
 3514      5900
 3515              	.LASF108:
 3516 02a3 50756D70 		.ascii	"PumpHoseActiveState\000"
 3516      486F7365 
 3516      41637469 
 3516      76655374 
 3516      61746500 
 3517              	.LASF32:
 3518 02b7 76616C75 		.ascii	"valueKeys\000"
 3518      654B6579 
 3518      7300
 3519              	.LASF20:
 3520 02c1 63686172 		.ascii	"char\000"
 3520      00
 3521              	.LASF148:
 3522 02c6 436F6E76 		.ascii	"ConversionFactor\000"
 3522      65727369 
 3522      6F6E4661 
 3522      63746F72 
 3522      00
 3523              	.LASF95:
 3524 02d7 50554D50 		.ascii	"PUMP_STOPPED\000"
 3524      5F53544F 
 3524      50504544 
 3524      00
 3525              	.LASF120:
 3526 02e4 6E756D62 		.ascii	"numberKeys1\000"
 3526      65724B65 
 3526      79733100 
 3527              	.LASF121:
 3528 02f0 6E756D62 		.ascii	"numberKeys2\000"
 3528      65724B65 
 3528      79733200 
 3529              	.LASF112:
 3530 02fc 636F756E 		.ascii	"countBeagleTX\000"
 3530      74426561 
 3530      676C6554 
 3530      5800
 3531              	.LASF107:
 3532 030a 42756666 		.ascii	"BufferSize\000"
 3532      65725369 
 3532      7A6500
 3533              	.LASF160:
 3534 0315 43794465 		.ascii	"CyDelay\000"
 3534      6C617900 
 3535              	.LASF96:
 3536 031d 6765745F 		.ascii	"get_state\000"
 3536      73746174 
 3536      6500
 3537              	.LASF14:
 3538 0327 75696E74 		.ascii	"uint16\000"
 3538      313600
 3539              	.LASF85:
 3540 032e 4C52436E 		.ascii	"LRCn\000"
 3540      00
 3541              	.LASF134:
ARM GAS  C:\Users\RECEPC~1\AppData\Local\Temp\ccTEGtgN.s 			page 72


 3542 0333 64617465 		.ascii	"date\000"
 3542      00
 3543              	.LASF11:
 3544 0338 75696E74 		.ascii	"uint8_t\000"
 3544      385F7400 
 3545              	.LASF162:
 3546 0340 50756D70 		.ascii	"Pump_ReadRxData\000"
 3546      5F526561 
 3546      64527844 
 3546      61746100 
 3547              	.LASF54:
 3548 0350 666C6167 		.ascii	"flagPayment\000"
 3548      5061796D 
 3548      656E7400 
 3549              	.LASF19:
 3550 035c 63686172 		.ascii	"char8\000"
 3550      3800
 3551              	.LASF24:
 3552 0362 69645365 		.ascii	"idSerialCom\000"
 3552      7269616C 
 3552      436F6D00 
 3553              	.LASF60:
 3554 036e 70707551 		.ascii	"ppuQuota\000"
 3554      756F7461 
 3554      00
 3555              	.LASF47:
 3556 0377 746F7461 		.ascii	"totalMoneyAfter\000"
 3556      6C4D6F6E 
 3556      65794166 
 3556      74657200 
 3557              	.LASF58:
 3558 0387 6D6F6E65 		.ascii	"moneyQuota\000"
 3558      7951756F 
 3558      746100
 3559              	.LASF70:
 3560 0392 7072696E 		.ascii	"printers\000"
 3560      74657273 
 3560      00
 3561              	.LASF126:
 3562 039b 70726573 		.ascii	"presetFast\000"
 3562      65744661 
 3562      737400
 3563              	.LASF76:
 3564 03a6 6D6F6E65 		.ascii	"moneySale\000"
 3564      7953616C 
 3564      6500
 3565              	.LASF8:
 3566 03b0 6C6F6E67 		.ascii	"long long int\000"
 3566      206C6F6E 
 3566      6720696E 
 3566      7400
 3567              	.LASF78:
 3568 03be 70707553 		.ascii	"ppuSale\000"
 3568      616C6500 
 3569              	.LASF110:
 3570 03c6 636F756E 		.ascii	"countAnimation1\000"
 3570      74416E69 
ARM GAS  C:\Users\RECEPC~1\AppData\Local\Temp\ccTEGtgN.s 			page 73


 3570      6D617469 
 3570      6F6E3100 
 3571              	.LASF154:
 3572 03d6 4E756D50 		.ascii	"NumPositions\000"
 3572      6F736974 
 3572      696F6E73 
 3572      00
 3573              	.LASF144:
 3574 03e3 73746174 		.ascii	"stateBeagleSoft\000"
 3574      65426561 
 3574      676C6553 
 3574      6F667400 
 3575              	.LASF46:
 3576 03f3 746F7461 		.ascii	"totalPPUPrevious\000"
 3576      6C505055 
 3576      50726576 
 3576      696F7573 
 3576      00
 3577              	.LASF111:
 3578 0404 636F756E 		.ascii	"countAnimation2\000"
 3578      74416E69 
 3578      6D617469 
 3578      6F6E3200 
 3579              	.LASF67:
 3580 0414 746F7461 		.ascii	"totalMarket\000"
 3580      6C4D6172 
 3580      6B657400 
 3581              	.LASF43:
 3582 0420 74696D65 		.ascii	"timeDownHandle\000"
 3582      446F776E 
 3582      48616E64 
 3582      6C6500
 3583              	.LASF33:
 3584 042f 76656869 		.ascii	"vehicleType\000"
 3584      636C6554 
 3584      79706500 
 3585              	.LASF90:
 3586 043b 50554D50 		.ascii	"PUMP_CALLING\000"
 3586      5F43414C 
 3586      4C494E47 
 3586      00
 3587              	.LASF53:
 3588 0448 666C6167 		.ascii	"flagKeyboard\000"
 3588      4B657962 
 3588      6F617264 
 3588      00
 3589              	.LASF103:
 3590 0455 50756D70 		.ascii	"PumpCompleteConfiguration\000"
 3590      436F6D70 
 3590      6C657465 
 3590      436F6E66 
 3590      69677572 
 3591              	.LASF15:
 3592 046f 75696E74 		.ascii	"uint32\000"
 3592      333200
 3593              	.LASF91:
 3594 0476 50554D50 		.ascii	"PUMP_AUTHORIZED\000"
ARM GAS  C:\Users\RECEPC~1\AppData\Local\Temp\ccTEGtgN.s 			page 74


 3594      5F415554 
 3594      484F5249 
 3594      5A454400 
 3595              	.LASF143:
 3596 0486 666C6167 		.ascii	"flagResetMux\000"
 3596      52657365 
 3596      744D7578 
 3596      00
 3597              	.LASF166:
 3598 0493 50756D70 		.ascii	"PumpIsInValidState\000"
 3598      4973496E 
 3598      56616C69 
 3598      64537461 
 3598      746500
 3599              	.LASF49:
 3600 04a6 746F7461 		.ascii	"totalPPUAfter\000"
 3600      6C505055 
 3600      41667465 
 3600      7200
 3601              	.LASF30:
 3602 04b4 6B657962 		.ascii	"keyboardWayToPay\000"
 3602      6F617264 
 3602      57617954 
 3602      6F506179 
 3602      00
 3603              	.LASF129:
 3604 04c5 70707578 		.ascii	"ppux10\000"
 3604      313000
 3605              	.LASF44:
 3606 04cc 746F7461 		.ascii	"totalMoneyPrevious\000"
 3606      6C4D6F6E 
 3606      65795072 
 3606      6576696F 
 3606      757300
 3607              	.LASF122:
 3608 04df 666C6167 		.ascii	"flagPoint1\000"
 3608      506F696E 
 3608      743100
 3609              	.LASF28:
 3610 04ea 6D6F6E65 		.ascii	"moneySelectedSale\000"
 3610      7953656C 
 3610      65637465 
 3610      6453616C 
 3610      6500
 3611              	.LASF132:
 3612 04fc 73796D62 		.ascii	"symbols\000"
 3612      6F6C7300 
 3613              	.LASF50:
 3614 0504 6C696365 		.ascii	"licenceSale\000"
 3614      6E636553 
 3614      616C6500 
 3615              	.LASF69:
 3616 0510 70726963 		.ascii	"priceConsign\000"
 3616      65436F6E 
 3616      7369676E 
 3616      00
 3617              	.LASF2:
ARM GAS  C:\Users\RECEPC~1\AppData\Local\Temp\ccTEGtgN.s 			page 75


 3618 051d 73686F72 		.ascii	"short int\000"
 3618      7420696E 
 3618      7400
 3619              	.LASF6:
 3620 0527 6C6F6E67 		.ascii	"long int\000"
 3620      20696E74 
 3620      00
 3621              	.LASF150:
 3622 0530 566F6C44 		.ascii	"VolDec\000"
 3622      656300
 3623              	.LASF109:
 3624 0537 49544D5F 		.ascii	"ITM_RxBuffer\000"
 3624      52784275 
 3624      66666572 
 3624      00
 3625              	.LASF139:
 3626 0544 6C6F636B 		.ascii	"lockTurn\000"
 3626      5475726E 
 3626      00
 3627              	.LASF56:
 3628 054d 666C6167 		.ascii	"flagEndSale\000"
 3628      456E6453 
 3628      616C6500 
 3629              	.LASF40:
 3630 0559 64617465 		.ascii	"dateLiftHandle\000"
 3630      4C696674 
 3630      48616E64 
 3630      6C6500
 3631              	.LASF86:
 3632 0568 5F434F4E 		.ascii	"_CONTROL_WORDS_\000"
 3632      54524F4C 
 3632      5F574F52 
 3632      44535F00 
 3633              	.LASF156:
 3634 0578 62756666 		.ascii	"bufferDisplay2\000"
 3634      65724469 
 3634      73706C61 
 3634      793200
 3635              	.LASF157:
 3636 0587 62756666 		.ascii	"bufferDisplay3\000"
 3636      65724469 
 3636      73706C61 
 3636      793300
 3637              	.LASF158:
 3638 0596 62756666 		.ascii	"bufferDisplay4\000"
 3638      65724469 
 3638      73706C61 
 3638      793400
 3639              	.LASF4:
 3640 05a5 5F5F7569 		.ascii	"__uint8_t\000"
 3640      6E74385F 
 3640      7400
 3641              	.LASF142:
 3642 05af 70617373 		.ascii	"passwordSeller\000"
 3642      776F7264 
 3642      53656C6C 
 3642      657200
ARM GAS  C:\Users\RECEPC~1\AppData\Local\Temp\ccTEGtgN.s 			page 76


 3643              	.LASF48:
 3644 05be 746F7461 		.ascii	"totalVolumeAfter\000"
 3644      6C566F6C 
 3644      756D6541 
 3644      66746572 
 3644      00
 3645              	.LASF147:
 3646 05cf 556E6974 		.ascii	"UnitType\000"
 3646      54797065 
 3646      00
 3647              	.LASF18:
 3648 05d8 75696E74 		.ascii	"uint64\000"
 3648      363400
 3649              	.LASF127:
 3650 05df 64656C61 		.ascii	"delayPicture1\000"
 3650      79506963 
 3650      74757265 
 3650      3100
 3651              	.LASF128:
 3652 05ed 64656C61 		.ascii	"delayPicture2\000"
 3652      79506963 
 3652      74757265 
 3652      3200
 3653              	.LASF39:
 3654 05fb 73746174 		.ascii	"stateMux\000"
 3654      654D7578 
 3654      00
 3655              	.LASF21:
 3656 0604 73697A65 		.ascii	"sizetype\000"
 3656      74797065 
 3656      00
 3657              	.LASF7:
 3658 060d 6C6F6E67 		.ascii	"long unsigned int\000"
 3658      20756E73 
 3658      69676E65 
 3658      6420696E 
 3658      7400
 3659              	.LASF151:
 3660 061f 50505544 		.ascii	"PPUDec\000"
 3660      656300
 3661              	.LASF80:
 3662 0626 61637469 		.ascii	"activeHose\000"
 3662      7665486F 
 3662      736500
 3663              	.LASF68:
 3664 0631 666C6167 		.ascii	"flagProductmarket\000"
 3664      50726F64 
 3664      7563746D 
 3664      61726B65 
 3664      7400
 3665              	.LASF12:
 3666 0643 696E7433 		.ascii	"int32_t\000"
 3666      325F7400 
 3667              	.LASF84:
 3668 064b 5052446E 		.ascii	"PRDn\000"
 3668      00
 3669              	.LASF101:
ARM GAS  C:\Users\RECEPC~1\AppData\Local\Temp\ccTEGtgN.s 			page 77


 3670 0650 4765744C 		.ascii	"GetLRC\000"
 3670      524300
 3671              	.LASF64:
 3672 0657 7175616E 		.ascii	"quantAvailableMark\000"
 3672      74417661 
 3672      696C6162 
 3672      6C654D61 
 3672      726B00
 3673              	.LASF26:
 3674 066a 666C6167 		.ascii	"flagWayToPayMixed\000"
 3674      57617954 
 3674      6F506179 
 3674      4D697865 
 3674      6400
 3675              	.LASF1:
 3676 067c 756E7369 		.ascii	"unsigned char\000"
 3676      676E6564 
 3676      20636861 
 3676      7200
 3677              	.LASF159:
 3678 068a 50756D70 		.ascii	"Pump_PutChar\000"
 3678      5F507574 
 3678      43686172 
 3678      00
 3679              	.LASF163:
 3680 0697 474E5520 		.ascii	"GNU C 4.9.3 20150303 (release) [ARM/embedded-4_9-br"
 3680      4320342E 
 3680      392E3320 
 3680      32303135 
 3680      30333033 
 3681 06ca 616E6368 		.ascii	"anch revision 221220] -mcpu=cortex-m3 -mthumb -g -O"
 3681      20726576 
 3681      6973696F 
 3681      6E203232 
 3681      31323230 
 3682 06fd 67202D66 		.ascii	"g -ffunction-sections -ffat-lto-objects\000"
 3682      66756E63 
 3682      74696F6E 
 3682      2D736563 
 3682      74696F6E 
 3683              	.LASF31:
 3684 0725 61757468 		.ascii	"authorizationFlag\000"
 3684      6F72697A 
 3684      6174696F 
 3684      6E466C61 
 3684      6700
 3685              	.LASF65:
 3686 0737 70726963 		.ascii	"priceTotalMarket\000"
 3686      65546F74 
 3686      616C4D61 
 3686      726B6574 
 3686      00
 3687              	.LASF140:
 3688 0748 69645365 		.ascii	"idSeller\000"
 3688      6C6C6572 
 3688      00
 3689              	.LASF82:
ARM GAS  C:\Users\RECEPC~1\AppData\Local\Temp\ccTEGtgN.s 			page 78


 3690 0751 70756D70 		.ascii	"pump\000"
 3690      00
 3691              	.LASF93:
 3692 0756 50554D50 		.ascii	"PUMP_PEOT\000"
 3692      5F50454F 
 3692      5400
 3693              	.LASF165:
 3694 0760 433A5C55 		.ascii	"C:\\Users\\Recepcion\\Documents\\GitHub\\NSY-DH\\Wo"
 3694      73657273 
 3694      5C526563 
 3694      65706369 
 3694      6F6E5C44 
 3695 078d 726B7370 		.ascii	"rkspace01\\Design01.cydsn\000"
 3695      61636530 
 3695      315C4465 
 3695      7369676E 
 3695      30312E63 
 3696              	.LASF137:
 3697 07a6 74656D70 		.ascii	"temporal\000"
 3697      6F72616C 
 3697      00
 3698              	.LASF98:
 3699 07af 73746174 		.ascii	"state\000"
 3699      6500
 3700              	.LASF36:
 3701 07b5 70726573 		.ascii	"presetType\000"
 3701      65745479 
 3701      706500
 3702              	.LASF66:
 3703 07c0 70726963 		.ascii	"priceUnitMarket\000"
 3703      65556E69 
 3703      744D6172 
 3703      6B657400 
 3704              	.LASF141:
 3705 07d0 74797065 		.ascii	"typeIdSeller\000"
 3705      49645365 
 3705      6C6C6572 
 3705      00
 3706              	.LASF77:
 3707 07dd 766F6C75 		.ascii	"volumeSale\000"
 3707      6D655361 
 3707      6C6500
 3708              	.LASF0:
 3709 07e8 7369676E 		.ascii	"signed char\000"
 3709      65642063 
 3709      68617200 
 3710              	.LASF3:
 3711 07f4 73686F72 		.ascii	"short unsigned int\000"
 3711      7420756E 
 3711      7369676E 
 3711      65642069 
 3711      6E7400
 3712              	.LASF113:
 3713 0807 636F756E 		.ascii	"countPump\000"
 3713      7450756D 
 3713      7000
 3714              	.LASF79:
ARM GAS  C:\Users\RECEPC~1\AppData\Local\Temp\ccTEGtgN.s 			page 79


 3715 0811 70726F64 		.ascii	"productSale\000"
 3715      75637453 
 3715      616C6500 
 3716              	.LASF13:
 3717 081d 75696E74 		.ascii	"uint8\000"
 3717      3800
 3718              	.LASF17:
 3719 0823 646F7562 		.ascii	"double\000"
 3719      6C6500
 3720              	.LASF25:
 3721 082a 77617954 		.ascii	"wayToPay\000"
 3721      6F506179 
 3721      00
 3722              	.LASF102:
 3723 0833 5F706275 		.ascii	"_pbuffer\000"
 3723      66666572 
 3723      00
 3724              	.LASF42:
 3725 083c 74696D65 		.ascii	"timeLiftHandle\000"
 3725      4C696674 
 3725      48616E64 
 3725      6C6500
 3726              	.LASF75:
 3727 084b 70707541 		.ascii	"ppuAuthorized\000"
 3727      7574686F 
 3727      72697A65 
 3727      6400
 3728              	.LASF29:
 3729 0859 73657269 		.ascii	"serialSelectedSale\000"
 3729      616C5365 
 3729      6C656374 
 3729      65645361 
 3729      6C6500
 3730              	.LASF73:
 3731 086c 706F7369 		.ascii	"position\000"
 3731      74696F6E 
 3731      00
 3732              	.LASF155:
 3733 0875 62756666 		.ascii	"bufferDisplay1\000"
 3733      65724469 
 3733      73706C61 
 3733      793100
 3734              		.ident	"GCC: (GNU Tools for ARM Embedded Processors) 4.9.3 20150303 (release) [ARM/embedded-4_9-br
