ARM GAS  C:\Users\RECEPC~1\AppData\Local\Temp\ccdPVhXF.s 			page 1


   1              		.syntax unified
   2              		.cpu cortex-m3
   3              		.fpu softvfp
   4              		.eabi_attribute 20, 1
   5              		.eabi_attribute 21, 1
   6              		.eabi_attribute 23, 3
   7              		.eabi_attribute 24, 1
   8              		.eabi_attribute 25, 1
   9              		.eabi_attribute 26, 1
  10              		.eabi_attribute 30, 1
  11              		.eabi_attribute 34, 1
  12              		.eabi_attribute 18, 4
  13              		.thumb
  14              		.file	"protocol.c"
  15              		.text
  16              	.Ltext0:
  17              		.cfi_sections	.debug_frame
  18              		.section	.text.get_state,"ax",%progbits
  19              		.align	2
  20              		.global	get_state
  21              		.thumb
  22              		.thumb_func
  23              		.type	get_state, %function
  24              	get_state:
  25              	.LFB63:
  26              		.file 1 ".\\protocol.c"
   1:.\protocol.c  **** /*
   2:.\protocol.c  **** ***************************************************************************************************
   3:.\protocol.c  **** *                                         MUX ADVANCE CODE
   4:.\protocol.c  **** *
   5:.\protocol.c  **** *                             (c) Copyright 2016; Sistemas Insepet LTDA
   6:.\protocol.c  **** *
   7:.\protocol.c  **** *               All rights reserved.  Protected by international copyright laws.
   8:.\protocol.c  **** *               Knowledge of the source code may NOT be used to develop a similar product.
   9:.\protocol.c  **** *               Please help us continue to provide the Embedded community with the finest
  10:.\protocol.c  **** *               software available.  Your honesty is greatly appreciated.
  11:.\protocol.c  **** ***************************************************************************************************
  12:.\protocol.c  **** */
  13:.\protocol.c  **** 
  14:.\protocol.c  **** /*
  15:.\protocol.c  **** ***************************************************************************************************
  16:.\protocol.c  **** *
  17:.\protocol.c  **** *                                             MUX ADVANCE CODE
  18:.\protocol.c  **** *
  19:.\protocol.c  **** *                                             CYPRESS PSoC5LP
  20:.\protocol.c  **** *                                                with the
  21:.\protocol.c  **** *                                            CY8C5969AXI-LP035
  22:.\protocol.c  **** *
  23:.\protocol.c  **** * Filename      : protocol.c
  24:.\protocol.c  **** * Version       : V1.00
  25:.\protocol.c  **** * Programmer(s) : 
  26:.\protocol.c  ****                   
  27:.\protocol.c  **** ***************************************************************************************************
  28:.\protocol.c  **** */
  29:.\protocol.c  **** 
  30:.\protocol.c  **** 
  31:.\protocol.c  **** /*
ARM GAS  C:\Users\RECEPC~1\AppData\Local\Temp\ccdPVhXF.s 			page 2


  32:.\protocol.c  **** ***************************************************************************************************
  33:.\protocol.c  **** *                                             INCLUDE FILES
  34:.\protocol.c  **** ***************************************************************************************************
  35:.\protocol.c  **** */
  36:.\protocol.c  **** #include <device.h>
  37:.\protocol.c  **** #include <variables.h>
  38:.\protocol.c  **** #include <stdbool.h>
  39:.\protocol.c  **** uint8_t GetLRC(char8 *_pbuffer);
  40:.\protocol.c  **** /*
  41:.\protocol.c  **** ***************************************************************************************************
  42:.\protocol.c  **** *                                    uint8 get_state(uint8 pos)
  43:.\protocol.c  **** *
  44:.\protocol.c  **** * Description : 
  45:.\protocol.c  **** *               
  46:.\protocol.c  **** *
  47:.\protocol.c  **** * Argument(s) : none
  48:.\protocol.c  **** *
  49:.\protocol.c  **** * Return(s)   : none
  50:.\protocol.c  **** *
  51:.\protocol.c  **** * Caller(s)   : 
  52:.\protocol.c  **** *
  53:.\protocol.c  **** * Note(s)     : none.
  54:.\protocol.c  **** ***************************************************************************************************
  55:.\protocol.c  **** */
  56:.\protocol.c  **** 
  57:.\protocol.c  **** uint8 get_state(uint8 pos){
  27              		.loc 1 57 0
  28              		.cfi_startproc
  29              		@ args = 0, pretend = 0, frame = 0
  30              		@ frame_needed = 0, uses_anonymous_args = 0
  31              	.LVL0:
  32 0000 10B5     		push	{r4, lr}
  33              		.cfi_def_cfa_offset 8
  34              		.cfi_offset 4, -8
  35              		.cfi_offset 14, -4
  36 0002 0446     		mov	r4, r0
  58:.\protocol.c  ****     uint8 state;
  59:.\protocol.c  ****     Pump_ClearRxBuffer();
  37              		.loc 1 59 0
  38 0004 FFF7FEFF 		bl	Pump_ClearRxBuffer
  39              	.LVL1:
  60:.\protocol.c  ****     Pump_PutChar(pos);
  40              		.loc 1 60 0
  41 0008 2046     		mov	r0, r4
  42 000a FFF7FEFF 		bl	Pump_PutChar
  43              	.LVL2:
  61:.\protocol.c  ****     CyDelay(60);
  44              		.loc 1 61 0
  45 000e 3C20     		movs	r0, #60
  46 0010 FFF7FEFF 		bl	CyDelay
  47              	.LVL3:
  62:.\protocol.c  ****     if(Pump_GetRxBufferSize()>=1){
  48              		.loc 1 62 0
  49 0014 FFF7FEFF 		bl	Pump_GetRxBufferSize
  50              	.LVL4:
  51 0018 38B1     		cbz	r0, .L3
  63:.\protocol.c  ****         state=(Pump_ReadRxData()&0xF0)>>4;
ARM GAS  C:\Users\RECEPC~1\AppData\Local\Temp\ccdPVhXF.s 			page 3


  52              		.loc 1 63 0
  53 001a FFF7FEFF 		bl	Pump_ReadRxData
  54              	.LVL5:
  55 001e C0F30714 		ubfx	r4, r0, #4, #8
  56              	.LVL6:
  64:.\protocol.c  ****         //state = Pump_ReadRxData();
  65:.\protocol.c  ****         Pump_ClearRxBuffer();
  57              		.loc 1 65 0
  58 0022 FFF7FEFF 		bl	Pump_ClearRxBuffer
  59              	.LVL7:
  66:.\protocol.c  ****         return state;
  60              		.loc 1 66 0
  61 0026 2046     		mov	r0, r4
  62 0028 10BD     		pop	{r4, pc}
  63              	.LVL8:
  64              	.L3:
  67:.\protocol.c  ****     }
  68:.\protocol.c  ****     else{
  69:.\protocol.c  ****         return 0;
  65              		.loc 1 69 0
  66 002a 0020     		movs	r0, #0
  70:.\protocol.c  ****     }
  71:.\protocol.c  **** }
  67              		.loc 1 71 0
  68 002c 10BD     		pop	{r4, pc}
  69              		.cfi_endproc
  70              	.LFE63:
  71              		.size	get_state, .-get_state
  72 002e 00BF     		.section	.text.get_position,"ax",%progbits
  73              		.align	2
  74              		.global	get_position
  75              		.thumb
  76              		.thumb_func
  77              		.type	get_position, %function
  78              	get_position:
  79              	.LFB64:
  72:.\protocol.c  **** 
  73:.\protocol.c  **** /*
  74:.\protocol.c  **** ***************************************************************************************************
  75:.\protocol.c  **** *                                         uint8 get_position(void)
  76:.\protocol.c  **** *
  77:.\protocol.c  **** * Description : 
  78:.\protocol.c  **** *               
  79:.\protocol.c  **** *
  80:.\protocol.c  **** * Argument(s) : none
  81:.\protocol.c  **** *
  82:.\protocol.c  **** * Return(s)   : none
  83:.\protocol.c  **** *
  84:.\protocol.c  **** * Caller(s)   : 
  85:.\protocol.c  **** *
  86:.\protocol.c  **** * Note(s)     : none.
  87:.\protocol.c  **** ***************************************************************************************************
  88:.\protocol.c  **** */
  89:.\protocol.c  **** uint8 get_position(void){
  80              		.loc 1 89 0
  81              		.cfi_startproc
  82              		@ args = 0, pretend = 0, frame = 0
ARM GAS  C:\Users\RECEPC~1\AppData\Local\Temp\ccdPVhXF.s 			page 4


  83              		@ frame_needed = 0, uses_anonymous_args = 0
  84 0000 10B5     		push	{r4, lr}
  85              		.cfi_def_cfa_offset 8
  86              		.cfi_offset 4, -8
  87              		.cfi_offset 14, -4
  90:.\protocol.c  ****     uint8 x;            
  91:.\protocol.c  ****     side.a.dir=0xff;
  88              		.loc 1 91 0
  89 0002 464B     		ldr	r3, .L20
  90 0004 FF22     		movs	r2, #255
  91 0006 1A70     		strb	r2, [r3]
  92:.\protocol.c  ****     side.b.dir=0xff;
  92              		.loc 1 92 0
  93 0008 83F80321 		strb	r2, [r3, #259]
  93:.\protocol.c  ****     side.c.dir=0xff;
  94              		.loc 1 93 0
  95 000c 83F80622 		strb	r2, [r3, #518]
  94:.\protocol.c  ****     side.d.dir=0xff;
  96              		.loc 1 94 0
  97 0010 83F80923 		strb	r2, [r3, #777]
  98              	.LVL9:
  95:.\protocol.c  ****     for(x=1;x<=16;x++){
  99              		.loc 1 95 0
 100 0014 0124     		movs	r4, #1
 101 0016 54E0     		b	.L6
 102              	.LVL10:
 103              	.L11:
  96:.\protocol.c  ****         Pump_PutChar(x);
 104              		.loc 1 96 0
 105 0018 2046     		mov	r0, r4
 106 001a FFF7FEFF 		bl	Pump_PutChar
 107              	.LVL11:
  97:.\protocol.c  ****         CyDelay(100);           
 108              		.loc 1 97 0
 109 001e 6420     		movs	r0, #100
 110 0020 FFF7FEFF 		bl	CyDelay
 111              	.LVL12:
  98:.\protocol.c  ****         
  99:.\protocol.c  ****         if((Pump_GetRxBufferSize()>=1)&&(side.a.dir==0xff)){
 112              		.loc 1 99 0
 113 0024 FFF7FEFF 		bl	Pump_GetRxBufferSize
 114              	.LVL13:
 115 0028 38B1     		cbz	r0, .L7
 116              		.loc 1 99 0 is_stmt 0 discriminator 1
 117 002a 3C4B     		ldr	r3, .L20
 118 002c 1B78     		ldrb	r3, [r3]	@ zero_extendqisi2
 119 002e FF2B     		cmp	r3, #255
 120 0030 03D1     		bne	.L7
 100:.\protocol.c  ****            side.a.dir=x;	
 121              		.loc 1 100 0 is_stmt 1
 122 0032 3A4B     		ldr	r3, .L20
 123 0034 1C70     		strb	r4, [r3]
 101:.\protocol.c  ****            Pump_ClearRxBuffer();
 124              		.loc 1 101 0
 125 0036 FFF7FEFF 		bl	Pump_ClearRxBuffer
 126              	.LVL14:
 127              	.L7:
ARM GAS  C:\Users\RECEPC~1\AppData\Local\Temp\ccdPVhXF.s 			page 5


 102:.\protocol.c  ****         }
 103:.\protocol.c  ****         if((Pump_GetRxBufferSize()>=1)&&(x!=side.a.dir)&&(side.b.dir==0xff)){
 128              		.loc 1 103 0
 129 003a FFF7FEFF 		bl	Pump_GetRxBufferSize
 130              	.LVL15:
 131 003e 68B1     		cbz	r0, .L8
 132              		.loc 1 103 0 is_stmt 0 discriminator 1
 133 0040 364B     		ldr	r3, .L20
 134 0042 1B78     		ldrb	r3, [r3]	@ zero_extendqisi2
 135 0044 A342     		cmp	r3, r4
 136 0046 09D0     		beq	.L8
 137              		.loc 1 103 0 discriminator 2
 138 0048 344B     		ldr	r3, .L20
 139 004a 93F80331 		ldrb	r3, [r3, #259]	@ zero_extendqisi2
 140 004e FF2B     		cmp	r3, #255
 141 0050 04D1     		bne	.L8
 104:.\protocol.c  ****            side.b.dir=x;
 142              		.loc 1 104 0 is_stmt 1
 143 0052 324B     		ldr	r3, .L20
 144 0054 83F80341 		strb	r4, [r3, #259]
 105:.\protocol.c  ****            Pump_ClearRxBuffer();
 145              		.loc 1 105 0
 146 0058 FFF7FEFF 		bl	Pump_ClearRxBuffer
 147              	.LVL16:
 148              	.L8:
 106:.\protocol.c  ****         }
 107:.\protocol.c  ****         if((Pump_GetRxBufferSize()>=1)&&(x!=side.a.dir)&&(x!=side.b.dir)&&(side.c.dir==0xff)){
 149              		.loc 1 107 0
 150 005c FFF7FEFF 		bl	Pump_GetRxBufferSize
 151              	.LVL17:
 152 0060 90B1     		cbz	r0, .L9
 153              		.loc 1 107 0 is_stmt 0 discriminator 1
 154 0062 2E4B     		ldr	r3, .L20
 155 0064 1B78     		ldrb	r3, [r3]	@ zero_extendqisi2
 156 0066 A342     		cmp	r3, r4
 157 0068 0ED0     		beq	.L9
 158              		.loc 1 107 0 discriminator 2
 159 006a 2C4B     		ldr	r3, .L20
 160 006c 93F80331 		ldrb	r3, [r3, #259]	@ zero_extendqisi2
 161 0070 A342     		cmp	r3, r4
 162 0072 09D0     		beq	.L9
 163              		.loc 1 107 0 discriminator 3
 164 0074 294B     		ldr	r3, .L20
 165 0076 93F80632 		ldrb	r3, [r3, #518]	@ zero_extendqisi2
 166 007a FF2B     		cmp	r3, #255
 167 007c 04D1     		bne	.L9
 108:.\protocol.c  ****            side.c.dir=x;
 168              		.loc 1 108 0 is_stmt 1
 169 007e 274B     		ldr	r3, .L20
 170 0080 83F80642 		strb	r4, [r3, #518]
 109:.\protocol.c  ****            Pump_ClearRxBuffer();
 171              		.loc 1 109 0
 172 0084 FFF7FEFF 		bl	Pump_ClearRxBuffer
 173              	.LVL18:
 174              	.L9:
 110:.\protocol.c  ****         }
 111:.\protocol.c  ****         if((Pump_GetRxBufferSize()>=1)&&(x!=side.a.dir)&&(x!=side.b.dir)&&(x!=side.c.dir)&&(side.d.
ARM GAS  C:\Users\RECEPC~1\AppData\Local\Temp\ccdPVhXF.s 			page 6


 175              		.loc 1 111 0
 176 0088 FFF7FEFF 		bl	Pump_GetRxBufferSize
 177              	.LVL19:
 178 008c B8B1     		cbz	r0, .L10
 179              		.loc 1 111 0 is_stmt 0 discriminator 1
 180 008e 234B     		ldr	r3, .L20
 181 0090 1B78     		ldrb	r3, [r3]	@ zero_extendqisi2
 182 0092 A342     		cmp	r3, r4
 183 0094 13D0     		beq	.L10
 184              		.loc 1 111 0 discriminator 2
 185 0096 214B     		ldr	r3, .L20
 186 0098 93F80331 		ldrb	r3, [r3, #259]	@ zero_extendqisi2
 187 009c A342     		cmp	r3, r4
 188 009e 0ED0     		beq	.L10
 189              		.loc 1 111 0 discriminator 3
 190 00a0 1E4B     		ldr	r3, .L20
 191 00a2 93F80632 		ldrb	r3, [r3, #518]	@ zero_extendqisi2
 192 00a6 A342     		cmp	r3, r4
 193 00a8 09D0     		beq	.L10
 194              		.loc 1 111 0 discriminator 4
 195 00aa 1C4B     		ldr	r3, .L20
 196 00ac 93F80933 		ldrb	r3, [r3, #777]	@ zero_extendqisi2
 197 00b0 FF2B     		cmp	r3, #255
 198 00b2 04D1     		bne	.L10
 112:.\protocol.c  ****            side.d.dir=x;
 199              		.loc 1 112 0 is_stmt 1
 200 00b4 194B     		ldr	r3, .L20
 201 00b6 83F80943 		strb	r4, [r3, #777]
 113:.\protocol.c  ****            Pump_ClearRxBuffer();
 202              		.loc 1 113 0
 203 00ba FFF7FEFF 		bl	Pump_ClearRxBuffer
 204              	.LVL20:
 205              	.L10:
  95:.\protocol.c  ****         Pump_PutChar(x);
 206              		.loc 1 95 0 discriminator 2
 207 00be 0134     		adds	r4, r4, #1
 208              	.LVL21:
 209 00c0 E4B2     		uxtb	r4, r4
 210              	.LVL22:
 211              	.L6:
  95:.\protocol.c  ****         Pump_PutChar(x);
 212              		.loc 1 95 0 is_stmt 0 discriminator 1
 213 00c2 102C     		cmp	r4, #16
 214 00c4 A8D9     		bls	.L11
 114:.\protocol.c  ****         }
 115:.\protocol.c  ****                         
 116:.\protocol.c  ****     }
 117:.\protocol.c  ****     if((side.a.dir!=0xff)&&(side.b.dir!=0xff)&&(side.c.dir!=0xff)&&(side.d.dir!=0xff)){
 215              		.loc 1 117 0 is_stmt 1
 216 00c6 154B     		ldr	r3, .L20
 217 00c8 1B78     		ldrb	r3, [r3]	@ zero_extendqisi2
 218 00ca FF2B     		cmp	r3, #255
 219 00cc 0ED0     		beq	.L12
 220              		.loc 1 117 0 is_stmt 0 discriminator 1
 221 00ce 134A     		ldr	r2, .L20
 222 00d0 92F80321 		ldrb	r2, [r2, #259]	@ zero_extendqisi2
 223 00d4 FF2A     		cmp	r2, #255
ARM GAS  C:\Users\RECEPC~1\AppData\Local\Temp\ccdPVhXF.s 			page 7


 224 00d6 09D0     		beq	.L12
 225              		.loc 1 117 0 discriminator 2
 226 00d8 104A     		ldr	r2, .L20
 227 00da 92F80622 		ldrb	r2, [r2, #518]	@ zero_extendqisi2
 228 00de FF2A     		cmp	r2, #255
 229 00e0 04D0     		beq	.L12
 230              		.loc 1 117 0 discriminator 3
 231 00e2 0E4A     		ldr	r2, .L20
 232 00e4 92F80923 		ldrb	r2, [r2, #777]	@ zero_extendqisi2
 233 00e8 FF2A     		cmp	r2, #255
 234 00ea 0FD1     		bne	.L15
 235              	.L12:
 118:.\protocol.c  ****         return 4;
 119:.\protocol.c  ****     }
 120:.\protocol.c  ****     if((side.a.dir!=0xff)&&(side.b.dir!=0xff)){
 236              		.loc 1 120 0 is_stmt 1
 237 00ec FF2B     		cmp	r3, #255
 238 00ee 04D0     		beq	.L14
 239              		.loc 1 120 0 is_stmt 0 discriminator 1
 240 00f0 0A4A     		ldr	r2, .L20
 241 00f2 92F80321 		ldrb	r2, [r2, #259]	@ zero_extendqisi2
 242 00f6 FF2A     		cmp	r2, #255
 243 00f8 0AD1     		bne	.L16
 244              	.L14:
 121:.\protocol.c  ****         return 2;
 122:.\protocol.c  ****     }
 123:.\protocol.c  ****     else{
 124:.\protocol.c  ****         if((side.a.dir!=0xff)||(side.b.dir!=0xff)){
 245              		.loc 1 124 0 is_stmt 1
 246 00fa FF2B     		cmp	r3, #255
 247 00fc 0AD1     		bne	.L17
 248              		.loc 1 124 0 is_stmt 0 discriminator 1
 249 00fe 074B     		ldr	r3, .L20
 250 0100 93F80331 		ldrb	r3, [r3, #259]	@ zero_extendqisi2
 251 0104 FF2B     		cmp	r3, #255
 252 0106 07D0     		beq	.L18
 125:.\protocol.c  ****             return 1;
 253              		.loc 1 125 0 is_stmt 1
 254 0108 0120     		movs	r0, #1
 255 010a 10BD     		pop	{r4, pc}
 256              	.LVL23:
 257              	.L15:
 118:.\protocol.c  ****         return 4;
 258              		.loc 1 118 0
 259 010c 0420     		movs	r0, #4
 260 010e 10BD     		pop	{r4, pc}
 261              	.LVL24:
 262              	.L16:
 121:.\protocol.c  ****         return 2;
 263              		.loc 1 121 0
 264 0110 0220     		movs	r0, #2
 265 0112 10BD     		pop	{r4, pc}
 266              	.LVL25:
 267              	.L17:
 268              		.loc 1 125 0
 269 0114 0120     		movs	r0, #1
 270 0116 10BD     		pop	{r4, pc}
ARM GAS  C:\Users\RECEPC~1\AppData\Local\Temp\ccdPVhXF.s 			page 8


 271              	.LVL26:
 272              	.L18:
 126:.\protocol.c  ****         }
 127:.\protocol.c  ****         else{
 128:.\protocol.c  ****             return 0;
 273              		.loc 1 128 0
 274 0118 0020     		movs	r0, #0
 129:.\protocol.c  ****         }
 130:.\protocol.c  ****     }
 131:.\protocol.c  **** }
 275              		.loc 1 131 0
 276 011a 10BD     		pop	{r4, pc}
 277              	.LVL27:
 278              	.L21:
 279              		.align	2
 280              	.L20:
 281 011c 00000000 		.word	side
 282              		.cfi_endproc
 283              	.LFE64:
 284              		.size	get_position, .-get_position
 285              		.section	.text.getSale,"ax",%progbits
 286              		.align	2
 287              		.global	getSale
 288              		.thumb
 289              		.thumb_func
 290              		.type	getSale, %function
 291              	getSale:
 292              	.LFB68:
 132:.\protocol.c  **** /*
 133:.\protocol.c  **** ***************************************************************************************************
 134:.\protocol.c  **** *                  uint8 preset_data(uint8 pos, uint8 grade, uint8 *value, uint8 preset)
 135:.\protocol.c  **** *
 136:.\protocol.c  **** * Description : 
 137:.\protocol.c  **** *               
 138:.\protocol.c  **** *
 139:.\protocol.c  **** * Argument(s) : none
 140:.\protocol.c  **** *
 141:.\protocol.c  **** * Return(s)   : none
 142:.\protocol.c  **** *
 143:.\protocol.c  **** * Caller(s)   : 
 144:.\protocol.c  **** *
 145:.\protocol.c  **** * Note(s)     : none.
 146:.\protocol.c  **** ***************************************************************************************************
 147:.\protocol.c  **** */
 148:.\protocol.c  **** uint8 PresetData(uint8 side, char8 grade, uint8 *value, uint8 preset){
 149:.\protocol.c  ****     char8 SendComand[18]={0,0,0,0,0,0,0,0,0,0,0,0,0,0,0,0,0,0},decimal;
 150:.\protocol.c  ****     uint8 state,x,y,z;
 151:.\protocol.c  ****     char8 PumpDataReceive =0;    
 152:.\protocol.c  ****     x = 0;
 153:.\protocol.c  ****     z = 0;
 154:.\protocol.c  ****     state = get_state(side);
 155:.\protocol.c  ****     if(state == 0x06 || state == 0x07){
 156:.\protocol.c  ****         Pump_PutChar(0x20|side);
 157:.\protocol.c  ****         CyDelay(50);
 158:.\protocol.c  ****         PumpDataReceive = Pump_ReadRxData();
 159:.\protocol.c  ****     }
 160:.\protocol.c  ****     Pump_ClearRxBuffer();
ARM GAS  C:\Users\RECEPC~1\AppData\Local\Temp\ccdPVhXF.s 			page 9


 161:.\protocol.c  ****     Pump_ClearRxBuffer();
 162:.\protocol.c  ****     if(PumpDataReceive == (0xd0|side)){
 163:.\protocol.c  ****         SendComand[x] = SOM; x++;
 164:.\protocol.c  ****         SendComand[x] = 0xE1; x++;
 165:.\protocol.c  ****         if(side == 1){
 166:.\protocol.c  ****             SendComand[x] = 0xF0 | (bufferDisplay1.presetType[0]&0x0F); x++;
 167:.\protocol.c  ****             SendComand[x] = 0xF6; x++;
 168:.\protocol.c  ****             SendComand[x] = 0xE0 | ((grade-1)&0x0F); x++;
 169:.\protocol.c  ****             SendComand[x] = PRDn; x++;
 170:.\protocol.c  ****             if(bufferDisplay1.presetType[1] == 'F'){
 171:.\protocol.c  ****                 for(y = x; y < digits+x; y ++ ){
 172:.\protocol.c  ****                     SendComand[y] = 0xE9;                    
 173:.\protocol.c  ****                 }                
 174:.\protocol.c  ****                 x = y;
 175:.\protocol.c  ****                 for(y = x; y < 14; y ++ ){
 176:.\protocol.c  ****                     SendComand[y] = 0xE0;
 177:.\protocol.c  ****                     x++;
 178:.\protocol.c  ****                 }                
 179:.\protocol.c  ****             }
 180:.\protocol.c  ****             if(bufferDisplay1.presetType[1] == 'D'){
 181:.\protocol.c  ****                 z = value[0];
 182:.\protocol.c  ****                 for(y = x; y < value[0]+x; y ++ ){
 183:.\protocol.c  ****                     SendComand[y] = 0xE0|(value[z]&0x0F); z--;                    
 184:.\protocol.c  ****                 }                
 185:.\protocol.c  ****                 x = y;
 186:.\protocol.c  ****                 for(y = x; y < 14; y ++ ){
 187:.\protocol.c  ****                     SendComand[y] = 0xE0;
 188:.\protocol.c  ****                     x++;
 189:.\protocol.c  ****                 }                
 190:.\protocol.c  ****             }
 191:.\protocol.c  ****             if(bufferDisplay1.presetType[1] == 'V'){
 192:.\protocol.c  ****                 z = value[0];
 193:.\protocol.c  ****                 for(y = x; y < value[0]+x; y ++ ){
 194:.\protocol.c  ****                     SendComand[y] = 0xE0|(value[z]&0x0F); z--;                    
 195:.\protocol.c  ****                 }                
 196:.\protocol.c  ****                 x = y;
 197:.\protocol.c  ****                 for(y = x; y < 14; y ++ ){
 198:.\protocol.c  ****                     SendComand[y] = 0xE0;
 199:.\protocol.c  ****                     x++;
 200:.\protocol.c  ****                 }                
 201:.\protocol.c  ****             }
 202:.\protocol.c  ****             SendComand[x] = 0xFB;  x++;
 203:.\protocol.c  ****             SendComand[x] = GetLRC(SendComand);  x++;
 204:.\protocol.c  ****             SendComand[x] = (EOM);
 205:.\protocol.c  ****             for(y=0; y<=x;y++){
 206:.\protocol.c  ****                 Pump_PutChar(SendComand[y]);
 207:.\protocol.c  ****             } 
 208:.\protocol.c  ****             CyDelay(50);
 209:.\protocol.c  ****             return 1;
 210:.\protocol.c  ****         }
 211:.\protocol.c  ****     }
 212:.\protocol.c  ****     return 0;
 213:.\protocol.c  **** }
 214:.\protocol.c  **** 
 215:.\protocol.c  **** 
 216:.\protocol.c  **** 
 217:.\protocol.c  **** uint8 PumpCompleteConfiguration( uint8 side){   
ARM GAS  C:\Users\RECEPC~1\AppData\Local\Temp\ccdPVhXF.s 			page 10


 218:.\protocol.c  ****     uint8 state,x;
 219:.\protocol.c  ****     char8 SendComand[9];
 220:.\protocol.c  ****     char8 PumpDataReceive =0;    
 221:.\protocol.c  ****     
 222:.\protocol.c  ****     uint8 BufferSize = 0;
 223:.\protocol.c  **** ///////////////////////////////////////////////////////////////////////////////////////////////////
 224:.\protocol.c  ****     state = get_state(side);
 225:.\protocol.c  ****     if(state == 0x06){
 226:.\protocol.c  ****         Pump_PutChar(0x20|side);
 227:.\protocol.c  ****         CyDelay(50);
 228:.\protocol.c  ****         PumpDataReceive = Pump_ReadRxData();
 229:.\protocol.c  ****     }
 230:.\protocol.c  ****     Pump_ClearRxBuffer();
 231:.\protocol.c  ****     if(PumpDataReceive == (0xd0|side)){    
 232:.\protocol.c  ****         SendComand[0] = SOM; //Start Of Message    
 233:.\protocol.c  ****         SendComand[1] = (0xE9);//Data Length
 234:.\protocol.c  ****         SendComand[2] = (0xFE);//Special Functions Next (0xB0 0xB0 0xBE)
 235:.\protocol.c  ****         SendComand[3] = (0xEE);//Complete Pump Configuration Request (sf1)
 236:.\protocol.c  ****         SendComand[4] = (0xE0);//Complete Pump Configuration Request (sf2)
 237:.\protocol.c  ****         SendComand[5] = (0xE0);//Complete Pump Configuration Request (sf3)
 238:.\protocol.c  ****         SendComand[6] = (0xFB);
 239:.\protocol.c  ****         SendComand[7] = GetLRC(SendComand);
 240:.\protocol.c  ****         SendComand[8] = (EOM);
 241:.\protocol.c  ****         for(x=0; x<=8;x++){
 242:.\protocol.c  ****             Pump_PutChar(SendComand[x]);
 243:.\protocol.c  ****         } 
 244:.\protocol.c  ****         CyDelay(200);
 245:.\protocol.c  ****     }
 246:.\protocol.c  ****     BufferSize =Pump_GetRxBufferSize();
 247:.\protocol.c  ****     char8 buffer[BufferSize];
 248:.\protocol.c  ****     for(x=0;x<=BufferSize;x++){
 249:.\protocol.c  ****        buffer[x]=Pump_ReadRxData(); 
 250:.\protocol.c  ****     }
 251:.\protocol.c  ****     Pump_ClearRxBuffer();
 252:.\protocol.c  **** ///////////////////////////////////////////////////////////////////////////////////////////////////
 253:.\protocol.c  ****     UnitType            =  buffer [10] &0x0F;
 254:.\protocol.c  ****     ConversionFactor    =  buffer [12] &0x0F;
 255:.\protocol.c  ****     MoneyDec            = (buffer [14] &0x0F)-1;
 256:.\protocol.c  ****     if( (buffer [16]&0x0F) == 1 || (buffer [16]&0x0F) == 4){
 257:.\protocol.c  ****         VolDec              = 3;
 258:.\protocol.c  ****     }
 259:.\protocol.c  ****     if( (buffer [16]&0x0F) == 3 || (buffer [16]&0x0F) == 0){
 260:.\protocol.c  ****         VolDec              = 2;
 261:.\protocol.c  ****     }
 262:.\protocol.c  ****     if( (buffer [16]&0x0F) == 2){
 263:.\protocol.c  ****         VolDec              = 1;
 264:.\protocol.c  ****     }
 265:.\protocol.c  ****     PPUDec              = (buffer [18]&0x0F)-1;
 266:.\protocol.c  ****     DDMode              =  buffer [20] &0x0F;
 267:.\protocol.c  ****     
 268:.\protocol.c  ****     return 0;
 269:.\protocol.c  **** } 
 270:.\protocol.c  **** 
 271:.\protocol.c  **** uint8 PumpHoseActiveState(uint8 side){       
 272:.\protocol.c  ****     uint8 state,x;
 273:.\protocol.c  ****     char8 SendComand[9];
 274:.\protocol.c  ****     char8 PumpDataReceive =0;    
ARM GAS  C:\Users\RECEPC~1\AppData\Local\Temp\ccdPVhXF.s 			page 11


 275:.\protocol.c  ****     
 276:.\protocol.c  ****     uint8 BufferSize = 0;
 277:.\protocol.c  **** ///////////////////////////////////////////////////////////////////////////////////////////////////
 278:.\protocol.c  ****     state = get_state(side);
 279:.\protocol.c  ****     if(state == PUMP_IDLE || state == PUMP_CALLING){
 280:.\protocol.c  ****         Pump_PutChar(0x20|side);
 281:.\protocol.c  ****         CyDelay(50);
 282:.\protocol.c  ****         PumpDataReceive = Pump_ReadRxData();
 283:.\protocol.c  ****     }
 284:.\protocol.c  ****     Pump_ClearRxBuffer();
 285:.\protocol.c  ****     if(PumpDataReceive == (0xd0|side)){
 286:.\protocol.c  ****         SendComand[0] = SOM;//Start Of Message
 287:.\protocol.c  ****         SendComand[1] = 0xE9;//Data Length
 288:.\protocol.c  ****         SendComand[2] = 0xFE;//Special Functions Next (0xB0 0xB0 0xB6)
 289:.\protocol.c  ****         SendComand[3] = 0xE0;//Complete Pump Configuration Request (sf1)
 290:.\protocol.c  ****         SendComand[4] = 0xE1;//Complete Pump Configuration Request (sf2)
 291:.\protocol.c  ****         SendComand[5] = 0xE0;//Complete Pump Configuration Request (sf3)
 292:.\protocol.c  ****         SendComand[6] = 0xFB;
 293:.\protocol.c  ****         SendComand[7] = GetLRC(SendComand);
 294:.\protocol.c  ****         SendComand[8] = EOM;
 295:.\protocol.c  ****         for(x=0; x<=8;x++){
 296:.\protocol.c  ****             Pump_PutChar(SendComand[x]);
 297:.\protocol.c  ****         } 
 298:.\protocol.c  ****         if(UnitType > 0){
 299:.\protocol.c  ****             CyDelay(700);
 300:.\protocol.c  ****         }else{
 301:.\protocol.c  ****             CyDelay(200);
 302:.\protocol.c  ****         }
 303:.\protocol.c  ****     }    
 304:.\protocol.c  **** ///////////////////////////////////////////////////////////////////////////////////////////////////
 305:.\protocol.c  ****     BufferSize =Pump_GetRxBufferSize();
 306:.\protocol.c  ****     char8 buffer[BufferSize];
 307:.\protocol.c  ****     for(x=0;x<=BufferSize;x++){
 308:.\protocol.c  ****        buffer[x]=Pump_ReadRxData(); 
 309:.\protocol.c  ****     }
 310:.\protocol.c  ****     Pump_ClearRxBuffer();
 311:.\protocol.c  ****     if((buffer[0x0C] & 0x0F) == 0x01){
 312:.\protocol.c  ****         return (buffer[0x0E] & 0x0F);
 313:.\protocol.c  ****     }
 314:.\protocol.c  ****     
 315:.\protocol.c  ****     return 0;
 316:.\protocol.c  ****     
 317:.\protocol.c  **** }
 318:.\protocol.c  **** 
 319:.\protocol.c  **** /*
 320:.\protocol.c  **** ***************************************************************************************************
 321:.\protocol.c  **** *                                         uint8 get_sale(uint8 pos)
 322:.\protocol.c  **** *
 323:.\protocol.c  **** * Description : 
 324:.\protocol.c  **** *               
 325:.\protocol.c  **** *
 326:.\protocol.c  **** * Argument(s) : none
 327:.\protocol.c  **** *
 328:.\protocol.c  **** * Return(s)   : none
 329:.\protocol.c  **** *
 330:.\protocol.c  **** * Caller(s)   : 
 331:.\protocol.c  **** *
ARM GAS  C:\Users\RECEPC~1\AppData\Local\Temp\ccdPVhXF.s 			page 12


 332:.\protocol.c  **** * Note(s)     : none.
 333:.\protocol.c  **** ***************************************************************************************************
 334:.\protocol.c  **** */
 335:.\protocol.c  **** uint8 getSale(uint8 pos){
 293              		.loc 1 335 0
 294              		.cfi_startproc
 295              		@ args = 0, pretend = 0, frame = 0
 296              		@ frame_needed = 0, uses_anonymous_args = 0
 297              	.LVL28:
 298 0000 10B5     		push	{r4, lr}
 299              		.cfi_def_cfa_offset 8
 300              		.cfi_offset 4, -8
 301              		.cfi_offset 14, -4
 302 0002 0446     		mov	r4, r0
 336:.\protocol.c  **** 	uint8 x;
 337:.\protocol.c  **** 	Pump_ClearRxBuffer();
 303              		.loc 1 337 0
 304 0004 FFF7FEFF 		bl	Pump_ClearRxBuffer
 305              	.LVL29:
 338:.\protocol.c  **** 	Pump_PutChar(0x40|pos);
 306              		.loc 1 338 0
 307 0008 44F04000 		orr	r0, r4, #64
 308 000c FFF7FEFF 		bl	Pump_PutChar
 309              	.LVL30:
 339:.\protocol.c  ****     CyDelay(300);
 310              		.loc 1 339 0
 311 0010 4FF49670 		mov	r0, #300
 312 0014 FFF7FEFF 		bl	CyDelay
 313              	.LVL31:
 340:.\protocol.c  ****     CyWdtClear();
 314              		.loc 1 340 0
 315 0018 FFF7FEFF 		bl	CyWdtClear
 316              	.LVL32:
 341:.\protocol.c  **** 	if((digits!=7)&&(Pump_GetRxBufferSize()==33)){
 317              		.loc 1 341 0
 318 001c B64B     		ldr	r3, .L70
 319 001e 1B78     		ldrb	r3, [r3]	@ zero_extendqisi2
 320 0020 072B     		cmp	r3, #7
 321 0022 00F0F280 		beq	.L23
 322              		.loc 1 341 0 is_stmt 0 discriminator 1
 323 0026 FFF7FEFF 		bl	Pump_GetRxBufferSize
 324              	.LVL33:
 325 002a 2128     		cmp	r0, #33
 326 002c 40F0ED80 		bne	.L23
 342:.\protocol.c  **** 		if((Pump_rxBuffer[0]==0xFF)&&(Pump_rxBuffer[2]==0xF8)&&(Pump_rxBuffer[32]==0xF0)){
 327              		.loc 1 342 0 is_stmt 1
 328 0030 B24B     		ldr	r3, .L70+4
 329 0032 1B78     		ldrb	r3, [r3]	@ zero_extendqisi2
 330 0034 DBB2     		uxtb	r3, r3
 331 0036 FF2B     		cmp	r3, #255
 332 0038 40F0AE81 		bne	.L59
 333              		.loc 1 342 0 is_stmt 0 discriminator 1
 334 003c AF4B     		ldr	r3, .L70+4
 335 003e 9B78     		ldrb	r3, [r3, #2]	@ zero_extendqisi2
 336 0040 DBB2     		uxtb	r3, r3
 337 0042 F82B     		cmp	r3, #248
 338 0044 40F0AA81 		bne	.L60
ARM GAS  C:\Users\RECEPC~1\AppData\Local\Temp\ccdPVhXF.s 			page 13


 339              		.loc 1 342 0 discriminator 2
 340 0048 AC4B     		ldr	r3, .L70+4
 341 004a 93F82030 		ldrb	r3, [r3, #32]	@ zero_extendqisi2
 342 004e DBB2     		uxtb	r3, r3
 343 0050 F02B     		cmp	r3, #240
 344 0052 40F0A581 		bne	.L61
 343:.\protocol.c  **** 			if(pos==side.a.dir){
 345              		.loc 1 343 0 is_stmt 1
 346 0056 AA4B     		ldr	r3, .L70+8
 347 0058 1B78     		ldrb	r3, [r3]	@ zero_extendqisi2
 348 005a A342     		cmp	r3, r4
 349 005c 6AD1     		bne	.L25
 344:.\protocol.c  **** 				side.a.productSale=((Pump_rxBuffer[9]&0x0F)+1)+0x30;
 350              		.loc 1 344 0
 351 005e A74B     		ldr	r3, .L70+4
 352 0060 5B7A     		ldrb	r3, [r3, #9]	@ zero_extendqisi2
 353 0062 03F00F03 		and	r3, r3, #15
 354 0066 3133     		adds	r3, r3, #49
 355 0068 A54A     		ldr	r2, .L70+8
 356 006a 82F8FF30 		strb	r3, [r2, #255]
 357              	.LVL34:
 345:.\protocol.c  **** 				for(x=1;x<=4;x++){
 358              		.loc 1 345 0
 359 006e 0123     		movs	r3, #1
 360 0070 0CE0     		b	.L26
 361              	.LVL35:
 362              	.L27:
 346:.\protocol.c  **** 					side.a.ppuSale[5-x]=((Pump_rxBuffer[x+11]&0x0F)+0x30);
 363              		.loc 1 346 0 discriminator 3
 364 0072 03F10B02 		add	r2, r3, #11
 365 0076 A149     		ldr	r1, .L70+4
 366 0078 8A5C     		ldrb	r2, [r1, r2]	@ zero_extendqisi2
 367 007a A249     		ldr	r1, .L70+12
 368 007c C91A     		subs	r1, r1, r3
 369 007e 02F00F02 		and	r2, r2, #15
 370 0082 3032     		adds	r2, r2, #48
 371 0084 81F8F120 		strb	r2, [r1, #241]
 345:.\protocol.c  **** 				for(x=1;x<=4;x++){
 372              		.loc 1 345 0 discriminator 3
 373 0088 0133     		adds	r3, r3, #1
 374              	.LVL36:
 375 008a DBB2     		uxtb	r3, r3
 376              	.LVL37:
 377              	.L26:
 345:.\protocol.c  **** 				for(x=1;x<=4;x++){
 378              		.loc 1 345 0 is_stmt 0 discriminator 1
 379 008c 042B     		cmp	r3, #4
 380 008e F0D9     		bls	.L27
 347:.\protocol.c  **** 				}
 348:.\protocol.c  ****                 side.a.ppuSale[0]=4;
 381              		.loc 1 348 0 is_stmt 1
 382 0090 0422     		movs	r2, #4
 383 0092 9B4B     		ldr	r3, .L70+8
 384              	.LVL38:
 385 0094 83F8F120 		strb	r2, [r3, #241]
 349:.\protocol.c  ****                 if(ppux10==1){
 386              		.loc 1 349 0
ARM GAS  C:\Users\RECEPC~1\AppData\Local\Temp\ccdPVhXF.s 			page 14


 387 0098 9B4B     		ldr	r3, .L70+16
 388 009a 1B78     		ldrb	r3, [r3]	@ zero_extendqisi2
 389 009c DBB2     		uxtb	r3, r3
 390 009e 012B     		cmp	r3, #1
 391 00a0 06D1     		bne	.L28
 350:.\protocol.c  ****                     side.a.ppuSale[0]=5;
 392              		.loc 1 350 0
 393 00a2 974B     		ldr	r3, .L70+8
 394 00a4 0522     		movs	r2, #5
 395 00a6 83F8F120 		strb	r2, [r3, #241]
 351:.\protocol.c  ****                     side.a.ppuSale[5]='0';
 396              		.loc 1 351 0
 397 00aa 3022     		movs	r2, #48
 398 00ac 83F8F620 		strb	r2, [r3, #246]
 399              	.L28:
 345:.\protocol.c  **** 					side.a.ppuSale[5-x]=((Pump_rxBuffer[x+11]&0x0F)+0x30);
 400              		.loc 1 345 0 discriminator 1
 401 00b0 0123     		movs	r3, #1
 402 00b2 0CE0     		b	.L29
 403              	.LVL39:
 404              	.L30:
 352:.\protocol.c  ****                 }
 353:.\protocol.c  **** 				for(x=1;x<=6;x++){
 354:.\protocol.c  **** 					side.a.volumeSale[7-x]=((Pump_rxBuffer[x+16]&0x0F)+0x30);
 405              		.loc 1 354 0 discriminator 3
 406 00b4 03F11002 		add	r2, r3, #16
 407 00b8 9049     		ldr	r1, .L70+4
 408 00ba 8A5C     		ldrb	r2, [r1, r2]	@ zero_extendqisi2
 409 00bc 9349     		ldr	r1, .L70+20
 410 00be C91A     		subs	r1, r1, r3
 411 00c0 02F00F02 		and	r2, r2, #15
 412 00c4 3032     		adds	r2, r2, #48
 413 00c6 81F8E320 		strb	r2, [r1, #227]
 353:.\protocol.c  **** 					side.a.volumeSale[7-x]=((Pump_rxBuffer[x+16]&0x0F)+0x30);
 414              		.loc 1 353 0 discriminator 3
 415 00ca 0133     		adds	r3, r3, #1
 416              	.LVL40:
 417 00cc DBB2     		uxtb	r3, r3
 418              	.LVL41:
 419              	.L29:
 353:.\protocol.c  **** 					side.a.volumeSale[7-x]=((Pump_rxBuffer[x+16]&0x0F)+0x30);
 420              		.loc 1 353 0 is_stmt 0 discriminator 1
 421 00ce 062B     		cmp	r3, #6
 422 00d0 F0D9     		bls	.L30
 355:.\protocol.c  **** 				}		
 356:.\protocol.c  ****                 side.a.volumeSale[0]=6;
 423              		.loc 1 356 0 is_stmt 1
 424 00d2 0622     		movs	r2, #6
 425 00d4 8A4B     		ldr	r3, .L70+8
 426              	.LVL42:
 427 00d6 83F8E320 		strb	r2, [r3, #227]
 428              	.LVL43:
 357:.\protocol.c  **** 				for(x=1;x<=6;x++){
 429              		.loc 1 357 0
 430 00da 0123     		movs	r3, #1
 431 00dc 0CE0     		b	.L31
 432              	.LVL44:
ARM GAS  C:\Users\RECEPC~1\AppData\Local\Temp\ccdPVhXF.s 			page 15


 433              	.L32:
 358:.\protocol.c  **** 					side.a.moneySale[7-x]=((Pump_rxBuffer[x+23]&0x0F)+0x30);
 434              		.loc 1 358 0 discriminator 3
 435 00de 03F11702 		add	r2, r3, #23
 436 00e2 8649     		ldr	r1, .L70+4
 437 00e4 8A5C     		ldrb	r2, [r1, r2]	@ zero_extendqisi2
 438 00e6 8949     		ldr	r1, .L70+20
 439 00e8 C91A     		subs	r1, r1, r3
 440 00ea 02F00F02 		and	r2, r2, #15
 441 00ee 3032     		adds	r2, r2, #48
 442 00f0 81F8D520 		strb	r2, [r1, #213]
 357:.\protocol.c  **** 				for(x=1;x<=6;x++){
 443              		.loc 1 357 0 discriminator 3
 444 00f4 0133     		adds	r3, r3, #1
 445              	.LVL45:
 446 00f6 DBB2     		uxtb	r3, r3
 447              	.LVL46:
 448              	.L31:
 357:.\protocol.c  **** 				for(x=1;x<=6;x++){
 449              		.loc 1 357 0 is_stmt 0 discriminator 1
 450 00f8 062B     		cmp	r3, #6
 451 00fa F0D9     		bls	.L32
 359:.\protocol.c  **** 				}
 360:.\protocol.c  ****                 if(digits==5){
 452              		.loc 1 360 0 is_stmt 1
 453 00fc 7E4B     		ldr	r3, .L70
 454              	.LVL47:
 455 00fe 1B78     		ldrb	r3, [r3]	@ zero_extendqisi2
 456 0100 052B     		cmp	r3, #5
 457 0102 11D1     		bne	.L34
 458 0104 09E0     		b	.L62
 459              	.LVL48:
 460              	.L35:
 361:.\protocol.c  ****                     for(x=6;x>1;x--){
 362:.\protocol.c  ****                         side.a.moneySale[x]=side.a.moneySale[x-1];
 461              		.loc 1 362 0 discriminator 3
 462 0106 5A1E     		subs	r2, r3, #1
 463 0108 7D49     		ldr	r1, .L70+8
 464 010a 8818     		adds	r0, r1, r2
 465 010c 90F8D500 		ldrb	r0, [r0, #213]	@ zero_extendqisi2
 466 0110 0B44     		add	r3, r3, r1
 467              	.LVL49:
 468 0112 83F8D500 		strb	r0, [r3, #213]
 361:.\protocol.c  ****                     for(x=6;x>1;x--){
 469              		.loc 1 361 0 discriminator 3
 470 0116 D3B2     		uxtb	r3, r2
 471              	.LVL50:
 472 0118 00E0     		b	.L33
 473              	.LVL51:
 474              	.L62:
 475 011a 0623     		movs	r3, #6
 476              	.L33:
 477              	.LVL52:
 361:.\protocol.c  ****                     for(x=6;x>1;x--){
 478              		.loc 1 361 0 is_stmt 0 discriminator 1
 479 011c 012B     		cmp	r3, #1
 480 011e F2D8     		bhi	.L35
ARM GAS  C:\Users\RECEPC~1\AppData\Local\Temp\ccdPVhXF.s 			page 16


 363:.\protocol.c  ****                     }
 364:.\protocol.c  ****                     side.a.moneySale[1]='0';
 481              		.loc 1 364 0 is_stmt 1
 482 0120 3022     		movs	r2, #48
 483 0122 774B     		ldr	r3, .L70+8
 484              	.LVL53:
 485 0124 83F8D620 		strb	r2, [r3, #214]
 486              	.L34:
 365:.\protocol.c  ****                 }
 366:.\protocol.c  ****                 side.a.moneySale[0]=6;
 487              		.loc 1 366 0
 488 0128 0622     		movs	r2, #6
 489 012a 754B     		ldr	r3, .L70+8
 490 012c 83F8D520 		strb	r2, [r3, #213]
 367:.\protocol.c  **** 			}
 368:.\protocol.c  **** 			else{
 369:.\protocol.c  **** 				side.b.productSale=((Pump_rxBuffer[9]&0x0F)+1)+0x30;
 370:.\protocol.c  **** 				for(x=1;x<=4;x++){
 371:.\protocol.c  **** 					side.b.ppuSale[5-x]=((Pump_rxBuffer[x+11]&0x0F)+0x30);
 372:.\protocol.c  **** 				}
 373:.\protocol.c  ****                 side.b.ppuSale[0]=4;
 374:.\protocol.c  ****                 if(ppux10==1){
 375:.\protocol.c  ****                     side.b.ppuSale[0]=5;
 376:.\protocol.c  ****                     side.b.ppuSale[5]='0';
 377:.\protocol.c  ****                 }
 378:.\protocol.c  **** 				for(x=1;x<=6;x++){
 379:.\protocol.c  **** 					side.b.volumeSale[7-x]=((Pump_rxBuffer[x+16]&0x0F)+0x30);
 380:.\protocol.c  **** 				}
 381:.\protocol.c  ****                 side.b.volumeSale[0]=6;
 382:.\protocol.c  **** 				for(x=1;x<=6;x++){
 383:.\protocol.c  **** 					side.b.moneySale[7-x]=((Pump_rxBuffer[x+23]&0x0F)+0x30);
 384:.\protocol.c  **** 				}	
 385:.\protocol.c  ****                 if(digits==5){
 386:.\protocol.c  ****                     for(x=6;x>1;x--){
 387:.\protocol.c  ****                         side.b.moneySale[x]=side.b.moneySale[x-1];
 388:.\protocol.c  ****                     }
 389:.\protocol.c  ****                     side.b.moneySale[1]='0';
 390:.\protocol.c  ****                 }
 391:.\protocol.c  ****                 side.b.moneySale[0]=6;
 392:.\protocol.c  **** 			}
 393:.\protocol.c  **** 			return 1;
 491              		.loc 1 393 0
 492 0130 0120     		movs	r0, #1
 493 0132 10BD     		pop	{r4, pc}
 494              	.L25:
 369:.\protocol.c  **** 				for(x=1;x<=4;x++){
 495              		.loc 1 369 0
 496 0134 714B     		ldr	r3, .L70+4
 497 0136 5B7A     		ldrb	r3, [r3, #9]	@ zero_extendqisi2
 498 0138 03F00F03 		and	r3, r3, #15
 499 013c 3133     		adds	r3, r3, #49
 500 013e 704A     		ldr	r2, .L70+8
 501 0140 82F80232 		strb	r3, [r2, #514]
 502              	.LVL54:
 370:.\protocol.c  **** 					side.b.ppuSale[5-x]=((Pump_rxBuffer[x+11]&0x0F)+0x30);
 503              		.loc 1 370 0
 504 0144 0123     		movs	r3, #1
ARM GAS  C:\Users\RECEPC~1\AppData\Local\Temp\ccdPVhXF.s 			page 17


 505 0146 0CE0     		b	.L36
 506              	.LVL55:
 507              	.L37:
 371:.\protocol.c  **** 				}
 508              		.loc 1 371 0 discriminator 3
 509 0148 03F10B02 		add	r2, r3, #11
 510 014c 6B49     		ldr	r1, .L70+4
 511 014e 8A5C     		ldrb	r2, [r1, r2]	@ zero_extendqisi2
 512 0150 6C49     		ldr	r1, .L70+12
 513 0152 C91A     		subs	r1, r1, r3
 514 0154 02F00F02 		and	r2, r2, #15
 515 0158 3032     		adds	r2, r2, #48
 516 015a 81F8F421 		strb	r2, [r1, #500]
 370:.\protocol.c  **** 					side.b.ppuSale[5-x]=((Pump_rxBuffer[x+11]&0x0F)+0x30);
 517              		.loc 1 370 0 discriminator 3
 518 015e 0133     		adds	r3, r3, #1
 519              	.LVL56:
 520 0160 DBB2     		uxtb	r3, r3
 521              	.LVL57:
 522              	.L36:
 370:.\protocol.c  **** 					side.b.ppuSale[5-x]=((Pump_rxBuffer[x+11]&0x0F)+0x30);
 523              		.loc 1 370 0 is_stmt 0 discriminator 1
 524 0162 042B     		cmp	r3, #4
 525 0164 F0D9     		bls	.L37
 373:.\protocol.c  ****                 if(ppux10==1){
 526              		.loc 1 373 0 is_stmt 1
 527 0166 0422     		movs	r2, #4
 528 0168 654B     		ldr	r3, .L70+8
 529              	.LVL58:
 530 016a 83F8F421 		strb	r2, [r3, #500]
 374:.\protocol.c  ****                     side.b.ppuSale[0]=5;
 531              		.loc 1 374 0
 532 016e 664B     		ldr	r3, .L70+16
 533 0170 1B78     		ldrb	r3, [r3]	@ zero_extendqisi2
 534 0172 DBB2     		uxtb	r3, r3
 535 0174 012B     		cmp	r3, #1
 536 0176 06D1     		bne	.L38
 375:.\protocol.c  ****                     side.b.ppuSale[5]='0';
 537              		.loc 1 375 0
 538 0178 614B     		ldr	r3, .L70+8
 539 017a 0522     		movs	r2, #5
 540 017c 83F8F421 		strb	r2, [r3, #500]
 376:.\protocol.c  ****                 }
 541              		.loc 1 376 0
 542 0180 3022     		movs	r2, #48
 543 0182 83F8F921 		strb	r2, [r3, #505]
 544              	.L38:
 370:.\protocol.c  **** 					side.b.ppuSale[5-x]=((Pump_rxBuffer[x+11]&0x0F)+0x30);
 545              		.loc 1 370 0 discriminator 1
 546 0186 0123     		movs	r3, #1
 547 0188 0CE0     		b	.L39
 548              	.LVL59:
 549              	.L40:
 379:.\protocol.c  **** 				}
 550              		.loc 1 379 0 discriminator 3
 551 018a 03F11002 		add	r2, r3, #16
 552 018e 5B49     		ldr	r1, .L70+4
ARM GAS  C:\Users\RECEPC~1\AppData\Local\Temp\ccdPVhXF.s 			page 18


 553 0190 8A5C     		ldrb	r2, [r1, r2]	@ zero_extendqisi2
 554 0192 5E49     		ldr	r1, .L70+20
 555 0194 C91A     		subs	r1, r1, r3
 556 0196 02F00F02 		and	r2, r2, #15
 557 019a 3032     		adds	r2, r2, #48
 558 019c 81F8E621 		strb	r2, [r1, #486]
 378:.\protocol.c  **** 					side.b.volumeSale[7-x]=((Pump_rxBuffer[x+16]&0x0F)+0x30);
 559              		.loc 1 378 0 discriminator 3
 560 01a0 0133     		adds	r3, r3, #1
 561              	.LVL60:
 562 01a2 DBB2     		uxtb	r3, r3
 563              	.LVL61:
 564              	.L39:
 378:.\protocol.c  **** 					side.b.volumeSale[7-x]=((Pump_rxBuffer[x+16]&0x0F)+0x30);
 565              		.loc 1 378 0 is_stmt 0 discriminator 1
 566 01a4 062B     		cmp	r3, #6
 567 01a6 F0D9     		bls	.L40
 381:.\protocol.c  **** 				for(x=1;x<=6;x++){
 568              		.loc 1 381 0 is_stmt 1
 569 01a8 0622     		movs	r2, #6
 570 01aa 554B     		ldr	r3, .L70+8
 571              	.LVL62:
 572 01ac 83F8E621 		strb	r2, [r3, #486]
 573              	.LVL63:
 382:.\protocol.c  **** 					side.b.moneySale[7-x]=((Pump_rxBuffer[x+23]&0x0F)+0x30);
 574              		.loc 1 382 0
 575 01b0 0123     		movs	r3, #1
 576 01b2 0CE0     		b	.L41
 577              	.LVL64:
 578              	.L42:
 383:.\protocol.c  **** 				}	
 579              		.loc 1 383 0 discriminator 3
 580 01b4 03F11702 		add	r2, r3, #23
 581 01b8 5049     		ldr	r1, .L70+4
 582 01ba 8A5C     		ldrb	r2, [r1, r2]	@ zero_extendqisi2
 583 01bc 5349     		ldr	r1, .L70+20
 584 01be C91A     		subs	r1, r1, r3
 585 01c0 02F00F02 		and	r2, r2, #15
 586 01c4 3032     		adds	r2, r2, #48
 587 01c6 81F8D821 		strb	r2, [r1, #472]
 382:.\protocol.c  **** 					side.b.moneySale[7-x]=((Pump_rxBuffer[x+23]&0x0F)+0x30);
 588              		.loc 1 382 0 discriminator 3
 589 01ca 0133     		adds	r3, r3, #1
 590              	.LVL65:
 591 01cc DBB2     		uxtb	r3, r3
 592              	.LVL66:
 593              	.L41:
 382:.\protocol.c  **** 					side.b.moneySale[7-x]=((Pump_rxBuffer[x+23]&0x0F)+0x30);
 594              		.loc 1 382 0 is_stmt 0 discriminator 1
 595 01ce 062B     		cmp	r3, #6
 596 01d0 F0D9     		bls	.L42
 385:.\protocol.c  ****                     for(x=6;x>1;x--){
 597              		.loc 1 385 0 is_stmt 1
 598 01d2 494B     		ldr	r3, .L70
 599              	.LVL67:
 600 01d4 1B78     		ldrb	r3, [r3]	@ zero_extendqisi2
 601 01d6 052B     		cmp	r3, #5
ARM GAS  C:\Users\RECEPC~1\AppData\Local\Temp\ccdPVhXF.s 			page 19


 602 01d8 11D1     		bne	.L44
 603 01da 09E0     		b	.L63
 604              	.LVL68:
 605              	.L45:
 387:.\protocol.c  ****                     }
 606              		.loc 1 387 0 discriminator 3
 607 01dc 5A1E     		subs	r2, r3, #1
 608 01de 4849     		ldr	r1, .L70+8
 609 01e0 8818     		adds	r0, r1, r2
 610 01e2 90F8D801 		ldrb	r0, [r0, #472]	@ zero_extendqisi2
 611 01e6 0B44     		add	r3, r3, r1
 612              	.LVL69:
 613 01e8 83F8D801 		strb	r0, [r3, #472]
 386:.\protocol.c  ****                         side.b.moneySale[x]=side.b.moneySale[x-1];
 614              		.loc 1 386 0 discriminator 3
 615 01ec D3B2     		uxtb	r3, r2
 616              	.LVL70:
 617 01ee 00E0     		b	.L43
 618              	.LVL71:
 619              	.L63:
 620 01f0 0623     		movs	r3, #6
 621              	.L43:
 622              	.LVL72:
 386:.\protocol.c  ****                         side.b.moneySale[x]=side.b.moneySale[x-1];
 623              		.loc 1 386 0 is_stmt 0 discriminator 1
 624 01f2 012B     		cmp	r3, #1
 625 01f4 F2D8     		bhi	.L45
 389:.\protocol.c  ****                 }
 626              		.loc 1 389 0 is_stmt 1
 627 01f6 3022     		movs	r2, #48
 628 01f8 414B     		ldr	r3, .L70+8
 629              	.LVL73:
 630 01fa 83F8D921 		strb	r2, [r3, #473]
 631              	.L44:
 391:.\protocol.c  **** 			}
 632              		.loc 1 391 0
 633 01fe 0622     		movs	r2, #6
 634 0200 3F4B     		ldr	r3, .L70+8
 635 0202 83F8D821 		strb	r2, [r3, #472]
 636              		.loc 1 393 0
 637 0206 0120     		movs	r0, #1
 638 0208 10BD     		pop	{r4, pc}
 639              	.L23:
 394:.\protocol.c  **** 		}
 395:.\protocol.c  **** 		else{
 396:.\protocol.c  **** 			return 0;
 397:.\protocol.c  **** 		}
 398:.\protocol.c  **** 	}
 399:.\protocol.c  **** 	else if((digits==7)&&(Pump_GetRxBufferSize()==39)){
 640              		.loc 1 399 0
 641 020a 3B4B     		ldr	r3, .L70
 642 020c 1B78     		ldrb	r3, [r3]	@ zero_extendqisi2
 643 020e 072B     		cmp	r3, #7
 644 0210 40F0C880 		bne	.L64
 645              		.loc 1 399 0 is_stmt 0 discriminator 1
 646 0214 FFF7FEFF 		bl	Pump_GetRxBufferSize
 647              	.LVL74:
ARM GAS  C:\Users\RECEPC~1\AppData\Local\Temp\ccdPVhXF.s 			page 20


 648 0218 2728     		cmp	r0, #39
 649 021a 40F0C580 		bne	.L65
 400:.\protocol.c  **** 		if((Pump_rxBuffer[0]==0xFF)&&(Pump_rxBuffer[2]==0xF8)&&(Pump_rxBuffer[38]==0xF0)){
 650              		.loc 1 400 0 is_stmt 1
 651 021e 374B     		ldr	r3, .L70+4
 652 0220 1B78     		ldrb	r3, [r3]	@ zero_extendqisi2
 653 0222 DBB2     		uxtb	r3, r3
 654 0224 FF2B     		cmp	r3, #255
 655 0226 40F0C180 		bne	.L66
 656              		.loc 1 400 0 is_stmt 0 discriminator 1
 657 022a 344B     		ldr	r3, .L70+4
 658 022c 9B78     		ldrb	r3, [r3, #2]	@ zero_extendqisi2
 659 022e DBB2     		uxtb	r3, r3
 660 0230 F82B     		cmp	r3, #248
 661 0232 40F0BD80 		bne	.L67
 662              		.loc 1 400 0 discriminator 2
 663 0236 314B     		ldr	r3, .L70+4
 664 0238 93F82630 		ldrb	r3, [r3, #38]	@ zero_extendqisi2
 665 023c DBB2     		uxtb	r3, r3
 666 023e F02B     		cmp	r3, #240
 667 0240 40F0B880 		bne	.L68
 401:.\protocol.c  **** 			if(pos==side.a.dir){
 668              		.loc 1 401 0 is_stmt 1
 669 0244 2E4B     		ldr	r3, .L70+8
 670 0246 1B78     		ldrb	r3, [r3]	@ zero_extendqisi2
 671 0248 A342     		cmp	r3, r4
 672 024a 4BD1     		bne	.L46
 402:.\protocol.c  **** 				side.a.productSale=((Pump_rxBuffer[9]&0x0F)+1)+0x30;
 673              		.loc 1 402 0
 674 024c 2B4B     		ldr	r3, .L70+4
 675 024e 5B7A     		ldrb	r3, [r3, #9]	@ zero_extendqisi2
 676 0250 03F00F03 		and	r3, r3, #15
 677 0254 3133     		adds	r3, r3, #49
 678 0256 2A4A     		ldr	r2, .L70+8
 679 0258 82F8FF30 		strb	r3, [r2, #255]
 680              	.LVL75:
 403:.\protocol.c  **** 				for(x=1;x<=6;x++){
 681              		.loc 1 403 0
 682 025c 0123     		movs	r3, #1
 683 025e 0CE0     		b	.L47
 684              	.LVL76:
 685              	.L48:
 404:.\protocol.c  **** 					side.a.ppuSale[7-x]=((Pump_rxBuffer[x+11]&0x0F)+0x30);
 686              		.loc 1 404 0 discriminator 3
 687 0260 03F10B02 		add	r2, r3, #11
 688 0264 2549     		ldr	r1, .L70+4
 689 0266 8A5C     		ldrb	r2, [r1, r2]	@ zero_extendqisi2
 690 0268 2849     		ldr	r1, .L70+20
 691 026a C91A     		subs	r1, r1, r3
 692 026c 02F00F02 		and	r2, r2, #15
 693 0270 3032     		adds	r2, r2, #48
 694 0272 81F8F120 		strb	r2, [r1, #241]
 403:.\protocol.c  **** 				for(x=1;x<=6;x++){
 695              		.loc 1 403 0 discriminator 3
 696 0276 0133     		adds	r3, r3, #1
 697              	.LVL77:
 698 0278 DBB2     		uxtb	r3, r3
ARM GAS  C:\Users\RECEPC~1\AppData\Local\Temp\ccdPVhXF.s 			page 21


 699              	.LVL78:
 700              	.L47:
 403:.\protocol.c  **** 				for(x=1;x<=6;x++){
 701              		.loc 1 403 0 is_stmt 0 discriminator 1
 702 027a 062B     		cmp	r3, #6
 703 027c F0D9     		bls	.L48
 405:.\protocol.c  **** 				}
 406:.\protocol.c  ****                 side.a.ppuSale[0]=6;
 704              		.loc 1 406 0 is_stmt 1
 705 027e 0622     		movs	r2, #6
 706 0280 1F4B     		ldr	r3, .L70+8
 707              	.LVL79:
 708 0282 83F8F120 		strb	r2, [r3, #241]
 709              	.LVL80:
 407:.\protocol.c  **** 				for(x=1;x<=8;x++){
 710              		.loc 1 407 0
 711 0286 0123     		movs	r3, #1
 712 0288 0CE0     		b	.L49
 713              	.LVL81:
 714              	.L50:
 408:.\protocol.c  **** 					side.a.volumeSale[9-x]=((Pump_rxBuffer[x+18]&0x0F)+0x30);
 715              		.loc 1 408 0 discriminator 3
 716 028a 03F11202 		add	r2, r3, #18
 717 028e 1B49     		ldr	r1, .L70+4
 718 0290 8A5C     		ldrb	r2, [r1, r2]	@ zero_extendqisi2
 719 0292 1F49     		ldr	r1, .L70+24
 720 0294 C91A     		subs	r1, r1, r3
 721 0296 02F00F02 		and	r2, r2, #15
 722 029a 3032     		adds	r2, r2, #48
 723 029c 81F8E320 		strb	r2, [r1, #227]
 407:.\protocol.c  **** 				for(x=1;x<=8;x++){
 724              		.loc 1 407 0 discriminator 3
 725 02a0 0133     		adds	r3, r3, #1
 726              	.LVL82:
 727 02a2 DBB2     		uxtb	r3, r3
 728              	.LVL83:
 729              	.L49:
 407:.\protocol.c  **** 				for(x=1;x<=8;x++){
 730              		.loc 1 407 0 is_stmt 0 discriminator 1
 731 02a4 082B     		cmp	r3, #8
 732 02a6 F0D9     		bls	.L50
 409:.\protocol.c  **** 				}		
 410:.\protocol.c  ****                 side.a.volumeSale[0]=8;
 733              		.loc 1 410 0 is_stmt 1
 734 02a8 0822     		movs	r2, #8
 735 02aa 154B     		ldr	r3, .L70+8
 736              	.LVL84:
 737 02ac 83F8E320 		strb	r2, [r3, #227]
 738              	.LVL85:
 411:.\protocol.c  **** 				for(x=1;x<=7;x++){
 739              		.loc 1 411 0
 740 02b0 0123     		movs	r3, #1
 741 02b2 0CE0     		b	.L51
 742              	.LVL86:
 743              	.L52:
 412:.\protocol.c  **** 					side.a.moneySale[9-x]=((Pump_rxBuffer[x+28]&0x0F)+0x30);
 744              		.loc 1 412 0 discriminator 3
ARM GAS  C:\Users\RECEPC~1\AppData\Local\Temp\ccdPVhXF.s 			page 22


 745 02b4 03F11C02 		add	r2, r3, #28
 746 02b8 1049     		ldr	r1, .L70+4
 747 02ba 8A5C     		ldrb	r2, [r1, r2]	@ zero_extendqisi2
 748 02bc 1449     		ldr	r1, .L70+24
 749 02be C91A     		subs	r1, r1, r3
 750 02c0 02F00F02 		and	r2, r2, #15
 751 02c4 3032     		adds	r2, r2, #48
 752 02c6 81F8D520 		strb	r2, [r1, #213]
 411:.\protocol.c  **** 				for(x=1;x<=7;x++){
 753              		.loc 1 411 0 discriminator 3
 754 02ca 0133     		adds	r3, r3, #1
 755              	.LVL87:
 756 02cc DBB2     		uxtb	r3, r3
 757              	.LVL88:
 758              	.L51:
 411:.\protocol.c  **** 				for(x=1;x<=7;x++){
 759              		.loc 1 411 0 is_stmt 0 discriminator 1
 760 02ce 072B     		cmp	r3, #7
 761 02d0 F0D9     		bls	.L52
 413:.\protocol.c  **** 				}
 414:.\protocol.c  ****                 side.a.moneySale[1]='0';
 762              		.loc 1 414 0 is_stmt 1
 763 02d2 0B4B     		ldr	r3, .L70+8
 764              	.LVL89:
 765 02d4 3022     		movs	r2, #48
 766 02d6 83F8D620 		strb	r2, [r3, #214]
 415:.\protocol.c  ****                 side.a.moneySale[0]=8;
 767              		.loc 1 415 0
 768 02da 0822     		movs	r2, #8
 769 02dc 83F8D520 		strb	r2, [r3, #213]
 416:.\protocol.c  **** 			}
 417:.\protocol.c  **** 			else{
 418:.\protocol.c  **** 				side.b.productSale=((Pump_rxBuffer[9]&0x0F)+1)+0x30;
 419:.\protocol.c  **** 				for(x=1;x<=6;x++){
 420:.\protocol.c  **** 					side.b.ppuSale[7-x]=((Pump_rxBuffer[x+11]&0x0F)+0x30);
 421:.\protocol.c  **** 				}
 422:.\protocol.c  ****                 side.b.ppuSale[0]=6;
 423:.\protocol.c  **** 				for(x=1;x<=8;x++){
 424:.\protocol.c  **** 					side.b.volumeSale[9-x]=((Pump_rxBuffer[x+18]&0x0F)+0x30);
 425:.\protocol.c  **** 				}	
 426:.\protocol.c  ****                 side.b.volumeSale[0]=8;
 427:.\protocol.c  **** 				for(x=1;x<=7;x++){
 428:.\protocol.c  **** 					side.b.moneySale[9-x]=((Pump_rxBuffer[x+28]&0x0F)+0x30);
 429:.\protocol.c  **** 				}	
 430:.\protocol.c  ****                 side.b.moneySale[1]='0';
 431:.\protocol.c  ****                 side.b.moneySale[0]=8;
 432:.\protocol.c  **** 			}
 433:.\protocol.c  **** 			return 1;
 770              		.loc 1 433 0
 771 02e0 0120     		movs	r0, #1
 772 02e2 10BD     		pop	{r4, pc}
 773              	.L46:
 418:.\protocol.c  **** 				for(x=1;x<=6;x++){
 774              		.loc 1 418 0
 775 02e4 054B     		ldr	r3, .L70+4
 776 02e6 5B7A     		ldrb	r3, [r3, #9]	@ zero_extendqisi2
 777 02e8 03F00F03 		and	r3, r3, #15
ARM GAS  C:\Users\RECEPC~1\AppData\Local\Temp\ccdPVhXF.s 			page 23


 778 02ec 3133     		adds	r3, r3, #49
 779 02ee 044A     		ldr	r2, .L70+8
 780 02f0 82F80232 		strb	r3, [r2, #514]
 781              	.LVL90:
 419:.\protocol.c  **** 					side.b.ppuSale[7-x]=((Pump_rxBuffer[x+11]&0x0F)+0x30);
 782              		.loc 1 419 0
 783 02f4 0123     		movs	r3, #1
 784 02f6 1AE0     		b	.L53
 785              	.L71:
 786              		.align	2
 787              	.L70:
 788 02f8 00000000 		.word	digits
 789 02fc 00000000 		.word	Pump_rxBuffer
 790 0300 00000000 		.word	side
 791 0304 05000000 		.word	side+5
 792 0308 00000000 		.word	ppux10
 793 030c 07000000 		.word	side+7
 794 0310 09000000 		.word	side+9
 795              	.LVL91:
 796              	.L54:
 420:.\protocol.c  **** 				}
 797              		.loc 1 420 0 discriminator 3
 798 0314 03F10B02 		add	r2, r3, #11
 799 0318 2749     		ldr	r1, .L72
 800 031a 8A5C     		ldrb	r2, [r1, r2]	@ zero_extendqisi2
 801 031c 2749     		ldr	r1, .L72+4
 802 031e C91A     		subs	r1, r1, r3
 803 0320 02F00F02 		and	r2, r2, #15
 804 0324 3032     		adds	r2, r2, #48
 805 0326 81F8F421 		strb	r2, [r1, #500]
 419:.\protocol.c  **** 					side.b.ppuSale[7-x]=((Pump_rxBuffer[x+11]&0x0F)+0x30);
 806              		.loc 1 419 0 discriminator 3
 807 032a 0133     		adds	r3, r3, #1
 808              	.LVL92:
 809 032c DBB2     		uxtb	r3, r3
 810              	.LVL93:
 811              	.L53:
 419:.\protocol.c  **** 					side.b.ppuSale[7-x]=((Pump_rxBuffer[x+11]&0x0F)+0x30);
 812              		.loc 1 419 0 is_stmt 0 discriminator 1
 813 032e 062B     		cmp	r3, #6
 814 0330 F0D9     		bls	.L54
 422:.\protocol.c  **** 				for(x=1;x<=8;x++){
 815              		.loc 1 422 0 is_stmt 1
 816 0332 0622     		movs	r2, #6
 817 0334 224B     		ldr	r3, .L72+8
 818              	.LVL94:
 819 0336 83F8F421 		strb	r2, [r3, #500]
 820              	.LVL95:
 423:.\protocol.c  **** 					side.b.volumeSale[9-x]=((Pump_rxBuffer[x+18]&0x0F)+0x30);
 821              		.loc 1 423 0
 822 033a 0123     		movs	r3, #1
 823 033c 0CE0     		b	.L55
 824              	.LVL96:
 825              	.L56:
 424:.\protocol.c  **** 				}	
 826              		.loc 1 424 0 discriminator 3
 827 033e 03F11202 		add	r2, r3, #18
ARM GAS  C:\Users\RECEPC~1\AppData\Local\Temp\ccdPVhXF.s 			page 24


 828 0342 1D49     		ldr	r1, .L72
 829 0344 8A5C     		ldrb	r2, [r1, r2]	@ zero_extendqisi2
 830 0346 1F49     		ldr	r1, .L72+12
 831 0348 C91A     		subs	r1, r1, r3
 832 034a 02F00F02 		and	r2, r2, #15
 833 034e 3032     		adds	r2, r2, #48
 834 0350 81F8E621 		strb	r2, [r1, #486]
 423:.\protocol.c  **** 					side.b.volumeSale[9-x]=((Pump_rxBuffer[x+18]&0x0F)+0x30);
 835              		.loc 1 423 0 discriminator 3
 836 0354 0133     		adds	r3, r3, #1
 837              	.LVL97:
 838 0356 DBB2     		uxtb	r3, r3
 839              	.LVL98:
 840              	.L55:
 423:.\protocol.c  **** 					side.b.volumeSale[9-x]=((Pump_rxBuffer[x+18]&0x0F)+0x30);
 841              		.loc 1 423 0 is_stmt 0 discriminator 1
 842 0358 082B     		cmp	r3, #8
 843 035a F0D9     		bls	.L56
 426:.\protocol.c  **** 				for(x=1;x<=7;x++){
 844              		.loc 1 426 0 is_stmt 1
 845 035c 0822     		movs	r2, #8
 846 035e 184B     		ldr	r3, .L72+8
 847              	.LVL99:
 848 0360 83F8E621 		strb	r2, [r3, #486]
 849              	.LVL100:
 427:.\protocol.c  **** 					side.b.moneySale[9-x]=((Pump_rxBuffer[x+28]&0x0F)+0x30);
 850              		.loc 1 427 0
 851 0364 0123     		movs	r3, #1
 852 0366 0CE0     		b	.L57
 853              	.LVL101:
 854              	.L58:
 428:.\protocol.c  **** 				}	
 855              		.loc 1 428 0 discriminator 3
 856 0368 03F11C02 		add	r2, r3, #28
 857 036c 1249     		ldr	r1, .L72
 858 036e 8A5C     		ldrb	r2, [r1, r2]	@ zero_extendqisi2
 859 0370 1449     		ldr	r1, .L72+12
 860 0372 C91A     		subs	r1, r1, r3
 861 0374 02F00F02 		and	r2, r2, #15
 862 0378 3032     		adds	r2, r2, #48
 863 037a 81F8D821 		strb	r2, [r1, #472]
 427:.\protocol.c  **** 					side.b.moneySale[9-x]=((Pump_rxBuffer[x+28]&0x0F)+0x30);
 864              		.loc 1 427 0 discriminator 3
 865 037e 0133     		adds	r3, r3, #1
 866              	.LVL102:
 867 0380 DBB2     		uxtb	r3, r3
 868              	.LVL103:
 869              	.L57:
 427:.\protocol.c  **** 					side.b.moneySale[9-x]=((Pump_rxBuffer[x+28]&0x0F)+0x30);
 870              		.loc 1 427 0 is_stmt 0 discriminator 1
 871 0382 072B     		cmp	r3, #7
 872 0384 F0D9     		bls	.L58
 430:.\protocol.c  ****                 side.b.moneySale[0]=8;
 873              		.loc 1 430 0 is_stmt 1
 874 0386 0E4B     		ldr	r3, .L72+8
 875              	.LVL104:
 876 0388 3022     		movs	r2, #48
ARM GAS  C:\Users\RECEPC~1\AppData\Local\Temp\ccdPVhXF.s 			page 25


 877 038a 83F8D921 		strb	r2, [r3, #473]
 431:.\protocol.c  **** 			}
 878              		.loc 1 431 0
 879 038e 0822     		movs	r2, #8
 880 0390 83F8D821 		strb	r2, [r3, #472]
 881              		.loc 1 433 0
 882 0394 0120     		movs	r0, #1
 883 0396 10BD     		pop	{r4, pc}
 884              	.L59:
 396:.\protocol.c  **** 		}
 885              		.loc 1 396 0
 886 0398 0020     		movs	r0, #0
 887 039a 10BD     		pop	{r4, pc}
 888              	.L60:
 889 039c 0020     		movs	r0, #0
 890 039e 10BD     		pop	{r4, pc}
 891              	.L61:
 892 03a0 0020     		movs	r0, #0
 893 03a2 10BD     		pop	{r4, pc}
 894              	.L64:
 434:.\protocol.c  **** 		}
 435:.\protocol.c  **** 		else{
 436:.\protocol.c  **** 			return 0;
 437:.\protocol.c  **** 		}
 438:.\protocol.c  **** 	}
 439:.\protocol.c  **** 	return 0;
 895              		.loc 1 439 0
 896 03a4 0020     		movs	r0, #0
 897 03a6 10BD     		pop	{r4, pc}
 898              	.L65:
 899 03a8 0020     		movs	r0, #0
 900 03aa 10BD     		pop	{r4, pc}
 901              	.L66:
 436:.\protocol.c  **** 		}
 902              		.loc 1 436 0
 903 03ac 0020     		movs	r0, #0
 904 03ae 10BD     		pop	{r4, pc}
 905              	.L67:
 906 03b0 0020     		movs	r0, #0
 907 03b2 10BD     		pop	{r4, pc}
 908              	.L68:
 909 03b4 0020     		movs	r0, #0
 440:.\protocol.c  **** }
 910              		.loc 1 440 0
 911 03b6 10BD     		pop	{r4, pc}
 912              	.L73:
 913              		.align	2
 914              	.L72:
 915 03b8 00000000 		.word	Pump_rxBuffer
 916 03bc 07000000 		.word	side+7
 917 03c0 00000000 		.word	side
 918 03c4 09000000 		.word	side+9
 919              		.cfi_endproc
 920              	.LFE68:
 921              		.size	getSale, .-getSale
 922              		.section	.text.PumpIsInValidState,"ax",%progbits
 923              		.align	2
ARM GAS  C:\Users\RECEPC~1\AppData\Local\Temp\ccdPVhXF.s 			page 26


 924              		.global	PumpIsInValidState
 925              		.thumb
 926              		.thumb_func
 927              		.type	PumpIsInValidState, %function
 928              	PumpIsInValidState:
 929              	.LFB69:
 441:.\protocol.c  **** 
 442:.\protocol.c  **** 
 443:.\protocol.c  **** bool PumpIsInValidState(state)
 444:.\protocol.c  **** {
 930              		.loc 1 444 0
 931              		.cfi_startproc
 932              		@ args = 0, pretend = 0, frame = 0
 933              		@ frame_needed = 0, uses_anonymous_args = 0
 934              		@ link register save eliminated.
 935              	.LVL105:
 445:.\protocol.c  ****     bool retval = false;    
 446:.\protocol.c  ****     switch(state)
 936              		.loc 1 446 0
 937 0000 30B1     		cbz	r0, .L77
 938 0002 0028     		cmp	r0, #0
 939 0004 02DB     		blt	.L75
 940 0006 831F     		subs	r3, r0, #6
 941 0008 062B     		cmp	r3, #6
 942 000a 01D9     		bls	.L77
 943              	.L75:
 445:.\protocol.c  ****     bool retval = false;    
 944              		.loc 1 445 0
 945 000c 0020     		movs	r0, #0
 946              	.LVL106:
 947 000e 7047     		bx	lr
 948              	.LVL107:
 949              	.L77:
 447:.\protocol.c  ****     {
 448:.\protocol.c  ****         case PUMP_IDLE:
 449:.\protocol.c  ****         case PUMP_CALLING:
 450:.\protocol.c  ****         case PUMP_AUTHORIZED:
 451:.\protocol.c  ****         case PUMP_BUSY:
 452:.\protocol.c  ****         case PUMP_PEOT:
 453:.\protocol.c  ****         case PUMP_FEOT:
 454:.\protocol.c  ****         case PUMP_STOPPED:
 455:.\protocol.c  ****         case PUMP_FAIL:
 456:.\protocol.c  ****             retval = true;
 950              		.loc 1 456 0
 951 0010 0120     		movs	r0, #1
 952              	.LVL108:
 457:.\protocol.c  ****             break;
 458:.\protocol.c  ****     }
 459:.\protocol.c  ****     return retval;
 460:.\protocol.c  **** }
 953              		.loc 1 460 0
 954 0012 7047     		bx	lr
 955              		.cfi_endproc
 956              	.LFE69:
 957              		.size	PumpIsInValidState, .-PumpIsInValidState
 958              		.section	.text.GetLRC,"ax",%progbits
 959              		.align	2
ARM GAS  C:\Users\RECEPC~1\AppData\Local\Temp\ccdPVhXF.s 			page 27


 960              		.global	GetLRC
 961              		.thumb
 962              		.thumb_func
 963              		.type	GetLRC, %function
 964              	GetLRC:
 965              	.LFB70:
 461:.\protocol.c  **** 
 462:.\protocol.c  **** 
 463:.\protocol.c  **** 
 464:.\protocol.c  **** uint8_t GetLRC(char8 *_pbuffer)
 465:.\protocol.c  **** {
 966              		.loc 1 465 0
 967              		.cfi_startproc
 968              		@ args = 0, pretend = 0, frame = 0
 969              		@ frame_needed = 0, uses_anonymous_args = 0
 970              		@ link register save eliminated.
 971              	.LVL109:
 466:.\protocol.c  ****     uint8_t lrc = 0;
 972              		.loc 1 466 0
 973 0000 0021     		movs	r1, #0
 467:.\protocol.c  ****     while(*_pbuffer != 0xFB)
 974              		.loc 1 467 0
 975 0002 04E0     		b	.L79
 976              	.LVL110:
 977              	.L80:
 468:.\protocol.c  ****     {
 469:.\protocol.c  ****         lrc += (*_pbuffer & 0x0F);
 978              		.loc 1 469 0
 979 0004 03F00F03 		and	r3, r3, #15
 980 0008 0B44     		add	r3, r3, r1
 981 000a D9B2     		uxtb	r1, r3
 982              	.LVL111:
 470:.\protocol.c  ****         _pbuffer++;
 983              		.loc 1 470 0
 984 000c 0130     		adds	r0, r0, #1
 985              	.LVL112:
 986              	.L79:
 467:.\protocol.c  ****     while(*_pbuffer != 0xFB)
 987              		.loc 1 467 0
 988 000e 0378     		ldrb	r3, [r0]	@ zero_extendqisi2
 989 0010 FB2B     		cmp	r3, #251
 990 0012 F7D1     		bne	.L80
 471:.\protocol.c  ****     }
 472:.\protocol.c  ****     lrc += (*_pbuffer & 0x0F);
 991              		.loc 1 472 0
 992 0014 03F00F02 		and	r2, r3, #15
 993 0018 8818     		adds	r0, r1, r2
 994              	.LVL113:
 473:.\protocol.c  ****     return (((~lrc + 1) & 0x0F) | 0xE0);
 995              		.loc 1 473 0
 996 001a 4042     		negs	r0, r0
 997              	.LVL114:
 998 001c 00F00F00 		and	r0, r0, #15
 999              	.LVL115:
 474:.\protocol.c  **** }
 1000              		.loc 1 474 0
 1001 0020 40F0E000 		orr	r0, r0, #224
ARM GAS  C:\Users\RECEPC~1\AppData\Local\Temp\ccdPVhXF.s 			page 28


 1002 0024 7047     		bx	lr
 1003              		.cfi_endproc
 1004              	.LFE70:
 1005              		.size	GetLRC, .-GetLRC
 1006 0026 00BF     		.section	.text.PresetData,"ax",%progbits
 1007              		.align	2
 1008              		.global	PresetData
 1009              		.thumb
 1010              		.thumb_func
 1011              		.type	PresetData, %function
 1012              	PresetData:
 1013              	.LFB65:
 148:.\protocol.c  ****     char8 SendComand[18]={0,0,0,0,0,0,0,0,0,0,0,0,0,0,0,0,0,0},decimal;
 1014              		.loc 1 148 0
 1015              		.cfi_startproc
 1016              		@ args = 0, pretend = 0, frame = 24
 1017              		@ frame_needed = 0, uses_anonymous_args = 0
 1018              	.LVL116:
 1019 0000 F0B5     		push	{r4, r5, r6, r7, lr}
 1020              		.cfi_def_cfa_offset 20
 1021              		.cfi_offset 4, -20
 1022              		.cfi_offset 5, -16
 1023              		.cfi_offset 6, -12
 1024              		.cfi_offset 7, -8
 1025              		.cfi_offset 14, -4
 1026 0002 87B0     		sub	sp, sp, #28
 1027              		.cfi_def_cfa_offset 48
 1028 0004 0546     		mov	r5, r0
 1029 0006 0E46     		mov	r6, r1
 1030 0008 1446     		mov	r4, r2
 149:.\protocol.c  ****     uint8 state,x,y,z;
 1031              		.loc 1 149 0
 1032 000a 0023     		movs	r3, #0
 1033              	.LVL117:
 1034 000c 0193     		str	r3, [sp, #4]
 1035 000e 0293     		str	r3, [sp, #8]
 1036 0010 0393     		str	r3, [sp, #12]
 1037 0012 0493     		str	r3, [sp, #16]
 1038 0014 ADF81430 		strh	r3, [sp, #20]	@ movhi
 1039              	.LVL118:
 154:.\protocol.c  ****     if(state == 0x06 || state == 0x07){
 1040              		.loc 1 154 0
 1041 0018 FFF7FEFF 		bl	get_state
 1042              	.LVL119:
 155:.\protocol.c  ****         Pump_PutChar(0x20|side);
 1043              		.loc 1 155 0
 1044 001c 0638     		subs	r0, r0, #6
 1045              	.LVL120:
 1046 001e C0B2     		uxtb	r0, r0
 1047 0020 0128     		cmp	r0, #1
 1048 0022 0AD8     		bhi	.L101
 156:.\protocol.c  ****         CyDelay(50);
 1049              		.loc 1 156 0
 1050 0024 45F02000 		orr	r0, r5, #32
 1051 0028 FFF7FEFF 		bl	Pump_PutChar
 1052              	.LVL121:
 157:.\protocol.c  ****         PumpDataReceive = Pump_ReadRxData();
ARM GAS  C:\Users\RECEPC~1\AppData\Local\Temp\ccdPVhXF.s 			page 29


 1053              		.loc 1 157 0
 1054 002c 3220     		movs	r0, #50
 1055 002e FFF7FEFF 		bl	CyDelay
 1056              	.LVL122:
 158:.\protocol.c  ****     }
 1057              		.loc 1 158 0
 1058 0032 FFF7FEFF 		bl	Pump_ReadRxData
 1059              	.LVL123:
 1060 0036 0746     		mov	r7, r0
 1061              	.LVL124:
 1062 0038 00E0     		b	.L82
 1063              	.LVL125:
 1064              	.L101:
 151:.\protocol.c  ****     x = 0;
 1065              		.loc 1 151 0
 1066 003a 0027     		movs	r7, #0
 1067              	.LVL126:
 1068              	.L82:
 160:.\protocol.c  ****     Pump_ClearRxBuffer();
 1069              		.loc 1 160 0
 1070 003c FFF7FEFF 		bl	Pump_ClearRxBuffer
 1071              	.LVL127:
 161:.\protocol.c  ****     if(PumpDataReceive == (0xd0|side)){
 1072              		.loc 1 161 0
 1073 0040 FFF7FEFF 		bl	Pump_ClearRxBuffer
 1074              	.LVL128:
 162:.\protocol.c  ****         SendComand[x] = SOM; x++;
 1075              		.loc 1 162 0
 1076 0044 45F0D003 		orr	r3, r5, #208
 1077 0048 BB42     		cmp	r3, r7
 1078 004a 40F0AA80 		bne	.L102
 163:.\protocol.c  ****         SendComand[x] = 0xE1; x++;
 1079              		.loc 1 163 0
 1080 004e FF23     		movs	r3, #255
 1081 0050 8DF80430 		strb	r3, [sp, #4]
 1082              	.LVL129:
 164:.\protocol.c  ****         if(side == 1){
 1083              		.loc 1 164 0
 1084 0054 E123     		movs	r3, #225
 1085 0056 8DF80530 		strb	r3, [sp, #5]
 1086              	.LVL130:
 165:.\protocol.c  ****             SendComand[x] = 0xF0 | (bufferDisplay1.presetType[0]&0x0F); x++;
 1087              		.loc 1 165 0
 1088 005a 012D     		cmp	r5, #1
 1089 005c 40F0A380 		bne	.L103
 166:.\protocol.c  ****             SendComand[x] = 0xF6; x++;
 1090              		.loc 1 166 0
 1091 0060 524A     		ldr	r2, .L106
 1092 0062 92F87C30 		ldrb	r3, [r2, #124]	@ zero_extendqisi2
 1093 0066 63F00F03 		orn	r3, r3, #15
 1094 006a 8DF80630 		strb	r3, [sp, #6]
 1095              	.LVL131:
 167:.\protocol.c  ****             SendComand[x] = 0xE0 | ((grade-1)&0x0F); x++;
 1096              		.loc 1 167 0
 1097 006e F623     		movs	r3, #246
 1098 0070 8DF80730 		strb	r3, [sp, #7]
 1099              	.LVL132:
ARM GAS  C:\Users\RECEPC~1\AppData\Local\Temp\ccdPVhXF.s 			page 30


 168:.\protocol.c  ****             SendComand[x] = PRDn; x++;
 1100              		.loc 1 168 0
 1101 0074 013E     		subs	r6, r6, #1
 1102 0076 06F00F06 		and	r6, r6, #15
 1103 007a 66F01F06 		orn	r6, r6, #31
 1104 007e 8DF80860 		strb	r6, [sp, #8]
 1105              	.LVL133:
 169:.\protocol.c  ****             if(bufferDisplay1.presetType[1] == 'F'){
 1106              		.loc 1 169 0
 1107 0082 F823     		movs	r3, #248
 1108 0084 8DF80930 		strb	r3, [sp, #9]
 1109              	.LVL134:
 170:.\protocol.c  ****                 for(y = x; y < digits+x; y ++ ){
 1110              		.loc 1 170 0
 1111 0088 92F87D50 		ldrb	r5, [r2, #125]	@ zero_extendqisi2
 1112 008c 462D     		cmp	r5, #70
 1113 008e 09D0     		beq	.L104
 169:.\protocol.c  ****             if(bufferDisplay1.presetType[1] == 'F'){
 1114              		.loc 1 169 0
 1115 0090 0623     		movs	r3, #6
 1116 0092 1AE0     		b	.L85
 1117              	.LVL135:
 1118              	.L86:
 172:.\protocol.c  ****                 }                
 1119              		.loc 1 172 0 discriminator 3
 1120 0094 06AA     		add	r2, sp, #24
 1121 0096 1A44     		add	r2, r2, r3
 1122 0098 E921     		movs	r1, #233
 1123 009a 02F8141C 		strb	r1, [r2, #-20]
 171:.\protocol.c  ****                     SendComand[y] = 0xE9;                    
 1124              		.loc 1 171 0 discriminator 3
 1125 009e 0133     		adds	r3, r3, #1
 1126              	.LVL136:
 1127 00a0 DBB2     		uxtb	r3, r3
 1128              	.LVL137:
 1129 00a2 00E0     		b	.L84
 1130              	.LVL138:
 1131              	.L104:
 1132 00a4 0623     		movs	r3, #6
 1133              	.L84:
 1134              	.LVL139:
 171:.\protocol.c  ****                     SendComand[y] = 0xE9;                    
 1135              		.loc 1 171 0 is_stmt 0 discriminator 1
 1136 00a6 424A     		ldr	r2, .L106+4
 1137 00a8 1278     		ldrb	r2, [r2]	@ zero_extendqisi2
 1138 00aa 0632     		adds	r2, r2, #6
 1139 00ac 9342     		cmp	r3, r2
 1140 00ae F1DB     		blt	.L86
 1141              	.LVL140:
 175:.\protocol.c  ****                     SendComand[y] = 0xE0;
 1142              		.loc 1 175 0 is_stmt 1
 1143 00b0 1A46     		mov	r2, r3
 1144 00b2 08E0     		b	.L87
 1145              	.LVL141:
 1146              	.L88:
 176:.\protocol.c  ****                     x++;
 1147              		.loc 1 176 0 discriminator 3
ARM GAS  C:\Users\RECEPC~1\AppData\Local\Temp\ccdPVhXF.s 			page 31


 1148 00b4 06A9     		add	r1, sp, #24
 1149 00b6 1144     		add	r1, r1, r2
 1150 00b8 E020     		movs	r0, #224
 1151 00ba 01F8140C 		strb	r0, [r1, #-20]
 177:.\protocol.c  ****                 }                
 1152              		.loc 1 177 0 discriminator 3
 1153 00be 0133     		adds	r3, r3, #1
 1154              	.LVL142:
 1155 00c0 DBB2     		uxtb	r3, r3
 1156              	.LVL143:
 175:.\protocol.c  ****                     SendComand[y] = 0xE0;
 1157              		.loc 1 175 0 discriminator 3
 1158 00c2 0132     		adds	r2, r2, #1
 1159              	.LVL144:
 1160 00c4 D2B2     		uxtb	r2, r2
 1161              	.LVL145:
 1162              	.L87:
 175:.\protocol.c  ****                     SendComand[y] = 0xE0;
 1163              		.loc 1 175 0 is_stmt 0 discriminator 1
 1164 00c6 0D2A     		cmp	r2, #13
 1165 00c8 F4D9     		bls	.L88
 1166              	.LVL146:
 1167              	.L85:
 180:.\protocol.c  ****                 z = value[0];
 1168              		.loc 1 180 0 is_stmt 1
 1169 00ca 442D     		cmp	r5, #68
 1170 00cc 20D1     		bne	.L89
 181:.\protocol.c  ****                 for(y = x; y < value[0]+x; y ++ ){
 1171              		.loc 1 181 0
 1172 00ce 2078     		ldrb	r0, [r4]	@ zero_extendqisi2
 1173              	.LVL147:
 182:.\protocol.c  ****                     SendComand[y] = 0xE0|(value[z]&0x0F); z--;                    
 1174              		.loc 1 182 0
 1175 00d0 1A46     		mov	r2, r3
 1176 00d2 0CE0     		b	.L90
 1177              	.LVL148:
 1178              	.L91:
 183:.\protocol.c  ****                 }                
 1179              		.loc 1 183 0 discriminator 3
 1180 00d4 215C     		ldrb	r1, [r4, r0]	@ zero_extendqisi2
 1181 00d6 06AE     		add	r6, sp, #24
 1182 00d8 1644     		add	r6, r6, r2
 1183 00da 01F00F01 		and	r1, r1, #15
 1184 00de 61F01F01 		orn	r1, r1, #31
 1185 00e2 06F8141C 		strb	r1, [r6, #-20]
 1186 00e6 0138     		subs	r0, r0, #1
 1187              	.LVL149:
 1188 00e8 C0B2     		uxtb	r0, r0
 1189              	.LVL150:
 182:.\protocol.c  ****                     SendComand[y] = 0xE0|(value[z]&0x0F); z--;                    
 1190              		.loc 1 182 0 discriminator 3
 1191 00ea 0132     		adds	r2, r2, #1
 1192              	.LVL151:
 1193 00ec D2B2     		uxtb	r2, r2
 1194              	.LVL152:
 1195              	.L90:
 182:.\protocol.c  ****                     SendComand[y] = 0xE0|(value[z]&0x0F); z--;                    
ARM GAS  C:\Users\RECEPC~1\AppData\Local\Temp\ccdPVhXF.s 			page 32


 1196              		.loc 1 182 0 is_stmt 0 discriminator 1
 1197 00ee 2178     		ldrb	r1, [r4]	@ zero_extendqisi2
 1198 00f0 1944     		add	r1, r1, r3
 1199 00f2 8A42     		cmp	r2, r1
 1200 00f4 EEDB     		blt	.L91
 185:.\protocol.c  ****                 for(y = x; y < 14; y ++ ){
 1201              		.loc 1 185 0 is_stmt 1
 1202 00f6 1346     		mov	r3, r2
 1203              	.LVL153:
 186:.\protocol.c  ****                     SendComand[y] = 0xE0;
 1204              		.loc 1 186 0
 1205 00f8 08E0     		b	.L92
 1206              	.LVL154:
 1207              	.L93:
 187:.\protocol.c  ****                     x++;
 1208              		.loc 1 187 0 discriminator 3
 1209 00fa 06A9     		add	r1, sp, #24
 1210 00fc 1144     		add	r1, r1, r2
 1211 00fe E020     		movs	r0, #224
 1212 0100 01F8140C 		strb	r0, [r1, #-20]
 188:.\protocol.c  ****                 }                
 1213              		.loc 1 188 0 discriminator 3
 1214 0104 0133     		adds	r3, r3, #1
 1215              	.LVL155:
 1216 0106 DBB2     		uxtb	r3, r3
 1217              	.LVL156:
 186:.\protocol.c  ****                     SendComand[y] = 0xE0;
 1218              		.loc 1 186 0 discriminator 3
 1219 0108 0132     		adds	r2, r2, #1
 1220              	.LVL157:
 1221 010a D2B2     		uxtb	r2, r2
 1222              	.LVL158:
 1223              	.L92:
 186:.\protocol.c  ****                     SendComand[y] = 0xE0;
 1224              		.loc 1 186 0 is_stmt 0 discriminator 1
 1225 010c 0D2A     		cmp	r2, #13
 1226 010e F4D9     		bls	.L93
 1227              	.LVL159:
 1228              	.L89:
 191:.\protocol.c  ****                 z = value[0];
 1229              		.loc 1 191 0 is_stmt 1
 1230 0110 562D     		cmp	r5, #86
 1231 0112 20D1     		bne	.L94
 192:.\protocol.c  ****                 for(y = x; y < value[0]+x; y ++ ){
 1232              		.loc 1 192 0
 1233 0114 2078     		ldrb	r0, [r4]	@ zero_extendqisi2
 1234              	.LVL160:
 193:.\protocol.c  ****                     SendComand[y] = 0xE0|(value[z]&0x0F); z--;                    
 1235              		.loc 1 193 0
 1236 0116 1A46     		mov	r2, r3
 1237 0118 0CE0     		b	.L95
 1238              	.LVL161:
 1239              	.L96:
 194:.\protocol.c  ****                 }                
 1240              		.loc 1 194 0 discriminator 3
 1241 011a 215C     		ldrb	r1, [r4, r0]	@ zero_extendqisi2
 1242 011c 06AD     		add	r5, sp, #24
ARM GAS  C:\Users\RECEPC~1\AppData\Local\Temp\ccdPVhXF.s 			page 33


 1243 011e 1544     		add	r5, r5, r2
 1244 0120 01F00F01 		and	r1, r1, #15
 1245 0124 61F01F01 		orn	r1, r1, #31
 1246 0128 05F8141C 		strb	r1, [r5, #-20]
 1247 012c 0138     		subs	r0, r0, #1
 1248              	.LVL162:
 1249 012e C0B2     		uxtb	r0, r0
 1250              	.LVL163:
 193:.\protocol.c  ****                     SendComand[y] = 0xE0|(value[z]&0x0F); z--;                    
 1251              		.loc 1 193 0 discriminator 3
 1252 0130 0132     		adds	r2, r2, #1
 1253              	.LVL164:
 1254 0132 D2B2     		uxtb	r2, r2
 1255              	.LVL165:
 1256              	.L95:
 193:.\protocol.c  ****                     SendComand[y] = 0xE0|(value[z]&0x0F); z--;                    
 1257              		.loc 1 193 0 is_stmt 0 discriminator 1
 1258 0134 2178     		ldrb	r1, [r4]	@ zero_extendqisi2
 1259 0136 1944     		add	r1, r1, r3
 1260 0138 8A42     		cmp	r2, r1
 1261 013a EEDB     		blt	.L96
 196:.\protocol.c  ****                 for(y = x; y < 14; y ++ ){
 1262              		.loc 1 196 0 is_stmt 1
 1263 013c 1346     		mov	r3, r2
 1264              	.LVL166:
 197:.\protocol.c  ****                     SendComand[y] = 0xE0;
 1265              		.loc 1 197 0
 1266 013e 08E0     		b	.L97
 1267              	.LVL167:
 1268              	.L98:
 198:.\protocol.c  ****                     x++;
 1269              		.loc 1 198 0 discriminator 3
 1270 0140 06A9     		add	r1, sp, #24
 1271 0142 1144     		add	r1, r1, r2
 1272 0144 E020     		movs	r0, #224
 1273 0146 01F8140C 		strb	r0, [r1, #-20]
 199:.\protocol.c  ****                 }                
 1274              		.loc 1 199 0 discriminator 3
 1275 014a 0133     		adds	r3, r3, #1
 1276              	.LVL168:
 1277 014c DBB2     		uxtb	r3, r3
 1278              	.LVL169:
 197:.\protocol.c  ****                     SendComand[y] = 0xE0;
 1279              		.loc 1 197 0 discriminator 3
 1280 014e 0132     		adds	r2, r2, #1
 1281              	.LVL170:
 1282 0150 D2B2     		uxtb	r2, r2
 1283              	.LVL171:
 1284              	.L97:
 197:.\protocol.c  ****                     SendComand[y] = 0xE0;
 1285              		.loc 1 197 0 is_stmt 0 discriminator 1
 1286 0152 0D2A     		cmp	r2, #13
 1287 0154 F4D9     		bls	.L98
 1288              	.LVL172:
 1289              	.L94:
 202:.\protocol.c  ****             SendComand[x] = GetLRC(SendComand);  x++;
 1290              		.loc 1 202 0 is_stmt 1
ARM GAS  C:\Users\RECEPC~1\AppData\Local\Temp\ccdPVhXF.s 			page 34


 1291 0156 06AA     		add	r2, sp, #24
 1292 0158 1A44     		add	r2, r2, r3
 1293 015a FB21     		movs	r1, #251
 1294 015c 02F8141C 		strb	r1, [r2, #-20]
 1295 0160 5D1C     		adds	r5, r3, #1
 1296 0162 EDB2     		uxtb	r5, r5
 1297              	.LVL173:
 203:.\protocol.c  ****             SendComand[x] = (EOM);
 1298              		.loc 1 203 0
 1299 0164 01A8     		add	r0, sp, #4
 1300 0166 FFF7FEFF 		bl	GetLRC
 1301              	.LVL174:
 1302 016a 06AB     		add	r3, sp, #24
 1303 016c 2B44     		add	r3, r3, r5
 1304 016e 03F8140C 		strb	r0, [r3, #-20]
 1305 0172 0135     		adds	r5, r5, #1
 1306              	.LVL175:
 1307 0174 EDB2     		uxtb	r5, r5
 1308              	.LVL176:
 204:.\protocol.c  ****             for(y=0; y<=x;y++){
 1309              		.loc 1 204 0
 1310 0176 06AB     		add	r3, sp, #24
 1311 0178 2B44     		add	r3, r3, r5
 1312 017a F022     		movs	r2, #240
 1313 017c 03F8142C 		strb	r2, [r3, #-20]
 1314              	.LVL177:
 205:.\protocol.c  ****                 Pump_PutChar(SendComand[y]);
 1315              		.loc 1 205 0
 1316 0180 0024     		movs	r4, #0
 1317              	.LVL178:
 1318 0182 07E0     		b	.L99
 1319              	.LVL179:
 1320              	.L100:
 206:.\protocol.c  ****             } 
 1321              		.loc 1 206 0 discriminator 3
 1322 0184 06AB     		add	r3, sp, #24
 1323 0186 2344     		add	r3, r3, r4
 1324 0188 13F8140C 		ldrb	r0, [r3, #-20]	@ zero_extendqisi2
 1325 018c FFF7FEFF 		bl	Pump_PutChar
 1326              	.LVL180:
 205:.\protocol.c  ****                 Pump_PutChar(SendComand[y]);
 1327              		.loc 1 205 0 discriminator 3
 1328 0190 0134     		adds	r4, r4, #1
 1329              	.LVL181:
 1330 0192 E4B2     		uxtb	r4, r4
 1331              	.LVL182:
 1332              	.L99:
 205:.\protocol.c  ****                 Pump_PutChar(SendComand[y]);
 1333              		.loc 1 205 0 is_stmt 0 discriminator 1
 1334 0194 AC42     		cmp	r4, r5
 1335 0196 F5D9     		bls	.L100
 208:.\protocol.c  ****             return 1;
 1336              		.loc 1 208 0 is_stmt 1
 1337 0198 3220     		movs	r0, #50
 1338 019a FFF7FEFF 		bl	CyDelay
 1339              	.LVL183:
 209:.\protocol.c  ****         }
ARM GAS  C:\Users\RECEPC~1\AppData\Local\Temp\ccdPVhXF.s 			page 35


 1340              		.loc 1 209 0
 1341 019e 0120     		movs	r0, #1
 1342 01a0 02E0     		b	.L83
 1343              	.LVL184:
 1344              	.L102:
 212:.\protocol.c  **** }
 1345              		.loc 1 212 0
 1346 01a2 0020     		movs	r0, #0
 1347 01a4 00E0     		b	.L83
 1348              	.LVL185:
 1349              	.L103:
 1350 01a6 0020     		movs	r0, #0
 1351              	.LVL186:
 1352              	.L83:
 213:.\protocol.c  **** 
 1353              		.loc 1 213 0
 1354 01a8 07B0     		add	sp, sp, #28
 1355              		.cfi_def_cfa_offset 20
 1356              		@ sp needed
 1357 01aa F0BD     		pop	{r4, r5, r6, r7, pc}
 1358              	.LVL187:
 1359              	.L107:
 1360              		.align	2
 1361              	.L106:
 1362 01ac 00000000 		.word	bufferDisplay1
 1363 01b0 00000000 		.word	digits
 1364              		.cfi_endproc
 1365              	.LFE65:
 1366              		.size	PresetData, .-PresetData
 1367              		.section	.text.PumpCompleteConfiguration,"ax",%progbits
 1368              		.align	2
 1369              		.global	PumpCompleteConfiguration
 1370              		.thumb
 1371              		.thumb_func
 1372              		.type	PumpCompleteConfiguration, %function
 1373              	PumpCompleteConfiguration:
 1374              	.LFB66:
 217:.\protocol.c  ****     uint8 state,x;
 1375              		.loc 1 217 0
 1376              		.cfi_startproc
 1377              		@ args = 0, pretend = 0, frame = 16
 1378              		@ frame_needed = 1, uses_anonymous_args = 0
 1379              	.LVL188:
 1380 0000 F0B5     		push	{r4, r5, r6, r7, lr}
 1381              		.cfi_def_cfa_offset 20
 1382              		.cfi_offset 4, -20
 1383              		.cfi_offset 5, -16
 1384              		.cfi_offset 6, -12
 1385              		.cfi_offset 7, -8
 1386              		.cfi_offset 14, -4
 1387 0002 85B0     		sub	sp, sp, #20
 1388              		.cfi_def_cfa_offset 40
 1389 0004 00AF     		add	r7, sp, #0
 1390              		.cfi_def_cfa_register 7
 1391 0006 0446     		mov	r4, r0
 1392              	.LVL189:
 224:.\protocol.c  ****     if(state == 0x06){
ARM GAS  C:\Users\RECEPC~1\AppData\Local\Temp\ccdPVhXF.s 			page 36


 1393              		.loc 1 224 0
 1394 0008 FFF7FEFF 		bl	get_state
 1395              	.LVL190:
 225:.\protocol.c  ****         Pump_PutChar(0x20|side);
 1396              		.loc 1 225 0
 1397 000c 0628     		cmp	r0, #6
 1398 000e 0AD1     		bne	.L120
 226:.\protocol.c  ****         CyDelay(50);
 1399              		.loc 1 226 0
 1400 0010 44F02000 		orr	r0, r4, #32
 1401              	.LVL191:
 1402 0014 FFF7FEFF 		bl	Pump_PutChar
 1403              	.LVL192:
 227:.\protocol.c  ****         PumpDataReceive = Pump_ReadRxData();
 1404              		.loc 1 227 0
 1405 0018 3220     		movs	r0, #50
 1406 001a FFF7FEFF 		bl	CyDelay
 1407              	.LVL193:
 228:.\protocol.c  ****     }
 1408              		.loc 1 228 0
 1409 001e FFF7FEFF 		bl	Pump_ReadRxData
 1410              	.LVL194:
 1411 0022 0546     		mov	r5, r0
 1412              	.LVL195:
 1413 0024 00E0     		b	.L109
 1414              	.LVL196:
 1415              	.L120:
 220:.\protocol.c  ****     
 1416              		.loc 1 220 0
 1417 0026 0025     		movs	r5, #0
 1418              	.LVL197:
 1419              	.L109:
 230:.\protocol.c  ****     if(PumpDataReceive == (0xd0|side)){    
 1420              		.loc 1 230 0
 1421 0028 FFF7FEFF 		bl	Pump_ClearRxBuffer
 1422              	.LVL198:
 231:.\protocol.c  ****         SendComand[0] = SOM; //Start Of Message    
 1423              		.loc 1 231 0
 1424 002c 44F0D004 		orr	r4, r4, #208
 1425 0030 AC42     		cmp	r4, r5
 1426 0032 22D1     		bne	.L110
 232:.\protocol.c  ****         SendComand[1] = (0xE9);//Data Length
 1427              		.loc 1 232 0
 1428 0034 FF23     		movs	r3, #255
 1429 0036 3B71     		strb	r3, [r7, #4]
 233:.\protocol.c  ****         SendComand[2] = (0xFE);//Special Functions Next (0xB0 0xB0 0xBE)
 1430              		.loc 1 233 0
 1431 0038 E923     		movs	r3, #233
 1432 003a 7B71     		strb	r3, [r7, #5]
 234:.\protocol.c  ****         SendComand[3] = (0xEE);//Complete Pump Configuration Request (sf1)
 1433              		.loc 1 234 0
 1434 003c FE23     		movs	r3, #254
 1435 003e BB71     		strb	r3, [r7, #6]
 235:.\protocol.c  ****         SendComand[4] = (0xE0);//Complete Pump Configuration Request (sf2)
 1436              		.loc 1 235 0
 1437 0040 EE23     		movs	r3, #238
 1438 0042 FB71     		strb	r3, [r7, #7]
ARM GAS  C:\Users\RECEPC~1\AppData\Local\Temp\ccdPVhXF.s 			page 37


 236:.\protocol.c  ****         SendComand[5] = (0xE0);//Complete Pump Configuration Request (sf3)
 1439              		.loc 1 236 0
 1440 0044 E023     		movs	r3, #224
 1441 0046 3B72     		strb	r3, [r7, #8]
 237:.\protocol.c  ****         SendComand[6] = (0xFB);
 1442              		.loc 1 237 0
 1443 0048 7B72     		strb	r3, [r7, #9]
 238:.\protocol.c  ****         SendComand[7] = GetLRC(SendComand);
 1444              		.loc 1 238 0
 1445 004a FB23     		movs	r3, #251
 1446 004c BB72     		strb	r3, [r7, #10]
 239:.\protocol.c  ****         SendComand[8] = (EOM);
 1447              		.loc 1 239 0
 1448 004e 381D     		adds	r0, r7, #4
 1449 0050 FFF7FEFF 		bl	GetLRC
 1450              	.LVL199:
 1451 0054 F872     		strb	r0, [r7, #11]
 240:.\protocol.c  ****         for(x=0; x<=8;x++){
 1452              		.loc 1 240 0
 1453 0056 F023     		movs	r3, #240
 1454 0058 3B73     		strb	r3, [r7, #12]
 1455              	.LVL200:
 241:.\protocol.c  ****             Pump_PutChar(SendComand[x]);
 1456              		.loc 1 241 0
 1457 005a 0024     		movs	r4, #0
 1458 005c 08E0     		b	.L111
 1459              	.LVL201:
 1460              	.L112:
 242:.\protocol.c  ****         } 
 1461              		.loc 1 242 0 discriminator 3
 1462 005e 07F11003 		add	r3, r7, #16
 1463 0062 2344     		add	r3, r3, r4
 1464 0064 13F80C0C 		ldrb	r0, [r3, #-12]	@ zero_extendqisi2
 1465 0068 FFF7FEFF 		bl	Pump_PutChar
 1466              	.LVL202:
 241:.\protocol.c  ****             Pump_PutChar(SendComand[x]);
 1467              		.loc 1 241 0 discriminator 3
 1468 006c 0134     		adds	r4, r4, #1
 1469              	.LVL203:
 1470 006e E4B2     		uxtb	r4, r4
 1471              	.LVL204:
 1472              	.L111:
 241:.\protocol.c  ****             Pump_PutChar(SendComand[x]);
 1473              		.loc 1 241 0 is_stmt 0 discriminator 1
 1474 0070 082C     		cmp	r4, #8
 1475 0072 F4D9     		bls	.L112
 244:.\protocol.c  ****     }
 1476              		.loc 1 244 0 is_stmt 1
 1477 0074 C820     		movs	r0, #200
 1478 0076 FFF7FEFF 		bl	CyDelay
 1479              	.LVL205:
 1480              	.L110:
 246:.\protocol.c  ****     char8 buffer[BufferSize];
 1481              		.loc 1 246 0
 1482 007a FFF7FEFF 		bl	Pump_GetRxBufferSize
 1483              	.LVL206:
 1484 007e C6B2     		uxtb	r6, r0
ARM GAS  C:\Users\RECEPC~1\AppData\Local\Temp\ccdPVhXF.s 			page 38


 1485              	.LVL207:
 247:.\protocol.c  ****     for(x=0;x<=BufferSize;x++){
 1486              		.loc 1 247 0
 1487 0080 F31D     		adds	r3, r6, #7
 1488 0082 23F00703 		bic	r3, r3, #7
 1489 0086 ADEB030D 		sub	sp, sp, r3
 1490 008a 6D46     		mov	r5, sp
 1491              	.LVL208:
 248:.\protocol.c  ****        buffer[x]=Pump_ReadRxData(); 
 1492              		.loc 1 248 0
 1493 008c 0024     		movs	r4, #0
 1494 008e 04E0     		b	.L113
 1495              	.LVL209:
 1496              	.L114:
 249:.\protocol.c  ****     }
 1497              		.loc 1 249 0 discriminator 3
 1498 0090 FFF7FEFF 		bl	Pump_ReadRxData
 1499              	.LVL210:
 1500 0094 2855     		strb	r0, [r5, r4]
 248:.\protocol.c  ****        buffer[x]=Pump_ReadRxData(); 
 1501              		.loc 1 248 0 discriminator 3
 1502 0096 0134     		adds	r4, r4, #1
 1503              	.LVL211:
 1504 0098 E4B2     		uxtb	r4, r4
 1505              	.LVL212:
 1506              	.L113:
 248:.\protocol.c  ****        buffer[x]=Pump_ReadRxData(); 
 1507              		.loc 1 248 0 is_stmt 0 discriminator 1
 1508 009a B442     		cmp	r4, r6
 1509 009c F8D9     		bls	.L114
 251:.\protocol.c  **** ///////////////////////////////////////////////////////////////////////////////////////////////////
 1510              		.loc 1 251 0 is_stmt 1
 1511 009e FFF7FEFF 		bl	Pump_ClearRxBuffer
 1512              	.LVL213:
 253:.\protocol.c  ****     ConversionFactor    =  buffer [12] &0x0F;
 1513              		.loc 1 253 0
 1514 00a2 AB7A     		ldrb	r3, [r5, #10]	@ zero_extendqisi2
 1515 00a4 03F00F03 		and	r3, r3, #15
 1516 00a8 184A     		ldr	r2, .L122
 1517 00aa 1370     		strb	r3, [r2]
 254:.\protocol.c  ****     MoneyDec            = (buffer [14] &0x0F)-1;
 1518              		.loc 1 254 0
 1519 00ac 2B7B     		ldrb	r3, [r5, #12]	@ zero_extendqisi2
 1520 00ae 03F00F03 		and	r3, r3, #15
 1521 00b2 174A     		ldr	r2, .L122+4
 1522 00b4 1370     		strb	r3, [r2]
 255:.\protocol.c  ****     if( (buffer [16]&0x0F) == 1 || (buffer [16]&0x0F) == 4){
 1523              		.loc 1 255 0
 1524 00b6 AB7B     		ldrb	r3, [r5, #14]	@ zero_extendqisi2
 1525 00b8 03F00F03 		and	r3, r3, #15
 1526 00bc 013B     		subs	r3, r3, #1
 1527 00be 154A     		ldr	r2, .L122+8
 1528 00c0 1370     		strb	r3, [r2]
 256:.\protocol.c  ****         VolDec              = 3;
 1529              		.loc 1 256 0
 1530 00c2 2B7C     		ldrb	r3, [r5, #16]	@ zero_extendqisi2
 1531 00c4 03F00F03 		and	r3, r3, #15
ARM GAS  C:\Users\RECEPC~1\AppData\Local\Temp\ccdPVhXF.s 			page 39


 1532 00c8 012B     		cmp	r3, #1
 1533 00ca 01D0     		beq	.L115
 256:.\protocol.c  ****         VolDec              = 3;
 1534              		.loc 1 256 0 is_stmt 0 discriminator 1
 1535 00cc 042B     		cmp	r3, #4
 1536 00ce 02D1     		bne	.L116
 1537              	.L115:
 257:.\protocol.c  ****     }
 1538              		.loc 1 257 0 is_stmt 1
 1539 00d0 0321     		movs	r1, #3
 1540 00d2 114A     		ldr	r2, .L122+12
 1541 00d4 1170     		strb	r1, [r2]
 1542              	.L116:
 259:.\protocol.c  ****         VolDec              = 2;
 1543              		.loc 1 259 0
 1544 00d6 032B     		cmp	r3, #3
 1545 00d8 00D0     		beq	.L117
 259:.\protocol.c  ****         VolDec              = 2;
 1546              		.loc 1 259 0 is_stmt 0 discriminator 1
 1547 00da 13B9     		cbnz	r3, .L118
 1548              	.L117:
 260:.\protocol.c  ****     }
 1549              		.loc 1 260 0 is_stmt 1
 1550 00dc 0221     		movs	r1, #2
 1551 00de 0E4A     		ldr	r2, .L122+12
 1552 00e0 1170     		strb	r1, [r2]
 1553              	.L118:
 262:.\protocol.c  ****         VolDec              = 1;
 1554              		.loc 1 262 0
 1555 00e2 022B     		cmp	r3, #2
 1556 00e4 02D1     		bne	.L119
 263:.\protocol.c  ****     }
 1557              		.loc 1 263 0
 1558 00e6 0122     		movs	r2, #1
 1559 00e8 0B4B     		ldr	r3, .L122+12
 1560 00ea 1A70     		strb	r2, [r3]
 1561              	.L119:
 265:.\protocol.c  ****     DDMode              =  buffer [20] &0x0F;
 1562              		.loc 1 265 0
 1563 00ec AB7C     		ldrb	r3, [r5, #18]	@ zero_extendqisi2
 1564 00ee 03F00F03 		and	r3, r3, #15
 1565 00f2 013B     		subs	r3, r3, #1
 1566 00f4 094A     		ldr	r2, .L122+16
 1567 00f6 1370     		strb	r3, [r2]
 266:.\protocol.c  ****     
 1568              		.loc 1 266 0
 1569 00f8 2B7D     		ldrb	r3, [r5, #20]	@ zero_extendqisi2
 1570 00fa 03F00F03 		and	r3, r3, #15
 1571 00fe 084A     		ldr	r2, .L122+20
 1572 0100 1370     		strb	r3, [r2]
 269:.\protocol.c  **** 
 1573              		.loc 1 269 0
 1574 0102 0020     		movs	r0, #0
 1575 0104 1437     		adds	r7, r7, #20
 1576              		.cfi_def_cfa_offset 20
 1577 0106 BD46     		mov	sp, r7
 1578              		.cfi_def_cfa_register 13
ARM GAS  C:\Users\RECEPC~1\AppData\Local\Temp\ccdPVhXF.s 			page 40


 1579              		@ sp needed
 1580 0108 F0BD     		pop	{r4, r5, r6, r7, pc}
 1581              	.LVL214:
 1582              	.L123:
 1583 010a 00BF     		.align	2
 1584              	.L122:
 1585 010c 00000000 		.word	UnitType
 1586 0110 00000000 		.word	ConversionFactor
 1587 0114 00000000 		.word	MoneyDec
 1588 0118 00000000 		.word	VolDec
 1589 011c 00000000 		.word	PPUDec
 1590 0120 00000000 		.word	DDMode
 1591              		.cfi_endproc
 1592              	.LFE66:
 1593              		.size	PumpCompleteConfiguration, .-PumpCompleteConfiguration
 1594              		.section	.text.PumpHoseActiveState,"ax",%progbits
 1595              		.align	2
 1596              		.global	PumpHoseActiveState
 1597              		.thumb
 1598              		.thumb_func
 1599              		.type	PumpHoseActiveState, %function
 1600              	PumpHoseActiveState:
 1601              	.LFB67:
 271:.\protocol.c  ****     uint8 state,x;
 1602              		.loc 1 271 0
 1603              		.cfi_startproc
 1604              		@ args = 0, pretend = 0, frame = 16
 1605              		@ frame_needed = 1, uses_anonymous_args = 0
 1606              	.LVL215:
 1607 0000 F0B5     		push	{r4, r5, r6, r7, lr}
 1608              		.cfi_def_cfa_offset 20
 1609              		.cfi_offset 4, -20
 1610              		.cfi_offset 5, -16
 1611              		.cfi_offset 6, -12
 1612              		.cfi_offset 7, -8
 1613              		.cfi_offset 14, -4
 1614 0002 85B0     		sub	sp, sp, #20
 1615              		.cfi_def_cfa_offset 40
 1616 0004 00AF     		add	r7, sp, #0
 1617              		.cfi_def_cfa_register 7
 1618 0006 0446     		mov	r4, r0
 1619              	.LVL216:
 278:.\protocol.c  ****     if(state == PUMP_IDLE || state == PUMP_CALLING){
 1620              		.loc 1 278 0
 1621 0008 FFF7FEFF 		bl	get_state
 1622              	.LVL217:
 279:.\protocol.c  ****         Pump_PutChar(0x20|side);
 1623              		.loc 1 279 0
 1624 000c 0638     		subs	r0, r0, #6
 1625              	.LVL218:
 1626 000e C0B2     		uxtb	r0, r0
 1627 0010 0128     		cmp	r0, #1
 1628 0012 0AD8     		bhi	.L133
 280:.\protocol.c  ****         CyDelay(50);
 1629              		.loc 1 280 0
 1630 0014 44F02000 		orr	r0, r4, #32
 1631 0018 FFF7FEFF 		bl	Pump_PutChar
ARM GAS  C:\Users\RECEPC~1\AppData\Local\Temp\ccdPVhXF.s 			page 41


 1632              	.LVL219:
 281:.\protocol.c  ****         PumpDataReceive = Pump_ReadRxData();
 1633              		.loc 1 281 0
 1634 001c 3220     		movs	r0, #50
 1635 001e FFF7FEFF 		bl	CyDelay
 1636              	.LVL220:
 282:.\protocol.c  ****     }
 1637              		.loc 1 282 0
 1638 0022 FFF7FEFF 		bl	Pump_ReadRxData
 1639              	.LVL221:
 1640 0026 0546     		mov	r5, r0
 1641              	.LVL222:
 1642 0028 00E0     		b	.L125
 1643              	.LVL223:
 1644              	.L133:
 274:.\protocol.c  ****     
 1645              		.loc 1 274 0
 1646 002a 0025     		movs	r5, #0
 1647              	.LVL224:
 1648              	.L125:
 284:.\protocol.c  ****     if(PumpDataReceive == (0xd0|side)){
 1649              		.loc 1 284 0
 1650 002c FFF7FEFF 		bl	Pump_ClearRxBuffer
 1651              	.LVL225:
 285:.\protocol.c  ****         SendComand[0] = SOM;//Start Of Message
 1652              		.loc 1 285 0
 1653 0030 44F0D004 		orr	r4, r4, #208
 1654 0034 AC42     		cmp	r4, r5
 1655 0036 2AD1     		bne	.L126
 286:.\protocol.c  ****         SendComand[1] = 0xE9;//Data Length
 1656              		.loc 1 286 0
 1657 0038 FF23     		movs	r3, #255
 1658 003a 3B71     		strb	r3, [r7, #4]
 287:.\protocol.c  ****         SendComand[2] = 0xFE;//Special Functions Next (0xB0 0xB0 0xB6)
 1659              		.loc 1 287 0
 1660 003c E923     		movs	r3, #233
 1661 003e 7B71     		strb	r3, [r7, #5]
 288:.\protocol.c  ****         SendComand[3] = 0xE0;//Complete Pump Configuration Request (sf1)
 1662              		.loc 1 288 0
 1663 0040 FE23     		movs	r3, #254
 1664 0042 BB71     		strb	r3, [r7, #6]
 289:.\protocol.c  ****         SendComand[4] = 0xE1;//Complete Pump Configuration Request (sf2)
 1665              		.loc 1 289 0
 1666 0044 E023     		movs	r3, #224
 1667 0046 FB71     		strb	r3, [r7, #7]
 290:.\protocol.c  ****         SendComand[5] = 0xE0;//Complete Pump Configuration Request (sf3)
 1668              		.loc 1 290 0
 1669 0048 E122     		movs	r2, #225
 1670 004a 3A72     		strb	r2, [r7, #8]
 291:.\protocol.c  ****         SendComand[6] = 0xFB;
 1671              		.loc 1 291 0
 1672 004c 7B72     		strb	r3, [r7, #9]
 292:.\protocol.c  ****         SendComand[7] = GetLRC(SendComand);
 1673              		.loc 1 292 0
 1674 004e FB23     		movs	r3, #251
 1675 0050 BB72     		strb	r3, [r7, #10]
 293:.\protocol.c  ****         SendComand[8] = EOM;
ARM GAS  C:\Users\RECEPC~1\AppData\Local\Temp\ccdPVhXF.s 			page 42


 1676              		.loc 1 293 0
 1677 0052 381D     		adds	r0, r7, #4
 1678 0054 FFF7FEFF 		bl	GetLRC
 1679              	.LVL226:
 1680 0058 F872     		strb	r0, [r7, #11]
 294:.\protocol.c  ****         for(x=0; x<=8;x++){
 1681              		.loc 1 294 0
 1682 005a F023     		movs	r3, #240
 1683 005c 3B73     		strb	r3, [r7, #12]
 1684              	.LVL227:
 295:.\protocol.c  ****             Pump_PutChar(SendComand[x]);
 1685              		.loc 1 295 0
 1686 005e 0024     		movs	r4, #0
 1687 0060 08E0     		b	.L127
 1688              	.LVL228:
 1689              	.L128:
 296:.\protocol.c  ****         } 
 1690              		.loc 1 296 0 discriminator 3
 1691 0062 07F11003 		add	r3, r7, #16
 1692 0066 2344     		add	r3, r3, r4
 1693 0068 13F80C0C 		ldrb	r0, [r3, #-12]	@ zero_extendqisi2
 1694 006c FFF7FEFF 		bl	Pump_PutChar
 1695              	.LVL229:
 295:.\protocol.c  ****             Pump_PutChar(SendComand[x]);
 1696              		.loc 1 295 0 discriminator 3
 1697 0070 0134     		adds	r4, r4, #1
 1698              	.LVL230:
 1699 0072 E4B2     		uxtb	r4, r4
 1700              	.LVL231:
 1701              	.L127:
 295:.\protocol.c  ****             Pump_PutChar(SendComand[x]);
 1702              		.loc 1 295 0 is_stmt 0 discriminator 1
 1703 0074 082C     		cmp	r4, #8
 1704 0076 F4D9     		bls	.L128
 298:.\protocol.c  ****             CyDelay(700);
 1705              		.loc 1 298 0 is_stmt 1
 1706 0078 154B     		ldr	r3, .L136
 1707 007a 1B78     		ldrb	r3, [r3]	@ zero_extendqisi2
 1708 007c 23B1     		cbz	r3, .L129
 299:.\protocol.c  ****         }else{
 1709              		.loc 1 299 0
 1710 007e 4FF42F70 		mov	r0, #700
 1711 0082 FFF7FEFF 		bl	CyDelay
 1712              	.LVL232:
 1713 0086 02E0     		b	.L126
 1714              	.L129:
 301:.\protocol.c  ****         }
 1715              		.loc 1 301 0
 1716 0088 C820     		movs	r0, #200
 1717 008a FFF7FEFF 		bl	CyDelay
 1718              	.LVL233:
 1719              	.L126:
 305:.\protocol.c  ****     char8 buffer[BufferSize];
 1720              		.loc 1 305 0
 1721 008e FFF7FEFF 		bl	Pump_GetRxBufferSize
 1722              	.LVL234:
 1723 0092 C5B2     		uxtb	r5, r0
ARM GAS  C:\Users\RECEPC~1\AppData\Local\Temp\ccdPVhXF.s 			page 43


 1724              	.LVL235:
 306:.\protocol.c  ****     for(x=0;x<=BufferSize;x++){
 1725              		.loc 1 306 0
 1726 0094 EB1D     		adds	r3, r5, #7
 1727 0096 23F00703 		bic	r3, r3, #7
 1728 009a ADEB030D 		sub	sp, sp, r3
 1729 009e 6E46     		mov	r6, sp
 1730              	.LVL236:
 307:.\protocol.c  ****        buffer[x]=Pump_ReadRxData(); 
 1731              		.loc 1 307 0
 1732 00a0 0024     		movs	r4, #0
 1733 00a2 04E0     		b	.L130
 1734              	.LVL237:
 1735              	.L131:
 308:.\protocol.c  ****     }
 1736              		.loc 1 308 0 discriminator 3
 1737 00a4 FFF7FEFF 		bl	Pump_ReadRxData
 1738              	.LVL238:
 1739 00a8 3055     		strb	r0, [r6, r4]
 307:.\protocol.c  ****        buffer[x]=Pump_ReadRxData(); 
 1740              		.loc 1 307 0 discriminator 3
 1741 00aa 0134     		adds	r4, r4, #1
 1742              	.LVL239:
 1743 00ac E4B2     		uxtb	r4, r4
 1744              	.LVL240:
 1745              	.L130:
 307:.\protocol.c  ****        buffer[x]=Pump_ReadRxData(); 
 1746              		.loc 1 307 0 is_stmt 0 discriminator 1
 1747 00ae AC42     		cmp	r4, r5
 1748 00b0 F8D9     		bls	.L131
 310:.\protocol.c  ****     if((buffer[0x0C] & 0x0F) == 0x01){
 1749              		.loc 1 310 0 is_stmt 1
 1750 00b2 FFF7FEFF 		bl	Pump_ClearRxBuffer
 1751              	.LVL241:
 311:.\protocol.c  ****         return (buffer[0x0E] & 0x0F);
 1752              		.loc 1 311 0
 1753 00b6 337B     		ldrb	r3, [r6, #12]	@ zero_extendqisi2
 1754 00b8 03F00F03 		and	r3, r3, #15
 1755 00bc 012B     		cmp	r3, #1
 1756 00be 03D1     		bne	.L134
 312:.\protocol.c  ****     }
 1757              		.loc 1 312 0
 1758 00c0 B07B     		ldrb	r0, [r6, #14]	@ zero_extendqisi2
 1759 00c2 00F00F00 		and	r0, r0, #15
 1760 00c6 00E0     		b	.L132
 1761              	.L134:
 315:.\protocol.c  ****     
 1762              		.loc 1 315 0
 1763 00c8 0020     		movs	r0, #0
 1764              	.L132:
 317:.\protocol.c  **** 
 1765              		.loc 1 317 0
 1766 00ca 1437     		adds	r7, r7, #20
 1767              		.cfi_def_cfa_offset 20
 1768 00cc BD46     		mov	sp, r7
 1769              		.cfi_def_cfa_register 13
 1770              		@ sp needed
ARM GAS  C:\Users\RECEPC~1\AppData\Local\Temp\ccdPVhXF.s 			page 44


 1771 00ce F0BD     		pop	{r4, r5, r6, r7, pc}
 1772              	.LVL242:
 1773              	.L137:
 1774              		.align	2
 1775              	.L136:
 1776 00d0 00000000 		.word	UnitType
 1777              		.cfi_endproc
 1778              	.LFE67:
 1779              		.size	PumpHoseActiveState, .-PumpHoseActiveState
 1780              		.comm	side,1036,4
 1781              		.comm	bufferDisplay4,662,4
 1782              		.comm	bufferDisplay3,662,4
 1783              		.comm	bufferDisplay2,662,4
 1784              		.comm	bufferDisplay1,662,4
 1785              		.comm	digits,1,1
 1786              		.comm	NumPositions,1,1
 1787              		.comm	statePump,4,4
 1788              		.comm	DDMode,1,1
 1789              		.comm	PPUDec,1,1
 1790              		.comm	VolDec,1,1
 1791              		.comm	MoneyDec,1,1
 1792              		.comm	ConversionFactor,1,1
 1793              		.comm	UnitType,1,1
 1794              		.comm	PlateRequest,1,1
 1795              		.comm	PrevStatePump,4,4
 1796              		.comm	stateBeagleSoft,1,1
 1797              		.comm	flagResetMux,1,1
 1798              		.comm	passwordSeller,8,4
 1799              		.comm	typeIdSeller,1,1
 1800              		.comm	idSeller,25,4
 1801              		.comm	lockTurn,1,1
 1802              		.comm	turn,1,1
 1803              		.comm	temporal,30,4
 1804              		.comm	residue,14,4
 1805              		.comm	screen,2,4
 1806              		.comm	date,3,4
 1807              		.comm	time,3,4
 1808              		.comm	symbols,2,4
 1809              		.comm	decimalVolume,1,1
 1810              		.comm	decimalMoney,1,1
 1811              		.comm	ppux10,1,1
 1812              		.comm	delayPicture2,4,4
 1813              		.comm	delayPicture1,4,4
 1814              		.comm	presetFast,30,4
 1815              		.comm	productNumber,1,1
 1816              		.comm	button,960,4
 1817              		.comm	flagPoint2,1,1
 1818              		.comm	flagPoint1,1,1
 1819              		.comm	numberKeys2,1,1
 1820              		.comm	numberKeys1,1,1
 1821              		.comm	ipAdress,12,4
 1822              		.comm	flowDisplay4,4,4
 1823              		.comm	flowDisplay3,4,4
 1824              		.comm	flowDisplay2,4,4
 1825              		.comm	flowDisplay1,4,4
 1826              		.comm	countPump,8,8
 1827              		.comm	countBeagleTX,8,8
ARM GAS  C:\Users\RECEPC~1\AppData\Local\Temp\ccdPVhXF.s 			page 45


 1828              		.comm	countAnimation2,8,8
 1829              		.comm	countAnimation1,8,8
 1830              		.text
 1831              	.Letext0:
 1832              		.file 2 "c:\\program files (x86)\\cypress\\psoc creator\\3.3\\psoc creator\\import\\gnu\\arm\\4.9.
 1833              		.file 3 "c:\\program files (x86)\\cypress\\psoc creator\\3.3\\psoc creator\\import\\gnu\\arm\\4.9.
 1834              		.file 4 "Generated_Source\\PSoC5/cytypes.h"
 1835              		.file 5 "./variables.h"
 1836              		.file 6 "Generated_Source\\PSoC5/Pump.h"
 1837              		.file 7 "Generated_Source\\PSoC5/core_cm3.h"
 1838              		.file 8 "Generated_Source\\PSoC5/CyLib.h"
 1839              		.section	.debug_info,"",%progbits
 1840              	.Ldebug_info0:
 1841 0000 8B100000 		.4byte	0x108b
 1842 0004 0400     		.2byte	0x4
 1843 0006 00000000 		.4byte	.Ldebug_abbrev0
 1844 000a 04       		.byte	0x4
 1845 000b 01       		.uleb128 0x1
 1846 000c E2060000 		.4byte	.LASF173
 1847 0010 01       		.byte	0x1
 1848 0011 34020000 		.4byte	.LASF174
 1849 0015 AB070000 		.4byte	.LASF175
 1850 0019 00000000 		.4byte	.Ldebug_ranges0+0
 1851 001d 00000000 		.4byte	0
 1852 0021 00000000 		.4byte	.Ldebug_line0
 1853 0025 02       		.uleb128 0x2
 1854 0026 01       		.byte	0x1
 1855 0027 06       		.byte	0x6
 1856 0028 3E080000 		.4byte	.LASF0
 1857 002c 03       		.uleb128 0x3
 1858 002d F0050000 		.4byte	.LASF4
 1859 0031 02       		.byte	0x2
 1860 0032 1D       		.byte	0x1d
 1861 0033 37000000 		.4byte	0x37
 1862 0037 02       		.uleb128 0x2
 1863 0038 01       		.byte	0x1
 1864 0039 08       		.byte	0x8
 1865 003a C7060000 		.4byte	.LASF1
 1866 003e 02       		.uleb128 0x2
 1867 003f 02       		.byte	0x2
 1868 0040 05       		.byte	0x5
 1869 0041 5D050000 		.4byte	.LASF2
 1870 0045 02       		.uleb128 0x2
 1871 0046 02       		.byte	0x2
 1872 0047 07       		.byte	0x7
 1873 0048 4A080000 		.4byte	.LASF3
 1874 004c 03       		.uleb128 0x3
 1875 004d 82000000 		.4byte	.LASF5
 1876 0051 02       		.byte	0x2
 1877 0052 3F       		.byte	0x3f
 1878 0053 57000000 		.4byte	0x57
 1879 0057 02       		.uleb128 0x2
 1880 0058 04       		.byte	0x4
 1881 0059 05       		.byte	0x5
 1882 005a 67050000 		.4byte	.LASF6
 1883 005e 02       		.uleb128 0x2
 1884 005f 04       		.byte	0x4
ARM GAS  C:\Users\RECEPC~1\AppData\Local\Temp\ccdPVhXF.s 			page 46


 1885 0060 07       		.byte	0x7
 1886 0061 58060000 		.4byte	.LASF7
 1887 0065 02       		.uleb128 0x2
 1888 0066 08       		.byte	0x8
 1889 0067 05       		.byte	0x5
 1890 0068 F0030000 		.4byte	.LASF8
 1891 006c 02       		.uleb128 0x2
 1892 006d 08       		.byte	0x8
 1893 006e 07       		.byte	0x7
 1894 006f 5E010000 		.4byte	.LASF9
 1895 0073 04       		.uleb128 0x4
 1896 0074 04       		.byte	0x4
 1897 0075 05       		.byte	0x5
 1898 0076 696E7400 		.ascii	"int\000"
 1899 007a 02       		.uleb128 0x2
 1900 007b 04       		.byte	0x4
 1901 007c 07       		.byte	0x7
 1902 007d 67000000 		.4byte	.LASF10
 1903 0081 03       		.uleb128 0x3
 1904 0082 78030000 		.4byte	.LASF11
 1905 0086 03       		.byte	0x3
 1906 0087 15       		.byte	0x15
 1907 0088 2C000000 		.4byte	0x2c
 1908 008c 03       		.uleb128 0x3
 1909 008d 8E060000 		.4byte	.LASF12
 1910 0091 03       		.byte	0x3
 1911 0092 2C       		.byte	0x2c
 1912 0093 4C000000 		.4byte	0x4c
 1913 0097 05       		.uleb128 0x5
 1914 0098 73080000 		.4byte	.LASF13
 1915 009c 04       		.byte	0x4
 1916 009d 3801     		.2byte	0x138
 1917 009f 37000000 		.4byte	0x37
 1918 00a3 05       		.uleb128 0x5
 1919 00a4 67030000 		.4byte	.LASF14
 1920 00a8 04       		.byte	0x4
 1921 00a9 3901     		.2byte	0x139
 1922 00ab 45000000 		.4byte	0x45
 1923 00af 05       		.uleb128 0x5
 1924 00b0 AF040000 		.4byte	.LASF15
 1925 00b4 04       		.byte	0x4
 1926 00b5 3A01     		.2byte	0x13a
 1927 00b7 5E000000 		.4byte	0x5e
 1928 00bb 02       		.uleb128 0x2
 1929 00bc 04       		.byte	0x4
 1930 00bd 04       		.byte	0x4
 1931 00be 2C010000 		.4byte	.LASF16
 1932 00c2 02       		.uleb128 0x2
 1933 00c3 08       		.byte	0x8
 1934 00c4 04       		.byte	0x4
 1935 00c5 79080000 		.4byte	.LASF17
 1936 00c9 05       		.uleb128 0x5
 1937 00ca 23060000 		.4byte	.LASF18
 1938 00ce 04       		.byte	0x4
 1939 00cf 4401     		.2byte	0x144
 1940 00d1 6C000000 		.4byte	0x6c
 1941 00d5 05       		.uleb128 0x5
ARM GAS  C:\Users\RECEPC~1\AppData\Local\Temp\ccdPVhXF.s 			page 47


 1942 00d6 9C030000 		.4byte	.LASF19
 1943 00da 04       		.byte	0x4
 1944 00db 4901     		.2byte	0x149
 1945 00dd E1000000 		.4byte	0xe1
 1946 00e1 02       		.uleb128 0x2
 1947 00e2 01       		.byte	0x1
 1948 00e3 08       		.byte	0x8
 1949 00e4 01030000 		.4byte	.LASF20
 1950 00e8 06       		.uleb128 0x6
 1951 00e9 97000000 		.4byte	0x97
 1952 00ed 06       		.uleb128 0x6
 1953 00ee AF000000 		.4byte	0xaf
 1954 00f2 02       		.uleb128 0x2
 1955 00f3 04       		.byte	0x4
 1956 00f4 07       		.byte	0x7
 1957 00f5 4F060000 		.4byte	.LASF21
 1958 00f9 07       		.uleb128 0x7
 1959 00fa 97000000 		.4byte	0x97
 1960 00fe 09010000 		.4byte	0x109
 1961 0102 08       		.uleb128 0x8
 1962 0103 F2000000 		.4byte	0xf2
 1963 0107 03       		.byte	0x3
 1964 0108 00       		.byte	0
 1965 0109 09       		.uleb128 0x9
 1966 010a 3E000000 		.4byte	.LASF73
 1967 010e 9602     		.2byte	0x296
 1968 0110 05       		.byte	0x5
 1969 0111 5E       		.byte	0x5e
 1970 0112 92030000 		.4byte	0x392
 1971 0116 0A       		.uleb128 0xa
 1972 0117 AD000000 		.4byte	.LASF22
 1973 011b 05       		.byte	0x5
 1974 011c 5F       		.byte	0x5f
 1975 011d 97000000 		.4byte	0x97
 1976 0121 00       		.byte	0
 1977 0122 0A       		.uleb128 0xa
 1978 0123 F0010000 		.4byte	.LASF23
 1979 0127 05       		.byte	0x5
 1980 0128 60       		.byte	0x60
 1981 0129 92030000 		.4byte	0x392
 1982 012d 01       		.byte	0x1
 1983 012e 0A       		.uleb128 0xa
 1984 012f A2030000 		.4byte	.LASF24
 1985 0133 05       		.byte	0x5
 1986 0134 61       		.byte	0x61
 1987 0135 92030000 		.4byte	0x392
 1988 0139 1A       		.byte	0x1a
 1989 013a 0A       		.uleb128 0xa
 1990 013b 80080000 		.4byte	.LASF25
 1991 013f 05       		.byte	0x5
 1992 0140 62       		.byte	0x62
 1993 0141 97000000 		.4byte	0x97
 1994 0145 33       		.byte	0x33
 1995 0146 0A       		.uleb128 0xa
 1996 0147 B5060000 		.4byte	.LASF26
 1997 014b 05       		.byte	0x5
 1998 014c 63       		.byte	0x63
ARM GAS  C:\Users\RECEPC~1\AppData\Local\Temp\ccdPVhXF.s 			page 48


 1999 014d 97000000 		.4byte	0x97
 2000 0151 34       		.byte	0x34
 2001 0152 0A       		.uleb128 0xa
 2002 0153 C8000000 		.4byte	.LASF27
 2003 0157 05       		.byte	0x5
 2004 0158 64       		.byte	0x64
 2005 0159 A2030000 		.4byte	0x3a2
 2006 015d 35       		.byte	0x35
 2007 015e 0A       		.uleb128 0xa
 2008 015f 2A050000 		.4byte	.LASF28
 2009 0163 05       		.byte	0x5
 2010 0164 65       		.byte	0x65
 2011 0165 A2030000 		.4byte	0x3a2
 2012 0169 3F       		.byte	0x3f
 2013 016a 0A       		.uleb128 0xa
 2014 016b B5080000 		.4byte	.LASF29
 2015 016f 05       		.byte	0x5
 2016 0170 66       		.byte	0x66
 2017 0171 92030000 		.4byte	0x392
 2018 0175 49       		.byte	0x49
 2019 0176 0A       		.uleb128 0xa
 2020 0177 F4040000 		.4byte	.LASF30
 2021 017b 05       		.byte	0x5
 2022 017c 67       		.byte	0x67
 2023 017d 97000000 		.4byte	0x97
 2024 0181 62       		.byte	0x62
 2025 0182 0A       		.uleb128 0xa
 2026 0183 70070000 		.4byte	.LASF31
 2027 0187 05       		.byte	0x5
 2028 0188 68       		.byte	0x68
 2029 0189 97000000 		.4byte	0x97
 2030 018d 63       		.byte	0x63
 2031 018e 0A       		.uleb128 0xa
 2032 018f F7020000 		.4byte	.LASF32
 2033 0193 05       		.byte	0x5
 2034 0194 69       		.byte	0x69
 2035 0195 B2030000 		.4byte	0x3b2
 2036 0199 64       		.byte	0x64
 2037 019a 0A       		.uleb128 0xa
 2038 019b 6F040000 		.4byte	.LASF33
 2039 019f 05       		.byte	0x5
 2040 01a0 6A       		.byte	0x6a
 2041 01a1 97000000 		.4byte	0x97
 2042 01a5 79       		.byte	0x79
 2043 01a6 0A       		.uleb128 0xa
 2044 01a7 D0020000 		.4byte	.LASF34
 2045 01ab 05       		.byte	0x5
 2046 01ac 6B       		.byte	0x6b
 2047 01ad 97000000 		.4byte	0x97
 2048 01b1 7A       		.byte	0x7a
 2049 01b2 0A       		.uleb128 0xa
 2050 01b3 5B000000 		.4byte	.LASF35
 2051 01b7 05       		.byte	0x5
 2052 01b8 6C       		.byte	0x6c
 2053 01b9 97000000 		.4byte	0x97
 2054 01bd 7B       		.byte	0x7b
 2055 01be 0A       		.uleb128 0xa
ARM GAS  C:\Users\RECEPC~1\AppData\Local\Temp\ccdPVhXF.s 			page 49


 2056 01bf 00080000 		.4byte	.LASF36
 2057 01c3 05       		.byte	0x5
 2058 01c4 6D       		.byte	0x6d
 2059 01c5 C2030000 		.4byte	0x3c2
 2060 01c9 7C       		.byte	0x7c
 2061 01ca 0A       		.uleb128 0xa
 2062 01cb A6020000 		.4byte	.LASF37
 2063 01cf 05       		.byte	0x5
 2064 01d0 6E       		.byte	0x6e
 2065 01d1 D2030000 		.4byte	0x3d2
 2066 01d5 7E       		.byte	0x7e
 2067 01d6 0A       		.uleb128 0xa
 2068 01d7 C7010000 		.4byte	.LASF38
 2069 01db 05       		.byte	0x5
 2070 01dc 6F       		.byte	0x6f
 2071 01dd 97000000 		.4byte	0x97
 2072 01e1 92       		.byte	0x92
 2073 01e2 0A       		.uleb128 0xa
 2074 01e3 46060000 		.4byte	.LASF39
 2075 01e7 05       		.byte	0x5
 2076 01e8 70       		.byte	0x70
 2077 01e9 E8030000 		.4byte	0x3e8
 2078 01ed 93       		.byte	0x93
 2079 01ee 0A       		.uleb128 0xa
 2080 01ef 99050000 		.4byte	.LASF40
 2081 01f3 05       		.byte	0x5
 2082 01f4 71       		.byte	0x71
 2083 01f5 F8030000 		.4byte	0x3f8
 2084 01f9 98       		.byte	0x98
 2085 01fa 0A       		.uleb128 0xa
 2086 01fb E1010000 		.4byte	.LASF41
 2087 01ff 05       		.byte	0x5
 2088 0200 72       		.byte	0x72
 2089 0201 F8030000 		.4byte	0x3f8
 2090 0205 9E       		.byte	0x9e
 2091 0206 0A       		.uleb128 0xa
 2092 0207 98080000 		.4byte	.LASF42
 2093 020b 05       		.byte	0x5
 2094 020c 73       		.byte	0x73
 2095 020d F8030000 		.4byte	0x3f8
 2096 0211 A4       		.byte	0xa4
 2097 0212 0A       		.uleb128 0xa
 2098 0213 60040000 		.4byte	.LASF43
 2099 0217 05       		.byte	0x5
 2100 0218 74       		.byte	0x74
 2101 0219 F8030000 		.4byte	0x3f8
 2102 021d AA       		.byte	0xaa
 2103 021e 0A       		.uleb128 0xa
 2104 021f 0C050000 		.4byte	.LASF44
 2105 0223 05       		.byte	0x5
 2106 0224 75       		.byte	0x75
 2107 0225 08040000 		.4byte	0x408
 2108 0229 B0       		.byte	0xb0
 2109 022a 0A       		.uleb128 0xa
 2110 022b 8C010000 		.4byte	.LASF45
 2111 022f 05       		.byte	0x5
 2112 0230 76       		.byte	0x76
ARM GAS  C:\Users\RECEPC~1\AppData\Local\Temp\ccdPVhXF.s 			page 50


 2113 0231 08040000 		.4byte	0x408
 2114 0235 BE       		.byte	0xbe
 2115 0236 0A       		.uleb128 0xa
 2116 0237 33040000 		.4byte	.LASF46
 2117 023b 05       		.byte	0x5
 2118 023c 77       		.byte	0x77
 2119 023d 08040000 		.4byte	0x408
 2120 0241 CC       		.byte	0xcc
 2121 0242 0A       		.uleb128 0xa
 2122 0243 B7030000 		.4byte	.LASF47
 2123 0247 05       		.byte	0x5
 2124 0248 78       		.byte	0x78
 2125 0249 08040000 		.4byte	0x408
 2126 024d DA       		.byte	0xda
 2127 024e 0A       		.uleb128 0xa
 2128 024f 09060000 		.4byte	.LASF48
 2129 0253 05       		.byte	0x5
 2130 0254 79       		.byte	0x79
 2131 0255 08040000 		.4byte	0x408
 2132 0259 E8       		.byte	0xe8
 2133 025a 0A       		.uleb128 0xa
 2134 025b E6040000 		.4byte	.LASF49
 2135 025f 05       		.byte	0x5
 2136 0260 7A       		.byte	0x7a
 2137 0261 08040000 		.4byte	0x408
 2138 0265 F6       		.byte	0xf6
 2139 0266 0B       		.uleb128 0xb
 2140 0267 44050000 		.4byte	.LASF50
 2141 026b 05       		.byte	0x5
 2142 026c 7B       		.byte	0x7b
 2143 026d 18040000 		.4byte	0x418
 2144 0271 0401     		.2byte	0x104
 2145 0273 0B       		.uleb128 0xb
 2146 0274 1A020000 		.4byte	.LASF51
 2147 0278 05       		.byte	0x5
 2148 0279 7C       		.byte	0x7c
 2149 027a 18040000 		.4byte	0x418
 2150 027e 0F01     		.2byte	0x10f
 2151 0280 0B       		.uleb128 0xb
 2152 0281 C5020000 		.4byte	.LASF52
 2153 0285 05       		.byte	0x5
 2154 0286 7D       		.byte	0x7d
 2155 0287 18040000 		.4byte	0x418
 2156 028b 1A01     		.2byte	0x11a
 2157 028d 0B       		.uleb128 0xb
 2158 028e 88040000 		.4byte	.LASF53
 2159 0292 05       		.byte	0x5
 2160 0293 7E       		.byte	0x7e
 2161 0294 97000000 		.4byte	0x97
 2162 0298 2501     		.2byte	0x125
 2163 029a 0B       		.uleb128 0xb
 2164 029b 90030000 		.4byte	.LASF54
 2165 029f 05       		.byte	0x5
 2166 02a0 7F       		.byte	0x7f
 2167 02a1 97000000 		.4byte	0x97
 2168 02a5 2601     		.2byte	0x126
 2169 02a7 0B       		.uleb128 0xb
ARM GAS  C:\Users\RECEPC~1\AppData\Local\Temp\ccdPVhXF.s 			page 51


 2170 02a8 8C000000 		.4byte	.LASF55
 2171 02ac 05       		.byte	0x5
 2172 02ad 80       		.byte	0x80
 2173 02ae 97000000 		.4byte	0x97
 2174 02b2 2701     		.2byte	0x127
 2175 02b4 0B       		.uleb128 0xb
 2176 02b5 8D050000 		.4byte	.LASF56
 2177 02b9 05       		.byte	0x5
 2178 02ba 81       		.byte	0x81
 2179 02bb 97000000 		.4byte	0x97
 2180 02bf 2801     		.2byte	0x128
 2181 02c1 0B       		.uleb128 0xb
 2182 02c2 2C000000 		.4byte	.LASF57
 2183 02c6 05       		.byte	0x5
 2184 02c7 82       		.byte	0x82
 2185 02c8 28040000 		.4byte	0x428
 2186 02cc 2901     		.2byte	0x129
 2187 02ce 0B       		.uleb128 0xb
 2188 02cf C7030000 		.4byte	.LASF58
 2189 02d3 05       		.byte	0x5
 2190 02d4 83       		.byte	0x83
 2191 02d5 A2030000 		.4byte	0x3a2
 2192 02d9 6A01     		.2byte	0x16a
 2193 02db 0B       		.uleb128 0xb
 2194 02dc 0F010000 		.4byte	.LASF59
 2195 02e0 05       		.byte	0x5
 2196 02e1 84       		.byte	0x84
 2197 02e2 A2030000 		.4byte	0x3a2
 2198 02e6 7401     		.2byte	0x174
 2199 02e8 0B       		.uleb128 0xb
 2200 02e9 AE030000 		.4byte	.LASF60
 2201 02ed 05       		.byte	0x5
 2202 02ee 85       		.byte	0x85
 2203 02ef A2030000 		.4byte	0x3a2
 2204 02f3 7E01     		.2byte	0x17e
 2205 02f5 0B       		.uleb128 0xb
 2206 02f6 8C020000 		.4byte	.LASF61
 2207 02fa 05       		.byte	0x5
 2208 02fb 86       		.byte	0x86
 2209 02fc 38040000 		.4byte	0x438
 2210 0300 8801     		.2byte	0x188
 2211 0302 0B       		.uleb128 0xb
 2212 0303 74000000 		.4byte	.LASF62
 2213 0307 05       		.byte	0x5
 2214 0308 87       		.byte	0x87
 2215 0309 38040000 		.4byte	0x438
 2216 030d D301     		.2byte	0x1d3
 2217 030f 0B       		.uleb128 0xb
 2218 0310 D5000000 		.4byte	.LASF63
 2219 0314 05       		.byte	0x5
 2220 0315 88       		.byte	0x88
 2221 0316 4E040000 		.4byte	0x44e
 2222 031a 1E02     		.2byte	0x21e
 2223 031c 0B       		.uleb128 0xb
 2224 031d A2060000 		.4byte	.LASF64
 2225 0321 05       		.byte	0x5
 2226 0322 89       		.byte	0x89
ARM GAS  C:\Users\RECEPC~1\AppData\Local\Temp\ccdPVhXF.s 			page 52


 2227 0323 4E040000 		.4byte	0x44e
 2228 0327 2D02     		.2byte	0x22d
 2229 0329 0B       		.uleb128 0xb
 2230 032a 82070000 		.4byte	.LASF65
 2231 032e 05       		.byte	0x5
 2232 032f 8A       		.byte	0x8a
 2233 0330 64040000 		.4byte	0x464
 2234 0334 3C02     		.2byte	0x23c
 2235 0336 0B       		.uleb128 0xb
 2236 0337 0B080000 		.4byte	.LASF66
 2237 033b 05       		.byte	0x5
 2238 033c 8B       		.byte	0x8b
 2239 033d 64040000 		.4byte	0x464
 2240 0341 5A02     		.2byte	0x25a
 2241 0343 0B       		.uleb128 0xb
 2242 0344 54040000 		.4byte	.LASF67
 2243 0348 05       		.byte	0x5
 2244 0349 8C       		.byte	0x8c
 2245 034a A2030000 		.4byte	0x3a2
 2246 034e 7802     		.2byte	0x278
 2247 0350 0B       		.uleb128 0xb
 2248 0351 7C060000 		.4byte	.LASF68
 2249 0355 05       		.byte	0x5
 2250 0356 8D       		.byte	0x8d
 2251 0357 97000000 		.4byte	0x97
 2252 035b 8202     		.2byte	0x282
 2253 035d 0B       		.uleb128 0xb
 2254 035e 50050000 		.4byte	.LASF69
 2255 0362 05       		.byte	0x5
 2256 0363 8E       		.byte	0x8e
 2257 0364 7A040000 		.4byte	0x47a
 2258 0368 8302     		.2byte	0x283
 2259 036a 0B       		.uleb128 0xb
 2260 036b D2030000 		.4byte	.LASF70
 2261 036f 05       		.byte	0x5
 2262 0370 8F       		.byte	0x8f
 2263 0371 C2030000 		.4byte	0x3c2
 2264 0375 9202     		.2byte	0x292
 2265 0377 0B       		.uleb128 0xb
 2266 0378 26020000 		.4byte	.LASF71
 2267 037c 05       		.byte	0x5
 2268 037d 90       		.byte	0x90
 2269 037e 97000000 		.4byte	0x97
 2270 0382 9402     		.2byte	0x294
 2271 0384 0B       		.uleb128 0xb
 2272 0385 47020000 		.4byte	.LASF72
 2273 0389 05       		.byte	0x5
 2274 038a 91       		.byte	0x91
 2275 038b 97000000 		.4byte	0x97
 2276 038f 9502     		.2byte	0x295
 2277 0391 00       		.byte	0
 2278 0392 07       		.uleb128 0x7
 2279 0393 97000000 		.4byte	0x97
 2280 0397 A2030000 		.4byte	0x3a2
 2281 039b 08       		.uleb128 0x8
 2282 039c F2000000 		.4byte	0xf2
 2283 03a0 18       		.byte	0x18
ARM GAS  C:\Users\RECEPC~1\AppData\Local\Temp\ccdPVhXF.s 			page 53


 2284 03a1 00       		.byte	0
 2285 03a2 07       		.uleb128 0x7
 2286 03a3 97000000 		.4byte	0x97
 2287 03a7 B2030000 		.4byte	0x3b2
 2288 03ab 08       		.uleb128 0x8
 2289 03ac F2000000 		.4byte	0xf2
 2290 03b0 09       		.byte	0x9
 2291 03b1 00       		.byte	0
 2292 03b2 07       		.uleb128 0x7
 2293 03b3 97000000 		.4byte	0x97
 2294 03b7 C2030000 		.4byte	0x3c2
 2295 03bb 08       		.uleb128 0x8
 2296 03bc F2000000 		.4byte	0xf2
 2297 03c0 14       		.byte	0x14
 2298 03c1 00       		.byte	0
 2299 03c2 07       		.uleb128 0x7
 2300 03c3 97000000 		.4byte	0x97
 2301 03c7 D2030000 		.4byte	0x3d2
 2302 03cb 08       		.uleb128 0x8
 2303 03cc F2000000 		.4byte	0xf2
 2304 03d0 01       		.byte	0x1
 2305 03d1 00       		.byte	0
 2306 03d2 07       		.uleb128 0x7
 2307 03d3 97000000 		.4byte	0x97
 2308 03d7 E8030000 		.4byte	0x3e8
 2309 03db 08       		.uleb128 0x8
 2310 03dc F2000000 		.4byte	0xf2
 2311 03e0 01       		.byte	0x1
 2312 03e1 08       		.uleb128 0x8
 2313 03e2 F2000000 		.4byte	0xf2
 2314 03e6 09       		.byte	0x9
 2315 03e7 00       		.byte	0
 2316 03e8 07       		.uleb128 0x7
 2317 03e9 97000000 		.4byte	0x97
 2318 03ed F8030000 		.4byte	0x3f8
 2319 03f1 08       		.uleb128 0x8
 2320 03f2 F2000000 		.4byte	0xf2
 2321 03f6 04       		.byte	0x4
 2322 03f7 00       		.byte	0
 2323 03f8 07       		.uleb128 0x7
 2324 03f9 97000000 		.4byte	0x97
 2325 03fd 08040000 		.4byte	0x408
 2326 0401 08       		.uleb128 0x8
 2327 0402 F2000000 		.4byte	0xf2
 2328 0406 05       		.byte	0x5
 2329 0407 00       		.byte	0
 2330 0408 07       		.uleb128 0x7
 2331 0409 97000000 		.4byte	0x97
 2332 040d 18040000 		.4byte	0x418
 2333 0411 08       		.uleb128 0x8
 2334 0412 F2000000 		.4byte	0xf2
 2335 0416 0D       		.byte	0xd
 2336 0417 00       		.byte	0
 2337 0418 07       		.uleb128 0x7
 2338 0419 97000000 		.4byte	0x97
 2339 041d 28040000 		.4byte	0x428
 2340 0421 08       		.uleb128 0x8
ARM GAS  C:\Users\RECEPC~1\AppData\Local\Temp\ccdPVhXF.s 			page 54


 2341 0422 F2000000 		.4byte	0xf2
 2342 0426 0A       		.byte	0xa
 2343 0427 00       		.byte	0
 2344 0428 07       		.uleb128 0x7
 2345 0429 97000000 		.4byte	0x97
 2346 042d 38040000 		.4byte	0x438
 2347 0431 08       		.uleb128 0x8
 2348 0432 F2000000 		.4byte	0xf2
 2349 0436 40       		.byte	0x40
 2350 0437 00       		.byte	0
 2351 0438 07       		.uleb128 0x7
 2352 0439 97000000 		.4byte	0x97
 2353 043d 4E040000 		.4byte	0x44e
 2354 0441 08       		.uleb128 0x8
 2355 0442 F2000000 		.4byte	0xf2
 2356 0446 02       		.byte	0x2
 2357 0447 08       		.uleb128 0x8
 2358 0448 F2000000 		.4byte	0xf2
 2359 044c 18       		.byte	0x18
 2360 044d 00       		.byte	0
 2361 044e 07       		.uleb128 0x7
 2362 044f 97000000 		.4byte	0x97
 2363 0453 64040000 		.4byte	0x464
 2364 0457 08       		.uleb128 0x8
 2365 0458 F2000000 		.4byte	0xf2
 2366 045c 02       		.byte	0x2
 2367 045d 08       		.uleb128 0x8
 2368 045e F2000000 		.4byte	0xf2
 2369 0462 04       		.byte	0x4
 2370 0463 00       		.byte	0
 2371 0464 07       		.uleb128 0x7
 2372 0465 97000000 		.4byte	0x97
 2373 0469 7A040000 		.4byte	0x47a
 2374 046d 08       		.uleb128 0x8
 2375 046e F2000000 		.4byte	0xf2
 2376 0472 02       		.byte	0x2
 2377 0473 08       		.uleb128 0x8
 2378 0474 F2000000 		.4byte	0xf2
 2379 0478 09       		.byte	0x9
 2380 0479 00       		.byte	0
 2381 047a 07       		.uleb128 0x7
 2382 047b 97000000 		.4byte	0x97
 2383 047f 8A040000 		.4byte	0x48a
 2384 0483 08       		.uleb128 0x8
 2385 0484 F2000000 		.4byte	0xf2
 2386 0488 0E       		.byte	0xe
 2387 0489 00       		.byte	0
 2388 048a 09       		.uleb128 0x9
 2389 048b C8080000 		.4byte	.LASF74
 2390 048f 0301     		.2byte	0x103
 2391 0491 05       		.byte	0x5
 2392 0492 A2       		.byte	0xa2
 2393 0493 13050000 		.4byte	0x513
 2394 0497 0C       		.uleb128 0xc
 2395 0498 64697200 		.ascii	"dir\000"
 2396 049c 05       		.byte	0x5
 2397 049d A3       		.byte	0xa3
ARM GAS  C:\Users\RECEPC~1\AppData\Local\Temp\ccdPVhXF.s 			page 55


 2398 049e 97000000 		.4byte	0x97
 2399 04a2 00       		.byte	0
 2400 04a3 0A       		.uleb128 0xa
 2401 04a4 99020000 		.4byte	.LASF75
 2402 04a8 05       		.byte	0x5
 2403 04a9 A4       		.byte	0xa4
 2404 04aa 13050000 		.4byte	0x513
 2405 04ae 01       		.byte	0x1
 2406 04af 0A       		.uleb128 0xa
 2407 04b0 A7080000 		.4byte	.LASF76
 2408 04b4 05       		.byte	0x5
 2409 04b5 A5       		.byte	0xa5
 2410 04b6 2F050000 		.4byte	0x52f
 2411 04ba B5       		.byte	0xb5
 2412 04bb 0A       		.uleb128 0xa
 2413 04bc E6030000 		.4byte	.LASF77
 2414 04c0 05       		.byte	0x5
 2415 04c1 A6       		.byte	0xa6
 2416 04c2 08040000 		.4byte	0x408
 2417 04c6 D5       		.byte	0xd5
 2418 04c7 0A       		.uleb128 0xa
 2419 04c8 28080000 		.4byte	.LASF78
 2420 04cc 05       		.byte	0x5
 2421 04cd A7       		.byte	0xa7
 2422 04ce 08040000 		.4byte	0x408
 2423 04d2 E3       		.byte	0xe3
 2424 04d3 0A       		.uleb128 0xa
 2425 04d4 FE030000 		.4byte	.LASF79
 2426 04d8 05       		.byte	0x5
 2427 04d9 A8       		.byte	0xa8
 2428 04da 08040000 		.4byte	0x408
 2429 04de F1       		.byte	0xf1
 2430 04df 0A       		.uleb128 0xa
 2431 04e0 67080000 		.4byte	.LASF80
 2432 04e4 05       		.byte	0x5
 2433 04e5 A9       		.byte	0xa9
 2434 04e6 97000000 		.4byte	0x97
 2435 04ea FF       		.byte	0xff
 2436 04eb 0B       		.uleb128 0xb
 2437 04ec 71060000 		.4byte	.LASF81
 2438 04f0 05       		.byte	0x5
 2439 04f1 AA       		.byte	0xaa
 2440 04f2 97000000 		.4byte	0x97
 2441 04f6 0001     		.2byte	0x100
 2442 04f8 0B       		.uleb128 0xb
 2443 04f9 59010000 		.4byte	.LASF82
 2444 04fd 05       		.byte	0x5
 2445 04fe AB       		.byte	0xab
 2446 04ff 97000000 		.4byte	0x97
 2447 0503 0101     		.2byte	0x101
 2448 0505 0B       		.uleb128 0xb
 2449 0506 B8050000 		.4byte	.LASF83
 2450 050a 05       		.byte	0x5
 2451 050b AC       		.byte	0xac
 2452 050c 97000000 		.4byte	0x97
 2453 0510 0201     		.2byte	0x102
 2454 0512 00       		.byte	0
ARM GAS  C:\Users\RECEPC~1\AppData\Local\Temp\ccdPVhXF.s 			page 56


 2455 0513 07       		.uleb128 0x7
 2456 0514 97000000 		.4byte	0x97
 2457 0518 2F050000 		.4byte	0x52f
 2458 051c 08       		.uleb128 0x8
 2459 051d F2000000 		.4byte	0xf2
 2460 0521 03       		.byte	0x3
 2461 0522 08       		.uleb128 0x8
 2462 0523 F2000000 		.4byte	0xf2
 2463 0527 02       		.byte	0x2
 2464 0528 08       		.uleb128 0x8
 2465 0529 F2000000 		.4byte	0xf2
 2466 052d 0E       		.byte	0xe
 2467 052e 00       		.byte	0
 2468 052f 07       		.uleb128 0x7
 2469 0530 97000000 		.4byte	0x97
 2470 0534 45050000 		.4byte	0x545
 2471 0538 08       		.uleb128 0x8
 2472 0539 F2000000 		.4byte	0xf2
 2473 053d 03       		.byte	0x3
 2474 053e 08       		.uleb128 0x8
 2475 053f F2000000 		.4byte	0xf2
 2476 0543 07       		.byte	0x7
 2477 0544 00       		.byte	0
 2478 0545 09       		.uleb128 0x9
 2479 0546 9C070000 		.4byte	.LASF84
 2480 054a 0C04     		.2byte	0x40c
 2481 054c 05       		.byte	0x5
 2482 054d AF       		.byte	0xaf
 2483 054e 7E050000 		.4byte	0x57e
 2484 0552 0C       		.uleb128 0xc
 2485 0553 6100     		.ascii	"a\000"
 2486 0555 05       		.byte	0x5
 2487 0556 B0       		.byte	0xb0
 2488 0557 8A040000 		.4byte	0x48a
 2489 055b 00       		.byte	0
 2490 055c 0D       		.uleb128 0xd
 2491 055d 6200     		.ascii	"b\000"
 2492 055f 05       		.byte	0x5
 2493 0560 B1       		.byte	0xb1
 2494 0561 8A040000 		.4byte	0x48a
 2495 0565 0301     		.2byte	0x103
 2496 0567 0D       		.uleb128 0xd
 2497 0568 6300     		.ascii	"c\000"
 2498 056a 05       		.byte	0x5
 2499 056b B2       		.byte	0xb2
 2500 056c 8A040000 		.4byte	0x48a
 2501 0570 0602     		.2byte	0x206
 2502 0572 0D       		.uleb128 0xd
 2503 0573 6400     		.ascii	"d\000"
 2504 0575 05       		.byte	0x5
 2505 0576 B3       		.byte	0xb3
 2506 0577 8A040000 		.4byte	0x48a
 2507 057b 0903     		.2byte	0x309
 2508 057d 00       		.byte	0
 2509 057e 0E       		.uleb128 0xe
 2510 057f A8050000 		.4byte	.LASF88
 2511 0583 01       		.byte	0x1
ARM GAS  C:\Users\RECEPC~1\AppData\Local\Temp\ccdPVhXF.s 			page 57


 2512 0584 05       		.byte	0x5
 2513 0585 B9       		.byte	0xb9
 2514 0586 D8050000 		.4byte	0x5d8
 2515 058a 0F       		.uleb128 0xf
 2516 058b 534F4D00 		.ascii	"SOM\000"
 2517 058f FF01     		.sleb128 255
 2518 0591 0F       		.uleb128 0xf
 2519 0592 56505400 		.ascii	"VPT\000"
 2520 0596 F101     		.sleb128 241
 2521 0598 0F       		.uleb128 0xf
 2522 0599 4D505400 		.ascii	"MPT\000"
 2523 059d F201     		.sleb128 242
 2524 059f 0F       		.uleb128 0xf
 2525 05a0 48446E00 		.ascii	"HDn\000"
 2526 05a4 F601     		.sleb128 246
 2527 05a6 10       		.uleb128 0x10
 2528 05a7 00000000 		.4byte	.LASF85
 2529 05ab F701     		.sleb128 247
 2530 05ad 10       		.uleb128 0x10
 2531 05ae 96060000 		.4byte	.LASF86
 2532 05b2 F801     		.sleb128 248
 2533 05b4 0F       		.uleb128 0xf
 2534 05b5 56446E00 		.ascii	"VDn\000"
 2535 05b9 F901     		.sleb128 249
 2536 05bb 0F       		.uleb128 0xf
 2537 05bc 4D446E00 		.ascii	"MDn\000"
 2538 05c0 FA01     		.sleb128 250
 2539 05c2 10       		.uleb128 0x10
 2540 05c3 6E030000 		.4byte	.LASF87
 2541 05c7 FB01     		.sleb128 251
 2542 05c9 0F       		.uleb128 0xf
 2543 05ca 53466E00 		.ascii	"SFn\000"
 2544 05ce FE01     		.sleb128 254
 2545 05d0 0F       		.uleb128 0xf
 2546 05d1 454F4D00 		.ascii	"EOM\000"
 2547 05d5 F001     		.sleb128 240
 2548 05d7 00       		.byte	0
 2549 05d8 11       		.uleb128 0x11
 2550 05d9 A7010000 		.4byte	.LASF89
 2551 05dd 01       		.byte	0x1
 2552 05de 05       		.byte	0x5
 2553 05df 1401     		.2byte	0x114
 2554 05e1 16060000 		.4byte	0x616
 2555 05e5 10       		.uleb128 0x10
 2556 05e6 9B000000 		.4byte	.LASF90
 2557 05ea 00       		.sleb128 0
 2558 05eb 10       		.uleb128 0x10
 2559 05ec 22010000 		.4byte	.LASF91
 2560 05f0 06       		.sleb128 6
 2561 05f1 10       		.uleb128 0x10
 2562 05f2 7B040000 		.4byte	.LASF92
 2563 05f6 07       		.sleb128 7
 2564 05f7 10       		.uleb128 0x10
 2565 05f8 B6040000 		.4byte	.LASF93
 2566 05fc 08       		.sleb128 8
 2567 05fd 10       		.uleb128 0x10
 2568 05fe D9020000 		.4byte	.LASF94
ARM GAS  C:\Users\RECEPC~1\AppData\Local\Temp\ccdPVhXF.s 			page 58


 2569 0602 09       		.sleb128 9
 2570 0603 10       		.uleb128 0x10
 2571 0604 A1070000 		.4byte	.LASF95
 2572 0608 0A       		.sleb128 10
 2573 0609 10       		.uleb128 0x10
 2574 060a 75010000 		.4byte	.LASF96
 2575 060e 0B       		.sleb128 11
 2576 060f 10       		.uleb128 0x10
 2577 0610 17030000 		.4byte	.LASF97
 2578 0614 0C       		.sleb128 12
 2579 0615 00       		.byte	0
 2580 0616 12       		.uleb128 0x12
 2581 0617 5D030000 		.4byte	.LASF98
 2582 061b 01       		.byte	0x1
 2583 061c 39       		.byte	0x39
 2584 061d 97000000 		.4byte	0x97
 2585 0621 00000000 		.4byte	.LFB63
 2586 0625 2E000000 		.4byte	.LFE63-.LFB63
 2587 0629 01       		.uleb128 0x1
 2588 062a 9C       		.byte	0x9c
 2589 062b 9A060000 		.4byte	0x69a
 2590 062f 13       		.uleb128 0x13
 2591 0630 706F7300 		.ascii	"pos\000"
 2592 0634 01       		.byte	0x1
 2593 0635 39       		.byte	0x39
 2594 0636 97000000 		.4byte	0x97
 2595 063a 00000000 		.4byte	.LLST0
 2596 063e 14       		.uleb128 0x14
 2597 063f FA070000 		.4byte	.LASF100
 2598 0643 01       		.byte	0x1
 2599 0644 3A       		.byte	0x3a
 2600 0645 97000000 		.4byte	0x97
 2601 0649 21000000 		.4byte	.LLST1
 2602 064d 15       		.uleb128 0x15
 2603 064e 08000000 		.4byte	.LVL1
 2604 0652 48100000 		.4byte	0x1048
 2605 0656 16       		.uleb128 0x16
 2606 0657 0E000000 		.4byte	.LVL2
 2607 065b 4F100000 		.4byte	0x104f
 2608 065f 6A060000 		.4byte	0x66a
 2609 0663 17       		.uleb128 0x17
 2610 0664 01       		.uleb128 0x1
 2611 0665 50       		.byte	0x50
 2612 0666 02       		.uleb128 0x2
 2613 0667 74       		.byte	0x74
 2614 0668 00       		.sleb128 0
 2615 0669 00       		.byte	0
 2616 066a 16       		.uleb128 0x16
 2617 066b 14000000 		.4byte	.LVL3
 2618 066f 60100000 		.4byte	0x1060
 2619 0673 7E060000 		.4byte	0x67e
 2620 0677 17       		.uleb128 0x17
 2621 0678 01       		.uleb128 0x1
 2622 0679 50       		.byte	0x50
 2623 067a 02       		.uleb128 0x2
 2624 067b 08       		.byte	0x8
 2625 067c 3C       		.byte	0x3c
ARM GAS  C:\Users\RECEPC~1\AppData\Local\Temp\ccdPVhXF.s 			page 59


 2626 067d 00       		.byte	0
 2627 067e 15       		.uleb128 0x15
 2628 067f 18000000 		.4byte	.LVL4
 2629 0683 71100000 		.4byte	0x1071
 2630 0687 15       		.uleb128 0x15
 2631 0688 1E000000 		.4byte	.LVL5
 2632 068c 7C100000 		.4byte	0x107c
 2633 0690 15       		.uleb128 0x15
 2634 0691 26000000 		.4byte	.LVL7
 2635 0695 48100000 		.4byte	0x1048
 2636 0699 00       		.byte	0
 2637 069a 12       		.uleb128 0x12
 2638 069b BB000000 		.4byte	.LASF99
 2639 069f 01       		.byte	0x1
 2640 06a0 59       		.byte	0x59
 2641 06a1 97000000 		.4byte	0x97
 2642 06a5 00000000 		.4byte	.LFB64
 2643 06a9 20010000 		.4byte	.LFE64-.LFB64
 2644 06ad 01       		.uleb128 0x1
 2645 06ae 9C       		.byte	0x9c
 2646 06af 31070000 		.4byte	0x731
 2647 06b3 18       		.uleb128 0x18
 2648 06b4 7800     		.ascii	"x\000"
 2649 06b6 01       		.byte	0x1
 2650 06b7 5A       		.byte	0x5a
 2651 06b8 97000000 		.4byte	0x97
 2652 06bc 34000000 		.4byte	.LLST2
 2653 06c0 16       		.uleb128 0x16
 2654 06c1 1E000000 		.4byte	.LVL11
 2655 06c5 4F100000 		.4byte	0x104f
 2656 06c9 D4060000 		.4byte	0x6d4
 2657 06cd 17       		.uleb128 0x17
 2658 06ce 01       		.uleb128 0x1
 2659 06cf 50       		.byte	0x50
 2660 06d0 02       		.uleb128 0x2
 2661 06d1 74       		.byte	0x74
 2662 06d2 00       		.sleb128 0
 2663 06d3 00       		.byte	0
 2664 06d4 16       		.uleb128 0x16
 2665 06d5 24000000 		.4byte	.LVL12
 2666 06d9 60100000 		.4byte	0x1060
 2667 06dd E8060000 		.4byte	0x6e8
 2668 06e1 17       		.uleb128 0x17
 2669 06e2 01       		.uleb128 0x1
 2670 06e3 50       		.byte	0x50
 2671 06e4 02       		.uleb128 0x2
 2672 06e5 08       		.byte	0x8
 2673 06e6 64       		.byte	0x64
 2674 06e7 00       		.byte	0
 2675 06e8 15       		.uleb128 0x15
 2676 06e9 28000000 		.4byte	.LVL13
 2677 06ed 71100000 		.4byte	0x1071
 2678 06f1 15       		.uleb128 0x15
 2679 06f2 3A000000 		.4byte	.LVL14
 2680 06f6 48100000 		.4byte	0x1048
 2681 06fa 15       		.uleb128 0x15
 2682 06fb 3E000000 		.4byte	.LVL15
ARM GAS  C:\Users\RECEPC~1\AppData\Local\Temp\ccdPVhXF.s 			page 60


 2683 06ff 71100000 		.4byte	0x1071
 2684 0703 15       		.uleb128 0x15
 2685 0704 5C000000 		.4byte	.LVL16
 2686 0708 48100000 		.4byte	0x1048
 2687 070c 15       		.uleb128 0x15
 2688 070d 60000000 		.4byte	.LVL17
 2689 0711 71100000 		.4byte	0x1071
 2690 0715 15       		.uleb128 0x15
 2691 0716 88000000 		.4byte	.LVL18
 2692 071a 48100000 		.4byte	0x1048
 2693 071e 15       		.uleb128 0x15
 2694 071f 8C000000 		.4byte	.LVL19
 2695 0723 71100000 		.4byte	0x1071
 2696 0727 15       		.uleb128 0x15
 2697 0728 BE000000 		.4byte	.LVL20
 2698 072c 48100000 		.4byte	0x1048
 2699 0730 00       		.byte	0
 2700 0731 19       		.uleb128 0x19
 2701 0732 07010000 		.4byte	.LASF101
 2702 0736 01       		.byte	0x1
 2703 0737 4F01     		.2byte	0x14f
 2704 0739 97000000 		.4byte	0x97
 2705 073d 00000000 		.4byte	.LFB68
 2706 0741 C8030000 		.4byte	.LFE68-.LFB68
 2707 0745 01       		.uleb128 0x1
 2708 0746 9C       		.byte	0x9c
 2709 0747 BA070000 		.4byte	0x7ba
 2710 074b 1A       		.uleb128 0x1a
 2711 074c 706F7300 		.ascii	"pos\000"
 2712 0750 01       		.byte	0x1
 2713 0751 4F01     		.2byte	0x14f
 2714 0753 97000000 		.4byte	0x97
 2715 0757 5E000000 		.4byte	.LLST3
 2716 075b 1B       		.uleb128 0x1b
 2717 075c 7800     		.ascii	"x\000"
 2718 075e 01       		.byte	0x1
 2719 075f 5001     		.2byte	0x150
 2720 0761 97000000 		.4byte	0x97
 2721 0765 7F000000 		.4byte	.LLST4
 2722 0769 15       		.uleb128 0x15
 2723 076a 08000000 		.4byte	.LVL29
 2724 076e 48100000 		.4byte	0x1048
 2725 0772 16       		.uleb128 0x16
 2726 0773 10000000 		.4byte	.LVL30
 2727 0777 4F100000 		.4byte	0x104f
 2728 077b 89070000 		.4byte	0x789
 2729 077f 17       		.uleb128 0x17
 2730 0780 01       		.uleb128 0x1
 2731 0781 50       		.byte	0x50
 2732 0782 05       		.uleb128 0x5
 2733 0783 74       		.byte	0x74
 2734 0784 00       		.sleb128 0
 2735 0785 08       		.byte	0x8
 2736 0786 40       		.byte	0x40
 2737 0787 21       		.byte	0x21
 2738 0788 00       		.byte	0
 2739 0789 16       		.uleb128 0x16
ARM GAS  C:\Users\RECEPC~1\AppData\Local\Temp\ccdPVhXF.s 			page 61


 2740 078a 18000000 		.4byte	.LVL31
 2741 078e 60100000 		.4byte	0x1060
 2742 0792 9E070000 		.4byte	0x79e
 2743 0796 17       		.uleb128 0x17
 2744 0797 01       		.uleb128 0x1
 2745 0798 50       		.byte	0x50
 2746 0799 03       		.uleb128 0x3
 2747 079a 0A       		.byte	0xa
 2748 079b 2C01     		.2byte	0x12c
 2749 079d 00       		.byte	0
 2750 079e 15       		.uleb128 0x15
 2751 079f 1C000000 		.4byte	.LVL32
 2752 07a3 87100000 		.4byte	0x1087
 2753 07a7 15       		.uleb128 0x15
 2754 07a8 2A000000 		.4byte	.LVL33
 2755 07ac 71100000 		.4byte	0x1071
 2756 07b0 15       		.uleb128 0x15
 2757 07b1 18020000 		.4byte	.LVL74
 2758 07b5 71100000 		.4byte	0x1071
 2759 07b9 00       		.byte	0
 2760 07ba 1C       		.uleb128 0x1c
 2761 07bb D3040000 		.4byte	.LASF176
 2762 07bf 01       		.byte	0x1
 2763 07c0 BB01     		.2byte	0x1bb
 2764 07c2 F5070000 		.4byte	0x7f5
 2765 07c6 00000000 		.4byte	.LFB69
 2766 07ca 14000000 		.4byte	.LFE69-.LFB69
 2767 07ce 01       		.uleb128 0x1
 2768 07cf 9C       		.byte	0x9c
 2769 07d0 F5070000 		.4byte	0x7f5
 2770 07d4 1D       		.uleb128 0x1d
 2771 07d5 FA070000 		.4byte	.LASF100
 2772 07d9 01       		.byte	0x1
 2773 07da BB01     		.2byte	0x1bb
 2774 07dc 73000000 		.4byte	0x73
 2775 07e0 49020000 		.4byte	.LLST5
 2776 07e4 1E       		.uleb128 0x1e
 2777 07e5 BA010000 		.4byte	.LASF102
 2778 07e9 01       		.byte	0x1
 2779 07ea BD01     		.2byte	0x1bd
 2780 07ec F5070000 		.4byte	0x7f5
 2781 07f0 83020000 		.4byte	.LLST6
 2782 07f4 00       		.byte	0
 2783 07f5 02       		.uleb128 0x2
 2784 07f6 01       		.byte	0x1
 2785 07f7 02       		.byte	0x2
 2786 07f8 41020000 		.4byte	.LASF103
 2787 07fc 19       		.uleb128 0x19
 2788 07fd 9B060000 		.4byte	.LASF104
 2789 0801 01       		.byte	0x1
 2790 0802 D001     		.2byte	0x1d0
 2791 0804 81000000 		.4byte	0x81
 2792 0808 00000000 		.4byte	.LFB70
 2793 080c 26000000 		.4byte	.LFE70-.LFB70
 2794 0810 01       		.uleb128 0x1
 2795 0811 9C       		.byte	0x9c
 2796 0812 37080000 		.4byte	0x837
ARM GAS  C:\Users\RECEPC~1\AppData\Local\Temp\ccdPVhXF.s 			page 62


 2797 0816 1D       		.uleb128 0x1d
 2798 0817 89080000 		.4byte	.LASF105
 2799 081b 01       		.byte	0x1
 2800 081c D001     		.2byte	0x1d0
 2801 081e 37080000 		.4byte	0x837
 2802 0822 A2020000 		.4byte	.LLST7
 2803 0826 1B       		.uleb128 0x1b
 2804 0827 6C726300 		.ascii	"lrc\000"
 2805 082b 01       		.byte	0x1
 2806 082c D201     		.2byte	0x1d2
 2807 082e 81000000 		.4byte	0x81
 2808 0832 C0020000 		.4byte	.LLST8
 2809 0836 00       		.byte	0
 2810 0837 1F       		.uleb128 0x1f
 2811 0838 04       		.byte	0x4
 2812 0839 D5000000 		.4byte	0xd5
 2813 083d 12       		.uleb128 0x12
 2814 083e 33080000 		.4byte	.LASF106
 2815 0842 01       		.byte	0x1
 2816 0843 94       		.byte	0x94
 2817 0844 97000000 		.4byte	0x97
 2818 0848 00000000 		.4byte	.LFB65
 2819 084c B4010000 		.4byte	.LFE65-.LFB65
 2820 0850 01       		.uleb128 0x1
 2821 0851 9C       		.byte	0x9c
 2822 0852 78090000 		.4byte	0x978
 2823 0856 20       		.uleb128 0x20
 2824 0857 F9010000 		.4byte	.LASF107
 2825 085b 01       		.byte	0x1
 2826 085c 94       		.byte	0x94
 2827 085d 97000000 		.4byte	0x97
 2828 0861 08030000 		.4byte	.LLST9
 2829 0865 20       		.uleb128 0x20
 2830 0866 92080000 		.4byte	.LASF108
 2831 086a 01       		.byte	0x1
 2832 086b 94       		.byte	0x94
 2833 086c D5000000 		.4byte	0xd5
 2834 0870 29030000 		.4byte	.LLST10
 2835 0874 20       		.uleb128 0x20
 2836 0875 C1010000 		.4byte	.LASF109
 2837 0879 01       		.byte	0x1
 2838 087a 94       		.byte	0x94
 2839 087b 78090000 		.4byte	0x978
 2840 087f 4A030000 		.4byte	.LLST11
 2841 0883 20       		.uleb128 0x20
 2842 0884 1B010000 		.4byte	.LASF110
 2843 0888 01       		.byte	0x1
 2844 0889 94       		.byte	0x94
 2845 088a 97000000 		.4byte	0x97
 2846 088e 8F030000 		.4byte	.LLST12
 2847 0892 21       		.uleb128 0x21
 2848 0893 32010000 		.4byte	.LASF111
 2849 0897 01       		.byte	0x1
 2850 0898 95       		.byte	0x95
 2851 0899 7E090000 		.4byte	0x97e
 2852 089d 02       		.uleb128 0x2
 2853 089e 91       		.byte	0x91
ARM GAS  C:\Users\RECEPC~1\AppData\Local\Temp\ccdPVhXF.s 			page 63


 2854 089f 54       		.sleb128 -44
 2855 08a0 22       		.uleb128 0x22
 2856 08a1 F4000000 		.4byte	.LASF177
 2857 08a5 01       		.byte	0x1
 2858 08a6 95       		.byte	0x95
 2859 08a7 D5000000 		.4byte	0xd5
 2860 08ab 14       		.uleb128 0x14
 2861 08ac FA070000 		.4byte	.LASF100
 2862 08b0 01       		.byte	0x1
 2863 08b1 96       		.byte	0x96
 2864 08b2 97000000 		.4byte	0x97
 2865 08b6 B0030000 		.4byte	.LLST13
 2866 08ba 18       		.uleb128 0x18
 2867 08bb 7800     		.ascii	"x\000"
 2868 08bd 01       		.byte	0x1
 2869 08be 96       		.byte	0x96
 2870 08bf 97000000 		.4byte	0x97
 2871 08c3 C3030000 		.4byte	.LLST14
 2872 08c7 18       		.uleb128 0x18
 2873 08c8 7900     		.ascii	"y\000"
 2874 08ca 01       		.byte	0x1
 2875 08cb 96       		.byte	0x96
 2876 08cc 97000000 		.4byte	0x97
 2877 08d0 B2040000 		.4byte	.LLST15
 2878 08d4 18       		.uleb128 0x18
 2879 08d5 7A00     		.ascii	"z\000"
 2880 08d7 01       		.byte	0x1
 2881 08d8 96       		.byte	0x96
 2882 08d9 97000000 		.4byte	0x97
 2883 08dd 6B050000 		.4byte	.LLST16
 2884 08e1 14       		.uleb128 0x14
 2885 08e2 E4000000 		.4byte	.LASF112
 2886 08e6 01       		.byte	0x1
 2887 08e7 97       		.byte	0x97
 2888 08e8 D5000000 		.4byte	0xd5
 2889 08ec B7050000 		.4byte	.LLST17
 2890 08f0 16       		.uleb128 0x16
 2891 08f1 1C000000 		.4byte	.LVL119
 2892 08f5 16060000 		.4byte	0x616
 2893 08f9 04090000 		.4byte	0x904
 2894 08fd 17       		.uleb128 0x17
 2895 08fe 01       		.uleb128 0x1
 2896 08ff 50       		.byte	0x50
 2897 0900 02       		.uleb128 0x2
 2898 0901 75       		.byte	0x75
 2899 0902 00       		.sleb128 0
 2900 0903 00       		.byte	0
 2901 0904 16       		.uleb128 0x16
 2902 0905 2C000000 		.4byte	.LVL121
 2903 0909 4F100000 		.4byte	0x104f
 2904 090d 1B090000 		.4byte	0x91b
 2905 0911 17       		.uleb128 0x17
 2906 0912 01       		.uleb128 0x1
 2907 0913 50       		.byte	0x50
 2908 0914 05       		.uleb128 0x5
 2909 0915 75       		.byte	0x75
 2910 0916 00       		.sleb128 0
ARM GAS  C:\Users\RECEPC~1\AppData\Local\Temp\ccdPVhXF.s 			page 64


 2911 0917 08       		.byte	0x8
 2912 0918 20       		.byte	0x20
 2913 0919 21       		.byte	0x21
 2914 091a 00       		.byte	0
 2915 091b 16       		.uleb128 0x16
 2916 091c 32000000 		.4byte	.LVL122
 2917 0920 60100000 		.4byte	0x1060
 2918 0924 2F090000 		.4byte	0x92f
 2919 0928 17       		.uleb128 0x17
 2920 0929 01       		.uleb128 0x1
 2921 092a 50       		.byte	0x50
 2922 092b 02       		.uleb128 0x2
 2923 092c 08       		.byte	0x8
 2924 092d 32       		.byte	0x32
 2925 092e 00       		.byte	0
 2926 092f 15       		.uleb128 0x15
 2927 0930 36000000 		.4byte	.LVL123
 2928 0934 7C100000 		.4byte	0x107c
 2929 0938 15       		.uleb128 0x15
 2930 0939 40000000 		.4byte	.LVL127
 2931 093d 48100000 		.4byte	0x1048
 2932 0941 15       		.uleb128 0x15
 2933 0942 44000000 		.4byte	.LVL128
 2934 0946 48100000 		.4byte	0x1048
 2935 094a 16       		.uleb128 0x16
 2936 094b 6A010000 		.4byte	.LVL174
 2937 094f FC070000 		.4byte	0x7fc
 2938 0953 5E090000 		.4byte	0x95e
 2939 0957 17       		.uleb128 0x17
 2940 0958 01       		.uleb128 0x1
 2941 0959 50       		.byte	0x50
 2942 095a 02       		.uleb128 0x2
 2943 095b 91       		.byte	0x91
 2944 095c 54       		.sleb128 -44
 2945 095d 00       		.byte	0
 2946 095e 15       		.uleb128 0x15
 2947 095f 90010000 		.4byte	.LVL180
 2948 0963 4F100000 		.4byte	0x104f
 2949 0967 23       		.uleb128 0x23
 2950 0968 9E010000 		.4byte	.LVL183
 2951 096c 60100000 		.4byte	0x1060
 2952 0970 17       		.uleb128 0x17
 2953 0971 01       		.uleb128 0x1
 2954 0972 50       		.byte	0x50
 2955 0973 02       		.uleb128 0x2
 2956 0974 08       		.byte	0x8
 2957 0975 32       		.byte	0x32
 2958 0976 00       		.byte	0
 2959 0977 00       		.byte	0
 2960 0978 1F       		.uleb128 0x1f
 2961 0979 04       		.byte	0x4
 2962 097a 97000000 		.4byte	0x97
 2963 097e 07       		.uleb128 0x7
 2964 097f D5000000 		.4byte	0xd5
 2965 0983 8E090000 		.4byte	0x98e
 2966 0987 08       		.uleb128 0x8
 2967 0988 F2000000 		.4byte	0xf2
ARM GAS  C:\Users\RECEPC~1\AppData\Local\Temp\ccdPVhXF.s 			page 65


 2968 098c 11       		.byte	0x11
 2969 098d 00       		.byte	0
 2970 098e 12       		.uleb128 0x12
 2971 098f 95040000 		.4byte	.LASF113
 2972 0993 01       		.byte	0x1
 2973 0994 D9       		.byte	0xd9
 2974 0995 97000000 		.4byte	0x97
 2975 0999 00000000 		.4byte	.LFB66
 2976 099d 24010000 		.4byte	.LFE66-.LFB66
 2977 09a1 01       		.uleb128 0x1
 2978 09a2 9C       		.byte	0x9c
 2979 09a3 B40A0000 		.4byte	0xab4
 2980 09a7 20       		.uleb128 0x20
 2981 09a8 F9010000 		.4byte	.LASF107
 2982 09ac 01       		.byte	0x1
 2983 09ad D9       		.byte	0xd9
 2984 09ae 97000000 		.4byte	0x97
 2985 09b2 ED050000 		.4byte	.LLST18
 2986 09b6 14       		.uleb128 0x14
 2987 09b7 FA070000 		.4byte	.LASF100
 2988 09bb 01       		.byte	0x1
 2989 09bc DA       		.byte	0xda
 2990 09bd 97000000 		.4byte	0x97
 2991 09c1 0E060000 		.4byte	.LLST19
 2992 09c5 18       		.uleb128 0x18
 2993 09c6 7800     		.ascii	"x\000"
 2994 09c8 01       		.byte	0x1
 2995 09c9 DA       		.byte	0xda
 2996 09ca 97000000 		.4byte	0x97
 2997 09ce 2C060000 		.4byte	.LLST20
 2998 09d2 21       		.uleb128 0x21
 2999 09d3 32010000 		.4byte	.LASF111
 3000 09d7 01       		.byte	0x1
 3001 09d8 DB       		.byte	0xdb
 3002 09d9 B40A0000 		.4byte	0xab4
 3003 09dd 02       		.uleb128 0x2
 3004 09de 91       		.byte	0x91
 3005 09df 5C       		.sleb128 -36
 3006 09e0 14       		.uleb128 0x14
 3007 09e1 E4000000 		.4byte	.LASF112
 3008 09e5 01       		.byte	0x1
 3009 09e6 DC       		.byte	0xdc
 3010 09e7 D5000000 		.4byte	0xd5
 3011 09eb 78060000 		.4byte	.LLST21
 3012 09ef 14       		.uleb128 0x14
 3013 09f0 4A030000 		.4byte	.LASF114
 3014 09f4 01       		.byte	0x1
 3015 09f5 DE       		.byte	0xde
 3016 09f6 97000000 		.4byte	0x97
 3017 09fa AE060000 		.4byte	.LLST22
 3018 09fe 24       		.uleb128 0x24
 3019 09ff D70A0000 		.4byte	0xad7
 3020 0a03 CD060000 		.4byte	.LLST23
 3021 0a07 14       		.uleb128 0x14
 3022 0a08 3E000000 		.4byte	.LASF73
 3023 0a0c 01       		.byte	0x1
 3024 0a0d F7       		.byte	0xf7
ARM GAS  C:\Users\RECEPC~1\AppData\Local\Temp\ccdPVhXF.s 			page 66


 3025 0a0e C40A0000 		.4byte	0xac4
 3026 0a12 E7060000 		.4byte	.LLST24
 3027 0a16 16       		.uleb128 0x16
 3028 0a17 0C000000 		.4byte	.LVL190
 3029 0a1b 16060000 		.4byte	0x616
 3030 0a1f 2A0A0000 		.4byte	0xa2a
 3031 0a23 17       		.uleb128 0x17
 3032 0a24 01       		.uleb128 0x1
 3033 0a25 50       		.byte	0x50
 3034 0a26 02       		.uleb128 0x2
 3035 0a27 74       		.byte	0x74
 3036 0a28 00       		.sleb128 0
 3037 0a29 00       		.byte	0
 3038 0a2a 16       		.uleb128 0x16
 3039 0a2b 18000000 		.4byte	.LVL192
 3040 0a2f 4F100000 		.4byte	0x104f
 3041 0a33 410A0000 		.4byte	0xa41
 3042 0a37 17       		.uleb128 0x17
 3043 0a38 01       		.uleb128 0x1
 3044 0a39 50       		.byte	0x50
 3045 0a3a 05       		.uleb128 0x5
 3046 0a3b 74       		.byte	0x74
 3047 0a3c 00       		.sleb128 0
 3048 0a3d 08       		.byte	0x8
 3049 0a3e 20       		.byte	0x20
 3050 0a3f 21       		.byte	0x21
 3051 0a40 00       		.byte	0
 3052 0a41 16       		.uleb128 0x16
 3053 0a42 1E000000 		.4byte	.LVL193
 3054 0a46 60100000 		.4byte	0x1060
 3055 0a4a 550A0000 		.4byte	0xa55
 3056 0a4e 17       		.uleb128 0x17
 3057 0a4f 01       		.uleb128 0x1
 3058 0a50 50       		.byte	0x50
 3059 0a51 02       		.uleb128 0x2
 3060 0a52 08       		.byte	0x8
 3061 0a53 32       		.byte	0x32
 3062 0a54 00       		.byte	0
 3063 0a55 15       		.uleb128 0x15
 3064 0a56 22000000 		.4byte	.LVL194
 3065 0a5a 7C100000 		.4byte	0x107c
 3066 0a5e 15       		.uleb128 0x15
 3067 0a5f 2C000000 		.4byte	.LVL198
 3068 0a63 48100000 		.4byte	0x1048
 3069 0a67 16       		.uleb128 0x16
 3070 0a68 54000000 		.4byte	.LVL199
 3071 0a6c FC070000 		.4byte	0x7fc
 3072 0a70 7B0A0000 		.4byte	0xa7b
 3073 0a74 17       		.uleb128 0x17
 3074 0a75 01       		.uleb128 0x1
 3075 0a76 50       		.byte	0x50
 3076 0a77 02       		.uleb128 0x2
 3077 0a78 7D       		.byte	0x7d
 3078 0a79 14       		.sleb128 20
 3079 0a7a 00       		.byte	0
 3080 0a7b 15       		.uleb128 0x15
 3081 0a7c 6C000000 		.4byte	.LVL202
ARM GAS  C:\Users\RECEPC~1\AppData\Local\Temp\ccdPVhXF.s 			page 67


 3082 0a80 4F100000 		.4byte	0x104f
 3083 0a84 16       		.uleb128 0x16
 3084 0a85 7A000000 		.4byte	.LVL205
 3085 0a89 60100000 		.4byte	0x1060
 3086 0a8d 980A0000 		.4byte	0xa98
 3087 0a91 17       		.uleb128 0x17
 3088 0a92 01       		.uleb128 0x1
 3089 0a93 50       		.byte	0x50
 3090 0a94 02       		.uleb128 0x2
 3091 0a95 08       		.byte	0x8
 3092 0a96 C8       		.byte	0xc8
 3093 0a97 00       		.byte	0
 3094 0a98 15       		.uleb128 0x15
 3095 0a99 7E000000 		.4byte	.LVL206
 3096 0a9d 71100000 		.4byte	0x1071
 3097 0aa1 15       		.uleb128 0x15
 3098 0aa2 94000000 		.4byte	.LVL210
 3099 0aa6 7C100000 		.4byte	0x107c
 3100 0aaa 15       		.uleb128 0x15
 3101 0aab A2000000 		.4byte	.LVL213
 3102 0aaf 48100000 		.4byte	0x1048
 3103 0ab3 00       		.byte	0
 3104 0ab4 07       		.uleb128 0x7
 3105 0ab5 D5000000 		.4byte	0xd5
 3106 0ab9 C40A0000 		.4byte	0xac4
 3107 0abd 08       		.uleb128 0x8
 3108 0abe F2000000 		.4byte	0xf2
 3109 0ac2 08       		.byte	0x8
 3110 0ac3 00       		.byte	0
 3111 0ac4 07       		.uleb128 0x7
 3112 0ac5 D5000000 		.4byte	0xd5
 3113 0ac9 D70A0000 		.4byte	0xad7
 3114 0acd 25       		.uleb128 0x25
 3115 0ace F2000000 		.4byte	0xf2
 3116 0ad2 FE090000 		.4byte	0x9fe
 3117 0ad6 00       		.byte	0
 3118 0ad7 26       		.uleb128 0x26
 3119 0ad8 F2000000 		.4byte	0xf2
 3120 0adc 19       		.uleb128 0x19
 3121 0add E3020000 		.4byte	.LASF115
 3122 0ae1 01       		.byte	0x1
 3123 0ae2 0F01     		.2byte	0x10f
 3124 0ae4 97000000 		.4byte	0x97
 3125 0ae8 00000000 		.4byte	.LFB67
 3126 0aec D4000000 		.4byte	.LFE67-.LFB67
 3127 0af0 01       		.uleb128 0x1
 3128 0af1 9C       		.byte	0x9c
 3129 0af2 1F0C0000 		.4byte	0xc1f
 3130 0af6 1D       		.uleb128 0x1d
 3131 0af7 F9010000 		.4byte	.LASF107
 3132 0afb 01       		.byte	0x1
 3133 0afc 0F01     		.2byte	0x10f
 3134 0afe 97000000 		.4byte	0x97
 3135 0b02 FB060000 		.4byte	.LLST25
 3136 0b06 1E       		.uleb128 0x1e
 3137 0b07 FA070000 		.4byte	.LASF100
 3138 0b0b 01       		.byte	0x1
ARM GAS  C:\Users\RECEPC~1\AppData\Local\Temp\ccdPVhXF.s 			page 68


 3139 0b0c 1001     		.2byte	0x110
 3140 0b0e 97000000 		.4byte	0x97
 3141 0b12 1C070000 		.4byte	.LLST26
 3142 0b16 1B       		.uleb128 0x1b
 3143 0b17 7800     		.ascii	"x\000"
 3144 0b19 01       		.byte	0x1
 3145 0b1a 1001     		.2byte	0x110
 3146 0b1c 97000000 		.4byte	0x97
 3147 0b20 2F070000 		.4byte	.LLST27
 3148 0b24 27       		.uleb128 0x27
 3149 0b25 32010000 		.4byte	.LASF111
 3150 0b29 01       		.byte	0x1
 3151 0b2a 1101     		.2byte	0x111
 3152 0b2c B40A0000 		.4byte	0xab4
 3153 0b30 02       		.uleb128 0x2
 3154 0b31 91       		.byte	0x91
 3155 0b32 5C       		.sleb128 -36
 3156 0b33 1E       		.uleb128 0x1e
 3157 0b34 E4000000 		.4byte	.LASF112
 3158 0b38 01       		.byte	0x1
 3159 0b39 1201     		.2byte	0x112
 3160 0b3b D5000000 		.4byte	0xd5
 3161 0b3f 7B070000 		.4byte	.LLST28
 3162 0b43 1E       		.uleb128 0x1e
 3163 0b44 4A030000 		.4byte	.LASF114
 3164 0b48 01       		.byte	0x1
 3165 0b49 1401     		.2byte	0x114
 3166 0b4b 97000000 		.4byte	0x97
 3167 0b4f B1070000 		.4byte	.LLST29
 3168 0b53 24       		.uleb128 0x24
 3169 0b54 320C0000 		.4byte	0xc32
 3170 0b58 D0070000 		.4byte	.LLST30
 3171 0b5c 1E       		.uleb128 0x1e
 3172 0b5d 3E000000 		.4byte	.LASF73
 3173 0b61 01       		.byte	0x1
 3174 0b62 3201     		.2byte	0x132
 3175 0b64 1F0C0000 		.4byte	0xc1f
 3176 0b68 EA070000 		.4byte	.LLST31
 3177 0b6c 16       		.uleb128 0x16
 3178 0b6d 0C000000 		.4byte	.LVL217
 3179 0b71 16060000 		.4byte	0x616
 3180 0b75 800B0000 		.4byte	0xb80
 3181 0b79 17       		.uleb128 0x17
 3182 0b7a 01       		.uleb128 0x1
 3183 0b7b 50       		.byte	0x50
 3184 0b7c 02       		.uleb128 0x2
 3185 0b7d 74       		.byte	0x74
 3186 0b7e 00       		.sleb128 0
 3187 0b7f 00       		.byte	0
 3188 0b80 16       		.uleb128 0x16
 3189 0b81 1C000000 		.4byte	.LVL219
 3190 0b85 4F100000 		.4byte	0x104f
 3191 0b89 970B0000 		.4byte	0xb97
 3192 0b8d 17       		.uleb128 0x17
 3193 0b8e 01       		.uleb128 0x1
 3194 0b8f 50       		.byte	0x50
 3195 0b90 05       		.uleb128 0x5
ARM GAS  C:\Users\RECEPC~1\AppData\Local\Temp\ccdPVhXF.s 			page 69


 3196 0b91 74       		.byte	0x74
 3197 0b92 00       		.sleb128 0
 3198 0b93 08       		.byte	0x8
 3199 0b94 20       		.byte	0x20
 3200 0b95 21       		.byte	0x21
 3201 0b96 00       		.byte	0
 3202 0b97 16       		.uleb128 0x16
 3203 0b98 22000000 		.4byte	.LVL220
 3204 0b9c 60100000 		.4byte	0x1060
 3205 0ba0 AB0B0000 		.4byte	0xbab
 3206 0ba4 17       		.uleb128 0x17
 3207 0ba5 01       		.uleb128 0x1
 3208 0ba6 50       		.byte	0x50
 3209 0ba7 02       		.uleb128 0x2
 3210 0ba8 08       		.byte	0x8
 3211 0ba9 32       		.byte	0x32
 3212 0baa 00       		.byte	0
 3213 0bab 15       		.uleb128 0x15
 3214 0bac 26000000 		.4byte	.LVL221
 3215 0bb0 7C100000 		.4byte	0x107c
 3216 0bb4 15       		.uleb128 0x15
 3217 0bb5 30000000 		.4byte	.LVL225
 3218 0bb9 48100000 		.4byte	0x1048
 3219 0bbd 16       		.uleb128 0x16
 3220 0bbe 58000000 		.4byte	.LVL226
 3221 0bc2 FC070000 		.4byte	0x7fc
 3222 0bc6 D10B0000 		.4byte	0xbd1
 3223 0bca 17       		.uleb128 0x17
 3224 0bcb 01       		.uleb128 0x1
 3225 0bcc 50       		.byte	0x50
 3226 0bcd 02       		.uleb128 0x2
 3227 0bce 7D       		.byte	0x7d
 3228 0bcf 14       		.sleb128 20
 3229 0bd0 00       		.byte	0
 3230 0bd1 15       		.uleb128 0x15
 3231 0bd2 70000000 		.4byte	.LVL229
 3232 0bd6 4F100000 		.4byte	0x104f
 3233 0bda 16       		.uleb128 0x16
 3234 0bdb 86000000 		.4byte	.LVL232
 3235 0bdf 60100000 		.4byte	0x1060
 3236 0be3 EF0B0000 		.4byte	0xbef
 3237 0be7 17       		.uleb128 0x17
 3238 0be8 01       		.uleb128 0x1
 3239 0be9 50       		.byte	0x50
 3240 0bea 03       		.uleb128 0x3
 3241 0beb 0A       		.byte	0xa
 3242 0bec BC02     		.2byte	0x2bc
 3243 0bee 00       		.byte	0
 3244 0bef 16       		.uleb128 0x16
 3245 0bf0 8E000000 		.4byte	.LVL233
 3246 0bf4 60100000 		.4byte	0x1060
 3247 0bf8 030C0000 		.4byte	0xc03
 3248 0bfc 17       		.uleb128 0x17
 3249 0bfd 01       		.uleb128 0x1
 3250 0bfe 50       		.byte	0x50
 3251 0bff 02       		.uleb128 0x2
 3252 0c00 08       		.byte	0x8
ARM GAS  C:\Users\RECEPC~1\AppData\Local\Temp\ccdPVhXF.s 			page 70


 3253 0c01 C8       		.byte	0xc8
 3254 0c02 00       		.byte	0
 3255 0c03 15       		.uleb128 0x15
 3256 0c04 92000000 		.4byte	.LVL234
 3257 0c08 71100000 		.4byte	0x1071
 3258 0c0c 15       		.uleb128 0x15
 3259 0c0d A8000000 		.4byte	.LVL238
 3260 0c11 7C100000 		.4byte	0x107c
 3261 0c15 15       		.uleb128 0x15
 3262 0c16 B6000000 		.4byte	.LVL241
 3263 0c1a 48100000 		.4byte	0x1048
 3264 0c1e 00       		.byte	0
 3265 0c1f 07       		.uleb128 0x7
 3266 0c20 D5000000 		.4byte	0xd5
 3267 0c24 320C0000 		.4byte	0xc32
 3268 0c28 25       		.uleb128 0x25
 3269 0c29 F2000000 		.4byte	0xf2
 3270 0c2d 530B0000 		.4byte	0xb53
 3271 0c31 00       		.byte	0
 3272 0c32 26       		.uleb128 0x26
 3273 0c33 F2000000 		.4byte	0xf2
 3274 0c37 07       		.uleb128 0x7
 3275 0c38 97000000 		.4byte	0x97
 3276 0c3c 470C0000 		.4byte	0xc47
 3277 0c40 08       		.uleb128 0x8
 3278 0c41 F2000000 		.4byte	0xf2
 3279 0c45 FF       		.byte	0xff
 3280 0c46 00       		.byte	0
 3281 0c47 28       		.uleb128 0x28
 3282 0c48 B7020000 		.4byte	.LASF116
 3283 0c4c 06       		.byte	0x6
 3284 0c4d 3E01     		.2byte	0x13e
 3285 0c4f 530C0000 		.4byte	0xc53
 3286 0c53 06       		.uleb128 0x6
 3287 0c54 370C0000 		.4byte	0xc37
 3288 0c58 28       		.uleb128 0x28
 3289 0c59 77050000 		.4byte	.LASF117
 3290 0c5d 07       		.byte	0x7
 3291 0c5e 5506     		.2byte	0x655
 3292 0c60 640C0000 		.4byte	0xc64
 3293 0c64 06       		.uleb128 0x6
 3294 0c65 8C000000 		.4byte	0x8c
 3295 0c69 29       		.uleb128 0x29
 3296 0c6a 06040000 		.4byte	.LASF118
 3297 0c6e 05       		.byte	0x5
 3298 0c6f 2C       		.byte	0x2c
 3299 0c70 7A0C0000 		.4byte	0xc7a
 3300 0c74 05       		.uleb128 0x5
 3301 0c75 03       		.byte	0x3
 3302 0c76 00000000 		.4byte	countAnimation1
 3303 0c7a 06       		.uleb128 0x6
 3304 0c7b C9000000 		.4byte	0xc9
 3305 0c7f 29       		.uleb128 0x29
 3306 0c80 44040000 		.4byte	.LASF119
 3307 0c84 05       		.byte	0x5
 3308 0c85 2D       		.byte	0x2d
 3309 0c86 7A0C0000 		.4byte	0xc7a
ARM GAS  C:\Users\RECEPC~1\AppData\Local\Temp\ccdPVhXF.s 			page 71


 3310 0c8a 05       		.uleb128 0x5
 3311 0c8b 03       		.byte	0x3
 3312 0c8c 00000000 		.4byte	countAnimation2
 3313 0c90 29       		.uleb128 0x29
 3314 0c91 3C030000 		.4byte	.LASF120
 3315 0c95 05       		.byte	0x5
 3316 0c96 2E       		.byte	0x2e
 3317 0c97 7A0C0000 		.4byte	0xc7a
 3318 0c9b 05       		.uleb128 0x5
 3319 0c9c 03       		.byte	0x3
 3320 0c9d 00000000 		.4byte	countBeagleTX
 3321 0ca1 29       		.uleb128 0x29
 3322 0ca2 5D080000 		.4byte	.LASF121
 3323 0ca6 05       		.byte	0x5
 3324 0ca7 2F       		.byte	0x2f
 3325 0ca8 7A0C0000 		.4byte	0xc7a
 3326 0cac 05       		.uleb128 0x5
 3327 0cad 03       		.byte	0x3
 3328 0cae 00000000 		.4byte	countPump
 3329 0cb2 29       		.uleb128 0x29
 3330 0cb3 58020000 		.4byte	.LASF122
 3331 0cb7 05       		.byte	0x5
 3332 0cb8 30       		.byte	0x30
 3333 0cb9 ED000000 		.4byte	0xed
 3334 0cbd 05       		.uleb128 0x5
 3335 0cbe 03       		.byte	0x3
 3336 0cbf 00000000 		.4byte	flowDisplay1
 3337 0cc3 29       		.uleb128 0x29
 3338 0cc4 65020000 		.4byte	.LASF123
 3339 0cc8 05       		.byte	0x5
 3340 0cc9 31       		.byte	0x31
 3341 0cca ED000000 		.4byte	0xed
 3342 0cce 05       		.uleb128 0x5
 3343 0ccf 03       		.byte	0x3
 3344 0cd0 00000000 		.4byte	flowDisplay2
 3345 0cd4 29       		.uleb128 0x29
 3346 0cd5 72020000 		.4byte	.LASF124
 3347 0cd9 05       		.byte	0x5
 3348 0cda 32       		.byte	0x32
 3349 0cdb ED000000 		.4byte	0xed
 3350 0cdf 05       		.uleb128 0x5
 3351 0ce0 03       		.byte	0x3
 3352 0ce1 00000000 		.4byte	flowDisplay3
 3353 0ce5 29       		.uleb128 0x29
 3354 0ce6 7F020000 		.4byte	.LASF125
 3355 0cea 05       		.byte	0x5
 3356 0ceb 33       		.byte	0x33
 3357 0cec ED000000 		.4byte	0xed
 3358 0cf0 05       		.uleb128 0x5
 3359 0cf1 03       		.byte	0x3
 3360 0cf2 00000000 		.4byte	flowDisplay4
 3361 0cf6 07       		.uleb128 0x7
 3362 0cf7 97000000 		.4byte	0x97
 3363 0cfb 060D0000 		.4byte	0xd06
 3364 0cff 08       		.uleb128 0x8
 3365 0d00 F2000000 		.4byte	0xf2
 3366 0d04 0B       		.byte	0xb
ARM GAS  C:\Users\RECEPC~1\AppData\Local\Temp\ccdPVhXF.s 			page 72


 3367 0d05 00       		.byte	0
 3368 0d06 29       		.uleb128 0x29
 3369 0d07 45000000 		.4byte	.LASF126
 3370 0d0b 05       		.byte	0x5
 3371 0d0c 34       		.byte	0x34
 3372 0d0d 170D0000 		.4byte	0xd17
 3373 0d11 05       		.uleb128 0x5
 3374 0d12 03       		.byte	0x3
 3375 0d13 00000000 		.4byte	ipAdress
 3376 0d17 06       		.uleb128 0x6
 3377 0d18 F60C0000 		.4byte	0xcf6
 3378 0d1c 29       		.uleb128 0x29
 3379 0d1d 24030000 		.4byte	.LASF127
 3380 0d21 05       		.byte	0x5
 3381 0d22 35       		.byte	0x35
 3382 0d23 E8000000 		.4byte	0xe8
 3383 0d27 05       		.uleb128 0x5
 3384 0d28 03       		.byte	0x3
 3385 0d29 00000000 		.4byte	numberKeys1
 3386 0d2d 29       		.uleb128 0x29
 3387 0d2e 30030000 		.4byte	.LASF128
 3388 0d32 05       		.byte	0x5
 3389 0d33 36       		.byte	0x36
 3390 0d34 E8000000 		.4byte	0xe8
 3391 0d38 05       		.uleb128 0x5
 3392 0d39 03       		.byte	0x3
 3393 0d3a 00000000 		.4byte	numberKeys2
 3394 0d3e 29       		.uleb128 0x29
 3395 0d3f 1F050000 		.4byte	.LASF129
 3396 0d43 05       		.byte	0x5
 3397 0d44 37       		.byte	0x37
 3398 0d45 E8000000 		.4byte	0xe8
 3399 0d49 05       		.uleb128 0x5
 3400 0d4a 03       		.byte	0x3
 3401 0d4b 00000000 		.4byte	flagPoint1
 3402 0d4f 29       		.uleb128 0x29
 3403 0d50 FC000000 		.4byte	.LASF130
 3404 0d54 05       		.byte	0x5
 3405 0d55 38       		.byte	0x38
 3406 0d56 E8000000 		.4byte	0xe8
 3407 0d5a 05       		.uleb128 0x5
 3408 0d5b 03       		.byte	0x3
 3409 0d5c 00000000 		.4byte	flagPoint2
 3410 0d60 07       		.uleb128 0x7
 3411 0d61 97000000 		.4byte	0x97
 3412 0d65 760D0000 		.4byte	0xd76
 3413 0d69 08       		.uleb128 0x8
 3414 0d6a F2000000 		.4byte	0xf2
 3415 0d6e 77       		.byte	0x77
 3416 0d6f 08       		.uleb128 0x8
 3417 0d70 F2000000 		.4byte	0xf2
 3418 0d74 07       		.byte	0x7
 3419 0d75 00       		.byte	0
 3420 0d76 29       		.uleb128 0x29
 3421 0d77 51020000 		.4byte	.LASF131
 3422 0d7b 05       		.byte	0x5
 3423 0d7c 39       		.byte	0x39
ARM GAS  C:\Users\RECEPC~1\AppData\Local\Temp\ccdPVhXF.s 			page 73


 3424 0d7d 870D0000 		.4byte	0xd87
 3425 0d81 05       		.uleb128 0x5
 3426 0d82 03       		.byte	0x3
 3427 0d83 00000000 		.4byte	button
 3428 0d87 06       		.uleb128 0x6
 3429 0d88 600D0000 		.4byte	0xd60
 3430 0d8c 29       		.uleb128 0x29
 3431 0d8d D3010000 		.4byte	.LASF132
 3432 0d91 05       		.byte	0x5
 3433 0d92 3A       		.byte	0x3a
 3434 0d93 E8000000 		.4byte	0xe8
 3435 0d97 05       		.uleb128 0x5
 3436 0d98 03       		.byte	0x3
 3437 0d99 00000000 		.4byte	productNumber
 3438 0d9d 29       		.uleb128 0x29
 3439 0d9e DB030000 		.4byte	.LASF133
 3440 0da2 05       		.byte	0x5
 3441 0da3 3B       		.byte	0x3b
 3442 0da4 64040000 		.4byte	0x464
 3443 0da8 05       		.uleb128 0x5
 3444 0da9 03       		.byte	0x3
 3445 0daa 00000000 		.4byte	presetFast
 3446 0dae 29       		.uleb128 0x29
 3447 0daf 2A060000 		.4byte	.LASF134
 3448 0db3 05       		.byte	0x5
 3449 0db4 3C       		.byte	0x3c
 3450 0db5 ED000000 		.4byte	0xed
 3451 0db9 05       		.uleb128 0x5
 3452 0dba 03       		.byte	0x3
 3453 0dbb 00000000 		.4byte	delayPicture1
 3454 0dbf 29       		.uleb128 0x29
 3455 0dc0 38060000 		.4byte	.LASF135
 3456 0dc4 05       		.byte	0x5
 3457 0dc5 3D       		.byte	0x3d
 3458 0dc6 ED000000 		.4byte	0xed
 3459 0dca 05       		.uleb128 0x5
 3460 0dcb 03       		.byte	0x3
 3461 0dcc 00000000 		.4byte	delayPicture2
 3462 0dd0 29       		.uleb128 0x29
 3463 0dd1 05050000 		.4byte	.LASF136
 3464 0dd5 05       		.byte	0x5
 3465 0dd6 3E       		.byte	0x3e
 3466 0dd7 E8000000 		.4byte	0xe8
 3467 0ddb 05       		.uleb128 0x5
 3468 0ddc 03       		.byte	0x3
 3469 0ddd 00000000 		.4byte	ppux10
 3470 0de1 29       		.uleb128 0x29
 3471 0de2 4E000000 		.4byte	.LASF137
 3472 0de6 05       		.byte	0x5
 3473 0de7 3F       		.byte	0x3f
 3474 0de8 E8000000 		.4byte	0xe8
 3475 0dec 05       		.uleb128 0x5
 3476 0ded 03       		.byte	0x3
 3477 0dee 00000000 		.4byte	decimalMoney
 3478 0df2 29       		.uleb128 0x29
 3479 0df3 10000000 		.4byte	.LASF138
 3480 0df7 05       		.byte	0x5
ARM GAS  C:\Users\RECEPC~1\AppData\Local\Temp\ccdPVhXF.s 			page 74


 3481 0df8 40       		.byte	0x40
 3482 0df9 E8000000 		.4byte	0xe8
 3483 0dfd 05       		.uleb128 0x5
 3484 0dfe 03       		.byte	0x3
 3485 0dff 00000000 		.4byte	decimalVolume
 3486 0e03 29       		.uleb128 0x29
 3487 0e04 3C050000 		.4byte	.LASF139
 3488 0e08 05       		.byte	0x5
 3489 0e09 41       		.byte	0x41
 3490 0e0a 140E0000 		.4byte	0xe14
 3491 0e0e 05       		.uleb128 0x5
 3492 0e0f 03       		.byte	0x3
 3493 0e10 00000000 		.4byte	symbols
 3494 0e14 06       		.uleb128 0x6
 3495 0e15 C2030000 		.4byte	0x3c2
 3496 0e19 07       		.uleb128 0x7
 3497 0e1a 97000000 		.4byte	0x97
 3498 0e1e 290E0000 		.4byte	0xe29
 3499 0e22 08       		.uleb128 0x8
 3500 0e23 F2000000 		.4byte	0xf2
 3501 0e27 02       		.byte	0x2
 3502 0e28 00       		.byte	0
 3503 0e29 29       		.uleb128 0x29
 3504 0e2a B5010000 		.4byte	.LASF140
 3505 0e2e 05       		.byte	0x5
 3506 0e2f 42       		.byte	0x42
 3507 0e30 3A0E0000 		.4byte	0xe3a
 3508 0e34 05       		.uleb128 0x5
 3509 0e35 03       		.byte	0x3
 3510 0e36 00000000 		.4byte	time
 3511 0e3a 06       		.uleb128 0x6
 3512 0e3b 190E0000 		.4byte	0xe19
 3513 0e3f 29       		.uleb128 0x29
 3514 0e40 73030000 		.4byte	.LASF141
 3515 0e44 05       		.byte	0x5
 3516 0e45 43       		.byte	0x43
 3517 0e46 500E0000 		.4byte	0xe50
 3518 0e4a 05       		.uleb128 0x5
 3519 0e4b 03       		.byte	0x3
 3520 0e4c 00000000 		.4byte	date
 3521 0e50 06       		.uleb128 0x6
 3522 0e51 190E0000 		.4byte	0xe19
 3523 0e55 29       		.uleb128 0x29
 3524 0e56 FE010000 		.4byte	.LASF142
 3525 0e5a 05       		.byte	0x5
 3526 0e5b 44       		.byte	0x44
 3527 0e5c 660E0000 		.4byte	0xe66
 3528 0e60 05       		.uleb128 0x5
 3529 0e61 03       		.byte	0x3
 3530 0e62 00000000 		.4byte	screen
 3531 0e66 06       		.uleb128 0x6
 3532 0e67 C2030000 		.4byte	0x3c2
 3533 0e6b 29       		.uleb128 0x29
 3534 0e6c A5000000 		.4byte	.LASF143
 3535 0e70 05       		.byte	0x5
 3536 0e71 45       		.byte	0x45
 3537 0e72 7C0E0000 		.4byte	0xe7c
ARM GAS  C:\Users\RECEPC~1\AppData\Local\Temp\ccdPVhXF.s 			page 75


 3538 0e76 05       		.uleb128 0x5
 3539 0e77 03       		.byte	0x3
 3540 0e78 00000000 		.4byte	residue
 3541 0e7c 06       		.uleb128 0x6
 3542 0e7d 08040000 		.4byte	0x408
 3543 0e81 07       		.uleb128 0x7
 3544 0e82 97000000 		.4byte	0x97
 3545 0e86 910E0000 		.4byte	0xe91
 3546 0e8a 08       		.uleb128 0x8
 3547 0e8b F2000000 		.4byte	0xf2
 3548 0e8f 1D       		.byte	0x1d
 3549 0e90 00       		.byte	0
 3550 0e91 29       		.uleb128 0x29
 3551 0e92 F1070000 		.4byte	.LASF144
 3552 0e96 05       		.byte	0x5
 3553 0e97 46       		.byte	0x46
 3554 0e98 810E0000 		.4byte	0xe81
 3555 0e9c 05       		.uleb128 0x5
 3556 0e9d 03       		.byte	0x3
 3557 0e9e 00000000 		.4byte	temporal
 3558 0ea2 29       		.uleb128 0x29
 3559 0ea3 B2020000 		.4byte	.LASF145
 3560 0ea7 05       		.byte	0x5
 3561 0ea8 47       		.byte	0x47
 3562 0ea9 E8000000 		.4byte	0xe8
 3563 0ead 05       		.uleb128 0x5
 3564 0eae 03       		.byte	0x3
 3565 0eaf 00000000 		.4byte	turn
 3566 0eb3 29       		.uleb128 0x29
 3567 0eb4 84050000 		.4byte	.LASF146
 3568 0eb8 05       		.byte	0x5
 3569 0eb9 48       		.byte	0x48
 3570 0eba E8000000 		.4byte	0xe8
 3571 0ebe 05       		.uleb128 0x5
 3572 0ebf 03       		.byte	0x3
 3573 0ec0 00000000 		.4byte	lockTurn
 3574 0ec4 29       		.uleb128 0x29
 3575 0ec5 93070000 		.4byte	.LASF147
 3576 0ec9 05       		.byte	0x5
 3577 0eca 49       		.byte	0x49
 3578 0ecb D50E0000 		.4byte	0xed5
 3579 0ecf 05       		.uleb128 0x5
 3580 0ed0 03       		.byte	0x3
 3581 0ed1 00000000 		.4byte	idSeller
 3582 0ed5 06       		.uleb128 0x6
 3583 0ed6 92030000 		.4byte	0x392
 3584 0eda 29       		.uleb128 0x29
 3585 0edb 1B080000 		.4byte	.LASF148
 3586 0edf 05       		.byte	0x5
 3587 0ee0 4A       		.byte	0x4a
 3588 0ee1 E8000000 		.4byte	0xe8
 3589 0ee5 05       		.uleb128 0x5
 3590 0ee6 03       		.byte	0x3
 3591 0ee7 00000000 		.4byte	typeIdSeller
 3592 0eeb 07       		.uleb128 0x7
 3593 0eec 97000000 		.4byte	0x97
 3594 0ef0 FB0E0000 		.4byte	0xefb
ARM GAS  C:\Users\RECEPC~1\AppData\Local\Temp\ccdPVhXF.s 			page 76


 3595 0ef4 08       		.uleb128 0x8
 3596 0ef5 F2000000 		.4byte	0xf2
 3597 0ef9 07       		.byte	0x7
 3598 0efa 00       		.byte	0
 3599 0efb 29       		.uleb128 0x29
 3600 0efc FA050000 		.4byte	.LASF149
 3601 0f00 05       		.byte	0x5
 3602 0f01 4B       		.byte	0x4b
 3603 0f02 0C0F0000 		.4byte	0xf0c
 3604 0f06 05       		.uleb128 0x5
 3605 0f07 03       		.byte	0x3
 3606 0f08 00000000 		.4byte	passwordSeller
 3607 0f0c 06       		.uleb128 0x6
 3608 0f0d EB0E0000 		.4byte	0xeeb
 3609 0f11 29       		.uleb128 0x29
 3610 0f12 C6040000 		.4byte	.LASF150
 3611 0f16 05       		.byte	0x5
 3612 0f17 4C       		.byte	0x4c
 3613 0f18 E8000000 		.4byte	0xe8
 3614 0f1c 05       		.uleb128 0x5
 3615 0f1d 03       		.byte	0x3
 3616 0f1e 00000000 		.4byte	flagResetMux
 3617 0f22 29       		.uleb128 0x29
 3618 0f23 23040000 		.4byte	.LASF151
 3619 0f27 05       		.byte	0x5
 3620 0f28 4D       		.byte	0x4d
 3621 0f29 E8000000 		.4byte	0xe8
 3622 0f2d 05       		.uleb128 0x5
 3623 0f2e 03       		.byte	0x3
 3624 0f2f 00000000 		.4byte	stateBeagleSoft
 3625 0f33 29       		.uleb128 0x29
 3626 0f34 1E000000 		.4byte	.LASF152
 3627 0f38 05       		.byte	0x5
 3628 0f39 4E       		.byte	0x4e
 3629 0f3a 440F0000 		.4byte	0xf44
 3630 0f3e 05       		.uleb128 0x5
 3631 0f3f 03       		.byte	0x3
 3632 0f40 00000000 		.4byte	PrevStatePump
 3633 0f44 06       		.uleb128 0x6
 3634 0f45 F9000000 		.4byte	0xf9
 3635 0f49 29       		.uleb128 0x29
 3636 0f4a 7F010000 		.4byte	.LASF153
 3637 0f4e 05       		.byte	0x5
 3638 0f4f 4F       		.byte	0x4f
 3639 0f50 E8000000 		.4byte	0xe8
 3640 0f54 05       		.uleb128 0x5
 3641 0f55 03       		.byte	0x3
 3642 0f56 00000000 		.4byte	PlateRequest
 3643 0f5a 29       		.uleb128 0x29
 3644 0f5b 1A060000 		.4byte	.LASF154
 3645 0f5f 05       		.byte	0x5
 3646 0f60 51       		.byte	0x51
 3647 0f61 97000000 		.4byte	0x97
 3648 0f65 05       		.uleb128 0x5
 3649 0f66 03       		.byte	0x3
 3650 0f67 00000000 		.4byte	UnitType
 3651 0f6b 29       		.uleb128 0x29
ARM GAS  C:\Users\RECEPC~1\AppData\Local\Temp\ccdPVhXF.s 			page 77


 3652 0f6c 06030000 		.4byte	.LASF155
 3653 0f70 05       		.byte	0x5
 3654 0f71 51       		.byte	0x51
 3655 0f72 97000000 		.4byte	0x97
 3656 0f76 05       		.uleb128 0x5
 3657 0f77 03       		.byte	0x3
 3658 0f78 00000000 		.4byte	ConversionFactor
 3659 0f7c 29       		.uleb128 0x29
 3660 0f7d 50010000 		.4byte	.LASF156
 3661 0f81 05       		.byte	0x5
 3662 0f82 51       		.byte	0x51
 3663 0f83 97000000 		.4byte	0x97
 3664 0f87 05       		.uleb128 0x5
 3665 0f88 03       		.byte	0x3
 3666 0f89 00000000 		.4byte	MoneyDec
 3667 0f8d 29       		.uleb128 0x29
 3668 0f8e 70050000 		.4byte	.LASF157
 3669 0f92 05       		.byte	0x5
 3670 0f93 51       		.byte	0x51
 3671 0f94 97000000 		.4byte	0x97
 3672 0f98 05       		.uleb128 0x5
 3673 0f99 03       		.byte	0x3
 3674 0f9a 00000000 		.4byte	VolDec
 3675 0f9e 29       		.uleb128 0x29
 3676 0f9f 6A060000 		.4byte	.LASF158
 3677 0fa3 05       		.byte	0x5
 3678 0fa4 51       		.byte	0x51
 3679 0fa5 97000000 		.4byte	0x97
 3680 0fa9 05       		.uleb128 0x5
 3681 0faa 03       		.byte	0x3
 3682 0fab 00000000 		.4byte	PPUDec
 3683 0faf 29       		.uleb128 0x29
 3684 0fb0 B4000000 		.4byte	.LASF159
 3685 0fb4 05       		.byte	0x5
 3686 0fb5 51       		.byte	0x51
 3687 0fb6 97000000 		.4byte	0x97
 3688 0fba 05       		.uleb128 0x5
 3689 0fbb 03       		.byte	0x3
 3690 0fbc 00000000 		.4byte	DDMode
 3691 0fc0 29       		.uleb128 0x29
 3692 0fc1 34000000 		.4byte	.LASF160
 3693 0fc5 05       		.byte	0x5
 3694 0fc6 52       		.byte	0x52
 3695 0fc7 F9000000 		.4byte	0xf9
 3696 0fcb 05       		.uleb128 0x5
 3697 0fcc 03       		.byte	0x3
 3698 0fcd 00000000 		.4byte	statePump
 3699 0fd1 29       		.uleb128 0x29
 3700 0fd2 16040000 		.4byte	.LASF161
 3701 0fd6 05       		.byte	0x5
 3702 0fd7 53       		.byte	0x53
 3703 0fd8 97000000 		.4byte	0x97
 3704 0fdc 05       		.uleb128 0x5
 3705 0fdd 03       		.byte	0x3
 3706 0fde 00000000 		.4byte	NumPositions
 3707 0fe2 29       		.uleb128 0x29
 3708 0fe3 A0010000 		.4byte	.LASF162
ARM GAS  C:\Users\RECEPC~1\AppData\Local\Temp\ccdPVhXF.s 			page 78


 3709 0fe7 05       		.byte	0x5
 3710 0fe8 54       		.byte	0x54
 3711 0fe9 97000000 		.4byte	0x97
 3712 0fed 05       		.uleb128 0x5
 3713 0fee 03       		.byte	0x3
 3714 0fef 00000000 		.4byte	digits
 3715 0ff3 29       		.uleb128 0x29
 3716 0ff4 D1080000 		.4byte	.LASF163
 3717 0ff8 05       		.byte	0x5
 3718 0ff9 94       		.byte	0x94
 3719 0ffa 09010000 		.4byte	0x109
 3720 0ffe 05       		.uleb128 0x5
 3721 0fff 03       		.byte	0x3
 3722 1000 00000000 		.4byte	bufferDisplay1
 3723 1004 29       		.uleb128 0x29
 3724 1005 C3050000 		.4byte	.LASF164
 3725 1009 05       		.byte	0x5
 3726 100a 95       		.byte	0x95
 3727 100b 09010000 		.4byte	0x109
 3728 100f 05       		.uleb128 0x5
 3729 1010 03       		.byte	0x3
 3730 1011 00000000 		.4byte	bufferDisplay2
 3731 1015 29       		.uleb128 0x29
 3732 1016 D2050000 		.4byte	.LASF165
 3733 101a 05       		.byte	0x5
 3734 101b 96       		.byte	0x96
 3735 101c 09010000 		.4byte	0x109
 3736 1020 05       		.uleb128 0x5
 3737 1021 03       		.byte	0x3
 3738 1022 00000000 		.4byte	bufferDisplay3
 3739 1026 29       		.uleb128 0x29
 3740 1027 E1050000 		.4byte	.LASF166
 3741 102b 05       		.byte	0x5
 3742 102c 97       		.byte	0x97
 3743 102d 09010000 		.4byte	0x109
 3744 1031 05       		.uleb128 0x5
 3745 1032 03       		.byte	0x3
 3746 1033 00000000 		.4byte	bufferDisplay4
 3747 1037 29       		.uleb128 0x29
 3748 1038 F9010000 		.4byte	.LASF107
 3749 103c 05       		.byte	0x5
 3750 103d B6       		.byte	0xb6
 3751 103e 45050000 		.4byte	0x545
 3752 1042 05       		.uleb128 0x5
 3753 1043 03       		.byte	0x3
 3754 1044 00000000 		.4byte	side
 3755 1048 2A       		.uleb128 0x2a
 3756 1049 3D010000 		.4byte	.LASF171
 3757 104d 06       		.byte	0x6
 3758 104e 75       		.byte	0x75
 3759 104f 2B       		.uleb128 0x2b
 3760 1050 D5060000 		.4byte	.LASF167
 3761 1054 06       		.byte	0x6
 3762 1055 8A       		.byte	0x8a
 3763 1056 60100000 		.4byte	0x1060
 3764 105a 2C       		.uleb128 0x2c
 3765 105b 97000000 		.4byte	0x97
ARM GAS  C:\Users\RECEPC~1\AppData\Local\Temp\ccdPVhXF.s 			page 79


 3766 105f 00       		.byte	0
 3767 1060 2B       		.uleb128 0x2b
 3768 1061 55030000 		.4byte	.LASF168
 3769 1065 08       		.byte	0x8
 3770 1066 77       		.byte	0x77
 3771 1067 71100000 		.4byte	0x1071
 3772 106b 2C       		.uleb128 0x2c
 3773 106c AF000000 		.4byte	0xaf
 3774 1070 00       		.byte	0
 3775 1071 2D       		.uleb128 0x2d
 3776 1072 05020000 		.4byte	.LASF169
 3777 1076 06       		.byte	0x6
 3778 1077 73       		.byte	0x73
 3779 1078 A3000000 		.4byte	0xa3
 3780 107c 2D       		.uleb128 0x2d
 3781 107d 80030000 		.4byte	.LASF170
 3782 1081 06       		.byte	0x6
 3783 1082 6F       		.byte	0x6f
 3784 1083 97000000 		.4byte	0x97
 3785 1087 2A       		.uleb128 0x2a
 3786 1088 05000000 		.4byte	.LASF172
 3787 108c 08       		.byte	0x8
 3788 108d 74       		.byte	0x74
 3789 108e 00       		.byte	0
 3790              		.section	.debug_abbrev,"",%progbits
 3791              	.Ldebug_abbrev0:
 3792 0000 01       		.uleb128 0x1
 3793 0001 11       		.uleb128 0x11
 3794 0002 01       		.byte	0x1
 3795 0003 25       		.uleb128 0x25
 3796 0004 0E       		.uleb128 0xe
 3797 0005 13       		.uleb128 0x13
 3798 0006 0B       		.uleb128 0xb
 3799 0007 03       		.uleb128 0x3
 3800 0008 0E       		.uleb128 0xe
 3801 0009 1B       		.uleb128 0x1b
 3802 000a 0E       		.uleb128 0xe
 3803 000b 55       		.uleb128 0x55
 3804 000c 17       		.uleb128 0x17
 3805 000d 11       		.uleb128 0x11
 3806 000e 01       		.uleb128 0x1
 3807 000f 10       		.uleb128 0x10
 3808 0010 17       		.uleb128 0x17
 3809 0011 00       		.byte	0
 3810 0012 00       		.byte	0
 3811 0013 02       		.uleb128 0x2
 3812 0014 24       		.uleb128 0x24
 3813 0015 00       		.byte	0
 3814 0016 0B       		.uleb128 0xb
 3815 0017 0B       		.uleb128 0xb
 3816 0018 3E       		.uleb128 0x3e
 3817 0019 0B       		.uleb128 0xb
 3818 001a 03       		.uleb128 0x3
 3819 001b 0E       		.uleb128 0xe
 3820 001c 00       		.byte	0
 3821 001d 00       		.byte	0
 3822 001e 03       		.uleb128 0x3
ARM GAS  C:\Users\RECEPC~1\AppData\Local\Temp\ccdPVhXF.s 			page 80


 3823 001f 16       		.uleb128 0x16
 3824 0020 00       		.byte	0
 3825 0021 03       		.uleb128 0x3
 3826 0022 0E       		.uleb128 0xe
 3827 0023 3A       		.uleb128 0x3a
 3828 0024 0B       		.uleb128 0xb
 3829 0025 3B       		.uleb128 0x3b
 3830 0026 0B       		.uleb128 0xb
 3831 0027 49       		.uleb128 0x49
 3832 0028 13       		.uleb128 0x13
 3833 0029 00       		.byte	0
 3834 002a 00       		.byte	0
 3835 002b 04       		.uleb128 0x4
 3836 002c 24       		.uleb128 0x24
 3837 002d 00       		.byte	0
 3838 002e 0B       		.uleb128 0xb
 3839 002f 0B       		.uleb128 0xb
 3840 0030 3E       		.uleb128 0x3e
 3841 0031 0B       		.uleb128 0xb
 3842 0032 03       		.uleb128 0x3
 3843 0033 08       		.uleb128 0x8
 3844 0034 00       		.byte	0
 3845 0035 00       		.byte	0
 3846 0036 05       		.uleb128 0x5
 3847 0037 16       		.uleb128 0x16
 3848 0038 00       		.byte	0
 3849 0039 03       		.uleb128 0x3
 3850 003a 0E       		.uleb128 0xe
 3851 003b 3A       		.uleb128 0x3a
 3852 003c 0B       		.uleb128 0xb
 3853 003d 3B       		.uleb128 0x3b
 3854 003e 05       		.uleb128 0x5
 3855 003f 49       		.uleb128 0x49
 3856 0040 13       		.uleb128 0x13
 3857 0041 00       		.byte	0
 3858 0042 00       		.byte	0
 3859 0043 06       		.uleb128 0x6
 3860 0044 35       		.uleb128 0x35
 3861 0045 00       		.byte	0
 3862 0046 49       		.uleb128 0x49
 3863 0047 13       		.uleb128 0x13
 3864 0048 00       		.byte	0
 3865 0049 00       		.byte	0
 3866 004a 07       		.uleb128 0x7
 3867 004b 01       		.uleb128 0x1
 3868 004c 01       		.byte	0x1
 3869 004d 49       		.uleb128 0x49
 3870 004e 13       		.uleb128 0x13
 3871 004f 01       		.uleb128 0x1
 3872 0050 13       		.uleb128 0x13
 3873 0051 00       		.byte	0
 3874 0052 00       		.byte	0
 3875 0053 08       		.uleb128 0x8
 3876 0054 21       		.uleb128 0x21
 3877 0055 00       		.byte	0
 3878 0056 49       		.uleb128 0x49
 3879 0057 13       		.uleb128 0x13
ARM GAS  C:\Users\RECEPC~1\AppData\Local\Temp\ccdPVhXF.s 			page 81


 3880 0058 2F       		.uleb128 0x2f
 3881 0059 0B       		.uleb128 0xb
 3882 005a 00       		.byte	0
 3883 005b 00       		.byte	0
 3884 005c 09       		.uleb128 0x9
 3885 005d 13       		.uleb128 0x13
 3886 005e 01       		.byte	0x1
 3887 005f 03       		.uleb128 0x3
 3888 0060 0E       		.uleb128 0xe
 3889 0061 0B       		.uleb128 0xb
 3890 0062 05       		.uleb128 0x5
 3891 0063 3A       		.uleb128 0x3a
 3892 0064 0B       		.uleb128 0xb
 3893 0065 3B       		.uleb128 0x3b
 3894 0066 0B       		.uleb128 0xb
 3895 0067 01       		.uleb128 0x1
 3896 0068 13       		.uleb128 0x13
 3897 0069 00       		.byte	0
 3898 006a 00       		.byte	0
 3899 006b 0A       		.uleb128 0xa
 3900 006c 0D       		.uleb128 0xd
 3901 006d 00       		.byte	0
 3902 006e 03       		.uleb128 0x3
 3903 006f 0E       		.uleb128 0xe
 3904 0070 3A       		.uleb128 0x3a
 3905 0071 0B       		.uleb128 0xb
 3906 0072 3B       		.uleb128 0x3b
 3907 0073 0B       		.uleb128 0xb
 3908 0074 49       		.uleb128 0x49
 3909 0075 13       		.uleb128 0x13
 3910 0076 38       		.uleb128 0x38
 3911 0077 0B       		.uleb128 0xb
 3912 0078 00       		.byte	0
 3913 0079 00       		.byte	0
 3914 007a 0B       		.uleb128 0xb
 3915 007b 0D       		.uleb128 0xd
 3916 007c 00       		.byte	0
 3917 007d 03       		.uleb128 0x3
 3918 007e 0E       		.uleb128 0xe
 3919 007f 3A       		.uleb128 0x3a
 3920 0080 0B       		.uleb128 0xb
 3921 0081 3B       		.uleb128 0x3b
 3922 0082 0B       		.uleb128 0xb
 3923 0083 49       		.uleb128 0x49
 3924 0084 13       		.uleb128 0x13
 3925 0085 38       		.uleb128 0x38
 3926 0086 05       		.uleb128 0x5
 3927 0087 00       		.byte	0
 3928 0088 00       		.byte	0
 3929 0089 0C       		.uleb128 0xc
 3930 008a 0D       		.uleb128 0xd
 3931 008b 00       		.byte	0
 3932 008c 03       		.uleb128 0x3
 3933 008d 08       		.uleb128 0x8
 3934 008e 3A       		.uleb128 0x3a
 3935 008f 0B       		.uleb128 0xb
 3936 0090 3B       		.uleb128 0x3b
ARM GAS  C:\Users\RECEPC~1\AppData\Local\Temp\ccdPVhXF.s 			page 82


 3937 0091 0B       		.uleb128 0xb
 3938 0092 49       		.uleb128 0x49
 3939 0093 13       		.uleb128 0x13
 3940 0094 38       		.uleb128 0x38
 3941 0095 0B       		.uleb128 0xb
 3942 0096 00       		.byte	0
 3943 0097 00       		.byte	0
 3944 0098 0D       		.uleb128 0xd
 3945 0099 0D       		.uleb128 0xd
 3946 009a 00       		.byte	0
 3947 009b 03       		.uleb128 0x3
 3948 009c 08       		.uleb128 0x8
 3949 009d 3A       		.uleb128 0x3a
 3950 009e 0B       		.uleb128 0xb
 3951 009f 3B       		.uleb128 0x3b
 3952 00a0 0B       		.uleb128 0xb
 3953 00a1 49       		.uleb128 0x49
 3954 00a2 13       		.uleb128 0x13
 3955 00a3 38       		.uleb128 0x38
 3956 00a4 05       		.uleb128 0x5
 3957 00a5 00       		.byte	0
 3958 00a6 00       		.byte	0
 3959 00a7 0E       		.uleb128 0xe
 3960 00a8 04       		.uleb128 0x4
 3961 00a9 01       		.byte	0x1
 3962 00aa 03       		.uleb128 0x3
 3963 00ab 0E       		.uleb128 0xe
 3964 00ac 0B       		.uleb128 0xb
 3965 00ad 0B       		.uleb128 0xb
 3966 00ae 3A       		.uleb128 0x3a
 3967 00af 0B       		.uleb128 0xb
 3968 00b0 3B       		.uleb128 0x3b
 3969 00b1 0B       		.uleb128 0xb
 3970 00b2 01       		.uleb128 0x1
 3971 00b3 13       		.uleb128 0x13
 3972 00b4 00       		.byte	0
 3973 00b5 00       		.byte	0
 3974 00b6 0F       		.uleb128 0xf
 3975 00b7 28       		.uleb128 0x28
 3976 00b8 00       		.byte	0
 3977 00b9 03       		.uleb128 0x3
 3978 00ba 08       		.uleb128 0x8
 3979 00bb 1C       		.uleb128 0x1c
 3980 00bc 0D       		.uleb128 0xd
 3981 00bd 00       		.byte	0
 3982 00be 00       		.byte	0
 3983 00bf 10       		.uleb128 0x10
 3984 00c0 28       		.uleb128 0x28
 3985 00c1 00       		.byte	0
 3986 00c2 03       		.uleb128 0x3
 3987 00c3 0E       		.uleb128 0xe
 3988 00c4 1C       		.uleb128 0x1c
 3989 00c5 0D       		.uleb128 0xd
 3990 00c6 00       		.byte	0
 3991 00c7 00       		.byte	0
 3992 00c8 11       		.uleb128 0x11
 3993 00c9 04       		.uleb128 0x4
ARM GAS  C:\Users\RECEPC~1\AppData\Local\Temp\ccdPVhXF.s 			page 83


 3994 00ca 01       		.byte	0x1
 3995 00cb 03       		.uleb128 0x3
 3996 00cc 0E       		.uleb128 0xe
 3997 00cd 0B       		.uleb128 0xb
 3998 00ce 0B       		.uleb128 0xb
 3999 00cf 3A       		.uleb128 0x3a
 4000 00d0 0B       		.uleb128 0xb
 4001 00d1 3B       		.uleb128 0x3b
 4002 00d2 05       		.uleb128 0x5
 4003 00d3 01       		.uleb128 0x1
 4004 00d4 13       		.uleb128 0x13
 4005 00d5 00       		.byte	0
 4006 00d6 00       		.byte	0
 4007 00d7 12       		.uleb128 0x12
 4008 00d8 2E       		.uleb128 0x2e
 4009 00d9 01       		.byte	0x1
 4010 00da 3F       		.uleb128 0x3f
 4011 00db 19       		.uleb128 0x19
 4012 00dc 03       		.uleb128 0x3
 4013 00dd 0E       		.uleb128 0xe
 4014 00de 3A       		.uleb128 0x3a
 4015 00df 0B       		.uleb128 0xb
 4016 00e0 3B       		.uleb128 0x3b
 4017 00e1 0B       		.uleb128 0xb
 4018 00e2 27       		.uleb128 0x27
 4019 00e3 19       		.uleb128 0x19
 4020 00e4 49       		.uleb128 0x49
 4021 00e5 13       		.uleb128 0x13
 4022 00e6 11       		.uleb128 0x11
 4023 00e7 01       		.uleb128 0x1
 4024 00e8 12       		.uleb128 0x12
 4025 00e9 06       		.uleb128 0x6
 4026 00ea 40       		.uleb128 0x40
 4027 00eb 18       		.uleb128 0x18
 4028 00ec 9742     		.uleb128 0x2117
 4029 00ee 19       		.uleb128 0x19
 4030 00ef 01       		.uleb128 0x1
 4031 00f0 13       		.uleb128 0x13
 4032 00f1 00       		.byte	0
 4033 00f2 00       		.byte	0
 4034 00f3 13       		.uleb128 0x13
 4035 00f4 05       		.uleb128 0x5
 4036 00f5 00       		.byte	0
 4037 00f6 03       		.uleb128 0x3
 4038 00f7 08       		.uleb128 0x8
 4039 00f8 3A       		.uleb128 0x3a
 4040 00f9 0B       		.uleb128 0xb
 4041 00fa 3B       		.uleb128 0x3b
 4042 00fb 0B       		.uleb128 0xb
 4043 00fc 49       		.uleb128 0x49
 4044 00fd 13       		.uleb128 0x13
 4045 00fe 02       		.uleb128 0x2
 4046 00ff 17       		.uleb128 0x17
 4047 0100 00       		.byte	0
 4048 0101 00       		.byte	0
 4049 0102 14       		.uleb128 0x14
 4050 0103 34       		.uleb128 0x34
ARM GAS  C:\Users\RECEPC~1\AppData\Local\Temp\ccdPVhXF.s 			page 84


 4051 0104 00       		.byte	0
 4052 0105 03       		.uleb128 0x3
 4053 0106 0E       		.uleb128 0xe
 4054 0107 3A       		.uleb128 0x3a
 4055 0108 0B       		.uleb128 0xb
 4056 0109 3B       		.uleb128 0x3b
 4057 010a 0B       		.uleb128 0xb
 4058 010b 49       		.uleb128 0x49
 4059 010c 13       		.uleb128 0x13
 4060 010d 02       		.uleb128 0x2
 4061 010e 17       		.uleb128 0x17
 4062 010f 00       		.byte	0
 4063 0110 00       		.byte	0
 4064 0111 15       		.uleb128 0x15
 4065 0112 898201   		.uleb128 0x4109
 4066 0115 00       		.byte	0
 4067 0116 11       		.uleb128 0x11
 4068 0117 01       		.uleb128 0x1
 4069 0118 31       		.uleb128 0x31
 4070 0119 13       		.uleb128 0x13
 4071 011a 00       		.byte	0
 4072 011b 00       		.byte	0
 4073 011c 16       		.uleb128 0x16
 4074 011d 898201   		.uleb128 0x4109
 4075 0120 01       		.byte	0x1
 4076 0121 11       		.uleb128 0x11
 4077 0122 01       		.uleb128 0x1
 4078 0123 31       		.uleb128 0x31
 4079 0124 13       		.uleb128 0x13
 4080 0125 01       		.uleb128 0x1
 4081 0126 13       		.uleb128 0x13
 4082 0127 00       		.byte	0
 4083 0128 00       		.byte	0
 4084 0129 17       		.uleb128 0x17
 4085 012a 8A8201   		.uleb128 0x410a
 4086 012d 00       		.byte	0
 4087 012e 02       		.uleb128 0x2
 4088 012f 18       		.uleb128 0x18
 4089 0130 9142     		.uleb128 0x2111
 4090 0132 18       		.uleb128 0x18
 4091 0133 00       		.byte	0
 4092 0134 00       		.byte	0
 4093 0135 18       		.uleb128 0x18
 4094 0136 34       		.uleb128 0x34
 4095 0137 00       		.byte	0
 4096 0138 03       		.uleb128 0x3
 4097 0139 08       		.uleb128 0x8
 4098 013a 3A       		.uleb128 0x3a
 4099 013b 0B       		.uleb128 0xb
 4100 013c 3B       		.uleb128 0x3b
 4101 013d 0B       		.uleb128 0xb
 4102 013e 49       		.uleb128 0x49
 4103 013f 13       		.uleb128 0x13
 4104 0140 02       		.uleb128 0x2
 4105 0141 17       		.uleb128 0x17
 4106 0142 00       		.byte	0
 4107 0143 00       		.byte	0
ARM GAS  C:\Users\RECEPC~1\AppData\Local\Temp\ccdPVhXF.s 			page 85


 4108 0144 19       		.uleb128 0x19
 4109 0145 2E       		.uleb128 0x2e
 4110 0146 01       		.byte	0x1
 4111 0147 3F       		.uleb128 0x3f
 4112 0148 19       		.uleb128 0x19
 4113 0149 03       		.uleb128 0x3
 4114 014a 0E       		.uleb128 0xe
 4115 014b 3A       		.uleb128 0x3a
 4116 014c 0B       		.uleb128 0xb
 4117 014d 3B       		.uleb128 0x3b
 4118 014e 05       		.uleb128 0x5
 4119 014f 27       		.uleb128 0x27
 4120 0150 19       		.uleb128 0x19
 4121 0151 49       		.uleb128 0x49
 4122 0152 13       		.uleb128 0x13
 4123 0153 11       		.uleb128 0x11
 4124 0154 01       		.uleb128 0x1
 4125 0155 12       		.uleb128 0x12
 4126 0156 06       		.uleb128 0x6
 4127 0157 40       		.uleb128 0x40
 4128 0158 18       		.uleb128 0x18
 4129 0159 9742     		.uleb128 0x2117
 4130 015b 19       		.uleb128 0x19
 4131 015c 01       		.uleb128 0x1
 4132 015d 13       		.uleb128 0x13
 4133 015e 00       		.byte	0
 4134 015f 00       		.byte	0
 4135 0160 1A       		.uleb128 0x1a
 4136 0161 05       		.uleb128 0x5
 4137 0162 00       		.byte	0
 4138 0163 03       		.uleb128 0x3
 4139 0164 08       		.uleb128 0x8
 4140 0165 3A       		.uleb128 0x3a
 4141 0166 0B       		.uleb128 0xb
 4142 0167 3B       		.uleb128 0x3b
 4143 0168 05       		.uleb128 0x5
 4144 0169 49       		.uleb128 0x49
 4145 016a 13       		.uleb128 0x13
 4146 016b 02       		.uleb128 0x2
 4147 016c 17       		.uleb128 0x17
 4148 016d 00       		.byte	0
 4149 016e 00       		.byte	0
 4150 016f 1B       		.uleb128 0x1b
 4151 0170 34       		.uleb128 0x34
 4152 0171 00       		.byte	0
 4153 0172 03       		.uleb128 0x3
 4154 0173 08       		.uleb128 0x8
 4155 0174 3A       		.uleb128 0x3a
 4156 0175 0B       		.uleb128 0xb
 4157 0176 3B       		.uleb128 0x3b
 4158 0177 05       		.uleb128 0x5
 4159 0178 49       		.uleb128 0x49
 4160 0179 13       		.uleb128 0x13
 4161 017a 02       		.uleb128 0x2
 4162 017b 17       		.uleb128 0x17
 4163 017c 00       		.byte	0
 4164 017d 00       		.byte	0
ARM GAS  C:\Users\RECEPC~1\AppData\Local\Temp\ccdPVhXF.s 			page 86


 4165 017e 1C       		.uleb128 0x1c
 4166 017f 2E       		.uleb128 0x2e
 4167 0180 01       		.byte	0x1
 4168 0181 3F       		.uleb128 0x3f
 4169 0182 19       		.uleb128 0x19
 4170 0183 03       		.uleb128 0x3
 4171 0184 0E       		.uleb128 0xe
 4172 0185 3A       		.uleb128 0x3a
 4173 0186 0B       		.uleb128 0xb
 4174 0187 3B       		.uleb128 0x3b
 4175 0188 05       		.uleb128 0x5
 4176 0189 49       		.uleb128 0x49
 4177 018a 13       		.uleb128 0x13
 4178 018b 11       		.uleb128 0x11
 4179 018c 01       		.uleb128 0x1
 4180 018d 12       		.uleb128 0x12
 4181 018e 06       		.uleb128 0x6
 4182 018f 40       		.uleb128 0x40
 4183 0190 18       		.uleb128 0x18
 4184 0191 9742     		.uleb128 0x2117
 4185 0193 19       		.uleb128 0x19
 4186 0194 01       		.uleb128 0x1
 4187 0195 13       		.uleb128 0x13
 4188 0196 00       		.byte	0
 4189 0197 00       		.byte	0
 4190 0198 1D       		.uleb128 0x1d
 4191 0199 05       		.uleb128 0x5
 4192 019a 00       		.byte	0
 4193 019b 03       		.uleb128 0x3
 4194 019c 0E       		.uleb128 0xe
 4195 019d 3A       		.uleb128 0x3a
 4196 019e 0B       		.uleb128 0xb
 4197 019f 3B       		.uleb128 0x3b
 4198 01a0 05       		.uleb128 0x5
 4199 01a1 49       		.uleb128 0x49
 4200 01a2 13       		.uleb128 0x13
 4201 01a3 02       		.uleb128 0x2
 4202 01a4 17       		.uleb128 0x17
 4203 01a5 00       		.byte	0
 4204 01a6 00       		.byte	0
 4205 01a7 1E       		.uleb128 0x1e
 4206 01a8 34       		.uleb128 0x34
 4207 01a9 00       		.byte	0
 4208 01aa 03       		.uleb128 0x3
 4209 01ab 0E       		.uleb128 0xe
 4210 01ac 3A       		.uleb128 0x3a
 4211 01ad 0B       		.uleb128 0xb
 4212 01ae 3B       		.uleb128 0x3b
 4213 01af 05       		.uleb128 0x5
 4214 01b0 49       		.uleb128 0x49
 4215 01b1 13       		.uleb128 0x13
 4216 01b2 02       		.uleb128 0x2
 4217 01b3 17       		.uleb128 0x17
 4218 01b4 00       		.byte	0
 4219 01b5 00       		.byte	0
 4220 01b6 1F       		.uleb128 0x1f
 4221 01b7 0F       		.uleb128 0xf
ARM GAS  C:\Users\RECEPC~1\AppData\Local\Temp\ccdPVhXF.s 			page 87


 4222 01b8 00       		.byte	0
 4223 01b9 0B       		.uleb128 0xb
 4224 01ba 0B       		.uleb128 0xb
 4225 01bb 49       		.uleb128 0x49
 4226 01bc 13       		.uleb128 0x13
 4227 01bd 00       		.byte	0
 4228 01be 00       		.byte	0
 4229 01bf 20       		.uleb128 0x20
 4230 01c0 05       		.uleb128 0x5
 4231 01c1 00       		.byte	0
 4232 01c2 03       		.uleb128 0x3
 4233 01c3 0E       		.uleb128 0xe
 4234 01c4 3A       		.uleb128 0x3a
 4235 01c5 0B       		.uleb128 0xb
 4236 01c6 3B       		.uleb128 0x3b
 4237 01c7 0B       		.uleb128 0xb
 4238 01c8 49       		.uleb128 0x49
 4239 01c9 13       		.uleb128 0x13
 4240 01ca 02       		.uleb128 0x2
 4241 01cb 17       		.uleb128 0x17
 4242 01cc 00       		.byte	0
 4243 01cd 00       		.byte	0
 4244 01ce 21       		.uleb128 0x21
 4245 01cf 34       		.uleb128 0x34
 4246 01d0 00       		.byte	0
 4247 01d1 03       		.uleb128 0x3
 4248 01d2 0E       		.uleb128 0xe
 4249 01d3 3A       		.uleb128 0x3a
 4250 01d4 0B       		.uleb128 0xb
 4251 01d5 3B       		.uleb128 0x3b
 4252 01d6 0B       		.uleb128 0xb
 4253 01d7 49       		.uleb128 0x49
 4254 01d8 13       		.uleb128 0x13
 4255 01d9 02       		.uleb128 0x2
 4256 01da 18       		.uleb128 0x18
 4257 01db 00       		.byte	0
 4258 01dc 00       		.byte	0
 4259 01dd 22       		.uleb128 0x22
 4260 01de 34       		.uleb128 0x34
 4261 01df 00       		.byte	0
 4262 01e0 03       		.uleb128 0x3
 4263 01e1 0E       		.uleb128 0xe
 4264 01e2 3A       		.uleb128 0x3a
 4265 01e3 0B       		.uleb128 0xb
 4266 01e4 3B       		.uleb128 0x3b
 4267 01e5 0B       		.uleb128 0xb
 4268 01e6 49       		.uleb128 0x49
 4269 01e7 13       		.uleb128 0x13
 4270 01e8 00       		.byte	0
 4271 01e9 00       		.byte	0
 4272 01ea 23       		.uleb128 0x23
 4273 01eb 898201   		.uleb128 0x4109
 4274 01ee 01       		.byte	0x1
 4275 01ef 11       		.uleb128 0x11
 4276 01f0 01       		.uleb128 0x1
 4277 01f1 31       		.uleb128 0x31
 4278 01f2 13       		.uleb128 0x13
ARM GAS  C:\Users\RECEPC~1\AppData\Local\Temp\ccdPVhXF.s 			page 88


 4279 01f3 00       		.byte	0
 4280 01f4 00       		.byte	0
 4281 01f5 24       		.uleb128 0x24
 4282 01f6 34       		.uleb128 0x34
 4283 01f7 00       		.byte	0
 4284 01f8 34       		.uleb128 0x34
 4285 01f9 19       		.uleb128 0x19
 4286 01fa 49       		.uleb128 0x49
 4287 01fb 13       		.uleb128 0x13
 4288 01fc 02       		.uleb128 0x2
 4289 01fd 17       		.uleb128 0x17
 4290 01fe 00       		.byte	0
 4291 01ff 00       		.byte	0
 4292 0200 25       		.uleb128 0x25
 4293 0201 21       		.uleb128 0x21
 4294 0202 00       		.byte	0
 4295 0203 49       		.uleb128 0x49
 4296 0204 13       		.uleb128 0x13
 4297 0205 2F       		.uleb128 0x2f
 4298 0206 13       		.uleb128 0x13
 4299 0207 00       		.byte	0
 4300 0208 00       		.byte	0
 4301 0209 26       		.uleb128 0x26
 4302 020a 26       		.uleb128 0x26
 4303 020b 00       		.byte	0
 4304 020c 49       		.uleb128 0x49
 4305 020d 13       		.uleb128 0x13
 4306 020e 00       		.byte	0
 4307 020f 00       		.byte	0
 4308 0210 27       		.uleb128 0x27
 4309 0211 34       		.uleb128 0x34
 4310 0212 00       		.byte	0
 4311 0213 03       		.uleb128 0x3
 4312 0214 0E       		.uleb128 0xe
 4313 0215 3A       		.uleb128 0x3a
 4314 0216 0B       		.uleb128 0xb
 4315 0217 3B       		.uleb128 0x3b
 4316 0218 05       		.uleb128 0x5
 4317 0219 49       		.uleb128 0x49
 4318 021a 13       		.uleb128 0x13
 4319 021b 02       		.uleb128 0x2
 4320 021c 18       		.uleb128 0x18
 4321 021d 00       		.byte	0
 4322 021e 00       		.byte	0
 4323 021f 28       		.uleb128 0x28
 4324 0220 34       		.uleb128 0x34
 4325 0221 00       		.byte	0
 4326 0222 03       		.uleb128 0x3
 4327 0223 0E       		.uleb128 0xe
 4328 0224 3A       		.uleb128 0x3a
 4329 0225 0B       		.uleb128 0xb
 4330 0226 3B       		.uleb128 0x3b
 4331 0227 05       		.uleb128 0x5
 4332 0228 49       		.uleb128 0x49
 4333 0229 13       		.uleb128 0x13
 4334 022a 3F       		.uleb128 0x3f
 4335 022b 19       		.uleb128 0x19
ARM GAS  C:\Users\RECEPC~1\AppData\Local\Temp\ccdPVhXF.s 			page 89


 4336 022c 3C       		.uleb128 0x3c
 4337 022d 19       		.uleb128 0x19
 4338 022e 00       		.byte	0
 4339 022f 00       		.byte	0
 4340 0230 29       		.uleb128 0x29
 4341 0231 34       		.uleb128 0x34
 4342 0232 00       		.byte	0
 4343 0233 03       		.uleb128 0x3
 4344 0234 0E       		.uleb128 0xe
 4345 0235 3A       		.uleb128 0x3a
 4346 0236 0B       		.uleb128 0xb
 4347 0237 3B       		.uleb128 0x3b
 4348 0238 0B       		.uleb128 0xb
 4349 0239 49       		.uleb128 0x49
 4350 023a 13       		.uleb128 0x13
 4351 023b 3F       		.uleb128 0x3f
 4352 023c 19       		.uleb128 0x19
 4353 023d 02       		.uleb128 0x2
 4354 023e 18       		.uleb128 0x18
 4355 023f 00       		.byte	0
 4356 0240 00       		.byte	0
 4357 0241 2A       		.uleb128 0x2a
 4358 0242 2E       		.uleb128 0x2e
 4359 0243 00       		.byte	0
 4360 0244 3F       		.uleb128 0x3f
 4361 0245 19       		.uleb128 0x19
 4362 0246 03       		.uleb128 0x3
 4363 0247 0E       		.uleb128 0xe
 4364 0248 3A       		.uleb128 0x3a
 4365 0249 0B       		.uleb128 0xb
 4366 024a 3B       		.uleb128 0x3b
 4367 024b 0B       		.uleb128 0xb
 4368 024c 27       		.uleb128 0x27
 4369 024d 19       		.uleb128 0x19
 4370 024e 3C       		.uleb128 0x3c
 4371 024f 19       		.uleb128 0x19
 4372 0250 00       		.byte	0
 4373 0251 00       		.byte	0
 4374 0252 2B       		.uleb128 0x2b
 4375 0253 2E       		.uleb128 0x2e
 4376 0254 01       		.byte	0x1
 4377 0255 3F       		.uleb128 0x3f
 4378 0256 19       		.uleb128 0x19
 4379 0257 03       		.uleb128 0x3
 4380 0258 0E       		.uleb128 0xe
 4381 0259 3A       		.uleb128 0x3a
 4382 025a 0B       		.uleb128 0xb
 4383 025b 3B       		.uleb128 0x3b
 4384 025c 0B       		.uleb128 0xb
 4385 025d 27       		.uleb128 0x27
 4386 025e 19       		.uleb128 0x19
 4387 025f 3C       		.uleb128 0x3c
 4388 0260 19       		.uleb128 0x19
 4389 0261 01       		.uleb128 0x1
 4390 0262 13       		.uleb128 0x13
 4391 0263 00       		.byte	0
 4392 0264 00       		.byte	0
ARM GAS  C:\Users\RECEPC~1\AppData\Local\Temp\ccdPVhXF.s 			page 90


 4393 0265 2C       		.uleb128 0x2c
 4394 0266 05       		.uleb128 0x5
 4395 0267 00       		.byte	0
 4396 0268 49       		.uleb128 0x49
 4397 0269 13       		.uleb128 0x13
 4398 026a 00       		.byte	0
 4399 026b 00       		.byte	0
 4400 026c 2D       		.uleb128 0x2d
 4401 026d 2E       		.uleb128 0x2e
 4402 026e 00       		.byte	0
 4403 026f 3F       		.uleb128 0x3f
 4404 0270 19       		.uleb128 0x19
 4405 0271 03       		.uleb128 0x3
 4406 0272 0E       		.uleb128 0xe
 4407 0273 3A       		.uleb128 0x3a
 4408 0274 0B       		.uleb128 0xb
 4409 0275 3B       		.uleb128 0x3b
 4410 0276 0B       		.uleb128 0xb
 4411 0277 27       		.uleb128 0x27
 4412 0278 19       		.uleb128 0x19
 4413 0279 49       		.uleb128 0x49
 4414 027a 13       		.uleb128 0x13
 4415 027b 3C       		.uleb128 0x3c
 4416 027c 19       		.uleb128 0x19
 4417 027d 00       		.byte	0
 4418 027e 00       		.byte	0
 4419 027f 00       		.byte	0
 4420              		.section	.debug_loc,"",%progbits
 4421              	.Ldebug_loc0:
 4422              	.LLST0:
 4423 0000 00000000 		.4byte	.LVL0
 4424 0004 07000000 		.4byte	.LVL1-1
 4425 0008 0100     		.2byte	0x1
 4426 000a 50       		.byte	0x50
 4427 000b 07000000 		.4byte	.LVL1-1
 4428 000f 2E000000 		.4byte	.LFE63
 4429 0013 0400     		.2byte	0x4
 4430 0015 F3       		.byte	0xf3
 4431 0016 01       		.uleb128 0x1
 4432 0017 50       		.byte	0x50
 4433 0018 9F       		.byte	0x9f
 4434 0019 00000000 		.4byte	0
 4435 001d 00000000 		.4byte	0
 4436              	.LLST1:
 4437 0021 22000000 		.4byte	.LVL6
 4438 0025 2A000000 		.4byte	.LVL8
 4439 0029 0100     		.2byte	0x1
 4440 002b 54       		.byte	0x54
 4441 002c 00000000 		.4byte	0
 4442 0030 00000000 		.4byte	0
 4443              	.LLST2:
 4444 0034 14000000 		.4byte	.LVL9
 4445 0038 18000000 		.4byte	.LVL10
 4446 003c 0200     		.2byte	0x2
 4447 003e 31       		.byte	0x31
 4448 003f 9F       		.byte	0x9f
 4449 0040 18000000 		.4byte	.LVL10
ARM GAS  C:\Users\RECEPC~1\AppData\Local\Temp\ccdPVhXF.s 			page 91


 4450 0044 C0000000 		.4byte	.LVL21
 4451 0048 0100     		.2byte	0x1
 4452 004a 54       		.byte	0x54
 4453 004b C2000000 		.4byte	.LVL22
 4454 004f 1C010000 		.4byte	.LVL27
 4455 0053 0100     		.2byte	0x1
 4456 0055 54       		.byte	0x54
 4457 0056 00000000 		.4byte	0
 4458 005a 00000000 		.4byte	0
 4459              	.LLST3:
 4460 005e 00000000 		.4byte	.LVL28
 4461 0062 07000000 		.4byte	.LVL29-1
 4462 0066 0100     		.2byte	0x1
 4463 0068 50       		.byte	0x50
 4464 0069 07000000 		.4byte	.LVL29-1
 4465 006d C8030000 		.4byte	.LFE68
 4466 0071 0400     		.2byte	0x4
 4467 0073 F3       		.byte	0xf3
 4468 0074 01       		.uleb128 0x1
 4469 0075 50       		.byte	0x50
 4470 0076 9F       		.byte	0x9f
 4471 0077 00000000 		.4byte	0
 4472 007b 00000000 		.4byte	0
 4473              	.LLST4:
 4474 007f 6E000000 		.4byte	.LVL34
 4475 0083 72000000 		.4byte	.LVL35
 4476 0087 0200     		.2byte	0x2
 4477 0089 31       		.byte	0x31
 4478 008a 9F       		.byte	0x9f
 4479 008b 72000000 		.4byte	.LVL35
 4480 008f 8A000000 		.4byte	.LVL36
 4481 0093 0100     		.2byte	0x1
 4482 0095 53       		.byte	0x53
 4483 0096 8C000000 		.4byte	.LVL37
 4484 009a 94000000 		.4byte	.LVL38
 4485 009e 0100     		.2byte	0x1
 4486 00a0 53       		.byte	0x53
 4487 00a1 B4000000 		.4byte	.LVL39
 4488 00a5 CC000000 		.4byte	.LVL40
 4489 00a9 0100     		.2byte	0x1
 4490 00ab 53       		.byte	0x53
 4491 00ac CE000000 		.4byte	.LVL41
 4492 00b0 D6000000 		.4byte	.LVL42
 4493 00b4 0100     		.2byte	0x1
 4494 00b6 53       		.byte	0x53
 4495 00b7 DA000000 		.4byte	.LVL43
 4496 00bb DE000000 		.4byte	.LVL44
 4497 00bf 0200     		.2byte	0x2
 4498 00c1 31       		.byte	0x31
 4499 00c2 9F       		.byte	0x9f
 4500 00c3 DE000000 		.4byte	.LVL44
 4501 00c7 F6000000 		.4byte	.LVL45
 4502 00cb 0100     		.2byte	0x1
 4503 00cd 53       		.byte	0x53
 4504 00ce F8000000 		.4byte	.LVL46
 4505 00d2 FE000000 		.4byte	.LVL47
 4506 00d6 0100     		.2byte	0x1
ARM GAS  C:\Users\RECEPC~1\AppData\Local\Temp\ccdPVhXF.s 			page 92


 4507 00d8 53       		.byte	0x53
 4508 00d9 06010000 		.4byte	.LVL48
 4509 00dd 12010000 		.4byte	.LVL49
 4510 00e1 0100     		.2byte	0x1
 4511 00e3 53       		.byte	0x53
 4512 00e4 18010000 		.4byte	.LVL50
 4513 00e8 1A010000 		.4byte	.LVL51
 4514 00ec 0100     		.2byte	0x1
 4515 00ee 53       		.byte	0x53
 4516 00ef 1C010000 		.4byte	.LVL52
 4517 00f3 24010000 		.4byte	.LVL53
 4518 00f7 0100     		.2byte	0x1
 4519 00f9 53       		.byte	0x53
 4520 00fa 44010000 		.4byte	.LVL54
 4521 00fe 48010000 		.4byte	.LVL55
 4522 0102 0200     		.2byte	0x2
 4523 0104 31       		.byte	0x31
 4524 0105 9F       		.byte	0x9f
 4525 0106 48010000 		.4byte	.LVL55
 4526 010a 60010000 		.4byte	.LVL56
 4527 010e 0100     		.2byte	0x1
 4528 0110 53       		.byte	0x53
 4529 0111 62010000 		.4byte	.LVL57
 4530 0115 6A010000 		.4byte	.LVL58
 4531 0119 0100     		.2byte	0x1
 4532 011b 53       		.byte	0x53
 4533 011c 8A010000 		.4byte	.LVL59
 4534 0120 A2010000 		.4byte	.LVL60
 4535 0124 0100     		.2byte	0x1
 4536 0126 53       		.byte	0x53
 4537 0127 A4010000 		.4byte	.LVL61
 4538 012b AC010000 		.4byte	.LVL62
 4539 012f 0100     		.2byte	0x1
 4540 0131 53       		.byte	0x53
 4541 0132 B0010000 		.4byte	.LVL63
 4542 0136 B4010000 		.4byte	.LVL64
 4543 013a 0200     		.2byte	0x2
 4544 013c 31       		.byte	0x31
 4545 013d 9F       		.byte	0x9f
 4546 013e B4010000 		.4byte	.LVL64
 4547 0142 CC010000 		.4byte	.LVL65
 4548 0146 0100     		.2byte	0x1
 4549 0148 53       		.byte	0x53
 4550 0149 CE010000 		.4byte	.LVL66
 4551 014d D4010000 		.4byte	.LVL67
 4552 0151 0100     		.2byte	0x1
 4553 0153 53       		.byte	0x53
 4554 0154 DC010000 		.4byte	.LVL68
 4555 0158 E8010000 		.4byte	.LVL69
 4556 015c 0100     		.2byte	0x1
 4557 015e 53       		.byte	0x53
 4558 015f EE010000 		.4byte	.LVL70
 4559 0163 F0010000 		.4byte	.LVL71
 4560 0167 0100     		.2byte	0x1
 4561 0169 53       		.byte	0x53
 4562 016a F2010000 		.4byte	.LVL72
 4563 016e FA010000 		.4byte	.LVL73
ARM GAS  C:\Users\RECEPC~1\AppData\Local\Temp\ccdPVhXF.s 			page 93


 4564 0172 0100     		.2byte	0x1
 4565 0174 53       		.byte	0x53
 4566 0175 5C020000 		.4byte	.LVL75
 4567 0179 60020000 		.4byte	.LVL76
 4568 017d 0200     		.2byte	0x2
 4569 017f 31       		.byte	0x31
 4570 0180 9F       		.byte	0x9f
 4571 0181 60020000 		.4byte	.LVL76
 4572 0185 78020000 		.4byte	.LVL77
 4573 0189 0100     		.2byte	0x1
 4574 018b 53       		.byte	0x53
 4575 018c 7A020000 		.4byte	.LVL78
 4576 0190 82020000 		.4byte	.LVL79
 4577 0194 0100     		.2byte	0x1
 4578 0196 53       		.byte	0x53
 4579 0197 86020000 		.4byte	.LVL80
 4580 019b 8A020000 		.4byte	.LVL81
 4581 019f 0200     		.2byte	0x2
 4582 01a1 31       		.byte	0x31
 4583 01a2 9F       		.byte	0x9f
 4584 01a3 8A020000 		.4byte	.LVL81
 4585 01a7 A2020000 		.4byte	.LVL82
 4586 01ab 0100     		.2byte	0x1
 4587 01ad 53       		.byte	0x53
 4588 01ae A4020000 		.4byte	.LVL83
 4589 01b2 AC020000 		.4byte	.LVL84
 4590 01b6 0100     		.2byte	0x1
 4591 01b8 53       		.byte	0x53
 4592 01b9 B0020000 		.4byte	.LVL85
 4593 01bd B4020000 		.4byte	.LVL86
 4594 01c1 0200     		.2byte	0x2
 4595 01c3 31       		.byte	0x31
 4596 01c4 9F       		.byte	0x9f
 4597 01c5 B4020000 		.4byte	.LVL86
 4598 01c9 CC020000 		.4byte	.LVL87
 4599 01cd 0100     		.2byte	0x1
 4600 01cf 53       		.byte	0x53
 4601 01d0 CE020000 		.4byte	.LVL88
 4602 01d4 D4020000 		.4byte	.LVL89
 4603 01d8 0100     		.2byte	0x1
 4604 01da 53       		.byte	0x53
 4605 01db F4020000 		.4byte	.LVL90
 4606 01df 14030000 		.4byte	.LVL91
 4607 01e3 0200     		.2byte	0x2
 4608 01e5 31       		.byte	0x31
 4609 01e6 9F       		.byte	0x9f
 4610 01e7 14030000 		.4byte	.LVL91
 4611 01eb 2C030000 		.4byte	.LVL92
 4612 01ef 0100     		.2byte	0x1
 4613 01f1 53       		.byte	0x53
 4614 01f2 2E030000 		.4byte	.LVL93
 4615 01f6 36030000 		.4byte	.LVL94
 4616 01fa 0100     		.2byte	0x1
 4617 01fc 53       		.byte	0x53
 4618 01fd 3A030000 		.4byte	.LVL95
 4619 0201 3E030000 		.4byte	.LVL96
 4620 0205 0200     		.2byte	0x2
ARM GAS  C:\Users\RECEPC~1\AppData\Local\Temp\ccdPVhXF.s 			page 94


 4621 0207 31       		.byte	0x31
 4622 0208 9F       		.byte	0x9f
 4623 0209 3E030000 		.4byte	.LVL96
 4624 020d 56030000 		.4byte	.LVL97
 4625 0211 0100     		.2byte	0x1
 4626 0213 53       		.byte	0x53
 4627 0214 58030000 		.4byte	.LVL98
 4628 0218 60030000 		.4byte	.LVL99
 4629 021c 0100     		.2byte	0x1
 4630 021e 53       		.byte	0x53
 4631 021f 64030000 		.4byte	.LVL100
 4632 0223 68030000 		.4byte	.LVL101
 4633 0227 0200     		.2byte	0x2
 4634 0229 31       		.byte	0x31
 4635 022a 9F       		.byte	0x9f
 4636 022b 68030000 		.4byte	.LVL101
 4637 022f 80030000 		.4byte	.LVL102
 4638 0233 0100     		.2byte	0x1
 4639 0235 53       		.byte	0x53
 4640 0236 82030000 		.4byte	.LVL103
 4641 023a 88030000 		.4byte	.LVL104
 4642 023e 0100     		.2byte	0x1
 4643 0240 53       		.byte	0x53
 4644 0241 00000000 		.4byte	0
 4645 0245 00000000 		.4byte	0
 4646              	.LLST5:
 4647 0249 00000000 		.4byte	.LVL105
 4648 024d 0E000000 		.4byte	.LVL106
 4649 0251 0100     		.2byte	0x1
 4650 0253 50       		.byte	0x50
 4651 0254 0E000000 		.4byte	.LVL106
 4652 0258 10000000 		.4byte	.LVL107
 4653 025c 0400     		.2byte	0x4
 4654 025e F3       		.byte	0xf3
 4655 025f 01       		.uleb128 0x1
 4656 0260 50       		.byte	0x50
 4657 0261 9F       		.byte	0x9f
 4658 0262 10000000 		.4byte	.LVL107
 4659 0266 12000000 		.4byte	.LVL108
 4660 026a 0100     		.2byte	0x1
 4661 026c 50       		.byte	0x50
 4662 026d 12000000 		.4byte	.LVL108
 4663 0271 14000000 		.4byte	.LFE69
 4664 0275 0400     		.2byte	0x4
 4665 0277 F3       		.byte	0xf3
 4666 0278 01       		.uleb128 0x1
 4667 0279 50       		.byte	0x50
 4668 027a 9F       		.byte	0x9f
 4669 027b 00000000 		.4byte	0
 4670 027f 00000000 		.4byte	0
 4671              	.LLST6:
 4672 0283 00000000 		.4byte	.LVL105
 4673 0287 12000000 		.4byte	.LVL108
 4674 028b 0200     		.2byte	0x2
 4675 028d 30       		.byte	0x30
 4676 028e 9F       		.byte	0x9f
 4677 028f 12000000 		.4byte	.LVL108
ARM GAS  C:\Users\RECEPC~1\AppData\Local\Temp\ccdPVhXF.s 			page 95


 4678 0293 14000000 		.4byte	.LFE69
 4679 0297 0100     		.2byte	0x1
 4680 0299 50       		.byte	0x50
 4681 029a 00000000 		.4byte	0
 4682 029e 00000000 		.4byte	0
 4683              	.LLST7:
 4684 02a2 00000000 		.4byte	.LVL109
 4685 02a6 0E000000 		.4byte	.LVL112
 4686 02aa 0100     		.2byte	0x1
 4687 02ac 50       		.byte	0x50
 4688 02ad 0E000000 		.4byte	.LVL112
 4689 02b1 1A000000 		.4byte	.LVL113
 4690 02b5 0100     		.2byte	0x1
 4691 02b7 50       		.byte	0x50
 4692 02b8 00000000 		.4byte	0
 4693 02bc 00000000 		.4byte	0
 4694              	.LLST8:
 4695 02c0 00000000 		.4byte	.LVL109
 4696 02c4 04000000 		.4byte	.LVL110
 4697 02c8 0200     		.2byte	0x2
 4698 02ca 30       		.byte	0x30
 4699 02cb 9F       		.byte	0x9f
 4700 02cc 04000000 		.4byte	.LVL110
 4701 02d0 1A000000 		.4byte	.LVL113
 4702 02d4 0100     		.2byte	0x1
 4703 02d6 51       		.byte	0x51
 4704 02d7 1A000000 		.4byte	.LVL113
 4705 02db 1C000000 		.4byte	.LVL114
 4706 02df 0100     		.2byte	0x1
 4707 02e1 50       		.byte	0x50
 4708 02e2 1C000000 		.4byte	.LVL114
 4709 02e6 20000000 		.4byte	.LVL115
 4710 02ea 0400     		.2byte	0x4
 4711 02ec 70       		.byte	0x70
 4712 02ed 00       		.sleb128 0
 4713 02ee 1F       		.byte	0x1f
 4714 02ef 9F       		.byte	0x9f
 4715 02f0 20000000 		.4byte	.LVL115
 4716 02f4 26000000 		.4byte	.LFE70
 4717 02f8 0600     		.2byte	0x6
 4718 02fa 71       		.byte	0x71
 4719 02fb 00       		.sleb128 0
 4720 02fc 72       		.byte	0x72
 4721 02fd 00       		.sleb128 0
 4722 02fe 22       		.byte	0x22
 4723 02ff 9F       		.byte	0x9f
 4724 0300 00000000 		.4byte	0
 4725 0304 00000000 		.4byte	0
 4726              	.LLST9:
 4727 0308 00000000 		.4byte	.LVL116
 4728 030c 1B000000 		.4byte	.LVL119-1
 4729 0310 0100     		.2byte	0x1
 4730 0312 50       		.byte	0x50
 4731 0313 1B000000 		.4byte	.LVL119-1
 4732 0317 B4010000 		.4byte	.LFE65
 4733 031b 0400     		.2byte	0x4
 4734 031d F3       		.byte	0xf3
ARM GAS  C:\Users\RECEPC~1\AppData\Local\Temp\ccdPVhXF.s 			page 96


 4735 031e 01       		.uleb128 0x1
 4736 031f 50       		.byte	0x50
 4737 0320 9F       		.byte	0x9f
 4738 0321 00000000 		.4byte	0
 4739 0325 00000000 		.4byte	0
 4740              	.LLST10:
 4741 0329 00000000 		.4byte	.LVL116
 4742 032d 1B000000 		.4byte	.LVL119-1
 4743 0331 0100     		.2byte	0x1
 4744 0333 51       		.byte	0x51
 4745 0334 1B000000 		.4byte	.LVL119-1
 4746 0338 B4010000 		.4byte	.LFE65
 4747 033c 0400     		.2byte	0x4
 4748 033e F3       		.byte	0xf3
 4749 033f 01       		.uleb128 0x1
 4750 0340 51       		.byte	0x51
 4751 0341 9F       		.byte	0x9f
 4752 0342 00000000 		.4byte	0
 4753 0346 00000000 		.4byte	0
 4754              	.LLST11:
 4755 034a 00000000 		.4byte	.LVL116
 4756 034e 1B000000 		.4byte	.LVL119-1
 4757 0352 0100     		.2byte	0x1
 4758 0354 52       		.byte	0x52
 4759 0355 1B000000 		.4byte	.LVL119-1
 4760 0359 82010000 		.4byte	.LVL178
 4761 035d 0100     		.2byte	0x1
 4762 035f 54       		.byte	0x54
 4763 0360 82010000 		.4byte	.LVL178
 4764 0364 A2010000 		.4byte	.LVL184
 4765 0368 0400     		.2byte	0x4
 4766 036a F3       		.byte	0xf3
 4767 036b 01       		.uleb128 0x1
 4768 036c 52       		.byte	0x52
 4769 036d 9F       		.byte	0x9f
 4770 036e A2010000 		.4byte	.LVL184
 4771 0372 A8010000 		.4byte	.LVL186
 4772 0376 0100     		.2byte	0x1
 4773 0378 54       		.byte	0x54
 4774 0379 A8010000 		.4byte	.LVL186
 4775 037d B4010000 		.4byte	.LFE65
 4776 0381 0400     		.2byte	0x4
 4777 0383 F3       		.byte	0xf3
 4778 0384 01       		.uleb128 0x1
 4779 0385 52       		.byte	0x52
 4780 0386 9F       		.byte	0x9f
 4781 0387 00000000 		.4byte	0
 4782 038b 00000000 		.4byte	0
 4783              	.LLST12:
 4784 038f 00000000 		.4byte	.LVL116
 4785 0393 0C000000 		.4byte	.LVL117
 4786 0397 0100     		.2byte	0x1
 4787 0399 53       		.byte	0x53
 4788 039a 0C000000 		.4byte	.LVL117
 4789 039e B4010000 		.4byte	.LFE65
 4790 03a2 0400     		.2byte	0x4
 4791 03a4 F3       		.byte	0xf3
ARM GAS  C:\Users\RECEPC~1\AppData\Local\Temp\ccdPVhXF.s 			page 97


 4792 03a5 01       		.uleb128 0x1
 4793 03a6 53       		.byte	0x53
 4794 03a7 9F       		.byte	0x9f
 4795 03a8 00000000 		.4byte	0
 4796 03ac 00000000 		.4byte	0
 4797              	.LLST13:
 4798 03b0 1C000000 		.4byte	.LVL119
 4799 03b4 1E000000 		.4byte	.LVL120
 4800 03b8 0100     		.2byte	0x1
 4801 03ba 50       		.byte	0x50
 4802 03bb 00000000 		.4byte	0
 4803 03bf 00000000 		.4byte	0
 4804              	.LLST14:
 4805 03c3 18000000 		.4byte	.LVL118
 4806 03c7 54000000 		.4byte	.LVL129
 4807 03cb 0200     		.2byte	0x2
 4808 03cd 30       		.byte	0x30
 4809 03ce 9F       		.byte	0x9f
 4810 03cf 54000000 		.4byte	.LVL129
 4811 03d3 5A000000 		.4byte	.LVL130
 4812 03d7 0200     		.2byte	0x2
 4813 03d9 31       		.byte	0x31
 4814 03da 9F       		.byte	0x9f
 4815 03db 5A000000 		.4byte	.LVL130
 4816 03df 6E000000 		.4byte	.LVL131
 4817 03e3 0200     		.2byte	0x2
 4818 03e5 32       		.byte	0x32
 4819 03e6 9F       		.byte	0x9f
 4820 03e7 6E000000 		.4byte	.LVL131
 4821 03eb 74000000 		.4byte	.LVL132
 4822 03ef 0200     		.2byte	0x2
 4823 03f1 33       		.byte	0x33
 4824 03f2 9F       		.byte	0x9f
 4825 03f3 74000000 		.4byte	.LVL132
 4826 03f7 82000000 		.4byte	.LVL133
 4827 03fb 0200     		.2byte	0x2
 4828 03fd 34       		.byte	0x34
 4829 03fe 9F       		.byte	0x9f
 4830 03ff 82000000 		.4byte	.LVL133
 4831 0403 88000000 		.4byte	.LVL134
 4832 0407 0200     		.2byte	0x2
 4833 0409 35       		.byte	0x35
 4834 040a 9F       		.byte	0x9f
 4835 040b 88000000 		.4byte	.LVL134
 4836 040f B0000000 		.4byte	.LVL140
 4837 0413 0200     		.2byte	0x2
 4838 0415 36       		.byte	0x36
 4839 0416 9F       		.byte	0x9f
 4840 0417 B0000000 		.4byte	.LVL140
 4841 041b C0000000 		.4byte	.LVL142
 4842 041f 0100     		.2byte	0x1
 4843 0421 53       		.byte	0x53
 4844 0422 C2000000 		.4byte	.LVL143
 4845 0426 F8000000 		.4byte	.LVL153
 4846 042a 0100     		.2byte	0x1
 4847 042c 53       		.byte	0x53
 4848 042d F8000000 		.4byte	.LVL153
ARM GAS  C:\Users\RECEPC~1\AppData\Local\Temp\ccdPVhXF.s 			page 98


 4849 0431 FA000000 		.4byte	.LVL154
 4850 0435 0100     		.2byte	0x1
 4851 0437 52       		.byte	0x52
 4852 0438 FA000000 		.4byte	.LVL154
 4853 043c 06010000 		.4byte	.LVL155
 4854 0440 0100     		.2byte	0x1
 4855 0442 53       		.byte	0x53
 4856 0443 08010000 		.4byte	.LVL156
 4857 0447 3E010000 		.4byte	.LVL166
 4858 044b 0100     		.2byte	0x1
 4859 044d 53       		.byte	0x53
 4860 044e 3E010000 		.4byte	.LVL166
 4861 0452 40010000 		.4byte	.LVL167
 4862 0456 0100     		.2byte	0x1
 4863 0458 52       		.byte	0x52
 4864 0459 40010000 		.4byte	.LVL167
 4865 045d 4C010000 		.4byte	.LVL168
 4866 0461 0100     		.2byte	0x1
 4867 0463 53       		.byte	0x53
 4868 0464 4E010000 		.4byte	.LVL169
 4869 0468 64010000 		.4byte	.LVL173
 4870 046c 0100     		.2byte	0x1
 4871 046e 53       		.byte	0x53
 4872 046f 64010000 		.4byte	.LVL173
 4873 0473 74010000 		.4byte	.LVL175
 4874 0477 0100     		.2byte	0x1
 4875 0479 55       		.byte	0x55
 4876 047a 74010000 		.4byte	.LVL175
 4877 047e 76010000 		.4byte	.LVL176
 4878 0482 0300     		.2byte	0x3
 4879 0484 75       		.byte	0x75
 4880 0485 7F       		.sleb128 -1
 4881 0486 9F       		.byte	0x9f
 4882 0487 76010000 		.4byte	.LVL176
 4883 048b A2010000 		.4byte	.LVL184
 4884 048f 0100     		.2byte	0x1
 4885 0491 55       		.byte	0x55
 4886 0492 A2010000 		.4byte	.LVL184
 4887 0496 A6010000 		.4byte	.LVL185
 4888 049a 0200     		.2byte	0x2
 4889 049c 30       		.byte	0x30
 4890 049d 9F       		.byte	0x9f
 4891 049e A6010000 		.4byte	.LVL185
 4892 04a2 A8010000 		.4byte	.LVL186
 4893 04a6 0200     		.2byte	0x2
 4894 04a8 32       		.byte	0x32
 4895 04a9 9F       		.byte	0x9f
 4896 04aa 00000000 		.4byte	0
 4897 04ae 00000000 		.4byte	0
 4898              	.LLST15:
 4899 04b2 94000000 		.4byte	.LVL135
 4900 04b6 A0000000 		.4byte	.LVL136
 4901 04ba 0100     		.2byte	0x1
 4902 04bc 53       		.byte	0x53
 4903 04bd A2000000 		.4byte	.LVL137
 4904 04c1 A4000000 		.4byte	.LVL138
 4905 04c5 0100     		.2byte	0x1
ARM GAS  C:\Users\RECEPC~1\AppData\Local\Temp\ccdPVhXF.s 			page 99


 4906 04c7 53       		.byte	0x53
 4907 04c8 A6000000 		.4byte	.LVL139
 4908 04cc B4000000 		.4byte	.LVL141
 4909 04d0 0100     		.2byte	0x1
 4910 04d2 53       		.byte	0x53
 4911 04d3 B4000000 		.4byte	.LVL141
 4912 04d7 C4000000 		.4byte	.LVL144
 4913 04db 0100     		.2byte	0x1
 4914 04dd 52       		.byte	0x52
 4915 04de C6000000 		.4byte	.LVL145
 4916 04e2 CA000000 		.4byte	.LVL146
 4917 04e6 0100     		.2byte	0x1
 4918 04e8 52       		.byte	0x52
 4919 04e9 D0000000 		.4byte	.LVL147
 4920 04ed D4000000 		.4byte	.LVL148
 4921 04f1 0100     		.2byte	0x1
 4922 04f3 53       		.byte	0x53
 4923 04f4 D4000000 		.4byte	.LVL148
 4924 04f8 EC000000 		.4byte	.LVL151
 4925 04fc 0100     		.2byte	0x1
 4926 04fe 52       		.byte	0x52
 4927 04ff EE000000 		.4byte	.LVL152
 4928 0503 0A010000 		.4byte	.LVL157
 4929 0507 0100     		.2byte	0x1
 4930 0509 52       		.byte	0x52
 4931 050a 0C010000 		.4byte	.LVL158
 4932 050e 10010000 		.4byte	.LVL159
 4933 0512 0100     		.2byte	0x1
 4934 0514 52       		.byte	0x52
 4935 0515 16010000 		.4byte	.LVL160
 4936 0519 1A010000 		.4byte	.LVL161
 4937 051d 0100     		.2byte	0x1
 4938 051f 53       		.byte	0x53
 4939 0520 1A010000 		.4byte	.LVL161
 4940 0524 32010000 		.4byte	.LVL164
 4941 0528 0100     		.2byte	0x1
 4942 052a 52       		.byte	0x52
 4943 052b 34010000 		.4byte	.LVL165
 4944 052f 50010000 		.4byte	.LVL170
 4945 0533 0100     		.2byte	0x1
 4946 0535 52       		.byte	0x52
 4947 0536 52010000 		.4byte	.LVL171
 4948 053a 56010000 		.4byte	.LVL172
 4949 053e 0100     		.2byte	0x1
 4950 0540 52       		.byte	0x52
 4951 0541 80010000 		.4byte	.LVL177
 4952 0545 84010000 		.4byte	.LVL179
 4953 0549 0200     		.2byte	0x2
 4954 054b 30       		.byte	0x30
 4955 054c 9F       		.byte	0x9f
 4956 054d 84010000 		.4byte	.LVL179
 4957 0551 92010000 		.4byte	.LVL181
 4958 0555 0100     		.2byte	0x1
 4959 0557 54       		.byte	0x54
 4960 0558 94010000 		.4byte	.LVL182
 4961 055c A2010000 		.4byte	.LVL184
 4962 0560 0100     		.2byte	0x1
ARM GAS  C:\Users\RECEPC~1\AppData\Local\Temp\ccdPVhXF.s 			page 100


 4963 0562 54       		.byte	0x54
 4964 0563 00000000 		.4byte	0
 4965 0567 00000000 		.4byte	0
 4966              	.LLST16:
 4967 056b 18000000 		.4byte	.LVL118
 4968 056f D0000000 		.4byte	.LVL147
 4969 0573 0200     		.2byte	0x2
 4970 0575 30       		.byte	0x30
 4971 0576 9F       		.byte	0x9f
 4972 0577 D0000000 		.4byte	.LVL147
 4973 057b E8000000 		.4byte	.LVL149
 4974 057f 0100     		.2byte	0x1
 4975 0581 50       		.byte	0x50
 4976 0582 EA000000 		.4byte	.LVL150
 4977 0586 FA000000 		.4byte	.LVL154
 4978 058a 0100     		.2byte	0x1
 4979 058c 50       		.byte	0x50
 4980 058d 16010000 		.4byte	.LVL160
 4981 0591 2E010000 		.4byte	.LVL162
 4982 0595 0100     		.2byte	0x1
 4983 0597 50       		.byte	0x50
 4984 0598 30010000 		.4byte	.LVL163
 4985 059c 40010000 		.4byte	.LVL167
 4986 05a0 0100     		.2byte	0x1
 4987 05a2 50       		.byte	0x50
 4988 05a3 A2010000 		.4byte	.LVL184
 4989 05a7 A8010000 		.4byte	.LVL186
 4990 05ab 0200     		.2byte	0x2
 4991 05ad 30       		.byte	0x30
 4992 05ae 9F       		.byte	0x9f
 4993 05af 00000000 		.4byte	0
 4994 05b3 00000000 		.4byte	0
 4995              	.LLST17:
 4996 05b7 18000000 		.4byte	.LVL118
 4997 05bb 38000000 		.4byte	.LVL124
 4998 05bf 0200     		.2byte	0x2
 4999 05c1 30       		.byte	0x30
 5000 05c2 9F       		.byte	0x9f
 5001 05c3 38000000 		.4byte	.LVL124
 5002 05c7 3A000000 		.4byte	.LVL125
 5003 05cb 0100     		.2byte	0x1
 5004 05cd 57       		.byte	0x57
 5005 05ce 3A000000 		.4byte	.LVL125
 5006 05d2 3C000000 		.4byte	.LVL126
 5007 05d6 0200     		.2byte	0x2
 5008 05d8 30       		.byte	0x30
 5009 05d9 9F       		.byte	0x9f
 5010 05da 3C000000 		.4byte	.LVL126
 5011 05de AC010000 		.4byte	.LVL187
 5012 05e2 0100     		.2byte	0x1
 5013 05e4 57       		.byte	0x57
 5014 05e5 00000000 		.4byte	0
 5015 05e9 00000000 		.4byte	0
 5016              	.LLST18:
 5017 05ed 00000000 		.4byte	.LVL188
 5018 05f1 0B000000 		.4byte	.LVL190-1
 5019 05f5 0100     		.2byte	0x1
ARM GAS  C:\Users\RECEPC~1\AppData\Local\Temp\ccdPVhXF.s 			page 101


 5020 05f7 50       		.byte	0x50
 5021 05f8 0B000000 		.4byte	.LVL190-1
 5022 05fc 24010000 		.4byte	.LFE66
 5023 0600 0400     		.2byte	0x4
 5024 0602 F3       		.byte	0xf3
 5025 0603 01       		.uleb128 0x1
 5026 0604 50       		.byte	0x50
 5027 0605 9F       		.byte	0x9f
 5028 0606 00000000 		.4byte	0
 5029 060a 00000000 		.4byte	0
 5030              	.LLST19:
 5031 060e 0C000000 		.4byte	.LVL190
 5032 0612 14000000 		.4byte	.LVL191
 5033 0616 0100     		.2byte	0x1
 5034 0618 50       		.byte	0x50
 5035 0619 26000000 		.4byte	.LVL196
 5036 061d 28000000 		.4byte	.LVL197
 5037 0621 0100     		.2byte	0x1
 5038 0623 50       		.byte	0x50
 5039 0624 00000000 		.4byte	0
 5040 0628 00000000 		.4byte	0
 5041              	.LLST20:
 5042 062c 5A000000 		.4byte	.LVL200
 5043 0630 5E000000 		.4byte	.LVL201
 5044 0634 0200     		.2byte	0x2
 5045 0636 30       		.byte	0x30
 5046 0637 9F       		.byte	0x9f
 5047 0638 5E000000 		.4byte	.LVL201
 5048 063c 6E000000 		.4byte	.LVL203
 5049 0640 0100     		.2byte	0x1
 5050 0642 54       		.byte	0x54
 5051 0643 70000000 		.4byte	.LVL204
 5052 0647 7A000000 		.4byte	.LVL205
 5053 064b 0100     		.2byte	0x1
 5054 064d 54       		.byte	0x54
 5055 064e 8C000000 		.4byte	.LVL208
 5056 0652 90000000 		.4byte	.LVL209
 5057 0656 0200     		.2byte	0x2
 5058 0658 30       		.byte	0x30
 5059 0659 9F       		.byte	0x9f
 5060 065a 90000000 		.4byte	.LVL209
 5061 065e 98000000 		.4byte	.LVL211
 5062 0662 0100     		.2byte	0x1
 5063 0664 54       		.byte	0x54
 5064 0665 9A000000 		.4byte	.LVL212
 5065 0669 0A010000 		.4byte	.LVL214
 5066 066d 0100     		.2byte	0x1
 5067 066f 54       		.byte	0x54
 5068 0670 00000000 		.4byte	0
 5069 0674 00000000 		.4byte	0
 5070              	.LLST21:
 5071 0678 08000000 		.4byte	.LVL189
 5072 067c 24000000 		.4byte	.LVL195
 5073 0680 0200     		.2byte	0x2
 5074 0682 30       		.byte	0x30
 5075 0683 9F       		.byte	0x9f
 5076 0684 24000000 		.4byte	.LVL195
ARM GAS  C:\Users\RECEPC~1\AppData\Local\Temp\ccdPVhXF.s 			page 102


 5077 0688 26000000 		.4byte	.LVL196
 5078 068c 0100     		.2byte	0x1
 5079 068e 55       		.byte	0x55
 5080 068f 26000000 		.4byte	.LVL196
 5081 0693 28000000 		.4byte	.LVL197
 5082 0697 0200     		.2byte	0x2
 5083 0699 30       		.byte	0x30
 5084 069a 9F       		.byte	0x9f
 5085 069b 28000000 		.4byte	.LVL197
 5086 069f 8C000000 		.4byte	.LVL208
 5087 06a3 0100     		.2byte	0x1
 5088 06a5 55       		.byte	0x55
 5089 06a6 00000000 		.4byte	0
 5090 06aa 00000000 		.4byte	0
 5091              	.LLST22:
 5092 06ae 08000000 		.4byte	.LVL189
 5093 06b2 80000000 		.4byte	.LVL207
 5094 06b6 0200     		.2byte	0x2
 5095 06b8 30       		.byte	0x30
 5096 06b9 9F       		.byte	0x9f
 5097 06ba 80000000 		.4byte	.LVL207
 5098 06be 0A010000 		.4byte	.LVL214
 5099 06c2 0100     		.2byte	0x1
 5100 06c4 56       		.byte	0x56
 5101 06c5 00000000 		.4byte	0
 5102 06c9 00000000 		.4byte	0
 5103              	.LLST23:
 5104 06cd 80000000 		.4byte	.LVL207
 5105 06d1 0A010000 		.4byte	.LVL214
 5106 06d5 0800     		.2byte	0x8
 5107 06d7 76       		.byte	0x76
 5108 06d8 00       		.sleb128 0
 5109 06d9 08       		.byte	0x8
 5110 06da FF       		.byte	0xff
 5111 06db 1A       		.byte	0x1a
 5112 06dc 31       		.byte	0x31
 5113 06dd 1C       		.byte	0x1c
 5114 06de 9F       		.byte	0x9f
 5115 06df 00000000 		.4byte	0
 5116 06e3 00000000 		.4byte	0
 5117              	.LLST24:
 5118 06e7 8C000000 		.4byte	.LVL208
 5119 06eb 0A010000 		.4byte	.LVL214
 5120 06ef 0200     		.2byte	0x2
 5121 06f1 75       		.byte	0x75
 5122 06f2 00       		.sleb128 0
 5123 06f3 00000000 		.4byte	0
 5124 06f7 00000000 		.4byte	0
 5125              	.LLST25:
 5126 06fb 00000000 		.4byte	.LVL215
 5127 06ff 0B000000 		.4byte	.LVL217-1
 5128 0703 0100     		.2byte	0x1
 5129 0705 50       		.byte	0x50
 5130 0706 0B000000 		.4byte	.LVL217-1
 5131 070a D4000000 		.4byte	.LFE67
 5132 070e 0400     		.2byte	0x4
 5133 0710 F3       		.byte	0xf3
ARM GAS  C:\Users\RECEPC~1\AppData\Local\Temp\ccdPVhXF.s 			page 103


 5134 0711 01       		.uleb128 0x1
 5135 0712 50       		.byte	0x50
 5136 0713 9F       		.byte	0x9f
 5137 0714 00000000 		.4byte	0
 5138 0718 00000000 		.4byte	0
 5139              	.LLST26:
 5140 071c 0C000000 		.4byte	.LVL217
 5141 0720 0E000000 		.4byte	.LVL218
 5142 0724 0100     		.2byte	0x1
 5143 0726 50       		.byte	0x50
 5144 0727 00000000 		.4byte	0
 5145 072b 00000000 		.4byte	0
 5146              	.LLST27:
 5147 072f 5E000000 		.4byte	.LVL227
 5148 0733 62000000 		.4byte	.LVL228
 5149 0737 0200     		.2byte	0x2
 5150 0739 30       		.byte	0x30
 5151 073a 9F       		.byte	0x9f
 5152 073b 62000000 		.4byte	.LVL228
 5153 073f 72000000 		.4byte	.LVL230
 5154 0743 0100     		.2byte	0x1
 5155 0745 54       		.byte	0x54
 5156 0746 74000000 		.4byte	.LVL231
 5157 074a 8E000000 		.4byte	.LVL233
 5158 074e 0100     		.2byte	0x1
 5159 0750 54       		.byte	0x54
 5160 0751 A0000000 		.4byte	.LVL236
 5161 0755 A4000000 		.4byte	.LVL237
 5162 0759 0200     		.2byte	0x2
 5163 075b 30       		.byte	0x30
 5164 075c 9F       		.byte	0x9f
 5165 075d A4000000 		.4byte	.LVL237
 5166 0761 AC000000 		.4byte	.LVL239
 5167 0765 0100     		.2byte	0x1
 5168 0767 54       		.byte	0x54
 5169 0768 AE000000 		.4byte	.LVL240
 5170 076c D0000000 		.4byte	.LVL242
 5171 0770 0100     		.2byte	0x1
 5172 0772 54       		.byte	0x54
 5173 0773 00000000 		.4byte	0
 5174 0777 00000000 		.4byte	0
 5175              	.LLST28:
 5176 077b 08000000 		.4byte	.LVL216
 5177 077f 28000000 		.4byte	.LVL222
 5178 0783 0200     		.2byte	0x2
 5179 0785 30       		.byte	0x30
 5180 0786 9F       		.byte	0x9f
 5181 0787 28000000 		.4byte	.LVL222
 5182 078b 2A000000 		.4byte	.LVL223
 5183 078f 0100     		.2byte	0x1
 5184 0791 55       		.byte	0x55
 5185 0792 2A000000 		.4byte	.LVL223
 5186 0796 2C000000 		.4byte	.LVL224
 5187 079a 0200     		.2byte	0x2
 5188 079c 30       		.byte	0x30
 5189 079d 9F       		.byte	0x9f
 5190 079e 2C000000 		.4byte	.LVL224
ARM GAS  C:\Users\RECEPC~1\AppData\Local\Temp\ccdPVhXF.s 			page 104


 5191 07a2 94000000 		.4byte	.LVL235
 5192 07a6 0100     		.2byte	0x1
 5193 07a8 55       		.byte	0x55
 5194 07a9 00000000 		.4byte	0
 5195 07ad 00000000 		.4byte	0
 5196              	.LLST29:
 5197 07b1 08000000 		.4byte	.LVL216
 5198 07b5 94000000 		.4byte	.LVL235
 5199 07b9 0200     		.2byte	0x2
 5200 07bb 30       		.byte	0x30
 5201 07bc 9F       		.byte	0x9f
 5202 07bd 94000000 		.4byte	.LVL235
 5203 07c1 D0000000 		.4byte	.LVL242
 5204 07c5 0100     		.2byte	0x1
 5205 07c7 55       		.byte	0x55
 5206 07c8 00000000 		.4byte	0
 5207 07cc 00000000 		.4byte	0
 5208              	.LLST30:
 5209 07d0 94000000 		.4byte	.LVL235
 5210 07d4 D0000000 		.4byte	.LVL242
 5211 07d8 0800     		.2byte	0x8
 5212 07da 75       		.byte	0x75
 5213 07db 00       		.sleb128 0
 5214 07dc 08       		.byte	0x8
 5215 07dd FF       		.byte	0xff
 5216 07de 1A       		.byte	0x1a
 5217 07df 31       		.byte	0x31
 5218 07e0 1C       		.byte	0x1c
 5219 07e1 9F       		.byte	0x9f
 5220 07e2 00000000 		.4byte	0
 5221 07e6 00000000 		.4byte	0
 5222              	.LLST31:
 5223 07ea A0000000 		.4byte	.LVL236
 5224 07ee D0000000 		.4byte	.LVL242
 5225 07f2 0200     		.2byte	0x2
 5226 07f4 76       		.byte	0x76
 5227 07f5 00       		.sleb128 0
 5228 07f6 00000000 		.4byte	0
 5229 07fa 00000000 		.4byte	0
 5230              		.section	.debug_aranges,"",%progbits
 5231 0000 54000000 		.4byte	0x54
 5232 0004 0200     		.2byte	0x2
 5233 0006 00000000 		.4byte	.Ldebug_info0
 5234 000a 04       		.byte	0x4
 5235 000b 00       		.byte	0
 5236 000c 0000     		.2byte	0
 5237 000e 0000     		.2byte	0
 5238 0010 00000000 		.4byte	.LFB63
 5239 0014 2E000000 		.4byte	.LFE63-.LFB63
 5240 0018 00000000 		.4byte	.LFB64
 5241 001c 20010000 		.4byte	.LFE64-.LFB64
 5242 0020 00000000 		.4byte	.LFB68
 5243 0024 C8030000 		.4byte	.LFE68-.LFB68
 5244 0028 00000000 		.4byte	.LFB69
 5245 002c 14000000 		.4byte	.LFE69-.LFB69
 5246 0030 00000000 		.4byte	.LFB70
 5247 0034 26000000 		.4byte	.LFE70-.LFB70
ARM GAS  C:\Users\RECEPC~1\AppData\Local\Temp\ccdPVhXF.s 			page 105


 5248 0038 00000000 		.4byte	.LFB65
 5249 003c B4010000 		.4byte	.LFE65-.LFB65
 5250 0040 00000000 		.4byte	.LFB66
 5251 0044 24010000 		.4byte	.LFE66-.LFB66
 5252 0048 00000000 		.4byte	.LFB67
 5253 004c D4000000 		.4byte	.LFE67-.LFB67
 5254 0050 00000000 		.4byte	0
 5255 0054 00000000 		.4byte	0
 5256              		.section	.debug_ranges,"",%progbits
 5257              	.Ldebug_ranges0:
 5258 0000 00000000 		.4byte	.LFB63
 5259 0004 2E000000 		.4byte	.LFE63
 5260 0008 00000000 		.4byte	.LFB64
 5261 000c 20010000 		.4byte	.LFE64
 5262 0010 00000000 		.4byte	.LFB68
 5263 0014 C8030000 		.4byte	.LFE68
 5264 0018 00000000 		.4byte	.LFB69
 5265 001c 14000000 		.4byte	.LFE69
 5266 0020 00000000 		.4byte	.LFB70
 5267 0024 26000000 		.4byte	.LFE70
 5268 0028 00000000 		.4byte	.LFB65
 5269 002c B4010000 		.4byte	.LFE65
 5270 0030 00000000 		.4byte	.LFB66
 5271 0034 24010000 		.4byte	.LFE66
 5272 0038 00000000 		.4byte	.LFB67
 5273 003c D4000000 		.4byte	.LFE67
 5274 0040 00000000 		.4byte	0
 5275 0044 00000000 		.4byte	0
 5276              		.section	.debug_line,"",%progbits
 5277              	.Ldebug_line0:
 5278 0000 49050000 		.section	.debug_str,"MS",%progbits,1
 5278      02007301 
 5278      00000201 
 5278      FB0E0D00 
 5278      01010101 
 5279              	.LASF85:
 5280 0000 5055446E 		.ascii	"PUDn\000"
 5280      00
 5281              	.LASF172:
 5282 0005 43795764 		.ascii	"CyWdtClear\000"
 5282      74436C65 
 5282      617200
 5283              	.LASF138:
 5284 0010 64656369 		.ascii	"decimalVolume\000"
 5284      6D616C56 
 5284      6F6C756D 
 5284      6500
 5285              	.LASF152:
 5286 001e 50726576 		.ascii	"PrevStatePump\000"
 5286      53746174 
 5286      6550756D 
 5286      7000
 5287              	.LASF57:
 5288 002c 6D657373 		.ascii	"message\000"
 5288      61676500 
 5289              	.LASF160:
 5290 0034 73746174 		.ascii	"statePump\000"
ARM GAS  C:\Users\RECEPC~1\AppData\Local\Temp\ccdPVhXF.s 			page 106


 5290      6550756D 
 5290      7000
 5291              	.LASF73:
 5292 003e 62756666 		.ascii	"buffer\000"
 5292      657200
 5293              	.LASF126:
 5294 0045 69704164 		.ascii	"ipAdress\000"
 5294      72657373 
 5294      00
 5295              	.LASF137:
 5296 004e 64656369 		.ascii	"decimalMoney\000"
 5296      6D616C4D 
 5296      6F6E6579 
 5296      00
 5297              	.LASF35:
 5298 005b 73616C65 		.ascii	"salePerform\000"
 5298      50657266 
 5298      6F726D00 
 5299              	.LASF10:
 5300 0067 756E7369 		.ascii	"unsigned int\000"
 5300      676E6564 
 5300      20696E74 
 5300      00
 5301              	.LASF62:
 5302 0074 70726F64 		.ascii	"productMarket\000"
 5302      7563744D 
 5302      61726B65 
 5302      7400
 5303              	.LASF5:
 5304 0082 5F5F696E 		.ascii	"__int32_t\000"
 5304      7433325F 
 5304      7400
 5305              	.LASF55:
 5306 008c 666C6167 		.ascii	"flagLiftHandle\000"
 5306      4C696674 
 5306      48616E64 
 5306      6C6500
 5307              	.LASF90:
 5308 009b 50554D50 		.ascii	"PUMP_FAIL\000"
 5308      5F464149 
 5308      4C00
 5309              	.LASF143:
 5310 00a5 72657369 		.ascii	"residue\000"
 5310      64756500 
 5311              	.LASF22:
 5312 00ad 69645479 		.ascii	"idType\000"
 5312      706500
 5313              	.LASF159:
 5314 00b4 44444D6F 		.ascii	"DDMode\000"
 5314      646500
 5315              	.LASF99:
 5316 00bb 6765745F 		.ascii	"get_position\000"
 5316      706F7369 
 5316      74696F6E 
 5316      00
 5317              	.LASF27:
 5318 00c8 73656C65 		.ascii	"selectedSale\000"
ARM GAS  C:\Users\RECEPC~1\AppData\Local\Temp\ccdPVhXF.s 			page 107


 5318      63746564 
 5318      53616C65 
 5318      00
 5319              	.LASF63:
 5320 00d5 7175616E 		.ascii	"quantityMarket\000"
 5320      74697479 
 5320      4D61726B 
 5320      657400
 5321              	.LASF112:
 5322 00e4 50756D70 		.ascii	"PumpDataReceive\000"
 5322      44617461 
 5322      52656365 
 5322      69766500 
 5323              	.LASF177:
 5324 00f4 64656369 		.ascii	"decimal\000"
 5324      6D616C00 
 5325              	.LASF130:
 5326 00fc 666C6167 		.ascii	"flagPoint2\000"
 5326      506F696E 
 5326      743200
 5327              	.LASF101:
 5328 0107 67657453 		.ascii	"getSale\000"
 5328      616C6500 
 5329              	.LASF59:
 5330 010f 766F6C75 		.ascii	"volumeQuota\000"
 5330      6D655175 
 5330      6F746100 
 5331              	.LASF110:
 5332 011b 70726573 		.ascii	"preset\000"
 5332      657400
 5333              	.LASF91:
 5334 0122 50554D50 		.ascii	"PUMP_IDLE\000"
 5334      5F49444C 
 5334      4500
 5335              	.LASF16:
 5336 012c 666C6F61 		.ascii	"float\000"
 5336      7400
 5337              	.LASF111:
 5338 0132 53656E64 		.ascii	"SendComand\000"
 5338      436F6D61 
 5338      6E6400
 5339              	.LASF171:
 5340 013d 50756D70 		.ascii	"Pump_ClearRxBuffer\000"
 5340      5F436C65 
 5340      61725278 
 5340      42756666 
 5340      657200
 5341              	.LASF156:
 5342 0150 4D6F6E65 		.ascii	"MoneyDec\000"
 5342      79446563 
 5342      00
 5343              	.LASF82:
 5344 0159 686F7365 		.ascii	"hose\000"
 5344      00
 5345              	.LASF9:
 5346 015e 6C6F6E67 		.ascii	"long long unsigned int\000"
 5346      206C6F6E 
ARM GAS  C:\Users\RECEPC~1\AppData\Local\Temp\ccdPVhXF.s 			page 108


 5346      6720756E 
 5346      7369676E 
 5346      65642069 
 5347              	.LASF96:
 5348 0175 50554D50 		.ascii	"PUMP_FEOT\000"
 5348      5F46454F 
 5348      5400
 5349              	.LASF153:
 5350 017f 506C6174 		.ascii	"PlateRequest\000"
 5350      65526571 
 5350      75657374 
 5350      00
 5351              	.LASF45:
 5352 018c 746F7461 		.ascii	"totalVolumePrevious\000"
 5352      6C566F6C 
 5352      756D6550 
 5352      72657669 
 5352      6F757300 
 5353              	.LASF162:
 5354 01a0 64696769 		.ascii	"digits\000"
 5354      747300
 5355              	.LASF89:
 5356 01a7 5F50554D 		.ascii	"_PUMP_STATES_\000"
 5356      505F5354 
 5356      41544553 
 5356      5F00
 5357              	.LASF140:
 5358 01b5 74696D65 		.ascii	"time\000"
 5358      00
 5359              	.LASF102:
 5360 01ba 72657476 		.ascii	"retval\000"
 5360      616C00
 5361              	.LASF109:
 5362 01c1 76616C75 		.ascii	"value\000"
 5362      6500
 5363              	.LASF38:
 5364 01c7 70726F64 		.ascii	"productType\000"
 5364      75637454 
 5364      79706500 
 5365              	.LASF132:
 5366 01d3 70726F64 		.ascii	"productNumber\000"
 5366      7563744E 
 5366      756D6265 
 5366      7200
 5367              	.LASF41:
 5368 01e1 64617465 		.ascii	"dateDownHandle\000"
 5368      446F776E 
 5368      48616E64 
 5368      6C6500
 5369              	.LASF23:
 5370 01f0 69645365 		.ascii	"idSerial\000"
 5370      7269616C 
 5370      00
 5371              	.LASF107:
 5372 01f9 73696465 		.ascii	"side\000"
 5372      00
 5373              	.LASF142:
ARM GAS  C:\Users\RECEPC~1\AppData\Local\Temp\ccdPVhXF.s 			page 109


 5374 01fe 73637265 		.ascii	"screen\000"
 5374      656E00
 5375              	.LASF169:
 5376 0205 50756D70 		.ascii	"Pump_GetRxBufferSize\000"
 5376      5F476574 
 5376      52784275 
 5376      66666572 
 5376      53697A65 
 5377              	.LASF51:
 5378 021a 6D696C65 		.ascii	"mileageSale\000"
 5378      61676553 
 5378      616C6500 
 5379              	.LASF71:
 5380 0226 666C6167 		.ascii	"flagChangePPU\000"
 5380      4368616E 
 5380      67655050 
 5380      5500
 5381              	.LASF174:
 5382 0234 2E5C7072 		.ascii	".\\protocol.c\000"
 5382      6F746F63 
 5382      6F6C2E63 
 5382      00
 5383              	.LASF103:
 5384 0241 5F426F6F 		.ascii	"_Bool\000"
 5384      6C00
 5385              	.LASF72:
 5386 0247 666C6167 		.ascii	"flagPrint\000"
 5386      5072696E 
 5386      7400
 5387              	.LASF131:
 5388 0251 62757474 		.ascii	"button\000"
 5388      6F6E00
 5389              	.LASF122:
 5390 0258 666C6F77 		.ascii	"flowDisplay1\000"
 5390      44697370 
 5390      6C617931 
 5390      00
 5391              	.LASF123:
 5392 0265 666C6F77 		.ascii	"flowDisplay2\000"
 5392      44697370 
 5392      6C617932 
 5392      00
 5393              	.LASF124:
 5394 0272 666C6F77 		.ascii	"flowDisplay3\000"
 5394      44697370 
 5394      6C617933 
 5394      00
 5395              	.LASF125:
 5396 027f 666C6F77 		.ascii	"flowDisplay4\000"
 5396      44697370 
 5396      6C617934 
 5396      00
 5397              	.LASF61:
 5398 028c 73657269 		.ascii	"serialMarket\000"
 5398      616C4D61 
 5398      726B6574 
 5398      00
ARM GAS  C:\Users\RECEPC~1\AppData\Local\Temp\ccdPVhXF.s 			page 110


 5399              	.LASF75:
 5400 0299 746F7461 		.ascii	"totalsHandle\000"
 5400      6C734861 
 5400      6E646C65 
 5400      00
 5401              	.LASF37:
 5402 02a6 70726573 		.ascii	"presetValue\000"
 5402      65745661 
 5402      6C756500 
 5403              	.LASF145:
 5404 02b2 7475726E 		.ascii	"turn\000"
 5404      00
 5405              	.LASF116:
 5406 02b7 50756D70 		.ascii	"Pump_rxBuffer\000"
 5406      5F727842 
 5406      75666665 
 5406      7200
 5407              	.LASF52:
 5408 02c5 6964656E 		.ascii	"identySale\000"
 5408      74795361 
 5408      6C6500
 5409              	.LASF34:
 5410 02d0 73616C65 		.ascii	"saleType\000"
 5410      54797065 
 5410      00
 5411              	.LASF94:
 5412 02d9 50554D50 		.ascii	"PUMP_BUSY\000"
 5412      5F425553 
 5412      5900
 5413              	.LASF115:
 5414 02e3 50756D70 		.ascii	"PumpHoseActiveState\000"
 5414      486F7365 
 5414      41637469 
 5414      76655374 
 5414      61746500 
 5415              	.LASF32:
 5416 02f7 76616C75 		.ascii	"valueKeys\000"
 5416      654B6579 
 5416      7300
 5417              	.LASF20:
 5418 0301 63686172 		.ascii	"char\000"
 5418      00
 5419              	.LASF155:
 5420 0306 436F6E76 		.ascii	"ConversionFactor\000"
 5420      65727369 
 5420      6F6E4661 
 5420      63746F72 
 5420      00
 5421              	.LASF97:
 5422 0317 50554D50 		.ascii	"PUMP_STOPPED\000"
 5422      5F53544F 
 5422      50504544 
 5422      00
 5423              	.LASF127:
 5424 0324 6E756D62 		.ascii	"numberKeys1\000"
 5424      65724B65 
 5424      79733100 
ARM GAS  C:\Users\RECEPC~1\AppData\Local\Temp\ccdPVhXF.s 			page 111


 5425              	.LASF128:
 5426 0330 6E756D62 		.ascii	"numberKeys2\000"
 5426      65724B65 
 5426      79733200 
 5427              	.LASF120:
 5428 033c 636F756E 		.ascii	"countBeagleTX\000"
 5428      74426561 
 5428      676C6554 
 5428      5800
 5429              	.LASF114:
 5430 034a 42756666 		.ascii	"BufferSize\000"
 5430      65725369 
 5430      7A6500
 5431              	.LASF168:
 5432 0355 43794465 		.ascii	"CyDelay\000"
 5432      6C617900 
 5433              	.LASF98:
 5434 035d 6765745F 		.ascii	"get_state\000"
 5434      73746174 
 5434      6500
 5435              	.LASF14:
 5436 0367 75696E74 		.ascii	"uint16\000"
 5436      313600
 5437              	.LASF87:
 5438 036e 4C52436E 		.ascii	"LRCn\000"
 5438      00
 5439              	.LASF141:
 5440 0373 64617465 		.ascii	"date\000"
 5440      00
 5441              	.LASF11:
 5442 0378 75696E74 		.ascii	"uint8_t\000"
 5442      385F7400 
 5443              	.LASF170:
 5444 0380 50756D70 		.ascii	"Pump_ReadRxData\000"
 5444      5F526561 
 5444      64527844 
 5444      61746100 
 5445              	.LASF54:
 5446 0390 666C6167 		.ascii	"flagPayment\000"
 5446      5061796D 
 5446      656E7400 
 5447              	.LASF19:
 5448 039c 63686172 		.ascii	"char8\000"
 5448      3800
 5449              	.LASF24:
 5450 03a2 69645365 		.ascii	"idSerialCom\000"
 5450      7269616C 
 5450      436F6D00 
 5451              	.LASF60:
 5452 03ae 70707551 		.ascii	"ppuQuota\000"
 5452      756F7461 
 5452      00
 5453              	.LASF47:
 5454 03b7 746F7461 		.ascii	"totalMoneyAfter\000"
 5454      6C4D6F6E 
 5454      65794166 
 5454      74657200 
ARM GAS  C:\Users\RECEPC~1\AppData\Local\Temp\ccdPVhXF.s 			page 112


 5455              	.LASF58:
 5456 03c7 6D6F6E65 		.ascii	"moneyQuota\000"
 5456      7951756F 
 5456      746100
 5457              	.LASF70:
 5458 03d2 7072696E 		.ascii	"printers\000"
 5458      74657273 
 5458      00
 5459              	.LASF133:
 5460 03db 70726573 		.ascii	"presetFast\000"
 5460      65744661 
 5460      737400
 5461              	.LASF77:
 5462 03e6 6D6F6E65 		.ascii	"moneySale\000"
 5462      7953616C 
 5462      6500
 5463              	.LASF8:
 5464 03f0 6C6F6E67 		.ascii	"long long int\000"
 5464      206C6F6E 
 5464      6720696E 
 5464      7400
 5465              	.LASF79:
 5466 03fe 70707553 		.ascii	"ppuSale\000"
 5466      616C6500 
 5467              	.LASF118:
 5468 0406 636F756E 		.ascii	"countAnimation1\000"
 5468      74416E69 
 5468      6D617469 
 5468      6F6E3100 
 5469              	.LASF161:
 5470 0416 4E756D50 		.ascii	"NumPositions\000"
 5470      6F736974 
 5470      696F6E73 
 5470      00
 5471              	.LASF151:
 5472 0423 73746174 		.ascii	"stateBeagleSoft\000"
 5472      65426561 
 5472      676C6553 
 5472      6F667400 
 5473              	.LASF46:
 5474 0433 746F7461 		.ascii	"totalPPUPrevious\000"
 5474      6C505055 
 5474      50726576 
 5474      696F7573 
 5474      00
 5475              	.LASF119:
 5476 0444 636F756E 		.ascii	"countAnimation2\000"
 5476      74416E69 
 5476      6D617469 
 5476      6F6E3200 
 5477              	.LASF67:
 5478 0454 746F7461 		.ascii	"totalMarket\000"
 5478      6C4D6172 
 5478      6B657400 
 5479              	.LASF43:
 5480 0460 74696D65 		.ascii	"timeDownHandle\000"
 5480      446F776E 
ARM GAS  C:\Users\RECEPC~1\AppData\Local\Temp\ccdPVhXF.s 			page 113


 5480      48616E64 
 5480      6C6500
 5481              	.LASF33:
 5482 046f 76656869 		.ascii	"vehicleType\000"
 5482      636C6554 
 5482      79706500 
 5483              	.LASF92:
 5484 047b 50554D50 		.ascii	"PUMP_CALLING\000"
 5484      5F43414C 
 5484      4C494E47 
 5484      00
 5485              	.LASF53:
 5486 0488 666C6167 		.ascii	"flagKeyboard\000"
 5486      4B657962 
 5486      6F617264 
 5486      00
 5487              	.LASF113:
 5488 0495 50756D70 		.ascii	"PumpCompleteConfiguration\000"
 5488      436F6D70 
 5488      6C657465 
 5488      436F6E66 
 5488      69677572 
 5489              	.LASF15:
 5490 04af 75696E74 		.ascii	"uint32\000"
 5490      333200
 5491              	.LASF93:
 5492 04b6 50554D50 		.ascii	"PUMP_AUTHORIZED\000"
 5492      5F415554 
 5492      484F5249 
 5492      5A454400 
 5493              	.LASF150:
 5494 04c6 666C6167 		.ascii	"flagResetMux\000"
 5494      52657365 
 5494      744D7578 
 5494      00
 5495              	.LASF176:
 5496 04d3 50756D70 		.ascii	"PumpIsInValidState\000"
 5496      4973496E 
 5496      56616C69 
 5496      64537461 
 5496      746500
 5497              	.LASF49:
 5498 04e6 746F7461 		.ascii	"totalPPUAfter\000"
 5498      6C505055 
 5498      41667465 
 5498      7200
 5499              	.LASF30:
 5500 04f4 6B657962 		.ascii	"keyboardWayToPay\000"
 5500      6F617264 
 5500      57617954 
 5500      6F506179 
 5500      00
 5501              	.LASF136:
 5502 0505 70707578 		.ascii	"ppux10\000"
 5502      313000
 5503              	.LASF44:
 5504 050c 746F7461 		.ascii	"totalMoneyPrevious\000"
ARM GAS  C:\Users\RECEPC~1\AppData\Local\Temp\ccdPVhXF.s 			page 114


 5504      6C4D6F6E 
 5504      65795072 
 5504      6576696F 
 5504      757300
 5505              	.LASF129:
 5506 051f 666C6167 		.ascii	"flagPoint1\000"
 5506      506F696E 
 5506      743100
 5507              	.LASF28:
 5508 052a 6D6F6E65 		.ascii	"moneySelectedSale\000"
 5508      7953656C 
 5508      65637465 
 5508      6453616C 
 5508      6500
 5509              	.LASF139:
 5510 053c 73796D62 		.ascii	"symbols\000"
 5510      6F6C7300 
 5511              	.LASF50:
 5512 0544 6C696365 		.ascii	"licenceSale\000"
 5512      6E636553 
 5512      616C6500 
 5513              	.LASF69:
 5514 0550 70726963 		.ascii	"priceConsign\000"
 5514      65436F6E 
 5514      7369676E 
 5514      00
 5515              	.LASF2:
 5516 055d 73686F72 		.ascii	"short int\000"
 5516      7420696E 
 5516      7400
 5517              	.LASF6:
 5518 0567 6C6F6E67 		.ascii	"long int\000"
 5518      20696E74 
 5518      00
 5519              	.LASF157:
 5520 0570 566F6C44 		.ascii	"VolDec\000"
 5520      656300
 5521              	.LASF117:
 5522 0577 49544D5F 		.ascii	"ITM_RxBuffer\000"
 5522      52784275 
 5522      66666572 
 5522      00
 5523              	.LASF146:
 5524 0584 6C6F636B 		.ascii	"lockTurn\000"
 5524      5475726E 
 5524      00
 5525              	.LASF56:
 5526 058d 666C6167 		.ascii	"flagEndSale\000"
 5526      456E6453 
 5526      616C6500 
 5527              	.LASF40:
 5528 0599 64617465 		.ascii	"dateLiftHandle\000"
 5528      4C696674 
 5528      48616E64 
 5528      6C6500
 5529              	.LASF88:
 5530 05a8 5F434F4E 		.ascii	"_CONTROL_WORDS_\000"
ARM GAS  C:\Users\RECEPC~1\AppData\Local\Temp\ccdPVhXF.s 			page 115


 5530      54524F4C 
 5530      5F574F52 
 5530      44535F00 
 5531              	.LASF83:
 5532 05b8 686F7365 		.ascii	"hoseNumber\000"
 5532      4E756D62 
 5532      657200
 5533              	.LASF164:
 5534 05c3 62756666 		.ascii	"bufferDisplay2\000"
 5534      65724469 
 5534      73706C61 
 5534      793200
 5535              	.LASF165:
 5536 05d2 62756666 		.ascii	"bufferDisplay3\000"
 5536      65724469 
 5536      73706C61 
 5536      793300
 5537              	.LASF166:
 5538 05e1 62756666 		.ascii	"bufferDisplay4\000"
 5538      65724469 
 5538      73706C61 
 5538      793400
 5539              	.LASF4:
 5540 05f0 5F5F7569 		.ascii	"__uint8_t\000"
 5540      6E74385F 
 5540      7400
 5541              	.LASF149:
 5542 05fa 70617373 		.ascii	"passwordSeller\000"
 5542      776F7264 
 5542      53656C6C 
 5542      657200
 5543              	.LASF48:
 5544 0609 746F7461 		.ascii	"totalVolumeAfter\000"
 5544      6C566F6C 
 5544      756D6541 
 5544      66746572 
 5544      00
 5545              	.LASF154:
 5546 061a 556E6974 		.ascii	"UnitType\000"
 5546      54797065 
 5546      00
 5547              	.LASF18:
 5548 0623 75696E74 		.ascii	"uint64\000"
 5548      363400
 5549              	.LASF134:
 5550 062a 64656C61 		.ascii	"delayPicture1\000"
 5550      79506963 
 5550      74757265 
 5550      3100
 5551              	.LASF135:
 5552 0638 64656C61 		.ascii	"delayPicture2\000"
 5552      79506963 
 5552      74757265 
 5552      3200
 5553              	.LASF39:
 5554 0646 73746174 		.ascii	"stateMux\000"
 5554      654D7578 
ARM GAS  C:\Users\RECEPC~1\AppData\Local\Temp\ccdPVhXF.s 			page 116


 5554      00
 5555              	.LASF21:
 5556 064f 73697A65 		.ascii	"sizetype\000"
 5556      74797065 
 5556      00
 5557              	.LASF7:
 5558 0658 6C6F6E67 		.ascii	"long unsigned int\000"
 5558      20756E73 
 5558      69676E65 
 5558      6420696E 
 5558      7400
 5559              	.LASF158:
 5560 066a 50505544 		.ascii	"PPUDec\000"
 5560      656300
 5561              	.LASF81:
 5562 0671 61637469 		.ascii	"activeHose\000"
 5562      7665486F 
 5562      736500
 5563              	.LASF68:
 5564 067c 666C6167 		.ascii	"flagProductmarket\000"
 5564      50726F64 
 5564      7563746D 
 5564      61726B65 
 5564      7400
 5565              	.LASF12:
 5566 068e 696E7433 		.ascii	"int32_t\000"
 5566      325F7400 
 5567              	.LASF86:
 5568 0696 5052446E 		.ascii	"PRDn\000"
 5568      00
 5569              	.LASF104:
 5570 069b 4765744C 		.ascii	"GetLRC\000"
 5570      524300
 5571              	.LASF64:
 5572 06a2 7175616E 		.ascii	"quantAvailableMark\000"
 5572      74417661 
 5572      696C6162 
 5572      6C654D61 
 5572      726B00
 5573              	.LASF26:
 5574 06b5 666C6167 		.ascii	"flagWayToPayMixed\000"
 5574      57617954 
 5574      6F506179 
 5574      4D697865 
 5574      6400
 5575              	.LASF1:
 5576 06c7 756E7369 		.ascii	"unsigned char\000"
 5576      676E6564 
 5576      20636861 
 5576      7200
 5577              	.LASF167:
 5578 06d5 50756D70 		.ascii	"Pump_PutChar\000"
 5578      5F507574 
 5578      43686172 
 5578      00
 5579              	.LASF173:
 5580 06e2 474E5520 		.ascii	"GNU C 4.9.3 20150303 (release) [ARM/embedded-4_9-br"
ARM GAS  C:\Users\RECEPC~1\AppData\Local\Temp\ccdPVhXF.s 			page 117


 5580      4320342E 
 5580      392E3320 
 5580      32303135 
 5580      30333033 
 5581 0715 616E6368 		.ascii	"anch revision 221220] -mcpu=cortex-m3 -mthumb -g -O"
 5581      20726576 
 5581      6973696F 
 5581      6E203232 
 5581      31323230 
 5582 0748 67202D66 		.ascii	"g -ffunction-sections -ffat-lto-objects\000"
 5582      66756E63 
 5582      74696F6E 
 5582      2D736563 
 5582      74696F6E 
 5583              	.LASF31:
 5584 0770 61757468 		.ascii	"authorizationFlag\000"
 5584      6F72697A 
 5584      6174696F 
 5584      6E466C61 
 5584      6700
 5585              	.LASF65:
 5586 0782 70726963 		.ascii	"priceTotalMarket\000"
 5586      65546F74 
 5586      616C4D61 
 5586      726B6574 
 5586      00
 5587              	.LASF147:
 5588 0793 69645365 		.ascii	"idSeller\000"
 5588      6C6C6572 
 5588      00
 5589              	.LASF84:
 5590 079c 70756D70 		.ascii	"pump\000"
 5590      00
 5591              	.LASF95:
 5592 07a1 50554D50 		.ascii	"PUMP_PEOT\000"
 5592      5F50454F 
 5592      5400
 5593              	.LASF175:
 5594 07ab 433A5C55 		.ascii	"C:\\Users\\Recepcion\\Documents\\GitHub\\NSY-DH\\Wo"
 5594      73657273 
 5594      5C526563 
 5594      65706369 
 5594      6F6E5C44 
 5595 07d8 726B7370 		.ascii	"rkspace01\\Design01.cydsn\000"
 5595      61636530 
 5595      315C4465 
 5595      7369676E 
 5595      30312E63 
 5596              	.LASF144:
 5597 07f1 74656D70 		.ascii	"temporal\000"
 5597      6F72616C 
 5597      00
 5598              	.LASF100:
 5599 07fa 73746174 		.ascii	"state\000"
 5599      6500
 5600              	.LASF36:
 5601 0800 70726573 		.ascii	"presetType\000"
ARM GAS  C:\Users\RECEPC~1\AppData\Local\Temp\ccdPVhXF.s 			page 118


 5601      65745479 
 5601      706500
 5602              	.LASF66:
 5603 080b 70726963 		.ascii	"priceUnitMarket\000"
 5603      65556E69 
 5603      744D6172 
 5603      6B657400 
 5604              	.LASF148:
 5605 081b 74797065 		.ascii	"typeIdSeller\000"
 5605      49645365 
 5605      6C6C6572 
 5605      00
 5606              	.LASF78:
 5607 0828 766F6C75 		.ascii	"volumeSale\000"
 5607      6D655361 
 5607      6C6500
 5608              	.LASF106:
 5609 0833 50726573 		.ascii	"PresetData\000"
 5609      65744461 
 5609      746100
 5610              	.LASF0:
 5611 083e 7369676E 		.ascii	"signed char\000"
 5611      65642063 
 5611      68617200 
 5612              	.LASF3:
 5613 084a 73686F72 		.ascii	"short unsigned int\000"
 5613      7420756E 
 5613      7369676E 
 5613      65642069 
 5613      6E7400
 5614              	.LASF121:
 5615 085d 636F756E 		.ascii	"countPump\000"
 5615      7450756D 
 5615      7000
 5616              	.LASF80:
 5617 0867 70726F64 		.ascii	"productSale\000"
 5617      75637453 
 5617      616C6500 
 5618              	.LASF13:
 5619 0873 75696E74 		.ascii	"uint8\000"
 5619      3800
 5620              	.LASF17:
 5621 0879 646F7562 		.ascii	"double\000"
 5621      6C6500
 5622              	.LASF25:
 5623 0880 77617954 		.ascii	"wayToPay\000"
 5623      6F506179 
 5623      00
 5624              	.LASF105:
 5625 0889 5F706275 		.ascii	"_pbuffer\000"
 5625      66666572 
 5625      00
 5626              	.LASF108:
 5627 0892 67726164 		.ascii	"grade\000"
 5627      6500
 5628              	.LASF42:
 5629 0898 74696D65 		.ascii	"timeLiftHandle\000"
ARM GAS  C:\Users\RECEPC~1\AppData\Local\Temp\ccdPVhXF.s 			page 119


 5629      4C696674 
 5629      48616E64 
 5629      6C6500
 5630              	.LASF76:
 5631 08a7 70707541 		.ascii	"ppuAuthorized\000"
 5631      7574686F 
 5631      72697A65 
 5631      6400
 5632              	.LASF29:
 5633 08b5 73657269 		.ascii	"serialSelectedSale\000"
 5633      616C5365 
 5633      6C656374 
 5633      65645361 
 5633      6C6500
 5634              	.LASF74:
 5635 08c8 706F7369 		.ascii	"position\000"
 5635      74696F6E 
 5635      00
 5636              	.LASF163:
 5637 08d1 62756666 		.ascii	"bufferDisplay1\000"
 5637      65724469 
 5637      73706C61 
 5637      793100
 5638              		.ident	"GCC: (GNU Tools for ARM Embedded Processors) 4.9.3 20150303 (release) [ARM/embedded-4_9-br
