ARM GAS  C:\Users\Diego\AppData\Local\Temp\ccmnqHZ6.s 			page 1


   1              		.syntax unified
   2              		.cpu cortex-m3
   3              		.fpu softvfp
   4              		.eabi_attribute 20, 1
   5              		.eabi_attribute 21, 1
   6              		.eabi_attribute 23, 3
   7              		.eabi_attribute 24, 1
   8              		.eabi_attribute 25, 1
   9              		.eabi_attribute 26, 1
  10              		.eabi_attribute 30, 1
  11              		.eabi_attribute 34, 1
  12              		.eabi_attribute 18, 4
  13              		.thumb
  14              		.file	"RF_Connection.c"
  15              		.text
  16              	.Ltext0:
  17              		.cfi_sections	.debug_frame
  18              		.section	.text.RF_Connection_Enable,"ax",%progbits
  19              		.align	2
  20              		.global	RF_Connection_Enable
  21              		.thumb
  22              		.thumb_func
  23              		.type	RF_Connection_Enable, %function
  24              	RF_Connection_Enable:
  25              	.LFB2:
  26              		.file 1 ".\\Generated_Source\\PSoC5\\RF_Connection.c"
   1:.\Generated_Source\PSoC5/RF_Connection.c **** /*******************************************************************************
   2:.\Generated_Source\PSoC5/RF_Connection.c **** * File Name: RF_Connection.c
   3:.\Generated_Source\PSoC5/RF_Connection.c **** * Version 2.50
   4:.\Generated_Source\PSoC5/RF_Connection.c **** *
   5:.\Generated_Source\PSoC5/RF_Connection.c **** * Description:
   6:.\Generated_Source\PSoC5/RF_Connection.c **** *  This file provides all API functionality of the UART component
   7:.\Generated_Source\PSoC5/RF_Connection.c **** *
   8:.\Generated_Source\PSoC5/RF_Connection.c **** * Note:
   9:.\Generated_Source\PSoC5/RF_Connection.c **** *
  10:.\Generated_Source\PSoC5/RF_Connection.c **** ********************************************************************************
  11:.\Generated_Source\PSoC5/RF_Connection.c **** * Copyright 2008-2015, Cypress Semiconductor Corporation.  All rights reserved.
  12:.\Generated_Source\PSoC5/RF_Connection.c **** * You may use this file only in accordance with the license, terms, conditions,
  13:.\Generated_Source\PSoC5/RF_Connection.c **** * disclaimers, and limitations in the end user license agreement accompanying
  14:.\Generated_Source\PSoC5/RF_Connection.c **** * the software package with which this file was provided.
  15:.\Generated_Source\PSoC5/RF_Connection.c **** *******************************************************************************/
  16:.\Generated_Source\PSoC5/RF_Connection.c **** 
  17:.\Generated_Source\PSoC5/RF_Connection.c **** #include "RF_Connection.h"
  18:.\Generated_Source\PSoC5/RF_Connection.c **** #if (RF_Connection_INTERNAL_CLOCK_USED)
  19:.\Generated_Source\PSoC5/RF_Connection.c ****     #include "RF_Connection_IntClock.h"
  20:.\Generated_Source\PSoC5/RF_Connection.c **** #endif /* End RF_Connection_INTERNAL_CLOCK_USED */
  21:.\Generated_Source\PSoC5/RF_Connection.c **** 
  22:.\Generated_Source\PSoC5/RF_Connection.c **** 
  23:.\Generated_Source\PSoC5/RF_Connection.c **** /***************************************
  24:.\Generated_Source\PSoC5/RF_Connection.c **** * Global data allocation
  25:.\Generated_Source\PSoC5/RF_Connection.c **** ***************************************/
  26:.\Generated_Source\PSoC5/RF_Connection.c **** 
  27:.\Generated_Source\PSoC5/RF_Connection.c **** uint8 RF_Connection_initVar = 0u;
  28:.\Generated_Source\PSoC5/RF_Connection.c **** 
  29:.\Generated_Source\PSoC5/RF_Connection.c **** #if (RF_Connection_TX_INTERRUPT_ENABLED && RF_Connection_TX_ENABLED)
  30:.\Generated_Source\PSoC5/RF_Connection.c ****     volatile uint8 RF_Connection_txBuffer[RF_Connection_TX_BUFFER_SIZE];
  31:.\Generated_Source\PSoC5/RF_Connection.c ****     volatile uint8 RF_Connection_txBufferRead = 0u;
ARM GAS  C:\Users\Diego\AppData\Local\Temp\ccmnqHZ6.s 			page 2


  32:.\Generated_Source\PSoC5/RF_Connection.c ****     uint8 RF_Connection_txBufferWrite = 0u;
  33:.\Generated_Source\PSoC5/RF_Connection.c **** #endif /* (RF_Connection_TX_INTERRUPT_ENABLED && RF_Connection_TX_ENABLED) */
  34:.\Generated_Source\PSoC5/RF_Connection.c **** 
  35:.\Generated_Source\PSoC5/RF_Connection.c **** #if (RF_Connection_RX_INTERRUPT_ENABLED && (RF_Connection_RX_ENABLED || RF_Connection_HD_ENABLED))
  36:.\Generated_Source\PSoC5/RF_Connection.c ****     uint8 RF_Connection_errorStatus = 0u;
  37:.\Generated_Source\PSoC5/RF_Connection.c ****     volatile uint8 RF_Connection_rxBuffer[RF_Connection_RX_BUFFER_SIZE];
  38:.\Generated_Source\PSoC5/RF_Connection.c ****     volatile uint16 RF_Connection_rxBufferRead  = 0u;
  39:.\Generated_Source\PSoC5/RF_Connection.c ****     volatile uint16 RF_Connection_rxBufferWrite = 0u;
  40:.\Generated_Source\PSoC5/RF_Connection.c ****     volatile uint8 RF_Connection_rxBufferLoopDetect = 0u;
  41:.\Generated_Source\PSoC5/RF_Connection.c ****     volatile uint8 RF_Connection_rxBufferOverflow   = 0u;
  42:.\Generated_Source\PSoC5/RF_Connection.c ****     #if (RF_Connection_RXHW_ADDRESS_ENABLED)
  43:.\Generated_Source\PSoC5/RF_Connection.c ****         volatile uint8 RF_Connection_rxAddressMode = RF_Connection_RX_ADDRESS_MODE;
  44:.\Generated_Source\PSoC5/RF_Connection.c ****         volatile uint8 RF_Connection_rxAddressDetected = 0u;
  45:.\Generated_Source\PSoC5/RF_Connection.c ****     #endif /* (RF_Connection_RXHW_ADDRESS_ENABLED) */
  46:.\Generated_Source\PSoC5/RF_Connection.c **** #endif /* (RF_Connection_RX_INTERRUPT_ENABLED && (RF_Connection_RX_ENABLED || RF_Connection_HD_ENAB
  47:.\Generated_Source\PSoC5/RF_Connection.c **** 
  48:.\Generated_Source\PSoC5/RF_Connection.c **** 
  49:.\Generated_Source\PSoC5/RF_Connection.c **** /*******************************************************************************
  50:.\Generated_Source\PSoC5/RF_Connection.c **** * Function Name: RF_Connection_Start
  51:.\Generated_Source\PSoC5/RF_Connection.c **** ********************************************************************************
  52:.\Generated_Source\PSoC5/RF_Connection.c **** *
  53:.\Generated_Source\PSoC5/RF_Connection.c **** * Summary:
  54:.\Generated_Source\PSoC5/RF_Connection.c **** *  This is the preferred method to begin component operation.
  55:.\Generated_Source\PSoC5/RF_Connection.c **** *  RF_Connection_Start() sets the initVar variable, calls the
  56:.\Generated_Source\PSoC5/RF_Connection.c **** *  RF_Connection_Init() function, and then calls the
  57:.\Generated_Source\PSoC5/RF_Connection.c **** *  RF_Connection_Enable() function.
  58:.\Generated_Source\PSoC5/RF_Connection.c **** *
  59:.\Generated_Source\PSoC5/RF_Connection.c **** * Parameters:
  60:.\Generated_Source\PSoC5/RF_Connection.c **** *  None.
  61:.\Generated_Source\PSoC5/RF_Connection.c **** *
  62:.\Generated_Source\PSoC5/RF_Connection.c **** * Return:
  63:.\Generated_Source\PSoC5/RF_Connection.c **** *  None.
  64:.\Generated_Source\PSoC5/RF_Connection.c **** *
  65:.\Generated_Source\PSoC5/RF_Connection.c **** * Global variables:
  66:.\Generated_Source\PSoC5/RF_Connection.c **** *  The RF_Connection_intiVar variable is used to indicate initial
  67:.\Generated_Source\PSoC5/RF_Connection.c **** *  configuration of this component. The variable is initialized to zero (0u)
  68:.\Generated_Source\PSoC5/RF_Connection.c **** *  and set to one (1u) the first time RF_Connection_Start() is called. This
  69:.\Generated_Source\PSoC5/RF_Connection.c **** *  allows for component initialization without re-initialization in all
  70:.\Generated_Source\PSoC5/RF_Connection.c **** *  subsequent calls to the RF_Connection_Start() routine.
  71:.\Generated_Source\PSoC5/RF_Connection.c **** *
  72:.\Generated_Source\PSoC5/RF_Connection.c **** * Reentrant:
  73:.\Generated_Source\PSoC5/RF_Connection.c **** *  No.
  74:.\Generated_Source\PSoC5/RF_Connection.c **** *
  75:.\Generated_Source\PSoC5/RF_Connection.c **** *******************************************************************************/
  76:.\Generated_Source\PSoC5/RF_Connection.c **** void RF_Connection_Start(void) 
  77:.\Generated_Source\PSoC5/RF_Connection.c **** {
  78:.\Generated_Source\PSoC5/RF_Connection.c ****     /* If not initialized then initialize all required hardware and software */
  79:.\Generated_Source\PSoC5/RF_Connection.c ****     if(RF_Connection_initVar == 0u)
  80:.\Generated_Source\PSoC5/RF_Connection.c ****     {
  81:.\Generated_Source\PSoC5/RF_Connection.c ****         RF_Connection_Init();
  82:.\Generated_Source\PSoC5/RF_Connection.c ****         RF_Connection_initVar = 1u;
  83:.\Generated_Source\PSoC5/RF_Connection.c ****     }
  84:.\Generated_Source\PSoC5/RF_Connection.c **** 
  85:.\Generated_Source\PSoC5/RF_Connection.c ****     RF_Connection_Enable();
  86:.\Generated_Source\PSoC5/RF_Connection.c **** }
  87:.\Generated_Source\PSoC5/RF_Connection.c **** 
  88:.\Generated_Source\PSoC5/RF_Connection.c **** 
ARM GAS  C:\Users\Diego\AppData\Local\Temp\ccmnqHZ6.s 			page 3


  89:.\Generated_Source\PSoC5/RF_Connection.c **** /*******************************************************************************
  90:.\Generated_Source\PSoC5/RF_Connection.c **** * Function Name: RF_Connection_Init
  91:.\Generated_Source\PSoC5/RF_Connection.c **** ********************************************************************************
  92:.\Generated_Source\PSoC5/RF_Connection.c **** *
  93:.\Generated_Source\PSoC5/RF_Connection.c **** * Summary:
  94:.\Generated_Source\PSoC5/RF_Connection.c **** *  Initializes or restores the component according to the customizer Configure
  95:.\Generated_Source\PSoC5/RF_Connection.c **** *  dialog settings. It is not necessary to call RF_Connection_Init() because
  96:.\Generated_Source\PSoC5/RF_Connection.c **** *  the RF_Connection_Start() API calls this function and is the preferred
  97:.\Generated_Source\PSoC5/RF_Connection.c **** *  method to begin component operation.
  98:.\Generated_Source\PSoC5/RF_Connection.c **** *
  99:.\Generated_Source\PSoC5/RF_Connection.c **** * Parameters:
 100:.\Generated_Source\PSoC5/RF_Connection.c **** *  None.
 101:.\Generated_Source\PSoC5/RF_Connection.c **** *
 102:.\Generated_Source\PSoC5/RF_Connection.c **** * Return:
 103:.\Generated_Source\PSoC5/RF_Connection.c **** *  None.
 104:.\Generated_Source\PSoC5/RF_Connection.c **** *
 105:.\Generated_Source\PSoC5/RF_Connection.c **** *******************************************************************************/
 106:.\Generated_Source\PSoC5/RF_Connection.c **** void RF_Connection_Init(void) 
 107:.\Generated_Source\PSoC5/RF_Connection.c **** {
 108:.\Generated_Source\PSoC5/RF_Connection.c ****     #if(RF_Connection_RX_ENABLED || RF_Connection_HD_ENABLED)
 109:.\Generated_Source\PSoC5/RF_Connection.c **** 
 110:.\Generated_Source\PSoC5/RF_Connection.c ****         #if (RF_Connection_RX_INTERRUPT_ENABLED)
 111:.\Generated_Source\PSoC5/RF_Connection.c ****             /* Set RX interrupt vector and priority */
 112:.\Generated_Source\PSoC5/RF_Connection.c ****             (void) CyIntSetVector(RF_Connection_RX_VECT_NUM, &RF_Connection_RXISR);
 113:.\Generated_Source\PSoC5/RF_Connection.c ****             CyIntSetPriority(RF_Connection_RX_VECT_NUM, RF_Connection_RX_PRIOR_NUM);
 114:.\Generated_Source\PSoC5/RF_Connection.c ****             RF_Connection_errorStatus = 0u;
 115:.\Generated_Source\PSoC5/RF_Connection.c ****         #endif /* (RF_Connection_RX_INTERRUPT_ENABLED) */
 116:.\Generated_Source\PSoC5/RF_Connection.c **** 
 117:.\Generated_Source\PSoC5/RF_Connection.c ****         #if (RF_Connection_RXHW_ADDRESS_ENABLED)
 118:.\Generated_Source\PSoC5/RF_Connection.c ****             RF_Connection_SetRxAddressMode(RF_Connection_RX_ADDRESS_MODE);
 119:.\Generated_Source\PSoC5/RF_Connection.c ****             RF_Connection_SetRxAddress1(RF_Connection_RX_HW_ADDRESS1);
 120:.\Generated_Source\PSoC5/RF_Connection.c ****             RF_Connection_SetRxAddress2(RF_Connection_RX_HW_ADDRESS2);
 121:.\Generated_Source\PSoC5/RF_Connection.c ****         #endif /* End RF_Connection_RXHW_ADDRESS_ENABLED */
 122:.\Generated_Source\PSoC5/RF_Connection.c **** 
 123:.\Generated_Source\PSoC5/RF_Connection.c ****         /* Init Count7 period */
 124:.\Generated_Source\PSoC5/RF_Connection.c ****         RF_Connection_RXBITCTR_PERIOD_REG = RF_Connection_RXBITCTR_INIT;
 125:.\Generated_Source\PSoC5/RF_Connection.c ****         /* Configure the Initial RX interrupt mask */
 126:.\Generated_Source\PSoC5/RF_Connection.c ****         RF_Connection_RXSTATUS_MASK_REG  = RF_Connection_INIT_RX_INTERRUPTS_MASK;
 127:.\Generated_Source\PSoC5/RF_Connection.c ****     #endif /* End RF_Connection_RX_ENABLED || RF_Connection_HD_ENABLED*/
 128:.\Generated_Source\PSoC5/RF_Connection.c **** 
 129:.\Generated_Source\PSoC5/RF_Connection.c ****     #if(RF_Connection_TX_ENABLED)
 130:.\Generated_Source\PSoC5/RF_Connection.c ****         #if (RF_Connection_TX_INTERRUPT_ENABLED)
 131:.\Generated_Source\PSoC5/RF_Connection.c ****             /* Set TX interrupt vector and priority */
 132:.\Generated_Source\PSoC5/RF_Connection.c ****             (void) CyIntSetVector(RF_Connection_TX_VECT_NUM, &RF_Connection_TXISR);
 133:.\Generated_Source\PSoC5/RF_Connection.c ****             CyIntSetPriority(RF_Connection_TX_VECT_NUM, RF_Connection_TX_PRIOR_NUM);
 134:.\Generated_Source\PSoC5/RF_Connection.c ****         #endif /* (RF_Connection_TX_INTERRUPT_ENABLED) */
 135:.\Generated_Source\PSoC5/RF_Connection.c **** 
 136:.\Generated_Source\PSoC5/RF_Connection.c ****         /* Write Counter Value for TX Bit Clk Generator*/
 137:.\Generated_Source\PSoC5/RF_Connection.c ****         #if (RF_Connection_TXCLKGEN_DP)
 138:.\Generated_Source\PSoC5/RF_Connection.c ****             RF_Connection_TXBITCLKGEN_CTR_REG = RF_Connection_BIT_CENTER;
 139:.\Generated_Source\PSoC5/RF_Connection.c ****             RF_Connection_TXBITCLKTX_COMPLETE_REG = ((RF_Connection_NUMBER_OF_DATA_BITS +
 140:.\Generated_Source\PSoC5/RF_Connection.c ****                         RF_Connection_NUMBER_OF_START_BIT) * RF_Connection_OVER_SAMPLE_COUNT) - 1u;
 141:.\Generated_Source\PSoC5/RF_Connection.c ****         #else
 142:.\Generated_Source\PSoC5/RF_Connection.c ****             RF_Connection_TXBITCTR_PERIOD_REG = ((RF_Connection_NUMBER_OF_DATA_BITS +
 143:.\Generated_Source\PSoC5/RF_Connection.c ****                         RF_Connection_NUMBER_OF_START_BIT) * RF_Connection_OVER_SAMPLE_8) - 1u;
 144:.\Generated_Source\PSoC5/RF_Connection.c ****         #endif /* End RF_Connection_TXCLKGEN_DP */
 145:.\Generated_Source\PSoC5/RF_Connection.c **** 
ARM GAS  C:\Users\Diego\AppData\Local\Temp\ccmnqHZ6.s 			page 4


 146:.\Generated_Source\PSoC5/RF_Connection.c ****         /* Configure the Initial TX interrupt mask */
 147:.\Generated_Source\PSoC5/RF_Connection.c ****         #if (RF_Connection_TX_INTERRUPT_ENABLED)
 148:.\Generated_Source\PSoC5/RF_Connection.c ****             RF_Connection_TXSTATUS_MASK_REG = RF_Connection_TX_STS_FIFO_EMPTY;
 149:.\Generated_Source\PSoC5/RF_Connection.c ****         #else
 150:.\Generated_Source\PSoC5/RF_Connection.c ****             RF_Connection_TXSTATUS_MASK_REG = RF_Connection_INIT_TX_INTERRUPTS_MASK;
 151:.\Generated_Source\PSoC5/RF_Connection.c ****         #endif /*End RF_Connection_TX_INTERRUPT_ENABLED*/
 152:.\Generated_Source\PSoC5/RF_Connection.c **** 
 153:.\Generated_Source\PSoC5/RF_Connection.c ****     #endif /* End RF_Connection_TX_ENABLED */
 154:.\Generated_Source\PSoC5/RF_Connection.c **** 
 155:.\Generated_Source\PSoC5/RF_Connection.c ****     #if(RF_Connection_PARITY_TYPE_SW)  /* Write Parity to Control Register */
 156:.\Generated_Source\PSoC5/RF_Connection.c ****         RF_Connection_WriteControlRegister( \
 157:.\Generated_Source\PSoC5/RF_Connection.c ****             (RF_Connection_ReadControlRegister() & (uint8)~RF_Connection_CTRL_PARITY_TYPE_MASK) | \
 158:.\Generated_Source\PSoC5/RF_Connection.c ****             (uint8)(RF_Connection_PARITY_TYPE << RF_Connection_CTRL_PARITY_TYPE0_SHIFT) );
 159:.\Generated_Source\PSoC5/RF_Connection.c ****     #endif /* End RF_Connection_PARITY_TYPE_SW */
 160:.\Generated_Source\PSoC5/RF_Connection.c **** }
 161:.\Generated_Source\PSoC5/RF_Connection.c **** 
 162:.\Generated_Source\PSoC5/RF_Connection.c **** 
 163:.\Generated_Source\PSoC5/RF_Connection.c **** /*******************************************************************************
 164:.\Generated_Source\PSoC5/RF_Connection.c **** * Function Name: RF_Connection_Enable
 165:.\Generated_Source\PSoC5/RF_Connection.c **** ********************************************************************************
 166:.\Generated_Source\PSoC5/RF_Connection.c **** *
 167:.\Generated_Source\PSoC5/RF_Connection.c **** * Summary:
 168:.\Generated_Source\PSoC5/RF_Connection.c **** *  Activates the hardware and begins component operation. It is not necessary
 169:.\Generated_Source\PSoC5/RF_Connection.c **** *  to call RF_Connection_Enable() because the RF_Connection_Start() API
 170:.\Generated_Source\PSoC5/RF_Connection.c **** *  calls this function, which is the preferred method to begin component
 171:.\Generated_Source\PSoC5/RF_Connection.c **** *  operation.
 172:.\Generated_Source\PSoC5/RF_Connection.c **** 
 173:.\Generated_Source\PSoC5/RF_Connection.c **** * Parameters:
 174:.\Generated_Source\PSoC5/RF_Connection.c **** *  None.
 175:.\Generated_Source\PSoC5/RF_Connection.c **** *
 176:.\Generated_Source\PSoC5/RF_Connection.c **** * Return:
 177:.\Generated_Source\PSoC5/RF_Connection.c **** *  None.
 178:.\Generated_Source\PSoC5/RF_Connection.c **** *
 179:.\Generated_Source\PSoC5/RF_Connection.c **** * Global Variables:
 180:.\Generated_Source\PSoC5/RF_Connection.c **** *  RF_Connection_rxAddressDetected - set to initial state (0).
 181:.\Generated_Source\PSoC5/RF_Connection.c **** *
 182:.\Generated_Source\PSoC5/RF_Connection.c **** *******************************************************************************/
 183:.\Generated_Source\PSoC5/RF_Connection.c **** void RF_Connection_Enable(void) 
 184:.\Generated_Source\PSoC5/RF_Connection.c **** {
  27              		.loc 1 184 0
  28              		.cfi_startproc
  29              		@ args = 0, pretend = 0, frame = 0
  30              		@ frame_needed = 0, uses_anonymous_args = 0
  31 0000 10B5     		push	{r4, lr}
  32              		.cfi_def_cfa_offset 8
  33              		.cfi_offset 4, -8
  34              		.cfi_offset 14, -4
 185:.\Generated_Source\PSoC5/RF_Connection.c ****     uint8 enableInterrupts;
 186:.\Generated_Source\PSoC5/RF_Connection.c ****     enableInterrupts = CyEnterCriticalSection();
  35              		.loc 1 186 0
  36 0002 FFF7FEFF 		bl	CyEnterCriticalSection
  37              	.LVL0:
  38 0006 0446     		mov	r4, r0
  39              	.LVL1:
 187:.\Generated_Source\PSoC5/RF_Connection.c **** 
 188:.\Generated_Source\PSoC5/RF_Connection.c ****     #if (RF_Connection_RX_ENABLED || RF_Connection_HD_ENABLED)
 189:.\Generated_Source\PSoC5/RF_Connection.c ****         /* RX Counter (Count7) Enable */
ARM GAS  C:\Users\Diego\AppData\Local\Temp\ccmnqHZ6.s 			page 5


 190:.\Generated_Source\PSoC5/RF_Connection.c ****         RF_Connection_RXBITCTR_CONTROL_REG |= RF_Connection_CNTR_ENABLE;
  40              		.loc 1 190 0
  41 0008 0B4A     		ldr	r2, .L3
  42 000a 1378     		ldrb	r3, [r2]	@ zero_extendqisi2
  43 000c 43F02003 		orr	r3, r3, #32
  44 0010 1370     		strb	r3, [r2]
 191:.\Generated_Source\PSoC5/RF_Connection.c **** 
 192:.\Generated_Source\PSoC5/RF_Connection.c ****         /* Enable the RX Interrupt */
 193:.\Generated_Source\PSoC5/RF_Connection.c ****         RF_Connection_RXSTATUS_ACTL_REG  |= RF_Connection_INT_ENABLE;
  45              		.loc 1 193 0
  46 0012 013A     		subs	r2, r2, #1
  47 0014 1378     		ldrb	r3, [r2]	@ zero_extendqisi2
  48 0016 43F01003 		orr	r3, r3, #16
  49 001a 1370     		strb	r3, [r2]
 194:.\Generated_Source\PSoC5/RF_Connection.c **** 
 195:.\Generated_Source\PSoC5/RF_Connection.c ****         #if (RF_Connection_RX_INTERRUPT_ENABLED)
 196:.\Generated_Source\PSoC5/RF_Connection.c ****             RF_Connection_EnableRxInt();
  50              		.loc 1 196 0
  51 001c 0822     		movs	r2, #8
  52 001e 074B     		ldr	r3, .L3+4
  53 0020 1A60     		str	r2, [r3]
 197:.\Generated_Source\PSoC5/RF_Connection.c **** 
 198:.\Generated_Source\PSoC5/RF_Connection.c ****             #if (RF_Connection_RXHW_ADDRESS_ENABLED)
 199:.\Generated_Source\PSoC5/RF_Connection.c ****                 RF_Connection_rxAddressDetected = 0u;
 200:.\Generated_Source\PSoC5/RF_Connection.c ****             #endif /* (RF_Connection_RXHW_ADDRESS_ENABLED) */
 201:.\Generated_Source\PSoC5/RF_Connection.c ****         #endif /* (RF_Connection_RX_INTERRUPT_ENABLED) */
 202:.\Generated_Source\PSoC5/RF_Connection.c ****     #endif /* (RF_Connection_RX_ENABLED || RF_Connection_HD_ENABLED) */
 203:.\Generated_Source\PSoC5/RF_Connection.c **** 
 204:.\Generated_Source\PSoC5/RF_Connection.c ****     #if(RF_Connection_TX_ENABLED)
 205:.\Generated_Source\PSoC5/RF_Connection.c ****         /* TX Counter (DP/Count7) Enable */
 206:.\Generated_Source\PSoC5/RF_Connection.c ****         #if(!RF_Connection_TXCLKGEN_DP)
 207:.\Generated_Source\PSoC5/RF_Connection.c ****             RF_Connection_TXBITCTR_CONTROL_REG |= RF_Connection_CNTR_ENABLE;
 208:.\Generated_Source\PSoC5/RF_Connection.c ****         #endif /* End RF_Connection_TXCLKGEN_DP */
 209:.\Generated_Source\PSoC5/RF_Connection.c **** 
 210:.\Generated_Source\PSoC5/RF_Connection.c ****         /* Enable the TX Interrupt */
 211:.\Generated_Source\PSoC5/RF_Connection.c ****         RF_Connection_TXSTATUS_ACTL_REG |= RF_Connection_INT_ENABLE;
  54              		.loc 1 211 0
  55 0022 074A     		ldr	r2, .L3+8
  56 0024 1378     		ldrb	r3, [r2]	@ zero_extendqisi2
  57 0026 43F01003 		orr	r3, r3, #16
  58 002a 1370     		strb	r3, [r2]
 212:.\Generated_Source\PSoC5/RF_Connection.c ****         #if (RF_Connection_TX_INTERRUPT_ENABLED)
 213:.\Generated_Source\PSoC5/RF_Connection.c ****             RF_Connection_ClearPendingTxInt(); /* Clear history of TX_NOT_EMPTY */
 214:.\Generated_Source\PSoC5/RF_Connection.c ****             RF_Connection_EnableTxInt();
 215:.\Generated_Source\PSoC5/RF_Connection.c ****         #endif /* (RF_Connection_TX_INTERRUPT_ENABLED) */
 216:.\Generated_Source\PSoC5/RF_Connection.c ****      #endif /* (RF_Connection_TX_INTERRUPT_ENABLED) */
 217:.\Generated_Source\PSoC5/RF_Connection.c **** 
 218:.\Generated_Source\PSoC5/RF_Connection.c ****     #if (RF_Connection_INTERNAL_CLOCK_USED)
 219:.\Generated_Source\PSoC5/RF_Connection.c ****         RF_Connection_IntClock_Start();  /* Enable the clock */
  59              		.loc 1 219 0
  60 002c FFF7FEFF 		bl	RF_Connection_IntClock_Start
  61              	.LVL2:
 220:.\Generated_Source\PSoC5/RF_Connection.c ****     #endif /* (RF_Connection_INTERNAL_CLOCK_USED) */
 221:.\Generated_Source\PSoC5/RF_Connection.c **** 
 222:.\Generated_Source\PSoC5/RF_Connection.c ****     CyExitCriticalSection(enableInterrupts);
  62              		.loc 1 222 0
  63 0030 2046     		mov	r0, r4
ARM GAS  C:\Users\Diego\AppData\Local\Temp\ccmnqHZ6.s 			page 6


  64 0032 FFF7FEFF 		bl	CyExitCriticalSection
  65              	.LVL3:
  66 0036 10BD     		pop	{r4, pc}
  67              	.LVL4:
  68              	.L4:
  69              		.align	2
  70              	.L3:
  71 0038 9E640040 		.word	1073767582
  72 003c 00E100E0 		.word	-536813312
  73 0040 93640040 		.word	1073767571
  74              		.cfi_endproc
  75              	.LFE2:
  76              		.size	RF_Connection_Enable, .-RF_Connection_Enable
  77              		.section	.text.RF_Connection_Stop,"ax",%progbits
  78              		.align	2
  79              		.global	RF_Connection_Stop
  80              		.thumb
  81              		.thumb_func
  82              		.type	RF_Connection_Stop, %function
  83              	RF_Connection_Stop:
  84              	.LFB3:
 223:.\Generated_Source\PSoC5/RF_Connection.c **** }
 224:.\Generated_Source\PSoC5/RF_Connection.c **** 
 225:.\Generated_Source\PSoC5/RF_Connection.c **** 
 226:.\Generated_Source\PSoC5/RF_Connection.c **** /*******************************************************************************
 227:.\Generated_Source\PSoC5/RF_Connection.c **** * Function Name: RF_Connection_Stop
 228:.\Generated_Source\PSoC5/RF_Connection.c **** ********************************************************************************
 229:.\Generated_Source\PSoC5/RF_Connection.c **** *
 230:.\Generated_Source\PSoC5/RF_Connection.c **** * Summary:
 231:.\Generated_Source\PSoC5/RF_Connection.c **** *  Disables the UART operation.
 232:.\Generated_Source\PSoC5/RF_Connection.c **** *
 233:.\Generated_Source\PSoC5/RF_Connection.c **** * Parameters:
 234:.\Generated_Source\PSoC5/RF_Connection.c **** *  None.
 235:.\Generated_Source\PSoC5/RF_Connection.c **** *
 236:.\Generated_Source\PSoC5/RF_Connection.c **** * Return:
 237:.\Generated_Source\PSoC5/RF_Connection.c **** *  None.
 238:.\Generated_Source\PSoC5/RF_Connection.c **** *
 239:.\Generated_Source\PSoC5/RF_Connection.c **** *******************************************************************************/
 240:.\Generated_Source\PSoC5/RF_Connection.c **** void RF_Connection_Stop(void) 
 241:.\Generated_Source\PSoC5/RF_Connection.c **** {
  85              		.loc 1 241 0
  86              		.cfi_startproc
  87              		@ args = 0, pretend = 0, frame = 0
  88              		@ frame_needed = 0, uses_anonymous_args = 0
  89 0000 10B5     		push	{r4, lr}
  90              		.cfi_def_cfa_offset 8
  91              		.cfi_offset 4, -8
  92              		.cfi_offset 14, -4
 242:.\Generated_Source\PSoC5/RF_Connection.c ****     uint8 enableInterrupts;
 243:.\Generated_Source\PSoC5/RF_Connection.c ****     enableInterrupts = CyEnterCriticalSection();
  93              		.loc 1 243 0
  94 0002 FFF7FEFF 		bl	CyEnterCriticalSection
  95              	.LVL5:
  96 0006 0446     		mov	r4, r0
  97              	.LVL6:
 244:.\Generated_Source\PSoC5/RF_Connection.c **** 
 245:.\Generated_Source\PSoC5/RF_Connection.c ****     /* Write Bit Counter Disable */
ARM GAS  C:\Users\Diego\AppData\Local\Temp\ccmnqHZ6.s 			page 7


 246:.\Generated_Source\PSoC5/RF_Connection.c ****     #if (RF_Connection_RX_ENABLED || RF_Connection_HD_ENABLED)
 247:.\Generated_Source\PSoC5/RF_Connection.c ****         RF_Connection_RXBITCTR_CONTROL_REG &= (uint8) ~RF_Connection_CNTR_ENABLE;
  98              		.loc 1 247 0
  99 0008 0B4A     		ldr	r2, .L7
 100 000a 1378     		ldrb	r3, [r2]	@ zero_extendqisi2
 101 000c 03F0DF03 		and	r3, r3, #223
 102 0010 1370     		strb	r3, [r2]
 248:.\Generated_Source\PSoC5/RF_Connection.c ****     #endif /* (RF_Connection_RX_ENABLED || RF_Connection_HD_ENABLED) */
 249:.\Generated_Source\PSoC5/RF_Connection.c **** 
 250:.\Generated_Source\PSoC5/RF_Connection.c ****     #if (RF_Connection_TX_ENABLED)
 251:.\Generated_Source\PSoC5/RF_Connection.c ****         #if(!RF_Connection_TXCLKGEN_DP)
 252:.\Generated_Source\PSoC5/RF_Connection.c ****             RF_Connection_TXBITCTR_CONTROL_REG &= (uint8) ~RF_Connection_CNTR_ENABLE;
 253:.\Generated_Source\PSoC5/RF_Connection.c ****         #endif /* (!RF_Connection_TXCLKGEN_DP) */
 254:.\Generated_Source\PSoC5/RF_Connection.c ****     #endif /* (RF_Connection_TX_ENABLED) */
 255:.\Generated_Source\PSoC5/RF_Connection.c **** 
 256:.\Generated_Source\PSoC5/RF_Connection.c ****     #if (RF_Connection_INTERNAL_CLOCK_USED)
 257:.\Generated_Source\PSoC5/RF_Connection.c ****         RF_Connection_IntClock_Stop();   /* Disable the clock */
 103              		.loc 1 257 0
 104 0012 FFF7FEFF 		bl	RF_Connection_IntClock_Stop
 105              	.LVL7:
 258:.\Generated_Source\PSoC5/RF_Connection.c ****     #endif /* (RF_Connection_INTERNAL_CLOCK_USED) */
 259:.\Generated_Source\PSoC5/RF_Connection.c **** 
 260:.\Generated_Source\PSoC5/RF_Connection.c ****     /* Disable internal interrupt component */
 261:.\Generated_Source\PSoC5/RF_Connection.c ****     #if (RF_Connection_RX_ENABLED || RF_Connection_HD_ENABLED)
 262:.\Generated_Source\PSoC5/RF_Connection.c ****         RF_Connection_RXSTATUS_ACTL_REG  &= (uint8) ~RF_Connection_INT_ENABLE;
 106              		.loc 1 262 0
 107 0016 094A     		ldr	r2, .L7+4
 108 0018 1378     		ldrb	r3, [r2]	@ zero_extendqisi2
 109 001a 03F0EF03 		and	r3, r3, #239
 110 001e 1370     		strb	r3, [r2]
 263:.\Generated_Source\PSoC5/RF_Connection.c **** 
 264:.\Generated_Source\PSoC5/RF_Connection.c ****         #if (RF_Connection_RX_INTERRUPT_ENABLED)
 265:.\Generated_Source\PSoC5/RF_Connection.c ****             RF_Connection_DisableRxInt();
 111              		.loc 1 265 0
 112 0020 0822     		movs	r2, #8
 113 0022 074B     		ldr	r3, .L7+8
 114 0024 1A60     		str	r2, [r3]
 266:.\Generated_Source\PSoC5/RF_Connection.c ****         #endif /* (RF_Connection_RX_INTERRUPT_ENABLED) */
 267:.\Generated_Source\PSoC5/RF_Connection.c ****     #endif /* (RF_Connection_RX_ENABLED || RF_Connection_HD_ENABLED) */
 268:.\Generated_Source\PSoC5/RF_Connection.c **** 
 269:.\Generated_Source\PSoC5/RF_Connection.c ****     #if (RF_Connection_TX_ENABLED)
 270:.\Generated_Source\PSoC5/RF_Connection.c ****         RF_Connection_TXSTATUS_ACTL_REG &= (uint8) ~RF_Connection_INT_ENABLE;
 115              		.loc 1 270 0
 116 0026 074A     		ldr	r2, .L7+12
 117 0028 1378     		ldrb	r3, [r2]	@ zero_extendqisi2
 118 002a 03F0EF03 		and	r3, r3, #239
 119 002e 1370     		strb	r3, [r2]
 271:.\Generated_Source\PSoC5/RF_Connection.c **** 
 272:.\Generated_Source\PSoC5/RF_Connection.c ****         #if (RF_Connection_TX_INTERRUPT_ENABLED)
 273:.\Generated_Source\PSoC5/RF_Connection.c ****             RF_Connection_DisableTxInt();
 274:.\Generated_Source\PSoC5/RF_Connection.c ****         #endif /* (RF_Connection_TX_INTERRUPT_ENABLED) */
 275:.\Generated_Source\PSoC5/RF_Connection.c ****     #endif /* (RF_Connection_TX_ENABLED) */
 276:.\Generated_Source\PSoC5/RF_Connection.c **** 
 277:.\Generated_Source\PSoC5/RF_Connection.c ****     CyExitCriticalSection(enableInterrupts);
 120              		.loc 1 277 0
 121 0030 2046     		mov	r0, r4
 122 0032 FFF7FEFF 		bl	CyExitCriticalSection
ARM GAS  C:\Users\Diego\AppData\Local\Temp\ccmnqHZ6.s 			page 8


 123              	.LVL8:
 124 0036 10BD     		pop	{r4, pc}
 125              	.LVL9:
 126              	.L8:
 127              		.align	2
 128              	.L7:
 129 0038 9E640040 		.word	1073767582
 130 003c 9D640040 		.word	1073767581
 131 0040 80E100E0 		.word	-536813184
 132 0044 93640040 		.word	1073767571
 133              		.cfi_endproc
 134              	.LFE3:
 135              		.size	RF_Connection_Stop, .-RF_Connection_Stop
 136              		.section	.text.RF_Connection_ReadControlRegister,"ax",%progbits
 137              		.align	2
 138              		.global	RF_Connection_ReadControlRegister
 139              		.thumb
 140              		.thumb_func
 141              		.type	RF_Connection_ReadControlRegister, %function
 142              	RF_Connection_ReadControlRegister:
 143              	.LFB4:
 278:.\Generated_Source\PSoC5/RF_Connection.c **** }
 279:.\Generated_Source\PSoC5/RF_Connection.c **** 
 280:.\Generated_Source\PSoC5/RF_Connection.c **** 
 281:.\Generated_Source\PSoC5/RF_Connection.c **** /*******************************************************************************
 282:.\Generated_Source\PSoC5/RF_Connection.c **** * Function Name: RF_Connection_ReadControlRegister
 283:.\Generated_Source\PSoC5/RF_Connection.c **** ********************************************************************************
 284:.\Generated_Source\PSoC5/RF_Connection.c **** *
 285:.\Generated_Source\PSoC5/RF_Connection.c **** * Summary:
 286:.\Generated_Source\PSoC5/RF_Connection.c **** *  Returns the current value of the control register.
 287:.\Generated_Source\PSoC5/RF_Connection.c **** *
 288:.\Generated_Source\PSoC5/RF_Connection.c **** * Parameters:
 289:.\Generated_Source\PSoC5/RF_Connection.c **** *  None.
 290:.\Generated_Source\PSoC5/RF_Connection.c **** *
 291:.\Generated_Source\PSoC5/RF_Connection.c **** * Return:
 292:.\Generated_Source\PSoC5/RF_Connection.c **** *  Contents of the control register.
 293:.\Generated_Source\PSoC5/RF_Connection.c **** *
 294:.\Generated_Source\PSoC5/RF_Connection.c **** *******************************************************************************/
 295:.\Generated_Source\PSoC5/RF_Connection.c **** uint8 RF_Connection_ReadControlRegister(void) 
 296:.\Generated_Source\PSoC5/RF_Connection.c **** {
 144              		.loc 1 296 0
 145              		.cfi_startproc
 146              		@ args = 0, pretend = 0, frame = 0
 147              		@ frame_needed = 0, uses_anonymous_args = 0
 148              		@ link register save eliminated.
 297:.\Generated_Source\PSoC5/RF_Connection.c ****     #if (RF_Connection_CONTROL_REG_REMOVED)
 298:.\Generated_Source\PSoC5/RF_Connection.c ****         return(0u);
 299:.\Generated_Source\PSoC5/RF_Connection.c ****     #else
 300:.\Generated_Source\PSoC5/RF_Connection.c ****         return(RF_Connection_CONTROL_REG);
 149              		.loc 1 300 0
 150 0000 014B     		ldr	r3, .L10
 151 0002 1878     		ldrb	r0, [r3]	@ zero_extendqisi2
 301:.\Generated_Source\PSoC5/RF_Connection.c ****     #endif /* (RF_Connection_CONTROL_REG_REMOVED) */
 302:.\Generated_Source\PSoC5/RF_Connection.c **** }
 152              		.loc 1 302 0
 153 0004 7047     		bx	lr
 154              	.L11:
ARM GAS  C:\Users\Diego\AppData\Local\Temp\ccmnqHZ6.s 			page 9


 155 0006 00BF     		.align	2
 156              	.L10:
 157 0008 70640040 		.word	1073767536
 158              		.cfi_endproc
 159              	.LFE4:
 160              		.size	RF_Connection_ReadControlRegister, .-RF_Connection_ReadControlRegister
 161              		.section	.text.RF_Connection_WriteControlRegister,"ax",%progbits
 162              		.align	2
 163              		.global	RF_Connection_WriteControlRegister
 164              		.thumb
 165              		.thumb_func
 166              		.type	RF_Connection_WriteControlRegister, %function
 167              	RF_Connection_WriteControlRegister:
 168              	.LFB5:
 303:.\Generated_Source\PSoC5/RF_Connection.c **** 
 304:.\Generated_Source\PSoC5/RF_Connection.c **** 
 305:.\Generated_Source\PSoC5/RF_Connection.c **** /*******************************************************************************
 306:.\Generated_Source\PSoC5/RF_Connection.c **** * Function Name: RF_Connection_WriteControlRegister
 307:.\Generated_Source\PSoC5/RF_Connection.c **** ********************************************************************************
 308:.\Generated_Source\PSoC5/RF_Connection.c **** *
 309:.\Generated_Source\PSoC5/RF_Connection.c **** * Summary:
 310:.\Generated_Source\PSoC5/RF_Connection.c **** *  Writes an 8-bit value into the control register
 311:.\Generated_Source\PSoC5/RF_Connection.c **** *
 312:.\Generated_Source\PSoC5/RF_Connection.c **** * Parameters:
 313:.\Generated_Source\PSoC5/RF_Connection.c **** *  control:  control register value
 314:.\Generated_Source\PSoC5/RF_Connection.c **** *
 315:.\Generated_Source\PSoC5/RF_Connection.c **** * Return:
 316:.\Generated_Source\PSoC5/RF_Connection.c **** *  None.
 317:.\Generated_Source\PSoC5/RF_Connection.c **** *
 318:.\Generated_Source\PSoC5/RF_Connection.c **** *******************************************************************************/
 319:.\Generated_Source\PSoC5/RF_Connection.c **** void  RF_Connection_WriteControlRegister(uint8 control) 
 320:.\Generated_Source\PSoC5/RF_Connection.c **** {
 169              		.loc 1 320 0
 170              		.cfi_startproc
 171              		@ args = 0, pretend = 0, frame = 0
 172              		@ frame_needed = 0, uses_anonymous_args = 0
 173              		@ link register save eliminated.
 174              	.LVL10:
 321:.\Generated_Source\PSoC5/RF_Connection.c ****     #if (RF_Connection_CONTROL_REG_REMOVED)
 322:.\Generated_Source\PSoC5/RF_Connection.c ****         if(0u != control)
 323:.\Generated_Source\PSoC5/RF_Connection.c ****         {
 324:.\Generated_Source\PSoC5/RF_Connection.c ****             /* Suppress compiler warning */
 325:.\Generated_Source\PSoC5/RF_Connection.c ****         }
 326:.\Generated_Source\PSoC5/RF_Connection.c ****     #else
 327:.\Generated_Source\PSoC5/RF_Connection.c ****        RF_Connection_CONTROL_REG = control;
 175              		.loc 1 327 0
 176 0000 014B     		ldr	r3, .L13
 177 0002 1870     		strb	r0, [r3]
 178 0004 7047     		bx	lr
 179              	.L14:
 180 0006 00BF     		.align	2
 181              	.L13:
 182 0008 70640040 		.word	1073767536
 183              		.cfi_endproc
 184              	.LFE5:
 185              		.size	RF_Connection_WriteControlRegister, .-RF_Connection_WriteControlRegister
 186              		.section	.text.RF_Connection_Init,"ax",%progbits
ARM GAS  C:\Users\Diego\AppData\Local\Temp\ccmnqHZ6.s 			page 10


 187              		.align	2
 188              		.global	RF_Connection_Init
 189              		.thumb
 190              		.thumb_func
 191              		.type	RF_Connection_Init, %function
 192              	RF_Connection_Init:
 193              	.LFB1:
 107:.\Generated_Source\PSoC5/RF_Connection.c ****     #if(RF_Connection_RX_ENABLED || RF_Connection_HD_ENABLED)
 194              		.loc 1 107 0
 195              		.cfi_startproc
 196              		@ args = 0, pretend = 0, frame = 0
 197              		@ frame_needed = 0, uses_anonymous_args = 0
 198 0000 08B5     		push	{r3, lr}
 199              		.cfi_def_cfa_offset 8
 200              		.cfi_offset 3, -8
 201              		.cfi_offset 14, -4
 112:.\Generated_Source\PSoC5/RF_Connection.c ****             CyIntSetPriority(RF_Connection_RX_VECT_NUM, RF_Connection_RX_PRIOR_NUM);
 202              		.loc 1 112 0
 203 0002 0320     		movs	r0, #3
 204 0004 0F49     		ldr	r1, .L17
 205 0006 FFF7FEFF 		bl	CyIntSetVector
 206              	.LVL11:
 113:.\Generated_Source\PSoC5/RF_Connection.c ****             RF_Connection_errorStatus = 0u;
 207              		.loc 1 113 0
 208 000a 0320     		movs	r0, #3
 209 000c 0721     		movs	r1, #7
 210 000e FFF7FEFF 		bl	CyIntSetPriority
 211              	.LVL12:
 114:.\Generated_Source\PSoC5/RF_Connection.c ****         #endif /* (RF_Connection_RX_INTERRUPT_ENABLED) */
 212              		.loc 1 114 0
 213 0012 0023     		movs	r3, #0
 214 0014 0C4A     		ldr	r2, .L17+4
 215 0016 1370     		strb	r3, [r2]
 124:.\Generated_Source\PSoC5/RF_Connection.c ****         /* Configure the Initial RX interrupt mask */
 216              		.loc 1 124 0
 217 0018 7221     		movs	r1, #114
 218 001a 0C4A     		ldr	r2, .L17+8
 219 001c 1170     		strb	r1, [r2]
 126:.\Generated_Source\PSoC5/RF_Connection.c ****     #endif /* End RF_Connection_RX_ENABLED || RF_Connection_HD_ENABLED*/
 220              		.loc 1 126 0
 221 001e 2021     		movs	r1, #32
 222 0020 013A     		subs	r2, r2, #1
 223 0022 1170     		strb	r1, [r2]
 138:.\Generated_Source\PSoC5/RF_Connection.c ****             RF_Connection_TXBITCLKTX_COMPLETE_REG = ((RF_Connection_NUMBER_OF_DATA_BITS +
 224              		.loc 1 138 0
 225 0024 0621     		movs	r1, #6
 226 0026 5E3A     		subs	r2, r2, #94
 227 0028 1170     		strb	r1, [r2]
 139:.\Generated_Source\PSoC5/RF_Connection.c ****                         RF_Connection_NUMBER_OF_START_BIT) * RF_Connection_OVER_SAMPLE_COUNT) - 1u;
 228              		.loc 1 139 0
 229 002a 4721     		movs	r1, #71
 230 002c 1032     		adds	r2, r2, #16
 231 002e 1170     		strb	r1, [r2]
 150:.\Generated_Source\PSoC5/RF_Connection.c ****         #endif /*End RF_Connection_TX_INTERRUPT_ENABLED*/
 232              		.loc 1 150 0
 233 0030 4432     		adds	r2, r2, #68
 234 0032 1370     		strb	r3, [r2]
ARM GAS  C:\Users\Diego\AppData\Local\Temp\ccmnqHZ6.s 			page 11


 157:.\Generated_Source\PSoC5/RF_Connection.c ****             (uint8)(RF_Connection_PARITY_TYPE << RF_Connection_CTRL_PARITY_TYPE0_SHIFT) );
 235              		.loc 1 157 0
 236 0034 FFF7FEFF 		bl	RF_Connection_ReadControlRegister
 237              	.LVL13:
 156:.\Generated_Source\PSoC5/RF_Connection.c ****             (RF_Connection_ReadControlRegister() & (uint8)~RF_Connection_CTRL_PARITY_TYPE_MASK) | \
 238              		.loc 1 156 0
 239 0038 00F0E700 		and	r0, r0, #231
 240 003c FFF7FEFF 		bl	RF_Connection_WriteControlRegister
 241              	.LVL14:
 242 0040 08BD     		pop	{r3, pc}
 243              	.L18:
 244 0042 00BF     		.align	2
 245              	.L17:
 246 0044 00000000 		.word	RF_Connection_RXISR
 247 0048 00000000 		.word	.LANCHOR0
 248 004c 8E640040 		.word	1073767566
 249              		.cfi_endproc
 250              	.LFE1:
 251              		.size	RF_Connection_Init, .-RF_Connection_Init
 252              		.section	.text.RF_Connection_Start,"ax",%progbits
 253              		.align	2
 254              		.global	RF_Connection_Start
 255              		.thumb
 256              		.thumb_func
 257              		.type	RF_Connection_Start, %function
 258              	RF_Connection_Start:
 259              	.LFB0:
  77:.\Generated_Source\PSoC5/RF_Connection.c ****     /* If not initialized then initialize all required hardware and software */
 260              		.loc 1 77 0
 261              		.cfi_startproc
 262              		@ args = 0, pretend = 0, frame = 0
 263              		@ frame_needed = 0, uses_anonymous_args = 0
 264 0000 08B5     		push	{r3, lr}
 265              		.cfi_def_cfa_offset 8
 266              		.cfi_offset 3, -8
 267              		.cfi_offset 14, -4
  79:.\Generated_Source\PSoC5/RF_Connection.c ****     {
 268              		.loc 1 79 0
 269 0002 054B     		ldr	r3, .L22
 270 0004 5B78     		ldrb	r3, [r3, #1]	@ zero_extendqisi2
 271 0006 23B9     		cbnz	r3, .L20
  81:.\Generated_Source\PSoC5/RF_Connection.c ****         RF_Connection_initVar = 1u;
 272              		.loc 1 81 0
 273 0008 FFF7FEFF 		bl	RF_Connection_Init
 274              	.LVL15:
  82:.\Generated_Source\PSoC5/RF_Connection.c ****     }
 275              		.loc 1 82 0
 276 000c 0122     		movs	r2, #1
 277 000e 024B     		ldr	r3, .L22
 278 0010 5A70     		strb	r2, [r3, #1]
 279              	.L20:
  85:.\Generated_Source\PSoC5/RF_Connection.c **** }
 280              		.loc 1 85 0
 281 0012 FFF7FEFF 		bl	RF_Connection_Enable
 282              	.LVL16:
 283 0016 08BD     		pop	{r3, pc}
 284              	.L23:
ARM GAS  C:\Users\Diego\AppData\Local\Temp\ccmnqHZ6.s 			page 12


 285              		.align	2
 286              	.L22:
 287 0018 00000000 		.word	.LANCHOR0
 288              		.cfi_endproc
 289              	.LFE0:
 290              		.size	RF_Connection_Start, .-RF_Connection_Start
 291              		.section	.text.RF_Connection_SetRxInterruptMode,"ax",%progbits
 292              		.align	2
 293              		.global	RF_Connection_SetRxInterruptMode
 294              		.thumb
 295              		.thumb_func
 296              		.type	RF_Connection_SetRxInterruptMode, %function
 297              	RF_Connection_SetRxInterruptMode:
 298              	.LFB6:
 328:.\Generated_Source\PSoC5/RF_Connection.c ****     #endif /* (RF_Connection_CONTROL_REG_REMOVED) */
 329:.\Generated_Source\PSoC5/RF_Connection.c **** }
 330:.\Generated_Source\PSoC5/RF_Connection.c **** 
 331:.\Generated_Source\PSoC5/RF_Connection.c **** 
 332:.\Generated_Source\PSoC5/RF_Connection.c **** #if(RF_Connection_RX_ENABLED || RF_Connection_HD_ENABLED)
 333:.\Generated_Source\PSoC5/RF_Connection.c ****     /*******************************************************************************
 334:.\Generated_Source\PSoC5/RF_Connection.c ****     * Function Name: RF_Connection_SetRxInterruptMode
 335:.\Generated_Source\PSoC5/RF_Connection.c ****     ********************************************************************************
 336:.\Generated_Source\PSoC5/RF_Connection.c ****     *
 337:.\Generated_Source\PSoC5/RF_Connection.c ****     * Summary:
 338:.\Generated_Source\PSoC5/RF_Connection.c ****     *  Configures the RX interrupt sources enabled.
 339:.\Generated_Source\PSoC5/RF_Connection.c ****     *
 340:.\Generated_Source\PSoC5/RF_Connection.c ****     * Parameters:
 341:.\Generated_Source\PSoC5/RF_Connection.c ****     *  IntSrc:  Bit field containing the RX interrupts to enable. Based on the 
 342:.\Generated_Source\PSoC5/RF_Connection.c ****     *  bit-field arrangement of the status register. This value must be a 
 343:.\Generated_Source\PSoC5/RF_Connection.c ****     *  combination of status register bit-masks shown below:
 344:.\Generated_Source\PSoC5/RF_Connection.c ****     *      RF_Connection_RX_STS_FIFO_NOTEMPTY    Interrupt on byte received.
 345:.\Generated_Source\PSoC5/RF_Connection.c ****     *      RF_Connection_RX_STS_PAR_ERROR        Interrupt on parity error.
 346:.\Generated_Source\PSoC5/RF_Connection.c ****     *      RF_Connection_RX_STS_STOP_ERROR       Interrupt on stop error.
 347:.\Generated_Source\PSoC5/RF_Connection.c ****     *      RF_Connection_RX_STS_BREAK            Interrupt on break.
 348:.\Generated_Source\PSoC5/RF_Connection.c ****     *      RF_Connection_RX_STS_OVERRUN          Interrupt on overrun error.
 349:.\Generated_Source\PSoC5/RF_Connection.c ****     *      RF_Connection_RX_STS_ADDR_MATCH       Interrupt on address match.
 350:.\Generated_Source\PSoC5/RF_Connection.c ****     *      RF_Connection_RX_STS_MRKSPC           Interrupt on address detect.
 351:.\Generated_Source\PSoC5/RF_Connection.c ****     *
 352:.\Generated_Source\PSoC5/RF_Connection.c ****     * Return:
 353:.\Generated_Source\PSoC5/RF_Connection.c ****     *  None.
 354:.\Generated_Source\PSoC5/RF_Connection.c ****     *
 355:.\Generated_Source\PSoC5/RF_Connection.c ****     * Theory:
 356:.\Generated_Source\PSoC5/RF_Connection.c ****     *  Enables the output of specific status bits to the interrupt controller
 357:.\Generated_Source\PSoC5/RF_Connection.c ****     *
 358:.\Generated_Source\PSoC5/RF_Connection.c ****     *******************************************************************************/
 359:.\Generated_Source\PSoC5/RF_Connection.c ****     void RF_Connection_SetRxInterruptMode(uint8 intSrc) 
 360:.\Generated_Source\PSoC5/RF_Connection.c ****     {
 299              		.loc 1 360 0
 300              		.cfi_startproc
 301              		@ args = 0, pretend = 0, frame = 0
 302              		@ frame_needed = 0, uses_anonymous_args = 0
 303              		@ link register save eliminated.
 304              	.LVL17:
 361:.\Generated_Source\PSoC5/RF_Connection.c ****         RF_Connection_RXSTATUS_MASK_REG  = intSrc;
 305              		.loc 1 361 0
 306 0000 014B     		ldr	r3, .L25
 307 0002 1870     		strb	r0, [r3]
ARM GAS  C:\Users\Diego\AppData\Local\Temp\ccmnqHZ6.s 			page 13


 308 0004 7047     		bx	lr
 309              	.L26:
 310 0006 00BF     		.align	2
 311              	.L25:
 312 0008 8D640040 		.word	1073767565
 313              		.cfi_endproc
 314              	.LFE6:
 315              		.size	RF_Connection_SetRxInterruptMode, .-RF_Connection_SetRxInterruptMode
 316              		.section	.text.RF_Connection_ReadRxData,"ax",%progbits
 317              		.align	2
 318              		.global	RF_Connection_ReadRxData
 319              		.thumb
 320              		.thumb_func
 321              		.type	RF_Connection_ReadRxData, %function
 322              	RF_Connection_ReadRxData:
 323              	.LFB7:
 362:.\Generated_Source\PSoC5/RF_Connection.c ****     }
 363:.\Generated_Source\PSoC5/RF_Connection.c **** 
 364:.\Generated_Source\PSoC5/RF_Connection.c **** 
 365:.\Generated_Source\PSoC5/RF_Connection.c ****     /*******************************************************************************
 366:.\Generated_Source\PSoC5/RF_Connection.c ****     * Function Name: RF_Connection_ReadRxData
 367:.\Generated_Source\PSoC5/RF_Connection.c ****     ********************************************************************************
 368:.\Generated_Source\PSoC5/RF_Connection.c ****     *
 369:.\Generated_Source\PSoC5/RF_Connection.c ****     * Summary:
 370:.\Generated_Source\PSoC5/RF_Connection.c ****     *  Returns the next byte of received data. This function returns data without
 371:.\Generated_Source\PSoC5/RF_Connection.c ****     *  checking the status. You must check the status separately.
 372:.\Generated_Source\PSoC5/RF_Connection.c ****     *
 373:.\Generated_Source\PSoC5/RF_Connection.c ****     * Parameters:
 374:.\Generated_Source\PSoC5/RF_Connection.c ****     *  None.
 375:.\Generated_Source\PSoC5/RF_Connection.c ****     *
 376:.\Generated_Source\PSoC5/RF_Connection.c ****     * Return:
 377:.\Generated_Source\PSoC5/RF_Connection.c ****     *  Received data from RX register
 378:.\Generated_Source\PSoC5/RF_Connection.c ****     *
 379:.\Generated_Source\PSoC5/RF_Connection.c ****     * Global Variables:
 380:.\Generated_Source\PSoC5/RF_Connection.c ****     *  RF_Connection_rxBuffer - RAM buffer pointer for save received data.
 381:.\Generated_Source\PSoC5/RF_Connection.c ****     *  RF_Connection_rxBufferWrite - cyclic index for write to rxBuffer,
 382:.\Generated_Source\PSoC5/RF_Connection.c ****     *     checked to identify new data.
 383:.\Generated_Source\PSoC5/RF_Connection.c ****     *  RF_Connection_rxBufferRead - cyclic index for read from rxBuffer,
 384:.\Generated_Source\PSoC5/RF_Connection.c ****     *     incremented after each byte has been read from buffer.
 385:.\Generated_Source\PSoC5/RF_Connection.c ****     *  RF_Connection_rxBufferLoopDetect - cleared if loop condition was detected
 386:.\Generated_Source\PSoC5/RF_Connection.c ****     *     in RX ISR.
 387:.\Generated_Source\PSoC5/RF_Connection.c ****     *
 388:.\Generated_Source\PSoC5/RF_Connection.c ****     * Reentrant:
 389:.\Generated_Source\PSoC5/RF_Connection.c ****     *  No.
 390:.\Generated_Source\PSoC5/RF_Connection.c ****     *
 391:.\Generated_Source\PSoC5/RF_Connection.c ****     *******************************************************************************/
 392:.\Generated_Source\PSoC5/RF_Connection.c ****     uint8 RF_Connection_ReadRxData(void) 
 393:.\Generated_Source\PSoC5/RF_Connection.c ****     {
 324              		.loc 1 393 0
 325              		.cfi_startproc
 326              		@ args = 0, pretend = 0, frame = 0
 327              		@ frame_needed = 0, uses_anonymous_args = 0
 328              		@ link register save eliminated.
 394:.\Generated_Source\PSoC5/RF_Connection.c ****         uint8 rxData;
 395:.\Generated_Source\PSoC5/RF_Connection.c **** 
 396:.\Generated_Source\PSoC5/RF_Connection.c ****     #if (RF_Connection_RX_INTERRUPT_ENABLED)
 397:.\Generated_Source\PSoC5/RF_Connection.c **** 
ARM GAS  C:\Users\Diego\AppData\Local\Temp\ccmnqHZ6.s 			page 14


 398:.\Generated_Source\PSoC5/RF_Connection.c ****         uint16 locRxBufferRead;
 399:.\Generated_Source\PSoC5/RF_Connection.c ****         uint16 locRxBufferWrite;
 400:.\Generated_Source\PSoC5/RF_Connection.c **** 
 401:.\Generated_Source\PSoC5/RF_Connection.c ****         /* Protect variables that could change on interrupt */
 402:.\Generated_Source\PSoC5/RF_Connection.c ****         RF_Connection_DisableRxInt();
 329              		.loc 1 402 0
 330 0000 0822     		movs	r2, #8
 331 0002 134B     		ldr	r3, .L33
 332 0004 1A60     		str	r2, [r3]
 403:.\Generated_Source\PSoC5/RF_Connection.c **** 
 404:.\Generated_Source\PSoC5/RF_Connection.c ****         locRxBufferRead  = RF_Connection_rxBufferRead;
 333              		.loc 1 404 0
 334 0006 134A     		ldr	r2, .L33+4
 335 0008 5388     		ldrh	r3, [r2, #2]
 336 000a 9BB2     		uxth	r3, r3
 337              	.LVL18:
 405:.\Generated_Source\PSoC5/RF_Connection.c ****         locRxBufferWrite = RF_Connection_rxBufferWrite;
 338              		.loc 1 405 0
 339 000c 9188     		ldrh	r1, [r2, #4]
 340 000e 89B2     		uxth	r1, r1
 341              	.LVL19:
 406:.\Generated_Source\PSoC5/RF_Connection.c **** 
 407:.\Generated_Source\PSoC5/RF_Connection.c ****         if( (RF_Connection_rxBufferLoopDetect != 0u) || (locRxBufferRead != locRxBufferWrite) )
 342              		.loc 1 407 0
 343 0010 9279     		ldrb	r2, [r2, #6]	@ zero_extendqisi2
 344 0012 12F0FF0F 		tst	r2, #255
 345 0016 01D1     		bne	.L28
 346              		.loc 1 407 0 is_stmt 0 discriminator 1
 347 0018 8B42     		cmp	r3, r1
 348 001a 12D0     		beq	.L29
 349              	.L28:
 408:.\Generated_Source\PSoC5/RF_Connection.c ****         {
 409:.\Generated_Source\PSoC5/RF_Connection.c ****             rxData = RF_Connection_rxBuffer[locRxBufferRead];
 350              		.loc 1 409 0 is_stmt 1
 351 001c 0E4A     		ldr	r2, .L33+8
 352 001e D05C     		ldrb	r0, [r2, r3]	@ zero_extendqisi2
 353 0020 C0B2     		uxtb	r0, r0
 354              	.LVL20:
 410:.\Generated_Source\PSoC5/RF_Connection.c ****             locRxBufferRead++;
 355              		.loc 1 410 0
 356 0022 0133     		adds	r3, r3, #1
 357              	.LVL21:
 358 0024 9BB2     		uxth	r3, r3
 359              	.LVL22:
 411:.\Generated_Source\PSoC5/RF_Connection.c **** 
 412:.\Generated_Source\PSoC5/RF_Connection.c ****             if(locRxBufferRead >= RF_Connection_RX_BUFFER_SIZE)
 360              		.loc 1 412 0
 361 0026 B3F5007F 		cmp	r3, #512
 362 002a 00D3     		bcc	.L30
 413:.\Generated_Source\PSoC5/RF_Connection.c ****             {
 414:.\Generated_Source\PSoC5/RF_Connection.c ****                 locRxBufferRead = 0u;
 363              		.loc 1 414 0
 364 002c 0023     		movs	r3, #0
 365              	.LVL23:
 366              	.L30:
 415:.\Generated_Source\PSoC5/RF_Connection.c ****             }
 416:.\Generated_Source\PSoC5/RF_Connection.c ****             /* Update the real pointer */
ARM GAS  C:\Users\Diego\AppData\Local\Temp\ccmnqHZ6.s 			page 15


 417:.\Generated_Source\PSoC5/RF_Connection.c ****             RF_Connection_rxBufferRead = locRxBufferRead;
 367              		.loc 1 417 0
 368 002e 094A     		ldr	r2, .L33+4
 369 0030 5380     		strh	r3, [r2, #2]	@ movhi
 418:.\Generated_Source\PSoC5/RF_Connection.c **** 
 419:.\Generated_Source\PSoC5/RF_Connection.c ****             if(RF_Connection_rxBufferLoopDetect != 0u)
 370              		.loc 1 419 0
 371 0032 9379     		ldrb	r3, [r2, #6]	@ zero_extendqisi2
 372              	.LVL24:
 373 0034 13F0FF0F 		tst	r3, #255
 374 0038 06D0     		beq	.L31
 420:.\Generated_Source\PSoC5/RF_Connection.c ****             {
 421:.\Generated_Source\PSoC5/RF_Connection.c ****                 RF_Connection_rxBufferLoopDetect = 0u;
 375              		.loc 1 421 0
 376 003a 0022     		movs	r2, #0
 377 003c 054B     		ldr	r3, .L33+4
 378 003e 9A71     		strb	r2, [r3, #6]
 379              	.LVL25:
 380 0040 02E0     		b	.L31
 381              	.LVL26:
 382              	.L29:
 422:.\Generated_Source\PSoC5/RF_Connection.c ****                 #if ((RF_Connection_RX_INTERRUPT_ENABLED) && (RF_Connection_FLOW_CONTROL != 0u))
 423:.\Generated_Source\PSoC5/RF_Connection.c ****                     /* When Hardware Flow Control selected - return RX mask */
 424:.\Generated_Source\PSoC5/RF_Connection.c ****                     #if( RF_Connection_HD_ENABLED )
 425:.\Generated_Source\PSoC5/RF_Connection.c ****                         if((RF_Connection_CONTROL_REG & RF_Connection_CTRL_HD_SEND) == 0u)
 426:.\Generated_Source\PSoC5/RF_Connection.c ****                         {   /* In Half duplex mode return RX mask only in RX
 427:.\Generated_Source\PSoC5/RF_Connection.c ****                             *  configuration set, otherwise
 428:.\Generated_Source\PSoC5/RF_Connection.c ****                             *  mask will be returned in LoadRxConfig() API.
 429:.\Generated_Source\PSoC5/RF_Connection.c ****                             */
 430:.\Generated_Source\PSoC5/RF_Connection.c ****                             RF_Connection_RXSTATUS_MASK_REG  |= RF_Connection_RX_STS_FIFO_NOTEMPTY;
 431:.\Generated_Source\PSoC5/RF_Connection.c ****                         }
 432:.\Generated_Source\PSoC5/RF_Connection.c ****                     #else
 433:.\Generated_Source\PSoC5/RF_Connection.c ****                         RF_Connection_RXSTATUS_MASK_REG  |= RF_Connection_RX_STS_FIFO_NOTEMPTY;
 434:.\Generated_Source\PSoC5/RF_Connection.c ****                     #endif /* end RF_Connection_HD_ENABLED */
 435:.\Generated_Source\PSoC5/RF_Connection.c ****                 #endif /* ((RF_Connection_RX_INTERRUPT_ENABLED) && (RF_Connection_FLOW_CONTROL != 0
 436:.\Generated_Source\PSoC5/RF_Connection.c ****             }
 437:.\Generated_Source\PSoC5/RF_Connection.c ****         }
 438:.\Generated_Source\PSoC5/RF_Connection.c ****         else
 439:.\Generated_Source\PSoC5/RF_Connection.c ****         {   /* Needs to check status for RX_STS_FIFO_NOTEMPTY bit */
 440:.\Generated_Source\PSoC5/RF_Connection.c ****             rxData = RF_Connection_RXDATA_REG;
 383              		.loc 1 440 0
 384 0042 064B     		ldr	r3, .L33+12
 385              	.LVL27:
 386 0044 1878     		ldrb	r0, [r3]	@ zero_extendqisi2
 387 0046 C0B2     		uxtb	r0, r0
 388              	.LVL28:
 389              	.L31:
 441:.\Generated_Source\PSoC5/RF_Connection.c ****         }
 442:.\Generated_Source\PSoC5/RF_Connection.c **** 
 443:.\Generated_Source\PSoC5/RF_Connection.c ****         RF_Connection_EnableRxInt();
 390              		.loc 1 443 0
 391 0048 0822     		movs	r2, #8
 392 004a 054B     		ldr	r3, .L33+16
 393 004c 1A60     		str	r2, [r3]
 444:.\Generated_Source\PSoC5/RF_Connection.c **** 
 445:.\Generated_Source\PSoC5/RF_Connection.c ****     #else
 446:.\Generated_Source\PSoC5/RF_Connection.c **** 
ARM GAS  C:\Users\Diego\AppData\Local\Temp\ccmnqHZ6.s 			page 16


 447:.\Generated_Source\PSoC5/RF_Connection.c ****         /* Needs to check status for RX_STS_FIFO_NOTEMPTY bit */
 448:.\Generated_Source\PSoC5/RF_Connection.c ****         rxData = RF_Connection_RXDATA_REG;
 449:.\Generated_Source\PSoC5/RF_Connection.c **** 
 450:.\Generated_Source\PSoC5/RF_Connection.c ****     #endif /* (RF_Connection_RX_INTERRUPT_ENABLED) */
 451:.\Generated_Source\PSoC5/RF_Connection.c **** 
 452:.\Generated_Source\PSoC5/RF_Connection.c ****         return(rxData);
 453:.\Generated_Source\PSoC5/RF_Connection.c ****     }
 394              		.loc 1 453 0
 395 004e 7047     		bx	lr
 396              	.L34:
 397              		.align	2
 398              	.L33:
 399 0050 80E100E0 		.word	-536813184
 400 0054 00000000 		.word	.LANCHOR0
 401 0058 00000000 		.word	RF_Connection_rxBuffer
 402 005c 48640040 		.word	1073767496
 403 0060 00E100E0 		.word	-536813312
 404              		.cfi_endproc
 405              	.LFE7:
 406              		.size	RF_Connection_ReadRxData, .-RF_Connection_ReadRxData
 407              		.section	.text.RF_Connection_ReadRxStatus,"ax",%progbits
 408              		.align	2
 409              		.global	RF_Connection_ReadRxStatus
 410              		.thumb
 411              		.thumb_func
 412              		.type	RF_Connection_ReadRxStatus, %function
 413              	RF_Connection_ReadRxStatus:
 414              	.LFB8:
 454:.\Generated_Source\PSoC5/RF_Connection.c **** 
 455:.\Generated_Source\PSoC5/RF_Connection.c **** 
 456:.\Generated_Source\PSoC5/RF_Connection.c ****     /*******************************************************************************
 457:.\Generated_Source\PSoC5/RF_Connection.c ****     * Function Name: RF_Connection_ReadRxStatus
 458:.\Generated_Source\PSoC5/RF_Connection.c ****     ********************************************************************************
 459:.\Generated_Source\PSoC5/RF_Connection.c ****     *
 460:.\Generated_Source\PSoC5/RF_Connection.c ****     * Summary:
 461:.\Generated_Source\PSoC5/RF_Connection.c ****     *  Returns the current state of the receiver status register and the software
 462:.\Generated_Source\PSoC5/RF_Connection.c ****     *  buffer overflow status.
 463:.\Generated_Source\PSoC5/RF_Connection.c ****     *
 464:.\Generated_Source\PSoC5/RF_Connection.c ****     * Parameters:
 465:.\Generated_Source\PSoC5/RF_Connection.c ****     *  None.
 466:.\Generated_Source\PSoC5/RF_Connection.c ****     *
 467:.\Generated_Source\PSoC5/RF_Connection.c ****     * Return:
 468:.\Generated_Source\PSoC5/RF_Connection.c ****     *  Current state of the status register.
 469:.\Generated_Source\PSoC5/RF_Connection.c ****     *
 470:.\Generated_Source\PSoC5/RF_Connection.c ****     * Side Effect:
 471:.\Generated_Source\PSoC5/RF_Connection.c ****     *  All status register bits are clear-on-read except
 472:.\Generated_Source\PSoC5/RF_Connection.c ****     *  RF_Connection_RX_STS_FIFO_NOTEMPTY.
 473:.\Generated_Source\PSoC5/RF_Connection.c ****     *  RF_Connection_RX_STS_FIFO_NOTEMPTY clears immediately after RX data
 474:.\Generated_Source\PSoC5/RF_Connection.c ****     *  register read.
 475:.\Generated_Source\PSoC5/RF_Connection.c ****     *
 476:.\Generated_Source\PSoC5/RF_Connection.c ****     * Global Variables:
 477:.\Generated_Source\PSoC5/RF_Connection.c ****     *  RF_Connection_rxBufferOverflow - used to indicate overload condition.
 478:.\Generated_Source\PSoC5/RF_Connection.c ****     *   It set to one in RX interrupt when there isn't free space in
 479:.\Generated_Source\PSoC5/RF_Connection.c ****     *   RF_Connection_rxBufferRead to write new data. This condition returned
 480:.\Generated_Source\PSoC5/RF_Connection.c ****     *   and cleared to zero by this API as an
 481:.\Generated_Source\PSoC5/RF_Connection.c ****     *   RF_Connection_RX_STS_SOFT_BUFF_OVER bit along with RX Status register
 482:.\Generated_Source\PSoC5/RF_Connection.c ****     *   bits.
ARM GAS  C:\Users\Diego\AppData\Local\Temp\ccmnqHZ6.s 			page 17


 483:.\Generated_Source\PSoC5/RF_Connection.c ****     *
 484:.\Generated_Source\PSoC5/RF_Connection.c ****     *******************************************************************************/
 485:.\Generated_Source\PSoC5/RF_Connection.c ****     uint8 RF_Connection_ReadRxStatus(void) 
 486:.\Generated_Source\PSoC5/RF_Connection.c ****     {
 415              		.loc 1 486 0
 416              		.cfi_startproc
 417              		@ args = 0, pretend = 0, frame = 0
 418              		@ frame_needed = 0, uses_anonymous_args = 0
 419              		@ link register save eliminated.
 487:.\Generated_Source\PSoC5/RF_Connection.c ****         uint8 status;
 488:.\Generated_Source\PSoC5/RF_Connection.c **** 
 489:.\Generated_Source\PSoC5/RF_Connection.c ****         status = RF_Connection_RXSTATUS_REG & RF_Connection_RX_HW_MASK;
 420              		.loc 1 489 0
 421 0000 074B     		ldr	r3, .L37
 422 0002 1878     		ldrb	r0, [r3]	@ zero_extendqisi2
 423 0004 00F07F00 		and	r0, r0, #127
 424              	.LVL29:
 490:.\Generated_Source\PSoC5/RF_Connection.c **** 
 491:.\Generated_Source\PSoC5/RF_Connection.c ****     #if (RF_Connection_RX_INTERRUPT_ENABLED)
 492:.\Generated_Source\PSoC5/RF_Connection.c ****         if(RF_Connection_rxBufferOverflow != 0u)
 425              		.loc 1 492 0
 426 0008 064B     		ldr	r3, .L37+4
 427 000a DB79     		ldrb	r3, [r3, #7]	@ zero_extendqisi2
 428 000c 13F0FF0F 		tst	r3, #255
 429 0010 04D0     		beq	.L36
 493:.\Generated_Source\PSoC5/RF_Connection.c ****         {
 494:.\Generated_Source\PSoC5/RF_Connection.c ****             status |= RF_Connection_RX_STS_SOFT_BUFF_OVER;
 430              		.loc 1 494 0
 431 0012 40F08000 		orr	r0, r0, #128
 432              	.LVL30:
 495:.\Generated_Source\PSoC5/RF_Connection.c ****             RF_Connection_rxBufferOverflow = 0u;
 433              		.loc 1 495 0
 434 0016 0022     		movs	r2, #0
 435 0018 024B     		ldr	r3, .L37+4
 436 001a DA71     		strb	r2, [r3, #7]
 437              	.L36:
 496:.\Generated_Source\PSoC5/RF_Connection.c ****         }
 497:.\Generated_Source\PSoC5/RF_Connection.c ****     #endif /* (RF_Connection_RX_INTERRUPT_ENABLED) */
 498:.\Generated_Source\PSoC5/RF_Connection.c **** 
 499:.\Generated_Source\PSoC5/RF_Connection.c ****         return(status);
 500:.\Generated_Source\PSoC5/RF_Connection.c ****     }
 438              		.loc 1 500 0
 439 001c 7047     		bx	lr
 440              	.L38:
 441 001e 00BF     		.align	2
 442              	.L37:
 443 0020 6D640040 		.word	1073767533
 444 0024 00000000 		.word	.LANCHOR0
 445              		.cfi_endproc
 446              	.LFE8:
 447              		.size	RF_Connection_ReadRxStatus, .-RF_Connection_ReadRxStatus
 448              		.section	.text.RF_Connection_GetChar,"ax",%progbits
 449              		.align	2
 450              		.global	RF_Connection_GetChar
 451              		.thumb
 452              		.thumb_func
 453              		.type	RF_Connection_GetChar, %function
ARM GAS  C:\Users\Diego\AppData\Local\Temp\ccmnqHZ6.s 			page 18


 454              	RF_Connection_GetChar:
 455              	.LFB9:
 501:.\Generated_Source\PSoC5/RF_Connection.c **** 
 502:.\Generated_Source\PSoC5/RF_Connection.c **** 
 503:.\Generated_Source\PSoC5/RF_Connection.c ****     /*******************************************************************************
 504:.\Generated_Source\PSoC5/RF_Connection.c ****     * Function Name: RF_Connection_GetChar
 505:.\Generated_Source\PSoC5/RF_Connection.c ****     ********************************************************************************
 506:.\Generated_Source\PSoC5/RF_Connection.c ****     *
 507:.\Generated_Source\PSoC5/RF_Connection.c ****     * Summary:
 508:.\Generated_Source\PSoC5/RF_Connection.c ****     *  Returns the last received byte of data. RF_Connection_GetChar() is
 509:.\Generated_Source\PSoC5/RF_Connection.c ****     *  designed for ASCII characters and returns a uint8 where 1 to 255 are values
 510:.\Generated_Source\PSoC5/RF_Connection.c ****     *  for valid characters and 0 indicates an error occurred or no data is present.
 511:.\Generated_Source\PSoC5/RF_Connection.c ****     *
 512:.\Generated_Source\PSoC5/RF_Connection.c ****     * Parameters:
 513:.\Generated_Source\PSoC5/RF_Connection.c ****     *  None.
 514:.\Generated_Source\PSoC5/RF_Connection.c ****     *
 515:.\Generated_Source\PSoC5/RF_Connection.c ****     * Return:
 516:.\Generated_Source\PSoC5/RF_Connection.c ****     *  Character read from UART RX buffer. ASCII characters from 1 to 255 are valid.
 517:.\Generated_Source\PSoC5/RF_Connection.c ****     *  A returned zero signifies an error condition or no data available.
 518:.\Generated_Source\PSoC5/RF_Connection.c ****     *
 519:.\Generated_Source\PSoC5/RF_Connection.c ****     * Global Variables:
 520:.\Generated_Source\PSoC5/RF_Connection.c ****     *  RF_Connection_rxBuffer - RAM buffer pointer for save received data.
 521:.\Generated_Source\PSoC5/RF_Connection.c ****     *  RF_Connection_rxBufferWrite - cyclic index for write to rxBuffer,
 522:.\Generated_Source\PSoC5/RF_Connection.c ****     *     checked to identify new data.
 523:.\Generated_Source\PSoC5/RF_Connection.c ****     *  RF_Connection_rxBufferRead - cyclic index for read from rxBuffer,
 524:.\Generated_Source\PSoC5/RF_Connection.c ****     *     incremented after each byte has been read from buffer.
 525:.\Generated_Source\PSoC5/RF_Connection.c ****     *  RF_Connection_rxBufferLoopDetect - cleared if loop condition was detected
 526:.\Generated_Source\PSoC5/RF_Connection.c ****     *     in RX ISR.
 527:.\Generated_Source\PSoC5/RF_Connection.c ****     *
 528:.\Generated_Source\PSoC5/RF_Connection.c ****     * Reentrant:
 529:.\Generated_Source\PSoC5/RF_Connection.c ****     *  No.
 530:.\Generated_Source\PSoC5/RF_Connection.c ****     *
 531:.\Generated_Source\PSoC5/RF_Connection.c ****     *******************************************************************************/
 532:.\Generated_Source\PSoC5/RF_Connection.c ****     uint8 RF_Connection_GetChar(void) 
 533:.\Generated_Source\PSoC5/RF_Connection.c ****     {
 456              		.loc 1 533 0
 457              		.cfi_startproc
 458              		@ args = 0, pretend = 0, frame = 0
 459              		@ frame_needed = 0, uses_anonymous_args = 0
 460              		@ link register save eliminated.
 461              	.LVL31:
 534:.\Generated_Source\PSoC5/RF_Connection.c ****         uint8 rxData = 0u;
 535:.\Generated_Source\PSoC5/RF_Connection.c ****         uint8 rxStatus;
 536:.\Generated_Source\PSoC5/RF_Connection.c **** 
 537:.\Generated_Source\PSoC5/RF_Connection.c ****     #if (RF_Connection_RX_INTERRUPT_ENABLED)
 538:.\Generated_Source\PSoC5/RF_Connection.c ****         uint16 locRxBufferRead;
 539:.\Generated_Source\PSoC5/RF_Connection.c ****         uint16 locRxBufferWrite;
 540:.\Generated_Source\PSoC5/RF_Connection.c **** 
 541:.\Generated_Source\PSoC5/RF_Connection.c ****         /* Protect variables that could change on interrupt */
 542:.\Generated_Source\PSoC5/RF_Connection.c ****         RF_Connection_DisableRxInt();
 462              		.loc 1 542 0
 463 0000 0822     		movs	r2, #8
 464 0002 1A4B     		ldr	r3, .L47
 465 0004 1A60     		str	r2, [r3]
 543:.\Generated_Source\PSoC5/RF_Connection.c **** 
 544:.\Generated_Source\PSoC5/RF_Connection.c ****         locRxBufferRead  = RF_Connection_rxBufferRead;
 466              		.loc 1 544 0
ARM GAS  C:\Users\Diego\AppData\Local\Temp\ccmnqHZ6.s 			page 19


 467 0006 1A4A     		ldr	r2, .L47+4
 468 0008 5388     		ldrh	r3, [r2, #2]
 469 000a 9BB2     		uxth	r3, r3
 470              	.LVL32:
 545:.\Generated_Source\PSoC5/RF_Connection.c ****         locRxBufferWrite = RF_Connection_rxBufferWrite;
 471              		.loc 1 545 0
 472 000c 9188     		ldrh	r1, [r2, #4]
 473 000e 89B2     		uxth	r1, r1
 474              	.LVL33:
 546:.\Generated_Source\PSoC5/RF_Connection.c **** 
 547:.\Generated_Source\PSoC5/RF_Connection.c ****         if( (RF_Connection_rxBufferLoopDetect != 0u) || (locRxBufferRead != locRxBufferWrite) )
 475              		.loc 1 547 0
 476 0010 9279     		ldrb	r2, [r2, #6]	@ zero_extendqisi2
 477 0012 12F0FF0F 		tst	r2, #255
 478 0016 01D1     		bne	.L40
 479              		.loc 1 547 0 is_stmt 0 discriminator 1
 480 0018 8B42     		cmp	r3, r1
 481 001a 12D0     		beq	.L41
 482              	.L40:
 548:.\Generated_Source\PSoC5/RF_Connection.c ****         {
 549:.\Generated_Source\PSoC5/RF_Connection.c ****             rxData = RF_Connection_rxBuffer[locRxBufferRead];
 483              		.loc 1 549 0 is_stmt 1
 484 001c 154A     		ldr	r2, .L47+8
 485 001e D05C     		ldrb	r0, [r2, r3]	@ zero_extendqisi2
 486 0020 C0B2     		uxtb	r0, r0
 487              	.LVL34:
 550:.\Generated_Source\PSoC5/RF_Connection.c ****             locRxBufferRead++;
 488              		.loc 1 550 0
 489 0022 0133     		adds	r3, r3, #1
 490              	.LVL35:
 491 0024 9BB2     		uxth	r3, r3
 492              	.LVL36:
 551:.\Generated_Source\PSoC5/RF_Connection.c ****             if(locRxBufferRead >= RF_Connection_RX_BUFFER_SIZE)
 493              		.loc 1 551 0
 494 0026 B3F5007F 		cmp	r3, #512
 495 002a 00D3     		bcc	.L42
 552:.\Generated_Source\PSoC5/RF_Connection.c ****             {
 553:.\Generated_Source\PSoC5/RF_Connection.c ****                 locRxBufferRead = 0u;
 496              		.loc 1 553 0
 497 002c 0023     		movs	r3, #0
 498              	.LVL37:
 499              	.L42:
 554:.\Generated_Source\PSoC5/RF_Connection.c ****             }
 555:.\Generated_Source\PSoC5/RF_Connection.c ****             /* Update the real pointer */
 556:.\Generated_Source\PSoC5/RF_Connection.c ****             RF_Connection_rxBufferRead = locRxBufferRead;
 500              		.loc 1 556 0
 501 002e 104A     		ldr	r2, .L47+4
 502 0030 5380     		strh	r3, [r2, #2]	@ movhi
 557:.\Generated_Source\PSoC5/RF_Connection.c **** 
 558:.\Generated_Source\PSoC5/RF_Connection.c ****             if(RF_Connection_rxBufferLoopDetect != 0u)
 503              		.loc 1 558 0
 504 0032 9379     		ldrb	r3, [r2, #6]	@ zero_extendqisi2
 505              	.LVL38:
 506 0034 13F0FF0F 		tst	r3, #255
 507 0038 13D0     		beq	.L43
 559:.\Generated_Source\PSoC5/RF_Connection.c ****             {
 560:.\Generated_Source\PSoC5/RF_Connection.c ****                 RF_Connection_rxBufferLoopDetect = 0u;
ARM GAS  C:\Users\Diego\AppData\Local\Temp\ccmnqHZ6.s 			page 20


 508              		.loc 1 560 0
 509 003a 0022     		movs	r2, #0
 510 003c 0C4B     		ldr	r3, .L47+4
 511 003e 9A71     		strb	r2, [r3, #6]
 512              	.LVL39:
 513 0040 0FE0     		b	.L43
 514              	.LVL40:
 515              	.L41:
 561:.\Generated_Source\PSoC5/RF_Connection.c ****                 #if( (RF_Connection_RX_INTERRUPT_ENABLED) && (RF_Connection_FLOW_CONTROL != 0u) )
 562:.\Generated_Source\PSoC5/RF_Connection.c ****                     /* When Hardware Flow Control selected - return RX mask */
 563:.\Generated_Source\PSoC5/RF_Connection.c ****                     #if( RF_Connection_HD_ENABLED )
 564:.\Generated_Source\PSoC5/RF_Connection.c ****                         if((RF_Connection_CONTROL_REG & RF_Connection_CTRL_HD_SEND) == 0u)
 565:.\Generated_Source\PSoC5/RF_Connection.c ****                         {   /* In Half duplex mode return RX mask only if
 566:.\Generated_Source\PSoC5/RF_Connection.c ****                             *  RX configuration set, otherwise
 567:.\Generated_Source\PSoC5/RF_Connection.c ****                             *  mask will be returned in LoadRxConfig() API.
 568:.\Generated_Source\PSoC5/RF_Connection.c ****                             */
 569:.\Generated_Source\PSoC5/RF_Connection.c ****                             RF_Connection_RXSTATUS_MASK_REG |= RF_Connection_RX_STS_FIFO_NOTEMPTY;
 570:.\Generated_Source\PSoC5/RF_Connection.c ****                         }
 571:.\Generated_Source\PSoC5/RF_Connection.c ****                     #else
 572:.\Generated_Source\PSoC5/RF_Connection.c ****                         RF_Connection_RXSTATUS_MASK_REG |= RF_Connection_RX_STS_FIFO_NOTEMPTY;
 573:.\Generated_Source\PSoC5/RF_Connection.c ****                     #endif /* end RF_Connection_HD_ENABLED */
 574:.\Generated_Source\PSoC5/RF_Connection.c ****                 #endif /* RF_Connection_RX_INTERRUPT_ENABLED and Hardware flow control*/
 575:.\Generated_Source\PSoC5/RF_Connection.c ****             }
 576:.\Generated_Source\PSoC5/RF_Connection.c **** 
 577:.\Generated_Source\PSoC5/RF_Connection.c ****         }
 578:.\Generated_Source\PSoC5/RF_Connection.c ****         else
 579:.\Generated_Source\PSoC5/RF_Connection.c ****         {   rxStatus = RF_Connection_RXSTATUS_REG;
 516              		.loc 1 579 0
 517 0042 0D4B     		ldr	r3, .L47+12
 518              	.LVL41:
 519 0044 1B78     		ldrb	r3, [r3]	@ zero_extendqisi2
 520 0046 DBB2     		uxtb	r3, r3
 521              	.LVL42:
 580:.\Generated_Source\PSoC5/RF_Connection.c ****             if((rxStatus & RF_Connection_RX_STS_FIFO_NOTEMPTY) != 0u)
 522              		.loc 1 580 0
 523 0048 13F0200F 		tst	r3, #32
 524 004c 06D0     		beq	.L45
 581:.\Generated_Source\PSoC5/RF_Connection.c ****             {   /* Read received data from FIFO */
 582:.\Generated_Source\PSoC5/RF_Connection.c ****                 rxData = RF_Connection_RXDATA_REG;
 525              		.loc 1 582 0
 526 004e 0B4A     		ldr	r2, .L47+16
 527 0050 1078     		ldrb	r0, [r2]	@ zero_extendqisi2
 528 0052 C0B2     		uxtb	r0, r0
 529              	.LVL43:
 583:.\Generated_Source\PSoC5/RF_Connection.c ****                 /*Check status on error*/
 584:.\Generated_Source\PSoC5/RF_Connection.c ****                 if((rxStatus & (RF_Connection_RX_STS_BREAK | RF_Connection_RX_STS_PAR_ERROR |
 530              		.loc 1 584 0
 531 0054 13F01E0F 		tst	r3, #30
 532 0058 02D1     		bne	.L46
 533 005a 02E0     		b	.L43
 534              	.LVL44:
 535              	.L45:
 534:.\Generated_Source\PSoC5/RF_Connection.c ****         uint8 rxStatus;
 536              		.loc 1 534 0
 537 005c 0020     		movs	r0, #0
 538 005e 00E0     		b	.L43
 539              	.LVL45:
ARM GAS  C:\Users\Diego\AppData\Local\Temp\ccmnqHZ6.s 			page 21


 540              	.L46:
 585:.\Generated_Source\PSoC5/RF_Connection.c ****                                 RF_Connection_RX_STS_STOP_ERROR | RF_Connection_RX_STS_OVERRUN)) !=
 586:.\Generated_Source\PSoC5/RF_Connection.c ****                 {
 587:.\Generated_Source\PSoC5/RF_Connection.c ****                     rxData = 0u;
 541              		.loc 1 587 0
 542 0060 0020     		movs	r0, #0
 543              	.LVL46:
 544              	.L43:
 588:.\Generated_Source\PSoC5/RF_Connection.c ****                 }
 589:.\Generated_Source\PSoC5/RF_Connection.c ****             }
 590:.\Generated_Source\PSoC5/RF_Connection.c ****         }
 591:.\Generated_Source\PSoC5/RF_Connection.c **** 
 592:.\Generated_Source\PSoC5/RF_Connection.c ****         RF_Connection_EnableRxInt();
 545              		.loc 1 592 0
 546 0062 0822     		movs	r2, #8
 547 0064 064B     		ldr	r3, .L47+20
 548 0066 1A60     		str	r2, [r3]
 593:.\Generated_Source\PSoC5/RF_Connection.c **** 
 594:.\Generated_Source\PSoC5/RF_Connection.c ****     #else
 595:.\Generated_Source\PSoC5/RF_Connection.c **** 
 596:.\Generated_Source\PSoC5/RF_Connection.c ****         rxStatus =RF_Connection_RXSTATUS_REG;
 597:.\Generated_Source\PSoC5/RF_Connection.c ****         if((rxStatus & RF_Connection_RX_STS_FIFO_NOTEMPTY) != 0u)
 598:.\Generated_Source\PSoC5/RF_Connection.c ****         {
 599:.\Generated_Source\PSoC5/RF_Connection.c ****             /* Read received data from FIFO */
 600:.\Generated_Source\PSoC5/RF_Connection.c ****             rxData = RF_Connection_RXDATA_REG;
 601:.\Generated_Source\PSoC5/RF_Connection.c **** 
 602:.\Generated_Source\PSoC5/RF_Connection.c ****             /*Check status on error*/
 603:.\Generated_Source\PSoC5/RF_Connection.c ****             if((rxStatus & (RF_Connection_RX_STS_BREAK | RF_Connection_RX_STS_PAR_ERROR |
 604:.\Generated_Source\PSoC5/RF_Connection.c ****                             RF_Connection_RX_STS_STOP_ERROR | RF_Connection_RX_STS_OVERRUN)) != 0u)
 605:.\Generated_Source\PSoC5/RF_Connection.c ****             {
 606:.\Generated_Source\PSoC5/RF_Connection.c ****                 rxData = 0u;
 607:.\Generated_Source\PSoC5/RF_Connection.c ****             }
 608:.\Generated_Source\PSoC5/RF_Connection.c ****         }
 609:.\Generated_Source\PSoC5/RF_Connection.c ****     #endif /* (RF_Connection_RX_INTERRUPT_ENABLED) */
 610:.\Generated_Source\PSoC5/RF_Connection.c **** 
 611:.\Generated_Source\PSoC5/RF_Connection.c ****         return(rxData);
 612:.\Generated_Source\PSoC5/RF_Connection.c ****     }
 549              		.loc 1 612 0
 550 0068 7047     		bx	lr
 551              	.L48:
 552 006a 00BF     		.align	2
 553              	.L47:
 554 006c 80E100E0 		.word	-536813184
 555 0070 00000000 		.word	.LANCHOR0
 556 0074 00000000 		.word	RF_Connection_rxBuffer
 557 0078 6D640040 		.word	1073767533
 558 007c 48640040 		.word	1073767496
 559 0080 00E100E0 		.word	-536813312
 560              		.cfi_endproc
 561              	.LFE9:
 562              		.size	RF_Connection_GetChar, .-RF_Connection_GetChar
 563              		.section	.text.RF_Connection_GetByte,"ax",%progbits
 564              		.align	2
 565              		.global	RF_Connection_GetByte
 566              		.thumb
 567              		.thumb_func
 568              		.type	RF_Connection_GetByte, %function
ARM GAS  C:\Users\Diego\AppData\Local\Temp\ccmnqHZ6.s 			page 22


 569              	RF_Connection_GetByte:
 570              	.LFB10:
 613:.\Generated_Source\PSoC5/RF_Connection.c **** 
 614:.\Generated_Source\PSoC5/RF_Connection.c **** 
 615:.\Generated_Source\PSoC5/RF_Connection.c ****     /*******************************************************************************
 616:.\Generated_Source\PSoC5/RF_Connection.c ****     * Function Name: RF_Connection_GetByte
 617:.\Generated_Source\PSoC5/RF_Connection.c ****     ********************************************************************************
 618:.\Generated_Source\PSoC5/RF_Connection.c ****     *
 619:.\Generated_Source\PSoC5/RF_Connection.c ****     * Summary:
 620:.\Generated_Source\PSoC5/RF_Connection.c ****     *  Reads UART RX buffer immediately, returns received character and error
 621:.\Generated_Source\PSoC5/RF_Connection.c ****     *  condition.
 622:.\Generated_Source\PSoC5/RF_Connection.c ****     *
 623:.\Generated_Source\PSoC5/RF_Connection.c ****     * Parameters:
 624:.\Generated_Source\PSoC5/RF_Connection.c ****     *  None.
 625:.\Generated_Source\PSoC5/RF_Connection.c ****     *
 626:.\Generated_Source\PSoC5/RF_Connection.c ****     * Return:
 627:.\Generated_Source\PSoC5/RF_Connection.c ****     *  MSB contains status and LSB contains UART RX data. If the MSB is nonzero,
 628:.\Generated_Source\PSoC5/RF_Connection.c ****     *  an error has occurred.
 629:.\Generated_Source\PSoC5/RF_Connection.c ****     *
 630:.\Generated_Source\PSoC5/RF_Connection.c ****     * Reentrant:
 631:.\Generated_Source\PSoC5/RF_Connection.c ****     *  No.
 632:.\Generated_Source\PSoC5/RF_Connection.c ****     *
 633:.\Generated_Source\PSoC5/RF_Connection.c ****     *******************************************************************************/
 634:.\Generated_Source\PSoC5/RF_Connection.c ****     uint16 RF_Connection_GetByte(void) 
 635:.\Generated_Source\PSoC5/RF_Connection.c ****     {
 571              		.loc 1 635 0
 572              		.cfi_startproc
 573              		@ args = 0, pretend = 0, frame = 0
 574              		@ frame_needed = 0, uses_anonymous_args = 0
 575 0000 10B5     		push	{r4, lr}
 576              		.cfi_def_cfa_offset 8
 577              		.cfi_offset 4, -8
 578              		.cfi_offset 14, -4
 636:.\Generated_Source\PSoC5/RF_Connection.c ****         
 637:.\Generated_Source\PSoC5/RF_Connection.c ****     #if (RF_Connection_RX_INTERRUPT_ENABLED)
 638:.\Generated_Source\PSoC5/RF_Connection.c ****         uint16 locErrorStatus;
 639:.\Generated_Source\PSoC5/RF_Connection.c ****         /* Protect variables that could change on interrupt */
 640:.\Generated_Source\PSoC5/RF_Connection.c ****         RF_Connection_DisableRxInt();
 579              		.loc 1 640 0
 580 0002 0823     		movs	r3, #8
 581 0004 064A     		ldr	r2, .L51
 582 0006 1360     		str	r3, [r2]
 641:.\Generated_Source\PSoC5/RF_Connection.c ****         locErrorStatus = (uint16)RF_Connection_errorStatus;
 583              		.loc 1 641 0
 584 0008 064A     		ldr	r2, .L51+4
 585 000a 1478     		ldrb	r4, [r2]	@ zero_extendqisi2
 586              	.LVL47:
 642:.\Generated_Source\PSoC5/RF_Connection.c ****         RF_Connection_errorStatus = 0u;
 587              		.loc 1 642 0
 588 000c 0021     		movs	r1, #0
 589 000e 1170     		strb	r1, [r2]
 643:.\Generated_Source\PSoC5/RF_Connection.c ****         RF_Connection_EnableRxInt();
 590              		.loc 1 643 0
 591 0010 054A     		ldr	r2, .L51+8
 592 0012 1360     		str	r3, [r2]
 644:.\Generated_Source\PSoC5/RF_Connection.c ****         return ( (uint16)(locErrorStatus << 8u) | RF_Connection_ReadRxData() );
 593              		.loc 1 644 0
ARM GAS  C:\Users\Diego\AppData\Local\Temp\ccmnqHZ6.s 			page 23


 594 0014 9C40     		lsls	r4, r4, r3
 595              	.LVL48:
 596 0016 FFF7FEFF 		bl	RF_Connection_ReadRxData
 597              	.LVL49:
 598 001a 2043     		orrs	r0, r0, r4
 645:.\Generated_Source\PSoC5/RF_Connection.c ****     #else
 646:.\Generated_Source\PSoC5/RF_Connection.c ****         return ( ((uint16)RF_Connection_ReadRxStatus() << 8u) | RF_Connection_ReadRxData() );
 647:.\Generated_Source\PSoC5/RF_Connection.c ****     #endif /* RF_Connection_RX_INTERRUPT_ENABLED */
 648:.\Generated_Source\PSoC5/RF_Connection.c ****         
 649:.\Generated_Source\PSoC5/RF_Connection.c ****     }
 599              		.loc 1 649 0
 600 001c 80B2     		uxth	r0, r0
 601 001e 10BD     		pop	{r4, pc}
 602              	.L52:
 603              		.align	2
 604              	.L51:
 605 0020 80E100E0 		.word	-536813184
 606 0024 00000000 		.word	.LANCHOR0
 607 0028 00E100E0 		.word	-536813312
 608              		.cfi_endproc
 609              	.LFE10:
 610              		.size	RF_Connection_GetByte, .-RF_Connection_GetByte
 611              		.section	.text.RF_Connection_GetRxBufferSize,"ax",%progbits
 612              		.align	2
 613              		.global	RF_Connection_GetRxBufferSize
 614              		.thumb
 615              		.thumb_func
 616              		.type	RF_Connection_GetRxBufferSize, %function
 617              	RF_Connection_GetRxBufferSize:
 618              	.LFB11:
 650:.\Generated_Source\PSoC5/RF_Connection.c **** 
 651:.\Generated_Source\PSoC5/RF_Connection.c **** 
 652:.\Generated_Source\PSoC5/RF_Connection.c ****     /*******************************************************************************
 653:.\Generated_Source\PSoC5/RF_Connection.c ****     * Function Name: RF_Connection_GetRxBufferSize
 654:.\Generated_Source\PSoC5/RF_Connection.c ****     ********************************************************************************
 655:.\Generated_Source\PSoC5/RF_Connection.c ****     *
 656:.\Generated_Source\PSoC5/RF_Connection.c ****     * Summary:
 657:.\Generated_Source\PSoC5/RF_Connection.c ****     *  Returns the number of received bytes available in the RX buffer.
 658:.\Generated_Source\PSoC5/RF_Connection.c ****     *  * RX software buffer is disabled (RX Buffer Size parameter is equal to 4): 
 659:.\Generated_Source\PSoC5/RF_Connection.c ****     *    returns 0 for empty RX FIFO or 1 for not empty RX FIFO.
 660:.\Generated_Source\PSoC5/RF_Connection.c ****     *  * RX software buffer is enabled: returns the number of bytes available in 
 661:.\Generated_Source\PSoC5/RF_Connection.c ****     *    the RX software buffer. Bytes available in the RX FIFO do not take to 
 662:.\Generated_Source\PSoC5/RF_Connection.c ****     *    account.
 663:.\Generated_Source\PSoC5/RF_Connection.c ****     *
 664:.\Generated_Source\PSoC5/RF_Connection.c ****     * Parameters:
 665:.\Generated_Source\PSoC5/RF_Connection.c ****     *  None.
 666:.\Generated_Source\PSoC5/RF_Connection.c ****     *
 667:.\Generated_Source\PSoC5/RF_Connection.c ****     * Return:
 668:.\Generated_Source\PSoC5/RF_Connection.c ****     *  uint16: Number of bytes in the RX buffer. 
 669:.\Generated_Source\PSoC5/RF_Connection.c ****     *    Return value type depends on RX Buffer Size parameter.
 670:.\Generated_Source\PSoC5/RF_Connection.c ****     *
 671:.\Generated_Source\PSoC5/RF_Connection.c ****     * Global Variables:
 672:.\Generated_Source\PSoC5/RF_Connection.c ****     *  RF_Connection_rxBufferWrite - used to calculate left bytes.
 673:.\Generated_Source\PSoC5/RF_Connection.c ****     *  RF_Connection_rxBufferRead - used to calculate left bytes.
 674:.\Generated_Source\PSoC5/RF_Connection.c ****     *  RF_Connection_rxBufferLoopDetect - checked to decide left bytes amount.
 675:.\Generated_Source\PSoC5/RF_Connection.c ****     *
 676:.\Generated_Source\PSoC5/RF_Connection.c ****     * Reentrant:
ARM GAS  C:\Users\Diego\AppData\Local\Temp\ccmnqHZ6.s 			page 24


 677:.\Generated_Source\PSoC5/RF_Connection.c ****     *  No.
 678:.\Generated_Source\PSoC5/RF_Connection.c ****     *
 679:.\Generated_Source\PSoC5/RF_Connection.c ****     * Theory:
 680:.\Generated_Source\PSoC5/RF_Connection.c ****     *  Allows the user to find out how full the RX Buffer is.
 681:.\Generated_Source\PSoC5/RF_Connection.c ****     *
 682:.\Generated_Source\PSoC5/RF_Connection.c ****     *******************************************************************************/
 683:.\Generated_Source\PSoC5/RF_Connection.c ****     uint16 RF_Connection_GetRxBufferSize(void)
 684:.\Generated_Source\PSoC5/RF_Connection.c ****                                                             
 685:.\Generated_Source\PSoC5/RF_Connection.c ****     {
 619              		.loc 1 685 0
 620              		.cfi_startproc
 621              		@ args = 0, pretend = 0, frame = 0
 622              		@ frame_needed = 0, uses_anonymous_args = 0
 623              		@ link register save eliminated.
 686:.\Generated_Source\PSoC5/RF_Connection.c ****         uint16 size;
 687:.\Generated_Source\PSoC5/RF_Connection.c **** 
 688:.\Generated_Source\PSoC5/RF_Connection.c ****     #if (RF_Connection_RX_INTERRUPT_ENABLED)
 689:.\Generated_Source\PSoC5/RF_Connection.c **** 
 690:.\Generated_Source\PSoC5/RF_Connection.c ****         /* Protect variables that could change on interrupt */
 691:.\Generated_Source\PSoC5/RF_Connection.c ****         RF_Connection_DisableRxInt();
 624              		.loc 1 691 0
 625 0000 0822     		movs	r2, #8
 626 0002 164B     		ldr	r3, .L58
 627 0004 1A60     		str	r2, [r3]
 692:.\Generated_Source\PSoC5/RF_Connection.c **** 
 693:.\Generated_Source\PSoC5/RF_Connection.c ****         if(RF_Connection_rxBufferRead == RF_Connection_rxBufferWrite)
 628              		.loc 1 693 0
 629 0006 164B     		ldr	r3, .L58+4
 630 0008 5A88     		ldrh	r2, [r3, #2]
 631 000a 92B2     		uxth	r2, r2
 632 000c 9B88     		ldrh	r3, [r3, #4]
 633 000e 9BB2     		uxth	r3, r3
 634 0010 9A42     		cmp	r2, r3
 635 0012 07D1     		bne	.L54
 694:.\Generated_Source\PSoC5/RF_Connection.c ****         {
 695:.\Generated_Source\PSoC5/RF_Connection.c ****             if(RF_Connection_rxBufferLoopDetect != 0u)
 636              		.loc 1 695 0
 637 0014 124B     		ldr	r3, .L58+4
 638 0016 9B79     		ldrb	r3, [r3, #6]	@ zero_extendqisi2
 639 0018 13F0FF0F 		tst	r3, #255
 640 001c 19D0     		beq	.L57
 696:.\Generated_Source\PSoC5/RF_Connection.c ****             {
 697:.\Generated_Source\PSoC5/RF_Connection.c ****                 size = RF_Connection_RX_BUFFER_SIZE;
 641              		.loc 1 697 0
 642 001e 4FF40070 		mov	r0, #512
 643 0022 17E0     		b	.L55
 644              	.L54:
 698:.\Generated_Source\PSoC5/RF_Connection.c ****             }
 699:.\Generated_Source\PSoC5/RF_Connection.c ****             else
 700:.\Generated_Source\PSoC5/RF_Connection.c ****             {
 701:.\Generated_Source\PSoC5/RF_Connection.c ****                 size = 0u;
 702:.\Generated_Source\PSoC5/RF_Connection.c ****             }
 703:.\Generated_Source\PSoC5/RF_Connection.c ****         }
 704:.\Generated_Source\PSoC5/RF_Connection.c ****         else if(RF_Connection_rxBufferRead < RF_Connection_rxBufferWrite)
 645              		.loc 1 704 0
 646 0024 0E4B     		ldr	r3, .L58+4
 647 0026 5A88     		ldrh	r2, [r3, #2]
ARM GAS  C:\Users\Diego\AppData\Local\Temp\ccmnqHZ6.s 			page 25


 648 0028 92B2     		uxth	r2, r2
 649 002a 9B88     		ldrh	r3, [r3, #4]
 650 002c 9BB2     		uxth	r3, r3
 651 002e 9A42     		cmp	r2, r3
 652 0030 05D2     		bcs	.L56
 705:.\Generated_Source\PSoC5/RF_Connection.c ****         {
 706:.\Generated_Source\PSoC5/RF_Connection.c ****             size = (RF_Connection_rxBufferWrite - RF_Connection_rxBufferRead);
 653              		.loc 1 706 0
 654 0032 0B4A     		ldr	r2, .L58+4
 655 0034 9388     		ldrh	r3, [r2, #4]
 656 0036 5088     		ldrh	r0, [r2, #2]
 657 0038 181A     		subs	r0, r3, r0
 658 003a 80B2     		uxth	r0, r0
 659              	.LVL50:
 660 003c 0AE0     		b	.L55
 661              	.LVL51:
 662              	.L56:
 707:.\Generated_Source\PSoC5/RF_Connection.c ****         }
 708:.\Generated_Source\PSoC5/RF_Connection.c ****         else
 709:.\Generated_Source\PSoC5/RF_Connection.c ****         {
 710:.\Generated_Source\PSoC5/RF_Connection.c ****             size = (RF_Connection_RX_BUFFER_SIZE - RF_Connection_rxBufferRead) + RF_Connection_rxBu
 663              		.loc 1 710 0
 664 003e 084A     		ldr	r2, .L58+4
 665 0040 9088     		ldrh	r0, [r2, #4]
 666 0042 83B2     		uxth	r3, r0
 667 0044 5088     		ldrh	r0, [r2, #2]
 668 0046 80B2     		uxth	r0, r0
 669 0048 181A     		subs	r0, r3, r0
 670 004a 00F50070 		add	r0, r0, #512
 671 004e 80B2     		uxth	r0, r0
 672              	.LVL52:
 673 0050 00E0     		b	.L55
 674              	.LVL53:
 675              	.L57:
 701:.\Generated_Source\PSoC5/RF_Connection.c ****             }
 676              		.loc 1 701 0
 677 0052 0020     		movs	r0, #0
 678              	.L55:
 679              	.LVL54:
 711:.\Generated_Source\PSoC5/RF_Connection.c ****         }
 712:.\Generated_Source\PSoC5/RF_Connection.c **** 
 713:.\Generated_Source\PSoC5/RF_Connection.c ****         RF_Connection_EnableRxInt();
 680              		.loc 1 713 0
 681 0054 0822     		movs	r2, #8
 682 0056 034B     		ldr	r3, .L58+8
 683 0058 1A60     		str	r2, [r3]
 714:.\Generated_Source\PSoC5/RF_Connection.c **** 
 715:.\Generated_Source\PSoC5/RF_Connection.c ****     #else
 716:.\Generated_Source\PSoC5/RF_Connection.c **** 
 717:.\Generated_Source\PSoC5/RF_Connection.c ****         /* We can only know if there is data in the fifo. */
 718:.\Generated_Source\PSoC5/RF_Connection.c ****         size = ((RF_Connection_RXSTATUS_REG & RF_Connection_RX_STS_FIFO_NOTEMPTY) != 0u) ? 1u : 0u;
 719:.\Generated_Source\PSoC5/RF_Connection.c **** 
 720:.\Generated_Source\PSoC5/RF_Connection.c ****     #endif /* (RF_Connection_RX_INTERRUPT_ENABLED) */
 721:.\Generated_Source\PSoC5/RF_Connection.c **** 
 722:.\Generated_Source\PSoC5/RF_Connection.c ****         return(size);
 723:.\Generated_Source\PSoC5/RF_Connection.c ****     }
 684              		.loc 1 723 0
ARM GAS  C:\Users\Diego\AppData\Local\Temp\ccmnqHZ6.s 			page 26


 685 005a 7047     		bx	lr
 686              	.L59:
 687              		.align	2
 688              	.L58:
 689 005c 80E100E0 		.word	-536813184
 690 0060 00000000 		.word	.LANCHOR0
 691 0064 00E100E0 		.word	-536813312
 692              		.cfi_endproc
 693              	.LFE11:
 694              		.size	RF_Connection_GetRxBufferSize, .-RF_Connection_GetRxBufferSize
 695              		.section	.text.RF_Connection_ClearRxBuffer,"ax",%progbits
 696              		.align	2
 697              		.global	RF_Connection_ClearRxBuffer
 698              		.thumb
 699              		.thumb_func
 700              		.type	RF_Connection_ClearRxBuffer, %function
 701              	RF_Connection_ClearRxBuffer:
 702              	.LFB12:
 724:.\Generated_Source\PSoC5/RF_Connection.c **** 
 725:.\Generated_Source\PSoC5/RF_Connection.c **** 
 726:.\Generated_Source\PSoC5/RF_Connection.c ****     /*******************************************************************************
 727:.\Generated_Source\PSoC5/RF_Connection.c ****     * Function Name: RF_Connection_ClearRxBuffer
 728:.\Generated_Source\PSoC5/RF_Connection.c ****     ********************************************************************************
 729:.\Generated_Source\PSoC5/RF_Connection.c ****     *
 730:.\Generated_Source\PSoC5/RF_Connection.c ****     * Summary:
 731:.\Generated_Source\PSoC5/RF_Connection.c ****     *  Clears the receiver memory buffer and hardware RX FIFO of all received data.
 732:.\Generated_Source\PSoC5/RF_Connection.c ****     *
 733:.\Generated_Source\PSoC5/RF_Connection.c ****     * Parameters:
 734:.\Generated_Source\PSoC5/RF_Connection.c ****     *  None.
 735:.\Generated_Source\PSoC5/RF_Connection.c ****     *
 736:.\Generated_Source\PSoC5/RF_Connection.c ****     * Return:
 737:.\Generated_Source\PSoC5/RF_Connection.c ****     *  None.
 738:.\Generated_Source\PSoC5/RF_Connection.c ****     *
 739:.\Generated_Source\PSoC5/RF_Connection.c ****     * Global Variables:
 740:.\Generated_Source\PSoC5/RF_Connection.c ****     *  RF_Connection_rxBufferWrite - cleared to zero.
 741:.\Generated_Source\PSoC5/RF_Connection.c ****     *  RF_Connection_rxBufferRead - cleared to zero.
 742:.\Generated_Source\PSoC5/RF_Connection.c ****     *  RF_Connection_rxBufferLoopDetect - cleared to zero.
 743:.\Generated_Source\PSoC5/RF_Connection.c ****     *  RF_Connection_rxBufferOverflow - cleared to zero.
 744:.\Generated_Source\PSoC5/RF_Connection.c ****     *
 745:.\Generated_Source\PSoC5/RF_Connection.c ****     * Reentrant:
 746:.\Generated_Source\PSoC5/RF_Connection.c ****     *  No.
 747:.\Generated_Source\PSoC5/RF_Connection.c ****     *
 748:.\Generated_Source\PSoC5/RF_Connection.c ****     * Theory:
 749:.\Generated_Source\PSoC5/RF_Connection.c ****     *  Setting the pointers to zero makes the system believe there is no data to
 750:.\Generated_Source\PSoC5/RF_Connection.c ****     *  read and writing will resume at address 0 overwriting any data that may
 751:.\Generated_Source\PSoC5/RF_Connection.c ****     *  have remained in the RAM.
 752:.\Generated_Source\PSoC5/RF_Connection.c ****     *
 753:.\Generated_Source\PSoC5/RF_Connection.c ****     * Side Effects:
 754:.\Generated_Source\PSoC5/RF_Connection.c ****     *  Any received data not read from the RAM or FIFO buffer will be lost.
 755:.\Generated_Source\PSoC5/RF_Connection.c ****     *
 756:.\Generated_Source\PSoC5/RF_Connection.c ****     *******************************************************************************/
 757:.\Generated_Source\PSoC5/RF_Connection.c ****     void RF_Connection_ClearRxBuffer(void) 
 758:.\Generated_Source\PSoC5/RF_Connection.c ****     {
 703              		.loc 1 758 0
 704              		.cfi_startproc
 705              		@ args = 0, pretend = 0, frame = 0
 706              		@ frame_needed = 0, uses_anonymous_args = 0
ARM GAS  C:\Users\Diego\AppData\Local\Temp\ccmnqHZ6.s 			page 27


 707 0000 08B5     		push	{r3, lr}
 708              		.cfi_def_cfa_offset 8
 709              		.cfi_offset 3, -8
 710              		.cfi_offset 14, -4
 759:.\Generated_Source\PSoC5/RF_Connection.c ****         uint8 enableInterrupts;
 760:.\Generated_Source\PSoC5/RF_Connection.c **** 
 761:.\Generated_Source\PSoC5/RF_Connection.c ****         /* Clear the HW FIFO */
 762:.\Generated_Source\PSoC5/RF_Connection.c ****         enableInterrupts = CyEnterCriticalSection();
 711              		.loc 1 762 0
 712 0002 FFF7FEFF 		bl	CyEnterCriticalSection
 713              	.LVL55:
 763:.\Generated_Source\PSoC5/RF_Connection.c ****         RF_Connection_RXDATA_AUX_CTL_REG |= (uint8)  RF_Connection_RX_FIFO_CLR;
 714              		.loc 1 763 0
 715 0006 0B4B     		ldr	r3, .L62
 716 0008 1A78     		ldrb	r2, [r3]	@ zero_extendqisi2
 717 000a 42F00102 		orr	r2, r2, #1
 718 000e 1A70     		strb	r2, [r3]
 764:.\Generated_Source\PSoC5/RF_Connection.c ****         RF_Connection_RXDATA_AUX_CTL_REG &= (uint8) ~RF_Connection_RX_FIFO_CLR;
 719              		.loc 1 764 0
 720 0010 1A78     		ldrb	r2, [r3]	@ zero_extendqisi2
 721 0012 02F0FE02 		and	r2, r2, #254
 722 0016 1A70     		strb	r2, [r3]
 765:.\Generated_Source\PSoC5/RF_Connection.c ****         CyExitCriticalSection(enableInterrupts);
 723              		.loc 1 765 0
 724 0018 FFF7FEFF 		bl	CyExitCriticalSection
 725              	.LVL56:
 766:.\Generated_Source\PSoC5/RF_Connection.c **** 
 767:.\Generated_Source\PSoC5/RF_Connection.c ****     #if (RF_Connection_RX_INTERRUPT_ENABLED)
 768:.\Generated_Source\PSoC5/RF_Connection.c **** 
 769:.\Generated_Source\PSoC5/RF_Connection.c ****         /* Protect variables that could change on interrupt. */
 770:.\Generated_Source\PSoC5/RF_Connection.c ****         RF_Connection_DisableRxInt();
 726              		.loc 1 770 0
 727 001c 0821     		movs	r1, #8
 728 001e 064B     		ldr	r3, .L62+4
 729 0020 1960     		str	r1, [r3]
 771:.\Generated_Source\PSoC5/RF_Connection.c **** 
 772:.\Generated_Source\PSoC5/RF_Connection.c ****         RF_Connection_rxBufferRead = 0u;
 730              		.loc 1 772 0
 731 0022 064B     		ldr	r3, .L62+8
 732 0024 0022     		movs	r2, #0
 733 0026 5A80     		strh	r2, [r3, #2]	@ movhi
 773:.\Generated_Source\PSoC5/RF_Connection.c ****         RF_Connection_rxBufferWrite = 0u;
 734              		.loc 1 773 0
 735 0028 9A80     		strh	r2, [r3, #4]	@ movhi
 774:.\Generated_Source\PSoC5/RF_Connection.c ****         RF_Connection_rxBufferLoopDetect = 0u;
 736              		.loc 1 774 0
 737 002a 9A71     		strb	r2, [r3, #6]
 775:.\Generated_Source\PSoC5/RF_Connection.c ****         RF_Connection_rxBufferOverflow = 0u;
 738              		.loc 1 775 0
 739 002c DA71     		strb	r2, [r3, #7]
 776:.\Generated_Source\PSoC5/RF_Connection.c **** 
 777:.\Generated_Source\PSoC5/RF_Connection.c ****         RF_Connection_EnableRxInt();
 740              		.loc 1 777 0
 741 002e 044B     		ldr	r3, .L62+12
 742 0030 1960     		str	r1, [r3]
 743 0032 08BD     		pop	{r3, pc}
 744              	.L63:
ARM GAS  C:\Users\Diego\AppData\Local\Temp\ccmnqHZ6.s 			page 28


 745              		.align	2
 746              	.L62:
 747 0034 98640040 		.word	1073767576
 748 0038 80E100E0 		.word	-536813184
 749 003c 00000000 		.word	.LANCHOR0
 750 0040 00E100E0 		.word	-536813312
 751              		.cfi_endproc
 752              	.LFE12:
 753              		.size	RF_Connection_ClearRxBuffer, .-RF_Connection_ClearRxBuffer
 754              		.section	.text.RF_Connection_SetRxAddressMode,"ax",%progbits
 755              		.align	2
 756              		.global	RF_Connection_SetRxAddressMode
 757              		.thumb
 758              		.thumb_func
 759              		.type	RF_Connection_SetRxAddressMode, %function
 760              	RF_Connection_SetRxAddressMode:
 761              	.LFB13:
 778:.\Generated_Source\PSoC5/RF_Connection.c **** 
 779:.\Generated_Source\PSoC5/RF_Connection.c ****     #endif /* (RF_Connection_RX_INTERRUPT_ENABLED) */
 780:.\Generated_Source\PSoC5/RF_Connection.c **** 
 781:.\Generated_Source\PSoC5/RF_Connection.c ****     }
 782:.\Generated_Source\PSoC5/RF_Connection.c **** 
 783:.\Generated_Source\PSoC5/RF_Connection.c **** 
 784:.\Generated_Source\PSoC5/RF_Connection.c ****     /*******************************************************************************
 785:.\Generated_Source\PSoC5/RF_Connection.c ****     * Function Name: RF_Connection_SetRxAddressMode
 786:.\Generated_Source\PSoC5/RF_Connection.c ****     ********************************************************************************
 787:.\Generated_Source\PSoC5/RF_Connection.c ****     *
 788:.\Generated_Source\PSoC5/RF_Connection.c ****     * Summary:
 789:.\Generated_Source\PSoC5/RF_Connection.c ****     *  Sets the software controlled Addressing mode used by the RX portion of the
 790:.\Generated_Source\PSoC5/RF_Connection.c ****     *  UART.
 791:.\Generated_Source\PSoC5/RF_Connection.c ****     *
 792:.\Generated_Source\PSoC5/RF_Connection.c ****     * Parameters:
 793:.\Generated_Source\PSoC5/RF_Connection.c ****     *  addressMode: Enumerated value indicating the mode of RX addressing
 794:.\Generated_Source\PSoC5/RF_Connection.c ****     *  RF_Connection__B_UART__AM_SW_BYTE_BYTE -  Software Byte-by-Byte address
 795:.\Generated_Source\PSoC5/RF_Connection.c ****     *                                               detection
 796:.\Generated_Source\PSoC5/RF_Connection.c ****     *  RF_Connection__B_UART__AM_SW_DETECT_TO_BUFFER - Software Detect to Buffer
 797:.\Generated_Source\PSoC5/RF_Connection.c ****     *                                               address detection
 798:.\Generated_Source\PSoC5/RF_Connection.c ****     *  RF_Connection__B_UART__AM_HW_BYTE_BY_BYTE - Hardware Byte-by-Byte address
 799:.\Generated_Source\PSoC5/RF_Connection.c ****     *                                               detection
 800:.\Generated_Source\PSoC5/RF_Connection.c ****     *  RF_Connection__B_UART__AM_HW_DETECT_TO_BUFFER - Hardware Detect to Buffer
 801:.\Generated_Source\PSoC5/RF_Connection.c ****     *                                               address detection
 802:.\Generated_Source\PSoC5/RF_Connection.c ****     *  RF_Connection__B_UART__AM_NONE - No address detection
 803:.\Generated_Source\PSoC5/RF_Connection.c ****     *
 804:.\Generated_Source\PSoC5/RF_Connection.c ****     * Return:
 805:.\Generated_Source\PSoC5/RF_Connection.c ****     *  None.
 806:.\Generated_Source\PSoC5/RF_Connection.c ****     *
 807:.\Generated_Source\PSoC5/RF_Connection.c ****     * Global Variables:
 808:.\Generated_Source\PSoC5/RF_Connection.c ****     *  RF_Connection_rxAddressMode - the parameter stored in this variable for
 809:.\Generated_Source\PSoC5/RF_Connection.c ****     *   the farther usage in RX ISR.
 810:.\Generated_Source\PSoC5/RF_Connection.c ****     *  RF_Connection_rxAddressDetected - set to initial state (0).
 811:.\Generated_Source\PSoC5/RF_Connection.c ****     *
 812:.\Generated_Source\PSoC5/RF_Connection.c ****     *******************************************************************************/
 813:.\Generated_Source\PSoC5/RF_Connection.c ****     void RF_Connection_SetRxAddressMode(uint8 addressMode)
 814:.\Generated_Source\PSoC5/RF_Connection.c ****                                                         
 815:.\Generated_Source\PSoC5/RF_Connection.c ****     {
 762              		.loc 1 815 0
 763              		.cfi_startproc
ARM GAS  C:\Users\Diego\AppData\Local\Temp\ccmnqHZ6.s 			page 29


 764              		@ args = 0, pretend = 0, frame = 0
 765              		@ frame_needed = 0, uses_anonymous_args = 0
 766              		@ link register save eliminated.
 767              	.LVL57:
 768 0000 7047     		bx	lr
 769              		.cfi_endproc
 770              	.LFE13:
 771              		.size	RF_Connection_SetRxAddressMode, .-RF_Connection_SetRxAddressMode
 772 0002 00BF     		.section	.text.RF_Connection_SetRxAddress1,"ax",%progbits
 773              		.align	2
 774              		.global	RF_Connection_SetRxAddress1
 775              		.thumb
 776              		.thumb_func
 777              		.type	RF_Connection_SetRxAddress1, %function
 778              	RF_Connection_SetRxAddress1:
 779              	.LFB14:
 816:.\Generated_Source\PSoC5/RF_Connection.c ****         #if(RF_Connection_RXHW_ADDRESS_ENABLED)
 817:.\Generated_Source\PSoC5/RF_Connection.c ****             #if(RF_Connection_CONTROL_REG_REMOVED)
 818:.\Generated_Source\PSoC5/RF_Connection.c ****                 if(0u != addressMode)
 819:.\Generated_Source\PSoC5/RF_Connection.c ****                 {
 820:.\Generated_Source\PSoC5/RF_Connection.c ****                     /* Suppress compiler warning */
 821:.\Generated_Source\PSoC5/RF_Connection.c ****                 }
 822:.\Generated_Source\PSoC5/RF_Connection.c ****             #else /* RF_Connection_CONTROL_REG_REMOVED */
 823:.\Generated_Source\PSoC5/RF_Connection.c ****                 uint8 tmpCtrl;
 824:.\Generated_Source\PSoC5/RF_Connection.c ****                 tmpCtrl = RF_Connection_CONTROL_REG & (uint8)~RF_Connection_CTRL_RXADDR_MODE_MASK;
 825:.\Generated_Source\PSoC5/RF_Connection.c ****                 tmpCtrl |= (uint8)(addressMode << RF_Connection_CTRL_RXADDR_MODE0_SHIFT);
 826:.\Generated_Source\PSoC5/RF_Connection.c ****                 RF_Connection_CONTROL_REG = tmpCtrl;
 827:.\Generated_Source\PSoC5/RF_Connection.c **** 
 828:.\Generated_Source\PSoC5/RF_Connection.c ****                 #if(RF_Connection_RX_INTERRUPT_ENABLED && \
 829:.\Generated_Source\PSoC5/RF_Connection.c ****                    (RF_Connection_RXBUFFERSIZE > RF_Connection_FIFO_LENGTH) )
 830:.\Generated_Source\PSoC5/RF_Connection.c ****                     RF_Connection_rxAddressMode = addressMode;
 831:.\Generated_Source\PSoC5/RF_Connection.c ****                     RF_Connection_rxAddressDetected = 0u;
 832:.\Generated_Source\PSoC5/RF_Connection.c ****                 #endif /* End RF_Connection_RXBUFFERSIZE > RF_Connection_FIFO_LENGTH*/
 833:.\Generated_Source\PSoC5/RF_Connection.c ****             #endif /* End RF_Connection_CONTROL_REG_REMOVED */
 834:.\Generated_Source\PSoC5/RF_Connection.c ****         #else /* RF_Connection_RXHW_ADDRESS_ENABLED */
 835:.\Generated_Source\PSoC5/RF_Connection.c ****             if(0u != addressMode)
 836:.\Generated_Source\PSoC5/RF_Connection.c ****             {
 837:.\Generated_Source\PSoC5/RF_Connection.c ****                 /* Suppress compiler warning */
 838:.\Generated_Source\PSoC5/RF_Connection.c ****             }
 839:.\Generated_Source\PSoC5/RF_Connection.c ****         #endif /* End RF_Connection_RXHW_ADDRESS_ENABLED */
 840:.\Generated_Source\PSoC5/RF_Connection.c ****     }
 841:.\Generated_Source\PSoC5/RF_Connection.c **** 
 842:.\Generated_Source\PSoC5/RF_Connection.c **** 
 843:.\Generated_Source\PSoC5/RF_Connection.c ****     /*******************************************************************************
 844:.\Generated_Source\PSoC5/RF_Connection.c ****     * Function Name: RF_Connection_SetRxAddress1
 845:.\Generated_Source\PSoC5/RF_Connection.c ****     ********************************************************************************
 846:.\Generated_Source\PSoC5/RF_Connection.c ****     *
 847:.\Generated_Source\PSoC5/RF_Connection.c ****     * Summary:
 848:.\Generated_Source\PSoC5/RF_Connection.c ****     *  Sets the first of two hardware-detectable receiver addresses.
 849:.\Generated_Source\PSoC5/RF_Connection.c ****     *
 850:.\Generated_Source\PSoC5/RF_Connection.c ****     * Parameters:
 851:.\Generated_Source\PSoC5/RF_Connection.c ****     *  address: Address #1 for hardware address detection.
 852:.\Generated_Source\PSoC5/RF_Connection.c ****     *
 853:.\Generated_Source\PSoC5/RF_Connection.c ****     * Return:
 854:.\Generated_Source\PSoC5/RF_Connection.c ****     *  None.
 855:.\Generated_Source\PSoC5/RF_Connection.c ****     *
 856:.\Generated_Source\PSoC5/RF_Connection.c ****     *******************************************************************************/
ARM GAS  C:\Users\Diego\AppData\Local\Temp\ccmnqHZ6.s 			page 30


 857:.\Generated_Source\PSoC5/RF_Connection.c ****     void RF_Connection_SetRxAddress1(uint8 address) 
 858:.\Generated_Source\PSoC5/RF_Connection.c ****     {
 780              		.loc 1 858 0
 781              		.cfi_startproc
 782              		@ args = 0, pretend = 0, frame = 0
 783              		@ frame_needed = 0, uses_anonymous_args = 0
 784              		@ link register save eliminated.
 785              	.LVL58:
 859:.\Generated_Source\PSoC5/RF_Connection.c ****         RF_Connection_RXADDRESS1_REG = address;
 786              		.loc 1 859 0
 787 0000 014B     		ldr	r3, .L66
 788 0002 1870     		strb	r0, [r3]
 789 0004 7047     		bx	lr
 790              	.L67:
 791 0006 00BF     		.align	2
 792              	.L66:
 793 0008 28640040 		.word	1073767464
 794              		.cfi_endproc
 795              	.LFE14:
 796              		.size	RF_Connection_SetRxAddress1, .-RF_Connection_SetRxAddress1
 797              		.section	.text.RF_Connection_SetRxAddress2,"ax",%progbits
 798              		.align	2
 799              		.global	RF_Connection_SetRxAddress2
 800              		.thumb
 801              		.thumb_func
 802              		.type	RF_Connection_SetRxAddress2, %function
 803              	RF_Connection_SetRxAddress2:
 804              	.LFB15:
 860:.\Generated_Source\PSoC5/RF_Connection.c ****     }
 861:.\Generated_Source\PSoC5/RF_Connection.c **** 
 862:.\Generated_Source\PSoC5/RF_Connection.c **** 
 863:.\Generated_Source\PSoC5/RF_Connection.c ****     /*******************************************************************************
 864:.\Generated_Source\PSoC5/RF_Connection.c ****     * Function Name: RF_Connection_SetRxAddress2
 865:.\Generated_Source\PSoC5/RF_Connection.c ****     ********************************************************************************
 866:.\Generated_Source\PSoC5/RF_Connection.c ****     *
 867:.\Generated_Source\PSoC5/RF_Connection.c ****     * Summary:
 868:.\Generated_Source\PSoC5/RF_Connection.c ****     *  Sets the second of two hardware-detectable receiver addresses.
 869:.\Generated_Source\PSoC5/RF_Connection.c ****     *
 870:.\Generated_Source\PSoC5/RF_Connection.c ****     * Parameters:
 871:.\Generated_Source\PSoC5/RF_Connection.c ****     *  address: Address #2 for hardware address detection.
 872:.\Generated_Source\PSoC5/RF_Connection.c ****     *
 873:.\Generated_Source\PSoC5/RF_Connection.c ****     * Return:
 874:.\Generated_Source\PSoC5/RF_Connection.c ****     *  None.
 875:.\Generated_Source\PSoC5/RF_Connection.c ****     *
 876:.\Generated_Source\PSoC5/RF_Connection.c ****     *******************************************************************************/
 877:.\Generated_Source\PSoC5/RF_Connection.c ****     void RF_Connection_SetRxAddress2(uint8 address) 
 878:.\Generated_Source\PSoC5/RF_Connection.c ****     {
 805              		.loc 1 878 0
 806              		.cfi_startproc
 807              		@ args = 0, pretend = 0, frame = 0
 808              		@ frame_needed = 0, uses_anonymous_args = 0
 809              		@ link register save eliminated.
 810              	.LVL59:
 879:.\Generated_Source\PSoC5/RF_Connection.c ****         RF_Connection_RXADDRESS2_REG = address;
 811              		.loc 1 879 0
 812 0000 014B     		ldr	r3, .L69
 813 0002 1870     		strb	r0, [r3]
ARM GAS  C:\Users\Diego\AppData\Local\Temp\ccmnqHZ6.s 			page 31


 814 0004 7047     		bx	lr
 815              	.L70:
 816 0006 00BF     		.align	2
 817              	.L69:
 818 0008 38640040 		.word	1073767480
 819              		.cfi_endproc
 820              	.LFE15:
 821              		.size	RF_Connection_SetRxAddress2, .-RF_Connection_SetRxAddress2
 822              		.section	.text.RF_Connection_SetTxInterruptMode,"ax",%progbits
 823              		.align	2
 824              		.global	RF_Connection_SetTxInterruptMode
 825              		.thumb
 826              		.thumb_func
 827              		.type	RF_Connection_SetTxInterruptMode, %function
 828              	RF_Connection_SetTxInterruptMode:
 829              	.LFB16:
 880:.\Generated_Source\PSoC5/RF_Connection.c ****     }
 881:.\Generated_Source\PSoC5/RF_Connection.c **** 
 882:.\Generated_Source\PSoC5/RF_Connection.c **** #endif  /* RF_Connection_RX_ENABLED || RF_Connection_HD_ENABLED*/
 883:.\Generated_Source\PSoC5/RF_Connection.c **** 
 884:.\Generated_Source\PSoC5/RF_Connection.c **** 
 885:.\Generated_Source\PSoC5/RF_Connection.c **** #if( (RF_Connection_TX_ENABLED) || (RF_Connection_HD_ENABLED) )
 886:.\Generated_Source\PSoC5/RF_Connection.c ****     /*******************************************************************************
 887:.\Generated_Source\PSoC5/RF_Connection.c ****     * Function Name: RF_Connection_SetTxInterruptMode
 888:.\Generated_Source\PSoC5/RF_Connection.c ****     ********************************************************************************
 889:.\Generated_Source\PSoC5/RF_Connection.c ****     *
 890:.\Generated_Source\PSoC5/RF_Connection.c ****     * Summary:
 891:.\Generated_Source\PSoC5/RF_Connection.c ****     *  Configures the TX interrupt sources to be enabled, but does not enable the
 892:.\Generated_Source\PSoC5/RF_Connection.c ****     *  interrupt.
 893:.\Generated_Source\PSoC5/RF_Connection.c ****     *
 894:.\Generated_Source\PSoC5/RF_Connection.c ****     * Parameters:
 895:.\Generated_Source\PSoC5/RF_Connection.c ****     *  intSrc: Bit field containing the TX interrupt sources to enable
 896:.\Generated_Source\PSoC5/RF_Connection.c ****     *   RF_Connection_TX_STS_COMPLETE        Interrupt on TX byte complete
 897:.\Generated_Source\PSoC5/RF_Connection.c ****     *   RF_Connection_TX_STS_FIFO_EMPTY      Interrupt when TX FIFO is empty
 898:.\Generated_Source\PSoC5/RF_Connection.c ****     *   RF_Connection_TX_STS_FIFO_FULL       Interrupt when TX FIFO is full
 899:.\Generated_Source\PSoC5/RF_Connection.c ****     *   RF_Connection_TX_STS_FIFO_NOT_FULL   Interrupt when TX FIFO is not full
 900:.\Generated_Source\PSoC5/RF_Connection.c ****     *
 901:.\Generated_Source\PSoC5/RF_Connection.c ****     * Return:
 902:.\Generated_Source\PSoC5/RF_Connection.c ****     *  None.
 903:.\Generated_Source\PSoC5/RF_Connection.c ****     *
 904:.\Generated_Source\PSoC5/RF_Connection.c ****     * Theory:
 905:.\Generated_Source\PSoC5/RF_Connection.c ****     *  Enables the output of specific status bits to the interrupt controller
 906:.\Generated_Source\PSoC5/RF_Connection.c ****     *
 907:.\Generated_Source\PSoC5/RF_Connection.c ****     *******************************************************************************/
 908:.\Generated_Source\PSoC5/RF_Connection.c ****     void RF_Connection_SetTxInterruptMode(uint8 intSrc) 
 909:.\Generated_Source\PSoC5/RF_Connection.c ****     {
 830              		.loc 1 909 0
 831              		.cfi_startproc
 832              		@ args = 0, pretend = 0, frame = 0
 833              		@ frame_needed = 0, uses_anonymous_args = 0
 834              		@ link register save eliminated.
 835              	.LVL60:
 910:.\Generated_Source\PSoC5/RF_Connection.c ****         RF_Connection_TXSTATUS_MASK_REG = intSrc;
 836              		.loc 1 910 0
 837 0000 014B     		ldr	r3, .L72
 838 0002 1870     		strb	r0, [r3]
 839 0004 7047     		bx	lr
ARM GAS  C:\Users\Diego\AppData\Local\Temp\ccmnqHZ6.s 			page 32


 840              	.L73:
 841 0006 00BF     		.align	2
 842              	.L72:
 843 0008 83640040 		.word	1073767555
 844              		.cfi_endproc
 845              	.LFE16:
 846              		.size	RF_Connection_SetTxInterruptMode, .-RF_Connection_SetTxInterruptMode
 847              		.section	.text.RF_Connection_WriteTxData,"ax",%progbits
 848              		.align	2
 849              		.global	RF_Connection_WriteTxData
 850              		.thumb
 851              		.thumb_func
 852              		.type	RF_Connection_WriteTxData, %function
 853              	RF_Connection_WriteTxData:
 854              	.LFB17:
 911:.\Generated_Source\PSoC5/RF_Connection.c ****     }
 912:.\Generated_Source\PSoC5/RF_Connection.c **** 
 913:.\Generated_Source\PSoC5/RF_Connection.c **** 
 914:.\Generated_Source\PSoC5/RF_Connection.c ****     /*******************************************************************************
 915:.\Generated_Source\PSoC5/RF_Connection.c ****     * Function Name: RF_Connection_WriteTxData
 916:.\Generated_Source\PSoC5/RF_Connection.c ****     ********************************************************************************
 917:.\Generated_Source\PSoC5/RF_Connection.c ****     *
 918:.\Generated_Source\PSoC5/RF_Connection.c ****     * Summary:
 919:.\Generated_Source\PSoC5/RF_Connection.c ****     *  Places a byte of data into the transmit buffer to be sent when the bus is
 920:.\Generated_Source\PSoC5/RF_Connection.c ****     *  available without checking the TX status register. You must check status
 921:.\Generated_Source\PSoC5/RF_Connection.c ****     *  separately.
 922:.\Generated_Source\PSoC5/RF_Connection.c ****     *
 923:.\Generated_Source\PSoC5/RF_Connection.c ****     * Parameters:
 924:.\Generated_Source\PSoC5/RF_Connection.c ****     *  txDataByte: data byte
 925:.\Generated_Source\PSoC5/RF_Connection.c ****     *
 926:.\Generated_Source\PSoC5/RF_Connection.c ****     * Return:
 927:.\Generated_Source\PSoC5/RF_Connection.c ****     * None.
 928:.\Generated_Source\PSoC5/RF_Connection.c ****     *
 929:.\Generated_Source\PSoC5/RF_Connection.c ****     * Global Variables:
 930:.\Generated_Source\PSoC5/RF_Connection.c ****     *  RF_Connection_txBuffer - RAM buffer pointer for save data for transmission
 931:.\Generated_Source\PSoC5/RF_Connection.c ****     *  RF_Connection_txBufferWrite - cyclic index for write to txBuffer,
 932:.\Generated_Source\PSoC5/RF_Connection.c ****     *    incremented after each byte saved to buffer.
 933:.\Generated_Source\PSoC5/RF_Connection.c ****     *  RF_Connection_txBufferRead - cyclic index for read from txBuffer,
 934:.\Generated_Source\PSoC5/RF_Connection.c ****     *    checked to identify the condition to write to FIFO directly or to TX buffer
 935:.\Generated_Source\PSoC5/RF_Connection.c ****     *  RF_Connection_initVar - checked to identify that the component has been
 936:.\Generated_Source\PSoC5/RF_Connection.c ****     *    initialized.
 937:.\Generated_Source\PSoC5/RF_Connection.c ****     *
 938:.\Generated_Source\PSoC5/RF_Connection.c ****     * Reentrant:
 939:.\Generated_Source\PSoC5/RF_Connection.c ****     *  No.
 940:.\Generated_Source\PSoC5/RF_Connection.c ****     *
 941:.\Generated_Source\PSoC5/RF_Connection.c ****     *******************************************************************************/
 942:.\Generated_Source\PSoC5/RF_Connection.c ****     void RF_Connection_WriteTxData(uint8 txDataByte) 
 943:.\Generated_Source\PSoC5/RF_Connection.c ****     {
 855              		.loc 1 943 0
 856              		.cfi_startproc
 857              		@ args = 0, pretend = 0, frame = 0
 858              		@ frame_needed = 0, uses_anonymous_args = 0
 859              		@ link register save eliminated.
 860              	.LVL61:
 944:.\Generated_Source\PSoC5/RF_Connection.c ****         /* If not Initialized then skip this function*/
 945:.\Generated_Source\PSoC5/RF_Connection.c ****         if(RF_Connection_initVar != 0u)
 861              		.loc 1 945 0
ARM GAS  C:\Users\Diego\AppData\Local\Temp\ccmnqHZ6.s 			page 33


 862 0000 024B     		ldr	r3, .L76
 863 0002 5B78     		ldrb	r3, [r3, #1]	@ zero_extendqisi2
 864 0004 0BB1     		cbz	r3, .L74
 946:.\Generated_Source\PSoC5/RF_Connection.c ****         {
 947:.\Generated_Source\PSoC5/RF_Connection.c ****         #if (RF_Connection_TX_INTERRUPT_ENABLED)
 948:.\Generated_Source\PSoC5/RF_Connection.c **** 
 949:.\Generated_Source\PSoC5/RF_Connection.c ****             /* Protect variables that could change on interrupt. */
 950:.\Generated_Source\PSoC5/RF_Connection.c ****             RF_Connection_DisableTxInt();
 951:.\Generated_Source\PSoC5/RF_Connection.c **** 
 952:.\Generated_Source\PSoC5/RF_Connection.c ****             if( (RF_Connection_txBufferRead == RF_Connection_txBufferWrite) &&
 953:.\Generated_Source\PSoC5/RF_Connection.c ****                 ((RF_Connection_TXSTATUS_REG & RF_Connection_TX_STS_FIFO_FULL) == 0u) )
 954:.\Generated_Source\PSoC5/RF_Connection.c ****             {
 955:.\Generated_Source\PSoC5/RF_Connection.c ****                 /* Add directly to the FIFO. */
 956:.\Generated_Source\PSoC5/RF_Connection.c ****                 RF_Connection_TXDATA_REG = txDataByte;
 957:.\Generated_Source\PSoC5/RF_Connection.c ****             }
 958:.\Generated_Source\PSoC5/RF_Connection.c ****             else
 959:.\Generated_Source\PSoC5/RF_Connection.c ****             {
 960:.\Generated_Source\PSoC5/RF_Connection.c ****                 if(RF_Connection_txBufferWrite >= RF_Connection_TX_BUFFER_SIZE)
 961:.\Generated_Source\PSoC5/RF_Connection.c ****                 {
 962:.\Generated_Source\PSoC5/RF_Connection.c ****                     RF_Connection_txBufferWrite = 0u;
 963:.\Generated_Source\PSoC5/RF_Connection.c ****                 }
 964:.\Generated_Source\PSoC5/RF_Connection.c **** 
 965:.\Generated_Source\PSoC5/RF_Connection.c ****                 RF_Connection_txBuffer[RF_Connection_txBufferWrite] = txDataByte;
 966:.\Generated_Source\PSoC5/RF_Connection.c **** 
 967:.\Generated_Source\PSoC5/RF_Connection.c ****                 /* Add to the software buffer. */
 968:.\Generated_Source\PSoC5/RF_Connection.c ****                 RF_Connection_txBufferWrite++;
 969:.\Generated_Source\PSoC5/RF_Connection.c ****             }
 970:.\Generated_Source\PSoC5/RF_Connection.c **** 
 971:.\Generated_Source\PSoC5/RF_Connection.c ****             RF_Connection_EnableTxInt();
 972:.\Generated_Source\PSoC5/RF_Connection.c **** 
 973:.\Generated_Source\PSoC5/RF_Connection.c ****         #else
 974:.\Generated_Source\PSoC5/RF_Connection.c **** 
 975:.\Generated_Source\PSoC5/RF_Connection.c ****             /* Add directly to the FIFO. */
 976:.\Generated_Source\PSoC5/RF_Connection.c ****             RF_Connection_TXDATA_REG = txDataByte;
 865              		.loc 1 976 0
 866 0006 024B     		ldr	r3, .L76+4
 867 0008 1870     		strb	r0, [r3]
 868              	.L74:
 869 000a 7047     		bx	lr
 870              	.L77:
 871              		.align	2
 872              	.L76:
 873 000c 00000000 		.word	.LANCHOR0
 874 0010 40640040 		.word	1073767488
 875              		.cfi_endproc
 876              	.LFE17:
 877              		.size	RF_Connection_WriteTxData, .-RF_Connection_WriteTxData
 878              		.section	.text.RF_Connection_ReadTxStatus,"ax",%progbits
 879              		.align	2
 880              		.global	RF_Connection_ReadTxStatus
 881              		.thumb
 882              		.thumb_func
 883              		.type	RF_Connection_ReadTxStatus, %function
 884              	RF_Connection_ReadTxStatus:
 885              	.LFB18:
 977:.\Generated_Source\PSoC5/RF_Connection.c **** 
 978:.\Generated_Source\PSoC5/RF_Connection.c ****         #endif /*(RF_Connection_TX_INTERRUPT_ENABLED) */
ARM GAS  C:\Users\Diego\AppData\Local\Temp\ccmnqHZ6.s 			page 34


 979:.\Generated_Source\PSoC5/RF_Connection.c ****         }
 980:.\Generated_Source\PSoC5/RF_Connection.c ****     }
 981:.\Generated_Source\PSoC5/RF_Connection.c **** 
 982:.\Generated_Source\PSoC5/RF_Connection.c **** 
 983:.\Generated_Source\PSoC5/RF_Connection.c ****     /*******************************************************************************
 984:.\Generated_Source\PSoC5/RF_Connection.c ****     * Function Name: RF_Connection_ReadTxStatus
 985:.\Generated_Source\PSoC5/RF_Connection.c ****     ********************************************************************************
 986:.\Generated_Source\PSoC5/RF_Connection.c ****     *
 987:.\Generated_Source\PSoC5/RF_Connection.c ****     * Summary:
 988:.\Generated_Source\PSoC5/RF_Connection.c ****     *  Reads the status register for the TX portion of the UART.
 989:.\Generated_Source\PSoC5/RF_Connection.c ****     *
 990:.\Generated_Source\PSoC5/RF_Connection.c ****     * Parameters:
 991:.\Generated_Source\PSoC5/RF_Connection.c ****     *  None.
 992:.\Generated_Source\PSoC5/RF_Connection.c ****     *
 993:.\Generated_Source\PSoC5/RF_Connection.c ****     * Return:
 994:.\Generated_Source\PSoC5/RF_Connection.c ****     *  Contents of the status register
 995:.\Generated_Source\PSoC5/RF_Connection.c ****     *
 996:.\Generated_Source\PSoC5/RF_Connection.c ****     * Theory:
 997:.\Generated_Source\PSoC5/RF_Connection.c ****     *  This function reads the TX status register, which is cleared on read.
 998:.\Generated_Source\PSoC5/RF_Connection.c ****     *  It is up to the user to handle all bits in this return value accordingly,
 999:.\Generated_Source\PSoC5/RF_Connection.c ****     *  even if the bit was not enabled as an interrupt source the event happened
1000:.\Generated_Source\PSoC5/RF_Connection.c ****     *  and must be handled accordingly.
1001:.\Generated_Source\PSoC5/RF_Connection.c ****     *
1002:.\Generated_Source\PSoC5/RF_Connection.c ****     *******************************************************************************/
1003:.\Generated_Source\PSoC5/RF_Connection.c ****     uint8 RF_Connection_ReadTxStatus(void) 
1004:.\Generated_Source\PSoC5/RF_Connection.c ****     {
 886              		.loc 1 1004 0
 887              		.cfi_startproc
 888              		@ args = 0, pretend = 0, frame = 0
 889              		@ frame_needed = 0, uses_anonymous_args = 0
 890              		@ link register save eliminated.
1005:.\Generated_Source\PSoC5/RF_Connection.c ****         return(RF_Connection_TXSTATUS_REG);
 891              		.loc 1 1005 0
 892 0000 014B     		ldr	r3, .L79
 893 0002 1878     		ldrb	r0, [r3]	@ zero_extendqisi2
1006:.\Generated_Source\PSoC5/RF_Connection.c ****     }
 894              		.loc 1 1006 0
 895 0004 7047     		bx	lr
 896              	.L80:
 897 0006 00BF     		.align	2
 898              	.L79:
 899 0008 63640040 		.word	1073767523
 900              		.cfi_endproc
 901              	.LFE18:
 902              		.size	RF_Connection_ReadTxStatus, .-RF_Connection_ReadTxStatus
 903              		.section	.text.RF_Connection_PutChar,"ax",%progbits
 904              		.align	2
 905              		.global	RF_Connection_PutChar
 906              		.thumb
 907              		.thumb_func
 908              		.type	RF_Connection_PutChar, %function
 909              	RF_Connection_PutChar:
 910              	.LFB19:
1007:.\Generated_Source\PSoC5/RF_Connection.c **** 
1008:.\Generated_Source\PSoC5/RF_Connection.c **** 
1009:.\Generated_Source\PSoC5/RF_Connection.c ****     /*******************************************************************************
1010:.\Generated_Source\PSoC5/RF_Connection.c ****     * Function Name: RF_Connection_PutChar
ARM GAS  C:\Users\Diego\AppData\Local\Temp\ccmnqHZ6.s 			page 35


1011:.\Generated_Source\PSoC5/RF_Connection.c ****     ********************************************************************************
1012:.\Generated_Source\PSoC5/RF_Connection.c ****     *
1013:.\Generated_Source\PSoC5/RF_Connection.c ****     * Summary:
1014:.\Generated_Source\PSoC5/RF_Connection.c ****     *  Puts a byte of data into the transmit buffer to be sent when the bus is
1015:.\Generated_Source\PSoC5/RF_Connection.c ****     *  available. This is a blocking API that waits until the TX buffer has room to
1016:.\Generated_Source\PSoC5/RF_Connection.c ****     *  hold the data.
1017:.\Generated_Source\PSoC5/RF_Connection.c ****     *
1018:.\Generated_Source\PSoC5/RF_Connection.c ****     * Parameters:
1019:.\Generated_Source\PSoC5/RF_Connection.c ****     *  txDataByte: Byte containing the data to transmit
1020:.\Generated_Source\PSoC5/RF_Connection.c ****     *
1021:.\Generated_Source\PSoC5/RF_Connection.c ****     * Return:
1022:.\Generated_Source\PSoC5/RF_Connection.c ****     *  None.
1023:.\Generated_Source\PSoC5/RF_Connection.c ****     *
1024:.\Generated_Source\PSoC5/RF_Connection.c ****     * Global Variables:
1025:.\Generated_Source\PSoC5/RF_Connection.c ****     *  RF_Connection_txBuffer - RAM buffer pointer for save data for transmission
1026:.\Generated_Source\PSoC5/RF_Connection.c ****     *  RF_Connection_txBufferWrite - cyclic index for write to txBuffer,
1027:.\Generated_Source\PSoC5/RF_Connection.c ****     *     checked to identify free space in txBuffer and incremented after each byte
1028:.\Generated_Source\PSoC5/RF_Connection.c ****     *     saved to buffer.
1029:.\Generated_Source\PSoC5/RF_Connection.c ****     *  RF_Connection_txBufferRead - cyclic index for read from txBuffer,
1030:.\Generated_Source\PSoC5/RF_Connection.c ****     *     checked to identify free space in txBuffer.
1031:.\Generated_Source\PSoC5/RF_Connection.c ****     *  RF_Connection_initVar - checked to identify that the component has been
1032:.\Generated_Source\PSoC5/RF_Connection.c ****     *     initialized.
1033:.\Generated_Source\PSoC5/RF_Connection.c ****     *
1034:.\Generated_Source\PSoC5/RF_Connection.c ****     * Reentrant:
1035:.\Generated_Source\PSoC5/RF_Connection.c ****     *  No.
1036:.\Generated_Source\PSoC5/RF_Connection.c ****     *
1037:.\Generated_Source\PSoC5/RF_Connection.c ****     * Theory:
1038:.\Generated_Source\PSoC5/RF_Connection.c ****     *  Allows the user to transmit any byte of data in a single transfer
1039:.\Generated_Source\PSoC5/RF_Connection.c ****     *
1040:.\Generated_Source\PSoC5/RF_Connection.c ****     *******************************************************************************/
1041:.\Generated_Source\PSoC5/RF_Connection.c ****     void RF_Connection_PutChar(uint8 txDataByte) 
1042:.\Generated_Source\PSoC5/RF_Connection.c ****     {
 911              		.loc 1 1042 0
 912              		.cfi_startproc
 913              		@ args = 0, pretend = 0, frame = 0
 914              		@ frame_needed = 0, uses_anonymous_args = 0
 915              		@ link register save eliminated.
 916              	.LVL62:
 917              	.L82:
1043:.\Generated_Source\PSoC5/RF_Connection.c ****     #if (RF_Connection_TX_INTERRUPT_ENABLED)
1044:.\Generated_Source\PSoC5/RF_Connection.c ****         /* The temporary output pointer is used since it takes two instructions
1045:.\Generated_Source\PSoC5/RF_Connection.c ****         *  to increment with a wrap, and we can't risk doing that with the real
1046:.\Generated_Source\PSoC5/RF_Connection.c ****         *  pointer and getting an interrupt in between instructions.
1047:.\Generated_Source\PSoC5/RF_Connection.c ****         */
1048:.\Generated_Source\PSoC5/RF_Connection.c ****         uint8 locTxBufferWrite;
1049:.\Generated_Source\PSoC5/RF_Connection.c ****         uint8 locTxBufferRead;
1050:.\Generated_Source\PSoC5/RF_Connection.c **** 
1051:.\Generated_Source\PSoC5/RF_Connection.c ****         do
1052:.\Generated_Source\PSoC5/RF_Connection.c ****         { /* Block if software buffer is full, so we don't overwrite. */
1053:.\Generated_Source\PSoC5/RF_Connection.c **** 
1054:.\Generated_Source\PSoC5/RF_Connection.c ****         #if ((RF_Connection_TX_BUFFER_SIZE > RF_Connection_MAX_BYTE_VALUE) && (CY_PSOC3))
1055:.\Generated_Source\PSoC5/RF_Connection.c ****             /* Disable TX interrupt to protect variables from modification */
1056:.\Generated_Source\PSoC5/RF_Connection.c ****             RF_Connection_DisableTxInt();
1057:.\Generated_Source\PSoC5/RF_Connection.c ****         #endif /* (RF_Connection_TX_BUFFER_SIZE > RF_Connection_MAX_BYTE_VALUE) && (CY_PSOC3) */
1058:.\Generated_Source\PSoC5/RF_Connection.c **** 
1059:.\Generated_Source\PSoC5/RF_Connection.c ****             locTxBufferWrite = RF_Connection_txBufferWrite;
1060:.\Generated_Source\PSoC5/RF_Connection.c ****             locTxBufferRead  = RF_Connection_txBufferRead;
ARM GAS  C:\Users\Diego\AppData\Local\Temp\ccmnqHZ6.s 			page 36


1061:.\Generated_Source\PSoC5/RF_Connection.c **** 
1062:.\Generated_Source\PSoC5/RF_Connection.c ****         #if ((RF_Connection_TX_BUFFER_SIZE > RF_Connection_MAX_BYTE_VALUE) && (CY_PSOC3))
1063:.\Generated_Source\PSoC5/RF_Connection.c ****             /* Enable interrupt to continue transmission */
1064:.\Generated_Source\PSoC5/RF_Connection.c ****             RF_Connection_EnableTxInt();
1065:.\Generated_Source\PSoC5/RF_Connection.c ****         #endif /* (RF_Connection_TX_BUFFER_SIZE > RF_Connection_MAX_BYTE_VALUE) && (CY_PSOC3) */
1066:.\Generated_Source\PSoC5/RF_Connection.c ****         }
1067:.\Generated_Source\PSoC5/RF_Connection.c ****         while( (locTxBufferWrite < locTxBufferRead) ? (locTxBufferWrite == (locTxBufferRead - 1u)) 
1068:.\Generated_Source\PSoC5/RF_Connection.c ****                                 ((locTxBufferWrite - locTxBufferRead) ==
1069:.\Generated_Source\PSoC5/RF_Connection.c ****                                 (uint8)(RF_Connection_TX_BUFFER_SIZE - 1u)) );
1070:.\Generated_Source\PSoC5/RF_Connection.c **** 
1071:.\Generated_Source\PSoC5/RF_Connection.c ****         if( (locTxBufferRead == locTxBufferWrite) &&
1072:.\Generated_Source\PSoC5/RF_Connection.c ****             ((RF_Connection_TXSTATUS_REG & RF_Connection_TX_STS_FIFO_FULL) == 0u) )
1073:.\Generated_Source\PSoC5/RF_Connection.c ****         {
1074:.\Generated_Source\PSoC5/RF_Connection.c ****             /* Add directly to the FIFO */
1075:.\Generated_Source\PSoC5/RF_Connection.c ****             RF_Connection_TXDATA_REG = txDataByte;
1076:.\Generated_Source\PSoC5/RF_Connection.c ****         }
1077:.\Generated_Source\PSoC5/RF_Connection.c ****         else
1078:.\Generated_Source\PSoC5/RF_Connection.c ****         {
1079:.\Generated_Source\PSoC5/RF_Connection.c ****             if(locTxBufferWrite >= RF_Connection_TX_BUFFER_SIZE)
1080:.\Generated_Source\PSoC5/RF_Connection.c ****             {
1081:.\Generated_Source\PSoC5/RF_Connection.c ****                 locTxBufferWrite = 0u;
1082:.\Generated_Source\PSoC5/RF_Connection.c ****             }
1083:.\Generated_Source\PSoC5/RF_Connection.c ****             /* Add to the software buffer. */
1084:.\Generated_Source\PSoC5/RF_Connection.c ****             RF_Connection_txBuffer[locTxBufferWrite] = txDataByte;
1085:.\Generated_Source\PSoC5/RF_Connection.c ****             locTxBufferWrite++;
1086:.\Generated_Source\PSoC5/RF_Connection.c **** 
1087:.\Generated_Source\PSoC5/RF_Connection.c ****             /* Finally, update the real output pointer */
1088:.\Generated_Source\PSoC5/RF_Connection.c ****         #if ((RF_Connection_TX_BUFFER_SIZE > RF_Connection_MAX_BYTE_VALUE) && (CY_PSOC3))
1089:.\Generated_Source\PSoC5/RF_Connection.c ****             RF_Connection_DisableTxInt();
1090:.\Generated_Source\PSoC5/RF_Connection.c ****         #endif /* (RF_Connection_TX_BUFFER_SIZE > RF_Connection_MAX_BYTE_VALUE) && (CY_PSOC3) */
1091:.\Generated_Source\PSoC5/RF_Connection.c **** 
1092:.\Generated_Source\PSoC5/RF_Connection.c ****             RF_Connection_txBufferWrite = locTxBufferWrite;
1093:.\Generated_Source\PSoC5/RF_Connection.c **** 
1094:.\Generated_Source\PSoC5/RF_Connection.c ****         #if ((RF_Connection_TX_BUFFER_SIZE > RF_Connection_MAX_BYTE_VALUE) && (CY_PSOC3))
1095:.\Generated_Source\PSoC5/RF_Connection.c ****             RF_Connection_EnableTxInt();
1096:.\Generated_Source\PSoC5/RF_Connection.c ****         #endif /* (RF_Connection_TX_BUFFER_SIZE > RF_Connection_MAX_BYTE_VALUE) && (CY_PSOC3) */
1097:.\Generated_Source\PSoC5/RF_Connection.c **** 
1098:.\Generated_Source\PSoC5/RF_Connection.c ****             if(0u != (RF_Connection_TXSTATUS_REG & RF_Connection_TX_STS_FIFO_EMPTY))
1099:.\Generated_Source\PSoC5/RF_Connection.c ****             {
1100:.\Generated_Source\PSoC5/RF_Connection.c ****                 /* Trigger TX interrupt to send software buffer */
1101:.\Generated_Source\PSoC5/RF_Connection.c ****                 RF_Connection_SetPendingTxInt();
1102:.\Generated_Source\PSoC5/RF_Connection.c ****             }
1103:.\Generated_Source\PSoC5/RF_Connection.c ****         }
1104:.\Generated_Source\PSoC5/RF_Connection.c **** 
1105:.\Generated_Source\PSoC5/RF_Connection.c ****     #else
1106:.\Generated_Source\PSoC5/RF_Connection.c **** 
1107:.\Generated_Source\PSoC5/RF_Connection.c ****         while((RF_Connection_TXSTATUS_REG & RF_Connection_TX_STS_FIFO_FULL) != 0u)
 918              		.loc 1 1107 0 discriminator 1
 919 0000 034B     		ldr	r3, .L83
 920 0002 1B78     		ldrb	r3, [r3]	@ zero_extendqisi2
 921 0004 13F0040F 		tst	r3, #4
 922 0008 FAD1     		bne	.L82
1108:.\Generated_Source\PSoC5/RF_Connection.c ****         {
1109:.\Generated_Source\PSoC5/RF_Connection.c ****             /* Wait for room in the FIFO */
1110:.\Generated_Source\PSoC5/RF_Connection.c ****         }
1111:.\Generated_Source\PSoC5/RF_Connection.c **** 
1112:.\Generated_Source\PSoC5/RF_Connection.c ****         /* Add directly to the FIFO */
ARM GAS  C:\Users\Diego\AppData\Local\Temp\ccmnqHZ6.s 			page 37


1113:.\Generated_Source\PSoC5/RF_Connection.c ****         RF_Connection_TXDATA_REG = txDataByte;
 923              		.loc 1 1113 0
 924 000a 024B     		ldr	r3, .L83+4
 925 000c 1870     		strb	r0, [r3]
 926 000e 7047     		bx	lr
 927              	.L84:
 928              		.align	2
 929              	.L83:
 930 0010 63640040 		.word	1073767523
 931 0014 40640040 		.word	1073767488
 932              		.cfi_endproc
 933              	.LFE19:
 934              		.size	RF_Connection_PutChar, .-RF_Connection_PutChar
 935              		.section	.text.RF_Connection_PutString,"ax",%progbits
 936              		.align	2
 937              		.global	RF_Connection_PutString
 938              		.thumb
 939              		.thumb_func
 940              		.type	RF_Connection_PutString, %function
 941              	RF_Connection_PutString:
 942              	.LFB20:
1114:.\Generated_Source\PSoC5/RF_Connection.c **** 
1115:.\Generated_Source\PSoC5/RF_Connection.c ****     #endif /* RF_Connection_TX_INTERRUPT_ENABLED */
1116:.\Generated_Source\PSoC5/RF_Connection.c ****     }
1117:.\Generated_Source\PSoC5/RF_Connection.c **** 
1118:.\Generated_Source\PSoC5/RF_Connection.c **** 
1119:.\Generated_Source\PSoC5/RF_Connection.c ****     /*******************************************************************************
1120:.\Generated_Source\PSoC5/RF_Connection.c ****     * Function Name: RF_Connection_PutString
1121:.\Generated_Source\PSoC5/RF_Connection.c ****     ********************************************************************************
1122:.\Generated_Source\PSoC5/RF_Connection.c ****     *
1123:.\Generated_Source\PSoC5/RF_Connection.c ****     * Summary:
1124:.\Generated_Source\PSoC5/RF_Connection.c ****     *  Sends a NULL terminated string to the TX buffer for transmission.
1125:.\Generated_Source\PSoC5/RF_Connection.c ****     *
1126:.\Generated_Source\PSoC5/RF_Connection.c ****     * Parameters:
1127:.\Generated_Source\PSoC5/RF_Connection.c ****     *  string[]: Pointer to the null terminated string array residing in RAM or ROM
1128:.\Generated_Source\PSoC5/RF_Connection.c ****     *
1129:.\Generated_Source\PSoC5/RF_Connection.c ****     * Return:
1130:.\Generated_Source\PSoC5/RF_Connection.c ****     *  None.
1131:.\Generated_Source\PSoC5/RF_Connection.c ****     *
1132:.\Generated_Source\PSoC5/RF_Connection.c ****     * Global Variables:
1133:.\Generated_Source\PSoC5/RF_Connection.c ****     *  RF_Connection_initVar - checked to identify that the component has been
1134:.\Generated_Source\PSoC5/RF_Connection.c ****     *     initialized.
1135:.\Generated_Source\PSoC5/RF_Connection.c ****     *
1136:.\Generated_Source\PSoC5/RF_Connection.c ****     * Reentrant:
1137:.\Generated_Source\PSoC5/RF_Connection.c ****     *  No.
1138:.\Generated_Source\PSoC5/RF_Connection.c ****     *
1139:.\Generated_Source\PSoC5/RF_Connection.c ****     * Theory:
1140:.\Generated_Source\PSoC5/RF_Connection.c ****     *  If there is not enough memory in the TX buffer for the entire string, this
1141:.\Generated_Source\PSoC5/RF_Connection.c ****     *  function blocks until the last character of the string is loaded into the
1142:.\Generated_Source\PSoC5/RF_Connection.c ****     *  TX buffer.
1143:.\Generated_Source\PSoC5/RF_Connection.c ****     *
1144:.\Generated_Source\PSoC5/RF_Connection.c ****     *******************************************************************************/
1145:.\Generated_Source\PSoC5/RF_Connection.c ****     void RF_Connection_PutString(const char8 string[]) 
1146:.\Generated_Source\PSoC5/RF_Connection.c ****     {
 943              		.loc 1 1146 0
 944              		.cfi_startproc
 945              		@ args = 0, pretend = 0, frame = 0
ARM GAS  C:\Users\Diego\AppData\Local\Temp\ccmnqHZ6.s 			page 38


 946              		@ frame_needed = 0, uses_anonymous_args = 0
 947              	.LVL63:
 948 0000 38B5     		push	{r3, r4, r5, lr}
 949              		.cfi_def_cfa_offset 16
 950              		.cfi_offset 3, -16
 951              		.cfi_offset 4, -12
 952              		.cfi_offset 5, -8
 953              		.cfi_offset 14, -4
 954              	.LVL64:
1147:.\Generated_Source\PSoC5/RF_Connection.c ****         uint16 bufIndex = 0u;
1148:.\Generated_Source\PSoC5/RF_Connection.c **** 
1149:.\Generated_Source\PSoC5/RF_Connection.c ****         /* If not Initialized then skip this function */
1150:.\Generated_Source\PSoC5/RF_Connection.c ****         if(RF_Connection_initVar != 0u)
 955              		.loc 1 1150 0
 956 0002 074B     		ldr	r3, .L91
 957 0004 5B78     		ldrb	r3, [r3, #1]	@ zero_extendqisi2
 958 0006 2BB9     		cbnz	r3, .L89
 959 0008 38BD     		pop	{r3, r4, r5, pc}
 960              	.LVL65:
 961              	.L88:
1151:.\Generated_Source\PSoC5/RF_Connection.c ****         {
1152:.\Generated_Source\PSoC5/RF_Connection.c ****             /* This is a blocking function, it will not exit until all data is sent */
1153:.\Generated_Source\PSoC5/RF_Connection.c ****             while(string[bufIndex] != (char8) 0)
1154:.\Generated_Source\PSoC5/RF_Connection.c ****             {
1155:.\Generated_Source\PSoC5/RF_Connection.c ****                 RF_Connection_PutChar((uint8)string[bufIndex]);
 962              		.loc 1 1155 0
 963 000a FFF7FEFF 		bl	RF_Connection_PutChar
 964              	.LVL66:
1156:.\Generated_Source\PSoC5/RF_Connection.c ****                 bufIndex++;
 965              		.loc 1 1156 0
 966 000e 0134     		adds	r4, r4, #1
 967              	.LVL67:
 968 0010 A4B2     		uxth	r4, r4
 969              	.LVL68:
 970 0012 01E0     		b	.L86
 971              	.LVL69:
 972              	.L89:
 973 0014 0546     		mov	r5, r0
 974 0016 0024     		movs	r4, #0
 975              	.LVL70:
 976              	.L86:
1153:.\Generated_Source\PSoC5/RF_Connection.c ****             {
 977              		.loc 1 1153 0
 978 0018 285D     		ldrb	r0, [r5, r4]	@ zero_extendqisi2
 979 001a 0028     		cmp	r0, #0
 980 001c F5D1     		bne	.L88
 981 001e 38BD     		pop	{r3, r4, r5, pc}
 982              	.LVL71:
 983              	.L92:
 984              		.align	2
 985              	.L91:
 986 0020 00000000 		.word	.LANCHOR0
 987              		.cfi_endproc
 988              	.LFE20:
 989              		.size	RF_Connection_PutString, .-RF_Connection_PutString
 990              		.section	.text.RF_Connection_PutArray,"ax",%progbits
 991              		.align	2
ARM GAS  C:\Users\Diego\AppData\Local\Temp\ccmnqHZ6.s 			page 39


 992              		.global	RF_Connection_PutArray
 993              		.thumb
 994              		.thumb_func
 995              		.type	RF_Connection_PutArray, %function
 996              	RF_Connection_PutArray:
 997              	.LFB21:
1157:.\Generated_Source\PSoC5/RF_Connection.c ****             }
1158:.\Generated_Source\PSoC5/RF_Connection.c ****         }
1159:.\Generated_Source\PSoC5/RF_Connection.c ****     }
1160:.\Generated_Source\PSoC5/RF_Connection.c **** 
1161:.\Generated_Source\PSoC5/RF_Connection.c **** 
1162:.\Generated_Source\PSoC5/RF_Connection.c ****     /*******************************************************************************
1163:.\Generated_Source\PSoC5/RF_Connection.c ****     * Function Name: RF_Connection_PutArray
1164:.\Generated_Source\PSoC5/RF_Connection.c ****     ********************************************************************************
1165:.\Generated_Source\PSoC5/RF_Connection.c ****     *
1166:.\Generated_Source\PSoC5/RF_Connection.c ****     * Summary:
1167:.\Generated_Source\PSoC5/RF_Connection.c ****     *  Places N bytes of data from a memory array into the TX buffer for
1168:.\Generated_Source\PSoC5/RF_Connection.c ****     *  transmission.
1169:.\Generated_Source\PSoC5/RF_Connection.c ****     *
1170:.\Generated_Source\PSoC5/RF_Connection.c ****     * Parameters:
1171:.\Generated_Source\PSoC5/RF_Connection.c ****     *  string[]: Address of the memory array residing in RAM or ROM.
1172:.\Generated_Source\PSoC5/RF_Connection.c ****     *  byteCount: Number of bytes to be transmitted. The type depends on TX Buffer
1173:.\Generated_Source\PSoC5/RF_Connection.c ****     *             Size parameter.
1174:.\Generated_Source\PSoC5/RF_Connection.c ****     *
1175:.\Generated_Source\PSoC5/RF_Connection.c ****     * Return:
1176:.\Generated_Source\PSoC5/RF_Connection.c ****     *  None.
1177:.\Generated_Source\PSoC5/RF_Connection.c ****     *
1178:.\Generated_Source\PSoC5/RF_Connection.c ****     * Global Variables:
1179:.\Generated_Source\PSoC5/RF_Connection.c ****     *  RF_Connection_initVar - checked to identify that the component has been
1180:.\Generated_Source\PSoC5/RF_Connection.c ****     *     initialized.
1181:.\Generated_Source\PSoC5/RF_Connection.c ****     *
1182:.\Generated_Source\PSoC5/RF_Connection.c ****     * Reentrant:
1183:.\Generated_Source\PSoC5/RF_Connection.c ****     *  No.
1184:.\Generated_Source\PSoC5/RF_Connection.c ****     *
1185:.\Generated_Source\PSoC5/RF_Connection.c ****     * Theory:
1186:.\Generated_Source\PSoC5/RF_Connection.c ****     *  If there is not enough memory in the TX buffer for the entire string, this
1187:.\Generated_Source\PSoC5/RF_Connection.c ****     *  function blocks until the last character of the string is loaded into the
1188:.\Generated_Source\PSoC5/RF_Connection.c ****     *  TX buffer.
1189:.\Generated_Source\PSoC5/RF_Connection.c ****     *
1190:.\Generated_Source\PSoC5/RF_Connection.c ****     *******************************************************************************/
1191:.\Generated_Source\PSoC5/RF_Connection.c ****     void RF_Connection_PutArray(const uint8 string[], uint8 byteCount)
1192:.\Generated_Source\PSoC5/RF_Connection.c ****                                                                     
1193:.\Generated_Source\PSoC5/RF_Connection.c ****     {
 998              		.loc 1 1193 0
 999              		.cfi_startproc
 1000              		@ args = 0, pretend = 0, frame = 0
 1001              		@ frame_needed = 0, uses_anonymous_args = 0
 1002              	.LVL72:
1194:.\Generated_Source\PSoC5/RF_Connection.c ****         uint8 bufIndex = 0u;
1195:.\Generated_Source\PSoC5/RF_Connection.c **** 
1196:.\Generated_Source\PSoC5/RF_Connection.c ****         /* If not Initialized then skip this function */
1197:.\Generated_Source\PSoC5/RF_Connection.c ****         if(RF_Connection_initVar != 0u)
 1003              		.loc 1 1197 0
 1004 0000 084B     		ldr	r3, .L99
 1005 0002 5B78     		ldrb	r3, [r3, #1]	@ zero_extendqisi2
 1006 0004 33B9     		cbnz	r3, .L97
 1007 0006 7047     		bx	lr
ARM GAS  C:\Users\Diego\AppData\Local\Temp\ccmnqHZ6.s 			page 40


 1008              	.LVL73:
 1009              	.L96:
 1010              		.cfi_def_cfa_offset 16
 1011              		.cfi_offset 4, -16
 1012              		.cfi_offset 5, -12
 1013              		.cfi_offset 6, -8
 1014              		.cfi_offset 14, -4
1198:.\Generated_Source\PSoC5/RF_Connection.c ****         {
1199:.\Generated_Source\PSoC5/RF_Connection.c ****             while(bufIndex < byteCount)
1200:.\Generated_Source\PSoC5/RF_Connection.c ****             {
1201:.\Generated_Source\PSoC5/RF_Connection.c ****                 RF_Connection_PutChar(string[bufIndex]);
 1015              		.loc 1 1201 0
 1016 0008 305D     		ldrb	r0, [r6, r4]	@ zero_extendqisi2
 1017 000a FFF7FEFF 		bl	RF_Connection_PutChar
 1018              	.LVL74:
1202:.\Generated_Source\PSoC5/RF_Connection.c ****                 bufIndex++;
 1019              		.loc 1 1202 0
 1020 000e 0134     		adds	r4, r4, #1
 1021              	.LVL75:
 1022 0010 E4B2     		uxtb	r4, r4
 1023              	.LVL76:
 1024 0012 03E0     		b	.L94
 1025              	.LVL77:
 1026              	.L97:
 1027              		.cfi_def_cfa_offset 0
 1028              		.cfi_restore 4
 1029              		.cfi_restore 5
 1030              		.cfi_restore 6
 1031              		.cfi_restore 14
1193:.\Generated_Source\PSoC5/RF_Connection.c ****         uint8 bufIndex = 0u;
 1032              		.loc 1 1193 0
 1033 0014 70B5     		push	{r4, r5, r6, lr}
 1034              		.cfi_def_cfa_offset 16
 1035              		.cfi_offset 4, -16
 1036              		.cfi_offset 5, -12
 1037              		.cfi_offset 6, -8
 1038              		.cfi_offset 14, -4
 1039 0016 0D46     		mov	r5, r1
 1040 0018 0646     		mov	r6, r0
 1041 001a 0024     		movs	r4, #0
 1042              	.LVL78:
 1043              	.L94:
1199:.\Generated_Source\PSoC5/RF_Connection.c ****             {
 1044              		.loc 1 1199 0
 1045 001c AC42     		cmp	r4, r5
 1046 001e F3D3     		bcc	.L96
 1047 0020 70BD     		pop	{r4, r5, r6, pc}
 1048              	.LVL79:
 1049              	.L100:
 1050 0022 00BF     		.align	2
 1051              	.L99:
 1052 0024 00000000 		.word	.LANCHOR0
 1053              		.cfi_endproc
 1054              	.LFE21:
 1055              		.size	RF_Connection_PutArray, .-RF_Connection_PutArray
 1056              		.section	.text.RF_Connection_PutCRLF,"ax",%progbits
 1057              		.align	2
ARM GAS  C:\Users\Diego\AppData\Local\Temp\ccmnqHZ6.s 			page 41


 1058              		.global	RF_Connection_PutCRLF
 1059              		.thumb
 1060              		.thumb_func
 1061              		.type	RF_Connection_PutCRLF, %function
 1062              	RF_Connection_PutCRLF:
 1063              	.LFB22:
1203:.\Generated_Source\PSoC5/RF_Connection.c ****             }
1204:.\Generated_Source\PSoC5/RF_Connection.c ****         }
1205:.\Generated_Source\PSoC5/RF_Connection.c ****     }
1206:.\Generated_Source\PSoC5/RF_Connection.c **** 
1207:.\Generated_Source\PSoC5/RF_Connection.c **** 
1208:.\Generated_Source\PSoC5/RF_Connection.c ****     /*******************************************************************************
1209:.\Generated_Source\PSoC5/RF_Connection.c ****     * Function Name: RF_Connection_PutCRLF
1210:.\Generated_Source\PSoC5/RF_Connection.c ****     ********************************************************************************
1211:.\Generated_Source\PSoC5/RF_Connection.c ****     *
1212:.\Generated_Source\PSoC5/RF_Connection.c ****     * Summary:
1213:.\Generated_Source\PSoC5/RF_Connection.c ****     *  Writes a byte of data followed by a carriage return (0x0D) and line feed
1214:.\Generated_Source\PSoC5/RF_Connection.c ****     *  (0x0A) to the transmit buffer.
1215:.\Generated_Source\PSoC5/RF_Connection.c ****     *
1216:.\Generated_Source\PSoC5/RF_Connection.c ****     * Parameters:
1217:.\Generated_Source\PSoC5/RF_Connection.c ****     *  txDataByte: Data byte to transmit before the carriage return and line feed.
1218:.\Generated_Source\PSoC5/RF_Connection.c ****     *
1219:.\Generated_Source\PSoC5/RF_Connection.c ****     * Return:
1220:.\Generated_Source\PSoC5/RF_Connection.c ****     *  None.
1221:.\Generated_Source\PSoC5/RF_Connection.c ****     *
1222:.\Generated_Source\PSoC5/RF_Connection.c ****     * Global Variables:
1223:.\Generated_Source\PSoC5/RF_Connection.c ****     *  RF_Connection_initVar - checked to identify that the component has been
1224:.\Generated_Source\PSoC5/RF_Connection.c ****     *     initialized.
1225:.\Generated_Source\PSoC5/RF_Connection.c ****     *
1226:.\Generated_Source\PSoC5/RF_Connection.c ****     * Reentrant:
1227:.\Generated_Source\PSoC5/RF_Connection.c ****     *  No.
1228:.\Generated_Source\PSoC5/RF_Connection.c ****     *
1229:.\Generated_Source\PSoC5/RF_Connection.c ****     *******************************************************************************/
1230:.\Generated_Source\PSoC5/RF_Connection.c ****     void RF_Connection_PutCRLF(uint8 txDataByte) 
1231:.\Generated_Source\PSoC5/RF_Connection.c ****     {
 1064              		.loc 1 1231 0
 1065              		.cfi_startproc
 1066              		@ args = 0, pretend = 0, frame = 0
 1067              		@ frame_needed = 0, uses_anonymous_args = 0
 1068              	.LVL80:
 1069 0000 08B5     		push	{r3, lr}
 1070              		.cfi_def_cfa_offset 8
 1071              		.cfi_offset 3, -8
 1072              		.cfi_offset 14, -4
1232:.\Generated_Source\PSoC5/RF_Connection.c ****         /* If not Initialized then skip this function */
1233:.\Generated_Source\PSoC5/RF_Connection.c ****         if(RF_Connection_initVar != 0u)
 1073              		.loc 1 1233 0
 1074 0002 064B     		ldr	r3, .L104
 1075 0004 5B78     		ldrb	r3, [r3, #1]	@ zero_extendqisi2
 1076 0006 3BB1     		cbz	r3, .L101
1234:.\Generated_Source\PSoC5/RF_Connection.c ****         {
1235:.\Generated_Source\PSoC5/RF_Connection.c ****             RF_Connection_PutChar(txDataByte);
 1077              		.loc 1 1235 0
 1078 0008 FFF7FEFF 		bl	RF_Connection_PutChar
 1079              	.LVL81:
1236:.\Generated_Source\PSoC5/RF_Connection.c ****             RF_Connection_PutChar(0x0Du);
 1080              		.loc 1 1236 0
ARM GAS  C:\Users\Diego\AppData\Local\Temp\ccmnqHZ6.s 			page 42


 1081 000c 0D20     		movs	r0, #13
 1082 000e FFF7FEFF 		bl	RF_Connection_PutChar
 1083              	.LVL82:
1237:.\Generated_Source\PSoC5/RF_Connection.c ****             RF_Connection_PutChar(0x0Au);
 1084              		.loc 1 1237 0
 1085 0012 0A20     		movs	r0, #10
 1086 0014 FFF7FEFF 		bl	RF_Connection_PutChar
 1087              	.LVL83:
 1088              	.L101:
 1089 0018 08BD     		pop	{r3, pc}
 1090              	.L105:
 1091 001a 00BF     		.align	2
 1092              	.L104:
 1093 001c 00000000 		.word	.LANCHOR0
 1094              		.cfi_endproc
 1095              	.LFE22:
 1096              		.size	RF_Connection_PutCRLF, .-RF_Connection_PutCRLF
 1097              		.section	.text.RF_Connection_GetTxBufferSize,"ax",%progbits
 1098              		.align	2
 1099              		.global	RF_Connection_GetTxBufferSize
 1100              		.thumb
 1101              		.thumb_func
 1102              		.type	RF_Connection_GetTxBufferSize, %function
 1103              	RF_Connection_GetTxBufferSize:
 1104              	.LFB23:
1238:.\Generated_Source\PSoC5/RF_Connection.c ****         }
1239:.\Generated_Source\PSoC5/RF_Connection.c ****     }
1240:.\Generated_Source\PSoC5/RF_Connection.c **** 
1241:.\Generated_Source\PSoC5/RF_Connection.c **** 
1242:.\Generated_Source\PSoC5/RF_Connection.c ****     /*******************************************************************************
1243:.\Generated_Source\PSoC5/RF_Connection.c ****     * Function Name: RF_Connection_GetTxBufferSize
1244:.\Generated_Source\PSoC5/RF_Connection.c ****     ********************************************************************************
1245:.\Generated_Source\PSoC5/RF_Connection.c ****     *
1246:.\Generated_Source\PSoC5/RF_Connection.c ****     * Summary:
1247:.\Generated_Source\PSoC5/RF_Connection.c ****     *  Returns the number of bytes in the TX buffer which are waiting to be 
1248:.\Generated_Source\PSoC5/RF_Connection.c ****     *  transmitted.
1249:.\Generated_Source\PSoC5/RF_Connection.c ****     *  * TX software buffer is disabled (TX Buffer Size parameter is equal to 4): 
1250:.\Generated_Source\PSoC5/RF_Connection.c ****     *    returns 0 for empty TX FIFO, 1 for not full TX FIFO or 4 for full TX FIFO.
1251:.\Generated_Source\PSoC5/RF_Connection.c ****     *  * TX software buffer is enabled: returns the number of bytes in the TX 
1252:.\Generated_Source\PSoC5/RF_Connection.c ****     *    software buffer which are waiting to be transmitted. Bytes available in the
1253:.\Generated_Source\PSoC5/RF_Connection.c ****     *    TX FIFO do not count.
1254:.\Generated_Source\PSoC5/RF_Connection.c ****     *
1255:.\Generated_Source\PSoC5/RF_Connection.c ****     * Parameters:
1256:.\Generated_Source\PSoC5/RF_Connection.c ****     *  None.
1257:.\Generated_Source\PSoC5/RF_Connection.c ****     *
1258:.\Generated_Source\PSoC5/RF_Connection.c ****     * Return:
1259:.\Generated_Source\PSoC5/RF_Connection.c ****     *  Number of bytes used in the TX buffer. Return value type depends on the TX 
1260:.\Generated_Source\PSoC5/RF_Connection.c ****     *  Buffer Size parameter.
1261:.\Generated_Source\PSoC5/RF_Connection.c ****     *
1262:.\Generated_Source\PSoC5/RF_Connection.c ****     * Global Variables:
1263:.\Generated_Source\PSoC5/RF_Connection.c ****     *  RF_Connection_txBufferWrite - used to calculate left space.
1264:.\Generated_Source\PSoC5/RF_Connection.c ****     *  RF_Connection_txBufferRead - used to calculate left space.
1265:.\Generated_Source\PSoC5/RF_Connection.c ****     *
1266:.\Generated_Source\PSoC5/RF_Connection.c ****     * Reentrant:
1267:.\Generated_Source\PSoC5/RF_Connection.c ****     *  No.
1268:.\Generated_Source\PSoC5/RF_Connection.c ****     *
1269:.\Generated_Source\PSoC5/RF_Connection.c ****     * Theory:
ARM GAS  C:\Users\Diego\AppData\Local\Temp\ccmnqHZ6.s 			page 43


1270:.\Generated_Source\PSoC5/RF_Connection.c ****     *  Allows the user to find out how full the TX Buffer is.
1271:.\Generated_Source\PSoC5/RF_Connection.c ****     *
1272:.\Generated_Source\PSoC5/RF_Connection.c ****     *******************************************************************************/
1273:.\Generated_Source\PSoC5/RF_Connection.c ****     uint8 RF_Connection_GetTxBufferSize(void)
1274:.\Generated_Source\PSoC5/RF_Connection.c ****                                                             
1275:.\Generated_Source\PSoC5/RF_Connection.c ****     {
 1105              		.loc 1 1275 0
 1106              		.cfi_startproc
 1107              		@ args = 0, pretend = 0, frame = 0
 1108              		@ frame_needed = 0, uses_anonymous_args = 0
 1109              		@ link register save eliminated.
1276:.\Generated_Source\PSoC5/RF_Connection.c ****         uint8 size;
1277:.\Generated_Source\PSoC5/RF_Connection.c **** 
1278:.\Generated_Source\PSoC5/RF_Connection.c ****     #if (RF_Connection_TX_INTERRUPT_ENABLED)
1279:.\Generated_Source\PSoC5/RF_Connection.c **** 
1280:.\Generated_Source\PSoC5/RF_Connection.c ****         /* Protect variables that could change on interrupt. */
1281:.\Generated_Source\PSoC5/RF_Connection.c ****         RF_Connection_DisableTxInt();
1282:.\Generated_Source\PSoC5/RF_Connection.c **** 
1283:.\Generated_Source\PSoC5/RF_Connection.c ****         if(RF_Connection_txBufferRead == RF_Connection_txBufferWrite)
1284:.\Generated_Source\PSoC5/RF_Connection.c ****         {
1285:.\Generated_Source\PSoC5/RF_Connection.c ****             size = 0u;
1286:.\Generated_Source\PSoC5/RF_Connection.c ****         }
1287:.\Generated_Source\PSoC5/RF_Connection.c ****         else if(RF_Connection_txBufferRead < RF_Connection_txBufferWrite)
1288:.\Generated_Source\PSoC5/RF_Connection.c ****         {
1289:.\Generated_Source\PSoC5/RF_Connection.c ****             size = (RF_Connection_txBufferWrite - RF_Connection_txBufferRead);
1290:.\Generated_Source\PSoC5/RF_Connection.c ****         }
1291:.\Generated_Source\PSoC5/RF_Connection.c ****         else
1292:.\Generated_Source\PSoC5/RF_Connection.c ****         {
1293:.\Generated_Source\PSoC5/RF_Connection.c ****             size = (RF_Connection_TX_BUFFER_SIZE - RF_Connection_txBufferRead) +
1294:.\Generated_Source\PSoC5/RF_Connection.c ****                     RF_Connection_txBufferWrite;
1295:.\Generated_Source\PSoC5/RF_Connection.c ****         }
1296:.\Generated_Source\PSoC5/RF_Connection.c **** 
1297:.\Generated_Source\PSoC5/RF_Connection.c ****         RF_Connection_EnableTxInt();
1298:.\Generated_Source\PSoC5/RF_Connection.c **** 
1299:.\Generated_Source\PSoC5/RF_Connection.c ****     #else
1300:.\Generated_Source\PSoC5/RF_Connection.c **** 
1301:.\Generated_Source\PSoC5/RF_Connection.c ****         size = RF_Connection_TXSTATUS_REG;
 1110              		.loc 1 1301 0
 1111 0000 074B     		ldr	r3, .L110
 1112 0002 1B78     		ldrb	r3, [r3]	@ zero_extendqisi2
 1113 0004 DBB2     		uxtb	r3, r3
 1114              	.LVL84:
1302:.\Generated_Source\PSoC5/RF_Connection.c **** 
1303:.\Generated_Source\PSoC5/RF_Connection.c ****         /* Is the fifo is full. */
1304:.\Generated_Source\PSoC5/RF_Connection.c ****         if((size & RF_Connection_TX_STS_FIFO_FULL) != 0u)
 1115              		.loc 1 1304 0
 1116 0006 13F0040F 		tst	r3, #4
 1117 000a 04D1     		bne	.L108
1305:.\Generated_Source\PSoC5/RF_Connection.c ****         {
1306:.\Generated_Source\PSoC5/RF_Connection.c ****             size = RF_Connection_FIFO_LENGTH;
1307:.\Generated_Source\PSoC5/RF_Connection.c ****         }
1308:.\Generated_Source\PSoC5/RF_Connection.c ****         else if((size & RF_Connection_TX_STS_FIFO_EMPTY) != 0u)
 1118              		.loc 1 1308 0
 1119 000c 13F0020F 		tst	r3, #2
 1120 0010 03D0     		beq	.L109
1309:.\Generated_Source\PSoC5/RF_Connection.c ****         {
1310:.\Generated_Source\PSoC5/RF_Connection.c ****             size = 0u;
ARM GAS  C:\Users\Diego\AppData\Local\Temp\ccmnqHZ6.s 			page 44


 1121              		.loc 1 1310 0
 1122 0012 0020     		movs	r0, #0
 1123 0014 7047     		bx	lr
 1124              	.L108:
1306:.\Generated_Source\PSoC5/RF_Connection.c ****         }
 1125              		.loc 1 1306 0
 1126 0016 0420     		movs	r0, #4
 1127 0018 7047     		bx	lr
 1128              	.L109:
1311:.\Generated_Source\PSoC5/RF_Connection.c ****         }
1312:.\Generated_Source\PSoC5/RF_Connection.c ****         else
1313:.\Generated_Source\PSoC5/RF_Connection.c ****         {
1314:.\Generated_Source\PSoC5/RF_Connection.c ****             /* We only know there is data in the fifo. */
1315:.\Generated_Source\PSoC5/RF_Connection.c ****             size = 1u;
 1129              		.loc 1 1315 0
 1130 001a 0120     		movs	r0, #1
 1131              	.LVL85:
1316:.\Generated_Source\PSoC5/RF_Connection.c ****         }
1317:.\Generated_Source\PSoC5/RF_Connection.c **** 
1318:.\Generated_Source\PSoC5/RF_Connection.c ****     #endif /* (RF_Connection_TX_INTERRUPT_ENABLED) */
1319:.\Generated_Source\PSoC5/RF_Connection.c **** 
1320:.\Generated_Source\PSoC5/RF_Connection.c ****     return(size);
1321:.\Generated_Source\PSoC5/RF_Connection.c ****     }
 1132              		.loc 1 1321 0
 1133 001c 7047     		bx	lr
 1134              	.L111:
 1135 001e 00BF     		.align	2
 1136              	.L110:
 1137 0020 63640040 		.word	1073767523
 1138              		.cfi_endproc
 1139              	.LFE23:
 1140              		.size	RF_Connection_GetTxBufferSize, .-RF_Connection_GetTxBufferSize
 1141              		.section	.text.RF_Connection_ClearTxBuffer,"ax",%progbits
 1142              		.align	2
 1143              		.global	RF_Connection_ClearTxBuffer
 1144              		.thumb
 1145              		.thumb_func
 1146              		.type	RF_Connection_ClearTxBuffer, %function
 1147              	RF_Connection_ClearTxBuffer:
 1148              	.LFB24:
1322:.\Generated_Source\PSoC5/RF_Connection.c **** 
1323:.\Generated_Source\PSoC5/RF_Connection.c **** 
1324:.\Generated_Source\PSoC5/RF_Connection.c ****     /*******************************************************************************
1325:.\Generated_Source\PSoC5/RF_Connection.c ****     * Function Name: RF_Connection_ClearTxBuffer
1326:.\Generated_Source\PSoC5/RF_Connection.c ****     ********************************************************************************
1327:.\Generated_Source\PSoC5/RF_Connection.c ****     *
1328:.\Generated_Source\PSoC5/RF_Connection.c ****     * Summary:
1329:.\Generated_Source\PSoC5/RF_Connection.c ****     *  Clears all data from the TX buffer and hardware TX FIFO.
1330:.\Generated_Source\PSoC5/RF_Connection.c ****     *
1331:.\Generated_Source\PSoC5/RF_Connection.c ****     * Parameters:
1332:.\Generated_Source\PSoC5/RF_Connection.c ****     *  None.
1333:.\Generated_Source\PSoC5/RF_Connection.c ****     *
1334:.\Generated_Source\PSoC5/RF_Connection.c ****     * Return:
1335:.\Generated_Source\PSoC5/RF_Connection.c ****     *  None.
1336:.\Generated_Source\PSoC5/RF_Connection.c ****     *
1337:.\Generated_Source\PSoC5/RF_Connection.c ****     * Global Variables:
1338:.\Generated_Source\PSoC5/RF_Connection.c ****     *  RF_Connection_txBufferWrite - cleared to zero.
ARM GAS  C:\Users\Diego\AppData\Local\Temp\ccmnqHZ6.s 			page 45


1339:.\Generated_Source\PSoC5/RF_Connection.c ****     *  RF_Connection_txBufferRead - cleared to zero.
1340:.\Generated_Source\PSoC5/RF_Connection.c ****     *
1341:.\Generated_Source\PSoC5/RF_Connection.c ****     * Reentrant:
1342:.\Generated_Source\PSoC5/RF_Connection.c ****     *  No.
1343:.\Generated_Source\PSoC5/RF_Connection.c ****     *
1344:.\Generated_Source\PSoC5/RF_Connection.c ****     * Theory:
1345:.\Generated_Source\PSoC5/RF_Connection.c ****     *  Setting the pointers to zero makes the system believe there is no data to
1346:.\Generated_Source\PSoC5/RF_Connection.c ****     *  read and writing will resume at address 0 overwriting any data that may have
1347:.\Generated_Source\PSoC5/RF_Connection.c ****     *  remained in the RAM.
1348:.\Generated_Source\PSoC5/RF_Connection.c ****     *
1349:.\Generated_Source\PSoC5/RF_Connection.c ****     * Side Effects:
1350:.\Generated_Source\PSoC5/RF_Connection.c ****     *  Data waiting in the transmit buffer is not sent; a byte that is currently
1351:.\Generated_Source\PSoC5/RF_Connection.c ****     *  transmitting finishes transmitting.
1352:.\Generated_Source\PSoC5/RF_Connection.c ****     *
1353:.\Generated_Source\PSoC5/RF_Connection.c ****     *******************************************************************************/
1354:.\Generated_Source\PSoC5/RF_Connection.c ****     void RF_Connection_ClearTxBuffer(void) 
1355:.\Generated_Source\PSoC5/RF_Connection.c ****     {
 1149              		.loc 1 1355 0
 1150              		.cfi_startproc
 1151              		@ args = 0, pretend = 0, frame = 0
 1152              		@ frame_needed = 0, uses_anonymous_args = 0
 1153 0000 08B5     		push	{r3, lr}
 1154              		.cfi_def_cfa_offset 8
 1155              		.cfi_offset 3, -8
 1156              		.cfi_offset 14, -4
1356:.\Generated_Source\PSoC5/RF_Connection.c ****         uint8 enableInterrupts;
1357:.\Generated_Source\PSoC5/RF_Connection.c **** 
1358:.\Generated_Source\PSoC5/RF_Connection.c ****         enableInterrupts = CyEnterCriticalSection();
 1157              		.loc 1 1358 0
 1158 0002 FFF7FEFF 		bl	CyEnterCriticalSection
 1159              	.LVL86:
1359:.\Generated_Source\PSoC5/RF_Connection.c ****         /* Clear the HW FIFO */
1360:.\Generated_Source\PSoC5/RF_Connection.c ****         RF_Connection_TXDATA_AUX_CTL_REG |= (uint8)  RF_Connection_TX_FIFO_CLR;
 1160              		.loc 1 1360 0
 1161 0006 064B     		ldr	r3, .L114
 1162 0008 1A78     		ldrb	r2, [r3]	@ zero_extendqisi2
 1163 000a 42F00102 		orr	r2, r2, #1
 1164 000e 1A70     		strb	r2, [r3]
1361:.\Generated_Source\PSoC5/RF_Connection.c ****         RF_Connection_TXDATA_AUX_CTL_REG &= (uint8) ~RF_Connection_TX_FIFO_CLR;
 1165              		.loc 1 1361 0
 1166 0010 1A78     		ldrb	r2, [r3]	@ zero_extendqisi2
 1167 0012 02F0FE02 		and	r2, r2, #254
 1168 0016 1A70     		strb	r2, [r3]
1362:.\Generated_Source\PSoC5/RF_Connection.c ****         CyExitCriticalSection(enableInterrupts);
 1169              		.loc 1 1362 0
 1170 0018 FFF7FEFF 		bl	CyExitCriticalSection
 1171              	.LVL87:
 1172 001c 08BD     		pop	{r3, pc}
 1173              	.L115:
 1174 001e 00BF     		.align	2
 1175              	.L114:
 1176 0020 90640040 		.word	1073767568
 1177              		.cfi_endproc
 1178              	.LFE24:
 1179              		.size	RF_Connection_ClearTxBuffer, .-RF_Connection_ClearTxBuffer
 1180              		.section	.text.RF_Connection_SendBreak,"ax",%progbits
 1181              		.align	2
ARM GAS  C:\Users\Diego\AppData\Local\Temp\ccmnqHZ6.s 			page 46


 1182              		.global	RF_Connection_SendBreak
 1183              		.thumb
 1184              		.thumb_func
 1185              		.type	RF_Connection_SendBreak, %function
 1186              	RF_Connection_SendBreak:
 1187              	.LFB25:
1363:.\Generated_Source\PSoC5/RF_Connection.c **** 
1364:.\Generated_Source\PSoC5/RF_Connection.c ****     #if (RF_Connection_TX_INTERRUPT_ENABLED)
1365:.\Generated_Source\PSoC5/RF_Connection.c **** 
1366:.\Generated_Source\PSoC5/RF_Connection.c ****         /* Protect variables that could change on interrupt. */
1367:.\Generated_Source\PSoC5/RF_Connection.c ****         RF_Connection_DisableTxInt();
1368:.\Generated_Source\PSoC5/RF_Connection.c **** 
1369:.\Generated_Source\PSoC5/RF_Connection.c ****         RF_Connection_txBufferRead = 0u;
1370:.\Generated_Source\PSoC5/RF_Connection.c ****         RF_Connection_txBufferWrite = 0u;
1371:.\Generated_Source\PSoC5/RF_Connection.c **** 
1372:.\Generated_Source\PSoC5/RF_Connection.c ****         /* Enable Tx interrupt. */
1373:.\Generated_Source\PSoC5/RF_Connection.c ****         RF_Connection_EnableTxInt();
1374:.\Generated_Source\PSoC5/RF_Connection.c **** 
1375:.\Generated_Source\PSoC5/RF_Connection.c ****     #endif /* (RF_Connection_TX_INTERRUPT_ENABLED) */
1376:.\Generated_Source\PSoC5/RF_Connection.c ****     }
1377:.\Generated_Source\PSoC5/RF_Connection.c **** 
1378:.\Generated_Source\PSoC5/RF_Connection.c **** 
1379:.\Generated_Source\PSoC5/RF_Connection.c ****     /*******************************************************************************
1380:.\Generated_Source\PSoC5/RF_Connection.c ****     * Function Name: RF_Connection_SendBreak
1381:.\Generated_Source\PSoC5/RF_Connection.c ****     ********************************************************************************
1382:.\Generated_Source\PSoC5/RF_Connection.c ****     *
1383:.\Generated_Source\PSoC5/RF_Connection.c ****     * Summary:
1384:.\Generated_Source\PSoC5/RF_Connection.c ****     *  Transmits a break signal on the bus.
1385:.\Generated_Source\PSoC5/RF_Connection.c ****     *
1386:.\Generated_Source\PSoC5/RF_Connection.c ****     * Parameters:
1387:.\Generated_Source\PSoC5/RF_Connection.c ****     *  uint8 retMode:  Send Break return mode. See the following table for options.
1388:.\Generated_Source\PSoC5/RF_Connection.c ****     *   RF_Connection_SEND_BREAK - Initialize registers for break, send the Break
1389:.\Generated_Source\PSoC5/RF_Connection.c ****     *       signal and return immediately.
1390:.\Generated_Source\PSoC5/RF_Connection.c ****     *   RF_Connection_WAIT_FOR_COMPLETE_REINIT - Wait until break transmission is
1391:.\Generated_Source\PSoC5/RF_Connection.c ****     *       complete, reinitialize registers to normal transmission mode then return
1392:.\Generated_Source\PSoC5/RF_Connection.c ****     *   RF_Connection_REINIT - Reinitialize registers to normal transmission mode
1393:.\Generated_Source\PSoC5/RF_Connection.c ****     *       then return.
1394:.\Generated_Source\PSoC5/RF_Connection.c ****     *   RF_Connection_SEND_WAIT_REINIT - Performs both options: 
1395:.\Generated_Source\PSoC5/RF_Connection.c ****     *      RF_Connection_SEND_BREAK and RF_Connection_WAIT_FOR_COMPLETE_REINIT.
1396:.\Generated_Source\PSoC5/RF_Connection.c ****     *      This option is recommended for most cases.
1397:.\Generated_Source\PSoC5/RF_Connection.c ****     *
1398:.\Generated_Source\PSoC5/RF_Connection.c ****     * Return:
1399:.\Generated_Source\PSoC5/RF_Connection.c ****     *  None.
1400:.\Generated_Source\PSoC5/RF_Connection.c ****     *
1401:.\Generated_Source\PSoC5/RF_Connection.c ****     * Global Variables:
1402:.\Generated_Source\PSoC5/RF_Connection.c ****     *  RF_Connection_initVar - checked to identify that the component has been
1403:.\Generated_Source\PSoC5/RF_Connection.c ****     *     initialized.
1404:.\Generated_Source\PSoC5/RF_Connection.c ****     *  txPeriod - static variable, used for keeping TX period configuration.
1405:.\Generated_Source\PSoC5/RF_Connection.c ****     *
1406:.\Generated_Source\PSoC5/RF_Connection.c ****     * Reentrant:
1407:.\Generated_Source\PSoC5/RF_Connection.c ****     *  No.
1408:.\Generated_Source\PSoC5/RF_Connection.c ****     *
1409:.\Generated_Source\PSoC5/RF_Connection.c ****     * Theory:
1410:.\Generated_Source\PSoC5/RF_Connection.c ****     *  SendBreak function initializes registers to send 13-bit break signal. It is
1411:.\Generated_Source\PSoC5/RF_Connection.c ****     *  important to return the registers configuration to normal for continue 8-bit
1412:.\Generated_Source\PSoC5/RF_Connection.c ****     *  operation.
1413:.\Generated_Source\PSoC5/RF_Connection.c ****     *  There are 3 variants for this API usage:
ARM GAS  C:\Users\Diego\AppData\Local\Temp\ccmnqHZ6.s 			page 47


1414:.\Generated_Source\PSoC5/RF_Connection.c ****     *  1) SendBreak(3) - function will send the Break signal and take care on the
1415:.\Generated_Source\PSoC5/RF_Connection.c ****     *     configuration returning. Function will block CPU until transmission
1416:.\Generated_Source\PSoC5/RF_Connection.c ****     *     complete.
1417:.\Generated_Source\PSoC5/RF_Connection.c ****     *  2) User may want to use blocking time if UART configured to the low speed
1418:.\Generated_Source\PSoC5/RF_Connection.c ****     *     operation
1419:.\Generated_Source\PSoC5/RF_Connection.c ****     *     Example for this case:
1420:.\Generated_Source\PSoC5/RF_Connection.c ****     *     SendBreak(0);     - initialize Break signal transmission
1421:.\Generated_Source\PSoC5/RF_Connection.c ****     *         Add your code here to use CPU time
1422:.\Generated_Source\PSoC5/RF_Connection.c ****     *     SendBreak(1);     - complete Break operation
1423:.\Generated_Source\PSoC5/RF_Connection.c ****     *  3) Same to 2) but user may want to initialize and use the interrupt to
1424:.\Generated_Source\PSoC5/RF_Connection.c ****     *     complete break operation.
1425:.\Generated_Source\PSoC5/RF_Connection.c ****     *     Example for this case:
1426:.\Generated_Source\PSoC5/RF_Connection.c ****     *     Initialize TX interrupt with "TX - On TX Complete" parameter
1427:.\Generated_Source\PSoC5/RF_Connection.c ****     *     SendBreak(0);     - initialize Break signal transmission
1428:.\Generated_Source\PSoC5/RF_Connection.c ****     *         Add your code here to use CPU time
1429:.\Generated_Source\PSoC5/RF_Connection.c ****     *     When interrupt appear with RF_Connection_TX_STS_COMPLETE status:
1430:.\Generated_Source\PSoC5/RF_Connection.c ****     *     SendBreak(2);     - complete Break operation
1431:.\Generated_Source\PSoC5/RF_Connection.c ****     *
1432:.\Generated_Source\PSoC5/RF_Connection.c ****     * Side Effects:
1433:.\Generated_Source\PSoC5/RF_Connection.c ****     *  The RF_Connection_SendBreak() function initializes registers to send a
1434:.\Generated_Source\PSoC5/RF_Connection.c ****     *  break signal.
1435:.\Generated_Source\PSoC5/RF_Connection.c ****     *  Break signal length depends on the break signal bits configuration.
1436:.\Generated_Source\PSoC5/RF_Connection.c ****     *  The register configuration should be reinitialized before normal 8-bit
1437:.\Generated_Source\PSoC5/RF_Connection.c ****     *  communication can continue.
1438:.\Generated_Source\PSoC5/RF_Connection.c ****     *
1439:.\Generated_Source\PSoC5/RF_Connection.c ****     *******************************************************************************/
1440:.\Generated_Source\PSoC5/RF_Connection.c ****     void RF_Connection_SendBreak(uint8 retMode) 
1441:.\Generated_Source\PSoC5/RF_Connection.c ****     {
 1188              		.loc 1 1441 0
 1189              		.cfi_startproc
 1190              		@ args = 0, pretend = 0, frame = 0
 1191              		@ frame_needed = 0, uses_anonymous_args = 0
 1192              	.LVL88:
1442:.\Generated_Source\PSoC5/RF_Connection.c **** 
1443:.\Generated_Source\PSoC5/RF_Connection.c ****         /* If not Initialized then skip this function*/
1444:.\Generated_Source\PSoC5/RF_Connection.c ****         if(RF_Connection_initVar != 0u)
 1193              		.loc 1 1444 0
 1194 0000 1A4B     		ldr	r3, .L125
 1195 0002 5B78     		ldrb	r3, [r3, #1]	@ zero_extendqisi2
 1196 0004 8BB3     		cbz	r3, .L124
1441:.\Generated_Source\PSoC5/RF_Connection.c **** 
 1197              		.loc 1 1441 0
 1198 0006 10B5     		push	{r4, lr}
 1199              		.cfi_def_cfa_offset 8
 1200              		.cfi_offset 4, -8
 1201              		.cfi_offset 14, -4
 1202 0008 0446     		mov	r4, r0
 1203              	.LBB2:
1445:.\Generated_Source\PSoC5/RF_Connection.c ****         {
1446:.\Generated_Source\PSoC5/RF_Connection.c ****             /* Set the Counter to 13-bits and transmit a 00 byte */
1447:.\Generated_Source\PSoC5/RF_Connection.c ****             /* When that is done then reset the counter value back */
1448:.\Generated_Source\PSoC5/RF_Connection.c ****             uint8 tmpStat;
1449:.\Generated_Source\PSoC5/RF_Connection.c **** 
1450:.\Generated_Source\PSoC5/RF_Connection.c ****         #if(RF_Connection_HD_ENABLED) /* Half Duplex mode*/
1451:.\Generated_Source\PSoC5/RF_Connection.c **** 
1452:.\Generated_Source\PSoC5/RF_Connection.c ****             if( (retMode == RF_Connection_SEND_BREAK) ||
1453:.\Generated_Source\PSoC5/RF_Connection.c ****                 (retMode == RF_Connection_SEND_WAIT_REINIT ) )
ARM GAS  C:\Users\Diego\AppData\Local\Temp\ccmnqHZ6.s 			page 48


1454:.\Generated_Source\PSoC5/RF_Connection.c ****             {
1455:.\Generated_Source\PSoC5/RF_Connection.c ****                 /* CTRL_HD_SEND_BREAK - sends break bits in HD mode */
1456:.\Generated_Source\PSoC5/RF_Connection.c ****                 RF_Connection_WriteControlRegister(RF_Connection_ReadControlRegister() |
1457:.\Generated_Source\PSoC5/RF_Connection.c ****                                                       RF_Connection_CTRL_HD_SEND_BREAK);
1458:.\Generated_Source\PSoC5/RF_Connection.c ****                 /* Send zeros */
1459:.\Generated_Source\PSoC5/RF_Connection.c ****                 RF_Connection_TXDATA_REG = 0u;
1460:.\Generated_Source\PSoC5/RF_Connection.c **** 
1461:.\Generated_Source\PSoC5/RF_Connection.c ****                 do /* Wait until transmit starts */
1462:.\Generated_Source\PSoC5/RF_Connection.c ****                 {
1463:.\Generated_Source\PSoC5/RF_Connection.c ****                     tmpStat = RF_Connection_TXSTATUS_REG;
1464:.\Generated_Source\PSoC5/RF_Connection.c ****                 }
1465:.\Generated_Source\PSoC5/RF_Connection.c ****                 while((tmpStat & RF_Connection_TX_STS_FIFO_EMPTY) != 0u);
1466:.\Generated_Source\PSoC5/RF_Connection.c ****             }
1467:.\Generated_Source\PSoC5/RF_Connection.c **** 
1468:.\Generated_Source\PSoC5/RF_Connection.c ****             if( (retMode == RF_Connection_WAIT_FOR_COMPLETE_REINIT) ||
1469:.\Generated_Source\PSoC5/RF_Connection.c ****                 (retMode == RF_Connection_SEND_WAIT_REINIT) )
1470:.\Generated_Source\PSoC5/RF_Connection.c ****             {
1471:.\Generated_Source\PSoC5/RF_Connection.c ****                 do /* Wait until transmit complete */
1472:.\Generated_Source\PSoC5/RF_Connection.c ****                 {
1473:.\Generated_Source\PSoC5/RF_Connection.c ****                     tmpStat = RF_Connection_TXSTATUS_REG;
1474:.\Generated_Source\PSoC5/RF_Connection.c ****                 }
1475:.\Generated_Source\PSoC5/RF_Connection.c ****                 while(((uint8)~tmpStat & RF_Connection_TX_STS_COMPLETE) != 0u);
1476:.\Generated_Source\PSoC5/RF_Connection.c ****             }
1477:.\Generated_Source\PSoC5/RF_Connection.c **** 
1478:.\Generated_Source\PSoC5/RF_Connection.c ****             if( (retMode == RF_Connection_WAIT_FOR_COMPLETE_REINIT) ||
1479:.\Generated_Source\PSoC5/RF_Connection.c ****                 (retMode == RF_Connection_REINIT) ||
1480:.\Generated_Source\PSoC5/RF_Connection.c ****                 (retMode == RF_Connection_SEND_WAIT_REINIT) )
1481:.\Generated_Source\PSoC5/RF_Connection.c ****             {
1482:.\Generated_Source\PSoC5/RF_Connection.c ****                 RF_Connection_WriteControlRegister(RF_Connection_ReadControlRegister() &
1483:.\Generated_Source\PSoC5/RF_Connection.c ****                                               (uint8)~RF_Connection_CTRL_HD_SEND_BREAK);
1484:.\Generated_Source\PSoC5/RF_Connection.c ****             }
1485:.\Generated_Source\PSoC5/RF_Connection.c **** 
1486:.\Generated_Source\PSoC5/RF_Connection.c ****         #else /* RF_Connection_HD_ENABLED Full Duplex mode */
1487:.\Generated_Source\PSoC5/RF_Connection.c **** 
1488:.\Generated_Source\PSoC5/RF_Connection.c ****             static uint8 txPeriod;
1489:.\Generated_Source\PSoC5/RF_Connection.c **** 
1490:.\Generated_Source\PSoC5/RF_Connection.c ****             if( (retMode == RF_Connection_SEND_BREAK) ||
 1204              		.loc 1 1490 0
 1205 000a 08B1     		cbz	r0, .L118
 1206              		.loc 1 1490 0 is_stmt 0 discriminator 1
 1207 000c 0328     		cmp	r0, #3
 1208 000e 14D1     		bne	.L119
 1209              	.L118:
1491:.\Generated_Source\PSoC5/RF_Connection.c ****                 (retMode == RF_Connection_SEND_WAIT_REINIT) )
1492:.\Generated_Source\PSoC5/RF_Connection.c ****             {
1493:.\Generated_Source\PSoC5/RF_Connection.c ****                 /* CTRL_HD_SEND_BREAK - skip to send parity bit at Break signal in Full Duplex mode
1494:.\Generated_Source\PSoC5/RF_Connection.c ****                 #if( (RF_Connection_PARITY_TYPE != RF_Connection__B_UART__NONE_REVB) || \
1495:.\Generated_Source\PSoC5/RF_Connection.c ****                                     (RF_Connection_PARITY_TYPE_SW != 0u) )
1496:.\Generated_Source\PSoC5/RF_Connection.c ****                     RF_Connection_WriteControlRegister(RF_Connection_ReadControlRegister() |
 1210              		.loc 1 1496 0 is_stmt 1
 1211 0010 FFF7FEFF 		bl	RF_Connection_ReadControlRegister
 1212              	.LVL89:
 1213 0014 40F00200 		orr	r0, r0, #2
 1214 0018 C0B2     		uxtb	r0, r0
 1215 001a FFF7FEFF 		bl	RF_Connection_WriteControlRegister
 1216              	.LVL90:
1497:.\Generated_Source\PSoC5/RF_Connection.c ****                                                           RF_Connection_CTRL_HD_SEND_BREAK);
ARM GAS  C:\Users\Diego\AppData\Local\Temp\ccmnqHZ6.s 			page 49


1498:.\Generated_Source\PSoC5/RF_Connection.c ****                 #endif /* End RF_Connection_PARITY_TYPE != RF_Connection__B_UART__NONE_REVB  */
1499:.\Generated_Source\PSoC5/RF_Connection.c **** 
1500:.\Generated_Source\PSoC5/RF_Connection.c ****                 #if(RF_Connection_TXCLKGEN_DP)
1501:.\Generated_Source\PSoC5/RF_Connection.c ****                     txPeriod = RF_Connection_TXBITCLKTX_COMPLETE_REG;
 1217              		.loc 1 1501 0
 1218 001e 144B     		ldr	r3, .L125+4
 1219 0020 1978     		ldrb	r1, [r3]	@ zero_extendqisi2
 1220 0022 124A     		ldr	r2, .L125
 1221 0024 1172     		strb	r1, [r2, #8]
1502:.\Generated_Source\PSoC5/RF_Connection.c ****                     RF_Connection_TXBITCLKTX_COMPLETE_REG = RF_Connection_TXBITCTR_BREAKBITS;
 1222              		.loc 1 1502 0
 1223 0026 6722     		movs	r2, #103
 1224 0028 1A70     		strb	r2, [r3]
1503:.\Generated_Source\PSoC5/RF_Connection.c ****                 #else
1504:.\Generated_Source\PSoC5/RF_Connection.c ****                     txPeriod = RF_Connection_TXBITCTR_PERIOD_REG;
1505:.\Generated_Source\PSoC5/RF_Connection.c ****                     RF_Connection_TXBITCTR_PERIOD_REG = RF_Connection_TXBITCTR_BREAKBITS8X;
1506:.\Generated_Source\PSoC5/RF_Connection.c ****                 #endif /* End RF_Connection_TXCLKGEN_DP */
1507:.\Generated_Source\PSoC5/RF_Connection.c **** 
1508:.\Generated_Source\PSoC5/RF_Connection.c ****                 /* Send zeros */
1509:.\Generated_Source\PSoC5/RF_Connection.c ****                 RF_Connection_TXDATA_REG = 0u;
 1225              		.loc 1 1509 0
 1226 002a 0022     		movs	r2, #0
 1227 002c 0133     		adds	r3, r3, #1
 1228 002e 1A70     		strb	r2, [r3]
 1229              	.L120:
1510:.\Generated_Source\PSoC5/RF_Connection.c **** 
1511:.\Generated_Source\PSoC5/RF_Connection.c ****                 do /* Wait until transmit starts */
1512:.\Generated_Source\PSoC5/RF_Connection.c ****                 {
1513:.\Generated_Source\PSoC5/RF_Connection.c ****                     tmpStat = RF_Connection_TXSTATUS_REG;
 1230              		.loc 1 1513 0 discriminator 1
 1231 0030 104B     		ldr	r3, .L125+8
 1232 0032 1B78     		ldrb	r3, [r3]	@ zero_extendqisi2
 1233              	.LVL91:
1514:.\Generated_Source\PSoC5/RF_Connection.c ****                 }
1515:.\Generated_Source\PSoC5/RF_Connection.c ****                 while((tmpStat & RF_Connection_TX_STS_FIFO_EMPTY) != 0u);
 1234              		.loc 1 1515 0 discriminator 1
 1235 0034 13F0020F 		tst	r3, #2
 1236 0038 FAD1     		bne	.L120
 1237              	.LVL92:
 1238              	.L119:
1516:.\Generated_Source\PSoC5/RF_Connection.c ****             }
1517:.\Generated_Source\PSoC5/RF_Connection.c **** 
1518:.\Generated_Source\PSoC5/RF_Connection.c ****             if( (retMode == RF_Connection_WAIT_FOR_COMPLETE_REINIT) ||
 1239              		.loc 1 1518 0
 1240 003a 012C     		cmp	r4, #1
 1241 003c 01D0     		beq	.L121
 1242              		.loc 1 1518 0 is_stmt 0 discriminator 1
 1243 003e 032C     		cmp	r4, #3
 1244 0040 04D1     		bne	.L122
 1245              	.L121:
1519:.\Generated_Source\PSoC5/RF_Connection.c ****                 (retMode == RF_Connection_SEND_WAIT_REINIT) )
1520:.\Generated_Source\PSoC5/RF_Connection.c ****             {
1521:.\Generated_Source\PSoC5/RF_Connection.c ****                 do /* Wait until transmit complete */
1522:.\Generated_Source\PSoC5/RF_Connection.c ****                 {
1523:.\Generated_Source\PSoC5/RF_Connection.c ****                     tmpStat = RF_Connection_TXSTATUS_REG;
 1246              		.loc 1 1523 0 is_stmt 1 discriminator 1
 1247 0042 0C4B     		ldr	r3, .L125+8
ARM GAS  C:\Users\Diego\AppData\Local\Temp\ccmnqHZ6.s 			page 50


 1248 0044 1B78     		ldrb	r3, [r3]	@ zero_extendqisi2
 1249              	.LVL93:
1524:.\Generated_Source\PSoC5/RF_Connection.c ****                 }
1525:.\Generated_Source\PSoC5/RF_Connection.c ****                 while(((uint8)~tmpStat & RF_Connection_TX_STS_COMPLETE) != 0u);
 1250              		.loc 1 1525 0 discriminator 1
 1251 0046 13F0010F 		tst	r3, #1
 1252 004a FAD0     		beq	.L121
 1253              	.LVL94:
 1254              	.L122:
1526:.\Generated_Source\PSoC5/RF_Connection.c ****             }
1527:.\Generated_Source\PSoC5/RF_Connection.c **** 
1528:.\Generated_Source\PSoC5/RF_Connection.c ****             if( (retMode == RF_Connection_WAIT_FOR_COMPLETE_REINIT) ||
1529:.\Generated_Source\PSoC5/RF_Connection.c ****                 (retMode == RF_Connection_REINIT) ||
 1255              		.loc 1 1529 0
 1256 004c 013C     		subs	r4, r4, #1
 1257 004e E4B2     		uxtb	r4, r4
1528:.\Generated_Source\PSoC5/RF_Connection.c ****                 (retMode == RF_Connection_REINIT) ||
 1258              		.loc 1 1528 0
 1259 0050 022C     		cmp	r4, #2
 1260 0052 09D8     		bhi	.L116
1530:.\Generated_Source\PSoC5/RF_Connection.c ****                 (retMode == RF_Connection_SEND_WAIT_REINIT) )
1531:.\Generated_Source\PSoC5/RF_Connection.c ****             {
1532:.\Generated_Source\PSoC5/RF_Connection.c **** 
1533:.\Generated_Source\PSoC5/RF_Connection.c ****             #if(RF_Connection_TXCLKGEN_DP)
1534:.\Generated_Source\PSoC5/RF_Connection.c ****                 RF_Connection_TXBITCLKTX_COMPLETE_REG = txPeriod;
 1261              		.loc 1 1534 0
 1262 0054 054B     		ldr	r3, .L125
 1263 0056 1A7A     		ldrb	r2, [r3, #8]	@ zero_extendqisi2
 1264 0058 054B     		ldr	r3, .L125+4
 1265 005a 1A70     		strb	r2, [r3]
1535:.\Generated_Source\PSoC5/RF_Connection.c ****             #else
1536:.\Generated_Source\PSoC5/RF_Connection.c ****                 RF_Connection_TXBITCTR_PERIOD_REG = txPeriod;
1537:.\Generated_Source\PSoC5/RF_Connection.c ****             #endif /* End RF_Connection_TXCLKGEN_DP */
1538:.\Generated_Source\PSoC5/RF_Connection.c **** 
1539:.\Generated_Source\PSoC5/RF_Connection.c ****             #if( (RF_Connection_PARITY_TYPE != RF_Connection__B_UART__NONE_REVB) || \
1540:.\Generated_Source\PSoC5/RF_Connection.c ****                  (RF_Connection_PARITY_TYPE_SW != 0u) )
1541:.\Generated_Source\PSoC5/RF_Connection.c ****                 RF_Connection_WriteControlRegister(RF_Connection_ReadControlRegister() &
 1266              		.loc 1 1541 0
 1267 005c FFF7FEFF 		bl	RF_Connection_ReadControlRegister
 1268              	.LVL95:
 1269 0060 00F0FD00 		and	r0, r0, #253
 1270 0064 FFF7FEFF 		bl	RF_Connection_WriteControlRegister
 1271              	.LVL96:
 1272              	.L116:
 1273 0068 10BD     		pop	{r4, pc}
 1274              	.LVL97:
 1275              	.L124:
 1276              		.cfi_def_cfa_offset 0
 1277              		.cfi_restore 4
 1278              		.cfi_restore 14
 1279 006a 7047     		bx	lr
 1280              	.L126:
 1281              		.align	2
 1282              	.L125:
 1283 006c 00000000 		.word	.LANCHOR0
 1284 0070 3F640040 		.word	1073767487
 1285 0074 63640040 		.word	1073767523
ARM GAS  C:\Users\Diego\AppData\Local\Temp\ccmnqHZ6.s 			page 51


 1286              	.LBE2:
 1287              		.cfi_endproc
 1288              	.LFE25:
 1289              		.size	RF_Connection_SendBreak, .-RF_Connection_SendBreak
 1290              		.section	.text.RF_Connection_SetTxAddressMode,"ax",%progbits
 1291              		.align	2
 1292              		.global	RF_Connection_SetTxAddressMode
 1293              		.thumb
 1294              		.thumb_func
 1295              		.type	RF_Connection_SetTxAddressMode, %function
 1296              	RF_Connection_SetTxAddressMode:
 1297              	.LFB26:
1542:.\Generated_Source\PSoC5/RF_Connection.c ****                                                       (uint8) ~RF_Connection_CTRL_HD_SEND_BREAK);
1543:.\Generated_Source\PSoC5/RF_Connection.c ****             #endif /* End RF_Connection_PARITY_TYPE != NONE */
1544:.\Generated_Source\PSoC5/RF_Connection.c ****             }
1545:.\Generated_Source\PSoC5/RF_Connection.c ****         #endif    /* End RF_Connection_HD_ENABLED */
1546:.\Generated_Source\PSoC5/RF_Connection.c ****         }
1547:.\Generated_Source\PSoC5/RF_Connection.c ****     }
1548:.\Generated_Source\PSoC5/RF_Connection.c **** 
1549:.\Generated_Source\PSoC5/RF_Connection.c **** 
1550:.\Generated_Source\PSoC5/RF_Connection.c ****     /*******************************************************************************
1551:.\Generated_Source\PSoC5/RF_Connection.c ****     * Function Name: RF_Connection_SetTxAddressMode
1552:.\Generated_Source\PSoC5/RF_Connection.c ****     ********************************************************************************
1553:.\Generated_Source\PSoC5/RF_Connection.c ****     *
1554:.\Generated_Source\PSoC5/RF_Connection.c ****     * Summary:
1555:.\Generated_Source\PSoC5/RF_Connection.c ****     *  Configures the transmitter to signal the next bytes is address or data.
1556:.\Generated_Source\PSoC5/RF_Connection.c ****     *
1557:.\Generated_Source\PSoC5/RF_Connection.c ****     * Parameters:
1558:.\Generated_Source\PSoC5/RF_Connection.c ****     *  addressMode: 
1559:.\Generated_Source\PSoC5/RF_Connection.c ****     *       RF_Connection_SET_SPACE - Configure the transmitter to send the next
1560:.\Generated_Source\PSoC5/RF_Connection.c ****     *                                    byte as a data.
1561:.\Generated_Source\PSoC5/RF_Connection.c ****     *       RF_Connection_SET_MARK  - Configure the transmitter to send the next
1562:.\Generated_Source\PSoC5/RF_Connection.c ****     *                                    byte as an address.
1563:.\Generated_Source\PSoC5/RF_Connection.c ****     *
1564:.\Generated_Source\PSoC5/RF_Connection.c ****     * Return:
1565:.\Generated_Source\PSoC5/RF_Connection.c ****     *  None.
1566:.\Generated_Source\PSoC5/RF_Connection.c ****     *
1567:.\Generated_Source\PSoC5/RF_Connection.c ****     * Side Effects:
1568:.\Generated_Source\PSoC5/RF_Connection.c ****     *  This function sets and clears RF_Connection_CTRL_MARK bit in the Control
1569:.\Generated_Source\PSoC5/RF_Connection.c ****     *  register.
1570:.\Generated_Source\PSoC5/RF_Connection.c ****     *
1571:.\Generated_Source\PSoC5/RF_Connection.c ****     *******************************************************************************/
1572:.\Generated_Source\PSoC5/RF_Connection.c ****     void RF_Connection_SetTxAddressMode(uint8 addressMode) 
1573:.\Generated_Source\PSoC5/RF_Connection.c ****     {
 1298              		.loc 1 1573 0
 1299              		.cfi_startproc
 1300              		@ args = 0, pretend = 0, frame = 0
 1301              		@ frame_needed = 0, uses_anonymous_args = 0
 1302              	.LVL98:
 1303 0000 08B5     		push	{r3, lr}
 1304              		.cfi_def_cfa_offset 8
 1305              		.cfi_offset 3, -8
 1306              		.cfi_offset 14, -4
1574:.\Generated_Source\PSoC5/RF_Connection.c ****         /* Mark/Space sending enable */
1575:.\Generated_Source\PSoC5/RF_Connection.c ****         if(addressMode != 0u)
 1307              		.loc 1 1575 0
 1308 0002 38B1     		cbz	r0, .L128
ARM GAS  C:\Users\Diego\AppData\Local\Temp\ccmnqHZ6.s 			page 52


1576:.\Generated_Source\PSoC5/RF_Connection.c ****         {
1577:.\Generated_Source\PSoC5/RF_Connection.c ****         #if( RF_Connection_CONTROL_REG_REMOVED == 0u )
1578:.\Generated_Source\PSoC5/RF_Connection.c ****             RF_Connection_WriteControlRegister(RF_Connection_ReadControlRegister() |
 1309              		.loc 1 1578 0
 1310 0004 FFF7FEFF 		bl	RF_Connection_ReadControlRegister
 1311              	.LVL99:
 1312 0008 40F00400 		orr	r0, r0, #4
 1313 000c C0B2     		uxtb	r0, r0
 1314 000e FFF7FEFF 		bl	RF_Connection_WriteControlRegister
 1315              	.LVL100:
 1316 0012 08BD     		pop	{r3, pc}
 1317              	.LVL101:
 1318              	.L128:
1579:.\Generated_Source\PSoC5/RF_Connection.c ****                                                   RF_Connection_CTRL_MARK);
1580:.\Generated_Source\PSoC5/RF_Connection.c ****         #endif /* End RF_Connection_CONTROL_REG_REMOVED == 0u */
1581:.\Generated_Source\PSoC5/RF_Connection.c ****         }
1582:.\Generated_Source\PSoC5/RF_Connection.c ****         else
1583:.\Generated_Source\PSoC5/RF_Connection.c ****         {
1584:.\Generated_Source\PSoC5/RF_Connection.c ****         #if( RF_Connection_CONTROL_REG_REMOVED == 0u )
1585:.\Generated_Source\PSoC5/RF_Connection.c ****             RF_Connection_WriteControlRegister(RF_Connection_ReadControlRegister() &
 1319              		.loc 1 1585 0
 1320 0014 FFF7FEFF 		bl	RF_Connection_ReadControlRegister
 1321              	.LVL102:
 1322 0018 00F0FB00 		and	r0, r0, #251
 1323 001c FFF7FEFF 		bl	RF_Connection_WriteControlRegister
 1324              	.LVL103:
 1325 0020 08BD     		pop	{r3, pc}
 1326              		.cfi_endproc
 1327              	.LFE26:
 1328              		.size	RF_Connection_SetTxAddressMode, .-RF_Connection_SetTxAddressMode
 1329              		.global	RF_Connection_rxBufferOverflow
 1330              		.global	RF_Connection_rxBufferLoopDetect
 1331              		.global	RF_Connection_rxBufferWrite
 1332              		.global	RF_Connection_rxBufferRead
 1333              		.comm	RF_Connection_rxBuffer,512,4
 1334              		.global	RF_Connection_errorStatus
 1335              		.global	RF_Connection_initVar
 1336 0022 00BF     		.bss
 1337              		.align	1
 1338              		.set	.LANCHOR0,. + 0
 1339              		.type	RF_Connection_errorStatus, %object
 1340              		.size	RF_Connection_errorStatus, 1
 1341              	RF_Connection_errorStatus:
 1342 0000 00       		.space	1
 1343              		.type	RF_Connection_initVar, %object
 1344              		.size	RF_Connection_initVar, 1
 1345              	RF_Connection_initVar:
 1346 0001 00       		.space	1
 1347              		.type	RF_Connection_rxBufferRead, %object
 1348              		.size	RF_Connection_rxBufferRead, 2
 1349              	RF_Connection_rxBufferRead:
 1350 0002 0000     		.space	2
 1351              		.type	RF_Connection_rxBufferWrite, %object
 1352              		.size	RF_Connection_rxBufferWrite, 2
 1353              	RF_Connection_rxBufferWrite:
 1354 0004 0000     		.space	2
 1355              		.type	RF_Connection_rxBufferLoopDetect, %object
ARM GAS  C:\Users\Diego\AppData\Local\Temp\ccmnqHZ6.s 			page 53


 1356              		.size	RF_Connection_rxBufferLoopDetect, 1
 1357              	RF_Connection_rxBufferLoopDetect:
 1358 0006 00       		.space	1
 1359              		.type	RF_Connection_rxBufferOverflow, %object
 1360              		.size	RF_Connection_rxBufferOverflow, 1
 1361              	RF_Connection_rxBufferOverflow:
 1362 0007 00       		.space	1
 1363              		.type	txPeriod.5009, %object
 1364              		.size	txPeriod.5009, 1
 1365              	txPeriod.5009:
 1366 0008 00       		.space	1
 1367 0009 00       		.text
 1368              	.Letext0:
 1369              		.file 2 ".\\Generated_Source\\PSoC5\\cytypes.h"
 1370              		.file 3 ".\\Generated_Source\\PSoC5\\RF_Connection_IntClock.h"
 1371              		.file 4 ".\\Generated_Source\\PSoC5\\CyLib.h"
 1372              		.section	.debug_info,"",%progbits
 1373              	.Ldebug_info0:
 1374 0000 AF070000 		.4byte	0x7af
 1375 0004 0400     		.2byte	0x4
 1376 0006 00000000 		.4byte	.Ldebug_abbrev0
 1377 000a 04       		.byte	0x4
 1378 000b 01       		.uleb128 0x1
 1379 000c B1050000 		.4byte	.LASF75
 1380 0010 01       		.byte	0x1
 1381 0011 DC030000 		.4byte	.LASF76
 1382 0015 4D010000 		.4byte	.LASF77
 1383 0019 00000000 		.4byte	.Ldebug_ranges0+0
 1384 001d 00000000 		.4byte	0
 1385 0021 00000000 		.4byte	.Ldebug_line0
 1386 0025 02       		.uleb128 0x2
 1387 0026 01       		.byte	0x1
 1388 0027 06       		.byte	0x6
 1389 0028 04010000 		.4byte	.LASF0
 1390 002c 02       		.uleb128 0x2
 1391 002d 01       		.byte	0x1
 1392 002e 08       		.byte	0x8
 1393 002f 4B040000 		.4byte	.LASF1
 1394 0033 02       		.uleb128 0x2
 1395 0034 02       		.byte	0x2
 1396 0035 05       		.byte	0x5
 1397 0036 59040000 		.4byte	.LASF2
 1398 003a 02       		.uleb128 0x2
 1399 003b 02       		.byte	0x2
 1400 003c 07       		.byte	0x7
 1401 003d 5A020000 		.4byte	.LASF3
 1402 0041 02       		.uleb128 0x2
 1403 0042 04       		.byte	0x4
 1404 0043 05       		.byte	0x5
 1405 0044 AB010000 		.4byte	.LASF4
 1406 0048 02       		.uleb128 0x2
 1407 0049 04       		.byte	0x4
 1408 004a 07       		.byte	0x7
 1409 004b 15020000 		.4byte	.LASF5
 1410 004f 02       		.uleb128 0x2
 1411 0050 08       		.byte	0x8
 1412 0051 05       		.byte	0x5
ARM GAS  C:\Users\Diego\AppData\Local\Temp\ccmnqHZ6.s 			page 54


 1413 0052 F6000000 		.4byte	.LASF6
 1414 0056 02       		.uleb128 0x2
 1415 0057 08       		.byte	0x8
 1416 0058 07       		.byte	0x7
 1417 0059 AA000000 		.4byte	.LASF7
 1418 005d 03       		.uleb128 0x3
 1419 005e 04       		.byte	0x4
 1420 005f 05       		.byte	0x5
 1421 0060 696E7400 		.ascii	"int\000"
 1422 0064 02       		.uleb128 0x2
 1423 0065 04       		.byte	0x4
 1424 0066 07       		.byte	0x7
 1425 0067 F9010000 		.4byte	.LASF8
 1426 006b 04       		.uleb128 0x4
 1427 006c B4010000 		.4byte	.LASF9
 1428 0070 02       		.byte	0x2
 1429 0071 3801     		.2byte	0x138
 1430 0073 2C000000 		.4byte	0x2c
 1431 0077 04       		.uleb128 0x4
 1432 0078 00000000 		.4byte	.LASF10
 1433 007c 02       		.byte	0x2
 1434 007d 3901     		.2byte	0x139
 1435 007f 3A000000 		.4byte	0x3a
 1436 0083 04       		.uleb128 0x4
 1437 0084 CD010000 		.4byte	.LASF11
 1438 0088 02       		.byte	0x2
 1439 0089 3A01     		.2byte	0x13a
 1440 008b 48000000 		.4byte	0x48
 1441 008f 02       		.uleb128 0x2
 1442 0090 04       		.byte	0x4
 1443 0091 04       		.byte	0x4
 1444 0092 A2030000 		.4byte	.LASF12
 1445 0096 02       		.uleb128 0x2
 1446 0097 08       		.byte	0x8
 1447 0098 04       		.byte	0x4
 1448 0099 BA010000 		.4byte	.LASF13
 1449 009d 04       		.uleb128 0x4
 1450 009e 31050000 		.4byte	.LASF14
 1451 00a2 02       		.byte	0x2
 1452 00a3 4901     		.2byte	0x149
 1453 00a5 A9000000 		.4byte	0xa9
 1454 00a9 02       		.uleb128 0x2
 1455 00aa 01       		.byte	0x1
 1456 00ab 08       		.byte	0x8
 1457 00ac E4040000 		.4byte	.LASF15
 1458 00b0 04       		.uleb128 0x4
 1459 00b1 27040000 		.4byte	.LASF16
 1460 00b5 02       		.byte	0x2
 1461 00b6 E201     		.2byte	0x1e2
 1462 00b8 BC000000 		.4byte	0xbc
 1463 00bc 05       		.uleb128 0x5
 1464 00bd 6B000000 		.4byte	0x6b
 1465 00c1 05       		.uleb128 0x5
 1466 00c2 77000000 		.4byte	0x77
 1467 00c6 04       		.uleb128 0x4
 1468 00c7 E8020000 		.4byte	.LASF17
 1469 00cb 02       		.byte	0x2
ARM GAS  C:\Users\Diego\AppData\Local\Temp\ccmnqHZ6.s 			page 55


 1470 00cc E401     		.2byte	0x1e4
 1471 00ce D2000000 		.4byte	0xd2
 1472 00d2 05       		.uleb128 0x5
 1473 00d3 83000000 		.4byte	0x83
 1474 00d7 04       		.uleb128 0x4
 1475 00d8 E9040000 		.4byte	.LASF18
 1476 00dc 02       		.byte	0x2
 1477 00dd F401     		.2byte	0x1f4
 1478 00df E3000000 		.4byte	0xe3
 1479 00e3 06       		.uleb128 0x6
 1480 00e4 04       		.byte	0x4
 1481 00e5 E9000000 		.4byte	0xe9
 1482 00e9 07       		.uleb128 0x7
 1483 00ea 02       		.uleb128 0x2
 1484 00eb 04       		.byte	0x4
 1485 00ec 07       		.byte	0x7
 1486 00ed 1E030000 		.4byte	.LASF19
 1487 00f1 08       		.uleb128 0x8
 1488 00f2 DC010000 		.4byte	.LASF20
 1489 00f6 01       		.byte	0x1
 1490 00f7 B7       		.byte	0xb7
 1491 00f8 00000000 		.4byte	.LFB2
 1492 00fc 44000000 		.4byte	.LFE2-.LFB2
 1493 0100 01       		.uleb128 0x1
 1494 0101 9C       		.byte	0x9c
 1495 0102 38010000 		.4byte	0x138
 1496 0106 09       		.uleb128 0x9
 1497 0107 99050000 		.4byte	.LASF22
 1498 010b 01       		.byte	0x1
 1499 010c B9       		.byte	0xb9
 1500 010d 6B000000 		.4byte	0x6b
 1501 0111 00000000 		.4byte	.LLST0
 1502 0115 0A       		.uleb128 0xa
 1503 0116 06000000 		.4byte	.LVL0
 1504 011a 5C070000 		.4byte	0x75c
 1505 011e 0A       		.uleb128 0xa
 1506 011f 30000000 		.4byte	.LVL2
 1507 0123 67070000 		.4byte	0x767
 1508 0127 0B       		.uleb128 0xb
 1509 0128 36000000 		.4byte	.LVL3
 1510 012c 6E070000 		.4byte	0x76e
 1511 0130 0C       		.uleb128 0xc
 1512 0131 01       		.uleb128 0x1
 1513 0132 50       		.byte	0x50
 1514 0133 02       		.uleb128 0x2
 1515 0134 74       		.byte	0x74
 1516 0135 00       		.sleb128 0
 1517 0136 00       		.byte	0
 1518 0137 00       		.byte	0
 1519 0138 08       		.uleb128 0x8
 1520 0139 81060000 		.4byte	.LASF21
 1521 013d 01       		.byte	0x1
 1522 013e F0       		.byte	0xf0
 1523 013f 00000000 		.4byte	.LFB3
 1524 0143 48000000 		.4byte	.LFE3-.LFB3
 1525 0147 01       		.uleb128 0x1
 1526 0148 9C       		.byte	0x9c
ARM GAS  C:\Users\Diego\AppData\Local\Temp\ccmnqHZ6.s 			page 56


 1527 0149 7F010000 		.4byte	0x17f
 1528 014d 09       		.uleb128 0x9
 1529 014e 99050000 		.4byte	.LASF22
 1530 0152 01       		.byte	0x1
 1531 0153 F2       		.byte	0xf2
 1532 0154 6B000000 		.4byte	0x6b
 1533 0158 13000000 		.4byte	.LLST1
 1534 015c 0A       		.uleb128 0xa
 1535 015d 06000000 		.4byte	.LVL5
 1536 0161 5C070000 		.4byte	0x75c
 1537 0165 0A       		.uleb128 0xa
 1538 0166 16000000 		.4byte	.LVL7
 1539 016a 7F070000 		.4byte	0x77f
 1540 016e 0B       		.uleb128 0xb
 1541 016f 36000000 		.4byte	.LVL8
 1542 0173 6E070000 		.4byte	0x76e
 1543 0177 0C       		.uleb128 0xc
 1544 0178 01       		.uleb128 0x1
 1545 0179 50       		.byte	0x50
 1546 017a 02       		.uleb128 0x2
 1547 017b 74       		.byte	0x74
 1548 017c 00       		.sleb128 0
 1549 017d 00       		.byte	0
 1550 017e 00       		.byte	0
 1551 017f 0D       		.uleb128 0xd
 1552 0180 05040000 		.4byte	.LASF50
 1553 0184 01       		.byte	0x1
 1554 0185 2701     		.2byte	0x127
 1555 0187 6B000000 		.4byte	0x6b
 1556 018b 00000000 		.4byte	.LFB4
 1557 018f 0C000000 		.4byte	.LFE4-.LFB4
 1558 0193 01       		.uleb128 0x1
 1559 0194 9C       		.byte	0x9c
 1560 0195 0E       		.uleb128 0xe
 1561 0196 3F060000 		.4byte	.LASF23
 1562 019a 01       		.byte	0x1
 1563 019b 3F01     		.2byte	0x13f
 1564 019d 00000000 		.4byte	.LFB5
 1565 01a1 0C000000 		.4byte	.LFE5-.LFB5
 1566 01a5 01       		.uleb128 0x1
 1567 01a6 9C       		.byte	0x9c
 1568 01a7 BA010000 		.4byte	0x1ba
 1569 01ab 0F       		.uleb128 0xf
 1570 01ac D4010000 		.4byte	.LASF27
 1571 01b0 01       		.byte	0x1
 1572 01b1 3F01     		.2byte	0x13f
 1573 01b3 6B000000 		.4byte	0x6b
 1574 01b7 01       		.uleb128 0x1
 1575 01b8 50       		.byte	0x50
 1576 01b9 00       		.byte	0
 1577 01ba 08       		.uleb128 0x8
 1578 01bb 6D020000 		.4byte	.LASF24
 1579 01bf 01       		.byte	0x1
 1580 01c0 6A       		.byte	0x6a
 1581 01c1 00000000 		.4byte	.LFB1
 1582 01c5 50000000 		.4byte	.LFE1-.LFB1
 1583 01c9 01       		.uleb128 0x1
ARM GAS  C:\Users\Diego\AppData\Local\Temp\ccmnqHZ6.s 			page 57


 1584 01ca 9C       		.byte	0x9c
 1585 01cb 0D020000 		.4byte	0x20d
 1586 01cf 10       		.uleb128 0x10
 1587 01d0 0A000000 		.4byte	.LVL11
 1588 01d4 86070000 		.4byte	0x786
 1589 01d8 E2010000 		.4byte	0x1e2
 1590 01dc 0C       		.uleb128 0xc
 1591 01dd 01       		.uleb128 0x1
 1592 01de 50       		.byte	0x50
 1593 01df 01       		.uleb128 0x1
 1594 01e0 33       		.byte	0x33
 1595 01e1 00       		.byte	0
 1596 01e2 10       		.uleb128 0x10
 1597 01e3 12000000 		.4byte	.LVL12
 1598 01e7 A0070000 		.4byte	0x7a0
 1599 01eb FA010000 		.4byte	0x1fa
 1600 01ef 0C       		.uleb128 0xc
 1601 01f0 01       		.uleb128 0x1
 1602 01f1 51       		.byte	0x51
 1603 01f2 01       		.uleb128 0x1
 1604 01f3 37       		.byte	0x37
 1605 01f4 0C       		.uleb128 0xc
 1606 01f5 01       		.uleb128 0x1
 1607 01f6 50       		.byte	0x50
 1608 01f7 01       		.uleb128 0x1
 1609 01f8 33       		.byte	0x33
 1610 01f9 00       		.byte	0
 1611 01fa 0A       		.uleb128 0xa
 1612 01fb 38000000 		.4byte	.LVL13
 1613 01ff 7F010000 		.4byte	0x17f
 1614 0203 0A       		.uleb128 0xa
 1615 0204 40000000 		.4byte	.LVL14
 1616 0208 95010000 		.4byte	0x195
 1617 020c 00       		.byte	0
 1618 020d 08       		.uleb128 0x8
 1619 020e EE020000 		.4byte	.LASF25
 1620 0212 01       		.byte	0x1
 1621 0213 4C       		.byte	0x4c
 1622 0214 00000000 		.4byte	.LFB0
 1623 0218 1C000000 		.4byte	.LFE0-.LFB0
 1624 021c 01       		.uleb128 0x1
 1625 021d 9C       		.byte	0x9c
 1626 021e 35020000 		.4byte	0x235
 1627 0222 0A       		.uleb128 0xa
 1628 0223 0C000000 		.4byte	.LVL15
 1629 0227 BA010000 		.4byte	0x1ba
 1630 022b 0A       		.uleb128 0xa
 1631 022c 16000000 		.4byte	.LVL16
 1632 0230 F1000000 		.4byte	0xf1
 1633 0234 00       		.byte	0
 1634 0235 0E       		.uleb128 0xe
 1635 0236 10050000 		.4byte	.LASF26
 1636 023a 01       		.byte	0x1
 1637 023b 6701     		.2byte	0x167
 1638 023d 00000000 		.4byte	.LFB6
 1639 0241 0C000000 		.4byte	.LFE6-.LFB6
 1640 0245 01       		.uleb128 0x1
ARM GAS  C:\Users\Diego\AppData\Local\Temp\ccmnqHZ6.s 			page 58


 1641 0246 9C       		.byte	0x9c
 1642 0247 5A020000 		.4byte	0x25a
 1643 024b 0F       		.uleb128 0xf
 1644 024c C6020000 		.4byte	.LASF28
 1645 0250 01       		.byte	0x1
 1646 0251 6701     		.2byte	0x167
 1647 0253 6B000000 		.4byte	0x6b
 1648 0257 01       		.uleb128 0x1
 1649 0258 50       		.byte	0x50
 1650 0259 00       		.byte	0
 1651 025a 11       		.uleb128 0x11
 1652 025b 37050000 		.4byte	.LASF32
 1653 025f 01       		.byte	0x1
 1654 0260 8801     		.2byte	0x188
 1655 0262 6B000000 		.4byte	0x6b
 1656 0266 00000000 		.4byte	.LFB7
 1657 026a 64000000 		.4byte	.LFE7-.LFB7
 1658 026e 01       		.uleb128 0x1
 1659 026f 9C       		.byte	0x9c
 1660 0270 A3020000 		.4byte	0x2a3
 1661 0274 12       		.uleb128 0x12
 1662 0275 A5040000 		.4byte	.LASF29
 1663 0279 01       		.byte	0x1
 1664 027a 8A01     		.2byte	0x18a
 1665 027c 6B000000 		.4byte	0x6b
 1666 0280 26000000 		.4byte	.LLST2
 1667 0284 12       		.uleb128 0x12
 1668 0285 81050000 		.4byte	.LASF30
 1669 0289 01       		.byte	0x1
 1670 028a 8E01     		.2byte	0x18e
 1671 028c 77000000 		.4byte	0x77
 1672 0290 44000000 		.4byte	.LLST3
 1673 0294 13       		.uleb128 0x13
 1674 0295 5B030000 		.4byte	.LASF31
 1675 0299 01       		.byte	0x1
 1676 029a 8F01     		.2byte	0x18f
 1677 029c 77000000 		.4byte	0x77
 1678 02a0 01       		.uleb128 0x1
 1679 02a1 51       		.byte	0x51
 1680 02a2 00       		.byte	0
 1681 02a3 11       		.uleb128 0x11
 1682 02a4 46000000 		.4byte	.LASF33
 1683 02a8 01       		.byte	0x1
 1684 02a9 E501     		.2byte	0x1e5
 1685 02ab 6B000000 		.4byte	0x6b
 1686 02af 00000000 		.4byte	.LFB8
 1687 02b3 28000000 		.4byte	.LFE8-.LFB8
 1688 02b7 01       		.uleb128 0x1
 1689 02b8 9C       		.byte	0x9c
 1690 02b9 CC020000 		.4byte	0x2cc
 1691 02bd 13       		.uleb128 0x13
 1692 02be AA050000 		.4byte	.LASF34
 1693 02c2 01       		.byte	0x1
 1694 02c3 E701     		.2byte	0x1e7
 1695 02c5 6B000000 		.4byte	0x6b
 1696 02c9 01       		.uleb128 0x1
 1697 02ca 50       		.byte	0x50
ARM GAS  C:\Users\Diego\AppData\Local\Temp\ccmnqHZ6.s 			page 59


 1698 02cb 00       		.byte	0
 1699 02cc 11       		.uleb128 0x11
 1700 02cd 07000000 		.4byte	.LASF35
 1701 02d1 01       		.byte	0x1
 1702 02d2 1402     		.2byte	0x214
 1703 02d4 6B000000 		.4byte	0x6b
 1704 02d8 00000000 		.4byte	.LFB9
 1705 02dc 84000000 		.4byte	.LFE9-.LFB9
 1706 02e0 01       		.uleb128 0x1
 1707 02e1 9C       		.byte	0x9c
 1708 02e2 25030000 		.4byte	0x325
 1709 02e6 12       		.uleb128 0x12
 1710 02e7 A5040000 		.4byte	.LASF29
 1711 02eb 01       		.byte	0x1
 1712 02ec 1602     		.2byte	0x216
 1713 02ee 6B000000 		.4byte	0x6b
 1714 02f2 89000000 		.4byte	.LLST4
 1715 02f6 12       		.uleb128 0x12
 1716 02f7 6C030000 		.4byte	.LASF36
 1717 02fb 01       		.byte	0x1
 1718 02fc 1702     		.2byte	0x217
 1719 02fe 6B000000 		.4byte	0x6b
 1720 0302 D6000000 		.4byte	.LLST5
 1721 0306 12       		.uleb128 0x12
 1722 0307 81050000 		.4byte	.LASF30
 1723 030b 01       		.byte	0x1
 1724 030c 1A02     		.2byte	0x21a
 1725 030e 77000000 		.4byte	0x77
 1726 0312 E9000000 		.4byte	.LLST6
 1727 0316 13       		.uleb128 0x13
 1728 0317 5B030000 		.4byte	.LASF31
 1729 031b 01       		.byte	0x1
 1730 031c 1B02     		.2byte	0x21b
 1731 031e 77000000 		.4byte	0x77
 1732 0322 01       		.uleb128 0x1
 1733 0323 51       		.byte	0x51
 1734 0324 00       		.byte	0
 1735 0325 11       		.uleb128 0x11
 1736 0326 2F030000 		.4byte	.LASF37
 1737 032a 01       		.byte	0x1
 1738 032b 7A02     		.2byte	0x27a
 1739 032d 77000000 		.4byte	0x77
 1740 0331 00000000 		.4byte	.LFB10
 1741 0335 2C000000 		.4byte	.LFE10-.LFB10
 1742 0339 01       		.uleb128 0x1
 1743 033a 9C       		.byte	0x9c
 1744 033b 59030000 		.4byte	0x359
 1745 033f 12       		.uleb128 0x12
 1746 0340 06020000 		.4byte	.LASF38
 1747 0344 01       		.byte	0x1
 1748 0345 7E02     		.2byte	0x27e
 1749 0347 77000000 		.4byte	0x77
 1750 034b 2E010000 		.4byte	.LLST7
 1751 034f 0A       		.uleb128 0xa
 1752 0350 1A000000 		.4byte	.LVL49
 1753 0354 5A020000 		.4byte	0x25a
 1754 0358 00       		.byte	0
ARM GAS  C:\Users\Diego\AppData\Local\Temp\ccmnqHZ6.s 			page 60


 1755 0359 11       		.uleb128 0x11
 1756 035a BE030000 		.4byte	.LASF39
 1757 035e 01       		.byte	0x1
 1758 035f AB02     		.2byte	0x2ab
 1759 0361 77000000 		.4byte	0x77
 1760 0365 00000000 		.4byte	.LFB11
 1761 0369 68000000 		.4byte	.LFE11-.LFB11
 1762 036d 01       		.uleb128 0x1
 1763 036e 9C       		.byte	0x9c
 1764 036f 84030000 		.4byte	0x384
 1765 0373 12       		.uleb128 0x12
 1766 0374 55020000 		.4byte	.LASF40
 1767 0378 01       		.byte	0x1
 1768 0379 AE02     		.2byte	0x2ae
 1769 037b 77000000 		.4byte	0x77
 1770 037f 41010000 		.4byte	.LLST8
 1771 0383 00       		.byte	0
 1772 0384 0E       		.uleb128 0xe
 1773 0385 19010000 		.4byte	.LASF41
 1774 0389 01       		.byte	0x1
 1775 038a F502     		.2byte	0x2f5
 1776 038c 00000000 		.4byte	.LFB12
 1777 0390 44000000 		.4byte	.LFE12-.LFB12
 1778 0394 01       		.uleb128 0x1
 1779 0395 9C       		.byte	0x9c
 1780 0396 BD030000 		.4byte	0x3bd
 1781 039a 12       		.uleb128 0x12
 1782 039b 99050000 		.4byte	.LASF22
 1783 039f 01       		.byte	0x1
 1784 03a0 F702     		.2byte	0x2f7
 1785 03a2 6B000000 		.4byte	0x6b
 1786 03a6 6A010000 		.4byte	.LLST9
 1787 03aa 0A       		.uleb128 0xa
 1788 03ab 06000000 		.4byte	.LVL55
 1789 03af 5C070000 		.4byte	0x75c
 1790 03b3 0A       		.uleb128 0xa
 1791 03b4 1C000000 		.4byte	.LVL56
 1792 03b8 6E070000 		.4byte	0x76e
 1793 03bc 00       		.byte	0
 1794 03bd 0E       		.uleb128 0xe
 1795 03be 2C040000 		.4byte	.LASF42
 1796 03c2 01       		.byte	0x1
 1797 03c3 2D03     		.2byte	0x32d
 1798 03c5 00000000 		.4byte	.LFB13
 1799 03c9 02000000 		.4byte	.LFE13-.LFB13
 1800 03cd 01       		.uleb128 0x1
 1801 03ce 9C       		.byte	0x9c
 1802 03cf E2030000 		.4byte	0x3e2
 1803 03d3 0F       		.uleb128 0xf
 1804 03d4 C1010000 		.4byte	.LASF43
 1805 03d8 01       		.byte	0x1
 1806 03d9 2D03     		.2byte	0x32d
 1807 03db 6B000000 		.4byte	0x6b
 1808 03df 01       		.uleb128 0x1
 1809 03e0 50       		.byte	0x50
 1810 03e1 00       		.byte	0
 1811 03e2 0E       		.uleb128 0xe
ARM GAS  C:\Users\Diego\AppData\Local\Temp\ccmnqHZ6.s 			page 61


 1812 03e3 AC040000 		.4byte	.LASF44
 1813 03e7 01       		.byte	0x1
 1814 03e8 5903     		.2byte	0x359
 1815 03ea 00000000 		.4byte	.LFB14
 1816 03ee 0C000000 		.4byte	.LFE14-.LFB14
 1817 03f2 01       		.uleb128 0x1
 1818 03f3 9C       		.byte	0x9c
 1819 03f4 07040000 		.4byte	0x407
 1820 03f8 0F       		.uleb128 0xf
 1821 03f9 27030000 		.4byte	.LASF45
 1822 03fd 01       		.byte	0x1
 1823 03fe 5903     		.2byte	0x359
 1824 0400 6B000000 		.4byte	0x6b
 1825 0404 01       		.uleb128 0x1
 1826 0405 50       		.byte	0x50
 1827 0406 00       		.byte	0
 1828 0407 0E       		.uleb128 0xe
 1829 0408 C8040000 		.4byte	.LASF46
 1830 040c 01       		.byte	0x1
 1831 040d 6D03     		.2byte	0x36d
 1832 040f 00000000 		.4byte	.LFB15
 1833 0413 0C000000 		.4byte	.LFE15-.LFB15
 1834 0417 01       		.uleb128 0x1
 1835 0418 9C       		.byte	0x9c
 1836 0419 2C040000 		.4byte	0x42c
 1837 041d 0F       		.uleb128 0xf
 1838 041e 27030000 		.4byte	.LASF45
 1839 0422 01       		.byte	0x1
 1840 0423 6D03     		.2byte	0x36d
 1841 0425 6B000000 		.4byte	0x6b
 1842 0429 01       		.uleb128 0x1
 1843 042a 50       		.byte	0x50
 1844 042b 00       		.byte	0
 1845 042c 0E       		.uleb128 0xe
 1846 042d 89000000 		.4byte	.LASF47
 1847 0431 01       		.byte	0x1
 1848 0432 8C03     		.2byte	0x38c
 1849 0434 00000000 		.4byte	.LFB16
 1850 0438 0C000000 		.4byte	.LFE16-.LFB16
 1851 043c 01       		.uleb128 0x1
 1852 043d 9C       		.byte	0x9c
 1853 043e 51040000 		.4byte	0x451
 1854 0442 0F       		.uleb128 0xf
 1855 0443 C6020000 		.4byte	.LASF28
 1856 0447 01       		.byte	0x1
 1857 0448 8C03     		.2byte	0x38c
 1858 044a 6B000000 		.4byte	0x6b
 1859 044e 01       		.uleb128 0x1
 1860 044f 50       		.byte	0x50
 1861 0450 00       		.byte	0
 1862 0451 0E       		.uleb128 0xe
 1863 0452 67050000 		.4byte	.LASF48
 1864 0456 01       		.byte	0x1
 1865 0457 AE03     		.2byte	0x3ae
 1866 0459 00000000 		.4byte	.LFB17
 1867 045d 14000000 		.4byte	.LFE17-.LFB17
 1868 0461 01       		.uleb128 0x1
ARM GAS  C:\Users\Diego\AppData\Local\Temp\ccmnqHZ6.s 			page 62


 1869 0462 9C       		.byte	0x9c
 1870 0463 76040000 		.4byte	0x476
 1871 0467 0F       		.uleb128 0xf
 1872 0468 1D000000 		.4byte	.LASF49
 1873 046c 01       		.byte	0x1
 1874 046d AE03     		.2byte	0x3ae
 1875 046f 6B000000 		.4byte	0x6b
 1876 0473 01       		.uleb128 0x1
 1877 0474 50       		.byte	0x50
 1878 0475 00       		.byte	0
 1879 0476 0D       		.uleb128 0xd
 1880 0477 CD020000 		.4byte	.LASF51
 1881 047b 01       		.byte	0x1
 1882 047c EB03     		.2byte	0x3eb
 1883 047e 6B000000 		.4byte	0x6b
 1884 0482 00000000 		.4byte	.LFB18
 1885 0486 0C000000 		.4byte	.LFE18-.LFB18
 1886 048a 01       		.uleb128 0x1
 1887 048b 9C       		.byte	0x9c
 1888 048c 0E       		.uleb128 0xe
 1889 048d 98020000 		.4byte	.LASF52
 1890 0491 01       		.byte	0x1
 1891 0492 1104     		.2byte	0x411
 1892 0494 00000000 		.4byte	.LFB19
 1893 0498 18000000 		.4byte	.LFE19-.LFB19
 1894 049c 01       		.uleb128 0x1
 1895 049d 9C       		.byte	0x9c
 1896 049e B1040000 		.4byte	0x4b1
 1897 04a2 0F       		.uleb128 0xf
 1898 04a3 1D000000 		.4byte	.LASF49
 1899 04a7 01       		.byte	0x1
 1900 04a8 1104     		.2byte	0x411
 1901 04aa 6B000000 		.4byte	0x6b
 1902 04ae 01       		.uleb128 0x1
 1903 04af 50       		.byte	0x50
 1904 04b0 00       		.byte	0
 1905 04b1 0E       		.uleb128 0xe
 1906 04b2 AE020000 		.4byte	.LASF53
 1907 04b6 01       		.byte	0x1
 1908 04b7 7904     		.2byte	0x479
 1909 04b9 00000000 		.4byte	.LFB20
 1910 04bd 24000000 		.4byte	.LFE20-.LFB20
 1911 04c1 01       		.uleb128 0x1
 1912 04c2 9C       		.byte	0x9c
 1913 04c3 F1040000 		.4byte	0x4f1
 1914 04c7 14       		.uleb128 0x14
 1915 04c8 82000000 		.4byte	.LASF54
 1916 04cc 01       		.byte	0x1
 1917 04cd 7904     		.2byte	0x479
 1918 04cf F1040000 		.4byte	0x4f1
 1919 04d3 7D010000 		.4byte	.LLST10
 1920 04d7 12       		.uleb128 0x12
 1921 04d8 8F020000 		.4byte	.LASF55
 1922 04dc 01       		.byte	0x1
 1923 04dd 7B04     		.2byte	0x47b
 1924 04df 77000000 		.4byte	0x77
 1925 04e3 BF010000 		.4byte	.LLST11
ARM GAS  C:\Users\Diego\AppData\Local\Temp\ccmnqHZ6.s 			page 63


 1926 04e7 0A       		.uleb128 0xa
 1927 04e8 0E000000 		.4byte	.LVL66
 1928 04ec 8C040000 		.4byte	0x48c
 1929 04f0 00       		.byte	0
 1930 04f1 06       		.uleb128 0x6
 1931 04f2 04       		.byte	0x4
 1932 04f3 F7040000 		.4byte	0x4f7
 1933 04f7 15       		.uleb128 0x15
 1934 04f8 9D000000 		.4byte	0x9d
 1935 04fc 0E       		.uleb128 0xe
 1936 04fd 50050000 		.4byte	.LASF56
 1937 0501 01       		.byte	0x1
 1938 0502 A704     		.2byte	0x4a7
 1939 0504 00000000 		.4byte	.LFB21
 1940 0508 28000000 		.4byte	.LFE21-.LFB21
 1941 050c 01       		.uleb128 0x1
 1942 050d 9C       		.byte	0x9c
 1943 050e 4C050000 		.4byte	0x54c
 1944 0512 14       		.uleb128 0x14
 1945 0513 82000000 		.4byte	.LASF54
 1946 0517 01       		.byte	0x1
 1947 0518 A704     		.2byte	0x4a7
 1948 051a 4C050000 		.4byte	0x54c
 1949 051e 00020000 		.4byte	.LLST12
 1950 0522 14       		.uleb128 0x14
 1951 0523 9B040000 		.4byte	.LASF57
 1952 0527 01       		.byte	0x1
 1953 0528 A704     		.2byte	0x4a7
 1954 052a 6B000000 		.4byte	0x6b
 1955 052e 42020000 		.4byte	.LLST13
 1956 0532 12       		.uleb128 0x12
 1957 0533 8F020000 		.4byte	.LASF55
 1958 0537 01       		.byte	0x1
 1959 0538 AA04     		.2byte	0x4aa
 1960 053a 6B000000 		.4byte	0x6b
 1961 053e 7C020000 		.4byte	.LLST14
 1962 0542 0A       		.uleb128 0xa
 1963 0543 0E000000 		.4byte	.LVL74
 1964 0547 8C040000 		.4byte	0x48c
 1965 054b 00       		.byte	0
 1966 054c 06       		.uleb128 0x6
 1967 054d 04       		.byte	0x4
 1968 054e 52050000 		.4byte	0x552
 1969 0552 15       		.uleb128 0x15
 1970 0553 6B000000 		.4byte	0x6b
 1971 0557 0E       		.uleb128 0xe
 1972 0558 45030000 		.4byte	.LASF58
 1973 055c 01       		.byte	0x1
 1974 055d CE04     		.2byte	0x4ce
 1975 055f 00000000 		.4byte	.LFB22
 1976 0563 20000000 		.4byte	.LFE22-.LFB22
 1977 0567 01       		.uleb128 0x1
 1978 0568 9C       		.byte	0x9c
 1979 0569 A9050000 		.4byte	0x5a9
 1980 056d 14       		.uleb128 0x14
 1981 056e 1D000000 		.4byte	.LASF49
 1982 0572 01       		.byte	0x1
ARM GAS  C:\Users\Diego\AppData\Local\Temp\ccmnqHZ6.s 			page 64


 1983 0573 CE04     		.2byte	0x4ce
 1984 0575 6B000000 		.4byte	0x6b
 1985 0579 BD020000 		.4byte	.LLST15
 1986 057d 0A       		.uleb128 0xa
 1987 057e 0C000000 		.4byte	.LVL81
 1988 0582 8C040000 		.4byte	0x48c
 1989 0586 10       		.uleb128 0x10
 1990 0587 12000000 		.4byte	.LVL82
 1991 058b 8C040000 		.4byte	0x48c
 1992 058f 99050000 		.4byte	0x599
 1993 0593 0C       		.uleb128 0xc
 1994 0594 01       		.uleb128 0x1
 1995 0595 50       		.byte	0x50
 1996 0596 01       		.uleb128 0x1
 1997 0597 3D       		.byte	0x3d
 1998 0598 00       		.byte	0
 1999 0599 0B       		.uleb128 0xb
 2000 059a 18000000 		.4byte	.LVL83
 2001 059e 8C040000 		.4byte	0x48c
 2002 05a2 0C       		.uleb128 0xc
 2003 05a3 01       		.uleb128 0x1
 2004 05a4 50       		.byte	0x50
 2005 05a5 01       		.uleb128 0x1
 2006 05a6 3A       		.byte	0x3a
 2007 05a7 00       		.byte	0
 2008 05a8 00       		.byte	0
 2009 05a9 11       		.uleb128 0x11
 2010 05aa 28000000 		.4byte	.LASF59
 2011 05ae 01       		.byte	0x1
 2012 05af F904     		.2byte	0x4f9
 2013 05b1 6B000000 		.4byte	0x6b
 2014 05b5 00000000 		.4byte	.LFB23
 2015 05b9 24000000 		.4byte	.LFE23-.LFB23
 2016 05bd 01       		.uleb128 0x1
 2017 05be 9C       		.byte	0x9c
 2018 05bf D4050000 		.4byte	0x5d4
 2019 05c3 12       		.uleb128 0x12
 2020 05c4 55020000 		.4byte	.LASF40
 2021 05c8 01       		.byte	0x1
 2022 05c9 FC04     		.2byte	0x4fc
 2023 05cb 6B000000 		.4byte	0x6b
 2024 05cf DE020000 		.4byte	.LLST16
 2025 05d3 00       		.byte	0
 2026 05d4 0E       		.uleb128 0xe
 2027 05d5 75030000 		.4byte	.LASF60
 2028 05d9 01       		.byte	0x1
 2029 05da 4A05     		.2byte	0x54a
 2030 05dc 00000000 		.4byte	.LFB24
 2031 05e0 24000000 		.4byte	.LFE24-.LFB24
 2032 05e4 01       		.uleb128 0x1
 2033 05e5 9C       		.byte	0x9c
 2034 05e6 0D060000 		.4byte	0x60d
 2035 05ea 12       		.uleb128 0x12
 2036 05eb 99050000 		.4byte	.LASF22
 2037 05ef 01       		.byte	0x1
 2038 05f0 4C05     		.2byte	0x54c
 2039 05f2 6B000000 		.4byte	0x6b
ARM GAS  C:\Users\Diego\AppData\Local\Temp\ccmnqHZ6.s 			page 65


 2040 05f6 FC020000 		.4byte	.LLST17
 2041 05fa 0A       		.uleb128 0xa
 2042 05fb 06000000 		.4byte	.LVL86
 2043 05ff 5C070000 		.4byte	0x75c
 2044 0603 0A       		.uleb128 0xa
 2045 0604 1C000000 		.4byte	.LVL87
 2046 0608 6E070000 		.4byte	0x76e
 2047 060c 00       		.byte	0
 2048 060d 0E       		.uleb128 0xe
 2049 060e 35010000 		.4byte	.LASF61
 2050 0612 01       		.byte	0x1
 2051 0613 A005     		.2byte	0x5a0
 2052 0615 00000000 		.4byte	.LFB25
 2053 0619 78000000 		.4byte	.LFE25-.LFB25
 2054 061d 01       		.uleb128 0x1
 2055 061e 9C       		.byte	0x9c
 2056 061f 84060000 		.4byte	0x684
 2057 0623 14       		.uleb128 0x14
 2058 0624 F1010000 		.4byte	.LASF62
 2059 0628 01       		.byte	0x1
 2060 0629 A005     		.2byte	0x5a0
 2061 062b 6B000000 		.4byte	0x6b
 2062 062f 0F030000 		.4byte	.LLST18
 2063 0633 16       		.uleb128 0x16
 2064 0634 0A000000 		.4byte	.LBB2
 2065 0638 6E000000 		.4byte	.LBE2-.LBB2
 2066 063c 12       		.uleb128 0x12
 2067 063d 91050000 		.4byte	.LASF63
 2068 0641 01       		.byte	0x1
 2069 0642 A805     		.2byte	0x5a8
 2070 0644 6B000000 		.4byte	0x6b
 2071 0648 3B030000 		.4byte	.LLST19
 2072 064c 13       		.uleb128 0x13
 2073 064d 10010000 		.4byte	.LASF64
 2074 0651 01       		.byte	0x1
 2075 0652 D005     		.2byte	0x5d0
 2076 0654 6B000000 		.4byte	0x6b
 2077 0658 05       		.uleb128 0x5
 2078 0659 03       		.byte	0x3
 2079 065a 08000000 		.4byte	txPeriod.5009
 2080 065e 0A       		.uleb128 0xa
 2081 065f 14000000 		.4byte	.LVL89
 2082 0663 7F010000 		.4byte	0x17f
 2083 0667 0A       		.uleb128 0xa
 2084 0668 1E000000 		.4byte	.LVL90
 2085 066c 95010000 		.4byte	0x195
 2086 0670 0A       		.uleb128 0xa
 2087 0671 60000000 		.4byte	.LVL95
 2088 0675 7F010000 		.4byte	0x17f
 2089 0679 0A       		.uleb128 0xa
 2090 067a 68000000 		.4byte	.LVL96
 2091 067e 95010000 		.4byte	0x195
 2092 0682 00       		.byte	0
 2093 0683 00       		.byte	0
 2094 0684 0E       		.uleb128 0xe
 2095 0685 62060000 		.4byte	.LASF65
 2096 0689 01       		.byte	0x1
ARM GAS  C:\Users\Diego\AppData\Local\Temp\ccmnqHZ6.s 			page 66


 2097 068a 2406     		.2byte	0x624
 2098 068c 00000000 		.4byte	.LFB26
 2099 0690 22000000 		.4byte	.LFE26-.LFB26
 2100 0694 01       		.uleb128 0x1
 2101 0695 9C       		.byte	0x9c
 2102 0696 CF060000 		.4byte	0x6cf
 2103 069a 14       		.uleb128 0x14
 2104 069b C1010000 		.4byte	.LASF43
 2105 069f 01       		.byte	0x1
 2106 06a0 2406     		.2byte	0x624
 2107 06a2 6B000000 		.4byte	0x6b
 2108 06a6 59030000 		.4byte	.LLST20
 2109 06aa 0A       		.uleb128 0xa
 2110 06ab 08000000 		.4byte	.LVL99
 2111 06af 7F010000 		.4byte	0x17f
 2112 06b3 0A       		.uleb128 0xa
 2113 06b4 12000000 		.4byte	.LVL100
 2114 06b8 95010000 		.4byte	0x195
 2115 06bc 0A       		.uleb128 0xa
 2116 06bd 18000000 		.4byte	.LVL102
 2117 06c1 7F010000 		.4byte	0x17f
 2118 06c5 0A       		.uleb128 0xa
 2119 06c6 20000000 		.4byte	.LVL103
 2120 06ca 95010000 		.4byte	0x195
 2121 06ce 00       		.byte	0
 2122 06cf 17       		.uleb128 0x17
 2123 06d0 C1000000 		.4byte	.LASF66
 2124 06d4 01       		.byte	0x1
 2125 06d5 1B       		.byte	0x1b
 2126 06d6 6B000000 		.4byte	0x6b
 2127 06da 05       		.uleb128 0x5
 2128 06db 03       		.byte	0x3
 2129 06dc 00000000 		.4byte	RF_Connection_initVar
 2130 06e0 17       		.uleb128 0x17
 2131 06e1 F6040000 		.4byte	.LASF67
 2132 06e5 01       		.byte	0x1
 2133 06e6 24       		.byte	0x24
 2134 06e7 6B000000 		.4byte	0x6b
 2135 06eb 05       		.uleb128 0x5
 2136 06ec 03       		.byte	0x3
 2137 06ed 00000000 		.4byte	RF_Connection_errorStatus
 2138 06f1 18       		.uleb128 0x18
 2139 06f2 6B000000 		.4byte	0x6b
 2140 06f6 02070000 		.4byte	0x702
 2141 06fa 19       		.uleb128 0x19
 2142 06fb EA000000 		.4byte	0xea
 2143 06ff FF01     		.2byte	0x1ff
 2144 0701 00       		.byte	0
 2145 0702 17       		.uleb128 0x17
 2146 0703 3E020000 		.4byte	.LASF68
 2147 0707 01       		.byte	0x1
 2148 0708 25       		.byte	0x25
 2149 0709 13070000 		.4byte	0x713
 2150 070d 05       		.uleb128 0x5
 2151 070e 03       		.byte	0x3
 2152 070f 00000000 		.4byte	RF_Connection_rxBuffer
 2153 0713 05       		.uleb128 0x5
ARM GAS  C:\Users\Diego\AppData\Local\Temp\ccmnqHZ6.s 			page 67


 2154 0714 F1060000 		.4byte	0x6f1
 2155 0718 17       		.uleb128 0x17
 2156 0719 80040000 		.4byte	.LASF69
 2157 071d 01       		.byte	0x1
 2158 071e 26       		.byte	0x26
 2159 071f C1000000 		.4byte	0xc1
 2160 0723 05       		.uleb128 0x5
 2161 0724 03       		.byte	0x3
 2162 0725 00000000 		.4byte	RF_Connection_rxBufferRead
 2163 0729 17       		.uleb128 0x17
 2164 072a 8F010000 		.4byte	.LASF70
 2165 072e 01       		.byte	0x1
 2166 072f 27       		.byte	0x27
 2167 0730 C1000000 		.4byte	0xc1
 2168 0734 05       		.uleb128 0x5
 2169 0735 03       		.byte	0x3
 2170 0736 00000000 		.4byte	RF_Connection_rxBufferWrite
 2171 073a 17       		.uleb128 0x17
 2172 073b 61000000 		.4byte	.LASF71
 2173 073f 01       		.byte	0x1
 2174 0740 28       		.byte	0x28
 2175 0741 BC000000 		.4byte	0xbc
 2176 0745 05       		.uleb128 0x5
 2177 0746 03       		.byte	0x3
 2178 0747 00000000 		.4byte	RF_Connection_rxBufferLoopDetect
 2179 074b 17       		.uleb128 0x17
 2180 074c D7000000 		.4byte	.LASF72
 2181 0750 01       		.byte	0x1
 2182 0751 29       		.byte	0x29
 2183 0752 BC000000 		.4byte	0xbc
 2184 0756 05       		.uleb128 0x5
 2185 0757 03       		.byte	0x3
 2186 0758 00000000 		.4byte	RF_Connection_rxBufferOverflow
 2187 075c 1A       		.uleb128 0x1a
 2188 075d 27020000 		.4byte	.LASF78
 2189 0761 04       		.byte	0x4
 2190 0762 7E       		.byte	0x7e
 2191 0763 6B000000 		.4byte	0x6b
 2192 0767 1B       		.uleb128 0x1b
 2193 0768 63040000 		.4byte	.LASF73
 2194 076c 03       		.byte	0x3
 2195 076d 27       		.byte	0x27
 2196 076e 1C       		.uleb128 0x1c
 2197 076f A8030000 		.4byte	.LASF79
 2198 0773 04       		.byte	0x4
 2199 0774 7F       		.byte	0x7f
 2200 0775 7F070000 		.4byte	0x77f
 2201 0779 1D       		.uleb128 0x1d
 2202 077a 6B000000 		.4byte	0x6b
 2203 077e 00       		.byte	0
 2204 077f 1B       		.uleb128 0x1b
 2205 0780 02030000 		.4byte	.LASF74
 2206 0784 03       		.byte	0x3
 2207 0785 28       		.byte	0x28
 2208 0786 1E       		.uleb128 0x1e
 2209 0787 80020000 		.4byte	.LASF80
 2210 078b 04       		.byte	0x4
ARM GAS  C:\Users\Diego\AppData\Local\Temp\ccmnqHZ6.s 			page 68


 2211 078c 89       		.byte	0x89
 2212 078d D7000000 		.4byte	0xd7
 2213 0791 A0070000 		.4byte	0x7a0
 2214 0795 1D       		.uleb128 0x1d
 2215 0796 6B000000 		.4byte	0x6b
 2216 079a 1D       		.uleb128 0x1d
 2217 079b D7000000 		.4byte	0xd7
 2218 079f 00       		.byte	0
 2219 07a0 1F       		.uleb128 0x1f
 2220 07a1 91030000 		.4byte	.LASF81
 2221 07a5 04       		.byte	0x4
 2222 07a6 8C       		.byte	0x8c
 2223 07a7 1D       		.uleb128 0x1d
 2224 07a8 6B000000 		.4byte	0x6b
 2225 07ac 1D       		.uleb128 0x1d
 2226 07ad 6B000000 		.4byte	0x6b
 2227 07b1 00       		.byte	0
 2228 07b2 00       		.byte	0
 2229              		.section	.debug_abbrev,"",%progbits
 2230              	.Ldebug_abbrev0:
 2231 0000 01       		.uleb128 0x1
 2232 0001 11       		.uleb128 0x11
 2233 0002 01       		.byte	0x1
 2234 0003 25       		.uleb128 0x25
 2235 0004 0E       		.uleb128 0xe
 2236 0005 13       		.uleb128 0x13
 2237 0006 0B       		.uleb128 0xb
 2238 0007 03       		.uleb128 0x3
 2239 0008 0E       		.uleb128 0xe
 2240 0009 1B       		.uleb128 0x1b
 2241 000a 0E       		.uleb128 0xe
 2242 000b 55       		.uleb128 0x55
 2243 000c 17       		.uleb128 0x17
 2244 000d 11       		.uleb128 0x11
 2245 000e 01       		.uleb128 0x1
 2246 000f 10       		.uleb128 0x10
 2247 0010 17       		.uleb128 0x17
 2248 0011 00       		.byte	0
 2249 0012 00       		.byte	0
 2250 0013 02       		.uleb128 0x2
 2251 0014 24       		.uleb128 0x24
 2252 0015 00       		.byte	0
 2253 0016 0B       		.uleb128 0xb
 2254 0017 0B       		.uleb128 0xb
 2255 0018 3E       		.uleb128 0x3e
 2256 0019 0B       		.uleb128 0xb
 2257 001a 03       		.uleb128 0x3
 2258 001b 0E       		.uleb128 0xe
 2259 001c 00       		.byte	0
 2260 001d 00       		.byte	0
 2261 001e 03       		.uleb128 0x3
 2262 001f 24       		.uleb128 0x24
 2263 0020 00       		.byte	0
 2264 0021 0B       		.uleb128 0xb
 2265 0022 0B       		.uleb128 0xb
 2266 0023 3E       		.uleb128 0x3e
 2267 0024 0B       		.uleb128 0xb
ARM GAS  C:\Users\Diego\AppData\Local\Temp\ccmnqHZ6.s 			page 69


 2268 0025 03       		.uleb128 0x3
 2269 0026 08       		.uleb128 0x8
 2270 0027 00       		.byte	0
 2271 0028 00       		.byte	0
 2272 0029 04       		.uleb128 0x4
 2273 002a 16       		.uleb128 0x16
 2274 002b 00       		.byte	0
 2275 002c 03       		.uleb128 0x3
 2276 002d 0E       		.uleb128 0xe
 2277 002e 3A       		.uleb128 0x3a
 2278 002f 0B       		.uleb128 0xb
 2279 0030 3B       		.uleb128 0x3b
 2280 0031 05       		.uleb128 0x5
 2281 0032 49       		.uleb128 0x49
 2282 0033 13       		.uleb128 0x13
 2283 0034 00       		.byte	0
 2284 0035 00       		.byte	0
 2285 0036 05       		.uleb128 0x5
 2286 0037 35       		.uleb128 0x35
 2287 0038 00       		.byte	0
 2288 0039 49       		.uleb128 0x49
 2289 003a 13       		.uleb128 0x13
 2290 003b 00       		.byte	0
 2291 003c 00       		.byte	0
 2292 003d 06       		.uleb128 0x6
 2293 003e 0F       		.uleb128 0xf
 2294 003f 00       		.byte	0
 2295 0040 0B       		.uleb128 0xb
 2296 0041 0B       		.uleb128 0xb
 2297 0042 49       		.uleb128 0x49
 2298 0043 13       		.uleb128 0x13
 2299 0044 00       		.byte	0
 2300 0045 00       		.byte	0
 2301 0046 07       		.uleb128 0x7
 2302 0047 15       		.uleb128 0x15
 2303 0048 00       		.byte	0
 2304 0049 27       		.uleb128 0x27
 2305 004a 19       		.uleb128 0x19
 2306 004b 00       		.byte	0
 2307 004c 00       		.byte	0
 2308 004d 08       		.uleb128 0x8
 2309 004e 2E       		.uleb128 0x2e
 2310 004f 01       		.byte	0x1
 2311 0050 3F       		.uleb128 0x3f
 2312 0051 19       		.uleb128 0x19
 2313 0052 03       		.uleb128 0x3
 2314 0053 0E       		.uleb128 0xe
 2315 0054 3A       		.uleb128 0x3a
 2316 0055 0B       		.uleb128 0xb
 2317 0056 3B       		.uleb128 0x3b
 2318 0057 0B       		.uleb128 0xb
 2319 0058 27       		.uleb128 0x27
 2320 0059 19       		.uleb128 0x19
 2321 005a 11       		.uleb128 0x11
 2322 005b 01       		.uleb128 0x1
 2323 005c 12       		.uleb128 0x12
 2324 005d 06       		.uleb128 0x6
ARM GAS  C:\Users\Diego\AppData\Local\Temp\ccmnqHZ6.s 			page 70


 2325 005e 40       		.uleb128 0x40
 2326 005f 18       		.uleb128 0x18
 2327 0060 9742     		.uleb128 0x2117
 2328 0062 19       		.uleb128 0x19
 2329 0063 01       		.uleb128 0x1
 2330 0064 13       		.uleb128 0x13
 2331 0065 00       		.byte	0
 2332 0066 00       		.byte	0
 2333 0067 09       		.uleb128 0x9
 2334 0068 34       		.uleb128 0x34
 2335 0069 00       		.byte	0
 2336 006a 03       		.uleb128 0x3
 2337 006b 0E       		.uleb128 0xe
 2338 006c 3A       		.uleb128 0x3a
 2339 006d 0B       		.uleb128 0xb
 2340 006e 3B       		.uleb128 0x3b
 2341 006f 0B       		.uleb128 0xb
 2342 0070 49       		.uleb128 0x49
 2343 0071 13       		.uleb128 0x13
 2344 0072 02       		.uleb128 0x2
 2345 0073 17       		.uleb128 0x17
 2346 0074 00       		.byte	0
 2347 0075 00       		.byte	0
 2348 0076 0A       		.uleb128 0xa
 2349 0077 898201   		.uleb128 0x4109
 2350 007a 00       		.byte	0
 2351 007b 11       		.uleb128 0x11
 2352 007c 01       		.uleb128 0x1
 2353 007d 31       		.uleb128 0x31
 2354 007e 13       		.uleb128 0x13
 2355 007f 00       		.byte	0
 2356 0080 00       		.byte	0
 2357 0081 0B       		.uleb128 0xb
 2358 0082 898201   		.uleb128 0x4109
 2359 0085 01       		.byte	0x1
 2360 0086 11       		.uleb128 0x11
 2361 0087 01       		.uleb128 0x1
 2362 0088 31       		.uleb128 0x31
 2363 0089 13       		.uleb128 0x13
 2364 008a 00       		.byte	0
 2365 008b 00       		.byte	0
 2366 008c 0C       		.uleb128 0xc
 2367 008d 8A8201   		.uleb128 0x410a
 2368 0090 00       		.byte	0
 2369 0091 02       		.uleb128 0x2
 2370 0092 18       		.uleb128 0x18
 2371 0093 9142     		.uleb128 0x2111
 2372 0095 18       		.uleb128 0x18
 2373 0096 00       		.byte	0
 2374 0097 00       		.byte	0
 2375 0098 0D       		.uleb128 0xd
 2376 0099 2E       		.uleb128 0x2e
 2377 009a 00       		.byte	0
 2378 009b 3F       		.uleb128 0x3f
 2379 009c 19       		.uleb128 0x19
 2380 009d 03       		.uleb128 0x3
 2381 009e 0E       		.uleb128 0xe
ARM GAS  C:\Users\Diego\AppData\Local\Temp\ccmnqHZ6.s 			page 71


 2382 009f 3A       		.uleb128 0x3a
 2383 00a0 0B       		.uleb128 0xb
 2384 00a1 3B       		.uleb128 0x3b
 2385 00a2 05       		.uleb128 0x5
 2386 00a3 27       		.uleb128 0x27
 2387 00a4 19       		.uleb128 0x19
 2388 00a5 49       		.uleb128 0x49
 2389 00a6 13       		.uleb128 0x13
 2390 00a7 11       		.uleb128 0x11
 2391 00a8 01       		.uleb128 0x1
 2392 00a9 12       		.uleb128 0x12
 2393 00aa 06       		.uleb128 0x6
 2394 00ab 40       		.uleb128 0x40
 2395 00ac 18       		.uleb128 0x18
 2396 00ad 9742     		.uleb128 0x2117
 2397 00af 19       		.uleb128 0x19
 2398 00b0 00       		.byte	0
 2399 00b1 00       		.byte	0
 2400 00b2 0E       		.uleb128 0xe
 2401 00b3 2E       		.uleb128 0x2e
 2402 00b4 01       		.byte	0x1
 2403 00b5 3F       		.uleb128 0x3f
 2404 00b6 19       		.uleb128 0x19
 2405 00b7 03       		.uleb128 0x3
 2406 00b8 0E       		.uleb128 0xe
 2407 00b9 3A       		.uleb128 0x3a
 2408 00ba 0B       		.uleb128 0xb
 2409 00bb 3B       		.uleb128 0x3b
 2410 00bc 05       		.uleb128 0x5
 2411 00bd 27       		.uleb128 0x27
 2412 00be 19       		.uleb128 0x19
 2413 00bf 11       		.uleb128 0x11
 2414 00c0 01       		.uleb128 0x1
 2415 00c1 12       		.uleb128 0x12
 2416 00c2 06       		.uleb128 0x6
 2417 00c3 40       		.uleb128 0x40
 2418 00c4 18       		.uleb128 0x18
 2419 00c5 9742     		.uleb128 0x2117
 2420 00c7 19       		.uleb128 0x19
 2421 00c8 01       		.uleb128 0x1
 2422 00c9 13       		.uleb128 0x13
 2423 00ca 00       		.byte	0
 2424 00cb 00       		.byte	0
 2425 00cc 0F       		.uleb128 0xf
 2426 00cd 05       		.uleb128 0x5
 2427 00ce 00       		.byte	0
 2428 00cf 03       		.uleb128 0x3
 2429 00d0 0E       		.uleb128 0xe
 2430 00d1 3A       		.uleb128 0x3a
 2431 00d2 0B       		.uleb128 0xb
 2432 00d3 3B       		.uleb128 0x3b
 2433 00d4 05       		.uleb128 0x5
 2434 00d5 49       		.uleb128 0x49
 2435 00d6 13       		.uleb128 0x13
 2436 00d7 02       		.uleb128 0x2
 2437 00d8 18       		.uleb128 0x18
 2438 00d9 00       		.byte	0
ARM GAS  C:\Users\Diego\AppData\Local\Temp\ccmnqHZ6.s 			page 72


 2439 00da 00       		.byte	0
 2440 00db 10       		.uleb128 0x10
 2441 00dc 898201   		.uleb128 0x4109
 2442 00df 01       		.byte	0x1
 2443 00e0 11       		.uleb128 0x11
 2444 00e1 01       		.uleb128 0x1
 2445 00e2 31       		.uleb128 0x31
 2446 00e3 13       		.uleb128 0x13
 2447 00e4 01       		.uleb128 0x1
 2448 00e5 13       		.uleb128 0x13
 2449 00e6 00       		.byte	0
 2450 00e7 00       		.byte	0
 2451 00e8 11       		.uleb128 0x11
 2452 00e9 2E       		.uleb128 0x2e
 2453 00ea 01       		.byte	0x1
 2454 00eb 3F       		.uleb128 0x3f
 2455 00ec 19       		.uleb128 0x19
 2456 00ed 03       		.uleb128 0x3
 2457 00ee 0E       		.uleb128 0xe
 2458 00ef 3A       		.uleb128 0x3a
 2459 00f0 0B       		.uleb128 0xb
 2460 00f1 3B       		.uleb128 0x3b
 2461 00f2 05       		.uleb128 0x5
 2462 00f3 27       		.uleb128 0x27
 2463 00f4 19       		.uleb128 0x19
 2464 00f5 49       		.uleb128 0x49
 2465 00f6 13       		.uleb128 0x13
 2466 00f7 11       		.uleb128 0x11
 2467 00f8 01       		.uleb128 0x1
 2468 00f9 12       		.uleb128 0x12
 2469 00fa 06       		.uleb128 0x6
 2470 00fb 40       		.uleb128 0x40
 2471 00fc 18       		.uleb128 0x18
 2472 00fd 9742     		.uleb128 0x2117
 2473 00ff 19       		.uleb128 0x19
 2474 0100 01       		.uleb128 0x1
 2475 0101 13       		.uleb128 0x13
 2476 0102 00       		.byte	0
 2477 0103 00       		.byte	0
 2478 0104 12       		.uleb128 0x12
 2479 0105 34       		.uleb128 0x34
 2480 0106 00       		.byte	0
 2481 0107 03       		.uleb128 0x3
 2482 0108 0E       		.uleb128 0xe
 2483 0109 3A       		.uleb128 0x3a
 2484 010a 0B       		.uleb128 0xb
 2485 010b 3B       		.uleb128 0x3b
 2486 010c 05       		.uleb128 0x5
 2487 010d 49       		.uleb128 0x49
 2488 010e 13       		.uleb128 0x13
 2489 010f 02       		.uleb128 0x2
 2490 0110 17       		.uleb128 0x17
 2491 0111 00       		.byte	0
 2492 0112 00       		.byte	0
 2493 0113 13       		.uleb128 0x13
 2494 0114 34       		.uleb128 0x34
 2495 0115 00       		.byte	0
ARM GAS  C:\Users\Diego\AppData\Local\Temp\ccmnqHZ6.s 			page 73


 2496 0116 03       		.uleb128 0x3
 2497 0117 0E       		.uleb128 0xe
 2498 0118 3A       		.uleb128 0x3a
 2499 0119 0B       		.uleb128 0xb
 2500 011a 3B       		.uleb128 0x3b
 2501 011b 05       		.uleb128 0x5
 2502 011c 49       		.uleb128 0x49
 2503 011d 13       		.uleb128 0x13
 2504 011e 02       		.uleb128 0x2
 2505 011f 18       		.uleb128 0x18
 2506 0120 00       		.byte	0
 2507 0121 00       		.byte	0
 2508 0122 14       		.uleb128 0x14
 2509 0123 05       		.uleb128 0x5
 2510 0124 00       		.byte	0
 2511 0125 03       		.uleb128 0x3
 2512 0126 0E       		.uleb128 0xe
 2513 0127 3A       		.uleb128 0x3a
 2514 0128 0B       		.uleb128 0xb
 2515 0129 3B       		.uleb128 0x3b
 2516 012a 05       		.uleb128 0x5
 2517 012b 49       		.uleb128 0x49
 2518 012c 13       		.uleb128 0x13
 2519 012d 02       		.uleb128 0x2
 2520 012e 17       		.uleb128 0x17
 2521 012f 00       		.byte	0
 2522 0130 00       		.byte	0
 2523 0131 15       		.uleb128 0x15
 2524 0132 26       		.uleb128 0x26
 2525 0133 00       		.byte	0
 2526 0134 49       		.uleb128 0x49
 2527 0135 13       		.uleb128 0x13
 2528 0136 00       		.byte	0
 2529 0137 00       		.byte	0
 2530 0138 16       		.uleb128 0x16
 2531 0139 0B       		.uleb128 0xb
 2532 013a 01       		.byte	0x1
 2533 013b 11       		.uleb128 0x11
 2534 013c 01       		.uleb128 0x1
 2535 013d 12       		.uleb128 0x12
 2536 013e 06       		.uleb128 0x6
 2537 013f 00       		.byte	0
 2538 0140 00       		.byte	0
 2539 0141 17       		.uleb128 0x17
 2540 0142 34       		.uleb128 0x34
 2541 0143 00       		.byte	0
 2542 0144 03       		.uleb128 0x3
 2543 0145 0E       		.uleb128 0xe
 2544 0146 3A       		.uleb128 0x3a
 2545 0147 0B       		.uleb128 0xb
 2546 0148 3B       		.uleb128 0x3b
 2547 0149 0B       		.uleb128 0xb
 2548 014a 49       		.uleb128 0x49
 2549 014b 13       		.uleb128 0x13
 2550 014c 3F       		.uleb128 0x3f
 2551 014d 19       		.uleb128 0x19
 2552 014e 02       		.uleb128 0x2
ARM GAS  C:\Users\Diego\AppData\Local\Temp\ccmnqHZ6.s 			page 74


 2553 014f 18       		.uleb128 0x18
 2554 0150 00       		.byte	0
 2555 0151 00       		.byte	0
 2556 0152 18       		.uleb128 0x18
 2557 0153 01       		.uleb128 0x1
 2558 0154 01       		.byte	0x1
 2559 0155 49       		.uleb128 0x49
 2560 0156 13       		.uleb128 0x13
 2561 0157 01       		.uleb128 0x1
 2562 0158 13       		.uleb128 0x13
 2563 0159 00       		.byte	0
 2564 015a 00       		.byte	0
 2565 015b 19       		.uleb128 0x19
 2566 015c 21       		.uleb128 0x21
 2567 015d 00       		.byte	0
 2568 015e 49       		.uleb128 0x49
 2569 015f 13       		.uleb128 0x13
 2570 0160 2F       		.uleb128 0x2f
 2571 0161 05       		.uleb128 0x5
 2572 0162 00       		.byte	0
 2573 0163 00       		.byte	0
 2574 0164 1A       		.uleb128 0x1a
 2575 0165 2E       		.uleb128 0x2e
 2576 0166 00       		.byte	0
 2577 0167 3F       		.uleb128 0x3f
 2578 0168 19       		.uleb128 0x19
 2579 0169 03       		.uleb128 0x3
 2580 016a 0E       		.uleb128 0xe
 2581 016b 3A       		.uleb128 0x3a
 2582 016c 0B       		.uleb128 0xb
 2583 016d 3B       		.uleb128 0x3b
 2584 016e 0B       		.uleb128 0xb
 2585 016f 27       		.uleb128 0x27
 2586 0170 19       		.uleb128 0x19
 2587 0171 49       		.uleb128 0x49
 2588 0172 13       		.uleb128 0x13
 2589 0173 3C       		.uleb128 0x3c
 2590 0174 19       		.uleb128 0x19
 2591 0175 00       		.byte	0
 2592 0176 00       		.byte	0
 2593 0177 1B       		.uleb128 0x1b
 2594 0178 2E       		.uleb128 0x2e
 2595 0179 00       		.byte	0
 2596 017a 3F       		.uleb128 0x3f
 2597 017b 19       		.uleb128 0x19
 2598 017c 03       		.uleb128 0x3
 2599 017d 0E       		.uleb128 0xe
 2600 017e 3A       		.uleb128 0x3a
 2601 017f 0B       		.uleb128 0xb
 2602 0180 3B       		.uleb128 0x3b
 2603 0181 0B       		.uleb128 0xb
 2604 0182 27       		.uleb128 0x27
 2605 0183 19       		.uleb128 0x19
 2606 0184 3C       		.uleb128 0x3c
 2607 0185 19       		.uleb128 0x19
 2608 0186 00       		.byte	0
 2609 0187 00       		.byte	0
ARM GAS  C:\Users\Diego\AppData\Local\Temp\ccmnqHZ6.s 			page 75


 2610 0188 1C       		.uleb128 0x1c
 2611 0189 2E       		.uleb128 0x2e
 2612 018a 01       		.byte	0x1
 2613 018b 3F       		.uleb128 0x3f
 2614 018c 19       		.uleb128 0x19
 2615 018d 03       		.uleb128 0x3
 2616 018e 0E       		.uleb128 0xe
 2617 018f 3A       		.uleb128 0x3a
 2618 0190 0B       		.uleb128 0xb
 2619 0191 3B       		.uleb128 0x3b
 2620 0192 0B       		.uleb128 0xb
 2621 0193 27       		.uleb128 0x27
 2622 0194 19       		.uleb128 0x19
 2623 0195 3C       		.uleb128 0x3c
 2624 0196 19       		.uleb128 0x19
 2625 0197 01       		.uleb128 0x1
 2626 0198 13       		.uleb128 0x13
 2627 0199 00       		.byte	0
 2628 019a 00       		.byte	0
 2629 019b 1D       		.uleb128 0x1d
 2630 019c 05       		.uleb128 0x5
 2631 019d 00       		.byte	0
 2632 019e 49       		.uleb128 0x49
 2633 019f 13       		.uleb128 0x13
 2634 01a0 00       		.byte	0
 2635 01a1 00       		.byte	0
 2636 01a2 1E       		.uleb128 0x1e
 2637 01a3 2E       		.uleb128 0x2e
 2638 01a4 01       		.byte	0x1
 2639 01a5 3F       		.uleb128 0x3f
 2640 01a6 19       		.uleb128 0x19
 2641 01a7 03       		.uleb128 0x3
 2642 01a8 0E       		.uleb128 0xe
 2643 01a9 3A       		.uleb128 0x3a
 2644 01aa 0B       		.uleb128 0xb
 2645 01ab 3B       		.uleb128 0x3b
 2646 01ac 0B       		.uleb128 0xb
 2647 01ad 27       		.uleb128 0x27
 2648 01ae 19       		.uleb128 0x19
 2649 01af 49       		.uleb128 0x49
 2650 01b0 13       		.uleb128 0x13
 2651 01b1 3C       		.uleb128 0x3c
 2652 01b2 19       		.uleb128 0x19
 2653 01b3 01       		.uleb128 0x1
 2654 01b4 13       		.uleb128 0x13
 2655 01b5 00       		.byte	0
 2656 01b6 00       		.byte	0
 2657 01b7 1F       		.uleb128 0x1f
 2658 01b8 2E       		.uleb128 0x2e
 2659 01b9 01       		.byte	0x1
 2660 01ba 3F       		.uleb128 0x3f
 2661 01bb 19       		.uleb128 0x19
 2662 01bc 03       		.uleb128 0x3
 2663 01bd 0E       		.uleb128 0xe
 2664 01be 3A       		.uleb128 0x3a
 2665 01bf 0B       		.uleb128 0xb
 2666 01c0 3B       		.uleb128 0x3b
ARM GAS  C:\Users\Diego\AppData\Local\Temp\ccmnqHZ6.s 			page 76


 2667 01c1 0B       		.uleb128 0xb
 2668 01c2 27       		.uleb128 0x27
 2669 01c3 19       		.uleb128 0x19
 2670 01c4 3C       		.uleb128 0x3c
 2671 01c5 19       		.uleb128 0x19
 2672 01c6 00       		.byte	0
 2673 01c7 00       		.byte	0
 2674 01c8 00       		.byte	0
 2675              		.section	.debug_loc,"",%progbits
 2676              	.Ldebug_loc0:
 2677              	.LLST0:
 2678 0000 08000000 		.4byte	.LVL1
 2679 0004 38000000 		.4byte	.LVL4
 2680 0008 0100     		.2byte	0x1
 2681 000a 54       		.byte	0x54
 2682 000b 00000000 		.4byte	0
 2683 000f 00000000 		.4byte	0
 2684              	.LLST1:
 2685 0013 08000000 		.4byte	.LVL6
 2686 0017 38000000 		.4byte	.LVL9
 2687 001b 0100     		.2byte	0x1
 2688 001d 54       		.byte	0x54
 2689 001e 00000000 		.4byte	0
 2690 0022 00000000 		.4byte	0
 2691              	.LLST2:
 2692 0026 22000000 		.4byte	.LVL20
 2693 002a 42000000 		.4byte	.LVL26
 2694 002e 0100     		.2byte	0x1
 2695 0030 50       		.byte	0x50
 2696 0031 48000000 		.4byte	.LVL28
 2697 0035 64000000 		.4byte	.LFE7
 2698 0039 0100     		.2byte	0x1
 2699 003b 50       		.byte	0x50
 2700 003c 00000000 		.4byte	0
 2701 0040 00000000 		.4byte	0
 2702              	.LLST3:
 2703 0044 0C000000 		.4byte	.LVL18
 2704 0048 24000000 		.4byte	.LVL21
 2705 004c 0100     		.2byte	0x1
 2706 004e 53       		.byte	0x53
 2707 004f 24000000 		.4byte	.LVL21
 2708 0053 26000000 		.4byte	.LVL22
 2709 0057 0300     		.2byte	0x3
 2710 0059 73       		.byte	0x73
 2711 005a 7F       		.sleb128 -1
 2712 005b 9F       		.byte	0x9f
 2713 005c 26000000 		.4byte	.LVL22
 2714 0060 34000000 		.4byte	.LVL24
 2715 0064 0100     		.2byte	0x1
 2716 0066 53       		.byte	0x53
 2717 0067 34000000 		.4byte	.LVL24
 2718 006b 40000000 		.4byte	.LVL25
 2719 006f 0500     		.2byte	0x5
 2720 0071 03       		.byte	0x3
 2721 0072 00000000 		.4byte	RF_Connection_rxBufferRead
 2722 0076 42000000 		.4byte	.LVL26
 2723 007a 44000000 		.4byte	.LVL27
ARM GAS  C:\Users\Diego\AppData\Local\Temp\ccmnqHZ6.s 			page 77


 2724 007e 0100     		.2byte	0x1
 2725 0080 53       		.byte	0x53
 2726 0081 00000000 		.4byte	0
 2727 0085 00000000 		.4byte	0
 2728              	.LLST4:
 2729 0089 00000000 		.4byte	.LVL31
 2730 008d 22000000 		.4byte	.LVL34
 2731 0091 0200     		.2byte	0x2
 2732 0093 30       		.byte	0x30
 2733 0094 9F       		.byte	0x9f
 2734 0095 22000000 		.4byte	.LVL34
 2735 0099 42000000 		.4byte	.LVL40
 2736 009d 0100     		.2byte	0x1
 2737 009f 50       		.byte	0x50
 2738 00a0 42000000 		.4byte	.LVL40
 2739 00a4 54000000 		.4byte	.LVL43
 2740 00a8 0200     		.2byte	0x2
 2741 00aa 30       		.byte	0x30
 2742 00ab 9F       		.byte	0x9f
 2743 00ac 54000000 		.4byte	.LVL43
 2744 00b0 5C000000 		.4byte	.LVL44
 2745 00b4 0100     		.2byte	0x1
 2746 00b6 50       		.byte	0x50
 2747 00b7 5C000000 		.4byte	.LVL44
 2748 00bb 60000000 		.4byte	.LVL45
 2749 00bf 0200     		.2byte	0x2
 2750 00c1 30       		.byte	0x30
 2751 00c2 9F       		.byte	0x9f
 2752 00c3 60000000 		.4byte	.LVL45
 2753 00c7 84000000 		.4byte	.LFE9
 2754 00cb 0100     		.2byte	0x1
 2755 00cd 50       		.byte	0x50
 2756 00ce 00000000 		.4byte	0
 2757 00d2 00000000 		.4byte	0
 2758              	.LLST5:
 2759 00d6 48000000 		.4byte	.LVL42
 2760 00da 62000000 		.4byte	.LVL46
 2761 00de 0100     		.2byte	0x1
 2762 00e0 53       		.byte	0x53
 2763 00e1 00000000 		.4byte	0
 2764 00e5 00000000 		.4byte	0
 2765              	.LLST6:
 2766 00e9 0C000000 		.4byte	.LVL32
 2767 00ed 24000000 		.4byte	.LVL35
 2768 00f1 0100     		.2byte	0x1
 2769 00f3 53       		.byte	0x53
 2770 00f4 24000000 		.4byte	.LVL35
 2771 00f8 26000000 		.4byte	.LVL36
 2772 00fc 0300     		.2byte	0x3
 2773 00fe 73       		.byte	0x73
 2774 00ff 7F       		.sleb128 -1
 2775 0100 9F       		.byte	0x9f
 2776 0101 26000000 		.4byte	.LVL36
 2777 0105 34000000 		.4byte	.LVL38
 2778 0109 0100     		.2byte	0x1
 2779 010b 53       		.byte	0x53
 2780 010c 34000000 		.4byte	.LVL38
ARM GAS  C:\Users\Diego\AppData\Local\Temp\ccmnqHZ6.s 			page 78


 2781 0110 40000000 		.4byte	.LVL39
 2782 0114 0500     		.2byte	0x5
 2783 0116 03       		.byte	0x3
 2784 0117 00000000 		.4byte	RF_Connection_rxBufferRead
 2785 011b 42000000 		.4byte	.LVL40
 2786 011f 44000000 		.4byte	.LVL41
 2787 0123 0100     		.2byte	0x1
 2788 0125 53       		.byte	0x53
 2789 0126 00000000 		.4byte	0
 2790 012a 00000000 		.4byte	0
 2791              	.LLST7:
 2792 012e 0C000000 		.4byte	.LVL47
 2793 0132 16000000 		.4byte	.LVL48
 2794 0136 0100     		.2byte	0x1
 2795 0138 54       		.byte	0x54
 2796 0139 00000000 		.4byte	0
 2797 013d 00000000 		.4byte	0
 2798              	.LLST8:
 2799 0141 3C000000 		.4byte	.LVL50
 2800 0145 3E000000 		.4byte	.LVL51
 2801 0149 0100     		.2byte	0x1
 2802 014b 50       		.byte	0x50
 2803 014c 50000000 		.4byte	.LVL52
 2804 0150 52000000 		.4byte	.LVL53
 2805 0154 0100     		.2byte	0x1
 2806 0156 50       		.byte	0x50
 2807 0157 54000000 		.4byte	.LVL54
 2808 015b 68000000 		.4byte	.LFE11
 2809 015f 0100     		.2byte	0x1
 2810 0161 50       		.byte	0x50
 2811 0162 00000000 		.4byte	0
 2812 0166 00000000 		.4byte	0
 2813              	.LLST9:
 2814 016a 06000000 		.4byte	.LVL55
 2815 016e 1B000000 		.4byte	.LVL56-1
 2816 0172 0100     		.2byte	0x1
 2817 0174 50       		.byte	0x50
 2818 0175 00000000 		.4byte	0
 2819 0179 00000000 		.4byte	0
 2820              	.LLST10:
 2821 017d 00000000 		.4byte	.LVL63
 2822 0181 0A000000 		.4byte	.LVL65
 2823 0185 0100     		.2byte	0x1
 2824 0187 50       		.byte	0x50
 2825 0188 0A000000 		.4byte	.LVL65
 2826 018c 14000000 		.4byte	.LVL69
 2827 0190 0100     		.2byte	0x1
 2828 0192 55       		.byte	0x55
 2829 0193 14000000 		.4byte	.LVL69
 2830 0197 18000000 		.4byte	.LVL70
 2831 019b 0100     		.2byte	0x1
 2832 019d 50       		.byte	0x50
 2833 019e 18000000 		.4byte	.LVL70
 2834 01a2 20000000 		.4byte	.LVL71
 2835 01a6 0100     		.2byte	0x1
 2836 01a8 55       		.byte	0x55
 2837 01a9 20000000 		.4byte	.LVL71
ARM GAS  C:\Users\Diego\AppData\Local\Temp\ccmnqHZ6.s 			page 79


 2838 01ad 24000000 		.4byte	.LFE20
 2839 01b1 0400     		.2byte	0x4
 2840 01b3 F3       		.byte	0xf3
 2841 01b4 01       		.uleb128 0x1
 2842 01b5 50       		.byte	0x50
 2843 01b6 9F       		.byte	0x9f
 2844 01b7 00000000 		.4byte	0
 2845 01bb 00000000 		.4byte	0
 2846              	.LLST11:
 2847 01bf 02000000 		.4byte	.LVL64
 2848 01c3 0A000000 		.4byte	.LVL65
 2849 01c7 0200     		.2byte	0x2
 2850 01c9 30       		.byte	0x30
 2851 01ca 9F       		.byte	0x9f
 2852 01cb 0A000000 		.4byte	.LVL65
 2853 01cf 10000000 		.4byte	.LVL67
 2854 01d3 0100     		.2byte	0x1
 2855 01d5 54       		.byte	0x54
 2856 01d6 12000000 		.4byte	.LVL68
 2857 01da 14000000 		.4byte	.LVL69
 2858 01de 0100     		.2byte	0x1
 2859 01e0 54       		.byte	0x54
 2860 01e1 14000000 		.4byte	.LVL69
 2861 01e5 18000000 		.4byte	.LVL70
 2862 01e9 0200     		.2byte	0x2
 2863 01eb 30       		.byte	0x30
 2864 01ec 9F       		.byte	0x9f
 2865 01ed 18000000 		.4byte	.LVL70
 2866 01f1 20000000 		.4byte	.LVL71
 2867 01f5 0100     		.2byte	0x1
 2868 01f7 54       		.byte	0x54
 2869 01f8 00000000 		.4byte	0
 2870 01fc 00000000 		.4byte	0
 2871              	.LLST12:
 2872 0200 00000000 		.4byte	.LVL72
 2873 0204 08000000 		.4byte	.LVL73
 2874 0208 0100     		.2byte	0x1
 2875 020a 50       		.byte	0x50
 2876 020b 08000000 		.4byte	.LVL73
 2877 020f 14000000 		.4byte	.LVL77
 2878 0213 0100     		.2byte	0x1
 2879 0215 56       		.byte	0x56
 2880 0216 14000000 		.4byte	.LVL77
 2881 021a 1C000000 		.4byte	.LVL78
 2882 021e 0100     		.2byte	0x1
 2883 0220 50       		.byte	0x50
 2884 0221 1C000000 		.4byte	.LVL78
 2885 0225 22000000 		.4byte	.LVL79
 2886 0229 0100     		.2byte	0x1
 2887 022b 56       		.byte	0x56
 2888 022c 22000000 		.4byte	.LVL79
 2889 0230 28000000 		.4byte	.LFE21
 2890 0234 0400     		.2byte	0x4
 2891 0236 F3       		.byte	0xf3
 2892 0237 01       		.uleb128 0x1
 2893 0238 50       		.byte	0x50
 2894 0239 9F       		.byte	0x9f
ARM GAS  C:\Users\Diego\AppData\Local\Temp\ccmnqHZ6.s 			page 80


 2895 023a 00000000 		.4byte	0
 2896 023e 00000000 		.4byte	0
 2897              	.LLST13:
 2898 0242 00000000 		.4byte	.LVL72
 2899 0246 08000000 		.4byte	.LVL73
 2900 024a 0100     		.2byte	0x1
 2901 024c 51       		.byte	0x51
 2902 024d 08000000 		.4byte	.LVL73
 2903 0251 14000000 		.4byte	.LVL77
 2904 0255 0400     		.2byte	0x4
 2905 0257 F3       		.byte	0xf3
 2906 0258 01       		.uleb128 0x1
 2907 0259 51       		.byte	0x51
 2908 025a 9F       		.byte	0x9f
 2909 025b 14000000 		.4byte	.LVL77
 2910 025f 1C000000 		.4byte	.LVL78
 2911 0263 0100     		.2byte	0x1
 2912 0265 51       		.byte	0x51
 2913 0266 1C000000 		.4byte	.LVL78
 2914 026a 28000000 		.4byte	.LFE21
 2915 026e 0400     		.2byte	0x4
 2916 0270 F3       		.byte	0xf3
 2917 0271 01       		.uleb128 0x1
 2918 0272 51       		.byte	0x51
 2919 0273 9F       		.byte	0x9f
 2920 0274 00000000 		.4byte	0
 2921 0278 00000000 		.4byte	0
 2922              	.LLST14:
 2923 027c 00000000 		.4byte	.LVL72
 2924 0280 08000000 		.4byte	.LVL73
 2925 0284 0200     		.2byte	0x2
 2926 0286 30       		.byte	0x30
 2927 0287 9F       		.byte	0x9f
 2928 0288 08000000 		.4byte	.LVL73
 2929 028c 10000000 		.4byte	.LVL75
 2930 0290 0100     		.2byte	0x1
 2931 0292 54       		.byte	0x54
 2932 0293 12000000 		.4byte	.LVL76
 2933 0297 14000000 		.4byte	.LVL77
 2934 029b 0100     		.2byte	0x1
 2935 029d 54       		.byte	0x54
 2936 029e 14000000 		.4byte	.LVL77
 2937 02a2 1C000000 		.4byte	.LVL78
 2938 02a6 0200     		.2byte	0x2
 2939 02a8 30       		.byte	0x30
 2940 02a9 9F       		.byte	0x9f
 2941 02aa 1C000000 		.4byte	.LVL78
 2942 02ae 22000000 		.4byte	.LVL79
 2943 02b2 0100     		.2byte	0x1
 2944 02b4 54       		.byte	0x54
 2945 02b5 00000000 		.4byte	0
 2946 02b9 00000000 		.4byte	0
 2947              	.LLST15:
 2948 02bd 00000000 		.4byte	.LVL80
 2949 02c1 0B000000 		.4byte	.LVL81-1
 2950 02c5 0100     		.2byte	0x1
 2951 02c7 50       		.byte	0x50
ARM GAS  C:\Users\Diego\AppData\Local\Temp\ccmnqHZ6.s 			page 81


 2952 02c8 0B000000 		.4byte	.LVL81-1
 2953 02cc 20000000 		.4byte	.LFE22
 2954 02d0 0400     		.2byte	0x4
 2955 02d2 F3       		.byte	0xf3
 2956 02d3 01       		.uleb128 0x1
 2957 02d4 50       		.byte	0x50
 2958 02d5 9F       		.byte	0x9f
 2959 02d6 00000000 		.4byte	0
 2960 02da 00000000 		.4byte	0
 2961              	.LLST16:
 2962 02de 06000000 		.4byte	.LVL84
 2963 02e2 1C000000 		.4byte	.LVL85
 2964 02e6 0100     		.2byte	0x1
 2965 02e8 53       		.byte	0x53
 2966 02e9 1C000000 		.4byte	.LVL85
 2967 02ed 24000000 		.4byte	.LFE23
 2968 02f1 0100     		.2byte	0x1
 2969 02f3 50       		.byte	0x50
 2970 02f4 00000000 		.4byte	0
 2971 02f8 00000000 		.4byte	0
 2972              	.LLST17:
 2973 02fc 06000000 		.4byte	.LVL86
 2974 0300 1B000000 		.4byte	.LVL87-1
 2975 0304 0100     		.2byte	0x1
 2976 0306 50       		.byte	0x50
 2977 0307 00000000 		.4byte	0
 2978 030b 00000000 		.4byte	0
 2979              	.LLST18:
 2980 030f 00000000 		.4byte	.LVL88
 2981 0313 13000000 		.4byte	.LVL89-1
 2982 0317 0100     		.2byte	0x1
 2983 0319 50       		.byte	0x50
 2984 031a 13000000 		.4byte	.LVL89-1
 2985 031e 6A000000 		.4byte	.LVL97
 2986 0322 0400     		.2byte	0x4
 2987 0324 F3       		.byte	0xf3
 2988 0325 01       		.uleb128 0x1
 2989 0326 50       		.byte	0x50
 2990 0327 9F       		.byte	0x9f
 2991 0328 6A000000 		.4byte	.LVL97
 2992 032c 78000000 		.4byte	.LFE25
 2993 0330 0100     		.2byte	0x1
 2994 0332 50       		.byte	0x50
 2995 0333 00000000 		.4byte	0
 2996 0337 00000000 		.4byte	0
 2997              	.LLST19:
 2998 033b 34000000 		.4byte	.LVL91
 2999 033f 3A000000 		.4byte	.LVL92
 3000 0343 0100     		.2byte	0x1
 3001 0345 53       		.byte	0x53
 3002 0346 46000000 		.4byte	.LVL93
 3003 034a 4C000000 		.4byte	.LVL94
 3004 034e 0100     		.2byte	0x1
 3005 0350 53       		.byte	0x53
 3006 0351 00000000 		.4byte	0
 3007 0355 00000000 		.4byte	0
 3008              	.LLST20:
ARM GAS  C:\Users\Diego\AppData\Local\Temp\ccmnqHZ6.s 			page 82


 3009 0359 00000000 		.4byte	.LVL98
 3010 035d 07000000 		.4byte	.LVL99-1
 3011 0361 0100     		.2byte	0x1
 3012 0363 50       		.byte	0x50
 3013 0364 07000000 		.4byte	.LVL99-1
 3014 0368 14000000 		.4byte	.LVL101
 3015 036c 0400     		.2byte	0x4
 3016 036e F3       		.byte	0xf3
 3017 036f 01       		.uleb128 0x1
 3018 0370 50       		.byte	0x50
 3019 0371 9F       		.byte	0x9f
 3020 0372 14000000 		.4byte	.LVL101
 3021 0376 17000000 		.4byte	.LVL102-1
 3022 037a 0100     		.2byte	0x1
 3023 037c 50       		.byte	0x50
 3024 037d 17000000 		.4byte	.LVL102-1
 3025 0381 22000000 		.4byte	.LFE26
 3026 0385 0400     		.2byte	0x4
 3027 0387 F3       		.byte	0xf3
 3028 0388 01       		.uleb128 0x1
 3029 0389 50       		.byte	0x50
 3030 038a 9F       		.byte	0x9f
 3031 038b 00000000 		.4byte	0
 3032 038f 00000000 		.4byte	0
 3033              		.section	.debug_aranges,"",%progbits
 3034 0000 EC000000 		.4byte	0xec
 3035 0004 0200     		.2byte	0x2
 3036 0006 00000000 		.4byte	.Ldebug_info0
 3037 000a 04       		.byte	0x4
 3038 000b 00       		.byte	0
 3039 000c 0000     		.2byte	0
 3040 000e 0000     		.2byte	0
 3041 0010 00000000 		.4byte	.LFB2
 3042 0014 44000000 		.4byte	.LFE2-.LFB2
 3043 0018 00000000 		.4byte	.LFB3
 3044 001c 48000000 		.4byte	.LFE3-.LFB3
 3045 0020 00000000 		.4byte	.LFB4
 3046 0024 0C000000 		.4byte	.LFE4-.LFB4
 3047 0028 00000000 		.4byte	.LFB5
 3048 002c 0C000000 		.4byte	.LFE5-.LFB5
 3049 0030 00000000 		.4byte	.LFB1
 3050 0034 50000000 		.4byte	.LFE1-.LFB1
 3051 0038 00000000 		.4byte	.LFB0
 3052 003c 1C000000 		.4byte	.LFE0-.LFB0
 3053 0040 00000000 		.4byte	.LFB6
 3054 0044 0C000000 		.4byte	.LFE6-.LFB6
 3055 0048 00000000 		.4byte	.LFB7
 3056 004c 64000000 		.4byte	.LFE7-.LFB7
 3057 0050 00000000 		.4byte	.LFB8
 3058 0054 28000000 		.4byte	.LFE8-.LFB8
 3059 0058 00000000 		.4byte	.LFB9
 3060 005c 84000000 		.4byte	.LFE9-.LFB9
 3061 0060 00000000 		.4byte	.LFB10
 3062 0064 2C000000 		.4byte	.LFE10-.LFB10
 3063 0068 00000000 		.4byte	.LFB11
 3064 006c 68000000 		.4byte	.LFE11-.LFB11
 3065 0070 00000000 		.4byte	.LFB12
ARM GAS  C:\Users\Diego\AppData\Local\Temp\ccmnqHZ6.s 			page 83


 3066 0074 44000000 		.4byte	.LFE12-.LFB12
 3067 0078 00000000 		.4byte	.LFB13
 3068 007c 02000000 		.4byte	.LFE13-.LFB13
 3069 0080 00000000 		.4byte	.LFB14
 3070 0084 0C000000 		.4byte	.LFE14-.LFB14
 3071 0088 00000000 		.4byte	.LFB15
 3072 008c 0C000000 		.4byte	.LFE15-.LFB15
 3073 0090 00000000 		.4byte	.LFB16
 3074 0094 0C000000 		.4byte	.LFE16-.LFB16
 3075 0098 00000000 		.4byte	.LFB17
 3076 009c 14000000 		.4byte	.LFE17-.LFB17
 3077 00a0 00000000 		.4byte	.LFB18
 3078 00a4 0C000000 		.4byte	.LFE18-.LFB18
 3079 00a8 00000000 		.4byte	.LFB19
 3080 00ac 18000000 		.4byte	.LFE19-.LFB19
 3081 00b0 00000000 		.4byte	.LFB20
 3082 00b4 24000000 		.4byte	.LFE20-.LFB20
 3083 00b8 00000000 		.4byte	.LFB21
 3084 00bc 28000000 		.4byte	.LFE21-.LFB21
 3085 00c0 00000000 		.4byte	.LFB22
 3086 00c4 20000000 		.4byte	.LFE22-.LFB22
 3087 00c8 00000000 		.4byte	.LFB23
 3088 00cc 24000000 		.4byte	.LFE23-.LFB23
 3089 00d0 00000000 		.4byte	.LFB24
 3090 00d4 24000000 		.4byte	.LFE24-.LFB24
 3091 00d8 00000000 		.4byte	.LFB25
 3092 00dc 78000000 		.4byte	.LFE25-.LFB25
 3093 00e0 00000000 		.4byte	.LFB26
 3094 00e4 22000000 		.4byte	.LFE26-.LFB26
 3095 00e8 00000000 		.4byte	0
 3096 00ec 00000000 		.4byte	0
 3097              		.section	.debug_ranges,"",%progbits
 3098              	.Ldebug_ranges0:
 3099 0000 00000000 		.4byte	.LFB2
 3100 0004 44000000 		.4byte	.LFE2
 3101 0008 00000000 		.4byte	.LFB3
 3102 000c 48000000 		.4byte	.LFE3
 3103 0010 00000000 		.4byte	.LFB4
 3104 0014 0C000000 		.4byte	.LFE4
 3105 0018 00000000 		.4byte	.LFB5
 3106 001c 0C000000 		.4byte	.LFE5
 3107 0020 00000000 		.4byte	.LFB1
 3108 0024 50000000 		.4byte	.LFE1
 3109 0028 00000000 		.4byte	.LFB0
 3110 002c 1C000000 		.4byte	.LFE0
 3111 0030 00000000 		.4byte	.LFB6
 3112 0034 0C000000 		.4byte	.LFE6
 3113 0038 00000000 		.4byte	.LFB7
 3114 003c 64000000 		.4byte	.LFE7
 3115 0040 00000000 		.4byte	.LFB8
 3116 0044 28000000 		.4byte	.LFE8
 3117 0048 00000000 		.4byte	.LFB9
 3118 004c 84000000 		.4byte	.LFE9
 3119 0050 00000000 		.4byte	.LFB10
 3120 0054 2C000000 		.4byte	.LFE10
 3121 0058 00000000 		.4byte	.LFB11
 3122 005c 68000000 		.4byte	.LFE11
ARM GAS  C:\Users\Diego\AppData\Local\Temp\ccmnqHZ6.s 			page 84


 3123 0060 00000000 		.4byte	.LFB12
 3124 0064 44000000 		.4byte	.LFE12
 3125 0068 00000000 		.4byte	.LFB13
 3126 006c 02000000 		.4byte	.LFE13
 3127 0070 00000000 		.4byte	.LFB14
 3128 0074 0C000000 		.4byte	.LFE14
 3129 0078 00000000 		.4byte	.LFB15
 3130 007c 0C000000 		.4byte	.LFE15
 3131 0080 00000000 		.4byte	.LFB16
 3132 0084 0C000000 		.4byte	.LFE16
 3133 0088 00000000 		.4byte	.LFB17
 3134 008c 14000000 		.4byte	.LFE17
 3135 0090 00000000 		.4byte	.LFB18
 3136 0094 0C000000 		.4byte	.LFE18
 3137 0098 00000000 		.4byte	.LFB19
 3138 009c 18000000 		.4byte	.LFE19
 3139 00a0 00000000 		.4byte	.LFB20
 3140 00a4 24000000 		.4byte	.LFE20
 3141 00a8 00000000 		.4byte	.LFB21
 3142 00ac 28000000 		.4byte	.LFE21
 3143 00b0 00000000 		.4byte	.LFB22
 3144 00b4 20000000 		.4byte	.LFE22
 3145 00b8 00000000 		.4byte	.LFB23
 3146 00bc 24000000 		.4byte	.LFE23
 3147 00c0 00000000 		.4byte	.LFB24
 3148 00c4 24000000 		.4byte	.LFE24
 3149 00c8 00000000 		.4byte	.LFB25
 3150 00cc 78000000 		.4byte	.LFE25
 3151 00d0 00000000 		.4byte	.LFB26
 3152 00d4 22000000 		.4byte	.LFE26
 3153 00d8 00000000 		.4byte	0
 3154 00dc 00000000 		.4byte	0
 3155              		.section	.debug_line,"",%progbits
 3156              	.Ldebug_line0:
 3157 0000 1A030000 		.section	.debug_str,"MS",%progbits,1
 3157      02007300 
 3157      00000201 
 3157      FB0E0D00 
 3157      01010101 
 3158              	.LASF10:
 3159 0000 75696E74 		.ascii	"uint16\000"
 3159      313600
 3160              	.LASF35:
 3161 0007 52465F43 		.ascii	"RF_Connection_GetChar\000"
 3161      6F6E6E65 
 3161      6374696F 
 3161      6E5F4765 
 3161      74436861 
 3162              	.LASF49:
 3163 001d 74784461 		.ascii	"txDataByte\000"
 3163      74614279 
 3163      746500
 3164              	.LASF59:
 3165 0028 52465F43 		.ascii	"RF_Connection_GetTxBufferSize\000"
 3165      6F6E6E65 
 3165      6374696F 
 3165      6E5F4765 
ARM GAS  C:\Users\Diego\AppData\Local\Temp\ccmnqHZ6.s 			page 85


 3165      74547842 
 3166              	.LASF33:
 3167 0046 52465F43 		.ascii	"RF_Connection_ReadRxStatus\000"
 3167      6F6E6E65 
 3167      6374696F 
 3167      6E5F5265 
 3167      61645278 
 3168              	.LASF71:
 3169 0061 52465F43 		.ascii	"RF_Connection_rxBufferLoopDetect\000"
 3169      6F6E6E65 
 3169      6374696F 
 3169      6E5F7278 
 3169      42756666 
 3170              	.LASF54:
 3171 0082 73747269 		.ascii	"string\000"
 3171      6E6700
 3172              	.LASF47:
 3173 0089 52465F43 		.ascii	"RF_Connection_SetTxInterruptMode\000"
 3173      6F6E6E65 
 3173      6374696F 
 3173      6E5F5365 
 3173      74547849 
 3174              	.LASF7:
 3175 00aa 6C6F6E67 		.ascii	"long long unsigned int\000"
 3175      206C6F6E 
 3175      6720756E 
 3175      7369676E 
 3175      65642069 
 3176              	.LASF66:
 3177 00c1 52465F43 		.ascii	"RF_Connection_initVar\000"
 3177      6F6E6E65 
 3177      6374696F 
 3177      6E5F696E 
 3177      69745661 
 3178              	.LASF72:
 3179 00d7 52465F43 		.ascii	"RF_Connection_rxBufferOverflow\000"
 3179      6F6E6E65 
 3179      6374696F 
 3179      6E5F7278 
 3179      42756666 
 3180              	.LASF6:
 3181 00f6 6C6F6E67 		.ascii	"long long int\000"
 3181      206C6F6E 
 3181      6720696E 
 3181      7400
 3182              	.LASF0:
 3183 0104 7369676E 		.ascii	"signed char\000"
 3183      65642063 
 3183      68617200 
 3184              	.LASF64:
 3185 0110 74785065 		.ascii	"txPeriod\000"
 3185      72696F64 
 3185      00
 3186              	.LASF41:
 3187 0119 52465F43 		.ascii	"RF_Connection_ClearRxBuffer\000"
 3187      6F6E6E65 
 3187      6374696F 
ARM GAS  C:\Users\Diego\AppData\Local\Temp\ccmnqHZ6.s 			page 86


 3187      6E5F436C 
 3187      65617252 
 3188              	.LASF61:
 3189 0135 52465F43 		.ascii	"RF_Connection_SendBreak\000"
 3189      6F6E6E65 
 3189      6374696F 
 3189      6E5F5365 
 3189      6E644272 
 3190              	.LASF77:
 3191 014d 433A5C55 		.ascii	"C:\\Users\\Diego\\Documents\\GitHub\\NSY-DH\\Worksp"
 3191      73657273 
 3191      5C446965 
 3191      676F5C44 
 3191      6F63756D 
 3192 017a 61636530 		.ascii	"ace01\\Design01.cydsn\000"
 3192      315C4465 
 3192      7369676E 
 3192      30312E63 
 3192      7964736E 
 3193              	.LASF70:
 3194 018f 52465F43 		.ascii	"RF_Connection_rxBufferWrite\000"
 3194      6F6E6E65 
 3194      6374696F 
 3194      6E5F7278 
 3194      42756666 
 3195              	.LASF4:
 3196 01ab 6C6F6E67 		.ascii	"long int\000"
 3196      20696E74 
 3196      00
 3197              	.LASF9:
 3198 01b4 75696E74 		.ascii	"uint8\000"
 3198      3800
 3199              	.LASF13:
 3200 01ba 646F7562 		.ascii	"double\000"
 3200      6C6500
 3201              	.LASF43:
 3202 01c1 61646472 		.ascii	"addressMode\000"
 3202      6573734D 
 3202      6F646500 
 3203              	.LASF11:
 3204 01cd 75696E74 		.ascii	"uint32\000"
 3204      333200
 3205              	.LASF27:
 3206 01d4 636F6E74 		.ascii	"control\000"
 3206      726F6C00 
 3207              	.LASF20:
 3208 01dc 52465F43 		.ascii	"RF_Connection_Enable\000"
 3208      6F6E6E65 
 3208      6374696F 
 3208      6E5F456E 
 3208      61626C65 
 3209              	.LASF62:
 3210 01f1 7265744D 		.ascii	"retMode\000"
 3210      6F646500 
 3211              	.LASF8:
 3212 01f9 756E7369 		.ascii	"unsigned int\000"
 3212      676E6564 
ARM GAS  C:\Users\Diego\AppData\Local\Temp\ccmnqHZ6.s 			page 87


 3212      20696E74 
 3212      00
 3213              	.LASF38:
 3214 0206 6C6F6345 		.ascii	"locErrorStatus\000"
 3214      72726F72 
 3214      53746174 
 3214      757300
 3215              	.LASF5:
 3216 0215 6C6F6E67 		.ascii	"long unsigned int\000"
 3216      20756E73 
 3216      69676E65 
 3216      6420696E 
 3216      7400
 3217              	.LASF78:
 3218 0227 4379456E 		.ascii	"CyEnterCriticalSection\000"
 3218      74657243 
 3218      72697469 
 3218      63616C53 
 3218      65637469 
 3219              	.LASF68:
 3220 023e 52465F43 		.ascii	"RF_Connection_rxBuffer\000"
 3220      6F6E6E65 
 3220      6374696F 
 3220      6E5F7278 
 3220      42756666 
 3221              	.LASF40:
 3222 0255 73697A65 		.ascii	"size\000"
 3222      00
 3223              	.LASF3:
 3224 025a 73686F72 		.ascii	"short unsigned int\000"
 3224      7420756E 
 3224      7369676E 
 3224      65642069 
 3224      6E7400
 3225              	.LASF24:
 3226 026d 52465F43 		.ascii	"RF_Connection_Init\000"
 3226      6F6E6E65 
 3226      6374696F 
 3226      6E5F496E 
 3226      697400
 3227              	.LASF80:
 3228 0280 4379496E 		.ascii	"CyIntSetVector\000"
 3228      74536574 
 3228      56656374 
 3228      6F7200
 3229              	.LASF55:
 3230 028f 62756649 		.ascii	"bufIndex\000"
 3230      6E646578 
 3230      00
 3231              	.LASF52:
 3232 0298 52465F43 		.ascii	"RF_Connection_PutChar\000"
 3232      6F6E6E65 
 3232      6374696F 
 3232      6E5F5075 
 3232      74436861 
 3233              	.LASF53:
 3234 02ae 52465F43 		.ascii	"RF_Connection_PutString\000"
ARM GAS  C:\Users\Diego\AppData\Local\Temp\ccmnqHZ6.s 			page 88


 3234      6F6E6E65 
 3234      6374696F 
 3234      6E5F5075 
 3234      74537472 
 3235              	.LASF28:
 3236 02c6 696E7453 		.ascii	"intSrc\000"
 3236      726300
 3237              	.LASF51:
 3238 02cd 52465F43 		.ascii	"RF_Connection_ReadTxStatus\000"
 3238      6F6E6E65 
 3238      6374696F 
 3238      6E5F5265 
 3238      61645478 
 3239              	.LASF17:
 3240 02e8 72656733 		.ascii	"reg32\000"
 3240      3200
 3241              	.LASF25:
 3242 02ee 52465F43 		.ascii	"RF_Connection_Start\000"
 3242      6F6E6E65 
 3242      6374696F 
 3242      6E5F5374 
 3242      61727400 
 3243              	.LASF74:
 3244 0302 52465F43 		.ascii	"RF_Connection_IntClock_Stop\000"
 3244      6F6E6E65 
 3244      6374696F 
 3244      6E5F496E 
 3244      74436C6F 
 3245              	.LASF19:
 3246 031e 73697A65 		.ascii	"sizetype\000"
 3246      74797065 
 3246      00
 3247              	.LASF45:
 3248 0327 61646472 		.ascii	"address\000"
 3248      65737300 
 3249              	.LASF37:
 3250 032f 52465F43 		.ascii	"RF_Connection_GetByte\000"
 3250      6F6E6E65 
 3250      6374696F 
 3250      6E5F4765 
 3250      74427974 
 3251              	.LASF58:
 3252 0345 52465F43 		.ascii	"RF_Connection_PutCRLF\000"
 3252      6F6E6E65 
 3252      6374696F 
 3252      6E5F5075 
 3252      7443524C 
 3253              	.LASF31:
 3254 035b 6C6F6352 		.ascii	"locRxBufferWrite\000"
 3254      78427566 
 3254      66657257 
 3254      72697465 
 3254      00
 3255              	.LASF36:
 3256 036c 72785374 		.ascii	"rxStatus\000"
 3256      61747573 
 3256      00
ARM GAS  C:\Users\Diego\AppData\Local\Temp\ccmnqHZ6.s 			page 89


 3257              	.LASF60:
 3258 0375 52465F43 		.ascii	"RF_Connection_ClearTxBuffer\000"
 3258      6F6E6E65 
 3258      6374696F 
 3258      6E5F436C 
 3258      65617254 
 3259              	.LASF81:
 3260 0391 4379496E 		.ascii	"CyIntSetPriority\000"
 3260      74536574 
 3260      5072696F 
 3260      72697479 
 3260      00
 3261              	.LASF12:
 3262 03a2 666C6F61 		.ascii	"float\000"
 3262      7400
 3263              	.LASF79:
 3264 03a8 43794578 		.ascii	"CyExitCriticalSection\000"
 3264      69744372 
 3264      69746963 
 3264      616C5365 
 3264      6374696F 
 3265              	.LASF39:
 3266 03be 52465F43 		.ascii	"RF_Connection_GetRxBufferSize\000"
 3266      6F6E6E65 
 3266      6374696F 
 3266      6E5F4765 
 3266      74527842 
 3267              	.LASF76:
 3268 03dc 2E5C4765 		.ascii	".\\Generated_Source\\PSoC5\\RF_Connection.c\000"
 3268      6E657261 
 3268      7465645F 
 3268      536F7572 
 3268      63655C50 
 3269              	.LASF50:
 3270 0405 52465F43 		.ascii	"RF_Connection_ReadControlRegister\000"
 3270      6F6E6E65 
 3270      6374696F 
 3270      6E5F5265 
 3270      6164436F 
 3271              	.LASF16:
 3272 0427 72656738 		.ascii	"reg8\000"
 3272      00
 3273              	.LASF42:
 3274 042c 52465F43 		.ascii	"RF_Connection_SetRxAddressMode\000"
 3274      6F6E6E65 
 3274      6374696F 
 3274      6E5F5365 
 3274      74527841 
 3275              	.LASF1:
 3276 044b 756E7369 		.ascii	"unsigned char\000"
 3276      676E6564 
 3276      20636861 
 3276      7200
 3277              	.LASF2:
 3278 0459 73686F72 		.ascii	"short int\000"
 3278      7420696E 
 3278      7400
ARM GAS  C:\Users\Diego\AppData\Local\Temp\ccmnqHZ6.s 			page 90


 3279              	.LASF73:
 3280 0463 52465F43 		.ascii	"RF_Connection_IntClock_Start\000"
 3280      6F6E6E65 
 3280      6374696F 
 3280      6E5F496E 
 3280      74436C6F 
 3281              	.LASF69:
 3282 0480 52465F43 		.ascii	"RF_Connection_rxBufferRead\000"
 3282      6F6E6E65 
 3282      6374696F 
 3282      6E5F7278 
 3282      42756666 
 3283              	.LASF57:
 3284 049b 62797465 		.ascii	"byteCount\000"
 3284      436F756E 
 3284      7400
 3285              	.LASF29:
 3286 04a5 72784461 		.ascii	"rxData\000"
 3286      746100
 3287              	.LASF44:
 3288 04ac 52465F43 		.ascii	"RF_Connection_SetRxAddress1\000"
 3288      6F6E6E65 
 3288      6374696F 
 3288      6E5F5365 
 3288      74527841 
 3289              	.LASF46:
 3290 04c8 52465F43 		.ascii	"RF_Connection_SetRxAddress2\000"
 3290      6F6E6E65 
 3290      6374696F 
 3290      6E5F5365 
 3290      74527841 
 3291              	.LASF15:
 3292 04e4 63686172 		.ascii	"char\000"
 3292      00
 3293              	.LASF18:
 3294 04e9 63796973 		.ascii	"cyisraddress\000"
 3294      72616464 
 3294      72657373 
 3294      00
 3295              	.LASF67:
 3296 04f6 52465F43 		.ascii	"RF_Connection_errorStatus\000"
 3296      6F6E6E65 
 3296      6374696F 
 3296      6E5F6572 
 3296      726F7253 
 3297              	.LASF26:
 3298 0510 52465F43 		.ascii	"RF_Connection_SetRxInterruptMode\000"
 3298      6F6E6E65 
 3298      6374696F 
 3298      6E5F5365 
 3298      74527849 
 3299              	.LASF14:
 3300 0531 63686172 		.ascii	"char8\000"
 3300      3800
 3301              	.LASF32:
 3302 0537 52465F43 		.ascii	"RF_Connection_ReadRxData\000"
 3302      6F6E6E65 
ARM GAS  C:\Users\Diego\AppData\Local\Temp\ccmnqHZ6.s 			page 91


 3302      6374696F 
 3302      6E5F5265 
 3302      61645278 
 3303              	.LASF56:
 3304 0550 52465F43 		.ascii	"RF_Connection_PutArray\000"
 3304      6F6E6E65 
 3304      6374696F 
 3304      6E5F5075 
 3304      74417272 
 3305              	.LASF48:
 3306 0567 52465F43 		.ascii	"RF_Connection_WriteTxData\000"
 3306      6F6E6E65 
 3306      6374696F 
 3306      6E5F5772 
 3306      69746554 
 3307              	.LASF30:
 3308 0581 6C6F6352 		.ascii	"locRxBufferRead\000"
 3308      78427566 
 3308      66657252 
 3308      65616400 
 3309              	.LASF63:
 3310 0591 746D7053 		.ascii	"tmpStat\000"
 3310      74617400 
 3311              	.LASF22:
 3312 0599 656E6162 		.ascii	"enableInterrupts\000"
 3312      6C65496E 
 3312      74657272 
 3312      75707473 
 3312      00
 3313              	.LASF34:
 3314 05aa 73746174 		.ascii	"status\000"
 3314      757300
 3315              	.LASF75:
 3316 05b1 474E5520 		.ascii	"GNU C 4.9.3 20150303 (release) [ARM/embedded-4_9-br"
 3316      4320342E 
 3316      392E3320 
 3316      32303135 
 3316      30333033 
 3317 05e4 616E6368 		.ascii	"anch revision 221220] -mcpu=cortex-m3 -mthumb -g -O"
 3317      20726576 
 3317      6973696F 
 3317      6E203232 
 3317      31323230 
 3318 0617 67202D66 		.ascii	"g -ffunction-sections -ffat-lto-objects\000"
 3318      66756E63 
 3318      74696F6E 
 3318      2D736563 
 3318      74696F6E 
 3319              	.LASF23:
 3320 063f 52465F43 		.ascii	"RF_Connection_WriteControlRegister\000"
 3320      6F6E6E65 
 3320      6374696F 
 3320      6E5F5772 
 3320      69746543 
 3321              	.LASF65:
 3322 0662 52465F43 		.ascii	"RF_Connection_SetTxAddressMode\000"
 3322      6F6E6E65 
ARM GAS  C:\Users\Diego\AppData\Local\Temp\ccmnqHZ6.s 			page 92


 3322      6374696F 
 3322      6E5F5365 
 3322      74547841 
 3323              	.LASF21:
 3324 0681 52465F43 		.ascii	"RF_Connection_Stop\000"
 3324      6F6E6E65 
 3324      6374696F 
 3324      6E5F5374 
 3324      6F7000
 3325              		.ident	"GCC: (GNU Tools for ARM Embedded Processors) 4.9.3 20150303 (release) [ARM/embedded-4_9-br
