ARM GAS  C:\Users\RECEPC~1\AppData\Local\Temp\ccyux4kk.s 			page 1


   1              		.syntax unified
   2              		.cpu cortex-m3
   3              		.fpu softvfp
   4              		.eabi_attribute 20, 1
   5              		.eabi_attribute 21, 1
   6              		.eabi_attribute 23, 3
   7              		.eabi_attribute 24, 1
   8              		.eabi_attribute 25, 1
   9              		.eabi_attribute 26, 1
  10              		.eabi_attribute 30, 1
  11              		.eabi_attribute 34, 1
  12              		.eabi_attribute 18, 4
  13              		.thumb
  14              		.file	"RF_Physical.c"
  15              		.text
  16              	.Ltext0:
  17              		.cfi_sections	.debug_frame
  18              		.section	.text.RF_Physical_Init,"ax",%progbits
  19              		.align	2
  20              		.global	RF_Physical_Init
  21              		.thumb
  22              		.thumb_func
  23              		.type	RF_Physical_Init, %function
  24              	RF_Physical_Init:
  25              	.LFB1:
  26              		.file 1 ".\\Generated_Source\\PSoC5\\RF_Physical.c"
   1:.\Generated_Source\PSoC5/RF_Physical.c **** /*******************************************************************************
   2:.\Generated_Source\PSoC5/RF_Physical.c **** * File Name: RF_Physical.c
   3:.\Generated_Source\PSoC5/RF_Physical.c **** * Version 2.50
   4:.\Generated_Source\PSoC5/RF_Physical.c **** *
   5:.\Generated_Source\PSoC5/RF_Physical.c **** * Description:
   6:.\Generated_Source\PSoC5/RF_Physical.c **** *  This file provides all API functionality of the UART component
   7:.\Generated_Source\PSoC5/RF_Physical.c **** *
   8:.\Generated_Source\PSoC5/RF_Physical.c **** * Note:
   9:.\Generated_Source\PSoC5/RF_Physical.c **** *
  10:.\Generated_Source\PSoC5/RF_Physical.c **** ********************************************************************************
  11:.\Generated_Source\PSoC5/RF_Physical.c **** * Copyright 2008-2015, Cypress Semiconductor Corporation.  All rights reserved.
  12:.\Generated_Source\PSoC5/RF_Physical.c **** * You may use this file only in accordance with the license, terms, conditions,
  13:.\Generated_Source\PSoC5/RF_Physical.c **** * disclaimers, and limitations in the end user license agreement accompanying
  14:.\Generated_Source\PSoC5/RF_Physical.c **** * the software package with which this file was provided.
  15:.\Generated_Source\PSoC5/RF_Physical.c **** *******************************************************************************/
  16:.\Generated_Source\PSoC5/RF_Physical.c **** 
  17:.\Generated_Source\PSoC5/RF_Physical.c **** #include "RF_Physical.h"
  18:.\Generated_Source\PSoC5/RF_Physical.c **** #if (RF_Physical_INTERNAL_CLOCK_USED)
  19:.\Generated_Source\PSoC5/RF_Physical.c ****     #include "RF_Physical_IntClock.h"
  20:.\Generated_Source\PSoC5/RF_Physical.c **** #endif /* End RF_Physical_INTERNAL_CLOCK_USED */
  21:.\Generated_Source\PSoC5/RF_Physical.c **** 
  22:.\Generated_Source\PSoC5/RF_Physical.c **** 
  23:.\Generated_Source\PSoC5/RF_Physical.c **** /***************************************
  24:.\Generated_Source\PSoC5/RF_Physical.c **** * Global data allocation
  25:.\Generated_Source\PSoC5/RF_Physical.c **** ***************************************/
  26:.\Generated_Source\PSoC5/RF_Physical.c **** 
  27:.\Generated_Source\PSoC5/RF_Physical.c **** uint8 RF_Physical_initVar = 0u;
  28:.\Generated_Source\PSoC5/RF_Physical.c **** 
  29:.\Generated_Source\PSoC5/RF_Physical.c **** #if (RF_Physical_TX_INTERRUPT_ENABLED && RF_Physical_TX_ENABLED)
  30:.\Generated_Source\PSoC5/RF_Physical.c ****     volatile uint8 RF_Physical_txBuffer[RF_Physical_TX_BUFFER_SIZE];
  31:.\Generated_Source\PSoC5/RF_Physical.c ****     volatile uint8 RF_Physical_txBufferRead = 0u;
ARM GAS  C:\Users\RECEPC~1\AppData\Local\Temp\ccyux4kk.s 			page 2


  32:.\Generated_Source\PSoC5/RF_Physical.c ****     uint8 RF_Physical_txBufferWrite = 0u;
  33:.\Generated_Source\PSoC5/RF_Physical.c **** #endif /* (RF_Physical_TX_INTERRUPT_ENABLED && RF_Physical_TX_ENABLED) */
  34:.\Generated_Source\PSoC5/RF_Physical.c **** 
  35:.\Generated_Source\PSoC5/RF_Physical.c **** #if (RF_Physical_RX_INTERRUPT_ENABLED && (RF_Physical_RX_ENABLED || RF_Physical_HD_ENABLED))
  36:.\Generated_Source\PSoC5/RF_Physical.c ****     uint8 RF_Physical_errorStatus = 0u;
  37:.\Generated_Source\PSoC5/RF_Physical.c ****     volatile uint8 RF_Physical_rxBuffer[RF_Physical_RX_BUFFER_SIZE];
  38:.\Generated_Source\PSoC5/RF_Physical.c ****     volatile uint16 RF_Physical_rxBufferRead  = 0u;
  39:.\Generated_Source\PSoC5/RF_Physical.c ****     volatile uint16 RF_Physical_rxBufferWrite = 0u;
  40:.\Generated_Source\PSoC5/RF_Physical.c ****     volatile uint8 RF_Physical_rxBufferLoopDetect = 0u;
  41:.\Generated_Source\PSoC5/RF_Physical.c ****     volatile uint8 RF_Physical_rxBufferOverflow   = 0u;
  42:.\Generated_Source\PSoC5/RF_Physical.c ****     #if (RF_Physical_RXHW_ADDRESS_ENABLED)
  43:.\Generated_Source\PSoC5/RF_Physical.c ****         volatile uint8 RF_Physical_rxAddressMode = RF_Physical_RX_ADDRESS_MODE;
  44:.\Generated_Source\PSoC5/RF_Physical.c ****         volatile uint8 RF_Physical_rxAddressDetected = 0u;
  45:.\Generated_Source\PSoC5/RF_Physical.c ****     #endif /* (RF_Physical_RXHW_ADDRESS_ENABLED) */
  46:.\Generated_Source\PSoC5/RF_Physical.c **** #endif /* (RF_Physical_RX_INTERRUPT_ENABLED && (RF_Physical_RX_ENABLED || RF_Physical_HD_ENABLED)) 
  47:.\Generated_Source\PSoC5/RF_Physical.c **** 
  48:.\Generated_Source\PSoC5/RF_Physical.c **** 
  49:.\Generated_Source\PSoC5/RF_Physical.c **** /*******************************************************************************
  50:.\Generated_Source\PSoC5/RF_Physical.c **** * Function Name: RF_Physical_Start
  51:.\Generated_Source\PSoC5/RF_Physical.c **** ********************************************************************************
  52:.\Generated_Source\PSoC5/RF_Physical.c **** *
  53:.\Generated_Source\PSoC5/RF_Physical.c **** * Summary:
  54:.\Generated_Source\PSoC5/RF_Physical.c **** *  This is the preferred method to begin component operation.
  55:.\Generated_Source\PSoC5/RF_Physical.c **** *  RF_Physical_Start() sets the initVar variable, calls the
  56:.\Generated_Source\PSoC5/RF_Physical.c **** *  RF_Physical_Init() function, and then calls the
  57:.\Generated_Source\PSoC5/RF_Physical.c **** *  RF_Physical_Enable() function.
  58:.\Generated_Source\PSoC5/RF_Physical.c **** *
  59:.\Generated_Source\PSoC5/RF_Physical.c **** * Parameters:
  60:.\Generated_Source\PSoC5/RF_Physical.c **** *  None.
  61:.\Generated_Source\PSoC5/RF_Physical.c **** *
  62:.\Generated_Source\PSoC5/RF_Physical.c **** * Return:
  63:.\Generated_Source\PSoC5/RF_Physical.c **** *  None.
  64:.\Generated_Source\PSoC5/RF_Physical.c **** *
  65:.\Generated_Source\PSoC5/RF_Physical.c **** * Global variables:
  66:.\Generated_Source\PSoC5/RF_Physical.c **** *  The RF_Physical_intiVar variable is used to indicate initial
  67:.\Generated_Source\PSoC5/RF_Physical.c **** *  configuration of this component. The variable is initialized to zero (0u)
  68:.\Generated_Source\PSoC5/RF_Physical.c **** *  and set to one (1u) the first time RF_Physical_Start() is called. This
  69:.\Generated_Source\PSoC5/RF_Physical.c **** *  allows for component initialization without re-initialization in all
  70:.\Generated_Source\PSoC5/RF_Physical.c **** *  subsequent calls to the RF_Physical_Start() routine.
  71:.\Generated_Source\PSoC5/RF_Physical.c **** *
  72:.\Generated_Source\PSoC5/RF_Physical.c **** * Reentrant:
  73:.\Generated_Source\PSoC5/RF_Physical.c **** *  No.
  74:.\Generated_Source\PSoC5/RF_Physical.c **** *
  75:.\Generated_Source\PSoC5/RF_Physical.c **** *******************************************************************************/
  76:.\Generated_Source\PSoC5/RF_Physical.c **** void RF_Physical_Start(void) 
  77:.\Generated_Source\PSoC5/RF_Physical.c **** {
  78:.\Generated_Source\PSoC5/RF_Physical.c ****     /* If not initialized then initialize all required hardware and software */
  79:.\Generated_Source\PSoC5/RF_Physical.c ****     if(RF_Physical_initVar == 0u)
  80:.\Generated_Source\PSoC5/RF_Physical.c ****     {
  81:.\Generated_Source\PSoC5/RF_Physical.c ****         RF_Physical_Init();
  82:.\Generated_Source\PSoC5/RF_Physical.c ****         RF_Physical_initVar = 1u;
  83:.\Generated_Source\PSoC5/RF_Physical.c ****     }
  84:.\Generated_Source\PSoC5/RF_Physical.c **** 
  85:.\Generated_Source\PSoC5/RF_Physical.c ****     RF_Physical_Enable();
  86:.\Generated_Source\PSoC5/RF_Physical.c **** }
  87:.\Generated_Source\PSoC5/RF_Physical.c **** 
  88:.\Generated_Source\PSoC5/RF_Physical.c **** 
ARM GAS  C:\Users\RECEPC~1\AppData\Local\Temp\ccyux4kk.s 			page 3


  89:.\Generated_Source\PSoC5/RF_Physical.c **** /*******************************************************************************
  90:.\Generated_Source\PSoC5/RF_Physical.c **** * Function Name: RF_Physical_Init
  91:.\Generated_Source\PSoC5/RF_Physical.c **** ********************************************************************************
  92:.\Generated_Source\PSoC5/RF_Physical.c **** *
  93:.\Generated_Source\PSoC5/RF_Physical.c **** * Summary:
  94:.\Generated_Source\PSoC5/RF_Physical.c **** *  Initializes or restores the component according to the customizer Configure
  95:.\Generated_Source\PSoC5/RF_Physical.c **** *  dialog settings. It is not necessary to call RF_Physical_Init() because
  96:.\Generated_Source\PSoC5/RF_Physical.c **** *  the RF_Physical_Start() API calls this function and is the preferred
  97:.\Generated_Source\PSoC5/RF_Physical.c **** *  method to begin component operation.
  98:.\Generated_Source\PSoC5/RF_Physical.c **** *
  99:.\Generated_Source\PSoC5/RF_Physical.c **** * Parameters:
 100:.\Generated_Source\PSoC5/RF_Physical.c **** *  None.
 101:.\Generated_Source\PSoC5/RF_Physical.c **** *
 102:.\Generated_Source\PSoC5/RF_Physical.c **** * Return:
 103:.\Generated_Source\PSoC5/RF_Physical.c **** *  None.
 104:.\Generated_Source\PSoC5/RF_Physical.c **** *
 105:.\Generated_Source\PSoC5/RF_Physical.c **** *******************************************************************************/
 106:.\Generated_Source\PSoC5/RF_Physical.c **** void RF_Physical_Init(void) 
 107:.\Generated_Source\PSoC5/RF_Physical.c **** {
  27              		.loc 1 107 0
  28              		.cfi_startproc
  29              		@ args = 0, pretend = 0, frame = 0
  30              		@ frame_needed = 0, uses_anonymous_args = 0
  31 0000 08B5     		push	{r3, lr}
  32              		.cfi_def_cfa_offset 8
  33              		.cfi_offset 3, -8
  34              		.cfi_offset 14, -4
 108:.\Generated_Source\PSoC5/RF_Physical.c ****     #if(RF_Physical_RX_ENABLED || RF_Physical_HD_ENABLED)
 109:.\Generated_Source\PSoC5/RF_Physical.c **** 
 110:.\Generated_Source\PSoC5/RF_Physical.c ****         #if (RF_Physical_RX_INTERRUPT_ENABLED)
 111:.\Generated_Source\PSoC5/RF_Physical.c ****             /* Set RX interrupt vector and priority */
 112:.\Generated_Source\PSoC5/RF_Physical.c ****             (void) CyIntSetVector(RF_Physical_RX_VECT_NUM, &RF_Physical_RXISR);
  35              		.loc 1 112 0
  36 0002 0320     		movs	r0, #3
  37 0004 0C49     		ldr	r1, .L3
  38 0006 FFF7FEFF 		bl	CyIntSetVector
  39              	.LVL0:
 113:.\Generated_Source\PSoC5/RF_Physical.c ****             CyIntSetPriority(RF_Physical_RX_VECT_NUM, RF_Physical_RX_PRIOR_NUM);
  40              		.loc 1 113 0
  41 000a 0320     		movs	r0, #3
  42 000c 0721     		movs	r1, #7
  43 000e FFF7FEFF 		bl	CyIntSetPriority
  44              	.LVL1:
 114:.\Generated_Source\PSoC5/RF_Physical.c ****             RF_Physical_errorStatus = 0u;
  45              		.loc 1 114 0
  46 0012 0023     		movs	r3, #0
  47 0014 094A     		ldr	r2, .L3+4
  48 0016 1370     		strb	r3, [r2]
 115:.\Generated_Source\PSoC5/RF_Physical.c ****         #endif /* (RF_Physical_RX_INTERRUPT_ENABLED) */
 116:.\Generated_Source\PSoC5/RF_Physical.c **** 
 117:.\Generated_Source\PSoC5/RF_Physical.c ****         #if (RF_Physical_RXHW_ADDRESS_ENABLED)
 118:.\Generated_Source\PSoC5/RF_Physical.c ****             RF_Physical_SetRxAddressMode(RF_Physical_RX_ADDRESS_MODE);
 119:.\Generated_Source\PSoC5/RF_Physical.c ****             RF_Physical_SetRxAddress1(RF_Physical_RX_HW_ADDRESS1);
 120:.\Generated_Source\PSoC5/RF_Physical.c ****             RF_Physical_SetRxAddress2(RF_Physical_RX_HW_ADDRESS2);
 121:.\Generated_Source\PSoC5/RF_Physical.c ****         #endif /* End RF_Physical_RXHW_ADDRESS_ENABLED */
 122:.\Generated_Source\PSoC5/RF_Physical.c **** 
 123:.\Generated_Source\PSoC5/RF_Physical.c ****         /* Init Count7 period */
ARM GAS  C:\Users\RECEPC~1\AppData\Local\Temp\ccyux4kk.s 			page 4


 124:.\Generated_Source\PSoC5/RF_Physical.c ****         RF_Physical_RXBITCTR_PERIOD_REG = RF_Physical_RXBITCTR_INIT;
  49              		.loc 1 124 0
  50 0018 7221     		movs	r1, #114
  51 001a 094A     		ldr	r2, .L3+8
  52 001c 1170     		strb	r1, [r2]
 125:.\Generated_Source\PSoC5/RF_Physical.c ****         /* Configure the Initial RX interrupt mask */
 126:.\Generated_Source\PSoC5/RF_Physical.c ****         RF_Physical_RXSTATUS_MASK_REG  = RF_Physical_INIT_RX_INTERRUPTS_MASK;
  53              		.loc 1 126 0
  54 001e 2021     		movs	r1, #32
  55 0020 0332     		adds	r2, r2, #3
  56 0022 1170     		strb	r1, [r2]
 127:.\Generated_Source\PSoC5/RF_Physical.c ****     #endif /* End RF_Physical_RX_ENABLED || RF_Physical_HD_ENABLED*/
 128:.\Generated_Source\PSoC5/RF_Physical.c **** 
 129:.\Generated_Source\PSoC5/RF_Physical.c ****     #if(RF_Physical_TX_ENABLED)
 130:.\Generated_Source\PSoC5/RF_Physical.c ****         #if (RF_Physical_TX_INTERRUPT_ENABLED)
 131:.\Generated_Source\PSoC5/RF_Physical.c ****             /* Set TX interrupt vector and priority */
 132:.\Generated_Source\PSoC5/RF_Physical.c ****             (void) CyIntSetVector(RF_Physical_TX_VECT_NUM, &RF_Physical_TXISR);
 133:.\Generated_Source\PSoC5/RF_Physical.c ****             CyIntSetPriority(RF_Physical_TX_VECT_NUM, RF_Physical_TX_PRIOR_NUM);
 134:.\Generated_Source\PSoC5/RF_Physical.c ****         #endif /* (RF_Physical_TX_INTERRUPT_ENABLED) */
 135:.\Generated_Source\PSoC5/RF_Physical.c **** 
 136:.\Generated_Source\PSoC5/RF_Physical.c ****         /* Write Counter Value for TX Bit Clk Generator*/
 137:.\Generated_Source\PSoC5/RF_Physical.c ****         #if (RF_Physical_TXCLKGEN_DP)
 138:.\Generated_Source\PSoC5/RF_Physical.c ****             RF_Physical_TXBITCLKGEN_CTR_REG = RF_Physical_BIT_CENTER;
  57              		.loc 1 138 0
  58 0024 0621     		movs	r1, #6
  59 0026 613A     		subs	r2, r2, #97
  60 0028 1170     		strb	r1, [r2]
 139:.\Generated_Source\PSoC5/RF_Physical.c ****             RF_Physical_TXBITCLKTX_COMPLETE_REG = ((RF_Physical_NUMBER_OF_DATA_BITS +
  61              		.loc 1 139 0
  62 002a 4721     		movs	r1, #71
  63 002c 1032     		adds	r2, r2, #16
  64 002e 1170     		strb	r1, [r2]
 140:.\Generated_Source\PSoC5/RF_Physical.c ****                         RF_Physical_NUMBER_OF_START_BIT) * RF_Physical_OVER_SAMPLE_COUNT) - 1u;
 141:.\Generated_Source\PSoC5/RF_Physical.c ****         #else
 142:.\Generated_Source\PSoC5/RF_Physical.c ****             RF_Physical_TXBITCTR_PERIOD_REG = ((RF_Physical_NUMBER_OF_DATA_BITS +
 143:.\Generated_Source\PSoC5/RF_Physical.c ****                         RF_Physical_NUMBER_OF_START_BIT) * RF_Physical_OVER_SAMPLE_8) - 1u;
 144:.\Generated_Source\PSoC5/RF_Physical.c ****         #endif /* End RF_Physical_TXCLKGEN_DP */
 145:.\Generated_Source\PSoC5/RF_Physical.c **** 
 146:.\Generated_Source\PSoC5/RF_Physical.c ****         /* Configure the Initial TX interrupt mask */
 147:.\Generated_Source\PSoC5/RF_Physical.c ****         #if (RF_Physical_TX_INTERRUPT_ENABLED)
 148:.\Generated_Source\PSoC5/RF_Physical.c ****             RF_Physical_TXSTATUS_MASK_REG = RF_Physical_TX_STS_FIFO_EMPTY;
 149:.\Generated_Source\PSoC5/RF_Physical.c ****         #else
 150:.\Generated_Source\PSoC5/RF_Physical.c ****             RF_Physical_TXSTATUS_MASK_REG = RF_Physical_INIT_TX_INTERRUPTS_MASK;
  65              		.loc 1 150 0
  66 0030 5032     		adds	r2, r2, #80
  67 0032 1370     		strb	r3, [r2]
  68 0034 08BD     		pop	{r3, pc}
  69              	.L4:
  70 0036 00BF     		.align	2
  71              	.L3:
  72 0038 00000000 		.word	RF_Physical_RXISR
  73 003c 00000000 		.word	.LANCHOR0
  74 0040 80640040 		.word	1073767552
  75              		.cfi_endproc
  76              	.LFE1:
  77              		.size	RF_Physical_Init, .-RF_Physical_Init
  78              		.section	.text.RF_Physical_Enable,"ax",%progbits
ARM GAS  C:\Users\RECEPC~1\AppData\Local\Temp\ccyux4kk.s 			page 5


  79              		.align	2
  80              		.global	RF_Physical_Enable
  81              		.thumb
  82              		.thumb_func
  83              		.type	RF_Physical_Enable, %function
  84              	RF_Physical_Enable:
  85              	.LFB2:
 151:.\Generated_Source\PSoC5/RF_Physical.c ****         #endif /*End RF_Physical_TX_INTERRUPT_ENABLED*/
 152:.\Generated_Source\PSoC5/RF_Physical.c **** 
 153:.\Generated_Source\PSoC5/RF_Physical.c ****     #endif /* End RF_Physical_TX_ENABLED */
 154:.\Generated_Source\PSoC5/RF_Physical.c **** 
 155:.\Generated_Source\PSoC5/RF_Physical.c ****     #if(RF_Physical_PARITY_TYPE_SW)  /* Write Parity to Control Register */
 156:.\Generated_Source\PSoC5/RF_Physical.c ****         RF_Physical_WriteControlRegister( \
 157:.\Generated_Source\PSoC5/RF_Physical.c ****             (RF_Physical_ReadControlRegister() & (uint8)~RF_Physical_CTRL_PARITY_TYPE_MASK) | \
 158:.\Generated_Source\PSoC5/RF_Physical.c ****             (uint8)(RF_Physical_PARITY_TYPE << RF_Physical_CTRL_PARITY_TYPE0_SHIFT) );
 159:.\Generated_Source\PSoC5/RF_Physical.c ****     #endif /* End RF_Physical_PARITY_TYPE_SW */
 160:.\Generated_Source\PSoC5/RF_Physical.c **** }
 161:.\Generated_Source\PSoC5/RF_Physical.c **** 
 162:.\Generated_Source\PSoC5/RF_Physical.c **** 
 163:.\Generated_Source\PSoC5/RF_Physical.c **** /*******************************************************************************
 164:.\Generated_Source\PSoC5/RF_Physical.c **** * Function Name: RF_Physical_Enable
 165:.\Generated_Source\PSoC5/RF_Physical.c **** ********************************************************************************
 166:.\Generated_Source\PSoC5/RF_Physical.c **** *
 167:.\Generated_Source\PSoC5/RF_Physical.c **** * Summary:
 168:.\Generated_Source\PSoC5/RF_Physical.c **** *  Activates the hardware and begins component operation. It is not necessary
 169:.\Generated_Source\PSoC5/RF_Physical.c **** *  to call RF_Physical_Enable() because the RF_Physical_Start() API
 170:.\Generated_Source\PSoC5/RF_Physical.c **** *  calls this function, which is the preferred method to begin component
 171:.\Generated_Source\PSoC5/RF_Physical.c **** *  operation.
 172:.\Generated_Source\PSoC5/RF_Physical.c **** 
 173:.\Generated_Source\PSoC5/RF_Physical.c **** * Parameters:
 174:.\Generated_Source\PSoC5/RF_Physical.c **** *  None.
 175:.\Generated_Source\PSoC5/RF_Physical.c **** *
 176:.\Generated_Source\PSoC5/RF_Physical.c **** * Return:
 177:.\Generated_Source\PSoC5/RF_Physical.c **** *  None.
 178:.\Generated_Source\PSoC5/RF_Physical.c **** *
 179:.\Generated_Source\PSoC5/RF_Physical.c **** * Global Variables:
 180:.\Generated_Source\PSoC5/RF_Physical.c **** *  RF_Physical_rxAddressDetected - set to initial state (0).
 181:.\Generated_Source\PSoC5/RF_Physical.c **** *
 182:.\Generated_Source\PSoC5/RF_Physical.c **** *******************************************************************************/
 183:.\Generated_Source\PSoC5/RF_Physical.c **** void RF_Physical_Enable(void) 
 184:.\Generated_Source\PSoC5/RF_Physical.c **** {
  86              		.loc 1 184 0
  87              		.cfi_startproc
  88              		@ args = 0, pretend = 0, frame = 0
  89              		@ frame_needed = 0, uses_anonymous_args = 0
  90 0000 10B5     		push	{r4, lr}
  91              		.cfi_def_cfa_offset 8
  92              		.cfi_offset 4, -8
  93              		.cfi_offset 14, -4
 185:.\Generated_Source\PSoC5/RF_Physical.c ****     uint8 enableInterrupts;
 186:.\Generated_Source\PSoC5/RF_Physical.c ****     enableInterrupts = CyEnterCriticalSection();
  94              		.loc 1 186 0
  95 0002 FFF7FEFF 		bl	CyEnterCriticalSection
  96              	.LVL2:
  97 0006 0446     		mov	r4, r0
  98              	.LVL3:
 187:.\Generated_Source\PSoC5/RF_Physical.c **** 
ARM GAS  C:\Users\RECEPC~1\AppData\Local\Temp\ccyux4kk.s 			page 6


 188:.\Generated_Source\PSoC5/RF_Physical.c ****     #if (RF_Physical_RX_ENABLED || RF_Physical_HD_ENABLED)
 189:.\Generated_Source\PSoC5/RF_Physical.c ****         /* RX Counter (Count7) Enable */
 190:.\Generated_Source\PSoC5/RF_Physical.c ****         RF_Physical_RXBITCTR_CONTROL_REG |= RF_Physical_CNTR_ENABLE;
  99              		.loc 1 190 0
 100 0008 0B4A     		ldr	r2, .L7
 101 000a 1378     		ldrb	r3, [r2]	@ zero_extendqisi2
 102 000c 43F02003 		orr	r3, r3, #32
 103 0010 1370     		strb	r3, [r2]
 191:.\Generated_Source\PSoC5/RF_Physical.c **** 
 192:.\Generated_Source\PSoC5/RF_Physical.c ****         /* Enable the RX Interrupt */
 193:.\Generated_Source\PSoC5/RF_Physical.c ****         RF_Physical_RXSTATUS_ACTL_REG  |= RF_Physical_INT_ENABLE;
 104              		.loc 1 193 0
 105 0012 0332     		adds	r2, r2, #3
 106 0014 1378     		ldrb	r3, [r2]	@ zero_extendqisi2
 107 0016 43F01003 		orr	r3, r3, #16
 108 001a 1370     		strb	r3, [r2]
 194:.\Generated_Source\PSoC5/RF_Physical.c **** 
 195:.\Generated_Source\PSoC5/RF_Physical.c ****         #if (RF_Physical_RX_INTERRUPT_ENABLED)
 196:.\Generated_Source\PSoC5/RF_Physical.c ****             RF_Physical_EnableRxInt();
 109              		.loc 1 196 0
 110 001c 0822     		movs	r2, #8
 111 001e 074B     		ldr	r3, .L7+4
 112 0020 1A60     		str	r2, [r3]
 197:.\Generated_Source\PSoC5/RF_Physical.c **** 
 198:.\Generated_Source\PSoC5/RF_Physical.c ****             #if (RF_Physical_RXHW_ADDRESS_ENABLED)
 199:.\Generated_Source\PSoC5/RF_Physical.c ****                 RF_Physical_rxAddressDetected = 0u;
 200:.\Generated_Source\PSoC5/RF_Physical.c ****             #endif /* (RF_Physical_RXHW_ADDRESS_ENABLED) */
 201:.\Generated_Source\PSoC5/RF_Physical.c ****         #endif /* (RF_Physical_RX_INTERRUPT_ENABLED) */
 202:.\Generated_Source\PSoC5/RF_Physical.c ****     #endif /* (RF_Physical_RX_ENABLED || RF_Physical_HD_ENABLED) */
 203:.\Generated_Source\PSoC5/RF_Physical.c **** 
 204:.\Generated_Source\PSoC5/RF_Physical.c ****     #if(RF_Physical_TX_ENABLED)
 205:.\Generated_Source\PSoC5/RF_Physical.c ****         /* TX Counter (DP/Count7) Enable */
 206:.\Generated_Source\PSoC5/RF_Physical.c ****         #if(!RF_Physical_TXCLKGEN_DP)
 207:.\Generated_Source\PSoC5/RF_Physical.c ****             RF_Physical_TXBITCTR_CONTROL_REG |= RF_Physical_CNTR_ENABLE;
 208:.\Generated_Source\PSoC5/RF_Physical.c ****         #endif /* End RF_Physical_TXCLKGEN_DP */
 209:.\Generated_Source\PSoC5/RF_Physical.c **** 
 210:.\Generated_Source\PSoC5/RF_Physical.c ****         /* Enable the TX Interrupt */
 211:.\Generated_Source\PSoC5/RF_Physical.c ****         RF_Physical_TXSTATUS_ACTL_REG |= RF_Physical_INT_ENABLE;
 113              		.loc 1 211 0
 114 0022 074A     		ldr	r2, .L7+8
 115 0024 1378     		ldrb	r3, [r2]	@ zero_extendqisi2
 116 0026 43F01003 		orr	r3, r3, #16
 117 002a 1370     		strb	r3, [r2]
 212:.\Generated_Source\PSoC5/RF_Physical.c ****         #if (RF_Physical_TX_INTERRUPT_ENABLED)
 213:.\Generated_Source\PSoC5/RF_Physical.c ****             RF_Physical_ClearPendingTxInt(); /* Clear history of TX_NOT_EMPTY */
 214:.\Generated_Source\PSoC5/RF_Physical.c ****             RF_Physical_EnableTxInt();
 215:.\Generated_Source\PSoC5/RF_Physical.c ****         #endif /* (RF_Physical_TX_INTERRUPT_ENABLED) */
 216:.\Generated_Source\PSoC5/RF_Physical.c ****      #endif /* (RF_Physical_TX_INTERRUPT_ENABLED) */
 217:.\Generated_Source\PSoC5/RF_Physical.c **** 
 218:.\Generated_Source\PSoC5/RF_Physical.c ****     #if (RF_Physical_INTERNAL_CLOCK_USED)
 219:.\Generated_Source\PSoC5/RF_Physical.c ****         RF_Physical_IntClock_Start();  /* Enable the clock */
 118              		.loc 1 219 0
 119 002c FFF7FEFF 		bl	RF_Physical_IntClock_Start
 120              	.LVL4:
 220:.\Generated_Source\PSoC5/RF_Physical.c ****     #endif /* (RF_Physical_INTERNAL_CLOCK_USED) */
 221:.\Generated_Source\PSoC5/RF_Physical.c **** 
 222:.\Generated_Source\PSoC5/RF_Physical.c ****     CyExitCriticalSection(enableInterrupts);
ARM GAS  C:\Users\RECEPC~1\AppData\Local\Temp\ccyux4kk.s 			page 7


 121              		.loc 1 222 0
 122 0030 2046     		mov	r0, r4
 123 0032 FFF7FEFF 		bl	CyExitCriticalSection
 124              	.LVL5:
 125 0036 10BD     		pop	{r4, pc}
 126              	.LVL6:
 127              	.L8:
 128              		.align	2
 129              	.L7:
 130 0038 90640040 		.word	1073767568
 131 003c 00E100E0 		.word	-536813312
 132 0040 92640040 		.word	1073767570
 133              		.cfi_endproc
 134              	.LFE2:
 135              		.size	RF_Physical_Enable, .-RF_Physical_Enable
 136              		.section	.text.RF_Physical_Start,"ax",%progbits
 137              		.align	2
 138              		.global	RF_Physical_Start
 139              		.thumb
 140              		.thumb_func
 141              		.type	RF_Physical_Start, %function
 142              	RF_Physical_Start:
 143              	.LFB0:
  77:.\Generated_Source\PSoC5/RF_Physical.c ****     /* If not initialized then initialize all required hardware and software */
 144              		.loc 1 77 0
 145              		.cfi_startproc
 146              		@ args = 0, pretend = 0, frame = 0
 147              		@ frame_needed = 0, uses_anonymous_args = 0
 148 0000 08B5     		push	{r3, lr}
 149              		.cfi_def_cfa_offset 8
 150              		.cfi_offset 3, -8
 151              		.cfi_offset 14, -4
  79:.\Generated_Source\PSoC5/RF_Physical.c ****     {
 152              		.loc 1 79 0
 153 0002 054B     		ldr	r3, .L12
 154 0004 5B78     		ldrb	r3, [r3, #1]	@ zero_extendqisi2
 155 0006 23B9     		cbnz	r3, .L10
  81:.\Generated_Source\PSoC5/RF_Physical.c ****         RF_Physical_initVar = 1u;
 156              		.loc 1 81 0
 157 0008 FFF7FEFF 		bl	RF_Physical_Init
 158              	.LVL7:
  82:.\Generated_Source\PSoC5/RF_Physical.c ****     }
 159              		.loc 1 82 0
 160 000c 0122     		movs	r2, #1
 161 000e 024B     		ldr	r3, .L12
 162 0010 5A70     		strb	r2, [r3, #1]
 163              	.L10:
  85:.\Generated_Source\PSoC5/RF_Physical.c **** }
 164              		.loc 1 85 0
 165 0012 FFF7FEFF 		bl	RF_Physical_Enable
 166              	.LVL8:
 167 0016 08BD     		pop	{r3, pc}
 168              	.L13:
 169              		.align	2
 170              	.L12:
 171 0018 00000000 		.word	.LANCHOR0
 172              		.cfi_endproc
ARM GAS  C:\Users\RECEPC~1\AppData\Local\Temp\ccyux4kk.s 			page 8


 173              	.LFE0:
 174              		.size	RF_Physical_Start, .-RF_Physical_Start
 175              		.section	.text.RF_Physical_Stop,"ax",%progbits
 176              		.align	2
 177              		.global	RF_Physical_Stop
 178              		.thumb
 179              		.thumb_func
 180              		.type	RF_Physical_Stop, %function
 181              	RF_Physical_Stop:
 182              	.LFB3:
 223:.\Generated_Source\PSoC5/RF_Physical.c **** }
 224:.\Generated_Source\PSoC5/RF_Physical.c **** 
 225:.\Generated_Source\PSoC5/RF_Physical.c **** 
 226:.\Generated_Source\PSoC5/RF_Physical.c **** /*******************************************************************************
 227:.\Generated_Source\PSoC5/RF_Physical.c **** * Function Name: RF_Physical_Stop
 228:.\Generated_Source\PSoC5/RF_Physical.c **** ********************************************************************************
 229:.\Generated_Source\PSoC5/RF_Physical.c **** *
 230:.\Generated_Source\PSoC5/RF_Physical.c **** * Summary:
 231:.\Generated_Source\PSoC5/RF_Physical.c **** *  Disables the UART operation.
 232:.\Generated_Source\PSoC5/RF_Physical.c **** *
 233:.\Generated_Source\PSoC5/RF_Physical.c **** * Parameters:
 234:.\Generated_Source\PSoC5/RF_Physical.c **** *  None.
 235:.\Generated_Source\PSoC5/RF_Physical.c **** *
 236:.\Generated_Source\PSoC5/RF_Physical.c **** * Return:
 237:.\Generated_Source\PSoC5/RF_Physical.c **** *  None.
 238:.\Generated_Source\PSoC5/RF_Physical.c **** *
 239:.\Generated_Source\PSoC5/RF_Physical.c **** *******************************************************************************/
 240:.\Generated_Source\PSoC5/RF_Physical.c **** void RF_Physical_Stop(void) 
 241:.\Generated_Source\PSoC5/RF_Physical.c **** {
 183              		.loc 1 241 0
 184              		.cfi_startproc
 185              		@ args = 0, pretend = 0, frame = 0
 186              		@ frame_needed = 0, uses_anonymous_args = 0
 187 0000 10B5     		push	{r4, lr}
 188              		.cfi_def_cfa_offset 8
 189              		.cfi_offset 4, -8
 190              		.cfi_offset 14, -4
 242:.\Generated_Source\PSoC5/RF_Physical.c ****     uint8 enableInterrupts;
 243:.\Generated_Source\PSoC5/RF_Physical.c ****     enableInterrupts = CyEnterCriticalSection();
 191              		.loc 1 243 0
 192 0002 FFF7FEFF 		bl	CyEnterCriticalSection
 193              	.LVL9:
 194 0006 0446     		mov	r4, r0
 195              	.LVL10:
 244:.\Generated_Source\PSoC5/RF_Physical.c **** 
 245:.\Generated_Source\PSoC5/RF_Physical.c ****     /* Write Bit Counter Disable */
 246:.\Generated_Source\PSoC5/RF_Physical.c ****     #if (RF_Physical_RX_ENABLED || RF_Physical_HD_ENABLED)
 247:.\Generated_Source\PSoC5/RF_Physical.c ****         RF_Physical_RXBITCTR_CONTROL_REG &= (uint8) ~RF_Physical_CNTR_ENABLE;
 196              		.loc 1 247 0
 197 0008 0B4A     		ldr	r2, .L16
 198 000a 1378     		ldrb	r3, [r2]	@ zero_extendqisi2
 199 000c 03F0DF03 		and	r3, r3, #223
 200 0010 1370     		strb	r3, [r2]
 248:.\Generated_Source\PSoC5/RF_Physical.c ****     #endif /* (RF_Physical_RX_ENABLED || RF_Physical_HD_ENABLED) */
 249:.\Generated_Source\PSoC5/RF_Physical.c **** 
 250:.\Generated_Source\PSoC5/RF_Physical.c ****     #if (RF_Physical_TX_ENABLED)
 251:.\Generated_Source\PSoC5/RF_Physical.c ****         #if(!RF_Physical_TXCLKGEN_DP)
ARM GAS  C:\Users\RECEPC~1\AppData\Local\Temp\ccyux4kk.s 			page 9


 252:.\Generated_Source\PSoC5/RF_Physical.c ****             RF_Physical_TXBITCTR_CONTROL_REG &= (uint8) ~RF_Physical_CNTR_ENABLE;
 253:.\Generated_Source\PSoC5/RF_Physical.c ****         #endif /* (!RF_Physical_TXCLKGEN_DP) */
 254:.\Generated_Source\PSoC5/RF_Physical.c ****     #endif /* (RF_Physical_TX_ENABLED) */
 255:.\Generated_Source\PSoC5/RF_Physical.c **** 
 256:.\Generated_Source\PSoC5/RF_Physical.c ****     #if (RF_Physical_INTERNAL_CLOCK_USED)
 257:.\Generated_Source\PSoC5/RF_Physical.c ****         RF_Physical_IntClock_Stop();   /* Disable the clock */
 201              		.loc 1 257 0
 202 0012 FFF7FEFF 		bl	RF_Physical_IntClock_Stop
 203              	.LVL11:
 258:.\Generated_Source\PSoC5/RF_Physical.c ****     #endif /* (RF_Physical_INTERNAL_CLOCK_USED) */
 259:.\Generated_Source\PSoC5/RF_Physical.c **** 
 260:.\Generated_Source\PSoC5/RF_Physical.c ****     /* Disable internal interrupt component */
 261:.\Generated_Source\PSoC5/RF_Physical.c ****     #if (RF_Physical_RX_ENABLED || RF_Physical_HD_ENABLED)
 262:.\Generated_Source\PSoC5/RF_Physical.c ****         RF_Physical_RXSTATUS_ACTL_REG  &= (uint8) ~RF_Physical_INT_ENABLE;
 204              		.loc 1 262 0
 205 0016 094A     		ldr	r2, .L16+4
 206 0018 1378     		ldrb	r3, [r2]	@ zero_extendqisi2
 207 001a 03F0EF03 		and	r3, r3, #239
 208 001e 1370     		strb	r3, [r2]
 263:.\Generated_Source\PSoC5/RF_Physical.c **** 
 264:.\Generated_Source\PSoC5/RF_Physical.c ****         #if (RF_Physical_RX_INTERRUPT_ENABLED)
 265:.\Generated_Source\PSoC5/RF_Physical.c ****             RF_Physical_DisableRxInt();
 209              		.loc 1 265 0
 210 0020 0822     		movs	r2, #8
 211 0022 074B     		ldr	r3, .L16+8
 212 0024 1A60     		str	r2, [r3]
 266:.\Generated_Source\PSoC5/RF_Physical.c ****         #endif /* (RF_Physical_RX_INTERRUPT_ENABLED) */
 267:.\Generated_Source\PSoC5/RF_Physical.c ****     #endif /* (RF_Physical_RX_ENABLED || RF_Physical_HD_ENABLED) */
 268:.\Generated_Source\PSoC5/RF_Physical.c **** 
 269:.\Generated_Source\PSoC5/RF_Physical.c ****     #if (RF_Physical_TX_ENABLED)
 270:.\Generated_Source\PSoC5/RF_Physical.c ****         RF_Physical_TXSTATUS_ACTL_REG &= (uint8) ~RF_Physical_INT_ENABLE;
 213              		.loc 1 270 0
 214 0026 074A     		ldr	r2, .L16+12
 215 0028 1378     		ldrb	r3, [r2]	@ zero_extendqisi2
 216 002a 03F0EF03 		and	r3, r3, #239
 217 002e 1370     		strb	r3, [r2]
 271:.\Generated_Source\PSoC5/RF_Physical.c **** 
 272:.\Generated_Source\PSoC5/RF_Physical.c ****         #if (RF_Physical_TX_INTERRUPT_ENABLED)
 273:.\Generated_Source\PSoC5/RF_Physical.c ****             RF_Physical_DisableTxInt();
 274:.\Generated_Source\PSoC5/RF_Physical.c ****         #endif /* (RF_Physical_TX_INTERRUPT_ENABLED) */
 275:.\Generated_Source\PSoC5/RF_Physical.c ****     #endif /* (RF_Physical_TX_ENABLED) */
 276:.\Generated_Source\PSoC5/RF_Physical.c **** 
 277:.\Generated_Source\PSoC5/RF_Physical.c ****     CyExitCriticalSection(enableInterrupts);
 218              		.loc 1 277 0
 219 0030 2046     		mov	r0, r4
 220 0032 FFF7FEFF 		bl	CyExitCriticalSection
 221              	.LVL12:
 222 0036 10BD     		pop	{r4, pc}
 223              	.LVL13:
 224              	.L17:
 225              		.align	2
 226              	.L16:
 227 0038 90640040 		.word	1073767568
 228 003c 93640040 		.word	1073767571
 229 0040 80E100E0 		.word	-536813184
 230 0044 92640040 		.word	1073767570
 231              		.cfi_endproc
ARM GAS  C:\Users\RECEPC~1\AppData\Local\Temp\ccyux4kk.s 			page 10


 232              	.LFE3:
 233              		.size	RF_Physical_Stop, .-RF_Physical_Stop
 234              		.section	.text.RF_Physical_ReadControlRegister,"ax",%progbits
 235              		.align	2
 236              		.global	RF_Physical_ReadControlRegister
 237              		.thumb
 238              		.thumb_func
 239              		.type	RF_Physical_ReadControlRegister, %function
 240              	RF_Physical_ReadControlRegister:
 241              	.LFB4:
 278:.\Generated_Source\PSoC5/RF_Physical.c **** }
 279:.\Generated_Source\PSoC5/RF_Physical.c **** 
 280:.\Generated_Source\PSoC5/RF_Physical.c **** 
 281:.\Generated_Source\PSoC5/RF_Physical.c **** /*******************************************************************************
 282:.\Generated_Source\PSoC5/RF_Physical.c **** * Function Name: RF_Physical_ReadControlRegister
 283:.\Generated_Source\PSoC5/RF_Physical.c **** ********************************************************************************
 284:.\Generated_Source\PSoC5/RF_Physical.c **** *
 285:.\Generated_Source\PSoC5/RF_Physical.c **** * Summary:
 286:.\Generated_Source\PSoC5/RF_Physical.c **** *  Returns the current value of the control register.
 287:.\Generated_Source\PSoC5/RF_Physical.c **** *
 288:.\Generated_Source\PSoC5/RF_Physical.c **** * Parameters:
 289:.\Generated_Source\PSoC5/RF_Physical.c **** *  None.
 290:.\Generated_Source\PSoC5/RF_Physical.c **** *
 291:.\Generated_Source\PSoC5/RF_Physical.c **** * Return:
 292:.\Generated_Source\PSoC5/RF_Physical.c **** *  Contents of the control register.
 293:.\Generated_Source\PSoC5/RF_Physical.c **** *
 294:.\Generated_Source\PSoC5/RF_Physical.c **** *******************************************************************************/
 295:.\Generated_Source\PSoC5/RF_Physical.c **** uint8 RF_Physical_ReadControlRegister(void) 
 296:.\Generated_Source\PSoC5/RF_Physical.c **** {
 242              		.loc 1 296 0
 243              		.cfi_startproc
 244              		@ args = 0, pretend = 0, frame = 0
 245              		@ frame_needed = 0, uses_anonymous_args = 0
 246              		@ link register save eliminated.
 297:.\Generated_Source\PSoC5/RF_Physical.c ****     #if (RF_Physical_CONTROL_REG_REMOVED)
 298:.\Generated_Source\PSoC5/RF_Physical.c ****         return(0u);
 299:.\Generated_Source\PSoC5/RF_Physical.c ****     #else
 300:.\Generated_Source\PSoC5/RF_Physical.c ****         return(RF_Physical_CONTROL_REG);
 301:.\Generated_Source\PSoC5/RF_Physical.c ****     #endif /* (RF_Physical_CONTROL_REG_REMOVED) */
 302:.\Generated_Source\PSoC5/RF_Physical.c **** }
 247              		.loc 1 302 0
 248 0000 0020     		movs	r0, #0
 249 0002 7047     		bx	lr
 250              		.cfi_endproc
 251              	.LFE4:
 252              		.size	RF_Physical_ReadControlRegister, .-RF_Physical_ReadControlRegister
 253              		.section	.text.RF_Physical_WriteControlRegister,"ax",%progbits
 254              		.align	2
 255              		.global	RF_Physical_WriteControlRegister
 256              		.thumb
 257              		.thumb_func
 258              		.type	RF_Physical_WriteControlRegister, %function
 259              	RF_Physical_WriteControlRegister:
 260              	.LFB5:
 303:.\Generated_Source\PSoC5/RF_Physical.c **** 
 304:.\Generated_Source\PSoC5/RF_Physical.c **** 
 305:.\Generated_Source\PSoC5/RF_Physical.c **** /*******************************************************************************
ARM GAS  C:\Users\RECEPC~1\AppData\Local\Temp\ccyux4kk.s 			page 11


 306:.\Generated_Source\PSoC5/RF_Physical.c **** * Function Name: RF_Physical_WriteControlRegister
 307:.\Generated_Source\PSoC5/RF_Physical.c **** ********************************************************************************
 308:.\Generated_Source\PSoC5/RF_Physical.c **** *
 309:.\Generated_Source\PSoC5/RF_Physical.c **** * Summary:
 310:.\Generated_Source\PSoC5/RF_Physical.c **** *  Writes an 8-bit value into the control register
 311:.\Generated_Source\PSoC5/RF_Physical.c **** *
 312:.\Generated_Source\PSoC5/RF_Physical.c **** * Parameters:
 313:.\Generated_Source\PSoC5/RF_Physical.c **** *  control:  control register value
 314:.\Generated_Source\PSoC5/RF_Physical.c **** *
 315:.\Generated_Source\PSoC5/RF_Physical.c **** * Return:
 316:.\Generated_Source\PSoC5/RF_Physical.c **** *  None.
 317:.\Generated_Source\PSoC5/RF_Physical.c **** *
 318:.\Generated_Source\PSoC5/RF_Physical.c **** *******************************************************************************/
 319:.\Generated_Source\PSoC5/RF_Physical.c **** void  RF_Physical_WriteControlRegister(uint8 control) 
 320:.\Generated_Source\PSoC5/RF_Physical.c **** {
 261              		.loc 1 320 0
 262              		.cfi_startproc
 263              		@ args = 0, pretend = 0, frame = 0
 264              		@ frame_needed = 0, uses_anonymous_args = 0
 265              		@ link register save eliminated.
 266              	.LVL14:
 267 0000 7047     		bx	lr
 268              		.cfi_endproc
 269              	.LFE5:
 270              		.size	RF_Physical_WriteControlRegister, .-RF_Physical_WriteControlRegister
 271 0002 00BF     		.section	.text.RF_Physical_SetRxInterruptMode,"ax",%progbits
 272              		.align	2
 273              		.global	RF_Physical_SetRxInterruptMode
 274              		.thumb
 275              		.thumb_func
 276              		.type	RF_Physical_SetRxInterruptMode, %function
 277              	RF_Physical_SetRxInterruptMode:
 278              	.LFB6:
 321:.\Generated_Source\PSoC5/RF_Physical.c ****     #if (RF_Physical_CONTROL_REG_REMOVED)
 322:.\Generated_Source\PSoC5/RF_Physical.c ****         if(0u != control)
 323:.\Generated_Source\PSoC5/RF_Physical.c ****         {
 324:.\Generated_Source\PSoC5/RF_Physical.c ****             /* Suppress compiler warning */
 325:.\Generated_Source\PSoC5/RF_Physical.c ****         }
 326:.\Generated_Source\PSoC5/RF_Physical.c ****     #else
 327:.\Generated_Source\PSoC5/RF_Physical.c ****        RF_Physical_CONTROL_REG = control;
 328:.\Generated_Source\PSoC5/RF_Physical.c ****     #endif /* (RF_Physical_CONTROL_REG_REMOVED) */
 329:.\Generated_Source\PSoC5/RF_Physical.c **** }
 330:.\Generated_Source\PSoC5/RF_Physical.c **** 
 331:.\Generated_Source\PSoC5/RF_Physical.c **** 
 332:.\Generated_Source\PSoC5/RF_Physical.c **** #if(RF_Physical_RX_ENABLED || RF_Physical_HD_ENABLED)
 333:.\Generated_Source\PSoC5/RF_Physical.c ****     /*******************************************************************************
 334:.\Generated_Source\PSoC5/RF_Physical.c ****     * Function Name: RF_Physical_SetRxInterruptMode
 335:.\Generated_Source\PSoC5/RF_Physical.c ****     ********************************************************************************
 336:.\Generated_Source\PSoC5/RF_Physical.c ****     *
 337:.\Generated_Source\PSoC5/RF_Physical.c ****     * Summary:
 338:.\Generated_Source\PSoC5/RF_Physical.c ****     *  Configures the RX interrupt sources enabled.
 339:.\Generated_Source\PSoC5/RF_Physical.c ****     *
 340:.\Generated_Source\PSoC5/RF_Physical.c ****     * Parameters:
 341:.\Generated_Source\PSoC5/RF_Physical.c ****     *  IntSrc:  Bit field containing the RX interrupts to enable. Based on the 
 342:.\Generated_Source\PSoC5/RF_Physical.c ****     *  bit-field arrangement of the status register. This value must be a 
 343:.\Generated_Source\PSoC5/RF_Physical.c ****     *  combination of status register bit-masks shown below:
 344:.\Generated_Source\PSoC5/RF_Physical.c ****     *      RF_Physical_RX_STS_FIFO_NOTEMPTY    Interrupt on byte received.
ARM GAS  C:\Users\RECEPC~1\AppData\Local\Temp\ccyux4kk.s 			page 12


 345:.\Generated_Source\PSoC5/RF_Physical.c ****     *      RF_Physical_RX_STS_PAR_ERROR        Interrupt on parity error.
 346:.\Generated_Source\PSoC5/RF_Physical.c ****     *      RF_Physical_RX_STS_STOP_ERROR       Interrupt on stop error.
 347:.\Generated_Source\PSoC5/RF_Physical.c ****     *      RF_Physical_RX_STS_BREAK            Interrupt on break.
 348:.\Generated_Source\PSoC5/RF_Physical.c ****     *      RF_Physical_RX_STS_OVERRUN          Interrupt on overrun error.
 349:.\Generated_Source\PSoC5/RF_Physical.c ****     *      RF_Physical_RX_STS_ADDR_MATCH       Interrupt on address match.
 350:.\Generated_Source\PSoC5/RF_Physical.c ****     *      RF_Physical_RX_STS_MRKSPC           Interrupt on address detect.
 351:.\Generated_Source\PSoC5/RF_Physical.c ****     *
 352:.\Generated_Source\PSoC5/RF_Physical.c ****     * Return:
 353:.\Generated_Source\PSoC5/RF_Physical.c ****     *  None.
 354:.\Generated_Source\PSoC5/RF_Physical.c ****     *
 355:.\Generated_Source\PSoC5/RF_Physical.c ****     * Theory:
 356:.\Generated_Source\PSoC5/RF_Physical.c ****     *  Enables the output of specific status bits to the interrupt controller
 357:.\Generated_Source\PSoC5/RF_Physical.c ****     *
 358:.\Generated_Source\PSoC5/RF_Physical.c ****     *******************************************************************************/
 359:.\Generated_Source\PSoC5/RF_Physical.c ****     void RF_Physical_SetRxInterruptMode(uint8 intSrc) 
 360:.\Generated_Source\PSoC5/RF_Physical.c ****     {
 279              		.loc 1 360 0
 280              		.cfi_startproc
 281              		@ args = 0, pretend = 0, frame = 0
 282              		@ frame_needed = 0, uses_anonymous_args = 0
 283              		@ link register save eliminated.
 284              	.LVL15:
 361:.\Generated_Source\PSoC5/RF_Physical.c ****         RF_Physical_RXSTATUS_MASK_REG  = intSrc;
 285              		.loc 1 361 0
 286 0000 014B     		ldr	r3, .L21
 287 0002 1870     		strb	r0, [r3]
 288 0004 7047     		bx	lr
 289              	.L22:
 290 0006 00BF     		.align	2
 291              	.L21:
 292 0008 83640040 		.word	1073767555
 293              		.cfi_endproc
 294              	.LFE6:
 295              		.size	RF_Physical_SetRxInterruptMode, .-RF_Physical_SetRxInterruptMode
 296              		.section	.text.RF_Physical_ReadRxData,"ax",%progbits
 297              		.align	2
 298              		.global	RF_Physical_ReadRxData
 299              		.thumb
 300              		.thumb_func
 301              		.type	RF_Physical_ReadRxData, %function
 302              	RF_Physical_ReadRxData:
 303              	.LFB7:
 362:.\Generated_Source\PSoC5/RF_Physical.c ****     }
 363:.\Generated_Source\PSoC5/RF_Physical.c **** 
 364:.\Generated_Source\PSoC5/RF_Physical.c **** 
 365:.\Generated_Source\PSoC5/RF_Physical.c ****     /*******************************************************************************
 366:.\Generated_Source\PSoC5/RF_Physical.c ****     * Function Name: RF_Physical_ReadRxData
 367:.\Generated_Source\PSoC5/RF_Physical.c ****     ********************************************************************************
 368:.\Generated_Source\PSoC5/RF_Physical.c ****     *
 369:.\Generated_Source\PSoC5/RF_Physical.c ****     * Summary:
 370:.\Generated_Source\PSoC5/RF_Physical.c ****     *  Returns the next byte of received data. This function returns data without
 371:.\Generated_Source\PSoC5/RF_Physical.c ****     *  checking the status. You must check the status separately.
 372:.\Generated_Source\PSoC5/RF_Physical.c ****     *
 373:.\Generated_Source\PSoC5/RF_Physical.c ****     * Parameters:
 374:.\Generated_Source\PSoC5/RF_Physical.c ****     *  None.
 375:.\Generated_Source\PSoC5/RF_Physical.c ****     *
 376:.\Generated_Source\PSoC5/RF_Physical.c ****     * Return:
ARM GAS  C:\Users\RECEPC~1\AppData\Local\Temp\ccyux4kk.s 			page 13


 377:.\Generated_Source\PSoC5/RF_Physical.c ****     *  Received data from RX register
 378:.\Generated_Source\PSoC5/RF_Physical.c ****     *
 379:.\Generated_Source\PSoC5/RF_Physical.c ****     * Global Variables:
 380:.\Generated_Source\PSoC5/RF_Physical.c ****     *  RF_Physical_rxBuffer - RAM buffer pointer for save received data.
 381:.\Generated_Source\PSoC5/RF_Physical.c ****     *  RF_Physical_rxBufferWrite - cyclic index for write to rxBuffer,
 382:.\Generated_Source\PSoC5/RF_Physical.c ****     *     checked to identify new data.
 383:.\Generated_Source\PSoC5/RF_Physical.c ****     *  RF_Physical_rxBufferRead - cyclic index for read from rxBuffer,
 384:.\Generated_Source\PSoC5/RF_Physical.c ****     *     incremented after each byte has been read from buffer.
 385:.\Generated_Source\PSoC5/RF_Physical.c ****     *  RF_Physical_rxBufferLoopDetect - cleared if loop condition was detected
 386:.\Generated_Source\PSoC5/RF_Physical.c ****     *     in RX ISR.
 387:.\Generated_Source\PSoC5/RF_Physical.c ****     *
 388:.\Generated_Source\PSoC5/RF_Physical.c ****     * Reentrant:
 389:.\Generated_Source\PSoC5/RF_Physical.c ****     *  No.
 390:.\Generated_Source\PSoC5/RF_Physical.c ****     *
 391:.\Generated_Source\PSoC5/RF_Physical.c ****     *******************************************************************************/
 392:.\Generated_Source\PSoC5/RF_Physical.c ****     uint8 RF_Physical_ReadRxData(void) 
 393:.\Generated_Source\PSoC5/RF_Physical.c ****     {
 304              		.loc 1 393 0
 305              		.cfi_startproc
 306              		@ args = 0, pretend = 0, frame = 0
 307              		@ frame_needed = 0, uses_anonymous_args = 0
 308              		@ link register save eliminated.
 394:.\Generated_Source\PSoC5/RF_Physical.c ****         uint8 rxData;
 395:.\Generated_Source\PSoC5/RF_Physical.c **** 
 396:.\Generated_Source\PSoC5/RF_Physical.c ****     #if (RF_Physical_RX_INTERRUPT_ENABLED)
 397:.\Generated_Source\PSoC5/RF_Physical.c **** 
 398:.\Generated_Source\PSoC5/RF_Physical.c ****         uint16 locRxBufferRead;
 399:.\Generated_Source\PSoC5/RF_Physical.c ****         uint16 locRxBufferWrite;
 400:.\Generated_Source\PSoC5/RF_Physical.c **** 
 401:.\Generated_Source\PSoC5/RF_Physical.c ****         /* Protect variables that could change on interrupt */
 402:.\Generated_Source\PSoC5/RF_Physical.c ****         RF_Physical_DisableRxInt();
 309              		.loc 1 402 0
 310 0000 0822     		movs	r2, #8
 311 0002 134B     		ldr	r3, .L29
 312 0004 1A60     		str	r2, [r3]
 403:.\Generated_Source\PSoC5/RF_Physical.c **** 
 404:.\Generated_Source\PSoC5/RF_Physical.c ****         locRxBufferRead  = RF_Physical_rxBufferRead;
 313              		.loc 1 404 0
 314 0006 134A     		ldr	r2, .L29+4
 315 0008 5388     		ldrh	r3, [r2, #2]
 316 000a 9BB2     		uxth	r3, r3
 317              	.LVL16:
 405:.\Generated_Source\PSoC5/RF_Physical.c ****         locRxBufferWrite = RF_Physical_rxBufferWrite;
 318              		.loc 1 405 0
 319 000c 9188     		ldrh	r1, [r2, #4]
 320 000e 89B2     		uxth	r1, r1
 321              	.LVL17:
 406:.\Generated_Source\PSoC5/RF_Physical.c **** 
 407:.\Generated_Source\PSoC5/RF_Physical.c ****         if( (RF_Physical_rxBufferLoopDetect != 0u) || (locRxBufferRead != locRxBufferWrite) )
 322              		.loc 1 407 0
 323 0010 9279     		ldrb	r2, [r2, #6]	@ zero_extendqisi2
 324 0012 12F0FF0F 		tst	r2, #255
 325 0016 01D1     		bne	.L24
 326              		.loc 1 407 0 is_stmt 0 discriminator 1
 327 0018 8B42     		cmp	r3, r1
 328 001a 12D0     		beq	.L25
 329              	.L24:
ARM GAS  C:\Users\RECEPC~1\AppData\Local\Temp\ccyux4kk.s 			page 14


 408:.\Generated_Source\PSoC5/RF_Physical.c ****         {
 409:.\Generated_Source\PSoC5/RF_Physical.c ****             rxData = RF_Physical_rxBuffer[locRxBufferRead];
 330              		.loc 1 409 0 is_stmt 1
 331 001c 0E4A     		ldr	r2, .L29+8
 332 001e D05C     		ldrb	r0, [r2, r3]	@ zero_extendqisi2
 333 0020 C0B2     		uxtb	r0, r0
 334              	.LVL18:
 410:.\Generated_Source\PSoC5/RF_Physical.c ****             locRxBufferRead++;
 335              		.loc 1 410 0
 336 0022 0133     		adds	r3, r3, #1
 337              	.LVL19:
 338 0024 9BB2     		uxth	r3, r3
 339              	.LVL20:
 411:.\Generated_Source\PSoC5/RF_Physical.c **** 
 412:.\Generated_Source\PSoC5/RF_Physical.c ****             if(locRxBufferRead >= RF_Physical_RX_BUFFER_SIZE)
 340              		.loc 1 412 0
 341 0026 B3F5007F 		cmp	r3, #512
 342 002a 00D3     		bcc	.L26
 413:.\Generated_Source\PSoC5/RF_Physical.c ****             {
 414:.\Generated_Source\PSoC5/RF_Physical.c ****                 locRxBufferRead = 0u;
 343              		.loc 1 414 0
 344 002c 0023     		movs	r3, #0
 345              	.LVL21:
 346              	.L26:
 415:.\Generated_Source\PSoC5/RF_Physical.c ****             }
 416:.\Generated_Source\PSoC5/RF_Physical.c ****             /* Update the real pointer */
 417:.\Generated_Source\PSoC5/RF_Physical.c ****             RF_Physical_rxBufferRead = locRxBufferRead;
 347              		.loc 1 417 0
 348 002e 094A     		ldr	r2, .L29+4
 349 0030 5380     		strh	r3, [r2, #2]	@ movhi
 418:.\Generated_Source\PSoC5/RF_Physical.c **** 
 419:.\Generated_Source\PSoC5/RF_Physical.c ****             if(RF_Physical_rxBufferLoopDetect != 0u)
 350              		.loc 1 419 0
 351 0032 9379     		ldrb	r3, [r2, #6]	@ zero_extendqisi2
 352              	.LVL22:
 353 0034 13F0FF0F 		tst	r3, #255
 354 0038 06D0     		beq	.L27
 420:.\Generated_Source\PSoC5/RF_Physical.c ****             {
 421:.\Generated_Source\PSoC5/RF_Physical.c ****                 RF_Physical_rxBufferLoopDetect = 0u;
 355              		.loc 1 421 0
 356 003a 0022     		movs	r2, #0
 357 003c 054B     		ldr	r3, .L29+4
 358 003e 9A71     		strb	r2, [r3, #6]
 359              	.LVL23:
 360 0040 02E0     		b	.L27
 361              	.LVL24:
 362              	.L25:
 422:.\Generated_Source\PSoC5/RF_Physical.c ****                 #if ((RF_Physical_RX_INTERRUPT_ENABLED) && (RF_Physical_FLOW_CONTROL != 0u))
 423:.\Generated_Source\PSoC5/RF_Physical.c ****                     /* When Hardware Flow Control selected - return RX mask */
 424:.\Generated_Source\PSoC5/RF_Physical.c ****                     #if( RF_Physical_HD_ENABLED )
 425:.\Generated_Source\PSoC5/RF_Physical.c ****                         if((RF_Physical_CONTROL_REG & RF_Physical_CTRL_HD_SEND) == 0u)
 426:.\Generated_Source\PSoC5/RF_Physical.c ****                         {   /* In Half duplex mode return RX mask only in RX
 427:.\Generated_Source\PSoC5/RF_Physical.c ****                             *  configuration set, otherwise
 428:.\Generated_Source\PSoC5/RF_Physical.c ****                             *  mask will be returned in LoadRxConfig() API.
 429:.\Generated_Source\PSoC5/RF_Physical.c ****                             */
 430:.\Generated_Source\PSoC5/RF_Physical.c ****                             RF_Physical_RXSTATUS_MASK_REG  |= RF_Physical_RX_STS_FIFO_NOTEMPTY;
 431:.\Generated_Source\PSoC5/RF_Physical.c ****                         }
ARM GAS  C:\Users\RECEPC~1\AppData\Local\Temp\ccyux4kk.s 			page 15


 432:.\Generated_Source\PSoC5/RF_Physical.c ****                     #else
 433:.\Generated_Source\PSoC5/RF_Physical.c ****                         RF_Physical_RXSTATUS_MASK_REG  |= RF_Physical_RX_STS_FIFO_NOTEMPTY;
 434:.\Generated_Source\PSoC5/RF_Physical.c ****                     #endif /* end RF_Physical_HD_ENABLED */
 435:.\Generated_Source\PSoC5/RF_Physical.c ****                 #endif /* ((RF_Physical_RX_INTERRUPT_ENABLED) && (RF_Physical_FLOW_CONTROL != 0u)) 
 436:.\Generated_Source\PSoC5/RF_Physical.c ****             }
 437:.\Generated_Source\PSoC5/RF_Physical.c ****         }
 438:.\Generated_Source\PSoC5/RF_Physical.c ****         else
 439:.\Generated_Source\PSoC5/RF_Physical.c ****         {   /* Needs to check status for RX_STS_FIFO_NOTEMPTY bit */
 440:.\Generated_Source\PSoC5/RF_Physical.c ****             rxData = RF_Physical_RXDATA_REG;
 363              		.loc 1 440 0
 364 0042 064B     		ldr	r3, .L29+12
 365              	.LVL25:
 366 0044 1878     		ldrb	r0, [r3]	@ zero_extendqisi2
 367 0046 C0B2     		uxtb	r0, r0
 368              	.LVL26:
 369              	.L27:
 441:.\Generated_Source\PSoC5/RF_Physical.c ****         }
 442:.\Generated_Source\PSoC5/RF_Physical.c **** 
 443:.\Generated_Source\PSoC5/RF_Physical.c ****         RF_Physical_EnableRxInt();
 370              		.loc 1 443 0
 371 0048 0822     		movs	r2, #8
 372 004a 054B     		ldr	r3, .L29+16
 373 004c 1A60     		str	r2, [r3]
 444:.\Generated_Source\PSoC5/RF_Physical.c **** 
 445:.\Generated_Source\PSoC5/RF_Physical.c ****     #else
 446:.\Generated_Source\PSoC5/RF_Physical.c **** 
 447:.\Generated_Source\PSoC5/RF_Physical.c ****         /* Needs to check status for RX_STS_FIFO_NOTEMPTY bit */
 448:.\Generated_Source\PSoC5/RF_Physical.c ****         rxData = RF_Physical_RXDATA_REG;
 449:.\Generated_Source\PSoC5/RF_Physical.c **** 
 450:.\Generated_Source\PSoC5/RF_Physical.c ****     #endif /* (RF_Physical_RX_INTERRUPT_ENABLED) */
 451:.\Generated_Source\PSoC5/RF_Physical.c **** 
 452:.\Generated_Source\PSoC5/RF_Physical.c ****         return(rxData);
 453:.\Generated_Source\PSoC5/RF_Physical.c ****     }
 374              		.loc 1 453 0
 375 004e 7047     		bx	lr
 376              	.L30:
 377              		.align	2
 378              	.L29:
 379 0050 80E100E0 		.word	-536813184
 380 0054 00000000 		.word	.LANCHOR0
 381 0058 00000000 		.word	RF_Physical_rxBuffer
 382 005c 40640040 		.word	1073767488
 383 0060 00E100E0 		.word	-536813312
 384              		.cfi_endproc
 385              	.LFE7:
 386              		.size	RF_Physical_ReadRxData, .-RF_Physical_ReadRxData
 387              		.section	.text.RF_Physical_ReadRxStatus,"ax",%progbits
 388              		.align	2
 389              		.global	RF_Physical_ReadRxStatus
 390              		.thumb
 391              		.thumb_func
 392              		.type	RF_Physical_ReadRxStatus, %function
 393              	RF_Physical_ReadRxStatus:
 394              	.LFB8:
 454:.\Generated_Source\PSoC5/RF_Physical.c **** 
 455:.\Generated_Source\PSoC5/RF_Physical.c **** 
 456:.\Generated_Source\PSoC5/RF_Physical.c ****     /*******************************************************************************
ARM GAS  C:\Users\RECEPC~1\AppData\Local\Temp\ccyux4kk.s 			page 16


 457:.\Generated_Source\PSoC5/RF_Physical.c ****     * Function Name: RF_Physical_ReadRxStatus
 458:.\Generated_Source\PSoC5/RF_Physical.c ****     ********************************************************************************
 459:.\Generated_Source\PSoC5/RF_Physical.c ****     *
 460:.\Generated_Source\PSoC5/RF_Physical.c ****     * Summary:
 461:.\Generated_Source\PSoC5/RF_Physical.c ****     *  Returns the current state of the receiver status register and the software
 462:.\Generated_Source\PSoC5/RF_Physical.c ****     *  buffer overflow status.
 463:.\Generated_Source\PSoC5/RF_Physical.c ****     *
 464:.\Generated_Source\PSoC5/RF_Physical.c ****     * Parameters:
 465:.\Generated_Source\PSoC5/RF_Physical.c ****     *  None.
 466:.\Generated_Source\PSoC5/RF_Physical.c ****     *
 467:.\Generated_Source\PSoC5/RF_Physical.c ****     * Return:
 468:.\Generated_Source\PSoC5/RF_Physical.c ****     *  Current state of the status register.
 469:.\Generated_Source\PSoC5/RF_Physical.c ****     *
 470:.\Generated_Source\PSoC5/RF_Physical.c ****     * Side Effect:
 471:.\Generated_Source\PSoC5/RF_Physical.c ****     *  All status register bits are clear-on-read except
 472:.\Generated_Source\PSoC5/RF_Physical.c ****     *  RF_Physical_RX_STS_FIFO_NOTEMPTY.
 473:.\Generated_Source\PSoC5/RF_Physical.c ****     *  RF_Physical_RX_STS_FIFO_NOTEMPTY clears immediately after RX data
 474:.\Generated_Source\PSoC5/RF_Physical.c ****     *  register read.
 475:.\Generated_Source\PSoC5/RF_Physical.c ****     *
 476:.\Generated_Source\PSoC5/RF_Physical.c ****     * Global Variables:
 477:.\Generated_Source\PSoC5/RF_Physical.c ****     *  RF_Physical_rxBufferOverflow - used to indicate overload condition.
 478:.\Generated_Source\PSoC5/RF_Physical.c ****     *   It set to one in RX interrupt when there isn't free space in
 479:.\Generated_Source\PSoC5/RF_Physical.c ****     *   RF_Physical_rxBufferRead to write new data. This condition returned
 480:.\Generated_Source\PSoC5/RF_Physical.c ****     *   and cleared to zero by this API as an
 481:.\Generated_Source\PSoC5/RF_Physical.c ****     *   RF_Physical_RX_STS_SOFT_BUFF_OVER bit along with RX Status register
 482:.\Generated_Source\PSoC5/RF_Physical.c ****     *   bits.
 483:.\Generated_Source\PSoC5/RF_Physical.c ****     *
 484:.\Generated_Source\PSoC5/RF_Physical.c ****     *******************************************************************************/
 485:.\Generated_Source\PSoC5/RF_Physical.c ****     uint8 RF_Physical_ReadRxStatus(void) 
 486:.\Generated_Source\PSoC5/RF_Physical.c ****     {
 395              		.loc 1 486 0
 396              		.cfi_startproc
 397              		@ args = 0, pretend = 0, frame = 0
 398              		@ frame_needed = 0, uses_anonymous_args = 0
 399              		@ link register save eliminated.
 487:.\Generated_Source\PSoC5/RF_Physical.c ****         uint8 status;
 488:.\Generated_Source\PSoC5/RF_Physical.c **** 
 489:.\Generated_Source\PSoC5/RF_Physical.c ****         status = RF_Physical_RXSTATUS_REG & RF_Physical_RX_HW_MASK;
 400              		.loc 1 489 0
 401 0000 074B     		ldr	r3, .L33
 402 0002 1878     		ldrb	r0, [r3]	@ zero_extendqisi2
 403 0004 00F07F00 		and	r0, r0, #127
 404              	.LVL27:
 490:.\Generated_Source\PSoC5/RF_Physical.c **** 
 491:.\Generated_Source\PSoC5/RF_Physical.c ****     #if (RF_Physical_RX_INTERRUPT_ENABLED)
 492:.\Generated_Source\PSoC5/RF_Physical.c ****         if(RF_Physical_rxBufferOverflow != 0u)
 405              		.loc 1 492 0
 406 0008 064B     		ldr	r3, .L33+4
 407 000a DB79     		ldrb	r3, [r3, #7]	@ zero_extendqisi2
 408 000c 13F0FF0F 		tst	r3, #255
 409 0010 04D0     		beq	.L32
 493:.\Generated_Source\PSoC5/RF_Physical.c ****         {
 494:.\Generated_Source\PSoC5/RF_Physical.c ****             status |= RF_Physical_RX_STS_SOFT_BUFF_OVER;
 410              		.loc 1 494 0
 411 0012 40F08000 		orr	r0, r0, #128
 412              	.LVL28:
 495:.\Generated_Source\PSoC5/RF_Physical.c ****             RF_Physical_rxBufferOverflow = 0u;
ARM GAS  C:\Users\RECEPC~1\AppData\Local\Temp\ccyux4kk.s 			page 17


 413              		.loc 1 495 0
 414 0016 0022     		movs	r2, #0
 415 0018 024B     		ldr	r3, .L33+4
 416 001a DA71     		strb	r2, [r3, #7]
 417              	.L32:
 496:.\Generated_Source\PSoC5/RF_Physical.c ****         }
 497:.\Generated_Source\PSoC5/RF_Physical.c ****     #endif /* (RF_Physical_RX_INTERRUPT_ENABLED) */
 498:.\Generated_Source\PSoC5/RF_Physical.c **** 
 499:.\Generated_Source\PSoC5/RF_Physical.c ****         return(status);
 500:.\Generated_Source\PSoC5/RF_Physical.c ****     }
 418              		.loc 1 500 0
 419 001c 7047     		bx	lr
 420              	.L34:
 421 001e 00BF     		.align	2
 422              	.L33:
 423 0020 63640040 		.word	1073767523
 424 0024 00000000 		.word	.LANCHOR0
 425              		.cfi_endproc
 426              	.LFE8:
 427              		.size	RF_Physical_ReadRxStatus, .-RF_Physical_ReadRxStatus
 428              		.section	.text.RF_Physical_GetChar,"ax",%progbits
 429              		.align	2
 430              		.global	RF_Physical_GetChar
 431              		.thumb
 432              		.thumb_func
 433              		.type	RF_Physical_GetChar, %function
 434              	RF_Physical_GetChar:
 435              	.LFB9:
 501:.\Generated_Source\PSoC5/RF_Physical.c **** 
 502:.\Generated_Source\PSoC5/RF_Physical.c **** 
 503:.\Generated_Source\PSoC5/RF_Physical.c ****     /*******************************************************************************
 504:.\Generated_Source\PSoC5/RF_Physical.c ****     * Function Name: RF_Physical_GetChar
 505:.\Generated_Source\PSoC5/RF_Physical.c ****     ********************************************************************************
 506:.\Generated_Source\PSoC5/RF_Physical.c ****     *
 507:.\Generated_Source\PSoC5/RF_Physical.c ****     * Summary:
 508:.\Generated_Source\PSoC5/RF_Physical.c ****     *  Returns the last received byte of data. RF_Physical_GetChar() is
 509:.\Generated_Source\PSoC5/RF_Physical.c ****     *  designed for ASCII characters and returns a uint8 where 1 to 255 are values
 510:.\Generated_Source\PSoC5/RF_Physical.c ****     *  for valid characters and 0 indicates an error occurred or no data is present.
 511:.\Generated_Source\PSoC5/RF_Physical.c ****     *
 512:.\Generated_Source\PSoC5/RF_Physical.c ****     * Parameters:
 513:.\Generated_Source\PSoC5/RF_Physical.c ****     *  None.
 514:.\Generated_Source\PSoC5/RF_Physical.c ****     *
 515:.\Generated_Source\PSoC5/RF_Physical.c ****     * Return:
 516:.\Generated_Source\PSoC5/RF_Physical.c ****     *  Character read from UART RX buffer. ASCII characters from 1 to 255 are valid.
 517:.\Generated_Source\PSoC5/RF_Physical.c ****     *  A returned zero signifies an error condition or no data available.
 518:.\Generated_Source\PSoC5/RF_Physical.c ****     *
 519:.\Generated_Source\PSoC5/RF_Physical.c ****     * Global Variables:
 520:.\Generated_Source\PSoC5/RF_Physical.c ****     *  RF_Physical_rxBuffer - RAM buffer pointer for save received data.
 521:.\Generated_Source\PSoC5/RF_Physical.c ****     *  RF_Physical_rxBufferWrite - cyclic index for write to rxBuffer,
 522:.\Generated_Source\PSoC5/RF_Physical.c ****     *     checked to identify new data.
 523:.\Generated_Source\PSoC5/RF_Physical.c ****     *  RF_Physical_rxBufferRead - cyclic index for read from rxBuffer,
 524:.\Generated_Source\PSoC5/RF_Physical.c ****     *     incremented after each byte has been read from buffer.
 525:.\Generated_Source\PSoC5/RF_Physical.c ****     *  RF_Physical_rxBufferLoopDetect - cleared if loop condition was detected
 526:.\Generated_Source\PSoC5/RF_Physical.c ****     *     in RX ISR.
 527:.\Generated_Source\PSoC5/RF_Physical.c ****     *
 528:.\Generated_Source\PSoC5/RF_Physical.c ****     * Reentrant:
 529:.\Generated_Source\PSoC5/RF_Physical.c ****     *  No.
ARM GAS  C:\Users\RECEPC~1\AppData\Local\Temp\ccyux4kk.s 			page 18


 530:.\Generated_Source\PSoC5/RF_Physical.c ****     *
 531:.\Generated_Source\PSoC5/RF_Physical.c ****     *******************************************************************************/
 532:.\Generated_Source\PSoC5/RF_Physical.c ****     uint8 RF_Physical_GetChar(void) 
 533:.\Generated_Source\PSoC5/RF_Physical.c ****     {
 436              		.loc 1 533 0
 437              		.cfi_startproc
 438              		@ args = 0, pretend = 0, frame = 0
 439              		@ frame_needed = 0, uses_anonymous_args = 0
 440              		@ link register save eliminated.
 441              	.LVL29:
 534:.\Generated_Source\PSoC5/RF_Physical.c ****         uint8 rxData = 0u;
 535:.\Generated_Source\PSoC5/RF_Physical.c ****         uint8 rxStatus;
 536:.\Generated_Source\PSoC5/RF_Physical.c **** 
 537:.\Generated_Source\PSoC5/RF_Physical.c ****     #if (RF_Physical_RX_INTERRUPT_ENABLED)
 538:.\Generated_Source\PSoC5/RF_Physical.c ****         uint16 locRxBufferRead;
 539:.\Generated_Source\PSoC5/RF_Physical.c ****         uint16 locRxBufferWrite;
 540:.\Generated_Source\PSoC5/RF_Physical.c **** 
 541:.\Generated_Source\PSoC5/RF_Physical.c ****         /* Protect variables that could change on interrupt */
 542:.\Generated_Source\PSoC5/RF_Physical.c ****         RF_Physical_DisableRxInt();
 442              		.loc 1 542 0
 443 0000 0822     		movs	r2, #8
 444 0002 1A4B     		ldr	r3, .L43
 445 0004 1A60     		str	r2, [r3]
 543:.\Generated_Source\PSoC5/RF_Physical.c **** 
 544:.\Generated_Source\PSoC5/RF_Physical.c ****         locRxBufferRead  = RF_Physical_rxBufferRead;
 446              		.loc 1 544 0
 447 0006 1A4A     		ldr	r2, .L43+4
 448 0008 5388     		ldrh	r3, [r2, #2]
 449 000a 9BB2     		uxth	r3, r3
 450              	.LVL30:
 545:.\Generated_Source\PSoC5/RF_Physical.c ****         locRxBufferWrite = RF_Physical_rxBufferWrite;
 451              		.loc 1 545 0
 452 000c 9188     		ldrh	r1, [r2, #4]
 453 000e 89B2     		uxth	r1, r1
 454              	.LVL31:
 546:.\Generated_Source\PSoC5/RF_Physical.c **** 
 547:.\Generated_Source\PSoC5/RF_Physical.c ****         if( (RF_Physical_rxBufferLoopDetect != 0u) || (locRxBufferRead != locRxBufferWrite) )
 455              		.loc 1 547 0
 456 0010 9279     		ldrb	r2, [r2, #6]	@ zero_extendqisi2
 457 0012 12F0FF0F 		tst	r2, #255
 458 0016 01D1     		bne	.L36
 459              		.loc 1 547 0 is_stmt 0 discriminator 1
 460 0018 8B42     		cmp	r3, r1
 461 001a 12D0     		beq	.L37
 462              	.L36:
 548:.\Generated_Source\PSoC5/RF_Physical.c ****         {
 549:.\Generated_Source\PSoC5/RF_Physical.c ****             rxData = RF_Physical_rxBuffer[locRxBufferRead];
 463              		.loc 1 549 0 is_stmt 1
 464 001c 154A     		ldr	r2, .L43+8
 465 001e D05C     		ldrb	r0, [r2, r3]	@ zero_extendqisi2
 466 0020 C0B2     		uxtb	r0, r0
 467              	.LVL32:
 550:.\Generated_Source\PSoC5/RF_Physical.c ****             locRxBufferRead++;
 468              		.loc 1 550 0
 469 0022 0133     		adds	r3, r3, #1
 470              	.LVL33:
 471 0024 9BB2     		uxth	r3, r3
ARM GAS  C:\Users\RECEPC~1\AppData\Local\Temp\ccyux4kk.s 			page 19


 472              	.LVL34:
 551:.\Generated_Source\PSoC5/RF_Physical.c ****             if(locRxBufferRead >= RF_Physical_RX_BUFFER_SIZE)
 473              		.loc 1 551 0
 474 0026 B3F5007F 		cmp	r3, #512
 475 002a 00D3     		bcc	.L38
 552:.\Generated_Source\PSoC5/RF_Physical.c ****             {
 553:.\Generated_Source\PSoC5/RF_Physical.c ****                 locRxBufferRead = 0u;
 476              		.loc 1 553 0
 477 002c 0023     		movs	r3, #0
 478              	.LVL35:
 479              	.L38:
 554:.\Generated_Source\PSoC5/RF_Physical.c ****             }
 555:.\Generated_Source\PSoC5/RF_Physical.c ****             /* Update the real pointer */
 556:.\Generated_Source\PSoC5/RF_Physical.c ****             RF_Physical_rxBufferRead = locRxBufferRead;
 480              		.loc 1 556 0
 481 002e 104A     		ldr	r2, .L43+4
 482 0030 5380     		strh	r3, [r2, #2]	@ movhi
 557:.\Generated_Source\PSoC5/RF_Physical.c **** 
 558:.\Generated_Source\PSoC5/RF_Physical.c ****             if(RF_Physical_rxBufferLoopDetect != 0u)
 483              		.loc 1 558 0
 484 0032 9379     		ldrb	r3, [r2, #6]	@ zero_extendqisi2
 485              	.LVL36:
 486 0034 13F0FF0F 		tst	r3, #255
 487 0038 13D0     		beq	.L39
 559:.\Generated_Source\PSoC5/RF_Physical.c ****             {
 560:.\Generated_Source\PSoC5/RF_Physical.c ****                 RF_Physical_rxBufferLoopDetect = 0u;
 488              		.loc 1 560 0
 489 003a 0022     		movs	r2, #0
 490 003c 0C4B     		ldr	r3, .L43+4
 491 003e 9A71     		strb	r2, [r3, #6]
 492              	.LVL37:
 493 0040 0FE0     		b	.L39
 494              	.LVL38:
 495              	.L37:
 561:.\Generated_Source\PSoC5/RF_Physical.c ****                 #if( (RF_Physical_RX_INTERRUPT_ENABLED) && (RF_Physical_FLOW_CONTROL != 0u) )
 562:.\Generated_Source\PSoC5/RF_Physical.c ****                     /* When Hardware Flow Control selected - return RX mask */
 563:.\Generated_Source\PSoC5/RF_Physical.c ****                     #if( RF_Physical_HD_ENABLED )
 564:.\Generated_Source\PSoC5/RF_Physical.c ****                         if((RF_Physical_CONTROL_REG & RF_Physical_CTRL_HD_SEND) == 0u)
 565:.\Generated_Source\PSoC5/RF_Physical.c ****                         {   /* In Half duplex mode return RX mask only if
 566:.\Generated_Source\PSoC5/RF_Physical.c ****                             *  RX configuration set, otherwise
 567:.\Generated_Source\PSoC5/RF_Physical.c ****                             *  mask will be returned in LoadRxConfig() API.
 568:.\Generated_Source\PSoC5/RF_Physical.c ****                             */
 569:.\Generated_Source\PSoC5/RF_Physical.c ****                             RF_Physical_RXSTATUS_MASK_REG |= RF_Physical_RX_STS_FIFO_NOTEMPTY;
 570:.\Generated_Source\PSoC5/RF_Physical.c ****                         }
 571:.\Generated_Source\PSoC5/RF_Physical.c ****                     #else
 572:.\Generated_Source\PSoC5/RF_Physical.c ****                         RF_Physical_RXSTATUS_MASK_REG |= RF_Physical_RX_STS_FIFO_NOTEMPTY;
 573:.\Generated_Source\PSoC5/RF_Physical.c ****                     #endif /* end RF_Physical_HD_ENABLED */
 574:.\Generated_Source\PSoC5/RF_Physical.c ****                 #endif /* RF_Physical_RX_INTERRUPT_ENABLED and Hardware flow control*/
 575:.\Generated_Source\PSoC5/RF_Physical.c ****             }
 576:.\Generated_Source\PSoC5/RF_Physical.c **** 
 577:.\Generated_Source\PSoC5/RF_Physical.c ****         }
 578:.\Generated_Source\PSoC5/RF_Physical.c ****         else
 579:.\Generated_Source\PSoC5/RF_Physical.c ****         {   rxStatus = RF_Physical_RXSTATUS_REG;
 496              		.loc 1 579 0
 497 0042 0D4B     		ldr	r3, .L43+12
 498              	.LVL39:
 499 0044 1B78     		ldrb	r3, [r3]	@ zero_extendqisi2
ARM GAS  C:\Users\RECEPC~1\AppData\Local\Temp\ccyux4kk.s 			page 20


 500 0046 DBB2     		uxtb	r3, r3
 501              	.LVL40:
 580:.\Generated_Source\PSoC5/RF_Physical.c ****             if((rxStatus & RF_Physical_RX_STS_FIFO_NOTEMPTY) != 0u)
 502              		.loc 1 580 0
 503 0048 13F0200F 		tst	r3, #32
 504 004c 06D0     		beq	.L41
 581:.\Generated_Source\PSoC5/RF_Physical.c ****             {   /* Read received data from FIFO */
 582:.\Generated_Source\PSoC5/RF_Physical.c ****                 rxData = RF_Physical_RXDATA_REG;
 505              		.loc 1 582 0
 506 004e 0B4A     		ldr	r2, .L43+16
 507 0050 1078     		ldrb	r0, [r2]	@ zero_extendqisi2
 508 0052 C0B2     		uxtb	r0, r0
 509              	.LVL41:
 583:.\Generated_Source\PSoC5/RF_Physical.c ****                 /*Check status on error*/
 584:.\Generated_Source\PSoC5/RF_Physical.c ****                 if((rxStatus & (RF_Physical_RX_STS_BREAK | RF_Physical_RX_STS_PAR_ERROR |
 510              		.loc 1 584 0
 511 0054 13F01E0F 		tst	r3, #30
 512 0058 02D1     		bne	.L42
 513 005a 02E0     		b	.L39
 514              	.LVL42:
 515              	.L41:
 534:.\Generated_Source\PSoC5/RF_Physical.c ****         uint8 rxStatus;
 516              		.loc 1 534 0
 517 005c 0020     		movs	r0, #0
 518 005e 00E0     		b	.L39
 519              	.LVL43:
 520              	.L42:
 585:.\Generated_Source\PSoC5/RF_Physical.c ****                                 RF_Physical_RX_STS_STOP_ERROR | RF_Physical_RX_STS_OVERRUN)) != 0u)
 586:.\Generated_Source\PSoC5/RF_Physical.c ****                 {
 587:.\Generated_Source\PSoC5/RF_Physical.c ****                     rxData = 0u;
 521              		.loc 1 587 0
 522 0060 0020     		movs	r0, #0
 523              	.LVL44:
 524              	.L39:
 588:.\Generated_Source\PSoC5/RF_Physical.c ****                 }
 589:.\Generated_Source\PSoC5/RF_Physical.c ****             }
 590:.\Generated_Source\PSoC5/RF_Physical.c ****         }
 591:.\Generated_Source\PSoC5/RF_Physical.c **** 
 592:.\Generated_Source\PSoC5/RF_Physical.c ****         RF_Physical_EnableRxInt();
 525              		.loc 1 592 0
 526 0062 0822     		movs	r2, #8
 527 0064 064B     		ldr	r3, .L43+20
 528 0066 1A60     		str	r2, [r3]
 593:.\Generated_Source\PSoC5/RF_Physical.c **** 
 594:.\Generated_Source\PSoC5/RF_Physical.c ****     #else
 595:.\Generated_Source\PSoC5/RF_Physical.c **** 
 596:.\Generated_Source\PSoC5/RF_Physical.c ****         rxStatus =RF_Physical_RXSTATUS_REG;
 597:.\Generated_Source\PSoC5/RF_Physical.c ****         if((rxStatus & RF_Physical_RX_STS_FIFO_NOTEMPTY) != 0u)
 598:.\Generated_Source\PSoC5/RF_Physical.c ****         {
 599:.\Generated_Source\PSoC5/RF_Physical.c ****             /* Read received data from FIFO */
 600:.\Generated_Source\PSoC5/RF_Physical.c ****             rxData = RF_Physical_RXDATA_REG;
 601:.\Generated_Source\PSoC5/RF_Physical.c **** 
 602:.\Generated_Source\PSoC5/RF_Physical.c ****             /*Check status on error*/
 603:.\Generated_Source\PSoC5/RF_Physical.c ****             if((rxStatus & (RF_Physical_RX_STS_BREAK | RF_Physical_RX_STS_PAR_ERROR |
 604:.\Generated_Source\PSoC5/RF_Physical.c ****                             RF_Physical_RX_STS_STOP_ERROR | RF_Physical_RX_STS_OVERRUN)) != 0u)
 605:.\Generated_Source\PSoC5/RF_Physical.c ****             {
 606:.\Generated_Source\PSoC5/RF_Physical.c ****                 rxData = 0u;
ARM GAS  C:\Users\RECEPC~1\AppData\Local\Temp\ccyux4kk.s 			page 21


 607:.\Generated_Source\PSoC5/RF_Physical.c ****             }
 608:.\Generated_Source\PSoC5/RF_Physical.c ****         }
 609:.\Generated_Source\PSoC5/RF_Physical.c ****     #endif /* (RF_Physical_RX_INTERRUPT_ENABLED) */
 610:.\Generated_Source\PSoC5/RF_Physical.c **** 
 611:.\Generated_Source\PSoC5/RF_Physical.c ****         return(rxData);
 612:.\Generated_Source\PSoC5/RF_Physical.c ****     }
 529              		.loc 1 612 0
 530 0068 7047     		bx	lr
 531              	.L44:
 532 006a 00BF     		.align	2
 533              	.L43:
 534 006c 80E100E0 		.word	-536813184
 535 0070 00000000 		.word	.LANCHOR0
 536 0074 00000000 		.word	RF_Physical_rxBuffer
 537 0078 63640040 		.word	1073767523
 538 007c 40640040 		.word	1073767488
 539 0080 00E100E0 		.word	-536813312
 540              		.cfi_endproc
 541              	.LFE9:
 542              		.size	RF_Physical_GetChar, .-RF_Physical_GetChar
 543              		.section	.text.RF_Physical_GetByte,"ax",%progbits
 544              		.align	2
 545              		.global	RF_Physical_GetByte
 546              		.thumb
 547              		.thumb_func
 548              		.type	RF_Physical_GetByte, %function
 549              	RF_Physical_GetByte:
 550              	.LFB10:
 613:.\Generated_Source\PSoC5/RF_Physical.c **** 
 614:.\Generated_Source\PSoC5/RF_Physical.c **** 
 615:.\Generated_Source\PSoC5/RF_Physical.c ****     /*******************************************************************************
 616:.\Generated_Source\PSoC5/RF_Physical.c ****     * Function Name: RF_Physical_GetByte
 617:.\Generated_Source\PSoC5/RF_Physical.c ****     ********************************************************************************
 618:.\Generated_Source\PSoC5/RF_Physical.c ****     *
 619:.\Generated_Source\PSoC5/RF_Physical.c ****     * Summary:
 620:.\Generated_Source\PSoC5/RF_Physical.c ****     *  Reads UART RX buffer immediately, returns received character and error
 621:.\Generated_Source\PSoC5/RF_Physical.c ****     *  condition.
 622:.\Generated_Source\PSoC5/RF_Physical.c ****     *
 623:.\Generated_Source\PSoC5/RF_Physical.c ****     * Parameters:
 624:.\Generated_Source\PSoC5/RF_Physical.c ****     *  None.
 625:.\Generated_Source\PSoC5/RF_Physical.c ****     *
 626:.\Generated_Source\PSoC5/RF_Physical.c ****     * Return:
 627:.\Generated_Source\PSoC5/RF_Physical.c ****     *  MSB contains status and LSB contains UART RX data. If the MSB is nonzero,
 628:.\Generated_Source\PSoC5/RF_Physical.c ****     *  an error has occurred.
 629:.\Generated_Source\PSoC5/RF_Physical.c ****     *
 630:.\Generated_Source\PSoC5/RF_Physical.c ****     * Reentrant:
 631:.\Generated_Source\PSoC5/RF_Physical.c ****     *  No.
 632:.\Generated_Source\PSoC5/RF_Physical.c ****     *
 633:.\Generated_Source\PSoC5/RF_Physical.c ****     *******************************************************************************/
 634:.\Generated_Source\PSoC5/RF_Physical.c ****     uint16 RF_Physical_GetByte(void) 
 635:.\Generated_Source\PSoC5/RF_Physical.c ****     {
 551              		.loc 1 635 0
 552              		.cfi_startproc
 553              		@ args = 0, pretend = 0, frame = 0
 554              		@ frame_needed = 0, uses_anonymous_args = 0
 555 0000 10B5     		push	{r4, lr}
 556              		.cfi_def_cfa_offset 8
ARM GAS  C:\Users\RECEPC~1\AppData\Local\Temp\ccyux4kk.s 			page 22


 557              		.cfi_offset 4, -8
 558              		.cfi_offset 14, -4
 636:.\Generated_Source\PSoC5/RF_Physical.c ****         
 637:.\Generated_Source\PSoC5/RF_Physical.c ****     #if (RF_Physical_RX_INTERRUPT_ENABLED)
 638:.\Generated_Source\PSoC5/RF_Physical.c ****         uint16 locErrorStatus;
 639:.\Generated_Source\PSoC5/RF_Physical.c ****         /* Protect variables that could change on interrupt */
 640:.\Generated_Source\PSoC5/RF_Physical.c ****         RF_Physical_DisableRxInt();
 559              		.loc 1 640 0
 560 0002 0823     		movs	r3, #8
 561 0004 064A     		ldr	r2, .L47
 562 0006 1360     		str	r3, [r2]
 641:.\Generated_Source\PSoC5/RF_Physical.c ****         locErrorStatus = (uint16)RF_Physical_errorStatus;
 563              		.loc 1 641 0
 564 0008 064A     		ldr	r2, .L47+4
 565 000a 1478     		ldrb	r4, [r2]	@ zero_extendqisi2
 566              	.LVL45:
 642:.\Generated_Source\PSoC5/RF_Physical.c ****         RF_Physical_errorStatus = 0u;
 567              		.loc 1 642 0
 568 000c 0021     		movs	r1, #0
 569 000e 1170     		strb	r1, [r2]
 643:.\Generated_Source\PSoC5/RF_Physical.c ****         RF_Physical_EnableRxInt();
 570              		.loc 1 643 0
 571 0010 054A     		ldr	r2, .L47+8
 572 0012 1360     		str	r3, [r2]
 644:.\Generated_Source\PSoC5/RF_Physical.c ****         return ( (uint16)(locErrorStatus << 8u) | RF_Physical_ReadRxData() );
 573              		.loc 1 644 0
 574 0014 9C40     		lsls	r4, r4, r3
 575              	.LVL46:
 576 0016 FFF7FEFF 		bl	RF_Physical_ReadRxData
 577              	.LVL47:
 578 001a 2043     		orrs	r0, r0, r4
 645:.\Generated_Source\PSoC5/RF_Physical.c ****     #else
 646:.\Generated_Source\PSoC5/RF_Physical.c ****         return ( ((uint16)RF_Physical_ReadRxStatus() << 8u) | RF_Physical_ReadRxData() );
 647:.\Generated_Source\PSoC5/RF_Physical.c ****     #endif /* RF_Physical_RX_INTERRUPT_ENABLED */
 648:.\Generated_Source\PSoC5/RF_Physical.c ****         
 649:.\Generated_Source\PSoC5/RF_Physical.c ****     }
 579              		.loc 1 649 0
 580 001c 80B2     		uxth	r0, r0
 581 001e 10BD     		pop	{r4, pc}
 582              	.L48:
 583              		.align	2
 584              	.L47:
 585 0020 80E100E0 		.word	-536813184
 586 0024 00000000 		.word	.LANCHOR0
 587 0028 00E100E0 		.word	-536813312
 588              		.cfi_endproc
 589              	.LFE10:
 590              		.size	RF_Physical_GetByte, .-RF_Physical_GetByte
 591              		.section	.text.RF_Physical_GetRxBufferSize,"ax",%progbits
 592              		.align	2
 593              		.global	RF_Physical_GetRxBufferSize
 594              		.thumb
 595              		.thumb_func
 596              		.type	RF_Physical_GetRxBufferSize, %function
 597              	RF_Physical_GetRxBufferSize:
 598              	.LFB11:
 650:.\Generated_Source\PSoC5/RF_Physical.c **** 
ARM GAS  C:\Users\RECEPC~1\AppData\Local\Temp\ccyux4kk.s 			page 23


 651:.\Generated_Source\PSoC5/RF_Physical.c **** 
 652:.\Generated_Source\PSoC5/RF_Physical.c ****     /*******************************************************************************
 653:.\Generated_Source\PSoC5/RF_Physical.c ****     * Function Name: RF_Physical_GetRxBufferSize
 654:.\Generated_Source\PSoC5/RF_Physical.c ****     ********************************************************************************
 655:.\Generated_Source\PSoC5/RF_Physical.c ****     *
 656:.\Generated_Source\PSoC5/RF_Physical.c ****     * Summary:
 657:.\Generated_Source\PSoC5/RF_Physical.c ****     *  Returns the number of received bytes available in the RX buffer.
 658:.\Generated_Source\PSoC5/RF_Physical.c ****     *  * RX software buffer is disabled (RX Buffer Size parameter is equal to 4): 
 659:.\Generated_Source\PSoC5/RF_Physical.c ****     *    returns 0 for empty RX FIFO or 1 for not empty RX FIFO.
 660:.\Generated_Source\PSoC5/RF_Physical.c ****     *  * RX software buffer is enabled: returns the number of bytes available in 
 661:.\Generated_Source\PSoC5/RF_Physical.c ****     *    the RX software buffer. Bytes available in the RX FIFO do not take to 
 662:.\Generated_Source\PSoC5/RF_Physical.c ****     *    account.
 663:.\Generated_Source\PSoC5/RF_Physical.c ****     *
 664:.\Generated_Source\PSoC5/RF_Physical.c ****     * Parameters:
 665:.\Generated_Source\PSoC5/RF_Physical.c ****     *  None.
 666:.\Generated_Source\PSoC5/RF_Physical.c ****     *
 667:.\Generated_Source\PSoC5/RF_Physical.c ****     * Return:
 668:.\Generated_Source\PSoC5/RF_Physical.c ****     *  uint16: Number of bytes in the RX buffer. 
 669:.\Generated_Source\PSoC5/RF_Physical.c ****     *    Return value type depends on RX Buffer Size parameter.
 670:.\Generated_Source\PSoC5/RF_Physical.c ****     *
 671:.\Generated_Source\PSoC5/RF_Physical.c ****     * Global Variables:
 672:.\Generated_Source\PSoC5/RF_Physical.c ****     *  RF_Physical_rxBufferWrite - used to calculate left bytes.
 673:.\Generated_Source\PSoC5/RF_Physical.c ****     *  RF_Physical_rxBufferRead - used to calculate left bytes.
 674:.\Generated_Source\PSoC5/RF_Physical.c ****     *  RF_Physical_rxBufferLoopDetect - checked to decide left bytes amount.
 675:.\Generated_Source\PSoC5/RF_Physical.c ****     *
 676:.\Generated_Source\PSoC5/RF_Physical.c ****     * Reentrant:
 677:.\Generated_Source\PSoC5/RF_Physical.c ****     *  No.
 678:.\Generated_Source\PSoC5/RF_Physical.c ****     *
 679:.\Generated_Source\PSoC5/RF_Physical.c ****     * Theory:
 680:.\Generated_Source\PSoC5/RF_Physical.c ****     *  Allows the user to find out how full the RX Buffer is.
 681:.\Generated_Source\PSoC5/RF_Physical.c ****     *
 682:.\Generated_Source\PSoC5/RF_Physical.c ****     *******************************************************************************/
 683:.\Generated_Source\PSoC5/RF_Physical.c ****     uint16 RF_Physical_GetRxBufferSize(void)
 684:.\Generated_Source\PSoC5/RF_Physical.c ****                                                             
 685:.\Generated_Source\PSoC5/RF_Physical.c ****     {
 599              		.loc 1 685 0
 600              		.cfi_startproc
 601              		@ args = 0, pretend = 0, frame = 0
 602              		@ frame_needed = 0, uses_anonymous_args = 0
 603              		@ link register save eliminated.
 686:.\Generated_Source\PSoC5/RF_Physical.c ****         uint16 size;
 687:.\Generated_Source\PSoC5/RF_Physical.c **** 
 688:.\Generated_Source\PSoC5/RF_Physical.c ****     #if (RF_Physical_RX_INTERRUPT_ENABLED)
 689:.\Generated_Source\PSoC5/RF_Physical.c **** 
 690:.\Generated_Source\PSoC5/RF_Physical.c ****         /* Protect variables that could change on interrupt */
 691:.\Generated_Source\PSoC5/RF_Physical.c ****         RF_Physical_DisableRxInt();
 604              		.loc 1 691 0
 605 0000 0822     		movs	r2, #8
 606 0002 164B     		ldr	r3, .L54
 607 0004 1A60     		str	r2, [r3]
 692:.\Generated_Source\PSoC5/RF_Physical.c **** 
 693:.\Generated_Source\PSoC5/RF_Physical.c ****         if(RF_Physical_rxBufferRead == RF_Physical_rxBufferWrite)
 608              		.loc 1 693 0
 609 0006 164B     		ldr	r3, .L54+4
 610 0008 5A88     		ldrh	r2, [r3, #2]
 611 000a 92B2     		uxth	r2, r2
 612 000c 9B88     		ldrh	r3, [r3, #4]
ARM GAS  C:\Users\RECEPC~1\AppData\Local\Temp\ccyux4kk.s 			page 24


 613 000e 9BB2     		uxth	r3, r3
 614 0010 9A42     		cmp	r2, r3
 615 0012 07D1     		bne	.L50
 694:.\Generated_Source\PSoC5/RF_Physical.c ****         {
 695:.\Generated_Source\PSoC5/RF_Physical.c ****             if(RF_Physical_rxBufferLoopDetect != 0u)
 616              		.loc 1 695 0
 617 0014 124B     		ldr	r3, .L54+4
 618 0016 9B79     		ldrb	r3, [r3, #6]	@ zero_extendqisi2
 619 0018 13F0FF0F 		tst	r3, #255
 620 001c 19D0     		beq	.L53
 696:.\Generated_Source\PSoC5/RF_Physical.c ****             {
 697:.\Generated_Source\PSoC5/RF_Physical.c ****                 size = RF_Physical_RX_BUFFER_SIZE;
 621              		.loc 1 697 0
 622 001e 4FF40070 		mov	r0, #512
 623 0022 17E0     		b	.L51
 624              	.L50:
 698:.\Generated_Source\PSoC5/RF_Physical.c ****             }
 699:.\Generated_Source\PSoC5/RF_Physical.c ****             else
 700:.\Generated_Source\PSoC5/RF_Physical.c ****             {
 701:.\Generated_Source\PSoC5/RF_Physical.c ****                 size = 0u;
 702:.\Generated_Source\PSoC5/RF_Physical.c ****             }
 703:.\Generated_Source\PSoC5/RF_Physical.c ****         }
 704:.\Generated_Source\PSoC5/RF_Physical.c ****         else if(RF_Physical_rxBufferRead < RF_Physical_rxBufferWrite)
 625              		.loc 1 704 0
 626 0024 0E4B     		ldr	r3, .L54+4
 627 0026 5A88     		ldrh	r2, [r3, #2]
 628 0028 92B2     		uxth	r2, r2
 629 002a 9B88     		ldrh	r3, [r3, #4]
 630 002c 9BB2     		uxth	r3, r3
 631 002e 9A42     		cmp	r2, r3
 632 0030 05D2     		bcs	.L52
 705:.\Generated_Source\PSoC5/RF_Physical.c ****         {
 706:.\Generated_Source\PSoC5/RF_Physical.c ****             size = (RF_Physical_rxBufferWrite - RF_Physical_rxBufferRead);
 633              		.loc 1 706 0
 634 0032 0B4A     		ldr	r2, .L54+4
 635 0034 9388     		ldrh	r3, [r2, #4]
 636 0036 5088     		ldrh	r0, [r2, #2]
 637 0038 181A     		subs	r0, r3, r0
 638 003a 80B2     		uxth	r0, r0
 639              	.LVL48:
 640 003c 0AE0     		b	.L51
 641              	.LVL49:
 642              	.L52:
 707:.\Generated_Source\PSoC5/RF_Physical.c ****         }
 708:.\Generated_Source\PSoC5/RF_Physical.c ****         else
 709:.\Generated_Source\PSoC5/RF_Physical.c ****         {
 710:.\Generated_Source\PSoC5/RF_Physical.c ****             size = (RF_Physical_RX_BUFFER_SIZE - RF_Physical_rxBufferRead) + RF_Physical_rxBufferWr
 643              		.loc 1 710 0
 644 003e 084A     		ldr	r2, .L54+4
 645 0040 9088     		ldrh	r0, [r2, #4]
 646 0042 83B2     		uxth	r3, r0
 647 0044 5088     		ldrh	r0, [r2, #2]
 648 0046 80B2     		uxth	r0, r0
 649 0048 181A     		subs	r0, r3, r0
 650 004a 00F50070 		add	r0, r0, #512
 651 004e 80B2     		uxth	r0, r0
 652              	.LVL50:
ARM GAS  C:\Users\RECEPC~1\AppData\Local\Temp\ccyux4kk.s 			page 25


 653 0050 00E0     		b	.L51
 654              	.LVL51:
 655              	.L53:
 701:.\Generated_Source\PSoC5/RF_Physical.c ****             }
 656              		.loc 1 701 0
 657 0052 0020     		movs	r0, #0
 658              	.L51:
 659              	.LVL52:
 711:.\Generated_Source\PSoC5/RF_Physical.c ****         }
 712:.\Generated_Source\PSoC5/RF_Physical.c **** 
 713:.\Generated_Source\PSoC5/RF_Physical.c ****         RF_Physical_EnableRxInt();
 660              		.loc 1 713 0
 661 0054 0822     		movs	r2, #8
 662 0056 034B     		ldr	r3, .L54+8
 663 0058 1A60     		str	r2, [r3]
 714:.\Generated_Source\PSoC5/RF_Physical.c **** 
 715:.\Generated_Source\PSoC5/RF_Physical.c ****     #else
 716:.\Generated_Source\PSoC5/RF_Physical.c **** 
 717:.\Generated_Source\PSoC5/RF_Physical.c ****         /* We can only know if there is data in the fifo. */
 718:.\Generated_Source\PSoC5/RF_Physical.c ****         size = ((RF_Physical_RXSTATUS_REG & RF_Physical_RX_STS_FIFO_NOTEMPTY) != 0u) ? 1u : 0u;
 719:.\Generated_Source\PSoC5/RF_Physical.c **** 
 720:.\Generated_Source\PSoC5/RF_Physical.c ****     #endif /* (RF_Physical_RX_INTERRUPT_ENABLED) */
 721:.\Generated_Source\PSoC5/RF_Physical.c **** 
 722:.\Generated_Source\PSoC5/RF_Physical.c ****         return(size);
 723:.\Generated_Source\PSoC5/RF_Physical.c ****     }
 664              		.loc 1 723 0
 665 005a 7047     		bx	lr
 666              	.L55:
 667              		.align	2
 668              	.L54:
 669 005c 80E100E0 		.word	-536813184
 670 0060 00000000 		.word	.LANCHOR0
 671 0064 00E100E0 		.word	-536813312
 672              		.cfi_endproc
 673              	.LFE11:
 674              		.size	RF_Physical_GetRxBufferSize, .-RF_Physical_GetRxBufferSize
 675              		.section	.text.RF_Physical_ClearRxBuffer,"ax",%progbits
 676              		.align	2
 677              		.global	RF_Physical_ClearRxBuffer
 678              		.thumb
 679              		.thumb_func
 680              		.type	RF_Physical_ClearRxBuffer, %function
 681              	RF_Physical_ClearRxBuffer:
 682              	.LFB12:
 724:.\Generated_Source\PSoC5/RF_Physical.c **** 
 725:.\Generated_Source\PSoC5/RF_Physical.c **** 
 726:.\Generated_Source\PSoC5/RF_Physical.c ****     /*******************************************************************************
 727:.\Generated_Source\PSoC5/RF_Physical.c ****     * Function Name: RF_Physical_ClearRxBuffer
 728:.\Generated_Source\PSoC5/RF_Physical.c ****     ********************************************************************************
 729:.\Generated_Source\PSoC5/RF_Physical.c ****     *
 730:.\Generated_Source\PSoC5/RF_Physical.c ****     * Summary:
 731:.\Generated_Source\PSoC5/RF_Physical.c ****     *  Clears the receiver memory buffer and hardware RX FIFO of all received data.
 732:.\Generated_Source\PSoC5/RF_Physical.c ****     *
 733:.\Generated_Source\PSoC5/RF_Physical.c ****     * Parameters:
 734:.\Generated_Source\PSoC5/RF_Physical.c ****     *  None.
 735:.\Generated_Source\PSoC5/RF_Physical.c ****     *
 736:.\Generated_Source\PSoC5/RF_Physical.c ****     * Return:
ARM GAS  C:\Users\RECEPC~1\AppData\Local\Temp\ccyux4kk.s 			page 26


 737:.\Generated_Source\PSoC5/RF_Physical.c ****     *  None.
 738:.\Generated_Source\PSoC5/RF_Physical.c ****     *
 739:.\Generated_Source\PSoC5/RF_Physical.c ****     * Global Variables:
 740:.\Generated_Source\PSoC5/RF_Physical.c ****     *  RF_Physical_rxBufferWrite - cleared to zero.
 741:.\Generated_Source\PSoC5/RF_Physical.c ****     *  RF_Physical_rxBufferRead - cleared to zero.
 742:.\Generated_Source\PSoC5/RF_Physical.c ****     *  RF_Physical_rxBufferLoopDetect - cleared to zero.
 743:.\Generated_Source\PSoC5/RF_Physical.c ****     *  RF_Physical_rxBufferOverflow - cleared to zero.
 744:.\Generated_Source\PSoC5/RF_Physical.c ****     *
 745:.\Generated_Source\PSoC5/RF_Physical.c ****     * Reentrant:
 746:.\Generated_Source\PSoC5/RF_Physical.c ****     *  No.
 747:.\Generated_Source\PSoC5/RF_Physical.c ****     *
 748:.\Generated_Source\PSoC5/RF_Physical.c ****     * Theory:
 749:.\Generated_Source\PSoC5/RF_Physical.c ****     *  Setting the pointers to zero makes the system believe there is no data to
 750:.\Generated_Source\PSoC5/RF_Physical.c ****     *  read and writing will resume at address 0 overwriting any data that may
 751:.\Generated_Source\PSoC5/RF_Physical.c ****     *  have remained in the RAM.
 752:.\Generated_Source\PSoC5/RF_Physical.c ****     *
 753:.\Generated_Source\PSoC5/RF_Physical.c ****     * Side Effects:
 754:.\Generated_Source\PSoC5/RF_Physical.c ****     *  Any received data not read from the RAM or FIFO buffer will be lost.
 755:.\Generated_Source\PSoC5/RF_Physical.c ****     *
 756:.\Generated_Source\PSoC5/RF_Physical.c ****     *******************************************************************************/
 757:.\Generated_Source\PSoC5/RF_Physical.c ****     void RF_Physical_ClearRxBuffer(void) 
 758:.\Generated_Source\PSoC5/RF_Physical.c ****     {
 683              		.loc 1 758 0
 684              		.cfi_startproc
 685              		@ args = 0, pretend = 0, frame = 0
 686              		@ frame_needed = 0, uses_anonymous_args = 0
 687 0000 08B5     		push	{r3, lr}
 688              		.cfi_def_cfa_offset 8
 689              		.cfi_offset 3, -8
 690              		.cfi_offset 14, -4
 759:.\Generated_Source\PSoC5/RF_Physical.c ****         uint8 enableInterrupts;
 760:.\Generated_Source\PSoC5/RF_Physical.c **** 
 761:.\Generated_Source\PSoC5/RF_Physical.c ****         /* Clear the HW FIFO */
 762:.\Generated_Source\PSoC5/RF_Physical.c ****         enableInterrupts = CyEnterCriticalSection();
 691              		.loc 1 762 0
 692 0002 FFF7FEFF 		bl	CyEnterCriticalSection
 693              	.LVL53:
 763:.\Generated_Source\PSoC5/RF_Physical.c ****         RF_Physical_RXDATA_AUX_CTL_REG |= (uint8)  RF_Physical_RX_FIFO_CLR;
 694              		.loc 1 763 0
 695 0006 0B4B     		ldr	r3, .L58
 696 0008 1A78     		ldrb	r2, [r3]	@ zero_extendqisi2
 697 000a 42F00102 		orr	r2, r2, #1
 698 000e 1A70     		strb	r2, [r3]
 764:.\Generated_Source\PSoC5/RF_Physical.c ****         RF_Physical_RXDATA_AUX_CTL_REG &= (uint8) ~RF_Physical_RX_FIFO_CLR;
 699              		.loc 1 764 0
 700 0010 1A78     		ldrb	r2, [r3]	@ zero_extendqisi2
 701 0012 02F0FE02 		and	r2, r2, #254
 702 0016 1A70     		strb	r2, [r3]
 765:.\Generated_Source\PSoC5/RF_Physical.c ****         CyExitCriticalSection(enableInterrupts);
 703              		.loc 1 765 0
 704 0018 FFF7FEFF 		bl	CyExitCriticalSection
 705              	.LVL54:
 766:.\Generated_Source\PSoC5/RF_Physical.c **** 
 767:.\Generated_Source\PSoC5/RF_Physical.c ****     #if (RF_Physical_RX_INTERRUPT_ENABLED)
 768:.\Generated_Source\PSoC5/RF_Physical.c **** 
 769:.\Generated_Source\PSoC5/RF_Physical.c ****         /* Protect variables that could change on interrupt. */
 770:.\Generated_Source\PSoC5/RF_Physical.c ****         RF_Physical_DisableRxInt();
ARM GAS  C:\Users\RECEPC~1\AppData\Local\Temp\ccyux4kk.s 			page 27


 706              		.loc 1 770 0
 707 001c 0821     		movs	r1, #8
 708 001e 064B     		ldr	r3, .L58+4
 709 0020 1960     		str	r1, [r3]
 771:.\Generated_Source\PSoC5/RF_Physical.c **** 
 772:.\Generated_Source\PSoC5/RF_Physical.c ****         RF_Physical_rxBufferRead = 0u;
 710              		.loc 1 772 0
 711 0022 064B     		ldr	r3, .L58+8
 712 0024 0022     		movs	r2, #0
 713 0026 5A80     		strh	r2, [r3, #2]	@ movhi
 773:.\Generated_Source\PSoC5/RF_Physical.c ****         RF_Physical_rxBufferWrite = 0u;
 714              		.loc 1 773 0
 715 0028 9A80     		strh	r2, [r3, #4]	@ movhi
 774:.\Generated_Source\PSoC5/RF_Physical.c ****         RF_Physical_rxBufferLoopDetect = 0u;
 716              		.loc 1 774 0
 717 002a 9A71     		strb	r2, [r3, #6]
 775:.\Generated_Source\PSoC5/RF_Physical.c ****         RF_Physical_rxBufferOverflow = 0u;
 718              		.loc 1 775 0
 719 002c DA71     		strb	r2, [r3, #7]
 776:.\Generated_Source\PSoC5/RF_Physical.c **** 
 777:.\Generated_Source\PSoC5/RF_Physical.c ****         RF_Physical_EnableRxInt();
 720              		.loc 1 777 0
 721 002e 044B     		ldr	r3, .L58+12
 722 0030 1960     		str	r1, [r3]
 723 0032 08BD     		pop	{r3, pc}
 724              	.L59:
 725              		.align	2
 726              	.L58:
 727 0034 90640040 		.word	1073767568
 728 0038 80E100E0 		.word	-536813184
 729 003c 00000000 		.word	.LANCHOR0
 730 0040 00E100E0 		.word	-536813312
 731              		.cfi_endproc
 732              	.LFE12:
 733              		.size	RF_Physical_ClearRxBuffer, .-RF_Physical_ClearRxBuffer
 734              		.section	.text.RF_Physical_SetRxAddressMode,"ax",%progbits
 735              		.align	2
 736              		.global	RF_Physical_SetRxAddressMode
 737              		.thumb
 738              		.thumb_func
 739              		.type	RF_Physical_SetRxAddressMode, %function
 740              	RF_Physical_SetRxAddressMode:
 741              	.LFB13:
 778:.\Generated_Source\PSoC5/RF_Physical.c **** 
 779:.\Generated_Source\PSoC5/RF_Physical.c ****     #endif /* (RF_Physical_RX_INTERRUPT_ENABLED) */
 780:.\Generated_Source\PSoC5/RF_Physical.c **** 
 781:.\Generated_Source\PSoC5/RF_Physical.c ****     }
 782:.\Generated_Source\PSoC5/RF_Physical.c **** 
 783:.\Generated_Source\PSoC5/RF_Physical.c **** 
 784:.\Generated_Source\PSoC5/RF_Physical.c ****     /*******************************************************************************
 785:.\Generated_Source\PSoC5/RF_Physical.c ****     * Function Name: RF_Physical_SetRxAddressMode
 786:.\Generated_Source\PSoC5/RF_Physical.c ****     ********************************************************************************
 787:.\Generated_Source\PSoC5/RF_Physical.c ****     *
 788:.\Generated_Source\PSoC5/RF_Physical.c ****     * Summary:
 789:.\Generated_Source\PSoC5/RF_Physical.c ****     *  Sets the software controlled Addressing mode used by the RX portion of the
 790:.\Generated_Source\PSoC5/RF_Physical.c ****     *  UART.
 791:.\Generated_Source\PSoC5/RF_Physical.c ****     *
ARM GAS  C:\Users\RECEPC~1\AppData\Local\Temp\ccyux4kk.s 			page 28


 792:.\Generated_Source\PSoC5/RF_Physical.c ****     * Parameters:
 793:.\Generated_Source\PSoC5/RF_Physical.c ****     *  addressMode: Enumerated value indicating the mode of RX addressing
 794:.\Generated_Source\PSoC5/RF_Physical.c ****     *  RF_Physical__B_UART__AM_SW_BYTE_BYTE -  Software Byte-by-Byte address
 795:.\Generated_Source\PSoC5/RF_Physical.c ****     *                                               detection
 796:.\Generated_Source\PSoC5/RF_Physical.c ****     *  RF_Physical__B_UART__AM_SW_DETECT_TO_BUFFER - Software Detect to Buffer
 797:.\Generated_Source\PSoC5/RF_Physical.c ****     *                                               address detection
 798:.\Generated_Source\PSoC5/RF_Physical.c ****     *  RF_Physical__B_UART__AM_HW_BYTE_BY_BYTE - Hardware Byte-by-Byte address
 799:.\Generated_Source\PSoC5/RF_Physical.c ****     *                                               detection
 800:.\Generated_Source\PSoC5/RF_Physical.c ****     *  RF_Physical__B_UART__AM_HW_DETECT_TO_BUFFER - Hardware Detect to Buffer
 801:.\Generated_Source\PSoC5/RF_Physical.c ****     *                                               address detection
 802:.\Generated_Source\PSoC5/RF_Physical.c ****     *  RF_Physical__B_UART__AM_NONE - No address detection
 803:.\Generated_Source\PSoC5/RF_Physical.c ****     *
 804:.\Generated_Source\PSoC5/RF_Physical.c ****     * Return:
 805:.\Generated_Source\PSoC5/RF_Physical.c ****     *  None.
 806:.\Generated_Source\PSoC5/RF_Physical.c ****     *
 807:.\Generated_Source\PSoC5/RF_Physical.c ****     * Global Variables:
 808:.\Generated_Source\PSoC5/RF_Physical.c ****     *  RF_Physical_rxAddressMode - the parameter stored in this variable for
 809:.\Generated_Source\PSoC5/RF_Physical.c ****     *   the farther usage in RX ISR.
 810:.\Generated_Source\PSoC5/RF_Physical.c ****     *  RF_Physical_rxAddressDetected - set to initial state (0).
 811:.\Generated_Source\PSoC5/RF_Physical.c ****     *
 812:.\Generated_Source\PSoC5/RF_Physical.c ****     *******************************************************************************/
 813:.\Generated_Source\PSoC5/RF_Physical.c ****     void RF_Physical_SetRxAddressMode(uint8 addressMode)
 814:.\Generated_Source\PSoC5/RF_Physical.c ****                                                         
 815:.\Generated_Source\PSoC5/RF_Physical.c ****     {
 742              		.loc 1 815 0
 743              		.cfi_startproc
 744              		@ args = 0, pretend = 0, frame = 0
 745              		@ frame_needed = 0, uses_anonymous_args = 0
 746              		@ link register save eliminated.
 747              	.LVL55:
 748 0000 7047     		bx	lr
 749              		.cfi_endproc
 750              	.LFE13:
 751              		.size	RF_Physical_SetRxAddressMode, .-RF_Physical_SetRxAddressMode
 752 0002 00BF     		.section	.text.RF_Physical_SetRxAddress1,"ax",%progbits
 753              		.align	2
 754              		.global	RF_Physical_SetRxAddress1
 755              		.thumb
 756              		.thumb_func
 757              		.type	RF_Physical_SetRxAddress1, %function
 758              	RF_Physical_SetRxAddress1:
 759              	.LFB14:
 816:.\Generated_Source\PSoC5/RF_Physical.c ****         #if(RF_Physical_RXHW_ADDRESS_ENABLED)
 817:.\Generated_Source\PSoC5/RF_Physical.c ****             #if(RF_Physical_CONTROL_REG_REMOVED)
 818:.\Generated_Source\PSoC5/RF_Physical.c ****                 if(0u != addressMode)
 819:.\Generated_Source\PSoC5/RF_Physical.c ****                 {
 820:.\Generated_Source\PSoC5/RF_Physical.c ****                     /* Suppress compiler warning */
 821:.\Generated_Source\PSoC5/RF_Physical.c ****                 }
 822:.\Generated_Source\PSoC5/RF_Physical.c ****             #else /* RF_Physical_CONTROL_REG_REMOVED */
 823:.\Generated_Source\PSoC5/RF_Physical.c ****                 uint8 tmpCtrl;
 824:.\Generated_Source\PSoC5/RF_Physical.c ****                 tmpCtrl = RF_Physical_CONTROL_REG & (uint8)~RF_Physical_CTRL_RXADDR_MODE_MASK;
 825:.\Generated_Source\PSoC5/RF_Physical.c ****                 tmpCtrl |= (uint8)(addressMode << RF_Physical_CTRL_RXADDR_MODE0_SHIFT);
 826:.\Generated_Source\PSoC5/RF_Physical.c ****                 RF_Physical_CONTROL_REG = tmpCtrl;
 827:.\Generated_Source\PSoC5/RF_Physical.c **** 
 828:.\Generated_Source\PSoC5/RF_Physical.c ****                 #if(RF_Physical_RX_INTERRUPT_ENABLED && \
 829:.\Generated_Source\PSoC5/RF_Physical.c ****                    (RF_Physical_RXBUFFERSIZE > RF_Physical_FIFO_LENGTH) )
 830:.\Generated_Source\PSoC5/RF_Physical.c ****                     RF_Physical_rxAddressMode = addressMode;
ARM GAS  C:\Users\RECEPC~1\AppData\Local\Temp\ccyux4kk.s 			page 29


 831:.\Generated_Source\PSoC5/RF_Physical.c ****                     RF_Physical_rxAddressDetected = 0u;
 832:.\Generated_Source\PSoC5/RF_Physical.c ****                 #endif /* End RF_Physical_RXBUFFERSIZE > RF_Physical_FIFO_LENGTH*/
 833:.\Generated_Source\PSoC5/RF_Physical.c ****             #endif /* End RF_Physical_CONTROL_REG_REMOVED */
 834:.\Generated_Source\PSoC5/RF_Physical.c ****         #else /* RF_Physical_RXHW_ADDRESS_ENABLED */
 835:.\Generated_Source\PSoC5/RF_Physical.c ****             if(0u != addressMode)
 836:.\Generated_Source\PSoC5/RF_Physical.c ****             {
 837:.\Generated_Source\PSoC5/RF_Physical.c ****                 /* Suppress compiler warning */
 838:.\Generated_Source\PSoC5/RF_Physical.c ****             }
 839:.\Generated_Source\PSoC5/RF_Physical.c ****         #endif /* End RF_Physical_RXHW_ADDRESS_ENABLED */
 840:.\Generated_Source\PSoC5/RF_Physical.c ****     }
 841:.\Generated_Source\PSoC5/RF_Physical.c **** 
 842:.\Generated_Source\PSoC5/RF_Physical.c **** 
 843:.\Generated_Source\PSoC5/RF_Physical.c ****     /*******************************************************************************
 844:.\Generated_Source\PSoC5/RF_Physical.c ****     * Function Name: RF_Physical_SetRxAddress1
 845:.\Generated_Source\PSoC5/RF_Physical.c ****     ********************************************************************************
 846:.\Generated_Source\PSoC5/RF_Physical.c ****     *
 847:.\Generated_Source\PSoC5/RF_Physical.c ****     * Summary:
 848:.\Generated_Source\PSoC5/RF_Physical.c ****     *  Sets the first of two hardware-detectable receiver addresses.
 849:.\Generated_Source\PSoC5/RF_Physical.c ****     *
 850:.\Generated_Source\PSoC5/RF_Physical.c ****     * Parameters:
 851:.\Generated_Source\PSoC5/RF_Physical.c ****     *  address: Address #1 for hardware address detection.
 852:.\Generated_Source\PSoC5/RF_Physical.c ****     *
 853:.\Generated_Source\PSoC5/RF_Physical.c ****     * Return:
 854:.\Generated_Source\PSoC5/RF_Physical.c ****     *  None.
 855:.\Generated_Source\PSoC5/RF_Physical.c ****     *
 856:.\Generated_Source\PSoC5/RF_Physical.c ****     *******************************************************************************/
 857:.\Generated_Source\PSoC5/RF_Physical.c ****     void RF_Physical_SetRxAddress1(uint8 address) 
 858:.\Generated_Source\PSoC5/RF_Physical.c ****     {
 760              		.loc 1 858 0
 761              		.cfi_startproc
 762              		@ args = 0, pretend = 0, frame = 0
 763              		@ frame_needed = 0, uses_anonymous_args = 0
 764              		@ link register save eliminated.
 765              	.LVL56:
 859:.\Generated_Source\PSoC5/RF_Physical.c ****         RF_Physical_RXADDRESS1_REG = address;
 766              		.loc 1 859 0
 767 0000 014B     		ldr	r3, .L62
 768 0002 1870     		strb	r0, [r3]
 769 0004 7047     		bx	lr
 770              	.L63:
 771 0006 00BF     		.align	2
 772              	.L62:
 773 0008 20640040 		.word	1073767456
 774              		.cfi_endproc
 775              	.LFE14:
 776              		.size	RF_Physical_SetRxAddress1, .-RF_Physical_SetRxAddress1
 777              		.section	.text.RF_Physical_SetRxAddress2,"ax",%progbits
 778              		.align	2
 779              		.global	RF_Physical_SetRxAddress2
 780              		.thumb
 781              		.thumb_func
 782              		.type	RF_Physical_SetRxAddress2, %function
 783              	RF_Physical_SetRxAddress2:
 784              	.LFB15:
 860:.\Generated_Source\PSoC5/RF_Physical.c ****     }
 861:.\Generated_Source\PSoC5/RF_Physical.c **** 
 862:.\Generated_Source\PSoC5/RF_Physical.c **** 
ARM GAS  C:\Users\RECEPC~1\AppData\Local\Temp\ccyux4kk.s 			page 30


 863:.\Generated_Source\PSoC5/RF_Physical.c ****     /*******************************************************************************
 864:.\Generated_Source\PSoC5/RF_Physical.c ****     * Function Name: RF_Physical_SetRxAddress2
 865:.\Generated_Source\PSoC5/RF_Physical.c ****     ********************************************************************************
 866:.\Generated_Source\PSoC5/RF_Physical.c ****     *
 867:.\Generated_Source\PSoC5/RF_Physical.c ****     * Summary:
 868:.\Generated_Source\PSoC5/RF_Physical.c ****     *  Sets the second of two hardware-detectable receiver addresses.
 869:.\Generated_Source\PSoC5/RF_Physical.c ****     *
 870:.\Generated_Source\PSoC5/RF_Physical.c ****     * Parameters:
 871:.\Generated_Source\PSoC5/RF_Physical.c ****     *  address: Address #2 for hardware address detection.
 872:.\Generated_Source\PSoC5/RF_Physical.c ****     *
 873:.\Generated_Source\PSoC5/RF_Physical.c ****     * Return:
 874:.\Generated_Source\PSoC5/RF_Physical.c ****     *  None.
 875:.\Generated_Source\PSoC5/RF_Physical.c ****     *
 876:.\Generated_Source\PSoC5/RF_Physical.c ****     *******************************************************************************/
 877:.\Generated_Source\PSoC5/RF_Physical.c ****     void RF_Physical_SetRxAddress2(uint8 address) 
 878:.\Generated_Source\PSoC5/RF_Physical.c ****     {
 785              		.loc 1 878 0
 786              		.cfi_startproc
 787              		@ args = 0, pretend = 0, frame = 0
 788              		@ frame_needed = 0, uses_anonymous_args = 0
 789              		@ link register save eliminated.
 790              	.LVL57:
 879:.\Generated_Source\PSoC5/RF_Physical.c ****         RF_Physical_RXADDRESS2_REG = address;
 791              		.loc 1 879 0
 792 0000 014B     		ldr	r3, .L65
 793 0002 1870     		strb	r0, [r3]
 794 0004 7047     		bx	lr
 795              	.L66:
 796 0006 00BF     		.align	2
 797              	.L65:
 798 0008 30640040 		.word	1073767472
 799              		.cfi_endproc
 800              	.LFE15:
 801              		.size	RF_Physical_SetRxAddress2, .-RF_Physical_SetRxAddress2
 802              		.section	.text.RF_Physical_SetTxInterruptMode,"ax",%progbits
 803              		.align	2
 804              		.global	RF_Physical_SetTxInterruptMode
 805              		.thumb
 806              		.thumb_func
 807              		.type	RF_Physical_SetTxInterruptMode, %function
 808              	RF_Physical_SetTxInterruptMode:
 809              	.LFB16:
 880:.\Generated_Source\PSoC5/RF_Physical.c ****     }
 881:.\Generated_Source\PSoC5/RF_Physical.c **** 
 882:.\Generated_Source\PSoC5/RF_Physical.c **** #endif  /* RF_Physical_RX_ENABLED || RF_Physical_HD_ENABLED*/
 883:.\Generated_Source\PSoC5/RF_Physical.c **** 
 884:.\Generated_Source\PSoC5/RF_Physical.c **** 
 885:.\Generated_Source\PSoC5/RF_Physical.c **** #if( (RF_Physical_TX_ENABLED) || (RF_Physical_HD_ENABLED) )
 886:.\Generated_Source\PSoC5/RF_Physical.c ****     /*******************************************************************************
 887:.\Generated_Source\PSoC5/RF_Physical.c ****     * Function Name: RF_Physical_SetTxInterruptMode
 888:.\Generated_Source\PSoC5/RF_Physical.c ****     ********************************************************************************
 889:.\Generated_Source\PSoC5/RF_Physical.c ****     *
 890:.\Generated_Source\PSoC5/RF_Physical.c ****     * Summary:
 891:.\Generated_Source\PSoC5/RF_Physical.c ****     *  Configures the TX interrupt sources to be enabled, but does not enable the
 892:.\Generated_Source\PSoC5/RF_Physical.c ****     *  interrupt.
 893:.\Generated_Source\PSoC5/RF_Physical.c ****     *
 894:.\Generated_Source\PSoC5/RF_Physical.c ****     * Parameters:
ARM GAS  C:\Users\RECEPC~1\AppData\Local\Temp\ccyux4kk.s 			page 31


 895:.\Generated_Source\PSoC5/RF_Physical.c ****     *  intSrc: Bit field containing the TX interrupt sources to enable
 896:.\Generated_Source\PSoC5/RF_Physical.c ****     *   RF_Physical_TX_STS_COMPLETE        Interrupt on TX byte complete
 897:.\Generated_Source\PSoC5/RF_Physical.c ****     *   RF_Physical_TX_STS_FIFO_EMPTY      Interrupt when TX FIFO is empty
 898:.\Generated_Source\PSoC5/RF_Physical.c ****     *   RF_Physical_TX_STS_FIFO_FULL       Interrupt when TX FIFO is full
 899:.\Generated_Source\PSoC5/RF_Physical.c ****     *   RF_Physical_TX_STS_FIFO_NOT_FULL   Interrupt when TX FIFO is not full
 900:.\Generated_Source\PSoC5/RF_Physical.c ****     *
 901:.\Generated_Source\PSoC5/RF_Physical.c ****     * Return:
 902:.\Generated_Source\PSoC5/RF_Physical.c ****     *  None.
 903:.\Generated_Source\PSoC5/RF_Physical.c ****     *
 904:.\Generated_Source\PSoC5/RF_Physical.c ****     * Theory:
 905:.\Generated_Source\PSoC5/RF_Physical.c ****     *  Enables the output of specific status bits to the interrupt controller
 906:.\Generated_Source\PSoC5/RF_Physical.c ****     *
 907:.\Generated_Source\PSoC5/RF_Physical.c ****     *******************************************************************************/
 908:.\Generated_Source\PSoC5/RF_Physical.c ****     void RF_Physical_SetTxInterruptMode(uint8 intSrc) 
 909:.\Generated_Source\PSoC5/RF_Physical.c ****     {
 810              		.loc 1 909 0
 811              		.cfi_startproc
 812              		@ args = 0, pretend = 0, frame = 0
 813              		@ frame_needed = 0, uses_anonymous_args = 0
 814              		@ link register save eliminated.
 815              	.LVL58:
 910:.\Generated_Source\PSoC5/RF_Physical.c ****         RF_Physical_TXSTATUS_MASK_REG = intSrc;
 816              		.loc 1 910 0
 817 0000 014B     		ldr	r3, .L68
 818 0002 1870     		strb	r0, [r3]
 819 0004 7047     		bx	lr
 820              	.L69:
 821 0006 00BF     		.align	2
 822              	.L68:
 823 0008 82640040 		.word	1073767554
 824              		.cfi_endproc
 825              	.LFE16:
 826              		.size	RF_Physical_SetTxInterruptMode, .-RF_Physical_SetTxInterruptMode
 827              		.section	.text.RF_Physical_WriteTxData,"ax",%progbits
 828              		.align	2
 829              		.global	RF_Physical_WriteTxData
 830              		.thumb
 831              		.thumb_func
 832              		.type	RF_Physical_WriteTxData, %function
 833              	RF_Physical_WriteTxData:
 834              	.LFB17:
 911:.\Generated_Source\PSoC5/RF_Physical.c ****     }
 912:.\Generated_Source\PSoC5/RF_Physical.c **** 
 913:.\Generated_Source\PSoC5/RF_Physical.c **** 
 914:.\Generated_Source\PSoC5/RF_Physical.c ****     /*******************************************************************************
 915:.\Generated_Source\PSoC5/RF_Physical.c ****     * Function Name: RF_Physical_WriteTxData
 916:.\Generated_Source\PSoC5/RF_Physical.c ****     ********************************************************************************
 917:.\Generated_Source\PSoC5/RF_Physical.c ****     *
 918:.\Generated_Source\PSoC5/RF_Physical.c ****     * Summary:
 919:.\Generated_Source\PSoC5/RF_Physical.c ****     *  Places a byte of data into the transmit buffer to be sent when the bus is
 920:.\Generated_Source\PSoC5/RF_Physical.c ****     *  available without checking the TX status register. You must check status
 921:.\Generated_Source\PSoC5/RF_Physical.c ****     *  separately.
 922:.\Generated_Source\PSoC5/RF_Physical.c ****     *
 923:.\Generated_Source\PSoC5/RF_Physical.c ****     * Parameters:
 924:.\Generated_Source\PSoC5/RF_Physical.c ****     *  txDataByte: data byte
 925:.\Generated_Source\PSoC5/RF_Physical.c ****     *
 926:.\Generated_Source\PSoC5/RF_Physical.c ****     * Return:
ARM GAS  C:\Users\RECEPC~1\AppData\Local\Temp\ccyux4kk.s 			page 32


 927:.\Generated_Source\PSoC5/RF_Physical.c ****     * None.
 928:.\Generated_Source\PSoC5/RF_Physical.c ****     *
 929:.\Generated_Source\PSoC5/RF_Physical.c ****     * Global Variables:
 930:.\Generated_Source\PSoC5/RF_Physical.c ****     *  RF_Physical_txBuffer - RAM buffer pointer for save data for transmission
 931:.\Generated_Source\PSoC5/RF_Physical.c ****     *  RF_Physical_txBufferWrite - cyclic index for write to txBuffer,
 932:.\Generated_Source\PSoC5/RF_Physical.c ****     *    incremented after each byte saved to buffer.
 933:.\Generated_Source\PSoC5/RF_Physical.c ****     *  RF_Physical_txBufferRead - cyclic index for read from txBuffer,
 934:.\Generated_Source\PSoC5/RF_Physical.c ****     *    checked to identify the condition to write to FIFO directly or to TX buffer
 935:.\Generated_Source\PSoC5/RF_Physical.c ****     *  RF_Physical_initVar - checked to identify that the component has been
 936:.\Generated_Source\PSoC5/RF_Physical.c ****     *    initialized.
 937:.\Generated_Source\PSoC5/RF_Physical.c ****     *
 938:.\Generated_Source\PSoC5/RF_Physical.c ****     * Reentrant:
 939:.\Generated_Source\PSoC5/RF_Physical.c ****     *  No.
 940:.\Generated_Source\PSoC5/RF_Physical.c ****     *
 941:.\Generated_Source\PSoC5/RF_Physical.c ****     *******************************************************************************/
 942:.\Generated_Source\PSoC5/RF_Physical.c ****     void RF_Physical_WriteTxData(uint8 txDataByte) 
 943:.\Generated_Source\PSoC5/RF_Physical.c ****     {
 835              		.loc 1 943 0
 836              		.cfi_startproc
 837              		@ args = 0, pretend = 0, frame = 0
 838              		@ frame_needed = 0, uses_anonymous_args = 0
 839              		@ link register save eliminated.
 840              	.LVL59:
 944:.\Generated_Source\PSoC5/RF_Physical.c ****         /* If not Initialized then skip this function*/
 945:.\Generated_Source\PSoC5/RF_Physical.c ****         if(RF_Physical_initVar != 0u)
 841              		.loc 1 945 0
 842 0000 024B     		ldr	r3, .L72
 843 0002 5B78     		ldrb	r3, [r3, #1]	@ zero_extendqisi2
 844 0004 0BB1     		cbz	r3, .L70
 946:.\Generated_Source\PSoC5/RF_Physical.c ****         {
 947:.\Generated_Source\PSoC5/RF_Physical.c ****         #if (RF_Physical_TX_INTERRUPT_ENABLED)
 948:.\Generated_Source\PSoC5/RF_Physical.c **** 
 949:.\Generated_Source\PSoC5/RF_Physical.c ****             /* Protect variables that could change on interrupt. */
 950:.\Generated_Source\PSoC5/RF_Physical.c ****             RF_Physical_DisableTxInt();
 951:.\Generated_Source\PSoC5/RF_Physical.c **** 
 952:.\Generated_Source\PSoC5/RF_Physical.c ****             if( (RF_Physical_txBufferRead == RF_Physical_txBufferWrite) &&
 953:.\Generated_Source\PSoC5/RF_Physical.c ****                 ((RF_Physical_TXSTATUS_REG & RF_Physical_TX_STS_FIFO_FULL) == 0u) )
 954:.\Generated_Source\PSoC5/RF_Physical.c ****             {
 955:.\Generated_Source\PSoC5/RF_Physical.c ****                 /* Add directly to the FIFO. */
 956:.\Generated_Source\PSoC5/RF_Physical.c ****                 RF_Physical_TXDATA_REG = txDataByte;
 957:.\Generated_Source\PSoC5/RF_Physical.c ****             }
 958:.\Generated_Source\PSoC5/RF_Physical.c ****             else
 959:.\Generated_Source\PSoC5/RF_Physical.c ****             {
 960:.\Generated_Source\PSoC5/RF_Physical.c ****                 if(RF_Physical_txBufferWrite >= RF_Physical_TX_BUFFER_SIZE)
 961:.\Generated_Source\PSoC5/RF_Physical.c ****                 {
 962:.\Generated_Source\PSoC5/RF_Physical.c ****                     RF_Physical_txBufferWrite = 0u;
 963:.\Generated_Source\PSoC5/RF_Physical.c ****                 }
 964:.\Generated_Source\PSoC5/RF_Physical.c **** 
 965:.\Generated_Source\PSoC5/RF_Physical.c ****                 RF_Physical_txBuffer[RF_Physical_txBufferWrite] = txDataByte;
 966:.\Generated_Source\PSoC5/RF_Physical.c **** 
 967:.\Generated_Source\PSoC5/RF_Physical.c ****                 /* Add to the software buffer. */
 968:.\Generated_Source\PSoC5/RF_Physical.c ****                 RF_Physical_txBufferWrite++;
 969:.\Generated_Source\PSoC5/RF_Physical.c ****             }
 970:.\Generated_Source\PSoC5/RF_Physical.c **** 
 971:.\Generated_Source\PSoC5/RF_Physical.c ****             RF_Physical_EnableTxInt();
 972:.\Generated_Source\PSoC5/RF_Physical.c **** 
 973:.\Generated_Source\PSoC5/RF_Physical.c ****         #else
ARM GAS  C:\Users\RECEPC~1\AppData\Local\Temp\ccyux4kk.s 			page 33


 974:.\Generated_Source\PSoC5/RF_Physical.c **** 
 975:.\Generated_Source\PSoC5/RF_Physical.c ****             /* Add directly to the FIFO. */
 976:.\Generated_Source\PSoC5/RF_Physical.c ****             RF_Physical_TXDATA_REG = txDataByte;
 845              		.loc 1 976 0
 846 0006 024B     		ldr	r3, .L72+4
 847 0008 1870     		strb	r0, [r3]
 848              	.L70:
 849 000a 7047     		bx	lr
 850              	.L73:
 851              		.align	2
 852              	.L72:
 853 000c 00000000 		.word	.LANCHOR0
 854 0010 45640040 		.word	1073767493
 855              		.cfi_endproc
 856              	.LFE17:
 857              		.size	RF_Physical_WriteTxData, .-RF_Physical_WriteTxData
 858              		.section	.text.RF_Physical_ReadTxStatus,"ax",%progbits
 859              		.align	2
 860              		.global	RF_Physical_ReadTxStatus
 861              		.thumb
 862              		.thumb_func
 863              		.type	RF_Physical_ReadTxStatus, %function
 864              	RF_Physical_ReadTxStatus:
 865              	.LFB18:
 977:.\Generated_Source\PSoC5/RF_Physical.c **** 
 978:.\Generated_Source\PSoC5/RF_Physical.c ****         #endif /*(RF_Physical_TX_INTERRUPT_ENABLED) */
 979:.\Generated_Source\PSoC5/RF_Physical.c ****         }
 980:.\Generated_Source\PSoC5/RF_Physical.c ****     }
 981:.\Generated_Source\PSoC5/RF_Physical.c **** 
 982:.\Generated_Source\PSoC5/RF_Physical.c **** 
 983:.\Generated_Source\PSoC5/RF_Physical.c ****     /*******************************************************************************
 984:.\Generated_Source\PSoC5/RF_Physical.c ****     * Function Name: RF_Physical_ReadTxStatus
 985:.\Generated_Source\PSoC5/RF_Physical.c ****     ********************************************************************************
 986:.\Generated_Source\PSoC5/RF_Physical.c ****     *
 987:.\Generated_Source\PSoC5/RF_Physical.c ****     * Summary:
 988:.\Generated_Source\PSoC5/RF_Physical.c ****     *  Reads the status register for the TX portion of the UART.
 989:.\Generated_Source\PSoC5/RF_Physical.c ****     *
 990:.\Generated_Source\PSoC5/RF_Physical.c ****     * Parameters:
 991:.\Generated_Source\PSoC5/RF_Physical.c ****     *  None.
 992:.\Generated_Source\PSoC5/RF_Physical.c ****     *
 993:.\Generated_Source\PSoC5/RF_Physical.c ****     * Return:
 994:.\Generated_Source\PSoC5/RF_Physical.c ****     *  Contents of the status register
 995:.\Generated_Source\PSoC5/RF_Physical.c ****     *
 996:.\Generated_Source\PSoC5/RF_Physical.c ****     * Theory:
 997:.\Generated_Source\PSoC5/RF_Physical.c ****     *  This function reads the TX status register, which is cleared on read.
 998:.\Generated_Source\PSoC5/RF_Physical.c ****     *  It is up to the user to handle all bits in this return value accordingly,
 999:.\Generated_Source\PSoC5/RF_Physical.c ****     *  even if the bit was not enabled as an interrupt source the event happened
1000:.\Generated_Source\PSoC5/RF_Physical.c ****     *  and must be handled accordingly.
1001:.\Generated_Source\PSoC5/RF_Physical.c ****     *
1002:.\Generated_Source\PSoC5/RF_Physical.c ****     *******************************************************************************/
1003:.\Generated_Source\PSoC5/RF_Physical.c ****     uint8 RF_Physical_ReadTxStatus(void) 
1004:.\Generated_Source\PSoC5/RF_Physical.c ****     {
 866              		.loc 1 1004 0
 867              		.cfi_startproc
 868              		@ args = 0, pretend = 0, frame = 0
 869              		@ frame_needed = 0, uses_anonymous_args = 0
 870              		@ link register save eliminated.
ARM GAS  C:\Users\RECEPC~1\AppData\Local\Temp\ccyux4kk.s 			page 34


1005:.\Generated_Source\PSoC5/RF_Physical.c ****         return(RF_Physical_TXSTATUS_REG);
 871              		.loc 1 1005 0
 872 0000 014B     		ldr	r3, .L75
 873 0002 1878     		ldrb	r0, [r3]	@ zero_extendqisi2
1006:.\Generated_Source\PSoC5/RF_Physical.c ****     }
 874              		.loc 1 1006 0
 875 0004 7047     		bx	lr
 876              	.L76:
 877 0006 00BF     		.align	2
 878              	.L75:
 879 0008 62640040 		.word	1073767522
 880              		.cfi_endproc
 881              	.LFE18:
 882              		.size	RF_Physical_ReadTxStatus, .-RF_Physical_ReadTxStatus
 883              		.section	.text.RF_Physical_PutChar,"ax",%progbits
 884              		.align	2
 885              		.global	RF_Physical_PutChar
 886              		.thumb
 887              		.thumb_func
 888              		.type	RF_Physical_PutChar, %function
 889              	RF_Physical_PutChar:
 890              	.LFB19:
1007:.\Generated_Source\PSoC5/RF_Physical.c **** 
1008:.\Generated_Source\PSoC5/RF_Physical.c **** 
1009:.\Generated_Source\PSoC5/RF_Physical.c ****     /*******************************************************************************
1010:.\Generated_Source\PSoC5/RF_Physical.c ****     * Function Name: RF_Physical_PutChar
1011:.\Generated_Source\PSoC5/RF_Physical.c ****     ********************************************************************************
1012:.\Generated_Source\PSoC5/RF_Physical.c ****     *
1013:.\Generated_Source\PSoC5/RF_Physical.c ****     * Summary:
1014:.\Generated_Source\PSoC5/RF_Physical.c ****     *  Puts a byte of data into the transmit buffer to be sent when the bus is
1015:.\Generated_Source\PSoC5/RF_Physical.c ****     *  available. This is a blocking API that waits until the TX buffer has room to
1016:.\Generated_Source\PSoC5/RF_Physical.c ****     *  hold the data.
1017:.\Generated_Source\PSoC5/RF_Physical.c ****     *
1018:.\Generated_Source\PSoC5/RF_Physical.c ****     * Parameters:
1019:.\Generated_Source\PSoC5/RF_Physical.c ****     *  txDataByte: Byte containing the data to transmit
1020:.\Generated_Source\PSoC5/RF_Physical.c ****     *
1021:.\Generated_Source\PSoC5/RF_Physical.c ****     * Return:
1022:.\Generated_Source\PSoC5/RF_Physical.c ****     *  None.
1023:.\Generated_Source\PSoC5/RF_Physical.c ****     *
1024:.\Generated_Source\PSoC5/RF_Physical.c ****     * Global Variables:
1025:.\Generated_Source\PSoC5/RF_Physical.c ****     *  RF_Physical_txBuffer - RAM buffer pointer for save data for transmission
1026:.\Generated_Source\PSoC5/RF_Physical.c ****     *  RF_Physical_txBufferWrite - cyclic index for write to txBuffer,
1027:.\Generated_Source\PSoC5/RF_Physical.c ****     *     checked to identify free space in txBuffer and incremented after each byte
1028:.\Generated_Source\PSoC5/RF_Physical.c ****     *     saved to buffer.
1029:.\Generated_Source\PSoC5/RF_Physical.c ****     *  RF_Physical_txBufferRead - cyclic index for read from txBuffer,
1030:.\Generated_Source\PSoC5/RF_Physical.c ****     *     checked to identify free space in txBuffer.
1031:.\Generated_Source\PSoC5/RF_Physical.c ****     *  RF_Physical_initVar - checked to identify that the component has been
1032:.\Generated_Source\PSoC5/RF_Physical.c ****     *     initialized.
1033:.\Generated_Source\PSoC5/RF_Physical.c ****     *
1034:.\Generated_Source\PSoC5/RF_Physical.c ****     * Reentrant:
1035:.\Generated_Source\PSoC5/RF_Physical.c ****     *  No.
1036:.\Generated_Source\PSoC5/RF_Physical.c ****     *
1037:.\Generated_Source\PSoC5/RF_Physical.c ****     * Theory:
1038:.\Generated_Source\PSoC5/RF_Physical.c ****     *  Allows the user to transmit any byte of data in a single transfer
1039:.\Generated_Source\PSoC5/RF_Physical.c ****     *
1040:.\Generated_Source\PSoC5/RF_Physical.c ****     *******************************************************************************/
1041:.\Generated_Source\PSoC5/RF_Physical.c ****     void RF_Physical_PutChar(uint8 txDataByte) 
ARM GAS  C:\Users\RECEPC~1\AppData\Local\Temp\ccyux4kk.s 			page 35


1042:.\Generated_Source\PSoC5/RF_Physical.c ****     {
 891              		.loc 1 1042 0
 892              		.cfi_startproc
 893              		@ args = 0, pretend = 0, frame = 0
 894              		@ frame_needed = 0, uses_anonymous_args = 0
 895              		@ link register save eliminated.
 896              	.LVL60:
 897              	.L78:
1043:.\Generated_Source\PSoC5/RF_Physical.c ****     #if (RF_Physical_TX_INTERRUPT_ENABLED)
1044:.\Generated_Source\PSoC5/RF_Physical.c ****         /* The temporary output pointer is used since it takes two instructions
1045:.\Generated_Source\PSoC5/RF_Physical.c ****         *  to increment with a wrap, and we can't risk doing that with the real
1046:.\Generated_Source\PSoC5/RF_Physical.c ****         *  pointer and getting an interrupt in between instructions.
1047:.\Generated_Source\PSoC5/RF_Physical.c ****         */
1048:.\Generated_Source\PSoC5/RF_Physical.c ****         uint8 locTxBufferWrite;
1049:.\Generated_Source\PSoC5/RF_Physical.c ****         uint8 locTxBufferRead;
1050:.\Generated_Source\PSoC5/RF_Physical.c **** 
1051:.\Generated_Source\PSoC5/RF_Physical.c ****         do
1052:.\Generated_Source\PSoC5/RF_Physical.c ****         { /* Block if software buffer is full, so we don't overwrite. */
1053:.\Generated_Source\PSoC5/RF_Physical.c **** 
1054:.\Generated_Source\PSoC5/RF_Physical.c ****         #if ((RF_Physical_TX_BUFFER_SIZE > RF_Physical_MAX_BYTE_VALUE) && (CY_PSOC3))
1055:.\Generated_Source\PSoC5/RF_Physical.c ****             /* Disable TX interrupt to protect variables from modification */
1056:.\Generated_Source\PSoC5/RF_Physical.c ****             RF_Physical_DisableTxInt();
1057:.\Generated_Source\PSoC5/RF_Physical.c ****         #endif /* (RF_Physical_TX_BUFFER_SIZE > RF_Physical_MAX_BYTE_VALUE) && (CY_PSOC3) */
1058:.\Generated_Source\PSoC5/RF_Physical.c **** 
1059:.\Generated_Source\PSoC5/RF_Physical.c ****             locTxBufferWrite = RF_Physical_txBufferWrite;
1060:.\Generated_Source\PSoC5/RF_Physical.c ****             locTxBufferRead  = RF_Physical_txBufferRead;
1061:.\Generated_Source\PSoC5/RF_Physical.c **** 
1062:.\Generated_Source\PSoC5/RF_Physical.c ****         #if ((RF_Physical_TX_BUFFER_SIZE > RF_Physical_MAX_BYTE_VALUE) && (CY_PSOC3))
1063:.\Generated_Source\PSoC5/RF_Physical.c ****             /* Enable interrupt to continue transmission */
1064:.\Generated_Source\PSoC5/RF_Physical.c ****             RF_Physical_EnableTxInt();
1065:.\Generated_Source\PSoC5/RF_Physical.c ****         #endif /* (RF_Physical_TX_BUFFER_SIZE > RF_Physical_MAX_BYTE_VALUE) && (CY_PSOC3) */
1066:.\Generated_Source\PSoC5/RF_Physical.c ****         }
1067:.\Generated_Source\PSoC5/RF_Physical.c ****         while( (locTxBufferWrite < locTxBufferRead) ? (locTxBufferWrite == (locTxBufferRead - 1u)) 
1068:.\Generated_Source\PSoC5/RF_Physical.c ****                                 ((locTxBufferWrite - locTxBufferRead) ==
1069:.\Generated_Source\PSoC5/RF_Physical.c ****                                 (uint8)(RF_Physical_TX_BUFFER_SIZE - 1u)) );
1070:.\Generated_Source\PSoC5/RF_Physical.c **** 
1071:.\Generated_Source\PSoC5/RF_Physical.c ****         if( (locTxBufferRead == locTxBufferWrite) &&
1072:.\Generated_Source\PSoC5/RF_Physical.c ****             ((RF_Physical_TXSTATUS_REG & RF_Physical_TX_STS_FIFO_FULL) == 0u) )
1073:.\Generated_Source\PSoC5/RF_Physical.c ****         {
1074:.\Generated_Source\PSoC5/RF_Physical.c ****             /* Add directly to the FIFO */
1075:.\Generated_Source\PSoC5/RF_Physical.c ****             RF_Physical_TXDATA_REG = txDataByte;
1076:.\Generated_Source\PSoC5/RF_Physical.c ****         }
1077:.\Generated_Source\PSoC5/RF_Physical.c ****         else
1078:.\Generated_Source\PSoC5/RF_Physical.c ****         {
1079:.\Generated_Source\PSoC5/RF_Physical.c ****             if(locTxBufferWrite >= RF_Physical_TX_BUFFER_SIZE)
1080:.\Generated_Source\PSoC5/RF_Physical.c ****             {
1081:.\Generated_Source\PSoC5/RF_Physical.c ****                 locTxBufferWrite = 0u;
1082:.\Generated_Source\PSoC5/RF_Physical.c ****             }
1083:.\Generated_Source\PSoC5/RF_Physical.c ****             /* Add to the software buffer. */
1084:.\Generated_Source\PSoC5/RF_Physical.c ****             RF_Physical_txBuffer[locTxBufferWrite] = txDataByte;
1085:.\Generated_Source\PSoC5/RF_Physical.c ****             locTxBufferWrite++;
1086:.\Generated_Source\PSoC5/RF_Physical.c **** 
1087:.\Generated_Source\PSoC5/RF_Physical.c ****             /* Finally, update the real output pointer */
1088:.\Generated_Source\PSoC5/RF_Physical.c ****         #if ((RF_Physical_TX_BUFFER_SIZE > RF_Physical_MAX_BYTE_VALUE) && (CY_PSOC3))
1089:.\Generated_Source\PSoC5/RF_Physical.c ****             RF_Physical_DisableTxInt();
1090:.\Generated_Source\PSoC5/RF_Physical.c ****         #endif /* (RF_Physical_TX_BUFFER_SIZE > RF_Physical_MAX_BYTE_VALUE) && (CY_PSOC3) */
1091:.\Generated_Source\PSoC5/RF_Physical.c **** 
ARM GAS  C:\Users\RECEPC~1\AppData\Local\Temp\ccyux4kk.s 			page 36


1092:.\Generated_Source\PSoC5/RF_Physical.c ****             RF_Physical_txBufferWrite = locTxBufferWrite;
1093:.\Generated_Source\PSoC5/RF_Physical.c **** 
1094:.\Generated_Source\PSoC5/RF_Physical.c ****         #if ((RF_Physical_TX_BUFFER_SIZE > RF_Physical_MAX_BYTE_VALUE) && (CY_PSOC3))
1095:.\Generated_Source\PSoC5/RF_Physical.c ****             RF_Physical_EnableTxInt();
1096:.\Generated_Source\PSoC5/RF_Physical.c ****         #endif /* (RF_Physical_TX_BUFFER_SIZE > RF_Physical_MAX_BYTE_VALUE) && (CY_PSOC3) */
1097:.\Generated_Source\PSoC5/RF_Physical.c **** 
1098:.\Generated_Source\PSoC5/RF_Physical.c ****             if(0u != (RF_Physical_TXSTATUS_REG & RF_Physical_TX_STS_FIFO_EMPTY))
1099:.\Generated_Source\PSoC5/RF_Physical.c ****             {
1100:.\Generated_Source\PSoC5/RF_Physical.c ****                 /* Trigger TX interrupt to send software buffer */
1101:.\Generated_Source\PSoC5/RF_Physical.c ****                 RF_Physical_SetPendingTxInt();
1102:.\Generated_Source\PSoC5/RF_Physical.c ****             }
1103:.\Generated_Source\PSoC5/RF_Physical.c ****         }
1104:.\Generated_Source\PSoC5/RF_Physical.c **** 
1105:.\Generated_Source\PSoC5/RF_Physical.c ****     #else
1106:.\Generated_Source\PSoC5/RF_Physical.c **** 
1107:.\Generated_Source\PSoC5/RF_Physical.c ****         while((RF_Physical_TXSTATUS_REG & RF_Physical_TX_STS_FIFO_FULL) != 0u)
 898              		.loc 1 1107 0 discriminator 1
 899 0000 034B     		ldr	r3, .L79
 900 0002 1B78     		ldrb	r3, [r3]	@ zero_extendqisi2
 901 0004 13F0040F 		tst	r3, #4
 902 0008 FAD1     		bne	.L78
1108:.\Generated_Source\PSoC5/RF_Physical.c ****         {
1109:.\Generated_Source\PSoC5/RF_Physical.c ****             /* Wait for room in the FIFO */
1110:.\Generated_Source\PSoC5/RF_Physical.c ****         }
1111:.\Generated_Source\PSoC5/RF_Physical.c **** 
1112:.\Generated_Source\PSoC5/RF_Physical.c ****         /* Add directly to the FIFO */
1113:.\Generated_Source\PSoC5/RF_Physical.c ****         RF_Physical_TXDATA_REG = txDataByte;
 903              		.loc 1 1113 0
 904 000a 024B     		ldr	r3, .L79+4
 905 000c 1870     		strb	r0, [r3]
 906 000e 7047     		bx	lr
 907              	.L80:
 908              		.align	2
 909              	.L79:
 910 0010 62640040 		.word	1073767522
 911 0014 45640040 		.word	1073767493
 912              		.cfi_endproc
 913              	.LFE19:
 914              		.size	RF_Physical_PutChar, .-RF_Physical_PutChar
 915              		.section	.text.RF_Physical_PutString,"ax",%progbits
 916              		.align	2
 917              		.global	RF_Physical_PutString
 918              		.thumb
 919              		.thumb_func
 920              		.type	RF_Physical_PutString, %function
 921              	RF_Physical_PutString:
 922              	.LFB20:
1114:.\Generated_Source\PSoC5/RF_Physical.c **** 
1115:.\Generated_Source\PSoC5/RF_Physical.c ****     #endif /* RF_Physical_TX_INTERRUPT_ENABLED */
1116:.\Generated_Source\PSoC5/RF_Physical.c ****     }
1117:.\Generated_Source\PSoC5/RF_Physical.c **** 
1118:.\Generated_Source\PSoC5/RF_Physical.c **** 
1119:.\Generated_Source\PSoC5/RF_Physical.c ****     /*******************************************************************************
1120:.\Generated_Source\PSoC5/RF_Physical.c ****     * Function Name: RF_Physical_PutString
1121:.\Generated_Source\PSoC5/RF_Physical.c ****     ********************************************************************************
1122:.\Generated_Source\PSoC5/RF_Physical.c ****     *
1123:.\Generated_Source\PSoC5/RF_Physical.c ****     * Summary:
ARM GAS  C:\Users\RECEPC~1\AppData\Local\Temp\ccyux4kk.s 			page 37


1124:.\Generated_Source\PSoC5/RF_Physical.c ****     *  Sends a NULL terminated string to the TX buffer for transmission.
1125:.\Generated_Source\PSoC5/RF_Physical.c ****     *
1126:.\Generated_Source\PSoC5/RF_Physical.c ****     * Parameters:
1127:.\Generated_Source\PSoC5/RF_Physical.c ****     *  string[]: Pointer to the null terminated string array residing in RAM or ROM
1128:.\Generated_Source\PSoC5/RF_Physical.c ****     *
1129:.\Generated_Source\PSoC5/RF_Physical.c ****     * Return:
1130:.\Generated_Source\PSoC5/RF_Physical.c ****     *  None.
1131:.\Generated_Source\PSoC5/RF_Physical.c ****     *
1132:.\Generated_Source\PSoC5/RF_Physical.c ****     * Global Variables:
1133:.\Generated_Source\PSoC5/RF_Physical.c ****     *  RF_Physical_initVar - checked to identify that the component has been
1134:.\Generated_Source\PSoC5/RF_Physical.c ****     *     initialized.
1135:.\Generated_Source\PSoC5/RF_Physical.c ****     *
1136:.\Generated_Source\PSoC5/RF_Physical.c ****     * Reentrant:
1137:.\Generated_Source\PSoC5/RF_Physical.c ****     *  No.
1138:.\Generated_Source\PSoC5/RF_Physical.c ****     *
1139:.\Generated_Source\PSoC5/RF_Physical.c ****     * Theory:
1140:.\Generated_Source\PSoC5/RF_Physical.c ****     *  If there is not enough memory in the TX buffer for the entire string, this
1141:.\Generated_Source\PSoC5/RF_Physical.c ****     *  function blocks until the last character of the string is loaded into the
1142:.\Generated_Source\PSoC5/RF_Physical.c ****     *  TX buffer.
1143:.\Generated_Source\PSoC5/RF_Physical.c ****     *
1144:.\Generated_Source\PSoC5/RF_Physical.c ****     *******************************************************************************/
1145:.\Generated_Source\PSoC5/RF_Physical.c ****     void RF_Physical_PutString(const char8 string[]) 
1146:.\Generated_Source\PSoC5/RF_Physical.c ****     {
 923              		.loc 1 1146 0
 924              		.cfi_startproc
 925              		@ args = 0, pretend = 0, frame = 0
 926              		@ frame_needed = 0, uses_anonymous_args = 0
 927              	.LVL61:
 928 0000 38B5     		push	{r3, r4, r5, lr}
 929              		.cfi_def_cfa_offset 16
 930              		.cfi_offset 3, -16
 931              		.cfi_offset 4, -12
 932              		.cfi_offset 5, -8
 933              		.cfi_offset 14, -4
 934              	.LVL62:
1147:.\Generated_Source\PSoC5/RF_Physical.c ****         uint16 bufIndex = 0u;
1148:.\Generated_Source\PSoC5/RF_Physical.c **** 
1149:.\Generated_Source\PSoC5/RF_Physical.c ****         /* If not Initialized then skip this function */
1150:.\Generated_Source\PSoC5/RF_Physical.c ****         if(RF_Physical_initVar != 0u)
 935              		.loc 1 1150 0
 936 0002 074B     		ldr	r3, .L87
 937 0004 5B78     		ldrb	r3, [r3, #1]	@ zero_extendqisi2
 938 0006 2BB9     		cbnz	r3, .L85
 939 0008 38BD     		pop	{r3, r4, r5, pc}
 940              	.LVL63:
 941              	.L84:
1151:.\Generated_Source\PSoC5/RF_Physical.c ****         {
1152:.\Generated_Source\PSoC5/RF_Physical.c ****             /* This is a blocking function, it will not exit until all data is sent */
1153:.\Generated_Source\PSoC5/RF_Physical.c ****             while(string[bufIndex] != (char8) 0)
1154:.\Generated_Source\PSoC5/RF_Physical.c ****             {
1155:.\Generated_Source\PSoC5/RF_Physical.c ****                 RF_Physical_PutChar((uint8)string[bufIndex]);
 942              		.loc 1 1155 0
 943 000a FFF7FEFF 		bl	RF_Physical_PutChar
 944              	.LVL64:
1156:.\Generated_Source\PSoC5/RF_Physical.c ****                 bufIndex++;
 945              		.loc 1 1156 0
 946 000e 0134     		adds	r4, r4, #1
ARM GAS  C:\Users\RECEPC~1\AppData\Local\Temp\ccyux4kk.s 			page 38


 947              	.LVL65:
 948 0010 A4B2     		uxth	r4, r4
 949              	.LVL66:
 950 0012 01E0     		b	.L82
 951              	.LVL67:
 952              	.L85:
 953 0014 0546     		mov	r5, r0
 954 0016 0024     		movs	r4, #0
 955              	.LVL68:
 956              	.L82:
1153:.\Generated_Source\PSoC5/RF_Physical.c ****             {
 957              		.loc 1 1153 0
 958 0018 285D     		ldrb	r0, [r5, r4]	@ zero_extendqisi2
 959 001a 0028     		cmp	r0, #0
 960 001c F5D1     		bne	.L84
 961 001e 38BD     		pop	{r3, r4, r5, pc}
 962              	.LVL69:
 963              	.L88:
 964              		.align	2
 965              	.L87:
 966 0020 00000000 		.word	.LANCHOR0
 967              		.cfi_endproc
 968              	.LFE20:
 969              		.size	RF_Physical_PutString, .-RF_Physical_PutString
 970              		.section	.text.RF_Physical_PutArray,"ax",%progbits
 971              		.align	2
 972              		.global	RF_Physical_PutArray
 973              		.thumb
 974              		.thumb_func
 975              		.type	RF_Physical_PutArray, %function
 976              	RF_Physical_PutArray:
 977              	.LFB21:
1157:.\Generated_Source\PSoC5/RF_Physical.c ****             }
1158:.\Generated_Source\PSoC5/RF_Physical.c ****         }
1159:.\Generated_Source\PSoC5/RF_Physical.c ****     }
1160:.\Generated_Source\PSoC5/RF_Physical.c **** 
1161:.\Generated_Source\PSoC5/RF_Physical.c **** 
1162:.\Generated_Source\PSoC5/RF_Physical.c ****     /*******************************************************************************
1163:.\Generated_Source\PSoC5/RF_Physical.c ****     * Function Name: RF_Physical_PutArray
1164:.\Generated_Source\PSoC5/RF_Physical.c ****     ********************************************************************************
1165:.\Generated_Source\PSoC5/RF_Physical.c ****     *
1166:.\Generated_Source\PSoC5/RF_Physical.c ****     * Summary:
1167:.\Generated_Source\PSoC5/RF_Physical.c ****     *  Places N bytes of data from a memory array into the TX buffer for
1168:.\Generated_Source\PSoC5/RF_Physical.c ****     *  transmission.
1169:.\Generated_Source\PSoC5/RF_Physical.c ****     *
1170:.\Generated_Source\PSoC5/RF_Physical.c ****     * Parameters:
1171:.\Generated_Source\PSoC5/RF_Physical.c ****     *  string[]: Address of the memory array residing in RAM or ROM.
1172:.\Generated_Source\PSoC5/RF_Physical.c ****     *  byteCount: Number of bytes to be transmitted. The type depends on TX Buffer
1173:.\Generated_Source\PSoC5/RF_Physical.c ****     *             Size parameter.
1174:.\Generated_Source\PSoC5/RF_Physical.c ****     *
1175:.\Generated_Source\PSoC5/RF_Physical.c ****     * Return:
1176:.\Generated_Source\PSoC5/RF_Physical.c ****     *  None.
1177:.\Generated_Source\PSoC5/RF_Physical.c ****     *
1178:.\Generated_Source\PSoC5/RF_Physical.c ****     * Global Variables:
1179:.\Generated_Source\PSoC5/RF_Physical.c ****     *  RF_Physical_initVar - checked to identify that the component has been
1180:.\Generated_Source\PSoC5/RF_Physical.c ****     *     initialized.
1181:.\Generated_Source\PSoC5/RF_Physical.c ****     *
ARM GAS  C:\Users\RECEPC~1\AppData\Local\Temp\ccyux4kk.s 			page 39


1182:.\Generated_Source\PSoC5/RF_Physical.c ****     * Reentrant:
1183:.\Generated_Source\PSoC5/RF_Physical.c ****     *  No.
1184:.\Generated_Source\PSoC5/RF_Physical.c ****     *
1185:.\Generated_Source\PSoC5/RF_Physical.c ****     * Theory:
1186:.\Generated_Source\PSoC5/RF_Physical.c ****     *  If there is not enough memory in the TX buffer for the entire string, this
1187:.\Generated_Source\PSoC5/RF_Physical.c ****     *  function blocks until the last character of the string is loaded into the
1188:.\Generated_Source\PSoC5/RF_Physical.c ****     *  TX buffer.
1189:.\Generated_Source\PSoC5/RF_Physical.c ****     *
1190:.\Generated_Source\PSoC5/RF_Physical.c ****     *******************************************************************************/
1191:.\Generated_Source\PSoC5/RF_Physical.c ****     void RF_Physical_PutArray(const uint8 string[], uint8 byteCount)
1192:.\Generated_Source\PSoC5/RF_Physical.c ****                                                                     
1193:.\Generated_Source\PSoC5/RF_Physical.c ****     {
 978              		.loc 1 1193 0
 979              		.cfi_startproc
 980              		@ args = 0, pretend = 0, frame = 0
 981              		@ frame_needed = 0, uses_anonymous_args = 0
 982              	.LVL70:
1194:.\Generated_Source\PSoC5/RF_Physical.c ****         uint8 bufIndex = 0u;
1195:.\Generated_Source\PSoC5/RF_Physical.c **** 
1196:.\Generated_Source\PSoC5/RF_Physical.c ****         /* If not Initialized then skip this function */
1197:.\Generated_Source\PSoC5/RF_Physical.c ****         if(RF_Physical_initVar != 0u)
 983              		.loc 1 1197 0
 984 0000 084B     		ldr	r3, .L95
 985 0002 5B78     		ldrb	r3, [r3, #1]	@ zero_extendqisi2
 986 0004 33B9     		cbnz	r3, .L93
 987 0006 7047     		bx	lr
 988              	.LVL71:
 989              	.L92:
 990              		.cfi_def_cfa_offset 16
 991              		.cfi_offset 4, -16
 992              		.cfi_offset 5, -12
 993              		.cfi_offset 6, -8
 994              		.cfi_offset 14, -4
1198:.\Generated_Source\PSoC5/RF_Physical.c ****         {
1199:.\Generated_Source\PSoC5/RF_Physical.c ****             while(bufIndex < byteCount)
1200:.\Generated_Source\PSoC5/RF_Physical.c ****             {
1201:.\Generated_Source\PSoC5/RF_Physical.c ****                 RF_Physical_PutChar(string[bufIndex]);
 995              		.loc 1 1201 0
 996 0008 305D     		ldrb	r0, [r6, r4]	@ zero_extendqisi2
 997 000a FFF7FEFF 		bl	RF_Physical_PutChar
 998              	.LVL72:
1202:.\Generated_Source\PSoC5/RF_Physical.c ****                 bufIndex++;
 999              		.loc 1 1202 0
 1000 000e 0134     		adds	r4, r4, #1
 1001              	.LVL73:
 1002 0010 E4B2     		uxtb	r4, r4
 1003              	.LVL74:
 1004 0012 03E0     		b	.L90
 1005              	.LVL75:
 1006              	.L93:
 1007              		.cfi_def_cfa_offset 0
 1008              		.cfi_restore 4
 1009              		.cfi_restore 5
 1010              		.cfi_restore 6
 1011              		.cfi_restore 14
1193:.\Generated_Source\PSoC5/RF_Physical.c ****         uint8 bufIndex = 0u;
 1012              		.loc 1 1193 0
ARM GAS  C:\Users\RECEPC~1\AppData\Local\Temp\ccyux4kk.s 			page 40


 1013 0014 70B5     		push	{r4, r5, r6, lr}
 1014              		.cfi_def_cfa_offset 16
 1015              		.cfi_offset 4, -16
 1016              		.cfi_offset 5, -12
 1017              		.cfi_offset 6, -8
 1018              		.cfi_offset 14, -4
 1019 0016 0D46     		mov	r5, r1
 1020 0018 0646     		mov	r6, r0
 1021 001a 0024     		movs	r4, #0
 1022              	.LVL76:
 1023              	.L90:
1199:.\Generated_Source\PSoC5/RF_Physical.c ****             {
 1024              		.loc 1 1199 0
 1025 001c AC42     		cmp	r4, r5
 1026 001e F3D3     		bcc	.L92
 1027 0020 70BD     		pop	{r4, r5, r6, pc}
 1028              	.LVL77:
 1029              	.L96:
 1030 0022 00BF     		.align	2
 1031              	.L95:
 1032 0024 00000000 		.word	.LANCHOR0
 1033              		.cfi_endproc
 1034              	.LFE21:
 1035              		.size	RF_Physical_PutArray, .-RF_Physical_PutArray
 1036              		.section	.text.RF_Physical_PutCRLF,"ax",%progbits
 1037              		.align	2
 1038              		.global	RF_Physical_PutCRLF
 1039              		.thumb
 1040              		.thumb_func
 1041              		.type	RF_Physical_PutCRLF, %function
 1042              	RF_Physical_PutCRLF:
 1043              	.LFB22:
1203:.\Generated_Source\PSoC5/RF_Physical.c ****             }
1204:.\Generated_Source\PSoC5/RF_Physical.c ****         }
1205:.\Generated_Source\PSoC5/RF_Physical.c ****     }
1206:.\Generated_Source\PSoC5/RF_Physical.c **** 
1207:.\Generated_Source\PSoC5/RF_Physical.c **** 
1208:.\Generated_Source\PSoC5/RF_Physical.c ****     /*******************************************************************************
1209:.\Generated_Source\PSoC5/RF_Physical.c ****     * Function Name: RF_Physical_PutCRLF
1210:.\Generated_Source\PSoC5/RF_Physical.c ****     ********************************************************************************
1211:.\Generated_Source\PSoC5/RF_Physical.c ****     *
1212:.\Generated_Source\PSoC5/RF_Physical.c ****     * Summary:
1213:.\Generated_Source\PSoC5/RF_Physical.c ****     *  Writes a byte of data followed by a carriage return (0x0D) and line feed
1214:.\Generated_Source\PSoC5/RF_Physical.c ****     *  (0x0A) to the transmit buffer.
1215:.\Generated_Source\PSoC5/RF_Physical.c ****     *
1216:.\Generated_Source\PSoC5/RF_Physical.c ****     * Parameters:
1217:.\Generated_Source\PSoC5/RF_Physical.c ****     *  txDataByte: Data byte to transmit before the carriage return and line feed.
1218:.\Generated_Source\PSoC5/RF_Physical.c ****     *
1219:.\Generated_Source\PSoC5/RF_Physical.c ****     * Return:
1220:.\Generated_Source\PSoC5/RF_Physical.c ****     *  None.
1221:.\Generated_Source\PSoC5/RF_Physical.c ****     *
1222:.\Generated_Source\PSoC5/RF_Physical.c ****     * Global Variables:
1223:.\Generated_Source\PSoC5/RF_Physical.c ****     *  RF_Physical_initVar - checked to identify that the component has been
1224:.\Generated_Source\PSoC5/RF_Physical.c ****     *     initialized.
1225:.\Generated_Source\PSoC5/RF_Physical.c ****     *
1226:.\Generated_Source\PSoC5/RF_Physical.c ****     * Reentrant:
1227:.\Generated_Source\PSoC5/RF_Physical.c ****     *  No.
ARM GAS  C:\Users\RECEPC~1\AppData\Local\Temp\ccyux4kk.s 			page 41


1228:.\Generated_Source\PSoC5/RF_Physical.c ****     *
1229:.\Generated_Source\PSoC5/RF_Physical.c ****     *******************************************************************************/
1230:.\Generated_Source\PSoC5/RF_Physical.c ****     void RF_Physical_PutCRLF(uint8 txDataByte) 
1231:.\Generated_Source\PSoC5/RF_Physical.c ****     {
 1044              		.loc 1 1231 0
 1045              		.cfi_startproc
 1046              		@ args = 0, pretend = 0, frame = 0
 1047              		@ frame_needed = 0, uses_anonymous_args = 0
 1048              	.LVL78:
 1049 0000 08B5     		push	{r3, lr}
 1050              		.cfi_def_cfa_offset 8
 1051              		.cfi_offset 3, -8
 1052              		.cfi_offset 14, -4
1232:.\Generated_Source\PSoC5/RF_Physical.c ****         /* If not Initialized then skip this function */
1233:.\Generated_Source\PSoC5/RF_Physical.c ****         if(RF_Physical_initVar != 0u)
 1053              		.loc 1 1233 0
 1054 0002 064B     		ldr	r3, .L100
 1055 0004 5B78     		ldrb	r3, [r3, #1]	@ zero_extendqisi2
 1056 0006 3BB1     		cbz	r3, .L97
1234:.\Generated_Source\PSoC5/RF_Physical.c ****         {
1235:.\Generated_Source\PSoC5/RF_Physical.c ****             RF_Physical_PutChar(txDataByte);
 1057              		.loc 1 1235 0
 1058 0008 FFF7FEFF 		bl	RF_Physical_PutChar
 1059              	.LVL79:
1236:.\Generated_Source\PSoC5/RF_Physical.c ****             RF_Physical_PutChar(0x0Du);
 1060              		.loc 1 1236 0
 1061 000c 0D20     		movs	r0, #13
 1062 000e FFF7FEFF 		bl	RF_Physical_PutChar
 1063              	.LVL80:
1237:.\Generated_Source\PSoC5/RF_Physical.c ****             RF_Physical_PutChar(0x0Au);
 1064              		.loc 1 1237 0
 1065 0012 0A20     		movs	r0, #10
 1066 0014 FFF7FEFF 		bl	RF_Physical_PutChar
 1067              	.LVL81:
 1068              	.L97:
 1069 0018 08BD     		pop	{r3, pc}
 1070              	.L101:
 1071 001a 00BF     		.align	2
 1072              	.L100:
 1073 001c 00000000 		.word	.LANCHOR0
 1074              		.cfi_endproc
 1075              	.LFE22:
 1076              		.size	RF_Physical_PutCRLF, .-RF_Physical_PutCRLF
 1077              		.section	.text.RF_Physical_GetTxBufferSize,"ax",%progbits
 1078              		.align	2
 1079              		.global	RF_Physical_GetTxBufferSize
 1080              		.thumb
 1081              		.thumb_func
 1082              		.type	RF_Physical_GetTxBufferSize, %function
 1083              	RF_Physical_GetTxBufferSize:
 1084              	.LFB23:
1238:.\Generated_Source\PSoC5/RF_Physical.c ****         }
1239:.\Generated_Source\PSoC5/RF_Physical.c ****     }
1240:.\Generated_Source\PSoC5/RF_Physical.c **** 
1241:.\Generated_Source\PSoC5/RF_Physical.c **** 
1242:.\Generated_Source\PSoC5/RF_Physical.c ****     /*******************************************************************************
1243:.\Generated_Source\PSoC5/RF_Physical.c ****     * Function Name: RF_Physical_GetTxBufferSize
ARM GAS  C:\Users\RECEPC~1\AppData\Local\Temp\ccyux4kk.s 			page 42


1244:.\Generated_Source\PSoC5/RF_Physical.c ****     ********************************************************************************
1245:.\Generated_Source\PSoC5/RF_Physical.c ****     *
1246:.\Generated_Source\PSoC5/RF_Physical.c ****     * Summary:
1247:.\Generated_Source\PSoC5/RF_Physical.c ****     *  Returns the number of bytes in the TX buffer which are waiting to be 
1248:.\Generated_Source\PSoC5/RF_Physical.c ****     *  transmitted.
1249:.\Generated_Source\PSoC5/RF_Physical.c ****     *  * TX software buffer is disabled (TX Buffer Size parameter is equal to 4): 
1250:.\Generated_Source\PSoC5/RF_Physical.c ****     *    returns 0 for empty TX FIFO, 1 for not full TX FIFO or 4 for full TX FIFO.
1251:.\Generated_Source\PSoC5/RF_Physical.c ****     *  * TX software buffer is enabled: returns the number of bytes in the TX 
1252:.\Generated_Source\PSoC5/RF_Physical.c ****     *    software buffer which are waiting to be transmitted. Bytes available in the
1253:.\Generated_Source\PSoC5/RF_Physical.c ****     *    TX FIFO do not count.
1254:.\Generated_Source\PSoC5/RF_Physical.c ****     *
1255:.\Generated_Source\PSoC5/RF_Physical.c ****     * Parameters:
1256:.\Generated_Source\PSoC5/RF_Physical.c ****     *  None.
1257:.\Generated_Source\PSoC5/RF_Physical.c ****     *
1258:.\Generated_Source\PSoC5/RF_Physical.c ****     * Return:
1259:.\Generated_Source\PSoC5/RF_Physical.c ****     *  Number of bytes used in the TX buffer. Return value type depends on the TX 
1260:.\Generated_Source\PSoC5/RF_Physical.c ****     *  Buffer Size parameter.
1261:.\Generated_Source\PSoC5/RF_Physical.c ****     *
1262:.\Generated_Source\PSoC5/RF_Physical.c ****     * Global Variables:
1263:.\Generated_Source\PSoC5/RF_Physical.c ****     *  RF_Physical_txBufferWrite - used to calculate left space.
1264:.\Generated_Source\PSoC5/RF_Physical.c ****     *  RF_Physical_txBufferRead - used to calculate left space.
1265:.\Generated_Source\PSoC5/RF_Physical.c ****     *
1266:.\Generated_Source\PSoC5/RF_Physical.c ****     * Reentrant:
1267:.\Generated_Source\PSoC5/RF_Physical.c ****     *  No.
1268:.\Generated_Source\PSoC5/RF_Physical.c ****     *
1269:.\Generated_Source\PSoC5/RF_Physical.c ****     * Theory:
1270:.\Generated_Source\PSoC5/RF_Physical.c ****     *  Allows the user to find out how full the TX Buffer is.
1271:.\Generated_Source\PSoC5/RF_Physical.c ****     *
1272:.\Generated_Source\PSoC5/RF_Physical.c ****     *******************************************************************************/
1273:.\Generated_Source\PSoC5/RF_Physical.c ****     uint8 RF_Physical_GetTxBufferSize(void)
1274:.\Generated_Source\PSoC5/RF_Physical.c ****                                                             
1275:.\Generated_Source\PSoC5/RF_Physical.c ****     {
 1085              		.loc 1 1275 0
 1086              		.cfi_startproc
 1087              		@ args = 0, pretend = 0, frame = 0
 1088              		@ frame_needed = 0, uses_anonymous_args = 0
 1089              		@ link register save eliminated.
1276:.\Generated_Source\PSoC5/RF_Physical.c ****         uint8 size;
1277:.\Generated_Source\PSoC5/RF_Physical.c **** 
1278:.\Generated_Source\PSoC5/RF_Physical.c ****     #if (RF_Physical_TX_INTERRUPT_ENABLED)
1279:.\Generated_Source\PSoC5/RF_Physical.c **** 
1280:.\Generated_Source\PSoC5/RF_Physical.c ****         /* Protect variables that could change on interrupt. */
1281:.\Generated_Source\PSoC5/RF_Physical.c ****         RF_Physical_DisableTxInt();
1282:.\Generated_Source\PSoC5/RF_Physical.c **** 
1283:.\Generated_Source\PSoC5/RF_Physical.c ****         if(RF_Physical_txBufferRead == RF_Physical_txBufferWrite)
1284:.\Generated_Source\PSoC5/RF_Physical.c ****         {
1285:.\Generated_Source\PSoC5/RF_Physical.c ****             size = 0u;
1286:.\Generated_Source\PSoC5/RF_Physical.c ****         }
1287:.\Generated_Source\PSoC5/RF_Physical.c ****         else if(RF_Physical_txBufferRead < RF_Physical_txBufferWrite)
1288:.\Generated_Source\PSoC5/RF_Physical.c ****         {
1289:.\Generated_Source\PSoC5/RF_Physical.c ****             size = (RF_Physical_txBufferWrite - RF_Physical_txBufferRead);
1290:.\Generated_Source\PSoC5/RF_Physical.c ****         }
1291:.\Generated_Source\PSoC5/RF_Physical.c ****         else
1292:.\Generated_Source\PSoC5/RF_Physical.c ****         {
1293:.\Generated_Source\PSoC5/RF_Physical.c ****             size = (RF_Physical_TX_BUFFER_SIZE - RF_Physical_txBufferRead) +
1294:.\Generated_Source\PSoC5/RF_Physical.c ****                     RF_Physical_txBufferWrite;
1295:.\Generated_Source\PSoC5/RF_Physical.c ****         }
ARM GAS  C:\Users\RECEPC~1\AppData\Local\Temp\ccyux4kk.s 			page 43


1296:.\Generated_Source\PSoC5/RF_Physical.c **** 
1297:.\Generated_Source\PSoC5/RF_Physical.c ****         RF_Physical_EnableTxInt();
1298:.\Generated_Source\PSoC5/RF_Physical.c **** 
1299:.\Generated_Source\PSoC5/RF_Physical.c ****     #else
1300:.\Generated_Source\PSoC5/RF_Physical.c **** 
1301:.\Generated_Source\PSoC5/RF_Physical.c ****         size = RF_Physical_TXSTATUS_REG;
 1090              		.loc 1 1301 0
 1091 0000 074B     		ldr	r3, .L106
 1092 0002 1B78     		ldrb	r3, [r3]	@ zero_extendqisi2
 1093 0004 DBB2     		uxtb	r3, r3
 1094              	.LVL82:
1302:.\Generated_Source\PSoC5/RF_Physical.c **** 
1303:.\Generated_Source\PSoC5/RF_Physical.c ****         /* Is the fifo is full. */
1304:.\Generated_Source\PSoC5/RF_Physical.c ****         if((size & RF_Physical_TX_STS_FIFO_FULL) != 0u)
 1095              		.loc 1 1304 0
 1096 0006 13F0040F 		tst	r3, #4
 1097 000a 04D1     		bne	.L104
1305:.\Generated_Source\PSoC5/RF_Physical.c ****         {
1306:.\Generated_Source\PSoC5/RF_Physical.c ****             size = RF_Physical_FIFO_LENGTH;
1307:.\Generated_Source\PSoC5/RF_Physical.c ****         }
1308:.\Generated_Source\PSoC5/RF_Physical.c ****         else if((size & RF_Physical_TX_STS_FIFO_EMPTY) != 0u)
 1098              		.loc 1 1308 0
 1099 000c 13F0020F 		tst	r3, #2
 1100 0010 03D0     		beq	.L105
1309:.\Generated_Source\PSoC5/RF_Physical.c ****         {
1310:.\Generated_Source\PSoC5/RF_Physical.c ****             size = 0u;
 1101              		.loc 1 1310 0
 1102 0012 0020     		movs	r0, #0
 1103 0014 7047     		bx	lr
 1104              	.L104:
1306:.\Generated_Source\PSoC5/RF_Physical.c ****         }
 1105              		.loc 1 1306 0
 1106 0016 0420     		movs	r0, #4
 1107 0018 7047     		bx	lr
 1108              	.L105:
1311:.\Generated_Source\PSoC5/RF_Physical.c ****         }
1312:.\Generated_Source\PSoC5/RF_Physical.c ****         else
1313:.\Generated_Source\PSoC5/RF_Physical.c ****         {
1314:.\Generated_Source\PSoC5/RF_Physical.c ****             /* We only know there is data in the fifo. */
1315:.\Generated_Source\PSoC5/RF_Physical.c ****             size = 1u;
 1109              		.loc 1 1315 0
 1110 001a 0120     		movs	r0, #1
 1111              	.LVL83:
1316:.\Generated_Source\PSoC5/RF_Physical.c ****         }
1317:.\Generated_Source\PSoC5/RF_Physical.c **** 
1318:.\Generated_Source\PSoC5/RF_Physical.c ****     #endif /* (RF_Physical_TX_INTERRUPT_ENABLED) */
1319:.\Generated_Source\PSoC5/RF_Physical.c **** 
1320:.\Generated_Source\PSoC5/RF_Physical.c ****     return(size);
1321:.\Generated_Source\PSoC5/RF_Physical.c ****     }
 1112              		.loc 1 1321 0
 1113 001c 7047     		bx	lr
 1114              	.L107:
 1115 001e 00BF     		.align	2
 1116              	.L106:
 1117 0020 62640040 		.word	1073767522
 1118              		.cfi_endproc
 1119              	.LFE23:
ARM GAS  C:\Users\RECEPC~1\AppData\Local\Temp\ccyux4kk.s 			page 44


 1120              		.size	RF_Physical_GetTxBufferSize, .-RF_Physical_GetTxBufferSize
 1121              		.section	.text.RF_Physical_ClearTxBuffer,"ax",%progbits
 1122              		.align	2
 1123              		.global	RF_Physical_ClearTxBuffer
 1124              		.thumb
 1125              		.thumb_func
 1126              		.type	RF_Physical_ClearTxBuffer, %function
 1127              	RF_Physical_ClearTxBuffer:
 1128              	.LFB24:
1322:.\Generated_Source\PSoC5/RF_Physical.c **** 
1323:.\Generated_Source\PSoC5/RF_Physical.c **** 
1324:.\Generated_Source\PSoC5/RF_Physical.c ****     /*******************************************************************************
1325:.\Generated_Source\PSoC5/RF_Physical.c ****     * Function Name: RF_Physical_ClearTxBuffer
1326:.\Generated_Source\PSoC5/RF_Physical.c ****     ********************************************************************************
1327:.\Generated_Source\PSoC5/RF_Physical.c ****     *
1328:.\Generated_Source\PSoC5/RF_Physical.c ****     * Summary:
1329:.\Generated_Source\PSoC5/RF_Physical.c ****     *  Clears all data from the TX buffer and hardware TX FIFO.
1330:.\Generated_Source\PSoC5/RF_Physical.c ****     *
1331:.\Generated_Source\PSoC5/RF_Physical.c ****     * Parameters:
1332:.\Generated_Source\PSoC5/RF_Physical.c ****     *  None.
1333:.\Generated_Source\PSoC5/RF_Physical.c ****     *
1334:.\Generated_Source\PSoC5/RF_Physical.c ****     * Return:
1335:.\Generated_Source\PSoC5/RF_Physical.c ****     *  None.
1336:.\Generated_Source\PSoC5/RF_Physical.c ****     *
1337:.\Generated_Source\PSoC5/RF_Physical.c ****     * Global Variables:
1338:.\Generated_Source\PSoC5/RF_Physical.c ****     *  RF_Physical_txBufferWrite - cleared to zero.
1339:.\Generated_Source\PSoC5/RF_Physical.c ****     *  RF_Physical_txBufferRead - cleared to zero.
1340:.\Generated_Source\PSoC5/RF_Physical.c ****     *
1341:.\Generated_Source\PSoC5/RF_Physical.c ****     * Reentrant:
1342:.\Generated_Source\PSoC5/RF_Physical.c ****     *  No.
1343:.\Generated_Source\PSoC5/RF_Physical.c ****     *
1344:.\Generated_Source\PSoC5/RF_Physical.c ****     * Theory:
1345:.\Generated_Source\PSoC5/RF_Physical.c ****     *  Setting the pointers to zero makes the system believe there is no data to
1346:.\Generated_Source\PSoC5/RF_Physical.c ****     *  read and writing will resume at address 0 overwriting any data that may have
1347:.\Generated_Source\PSoC5/RF_Physical.c ****     *  remained in the RAM.
1348:.\Generated_Source\PSoC5/RF_Physical.c ****     *
1349:.\Generated_Source\PSoC5/RF_Physical.c ****     * Side Effects:
1350:.\Generated_Source\PSoC5/RF_Physical.c ****     *  Data waiting in the transmit buffer is not sent; a byte that is currently
1351:.\Generated_Source\PSoC5/RF_Physical.c ****     *  transmitting finishes transmitting.
1352:.\Generated_Source\PSoC5/RF_Physical.c ****     *
1353:.\Generated_Source\PSoC5/RF_Physical.c ****     *******************************************************************************/
1354:.\Generated_Source\PSoC5/RF_Physical.c ****     void RF_Physical_ClearTxBuffer(void) 
1355:.\Generated_Source\PSoC5/RF_Physical.c ****     {
 1129              		.loc 1 1355 0
 1130              		.cfi_startproc
 1131              		@ args = 0, pretend = 0, frame = 0
 1132              		@ frame_needed = 0, uses_anonymous_args = 0
 1133 0000 08B5     		push	{r3, lr}
 1134              		.cfi_def_cfa_offset 8
 1135              		.cfi_offset 3, -8
 1136              		.cfi_offset 14, -4
1356:.\Generated_Source\PSoC5/RF_Physical.c ****         uint8 enableInterrupts;
1357:.\Generated_Source\PSoC5/RF_Physical.c **** 
1358:.\Generated_Source\PSoC5/RF_Physical.c ****         enableInterrupts = CyEnterCriticalSection();
 1137              		.loc 1 1358 0
 1138 0002 FFF7FEFF 		bl	CyEnterCriticalSection
 1139              	.LVL84:
ARM GAS  C:\Users\RECEPC~1\AppData\Local\Temp\ccyux4kk.s 			page 45


1359:.\Generated_Source\PSoC5/RF_Physical.c ****         /* Clear the HW FIFO */
1360:.\Generated_Source\PSoC5/RF_Physical.c ****         RF_Physical_TXDATA_AUX_CTL_REG |= (uint8)  RF_Physical_TX_FIFO_CLR;
 1140              		.loc 1 1360 0
 1141 0006 064B     		ldr	r3, .L110
 1142 0008 1A78     		ldrb	r2, [r3]	@ zero_extendqisi2
 1143 000a 42F00102 		orr	r2, r2, #1
 1144 000e 1A70     		strb	r2, [r3]
1361:.\Generated_Source\PSoC5/RF_Physical.c ****         RF_Physical_TXDATA_AUX_CTL_REG &= (uint8) ~RF_Physical_TX_FIFO_CLR;
 1145              		.loc 1 1361 0
 1146 0010 1A78     		ldrb	r2, [r3]	@ zero_extendqisi2
 1147 0012 02F0FE02 		and	r2, r2, #254
 1148 0016 1A70     		strb	r2, [r3]
1362:.\Generated_Source\PSoC5/RF_Physical.c ****         CyExitCriticalSection(enableInterrupts);
 1149              		.loc 1 1362 0
 1150 0018 FFF7FEFF 		bl	CyExitCriticalSection
 1151              	.LVL85:
 1152 001c 08BD     		pop	{r3, pc}
 1153              	.L111:
 1154 001e 00BF     		.align	2
 1155              	.L110:
 1156 0020 95640040 		.word	1073767573
 1157              		.cfi_endproc
 1158              	.LFE24:
 1159              		.size	RF_Physical_ClearTxBuffer, .-RF_Physical_ClearTxBuffer
 1160              		.section	.text.RF_Physical_SendBreak,"ax",%progbits
 1161              		.align	2
 1162              		.global	RF_Physical_SendBreak
 1163              		.thumb
 1164              		.thumb_func
 1165              		.type	RF_Physical_SendBreak, %function
 1166              	RF_Physical_SendBreak:
 1167              	.LFB25:
1363:.\Generated_Source\PSoC5/RF_Physical.c **** 
1364:.\Generated_Source\PSoC5/RF_Physical.c ****     #if (RF_Physical_TX_INTERRUPT_ENABLED)
1365:.\Generated_Source\PSoC5/RF_Physical.c **** 
1366:.\Generated_Source\PSoC5/RF_Physical.c ****         /* Protect variables that could change on interrupt. */
1367:.\Generated_Source\PSoC5/RF_Physical.c ****         RF_Physical_DisableTxInt();
1368:.\Generated_Source\PSoC5/RF_Physical.c **** 
1369:.\Generated_Source\PSoC5/RF_Physical.c ****         RF_Physical_txBufferRead = 0u;
1370:.\Generated_Source\PSoC5/RF_Physical.c ****         RF_Physical_txBufferWrite = 0u;
1371:.\Generated_Source\PSoC5/RF_Physical.c **** 
1372:.\Generated_Source\PSoC5/RF_Physical.c ****         /* Enable Tx interrupt. */
1373:.\Generated_Source\PSoC5/RF_Physical.c ****         RF_Physical_EnableTxInt();
1374:.\Generated_Source\PSoC5/RF_Physical.c **** 
1375:.\Generated_Source\PSoC5/RF_Physical.c ****     #endif /* (RF_Physical_TX_INTERRUPT_ENABLED) */
1376:.\Generated_Source\PSoC5/RF_Physical.c ****     }
1377:.\Generated_Source\PSoC5/RF_Physical.c **** 
1378:.\Generated_Source\PSoC5/RF_Physical.c **** 
1379:.\Generated_Source\PSoC5/RF_Physical.c ****     /*******************************************************************************
1380:.\Generated_Source\PSoC5/RF_Physical.c ****     * Function Name: RF_Physical_SendBreak
1381:.\Generated_Source\PSoC5/RF_Physical.c ****     ********************************************************************************
1382:.\Generated_Source\PSoC5/RF_Physical.c ****     *
1383:.\Generated_Source\PSoC5/RF_Physical.c ****     * Summary:
1384:.\Generated_Source\PSoC5/RF_Physical.c ****     *  Transmits a break signal on the bus.
1385:.\Generated_Source\PSoC5/RF_Physical.c ****     *
1386:.\Generated_Source\PSoC5/RF_Physical.c ****     * Parameters:
1387:.\Generated_Source\PSoC5/RF_Physical.c ****     *  uint8 retMode:  Send Break return mode. See the following table for options.
ARM GAS  C:\Users\RECEPC~1\AppData\Local\Temp\ccyux4kk.s 			page 46


1388:.\Generated_Source\PSoC5/RF_Physical.c ****     *   RF_Physical_SEND_BREAK - Initialize registers for break, send the Break
1389:.\Generated_Source\PSoC5/RF_Physical.c ****     *       signal and return immediately.
1390:.\Generated_Source\PSoC5/RF_Physical.c ****     *   RF_Physical_WAIT_FOR_COMPLETE_REINIT - Wait until break transmission is
1391:.\Generated_Source\PSoC5/RF_Physical.c ****     *       complete, reinitialize registers to normal transmission mode then return
1392:.\Generated_Source\PSoC5/RF_Physical.c ****     *   RF_Physical_REINIT - Reinitialize registers to normal transmission mode
1393:.\Generated_Source\PSoC5/RF_Physical.c ****     *       then return.
1394:.\Generated_Source\PSoC5/RF_Physical.c ****     *   RF_Physical_SEND_WAIT_REINIT - Performs both options: 
1395:.\Generated_Source\PSoC5/RF_Physical.c ****     *      RF_Physical_SEND_BREAK and RF_Physical_WAIT_FOR_COMPLETE_REINIT.
1396:.\Generated_Source\PSoC5/RF_Physical.c ****     *      This option is recommended for most cases.
1397:.\Generated_Source\PSoC5/RF_Physical.c ****     *
1398:.\Generated_Source\PSoC5/RF_Physical.c ****     * Return:
1399:.\Generated_Source\PSoC5/RF_Physical.c ****     *  None.
1400:.\Generated_Source\PSoC5/RF_Physical.c ****     *
1401:.\Generated_Source\PSoC5/RF_Physical.c ****     * Global Variables:
1402:.\Generated_Source\PSoC5/RF_Physical.c ****     *  RF_Physical_initVar - checked to identify that the component has been
1403:.\Generated_Source\PSoC5/RF_Physical.c ****     *     initialized.
1404:.\Generated_Source\PSoC5/RF_Physical.c ****     *  txPeriod - static variable, used for keeping TX period configuration.
1405:.\Generated_Source\PSoC5/RF_Physical.c ****     *
1406:.\Generated_Source\PSoC5/RF_Physical.c ****     * Reentrant:
1407:.\Generated_Source\PSoC5/RF_Physical.c ****     *  No.
1408:.\Generated_Source\PSoC5/RF_Physical.c ****     *
1409:.\Generated_Source\PSoC5/RF_Physical.c ****     * Theory:
1410:.\Generated_Source\PSoC5/RF_Physical.c ****     *  SendBreak function initializes registers to send 13-bit break signal. It is
1411:.\Generated_Source\PSoC5/RF_Physical.c ****     *  important to return the registers configuration to normal for continue 8-bit
1412:.\Generated_Source\PSoC5/RF_Physical.c ****     *  operation.
1413:.\Generated_Source\PSoC5/RF_Physical.c ****     *  There are 3 variants for this API usage:
1414:.\Generated_Source\PSoC5/RF_Physical.c ****     *  1) SendBreak(3) - function will send the Break signal and take care on the
1415:.\Generated_Source\PSoC5/RF_Physical.c ****     *     configuration returning. Function will block CPU until transmission
1416:.\Generated_Source\PSoC5/RF_Physical.c ****     *     complete.
1417:.\Generated_Source\PSoC5/RF_Physical.c ****     *  2) User may want to use blocking time if UART configured to the low speed
1418:.\Generated_Source\PSoC5/RF_Physical.c ****     *     operation
1419:.\Generated_Source\PSoC5/RF_Physical.c ****     *     Example for this case:
1420:.\Generated_Source\PSoC5/RF_Physical.c ****     *     SendBreak(0);     - initialize Break signal transmission
1421:.\Generated_Source\PSoC5/RF_Physical.c ****     *         Add your code here to use CPU time
1422:.\Generated_Source\PSoC5/RF_Physical.c ****     *     SendBreak(1);     - complete Break operation
1423:.\Generated_Source\PSoC5/RF_Physical.c ****     *  3) Same to 2) but user may want to initialize and use the interrupt to
1424:.\Generated_Source\PSoC5/RF_Physical.c ****     *     complete break operation.
1425:.\Generated_Source\PSoC5/RF_Physical.c ****     *     Example for this case:
1426:.\Generated_Source\PSoC5/RF_Physical.c ****     *     Initialize TX interrupt with "TX - On TX Complete" parameter
1427:.\Generated_Source\PSoC5/RF_Physical.c ****     *     SendBreak(0);     - initialize Break signal transmission
1428:.\Generated_Source\PSoC5/RF_Physical.c ****     *         Add your code here to use CPU time
1429:.\Generated_Source\PSoC5/RF_Physical.c ****     *     When interrupt appear with RF_Physical_TX_STS_COMPLETE status:
1430:.\Generated_Source\PSoC5/RF_Physical.c ****     *     SendBreak(2);     - complete Break operation
1431:.\Generated_Source\PSoC5/RF_Physical.c ****     *
1432:.\Generated_Source\PSoC5/RF_Physical.c ****     * Side Effects:
1433:.\Generated_Source\PSoC5/RF_Physical.c ****     *  The RF_Physical_SendBreak() function initializes registers to send a
1434:.\Generated_Source\PSoC5/RF_Physical.c ****     *  break signal.
1435:.\Generated_Source\PSoC5/RF_Physical.c ****     *  Break signal length depends on the break signal bits configuration.
1436:.\Generated_Source\PSoC5/RF_Physical.c ****     *  The register configuration should be reinitialized before normal 8-bit
1437:.\Generated_Source\PSoC5/RF_Physical.c ****     *  communication can continue.
1438:.\Generated_Source\PSoC5/RF_Physical.c ****     *
1439:.\Generated_Source\PSoC5/RF_Physical.c ****     *******************************************************************************/
1440:.\Generated_Source\PSoC5/RF_Physical.c ****     void RF_Physical_SendBreak(uint8 retMode) 
1441:.\Generated_Source\PSoC5/RF_Physical.c ****     {
 1168              		.loc 1 1441 0
 1169              		.cfi_startproc
 1170              		@ args = 0, pretend = 0, frame = 0
ARM GAS  C:\Users\RECEPC~1\AppData\Local\Temp\ccyux4kk.s 			page 47


 1171              		@ frame_needed = 0, uses_anonymous_args = 0
 1172              		@ link register save eliminated.
 1173              	.LVL86:
1442:.\Generated_Source\PSoC5/RF_Physical.c **** 
1443:.\Generated_Source\PSoC5/RF_Physical.c ****         /* If not Initialized then skip this function*/
1444:.\Generated_Source\PSoC5/RF_Physical.c ****         if(RF_Physical_initVar != 0u)
 1174              		.loc 1 1444 0
 1175 0000 124B     		ldr	r3, .L119
 1176 0002 5B78     		ldrb	r3, [r3, #1]	@ zero_extendqisi2
 1177 0004 0BB3     		cbz	r3, .L112
 1178              	.LBB2:
1445:.\Generated_Source\PSoC5/RF_Physical.c ****         {
1446:.\Generated_Source\PSoC5/RF_Physical.c ****             /* Set the Counter to 13-bits and transmit a 00 byte */
1447:.\Generated_Source\PSoC5/RF_Physical.c ****             /* When that is done then reset the counter value back */
1448:.\Generated_Source\PSoC5/RF_Physical.c ****             uint8 tmpStat;
1449:.\Generated_Source\PSoC5/RF_Physical.c **** 
1450:.\Generated_Source\PSoC5/RF_Physical.c ****         #if(RF_Physical_HD_ENABLED) /* Half Duplex mode*/
1451:.\Generated_Source\PSoC5/RF_Physical.c **** 
1452:.\Generated_Source\PSoC5/RF_Physical.c ****             if( (retMode == RF_Physical_SEND_BREAK) ||
1453:.\Generated_Source\PSoC5/RF_Physical.c ****                 (retMode == RF_Physical_SEND_WAIT_REINIT ) )
1454:.\Generated_Source\PSoC5/RF_Physical.c ****             {
1455:.\Generated_Source\PSoC5/RF_Physical.c ****                 /* CTRL_HD_SEND_BREAK - sends break bits in HD mode */
1456:.\Generated_Source\PSoC5/RF_Physical.c ****                 RF_Physical_WriteControlRegister(RF_Physical_ReadControlRegister() |
1457:.\Generated_Source\PSoC5/RF_Physical.c ****                                                       RF_Physical_CTRL_HD_SEND_BREAK);
1458:.\Generated_Source\PSoC5/RF_Physical.c ****                 /* Send zeros */
1459:.\Generated_Source\PSoC5/RF_Physical.c ****                 RF_Physical_TXDATA_REG = 0u;
1460:.\Generated_Source\PSoC5/RF_Physical.c **** 
1461:.\Generated_Source\PSoC5/RF_Physical.c ****                 do /* Wait until transmit starts */
1462:.\Generated_Source\PSoC5/RF_Physical.c ****                 {
1463:.\Generated_Source\PSoC5/RF_Physical.c ****                     tmpStat = RF_Physical_TXSTATUS_REG;
1464:.\Generated_Source\PSoC5/RF_Physical.c ****                 }
1465:.\Generated_Source\PSoC5/RF_Physical.c ****                 while((tmpStat & RF_Physical_TX_STS_FIFO_EMPTY) != 0u);
1466:.\Generated_Source\PSoC5/RF_Physical.c ****             }
1467:.\Generated_Source\PSoC5/RF_Physical.c **** 
1468:.\Generated_Source\PSoC5/RF_Physical.c ****             if( (retMode == RF_Physical_WAIT_FOR_COMPLETE_REINIT) ||
1469:.\Generated_Source\PSoC5/RF_Physical.c ****                 (retMode == RF_Physical_SEND_WAIT_REINIT) )
1470:.\Generated_Source\PSoC5/RF_Physical.c ****             {
1471:.\Generated_Source\PSoC5/RF_Physical.c ****                 do /* Wait until transmit complete */
1472:.\Generated_Source\PSoC5/RF_Physical.c ****                 {
1473:.\Generated_Source\PSoC5/RF_Physical.c ****                     tmpStat = RF_Physical_TXSTATUS_REG;
1474:.\Generated_Source\PSoC5/RF_Physical.c ****                 }
1475:.\Generated_Source\PSoC5/RF_Physical.c ****                 while(((uint8)~tmpStat & RF_Physical_TX_STS_COMPLETE) != 0u);
1476:.\Generated_Source\PSoC5/RF_Physical.c ****             }
1477:.\Generated_Source\PSoC5/RF_Physical.c **** 
1478:.\Generated_Source\PSoC5/RF_Physical.c ****             if( (retMode == RF_Physical_WAIT_FOR_COMPLETE_REINIT) ||
1479:.\Generated_Source\PSoC5/RF_Physical.c ****                 (retMode == RF_Physical_REINIT) ||
1480:.\Generated_Source\PSoC5/RF_Physical.c ****                 (retMode == RF_Physical_SEND_WAIT_REINIT) )
1481:.\Generated_Source\PSoC5/RF_Physical.c ****             {
1482:.\Generated_Source\PSoC5/RF_Physical.c ****                 RF_Physical_WriteControlRegister(RF_Physical_ReadControlRegister() &
1483:.\Generated_Source\PSoC5/RF_Physical.c ****                                               (uint8)~RF_Physical_CTRL_HD_SEND_BREAK);
1484:.\Generated_Source\PSoC5/RF_Physical.c ****             }
1485:.\Generated_Source\PSoC5/RF_Physical.c **** 
1486:.\Generated_Source\PSoC5/RF_Physical.c ****         #else /* RF_Physical_HD_ENABLED Full Duplex mode */
1487:.\Generated_Source\PSoC5/RF_Physical.c **** 
1488:.\Generated_Source\PSoC5/RF_Physical.c ****             static uint8 txPeriod;
1489:.\Generated_Source\PSoC5/RF_Physical.c **** 
1490:.\Generated_Source\PSoC5/RF_Physical.c ****             if( (retMode == RF_Physical_SEND_BREAK) ||
ARM GAS  C:\Users\RECEPC~1\AppData\Local\Temp\ccyux4kk.s 			page 48


 1179              		.loc 1 1490 0
 1180 0006 08B1     		cbz	r0, .L114
 1181              		.loc 1 1490 0 is_stmt 0 discriminator 1
 1182 0008 0328     		cmp	r0, #3
 1183 000a 0DD1     		bne	.L115
 1184              	.L114:
1491:.\Generated_Source\PSoC5/RF_Physical.c ****                 (retMode == RF_Physical_SEND_WAIT_REINIT) )
1492:.\Generated_Source\PSoC5/RF_Physical.c ****             {
1493:.\Generated_Source\PSoC5/RF_Physical.c ****                 /* CTRL_HD_SEND_BREAK - skip to send parity bit at Break signal in Full Duplex mode
1494:.\Generated_Source\PSoC5/RF_Physical.c ****                 #if( (RF_Physical_PARITY_TYPE != RF_Physical__B_UART__NONE_REVB) || \
1495:.\Generated_Source\PSoC5/RF_Physical.c ****                                     (RF_Physical_PARITY_TYPE_SW != 0u) )
1496:.\Generated_Source\PSoC5/RF_Physical.c ****                     RF_Physical_WriteControlRegister(RF_Physical_ReadControlRegister() |
1497:.\Generated_Source\PSoC5/RF_Physical.c ****                                                           RF_Physical_CTRL_HD_SEND_BREAK);
1498:.\Generated_Source\PSoC5/RF_Physical.c ****                 #endif /* End RF_Physical_PARITY_TYPE != RF_Physical__B_UART__NONE_REVB  */
1499:.\Generated_Source\PSoC5/RF_Physical.c **** 
1500:.\Generated_Source\PSoC5/RF_Physical.c ****                 #if(RF_Physical_TXCLKGEN_DP)
1501:.\Generated_Source\PSoC5/RF_Physical.c ****                     txPeriod = RF_Physical_TXBITCLKTX_COMPLETE_REG;
 1185              		.loc 1 1501 0 is_stmt 1
 1186 000c 104B     		ldr	r3, .L119+4
 1187 000e 1978     		ldrb	r1, [r3]	@ zero_extendqisi2
 1188 0010 0E4A     		ldr	r2, .L119
 1189 0012 1172     		strb	r1, [r2, #8]
1502:.\Generated_Source\PSoC5/RF_Physical.c ****                     RF_Physical_TXBITCLKTX_COMPLETE_REG = RF_Physical_TXBITCTR_BREAKBITS;
 1190              		.loc 1 1502 0
 1191 0014 6722     		movs	r2, #103
 1192 0016 1A70     		strb	r2, [r3]
1503:.\Generated_Source\PSoC5/RF_Physical.c ****                 #else
1504:.\Generated_Source\PSoC5/RF_Physical.c ****                     txPeriod = RF_Physical_TXBITCTR_PERIOD_REG;
1505:.\Generated_Source\PSoC5/RF_Physical.c ****                     RF_Physical_TXBITCTR_PERIOD_REG = RF_Physical_TXBITCTR_BREAKBITS8X;
1506:.\Generated_Source\PSoC5/RF_Physical.c ****                 #endif /* End RF_Physical_TXCLKGEN_DP */
1507:.\Generated_Source\PSoC5/RF_Physical.c **** 
1508:.\Generated_Source\PSoC5/RF_Physical.c ****                 /* Send zeros */
1509:.\Generated_Source\PSoC5/RF_Physical.c ****                 RF_Physical_TXDATA_REG = 0u;
 1193              		.loc 1 1509 0
 1194 0018 0022     		movs	r2, #0
 1195 001a 1333     		adds	r3, r3, #19
 1196 001c 1A70     		strb	r2, [r3]
 1197              	.L116:
1510:.\Generated_Source\PSoC5/RF_Physical.c **** 
1511:.\Generated_Source\PSoC5/RF_Physical.c ****                 do /* Wait until transmit starts */
1512:.\Generated_Source\PSoC5/RF_Physical.c ****                 {
1513:.\Generated_Source\PSoC5/RF_Physical.c ****                     tmpStat = RF_Physical_TXSTATUS_REG;
 1198              		.loc 1 1513 0 discriminator 1
 1199 001e 0D4B     		ldr	r3, .L119+8
 1200 0020 1B78     		ldrb	r3, [r3]	@ zero_extendqisi2
 1201              	.LVL87:
1514:.\Generated_Source\PSoC5/RF_Physical.c ****                 }
1515:.\Generated_Source\PSoC5/RF_Physical.c ****                 while((tmpStat & RF_Physical_TX_STS_FIFO_EMPTY) != 0u);
 1202              		.loc 1 1515 0 discriminator 1
 1203 0022 13F0020F 		tst	r3, #2
 1204 0026 FAD1     		bne	.L116
 1205              	.LVL88:
 1206              	.L115:
1516:.\Generated_Source\PSoC5/RF_Physical.c ****             }
1517:.\Generated_Source\PSoC5/RF_Physical.c **** 
1518:.\Generated_Source\PSoC5/RF_Physical.c ****             if( (retMode == RF_Physical_WAIT_FOR_COMPLETE_REINIT) ||
 1207              		.loc 1 1518 0
ARM GAS  C:\Users\RECEPC~1\AppData\Local\Temp\ccyux4kk.s 			page 49


 1208 0028 0128     		cmp	r0, #1
 1209 002a 01D0     		beq	.L117
 1210              		.loc 1 1518 0 is_stmt 0 discriminator 1
 1211 002c 0328     		cmp	r0, #3
 1212 002e 04D1     		bne	.L118
 1213              	.L117:
1519:.\Generated_Source\PSoC5/RF_Physical.c ****                 (retMode == RF_Physical_SEND_WAIT_REINIT) )
1520:.\Generated_Source\PSoC5/RF_Physical.c ****             {
1521:.\Generated_Source\PSoC5/RF_Physical.c ****                 do /* Wait until transmit complete */
1522:.\Generated_Source\PSoC5/RF_Physical.c ****                 {
1523:.\Generated_Source\PSoC5/RF_Physical.c ****                     tmpStat = RF_Physical_TXSTATUS_REG;
 1214              		.loc 1 1523 0 is_stmt 1 discriminator 1
 1215 0030 084B     		ldr	r3, .L119+8
 1216 0032 1B78     		ldrb	r3, [r3]	@ zero_extendqisi2
 1217              	.LVL89:
1524:.\Generated_Source\PSoC5/RF_Physical.c ****                 }
1525:.\Generated_Source\PSoC5/RF_Physical.c ****                 while(((uint8)~tmpStat & RF_Physical_TX_STS_COMPLETE) != 0u);
 1218              		.loc 1 1525 0 discriminator 1
 1219 0034 13F0010F 		tst	r3, #1
 1220 0038 FAD0     		beq	.L117
 1221              	.LVL90:
 1222              	.L118:
1526:.\Generated_Source\PSoC5/RF_Physical.c ****             }
1527:.\Generated_Source\PSoC5/RF_Physical.c **** 
1528:.\Generated_Source\PSoC5/RF_Physical.c ****             if( (retMode == RF_Physical_WAIT_FOR_COMPLETE_REINIT) ||
1529:.\Generated_Source\PSoC5/RF_Physical.c ****                 (retMode == RF_Physical_REINIT) ||
 1223              		.loc 1 1529 0
 1224 003a 0138     		subs	r0, r0, #1
 1225              	.LVL91:
 1226 003c C0B2     		uxtb	r0, r0
1528:.\Generated_Source\PSoC5/RF_Physical.c ****                 (retMode == RF_Physical_REINIT) ||
 1227              		.loc 1 1528 0
 1228 003e 0228     		cmp	r0, #2
 1229 0040 03D8     		bhi	.L112
1530:.\Generated_Source\PSoC5/RF_Physical.c ****                 (retMode == RF_Physical_SEND_WAIT_REINIT) )
1531:.\Generated_Source\PSoC5/RF_Physical.c ****             {
1532:.\Generated_Source\PSoC5/RF_Physical.c **** 
1533:.\Generated_Source\PSoC5/RF_Physical.c ****             #if(RF_Physical_TXCLKGEN_DP)
1534:.\Generated_Source\PSoC5/RF_Physical.c ****                 RF_Physical_TXBITCLKTX_COMPLETE_REG = txPeriod;
 1230              		.loc 1 1534 0
 1231 0042 024B     		ldr	r3, .L119
 1232 0044 1A7A     		ldrb	r2, [r3, #8]	@ zero_extendqisi2
 1233 0046 024B     		ldr	r3, .L119+4
 1234 0048 1A70     		strb	r2, [r3]
 1235              	.L112:
 1236 004a 7047     		bx	lr
 1237              	.L120:
 1238              		.align	2
 1239              	.L119:
 1240 004c 00000000 		.word	.LANCHOR0
 1241 0050 32640040 		.word	1073767474
 1242 0054 62640040 		.word	1073767522
 1243              	.LBE2:
 1244              		.cfi_endproc
 1245              	.LFE25:
 1246              		.size	RF_Physical_SendBreak, .-RF_Physical_SendBreak
 1247              		.section	.text.RF_Physical_SetTxAddressMode,"ax",%progbits
ARM GAS  C:\Users\RECEPC~1\AppData\Local\Temp\ccyux4kk.s 			page 50


 1248              		.align	2
 1249              		.global	RF_Physical_SetTxAddressMode
 1250              		.thumb
 1251              		.thumb_func
 1252              		.type	RF_Physical_SetTxAddressMode, %function
 1253              	RF_Physical_SetTxAddressMode:
 1254              	.LFB26:
1535:.\Generated_Source\PSoC5/RF_Physical.c ****             #else
1536:.\Generated_Source\PSoC5/RF_Physical.c ****                 RF_Physical_TXBITCTR_PERIOD_REG = txPeriod;
1537:.\Generated_Source\PSoC5/RF_Physical.c ****             #endif /* End RF_Physical_TXCLKGEN_DP */
1538:.\Generated_Source\PSoC5/RF_Physical.c **** 
1539:.\Generated_Source\PSoC5/RF_Physical.c ****             #if( (RF_Physical_PARITY_TYPE != RF_Physical__B_UART__NONE_REVB) || \
1540:.\Generated_Source\PSoC5/RF_Physical.c ****                  (RF_Physical_PARITY_TYPE_SW != 0u) )
1541:.\Generated_Source\PSoC5/RF_Physical.c ****                 RF_Physical_WriteControlRegister(RF_Physical_ReadControlRegister() &
1542:.\Generated_Source\PSoC5/RF_Physical.c ****                                                       (uint8) ~RF_Physical_CTRL_HD_SEND_BREAK);
1543:.\Generated_Source\PSoC5/RF_Physical.c ****             #endif /* End RF_Physical_PARITY_TYPE != NONE */
1544:.\Generated_Source\PSoC5/RF_Physical.c ****             }
1545:.\Generated_Source\PSoC5/RF_Physical.c ****         #endif    /* End RF_Physical_HD_ENABLED */
1546:.\Generated_Source\PSoC5/RF_Physical.c ****         }
1547:.\Generated_Source\PSoC5/RF_Physical.c ****     }
1548:.\Generated_Source\PSoC5/RF_Physical.c **** 
1549:.\Generated_Source\PSoC5/RF_Physical.c **** 
1550:.\Generated_Source\PSoC5/RF_Physical.c ****     /*******************************************************************************
1551:.\Generated_Source\PSoC5/RF_Physical.c ****     * Function Name: RF_Physical_SetTxAddressMode
1552:.\Generated_Source\PSoC5/RF_Physical.c ****     ********************************************************************************
1553:.\Generated_Source\PSoC5/RF_Physical.c ****     *
1554:.\Generated_Source\PSoC5/RF_Physical.c ****     * Summary:
1555:.\Generated_Source\PSoC5/RF_Physical.c ****     *  Configures the transmitter to signal the next bytes is address or data.
1556:.\Generated_Source\PSoC5/RF_Physical.c ****     *
1557:.\Generated_Source\PSoC5/RF_Physical.c ****     * Parameters:
1558:.\Generated_Source\PSoC5/RF_Physical.c ****     *  addressMode: 
1559:.\Generated_Source\PSoC5/RF_Physical.c ****     *       RF_Physical_SET_SPACE - Configure the transmitter to send the next
1560:.\Generated_Source\PSoC5/RF_Physical.c ****     *                                    byte as a data.
1561:.\Generated_Source\PSoC5/RF_Physical.c ****     *       RF_Physical_SET_MARK  - Configure the transmitter to send the next
1562:.\Generated_Source\PSoC5/RF_Physical.c ****     *                                    byte as an address.
1563:.\Generated_Source\PSoC5/RF_Physical.c ****     *
1564:.\Generated_Source\PSoC5/RF_Physical.c ****     * Return:
1565:.\Generated_Source\PSoC5/RF_Physical.c ****     *  None.
1566:.\Generated_Source\PSoC5/RF_Physical.c ****     *
1567:.\Generated_Source\PSoC5/RF_Physical.c ****     * Side Effects:
1568:.\Generated_Source\PSoC5/RF_Physical.c ****     *  This function sets and clears RF_Physical_CTRL_MARK bit in the Control
1569:.\Generated_Source\PSoC5/RF_Physical.c ****     *  register.
1570:.\Generated_Source\PSoC5/RF_Physical.c ****     *
1571:.\Generated_Source\PSoC5/RF_Physical.c ****     *******************************************************************************/
1572:.\Generated_Source\PSoC5/RF_Physical.c ****     void RF_Physical_SetTxAddressMode(uint8 addressMode) 
1573:.\Generated_Source\PSoC5/RF_Physical.c ****     {
 1255              		.loc 1 1573 0
 1256              		.cfi_startproc
 1257              		@ args = 0, pretend = 0, frame = 0
 1258              		@ frame_needed = 0, uses_anonymous_args = 0
 1259              		@ link register save eliminated.
 1260              	.LVL92:
 1261 0000 7047     		bx	lr
 1262              		.cfi_endproc
 1263              	.LFE26:
 1264              		.size	RF_Physical_SetTxAddressMode, .-RF_Physical_SetTxAddressMode
 1265              		.global	RF_Physical_rxBufferOverflow
ARM GAS  C:\Users\RECEPC~1\AppData\Local\Temp\ccyux4kk.s 			page 51


 1266              		.global	RF_Physical_rxBufferLoopDetect
 1267              		.global	RF_Physical_rxBufferWrite
 1268              		.global	RF_Physical_rxBufferRead
 1269              		.comm	RF_Physical_rxBuffer,512,4
 1270              		.global	RF_Physical_errorStatus
 1271              		.global	RF_Physical_initVar
 1272 0002 00BF     		.bss
 1273              		.align	1
 1274              		.set	.LANCHOR0,. + 0
 1275              		.type	RF_Physical_errorStatus, %object
 1276              		.size	RF_Physical_errorStatus, 1
 1277              	RF_Physical_errorStatus:
 1278 0000 00       		.space	1
 1279              		.type	RF_Physical_initVar, %object
 1280              		.size	RF_Physical_initVar, 1
 1281              	RF_Physical_initVar:
 1282 0001 00       		.space	1
 1283              		.type	RF_Physical_rxBufferRead, %object
 1284              		.size	RF_Physical_rxBufferRead, 2
 1285              	RF_Physical_rxBufferRead:
 1286 0002 0000     		.space	2
 1287              		.type	RF_Physical_rxBufferWrite, %object
 1288              		.size	RF_Physical_rxBufferWrite, 2
 1289              	RF_Physical_rxBufferWrite:
 1290 0004 0000     		.space	2
 1291              		.type	RF_Physical_rxBufferLoopDetect, %object
 1292              		.size	RF_Physical_rxBufferLoopDetect, 1
 1293              	RF_Physical_rxBufferLoopDetect:
 1294 0006 00       		.space	1
 1295              		.type	RF_Physical_rxBufferOverflow, %object
 1296              		.size	RF_Physical_rxBufferOverflow, 1
 1297              	RF_Physical_rxBufferOverflow:
 1298 0007 00       		.space	1
 1299              		.type	txPeriod.5008, %object
 1300              		.size	txPeriod.5008, 1
 1301              	txPeriod.5008:
 1302 0008 00       		.space	1
 1303 0009 00       		.text
 1304              	.Letext0:
 1305              		.file 2 ".\\Generated_Source\\PSoC5\\cytypes.h"
 1306              		.file 3 ".\\Generated_Source\\PSoC5\\CyLib.h"
 1307              		.file 4 ".\\Generated_Source\\PSoC5\\RF_Physical_IntClock.h"
 1308              		.section	.debug_info,"",%progbits
 1309              	.Ldebug_info0:
 1310 0000 53070000 		.4byte	0x753
 1311 0004 0400     		.2byte	0x4
 1312 0006 00000000 		.4byte	.Ldebug_abbrev0
 1313 000a 04       		.byte	0x4
 1314 000b 01       		.uleb128 0x1
 1315 000c 3F050000 		.4byte	.LASF77
 1316 0010 01       		.byte	0x1
 1317 0011 F8050000 		.4byte	.LASF78
 1318 0015 BB020000 		.4byte	.LASF79
 1319 0019 00000000 		.4byte	.Ldebug_ranges0+0
 1320 001d 00000000 		.4byte	0
 1321 0021 00000000 		.4byte	.Ldebug_line0
 1322 0025 02       		.uleb128 0x2
ARM GAS  C:\Users\RECEPC~1\AppData\Local\Temp\ccyux4kk.s 			page 52


 1323 0026 01       		.byte	0x1
 1324 0027 06       		.byte	0x6
 1325 0028 B9000000 		.4byte	.LASF0
 1326 002c 02       		.uleb128 0x2
 1327 002d 01       		.byte	0x1
 1328 002e 08       		.byte	0x8
 1329 002f E2030000 		.4byte	.LASF1
 1330 0033 02       		.uleb128 0x2
 1331 0034 02       		.byte	0x2
 1332 0035 05       		.byte	0x5
 1333 0036 F0030000 		.4byte	.LASF2
 1334 003a 02       		.uleb128 0x2
 1335 003b 02       		.byte	0x2
 1336 003c 07       		.byte	0x7
 1337 003d 3E020000 		.4byte	.LASF3
 1338 0041 02       		.uleb128 0x2
 1339 0042 04       		.byte	0x4
 1340 0043 05       		.byte	0x5
 1341 0044 FE000000 		.4byte	.LASF4
 1342 0048 02       		.uleb128 0x2
 1343 0049 04       		.byte	0x4
 1344 004a 07       		.byte	0x7
 1345 004b ED010000 		.4byte	.LASF5
 1346 004f 02       		.uleb128 0x2
 1347 0050 08       		.byte	0x8
 1348 0051 05       		.byte	0x5
 1349 0052 AB000000 		.4byte	.LASF6
 1350 0056 02       		.uleb128 0x2
 1351 0057 08       		.byte	0x8
 1352 0058 07       		.byte	0x7
 1353 0059 74000000 		.4byte	.LASF7
 1354 005d 03       		.uleb128 0x3
 1355 005e 04       		.byte	0x4
 1356 005f 05       		.byte	0x5
 1357 0060 696E7400 		.ascii	"int\000"
 1358 0064 02       		.uleb128 0x2
 1359 0065 04       		.byte	0x4
 1360 0066 07       		.byte	0x7
 1361 0067 D1010000 		.4byte	.LASF8
 1362 006b 04       		.uleb128 0x4
 1363 006c 45010000 		.4byte	.LASF9
 1364 0070 02       		.byte	0x2
 1365 0071 3801     		.2byte	0x138
 1366 0073 2C000000 		.4byte	0x2c
 1367 0077 04       		.uleb128 0x4
 1368 0078 31000000 		.4byte	.LASF10
 1369 007c 02       		.byte	0x2
 1370 007d 3901     		.2byte	0x139
 1371 007f 3A000000 		.4byte	0x3a
 1372 0083 04       		.uleb128 0x4
 1373 0084 79010000 		.4byte	.LASF11
 1374 0088 02       		.byte	0x2
 1375 0089 3A01     		.2byte	0x13a
 1376 008b 48000000 		.4byte	0x48
 1377 008f 02       		.uleb128 0x2
 1378 0090 04       		.byte	0x4
 1379 0091 04       		.byte	0x4
ARM GAS  C:\Users\RECEPC~1\AppData\Local\Temp\ccyux4kk.s 			page 53


 1380 0092 D7030000 		.4byte	.LASF12
 1381 0096 02       		.uleb128 0x2
 1382 0097 08       		.byte	0x8
 1383 0098 04       		.byte	0x4
 1384 0099 4B010000 		.4byte	.LASF13
 1385 009d 04       		.uleb128 0x4
 1386 009e E8040000 		.4byte	.LASF14
 1387 00a2 02       		.byte	0x2
 1388 00a3 4901     		.2byte	0x149
 1389 00a5 A9000000 		.4byte	0xa9
 1390 00a9 02       		.uleb128 0x2
 1391 00aa 01       		.byte	0x1
 1392 00ab 08       		.byte	0x8
 1393 00ac 93040000 		.4byte	.LASF15
 1394 00b0 04       		.uleb128 0x4
 1395 00b1 DD030000 		.4byte	.LASF16
 1396 00b5 02       		.byte	0x2
 1397 00b6 E201     		.2byte	0x1e2
 1398 00b8 BC000000 		.4byte	0xbc
 1399 00bc 05       		.uleb128 0x5
 1400 00bd 6B000000 		.4byte	0x6b
 1401 00c1 05       		.uleb128 0x5
 1402 00c2 77000000 		.4byte	0x77
 1403 00c6 04       		.uleb128 0x4
 1404 00c7 2E030000 		.4byte	.LASF17
 1405 00cb 02       		.byte	0x2
 1406 00cc E401     		.2byte	0x1e4
 1407 00ce D2000000 		.4byte	0xd2
 1408 00d2 05       		.uleb128 0x5
 1409 00d3 83000000 		.4byte	0x83
 1410 00d7 04       		.uleb128 0x4
 1411 00d8 98040000 		.4byte	.LASF18
 1412 00dc 02       		.byte	0x2
 1413 00dd F401     		.2byte	0x1f4
 1414 00df E3000000 		.4byte	0xe3
 1415 00e3 06       		.uleb128 0x6
 1416 00e4 04       		.byte	0x4
 1417 00e5 E9000000 		.4byte	0xe9
 1418 00e9 07       		.uleb128 0x7
 1419 00ea 02       		.uleb128 0x2
 1420 00eb 04       		.byte	0x4
 1421 00ec 07       		.byte	0x7
 1422 00ed 3C030000 		.4byte	.LASF19
 1423 00f1 08       		.uleb128 0x8
 1424 00f2 80010000 		.4byte	.LASF20
 1425 00f6 01       		.byte	0x1
 1426 00f7 6A       		.byte	0x6a
 1427 00f8 00000000 		.4byte	.LFB1
 1428 00fc 44000000 		.4byte	.LFE1-.LFB1
 1429 0100 01       		.uleb128 0x1
 1430 0101 9C       		.byte	0x9c
 1431 0102 2E010000 		.4byte	0x12e
 1432 0106 09       		.uleb128 0x9
 1433 0107 0A000000 		.4byte	.LVL0
 1434 010b FC060000 		.4byte	0x6fc
 1435 010f 19010000 		.4byte	0x119
 1436 0113 0A       		.uleb128 0xa
ARM GAS  C:\Users\RECEPC~1\AppData\Local\Temp\ccyux4kk.s 			page 54


 1437 0114 01       		.uleb128 0x1
 1438 0115 50       		.byte	0x50
 1439 0116 01       		.uleb128 0x1
 1440 0117 33       		.byte	0x33
 1441 0118 00       		.byte	0
 1442 0119 0B       		.uleb128 0xb
 1443 011a 12000000 		.4byte	.LVL1
 1444 011e 16070000 		.4byte	0x716
 1445 0122 0A       		.uleb128 0xa
 1446 0123 01       		.uleb128 0x1
 1447 0124 51       		.byte	0x51
 1448 0125 01       		.uleb128 0x1
 1449 0126 37       		.byte	0x37
 1450 0127 0A       		.uleb128 0xa
 1451 0128 01       		.uleb128 0x1
 1452 0129 50       		.byte	0x50
 1453 012a 01       		.uleb128 0x1
 1454 012b 33       		.byte	0x33
 1455 012c 00       		.byte	0
 1456 012d 00       		.byte	0
 1457 012e 08       		.uleb128 0x8
 1458 012f 79040000 		.4byte	.LASF21
 1459 0133 01       		.byte	0x1
 1460 0134 B7       		.byte	0xb7
 1461 0135 00000000 		.4byte	.LFB2
 1462 0139 44000000 		.4byte	.LFE2-.LFB2
 1463 013d 01       		.uleb128 0x1
 1464 013e 9C       		.byte	0x9c
 1465 013f 75010000 		.4byte	0x175
 1466 0143 0C       		.uleb128 0xc
 1467 0144 16050000 		.4byte	.LASF24
 1468 0148 01       		.byte	0x1
 1469 0149 B9       		.byte	0xb9
 1470 014a 6B000000 		.4byte	0x6b
 1471 014e 00000000 		.4byte	.LLST0
 1472 0152 0D       		.uleb128 0xd
 1473 0153 06000000 		.4byte	.LVL2
 1474 0157 2C070000 		.4byte	0x72c
 1475 015b 0D       		.uleb128 0xd
 1476 015c 30000000 		.4byte	.LVL4
 1477 0160 37070000 		.4byte	0x737
 1478 0164 0B       		.uleb128 0xb
 1479 0165 36000000 		.4byte	.LVL5
 1480 0169 3E070000 		.4byte	0x73e
 1481 016d 0A       		.uleb128 0xa
 1482 016e 01       		.uleb128 0x1
 1483 016f 50       		.byte	0x50
 1484 0170 02       		.uleb128 0x2
 1485 0171 74       		.byte	0x74
 1486 0172 00       		.sleb128 0
 1487 0173 00       		.byte	0
 1488 0174 00       		.byte	0
 1489 0175 08       		.uleb128 0x8
 1490 0176 BE040000 		.4byte	.LASF22
 1491 017a 01       		.byte	0x1
 1492 017b 4C       		.byte	0x4c
 1493 017c 00000000 		.4byte	.LFB0
ARM GAS  C:\Users\RECEPC~1\AppData\Local\Temp\ccyux4kk.s 			page 55


 1494 0180 1C000000 		.4byte	.LFE0-.LFB0
 1495 0184 01       		.uleb128 0x1
 1496 0185 9C       		.byte	0x9c
 1497 0186 9D010000 		.4byte	0x19d
 1498 018a 0D       		.uleb128 0xd
 1499 018b 0C000000 		.4byte	.LVL7
 1500 018f F1000000 		.4byte	0xf1
 1501 0193 0D       		.uleb128 0xd
 1502 0194 16000000 		.4byte	.LVL8
 1503 0198 2E010000 		.4byte	0x12e
 1504 019c 00       		.byte	0
 1505 019d 08       		.uleb128 0x8
 1506 019e 27050000 		.4byte	.LASF23
 1507 01a2 01       		.byte	0x1
 1508 01a3 F0       		.byte	0xf0
 1509 01a4 00000000 		.4byte	.LFB3
 1510 01a8 48000000 		.4byte	.LFE3-.LFB3
 1511 01ac 01       		.uleb128 0x1
 1512 01ad 9C       		.byte	0x9c
 1513 01ae E4010000 		.4byte	0x1e4
 1514 01b2 0C       		.uleb128 0xc
 1515 01b3 16050000 		.4byte	.LASF24
 1516 01b7 01       		.byte	0x1
 1517 01b8 F2       		.byte	0xf2
 1518 01b9 6B000000 		.4byte	0x6b
 1519 01bd 13000000 		.4byte	.LLST1
 1520 01c1 0D       		.uleb128 0xd
 1521 01c2 06000000 		.4byte	.LVL9
 1522 01c6 2C070000 		.4byte	0x72c
 1523 01ca 0D       		.uleb128 0xd
 1524 01cb 16000000 		.4byte	.LVL11
 1525 01cf 4F070000 		.4byte	0x74f
 1526 01d3 0B       		.uleb128 0xb
 1527 01d4 36000000 		.4byte	.LVL12
 1528 01d8 3E070000 		.4byte	0x73e
 1529 01dc 0A       		.uleb128 0xa
 1530 01dd 01       		.uleb128 0x1
 1531 01de 50       		.byte	0x50
 1532 01df 02       		.uleb128 0x2
 1533 01e0 74       		.byte	0x74
 1534 01e1 00       		.sleb128 0
 1535 01e2 00       		.byte	0
 1536 01e3 00       		.byte	0
 1537 01e4 0E       		.uleb128 0xe
 1538 01e5 8B000000 		.4byte	.LASF50
 1539 01e9 01       		.byte	0x1
 1540 01ea 2701     		.2byte	0x127
 1541 01ec 6B000000 		.4byte	0x6b
 1542 01f0 00000000 		.4byte	.LFB4
 1543 01f4 04000000 		.4byte	.LFE4-.LFB4
 1544 01f8 01       		.uleb128 0x1
 1545 01f9 9C       		.byte	0x9c
 1546 01fa 0F       		.uleb128 0xf
 1547 01fb 24010000 		.4byte	.LASF25
 1548 01ff 01       		.byte	0x1
 1549 0200 3F01     		.2byte	0x13f
 1550 0202 00000000 		.4byte	.LFB5
ARM GAS  C:\Users\RECEPC~1\AppData\Local\Temp\ccyux4kk.s 			page 56


 1551 0206 02000000 		.4byte	.LFE5-.LFB5
 1552 020a 01       		.uleb128 0x1
 1553 020b 9C       		.byte	0x9c
 1554 020c 1F020000 		.4byte	0x21f
 1555 0210 10       		.uleb128 0x10
 1556 0211 91010000 		.4byte	.LASF27
 1557 0215 01       		.byte	0x1
 1558 0216 3F01     		.2byte	0x13f
 1559 0218 6B000000 		.4byte	0x6b
 1560 021c 01       		.uleb128 0x1
 1561 021d 50       		.byte	0x50
 1562 021e 00       		.byte	0
 1563 021f 0F       		.uleb128 0xf
 1564 0220 60020000 		.4byte	.LASF26
 1565 0224 01       		.byte	0x1
 1566 0225 6701     		.2byte	0x167
 1567 0227 00000000 		.4byte	.LFB6
 1568 022b 0C000000 		.4byte	.LFE6-.LFB6
 1569 022f 01       		.uleb128 0x1
 1570 0230 9C       		.byte	0x9c
 1571 0231 44020000 		.4byte	0x244
 1572 0235 10       		.uleb128 0x10
 1573 0236 9B020000 		.4byte	.LASF28
 1574 023a 01       		.byte	0x1
 1575 023b 6701     		.2byte	0x167
 1576 023d 6B000000 		.4byte	0x6b
 1577 0241 01       		.uleb128 0x1
 1578 0242 50       		.byte	0x50
 1579 0243 00       		.byte	0
 1580 0244 11       		.uleb128 0x11
 1581 0245 CD050000 		.4byte	.LASF32
 1582 0249 01       		.byte	0x1
 1583 024a 8801     		.2byte	0x188
 1584 024c 6B000000 		.4byte	0x6b
 1585 0250 00000000 		.4byte	.LFB7
 1586 0254 64000000 		.4byte	.LFE7-.LFB7
 1587 0258 01       		.uleb128 0x1
 1588 0259 9C       		.byte	0x9c
 1589 025a 8D020000 		.4byte	0x28d
 1590 025e 12       		.uleb128 0x12
 1591 025f 8C040000 		.4byte	.LASF29
 1592 0263 01       		.byte	0x1
 1593 0264 8A01     		.2byte	0x18a
 1594 0266 6B000000 		.4byte	0x6b
 1595 026a 26000000 		.4byte	.LLST2
 1596 026e 12       		.uleb128 0x12
 1597 026f 06050000 		.4byte	.LASF30
 1598 0273 01       		.byte	0x1
 1599 0274 8E01     		.2byte	0x18e
 1600 0276 77000000 		.4byte	0x77
 1601 027a 44000000 		.4byte	.LLST3
 1602 027e 13       		.uleb128 0x13
 1603 027f 78030000 		.4byte	.LASF31
 1604 0283 01       		.byte	0x1
 1605 0284 8F01     		.2byte	0x18f
 1606 0286 77000000 		.4byte	0x77
 1607 028a 01       		.uleb128 0x1
ARM GAS  C:\Users\RECEPC~1\AppData\Local\Temp\ccyux4kk.s 			page 57


 1608 028b 51       		.byte	0x51
 1609 028c 00       		.byte	0
 1610 028d 11       		.uleb128 0x11
 1611 028e A5040000 		.4byte	.LASF33
 1612 0292 01       		.byte	0x1
 1613 0293 E501     		.2byte	0x1e5
 1614 0295 6B000000 		.4byte	0x6b
 1615 0299 00000000 		.4byte	.LFB8
 1616 029d 28000000 		.4byte	.LFE8-.LFB8
 1617 02a1 01       		.uleb128 0x1
 1618 02a2 9C       		.byte	0x9c
 1619 02a3 B6020000 		.4byte	0x2b6
 1620 02a7 13       		.uleb128 0x13
 1621 02a8 38050000 		.4byte	.LASF34
 1622 02ac 01       		.byte	0x1
 1623 02ad E701     		.2byte	0x1e7
 1624 02af 6B000000 		.4byte	0x6b
 1625 02b3 01       		.uleb128 0x1
 1626 02b4 50       		.byte	0x50
 1627 02b5 00       		.byte	0
 1628 02b6 11       		.uleb128 0x11
 1629 02b7 E4050000 		.4byte	.LASF35
 1630 02bb 01       		.byte	0x1
 1631 02bc 1402     		.2byte	0x214
 1632 02be 6B000000 		.4byte	0x6b
 1633 02c2 00000000 		.4byte	.LFB9
 1634 02c6 84000000 		.4byte	.LFE9-.LFB9
 1635 02ca 01       		.uleb128 0x1
 1636 02cb 9C       		.byte	0x9c
 1637 02cc 0F030000 		.4byte	0x30f
 1638 02d0 12       		.uleb128 0x12
 1639 02d1 8C040000 		.4byte	.LASF29
 1640 02d5 01       		.byte	0x1
 1641 02d6 1602     		.2byte	0x216
 1642 02d8 6B000000 		.4byte	0x6b
 1643 02dc 89000000 		.4byte	.LLST4
 1644 02e0 12       		.uleb128 0x12
 1645 02e1 89030000 		.4byte	.LASF36
 1646 02e5 01       		.byte	0x1
 1647 02e6 1702     		.2byte	0x217
 1648 02e8 6B000000 		.4byte	0x6b
 1649 02ec D6000000 		.4byte	.LLST5
 1650 02f0 12       		.uleb128 0x12
 1651 02f1 06050000 		.4byte	.LASF30
 1652 02f5 01       		.byte	0x1
 1653 02f6 1A02     		.2byte	0x21a
 1654 02f8 77000000 		.4byte	0x77
 1655 02fc E9000000 		.4byte	.LLST6
 1656 0300 13       		.uleb128 0x13
 1657 0301 78030000 		.4byte	.LASF31
 1658 0305 01       		.byte	0x1
 1659 0306 1B02     		.2byte	0x21b
 1660 0308 77000000 		.4byte	0x77
 1661 030c 01       		.uleb128 0x1
 1662 030d 51       		.byte	0x51
 1663 030e 00       		.byte	0
 1664 030f 11       		.uleb128 0x11
ARM GAS  C:\Users\RECEPC~1\AppData\Local\Temp\ccyux4kk.s 			page 58


 1665 0310 01030000 		.4byte	.LASF37
 1666 0314 01       		.byte	0x1
 1667 0315 7A02     		.2byte	0x27a
 1668 0317 77000000 		.4byte	0x77
 1669 031b 00000000 		.4byte	.LFB10
 1670 031f 2C000000 		.4byte	.LFE10-.LFB10
 1671 0323 01       		.uleb128 0x1
 1672 0324 9C       		.byte	0x9c
 1673 0325 43030000 		.4byte	0x343
 1674 0329 12       		.uleb128 0x12
 1675 032a DE010000 		.4byte	.LASF38
 1676 032e 01       		.byte	0x1
 1677 032f 7E02     		.2byte	0x27e
 1678 0331 77000000 		.4byte	0x77
 1679 0335 2E010000 		.4byte	.LLST7
 1680 0339 0D       		.uleb128 0xd
 1681 033a 1A000000 		.4byte	.LVL47
 1682 033e 44020000 		.4byte	0x244
 1683 0342 00       		.byte	0
 1684 0343 11       		.uleb128 0x11
 1685 0344 7F020000 		.4byte	.LASF39
 1686 0348 01       		.byte	0x1
 1687 0349 AB02     		.2byte	0x2ab
 1688 034b 77000000 		.4byte	0x77
 1689 034f 00000000 		.4byte	.LFB11
 1690 0353 68000000 		.4byte	.LFE11-.LFB11
 1691 0357 01       		.uleb128 0x1
 1692 0358 9C       		.byte	0x9c
 1693 0359 6E030000 		.4byte	0x36e
 1694 035d 12       		.uleb128 0x12
 1695 035e 39020000 		.4byte	.LASF40
 1696 0362 01       		.byte	0x1
 1697 0363 AE02     		.2byte	0x2ae
 1698 0365 77000000 		.4byte	0x77
 1699 0369 41010000 		.4byte	.LLST8
 1700 036d 00       		.byte	0
 1701 036e 0F       		.uleb128 0xf
 1702 036f FA030000 		.4byte	.LASF41
 1703 0373 01       		.byte	0x1
 1704 0374 F502     		.2byte	0x2f5
 1705 0376 00000000 		.4byte	.LFB12
 1706 037a 44000000 		.4byte	.LFE12-.LFB12
 1707 037e 01       		.uleb128 0x1
 1708 037f 9C       		.byte	0x9c
 1709 0380 A7030000 		.4byte	0x3a7
 1710 0384 12       		.uleb128 0x12
 1711 0385 16050000 		.4byte	.LASF24
 1712 0389 01       		.byte	0x1
 1713 038a F702     		.2byte	0x2f7
 1714 038c 6B000000 		.4byte	0x6b
 1715 0390 6A010000 		.4byte	.LLST9
 1716 0394 0D       		.uleb128 0xd
 1717 0395 06000000 		.4byte	.LVL53
 1718 0399 2C070000 		.4byte	0x72c
 1719 039d 0D       		.uleb128 0xd
 1720 039e 1C000000 		.4byte	.LVL54
 1721 03a2 3E070000 		.4byte	0x73e
ARM GAS  C:\Users\RECEPC~1\AppData\Local\Temp\ccyux4kk.s 			page 59


 1722 03a6 00       		.byte	0
 1723 03a7 0F       		.uleb128 0xf
 1724 03a8 07010000 		.4byte	.LASF42
 1725 03ac 01       		.byte	0x1
 1726 03ad 2D03     		.2byte	0x32d
 1727 03af 00000000 		.4byte	.LFB13
 1728 03b3 02000000 		.4byte	.LFE13-.LFB13
 1729 03b7 01       		.uleb128 0x1
 1730 03b8 9C       		.byte	0x9c
 1731 03b9 CC030000 		.4byte	0x3cc
 1732 03bd 10       		.uleb128 0x10
 1733 03be 52010000 		.4byte	.LASF43
 1734 03c2 01       		.byte	0x1
 1735 03c3 2D03     		.2byte	0x32d
 1736 03c5 6B000000 		.4byte	0x6b
 1737 03c9 01       		.uleb128 0x1
 1738 03ca 50       		.byte	0x50
 1739 03cb 00       		.byte	0
 1740 03cc 0F       		.uleb128 0xf
 1741 03cd 92030000 		.4byte	.LASF44
 1742 03d1 01       		.byte	0x1
 1743 03d2 5903     		.2byte	0x359
 1744 03d4 00000000 		.4byte	.LFB14
 1745 03d8 0C000000 		.4byte	.LFE14-.LFB14
 1746 03dc 01       		.uleb128 0x1
 1747 03dd 9C       		.byte	0x9c
 1748 03de F1030000 		.4byte	0x3f1
 1749 03e2 10       		.uleb128 0x10
 1750 03e3 5A030000 		.4byte	.LASF45
 1751 03e7 01       		.byte	0x1
 1752 03e8 5903     		.2byte	0x359
 1753 03ea 6B000000 		.4byte	0x6b
 1754 03ee 01       		.uleb128 0x1
 1755 03ef 50       		.byte	0x50
 1756 03f0 00       		.byte	0
 1757 03f1 0F       		.uleb128 0xf
 1758 03f2 AC030000 		.4byte	.LASF46
 1759 03f6 01       		.byte	0x1
 1760 03f7 6D03     		.2byte	0x36d
 1761 03f9 00000000 		.4byte	.LFB15
 1762 03fd 0C000000 		.4byte	.LFE15-.LFB15
 1763 0401 01       		.uleb128 0x1
 1764 0402 9C       		.byte	0x9c
 1765 0403 16040000 		.4byte	0x416
 1766 0407 10       		.uleb128 0x10
 1767 0408 5A030000 		.4byte	.LASF45
 1768 040c 01       		.byte	0x1
 1769 040d 6D03     		.2byte	0x36d
 1770 040f 6B000000 		.4byte	0x6b
 1771 0413 01       		.uleb128 0x1
 1772 0414 50       		.byte	0x50
 1773 0415 00       		.byte	0
 1774 0416 0F       		.uleb128 0xf
 1775 0417 5A040000 		.4byte	.LASF47
 1776 041b 01       		.byte	0x1
 1777 041c 8C03     		.2byte	0x38c
 1778 041e 00000000 		.4byte	.LFB16
ARM GAS  C:\Users\RECEPC~1\AppData\Local\Temp\ccyux4kk.s 			page 60


 1779 0422 0C000000 		.4byte	.LFE16-.LFB16
 1780 0426 01       		.uleb128 0x1
 1781 0427 9C       		.byte	0x9c
 1782 0428 3B040000 		.4byte	0x43b
 1783 042c 10       		.uleb128 0x10
 1784 042d 9B020000 		.4byte	.LASF28
 1785 0431 01       		.byte	0x1
 1786 0432 8C03     		.2byte	0x38c
 1787 0434 6B000000 		.4byte	0x6b
 1788 0438 01       		.uleb128 0x1
 1789 0439 50       		.byte	0x50
 1790 043a 00       		.byte	0
 1791 043b 0F       		.uleb128 0xf
 1792 043c EE040000 		.4byte	.LASF48
 1793 0440 01       		.byte	0x1
 1794 0441 AE03     		.2byte	0x3ae
 1795 0443 00000000 		.4byte	.LFB17
 1796 0447 14000000 		.4byte	.LFE17-.LFB17
 1797 044b 01       		.uleb128 0x1
 1798 044c 9C       		.byte	0x9c
 1799 044d 60040000 		.4byte	0x460
 1800 0451 10       		.uleb128 0x10
 1801 0452 4E000000 		.4byte	.LASF49
 1802 0456 01       		.byte	0x1
 1803 0457 AE03     		.2byte	0x3ae
 1804 0459 6B000000 		.4byte	0x6b
 1805 045d 01       		.uleb128 0x1
 1806 045e 50       		.byte	0x50
 1807 045f 00       		.byte	0
 1808 0460 0E       		.uleb128 0xe
 1809 0461 15030000 		.4byte	.LASF51
 1810 0465 01       		.byte	0x1
 1811 0466 EB03     		.2byte	0x3eb
 1812 0468 6B000000 		.4byte	0x6b
 1813 046c 00000000 		.4byte	.LFB18
 1814 0470 0C000000 		.4byte	.LFE18-.LFB18
 1815 0474 01       		.uleb128 0x1
 1816 0475 9C       		.byte	0x9c
 1817 0476 0F       		.uleb128 0xf
 1818 0477 59000000 		.4byte	.LASF52
 1819 047b 01       		.byte	0x1
 1820 047c 1104     		.2byte	0x411
 1821 047e 00000000 		.4byte	.LFB19
 1822 0482 18000000 		.4byte	.LFE19-.LFB19
 1823 0486 01       		.uleb128 0x1
 1824 0487 9C       		.byte	0x9c
 1825 0488 9B040000 		.4byte	0x49b
 1826 048c 10       		.uleb128 0x10
 1827 048d 4E000000 		.4byte	.LASF49
 1828 0491 01       		.byte	0x1
 1829 0492 1104     		.2byte	0x411
 1830 0494 6B000000 		.4byte	0x6b
 1831 0498 01       		.uleb128 0x1
 1832 0499 50       		.byte	0x50
 1833 049a 00       		.byte	0
 1834 049b 0F       		.uleb128 0xf
 1835 049c 62030000 		.4byte	.LASF53
ARM GAS  C:\Users\RECEPC~1\AppData\Local\Temp\ccyux4kk.s 			page 61


 1836 04a0 01       		.byte	0x1
 1837 04a1 7904     		.2byte	0x479
 1838 04a3 00000000 		.4byte	.LFB20
 1839 04a7 24000000 		.4byte	.LFE20-.LFB20
 1840 04ab 01       		.uleb128 0x1
 1841 04ac 9C       		.byte	0x9c
 1842 04ad DB040000 		.4byte	0x4db
 1843 04b1 14       		.uleb128 0x14
 1844 04b2 6D000000 		.4byte	.LASF54
 1845 04b6 01       		.byte	0x1
 1846 04b7 7904     		.2byte	0x479
 1847 04b9 DB040000 		.4byte	0x4db
 1848 04bd 7D010000 		.4byte	.LLST10
 1849 04c1 12       		.uleb128 0x12
 1850 04c2 FF010000 		.4byte	.LASF55
 1851 04c6 01       		.byte	0x1
 1852 04c7 7B04     		.2byte	0x47b
 1853 04c9 77000000 		.4byte	0x77
 1854 04cd BF010000 		.4byte	.LLST11
 1855 04d1 0D       		.uleb128 0xd
 1856 04d2 0E000000 		.4byte	.LVL64
 1857 04d6 76040000 		.4byte	0x476
 1858 04da 00       		.byte	0
 1859 04db 06       		.uleb128 0x6
 1860 04dc 04       		.byte	0x4
 1861 04dd E1040000 		.4byte	0x4e1
 1862 04e1 15       		.uleb128 0x15
 1863 04e2 9D000000 		.4byte	0x9d
 1864 04e6 0F       		.uleb128 0xf
 1865 04e7 1F060000 		.4byte	.LASF56
 1866 04eb 01       		.byte	0x1
 1867 04ec A704     		.2byte	0x4a7
 1868 04ee 00000000 		.4byte	.LFB21
 1869 04f2 28000000 		.4byte	.LFE21-.LFB21
 1870 04f6 01       		.uleb128 0x1
 1871 04f7 9C       		.byte	0x9c
 1872 04f8 36050000 		.4byte	0x536
 1873 04fc 14       		.uleb128 0x14
 1874 04fd 6D000000 		.4byte	.LASF54
 1875 0501 01       		.byte	0x1
 1876 0502 A704     		.2byte	0x4a7
 1877 0504 36050000 		.4byte	0x536
 1878 0508 00020000 		.4byte	.LLST12
 1879 050c 14       		.uleb128 0x14
 1880 050d 50040000 		.4byte	.LASF57
 1881 0511 01       		.byte	0x1
 1882 0512 A704     		.2byte	0x4a7
 1883 0514 6B000000 		.4byte	0x6b
 1884 0518 42020000 		.4byte	.LLST13
 1885 051c 12       		.uleb128 0x12
 1886 051d FF010000 		.4byte	.LASF55
 1887 0521 01       		.byte	0x1
 1888 0522 AA04     		.2byte	0x4aa
 1889 0524 6B000000 		.4byte	0x6b
 1890 0528 7C020000 		.4byte	.LLST14
 1891 052c 0D       		.uleb128 0xd
 1892 052d 0E000000 		.4byte	.LVL72
ARM GAS  C:\Users\RECEPC~1\AppData\Local\Temp\ccyux4kk.s 			page 62


 1893 0531 76040000 		.4byte	0x476
 1894 0535 00       		.byte	0
 1895 0536 06       		.uleb128 0x6
 1896 0537 04       		.byte	0x4
 1897 0538 3C050000 		.4byte	0x53c
 1898 053c 15       		.uleb128 0x15
 1899 053d 6B000000 		.4byte	0x6b
 1900 0541 0F       		.uleb128 0xf
 1901 0542 EA000000 		.4byte	.LASF58
 1902 0546 01       		.byte	0x1
 1903 0547 CE04     		.2byte	0x4ce
 1904 0549 00000000 		.4byte	.LFB22
 1905 054d 20000000 		.4byte	.LFE22-.LFB22
 1906 0551 01       		.uleb128 0x1
 1907 0552 9C       		.byte	0x9c
 1908 0553 93050000 		.4byte	0x593
 1909 0557 14       		.uleb128 0x14
 1910 0558 4E000000 		.4byte	.LASF49
 1911 055c 01       		.byte	0x1
 1912 055d CE04     		.2byte	0x4ce
 1913 055f 6B000000 		.4byte	0x6b
 1914 0563 BD020000 		.4byte	.LLST15
 1915 0567 0D       		.uleb128 0xd
 1916 0568 0C000000 		.4byte	.LVL79
 1917 056c 76040000 		.4byte	0x476
 1918 0570 09       		.uleb128 0x9
 1919 0571 12000000 		.4byte	.LVL80
 1920 0575 76040000 		.4byte	0x476
 1921 0579 83050000 		.4byte	0x583
 1922 057d 0A       		.uleb128 0xa
 1923 057e 01       		.uleb128 0x1
 1924 057f 50       		.byte	0x50
 1925 0580 01       		.uleb128 0x1
 1926 0581 3D       		.byte	0x3d
 1927 0582 00       		.byte	0
 1928 0583 0B       		.uleb128 0xb
 1929 0584 18000000 		.4byte	.LVL81
 1930 0588 76040000 		.4byte	0x476
 1931 058c 0A       		.uleb128 0xa
 1932 058d 01       		.uleb128 0x1
 1933 058e 50       		.byte	0x50
 1934 058f 01       		.uleb128 0x1
 1935 0590 3A       		.byte	0x3a
 1936 0591 00       		.byte	0
 1937 0592 00       		.byte	0
 1938 0593 11       		.uleb128 0x11
 1939 0594 CE000000 		.4byte	.LASF59
 1940 0598 01       		.byte	0x1
 1941 0599 F904     		.2byte	0x4f9
 1942 059b 6B000000 		.4byte	0x6b
 1943 059f 00000000 		.4byte	.LFB23
 1944 05a3 24000000 		.4byte	.LFE23-.LFB23
 1945 05a7 01       		.uleb128 0x1
 1946 05a8 9C       		.byte	0x9c
 1947 05a9 BE050000 		.4byte	0x5be
 1948 05ad 12       		.uleb128 0x12
 1949 05ae 39020000 		.4byte	.LASF40
ARM GAS  C:\Users\RECEPC~1\AppData\Local\Temp\ccyux4kk.s 			page 63


 1950 05b2 01       		.byte	0x1
 1951 05b3 FC04     		.2byte	0x4fc
 1952 05b5 6B000000 		.4byte	0x6b
 1953 05b9 DE020000 		.4byte	.LLST16
 1954 05bd 00       		.byte	0
 1955 05be 0F       		.uleb128 0xf
 1956 05bf 1F020000 		.4byte	.LASF60
 1957 05c3 01       		.byte	0x1
 1958 05c4 4A05     		.2byte	0x54a
 1959 05c6 00000000 		.4byte	.LFB24
 1960 05ca 24000000 		.4byte	.LFE24-.LFB24
 1961 05ce 01       		.uleb128 0x1
 1962 05cf 9C       		.byte	0x9c
 1963 05d0 F7050000 		.4byte	0x5f7
 1964 05d4 12       		.uleb128 0x12
 1965 05d5 16050000 		.4byte	.LASF24
 1966 05d9 01       		.byte	0x1
 1967 05da 4C05     		.2byte	0x54c
 1968 05dc 6B000000 		.4byte	0x6b
 1969 05e0 FC020000 		.4byte	.LLST17
 1970 05e4 0D       		.uleb128 0xd
 1971 05e5 06000000 		.4byte	.LVL84
 1972 05e9 2C070000 		.4byte	0x72c
 1973 05ed 0D       		.uleb128 0xd
 1974 05ee 1C000000 		.4byte	.LVL85
 1975 05f2 3E070000 		.4byte	0x73e
 1976 05f6 00       		.byte	0
 1977 05f7 0F       		.uleb128 0xf
 1978 05f8 99010000 		.4byte	.LASF61
 1979 05fc 01       		.byte	0x1
 1980 05fd A005     		.2byte	0x5a0
 1981 05ff 00000000 		.4byte	.LFB25
 1982 0603 58000000 		.4byte	.LFE25-.LFB25
 1983 0607 01       		.uleb128 0x1
 1984 0608 9C       		.byte	0x9c
 1985 0609 4A060000 		.4byte	0x64a
 1986 060d 14       		.uleb128 0x14
 1987 060e C9010000 		.4byte	.LASF62
 1988 0612 01       		.byte	0x1
 1989 0613 A005     		.2byte	0x5a0
 1990 0615 6B000000 		.4byte	0x6b
 1991 0619 0F030000 		.4byte	.LLST18
 1992 061d 16       		.uleb128 0x16
 1993 061e 06000000 		.4byte	.LBB2
 1994 0622 52000000 		.4byte	.LBE2-.LBB2
 1995 0626 12       		.uleb128 0x12
 1996 0627 34030000 		.4byte	.LASF63
 1997 062b 01       		.byte	0x1
 1998 062c A805     		.2byte	0x5a8
 1999 062e 6B000000 		.4byte	0x6b
 2000 0632 30030000 		.4byte	.LLST19
 2001 0636 13       		.uleb128 0x13
 2002 0637 C5000000 		.4byte	.LASF64
 2003 063b 01       		.byte	0x1
 2004 063c D005     		.2byte	0x5d0
 2005 063e 6B000000 		.4byte	0x6b
 2006 0642 05       		.uleb128 0x5
ARM GAS  C:\Users\RECEPC~1\AppData\Local\Temp\ccyux4kk.s 			page 64


 2007 0643 03       		.byte	0x3
 2008 0644 08000000 		.4byte	txPeriod.5008
 2009 0648 00       		.byte	0
 2010 0649 00       		.byte	0
 2011 064a 0F       		.uleb128 0xf
 2012 064b 00000000 		.4byte	.LASF65
 2013 064f 01       		.byte	0x1
 2014 0650 2406     		.2byte	0x624
 2015 0652 00000000 		.4byte	.LFB26
 2016 0656 02000000 		.4byte	.LFE26-.LFB26
 2017 065a 01       		.uleb128 0x1
 2018 065b 9C       		.byte	0x9c
 2019 065c 6F060000 		.4byte	0x66f
 2020 0660 10       		.uleb128 0x10
 2021 0661 52010000 		.4byte	.LASF43
 2022 0665 01       		.byte	0x1
 2023 0666 2406     		.2byte	0x624
 2024 0668 6B000000 		.4byte	0x6b
 2025 066c 01       		.uleb128 0x1
 2026 066d 50       		.byte	0x50
 2027 066e 00       		.byte	0
 2028 066f 17       		.uleb128 0x17
 2029 0670 1D000000 		.4byte	.LASF66
 2030 0674 01       		.byte	0x1
 2031 0675 1B       		.byte	0x1b
 2032 0676 6B000000 		.4byte	0x6b
 2033 067a 05       		.uleb128 0x5
 2034 067b 03       		.byte	0x3
 2035 067c 00000000 		.4byte	RF_Physical_initVar
 2036 0680 17       		.uleb128 0x17
 2037 0681 D0040000 		.4byte	.LASF67
 2038 0685 01       		.byte	0x1
 2039 0686 24       		.byte	0x24
 2040 0687 6B000000 		.4byte	0x6b
 2041 068b 05       		.uleb128 0x5
 2042 068c 03       		.byte	0x3
 2043 068d 00000000 		.4byte	RF_Physical_errorStatus
 2044 0691 18       		.uleb128 0x18
 2045 0692 6B000000 		.4byte	0x6b
 2046 0696 A2060000 		.4byte	0x6a2
 2047 069a 19       		.uleb128 0x19
 2048 069b EA000000 		.4byte	0xea
 2049 069f FF01     		.2byte	0x1ff
 2050 06a1 00       		.byte	0
 2051 06a2 17       		.uleb128 0x17
 2052 06a3 45030000 		.4byte	.LASF68
 2053 06a7 01       		.byte	0x1
 2054 06a8 25       		.byte	0x25
 2055 06a9 B3060000 		.4byte	0x6b3
 2056 06ad 05       		.uleb128 0x5
 2057 06ae 03       		.byte	0x3
 2058 06af 00000000 		.4byte	RF_Physical_rxBuffer
 2059 06b3 05       		.uleb128 0x5
 2060 06b4 91060000 		.4byte	0x691
 2061 06b8 17       		.uleb128 0x17
 2062 06b9 A2020000 		.4byte	.LASF69
 2063 06bd 01       		.byte	0x1
ARM GAS  C:\Users\RECEPC~1\AppData\Local\Temp\ccyux4kk.s 			page 65


 2064 06be 26       		.byte	0x26
 2065 06bf C1000000 		.4byte	0xc1
 2066 06c3 05       		.uleb128 0x5
 2067 06c4 03       		.byte	0x3
 2068 06c5 00000000 		.4byte	RF_Physical_rxBufferRead
 2069 06c9 17       		.uleb128 0x17
 2070 06ca 34060000 		.4byte	.LASF70
 2071 06ce 01       		.byte	0x1
 2072 06cf 27       		.byte	0x27
 2073 06d0 C1000000 		.4byte	0xc1
 2074 06d4 05       		.uleb128 0x5
 2075 06d5 03       		.byte	0x3
 2076 06d6 00000000 		.4byte	RF_Physical_rxBufferWrite
 2077 06da 17       		.uleb128 0x17
 2078 06db 14040000 		.4byte	.LASF71
 2079 06df 01       		.byte	0x1
 2080 06e0 28       		.byte	0x28
 2081 06e1 BC000000 		.4byte	0xbc
 2082 06e5 05       		.uleb128 0x5
 2083 06e6 03       		.byte	0x3
 2084 06e7 00000000 		.4byte	RF_Physical_rxBufferLoopDetect
 2085 06eb 17       		.uleb128 0x17
 2086 06ec 33040000 		.4byte	.LASF72
 2087 06f0 01       		.byte	0x1
 2088 06f1 29       		.byte	0x29
 2089 06f2 BC000000 		.4byte	0xbc
 2090 06f6 05       		.uleb128 0x5
 2091 06f7 03       		.byte	0x3
 2092 06f8 00000000 		.4byte	RF_Physical_rxBufferOverflow
 2093 06fc 1A       		.uleb128 0x1a
 2094 06fd 51020000 		.4byte	.LASF80
 2095 0701 03       		.byte	0x3
 2096 0702 89       		.byte	0x89
 2097 0703 D7000000 		.4byte	0xd7
 2098 0707 16070000 		.4byte	0x716
 2099 070b 1B       		.uleb128 0x1b
 2100 070c 6B000000 		.4byte	0x6b
 2101 0710 1B       		.uleb128 0x1b
 2102 0711 D7000000 		.4byte	0xd7
 2103 0715 00       		.byte	0
 2104 0716 1C       		.uleb128 0x1c
 2105 0717 C6030000 		.4byte	.LASF73
 2106 071b 03       		.byte	0x3
 2107 071c 8C       		.byte	0x8c
 2108 071d 2C070000 		.4byte	0x72c
 2109 0721 1B       		.uleb128 0x1b
 2110 0722 6B000000 		.4byte	0x6b
 2111 0726 1B       		.uleb128 0x1b
 2112 0727 6B000000 		.4byte	0x6b
 2113 072b 00       		.byte	0
 2114 072c 1D       		.uleb128 0x1d
 2115 072d 08020000 		.4byte	.LASF81
 2116 0731 03       		.byte	0x3
 2117 0732 7E       		.byte	0x7e
 2118 0733 6B000000 		.4byte	0x6b
 2119 0737 1E       		.uleb128 0x1e
 2120 0738 5E010000 		.4byte	.LASF75
ARM GAS  C:\Users\RECEPC~1\AppData\Local\Temp\ccyux4kk.s 			page 66


 2121 073c 04       		.byte	0x4
 2122 073d 27       		.byte	0x27
 2123 073e 1C       		.uleb128 0x1c
 2124 073f 38000000 		.4byte	.LASF74
 2125 0743 03       		.byte	0x3
 2126 0744 7F       		.byte	0x7f
 2127 0745 4F070000 		.4byte	0x74f
 2128 0749 1B       		.uleb128 0x1b
 2129 074a 6B000000 		.4byte	0x6b
 2130 074e 00       		.byte	0
 2131 074f 1E       		.uleb128 0x1e
 2132 0750 AF010000 		.4byte	.LASF76
 2133 0754 04       		.byte	0x4
 2134 0755 28       		.byte	0x28
 2135 0756 00       		.byte	0
 2136              		.section	.debug_abbrev,"",%progbits
 2137              	.Ldebug_abbrev0:
 2138 0000 01       		.uleb128 0x1
 2139 0001 11       		.uleb128 0x11
 2140 0002 01       		.byte	0x1
 2141 0003 25       		.uleb128 0x25
 2142 0004 0E       		.uleb128 0xe
 2143 0005 13       		.uleb128 0x13
 2144 0006 0B       		.uleb128 0xb
 2145 0007 03       		.uleb128 0x3
 2146 0008 0E       		.uleb128 0xe
 2147 0009 1B       		.uleb128 0x1b
 2148 000a 0E       		.uleb128 0xe
 2149 000b 55       		.uleb128 0x55
 2150 000c 17       		.uleb128 0x17
 2151 000d 11       		.uleb128 0x11
 2152 000e 01       		.uleb128 0x1
 2153 000f 10       		.uleb128 0x10
 2154 0010 17       		.uleb128 0x17
 2155 0011 00       		.byte	0
 2156 0012 00       		.byte	0
 2157 0013 02       		.uleb128 0x2
 2158 0014 24       		.uleb128 0x24
 2159 0015 00       		.byte	0
 2160 0016 0B       		.uleb128 0xb
 2161 0017 0B       		.uleb128 0xb
 2162 0018 3E       		.uleb128 0x3e
 2163 0019 0B       		.uleb128 0xb
 2164 001a 03       		.uleb128 0x3
 2165 001b 0E       		.uleb128 0xe
 2166 001c 00       		.byte	0
 2167 001d 00       		.byte	0
 2168 001e 03       		.uleb128 0x3
 2169 001f 24       		.uleb128 0x24
 2170 0020 00       		.byte	0
 2171 0021 0B       		.uleb128 0xb
 2172 0022 0B       		.uleb128 0xb
 2173 0023 3E       		.uleb128 0x3e
 2174 0024 0B       		.uleb128 0xb
 2175 0025 03       		.uleb128 0x3
 2176 0026 08       		.uleb128 0x8
 2177 0027 00       		.byte	0
ARM GAS  C:\Users\RECEPC~1\AppData\Local\Temp\ccyux4kk.s 			page 67


 2178 0028 00       		.byte	0
 2179 0029 04       		.uleb128 0x4
 2180 002a 16       		.uleb128 0x16
 2181 002b 00       		.byte	0
 2182 002c 03       		.uleb128 0x3
 2183 002d 0E       		.uleb128 0xe
 2184 002e 3A       		.uleb128 0x3a
 2185 002f 0B       		.uleb128 0xb
 2186 0030 3B       		.uleb128 0x3b
 2187 0031 05       		.uleb128 0x5
 2188 0032 49       		.uleb128 0x49
 2189 0033 13       		.uleb128 0x13
 2190 0034 00       		.byte	0
 2191 0035 00       		.byte	0
 2192 0036 05       		.uleb128 0x5
 2193 0037 35       		.uleb128 0x35
 2194 0038 00       		.byte	0
 2195 0039 49       		.uleb128 0x49
 2196 003a 13       		.uleb128 0x13
 2197 003b 00       		.byte	0
 2198 003c 00       		.byte	0
 2199 003d 06       		.uleb128 0x6
 2200 003e 0F       		.uleb128 0xf
 2201 003f 00       		.byte	0
 2202 0040 0B       		.uleb128 0xb
 2203 0041 0B       		.uleb128 0xb
 2204 0042 49       		.uleb128 0x49
 2205 0043 13       		.uleb128 0x13
 2206 0044 00       		.byte	0
 2207 0045 00       		.byte	0
 2208 0046 07       		.uleb128 0x7
 2209 0047 15       		.uleb128 0x15
 2210 0048 00       		.byte	0
 2211 0049 27       		.uleb128 0x27
 2212 004a 19       		.uleb128 0x19
 2213 004b 00       		.byte	0
 2214 004c 00       		.byte	0
 2215 004d 08       		.uleb128 0x8
 2216 004e 2E       		.uleb128 0x2e
 2217 004f 01       		.byte	0x1
 2218 0050 3F       		.uleb128 0x3f
 2219 0051 19       		.uleb128 0x19
 2220 0052 03       		.uleb128 0x3
 2221 0053 0E       		.uleb128 0xe
 2222 0054 3A       		.uleb128 0x3a
 2223 0055 0B       		.uleb128 0xb
 2224 0056 3B       		.uleb128 0x3b
 2225 0057 0B       		.uleb128 0xb
 2226 0058 27       		.uleb128 0x27
 2227 0059 19       		.uleb128 0x19
 2228 005a 11       		.uleb128 0x11
 2229 005b 01       		.uleb128 0x1
 2230 005c 12       		.uleb128 0x12
 2231 005d 06       		.uleb128 0x6
 2232 005e 40       		.uleb128 0x40
 2233 005f 18       		.uleb128 0x18
 2234 0060 9742     		.uleb128 0x2117
ARM GAS  C:\Users\RECEPC~1\AppData\Local\Temp\ccyux4kk.s 			page 68


 2235 0062 19       		.uleb128 0x19
 2236 0063 01       		.uleb128 0x1
 2237 0064 13       		.uleb128 0x13
 2238 0065 00       		.byte	0
 2239 0066 00       		.byte	0
 2240 0067 09       		.uleb128 0x9
 2241 0068 898201   		.uleb128 0x4109
 2242 006b 01       		.byte	0x1
 2243 006c 11       		.uleb128 0x11
 2244 006d 01       		.uleb128 0x1
 2245 006e 31       		.uleb128 0x31
 2246 006f 13       		.uleb128 0x13
 2247 0070 01       		.uleb128 0x1
 2248 0071 13       		.uleb128 0x13
 2249 0072 00       		.byte	0
 2250 0073 00       		.byte	0
 2251 0074 0A       		.uleb128 0xa
 2252 0075 8A8201   		.uleb128 0x410a
 2253 0078 00       		.byte	0
 2254 0079 02       		.uleb128 0x2
 2255 007a 18       		.uleb128 0x18
 2256 007b 9142     		.uleb128 0x2111
 2257 007d 18       		.uleb128 0x18
 2258 007e 00       		.byte	0
 2259 007f 00       		.byte	0
 2260 0080 0B       		.uleb128 0xb
 2261 0081 898201   		.uleb128 0x4109
 2262 0084 01       		.byte	0x1
 2263 0085 11       		.uleb128 0x11
 2264 0086 01       		.uleb128 0x1
 2265 0087 31       		.uleb128 0x31
 2266 0088 13       		.uleb128 0x13
 2267 0089 00       		.byte	0
 2268 008a 00       		.byte	0
 2269 008b 0C       		.uleb128 0xc
 2270 008c 34       		.uleb128 0x34
 2271 008d 00       		.byte	0
 2272 008e 03       		.uleb128 0x3
 2273 008f 0E       		.uleb128 0xe
 2274 0090 3A       		.uleb128 0x3a
 2275 0091 0B       		.uleb128 0xb
 2276 0092 3B       		.uleb128 0x3b
 2277 0093 0B       		.uleb128 0xb
 2278 0094 49       		.uleb128 0x49
 2279 0095 13       		.uleb128 0x13
 2280 0096 02       		.uleb128 0x2
 2281 0097 17       		.uleb128 0x17
 2282 0098 00       		.byte	0
 2283 0099 00       		.byte	0
 2284 009a 0D       		.uleb128 0xd
 2285 009b 898201   		.uleb128 0x4109
 2286 009e 00       		.byte	0
 2287 009f 11       		.uleb128 0x11
 2288 00a0 01       		.uleb128 0x1
 2289 00a1 31       		.uleb128 0x31
 2290 00a2 13       		.uleb128 0x13
 2291 00a3 00       		.byte	0
ARM GAS  C:\Users\RECEPC~1\AppData\Local\Temp\ccyux4kk.s 			page 69


 2292 00a4 00       		.byte	0
 2293 00a5 0E       		.uleb128 0xe
 2294 00a6 2E       		.uleb128 0x2e
 2295 00a7 00       		.byte	0
 2296 00a8 3F       		.uleb128 0x3f
 2297 00a9 19       		.uleb128 0x19
 2298 00aa 03       		.uleb128 0x3
 2299 00ab 0E       		.uleb128 0xe
 2300 00ac 3A       		.uleb128 0x3a
 2301 00ad 0B       		.uleb128 0xb
 2302 00ae 3B       		.uleb128 0x3b
 2303 00af 05       		.uleb128 0x5
 2304 00b0 27       		.uleb128 0x27
 2305 00b1 19       		.uleb128 0x19
 2306 00b2 49       		.uleb128 0x49
 2307 00b3 13       		.uleb128 0x13
 2308 00b4 11       		.uleb128 0x11
 2309 00b5 01       		.uleb128 0x1
 2310 00b6 12       		.uleb128 0x12
 2311 00b7 06       		.uleb128 0x6
 2312 00b8 40       		.uleb128 0x40
 2313 00b9 18       		.uleb128 0x18
 2314 00ba 9742     		.uleb128 0x2117
 2315 00bc 19       		.uleb128 0x19
 2316 00bd 00       		.byte	0
 2317 00be 00       		.byte	0
 2318 00bf 0F       		.uleb128 0xf
 2319 00c0 2E       		.uleb128 0x2e
 2320 00c1 01       		.byte	0x1
 2321 00c2 3F       		.uleb128 0x3f
 2322 00c3 19       		.uleb128 0x19
 2323 00c4 03       		.uleb128 0x3
 2324 00c5 0E       		.uleb128 0xe
 2325 00c6 3A       		.uleb128 0x3a
 2326 00c7 0B       		.uleb128 0xb
 2327 00c8 3B       		.uleb128 0x3b
 2328 00c9 05       		.uleb128 0x5
 2329 00ca 27       		.uleb128 0x27
 2330 00cb 19       		.uleb128 0x19
 2331 00cc 11       		.uleb128 0x11
 2332 00cd 01       		.uleb128 0x1
 2333 00ce 12       		.uleb128 0x12
 2334 00cf 06       		.uleb128 0x6
 2335 00d0 40       		.uleb128 0x40
 2336 00d1 18       		.uleb128 0x18
 2337 00d2 9742     		.uleb128 0x2117
 2338 00d4 19       		.uleb128 0x19
 2339 00d5 01       		.uleb128 0x1
 2340 00d6 13       		.uleb128 0x13
 2341 00d7 00       		.byte	0
 2342 00d8 00       		.byte	0
 2343 00d9 10       		.uleb128 0x10
 2344 00da 05       		.uleb128 0x5
 2345 00db 00       		.byte	0
 2346 00dc 03       		.uleb128 0x3
 2347 00dd 0E       		.uleb128 0xe
 2348 00de 3A       		.uleb128 0x3a
ARM GAS  C:\Users\RECEPC~1\AppData\Local\Temp\ccyux4kk.s 			page 70


 2349 00df 0B       		.uleb128 0xb
 2350 00e0 3B       		.uleb128 0x3b
 2351 00e1 05       		.uleb128 0x5
 2352 00e2 49       		.uleb128 0x49
 2353 00e3 13       		.uleb128 0x13
 2354 00e4 02       		.uleb128 0x2
 2355 00e5 18       		.uleb128 0x18
 2356 00e6 00       		.byte	0
 2357 00e7 00       		.byte	0
 2358 00e8 11       		.uleb128 0x11
 2359 00e9 2E       		.uleb128 0x2e
 2360 00ea 01       		.byte	0x1
 2361 00eb 3F       		.uleb128 0x3f
 2362 00ec 19       		.uleb128 0x19
 2363 00ed 03       		.uleb128 0x3
 2364 00ee 0E       		.uleb128 0xe
 2365 00ef 3A       		.uleb128 0x3a
 2366 00f0 0B       		.uleb128 0xb
 2367 00f1 3B       		.uleb128 0x3b
 2368 00f2 05       		.uleb128 0x5
 2369 00f3 27       		.uleb128 0x27
 2370 00f4 19       		.uleb128 0x19
 2371 00f5 49       		.uleb128 0x49
 2372 00f6 13       		.uleb128 0x13
 2373 00f7 11       		.uleb128 0x11
 2374 00f8 01       		.uleb128 0x1
 2375 00f9 12       		.uleb128 0x12
 2376 00fa 06       		.uleb128 0x6
 2377 00fb 40       		.uleb128 0x40
 2378 00fc 18       		.uleb128 0x18
 2379 00fd 9742     		.uleb128 0x2117
 2380 00ff 19       		.uleb128 0x19
 2381 0100 01       		.uleb128 0x1
 2382 0101 13       		.uleb128 0x13
 2383 0102 00       		.byte	0
 2384 0103 00       		.byte	0
 2385 0104 12       		.uleb128 0x12
 2386 0105 34       		.uleb128 0x34
 2387 0106 00       		.byte	0
 2388 0107 03       		.uleb128 0x3
 2389 0108 0E       		.uleb128 0xe
 2390 0109 3A       		.uleb128 0x3a
 2391 010a 0B       		.uleb128 0xb
 2392 010b 3B       		.uleb128 0x3b
 2393 010c 05       		.uleb128 0x5
 2394 010d 49       		.uleb128 0x49
 2395 010e 13       		.uleb128 0x13
 2396 010f 02       		.uleb128 0x2
 2397 0110 17       		.uleb128 0x17
 2398 0111 00       		.byte	0
 2399 0112 00       		.byte	0
 2400 0113 13       		.uleb128 0x13
 2401 0114 34       		.uleb128 0x34
 2402 0115 00       		.byte	0
 2403 0116 03       		.uleb128 0x3
 2404 0117 0E       		.uleb128 0xe
 2405 0118 3A       		.uleb128 0x3a
ARM GAS  C:\Users\RECEPC~1\AppData\Local\Temp\ccyux4kk.s 			page 71


 2406 0119 0B       		.uleb128 0xb
 2407 011a 3B       		.uleb128 0x3b
 2408 011b 05       		.uleb128 0x5
 2409 011c 49       		.uleb128 0x49
 2410 011d 13       		.uleb128 0x13
 2411 011e 02       		.uleb128 0x2
 2412 011f 18       		.uleb128 0x18
 2413 0120 00       		.byte	0
 2414 0121 00       		.byte	0
 2415 0122 14       		.uleb128 0x14
 2416 0123 05       		.uleb128 0x5
 2417 0124 00       		.byte	0
 2418 0125 03       		.uleb128 0x3
 2419 0126 0E       		.uleb128 0xe
 2420 0127 3A       		.uleb128 0x3a
 2421 0128 0B       		.uleb128 0xb
 2422 0129 3B       		.uleb128 0x3b
 2423 012a 05       		.uleb128 0x5
 2424 012b 49       		.uleb128 0x49
 2425 012c 13       		.uleb128 0x13
 2426 012d 02       		.uleb128 0x2
 2427 012e 17       		.uleb128 0x17
 2428 012f 00       		.byte	0
 2429 0130 00       		.byte	0
 2430 0131 15       		.uleb128 0x15
 2431 0132 26       		.uleb128 0x26
 2432 0133 00       		.byte	0
 2433 0134 49       		.uleb128 0x49
 2434 0135 13       		.uleb128 0x13
 2435 0136 00       		.byte	0
 2436 0137 00       		.byte	0
 2437 0138 16       		.uleb128 0x16
 2438 0139 0B       		.uleb128 0xb
 2439 013a 01       		.byte	0x1
 2440 013b 11       		.uleb128 0x11
 2441 013c 01       		.uleb128 0x1
 2442 013d 12       		.uleb128 0x12
 2443 013e 06       		.uleb128 0x6
 2444 013f 00       		.byte	0
 2445 0140 00       		.byte	0
 2446 0141 17       		.uleb128 0x17
 2447 0142 34       		.uleb128 0x34
 2448 0143 00       		.byte	0
 2449 0144 03       		.uleb128 0x3
 2450 0145 0E       		.uleb128 0xe
 2451 0146 3A       		.uleb128 0x3a
 2452 0147 0B       		.uleb128 0xb
 2453 0148 3B       		.uleb128 0x3b
 2454 0149 0B       		.uleb128 0xb
 2455 014a 49       		.uleb128 0x49
 2456 014b 13       		.uleb128 0x13
 2457 014c 3F       		.uleb128 0x3f
 2458 014d 19       		.uleb128 0x19
 2459 014e 02       		.uleb128 0x2
 2460 014f 18       		.uleb128 0x18
 2461 0150 00       		.byte	0
 2462 0151 00       		.byte	0
ARM GAS  C:\Users\RECEPC~1\AppData\Local\Temp\ccyux4kk.s 			page 72


 2463 0152 18       		.uleb128 0x18
 2464 0153 01       		.uleb128 0x1
 2465 0154 01       		.byte	0x1
 2466 0155 49       		.uleb128 0x49
 2467 0156 13       		.uleb128 0x13
 2468 0157 01       		.uleb128 0x1
 2469 0158 13       		.uleb128 0x13
 2470 0159 00       		.byte	0
 2471 015a 00       		.byte	0
 2472 015b 19       		.uleb128 0x19
 2473 015c 21       		.uleb128 0x21
 2474 015d 00       		.byte	0
 2475 015e 49       		.uleb128 0x49
 2476 015f 13       		.uleb128 0x13
 2477 0160 2F       		.uleb128 0x2f
 2478 0161 05       		.uleb128 0x5
 2479 0162 00       		.byte	0
 2480 0163 00       		.byte	0
 2481 0164 1A       		.uleb128 0x1a
 2482 0165 2E       		.uleb128 0x2e
 2483 0166 01       		.byte	0x1
 2484 0167 3F       		.uleb128 0x3f
 2485 0168 19       		.uleb128 0x19
 2486 0169 03       		.uleb128 0x3
 2487 016a 0E       		.uleb128 0xe
 2488 016b 3A       		.uleb128 0x3a
 2489 016c 0B       		.uleb128 0xb
 2490 016d 3B       		.uleb128 0x3b
 2491 016e 0B       		.uleb128 0xb
 2492 016f 27       		.uleb128 0x27
 2493 0170 19       		.uleb128 0x19
 2494 0171 49       		.uleb128 0x49
 2495 0172 13       		.uleb128 0x13
 2496 0173 3C       		.uleb128 0x3c
 2497 0174 19       		.uleb128 0x19
 2498 0175 01       		.uleb128 0x1
 2499 0176 13       		.uleb128 0x13
 2500 0177 00       		.byte	0
 2501 0178 00       		.byte	0
 2502 0179 1B       		.uleb128 0x1b
 2503 017a 05       		.uleb128 0x5
 2504 017b 00       		.byte	0
 2505 017c 49       		.uleb128 0x49
 2506 017d 13       		.uleb128 0x13
 2507 017e 00       		.byte	0
 2508 017f 00       		.byte	0
 2509 0180 1C       		.uleb128 0x1c
 2510 0181 2E       		.uleb128 0x2e
 2511 0182 01       		.byte	0x1
 2512 0183 3F       		.uleb128 0x3f
 2513 0184 19       		.uleb128 0x19
 2514 0185 03       		.uleb128 0x3
 2515 0186 0E       		.uleb128 0xe
 2516 0187 3A       		.uleb128 0x3a
 2517 0188 0B       		.uleb128 0xb
 2518 0189 3B       		.uleb128 0x3b
 2519 018a 0B       		.uleb128 0xb
ARM GAS  C:\Users\RECEPC~1\AppData\Local\Temp\ccyux4kk.s 			page 73


 2520 018b 27       		.uleb128 0x27
 2521 018c 19       		.uleb128 0x19
 2522 018d 3C       		.uleb128 0x3c
 2523 018e 19       		.uleb128 0x19
 2524 018f 01       		.uleb128 0x1
 2525 0190 13       		.uleb128 0x13
 2526 0191 00       		.byte	0
 2527 0192 00       		.byte	0
 2528 0193 1D       		.uleb128 0x1d
 2529 0194 2E       		.uleb128 0x2e
 2530 0195 00       		.byte	0
 2531 0196 3F       		.uleb128 0x3f
 2532 0197 19       		.uleb128 0x19
 2533 0198 03       		.uleb128 0x3
 2534 0199 0E       		.uleb128 0xe
 2535 019a 3A       		.uleb128 0x3a
 2536 019b 0B       		.uleb128 0xb
 2537 019c 3B       		.uleb128 0x3b
 2538 019d 0B       		.uleb128 0xb
 2539 019e 27       		.uleb128 0x27
 2540 019f 19       		.uleb128 0x19
 2541 01a0 49       		.uleb128 0x49
 2542 01a1 13       		.uleb128 0x13
 2543 01a2 3C       		.uleb128 0x3c
 2544 01a3 19       		.uleb128 0x19
 2545 01a4 00       		.byte	0
 2546 01a5 00       		.byte	0
 2547 01a6 1E       		.uleb128 0x1e
 2548 01a7 2E       		.uleb128 0x2e
 2549 01a8 00       		.byte	0
 2550 01a9 3F       		.uleb128 0x3f
 2551 01aa 19       		.uleb128 0x19
 2552 01ab 03       		.uleb128 0x3
 2553 01ac 0E       		.uleb128 0xe
 2554 01ad 3A       		.uleb128 0x3a
 2555 01ae 0B       		.uleb128 0xb
 2556 01af 3B       		.uleb128 0x3b
 2557 01b0 0B       		.uleb128 0xb
 2558 01b1 27       		.uleb128 0x27
 2559 01b2 19       		.uleb128 0x19
 2560 01b3 3C       		.uleb128 0x3c
 2561 01b4 19       		.uleb128 0x19
 2562 01b5 00       		.byte	0
 2563 01b6 00       		.byte	0
 2564 01b7 00       		.byte	0
 2565              		.section	.debug_loc,"",%progbits
 2566              	.Ldebug_loc0:
 2567              	.LLST0:
 2568 0000 08000000 		.4byte	.LVL3
 2569 0004 38000000 		.4byte	.LVL6
 2570 0008 0100     		.2byte	0x1
 2571 000a 54       		.byte	0x54
 2572 000b 00000000 		.4byte	0
 2573 000f 00000000 		.4byte	0
 2574              	.LLST1:
 2575 0013 08000000 		.4byte	.LVL10
 2576 0017 38000000 		.4byte	.LVL13
ARM GAS  C:\Users\RECEPC~1\AppData\Local\Temp\ccyux4kk.s 			page 74


 2577 001b 0100     		.2byte	0x1
 2578 001d 54       		.byte	0x54
 2579 001e 00000000 		.4byte	0
 2580 0022 00000000 		.4byte	0
 2581              	.LLST2:
 2582 0026 22000000 		.4byte	.LVL18
 2583 002a 42000000 		.4byte	.LVL24
 2584 002e 0100     		.2byte	0x1
 2585 0030 50       		.byte	0x50
 2586 0031 48000000 		.4byte	.LVL26
 2587 0035 64000000 		.4byte	.LFE7
 2588 0039 0100     		.2byte	0x1
 2589 003b 50       		.byte	0x50
 2590 003c 00000000 		.4byte	0
 2591 0040 00000000 		.4byte	0
 2592              	.LLST3:
 2593 0044 0C000000 		.4byte	.LVL16
 2594 0048 24000000 		.4byte	.LVL19
 2595 004c 0100     		.2byte	0x1
 2596 004e 53       		.byte	0x53
 2597 004f 24000000 		.4byte	.LVL19
 2598 0053 26000000 		.4byte	.LVL20
 2599 0057 0300     		.2byte	0x3
 2600 0059 73       		.byte	0x73
 2601 005a 7F       		.sleb128 -1
 2602 005b 9F       		.byte	0x9f
 2603 005c 26000000 		.4byte	.LVL20
 2604 0060 34000000 		.4byte	.LVL22
 2605 0064 0100     		.2byte	0x1
 2606 0066 53       		.byte	0x53
 2607 0067 34000000 		.4byte	.LVL22
 2608 006b 40000000 		.4byte	.LVL23
 2609 006f 0500     		.2byte	0x5
 2610 0071 03       		.byte	0x3
 2611 0072 00000000 		.4byte	RF_Physical_rxBufferRead
 2612 0076 42000000 		.4byte	.LVL24
 2613 007a 44000000 		.4byte	.LVL25
 2614 007e 0100     		.2byte	0x1
 2615 0080 53       		.byte	0x53
 2616 0081 00000000 		.4byte	0
 2617 0085 00000000 		.4byte	0
 2618              	.LLST4:
 2619 0089 00000000 		.4byte	.LVL29
 2620 008d 22000000 		.4byte	.LVL32
 2621 0091 0200     		.2byte	0x2
 2622 0093 30       		.byte	0x30
 2623 0094 9F       		.byte	0x9f
 2624 0095 22000000 		.4byte	.LVL32
 2625 0099 42000000 		.4byte	.LVL38
 2626 009d 0100     		.2byte	0x1
 2627 009f 50       		.byte	0x50
 2628 00a0 42000000 		.4byte	.LVL38
 2629 00a4 54000000 		.4byte	.LVL41
 2630 00a8 0200     		.2byte	0x2
 2631 00aa 30       		.byte	0x30
 2632 00ab 9F       		.byte	0x9f
 2633 00ac 54000000 		.4byte	.LVL41
ARM GAS  C:\Users\RECEPC~1\AppData\Local\Temp\ccyux4kk.s 			page 75


 2634 00b0 5C000000 		.4byte	.LVL42
 2635 00b4 0100     		.2byte	0x1
 2636 00b6 50       		.byte	0x50
 2637 00b7 5C000000 		.4byte	.LVL42
 2638 00bb 60000000 		.4byte	.LVL43
 2639 00bf 0200     		.2byte	0x2
 2640 00c1 30       		.byte	0x30
 2641 00c2 9F       		.byte	0x9f
 2642 00c3 60000000 		.4byte	.LVL43
 2643 00c7 84000000 		.4byte	.LFE9
 2644 00cb 0100     		.2byte	0x1
 2645 00cd 50       		.byte	0x50
 2646 00ce 00000000 		.4byte	0
 2647 00d2 00000000 		.4byte	0
 2648              	.LLST5:
 2649 00d6 48000000 		.4byte	.LVL40
 2650 00da 62000000 		.4byte	.LVL44
 2651 00de 0100     		.2byte	0x1
 2652 00e0 53       		.byte	0x53
 2653 00e1 00000000 		.4byte	0
 2654 00e5 00000000 		.4byte	0
 2655              	.LLST6:
 2656 00e9 0C000000 		.4byte	.LVL30
 2657 00ed 24000000 		.4byte	.LVL33
 2658 00f1 0100     		.2byte	0x1
 2659 00f3 53       		.byte	0x53
 2660 00f4 24000000 		.4byte	.LVL33
 2661 00f8 26000000 		.4byte	.LVL34
 2662 00fc 0300     		.2byte	0x3
 2663 00fe 73       		.byte	0x73
 2664 00ff 7F       		.sleb128 -1
 2665 0100 9F       		.byte	0x9f
 2666 0101 26000000 		.4byte	.LVL34
 2667 0105 34000000 		.4byte	.LVL36
 2668 0109 0100     		.2byte	0x1
 2669 010b 53       		.byte	0x53
 2670 010c 34000000 		.4byte	.LVL36
 2671 0110 40000000 		.4byte	.LVL37
 2672 0114 0500     		.2byte	0x5
 2673 0116 03       		.byte	0x3
 2674 0117 00000000 		.4byte	RF_Physical_rxBufferRead
 2675 011b 42000000 		.4byte	.LVL38
 2676 011f 44000000 		.4byte	.LVL39
 2677 0123 0100     		.2byte	0x1
 2678 0125 53       		.byte	0x53
 2679 0126 00000000 		.4byte	0
 2680 012a 00000000 		.4byte	0
 2681              	.LLST7:
 2682 012e 0C000000 		.4byte	.LVL45
 2683 0132 16000000 		.4byte	.LVL46
 2684 0136 0100     		.2byte	0x1
 2685 0138 54       		.byte	0x54
 2686 0139 00000000 		.4byte	0
 2687 013d 00000000 		.4byte	0
 2688              	.LLST8:
 2689 0141 3C000000 		.4byte	.LVL48
 2690 0145 3E000000 		.4byte	.LVL49
ARM GAS  C:\Users\RECEPC~1\AppData\Local\Temp\ccyux4kk.s 			page 76


 2691 0149 0100     		.2byte	0x1
 2692 014b 50       		.byte	0x50
 2693 014c 50000000 		.4byte	.LVL50
 2694 0150 52000000 		.4byte	.LVL51
 2695 0154 0100     		.2byte	0x1
 2696 0156 50       		.byte	0x50
 2697 0157 54000000 		.4byte	.LVL52
 2698 015b 68000000 		.4byte	.LFE11
 2699 015f 0100     		.2byte	0x1
 2700 0161 50       		.byte	0x50
 2701 0162 00000000 		.4byte	0
 2702 0166 00000000 		.4byte	0
 2703              	.LLST9:
 2704 016a 06000000 		.4byte	.LVL53
 2705 016e 1B000000 		.4byte	.LVL54-1
 2706 0172 0100     		.2byte	0x1
 2707 0174 50       		.byte	0x50
 2708 0175 00000000 		.4byte	0
 2709 0179 00000000 		.4byte	0
 2710              	.LLST10:
 2711 017d 00000000 		.4byte	.LVL61
 2712 0181 0A000000 		.4byte	.LVL63
 2713 0185 0100     		.2byte	0x1
 2714 0187 50       		.byte	0x50
 2715 0188 0A000000 		.4byte	.LVL63
 2716 018c 14000000 		.4byte	.LVL67
 2717 0190 0100     		.2byte	0x1
 2718 0192 55       		.byte	0x55
 2719 0193 14000000 		.4byte	.LVL67
 2720 0197 18000000 		.4byte	.LVL68
 2721 019b 0100     		.2byte	0x1
 2722 019d 50       		.byte	0x50
 2723 019e 18000000 		.4byte	.LVL68
 2724 01a2 20000000 		.4byte	.LVL69
 2725 01a6 0100     		.2byte	0x1
 2726 01a8 55       		.byte	0x55
 2727 01a9 20000000 		.4byte	.LVL69
 2728 01ad 24000000 		.4byte	.LFE20
 2729 01b1 0400     		.2byte	0x4
 2730 01b3 F3       		.byte	0xf3
 2731 01b4 01       		.uleb128 0x1
 2732 01b5 50       		.byte	0x50
 2733 01b6 9F       		.byte	0x9f
 2734 01b7 00000000 		.4byte	0
 2735 01bb 00000000 		.4byte	0
 2736              	.LLST11:
 2737 01bf 02000000 		.4byte	.LVL62
 2738 01c3 0A000000 		.4byte	.LVL63
 2739 01c7 0200     		.2byte	0x2
 2740 01c9 30       		.byte	0x30
 2741 01ca 9F       		.byte	0x9f
 2742 01cb 0A000000 		.4byte	.LVL63
 2743 01cf 10000000 		.4byte	.LVL65
 2744 01d3 0100     		.2byte	0x1
 2745 01d5 54       		.byte	0x54
 2746 01d6 12000000 		.4byte	.LVL66
 2747 01da 14000000 		.4byte	.LVL67
ARM GAS  C:\Users\RECEPC~1\AppData\Local\Temp\ccyux4kk.s 			page 77


 2748 01de 0100     		.2byte	0x1
 2749 01e0 54       		.byte	0x54
 2750 01e1 14000000 		.4byte	.LVL67
 2751 01e5 18000000 		.4byte	.LVL68
 2752 01e9 0200     		.2byte	0x2
 2753 01eb 30       		.byte	0x30
 2754 01ec 9F       		.byte	0x9f
 2755 01ed 18000000 		.4byte	.LVL68
 2756 01f1 20000000 		.4byte	.LVL69
 2757 01f5 0100     		.2byte	0x1
 2758 01f7 54       		.byte	0x54
 2759 01f8 00000000 		.4byte	0
 2760 01fc 00000000 		.4byte	0
 2761              	.LLST12:
 2762 0200 00000000 		.4byte	.LVL70
 2763 0204 08000000 		.4byte	.LVL71
 2764 0208 0100     		.2byte	0x1
 2765 020a 50       		.byte	0x50
 2766 020b 08000000 		.4byte	.LVL71
 2767 020f 14000000 		.4byte	.LVL75
 2768 0213 0100     		.2byte	0x1
 2769 0215 56       		.byte	0x56
 2770 0216 14000000 		.4byte	.LVL75
 2771 021a 1C000000 		.4byte	.LVL76
 2772 021e 0100     		.2byte	0x1
 2773 0220 50       		.byte	0x50
 2774 0221 1C000000 		.4byte	.LVL76
 2775 0225 22000000 		.4byte	.LVL77
 2776 0229 0100     		.2byte	0x1
 2777 022b 56       		.byte	0x56
 2778 022c 22000000 		.4byte	.LVL77
 2779 0230 28000000 		.4byte	.LFE21
 2780 0234 0400     		.2byte	0x4
 2781 0236 F3       		.byte	0xf3
 2782 0237 01       		.uleb128 0x1
 2783 0238 50       		.byte	0x50
 2784 0239 9F       		.byte	0x9f
 2785 023a 00000000 		.4byte	0
 2786 023e 00000000 		.4byte	0
 2787              	.LLST13:
 2788 0242 00000000 		.4byte	.LVL70
 2789 0246 08000000 		.4byte	.LVL71
 2790 024a 0100     		.2byte	0x1
 2791 024c 51       		.byte	0x51
 2792 024d 08000000 		.4byte	.LVL71
 2793 0251 14000000 		.4byte	.LVL75
 2794 0255 0400     		.2byte	0x4
 2795 0257 F3       		.byte	0xf3
 2796 0258 01       		.uleb128 0x1
 2797 0259 51       		.byte	0x51
 2798 025a 9F       		.byte	0x9f
 2799 025b 14000000 		.4byte	.LVL75
 2800 025f 1C000000 		.4byte	.LVL76
 2801 0263 0100     		.2byte	0x1
 2802 0265 51       		.byte	0x51
 2803 0266 1C000000 		.4byte	.LVL76
 2804 026a 28000000 		.4byte	.LFE21
ARM GAS  C:\Users\RECEPC~1\AppData\Local\Temp\ccyux4kk.s 			page 78


 2805 026e 0400     		.2byte	0x4
 2806 0270 F3       		.byte	0xf3
 2807 0271 01       		.uleb128 0x1
 2808 0272 51       		.byte	0x51
 2809 0273 9F       		.byte	0x9f
 2810 0274 00000000 		.4byte	0
 2811 0278 00000000 		.4byte	0
 2812              	.LLST14:
 2813 027c 00000000 		.4byte	.LVL70
 2814 0280 08000000 		.4byte	.LVL71
 2815 0284 0200     		.2byte	0x2
 2816 0286 30       		.byte	0x30
 2817 0287 9F       		.byte	0x9f
 2818 0288 08000000 		.4byte	.LVL71
 2819 028c 10000000 		.4byte	.LVL73
 2820 0290 0100     		.2byte	0x1
 2821 0292 54       		.byte	0x54
 2822 0293 12000000 		.4byte	.LVL74
 2823 0297 14000000 		.4byte	.LVL75
 2824 029b 0100     		.2byte	0x1
 2825 029d 54       		.byte	0x54
 2826 029e 14000000 		.4byte	.LVL75
 2827 02a2 1C000000 		.4byte	.LVL76
 2828 02a6 0200     		.2byte	0x2
 2829 02a8 30       		.byte	0x30
 2830 02a9 9F       		.byte	0x9f
 2831 02aa 1C000000 		.4byte	.LVL76
 2832 02ae 22000000 		.4byte	.LVL77
 2833 02b2 0100     		.2byte	0x1
 2834 02b4 54       		.byte	0x54
 2835 02b5 00000000 		.4byte	0
 2836 02b9 00000000 		.4byte	0
 2837              	.LLST15:
 2838 02bd 00000000 		.4byte	.LVL78
 2839 02c1 0B000000 		.4byte	.LVL79-1
 2840 02c5 0100     		.2byte	0x1
 2841 02c7 50       		.byte	0x50
 2842 02c8 0B000000 		.4byte	.LVL79-1
 2843 02cc 20000000 		.4byte	.LFE22
 2844 02d0 0400     		.2byte	0x4
 2845 02d2 F3       		.byte	0xf3
 2846 02d3 01       		.uleb128 0x1
 2847 02d4 50       		.byte	0x50
 2848 02d5 9F       		.byte	0x9f
 2849 02d6 00000000 		.4byte	0
 2850 02da 00000000 		.4byte	0
 2851              	.LLST16:
 2852 02de 06000000 		.4byte	.LVL82
 2853 02e2 1C000000 		.4byte	.LVL83
 2854 02e6 0100     		.2byte	0x1
 2855 02e8 53       		.byte	0x53
 2856 02e9 1C000000 		.4byte	.LVL83
 2857 02ed 24000000 		.4byte	.LFE23
 2858 02f1 0100     		.2byte	0x1
 2859 02f3 50       		.byte	0x50
 2860 02f4 00000000 		.4byte	0
 2861 02f8 00000000 		.4byte	0
ARM GAS  C:\Users\RECEPC~1\AppData\Local\Temp\ccyux4kk.s 			page 79


 2862              	.LLST17:
 2863 02fc 06000000 		.4byte	.LVL84
 2864 0300 1B000000 		.4byte	.LVL85-1
 2865 0304 0100     		.2byte	0x1
 2866 0306 50       		.byte	0x50
 2867 0307 00000000 		.4byte	0
 2868 030b 00000000 		.4byte	0
 2869              	.LLST18:
 2870 030f 00000000 		.4byte	.LVL86
 2871 0313 3C000000 		.4byte	.LVL91
 2872 0317 0100     		.2byte	0x1
 2873 0319 50       		.byte	0x50
 2874 031a 3C000000 		.4byte	.LVL91
 2875 031e 58000000 		.4byte	.LFE25
 2876 0322 0400     		.2byte	0x4
 2877 0324 F3       		.byte	0xf3
 2878 0325 01       		.uleb128 0x1
 2879 0326 50       		.byte	0x50
 2880 0327 9F       		.byte	0x9f
 2881 0328 00000000 		.4byte	0
 2882 032c 00000000 		.4byte	0
 2883              	.LLST19:
 2884 0330 22000000 		.4byte	.LVL87
 2885 0334 28000000 		.4byte	.LVL88
 2886 0338 0100     		.2byte	0x1
 2887 033a 53       		.byte	0x53
 2888 033b 34000000 		.4byte	.LVL89
 2889 033f 3A000000 		.4byte	.LVL90
 2890 0343 0100     		.2byte	0x1
 2891 0345 53       		.byte	0x53
 2892 0346 00000000 		.4byte	0
 2893 034a 00000000 		.4byte	0
 2894              		.section	.debug_aranges,"",%progbits
 2895 0000 EC000000 		.4byte	0xec
 2896 0004 0200     		.2byte	0x2
 2897 0006 00000000 		.4byte	.Ldebug_info0
 2898 000a 04       		.byte	0x4
 2899 000b 00       		.byte	0
 2900 000c 0000     		.2byte	0
 2901 000e 0000     		.2byte	0
 2902 0010 00000000 		.4byte	.LFB1
 2903 0014 44000000 		.4byte	.LFE1-.LFB1
 2904 0018 00000000 		.4byte	.LFB2
 2905 001c 44000000 		.4byte	.LFE2-.LFB2
 2906 0020 00000000 		.4byte	.LFB0
 2907 0024 1C000000 		.4byte	.LFE0-.LFB0
 2908 0028 00000000 		.4byte	.LFB3
 2909 002c 48000000 		.4byte	.LFE3-.LFB3
 2910 0030 00000000 		.4byte	.LFB4
 2911 0034 04000000 		.4byte	.LFE4-.LFB4
 2912 0038 00000000 		.4byte	.LFB5
 2913 003c 02000000 		.4byte	.LFE5-.LFB5
 2914 0040 00000000 		.4byte	.LFB6
 2915 0044 0C000000 		.4byte	.LFE6-.LFB6
 2916 0048 00000000 		.4byte	.LFB7
 2917 004c 64000000 		.4byte	.LFE7-.LFB7
 2918 0050 00000000 		.4byte	.LFB8
ARM GAS  C:\Users\RECEPC~1\AppData\Local\Temp\ccyux4kk.s 			page 80


 2919 0054 28000000 		.4byte	.LFE8-.LFB8
 2920 0058 00000000 		.4byte	.LFB9
 2921 005c 84000000 		.4byte	.LFE9-.LFB9
 2922 0060 00000000 		.4byte	.LFB10
 2923 0064 2C000000 		.4byte	.LFE10-.LFB10
 2924 0068 00000000 		.4byte	.LFB11
 2925 006c 68000000 		.4byte	.LFE11-.LFB11
 2926 0070 00000000 		.4byte	.LFB12
 2927 0074 44000000 		.4byte	.LFE12-.LFB12
 2928 0078 00000000 		.4byte	.LFB13
 2929 007c 02000000 		.4byte	.LFE13-.LFB13
 2930 0080 00000000 		.4byte	.LFB14
 2931 0084 0C000000 		.4byte	.LFE14-.LFB14
 2932 0088 00000000 		.4byte	.LFB15
 2933 008c 0C000000 		.4byte	.LFE15-.LFB15
 2934 0090 00000000 		.4byte	.LFB16
 2935 0094 0C000000 		.4byte	.LFE16-.LFB16
 2936 0098 00000000 		.4byte	.LFB17
 2937 009c 14000000 		.4byte	.LFE17-.LFB17
 2938 00a0 00000000 		.4byte	.LFB18
 2939 00a4 0C000000 		.4byte	.LFE18-.LFB18
 2940 00a8 00000000 		.4byte	.LFB19
 2941 00ac 18000000 		.4byte	.LFE19-.LFB19
 2942 00b0 00000000 		.4byte	.LFB20
 2943 00b4 24000000 		.4byte	.LFE20-.LFB20
 2944 00b8 00000000 		.4byte	.LFB21
 2945 00bc 28000000 		.4byte	.LFE21-.LFB21
 2946 00c0 00000000 		.4byte	.LFB22
 2947 00c4 20000000 		.4byte	.LFE22-.LFB22
 2948 00c8 00000000 		.4byte	.LFB23
 2949 00cc 24000000 		.4byte	.LFE23-.LFB23
 2950 00d0 00000000 		.4byte	.LFB24
 2951 00d4 24000000 		.4byte	.LFE24-.LFB24
 2952 00d8 00000000 		.4byte	.LFB25
 2953 00dc 58000000 		.4byte	.LFE25-.LFB25
 2954 00e0 00000000 		.4byte	.LFB26
 2955 00e4 02000000 		.4byte	.LFE26-.LFB26
 2956 00e8 00000000 		.4byte	0
 2957 00ec 00000000 		.4byte	0
 2958              		.section	.debug_ranges,"",%progbits
 2959              	.Ldebug_ranges0:
 2960 0000 00000000 		.4byte	.LFB1
 2961 0004 44000000 		.4byte	.LFE1
 2962 0008 00000000 		.4byte	.LFB2
 2963 000c 44000000 		.4byte	.LFE2
 2964 0010 00000000 		.4byte	.LFB0
 2965 0014 1C000000 		.4byte	.LFE0
 2966 0018 00000000 		.4byte	.LFB3
 2967 001c 48000000 		.4byte	.LFE3
 2968 0020 00000000 		.4byte	.LFB4
 2969 0024 04000000 		.4byte	.LFE4
 2970 0028 00000000 		.4byte	.LFB5
 2971 002c 02000000 		.4byte	.LFE5
 2972 0030 00000000 		.4byte	.LFB6
 2973 0034 0C000000 		.4byte	.LFE6
 2974 0038 00000000 		.4byte	.LFB7
 2975 003c 64000000 		.4byte	.LFE7
ARM GAS  C:\Users\RECEPC~1\AppData\Local\Temp\ccyux4kk.s 			page 81


 2976 0040 00000000 		.4byte	.LFB8
 2977 0044 28000000 		.4byte	.LFE8
 2978 0048 00000000 		.4byte	.LFB9
 2979 004c 84000000 		.4byte	.LFE9
 2980 0050 00000000 		.4byte	.LFB10
 2981 0054 2C000000 		.4byte	.LFE10
 2982 0058 00000000 		.4byte	.LFB11
 2983 005c 68000000 		.4byte	.LFE11
 2984 0060 00000000 		.4byte	.LFB12
 2985 0064 44000000 		.4byte	.LFE12
 2986 0068 00000000 		.4byte	.LFB13
 2987 006c 02000000 		.4byte	.LFE13
 2988 0070 00000000 		.4byte	.LFB14
 2989 0074 0C000000 		.4byte	.LFE14
 2990 0078 00000000 		.4byte	.LFB15
 2991 007c 0C000000 		.4byte	.LFE15
 2992 0080 00000000 		.4byte	.LFB16
 2993 0084 0C000000 		.4byte	.LFE16
 2994 0088 00000000 		.4byte	.LFB17
 2995 008c 14000000 		.4byte	.LFE17
 2996 0090 00000000 		.4byte	.LFB18
 2997 0094 0C000000 		.4byte	.LFE18
 2998 0098 00000000 		.4byte	.LFB19
 2999 009c 18000000 		.4byte	.LFE19
 3000 00a0 00000000 		.4byte	.LFB20
 3001 00a4 24000000 		.4byte	.LFE20
 3002 00a8 00000000 		.4byte	.LFB21
 3003 00ac 28000000 		.4byte	.LFE21
 3004 00b0 00000000 		.4byte	.LFB22
 3005 00b4 20000000 		.4byte	.LFE22
 3006 00b8 00000000 		.4byte	.LFB23
 3007 00bc 24000000 		.4byte	.LFE23
 3008 00c0 00000000 		.4byte	.LFB24
 3009 00c4 24000000 		.4byte	.LFE24
 3010 00c8 00000000 		.4byte	.LFB25
 3011 00cc 58000000 		.4byte	.LFE25
 3012 00d0 00000000 		.4byte	.LFB26
 3013 00d4 02000000 		.4byte	.LFE26
 3014 00d8 00000000 		.4byte	0
 3015 00dc 00000000 		.4byte	0
 3016              		.section	.debug_line,"",%progbits
 3017              	.Ldebug_line0:
 3018 0000 0E030000 		.section	.debug_str,"MS",%progbits,1
 3018      02006F00 
 3018      00000201 
 3018      FB0E0D00 
 3018      01010101 
 3019              	.LASF65:
 3020 0000 52465F50 		.ascii	"RF_Physical_SetTxAddressMode\000"
 3020      68797369 
 3020      63616C5F 
 3020      53657454 
 3020      78416464 
 3021              	.LASF66:
 3022 001d 52465F50 		.ascii	"RF_Physical_initVar\000"
 3022      68797369 
 3022      63616C5F 
ARM GAS  C:\Users\RECEPC~1\AppData\Local\Temp\ccyux4kk.s 			page 82


 3022      696E6974 
 3022      56617200 
 3023              	.LASF10:
 3024 0031 75696E74 		.ascii	"uint16\000"
 3024      313600
 3025              	.LASF74:
 3026 0038 43794578 		.ascii	"CyExitCriticalSection\000"
 3026      69744372 
 3026      69746963 
 3026      616C5365 
 3026      6374696F 
 3027              	.LASF49:
 3028 004e 74784461 		.ascii	"txDataByte\000"
 3028      74614279 
 3028      746500
 3029              	.LASF52:
 3030 0059 52465F50 		.ascii	"RF_Physical_PutChar\000"
 3030      68797369 
 3030      63616C5F 
 3030      50757443 
 3030      68617200 
 3031              	.LASF54:
 3032 006d 73747269 		.ascii	"string\000"
 3032      6E6700
 3033              	.LASF7:
 3034 0074 6C6F6E67 		.ascii	"long long unsigned int\000"
 3034      206C6F6E 
 3034      6720756E 
 3034      7369676E 
 3034      65642069 
 3035              	.LASF50:
 3036 008b 52465F50 		.ascii	"RF_Physical_ReadControlRegister\000"
 3036      68797369 
 3036      63616C5F 
 3036      52656164 
 3036      436F6E74 
 3037              	.LASF6:
 3038 00ab 6C6F6E67 		.ascii	"long long int\000"
 3038      206C6F6E 
 3038      6720696E 
 3038      7400
 3039              	.LASF0:
 3040 00b9 7369676E 		.ascii	"signed char\000"
 3040      65642063 
 3040      68617200 
 3041              	.LASF64:
 3042 00c5 74785065 		.ascii	"txPeriod\000"
 3042      72696F64 
 3042      00
 3043              	.LASF59:
 3044 00ce 52465F50 		.ascii	"RF_Physical_GetTxBufferSize\000"
 3044      68797369 
 3044      63616C5F 
 3044      47657454 
 3044      78427566 
 3045              	.LASF58:
 3046 00ea 52465F50 		.ascii	"RF_Physical_PutCRLF\000"
ARM GAS  C:\Users\RECEPC~1\AppData\Local\Temp\ccyux4kk.s 			page 83


 3046      68797369 
 3046      63616C5F 
 3046      50757443 
 3046      524C4600 
 3047              	.LASF4:
 3048 00fe 6C6F6E67 		.ascii	"long int\000"
 3048      20696E74 
 3048      00
 3049              	.LASF42:
 3050 0107 52465F50 		.ascii	"RF_Physical_SetRxAddressMode\000"
 3050      68797369 
 3050      63616C5F 
 3050      53657452 
 3050      78416464 
 3051              	.LASF25:
 3052 0124 52465F50 		.ascii	"RF_Physical_WriteControlRegister\000"
 3052      68797369 
 3052      63616C5F 
 3052      57726974 
 3052      65436F6E 
 3053              	.LASF9:
 3054 0145 75696E74 		.ascii	"uint8\000"
 3054      3800
 3055              	.LASF13:
 3056 014b 646F7562 		.ascii	"double\000"
 3056      6C6500
 3057              	.LASF43:
 3058 0152 61646472 		.ascii	"addressMode\000"
 3058      6573734D 
 3058      6F646500 
 3059              	.LASF75:
 3060 015e 52465F50 		.ascii	"RF_Physical_IntClock_Start\000"
 3060      68797369 
 3060      63616C5F 
 3060      496E7443 
 3060      6C6F636B 
 3061              	.LASF11:
 3062 0179 75696E74 		.ascii	"uint32\000"
 3062      333200
 3063              	.LASF20:
 3064 0180 52465F50 		.ascii	"RF_Physical_Init\000"
 3064      68797369 
 3064      63616C5F 
 3064      496E6974 
 3064      00
 3065              	.LASF27:
 3066 0191 636F6E74 		.ascii	"control\000"
 3066      726F6C00 
 3067              	.LASF61:
 3068 0199 52465F50 		.ascii	"RF_Physical_SendBreak\000"
 3068      68797369 
 3068      63616C5F 
 3068      53656E64 
 3068      42726561 
 3069              	.LASF76:
 3070 01af 52465F50 		.ascii	"RF_Physical_IntClock_Stop\000"
 3070      68797369 
ARM GAS  C:\Users\RECEPC~1\AppData\Local\Temp\ccyux4kk.s 			page 84


 3070      63616C5F 
 3070      496E7443 
 3070      6C6F636B 
 3071              	.LASF62:
 3072 01c9 7265744D 		.ascii	"retMode\000"
 3072      6F646500 
 3073              	.LASF8:
 3074 01d1 756E7369 		.ascii	"unsigned int\000"
 3074      676E6564 
 3074      20696E74 
 3074      00
 3075              	.LASF38:
 3076 01de 6C6F6345 		.ascii	"locErrorStatus\000"
 3076      72726F72 
 3076      53746174 
 3076      757300
 3077              	.LASF5:
 3078 01ed 6C6F6E67 		.ascii	"long unsigned int\000"
 3078      20756E73 
 3078      69676E65 
 3078      6420696E 
 3078      7400
 3079              	.LASF55:
 3080 01ff 62756649 		.ascii	"bufIndex\000"
 3080      6E646578 
 3080      00
 3081              	.LASF81:
 3082 0208 4379456E 		.ascii	"CyEnterCriticalSection\000"
 3082      74657243 
 3082      72697469 
 3082      63616C53 
 3082      65637469 
 3083              	.LASF60:
 3084 021f 52465F50 		.ascii	"RF_Physical_ClearTxBuffer\000"
 3084      68797369 
 3084      63616C5F 
 3084      436C6561 
 3084      72547842 
 3085              	.LASF40:
 3086 0239 73697A65 		.ascii	"size\000"
 3086      00
 3087              	.LASF3:
 3088 023e 73686F72 		.ascii	"short unsigned int\000"
 3088      7420756E 
 3088      7369676E 
 3088      65642069 
 3088      6E7400
 3089              	.LASF80:
 3090 0251 4379496E 		.ascii	"CyIntSetVector\000"
 3090      74536574 
 3090      56656374 
 3090      6F7200
 3091              	.LASF26:
 3092 0260 52465F50 		.ascii	"RF_Physical_SetRxInterruptMode\000"
 3092      68797369 
 3092      63616C5F 
 3092      53657452 
ARM GAS  C:\Users\RECEPC~1\AppData\Local\Temp\ccyux4kk.s 			page 85


 3092      78496E74 
 3093              	.LASF39:
 3094 027f 52465F50 		.ascii	"RF_Physical_GetRxBufferSize\000"
 3094      68797369 
 3094      63616C5F 
 3094      47657452 
 3094      78427566 
 3095              	.LASF28:
 3096 029b 696E7453 		.ascii	"intSrc\000"
 3096      726300
 3097              	.LASF69:
 3098 02a2 52465F50 		.ascii	"RF_Physical_rxBufferRead\000"
 3098      68797369 
 3098      63616C5F 
 3098      72784275 
 3098      66666572 
 3099              	.LASF79:
 3100 02bb 433A5C55 		.ascii	"C:\\Users\\Recepcion\\Documents\\GitHub\\NSY-DH\\Wo"
 3100      73657273 
 3100      5C526563 
 3100      65706369 
 3100      6F6E5C44 
 3101 02e8 726B7370 		.ascii	"rkspace01\\Design01.cydsn\000"
 3101      61636530 
 3101      315C4465 
 3101      7369676E 
 3101      30312E63 
 3102              	.LASF37:
 3103 0301 52465F50 		.ascii	"RF_Physical_GetByte\000"
 3103      68797369 
 3103      63616C5F 
 3103      47657442 
 3103      79746500 
 3104              	.LASF51:
 3105 0315 52465F50 		.ascii	"RF_Physical_ReadTxStatus\000"
 3105      68797369 
 3105      63616C5F 
 3105      52656164 
 3105      54785374 
 3106              	.LASF17:
 3107 032e 72656733 		.ascii	"reg32\000"
 3107      3200
 3108              	.LASF63:
 3109 0334 746D7053 		.ascii	"tmpStat\000"
 3109      74617400 
 3110              	.LASF19:
 3111 033c 73697A65 		.ascii	"sizetype\000"
 3111      74797065 
 3111      00
 3112              	.LASF68:
 3113 0345 52465F50 		.ascii	"RF_Physical_rxBuffer\000"
 3113      68797369 
 3113      63616C5F 
 3113      72784275 
 3113      66666572 
 3114              	.LASF45:
 3115 035a 61646472 		.ascii	"address\000"
ARM GAS  C:\Users\RECEPC~1\AppData\Local\Temp\ccyux4kk.s 			page 86


 3115      65737300 
 3116              	.LASF53:
 3117 0362 52465F50 		.ascii	"RF_Physical_PutString\000"
 3117      68797369 
 3117      63616C5F 
 3117      50757453 
 3117      7472696E 
 3118              	.LASF31:
 3119 0378 6C6F6352 		.ascii	"locRxBufferWrite\000"
 3119      78427566 
 3119      66657257 
 3119      72697465 
 3119      00
 3120              	.LASF36:
 3121 0389 72785374 		.ascii	"rxStatus\000"
 3121      61747573 
 3121      00
 3122              	.LASF44:
 3123 0392 52465F50 		.ascii	"RF_Physical_SetRxAddress1\000"
 3123      68797369 
 3123      63616C5F 
 3123      53657452 
 3123      78416464 
 3124              	.LASF46:
 3125 03ac 52465F50 		.ascii	"RF_Physical_SetRxAddress2\000"
 3125      68797369 
 3125      63616C5F 
 3125      53657452 
 3125      78416464 
 3126              	.LASF73:
 3127 03c6 4379496E 		.ascii	"CyIntSetPriority\000"
 3127      74536574 
 3127      5072696F 
 3127      72697479 
 3127      00
 3128              	.LASF12:
 3129 03d7 666C6F61 		.ascii	"float\000"
 3129      7400
 3130              	.LASF16:
 3131 03dd 72656738 		.ascii	"reg8\000"
 3131      00
 3132              	.LASF1:
 3133 03e2 756E7369 		.ascii	"unsigned char\000"
 3133      676E6564 
 3133      20636861 
 3133      7200
 3134              	.LASF2:
 3135 03f0 73686F72 		.ascii	"short int\000"
 3135      7420696E 
 3135      7400
 3136              	.LASF41:
 3137 03fa 52465F50 		.ascii	"RF_Physical_ClearRxBuffer\000"
 3137      68797369 
 3137      63616C5F 
 3137      436C6561 
 3137      72527842 
 3138              	.LASF71:
ARM GAS  C:\Users\RECEPC~1\AppData\Local\Temp\ccyux4kk.s 			page 87


 3139 0414 52465F50 		.ascii	"RF_Physical_rxBufferLoopDetect\000"
 3139      68797369 
 3139      63616C5F 
 3139      72784275 
 3139      66666572 
 3140              	.LASF72:
 3141 0433 52465F50 		.ascii	"RF_Physical_rxBufferOverflow\000"
 3141      68797369 
 3141      63616C5F 
 3141      72784275 
 3141      66666572 
 3142              	.LASF57:
 3143 0450 62797465 		.ascii	"byteCount\000"
 3143      436F756E 
 3143      7400
 3144              	.LASF47:
 3145 045a 52465F50 		.ascii	"RF_Physical_SetTxInterruptMode\000"
 3145      68797369 
 3145      63616C5F 
 3145      53657454 
 3145      78496E74 
 3146              	.LASF21:
 3147 0479 52465F50 		.ascii	"RF_Physical_Enable\000"
 3147      68797369 
 3147      63616C5F 
 3147      456E6162 
 3147      6C6500
 3148              	.LASF29:
 3149 048c 72784461 		.ascii	"rxData\000"
 3149      746100
 3150              	.LASF15:
 3151 0493 63686172 		.ascii	"char\000"
 3151      00
 3152              	.LASF18:
 3153 0498 63796973 		.ascii	"cyisraddress\000"
 3153      72616464 
 3153      72657373 
 3153      00
 3154              	.LASF33:
 3155 04a5 52465F50 		.ascii	"RF_Physical_ReadRxStatus\000"
 3155      68797369 
 3155      63616C5F 
 3155      52656164 
 3155      52785374 
 3156              	.LASF22:
 3157 04be 52465F50 		.ascii	"RF_Physical_Start\000"
 3157      68797369 
 3157      63616C5F 
 3157      53746172 
 3157      7400
 3158              	.LASF67:
 3159 04d0 52465F50 		.ascii	"RF_Physical_errorStatus\000"
 3159      68797369 
 3159      63616C5F 
 3159      6572726F 
 3159      72537461 
 3160              	.LASF14:
ARM GAS  C:\Users\RECEPC~1\AppData\Local\Temp\ccyux4kk.s 			page 88


 3161 04e8 63686172 		.ascii	"char8\000"
 3161      3800
 3162              	.LASF48:
 3163 04ee 52465F50 		.ascii	"RF_Physical_WriteTxData\000"
 3163      68797369 
 3163      63616C5F 
 3163      57726974 
 3163      65547844 
 3164              	.LASF30:
 3165 0506 6C6F6352 		.ascii	"locRxBufferRead\000"
 3165      78427566 
 3165      66657252 
 3165      65616400 
 3166              	.LASF24:
 3167 0516 656E6162 		.ascii	"enableInterrupts\000"
 3167      6C65496E 
 3167      74657272 
 3167      75707473 
 3167      00
 3168              	.LASF23:
 3169 0527 52465F50 		.ascii	"RF_Physical_Stop\000"
 3169      68797369 
 3169      63616C5F 
 3169      53746F70 
 3169      00
 3170              	.LASF34:
 3171 0538 73746174 		.ascii	"status\000"
 3171      757300
 3172              	.LASF77:
 3173 053f 474E5520 		.ascii	"GNU C 4.9.3 20150303 (release) [ARM/embedded-4_9-br"
 3173      4320342E 
 3173      392E3320 
 3173      32303135 
 3173      30333033 
 3174 0572 616E6368 		.ascii	"anch revision 221220] -mcpu=cortex-m3 -mthumb -g -O"
 3174      20726576 
 3174      6973696F 
 3174      6E203232 
 3174      31323230 
 3175 05a5 67202D66 		.ascii	"g -ffunction-sections -ffat-lto-objects\000"
 3175      66756E63 
 3175      74696F6E 
 3175      2D736563 
 3175      74696F6E 
 3176              	.LASF32:
 3177 05cd 52465F50 		.ascii	"RF_Physical_ReadRxData\000"
 3177      68797369 
 3177      63616C5F 
 3177      52656164 
 3177      52784461 
 3178              	.LASF35:
 3179 05e4 52465F50 		.ascii	"RF_Physical_GetChar\000"
 3179      68797369 
 3179      63616C5F 
 3179      47657443 
 3179      68617200 
 3180              	.LASF78:
ARM GAS  C:\Users\RECEPC~1\AppData\Local\Temp\ccyux4kk.s 			page 89


 3181 05f8 2E5C4765 		.ascii	".\\Generated_Source\\PSoC5\\RF_Physical.c\000"
 3181      6E657261 
 3181      7465645F 
 3181      536F7572 
 3181      63655C50 
 3182              	.LASF56:
 3183 061f 52465F50 		.ascii	"RF_Physical_PutArray\000"
 3183      68797369 
 3183      63616C5F 
 3183      50757441 
 3183      72726179 
 3184              	.LASF70:
 3185 0634 52465F50 		.ascii	"RF_Physical_rxBufferWrite\000"
 3185      68797369 
 3185      63616C5F 
 3185      72784275 
 3185      66666572 
 3186              		.ident	"GCC: (GNU Tools for ARM Embedded Processors) 4.9.3 20150303 (release) [ARM/embedded-4_9-br
