ARM GAS  C:\Users\Diego\AppData\Local\Temp\cc6qIbsx.s 			page 1


   1              		.syntax unified
   2              		.cpu cortex-m3
   3              		.fpu softvfp
   4              		.eabi_attribute 20, 1
   5              		.eabi_attribute 21, 1
   6              		.eabi_attribute 23, 3
   7              		.eabi_attribute 24, 1
   8              		.eabi_attribute 25, 1
   9              		.eabi_attribute 26, 1
  10              		.eabi_attribute 30, 1
  11              		.eabi_attribute 34, 1
  12              		.eabi_attribute 18, 4
  13              		.thumb
  14              		.file	"RFPoll.c"
  15              		.text
  16              	.Ltext0:
  17              		.cfi_sections	.debug_frame
  18              		.section	.text.verificar_check,"ax",%progbits
  19              		.align	2
  20              		.global	verificar_check
  21              		.thumb
  22              		.thumb_func
  23              		.type	verificar_check, %function
  24              	verificar_check:
  25              	.LFB63:
  26              		.file 1 ".\\RFPoll.c"
   1:.\RFPoll.c    **** #include <project.h>
   2:.\RFPoll.c    **** #include <protocol.h>
   3:.\RFPoll.c    **** #include <variables.h>
   4:.\RFPoll.c    **** #include <keyboard.h>
   5:.\RFPoll.c    **** #include <ibutton.h>
   6:.\RFPoll.c    **** #include <RFPoll.h>
   7:.\RFPoll.c    **** #include <LCD.h>
   8:.\RFPoll.c    **** #include <I2C.h>
   9:.\RFPoll.c    **** #include <Print.h>
  10:.\RFPoll.c    **** #include <device.h>
  11:.\RFPoll.c    **** #include <string.h>
  12:.\RFPoll.c    **** #include <stdio.h>
  13:.\RFPoll.c    **** #include <stdlib.h>
  14:.\RFPoll.c    **** 
  15:.\RFPoll.c    **** 
  16:.\RFPoll.c    **** 
  17:.\RFPoll.c    **** /*
  18:.\RFPoll.c    **** ***************************************************************************************************
  19:.\RFPoll.c    **** *                             uint8 verificar_check(uint8 *datos, uint16 size)
  20:.\RFPoll.c    **** *
  21:.\RFPoll.c    **** * Description : calcula el checksum
  22:.\RFPoll.c    **** *               
  23:.\RFPoll.c    **** 
  24:.\RFPoll.c    **** ***************************************************************************************************
  25:.\RFPoll.c    **** */
  26:.\RFPoll.c    **** uint8 verificar_check(uint8 *datos, uint16 size){
  27              		.loc 1 26 0
  28              		.cfi_startproc
  29              		@ args = 0, pretend = 0, frame = 256
  30              		@ frame_needed = 0, uses_anonymous_args = 0
  31              	.LVL0:
ARM GAS  C:\Users\Diego\AppData\Local\Temp\cc6qIbsx.s 			page 2


  32 0000 30B5     		push	{r4, r5, lr}
  33              		.cfi_def_cfa_offset 12
  34              		.cfi_offset 4, -12
  35              		.cfi_offset 5, -8
  36              		.cfi_offset 14, -4
  37 0002 C1B0     		sub	sp, sp, #260
  38              		.cfi_def_cfa_offset 272
  39 0004 0546     		mov	r5, r0
  40 0006 0C46     		mov	r4, r1
  27:.\RFPoll.c    **** 	uint8 checksum,index; 
  28:.\RFPoll.c    **** 	uint16 i;
  29:.\RFPoll.c    ****     uint8 table[256] = { 
  41              		.loc 1 29 0
  42 0008 6846     		mov	r0, sp
  43              	.LVL1:
  44 000a 0949     		ldr	r1, .L5
  45              	.LVL2:
  46 000c 4FF48072 		mov	r2, #256
  47 0010 FFF7FEFF 		bl	memcpy
  48              	.LVL3:
  30:.\RFPoll.c    ****     0, 94,188,226, 97, 63,221,131,194,156,126, 32,163,253, 31, 65,
  31:.\RFPoll.c    ****     157,195, 33,127,252,162, 64, 30, 95,  1,227,189, 62, 96,130,220,
  32:.\RFPoll.c    ****     35,125,159,193, 66, 28,254,160,225,191, 93,  3,128,222, 60, 98,
  33:.\RFPoll.c    ****     190,224,  2, 92,223,129, 99, 61,124, 34,192,158, 29, 67,161,255,
  34:.\RFPoll.c    ****     70, 24,250,164, 39,121,155,197,132,218, 56,102,229,187, 89,  7,
  35:.\RFPoll.c    ****     219,133,103, 57,186,228,  6, 88, 25, 71,165,251,120, 38,196,154,
  36:.\RFPoll.c    ****     101, 59,217,135,  4, 90,184,230,167,249, 27, 69,198,152,122, 36,
  37:.\RFPoll.c    ****     248,166, 68, 26,153,199, 37,123, 58,100,134,216, 91,  5,231,185,
  38:.\RFPoll.c    ****     140,210, 48,110,237,179, 81, 15, 78, 16,242,172, 47,113,147,205,
  39:.\RFPoll.c    ****     17, 79,173,243,112, 46,204,146,211,141,111, 49,178,236, 14, 80,
  40:.\RFPoll.c    ****     175,241, 19, 77,206,144,114, 44,109, 51,209,143, 12, 82,176,238,
  41:.\RFPoll.c    ****     50,108,142,208, 83, 13,239,177,240,174, 76, 18,145,207, 45,115,
  42:.\RFPoll.c    ****     202,148,118, 40,171,245, 23, 73,  8, 86,180,234,105, 55,213,139,
  43:.\RFPoll.c    ****     87,  9,235,181, 54,104,138,212,149,203, 41,119,244,170, 72, 22,
  44:.\RFPoll.c    ****     233,183, 85, 11,136,214, 52,106, 43,117,151,201, 74, 20,246,168,
  45:.\RFPoll.c    ****     116, 42,200,150, 21, 75,169,247,182,232, 10, 84,215,137,107, 53};	
  46:.\RFPoll.c    **** 	checksum=0;
  47:.\RFPoll.c    **** 	for(i=0;i<(size-1);i++){
  49              		.loc 1 47 0
  50 0014 0023     		movs	r3, #0
  46:.\RFPoll.c    **** 	for(i=0;i<(size-1);i++){
  51              		.loc 1 46 0
  52 0016 1846     		mov	r0, r3
  53              		.loc 1 47 0
  54 0018 05E0     		b	.L2
  55              	.LVL4:
  56              	.L3:
  48:.\RFPoll.c    **** 		index = (uint8)(checksum ^ datos[i]);
  57              		.loc 1 48 0 discriminator 3
  58 001a EA5C     		ldrb	r2, [r5, r3]	@ zero_extendqisi2
  59 001c 5040     		eors	r0, r0, r2
  60              	.LVL5:
  49:.\RFPoll.c    **** 		checksum = table[index];				
  61              		.loc 1 49 0 discriminator 3
  62 001e 1DF80000 		ldrb	r0, [sp, r0]	@ zero_extendqisi2
  63              	.LVL6:
  47:.\RFPoll.c    **** 		index = (uint8)(checksum ^ datos[i]);
ARM GAS  C:\Users\Diego\AppData\Local\Temp\cc6qIbsx.s 			page 3


  64              		.loc 1 47 0 discriminator 3
  65 0022 0133     		adds	r3, r3, #1
  66              	.LVL7:
  67 0024 9BB2     		uxth	r3, r3
  68              	.LVL8:
  69              	.L2:
  47:.\RFPoll.c    **** 		index = (uint8)(checksum ^ datos[i]);
  70              		.loc 1 47 0 is_stmt 0 discriminator 1
  71 0026 621E     		subs	r2, r4, #1
  72 0028 9342     		cmp	r3, r2
  73 002a F6DB     		blt	.L3
  50:.\RFPoll.c    **** 	}
  51:.\RFPoll.c    **** 	return checksum;
  52:.\RFPoll.c    **** }
  74              		.loc 1 52 0 is_stmt 1
  75 002c 41B0     		add	sp, sp, #260
  76              		.cfi_def_cfa_offset 12
  77              		@ sp needed
  78 002e 30BD     		pop	{r4, r5, pc}
  79              	.LVL9:
  80              	.L6:
  81              		.align	2
  82              	.L5:
  83 0030 00000000 		.word	.LANCHOR0
  84              		.cfi_endproc
  85              	.LFE63:
  86              		.size	verificar_check, .-verificar_check
  87              		.section	.text.pollingRF_Rx,"ax",%progbits
  88              		.align	2
  89              		.global	pollingRF_Rx
  90              		.thumb
  91              		.thumb_func
  92              		.type	pollingRF_Rx, %function
  93              	pollingRF_Rx:
  94              	.LFB64:
  53:.\RFPoll.c    **** 
  54:.\RFPoll.c    **** 
  55:.\RFPoll.c    **** 
  56:.\RFPoll.c    **** 
  57:.\RFPoll.c    **** void pollingRF_Rx(){
  95              		.loc 1 57 0
  96              		.cfi_startproc
  97              		@ args = 0, pretend = 0, frame = 0
  98              		@ frame_needed = 0, uses_anonymous_args = 0
  99 0000 70B5     		push	{r4, r5, r6, lr}
 100              		.cfi_def_cfa_offset 16
 101              		.cfi_offset 4, -16
 102              		.cfi_offset 5, -12
 103              		.cfi_offset 6, -8
 104              		.cfi_offset 14, -4
  58:.\RFPoll.c    ****     uint16 i,x,y;    
  59:.\RFPoll.c    ****     if(RF_Connection_GetRxBufferSize() >= 1){
 105              		.loc 1 59 0
 106 0002 FFF7FEFF 		bl	RF_Connection_GetRxBufferSize
 107              	.LVL10:
 108 0006 0028     		cmp	r0, #0
 109 0008 00F0A582 		beq	.L8
ARM GAS  C:\Users\Diego\AppData\Local\Temp\cc6qIbsx.s 			page 4


  60:.\RFPoll.c    ****         ActiveRF=1;
 110              		.loc 1 60 0
 111 000c 0122     		movs	r2, #1
 112 000e AD4B     		ldr	r3, .L79
 113 0010 1A70     		strb	r2, [r3]
  61:.\RFPoll.c    ****         counterRF = 0;
 114              		.loc 1 61 0
 115 0012 0024     		movs	r4, #0
 116 0014 AC4B     		ldr	r3, .L79+4
 117 0016 1C70     		strb	r4, [r3]
 118              	.LVL11:
  62:.\RFPoll.c    ****         i=0;
  63:.\RFPoll.c    ****         while(RF_Connection_GetRxBufferSize()>0){//&& (RF_Connection_RX_STS_FIFO_NOTEMPTY)
 119              		.loc 1 63 0
 120 0018 05E0     		b	.L9
 121              	.LVL12:
 122              	.L10:
  64:.\RFPoll.c    ****            buffer_rf[i]=RF_Connection_ReadRxData(); 	
 123              		.loc 1 64 0
 124 001a FFF7FEFF 		bl	RF_Connection_ReadRxData
 125              	.LVL13:
 126 001e AB4B     		ldr	r3, .L79+8
 127 0020 1855     		strb	r0, [r3, r4]
  65:.\RFPoll.c    ****     	   i++;	
 128              		.loc 1 65 0
 129 0022 0134     		adds	r4, r4, #1
 130              	.LVL14:
 131 0024 A4B2     		uxth	r4, r4
 132              	.LVL15:
 133              	.L9:
  63:.\RFPoll.c    ****            buffer_rf[i]=RF_Connection_ReadRxData(); 	
 134              		.loc 1 63 0
 135 0026 FFF7FEFF 		bl	RF_Connection_GetRxBufferSize
 136              	.LVL16:
 137 002a 0028     		cmp	r0, #0
 138 002c F5D1     		bne	.L10
 139              	.LVL17:
  66:.\RFPoll.c    ****         } 
  67:.\RFPoll.c    ****         y=0;
  68:.\RFPoll.c    ****         buffer_tx[y] = 0xBC; y++;
 140              		.loc 1 68 0
 141 002e A84B     		ldr	r3, .L79+12
 142 0030 BC22     		movs	r2, #188
 143 0032 1A70     		strb	r2, [r3]
 144              	.LVL18:
  69:.\RFPoll.c    ****         buffer_tx[y] = 0xCB; y++;
 145              		.loc 1 69 0
 146 0034 CB22     		movs	r2, #203
 147 0036 5A70     		strb	r2, [r3, #1]
 148              	.LVL19:
  70:.\RFPoll.c    ****         buffer_tx[y] = 0xC8; y++;
 149              		.loc 1 70 0
 150 0038 C822     		movs	r2, #200
 151 003a 9A70     		strb	r2, [r3, #2]
 152              	.LVL20:
  71:.\RFPoll.c    ****         buffer_tx[y] = IDCast[0]; y++;
 153              		.loc 1 71 0
ARM GAS  C:\Users\Diego\AppData\Local\Temp\cc6qIbsx.s 			page 5


 154 003c A54A     		ldr	r2, .L79+16
 155 003e 1178     		ldrb	r1, [r2]	@ zero_extendqisi2
 156 0040 D970     		strb	r1, [r3, #3]
 157              	.LVL21:
  72:.\RFPoll.c    ****         buffer_tx[y] = IDCast[1]; y++;
 158              		.loc 1 72 0
 159 0042 5278     		ldrb	r2, [r2, #1]	@ zero_extendqisi2
 160 0044 1A71     		strb	r2, [r3, #4]
 161              	.LVL22:
  73:.\RFPoll.c    ****         if((buffer_rf[0]==0xBC)&&(buffer_rf[1]==0xBB)&&(buffer_rf[2]==0xB8)&&(buffer_rf[3]==IDCast[
 162              		.loc 1 73 0
 163 0046 A14B     		ldr	r3, .L79+8
 164 0048 1B78     		ldrb	r3, [r3]	@ zero_extendqisi2
 165 004a BC2B     		cmp	r3, #188
 166 004c 40F08382 		bne	.L8
 167              		.loc 1 73 0 is_stmt 0 discriminator 1
 168 0050 9E4B     		ldr	r3, .L79+8
 169 0052 5B78     		ldrb	r3, [r3, #1]	@ zero_extendqisi2
 170 0054 BB2B     		cmp	r3, #187
 171 0056 40F07E82 		bne	.L8
 172              		.loc 1 73 0 discriminator 2
 173 005a 9C4B     		ldr	r3, .L79+8
 174 005c 9B78     		ldrb	r3, [r3, #2]	@ zero_extendqisi2
 175 005e B82B     		cmp	r3, #184
 176 0060 40F07982 		bne	.L8
 177              		.loc 1 73 0 discriminator 3
 178 0064 9B4B     		ldr	r3, .L79+16
 179 0066 1B78     		ldrb	r3, [r3]	@ zero_extendqisi2
 180 0068 984A     		ldr	r2, .L79+8
 181 006a D278     		ldrb	r2, [r2, #3]	@ zero_extendqisi2
 182 006c 9A42     		cmp	r2, r3
 183 006e 40F07282 		bne	.L8
 184              		.loc 1 73 0 discriminator 4
 185 0072 984B     		ldr	r3, .L79+16
 186 0074 5B78     		ldrb	r3, [r3, #1]	@ zero_extendqisi2
 187 0076 954A     		ldr	r2, .L79+8
 188 0078 1279     		ldrb	r2, [r2, #4]	@ zero_extendqisi2
 189 007a 9A42     		cmp	r2, r3
 190 007c 40F06B82 		bne	.L8
  74:.\RFPoll.c    ****            switch(buffer_rf[6]){
 191              		.loc 1 74 0 is_stmt 1
 192 0080 924B     		ldr	r3, .L79+8
 193 0082 9B79     		ldrb	r3, [r3, #6]	@ zero_extendqisi2
 194 0084 A62B     		cmp	r3, #166
 195 0086 00F02B81 		beq	.L11
 196 008a 04D8     		bhi	.L12
 197 008c A12B     		cmp	r3, #161
 198 008e 0CD0     		beq	.L13
 199 0090 A52B     		cmp	r3, #165
 200 0092 67D0     		beq	.L14
 201 0094 5FE2     		b	.L8
 202              	.L12:
 203 0096 E12B     		cmp	r3, #225
 204 0098 00F01382 		beq	.L15
 205 009c E22B     		cmp	r3, #226
 206 009e 00F03582 		beq	.L16
 207 00a2 A72B     		cmp	r3, #167
ARM GAS  C:\Users\Diego\AppData\Local\Temp\cc6qIbsx.s 			page 6


 208 00a4 40F05782 		bne	.L8
 209 00a8 C5E1     		b	.L17
 210              	.L13:
  75:.\RFPoll.c    ****                case 0xA1:               //Peticion de estado
  76:.\RFPoll.c    ****                 if(buffer_rf[5] == side.a.dir){
 211              		.loc 1 76 0
 212 00aa 884B     		ldr	r3, .L79+8
 213 00ac 5A79     		ldrb	r2, [r3, #5]	@ zero_extendqisi2
 214 00ae 8A4B     		ldr	r3, .L79+20
 215 00b0 1978     		ldrb	r1, [r3]	@ zero_extendqisi2
 216 00b2 8A42     		cmp	r2, r1
 217 00b4 09D1     		bne	.L70
  77:.\RFPoll.c    ****                     buffer_tx[5] = side.a.dir;y++;
 218              		.loc 1 77 0
 219 00b6 864B     		ldr	r3, .L79+12
 220 00b8 5971     		strb	r1, [r3, #5]
 221              	.LVL23:
  78:.\RFPoll.c    ****                     buffer_tx[y] = 0xA1;y++;
 222              		.loc 1 78 0
 223 00ba A121     		movs	r1, #161
 224 00bc 9971     		strb	r1, [r3, #6]
 225              	.LVL24:
  79:.\RFPoll.c    ****                     buffer_tx[y] = side.a.rfState; y++;
 226              		.loc 1 79 0
 227 00be 8649     		ldr	r1, .L79+20
 228 00c0 91F80311 		ldrb	r1, [r1, #259]	@ zero_extendqisi2
 229 00c4 D971     		strb	r1, [r3, #7]
 230              	.LVL25:
 231 00c6 0824     		movs	r4, #8
 232              	.LVL26:
 233 00c8 00E0     		b	.L18
 234              	.LVL27:
 235              	.L70:
  72:.\RFPoll.c    ****         if((buffer_rf[0]==0xBC)&&(buffer_rf[1]==0xBB)&&(buffer_rf[2]==0xB8)&&(buffer_rf[3]==IDCast[
 236              		.loc 1 72 0
 237 00ca 0524     		movs	r4, #5
 238              	.LVL28:
 239              	.L18:
  80:.\RFPoll.c    ****                 }  
  81:.\RFPoll.c    ****                 if(buffer_rf[5] == side.b.dir){
 240              		.loc 1 81 0
 241 00cc 824B     		ldr	r3, .L79+20
 242 00ce 93F80531 		ldrb	r3, [r3, #261]	@ zero_extendqisi2
 243 00d2 9A42     		cmp	r2, r3
 244 00d4 0DD1     		bne	.L19
  82:.\RFPoll.c    ****                     buffer_tx[5] = side.b.dir;y++;
 245              		.loc 1 82 0
 246 00d6 7E49     		ldr	r1, .L79+12
 247 00d8 4B71     		strb	r3, [r1, #5]
 248 00da 631C     		adds	r3, r4, #1
 249 00dc 9BB2     		uxth	r3, r3
 250              	.LVL29:
  83:.\RFPoll.c    ****                     buffer_tx[y] = 0xA1;y++;
 251              		.loc 1 83 0
 252 00de A120     		movs	r0, #161
 253 00e0 C854     		strb	r0, [r1, r3]
 254 00e2 0133     		adds	r3, r3, #1
ARM GAS  C:\Users\Diego\AppData\Local\Temp\cc6qIbsx.s 			page 7


 255              	.LVL30:
 256 00e4 9BB2     		uxth	r3, r3
 257              	.LVL31:
  84:.\RFPoll.c    ****                     buffer_tx[y] = side.b.rfState;y++;
 258              		.loc 1 84 0
 259 00e6 7C48     		ldr	r0, .L79+20
 260 00e8 90F80802 		ldrb	r0, [r0, #520]	@ zero_extendqisi2
 261 00ec C854     		strb	r0, [r1, r3]
 262 00ee 0133     		adds	r3, r3, #1
 263              	.LVL32:
 264 00f0 9CB2     		uxth	r4, r3
 265              	.LVL33:
 266              	.L19:
  85:.\RFPoll.c    ****                 }
  86:.\RFPoll.c    ****                 if(buffer_rf[5] == side.c.dir){
 267              		.loc 1 86 0
 268 00f2 794B     		ldr	r3, .L79+20
 269 00f4 93F80A32 		ldrb	r3, [r3, #522]	@ zero_extendqisi2
 270 00f8 9A42     		cmp	r2, r3
 271 00fa 0DD1     		bne	.L20
  87:.\RFPoll.c    ****                     buffer_tx[5] = side.c.dir; y++;
 272              		.loc 1 87 0
 273 00fc 7449     		ldr	r1, .L79+12
 274 00fe 4B71     		strb	r3, [r1, #5]
 275 0100 631C     		adds	r3, r4, #1
 276 0102 9BB2     		uxth	r3, r3
 277              	.LVL34:
  88:.\RFPoll.c    ****                     buffer_tx[y] = 0xA1; y++;
 278              		.loc 1 88 0
 279 0104 A120     		movs	r0, #161
 280 0106 C854     		strb	r0, [r1, r3]
 281 0108 0133     		adds	r3, r3, #1
 282              	.LVL35:
 283 010a 9BB2     		uxth	r3, r3
 284              	.LVL36:
  89:.\RFPoll.c    ****                     buffer_tx[y] = side.c.rfState; y++;
 285              		.loc 1 89 0
 286 010c 7248     		ldr	r0, .L79+20
 287 010e 90F80D03 		ldrb	r0, [r0, #781]	@ zero_extendqisi2
 288 0112 C854     		strb	r0, [r1, r3]
 289 0114 0133     		adds	r3, r3, #1
 290              	.LVL37:
 291 0116 9CB2     		uxth	r4, r3
 292              	.LVL38:
 293              	.L20:
  90:.\RFPoll.c    ****                 }
  91:.\RFPoll.c    ****                 if(buffer_rf[5] == side.d.dir){
 294              		.loc 1 91 0
 295 0118 6F4B     		ldr	r3, .L79+20
 296 011a 93F80F33 		ldrb	r3, [r3, #783]	@ zero_extendqisi2
 297 011e 9A42     		cmp	r2, r3
 298 0120 0DD1     		bne	.L21
  92:.\RFPoll.c    ****                     buffer_tx[5] = side.d.dir; y++;
 299              		.loc 1 92 0
 300 0122 6B4A     		ldr	r2, .L79+12
 301 0124 5371     		strb	r3, [r2, #5]
 302 0126 631C     		adds	r3, r4, #1
ARM GAS  C:\Users\Diego\AppData\Local\Temp\cc6qIbsx.s 			page 8


 303 0128 9BB2     		uxth	r3, r3
 304              	.LVL39:
  93:.\RFPoll.c    ****                     buffer_tx[y] = 0xA1; y++;
 305              		.loc 1 93 0
 306 012a A121     		movs	r1, #161
 307 012c D154     		strb	r1, [r2, r3]
 308 012e 0133     		adds	r3, r3, #1
 309              	.LVL40:
 310 0130 9BB2     		uxth	r3, r3
 311              	.LVL41:
  94:.\RFPoll.c    ****                     buffer_tx[y] = side.d.rfState; y++;
 312              		.loc 1 94 0
 313 0132 6949     		ldr	r1, .L79+20
 314 0134 91F81214 		ldrb	r1, [r1, #1042]	@ zero_extendqisi2
 315 0138 D154     		strb	r1, [r2, r3]
 316 013a 0133     		adds	r3, r3, #1
 317              	.LVL42:
 318 013c 9CB2     		uxth	r4, r3
 319              	.LVL43:
 320              	.L21:
  95:.\RFPoll.c    ****                 }
  96:.\RFPoll.c    ****                 buffer_tx[y] = verificar_check(buffer_tx,y+1);y++;
 321              		.loc 1 96 0
 322 013e 651C     		adds	r5, r4, #1
 323 0140 ADB2     		uxth	r5, r5
 324 0142 634E     		ldr	r6, .L79+12
 325 0144 3046     		mov	r0, r6
 326 0146 2946     		mov	r1, r5
 327 0148 FFF7FEFF 		bl	verificar_check
 328              	.LVL44:
 329 014c 3055     		strb	r0, [r6, r4]
 330              	.LVL45:
  97:.\RFPoll.c    ****                 for (x = 0; x < y; x++){
 331              		.loc 1 97 0
 332 014e 0024     		movs	r4, #0
 333 0150 05E0     		b	.L22
 334              	.LVL46:
 335              	.L23:
  98:.\RFPoll.c    ****                     RF_Connection_PutChar(buffer_tx[x]);
 336              		.loc 1 98 0 discriminator 3
 337 0152 5F4B     		ldr	r3, .L79+12
 338 0154 185D     		ldrb	r0, [r3, r4]	@ zero_extendqisi2
 339 0156 FFF7FEFF 		bl	RF_Connection_PutChar
 340              	.LVL47:
  97:.\RFPoll.c    ****                 for (x = 0; x < y; x++){
 341              		.loc 1 97 0 discriminator 3
 342 015a 0134     		adds	r4, r4, #1
 343              	.LVL48:
 344 015c A4B2     		uxth	r4, r4
 345              	.LVL49:
 346              	.L22:
  97:.\RFPoll.c    ****                 for (x = 0; x < y; x++){
 347              		.loc 1 97 0 is_stmt 0 discriminator 1
 348 015e AC42     		cmp	r4, r5
 349 0160 F7D3     		bcc	.L23
 350 0162 F8E1     		b	.L8
 351              	.LVL50:
ARM GAS  C:\Users\Diego\AppData\Local\Temp\cc6qIbsx.s 			page 9


 352              	.L14:
  99:.\RFPoll.c    ****                 }
 100:.\RFPoll.c    ****                break;
 101:.\RFPoll.c    ****                
 102:.\RFPoll.c    ****                case 0xA5:
 103:.\RFPoll.c    ****                 if(buffer_rf[5] == side.a.dir){
 353              		.loc 1 103 0 is_stmt 1
 354 0164 594B     		ldr	r3, .L79+8
 355 0166 5979     		ldrb	r1, [r3, #5]	@ zero_extendqisi2
 356 0168 5B4B     		ldr	r3, .L79+20
 357 016a 1A78     		ldrb	r2, [r3]	@ zero_extendqisi2
 358 016c 9142     		cmp	r1, r2
 359 016e 43D1     		bne	.L71
 104:.\RFPoll.c    ****                     buffer_tx[5] = side.a.dir; y++;
 360              		.loc 1 104 0
 361 0170 574B     		ldr	r3, .L79+12
 362 0172 5A71     		strb	r2, [r3, #5]
 363              	.LVL51:
 105:.\RFPoll.c    ****                     buffer_tx[y] = 0xA5; y++;
 364              		.loc 1 105 0
 365 0174 A522     		movs	r2, #165
 366 0176 9A71     		strb	r2, [r3, #6]
 367              	.LVL52:
 106:.\RFPoll.c    ****                     buffer_tx[y] = side.a.rfState; y++;
 368              		.loc 1 106 0
 369 0178 574A     		ldr	r2, .L79+20
 370 017a 92F80321 		ldrb	r2, [r2, #259]	@ zero_extendqisi2
 371 017e DA71     		strb	r2, [r3, #7]
 372              	.LVL53:
 107:.\RFPoll.c    ****                     buffer_tx[y] = 0x34; y++;
 373              		.loc 1 107 0
 374 0180 3422     		movs	r2, #52
 375 0182 1A72     		strb	r2, [r3, #8]
 376              	.LVL54:
 108:.\RFPoll.c    ****                     buffer_tx[y] = 0x01; y++;                    
 377              		.loc 1 108 0
 378 0184 0122     		movs	r2, #1
 379 0186 5A72     		strb	r2, [r3, #9]
 380              	.LVL55:
 109:.\RFPoll.c    ****                     if (digits == 6 || digits == 5){                            
 381              		.loc 1 109 0
 382 0188 544B     		ldr	r3, .L79+24
 383 018a 1B78     		ldrb	r3, [r3]	@ zero_extendqisi2
 384 018c 053B     		subs	r3, r3, #5
 385 018e DBB2     		uxtb	r3, r3
 386 0190 9342     		cmp	r3, r2
 387 0192 0BD9     		bls	.L72
 108:.\RFPoll.c    ****                     buffer_tx[y] = 0x01; y++;                    
 388              		.loc 1 108 0
 389 0194 0A24     		movs	r4, #10
 390              	.LVL56:
 391 0196 30E0     		b	.L24
 392              	.LVL57:
 393              	.L26:
 110:.\RFPoll.c    ****                         for(x = 8; x > 0; x--){ //Volumen
 111:.\RFPoll.c    ****                             buffer_tx[y] = side.a.totalsHandle[0][0][x];y++;
 394              		.loc 1 111 0 discriminator 3
ARM GAS  C:\Users\Diego\AppData\Local\Temp\cc6qIbsx.s 			page 10


 395 0198 4F4A     		ldr	r2, .L79+20
 396 019a 1A44     		add	r2, r2, r3
 397 019c 5078     		ldrb	r0, [r2, #1]	@ zero_extendqisi2
 398 019e 4C4A     		ldr	r2, .L79+12
 399 01a0 1055     		strb	r0, [r2, r4]
 400 01a2 0134     		adds	r4, r4, #1
 401              	.LVL58:
 402 01a4 A4B2     		uxth	r4, r4
 403              	.LVL59:
 110:.\RFPoll.c    ****                         for(x = 8; x > 0; x--){ //Volumen
 404              		.loc 1 110 0 discriminator 3
 405 01a6 013B     		subs	r3, r3, #1
 406              	.LVL60:
 407 01a8 9BB2     		uxth	r3, r3
 408              	.LVL61:
 409 01aa 01E0     		b	.L25
 410              	.LVL62:
 411              	.L72:
 412 01ac 0A24     		movs	r4, #10
 413              	.LVL63:
 414 01ae 0823     		movs	r3, #8
 415              	.LVL64:
 416              	.L25:
 110:.\RFPoll.c    ****                         for(x = 8; x > 0; x--){ //Volumen
 417              		.loc 1 110 0 is_stmt 0 discriminator 1
 418 01b0 002B     		cmp	r3, #0
 419 01b2 F1D1     		bne	.L26
 420 01b4 06E0     		b	.L27
 421              	.L28:
 112:.\RFPoll.c    ****                         }
 113:.\RFPoll.c    ****                         for(x =0; x < 4; x++){
 114:.\RFPoll.c    ****                             buffer_tx[y] = 0x30;y++;
 422              		.loc 1 114 0 is_stmt 1 discriminator 3
 423 01b6 3020     		movs	r0, #48
 424 01b8 454A     		ldr	r2, .L79+12
 425 01ba 1055     		strb	r0, [r2, r4]
 426 01bc 0134     		adds	r4, r4, #1
 427              	.LVL65:
 428 01be A4B2     		uxth	r4, r4
 429              	.LVL66:
 113:.\RFPoll.c    ****                             buffer_tx[y] = 0x30;y++;
 430              		.loc 1 113 0 discriminator 3
 431 01c0 0133     		adds	r3, r3, #1
 432              	.LVL67:
 433 01c2 9BB2     		uxth	r3, r3
 434              	.LVL68:
 435              	.L27:
 113:.\RFPoll.c    ****                             buffer_tx[y] = 0x30;y++;
 436              		.loc 1 113 0 is_stmt 0 discriminator 1
 437 01c4 032B     		cmp	r3, #3
 438 01c6 F6D9     		bls	.L28
 439 01c8 0823     		movs	r3, #8
 440              	.LVL69:
 441 01ca 08E0     		b	.L29
 442              	.LVL70:
 443              	.L30:
 115:.\RFPoll.c    ****                         }
ARM GAS  C:\Users\Diego\AppData\Local\Temp\cc6qIbsx.s 			page 11


 116:.\RFPoll.c    ****                         for(x = 8; x > 0; x--){//Dinero
 117:.\RFPoll.c    ****                             buffer_tx[y] = side.a.totalsHandle[0][1][x];y++;
 444              		.loc 1 117 0 is_stmt 1 discriminator 3
 445 01cc 424A     		ldr	r2, .L79+20
 446 01ce 1A44     		add	r2, r2, r3
 447 01d0 107C     		ldrb	r0, [r2, #16]	@ zero_extendqisi2
 448 01d2 3F4A     		ldr	r2, .L79+12
 449 01d4 1055     		strb	r0, [r2, r4]
 450 01d6 0134     		adds	r4, r4, #1
 451              	.LVL71:
 452 01d8 A4B2     		uxth	r4, r4
 453              	.LVL72:
 116:.\RFPoll.c    ****                             buffer_tx[y] = side.a.totalsHandle[0][1][x];y++;
 454              		.loc 1 116 0 discriminator 3
 455 01da 013B     		subs	r3, r3, #1
 456              	.LVL73:
 457 01dc 9BB2     		uxth	r3, r3
 458              	.LVL74:
 459              	.L29:
 116:.\RFPoll.c    ****                             buffer_tx[y] = side.a.totalsHandle[0][1][x];y++;
 460              		.loc 1 116 0 is_stmt 0 discriminator 1
 461 01de 002B     		cmp	r3, #0
 462 01e0 F4D1     		bne	.L30
 463 01e2 06E0     		b	.L31
 464              	.L32:
 118:.\RFPoll.c    ****                         }
 119:.\RFPoll.c    ****                         for(x =0; x < 4; x++){
 120:.\RFPoll.c    ****                             buffer_tx[y] = 0x30;y++;
 465              		.loc 1 120 0 is_stmt 1 discriminator 3
 466 01e4 3020     		movs	r0, #48
 467 01e6 3A4A     		ldr	r2, .L79+12
 468 01e8 1055     		strb	r0, [r2, r4]
 469 01ea 0134     		adds	r4, r4, #1
 470              	.LVL75:
 471 01ec A4B2     		uxth	r4, r4
 472              	.LVL76:
 119:.\RFPoll.c    ****                             buffer_tx[y] = 0x30;y++;
 473              		.loc 1 119 0 discriminator 3
 474 01ee 0133     		adds	r3, r3, #1
 475              	.LVL77:
 476 01f0 9BB2     		uxth	r3, r3
 477              	.LVL78:
 478              	.L31:
 119:.\RFPoll.c    ****                             buffer_tx[y] = 0x30;y++;
 479              		.loc 1 119 0 is_stmt 0 discriminator 1
 480 01f2 032B     		cmp	r3, #3
 481 01f4 F6D9     		bls	.L32
 482 01f6 00E0     		b	.L24
 483              	.LVL79:
 484              	.L71:
  72:.\RFPoll.c    ****         if((buffer_rf[0]==0xBC)&&(buffer_rf[1]==0xBB)&&(buffer_rf[2]==0xB8)&&(buffer_rf[3]==IDCast[
 485              		.loc 1 72 0 is_stmt 1
 486 01f8 0524     		movs	r4, #5
 487              	.LVL80:
 488              	.L24:
 121:.\RFPoll.c    ****                         }
 122:.\RFPoll.c    ****                     }                        
ARM GAS  C:\Users\Diego\AppData\Local\Temp\cc6qIbsx.s 			page 12


 123:.\RFPoll.c    ****                 }
 124:.\RFPoll.c    ****                 if(buffer_rf[5] == side.b.dir){
 489              		.loc 1 124 0
 490 01fa 374B     		ldr	r3, .L79+20
 491 01fc 93F80531 		ldrb	r3, [r3, #261]	@ zero_extendqisi2
 492 0200 9942     		cmp	r1, r3
 493 0202 4CD1     		bne	.L33
 125:.\RFPoll.c    ****                     buffer_tx[5] = side.b.dir; y++;
 494              		.loc 1 125 0
 495 0204 324A     		ldr	r2, .L79+12
 496 0206 5371     		strb	r3, [r2, #5]
 497 0208 631C     		adds	r3, r4, #1
 498 020a 9BB2     		uxth	r3, r3
 499              	.LVL81:
 126:.\RFPoll.c    ****                     buffer_tx[y] = 0xA5; y++;
 500              		.loc 1 126 0
 501 020c A521     		movs	r1, #165
 502 020e D154     		strb	r1, [r2, r3]
 503 0210 0133     		adds	r3, r3, #1
 504              	.LVL82:
 505 0212 9BB2     		uxth	r3, r3
 506              	.LVL83:
 127:.\RFPoll.c    ****                     buffer_tx[y] = side.b.rfState; y++;
 507              		.loc 1 127 0
 508 0214 3049     		ldr	r1, .L79+20
 509 0216 91F80812 		ldrb	r1, [r1, #520]	@ zero_extendqisi2
 510 021a D154     		strb	r1, [r2, r3]
 511 021c 0133     		adds	r3, r3, #1
 512              	.LVL84:
 513 021e 9BB2     		uxth	r3, r3
 514              	.LVL85:
 128:.\RFPoll.c    ****                     buffer_tx[y] = 0x34; y++;
 515              		.loc 1 128 0
 516 0220 3421     		movs	r1, #52
 517 0222 D154     		strb	r1, [r2, r3]
 518 0224 0133     		adds	r3, r3, #1
 519              	.LVL86:
 520 0226 9BB2     		uxth	r3, r3
 521              	.LVL87:
 129:.\RFPoll.c    ****                     buffer_tx[y] = 0x01; y++;
 522              		.loc 1 129 0
 523 0228 0121     		movs	r1, #1
 524 022a D154     		strb	r1, [r2, r3]
 525 022c 0B44     		add	r3, r3, r1
 526              	.LVL88:
 527 022e 9CB2     		uxth	r4, r3
 528              	.LVL89:
 130:.\RFPoll.c    ****                     if (digits == 6 || digits == 5){                            
 529              		.loc 1 130 0
 530 0230 2A4B     		ldr	r3, .L79+24
 531 0232 1B78     		ldrb	r3, [r3]	@ zero_extendqisi2
 532 0234 053B     		subs	r3, r3, #5
 533 0236 DBB2     		uxtb	r3, r3
 534 0238 8B42     		cmp	r3, r1
 535 023a 30D8     		bhi	.L33
 536 023c 0AE0     		b	.L73
 537              	.LVL90:
ARM GAS  C:\Users\Diego\AppData\Local\Temp\cc6qIbsx.s 			page 13


 538              	.L35:
 131:.\RFPoll.c    ****                         for(x = 8; x > 0; x--){ //Volumen
 132:.\RFPoll.c    ****                             buffer_tx[y] = side.b.totalsHandle[0][0][x];y++;
 539              		.loc 1 132 0 discriminator 3
 540 023e 264A     		ldr	r2, .L79+20
 541 0240 1A44     		add	r2, r2, r3
 542 0242 92F80611 		ldrb	r1, [r2, #262]	@ zero_extendqisi2
 543 0246 224A     		ldr	r2, .L79+12
 544 0248 1155     		strb	r1, [r2, r4]
 545 024a 0134     		adds	r4, r4, #1
 546              	.LVL91:
 547 024c A4B2     		uxth	r4, r4
 548              	.LVL92:
 131:.\RFPoll.c    ****                         for(x = 8; x > 0; x--){ //Volumen
 549              		.loc 1 131 0 discriminator 3
 550 024e 013B     		subs	r3, r3, #1
 551              	.LVL93:
 552 0250 9BB2     		uxth	r3, r3
 553              	.LVL94:
 554 0252 00E0     		b	.L34
 555              	.LVL95:
 556              	.L73:
 557 0254 0823     		movs	r3, #8
 558              	.L34:
 559              	.LVL96:
 131:.\RFPoll.c    ****                         for(x = 8; x > 0; x--){ //Volumen
 560              		.loc 1 131 0 is_stmt 0 discriminator 1
 561 0256 002B     		cmp	r3, #0
 562 0258 F1D1     		bne	.L35
 563 025a 06E0     		b	.L36
 564              	.L37:
 133:.\RFPoll.c    ****                         }
 134:.\RFPoll.c    ****                         for(x =0; x < 4; x++){
 135:.\RFPoll.c    ****                             buffer_tx[y] = 0x30;y++;
 565              		.loc 1 135 0 is_stmt 1 discriminator 3
 566 025c 3021     		movs	r1, #48
 567 025e 1C4A     		ldr	r2, .L79+12
 568 0260 1155     		strb	r1, [r2, r4]
 569 0262 0134     		adds	r4, r4, #1
 570              	.LVL97:
 571 0264 A4B2     		uxth	r4, r4
 572              	.LVL98:
 134:.\RFPoll.c    ****                             buffer_tx[y] = 0x30;y++;
 573              		.loc 1 134 0 discriminator 3
 574 0266 0133     		adds	r3, r3, #1
 575              	.LVL99:
 576 0268 9BB2     		uxth	r3, r3
 577              	.LVL100:
 578              	.L36:
 134:.\RFPoll.c    ****                             buffer_tx[y] = 0x30;y++;
 579              		.loc 1 134 0 is_stmt 0 discriminator 1
 580 026a 032B     		cmp	r3, #3
 581 026c F6D9     		bls	.L37
 582 026e 0823     		movs	r3, #8
 583              	.LVL101:
 584 0270 09E0     		b	.L38
 585              	.LVL102:
ARM GAS  C:\Users\Diego\AppData\Local\Temp\cc6qIbsx.s 			page 14


 586              	.L39:
 136:.\RFPoll.c    ****                         }
 137:.\RFPoll.c    ****                         for(x = 8; x > 0; x--){//Dinero
 138:.\RFPoll.c    ****                             buffer_tx[y] = side.b.totalsHandle[0][1][x];y++;
 587              		.loc 1 138 0 is_stmt 1 discriminator 3
 588 0272 194A     		ldr	r2, .L79+20
 589 0274 1A44     		add	r2, r2, r3
 590 0276 92F81511 		ldrb	r1, [r2, #277]	@ zero_extendqisi2
 591 027a 154A     		ldr	r2, .L79+12
 592 027c 1155     		strb	r1, [r2, r4]
 593 027e 0134     		adds	r4, r4, #1
 594              	.LVL103:
 595 0280 A4B2     		uxth	r4, r4
 596              	.LVL104:
 137:.\RFPoll.c    ****                             buffer_tx[y] = side.b.totalsHandle[0][1][x];y++;
 597              		.loc 1 137 0 discriminator 3
 598 0282 013B     		subs	r3, r3, #1
 599              	.LVL105:
 600 0284 9BB2     		uxth	r3, r3
 601              	.LVL106:
 602              	.L38:
 137:.\RFPoll.c    ****                             buffer_tx[y] = side.b.totalsHandle[0][1][x];y++;
 603              		.loc 1 137 0 is_stmt 0 discriminator 1
 604 0286 002B     		cmp	r3, #0
 605 0288 F3D1     		bne	.L39
 606 028a 06E0     		b	.L40
 607              	.L41:
 139:.\RFPoll.c    ****                         }
 140:.\RFPoll.c    ****                         for(x =0; x < 4; x++){
 141:.\RFPoll.c    ****                             buffer_tx[y] = 0x30;y++;
 608              		.loc 1 141 0 is_stmt 1 discriminator 3
 609 028c 3021     		movs	r1, #48
 610 028e 104A     		ldr	r2, .L79+12
 611 0290 1155     		strb	r1, [r2, r4]
 612 0292 0134     		adds	r4, r4, #1
 613              	.LVL107:
 614 0294 A4B2     		uxth	r4, r4
 615              	.LVL108:
 140:.\RFPoll.c    ****                             buffer_tx[y] = 0x30;y++;
 616              		.loc 1 140 0 discriminator 3
 617 0296 0133     		adds	r3, r3, #1
 618              	.LVL109:
 619 0298 9BB2     		uxth	r3, r3
 620              	.LVL110:
 621              	.L40:
 140:.\RFPoll.c    ****                             buffer_tx[y] = 0x30;y++;
 622              		.loc 1 140 0 is_stmt 0 discriminator 1
 623 029a 032B     		cmp	r3, #3
 624 029c F6D9     		bls	.L41
 625              	.LVL111:
 626              	.L33:
 142:.\RFPoll.c    ****                         }
 143:.\RFPoll.c    ****                     }                        
 144:.\RFPoll.c    ****                 }
 145:.\RFPoll.c    ****                 buffer_tx[y] = verificar_check(buffer_tx,y+1);y++;
 627              		.loc 1 145 0 is_stmt 1
 628 029e 651C     		adds	r5, r4, #1
ARM GAS  C:\Users\Diego\AppData\Local\Temp\cc6qIbsx.s 			page 15


 629 02a0 ADB2     		uxth	r5, r5
 630 02a2 0B4E     		ldr	r6, .L79+12
 631 02a4 3046     		mov	r0, r6
 632 02a6 2946     		mov	r1, r5
 633 02a8 FFF7FEFF 		bl	verificar_check
 634              	.LVL112:
 635 02ac 3055     		strb	r0, [r6, r4]
 636              	.LVL113:
 146:.\RFPoll.c    ****                 for (x = 0; x < y; x++){
 637              		.loc 1 146 0
 638 02ae 0024     		movs	r4, #0
 639 02b0 05E0     		b	.L42
 640              	.LVL114:
 641              	.L43:
 147:.\RFPoll.c    ****                     RF_Connection_PutChar(buffer_tx[x]);
 642              		.loc 1 147 0 discriminator 3
 643 02b2 074B     		ldr	r3, .L79+12
 644 02b4 185D     		ldrb	r0, [r3, r4]	@ zero_extendqisi2
 645 02b6 FFF7FEFF 		bl	RF_Connection_PutChar
 646              	.LVL115:
 146:.\RFPoll.c    ****                 for (x = 0; x < y; x++){
 647              		.loc 1 146 0 discriminator 3
 648 02ba 0134     		adds	r4, r4, #1
 649              	.LVL116:
 650 02bc A4B2     		uxth	r4, r4
 651              	.LVL117:
 652              	.L42:
 146:.\RFPoll.c    ****                 for (x = 0; x < y; x++){
 653              		.loc 1 146 0 is_stmt 0 discriminator 1
 654 02be AC42     		cmp	r4, r5
 655 02c0 F7D3     		bcc	.L43
 656 02c2 48E1     		b	.L8
 657              	.L80:
 658              		.align	2
 659              	.L79:
 660 02c4 00000000 		.word	ActiveRF
 661 02c8 00000000 		.word	counterRF
 662 02cc 00000000 		.word	buffer_rf
 663 02d0 00000000 		.word	buffer_tx
 664 02d4 00000000 		.word	IDCast
 665 02d8 00000000 		.word	side
 666 02dc 00000000 		.word	digits
 667              	.LVL118:
 668              	.L11:
 148:.\RFPoll.c    ****                 }
 149:.\RFPoll.c    ****                break;
 150:.\RFPoll.c    ****                 
 151:.\RFPoll.c    ****                case 0xA6:               //Envio de precios
 152:.\RFPoll.c    ****                 if(buffer_rf[5] == side.a.dir){
 669              		.loc 1 152 0 is_stmt 1
 670 02e0 9E4B     		ldr	r3, .L81
 671 02e2 5A79     		ldrb	r2, [r3, #5]	@ zero_extendqisi2
 672 02e4 9E4B     		ldr	r3, .L81+4
 673 02e6 1878     		ldrb	r0, [r3]	@ zero_extendqisi2
 674 02e8 8242     		cmp	r2, r0
 675 02ea 0DD0     		beq	.L74
  72:.\RFPoll.c    ****         if((buffer_rf[0]==0xBC)&&(buffer_rf[1]==0xBB)&&(buffer_rf[2]==0xB8)&&(buffer_rf[3]==IDCast[
ARM GAS  C:\Users\Diego\AppData\Local\Temp\cc6qIbsx.s 			page 16


 676              		.loc 1 72 0
 677 02ec 0524     		movs	r4, #5
 678              	.LVL119:
 679 02ee 1CE0     		b	.L45
 680              	.LVL120:
 681              	.L46:
 153:.\RFPoll.c    ****                     for(x=13;x > 7; x-- ){
 154:.\RFPoll.c    ****                         side.a.ppuAuthorized[buffer_rf[8]][13-x] = buffer_rf[x];
 682              		.loc 1 154 0 discriminator 3
 683 02f0 9A4C     		ldr	r4, .L81
 684 02f2 257A     		ldrb	r5, [r4, #8]	@ zero_extendqisi2
 685 02f4 E45C     		ldrb	r4, [r4, r3]	@ zero_extendqisi2
 686 02f6 9A49     		ldr	r1, .L81+4
 687 02f8 01EBC501 		add	r1, r1, r5, lsl #3
 688 02fc C91A     		subs	r1, r1, r3
 689 02fe 81F8C240 		strb	r4, [r1, #194]
 153:.\RFPoll.c    ****                     for(x=13;x > 7; x-- ){
 690              		.loc 1 153 0 discriminator 3
 691 0302 013B     		subs	r3, r3, #1
 692              	.LVL121:
 693 0304 9BB2     		uxth	r3, r3
 694              	.LVL122:
 695 0306 00E0     		b	.L44
 696              	.LVL123:
 697              	.L74:
 698 0308 0D23     		movs	r3, #13
 699              	.LVL124:
 700              	.L44:
 153:.\RFPoll.c    ****                     for(x=13;x > 7; x-- ){
 701              		.loc 1 153 0 is_stmt 0 discriminator 1
 702 030a 072B     		cmp	r3, #7
 703 030c F0D8     		bhi	.L46
 155:.\RFPoll.c    ****                     }
 156:.\RFPoll.c    ****                     PriceChange = 1; //
 704              		.loc 1 156 0 is_stmt 1
 705 030e 0121     		movs	r1, #1
 706 0310 944B     		ldr	r3, .L81+8
 707              	.LVL125:
 708 0312 1970     		strb	r1, [r3]
 157:.\RFPoll.c    ****                     CGrade = buffer_rf[8];
 709              		.loc 1 157 0
 710 0314 914B     		ldr	r3, .L81
 711 0316 197A     		ldrb	r1, [r3, #8]	@ zero_extendqisi2
 712 0318 934B     		ldr	r3, .L81+12
 713 031a 1970     		strb	r1, [r3]
 158:.\RFPoll.c    ****                     buffer_tx[5] = side.a.dir;y++;
 714              		.loc 1 158 0
 715 031c 934B     		ldr	r3, .L81+16
 716 031e 5871     		strb	r0, [r3, #5]
 717              	.LVL126:
 159:.\RFPoll.c    ****                     buffer_tx[y] = 0xA6;y++;
 718              		.loc 1 159 0
 719 0320 A621     		movs	r1, #166
 720 0322 9971     		strb	r1, [r3, #6]
 721              	.LVL127:
 160:.\RFPoll.c    ****                     buffer_tx[y] = 0x03;y++;
 722              		.loc 1 160 0
ARM GAS  C:\Users\Diego\AppData\Local\Temp\cc6qIbsx.s 			page 17


 723 0324 0321     		movs	r1, #3
 724 0326 D971     		strb	r1, [r3, #7]
 725              	.LVL128:
 726 0328 0824     		movs	r4, #8
 727              	.LVL129:
 728              	.L45:
 161:.\RFPoll.c    ****                 } 
 162:.\RFPoll.c    ****                 if(buffer_rf[5] == side.b.dir){
 729              		.loc 1 162 0
 730 032a 8D4B     		ldr	r3, .L81+4
 731 032c 93F80501 		ldrb	r0, [r3, #261]	@ zero_extendqisi2
 732 0330 8242     		cmp	r2, r0
 733 0332 22D1     		bne	.L48
 734 0334 0BE0     		b	.L75
 735              	.LVL130:
 736              	.L49:
 163:.\RFPoll.c    ****                     for(x=13;x > 7; x-- ){
 164:.\RFPoll.c    ****                         side.b.ppuAuthorized[buffer_rf[8]][13-x] = buffer_rf[x];
 737              		.loc 1 164 0 discriminator 3
 738 0336 894D     		ldr	r5, .L81
 739 0338 2E7A     		ldrb	r6, [r5, #8]	@ zero_extendqisi2
 740 033a ED5C     		ldrb	r5, [r5, r3]	@ zero_extendqisi2
 741 033c 8849     		ldr	r1, .L81+4
 742 033e 01EBC601 		add	r1, r1, r6, lsl #3
 743 0342 C91A     		subs	r1, r1, r3
 744 0344 81F8C751 		strb	r5, [r1, #455]
 163:.\RFPoll.c    ****                     for(x=13;x > 7; x-- ){
 745              		.loc 1 163 0 discriminator 3
 746 0348 013B     		subs	r3, r3, #1
 747              	.LVL131:
 748 034a 9BB2     		uxth	r3, r3
 749              	.LVL132:
 750 034c 00E0     		b	.L47
 751              	.LVL133:
 752              	.L75:
 753 034e 0D23     		movs	r3, #13
 754              	.L47:
 755              	.LVL134:
 163:.\RFPoll.c    ****                     for(x=13;x > 7; x-- ){
 756              		.loc 1 163 0 is_stmt 0 discriminator 1
 757 0350 072B     		cmp	r3, #7
 758 0352 F0D8     		bhi	.L49
 165:.\RFPoll.c    ****                     }
 166:.\RFPoll.c    ****                     PriceChange = 2;//
 759              		.loc 1 166 0 is_stmt 1
 760 0354 0221     		movs	r1, #2
 761 0356 834B     		ldr	r3, .L81+8
 762              	.LVL135:
 763 0358 1970     		strb	r1, [r3]
 167:.\RFPoll.c    ****                     CGrade = buffer_rf[8];
 764              		.loc 1 167 0
 765 035a 804B     		ldr	r3, .L81
 766 035c 197A     		ldrb	r1, [r3, #8]	@ zero_extendqisi2
 767 035e 824B     		ldr	r3, .L81+12
 768 0360 1970     		strb	r1, [r3]
 168:.\RFPoll.c    ****                     buffer_tx[5] = side.b.dir; y++;
 769              		.loc 1 168 0
ARM GAS  C:\Users\Diego\AppData\Local\Temp\cc6qIbsx.s 			page 18


 770 0362 8249     		ldr	r1, .L81+16
 771 0364 4871     		strb	r0, [r1, #5]
 772 0366 631C     		adds	r3, r4, #1
 773 0368 9BB2     		uxth	r3, r3
 774              	.LVL136:
 169:.\RFPoll.c    ****                     buffer_tx[y] = 0xA6;y++;
 775              		.loc 1 169 0
 776 036a A620     		movs	r0, #166
 777 036c C854     		strb	r0, [r1, r3]
 778 036e 0133     		adds	r3, r3, #1
 779              	.LVL137:
 780 0370 9BB2     		uxth	r3, r3
 781              	.LVL138:
 170:.\RFPoll.c    ****                     buffer_tx[y] = 0x03;y++;
 782              		.loc 1 170 0
 783 0372 0320     		movs	r0, #3
 784 0374 C854     		strb	r0, [r1, r3]
 785 0376 0133     		adds	r3, r3, #1
 786              	.LVL139:
 787 0378 9CB2     		uxth	r4, r3
 788              	.LVL140:
 789              	.L48:
 171:.\RFPoll.c    ****                 } 
 172:.\RFPoll.c    ****                 if(buffer_rf[5] == side.c.dir){
 790              		.loc 1 172 0
 791 037a 794B     		ldr	r3, .L81+4
 792 037c 93F80A52 		ldrb	r5, [r3, #522]	@ zero_extendqisi2
 793 0380 AA42     		cmp	r2, r5
 794 0382 21D1     		bne	.L51
 795 0384 0BE0     		b	.L76
 796              	.LVL141:
 797              	.L52:
 173:.\RFPoll.c    ****                     for(x=13;x > 7; x-- ){
 174:.\RFPoll.c    ****                         side.c.ppuAuthorized[buffer_rf[8]][13-x] = buffer_rf[x];
 798              		.loc 1 174 0 discriminator 3
 799 0386 7548     		ldr	r0, .L81
 800 0388 067A     		ldrb	r6, [r0, #8]	@ zero_extendqisi2
 801 038a C05C     		ldrb	r0, [r0, r3]	@ zero_extendqisi2
 802 038c 7449     		ldr	r1, .L81+4
 803 038e 01EBC601 		add	r1, r1, r6, lsl #3
 804 0392 C91A     		subs	r1, r1, r3
 805 0394 81F8CC02 		strb	r0, [r1, #716]
 173:.\RFPoll.c    ****                     for(x=13;x > 7; x-- ){
 806              		.loc 1 173 0 discriminator 3
 807 0398 013B     		subs	r3, r3, #1
 808              	.LVL142:
 809 039a 9BB2     		uxth	r3, r3
 810              	.LVL143:
 811 039c 00E0     		b	.L50
 812              	.LVL144:
 813              	.L76:
 814 039e 0D23     		movs	r3, #13
 815              	.L50:
 816              	.LVL145:
 173:.\RFPoll.c    ****                     for(x=13;x > 7; x-- ){
 817              		.loc 1 173 0 is_stmt 0 discriminator 1
 818 03a0 072B     		cmp	r3, #7
ARM GAS  C:\Users\Diego\AppData\Local\Temp\cc6qIbsx.s 			page 19


 819 03a2 F0D8     		bhi	.L52
 175:.\RFPoll.c    ****                     }
 176:.\RFPoll.c    ****                     PriceChange = 3;//priceChange(side.c.dir,buffer_rf[8],side.c.ppuAuthorized[buff
 820              		.loc 1 176 0 is_stmt 1
 821 03a4 0320     		movs	r0, #3
 822 03a6 6F4B     		ldr	r3, .L81+8
 823              	.LVL146:
 824 03a8 1870     		strb	r0, [r3]
 177:.\RFPoll.c    ****                     CGrade = buffer_rf[8];
 825              		.loc 1 177 0
 826 03aa 6C4B     		ldr	r3, .L81
 827 03ac 197A     		ldrb	r1, [r3, #8]	@ zero_extendqisi2
 828 03ae 6E4B     		ldr	r3, .L81+12
 829 03b0 1970     		strb	r1, [r3]
 178:.\RFPoll.c    ****                     buffer_tx[5] = side.c.dir; y++;
 830              		.loc 1 178 0
 831 03b2 6E49     		ldr	r1, .L81+16
 832 03b4 4D71     		strb	r5, [r1, #5]
 833 03b6 631C     		adds	r3, r4, #1
 834 03b8 9BB2     		uxth	r3, r3
 835              	.LVL147:
 179:.\RFPoll.c    ****                     buffer_tx[y] = 0xA6;y++;
 836              		.loc 1 179 0
 837 03ba A624     		movs	r4, #166
 838 03bc CC54     		strb	r4, [r1, r3]
 839 03be 0133     		adds	r3, r3, #1
 840              	.LVL148:
 841 03c0 9BB2     		uxth	r3, r3
 842              	.LVL149:
 180:.\RFPoll.c    ****                     buffer_tx[y] = 0x03;y++;
 843              		.loc 1 180 0
 844 03c2 C854     		strb	r0, [r1, r3]
 845 03c4 0133     		adds	r3, r3, #1
 846              	.LVL150:
 847 03c6 9CB2     		uxth	r4, r3
 848              	.LVL151:
 849              	.L51:
 181:.\RFPoll.c    ****                 } 
 182:.\RFPoll.c    ****                 if(buffer_rf[5] == side.d.dir){
 850              		.loc 1 182 0
 851 03c8 654B     		ldr	r3, .L81+4
 852 03ca 93F80F13 		ldrb	r1, [r3, #783]	@ zero_extendqisi2
 853 03ce 8A42     		cmp	r2, r1
 854 03d0 1ED1     		bne	.L54
 855 03d2 0BE0     		b	.L77
 856              	.LVL152:
 857              	.L55:
 183:.\RFPoll.c    ****                     for(x=13;x > 7; x-- ){
 184:.\RFPoll.c    ****                         side.d.ppuAuthorized[buffer_rf[8]][13-x] = buffer_rf[x];
 858              		.loc 1 184 0 discriminator 3
 859 03d4 6148     		ldr	r0, .L81
 860 03d6 057A     		ldrb	r5, [r0, #8]	@ zero_extendqisi2
 861 03d8 C05C     		ldrb	r0, [r0, r3]	@ zero_extendqisi2
 862 03da 614A     		ldr	r2, .L81+4
 863 03dc 02EBC502 		add	r2, r2, r5, lsl #3
 864 03e0 D21A     		subs	r2, r2, r3
 865 03e2 82F8D103 		strb	r0, [r2, #977]
ARM GAS  C:\Users\Diego\AppData\Local\Temp\cc6qIbsx.s 			page 20


 183:.\RFPoll.c    ****                     for(x=13;x > 7; x-- ){
 866              		.loc 1 183 0 discriminator 3
 867 03e6 013B     		subs	r3, r3, #1
 868              	.LVL153:
 869 03e8 9BB2     		uxth	r3, r3
 870              	.LVL154:
 871 03ea 00E0     		b	.L53
 872              	.LVL155:
 873              	.L77:
 874 03ec 0D23     		movs	r3, #13
 875              	.L53:
 876              	.LVL156:
 183:.\RFPoll.c    ****                     for(x=13;x > 7; x-- ){
 877              		.loc 1 183 0 is_stmt 0 discriminator 1
 878 03ee 072B     		cmp	r3, #7
 879 03f0 F0D8     		bhi	.L55
 185:.\RFPoll.c    ****                     }
 186:.\RFPoll.c    ****                     PriceChange = 4;//priceChange(side.d.dir,buffer_rf[8],side.d.ppuAuthorized[buff
 880              		.loc 1 186 0 is_stmt 1
 881 03f2 0422     		movs	r2, #4
 882 03f4 5B4B     		ldr	r3, .L81+8
 883              	.LVL157:
 884 03f6 1A70     		strb	r2, [r3]
 187:.\RFPoll.c    ****                     buffer_tx[5] = side.d.dir; y++;
 885              		.loc 1 187 0
 886 03f8 5C4A     		ldr	r2, .L81+16
 887 03fa 5171     		strb	r1, [r2, #5]
 888 03fc 631C     		adds	r3, r4, #1
 889 03fe 9BB2     		uxth	r3, r3
 890              	.LVL158:
 188:.\RFPoll.c    ****                     buffer_tx[y] = 0xA6;y++;
 891              		.loc 1 188 0
 892 0400 A621     		movs	r1, #166
 893 0402 D154     		strb	r1, [r2, r3]
 894 0404 0133     		adds	r3, r3, #1
 895              	.LVL159:
 896 0406 9BB2     		uxth	r3, r3
 897              	.LVL160:
 189:.\RFPoll.c    ****                     buffer_tx[y] = 0x03;y++;
 898              		.loc 1 189 0
 899 0408 0321     		movs	r1, #3
 900 040a D154     		strb	r1, [r2, r3]
 901 040c 0133     		adds	r3, r3, #1
 902              	.LVL161:
 903 040e 9CB2     		uxth	r4, r3
 904              	.LVL162:
 905              	.L54:
 190:.\RFPoll.c    ****                 }
 191:.\RFPoll.c    ****                 buffer_tx[y] = verificar_check(buffer_tx,y+1);y++;
 906              		.loc 1 191 0
 907 0410 651C     		adds	r5, r4, #1
 908 0412 ADB2     		uxth	r5, r5
 909 0414 554E     		ldr	r6, .L81+16
 910 0416 3046     		mov	r0, r6
 911 0418 2946     		mov	r1, r5
 912 041a FFF7FEFF 		bl	verificar_check
 913              	.LVL163:
ARM GAS  C:\Users\Diego\AppData\Local\Temp\cc6qIbsx.s 			page 21


 914 041e 3055     		strb	r0, [r6, r4]
 915              	.LVL164:
 192:.\RFPoll.c    ****                 for (x = 0; x < y; x++){
 916              		.loc 1 192 0
 917 0420 0024     		movs	r4, #0
 918 0422 05E0     		b	.L56
 919              	.LVL165:
 920              	.L57:
 193:.\RFPoll.c    ****                     RF_Connection_PutChar(buffer_tx[x]);
 921              		.loc 1 193 0 discriminator 3
 922 0424 514B     		ldr	r3, .L81+16
 923 0426 185D     		ldrb	r0, [r3, r4]	@ zero_extendqisi2
 924 0428 FFF7FEFF 		bl	RF_Connection_PutChar
 925              	.LVL166:
 192:.\RFPoll.c    ****                 for (x = 0; x < y; x++){
 926              		.loc 1 192 0 discriminator 3
 927 042c 0134     		adds	r4, r4, #1
 928              	.LVL167:
 929 042e A4B2     		uxth	r4, r4
 930              	.LVL168:
 931              	.L56:
 192:.\RFPoll.c    ****                 for (x = 0; x < y; x++){
 932              		.loc 1 192 0 is_stmt 0 discriminator 1
 933 0430 AC42     		cmp	r4, r5
 934 0432 F7D3     		bcc	.L57
 935 0434 8FE0     		b	.L8
 936              	.LVL169:
 937              	.L17:
 194:.\RFPoll.c    ****                 }
 195:.\RFPoll.c    ****                break;
 196:.\RFPoll.c    ****                 
 197:.\RFPoll.c    ****                case 0xA7:               //Impresion general
 198:.\RFPoll.c    ****                 
 199:.\RFPoll.c    ****                 if(buffer_rf[5] == side.a.dir){
 938              		.loc 1 199 0 is_stmt 1
 939 0436 494B     		ldr	r3, .L81
 940 0438 5B79     		ldrb	r3, [r3, #5]	@ zero_extendqisi2
 941 043a 494A     		ldr	r2, .L81+4
 942 043c 1178     		ldrb	r1, [r2]	@ zero_extendqisi2
 943 043e 8B42     		cmp	r3, r1
 944 0440 07D1     		bne	.L58
 200:.\RFPoll.c    ****                     buffer_tx[5] = side.a.dir;
 945              		.loc 1 200 0
 946 0442 4A4A     		ldr	r2, .L81+16
 947 0444 5171     		strb	r1, [r2, #5]
 201:.\RFPoll.c    ****                     buffer_tx[6] = 0xA7;
 948              		.loc 1 201 0
 949 0446 A721     		movs	r1, #167
 950 0448 9171     		strb	r1, [r2, #6]
 202:.\RFPoll.c    ****                     buffer_tx[7] = side.a.rfState;
 951              		.loc 1 202 0
 952 044a 4549     		ldr	r1, .L81+4
 953 044c 91F80311 		ldrb	r1, [r1, #259]	@ zero_extendqisi2
 954 0450 D171     		strb	r1, [r2, #7]
 955              	.L58:
 203:.\RFPoll.c    ****                 }  
 204:.\RFPoll.c    ****                 if(buffer_rf[5] == side.b.dir){
ARM GAS  C:\Users\Diego\AppData\Local\Temp\cc6qIbsx.s 			page 22


 956              		.loc 1 204 0
 957 0452 434A     		ldr	r2, .L81+4
 958 0454 92F80511 		ldrb	r1, [r2, #261]	@ zero_extendqisi2
 959 0458 8B42     		cmp	r3, r1
 960 045a 07D1     		bne	.L59
 205:.\RFPoll.c    ****                     buffer_tx[5] = side.b.dir;
 961              		.loc 1 205 0
 962 045c 434A     		ldr	r2, .L81+16
 963 045e 5171     		strb	r1, [r2, #5]
 206:.\RFPoll.c    ****                     buffer_tx[6] = 0xA7;
 964              		.loc 1 206 0
 965 0460 A721     		movs	r1, #167
 966 0462 9171     		strb	r1, [r2, #6]
 207:.\RFPoll.c    ****                     buffer_tx[7] = side.b.rfState;
 967              		.loc 1 207 0
 968 0464 3E49     		ldr	r1, .L81+4
 969 0466 91F80812 		ldrb	r1, [r1, #520]	@ zero_extendqisi2
 970 046a D171     		strb	r1, [r2, #7]
 971              	.L59:
 208:.\RFPoll.c    ****                 }
 209:.\RFPoll.c    ****                 if(buffer_rf[5] == side.c.dir){
 972              		.loc 1 209 0
 973 046c 3C4A     		ldr	r2, .L81+4
 974 046e 92F80A12 		ldrb	r1, [r2, #522]	@ zero_extendqisi2
 975 0472 8B42     		cmp	r3, r1
 976 0474 07D1     		bne	.L60
 210:.\RFPoll.c    ****                     buffer_tx[5] = side.c.dir;
 977              		.loc 1 210 0
 978 0476 3D4A     		ldr	r2, .L81+16
 979 0478 5171     		strb	r1, [r2, #5]
 211:.\RFPoll.c    ****                     buffer_tx[6] = 0xA7;
 980              		.loc 1 211 0
 981 047a A721     		movs	r1, #167
 982 047c 9171     		strb	r1, [r2, #6]
 212:.\RFPoll.c    ****                     buffer_tx[7] = side.c.rfState;
 983              		.loc 1 212 0
 984 047e 3849     		ldr	r1, .L81+4
 985 0480 91F80D13 		ldrb	r1, [r1, #781]	@ zero_extendqisi2
 986 0484 D171     		strb	r1, [r2, #7]
 987              	.L60:
 213:.\RFPoll.c    ****                 }
 214:.\RFPoll.c    ****                 if(buffer_rf[5] == side.d.dir){
 988              		.loc 1 214 0
 989 0486 364A     		ldr	r2, .L81+4
 990 0488 92F80F23 		ldrb	r2, [r2, #783]	@ zero_extendqisi2
 991 048c 9342     		cmp	r3, r2
 992 048e 07D1     		bne	.L61
 215:.\RFPoll.c    ****                     buffer_tx[5] = side.d.dir;
 993              		.loc 1 215 0
 994 0490 364B     		ldr	r3, .L81+16
 995 0492 5A71     		strb	r2, [r3, #5]
 216:.\RFPoll.c    ****                     buffer_tx[6] = 0xA7;
 996              		.loc 1 216 0
 997 0494 A722     		movs	r2, #167
 998 0496 9A71     		strb	r2, [r3, #6]
 217:.\RFPoll.c    ****                     buffer_tx[7] = side.d.rfState;
 999              		.loc 1 217 0
ARM GAS  C:\Users\Diego\AppData\Local\Temp\cc6qIbsx.s 			page 23


 1000 0498 314A     		ldr	r2, .L81+4
 1001 049a 92F81224 		ldrb	r2, [r2, #1042]	@ zero_extendqisi2
 1002 049e DA71     		strb	r2, [r3, #7]
 1003              	.L61:
 218:.\RFPoll.c    ****                 }
 219:.\RFPoll.c    ****                 buffer_tx[8] = verificar_check(buffer_tx,9);
 1004              		.loc 1 219 0
 1005 04a0 324C     		ldr	r4, .L81+16
 1006              	.LVL170:
 1007 04a2 2046     		mov	r0, r4
 1008 04a4 0921     		movs	r1, #9
 1009 04a6 FFF7FEFF 		bl	verificar_check
 1010              	.LVL171:
 1011 04aa 2072     		strb	r0, [r4, #8]
 1012              	.LVL172:
 220:.\RFPoll.c    ****                 for (x = 0; x < 9; x++){
 1013              		.loc 1 220 0
 1014 04ac 0024     		movs	r4, #0
 1015 04ae 05E0     		b	.L62
 1016              	.LVL173:
 1017              	.L63:
 221:.\RFPoll.c    ****                     RF_Connection_PutChar(buffer_tx[x]);
 1018              		.loc 1 221 0 discriminator 3
 1019 04b0 2E4B     		ldr	r3, .L81+16
 1020 04b2 185D     		ldrb	r0, [r3, r4]	@ zero_extendqisi2
 1021 04b4 FFF7FEFF 		bl	RF_Connection_PutChar
 1022              	.LVL174:
 220:.\RFPoll.c    ****                 for (x = 0; x < 9; x++){
 1023              		.loc 1 220 0 discriminator 3
 1024 04b8 0134     		adds	r4, r4, #1
 1025              	.LVL175:
 1026 04ba A4B2     		uxth	r4, r4
 1027              	.LVL176:
 1028              	.L62:
 220:.\RFPoll.c    ****                 for (x = 0; x < 9; x++){
 1029              		.loc 1 220 0 is_stmt 0 discriminator 1
 1030 04bc 082C     		cmp	r4, #8
 1031 04be F7D9     		bls	.L63
 1032 04c0 49E0     		b	.L8
 1033              	.LVL177:
 1034              	.L15:
 222:.\RFPoll.c    ****                 }
 223:.\RFPoll.c    ****                 
 224:.\RFPoll.c    ****                break;
 225:.\RFPoll.c    ****                case 0xAB:
 226:.\RFPoll.c    ****                 buffer_tx[0] = 0xBC;
 227:.\RFPoll.c    ****                break;
 228:.\RFPoll.c    ****                 
 229:.\RFPoll.c    ****                case 0xE1:               //Configuracion de la estacion
 230:.\RFPoll.c    ****                 symbols[1] = buffer_rf[8];
 1035              		.loc 1 230 0 is_stmt 1
 1036 04c2 264B     		ldr	r3, .L81
 1037 04c4 197A     		ldrb	r1, [r3, #8]	@ zero_extendqisi2
 1038 04c6 2A4A     		ldr	r2, .L81+20
 1039 04c8 5170     		strb	r1, [r2, #1]
 231:.\RFPoll.c    ****                 date[0]    = buffer_rf[9];
 1040              		.loc 1 231 0
ARM GAS  C:\Users\Diego\AppData\Local\Temp\cc6qIbsx.s 			page 24


 1041 04ca 597A     		ldrb	r1, [r3, #9]	@ zero_extendqisi2
 1042 04cc 294A     		ldr	r2, .L81+24
 1043 04ce 1170     		strb	r1, [r2]
 232:.\RFPoll.c    ****                 date[1]    = buffer_rf[10];
 1044              		.loc 1 232 0
 1045 04d0 997A     		ldrb	r1, [r3, #10]	@ zero_extendqisi2
 1046 04d2 5170     		strb	r1, [r2, #1]
 233:.\RFPoll.c    ****                 date[2]    = buffer_rf[11];
 1047              		.loc 1 233 0
 1048 04d4 D97A     		ldrb	r1, [r3, #11]	@ zero_extendqisi2
 1049 04d6 9170     		strb	r1, [r2, #2]
 234:.\RFPoll.c    ****                 time[1]    = buffer_rf[12];
 1050              		.loc 1 234 0
 1051 04d8 197B     		ldrb	r1, [r3, #12]	@ zero_extendqisi2
 1052 04da 274A     		ldr	r2, .L81+28
 1053 04dc 5170     		strb	r1, [r2, #1]
 235:.\RFPoll.c    ****                 time[0]    = buffer_rf[13];
 1054              		.loc 1 235 0
 1055 04de 5B7B     		ldrb	r3, [r3, #13]	@ zero_extendqisi2
 1056 04e0 1370     		strb	r3, [r2]
 1057              	.LVL178:
 236:.\RFPoll.c    ****                 for(x = 17; x < 45; x++){
 1058              		.loc 1 236 0
 1059 04e2 1123     		movs	r3, #17
 1060 04e4 07E0     		b	.L64
 1061              	.LVL179:
 1062              	.L65:
 237:.\RFPoll.c    ****                     Encabezado1[x-17] = buffer_rf[x];
 1063              		.loc 1 237 0 discriminator 3
 1064 04e6 A3F11102 		sub	r2, r3, #17
 1065 04ea 1C49     		ldr	r1, .L81
 1066 04ec C85C     		ldrb	r0, [r1, r3]	@ zero_extendqisi2
 1067 04ee 2349     		ldr	r1, .L81+32
 1068 04f0 8854     		strb	r0, [r1, r2]
 236:.\RFPoll.c    ****                 for(x = 17; x < 45; x++){
 1069              		.loc 1 236 0 discriminator 3
 1070 04f2 0133     		adds	r3, r3, #1
 1071              	.LVL180:
 1072 04f4 9BB2     		uxth	r3, r3
 1073              	.LVL181:
 1074              	.L64:
 236:.\RFPoll.c    ****                 for(x = 17; x < 45; x++){
 1075              		.loc 1 236 0 is_stmt 0 discriminator 1
 1076 04f6 2C2B     		cmp	r3, #44
 1077 04f8 F5D9     		bls	.L65
 238:.\RFPoll.c    ****                 }
 239:.\RFPoll.c    ****                 CopiasCredito = buffer_rf[16];
 1078              		.loc 1 239 0 is_stmt 1
 1079 04fa 184B     		ldr	r3, .L81
 1080              	.LVL182:
 1081 04fc 1A7C     		ldrb	r2, [r3, #16]	@ zero_extendqisi2
 1082 04fe 204B     		ldr	r3, .L81+36
 1083 0500 1A70     		strb	r2, [r3]
 240:.\RFPoll.c    ****                 write_hora();
 1084              		.loc 1 240 0
 1085 0502 FFF7FEFF 		bl	write_hora
 1086              	.LVL183:
ARM GAS  C:\Users\Diego\AppData\Local\Temp\cc6qIbsx.s 			page 25


 241:.\RFPoll.c    ****                 write_fecha();
 1087              		.loc 1 241 0
 1088 0506 FFF7FEFF 		bl	write_fecha
 1089              	.LVL184:
 242:.\RFPoll.c    ****                break;
 1090              		.loc 1 242 0
 1091 050a 24E0     		b	.L8
 1092              	.L16:
 243:.\RFPoll.c    ****                
 244:.\RFPoll.c    ****                case 0xE2:               //Configuracion de la posicion                             
 245:.\RFPoll.c    ****                 buffer_tx[5] = buffer_rf[5];
 1093              		.loc 1 245 0
 1094 050c 134B     		ldr	r3, .L81
 1095 050e 5B79     		ldrb	r3, [r3, #5]	@ zero_extendqisi2
 1096 0510 164C     		ldr	r4, .L81+16
 1097              	.LVL185:
 1098 0512 6371     		strb	r3, [r4, #5]
 246:.\RFPoll.c    ****                 buffer_tx[6] = 0xE2;
 1099              		.loc 1 246 0
 1100 0514 E223     		movs	r3, #226
 1101 0516 A371     		strb	r3, [r4, #6]
 247:.\RFPoll.c    ****                 buffer_tx[7] = 0x08;
 1102              		.loc 1 247 0
 1103 0518 0823     		movs	r3, #8
 1104 051a E371     		strb	r3, [r4, #7]
 248:.\RFPoll.c    ****                 buffer_tx[8] = 0x03;
 1105              		.loc 1 248 0
 1106 051c 0323     		movs	r3, #3
 1107 051e 2372     		strb	r3, [r4, #8]
 249:.\RFPoll.c    ****                 buffer_tx[9] = verificar_check(buffer_tx,10);
 1108              		.loc 1 249 0
 1109 0520 2046     		mov	r0, r4
 1110 0522 0A21     		movs	r1, #10
 1111 0524 FFF7FEFF 		bl	verificar_check
 1112              	.LVL186:
 1113 0528 6072     		strb	r0, [r4, #9]
 1114              	.LVL187:
 250:.\RFPoll.c    ****                 for (x = 0; x < 10; x++){
 1115              		.loc 1 250 0
 1116 052a 0024     		movs	r4, #0
 1117 052c 05E0     		b	.L66
 1118              	.LVL188:
 1119              	.L67:
 251:.\RFPoll.c    ****                     RF_Connection_PutChar(buffer_tx[x]);
 1120              		.loc 1 251 0 discriminator 3
 1121 052e 0F4B     		ldr	r3, .L81+16
 1122 0530 185D     		ldrb	r0, [r3, r4]	@ zero_extendqisi2
 1123 0532 FFF7FEFF 		bl	RF_Connection_PutChar
 1124              	.LVL189:
 250:.\RFPoll.c    ****                 for (x = 0; x < 10; x++){
 1125              		.loc 1 250 0 discriminator 3
 1126 0536 0134     		adds	r4, r4, #1
 1127              	.LVL190:
 1128 0538 A4B2     		uxth	r4, r4
 1129              	.LVL191:
 1130              	.L66:
 250:.\RFPoll.c    ****                 for (x = 0; x < 10; x++){
ARM GAS  C:\Users\Diego\AppData\Local\Temp\cc6qIbsx.s 			page 26


 1131              		.loc 1 250 0 is_stmt 0 discriminator 1
 1132 053a 092C     		cmp	r4, #9
 1133 053c F7D9     		bls	.L67
 1134 053e 0823     		movs	r3, #8
 1135 0540 07E0     		b	.L68
 1136              	.LVL192:
 1137              	.L69:
 252:.\RFPoll.c    ****                 }
 253:.\RFPoll.c    ****                 for(x = 8; x < 14; x++){
 254:.\RFPoll.c    ****                     GradesHose[8-x] = buffer_rf[x];
 1138              		.loc 1 254 0 is_stmt 1 discriminator 3
 1139 0542 C3F10802 		rsb	r2, r3, #8
 1140 0546 0549     		ldr	r1, .L81
 1141 0548 C85C     		ldrb	r0, [r1, r3]	@ zero_extendqisi2
 1142 054a 0E49     		ldr	r1, .L81+40
 1143 054c 8854     		strb	r0, [r1, r2]
 253:.\RFPoll.c    ****                     GradesHose[8-x] = buffer_rf[x];
 1144              		.loc 1 253 0 discriminator 3
 1145 054e 0133     		adds	r3, r3, #1
 1146              	.LVL193:
 1147 0550 9BB2     		uxth	r3, r3
 1148              	.LVL194:
 1149              	.L68:
 253:.\RFPoll.c    ****                     GradesHose[8-x] = buffer_rf[x];
 1150              		.loc 1 253 0 is_stmt 0 discriminator 1
 1151 0552 0D2B     		cmp	r3, #13
 1152 0554 F5D9     		bls	.L69
 1153              	.LVL195:
 1154              	.L8:
 255:.\RFPoll.c    ****                 }
 256:.\RFPoll.c    ****                break;
 257:.\RFPoll.c    ****            }                       
 258:.\RFPoll.c    ****         }                       
 259:.\RFPoll.c    ****     }       
 260:.\RFPoll.c    ****     RF_Connection_ClearRxBuffer();    
 1155              		.loc 1 260 0 is_stmt 1
 1156 0556 FFF7FEFF 		bl	RF_Connection_ClearRxBuffer
 1157              	.LVL196:
 1158 055a 70BD     		pop	{r4, r5, r6, pc}
 1159              	.L82:
 1160              		.align	2
 1161              	.L81:
 1162 055c 00000000 		.word	buffer_rf
 1163 0560 00000000 		.word	side
 1164 0564 00000000 		.word	PriceChange
 1165 0568 00000000 		.word	CGrade
 1166 056c 00000000 		.word	buffer_tx
 1167 0570 00000000 		.word	symbols
 1168 0574 00000000 		.word	date
 1169 0578 00000000 		.word	time
 1170 057c 00000000 		.word	Encabezado1
 1171 0580 00000000 		.word	CopiasCredito
 1172 0584 00000000 		.word	GradesHose
 1173              		.cfi_endproc
 1174              	.LFE64:
 1175              		.size	pollingRF_Rx, .-pollingRF_Rx
 1176              		.section	.text.pollingRF_Tx,"ax",%progbits
ARM GAS  C:\Users\Diego\AppData\Local\Temp\cc6qIbsx.s 			page 27


 1177              		.align	2
 1178              		.global	pollingRF_Tx
 1179              		.thumb
 1180              		.thumb_func
 1181              		.type	pollingRF_Tx, %function
 1182              	pollingRF_Tx:
 1183              	.LFB65:
 261:.\RFPoll.c    **** }
 262:.\RFPoll.c    **** 
 263:.\RFPoll.c    **** void pollingRF_Tx(){
 1184              		.loc 1 263 0
 1185              		.cfi_startproc
 1186              		@ args = 0, pretend = 0, frame = 0
 1187              		@ frame_needed = 0, uses_anonymous_args = 0
 1188              		@ link register save eliminated.
 264:.\RFPoll.c    ****     if(countBeagleTX > 60){
 1189              		.loc 1 264 0
 1190 0000 064B     		ldr	r3, .L85
 1191 0002 D3E90023 		ldrd	r2, [r3]
 1192 0006 002B     		cmp	r3, #0
 1193 0008 08BF     		it	eq
 1194 000a 3D2A     		cmpeq	r2, #61
 1195 000c 04D3     		bcc	.L83
 265:.\RFPoll.c    ****         
 266:.\RFPoll.c    ****         countBeagleTX=0;
 1196              		.loc 1 266 0
 1197 000e 0020     		movs	r0, #0
 1198 0010 0021     		movs	r1, #0
 1199 0012 024B     		ldr	r3, .L85
 1200 0014 C3E90001 		strd	r0, [r3]
 1201              	.L83:
 1202 0018 7047     		bx	lr
 1203              	.L86:
 1204 001a 00BF     		.align	2
 1205              	.L85:
 1206 001c 00000000 		.word	countBeagleTX
 1207              		.cfi_endproc
 1208              	.LFE65:
 1209              		.size	pollingRF_Tx, .-pollingRF_Tx
 1210              		.comm	side,1044,4
 1211              		.comm	bufferDisplay4,332,4
 1212              		.comm	bufferDisplay3,332,4
 1213              		.comm	bufferDisplay2,332,4
 1214              		.comm	bufferDisplay1,332,4
 1215              		.comm	RFstateReport,1,1
 1216              		.comm	GradesHose,5,4
 1217              		.comm	CopiasCredito,1,1
 1218              		.comm	Encabezado1,30,4
 1219              		.comm	intIDStation,2,2
 1220              		.comm	buffer_txDisplay,1500,4
 1221              		.comm	buffer_tx,1500,4
 1222              		.comm	buffer_rf,1500,4
 1223              		.comm	printPortB,1,1
 1224              		.comm	printPortA,1,1
 1225              		.comm	pumpGap,3,4
 1226              		.comm	idStation,5,4
 1227              		.comm	controlChar,1,1
ARM GAS  C:\Users\Diego\AppData\Local\Temp\cc6qIbsx.s 			page 28


 1228              		.comm	configAccess,5,4
 1229              		.comm	count_protector2,1,1
 1230              		.comm	count_protector,1,1
 1231              		.comm	timeDownHandle,2,4
 1232              		.comm	dateDownHandle,3,4
 1233              		.comm	VolUnit,6,4
 1234              		.comm	PrinterType,1,1
 1235              		.comm	hiddenKeys,1,1
 1236              		.comm	digits,1,1
 1237              		.comm	lockTurn,1,1
 1238              		.comm	NumPositions,1,1
 1239              		.comm	statePump,4,4
 1240              		.comm	DDMode,1,1
 1241              		.comm	PPUDec,1,1
 1242              		.comm	VolDec,1,1
 1243              		.comm	MoneyDec,1,1
 1244              		.comm	ConversionFactor,1,1
 1245              		.comm	UnitType,1,1
 1246              		.comm	CGrade,1,1
 1247              		.comm	temporal,30,4
 1248              		.comm	PriceChange,1,1
 1249              		.comm	counterRF,1,1
 1250              		.comm	ActiveRF,1,1
 1251              		.comm	IDCast,2,4
 1252              		.comm	PlateRequest,1,1
 1253              		.comm	PrevStatePump,4,4
 1254              		.comm	stateBeagleSoft,1,1
 1255              		.comm	flagResetMux,1,1
 1256              		.comm	passwordSeller,8,4
 1257              		.comm	typeIdSeller,1,1
 1258              		.comm	idSeller,25,4
 1259              		.comm	residue,14,4
 1260              		.comm	screen,2,4
 1261              		.comm	date,3,4
 1262              		.comm	time,3,4
 1263              		.comm	symbols,2,4
 1264              		.comm	decimalVolume,1,1
 1265              		.comm	decimalMoney,1,1
 1266              		.comm	ppux10,1,1
 1267              		.comm	delayPicture2,4,4
 1268              		.comm	delayPicture1,4,4
 1269              		.comm	productNumber,1,1
 1270              		.comm	flagPoint2,1,1
 1271              		.comm	flagPoint1,1,1
 1272              		.comm	numberKeys2,1,1
 1273              		.comm	numberKeys1,1,1
 1274              		.comm	flowDisplay4,4,4
 1275              		.comm	flowDisplay3,4,4
 1276              		.comm	flowDisplay2,4,4
 1277              		.comm	flowDisplay1,4,4
 1278              		.comm	countPump,8,8
 1279              		.comm	countBeagleTX,8,8
 1280              		.comm	countAnimation2,8,8
 1281              		.comm	countAnimation1,8,8
 1282              		.section	.rodata
 1283              		.align	2
 1284              		.set	.LANCHOR0,. + 0
ARM GAS  C:\Users\Diego\AppData\Local\Temp\cc6qIbsx.s 			page 29


 1285              	.LC0:
 1286 0000 00       		.byte	0
 1287 0001 5E       		.byte	94
 1288 0002 BC       		.byte	-68
 1289 0003 E2       		.byte	-30
 1290 0004 61       		.byte	97
 1291 0005 3F       		.byte	63
 1292 0006 DD       		.byte	-35
 1293 0007 83       		.byte	-125
 1294 0008 C2       		.byte	-62
 1295 0009 9C       		.byte	-100
 1296 000a 7E       		.byte	126
 1297 000b 20       		.byte	32
 1298 000c A3       		.byte	-93
 1299 000d FD       		.byte	-3
 1300 000e 1F       		.byte	31
 1301 000f 41       		.byte	65
 1302 0010 9D       		.byte	-99
 1303 0011 C3       		.byte	-61
 1304 0012 21       		.byte	33
 1305 0013 7F       		.byte	127
 1306 0014 FC       		.byte	-4
 1307 0015 A2       		.byte	-94
 1308 0016 40       		.byte	64
 1309 0017 1E       		.byte	30
 1310 0018 5F       		.byte	95
 1311 0019 01       		.byte	1
 1312 001a E3       		.byte	-29
 1313 001b BD       		.byte	-67
 1314 001c 3E       		.byte	62
 1315 001d 60       		.byte	96
 1316 001e 82       		.byte	-126
 1317 001f DC       		.byte	-36
 1318 0020 23       		.byte	35
 1319 0021 7D       		.byte	125
 1320 0022 9F       		.byte	-97
 1321 0023 C1       		.byte	-63
 1322 0024 42       		.byte	66
 1323 0025 1C       		.byte	28
 1324 0026 FE       		.byte	-2
 1325 0027 A0       		.byte	-96
 1326 0028 E1       		.byte	-31
 1327 0029 BF       		.byte	-65
 1328 002a 5D       		.byte	93
 1329 002b 03       		.byte	3
 1330 002c 80       		.byte	-128
 1331 002d DE       		.byte	-34
 1332 002e 3C       		.byte	60
 1333 002f 62       		.byte	98
 1334 0030 BE       		.byte	-66
 1335 0031 E0       		.byte	-32
 1336 0032 02       		.byte	2
 1337 0033 5C       		.byte	92
 1338 0034 DF       		.byte	-33
 1339 0035 81       		.byte	-127
 1340 0036 63       		.byte	99
 1341 0037 3D       		.byte	61
ARM GAS  C:\Users\Diego\AppData\Local\Temp\cc6qIbsx.s 			page 30


 1342 0038 7C       		.byte	124
 1343 0039 22       		.byte	34
 1344 003a C0       		.byte	-64
 1345 003b 9E       		.byte	-98
 1346 003c 1D       		.byte	29
 1347 003d 43       		.byte	67
 1348 003e A1       		.byte	-95
 1349 003f FF       		.byte	-1
 1350 0040 46       		.byte	70
 1351 0041 18       		.byte	24
 1352 0042 FA       		.byte	-6
 1353 0043 A4       		.byte	-92
 1354 0044 27       		.byte	39
 1355 0045 79       		.byte	121
 1356 0046 9B       		.byte	-101
 1357 0047 C5       		.byte	-59
 1358 0048 84       		.byte	-124
 1359 0049 DA       		.byte	-38
 1360 004a 38       		.byte	56
 1361 004b 66       		.byte	102
 1362 004c E5       		.byte	-27
 1363 004d BB       		.byte	-69
 1364 004e 59       		.byte	89
 1365 004f 07       		.byte	7
 1366 0050 DB       		.byte	-37
 1367 0051 85       		.byte	-123
 1368 0052 67       		.byte	103
 1369 0053 39       		.byte	57
 1370 0054 BA       		.byte	-70
 1371 0055 E4       		.byte	-28
 1372 0056 06       		.byte	6
 1373 0057 58       		.byte	88
 1374 0058 19       		.byte	25
 1375 0059 47       		.byte	71
 1376 005a A5       		.byte	-91
 1377 005b FB       		.byte	-5
 1378 005c 78       		.byte	120
 1379 005d 26       		.byte	38
 1380 005e C4       		.byte	-60
 1381 005f 9A       		.byte	-102
 1382 0060 65       		.byte	101
 1383 0061 3B       		.byte	59
 1384 0062 D9       		.byte	-39
 1385 0063 87       		.byte	-121
 1386 0064 04       		.byte	4
 1387 0065 5A       		.byte	90
 1388 0066 B8       		.byte	-72
 1389 0067 E6       		.byte	-26
 1390 0068 A7       		.byte	-89
 1391 0069 F9       		.byte	-7
 1392 006a 1B       		.byte	27
 1393 006b 45       		.byte	69
 1394 006c C6       		.byte	-58
 1395 006d 98       		.byte	-104
 1396 006e 7A       		.byte	122
 1397 006f 24       		.byte	36
 1398 0070 F8       		.byte	-8
ARM GAS  C:\Users\Diego\AppData\Local\Temp\cc6qIbsx.s 			page 31


 1399 0071 A6       		.byte	-90
 1400 0072 44       		.byte	68
 1401 0073 1A       		.byte	26
 1402 0074 99       		.byte	-103
 1403 0075 C7       		.byte	-57
 1404 0076 25       		.byte	37
 1405 0077 7B       		.byte	123
 1406 0078 3A       		.byte	58
 1407 0079 64       		.byte	100
 1408 007a 86       		.byte	-122
 1409 007b D8       		.byte	-40
 1410 007c 5B       		.byte	91
 1411 007d 05       		.byte	5
 1412 007e E7       		.byte	-25
 1413 007f B9       		.byte	-71
 1414 0080 8C       		.byte	-116
 1415 0081 D2       		.byte	-46
 1416 0082 30       		.byte	48
 1417 0083 6E       		.byte	110
 1418 0084 ED       		.byte	-19
 1419 0085 B3       		.byte	-77
 1420 0086 51       		.byte	81
 1421 0087 0F       		.byte	15
 1422 0088 4E       		.byte	78
 1423 0089 10       		.byte	16
 1424 008a F2       		.byte	-14
 1425 008b AC       		.byte	-84
 1426 008c 2F       		.byte	47
 1427 008d 71       		.byte	113
 1428 008e 93       		.byte	-109
 1429 008f CD       		.byte	-51
 1430 0090 11       		.byte	17
 1431 0091 4F       		.byte	79
 1432 0092 AD       		.byte	-83
 1433 0093 F3       		.byte	-13
 1434 0094 70       		.byte	112
 1435 0095 2E       		.byte	46
 1436 0096 CC       		.byte	-52
 1437 0097 92       		.byte	-110
 1438 0098 D3       		.byte	-45
 1439 0099 8D       		.byte	-115
 1440 009a 6F       		.byte	111
 1441 009b 31       		.byte	49
 1442 009c B2       		.byte	-78
 1443 009d EC       		.byte	-20
 1444 009e 0E       		.byte	14
 1445 009f 50       		.byte	80
 1446 00a0 AF       		.byte	-81
 1447 00a1 F1       		.byte	-15
 1448 00a2 13       		.byte	19
 1449 00a3 4D       		.byte	77
 1450 00a4 CE       		.byte	-50
 1451 00a5 90       		.byte	-112
 1452 00a6 72       		.byte	114
 1453 00a7 2C       		.byte	44
 1454 00a8 6D       		.byte	109
 1455 00a9 33       		.byte	51
ARM GAS  C:\Users\Diego\AppData\Local\Temp\cc6qIbsx.s 			page 32


 1456 00aa D1       		.byte	-47
 1457 00ab 8F       		.byte	-113
 1458 00ac 0C       		.byte	12
 1459 00ad 52       		.byte	82
 1460 00ae B0       		.byte	-80
 1461 00af EE       		.byte	-18
 1462 00b0 32       		.byte	50
 1463 00b1 6C       		.byte	108
 1464 00b2 8E       		.byte	-114
 1465 00b3 D0       		.byte	-48
 1466 00b4 53       		.byte	83
 1467 00b5 0D       		.byte	13
 1468 00b6 EF       		.byte	-17
 1469 00b7 B1       		.byte	-79
 1470 00b8 F0       		.byte	-16
 1471 00b9 AE       		.byte	-82
 1472 00ba 4C       		.byte	76
 1473 00bb 12       		.byte	18
 1474 00bc 91       		.byte	-111
 1475 00bd CF       		.byte	-49
 1476 00be 2D       		.byte	45
 1477 00bf 73       		.byte	115
 1478 00c0 CA       		.byte	-54
 1479 00c1 94       		.byte	-108
 1480 00c2 76       		.byte	118
 1481 00c3 28       		.byte	40
 1482 00c4 AB       		.byte	-85
 1483 00c5 F5       		.byte	-11
 1484 00c6 17       		.byte	23
 1485 00c7 49       		.byte	73
 1486 00c8 08       		.byte	8
 1487 00c9 56       		.byte	86
 1488 00ca B4       		.byte	-76
 1489 00cb EA       		.byte	-22
 1490 00cc 69       		.byte	105
 1491 00cd 37       		.byte	55
 1492 00ce D5       		.byte	-43
 1493 00cf 8B       		.byte	-117
 1494 00d0 57       		.byte	87
 1495 00d1 09       		.byte	9
 1496 00d2 EB       		.byte	-21
 1497 00d3 B5       		.byte	-75
 1498 00d4 36       		.byte	54
 1499 00d5 68       		.byte	104
 1500 00d6 8A       		.byte	-118
 1501 00d7 D4       		.byte	-44
 1502 00d8 95       		.byte	-107
 1503 00d9 CB       		.byte	-53
 1504 00da 29       		.byte	41
 1505 00db 77       		.byte	119
 1506 00dc F4       		.byte	-12
 1507 00dd AA       		.byte	-86
 1508 00de 48       		.byte	72
 1509 00df 16       		.byte	22
 1510 00e0 E9       		.byte	-23
 1511 00e1 B7       		.byte	-73
 1512 00e2 55       		.byte	85
ARM GAS  C:\Users\Diego\AppData\Local\Temp\cc6qIbsx.s 			page 33


 1513 00e3 0B       		.byte	11
 1514 00e4 88       		.byte	-120
 1515 00e5 D6       		.byte	-42
 1516 00e6 34       		.byte	52
 1517 00e7 6A       		.byte	106
 1518 00e8 2B       		.byte	43
 1519 00e9 75       		.byte	117
 1520 00ea 97       		.byte	-105
 1521 00eb C9       		.byte	-55
 1522 00ec 4A       		.byte	74
 1523 00ed 14       		.byte	20
 1524 00ee F6       		.byte	-10
 1525 00ef A8       		.byte	-88
 1526 00f0 74       		.byte	116
 1527 00f1 2A       		.byte	42
 1528 00f2 C8       		.byte	-56
 1529 00f3 96       		.byte	-106
 1530 00f4 15       		.byte	21
 1531 00f5 4B       		.byte	75
 1532 00f6 A9       		.byte	-87
 1533 00f7 F7       		.byte	-9
 1534 00f8 B6       		.byte	-74
 1535 00f9 E8       		.byte	-24
 1536 00fa 0A       		.byte	10
 1537 00fb 54       		.byte	84
 1538 00fc D7       		.byte	-41
 1539 00fd 89       		.byte	-119
 1540 00fe 6B       		.byte	107
 1541 00ff 35       		.byte	53
 1542              		.text
 1543              	.Letext0:
 1544              		.file 2 "c:\\program files (x86)\\cypress\\psoc creator\\3.3\\psoc creator\\import\\gnu\\arm\\4.9.
 1545              		.file 3 "c:\\program files (x86)\\cypress\\psoc creator\\3.3\\psoc creator\\import\\gnu\\arm\\4.9.
 1546              		.file 4 "Generated_Source\\PSoC5/cytypes.h"
 1547              		.file 5 "./variables.h"
 1548              		.file 6 "Generated_Source\\PSoC5/core_cm3.h"
 1549              		.file 7 "Generated_Source\\PSoC5/RF_Connection.h"
 1550              		.file 8 "./I2C.h"
 1551              		.section	.debug_info,"",%progbits
 1552              	.Ldebug_info0:
 1553 0000 6D0C0000 		.4byte	0xc6d
 1554 0004 0400     		.2byte	0x4
 1555 0006 00000000 		.4byte	.Ldebug_abbrev0
 1556 000a 04       		.byte	0x4
 1557 000b 01       		.uleb128 0x1
 1558 000c C6060000 		.4byte	.LASF160
 1559 0010 01       		.byte	0x1
 1560 0011 8D030000 		.4byte	.LASF161
 1561 0015 74040000 		.4byte	.LASF162
 1562 0019 00000000 		.4byte	.Ldebug_ranges0+0
 1563 001d 00000000 		.4byte	0
 1564 0021 00000000 		.4byte	.Ldebug_line0
 1565 0025 02       		.uleb128 0x2
 1566 0026 01       		.byte	0x1
 1567 0027 06       		.byte	0x6
 1568 0028 9F070000 		.4byte	.LASF0
 1569 002c 02       		.uleb128 0x2
ARM GAS  C:\Users\Diego\AppData\Local\Temp\cc6qIbsx.s 			page 34


 1570 002d 01       		.byte	0x1
 1571 002e 08       		.byte	0x8
 1572 002f B8060000 		.4byte	.LASF1
 1573 0033 02       		.uleb128 0x2
 1574 0034 02       		.byte	0x2
 1575 0035 05       		.byte	0x5
 1576 0036 58050000 		.4byte	.LASF2
 1577 003a 02       		.uleb128 0x2
 1578 003b 02       		.byte	0x2
 1579 003c 07       		.byte	0x7
 1580 003d BB070000 		.4byte	.LASF3
 1581 0041 03       		.uleb128 0x3
 1582 0042 DB000000 		.4byte	.LASF9
 1583 0046 02       		.byte	0x2
 1584 0047 3F       		.byte	0x3f
 1585 0048 4C000000 		.4byte	0x4c
 1586 004c 02       		.uleb128 0x2
 1587 004d 04       		.byte	0x4
 1588 004e 05       		.byte	0x5
 1589 004f 62050000 		.4byte	.LASF4
 1590 0053 02       		.uleb128 0x2
 1591 0054 04       		.byte	0x4
 1592 0055 07       		.byte	0x7
 1593 0056 70060000 		.4byte	.LASF5
 1594 005a 02       		.uleb128 0x2
 1595 005b 08       		.byte	0x8
 1596 005c 05       		.byte	0x5
 1597 005d CF030000 		.4byte	.LASF6
 1598 0061 02       		.uleb128 0x2
 1599 0062 08       		.byte	0x8
 1600 0063 07       		.byte	0x7
 1601 0064 B6010000 		.4byte	.LASF7
 1602 0068 04       		.uleb128 0x4
 1603 0069 04       		.byte	0x4
 1604 006a 05       		.byte	0x5
 1605 006b 696E7400 		.ascii	"int\000"
 1606 006f 02       		.uleb128 0x2
 1607 0070 04       		.byte	0x4
 1608 0071 07       		.byte	0x7
 1609 0072 C2000000 		.4byte	.LASF8
 1610 0076 03       		.uleb128 0x3
 1611 0077 9E060000 		.4byte	.LASF10
 1612 007b 03       		.byte	0x3
 1613 007c 2C       		.byte	0x2c
 1614 007d 41000000 		.4byte	0x41
 1615 0081 05       		.uleb128 0x5
 1616 0082 EB070000 		.4byte	.LASF11
 1617 0086 04       		.byte	0x4
 1618 0087 3801     		.2byte	0x138
 1619 0089 2C000000 		.4byte	0x2c
 1620 008d 05       		.uleb128 0x5
 1621 008e 46030000 		.4byte	.LASF12
 1622 0092 04       		.byte	0x4
 1623 0093 3901     		.2byte	0x139
 1624 0095 3A000000 		.4byte	0x3a
 1625 0099 05       		.uleb128 0x5
 1626 009a 60040000 		.4byte	.LASF13
ARM GAS  C:\Users\Diego\AppData\Local\Temp\cc6qIbsx.s 			page 35


 1627 009e 04       		.byte	0x4
 1628 009f 3A01     		.2byte	0x13a
 1629 00a1 53000000 		.4byte	0x53
 1630 00a5 02       		.uleb128 0x2
 1631 00a6 04       		.byte	0x4
 1632 00a7 04       		.byte	0x4
 1633 00a8 71010000 		.4byte	.LASF14
 1634 00ac 02       		.uleb128 0x2
 1635 00ad 08       		.byte	0x8
 1636 00ae 04       		.byte	0x4
 1637 00af F1070000 		.4byte	.LASF15
 1638 00b3 05       		.uleb128 0x5
 1639 00b4 2F060000 		.4byte	.LASF16
 1640 00b8 04       		.byte	0x4
 1641 00b9 4401     		.2byte	0x144
 1642 00bb 61000000 		.4byte	0x61
 1643 00bf 05       		.uleb128 0x5
 1644 00c0 68030000 		.4byte	.LASF17
 1645 00c4 04       		.byte	0x4
 1646 00c5 4901     		.2byte	0x149
 1647 00c7 CB000000 		.4byte	0xcb
 1648 00cb 02       		.uleb128 0x2
 1649 00cc 01       		.byte	0x1
 1650 00cd 08       		.byte	0x8
 1651 00ce 04030000 		.4byte	.LASF18
 1652 00d2 06       		.uleb128 0x6
 1653 00d3 81000000 		.4byte	0x81
 1654 00d7 06       		.uleb128 0x6
 1655 00d8 99000000 		.4byte	0x99
 1656 00dc 02       		.uleb128 0x2
 1657 00dd 04       		.byte	0x4
 1658 00de 07       		.byte	0x7
 1659 00df 67060000 		.4byte	.LASF19
 1660 00e3 07       		.uleb128 0x7
 1661 00e4 04       		.byte	0x4
 1662 00e5 08       		.uleb128 0x8
 1663 00e6 81000000 		.4byte	0x81
 1664 00ea F5000000 		.4byte	0xf5
 1665 00ee 09       		.uleb128 0x9
 1666 00ef DC000000 		.4byte	0xdc
 1667 00f3 03       		.byte	0x3
 1668 00f4 00       		.byte	0
 1669 00f5 0A       		.uleb128 0xa
 1670 00f6 98000000 		.4byte	.LASF62
 1671 00fa 4C01     		.2byte	0x14c
 1672 00fc 05       		.byte	0x5
 1673 00fd 75       		.byte	0x75
 1674 00fe 09030000 		.4byte	0x309
 1675 0102 0B       		.uleb128 0xb
 1676 0103 FC000000 		.4byte	.LASF20
 1677 0107 05       		.byte	0x5
 1678 0108 76       		.byte	0x76
 1679 0109 81000000 		.4byte	0x81
 1680 010d 00       		.byte	0
 1681 010e 0B       		.uleb128 0xb
 1682 010f 5E020000 		.4byte	.LASF21
 1683 0113 05       		.byte	0x5
ARM GAS  C:\Users\Diego\AppData\Local\Temp\cc6qIbsx.s 			page 36


 1684 0114 77       		.byte	0x77
 1685 0115 09030000 		.4byte	0x309
 1686 0119 01       		.byte	0x1
 1687 011a 0B       		.uleb128 0xb
 1688 011b F8070000 		.4byte	.LASF22
 1689 011f 05       		.byte	0x5
 1690 0120 78       		.byte	0x78
 1691 0121 81000000 		.4byte	0x81
 1692 0125 1A       		.byte	0x1a
 1693 0126 0B       		.uleb128 0xb
 1694 0127 A6060000 		.4byte	.LASF23
 1695 012b 05       		.byte	0x5
 1696 012c 79       		.byte	0x79
 1697 012d 81000000 		.4byte	0x81
 1698 0131 1B       		.byte	0x1b
 1699 0132 0B       		.uleb128 0xb
 1700 0133 19010000 		.4byte	.LASF24
 1701 0137 05       		.byte	0x5
 1702 0138 7A       		.byte	0x7a
 1703 0139 19030000 		.4byte	0x319
 1704 013d 1C       		.byte	0x1c
 1705 013e 0B       		.uleb128 0xb
 1706 013f 0B050000 		.4byte	.LASF25
 1707 0143 05       		.byte	0x5
 1708 0144 7B       		.byte	0x7b
 1709 0145 19030000 		.4byte	0x319
 1710 0149 26       		.byte	0x26
 1711 014a 0B       		.uleb128 0xb
 1712 014b 1E080000 		.4byte	.LASF26
 1713 014f 05       		.byte	0x5
 1714 0150 7C       		.byte	0x7c
 1715 0151 09030000 		.4byte	0x309
 1716 0155 30       		.byte	0x30
 1717 0156 0B       		.uleb128 0xb
 1718 0157 D5040000 		.4byte	.LASF27
 1719 015b 05       		.byte	0x5
 1720 015c 7D       		.byte	0x7d
 1721 015d 81000000 		.4byte	0x81
 1722 0161 49       		.byte	0x49
 1723 0162 0B       		.uleb128 0xb
 1724 0163 54070000 		.4byte	.LASF28
 1725 0167 05       		.byte	0x5
 1726 0168 7E       		.byte	0x7e
 1727 0169 81000000 		.4byte	0x81
 1728 016d 4A       		.byte	0x4a
 1729 016e 0B       		.uleb128 0xb
 1730 016f FA020000 		.4byte	.LASF29
 1731 0173 05       		.byte	0x5
 1732 0174 7F       		.byte	0x7f
 1733 0175 29030000 		.4byte	0x329
 1734 0179 4B       		.byte	0x4b
 1735 017a 0B       		.uleb128 0xb
 1736 017b 42040000 		.4byte	.LASF30
 1737 017f 05       		.byte	0x5
 1738 0180 80       		.byte	0x80
 1739 0181 81000000 		.4byte	0x81
 1740 0185 60       		.byte	0x60
ARM GAS  C:\Users\Diego\AppData\Local\Temp\cc6qIbsx.s 			page 37


 1741 0186 0B       		.uleb128 0xb
 1742 0187 F1020000 		.4byte	.LASF31
 1743 018b 05       		.byte	0x5
 1744 018c 81       		.byte	0x81
 1745 018d 81000000 		.4byte	0x81
 1746 0191 61       		.byte	0x61
 1747 0192 0B       		.uleb128 0xb
 1748 0193 B6000000 		.4byte	.LASF32
 1749 0197 05       		.byte	0x5
 1750 0198 82       		.byte	0x82
 1751 0199 81000000 		.4byte	0x81
 1752 019d 62       		.byte	0x62
 1753 019e 0B       		.uleb128 0xb
 1754 019f 7B070000 		.4byte	.LASF33
 1755 01a3 05       		.byte	0x5
 1756 01a4 83       		.byte	0x83
 1757 01a5 39030000 		.4byte	0x339
 1758 01a9 63       		.byte	0x63
 1759 01aa 0B       		.uleb128 0xb
 1760 01ab DA020000 		.4byte	.LASF34
 1761 01af 05       		.byte	0x5
 1762 01b0 84       		.byte	0x84
 1763 01b1 49030000 		.4byte	0x349
 1764 01b5 65       		.byte	0x65
 1765 01b6 0B       		.uleb128 0xb
 1766 01b7 3B020000 		.4byte	.LASF35
 1767 01bb 05       		.byte	0x5
 1768 01bc 85       		.byte	0x85
 1769 01bd 81000000 		.4byte	0x81
 1770 01c1 79       		.byte	0x79
 1771 01c2 0B       		.uleb128 0xb
 1772 01c3 52060000 		.4byte	.LASF36
 1773 01c7 05       		.byte	0x5
 1774 01c8 86       		.byte	0x86
 1775 01c9 5F030000 		.4byte	0x35f
 1776 01cd 7A       		.byte	0x7a
 1777 01ce 0B       		.uleb128 0xb
 1778 01cf B3050000 		.4byte	.LASF37
 1779 01d3 05       		.byte	0x5
 1780 01d4 87       		.byte	0x87
 1781 01d5 6F030000 		.4byte	0x36f
 1782 01d9 7F       		.byte	0x7f
 1783 01da 0B       		.uleb128 0xb
 1784 01db 01080000 		.4byte	.LASF38
 1785 01df 05       		.byte	0x5
 1786 01e0 88       		.byte	0x88
 1787 01e1 6F030000 		.4byte	0x36f
 1788 01e5 85       		.byte	0x85
 1789 01e6 0B       		.uleb128 0xb
 1790 01e7 ED040000 		.4byte	.LASF39
 1791 01eb 05       		.byte	0x5
 1792 01ec 89       		.byte	0x89
 1793 01ed 7F030000 		.4byte	0x37f
 1794 01f1 8B       		.byte	0x8b
 1795 01f2 0B       		.uleb128 0xb
 1796 01f3 CD010000 		.4byte	.LASF40
 1797 01f7 05       		.byte	0x5
ARM GAS  C:\Users\Diego\AppData\Local\Temp\cc6qIbsx.s 			page 38


 1798 01f8 8A       		.byte	0x8a
 1799 01f9 7F030000 		.4byte	0x37f
 1800 01fd 99       		.byte	0x99
 1801 01fe 0B       		.uleb128 0xb
 1802 01ff 12040000 		.4byte	.LASF41
 1803 0203 05       		.byte	0x5
 1804 0204 8B       		.byte	0x8b
 1805 0205 7F030000 		.4byte	0x37f
 1806 0209 A7       		.byte	0xa7
 1807 020a 0B       		.uleb128 0xb
 1808 020b 7D030000 		.4byte	.LASF42
 1809 020f 05       		.byte	0x5
 1810 0210 8C       		.byte	0x8c
 1811 0211 7F030000 		.4byte	0x37f
 1812 0215 B5       		.byte	0xb5
 1813 0216 0B       		.uleb128 0xb
 1814 0217 15060000 		.4byte	.LASF43
 1815 021b 05       		.byte	0x5
 1816 021c 8D       		.byte	0x8d
 1817 021d 7F030000 		.4byte	0x37f
 1818 0221 C3       		.byte	0xc3
 1819 0222 0B       		.uleb128 0xb
 1820 0223 C7040000 		.4byte	.LASF44
 1821 0227 05       		.byte	0x5
 1822 0228 8E       		.byte	0x8e
 1823 0229 7F030000 		.4byte	0x37f
 1824 022d D1       		.byte	0xd1
 1825 022e 0B       		.uleb128 0xb
 1826 022f 3F050000 		.4byte	.LASF45
 1827 0233 05       		.byte	0x5
 1828 0234 8F       		.byte	0x8f
 1829 0235 8F030000 		.4byte	0x38f
 1830 0239 DF       		.byte	0xdf
 1831 023a 0B       		.uleb128 0xb
 1832 023b 70020000 		.4byte	.LASF46
 1833 023f 05       		.byte	0x5
 1834 0240 90       		.byte	0x90
 1835 0241 8F030000 		.4byte	0x38f
 1836 0245 EA       		.byte	0xea
 1837 0246 0B       		.uleb128 0xb
 1838 0247 E6020000 		.4byte	.LASF47
 1839 024b 05       		.byte	0x5
 1840 024c 91       		.byte	0x91
 1841 024d 8F030000 		.4byte	0x38f
 1842 0251 F5       		.byte	0xf5
 1843 0252 0C       		.uleb128 0xc
 1844 0253 4E040000 		.4byte	.LASF48
 1845 0257 05       		.byte	0x5
 1846 0258 92       		.byte	0x92
 1847 0259 81000000 		.4byte	0x81
 1848 025d 0001     		.2byte	0x100
 1849 025f 0C       		.uleb128 0xc
 1850 0260 5C030000 		.4byte	.LASF49
 1851 0264 05       		.byte	0x5
 1852 0265 93       		.byte	0x93
 1853 0266 81000000 		.4byte	0x81
 1854 026a 0101     		.2byte	0x101
ARM GAS  C:\Users\Diego\AppData\Local\Temp\cc6qIbsx.s 			page 39


 1855 026c 0C       		.uleb128 0xc
 1856 026d E5000000 		.4byte	.LASF50
 1857 0271 05       		.byte	0x5
 1858 0272 94       		.byte	0x94
 1859 0273 81000000 		.4byte	0x81
 1860 0277 0201     		.2byte	0x102
 1861 0279 0C       		.uleb128 0xc
 1862 027a A7050000 		.4byte	.LASF51
 1863 027e 05       		.byte	0x5
 1864 027f 95       		.byte	0x95
 1865 0280 81000000 		.4byte	0x81
 1866 0284 0301     		.2byte	0x103
 1867 0286 0C       		.uleb128 0xc
 1868 0287 98030000 		.4byte	.LASF52
 1869 028b 05       		.byte	0x5
 1870 028c 96       		.byte	0x96
 1871 028d 19030000 		.4byte	0x319
 1872 0291 0401     		.2byte	0x104
 1873 0293 0C       		.uleb128 0xc
 1874 0294 82000000 		.4byte	.LASF53
 1875 0298 05       		.byte	0x5
 1876 0299 97       		.byte	0x97
 1877 029a 19030000 		.4byte	0x319
 1878 029e 0E01     		.2byte	0x10e
 1879 02a0 0C       		.uleb128 0xc
 1880 02a1 6E030000 		.4byte	.LASF54
 1881 02a5 05       		.byte	0x5
 1882 02a6 98       		.byte	0x98
 1883 02a7 19030000 		.4byte	0x319
 1884 02ab 1801     		.2byte	0x118
 1885 02ad 0C       		.uleb128 0xc
 1886 02ae 4B050000 		.4byte	.LASF55
 1887 02b2 05       		.byte	0x5
 1888 02b3 99       		.byte	0x99
 1889 02b4 9F030000 		.4byte	0x39f
 1890 02b8 2201     		.2byte	0x122
 1891 02ba 0C       		.uleb128 0xc
 1892 02bb A3030000 		.4byte	.LASF56
 1893 02bf 05       		.byte	0x5
 1894 02c0 9A       		.byte	0x9a
 1895 02c1 39030000 		.4byte	0x339
 1896 02c5 3101     		.2byte	0x131
 1897 02c7 0C       		.uleb128 0xc
 1898 02c8 7C020000 		.4byte	.LASF57
 1899 02cc 05       		.byte	0x5
 1900 02cd 9B       		.byte	0x9b
 1901 02ce 81000000 		.4byte	0x81
 1902 02d2 3301     		.2byte	0x133
 1903 02d4 0C       		.uleb128 0xc
 1904 02d5 94060000 		.4byte	.LASF58
 1905 02d9 05       		.byte	0x5
 1906 02da 9C       		.byte	0x9c
 1907 02db 81000000 		.4byte	0x81
 1908 02df 3401     		.2byte	0x134
 1909 02e1 0C       		.uleb128 0xc
 1910 02e2 8A020000 		.4byte	.LASF59
 1911 02e6 05       		.byte	0x5
ARM GAS  C:\Users\Diego\AppData\Local\Temp\cc6qIbsx.s 			page 40


 1912 02e7 9D       		.byte	0x9d
 1913 02e8 81000000 		.4byte	0x81
 1914 02ec 3501     		.2byte	0x135
 1915 02ee 0C       		.uleb128 0xc
 1916 02ef 92050000 		.4byte	.LASF60
 1917 02f3 05       		.byte	0x5
 1918 02f4 9E       		.byte	0x9e
 1919 02f5 8F030000 		.4byte	0x38f
 1920 02f9 3601     		.2byte	0x136
 1921 02fb 0C       		.uleb128 0xc
 1922 02fc 91070000 		.4byte	.LASF61
 1923 0300 05       		.byte	0x5
 1924 0301 9F       		.byte	0x9f
 1925 0302 8F030000 		.4byte	0x38f
 1926 0306 4101     		.2byte	0x141
 1927 0308 00       		.byte	0
 1928 0309 08       		.uleb128 0x8
 1929 030a 81000000 		.4byte	0x81
 1930 030e 19030000 		.4byte	0x319
 1931 0312 09       		.uleb128 0x9
 1932 0313 DC000000 		.4byte	0xdc
 1933 0317 18       		.byte	0x18
 1934 0318 00       		.byte	0
 1935 0319 08       		.uleb128 0x8
 1936 031a 81000000 		.4byte	0x81
 1937 031e 29030000 		.4byte	0x329
 1938 0322 09       		.uleb128 0x9
 1939 0323 DC000000 		.4byte	0xdc
 1940 0327 09       		.byte	0x9
 1941 0328 00       		.byte	0
 1942 0329 08       		.uleb128 0x8
 1943 032a 81000000 		.4byte	0x81
 1944 032e 39030000 		.4byte	0x339
 1945 0332 09       		.uleb128 0x9
 1946 0333 DC000000 		.4byte	0xdc
 1947 0337 14       		.byte	0x14
 1948 0338 00       		.byte	0
 1949 0339 08       		.uleb128 0x8
 1950 033a 81000000 		.4byte	0x81
 1951 033e 49030000 		.4byte	0x349
 1952 0342 09       		.uleb128 0x9
 1953 0343 DC000000 		.4byte	0xdc
 1954 0347 01       		.byte	0x1
 1955 0348 00       		.byte	0
 1956 0349 08       		.uleb128 0x8
 1957 034a 81000000 		.4byte	0x81
 1958 034e 5F030000 		.4byte	0x35f
 1959 0352 09       		.uleb128 0x9
 1960 0353 DC000000 		.4byte	0xdc
 1961 0357 01       		.byte	0x1
 1962 0358 09       		.uleb128 0x9
 1963 0359 DC000000 		.4byte	0xdc
 1964 035d 09       		.byte	0x9
 1965 035e 00       		.byte	0
 1966 035f 08       		.uleb128 0x8
 1967 0360 81000000 		.4byte	0x81
 1968 0364 6F030000 		.4byte	0x36f
ARM GAS  C:\Users\Diego\AppData\Local\Temp\cc6qIbsx.s 			page 41


 1969 0368 09       		.uleb128 0x9
 1970 0369 DC000000 		.4byte	0xdc
 1971 036d 04       		.byte	0x4
 1972 036e 00       		.byte	0
 1973 036f 08       		.uleb128 0x8
 1974 0370 81000000 		.4byte	0x81
 1975 0374 7F030000 		.4byte	0x37f
 1976 0378 09       		.uleb128 0x9
 1977 0379 DC000000 		.4byte	0xdc
 1978 037d 05       		.byte	0x5
 1979 037e 00       		.byte	0
 1980 037f 08       		.uleb128 0x8
 1981 0380 81000000 		.4byte	0x81
 1982 0384 8F030000 		.4byte	0x38f
 1983 0388 09       		.uleb128 0x9
 1984 0389 DC000000 		.4byte	0xdc
 1985 038d 0D       		.byte	0xd
 1986 038e 00       		.byte	0
 1987 038f 08       		.uleb128 0x8
 1988 0390 81000000 		.4byte	0x81
 1989 0394 9F030000 		.4byte	0x39f
 1990 0398 09       		.uleb128 0x9
 1991 0399 DC000000 		.4byte	0xdc
 1992 039d 0A       		.byte	0xa
 1993 039e 00       		.byte	0
 1994 039f 08       		.uleb128 0x8
 1995 03a0 81000000 		.4byte	0x81
 1996 03a4 AF030000 		.4byte	0x3af
 1997 03a8 09       		.uleb128 0x9
 1998 03a9 DC000000 		.4byte	0xdc
 1999 03ad 0E       		.byte	0xe
 2000 03ae 00       		.byte	0
 2001 03af 0A       		.uleb128 0xa
 2002 03b0 31080000 		.4byte	.LASF63
 2003 03b4 0501     		.2byte	0x105
 2004 03b6 05       		.byte	0x5
 2005 03b7 B0       		.byte	0xb0
 2006 03b8 52040000 		.4byte	0x452
 2007 03bc 0D       		.uleb128 0xd
 2008 03bd 64697200 		.ascii	"dir\000"
 2009 03c1 05       		.byte	0x5
 2010 03c2 B1       		.byte	0xb1
 2011 03c3 81000000 		.4byte	0x81
 2012 03c7 00       		.byte	0
 2013 03c8 0B       		.uleb128 0xb
 2014 03c9 CD020000 		.4byte	.LASF64
 2015 03cd 05       		.byte	0x5
 2016 03ce B2       		.byte	0xb2
 2017 03cf 52040000 		.4byte	0x452
 2018 03d3 01       		.byte	0x1
 2019 03d4 0B       		.uleb128 0xb
 2020 03d5 10080000 		.4byte	.LASF65
 2021 03d9 05       		.byte	0x5
 2022 03da B3       		.byte	0xb3
 2023 03db 6E040000 		.4byte	0x46e
 2024 03df B5       		.byte	0xb5
 2025 03e0 0B       		.uleb128 0xb
ARM GAS  C:\Users\Diego\AppData\Local\Temp\cc6qIbsx.s 			page 42


 2026 03e1 C5030000 		.4byte	.LASF66
 2027 03e5 05       		.byte	0x5
 2028 03e6 B4       		.byte	0xb4
 2029 03e7 7F030000 		.4byte	0x37f
 2030 03eb D5       		.byte	0xd5
 2031 03ec 0B       		.uleb128 0xb
 2032 03ed 86070000 		.4byte	.LASF67
 2033 03f1 05       		.byte	0x5
 2034 03f2 B5       		.byte	0xb5
 2035 03f3 7F030000 		.4byte	0x37f
 2036 03f7 E3       		.byte	0xe3
 2037 03f8 0B       		.uleb128 0xb
 2038 03f9 DD030000 		.4byte	.LASF68
 2039 03fd 05       		.byte	0x5
 2040 03fe B6       		.byte	0xb6
 2041 03ff 7F030000 		.4byte	0x37f
 2042 0403 F1       		.byte	0xf1
 2043 0404 0B       		.uleb128 0xb
 2044 0405 DF070000 		.4byte	.LASF69
 2045 0409 05       		.byte	0x5
 2046 040a B7       		.byte	0xb7
 2047 040b 81000000 		.4byte	0x81
 2048 040f FF       		.byte	0xff
 2049 0410 0C       		.uleb128 0xc
 2050 0411 89060000 		.4byte	.LASF70
 2051 0415 05       		.byte	0x5
 2052 0416 B8       		.byte	0xb8
 2053 0417 81000000 		.4byte	0x81
 2054 041b 0001     		.2byte	0x100
 2055 041d 0C       		.uleb128 0xc
 2056 041e A2010000 		.4byte	.LASF71
 2057 0422 05       		.byte	0x5
 2058 0423 B9       		.byte	0xb9
 2059 0424 81000000 		.4byte	0x81
 2060 0428 0101     		.2byte	0x101
 2061 042a 0C       		.uleb128 0xc
 2062 042b C2050000 		.4byte	.LASF72
 2063 042f 05       		.byte	0x5
 2064 0430 BA       		.byte	0xba
 2065 0431 81000000 		.4byte	0x81
 2066 0435 0201     		.2byte	0x102
 2067 0437 0C       		.uleb128 0xc
 2068 0438 51080000 		.4byte	.LASF73
 2069 043c 05       		.byte	0x5
 2070 043d BB       		.byte	0xbb
 2071 043e 81000000 		.4byte	0x81
 2072 0442 0301     		.2byte	0x103
 2073 0444 0C       		.uleb128 0xc
 2074 0445 52030000 		.4byte	.LASF74
 2075 0449 05       		.byte	0x5
 2076 044a BC       		.byte	0xbc
 2077 044b 81000000 		.4byte	0x81
 2078 044f 0401     		.2byte	0x104
 2079 0451 00       		.byte	0
 2080 0452 08       		.uleb128 0x8
 2081 0453 81000000 		.4byte	0x81
 2082 0457 6E040000 		.4byte	0x46e
ARM GAS  C:\Users\Diego\AppData\Local\Temp\cc6qIbsx.s 			page 43


 2083 045b 09       		.uleb128 0x9
 2084 045c DC000000 		.4byte	0xdc
 2085 0460 03       		.byte	0x3
 2086 0461 09       		.uleb128 0x9
 2087 0462 DC000000 		.4byte	0xdc
 2088 0466 02       		.byte	0x2
 2089 0467 09       		.uleb128 0x9
 2090 0468 DC000000 		.4byte	0xdc
 2091 046c 0E       		.byte	0xe
 2092 046d 00       		.byte	0
 2093 046e 08       		.uleb128 0x8
 2094 046f 81000000 		.4byte	0x81
 2095 0473 84040000 		.4byte	0x484
 2096 0477 09       		.uleb128 0x9
 2097 0478 DC000000 		.4byte	0xdc
 2098 047c 03       		.byte	0x3
 2099 047d 09       		.uleb128 0x9
 2100 047e DC000000 		.4byte	0xdc
 2101 0482 07       		.byte	0x7
 2102 0483 00       		.byte	0
 2103 0484 0A       		.uleb128 0xa
 2104 0485 66070000 		.4byte	.LASF75
 2105 0489 1404     		.2byte	0x414
 2106 048b 05       		.byte	0x5
 2107 048c BF       		.byte	0xbf
 2108 048d BD040000 		.4byte	0x4bd
 2109 0491 0D       		.uleb128 0xd
 2110 0492 6100     		.ascii	"a\000"
 2111 0494 05       		.byte	0x5
 2112 0495 C0       		.byte	0xc0
 2113 0496 AF030000 		.4byte	0x3af
 2114 049a 00       		.byte	0
 2115 049b 0E       		.uleb128 0xe
 2116 049c 6200     		.ascii	"b\000"
 2117 049e 05       		.byte	0x5
 2118 049f C1       		.byte	0xc1
 2119 04a0 AF030000 		.4byte	0x3af
 2120 04a4 0501     		.2byte	0x105
 2121 04a6 0E       		.uleb128 0xe
 2122 04a7 6300     		.ascii	"c\000"
 2123 04a9 05       		.byte	0x5
 2124 04aa C2       		.byte	0xc2
 2125 04ab AF030000 		.4byte	0x3af
 2126 04af 0A02     		.2byte	0x20a
 2127 04b1 0E       		.uleb128 0xe
 2128 04b2 6400     		.ascii	"d\000"
 2129 04b4 05       		.byte	0x5
 2130 04b5 C3       		.byte	0xc3
 2131 04b6 AF030000 		.4byte	0x3af
 2132 04ba 0F03     		.2byte	0x30f
 2133 04bc 00       		.byte	0
 2134 04bd 0F       		.uleb128 0xf
 2135 04be 04       		.byte	0x4
 2136 04bf C3040000 		.4byte	0x4c3
 2137 04c3 10       		.uleb128 0x10
 2138 04c4 11       		.uleb128 0x11
 2139 04c5 B5030000 		.4byte	.LASF163
ARM GAS  C:\Users\Diego\AppData\Local\Temp\cc6qIbsx.s 			page 44


 2140 04c9 01       		.byte	0x1
 2141 04ca 1A       		.byte	0x1a
 2142 04cb 81000000 		.4byte	0x81
 2143 04cf 00000000 		.4byte	.LFB63
 2144 04d3 34000000 		.4byte	.LFE63-.LFB63
 2145 04d7 01       		.uleb128 0x1
 2146 04d8 9C       		.byte	0x9c
 2147 04d9 56050000 		.4byte	0x556
 2148 04dd 12       		.uleb128 0x12
 2149 04de 77030000 		.4byte	.LASF76
 2150 04e2 01       		.byte	0x1
 2151 04e3 1A       		.byte	0x1a
 2152 04e4 56050000 		.4byte	0x556
 2153 04e8 00000000 		.4byte	.LLST0
 2154 04ec 12       		.uleb128 0x12
 2155 04ed 5B040000 		.4byte	.LASF77
 2156 04f1 01       		.byte	0x1
 2157 04f2 1A       		.byte	0x1a
 2158 04f3 8D000000 		.4byte	0x8d
 2159 04f7 2C000000 		.4byte	.LLST1
 2160 04fb 13       		.uleb128 0x13
 2161 04fc 77010000 		.4byte	.LASF78
 2162 0500 01       		.byte	0x1
 2163 0501 1B       		.byte	0x1b
 2164 0502 81000000 		.4byte	0x81
 2165 0506 4D000000 		.4byte	.LLST2
 2166 050a 13       		.uleb128 0x13
 2167 050b 87010000 		.4byte	.LASF79
 2168 050f 01       		.byte	0x1
 2169 0510 1B       		.byte	0x1b
 2170 0511 81000000 		.4byte	0x81
 2171 0515 77000000 		.4byte	.LLST3
 2172 0519 14       		.uleb128 0x14
 2173 051a 6900     		.ascii	"i\000"
 2174 051c 01       		.byte	0x1
 2175 051d 1C       		.byte	0x1c
 2176 051e 8D000000 		.4byte	0x8d
 2177 0522 8A000000 		.4byte	.LLST4
 2178 0526 15       		.uleb128 0x15
 2179 0527 40030000 		.4byte	.LASF80
 2180 052b 01       		.byte	0x1
 2181 052c 1D       		.byte	0x1d
 2182 052d 5C050000 		.4byte	0x55c
 2183 0531 03       		.uleb128 0x3
 2184 0532 91       		.byte	0x91
 2185 0533 F07D     		.sleb128 -272
 2186 0535 16       		.uleb128 0x16
 2187 0536 14000000 		.4byte	.LVL3
 2188 053a 0F0C0000 		.4byte	0xc0f
 2189 053e 17       		.uleb128 0x17
 2190 053f 01       		.uleb128 0x1
 2191 0540 52       		.byte	0x52
 2192 0541 03       		.uleb128 0x3
 2193 0542 0A       		.byte	0xa
 2194 0543 0001     		.2byte	0x100
 2195 0545 17       		.uleb128 0x17
 2196 0546 01       		.uleb128 0x1
ARM GAS  C:\Users\Diego\AppData\Local\Temp\cc6qIbsx.s 			page 45


 2197 0547 51       		.byte	0x51
 2198 0548 05       		.uleb128 0x5
 2199 0549 03       		.byte	0x3
 2200 054a 00000000 		.4byte	.LANCHOR0
 2201 054e 17       		.uleb128 0x17
 2202 054f 01       		.uleb128 0x1
 2203 0550 50       		.byte	0x50
 2204 0551 02       		.uleb128 0x2
 2205 0552 7D       		.byte	0x7d
 2206 0553 00       		.sleb128 0
 2207 0554 00       		.byte	0
 2208 0555 00       		.byte	0
 2209 0556 0F       		.uleb128 0xf
 2210 0557 04       		.byte	0x4
 2211 0558 81000000 		.4byte	0x81
 2212 055c 08       		.uleb128 0x8
 2213 055d 81000000 		.4byte	0x81
 2214 0561 6C050000 		.4byte	0x56c
 2215 0565 09       		.uleb128 0x9
 2216 0566 DC000000 		.4byte	0xdc
 2217 056a FF       		.byte	0xff
 2218 056b 00       		.byte	0
 2219 056c 18       		.uleb128 0x18
 2220 056d 2F000000 		.4byte	.LASF164
 2221 0571 01       		.byte	0x1
 2222 0572 39       		.byte	0x39
 2223 0573 00000000 		.4byte	.LFB64
 2224 0577 88050000 		.4byte	.LFE64-.LFB64
 2225 057b 01       		.uleb128 0x1
 2226 057c 9C       		.byte	0x9c
 2227 057d 8C060000 		.4byte	0x68c
 2228 0581 14       		.uleb128 0x14
 2229 0582 6900     		.ascii	"i\000"
 2230 0584 01       		.byte	0x1
 2231 0585 3A       		.byte	0x3a
 2232 0586 8D000000 		.4byte	0x8d
 2233 058a B4000000 		.4byte	.LLST5
 2234 058e 14       		.uleb128 0x14
 2235 058f 7800     		.ascii	"x\000"
 2236 0591 01       		.byte	0x1
 2237 0592 3A       		.byte	0x3a
 2238 0593 8D000000 		.4byte	0x8d
 2239 0597 36010000 		.4byte	.LLST6
 2240 059b 14       		.uleb128 0x14
 2241 059c 7900     		.ascii	"y\000"
 2242 059e 01       		.byte	0x1
 2243 059f 3A       		.byte	0x3a
 2244 05a0 8D000000 		.4byte	0x8d
 2245 05a4 3E030000 		.4byte	.LLST7
 2246 05a8 19       		.uleb128 0x19
 2247 05a9 06000000 		.4byte	.LVL10
 2248 05ad 2C0C0000 		.4byte	0xc2c
 2249 05b1 19       		.uleb128 0x19
 2250 05b2 1E000000 		.4byte	.LVL13
 2251 05b6 370C0000 		.4byte	0xc37
 2252 05ba 19       		.uleb128 0x19
 2253 05bb 2A000000 		.4byte	.LVL16
ARM GAS  C:\Users\Diego\AppData\Local\Temp\cc6qIbsx.s 			page 46


 2254 05bf 2C0C0000 		.4byte	0xc2c
 2255 05c3 1A       		.uleb128 0x1a
 2256 05c4 4C010000 		.4byte	.LVL44
 2257 05c8 C4040000 		.4byte	0x4c4
 2258 05cc DD050000 		.4byte	0x5dd
 2259 05d0 17       		.uleb128 0x17
 2260 05d1 01       		.uleb128 0x1
 2261 05d2 51       		.byte	0x51
 2262 05d3 02       		.uleb128 0x2
 2263 05d4 75       		.byte	0x75
 2264 05d5 00       		.sleb128 0
 2265 05d6 17       		.uleb128 0x17
 2266 05d7 01       		.uleb128 0x1
 2267 05d8 50       		.byte	0x50
 2268 05d9 02       		.uleb128 0x2
 2269 05da 76       		.byte	0x76
 2270 05db 00       		.sleb128 0
 2271 05dc 00       		.byte	0
 2272 05dd 19       		.uleb128 0x19
 2273 05de 5A010000 		.4byte	.LVL47
 2274 05e2 420C0000 		.4byte	0xc42
 2275 05e6 1A       		.uleb128 0x1a
 2276 05e7 AC020000 		.4byte	.LVL112
 2277 05eb C4040000 		.4byte	0x4c4
 2278 05ef 00060000 		.4byte	0x600
 2279 05f3 17       		.uleb128 0x17
 2280 05f4 01       		.uleb128 0x1
 2281 05f5 51       		.byte	0x51
 2282 05f6 02       		.uleb128 0x2
 2283 05f7 75       		.byte	0x75
 2284 05f8 00       		.sleb128 0
 2285 05f9 17       		.uleb128 0x17
 2286 05fa 01       		.uleb128 0x1
 2287 05fb 50       		.byte	0x50
 2288 05fc 02       		.uleb128 0x2
 2289 05fd 76       		.byte	0x76
 2290 05fe 00       		.sleb128 0
 2291 05ff 00       		.byte	0
 2292 0600 19       		.uleb128 0x19
 2293 0601 BA020000 		.4byte	.LVL115
 2294 0605 420C0000 		.4byte	0xc42
 2295 0609 1A       		.uleb128 0x1a
 2296 060a 1E040000 		.4byte	.LVL163
 2297 060e C4040000 		.4byte	0x4c4
 2298 0612 23060000 		.4byte	0x623
 2299 0616 17       		.uleb128 0x17
 2300 0617 01       		.uleb128 0x1
 2301 0618 51       		.byte	0x51
 2302 0619 02       		.uleb128 0x2
 2303 061a 75       		.byte	0x75
 2304 061b 00       		.sleb128 0
 2305 061c 17       		.uleb128 0x17
 2306 061d 01       		.uleb128 0x1
 2307 061e 50       		.byte	0x50
 2308 061f 02       		.uleb128 0x2
 2309 0620 76       		.byte	0x76
 2310 0621 00       		.sleb128 0
ARM GAS  C:\Users\Diego\AppData\Local\Temp\cc6qIbsx.s 			page 47


 2311 0622 00       		.byte	0
 2312 0623 19       		.uleb128 0x19
 2313 0624 2C040000 		.4byte	.LVL166
 2314 0628 420C0000 		.4byte	0xc42
 2315 062c 1A       		.uleb128 0x1a
 2316 062d AA040000 		.4byte	.LVL171
 2317 0631 C4040000 		.4byte	0x4c4
 2318 0635 45060000 		.4byte	0x645
 2319 0639 17       		.uleb128 0x17
 2320 063a 01       		.uleb128 0x1
 2321 063b 51       		.byte	0x51
 2322 063c 01       		.uleb128 0x1
 2323 063d 39       		.byte	0x39
 2324 063e 17       		.uleb128 0x17
 2325 063f 01       		.uleb128 0x1
 2326 0640 50       		.byte	0x50
 2327 0641 02       		.uleb128 0x2
 2328 0642 74       		.byte	0x74
 2329 0643 00       		.sleb128 0
 2330 0644 00       		.byte	0
 2331 0645 19       		.uleb128 0x19
 2332 0646 B8040000 		.4byte	.LVL174
 2333 064a 420C0000 		.4byte	0xc42
 2334 064e 19       		.uleb128 0x19
 2335 064f 06050000 		.4byte	.LVL183
 2336 0653 530C0000 		.4byte	0xc53
 2337 0657 19       		.uleb128 0x19
 2338 0658 0A050000 		.4byte	.LVL184
 2339 065c 5E0C0000 		.4byte	0xc5e
 2340 0660 1A       		.uleb128 0x1a
 2341 0661 28050000 		.4byte	.LVL186
 2342 0665 C4040000 		.4byte	0x4c4
 2343 0669 79060000 		.4byte	0x679
 2344 066d 17       		.uleb128 0x17
 2345 066e 01       		.uleb128 0x1
 2346 066f 51       		.byte	0x51
 2347 0670 01       		.uleb128 0x1
 2348 0671 3A       		.byte	0x3a
 2349 0672 17       		.uleb128 0x17
 2350 0673 01       		.uleb128 0x1
 2351 0674 50       		.byte	0x50
 2352 0675 02       		.uleb128 0x2
 2353 0676 74       		.byte	0x74
 2354 0677 00       		.sleb128 0
 2355 0678 00       		.byte	0
 2356 0679 19       		.uleb128 0x19
 2357 067a 36050000 		.4byte	.LVL189
 2358 067e 420C0000 		.4byte	0xc42
 2359 0682 19       		.uleb128 0x19
 2360 0683 5A050000 		.4byte	.LVL196
 2361 0687 690C0000 		.4byte	0xc69
 2362 068b 00       		.byte	0
 2363 068c 1B       		.uleb128 0x1b
 2364 068d F5010000 		.4byte	.LASF165
 2365 0691 01       		.byte	0x1
 2366 0692 0701     		.2byte	0x107
 2367 0694 00000000 		.4byte	.LFB65
ARM GAS  C:\Users\Diego\AppData\Local\Temp\cc6qIbsx.s 			page 48


 2368 0698 20000000 		.4byte	.LFE65-.LFB65
 2369 069c 01       		.uleb128 0x1
 2370 069d 9C       		.byte	0x9c
 2371 069e 1C       		.uleb128 0x1c
 2372 069f 7A050000 		.4byte	.LASF81
 2373 06a3 06       		.byte	0x6
 2374 06a4 5506     		.2byte	0x655
 2375 06a6 AA060000 		.4byte	0x6aa
 2376 06aa 06       		.uleb128 0x6
 2377 06ab 76000000 		.4byte	0x76
 2378 06af 1D       		.uleb128 0x1d
 2379 06b0 E5030000 		.4byte	.LASF82
 2380 06b4 05       		.byte	0x5
 2381 06b5 2C       		.byte	0x2c
 2382 06b6 C0060000 		.4byte	0x6c0
 2383 06ba 05       		.uleb128 0x5
 2384 06bb 03       		.byte	0x3
 2385 06bc 00000000 		.4byte	countAnimation1
 2386 06c0 06       		.uleb128 0x6
 2387 06c1 B3000000 		.4byte	0xb3
 2388 06c5 1D       		.uleb128 0x1d
 2389 06c6 23040000 		.4byte	.LASF83
 2390 06ca 05       		.byte	0x5
 2391 06cb 2D       		.byte	0x2d
 2392 06cc C0060000 		.4byte	0x6c0
 2393 06d0 05       		.uleb128 0x5
 2394 06d1 03       		.byte	0x3
 2395 06d2 00000000 		.4byte	countAnimation2
 2396 06d6 1D       		.uleb128 0x1d
 2397 06d7 32030000 		.4byte	.LASF84
 2398 06db 05       		.byte	0x5
 2399 06dc 2E       		.byte	0x2e
 2400 06dd C0060000 		.4byte	0x6c0
 2401 06e1 05       		.uleb128 0x5
 2402 06e2 03       		.byte	0x3
 2403 06e3 00000000 		.4byte	countBeagleTX
 2404 06e7 1D       		.uleb128 0x1d
 2405 06e8 CE070000 		.4byte	.LASF85
 2406 06ec 05       		.byte	0x5
 2407 06ed 2F       		.byte	0x2f
 2408 06ee C0060000 		.4byte	0x6c0
 2409 06f2 05       		.uleb128 0x5
 2410 06f3 03       		.byte	0x3
 2411 06f4 00000000 		.4byte	countPump
 2412 06f8 1D       		.uleb128 0x1d
 2413 06f9 99020000 		.4byte	.LASF86
 2414 06fd 05       		.byte	0x5
 2415 06fe 30       		.byte	0x30
 2416 06ff D7000000 		.4byte	0xd7
 2417 0703 05       		.uleb128 0x5
 2418 0704 03       		.byte	0x3
 2419 0705 00000000 		.4byte	flowDisplay1
 2420 0709 1D       		.uleb128 0x1d
 2421 070a A6020000 		.4byte	.LASF87
 2422 070e 05       		.byte	0x5
 2423 070f 31       		.byte	0x31
 2424 0710 D7000000 		.4byte	0xd7
ARM GAS  C:\Users\Diego\AppData\Local\Temp\cc6qIbsx.s 			page 49


 2425 0714 05       		.uleb128 0x5
 2426 0715 03       		.byte	0x3
 2427 0716 00000000 		.4byte	flowDisplay2
 2428 071a 1D       		.uleb128 0x1d
 2429 071b B3020000 		.4byte	.LASF88
 2430 071f 05       		.byte	0x5
 2431 0720 32       		.byte	0x32
 2432 0721 D7000000 		.4byte	0xd7
 2433 0725 05       		.uleb128 0x5
 2434 0726 03       		.byte	0x3
 2435 0727 00000000 		.4byte	flowDisplay3
 2436 072b 1D       		.uleb128 0x1d
 2437 072c C0020000 		.4byte	.LASF89
 2438 0730 05       		.byte	0x5
 2439 0731 33       		.byte	0x33
 2440 0732 D7000000 		.4byte	0xd7
 2441 0736 05       		.uleb128 0x5
 2442 0737 03       		.byte	0x3
 2443 0738 00000000 		.4byte	flowDisplay4
 2444 073c 1D       		.uleb128 0x1d
 2445 073d 1A030000 		.4byte	.LASF90
 2446 0741 05       		.byte	0x5
 2447 0742 34       		.byte	0x34
 2448 0743 D2000000 		.4byte	0xd2
 2449 0747 05       		.uleb128 0x5
 2450 0748 03       		.byte	0x3
 2451 0749 00000000 		.4byte	numberKeys1
 2452 074d 1D       		.uleb128 0x1d
 2453 074e 26030000 		.4byte	.LASF91
 2454 0752 05       		.byte	0x5
 2455 0753 35       		.byte	0x35
 2456 0754 D2000000 		.4byte	0xd2
 2457 0758 05       		.uleb128 0x5
 2458 0759 03       		.byte	0x3
 2459 075a 00000000 		.4byte	numberKeys2
 2460 075e 1D       		.uleb128 0x1d
 2461 075f 00050000 		.4byte	.LASF92
 2462 0763 05       		.byte	0x5
 2463 0764 36       		.byte	0x36
 2464 0765 D2000000 		.4byte	0xd2
 2465 0769 05       		.uleb128 0x5
 2466 076a 03       		.byte	0x3
 2467 076b 00000000 		.4byte	flagPoint1
 2468 076f 1D       		.uleb128 0x1d
 2469 0770 26010000 		.4byte	.LASF93
 2470 0774 05       		.byte	0x5
 2471 0775 37       		.byte	0x37
 2472 0776 D2000000 		.4byte	0xd2
 2473 077a 05       		.uleb128 0x5
 2474 077b 03       		.byte	0x3
 2475 077c 00000000 		.4byte	flagPoint2
 2476 0780 1D       		.uleb128 0x1d
 2477 0781 47020000 		.4byte	.LASF94
 2478 0785 05       		.byte	0x5
 2479 0786 38       		.byte	0x38
 2480 0787 D2000000 		.4byte	0xd2
 2481 078b 05       		.uleb128 0x5
ARM GAS  C:\Users\Diego\AppData\Local\Temp\cc6qIbsx.s 			page 50


 2482 078c 03       		.byte	0x3
 2483 078d 00000000 		.4byte	productNumber
 2484 0791 1D       		.uleb128 0x1d
 2485 0792 36060000 		.4byte	.LASF95
 2486 0796 05       		.byte	0x5
 2487 0797 39       		.byte	0x39
 2488 0798 D7000000 		.4byte	0xd7
 2489 079c 05       		.uleb128 0x5
 2490 079d 03       		.byte	0x3
 2491 079e 00000000 		.4byte	delayPicture1
 2492 07a2 1D       		.uleb128 0x1d
 2493 07a3 44060000 		.4byte	.LASF96
 2494 07a7 05       		.byte	0x5
 2495 07a8 3A       		.byte	0x3a
 2496 07a9 D7000000 		.4byte	0xd7
 2497 07ad 05       		.uleb128 0x5
 2498 07ae 03       		.byte	0x3
 2499 07af 00000000 		.4byte	delayPicture2
 2500 07b3 1D       		.uleb128 0x1d
 2501 07b4 E6040000 		.4byte	.LASF97
 2502 07b8 05       		.byte	0x5
 2503 07b9 3B       		.byte	0x3b
 2504 07ba D2000000 		.4byte	0xd2
 2505 07be 05       		.uleb128 0x5
 2506 07bf 03       		.byte	0x3
 2507 07c0 00000000 		.4byte	ppux10
 2508 07c4 1D       		.uleb128 0x1d
 2509 07c5 A9000000 		.4byte	.LASF98
 2510 07c9 05       		.byte	0x5
 2511 07ca 3C       		.byte	0x3c
 2512 07cb D2000000 		.4byte	0xd2
 2513 07cf 05       		.uleb128 0x5
 2514 07d0 03       		.byte	0x3
 2515 07d1 00000000 		.4byte	decimalMoney
 2516 07d5 1D       		.uleb128 0x1d
 2517 07d6 4D000000 		.4byte	.LASF99
 2518 07da 05       		.byte	0x5
 2519 07db 3D       		.byte	0x3d
 2520 07dc D2000000 		.4byte	0xd2
 2521 07e0 05       		.uleb128 0x5
 2522 07e1 03       		.byte	0x3
 2523 07e2 00000000 		.4byte	decimalVolume
 2524 07e6 1D       		.uleb128 0x1d
 2525 07e7 1D050000 		.4byte	.LASF100
 2526 07eb 05       		.byte	0x5
 2527 07ec 3E       		.byte	0x3e
 2528 07ed F7070000 		.4byte	0x7f7
 2529 07f1 05       		.uleb128 0x5
 2530 07f2 03       		.byte	0x3
 2531 07f3 00000000 		.4byte	symbols
 2532 07f7 06       		.uleb128 0x6
 2533 07f8 39030000 		.4byte	0x339
 2534 07fc 08       		.uleb128 0x8
 2535 07fd 81000000 		.4byte	0x81
 2536 0801 0C080000 		.4byte	0x80c
 2537 0805 09       		.uleb128 0x9
 2538 0806 DC000000 		.4byte	0xdc
ARM GAS  C:\Users\Diego\AppData\Local\Temp\cc6qIbsx.s 			page 51


 2539 080a 02       		.byte	0x2
 2540 080b 00       		.byte	0
 2541 080c 1D       		.uleb128 0x1d
 2542 080d 02020000 		.4byte	.LASF101
 2543 0811 05       		.byte	0x5
 2544 0812 3F       		.byte	0x3f
 2545 0813 1D080000 		.4byte	0x81d
 2546 0817 05       		.uleb128 0x5
 2547 0818 03       		.byte	0x3
 2548 0819 00000000 		.4byte	time
 2549 081d 06       		.uleb128 0x6
 2550 081e FC070000 		.4byte	0x7fc
 2551 0822 1D       		.uleb128 0x1d
 2552 0823 4D030000 		.4byte	.LASF102
 2553 0827 05       		.byte	0x5
 2554 0828 40       		.byte	0x40
 2555 0829 33080000 		.4byte	0x833
 2556 082d 05       		.uleb128 0x5
 2557 082e 03       		.byte	0x3
 2558 082f 00000000 		.4byte	date
 2559 0833 06       		.uleb128 0x6
 2560 0834 FC070000 		.4byte	0x7fc
 2561 0838 1D       		.uleb128 0x1d
 2562 0839 31010000 		.4byte	.LASF103
 2563 083d 05       		.byte	0x5
 2564 083e 41       		.byte	0x41
 2565 083f 49080000 		.4byte	0x849
 2566 0843 05       		.uleb128 0x5
 2567 0844 03       		.byte	0x3
 2568 0845 00000000 		.4byte	screen
 2569 0849 06       		.uleb128 0x6
 2570 084a 39030000 		.4byte	0x339
 2571 084e 1D       		.uleb128 0x1d
 2572 084f F4000000 		.4byte	.LASF104
 2573 0853 05       		.byte	0x5
 2574 0854 42       		.byte	0x42
 2575 0855 5F080000 		.4byte	0x85f
 2576 0859 05       		.uleb128 0x5
 2577 085a 03       		.byte	0x3
 2578 085b 00000000 		.4byte	residue
 2579 085f 06       		.uleb128 0x6
 2580 0860 7F030000 		.4byte	0x37f
 2581 0864 1D       		.uleb128 0x1d
 2582 0865 55020000 		.4byte	.LASF105
 2583 0869 05       		.byte	0x5
 2584 086a 43       		.byte	0x43
 2585 086b 75080000 		.4byte	0x875
 2586 086f 05       		.uleb128 0x5
 2587 0870 03       		.byte	0x3
 2588 0871 00000000 		.4byte	idSeller
 2589 0875 06       		.uleb128 0x6
 2590 0876 09030000 		.4byte	0x309
 2591 087a 1D       		.uleb128 0x1d
 2592 087b 9A050000 		.4byte	.LASF106
 2593 087f 05       		.byte	0x5
 2594 0880 44       		.byte	0x44
 2595 0881 D2000000 		.4byte	0xd2
ARM GAS  C:\Users\Diego\AppData\Local\Temp\cc6qIbsx.s 			page 52


 2596 0885 05       		.uleb128 0x5
 2597 0886 03       		.byte	0x3
 2598 0887 00000000 		.4byte	typeIdSeller
 2599 088b 08       		.uleb128 0x8
 2600 088c 81000000 		.4byte	0x81
 2601 0890 9B080000 		.4byte	0x89b
 2602 0894 09       		.uleb128 0x9
 2603 0895 DC000000 		.4byte	0xdc
 2604 0899 07       		.byte	0x7
 2605 089a 00       		.byte	0
 2606 089b 1D       		.uleb128 0x1d
 2607 089c 06060000 		.4byte	.LASF107
 2608 08a0 05       		.byte	0x5
 2609 08a1 45       		.byte	0x45
 2610 08a2 AC080000 		.4byte	0x8ac
 2611 08a6 05       		.uleb128 0x5
 2612 08a7 03       		.byte	0x3
 2613 08a8 00000000 		.4byte	passwordSeller
 2614 08ac 06       		.uleb128 0x6
 2615 08ad 8B080000 		.4byte	0x88b
 2616 08b1 1D       		.uleb128 0x1d
 2617 08b2 67040000 		.4byte	.LASF108
 2618 08b6 05       		.byte	0x5
 2619 08b7 46       		.byte	0x46
 2620 08b8 D2000000 		.4byte	0xd2
 2621 08bc 05       		.uleb128 0x5
 2622 08bd 03       		.byte	0x3
 2623 08be 00000000 		.4byte	flagResetMux
 2624 08c2 1D       		.uleb128 0x1d
 2625 08c3 02040000 		.4byte	.LASF109
 2626 08c7 05       		.byte	0x5
 2627 08c8 47       		.byte	0x47
 2628 08c9 D2000000 		.4byte	0xd2
 2629 08cd 05       		.uleb128 0x5
 2630 08ce 03       		.byte	0x3
 2631 08cf 00000000 		.4byte	stateBeagleSoft
 2632 08d3 1D       		.uleb128 0x1d
 2633 08d4 5B000000 		.4byte	.LASF110
 2634 08d8 05       		.byte	0x5
 2635 08d9 48       		.byte	0x48
 2636 08da E4080000 		.4byte	0x8e4
 2637 08de 05       		.uleb128 0x5
 2638 08df 03       		.byte	0x3
 2639 08e0 00000000 		.4byte	PrevStatePump
 2640 08e4 06       		.uleb128 0x6
 2641 08e5 E5000000 		.4byte	0xe5
 2642 08e9 1D       		.uleb128 0x1d
 2643 08ea 5A010000 		.4byte	.LASF111
 2644 08ee 05       		.byte	0x5
 2645 08ef 49       		.byte	0x49
 2646 08f0 D2000000 		.4byte	0xd2
 2647 08f4 05       		.uleb128 0x5
 2648 08f5 03       		.byte	0x3
 2649 08f6 00000000 		.4byte	PlateRequest
 2650 08fa 1D       		.uleb128 0x1d
 2651 08fb 73050000 		.4byte	.LASF112
 2652 08ff 05       		.byte	0x5
ARM GAS  C:\Users\Diego\AppData\Local\Temp\cc6qIbsx.s 			page 53


 2653 0900 4A       		.byte	0x4a
 2654 0901 0B090000 		.4byte	0x90b
 2655 0905 05       		.uleb128 0x5
 2656 0906 03       		.byte	0x3
 2657 0907 00000000 		.4byte	IDCast
 2658 090b 06       		.uleb128 0x6
 2659 090c 39030000 		.4byte	0x339
 2660 0910 1D       		.uleb128 0x1d
 2661 0911 AC030000 		.4byte	.LASF113
 2662 0915 05       		.byte	0x5
 2663 0916 4B       		.byte	0x4b
 2664 0917 D2000000 		.4byte	0xd2
 2665 091b 05       		.uleb128 0x5
 2666 091c 03       		.byte	0x3
 2667 091d 00000000 		.4byte	ActiveRF
 2668 0921 1D       		.uleb128 0x1d
 2669 0922 44010000 		.4byte	.LASF114
 2670 0926 05       		.byte	0x5
 2671 0927 4C       		.byte	0x4c
 2672 0928 D2000000 		.4byte	0xd2
 2673 092c 05       		.uleb128 0x5
 2674 092d 03       		.byte	0x3
 2675 092e 00000000 		.4byte	counterRF
 2676 0932 1D       		.uleb128 0x1d
 2677 0933 4E010000 		.4byte	.LASF115
 2678 0937 05       		.byte	0x5
 2679 0938 4D       		.byte	0x4d
 2680 0939 D2000000 		.4byte	0xd2
 2681 093d 05       		.uleb128 0x5
 2682 093e 03       		.byte	0x3
 2683 093f 00000000 		.4byte	PriceChange
 2684 0943 08       		.uleb128 0x8
 2685 0944 81000000 		.4byte	0x81
 2686 0948 53090000 		.4byte	0x953
 2687 094c 09       		.uleb128 0x9
 2688 094d DC000000 		.4byte	0xdc
 2689 0951 1D       		.byte	0x1d
 2690 0952 00       		.byte	0
 2691 0953 1D       		.uleb128 0x1d
 2692 0954 6B070000 		.4byte	.LASF116
 2693 0958 05       		.byte	0x5
 2694 0959 4E       		.byte	0x4e
 2695 095a 64090000 		.4byte	0x964
 2696 095e 05       		.uleb128 0x5
 2697 095f 03       		.byte	0x3
 2698 0960 00000000 		.4byte	temporal
 2699 0964 06       		.uleb128 0x6
 2700 0965 43090000 		.4byte	0x943
 2701 0969 1D       		.uleb128 0x1d
 2702 096a 80010000 		.4byte	.LASF117
 2703 096e 05       		.byte	0x5
 2704 096f 4F       		.byte	0x4f
 2705 0970 D2000000 		.4byte	0xd2
 2706 0974 05       		.uleb128 0x5
 2707 0975 03       		.byte	0x3
 2708 0976 00000000 		.4byte	CGrade
 2709 097a 1D       		.uleb128 0x1d
ARM GAS  C:\Users\Diego\AppData\Local\Temp\cc6qIbsx.s 			page 54


 2710 097b 26060000 		.4byte	.LASF118
 2711 097f 05       		.byte	0x5
 2712 0980 51       		.byte	0x51
 2713 0981 81000000 		.4byte	0x81
 2714 0985 05       		.uleb128 0x5
 2715 0986 03       		.byte	0x3
 2716 0987 00000000 		.4byte	UnitType
 2717 098b 1D       		.uleb128 0x1d
 2718 098c 09030000 		.4byte	.LASF119
 2719 0990 05       		.byte	0x5
 2720 0991 51       		.byte	0x51
 2721 0992 81000000 		.4byte	0x81
 2722 0996 05       		.uleb128 0x5
 2723 0997 03       		.byte	0x3
 2724 0998 00000000 		.4byte	ConversionFactor
 2725 099c 1D       		.uleb128 0x1d
 2726 099d 99010000 		.4byte	.LASF120
 2727 09a1 05       		.byte	0x5
 2728 09a2 51       		.byte	0x51
 2729 09a3 81000000 		.4byte	0x81
 2730 09a7 05       		.uleb128 0x5
 2731 09a8 03       		.byte	0x3
 2732 09a9 00000000 		.4byte	MoneyDec
 2733 09ad 1D       		.uleb128 0x1d
 2734 09ae 74070000 		.4byte	.LASF121
 2735 09b2 05       		.byte	0x5
 2736 09b3 51       		.byte	0x51
 2737 09b4 81000000 		.4byte	0x81
 2738 09b8 05       		.uleb128 0x5
 2739 09b9 03       		.byte	0x3
 2740 09ba 00000000 		.4byte	VolDec
 2741 09be 1D       		.uleb128 0x1d
 2742 09bf 82060000 		.4byte	.LASF122
 2743 09c3 05       		.byte	0x5
 2744 09c4 51       		.byte	0x51
 2745 09c5 81000000 		.4byte	0x81
 2746 09c9 05       		.uleb128 0x5
 2747 09ca 03       		.byte	0x3
 2748 09cb 00000000 		.4byte	PPUDec
 2749 09cf 1D       		.uleb128 0x1d
 2750 09d0 03010000 		.4byte	.LASF123
 2751 09d4 05       		.byte	0x5
 2752 09d5 51       		.byte	0x51
 2753 09d6 81000000 		.4byte	0x81
 2754 09da 05       		.uleb128 0x5
 2755 09db 03       		.byte	0x3
 2756 09dc 00000000 		.4byte	DDMode
 2757 09e0 1D       		.uleb128 0x1d
 2758 09e1 8E000000 		.4byte	.LASF124
 2759 09e5 05       		.byte	0x5
 2760 09e6 52       		.byte	0x52
 2761 09e7 E5000000 		.4byte	0xe5
 2762 09eb 05       		.uleb128 0x5
 2763 09ec 03       		.byte	0x3
 2764 09ed 00000000 		.4byte	statePump
 2765 09f1 1D       		.uleb128 0x1d
 2766 09f2 F5030000 		.4byte	.LASF125
ARM GAS  C:\Users\Diego\AppData\Local\Temp\cc6qIbsx.s 			page 55


 2767 09f6 05       		.byte	0x5
 2768 09f7 53       		.byte	0x53
 2769 09f8 81000000 		.4byte	0x81
 2770 09fc 05       		.uleb128 0x5
 2771 09fd 03       		.byte	0x3
 2772 09fe 00000000 		.4byte	NumPositions
 2773 0a02 1D       		.uleb128 0x1d
 2774 0a03 67020000 		.4byte	.LASF126
 2775 0a07 05       		.byte	0x5
 2776 0a08 54       		.byte	0x54
 2777 0a09 81000000 		.4byte	0x81
 2778 0a0d 05       		.uleb128 0x5
 2779 0a0e 03       		.byte	0x3
 2780 0a0f 00000000 		.4byte	lockTurn
 2781 0a13 1D       		.uleb128 0x1d
 2782 0a14 EE010000 		.4byte	.LASF127
 2783 0a18 05       		.byte	0x5
 2784 0a19 55       		.byte	0x55
 2785 0a1a 81000000 		.4byte	0x81
 2786 0a1e 05       		.uleb128 0x5
 2787 0a1f 03       		.byte	0x3
 2788 0a20 00000000 		.4byte	digits
 2789 0a24 1D       		.uleb128 0x1d
 2790 0a25 87050000 		.4byte	.LASF128
 2791 0a29 05       		.byte	0x5
 2792 0a2a 56       		.byte	0x56
 2793 0a2b 81000000 		.4byte	0x81
 2794 0a2f 05       		.uleb128 0x5
 2795 0a30 03       		.byte	0x3
 2796 0a31 00000000 		.4byte	hiddenKeys
 2797 0a35 1D       		.uleb128 0x1d
 2798 0a36 CF000000 		.4byte	.LASF129
 2799 0a3a 05       		.byte	0x5
 2800 0a3b 57       		.byte	0x57
 2801 0a3c 81000000 		.4byte	0x81
 2802 0a40 05       		.uleb128 0x5
 2803 0a41 03       		.byte	0x3
 2804 0a42 00000000 		.4byte	PrinterType
 2805 0a46 08       		.uleb128 0x8
 2806 0a47 BF000000 		.4byte	0xbf
 2807 0a4b 560A0000 		.4byte	0xa56
 2808 0a4f 09       		.uleb128 0x9
 2809 0a50 DC000000 		.4byte	0xdc
 2810 0a54 05       		.byte	0x5
 2811 0a55 00       		.byte	0
 2812 0a56 1D       		.uleb128 0x1d
 2813 0a57 6B050000 		.4byte	.LASF130
 2814 0a5b 05       		.byte	0x5
 2815 0a5c 58       		.byte	0x58
 2816 0a5d 460A0000 		.4byte	0xa46
 2817 0a61 05       		.uleb128 0x5
 2818 0a62 03       		.byte	0x3
 2819 0a63 00000000 		.4byte	VolUnit
 2820 0a67 1D       		.uleb128 0x1d
 2821 0a68 30050000 		.4byte	.LASF131
 2822 0a6c 05       		.byte	0x5
 2823 0a6d 59       		.byte	0x59
ARM GAS  C:\Users\Diego\AppData\Local\Temp\cc6qIbsx.s 			page 56


 2824 0a6e FC070000 		.4byte	0x7fc
 2825 0a72 05       		.uleb128 0x5
 2826 0a73 03       		.byte	0x3
 2827 0a74 00000000 		.4byte	dateDownHandle
 2828 0a78 1D       		.uleb128 0x1d
 2829 0a79 33040000 		.4byte	.LASF132
 2830 0a7d 05       		.byte	0x5
 2831 0a7e 5A       		.byte	0x5a
 2832 0a7f 39030000 		.4byte	0x339
 2833 0a83 05       		.uleb128 0x5
 2834 0a84 03       		.byte	0x3
 2835 0a85 00000000 		.4byte	timeDownHandle
 2836 0a89 1D       		.uleb128 0x1d
 2837 0a8a AB070000 		.4byte	.LASF133
 2838 0a8e 05       		.byte	0x5
 2839 0a8f 5B       		.byte	0x5b
 2840 0a90 81000000 		.4byte	0x81
 2841 0a94 05       		.uleb128 0x5
 2842 0a95 03       		.byte	0x3
 2843 0a96 00000000 		.4byte	count_protector
 2844 0a9a 1D       		.uleb128 0x1d
 2845 0a9b 3C000000 		.4byte	.LASF134
 2846 0a9f 05       		.byte	0x5
 2847 0aa0 5B       		.byte	0x5b
 2848 0aa1 81000000 		.4byte	0x81
 2849 0aa5 05       		.uleb128 0x5
 2850 0aa6 03       		.byte	0x3
 2851 0aa7 00000000 		.4byte	count_protector2
 2852 0aab 1D       		.uleb128 0x1d
 2853 0aac E1010000 		.4byte	.LASF135
 2854 0ab0 05       		.byte	0x5
 2855 0ab1 5C       		.byte	0x5c
 2856 0ab2 5F030000 		.4byte	0x35f
 2857 0ab6 05       		.uleb128 0x5
 2858 0ab7 03       		.byte	0x3
 2859 0ab8 00000000 		.4byte	configAccess
 2860 0abc 1D       		.uleb128 0x1d
 2861 0abd 38010000 		.4byte	.LASF136
 2862 0ac1 05       		.byte	0x5
 2863 0ac2 5D       		.byte	0x5d
 2864 0ac3 81000000 		.4byte	0x81
 2865 0ac7 05       		.uleb128 0x5
 2866 0ac8 03       		.byte	0x3
 2867 0ac9 00000000 		.4byte	controlChar
 2868 0acd 08       		.uleb128 0x8
 2869 0ace BF000000 		.4byte	0xbf
 2870 0ad2 DD0A0000 		.4byte	0xadd
 2871 0ad6 09       		.uleb128 0x9
 2872 0ad7 DC000000 		.4byte	0xdc
 2873 0adb 04       		.byte	0x4
 2874 0adc 00       		.byte	0
 2875 0add 1D       		.uleb128 0x1d
 2876 0ade 0F010000 		.4byte	.LASF137
 2877 0ae2 05       		.byte	0x5
 2878 0ae3 5E       		.byte	0x5e
 2879 0ae4 CD0A0000 		.4byte	0xacd
 2880 0ae8 05       		.uleb128 0x5
ARM GAS  C:\Users\Diego\AppData\Local\Temp\cc6qIbsx.s 			page 57


 2881 0ae9 03       		.byte	0x3
 2882 0aea 00000000 		.4byte	idStation
 2883 0aee 1D       		.uleb128 0x1d
 2884 0aef 49080000 		.4byte	.LASF138
 2885 0af3 05       		.byte	0x5
 2886 0af4 5F       		.byte	0x5f
 2887 0af5 FC070000 		.4byte	0x7fc
 2888 0af9 05       		.uleb128 0x5
 2889 0afa 03       		.byte	0x3
 2890 0afb 00000000 		.4byte	pumpGap
 2891 0aff 1D       		.uleb128 0x1d
 2892 0b00 25020000 		.4byte	.LASF139
 2893 0b04 05       		.byte	0x5
 2894 0b05 60       		.byte	0x60
 2895 0b06 81000000 		.4byte	0x81
 2896 0b0a 05       		.uleb128 0x5
 2897 0b0b 03       		.byte	0x3
 2898 0b0c 00000000 		.4byte	printPortA
 2899 0b10 1D       		.uleb128 0x1d
 2900 0b11 30020000 		.4byte	.LASF140
 2901 0b15 05       		.byte	0x5
 2902 0b16 61       		.byte	0x61
 2903 0b17 81000000 		.4byte	0x81
 2904 0b1b 05       		.uleb128 0x5
 2905 0b1c 03       		.byte	0x3
 2906 0b1d 00000000 		.4byte	printPortB
 2907 0b21 08       		.uleb128 0x8
 2908 0b22 81000000 		.4byte	0x81
 2909 0b26 320B0000 		.4byte	0xb32
 2910 0b2a 1E       		.uleb128 0x1e
 2911 0b2b DC000000 		.4byte	0xdc
 2912 0b2f DB05     		.2byte	0x5db
 2913 0b31 00       		.byte	0
 2914 0b32 1D       		.uleb128 0x1d
 2915 0b33 9F000000 		.4byte	.LASF141
 2916 0b37 05       		.byte	0x5
 2917 0b38 62       		.byte	0x62
 2918 0b39 210B0000 		.4byte	0xb21
 2919 0b3d 05       		.uleb128 0x5
 2920 0b3e 03       		.byte	0x3
 2921 0b3f 00000000 		.4byte	buffer_rf
 2922 0b43 1D       		.uleb128 0x1d
 2923 0b44 67010000 		.4byte	.LASF142
 2924 0b48 05       		.byte	0x5
 2925 0b49 63       		.byte	0x63
 2926 0b4a 210B0000 		.4byte	0xb21
 2927 0b4e 05       		.uleb128 0x5
 2928 0b4f 03       		.byte	0x3
 2929 0b50 00000000 		.4byte	buffer_tx
 2930 0b54 1D       		.uleb128 0x1d
 2931 0b55 B6040000 		.4byte	.LASF143
 2932 0b59 05       		.byte	0x5
 2933 0b5a 64       		.byte	0x64
 2934 0b5b 210B0000 		.4byte	0xb21
 2935 0b5f 05       		.uleb128 0x5
 2936 0b60 03       		.byte	0x3
 2937 0b61 00000000 		.4byte	buffer_txDisplay
ARM GAS  C:\Users\Diego\AppData\Local\Temp\cc6qIbsx.s 			page 58


 2938 0b65 1D       		.uleb128 0x1d
 2939 0b66 DC050000 		.4byte	.LASF144
 2940 0b6a 05       		.byte	0x5
 2941 0b6b 65       		.byte	0x65
 2942 0b6c 8D000000 		.4byte	0x8d
 2943 0b70 05       		.uleb128 0x5
 2944 0b71 03       		.byte	0x3
 2945 0b72 00000000 		.4byte	intIDStation
 2946 0b76 1D       		.uleb128 0x1d
 2947 0b77 5B060000 		.4byte	.LASF145
 2948 0b7b 05       		.byte	0x5
 2949 0b7c 66       		.byte	0x66
 2950 0b7d 43090000 		.4byte	0x943
 2951 0b81 05       		.uleb128 0x5
 2952 0b82 03       		.byte	0x3
 2953 0b83 00000000 		.4byte	Encabezado1
 2954 0b87 1D       		.uleb128 0x1d
 2955 0b88 F8050000 		.4byte	.LASF146
 2956 0b8c 05       		.byte	0x5
 2957 0b8d 67       		.byte	0x67
 2958 0b8e 81000000 		.4byte	0x81
 2959 0b92 05       		.uleb128 0x5
 2960 0b93 03       		.byte	0x3
 2961 0b94 00000000 		.4byte	CopiasCredito
 2962 0b98 1D       		.uleb128 0x1d
 2963 0b99 69000000 		.4byte	.LASF147
 2964 0b9d 05       		.byte	0x5
 2965 0b9e 68       		.byte	0x68
 2966 0b9f 5F030000 		.4byte	0x35f
 2967 0ba3 05       		.uleb128 0x5
 2968 0ba4 03       		.byte	0x3
 2969 0ba5 00000000 		.4byte	GradesHose
 2970 0ba9 1D       		.uleb128 0x1d
 2971 0baa 74000000 		.4byte	.LASF148
 2972 0bae 05       		.byte	0x5
 2973 0baf 69       		.byte	0x69
 2974 0bb0 81000000 		.4byte	0x81
 2975 0bb4 05       		.uleb128 0x5
 2976 0bb5 03       		.byte	0x3
 2977 0bb6 00000000 		.4byte	RFstateReport
 2978 0bba 1D       		.uleb128 0x1d
 2979 0bbb 3A080000 		.4byte	.LASF149
 2980 0bbf 05       		.byte	0x5
 2981 0bc0 A2       		.byte	0xa2
 2982 0bc1 F5000000 		.4byte	0xf5
 2983 0bc5 05       		.uleb128 0x5
 2984 0bc6 03       		.byte	0x3
 2985 0bc7 00000000 		.4byte	bufferDisplay1
 2986 0bcb 1D       		.uleb128 0x1d
 2987 0bcc CD050000 		.4byte	.LASF150
 2988 0bd0 05       		.byte	0x5
 2989 0bd1 A3       		.byte	0xa3
 2990 0bd2 F5000000 		.4byte	0xf5
 2991 0bd6 05       		.uleb128 0x5
 2992 0bd7 03       		.byte	0x3
 2993 0bd8 00000000 		.4byte	bufferDisplay2
 2994 0bdc 1D       		.uleb128 0x1d
ARM GAS  C:\Users\Diego\AppData\Local\Temp\cc6qIbsx.s 			page 59


 2995 0bdd A7010000 		.4byte	.LASF151
 2996 0be1 05       		.byte	0x5
 2997 0be2 A4       		.byte	0xa4
 2998 0be3 F5000000 		.4byte	0xf5
 2999 0be7 05       		.uleb128 0x5
 3000 0be8 03       		.byte	0x3
 3001 0be9 00000000 		.4byte	bufferDisplay3
 3002 0bed 1D       		.uleb128 0x1d
 3003 0bee E9050000 		.4byte	.LASF152
 3004 0bf2 05       		.byte	0x5
 3005 0bf3 A5       		.byte	0xa5
 3006 0bf4 F5000000 		.4byte	0xf5
 3007 0bf8 05       		.uleb128 0x5
 3008 0bf9 03       		.byte	0x3
 3009 0bfa 00000000 		.4byte	bufferDisplay4
 3010 0bfe 1D       		.uleb128 0x1d
 3011 0bff 0A010000 		.4byte	.LASF153
 3012 0c03 05       		.byte	0x5
 3013 0c04 C6       		.byte	0xc6
 3014 0c05 84040000 		.4byte	0x484
 3015 0c09 05       		.uleb128 0x5
 3016 0c0a 03       		.byte	0x3
 3017 0c0b 00000000 		.4byte	side
 3018 0c0f 1F       		.uleb128 0x1f
 3019 0c10 D8070000 		.4byte	.LASF156
 3020 0c14 E3000000 		.4byte	0xe3
 3021 0c18 2C0C0000 		.4byte	0xc2c
 3022 0c1c 20       		.uleb128 0x20
 3023 0c1d E3000000 		.4byte	0xe3
 3024 0c21 20       		.uleb128 0x20
 3025 0c22 BD040000 		.4byte	0x4bd
 3026 0c26 20       		.uleb128 0x20
 3027 0c27 DC000000 		.4byte	0xdc
 3028 0c2b 00       		.byte	0
 3029 0c2c 21       		.uleb128 0x21
 3030 0c2d 07020000 		.4byte	.LASF154
 3031 0c31 07       		.byte	0x7
 3032 0c32 73       		.byte	0x73
 3033 0c33 8D000000 		.4byte	0x8d
 3034 0c37 21       		.uleb128 0x21
 3035 0c38 00000000 		.4byte	.LASF155
 3036 0c3c 07       		.byte	0x7
 3037 0c3d 6F       		.byte	0x6f
 3038 0c3e 81000000 		.4byte	0x81
 3039 0c42 22       		.uleb128 0x22
 3040 0c43 19000000 		.4byte	.LASF157
 3041 0c47 07       		.byte	0x7
 3042 0c48 8A       		.byte	0x8a
 3043 0c49 530C0000 		.4byte	0xc53
 3044 0c4d 20       		.uleb128 0x20
 3045 0c4e 81000000 		.4byte	0x81
 3046 0c52 00       		.byte	0
 3047 0c53 21       		.uleb128 0x21
 3048 0c54 25050000 		.4byte	.LASF158
 3049 0c58 08       		.byte	0x8
 3050 0c59 23       		.byte	0x23
 3051 0c5a 81000000 		.4byte	0x81
ARM GAS  C:\Users\Diego\AppData\Local\Temp\cc6qIbsx.s 			page 60


 3052 0c5e 21       		.uleb128 0x21
 3053 0c5f 8D010000 		.4byte	.LASF159
 3054 0c63 08       		.byte	0x8
 3055 0c64 24       		.byte	0x24
 3056 0c65 81000000 		.4byte	0x81
 3057 0c69 23       		.uleb128 0x23
 3058 0c6a 59080000 		.4byte	.LASF166
 3059 0c6e 07       		.byte	0x7
 3060 0c6f 75       		.byte	0x75
 3061 0c70 00       		.byte	0
 3062              		.section	.debug_abbrev,"",%progbits
 3063              	.Ldebug_abbrev0:
 3064 0000 01       		.uleb128 0x1
 3065 0001 11       		.uleb128 0x11
 3066 0002 01       		.byte	0x1
 3067 0003 25       		.uleb128 0x25
 3068 0004 0E       		.uleb128 0xe
 3069 0005 13       		.uleb128 0x13
 3070 0006 0B       		.uleb128 0xb
 3071 0007 03       		.uleb128 0x3
 3072 0008 0E       		.uleb128 0xe
 3073 0009 1B       		.uleb128 0x1b
 3074 000a 0E       		.uleb128 0xe
 3075 000b 55       		.uleb128 0x55
 3076 000c 17       		.uleb128 0x17
 3077 000d 11       		.uleb128 0x11
 3078 000e 01       		.uleb128 0x1
 3079 000f 10       		.uleb128 0x10
 3080 0010 17       		.uleb128 0x17
 3081 0011 00       		.byte	0
 3082 0012 00       		.byte	0
 3083 0013 02       		.uleb128 0x2
 3084 0014 24       		.uleb128 0x24
 3085 0015 00       		.byte	0
 3086 0016 0B       		.uleb128 0xb
 3087 0017 0B       		.uleb128 0xb
 3088 0018 3E       		.uleb128 0x3e
 3089 0019 0B       		.uleb128 0xb
 3090 001a 03       		.uleb128 0x3
 3091 001b 0E       		.uleb128 0xe
 3092 001c 00       		.byte	0
 3093 001d 00       		.byte	0
 3094 001e 03       		.uleb128 0x3
 3095 001f 16       		.uleb128 0x16
 3096 0020 00       		.byte	0
 3097 0021 03       		.uleb128 0x3
 3098 0022 0E       		.uleb128 0xe
 3099 0023 3A       		.uleb128 0x3a
 3100 0024 0B       		.uleb128 0xb
 3101 0025 3B       		.uleb128 0x3b
 3102 0026 0B       		.uleb128 0xb
 3103 0027 49       		.uleb128 0x49
 3104 0028 13       		.uleb128 0x13
 3105 0029 00       		.byte	0
 3106 002a 00       		.byte	0
 3107 002b 04       		.uleb128 0x4
 3108 002c 24       		.uleb128 0x24
ARM GAS  C:\Users\Diego\AppData\Local\Temp\cc6qIbsx.s 			page 61


 3109 002d 00       		.byte	0
 3110 002e 0B       		.uleb128 0xb
 3111 002f 0B       		.uleb128 0xb
 3112 0030 3E       		.uleb128 0x3e
 3113 0031 0B       		.uleb128 0xb
 3114 0032 03       		.uleb128 0x3
 3115 0033 08       		.uleb128 0x8
 3116 0034 00       		.byte	0
 3117 0035 00       		.byte	0
 3118 0036 05       		.uleb128 0x5
 3119 0037 16       		.uleb128 0x16
 3120 0038 00       		.byte	0
 3121 0039 03       		.uleb128 0x3
 3122 003a 0E       		.uleb128 0xe
 3123 003b 3A       		.uleb128 0x3a
 3124 003c 0B       		.uleb128 0xb
 3125 003d 3B       		.uleb128 0x3b
 3126 003e 05       		.uleb128 0x5
 3127 003f 49       		.uleb128 0x49
 3128 0040 13       		.uleb128 0x13
 3129 0041 00       		.byte	0
 3130 0042 00       		.byte	0
 3131 0043 06       		.uleb128 0x6
 3132 0044 35       		.uleb128 0x35
 3133 0045 00       		.byte	0
 3134 0046 49       		.uleb128 0x49
 3135 0047 13       		.uleb128 0x13
 3136 0048 00       		.byte	0
 3137 0049 00       		.byte	0
 3138 004a 07       		.uleb128 0x7
 3139 004b 0F       		.uleb128 0xf
 3140 004c 00       		.byte	0
 3141 004d 0B       		.uleb128 0xb
 3142 004e 0B       		.uleb128 0xb
 3143 004f 00       		.byte	0
 3144 0050 00       		.byte	0
 3145 0051 08       		.uleb128 0x8
 3146 0052 01       		.uleb128 0x1
 3147 0053 01       		.byte	0x1
 3148 0054 49       		.uleb128 0x49
 3149 0055 13       		.uleb128 0x13
 3150 0056 01       		.uleb128 0x1
 3151 0057 13       		.uleb128 0x13
 3152 0058 00       		.byte	0
 3153 0059 00       		.byte	0
 3154 005a 09       		.uleb128 0x9
 3155 005b 21       		.uleb128 0x21
 3156 005c 00       		.byte	0
 3157 005d 49       		.uleb128 0x49
 3158 005e 13       		.uleb128 0x13
 3159 005f 2F       		.uleb128 0x2f
 3160 0060 0B       		.uleb128 0xb
 3161 0061 00       		.byte	0
 3162 0062 00       		.byte	0
 3163 0063 0A       		.uleb128 0xa
 3164 0064 13       		.uleb128 0x13
 3165 0065 01       		.byte	0x1
ARM GAS  C:\Users\Diego\AppData\Local\Temp\cc6qIbsx.s 			page 62


 3166 0066 03       		.uleb128 0x3
 3167 0067 0E       		.uleb128 0xe
 3168 0068 0B       		.uleb128 0xb
 3169 0069 05       		.uleb128 0x5
 3170 006a 3A       		.uleb128 0x3a
 3171 006b 0B       		.uleb128 0xb
 3172 006c 3B       		.uleb128 0x3b
 3173 006d 0B       		.uleb128 0xb
 3174 006e 01       		.uleb128 0x1
 3175 006f 13       		.uleb128 0x13
 3176 0070 00       		.byte	0
 3177 0071 00       		.byte	0
 3178 0072 0B       		.uleb128 0xb
 3179 0073 0D       		.uleb128 0xd
 3180 0074 00       		.byte	0
 3181 0075 03       		.uleb128 0x3
 3182 0076 0E       		.uleb128 0xe
 3183 0077 3A       		.uleb128 0x3a
 3184 0078 0B       		.uleb128 0xb
 3185 0079 3B       		.uleb128 0x3b
 3186 007a 0B       		.uleb128 0xb
 3187 007b 49       		.uleb128 0x49
 3188 007c 13       		.uleb128 0x13
 3189 007d 38       		.uleb128 0x38
 3190 007e 0B       		.uleb128 0xb
 3191 007f 00       		.byte	0
 3192 0080 00       		.byte	0
 3193 0081 0C       		.uleb128 0xc
 3194 0082 0D       		.uleb128 0xd
 3195 0083 00       		.byte	0
 3196 0084 03       		.uleb128 0x3
 3197 0085 0E       		.uleb128 0xe
 3198 0086 3A       		.uleb128 0x3a
 3199 0087 0B       		.uleb128 0xb
 3200 0088 3B       		.uleb128 0x3b
 3201 0089 0B       		.uleb128 0xb
 3202 008a 49       		.uleb128 0x49
 3203 008b 13       		.uleb128 0x13
 3204 008c 38       		.uleb128 0x38
 3205 008d 05       		.uleb128 0x5
 3206 008e 00       		.byte	0
 3207 008f 00       		.byte	0
 3208 0090 0D       		.uleb128 0xd
 3209 0091 0D       		.uleb128 0xd
 3210 0092 00       		.byte	0
 3211 0093 03       		.uleb128 0x3
 3212 0094 08       		.uleb128 0x8
 3213 0095 3A       		.uleb128 0x3a
 3214 0096 0B       		.uleb128 0xb
 3215 0097 3B       		.uleb128 0x3b
 3216 0098 0B       		.uleb128 0xb
 3217 0099 49       		.uleb128 0x49
 3218 009a 13       		.uleb128 0x13
 3219 009b 38       		.uleb128 0x38
 3220 009c 0B       		.uleb128 0xb
 3221 009d 00       		.byte	0
 3222 009e 00       		.byte	0
ARM GAS  C:\Users\Diego\AppData\Local\Temp\cc6qIbsx.s 			page 63


 3223 009f 0E       		.uleb128 0xe
 3224 00a0 0D       		.uleb128 0xd
 3225 00a1 00       		.byte	0
 3226 00a2 03       		.uleb128 0x3
 3227 00a3 08       		.uleb128 0x8
 3228 00a4 3A       		.uleb128 0x3a
 3229 00a5 0B       		.uleb128 0xb
 3230 00a6 3B       		.uleb128 0x3b
 3231 00a7 0B       		.uleb128 0xb
 3232 00a8 49       		.uleb128 0x49
 3233 00a9 13       		.uleb128 0x13
 3234 00aa 38       		.uleb128 0x38
 3235 00ab 05       		.uleb128 0x5
 3236 00ac 00       		.byte	0
 3237 00ad 00       		.byte	0
 3238 00ae 0F       		.uleb128 0xf
 3239 00af 0F       		.uleb128 0xf
 3240 00b0 00       		.byte	0
 3241 00b1 0B       		.uleb128 0xb
 3242 00b2 0B       		.uleb128 0xb
 3243 00b3 49       		.uleb128 0x49
 3244 00b4 13       		.uleb128 0x13
 3245 00b5 00       		.byte	0
 3246 00b6 00       		.byte	0
 3247 00b7 10       		.uleb128 0x10
 3248 00b8 26       		.uleb128 0x26
 3249 00b9 00       		.byte	0
 3250 00ba 00       		.byte	0
 3251 00bb 00       		.byte	0
 3252 00bc 11       		.uleb128 0x11
 3253 00bd 2E       		.uleb128 0x2e
 3254 00be 01       		.byte	0x1
 3255 00bf 3F       		.uleb128 0x3f
 3256 00c0 19       		.uleb128 0x19
 3257 00c1 03       		.uleb128 0x3
 3258 00c2 0E       		.uleb128 0xe
 3259 00c3 3A       		.uleb128 0x3a
 3260 00c4 0B       		.uleb128 0xb
 3261 00c5 3B       		.uleb128 0x3b
 3262 00c6 0B       		.uleb128 0xb
 3263 00c7 27       		.uleb128 0x27
 3264 00c8 19       		.uleb128 0x19
 3265 00c9 49       		.uleb128 0x49
 3266 00ca 13       		.uleb128 0x13
 3267 00cb 11       		.uleb128 0x11
 3268 00cc 01       		.uleb128 0x1
 3269 00cd 12       		.uleb128 0x12
 3270 00ce 06       		.uleb128 0x6
 3271 00cf 40       		.uleb128 0x40
 3272 00d0 18       		.uleb128 0x18
 3273 00d1 9742     		.uleb128 0x2117
 3274 00d3 19       		.uleb128 0x19
 3275 00d4 01       		.uleb128 0x1
 3276 00d5 13       		.uleb128 0x13
 3277 00d6 00       		.byte	0
 3278 00d7 00       		.byte	0
 3279 00d8 12       		.uleb128 0x12
ARM GAS  C:\Users\Diego\AppData\Local\Temp\cc6qIbsx.s 			page 64


 3280 00d9 05       		.uleb128 0x5
 3281 00da 00       		.byte	0
 3282 00db 03       		.uleb128 0x3
 3283 00dc 0E       		.uleb128 0xe
 3284 00dd 3A       		.uleb128 0x3a
 3285 00de 0B       		.uleb128 0xb
 3286 00df 3B       		.uleb128 0x3b
 3287 00e0 0B       		.uleb128 0xb
 3288 00e1 49       		.uleb128 0x49
 3289 00e2 13       		.uleb128 0x13
 3290 00e3 02       		.uleb128 0x2
 3291 00e4 17       		.uleb128 0x17
 3292 00e5 00       		.byte	0
 3293 00e6 00       		.byte	0
 3294 00e7 13       		.uleb128 0x13
 3295 00e8 34       		.uleb128 0x34
 3296 00e9 00       		.byte	0
 3297 00ea 03       		.uleb128 0x3
 3298 00eb 0E       		.uleb128 0xe
 3299 00ec 3A       		.uleb128 0x3a
 3300 00ed 0B       		.uleb128 0xb
 3301 00ee 3B       		.uleb128 0x3b
 3302 00ef 0B       		.uleb128 0xb
 3303 00f0 49       		.uleb128 0x49
 3304 00f1 13       		.uleb128 0x13
 3305 00f2 02       		.uleb128 0x2
 3306 00f3 17       		.uleb128 0x17
 3307 00f4 00       		.byte	0
 3308 00f5 00       		.byte	0
 3309 00f6 14       		.uleb128 0x14
 3310 00f7 34       		.uleb128 0x34
 3311 00f8 00       		.byte	0
 3312 00f9 03       		.uleb128 0x3
 3313 00fa 08       		.uleb128 0x8
 3314 00fb 3A       		.uleb128 0x3a
 3315 00fc 0B       		.uleb128 0xb
 3316 00fd 3B       		.uleb128 0x3b
 3317 00fe 0B       		.uleb128 0xb
 3318 00ff 49       		.uleb128 0x49
 3319 0100 13       		.uleb128 0x13
 3320 0101 02       		.uleb128 0x2
 3321 0102 17       		.uleb128 0x17
 3322 0103 00       		.byte	0
 3323 0104 00       		.byte	0
 3324 0105 15       		.uleb128 0x15
 3325 0106 34       		.uleb128 0x34
 3326 0107 00       		.byte	0
 3327 0108 03       		.uleb128 0x3
 3328 0109 0E       		.uleb128 0xe
 3329 010a 3A       		.uleb128 0x3a
 3330 010b 0B       		.uleb128 0xb
 3331 010c 3B       		.uleb128 0x3b
 3332 010d 0B       		.uleb128 0xb
 3333 010e 49       		.uleb128 0x49
 3334 010f 13       		.uleb128 0x13
 3335 0110 02       		.uleb128 0x2
 3336 0111 18       		.uleb128 0x18
ARM GAS  C:\Users\Diego\AppData\Local\Temp\cc6qIbsx.s 			page 65


 3337 0112 00       		.byte	0
 3338 0113 00       		.byte	0
 3339 0114 16       		.uleb128 0x16
 3340 0115 898201   		.uleb128 0x4109
 3341 0118 01       		.byte	0x1
 3342 0119 11       		.uleb128 0x11
 3343 011a 01       		.uleb128 0x1
 3344 011b 31       		.uleb128 0x31
 3345 011c 13       		.uleb128 0x13
 3346 011d 00       		.byte	0
 3347 011e 00       		.byte	0
 3348 011f 17       		.uleb128 0x17
 3349 0120 8A8201   		.uleb128 0x410a
 3350 0123 00       		.byte	0
 3351 0124 02       		.uleb128 0x2
 3352 0125 18       		.uleb128 0x18
 3353 0126 9142     		.uleb128 0x2111
 3354 0128 18       		.uleb128 0x18
 3355 0129 00       		.byte	0
 3356 012a 00       		.byte	0
 3357 012b 18       		.uleb128 0x18
 3358 012c 2E       		.uleb128 0x2e
 3359 012d 01       		.byte	0x1
 3360 012e 3F       		.uleb128 0x3f
 3361 012f 19       		.uleb128 0x19
 3362 0130 03       		.uleb128 0x3
 3363 0131 0E       		.uleb128 0xe
 3364 0132 3A       		.uleb128 0x3a
 3365 0133 0B       		.uleb128 0xb
 3366 0134 3B       		.uleb128 0x3b
 3367 0135 0B       		.uleb128 0xb
 3368 0136 27       		.uleb128 0x27
 3369 0137 19       		.uleb128 0x19
 3370 0138 11       		.uleb128 0x11
 3371 0139 01       		.uleb128 0x1
 3372 013a 12       		.uleb128 0x12
 3373 013b 06       		.uleb128 0x6
 3374 013c 40       		.uleb128 0x40
 3375 013d 18       		.uleb128 0x18
 3376 013e 9742     		.uleb128 0x2117
 3377 0140 19       		.uleb128 0x19
 3378 0141 01       		.uleb128 0x1
 3379 0142 13       		.uleb128 0x13
 3380 0143 00       		.byte	0
 3381 0144 00       		.byte	0
 3382 0145 19       		.uleb128 0x19
 3383 0146 898201   		.uleb128 0x4109
 3384 0149 00       		.byte	0
 3385 014a 11       		.uleb128 0x11
 3386 014b 01       		.uleb128 0x1
 3387 014c 31       		.uleb128 0x31
 3388 014d 13       		.uleb128 0x13
 3389 014e 00       		.byte	0
 3390 014f 00       		.byte	0
 3391 0150 1A       		.uleb128 0x1a
 3392 0151 898201   		.uleb128 0x4109
 3393 0154 01       		.byte	0x1
ARM GAS  C:\Users\Diego\AppData\Local\Temp\cc6qIbsx.s 			page 66


 3394 0155 11       		.uleb128 0x11
 3395 0156 01       		.uleb128 0x1
 3396 0157 31       		.uleb128 0x31
 3397 0158 13       		.uleb128 0x13
 3398 0159 01       		.uleb128 0x1
 3399 015a 13       		.uleb128 0x13
 3400 015b 00       		.byte	0
 3401 015c 00       		.byte	0
 3402 015d 1B       		.uleb128 0x1b
 3403 015e 2E       		.uleb128 0x2e
 3404 015f 00       		.byte	0
 3405 0160 3F       		.uleb128 0x3f
 3406 0161 19       		.uleb128 0x19
 3407 0162 03       		.uleb128 0x3
 3408 0163 0E       		.uleb128 0xe
 3409 0164 3A       		.uleb128 0x3a
 3410 0165 0B       		.uleb128 0xb
 3411 0166 3B       		.uleb128 0x3b
 3412 0167 05       		.uleb128 0x5
 3413 0168 27       		.uleb128 0x27
 3414 0169 19       		.uleb128 0x19
 3415 016a 11       		.uleb128 0x11
 3416 016b 01       		.uleb128 0x1
 3417 016c 12       		.uleb128 0x12
 3418 016d 06       		.uleb128 0x6
 3419 016e 40       		.uleb128 0x40
 3420 016f 18       		.uleb128 0x18
 3421 0170 9742     		.uleb128 0x2117
 3422 0172 19       		.uleb128 0x19
 3423 0173 00       		.byte	0
 3424 0174 00       		.byte	0
 3425 0175 1C       		.uleb128 0x1c
 3426 0176 34       		.uleb128 0x34
 3427 0177 00       		.byte	0
 3428 0178 03       		.uleb128 0x3
 3429 0179 0E       		.uleb128 0xe
 3430 017a 3A       		.uleb128 0x3a
 3431 017b 0B       		.uleb128 0xb
 3432 017c 3B       		.uleb128 0x3b
 3433 017d 05       		.uleb128 0x5
 3434 017e 49       		.uleb128 0x49
 3435 017f 13       		.uleb128 0x13
 3436 0180 3F       		.uleb128 0x3f
 3437 0181 19       		.uleb128 0x19
 3438 0182 3C       		.uleb128 0x3c
 3439 0183 19       		.uleb128 0x19
 3440 0184 00       		.byte	0
 3441 0185 00       		.byte	0
 3442 0186 1D       		.uleb128 0x1d
 3443 0187 34       		.uleb128 0x34
 3444 0188 00       		.byte	0
 3445 0189 03       		.uleb128 0x3
 3446 018a 0E       		.uleb128 0xe
 3447 018b 3A       		.uleb128 0x3a
 3448 018c 0B       		.uleb128 0xb
 3449 018d 3B       		.uleb128 0x3b
 3450 018e 0B       		.uleb128 0xb
ARM GAS  C:\Users\Diego\AppData\Local\Temp\cc6qIbsx.s 			page 67


 3451 018f 49       		.uleb128 0x49
 3452 0190 13       		.uleb128 0x13
 3453 0191 3F       		.uleb128 0x3f
 3454 0192 19       		.uleb128 0x19
 3455 0193 02       		.uleb128 0x2
 3456 0194 18       		.uleb128 0x18
 3457 0195 00       		.byte	0
 3458 0196 00       		.byte	0
 3459 0197 1E       		.uleb128 0x1e
 3460 0198 21       		.uleb128 0x21
 3461 0199 00       		.byte	0
 3462 019a 49       		.uleb128 0x49
 3463 019b 13       		.uleb128 0x13
 3464 019c 2F       		.uleb128 0x2f
 3465 019d 05       		.uleb128 0x5
 3466 019e 00       		.byte	0
 3467 019f 00       		.byte	0
 3468 01a0 1F       		.uleb128 0x1f
 3469 01a1 2E       		.uleb128 0x2e
 3470 01a2 01       		.byte	0x1
 3471 01a3 3F       		.uleb128 0x3f
 3472 01a4 19       		.uleb128 0x19
 3473 01a5 03       		.uleb128 0x3
 3474 01a6 0E       		.uleb128 0xe
 3475 01a7 27       		.uleb128 0x27
 3476 01a8 19       		.uleb128 0x19
 3477 01a9 49       		.uleb128 0x49
 3478 01aa 13       		.uleb128 0x13
 3479 01ab 34       		.uleb128 0x34
 3480 01ac 19       		.uleb128 0x19
 3481 01ad 3C       		.uleb128 0x3c
 3482 01ae 19       		.uleb128 0x19
 3483 01af 01       		.uleb128 0x1
 3484 01b0 13       		.uleb128 0x13
 3485 01b1 00       		.byte	0
 3486 01b2 00       		.byte	0
 3487 01b3 20       		.uleb128 0x20
 3488 01b4 05       		.uleb128 0x5
 3489 01b5 00       		.byte	0
 3490 01b6 49       		.uleb128 0x49
 3491 01b7 13       		.uleb128 0x13
 3492 01b8 00       		.byte	0
 3493 01b9 00       		.byte	0
 3494 01ba 21       		.uleb128 0x21
 3495 01bb 2E       		.uleb128 0x2e
 3496 01bc 00       		.byte	0
 3497 01bd 3F       		.uleb128 0x3f
 3498 01be 19       		.uleb128 0x19
 3499 01bf 03       		.uleb128 0x3
 3500 01c0 0E       		.uleb128 0xe
 3501 01c1 3A       		.uleb128 0x3a
 3502 01c2 0B       		.uleb128 0xb
 3503 01c3 3B       		.uleb128 0x3b
 3504 01c4 0B       		.uleb128 0xb
 3505 01c5 27       		.uleb128 0x27
 3506 01c6 19       		.uleb128 0x19
 3507 01c7 49       		.uleb128 0x49
ARM GAS  C:\Users\Diego\AppData\Local\Temp\cc6qIbsx.s 			page 68


 3508 01c8 13       		.uleb128 0x13
 3509 01c9 3C       		.uleb128 0x3c
 3510 01ca 19       		.uleb128 0x19
 3511 01cb 00       		.byte	0
 3512 01cc 00       		.byte	0
 3513 01cd 22       		.uleb128 0x22
 3514 01ce 2E       		.uleb128 0x2e
 3515 01cf 01       		.byte	0x1
 3516 01d0 3F       		.uleb128 0x3f
 3517 01d1 19       		.uleb128 0x19
 3518 01d2 03       		.uleb128 0x3
 3519 01d3 0E       		.uleb128 0xe
 3520 01d4 3A       		.uleb128 0x3a
 3521 01d5 0B       		.uleb128 0xb
 3522 01d6 3B       		.uleb128 0x3b
 3523 01d7 0B       		.uleb128 0xb
 3524 01d8 27       		.uleb128 0x27
 3525 01d9 19       		.uleb128 0x19
 3526 01da 3C       		.uleb128 0x3c
 3527 01db 19       		.uleb128 0x19
 3528 01dc 01       		.uleb128 0x1
 3529 01dd 13       		.uleb128 0x13
 3530 01de 00       		.byte	0
 3531 01df 00       		.byte	0
 3532 01e0 23       		.uleb128 0x23
 3533 01e1 2E       		.uleb128 0x2e
 3534 01e2 00       		.byte	0
 3535 01e3 3F       		.uleb128 0x3f
 3536 01e4 19       		.uleb128 0x19
 3537 01e5 03       		.uleb128 0x3
 3538 01e6 0E       		.uleb128 0xe
 3539 01e7 3A       		.uleb128 0x3a
 3540 01e8 0B       		.uleb128 0xb
 3541 01e9 3B       		.uleb128 0x3b
 3542 01ea 0B       		.uleb128 0xb
 3543 01eb 27       		.uleb128 0x27
 3544 01ec 19       		.uleb128 0x19
 3545 01ed 3C       		.uleb128 0x3c
 3546 01ee 19       		.uleb128 0x19
 3547 01ef 00       		.byte	0
 3548 01f0 00       		.byte	0
 3549 01f1 00       		.byte	0
 3550              		.section	.debug_loc,"",%progbits
 3551              	.Ldebug_loc0:
 3552              	.LLST0:
 3553 0000 00000000 		.4byte	.LVL0
 3554 0004 0A000000 		.4byte	.LVL1
 3555 0008 0100     		.2byte	0x1
 3556 000a 50       		.byte	0x50
 3557 000b 0A000000 		.4byte	.LVL1
 3558 000f 30000000 		.4byte	.LVL9
 3559 0013 0100     		.2byte	0x1
 3560 0015 55       		.byte	0x55
 3561 0016 30000000 		.4byte	.LVL9
 3562 001a 34000000 		.4byte	.LFE63
 3563 001e 0400     		.2byte	0x4
 3564 0020 F3       		.byte	0xf3
ARM GAS  C:\Users\Diego\AppData\Local\Temp\cc6qIbsx.s 			page 69


 3565 0021 01       		.uleb128 0x1
 3566 0022 50       		.byte	0x50
 3567 0023 9F       		.byte	0x9f
 3568 0024 00000000 		.4byte	0
 3569 0028 00000000 		.4byte	0
 3570              	.LLST1:
 3571 002c 00000000 		.4byte	.LVL0
 3572 0030 0C000000 		.4byte	.LVL2
 3573 0034 0100     		.2byte	0x1
 3574 0036 51       		.byte	0x51
 3575 0037 0C000000 		.4byte	.LVL2
 3576 003b 34000000 		.4byte	.LFE63
 3577 003f 0400     		.2byte	0x4
 3578 0041 F3       		.byte	0xf3
 3579 0042 01       		.uleb128 0x1
 3580 0043 51       		.byte	0x51
 3581 0044 9F       		.byte	0x9f
 3582 0045 00000000 		.4byte	0
 3583 0049 00000000 		.4byte	0
 3584              	.LLST2:
 3585 004d 14000000 		.4byte	.LVL3
 3586 0051 1A000000 		.4byte	.LVL4
 3587 0055 0200     		.2byte	0x2
 3588 0057 30       		.byte	0x30
 3589 0058 9F       		.byte	0x9f
 3590 0059 1A000000 		.4byte	.LVL4
 3591 005d 1E000000 		.4byte	.LVL5
 3592 0061 0100     		.2byte	0x1
 3593 0063 50       		.byte	0x50
 3594 0064 22000000 		.4byte	.LVL6
 3595 0068 34000000 		.4byte	.LFE63
 3596 006c 0100     		.2byte	0x1
 3597 006e 50       		.byte	0x50
 3598 006f 00000000 		.4byte	0
 3599 0073 00000000 		.4byte	0
 3600              	.LLST3:
 3601 0077 1E000000 		.4byte	.LVL5
 3602 007b 22000000 		.4byte	.LVL6
 3603 007f 0100     		.2byte	0x1
 3604 0081 50       		.byte	0x50
 3605 0082 00000000 		.4byte	0
 3606 0086 00000000 		.4byte	0
 3607              	.LLST4:
 3608 008a 14000000 		.4byte	.LVL3
 3609 008e 1A000000 		.4byte	.LVL4
 3610 0092 0200     		.2byte	0x2
 3611 0094 30       		.byte	0x30
 3612 0095 9F       		.byte	0x9f
 3613 0096 1A000000 		.4byte	.LVL4
 3614 009a 24000000 		.4byte	.LVL7
 3615 009e 0100     		.2byte	0x1
 3616 00a0 53       		.byte	0x53
 3617 00a1 26000000 		.4byte	.LVL8
 3618 00a5 34000000 		.4byte	.LFE63
 3619 00a9 0100     		.2byte	0x1
 3620 00ab 53       		.byte	0x53
 3621 00ac 00000000 		.4byte	0
ARM GAS  C:\Users\Diego\AppData\Local\Temp\cc6qIbsx.s 			page 70


 3622 00b0 00000000 		.4byte	0
 3623              	.LLST5:
 3624 00b4 18000000 		.4byte	.LVL11
 3625 00b8 1A000000 		.4byte	.LVL12
 3626 00bc 0200     		.2byte	0x2
 3627 00be 30       		.byte	0x30
 3628 00bf 9F       		.byte	0x9f
 3629 00c0 1A000000 		.4byte	.LVL12
 3630 00c4 24000000 		.4byte	.LVL14
 3631 00c8 0100     		.2byte	0x1
 3632 00ca 54       		.byte	0x54
 3633 00cb 26000000 		.4byte	.LVL15
 3634 00cf C8000000 		.4byte	.LVL26
 3635 00d3 0100     		.2byte	0x1
 3636 00d5 54       		.byte	0x54
 3637 00d6 CA000000 		.4byte	.LVL27
 3638 00da CC000000 		.4byte	.LVL28
 3639 00de 0100     		.2byte	0x1
 3640 00e0 54       		.byte	0x54
 3641 00e1 64010000 		.4byte	.LVL50
 3642 00e5 96010000 		.4byte	.LVL56
 3643 00e9 0100     		.2byte	0x1
 3644 00eb 54       		.byte	0x54
 3645 00ec AC010000 		.4byte	.LVL62
 3646 00f0 AE010000 		.4byte	.LVL63
 3647 00f4 0100     		.2byte	0x1
 3648 00f6 54       		.byte	0x54
 3649 00f7 F8010000 		.4byte	.LVL79
 3650 00fb FA010000 		.4byte	.LVL80
 3651 00ff 0100     		.2byte	0x1
 3652 0101 54       		.byte	0x54
 3653 0102 E0020000 		.4byte	.LVL118
 3654 0106 EE020000 		.4byte	.LVL119
 3655 010a 0100     		.2byte	0x1
 3656 010c 54       		.byte	0x54
 3657 010d 08030000 		.4byte	.LVL123
 3658 0111 0A030000 		.4byte	.LVL124
 3659 0115 0100     		.2byte	0x1
 3660 0117 54       		.byte	0x54
 3661 0118 36040000 		.4byte	.LVL169
 3662 011c A2040000 		.4byte	.LVL170
 3663 0120 0100     		.2byte	0x1
 3664 0122 54       		.byte	0x54
 3665 0123 C2040000 		.4byte	.LVL177
 3666 0127 12050000 		.4byte	.LVL185
 3667 012b 0100     		.2byte	0x1
 3668 012d 54       		.byte	0x54
 3669 012e 00000000 		.4byte	0
 3670 0132 00000000 		.4byte	0
 3671              	.LLST6:
 3672 0136 4E010000 		.4byte	.LVL45
 3673 013a 52010000 		.4byte	.LVL46
 3674 013e 0200     		.2byte	0x2
 3675 0140 30       		.byte	0x30
 3676 0141 9F       		.byte	0x9f
 3677 0142 52010000 		.4byte	.LVL46
 3678 0146 5C010000 		.4byte	.LVL48
ARM GAS  C:\Users\Diego\AppData\Local\Temp\cc6qIbsx.s 			page 71


 3679 014a 0100     		.2byte	0x1
 3680 014c 54       		.byte	0x54
 3681 014d 5E010000 		.4byte	.LVL49
 3682 0151 64010000 		.4byte	.LVL50
 3683 0155 0100     		.2byte	0x1
 3684 0157 54       		.byte	0x54
 3685 0158 98010000 		.4byte	.LVL57
 3686 015c A8010000 		.4byte	.LVL60
 3687 0160 0100     		.2byte	0x1
 3688 0162 53       		.byte	0x53
 3689 0163 AA010000 		.4byte	.LVL61
 3690 0167 AC010000 		.4byte	.LVL62
 3691 016b 0100     		.2byte	0x1
 3692 016d 53       		.byte	0x53
 3693 016e B0010000 		.4byte	.LVL64
 3694 0172 C2010000 		.4byte	.LVL67
 3695 0176 0100     		.2byte	0x1
 3696 0178 53       		.byte	0x53
 3697 0179 C4010000 		.4byte	.LVL68
 3698 017d CA010000 		.4byte	.LVL69
 3699 0181 0100     		.2byte	0x1
 3700 0183 53       		.byte	0x53
 3701 0184 CC010000 		.4byte	.LVL70
 3702 0188 DC010000 		.4byte	.LVL73
 3703 018c 0100     		.2byte	0x1
 3704 018e 53       		.byte	0x53
 3705 018f DE010000 		.4byte	.LVL74
 3706 0193 F0010000 		.4byte	.LVL77
 3707 0197 0100     		.2byte	0x1
 3708 0199 53       		.byte	0x53
 3709 019a F2010000 		.4byte	.LVL78
 3710 019e F8010000 		.4byte	.LVL79
 3711 01a2 0100     		.2byte	0x1
 3712 01a4 53       		.byte	0x53
 3713 01a5 3E020000 		.4byte	.LVL90
 3714 01a9 50020000 		.4byte	.LVL93
 3715 01ad 0100     		.2byte	0x1
 3716 01af 53       		.byte	0x53
 3717 01b0 52020000 		.4byte	.LVL94
 3718 01b4 54020000 		.4byte	.LVL95
 3719 01b8 0100     		.2byte	0x1
 3720 01ba 53       		.byte	0x53
 3721 01bb 56020000 		.4byte	.LVL96
 3722 01bf 68020000 		.4byte	.LVL99
 3723 01c3 0100     		.2byte	0x1
 3724 01c5 53       		.byte	0x53
 3725 01c6 6A020000 		.4byte	.LVL100
 3726 01ca 70020000 		.4byte	.LVL101
 3727 01ce 0100     		.2byte	0x1
 3728 01d0 53       		.byte	0x53
 3729 01d1 72020000 		.4byte	.LVL102
 3730 01d5 84020000 		.4byte	.LVL105
 3731 01d9 0100     		.2byte	0x1
 3732 01db 53       		.byte	0x53
 3733 01dc 86020000 		.4byte	.LVL106
 3734 01e0 98020000 		.4byte	.LVL109
 3735 01e4 0100     		.2byte	0x1
ARM GAS  C:\Users\Diego\AppData\Local\Temp\cc6qIbsx.s 			page 72


 3736 01e6 53       		.byte	0x53
 3737 01e7 9A020000 		.4byte	.LVL110
 3738 01eb 9E020000 		.4byte	.LVL111
 3739 01ef 0100     		.2byte	0x1
 3740 01f1 53       		.byte	0x53
 3741 01f2 AE020000 		.4byte	.LVL113
 3742 01f6 B2020000 		.4byte	.LVL114
 3743 01fa 0200     		.2byte	0x2
 3744 01fc 30       		.byte	0x30
 3745 01fd 9F       		.byte	0x9f
 3746 01fe B2020000 		.4byte	.LVL114
 3747 0202 BC020000 		.4byte	.LVL116
 3748 0206 0100     		.2byte	0x1
 3749 0208 54       		.byte	0x54
 3750 0209 BE020000 		.4byte	.LVL117
 3751 020d E0020000 		.4byte	.LVL118
 3752 0211 0100     		.2byte	0x1
 3753 0213 54       		.byte	0x54
 3754 0214 F0020000 		.4byte	.LVL120
 3755 0218 04030000 		.4byte	.LVL121
 3756 021c 0100     		.2byte	0x1
 3757 021e 53       		.byte	0x53
 3758 021f 06030000 		.4byte	.LVL122
 3759 0223 08030000 		.4byte	.LVL123
 3760 0227 0100     		.2byte	0x1
 3761 0229 53       		.byte	0x53
 3762 022a 0A030000 		.4byte	.LVL124
 3763 022e 12030000 		.4byte	.LVL125
 3764 0232 0100     		.2byte	0x1
 3765 0234 53       		.byte	0x53
 3766 0235 36030000 		.4byte	.LVL130
 3767 0239 4A030000 		.4byte	.LVL131
 3768 023d 0100     		.2byte	0x1
 3769 023f 53       		.byte	0x53
 3770 0240 4C030000 		.4byte	.LVL132
 3771 0244 4E030000 		.4byte	.LVL133
 3772 0248 0100     		.2byte	0x1
 3773 024a 53       		.byte	0x53
 3774 024b 50030000 		.4byte	.LVL134
 3775 024f 58030000 		.4byte	.LVL135
 3776 0253 0100     		.2byte	0x1
 3777 0255 53       		.byte	0x53
 3778 0256 86030000 		.4byte	.LVL141
 3779 025a 9A030000 		.4byte	.LVL142
 3780 025e 0100     		.2byte	0x1
 3781 0260 53       		.byte	0x53
 3782 0261 9C030000 		.4byte	.LVL143
 3783 0265 9E030000 		.4byte	.LVL144
 3784 0269 0100     		.2byte	0x1
 3785 026b 53       		.byte	0x53
 3786 026c A0030000 		.4byte	.LVL145
 3787 0270 A8030000 		.4byte	.LVL146
 3788 0274 0100     		.2byte	0x1
 3789 0276 53       		.byte	0x53
 3790 0277 D4030000 		.4byte	.LVL152
 3791 027b E8030000 		.4byte	.LVL153
 3792 027f 0100     		.2byte	0x1
ARM GAS  C:\Users\Diego\AppData\Local\Temp\cc6qIbsx.s 			page 73


 3793 0281 53       		.byte	0x53
 3794 0282 EA030000 		.4byte	.LVL154
 3795 0286 EC030000 		.4byte	.LVL155
 3796 028a 0100     		.2byte	0x1
 3797 028c 53       		.byte	0x53
 3798 028d EE030000 		.4byte	.LVL156
 3799 0291 F6030000 		.4byte	.LVL157
 3800 0295 0100     		.2byte	0x1
 3801 0297 53       		.byte	0x53
 3802 0298 20040000 		.4byte	.LVL164
 3803 029c 24040000 		.4byte	.LVL165
 3804 02a0 0200     		.2byte	0x2
 3805 02a2 30       		.byte	0x30
 3806 02a3 9F       		.byte	0x9f
 3807 02a4 24040000 		.4byte	.LVL165
 3808 02a8 2E040000 		.4byte	.LVL167
 3809 02ac 0100     		.2byte	0x1
 3810 02ae 54       		.byte	0x54
 3811 02af 30040000 		.4byte	.LVL168
 3812 02b3 36040000 		.4byte	.LVL169
 3813 02b7 0100     		.2byte	0x1
 3814 02b9 54       		.byte	0x54
 3815 02ba AC040000 		.4byte	.LVL172
 3816 02be B0040000 		.4byte	.LVL173
 3817 02c2 0200     		.2byte	0x2
 3818 02c4 30       		.byte	0x30
 3819 02c5 9F       		.byte	0x9f
 3820 02c6 B0040000 		.4byte	.LVL173
 3821 02ca BA040000 		.4byte	.LVL175
 3822 02ce 0100     		.2byte	0x1
 3823 02d0 54       		.byte	0x54
 3824 02d1 BC040000 		.4byte	.LVL176
 3825 02d5 C2040000 		.4byte	.LVL177
 3826 02d9 0100     		.2byte	0x1
 3827 02db 54       		.byte	0x54
 3828 02dc E2040000 		.4byte	.LVL178
 3829 02e0 E6040000 		.4byte	.LVL179
 3830 02e4 0200     		.2byte	0x2
 3831 02e6 41       		.byte	0x41
 3832 02e7 9F       		.byte	0x9f
 3833 02e8 E6040000 		.4byte	.LVL179
 3834 02ec F4040000 		.4byte	.LVL180
 3835 02f0 0100     		.2byte	0x1
 3836 02f2 53       		.byte	0x53
 3837 02f3 F6040000 		.4byte	.LVL181
 3838 02f7 FC040000 		.4byte	.LVL182
 3839 02fb 0100     		.2byte	0x1
 3840 02fd 53       		.byte	0x53
 3841 02fe 2A050000 		.4byte	.LVL187
 3842 0302 2E050000 		.4byte	.LVL188
 3843 0306 0200     		.2byte	0x2
 3844 0308 30       		.byte	0x30
 3845 0309 9F       		.byte	0x9f
 3846 030a 2E050000 		.4byte	.LVL188
 3847 030e 38050000 		.4byte	.LVL190
 3848 0312 0100     		.2byte	0x1
 3849 0314 54       		.byte	0x54
ARM GAS  C:\Users\Diego\AppData\Local\Temp\cc6qIbsx.s 			page 74


 3850 0315 3A050000 		.4byte	.LVL191
 3851 0319 42050000 		.4byte	.LVL192
 3852 031d 0100     		.2byte	0x1
 3853 031f 54       		.byte	0x54
 3854 0320 42050000 		.4byte	.LVL192
 3855 0324 50050000 		.4byte	.LVL193
 3856 0328 0100     		.2byte	0x1
 3857 032a 53       		.byte	0x53
 3858 032b 52050000 		.4byte	.LVL194
 3859 032f 56050000 		.4byte	.LVL195
 3860 0333 0100     		.2byte	0x1
 3861 0335 53       		.byte	0x53
 3862 0336 00000000 		.4byte	0
 3863 033a 00000000 		.4byte	0
 3864              	.LLST7:
 3865 033e 2E000000 		.4byte	.LVL17
 3866 0342 34000000 		.4byte	.LVL18
 3867 0346 0200     		.2byte	0x2
 3868 0348 30       		.byte	0x30
 3869 0349 9F       		.byte	0x9f
 3870 034a 34000000 		.4byte	.LVL18
 3871 034e 38000000 		.4byte	.LVL19
 3872 0352 0200     		.2byte	0x2
 3873 0354 31       		.byte	0x31
 3874 0355 9F       		.byte	0x9f
 3875 0356 38000000 		.4byte	.LVL19
 3876 035a 3C000000 		.4byte	.LVL20
 3877 035e 0200     		.2byte	0x2
 3878 0360 32       		.byte	0x32
 3879 0361 9F       		.byte	0x9f
 3880 0362 3C000000 		.4byte	.LVL20
 3881 0366 42000000 		.4byte	.LVL21
 3882 036a 0200     		.2byte	0x2
 3883 036c 33       		.byte	0x33
 3884 036d 9F       		.byte	0x9f
 3885 036e 42000000 		.4byte	.LVL21
 3886 0372 46000000 		.4byte	.LVL22
 3887 0376 0200     		.2byte	0x2
 3888 0378 34       		.byte	0x34
 3889 0379 9F       		.byte	0x9f
 3890 037a 46000000 		.4byte	.LVL22
 3891 037e BA000000 		.4byte	.LVL23
 3892 0382 0200     		.2byte	0x2
 3893 0384 35       		.byte	0x35
 3894 0385 9F       		.byte	0x9f
 3895 0386 BA000000 		.4byte	.LVL23
 3896 038a BE000000 		.4byte	.LVL24
 3897 038e 0200     		.2byte	0x2
 3898 0390 36       		.byte	0x36
 3899 0391 9F       		.byte	0x9f
 3900 0392 BE000000 		.4byte	.LVL24
 3901 0396 C6000000 		.4byte	.LVL25
 3902 039a 0200     		.2byte	0x2
 3903 039c 37       		.byte	0x37
 3904 039d 9F       		.byte	0x9f
 3905 039e C6000000 		.4byte	.LVL25
 3906 03a2 CA000000 		.4byte	.LVL27
ARM GAS  C:\Users\Diego\AppData\Local\Temp\cc6qIbsx.s 			page 75


 3907 03a6 0200     		.2byte	0x2
 3908 03a8 38       		.byte	0x38
 3909 03a9 9F       		.byte	0x9f
 3910 03aa CA000000 		.4byte	.LVL27
 3911 03ae CC000000 		.4byte	.LVL28
 3912 03b2 0200     		.2byte	0x2
 3913 03b4 35       		.byte	0x35
 3914 03b5 9F       		.byte	0x9f
 3915 03b6 CC000000 		.4byte	.LVL28
 3916 03ba DE000000 		.4byte	.LVL29
 3917 03be 0100     		.2byte	0x1
 3918 03c0 54       		.byte	0x54
 3919 03c1 DE000000 		.4byte	.LVL29
 3920 03c5 E4000000 		.4byte	.LVL30
 3921 03c9 0100     		.2byte	0x1
 3922 03cb 53       		.byte	0x53
 3923 03cc E4000000 		.4byte	.LVL30
 3924 03d0 E6000000 		.4byte	.LVL31
 3925 03d4 0300     		.2byte	0x3
 3926 03d6 73       		.byte	0x73
 3927 03d7 7F       		.sleb128 -1
 3928 03d8 9F       		.byte	0x9f
 3929 03d9 E6000000 		.4byte	.LVL31
 3930 03dd F0000000 		.4byte	.LVL32
 3931 03e1 0100     		.2byte	0x1
 3932 03e3 53       		.byte	0x53
 3933 03e4 F0000000 		.4byte	.LVL32
 3934 03e8 F2000000 		.4byte	.LVL33
 3935 03ec 0300     		.2byte	0x3
 3936 03ee 73       		.byte	0x73
 3937 03ef 7F       		.sleb128 -1
 3938 03f0 9F       		.byte	0x9f
 3939 03f1 F2000000 		.4byte	.LVL33
 3940 03f5 04010000 		.4byte	.LVL34
 3941 03f9 0100     		.2byte	0x1
 3942 03fb 54       		.byte	0x54
 3943 03fc 04010000 		.4byte	.LVL34
 3944 0400 0A010000 		.4byte	.LVL35
 3945 0404 0100     		.2byte	0x1
 3946 0406 53       		.byte	0x53
 3947 0407 0A010000 		.4byte	.LVL35
 3948 040b 0C010000 		.4byte	.LVL36
 3949 040f 0300     		.2byte	0x3
 3950 0411 73       		.byte	0x73
 3951 0412 7F       		.sleb128 -1
 3952 0413 9F       		.byte	0x9f
 3953 0414 0C010000 		.4byte	.LVL36
 3954 0418 16010000 		.4byte	.LVL37
 3955 041c 0100     		.2byte	0x1
 3956 041e 53       		.byte	0x53
 3957 041f 16010000 		.4byte	.LVL37
 3958 0423 18010000 		.4byte	.LVL38
 3959 0427 0300     		.2byte	0x3
 3960 0429 73       		.byte	0x73
 3961 042a 7F       		.sleb128 -1
 3962 042b 9F       		.byte	0x9f
 3963 042c 18010000 		.4byte	.LVL38
ARM GAS  C:\Users\Diego\AppData\Local\Temp\cc6qIbsx.s 			page 76


 3964 0430 2A010000 		.4byte	.LVL39
 3965 0434 0100     		.2byte	0x1
 3966 0436 54       		.byte	0x54
 3967 0437 2A010000 		.4byte	.LVL39
 3968 043b 30010000 		.4byte	.LVL40
 3969 043f 0100     		.2byte	0x1
 3970 0441 53       		.byte	0x53
 3971 0442 30010000 		.4byte	.LVL40
 3972 0446 32010000 		.4byte	.LVL41
 3973 044a 0300     		.2byte	0x3
 3974 044c 73       		.byte	0x73
 3975 044d 7F       		.sleb128 -1
 3976 044e 9F       		.byte	0x9f
 3977 044f 32010000 		.4byte	.LVL41
 3978 0453 3C010000 		.4byte	.LVL42
 3979 0457 0100     		.2byte	0x1
 3980 0459 53       		.byte	0x53
 3981 045a 3C010000 		.4byte	.LVL42
 3982 045e 3E010000 		.4byte	.LVL43
 3983 0462 0300     		.2byte	0x3
 3984 0464 73       		.byte	0x73
 3985 0465 7F       		.sleb128 -1
 3986 0466 9F       		.byte	0x9f
 3987 0467 3E010000 		.4byte	.LVL43
 3988 046b 4E010000 		.4byte	.LVL45
 3989 046f 0100     		.2byte	0x1
 3990 0471 54       		.byte	0x54
 3991 0472 4E010000 		.4byte	.LVL45
 3992 0476 64010000 		.4byte	.LVL50
 3993 047a 0100     		.2byte	0x1
 3994 047c 55       		.byte	0x55
 3995 047d 64010000 		.4byte	.LVL50
 3996 0481 74010000 		.4byte	.LVL51
 3997 0485 0200     		.2byte	0x2
 3998 0487 35       		.byte	0x35
 3999 0488 9F       		.byte	0x9f
 4000 0489 74010000 		.4byte	.LVL51
 4001 048d 78010000 		.4byte	.LVL52
 4002 0491 0200     		.2byte	0x2
 4003 0493 36       		.byte	0x36
 4004 0494 9F       		.byte	0x9f
 4005 0495 78010000 		.4byte	.LVL52
 4006 0499 80010000 		.4byte	.LVL53
 4007 049d 0200     		.2byte	0x2
 4008 049f 37       		.byte	0x37
 4009 04a0 9F       		.byte	0x9f
 4010 04a1 80010000 		.4byte	.LVL53
 4011 04a5 84010000 		.4byte	.LVL54
 4012 04a9 0200     		.2byte	0x2
 4013 04ab 38       		.byte	0x38
 4014 04ac 9F       		.byte	0x9f
 4015 04ad 84010000 		.4byte	.LVL54
 4016 04b1 88010000 		.4byte	.LVL55
 4017 04b5 0200     		.2byte	0x2
 4018 04b7 39       		.byte	0x39
 4019 04b8 9F       		.byte	0x9f
 4020 04b9 88010000 		.4byte	.LVL55
ARM GAS  C:\Users\Diego\AppData\Local\Temp\cc6qIbsx.s 			page 77


 4021 04bd 98010000 		.4byte	.LVL57
 4022 04c1 0200     		.2byte	0x2
 4023 04c3 3A       		.byte	0x3a
 4024 04c4 9F       		.byte	0x9f
 4025 04c5 98010000 		.4byte	.LVL57
 4026 04c9 A4010000 		.4byte	.LVL58
 4027 04cd 0100     		.2byte	0x1
 4028 04cf 54       		.byte	0x54
 4029 04d0 A6010000 		.4byte	.LVL59
 4030 04d4 AC010000 		.4byte	.LVL62
 4031 04d8 0100     		.2byte	0x1
 4032 04da 54       		.byte	0x54
 4033 04db AC010000 		.4byte	.LVL62
 4034 04df B0010000 		.4byte	.LVL64
 4035 04e3 0200     		.2byte	0x2
 4036 04e5 3A       		.byte	0x3a
 4037 04e6 9F       		.byte	0x9f
 4038 04e7 B0010000 		.4byte	.LVL64
 4039 04eb BE010000 		.4byte	.LVL65
 4040 04ef 0100     		.2byte	0x1
 4041 04f1 54       		.byte	0x54
 4042 04f2 C0010000 		.4byte	.LVL66
 4043 04f6 D8010000 		.4byte	.LVL71
 4044 04fa 0100     		.2byte	0x1
 4045 04fc 54       		.byte	0x54
 4046 04fd DA010000 		.4byte	.LVL72
 4047 0501 EC010000 		.4byte	.LVL75
 4048 0505 0100     		.2byte	0x1
 4049 0507 54       		.byte	0x54
 4050 0508 EE010000 		.4byte	.LVL76
 4051 050c F8010000 		.4byte	.LVL79
 4052 0510 0100     		.2byte	0x1
 4053 0512 54       		.byte	0x54
 4054 0513 F8010000 		.4byte	.LVL79
 4055 0517 FA010000 		.4byte	.LVL80
 4056 051b 0200     		.2byte	0x2
 4057 051d 35       		.byte	0x35
 4058 051e 9F       		.byte	0x9f
 4059 051f FA010000 		.4byte	.LVL80
 4060 0523 0C020000 		.4byte	.LVL81
 4061 0527 0100     		.2byte	0x1
 4062 0529 54       		.byte	0x54
 4063 052a 0C020000 		.4byte	.LVL81
 4064 052e 12020000 		.4byte	.LVL82
 4065 0532 0100     		.2byte	0x1
 4066 0534 53       		.byte	0x53
 4067 0535 12020000 		.4byte	.LVL82
 4068 0539 14020000 		.4byte	.LVL83
 4069 053d 0300     		.2byte	0x3
 4070 053f 73       		.byte	0x73
 4071 0540 7F       		.sleb128 -1
 4072 0541 9F       		.byte	0x9f
 4073 0542 14020000 		.4byte	.LVL83
 4074 0546 1E020000 		.4byte	.LVL84
 4075 054a 0100     		.2byte	0x1
 4076 054c 53       		.byte	0x53
 4077 054d 1E020000 		.4byte	.LVL84
ARM GAS  C:\Users\Diego\AppData\Local\Temp\cc6qIbsx.s 			page 78


 4078 0551 20020000 		.4byte	.LVL85
 4079 0555 0300     		.2byte	0x3
 4080 0557 73       		.byte	0x73
 4081 0558 7F       		.sleb128 -1
 4082 0559 9F       		.byte	0x9f
 4083 055a 20020000 		.4byte	.LVL85
 4084 055e 26020000 		.4byte	.LVL86
 4085 0562 0100     		.2byte	0x1
 4086 0564 53       		.byte	0x53
 4087 0565 26020000 		.4byte	.LVL86
 4088 0569 28020000 		.4byte	.LVL87
 4089 056d 0300     		.2byte	0x3
 4090 056f 73       		.byte	0x73
 4091 0570 7F       		.sleb128 -1
 4092 0571 9F       		.byte	0x9f
 4093 0572 28020000 		.4byte	.LVL87
 4094 0576 2E020000 		.4byte	.LVL88
 4095 057a 0100     		.2byte	0x1
 4096 057c 53       		.byte	0x53
 4097 057d 2E020000 		.4byte	.LVL88
 4098 0581 30020000 		.4byte	.LVL89
 4099 0585 0300     		.2byte	0x3
 4100 0587 73       		.byte	0x73
 4101 0588 7F       		.sleb128 -1
 4102 0589 9F       		.byte	0x9f
 4103 058a 30020000 		.4byte	.LVL89
 4104 058e 4C020000 		.4byte	.LVL91
 4105 0592 0100     		.2byte	0x1
 4106 0594 54       		.byte	0x54
 4107 0595 4E020000 		.4byte	.LVL92
 4108 0599 64020000 		.4byte	.LVL97
 4109 059d 0100     		.2byte	0x1
 4110 059f 54       		.byte	0x54
 4111 05a0 66020000 		.4byte	.LVL98
 4112 05a4 80020000 		.4byte	.LVL103
 4113 05a8 0100     		.2byte	0x1
 4114 05aa 54       		.byte	0x54
 4115 05ab 82020000 		.4byte	.LVL104
 4116 05af 94020000 		.4byte	.LVL107
 4117 05b3 0100     		.2byte	0x1
 4118 05b5 54       		.byte	0x54
 4119 05b6 96020000 		.4byte	.LVL108
 4120 05ba AE020000 		.4byte	.LVL113
 4121 05be 0100     		.2byte	0x1
 4122 05c0 54       		.byte	0x54
 4123 05c1 AE020000 		.4byte	.LVL113
 4124 05c5 E0020000 		.4byte	.LVL118
 4125 05c9 0100     		.2byte	0x1
 4126 05cb 55       		.byte	0x55
 4127 05cc E0020000 		.4byte	.LVL118
 4128 05d0 20030000 		.4byte	.LVL126
 4129 05d4 0200     		.2byte	0x2
 4130 05d6 35       		.byte	0x35
 4131 05d7 9F       		.byte	0x9f
 4132 05d8 20030000 		.4byte	.LVL126
 4133 05dc 24030000 		.4byte	.LVL127
 4134 05e0 0200     		.2byte	0x2
ARM GAS  C:\Users\Diego\AppData\Local\Temp\cc6qIbsx.s 			page 79


 4135 05e2 36       		.byte	0x36
 4136 05e3 9F       		.byte	0x9f
 4137 05e4 24030000 		.4byte	.LVL127
 4138 05e8 28030000 		.4byte	.LVL128
 4139 05ec 0200     		.2byte	0x2
 4140 05ee 37       		.byte	0x37
 4141 05ef 9F       		.byte	0x9f
 4142 05f0 28030000 		.4byte	.LVL128
 4143 05f4 2A030000 		.4byte	.LVL129
 4144 05f8 0200     		.2byte	0x2
 4145 05fa 38       		.byte	0x38
 4146 05fb 9F       		.byte	0x9f
 4147 05fc 2A030000 		.4byte	.LVL129
 4148 0600 6A030000 		.4byte	.LVL136
 4149 0604 0100     		.2byte	0x1
 4150 0606 54       		.byte	0x54
 4151 0607 6A030000 		.4byte	.LVL136
 4152 060b 70030000 		.4byte	.LVL137
 4153 060f 0100     		.2byte	0x1
 4154 0611 53       		.byte	0x53
 4155 0612 70030000 		.4byte	.LVL137
 4156 0616 72030000 		.4byte	.LVL138
 4157 061a 0300     		.2byte	0x3
 4158 061c 73       		.byte	0x73
 4159 061d 7F       		.sleb128 -1
 4160 061e 9F       		.byte	0x9f
 4161 061f 72030000 		.4byte	.LVL138
 4162 0623 78030000 		.4byte	.LVL139
 4163 0627 0100     		.2byte	0x1
 4164 0629 53       		.byte	0x53
 4165 062a 78030000 		.4byte	.LVL139
 4166 062e 7A030000 		.4byte	.LVL140
 4167 0632 0300     		.2byte	0x3
 4168 0634 73       		.byte	0x73
 4169 0635 7F       		.sleb128 -1
 4170 0636 9F       		.byte	0x9f
 4171 0637 7A030000 		.4byte	.LVL140
 4172 063b BA030000 		.4byte	.LVL147
 4173 063f 0100     		.2byte	0x1
 4174 0641 54       		.byte	0x54
 4175 0642 BA030000 		.4byte	.LVL147
 4176 0646 C0030000 		.4byte	.LVL148
 4177 064a 0100     		.2byte	0x1
 4178 064c 53       		.byte	0x53
 4179 064d C0030000 		.4byte	.LVL148
 4180 0651 C2030000 		.4byte	.LVL149
 4181 0655 0300     		.2byte	0x3
 4182 0657 73       		.byte	0x73
 4183 0658 7F       		.sleb128 -1
 4184 0659 9F       		.byte	0x9f
 4185 065a C2030000 		.4byte	.LVL149
 4186 065e C6030000 		.4byte	.LVL150
 4187 0662 0100     		.2byte	0x1
 4188 0664 53       		.byte	0x53
 4189 0665 C6030000 		.4byte	.LVL150
 4190 0669 C8030000 		.4byte	.LVL151
 4191 066d 0300     		.2byte	0x3
ARM GAS  C:\Users\Diego\AppData\Local\Temp\cc6qIbsx.s 			page 80


 4192 066f 73       		.byte	0x73
 4193 0670 7F       		.sleb128 -1
 4194 0671 9F       		.byte	0x9f
 4195 0672 C8030000 		.4byte	.LVL151
 4196 0676 00040000 		.4byte	.LVL158
 4197 067a 0100     		.2byte	0x1
 4198 067c 54       		.byte	0x54
 4199 067d 00040000 		.4byte	.LVL158
 4200 0681 06040000 		.4byte	.LVL159
 4201 0685 0100     		.2byte	0x1
 4202 0687 53       		.byte	0x53
 4203 0688 06040000 		.4byte	.LVL159
 4204 068c 08040000 		.4byte	.LVL160
 4205 0690 0300     		.2byte	0x3
 4206 0692 73       		.byte	0x73
 4207 0693 7F       		.sleb128 -1
 4208 0694 9F       		.byte	0x9f
 4209 0695 08040000 		.4byte	.LVL160
 4210 0699 0E040000 		.4byte	.LVL161
 4211 069d 0100     		.2byte	0x1
 4212 069f 53       		.byte	0x53
 4213 06a0 0E040000 		.4byte	.LVL161
 4214 06a4 10040000 		.4byte	.LVL162
 4215 06a8 0300     		.2byte	0x3
 4216 06aa 73       		.byte	0x73
 4217 06ab 7F       		.sleb128 -1
 4218 06ac 9F       		.byte	0x9f
 4219 06ad 10040000 		.4byte	.LVL162
 4220 06b1 20040000 		.4byte	.LVL164
 4221 06b5 0100     		.2byte	0x1
 4222 06b7 54       		.byte	0x54
 4223 06b8 20040000 		.4byte	.LVL164
 4224 06bc 36040000 		.4byte	.LVL169
 4225 06c0 0100     		.2byte	0x1
 4226 06c2 55       		.byte	0x55
 4227 06c3 36040000 		.4byte	.LVL169
 4228 06c7 56050000 		.4byte	.LVL195
 4229 06cb 0200     		.2byte	0x2
 4230 06cd 35       		.byte	0x35
 4231 06ce 9F       		.byte	0x9f
 4232 06cf 00000000 		.4byte	0
 4233 06d3 00000000 		.4byte	0
 4234              		.section	.debug_aranges,"",%progbits
 4235 0000 2C000000 		.4byte	0x2c
 4236 0004 0200     		.2byte	0x2
 4237 0006 00000000 		.4byte	.Ldebug_info0
 4238 000a 04       		.byte	0x4
 4239 000b 00       		.byte	0
 4240 000c 0000     		.2byte	0
 4241 000e 0000     		.2byte	0
 4242 0010 00000000 		.4byte	.LFB63
 4243 0014 34000000 		.4byte	.LFE63-.LFB63
 4244 0018 00000000 		.4byte	.LFB64
 4245 001c 88050000 		.4byte	.LFE64-.LFB64
 4246 0020 00000000 		.4byte	.LFB65
 4247 0024 20000000 		.4byte	.LFE65-.LFB65
 4248 0028 00000000 		.4byte	0
ARM GAS  C:\Users\Diego\AppData\Local\Temp\cc6qIbsx.s 			page 81


 4249 002c 00000000 		.4byte	0
 4250              		.section	.debug_ranges,"",%progbits
 4251              	.Ldebug_ranges0:
 4252 0000 00000000 		.4byte	.LFB63
 4253 0004 34000000 		.4byte	.LFE63
 4254 0008 00000000 		.4byte	.LFB64
 4255 000c 88050000 		.4byte	.LFE64
 4256 0010 00000000 		.4byte	.LFB65
 4257 0014 20000000 		.4byte	.LFE65
 4258 0018 00000000 		.4byte	0
 4259 001c 00000000 		.4byte	0
 4260              		.section	.debug_line,"",%progbits
 4261              	.Ldebug_line0:
 4262 0000 A9030000 		.section	.debug_str,"MS",%progbits,1
 4262      02007A01 
 4262      00000201 
 4262      FB0E0D00 
 4262      01010101 
 4263              	.LASF155:
 4264 0000 52465F43 		.ascii	"RF_Connection_ReadRxData\000"
 4264      6F6E6E65 
 4264      6374696F 
 4264      6E5F5265 
 4264      61645278 
 4265              	.LASF157:
 4266 0019 52465F43 		.ascii	"RF_Connection_PutChar\000"
 4266      6F6E6E65 
 4266      6374696F 
 4266      6E5F5075 
 4266      74436861 
 4267              	.LASF164:
 4268 002f 706F6C6C 		.ascii	"pollingRF_Rx\000"
 4268      696E6752 
 4268      465F5278 
 4268      00
 4269              	.LASF134:
 4270 003c 636F756E 		.ascii	"count_protector2\000"
 4270      745F7072 
 4270      6F746563 
 4270      746F7232 
 4270      00
 4271              	.LASF99:
 4272 004d 64656369 		.ascii	"decimalVolume\000"
 4272      6D616C56 
 4272      6F6C756D 
 4272      6500
 4273              	.LASF110:
 4274 005b 50726576 		.ascii	"PrevStatePump\000"
 4274      53746174 
 4274      6550756D 
 4274      7000
 4275              	.LASF147:
 4276 0069 47726164 		.ascii	"GradesHose\000"
 4276      6573486F 
 4276      736500
 4277              	.LASF148:
 4278 0074 52467374 		.ascii	"RFstateReport\000"
ARM GAS  C:\Users\Diego\AppData\Local\Temp\cc6qIbsx.s 			page 82


 4278      61746552 
 4278      65706F72 
 4278      7400
 4279              	.LASF53:
 4280 0082 766F6C75 		.ascii	"volumeQuota\000"
 4280      6D655175 
 4280      6F746100 
 4281              	.LASF124:
 4282 008e 73746174 		.ascii	"statePump\000"
 4282      6550756D 
 4282      7000
 4283              	.LASF62:
 4284 0098 62756666 		.ascii	"buffer\000"
 4284      657200
 4285              	.LASF141:
 4286 009f 62756666 		.ascii	"buffer_rf\000"
 4286      65725F72 
 4286      6600
 4287              	.LASF98:
 4288 00a9 64656369 		.ascii	"decimalMoney\000"
 4288      6D616C4D 
 4288      6F6E6579 
 4288      00
 4289              	.LASF32:
 4290 00b6 73616C65 		.ascii	"salePerform\000"
 4290      50657266 
 4290      6F726D00 
 4291              	.LASF8:
 4292 00c2 756E7369 		.ascii	"unsigned int\000"
 4292      676E6564 
 4292      20696E74 
 4292      00
 4293              	.LASF129:
 4294 00cf 5072696E 		.ascii	"PrinterType\000"
 4294      74657254 
 4294      79706500 
 4295              	.LASF9:
 4296 00db 5F5F696E 		.ascii	"__int32_t\000"
 4296      7433325F 
 4296      7400
 4297              	.LASF50:
 4298 00e5 666C6167 		.ascii	"flagLiftHandle\000"
 4298      4C696674 
 4298      48616E64 
 4298      6C6500
 4299              	.LASF104:
 4300 00f4 72657369 		.ascii	"residue\000"
 4300      64756500 
 4301              	.LASF20:
 4302 00fc 69645479 		.ascii	"idType\000"
 4302      706500
 4303              	.LASF123:
 4304 0103 44444D6F 		.ascii	"DDMode\000"
 4304      646500
 4305              	.LASF153:
 4306 010a 73696465 		.ascii	"side\000"
 4306      00
ARM GAS  C:\Users\Diego\AppData\Local\Temp\cc6qIbsx.s 			page 83


 4307              	.LASF137:
 4308 010f 69645374 		.ascii	"idStation\000"
 4308      6174696F 
 4308      6E00
 4309              	.LASF24:
 4310 0119 73656C65 		.ascii	"selectedSale\000"
 4310      63746564 
 4310      53616C65 
 4310      00
 4311              	.LASF93:
 4312 0126 666C6167 		.ascii	"flagPoint2\000"
 4312      506F696E 
 4312      743200
 4313              	.LASF103:
 4314 0131 73637265 		.ascii	"screen\000"
 4314      656E00
 4315              	.LASF136:
 4316 0138 636F6E74 		.ascii	"controlChar\000"
 4316      726F6C43 
 4316      68617200 
 4317              	.LASF114:
 4318 0144 636F756E 		.ascii	"counterRF\000"
 4318      74657252 
 4318      4600
 4319              	.LASF115:
 4320 014e 50726963 		.ascii	"PriceChange\000"
 4320      65436861 
 4320      6E676500 
 4321              	.LASF111:
 4322 015a 506C6174 		.ascii	"PlateRequest\000"
 4322      65526571 
 4322      75657374 
 4322      00
 4323              	.LASF142:
 4324 0167 62756666 		.ascii	"buffer_tx\000"
 4324      65725F74 
 4324      7800
 4325              	.LASF14:
 4326 0171 666C6F61 		.ascii	"float\000"
 4326      7400
 4327              	.LASF78:
 4328 0177 63686563 		.ascii	"checksum\000"
 4328      6B73756D 
 4328      00
 4329              	.LASF117:
 4330 0180 43477261 		.ascii	"CGrade\000"
 4330      646500
 4331              	.LASF79:
 4332 0187 696E6465 		.ascii	"index\000"
 4332      7800
 4333              	.LASF159:
 4334 018d 77726974 		.ascii	"write_fecha\000"
 4334      655F6665 
 4334      63686100 
 4335              	.LASF120:
 4336 0199 4D6F6E65 		.ascii	"MoneyDec\000"
 4336      79446563 
ARM GAS  C:\Users\Diego\AppData\Local\Temp\cc6qIbsx.s 			page 84


 4336      00
 4337              	.LASF71:
 4338 01a2 686F7365 		.ascii	"hose\000"
 4338      00
 4339              	.LASF151:
 4340 01a7 62756666 		.ascii	"bufferDisplay3\000"
 4340      65724469 
 4340      73706C61 
 4340      793300
 4341              	.LASF7:
 4342 01b6 6C6F6E67 		.ascii	"long long unsigned int\000"
 4342      206C6F6E 
 4342      6720756E 
 4342      7369676E 
 4342      65642069 
 4343              	.LASF40:
 4344 01cd 746F7461 		.ascii	"totalVolumePrevious\000"
 4344      6C566F6C 
 4344      756D6550 
 4344      72657669 
 4344      6F757300 
 4345              	.LASF135:
 4346 01e1 636F6E66 		.ascii	"configAccess\000"
 4346      69674163 
 4346      63657373 
 4346      00
 4347              	.LASF127:
 4348 01ee 64696769 		.ascii	"digits\000"
 4348      747300
 4349              	.LASF165:
 4350 01f5 706F6C6C 		.ascii	"pollingRF_Tx\000"
 4350      696E6752 
 4350      465F5478 
 4350      00
 4351              	.LASF101:
 4352 0202 74696D65 		.ascii	"time\000"
 4352      00
 4353              	.LASF154:
 4354 0207 52465F43 		.ascii	"RF_Connection_GetRxBufferSize\000"
 4354      6F6E6E65 
 4354      6374696F 
 4354      6E5F4765 
 4354      74527842 
 4355              	.LASF139:
 4356 0225 7072696E 		.ascii	"printPortA\000"
 4356      74506F72 
 4356      744100
 4357              	.LASF140:
 4358 0230 7072696E 		.ascii	"printPortB\000"
 4358      74506F72 
 4358      744200
 4359              	.LASF35:
 4360 023b 70726F64 		.ascii	"productType\000"
 4360      75637454 
 4360      79706500 
 4361              	.LASF94:
 4362 0247 70726F64 		.ascii	"productNumber\000"
ARM GAS  C:\Users\Diego\AppData\Local\Temp\cc6qIbsx.s 			page 85


 4362      7563744E 
 4362      756D6265 
 4362      7200
 4363              	.LASF105:
 4364 0255 69645365 		.ascii	"idSeller\000"
 4364      6C6C6572 
 4364      00
 4365              	.LASF21:
 4366 025e 69645365 		.ascii	"idSerial\000"
 4366      7269616C 
 4366      00
 4367              	.LASF126:
 4368 0267 6C6F636B 		.ascii	"lockTurn\000"
 4368      5475726E 
 4368      00
 4369              	.LASF46:
 4370 0270 6D696C65 		.ascii	"mileageSale\000"
 4370      61676553 
 4370      616C6500 
 4371              	.LASF57:
 4372 027c 666C6167 		.ascii	"flagChangePPU\000"
 4372      4368616E 
 4372      67655050 
 4372      5500
 4373              	.LASF59:
 4374 028a 666C6167 		.ascii	"flagActiveSale\000"
 4374      41637469 
 4374      76655361 
 4374      6C6500
 4375              	.LASF86:
 4376 0299 666C6F77 		.ascii	"flowDisplay1\000"
 4376      44697370 
 4376      6C617931 
 4376      00
 4377              	.LASF87:
 4378 02a6 666C6F77 		.ascii	"flowDisplay2\000"
 4378      44697370 
 4378      6C617932 
 4378      00
 4379              	.LASF88:
 4380 02b3 666C6F77 		.ascii	"flowDisplay3\000"
 4380      44697370 
 4380      6C617933 
 4380      00
 4381              	.LASF89:
 4382 02c0 666C6F77 		.ascii	"flowDisplay4\000"
 4382      44697370 
 4382      6C617934 
 4382      00
 4383              	.LASF64:
 4384 02cd 746F7461 		.ascii	"totalsHandle\000"
 4384      6C734861 
 4384      6E646C65 
 4384      00
 4385              	.LASF34:
 4386 02da 70726573 		.ascii	"presetValue\000"
 4386      65745661 
ARM GAS  C:\Users\Diego\AppData\Local\Temp\cc6qIbsx.s 			page 86


 4386      6C756500 
 4387              	.LASF47:
 4388 02e6 6964656E 		.ascii	"identySale\000"
 4388      74795361 
 4388      6C6500
 4389              	.LASF31:
 4390 02f1 73616C65 		.ascii	"saleType\000"
 4390      54797065 
 4390      00
 4391              	.LASF29:
 4392 02fa 76616C75 		.ascii	"valueKeys\000"
 4392      654B6579 
 4392      7300
 4393              	.LASF18:
 4394 0304 63686172 		.ascii	"char\000"
 4394      00
 4395              	.LASF119:
 4396 0309 436F6E76 		.ascii	"ConversionFactor\000"
 4396      65727369 
 4396      6F6E4661 
 4396      63746F72 
 4396      00
 4397              	.LASF90:
 4398 031a 6E756D62 		.ascii	"numberKeys1\000"
 4398      65724B65 
 4398      79733100 
 4399              	.LASF91:
 4400 0326 6E756D62 		.ascii	"numberKeys2\000"
 4400      65724B65 
 4400      79733200 
 4401              	.LASF84:
 4402 0332 636F756E 		.ascii	"countBeagleTX\000"
 4402      74426561 
 4402      676C6554 
 4402      5800
 4403              	.LASF80:
 4404 0340 7461626C 		.ascii	"table\000"
 4404      6500
 4405              	.LASF12:
 4406 0346 75696E74 		.ascii	"uint16\000"
 4406      313600
 4407              	.LASF102:
 4408 034d 64617465 		.ascii	"date\000"
 4408      00
 4409              	.LASF74:
 4410 0352 70756D70 		.ascii	"pumpState\000"
 4410      53746174 
 4410      6500
 4411              	.LASF49:
 4412 035c 666C6167 		.ascii	"flagPayment\000"
 4412      5061796D 
 4412      656E7400 
 4413              	.LASF17:
 4414 0368 63686172 		.ascii	"char8\000"
 4414      3800
 4415              	.LASF54:
 4416 036e 70707551 		.ascii	"ppuQuota\000"
ARM GAS  C:\Users\Diego\AppData\Local\Temp\cc6qIbsx.s 			page 87


 4416      756F7461 
 4416      00
 4417              	.LASF76:
 4418 0377 6461746F 		.ascii	"datos\000"
 4418      7300
 4419              	.LASF42:
 4420 037d 746F7461 		.ascii	"totalMoneyAfter\000"
 4420      6C4D6F6E 
 4420      65794166 
 4420      74657200 
 4421              	.LASF161:
 4422 038d 2E5C5246 		.ascii	".\\RFPoll.c\000"
 4422      506F6C6C 
 4422      2E6300
 4423              	.LASF52:
 4424 0398 6D6F6E65 		.ascii	"moneyQuota\000"
 4424      7951756F 
 4424      746100
 4425              	.LASF56:
 4426 03a3 7072696E 		.ascii	"printers\000"
 4426      74657273 
 4426      00
 4427              	.LASF113:
 4428 03ac 41637469 		.ascii	"ActiveRF\000"
 4428      76655246 
 4428      00
 4429              	.LASF163:
 4430 03b5 76657269 		.ascii	"verificar_check\000"
 4430      66696361 
 4430      725F6368 
 4430      65636B00 
 4431              	.LASF66:
 4432 03c5 6D6F6E65 		.ascii	"moneySale\000"
 4432      7953616C 
 4432      6500
 4433              	.LASF6:
 4434 03cf 6C6F6E67 		.ascii	"long long int\000"
 4434      206C6F6E 
 4434      6720696E 
 4434      7400
 4435              	.LASF68:
 4436 03dd 70707553 		.ascii	"ppuSale\000"
 4436      616C6500 
 4437              	.LASF82:
 4438 03e5 636F756E 		.ascii	"countAnimation1\000"
 4438      74416E69 
 4438      6D617469 
 4438      6F6E3100 
 4439              	.LASF125:
 4440 03f5 4E756D50 		.ascii	"NumPositions\000"
 4440      6F736974 
 4440      696F6E73 
 4440      00
 4441              	.LASF109:
 4442 0402 73746174 		.ascii	"stateBeagleSoft\000"
 4442      65426561 
 4442      676C6553 
ARM GAS  C:\Users\Diego\AppData\Local\Temp\cc6qIbsx.s 			page 88


 4442      6F667400 
 4443              	.LASF41:
 4444 0412 746F7461 		.ascii	"totalPPUPrevious\000"
 4444      6C505055 
 4444      50726576 
 4444      696F7573 
 4444      00
 4445              	.LASF83:
 4446 0423 636F756E 		.ascii	"countAnimation2\000"
 4446      74416E69 
 4446      6D617469 
 4446      6F6E3200 
 4447              	.LASF132:
 4448 0433 74696D65 		.ascii	"timeDownHandle\000"
 4448      446F776E 
 4448      48616E64 
 4448      6C6500
 4449              	.LASF30:
 4450 0442 76656869 		.ascii	"vehicleType\000"
 4450      636C6554 
 4450      79706500 
 4451              	.LASF48:
 4452 044e 666C6167 		.ascii	"flagKeyboard\000"
 4452      4B657962 
 4452      6F617264 
 4452      00
 4453              	.LASF77:
 4454 045b 73697A65 		.ascii	"size\000"
 4454      00
 4455              	.LASF13:
 4456 0460 75696E74 		.ascii	"uint32\000"
 4456      333200
 4457              	.LASF108:
 4458 0467 666C6167 		.ascii	"flagResetMux\000"
 4458      52657365 
 4458      744D7578 
 4458      00
 4459              	.LASF162:
 4460 0474 433A5C55 		.ascii	"C:\\Users\\Diego\\Documents\\GitHub\\NSY-DH\\Worksp"
 4460      73657273 
 4460      5C446965 
 4460      676F5C44 
 4460      6F63756D 
 4461 04a1 61636530 		.ascii	"ace01\\Design01.cydsn\000"
 4461      315C4465 
 4461      7369676E 
 4461      30312E63 
 4461      7964736E 
 4462              	.LASF143:
 4463 04b6 62756666 		.ascii	"buffer_txDisplay\000"
 4463      65725F74 
 4463      78446973 
 4463      706C6179 
 4463      00
 4464              	.LASF44:
 4465 04c7 746F7461 		.ascii	"totalPPUAfter\000"
 4465      6C505055 
ARM GAS  C:\Users\Diego\AppData\Local\Temp\cc6qIbsx.s 			page 89


 4465      41667465 
 4465      7200
 4466              	.LASF27:
 4467 04d5 6B657962 		.ascii	"keyboardWayToPay\000"
 4467      6F617264 
 4467      57617954 
 4467      6F506179 
 4467      00
 4468              	.LASF97:
 4469 04e6 70707578 		.ascii	"ppux10\000"
 4469      313000
 4470              	.LASF39:
 4471 04ed 746F7461 		.ascii	"totalMoneyPrevious\000"
 4471      6C4D6F6E 
 4471      65795072 
 4471      6576696F 
 4471      757300
 4472              	.LASF92:
 4473 0500 666C6167 		.ascii	"flagPoint1\000"
 4473      506F696E 
 4473      743100
 4474              	.LASF25:
 4475 050b 6D6F6E65 		.ascii	"moneySelectedSale\000"
 4475      7953656C 
 4475      65637465 
 4475      6453616C 
 4475      6500
 4476              	.LASF100:
 4477 051d 73796D62 		.ascii	"symbols\000"
 4477      6F6C7300 
 4478              	.LASF158:
 4479 0525 77726974 		.ascii	"write_hora\000"
 4479      655F686F 
 4479      726100
 4480              	.LASF131:
 4481 0530 64617465 		.ascii	"dateDownHandle\000"
 4481      446F776E 
 4481      48616E64 
 4481      6C6500
 4482              	.LASF45:
 4483 053f 6C696365 		.ascii	"licenceSale\000"
 4483      6E636553 
 4483      616C6500 
 4484              	.LASF55:
 4485 054b 70726963 		.ascii	"priceConsign\000"
 4485      65436F6E 
 4485      7369676E 
 4485      00
 4486              	.LASF2:
 4487 0558 73686F72 		.ascii	"short int\000"
 4487      7420696E 
 4487      7400
 4488              	.LASF4:
 4489 0562 6C6F6E67 		.ascii	"long int\000"
 4489      20696E74 
 4489      00
 4490              	.LASF130:
ARM GAS  C:\Users\Diego\AppData\Local\Temp\cc6qIbsx.s 			page 90


 4491 056b 566F6C55 		.ascii	"VolUnit\000"
 4491      6E697400 
 4492              	.LASF112:
 4493 0573 49444361 		.ascii	"IDCast\000"
 4493      737400
 4494              	.LASF81:
 4495 057a 49544D5F 		.ascii	"ITM_RxBuffer\000"
 4495      52784275 
 4495      66666572 
 4495      00
 4496              	.LASF128:
 4497 0587 68696464 		.ascii	"hiddenKeys\000"
 4497      656E4B65 
 4497      797300
 4498              	.LASF60:
 4499 0592 73686966 		.ascii	"shiftId\000"
 4499      74496400 
 4500              	.LASF106:
 4501 059a 74797065 		.ascii	"typeIdSeller\000"
 4501      49645365 
 4501      6C6C6572 
 4501      00
 4502              	.LASF51:
 4503 05a7 666C6167 		.ascii	"flagEndSale\000"
 4503      456E6453 
 4503      616C6500 
 4504              	.LASF37:
 4505 05b3 64617465 		.ascii	"dateLiftHandle\000"
 4505      4C696674 
 4505      48616E64 
 4505      6C6500
 4506              	.LASF72:
 4507 05c2 686F7365 		.ascii	"hoseNumber\000"
 4507      4E756D62 
 4507      657200
 4508              	.LASF150:
 4509 05cd 62756666 		.ascii	"bufferDisplay2\000"
 4509      65724469 
 4509      73706C61 
 4509      793200
 4510              	.LASF144:
 4511 05dc 696E7449 		.ascii	"intIDStation\000"
 4511      44537461 
 4511      74696F6E 
 4511      00
 4512              	.LASF152:
 4513 05e9 62756666 		.ascii	"bufferDisplay4\000"
 4513      65724469 
 4513      73706C61 
 4513      793400
 4514              	.LASF146:
 4515 05f8 436F7069 		.ascii	"CopiasCredito\000"
 4515      61734372 
 4515      65646974 
 4515      6F00
 4516              	.LASF107:
 4517 0606 70617373 		.ascii	"passwordSeller\000"
ARM GAS  C:\Users\Diego\AppData\Local\Temp\cc6qIbsx.s 			page 91


 4517      776F7264 
 4517      53656C6C 
 4517      657200
 4518              	.LASF43:
 4519 0615 746F7461 		.ascii	"totalVolumeAfter\000"
 4519      6C566F6C 
 4519      756D6541 
 4519      66746572 
 4519      00
 4520              	.LASF118:
 4521 0626 556E6974 		.ascii	"UnitType\000"
 4521      54797065 
 4521      00
 4522              	.LASF16:
 4523 062f 75696E74 		.ascii	"uint64\000"
 4523      363400
 4524              	.LASF95:
 4525 0636 64656C61 		.ascii	"delayPicture1\000"
 4525      79506963 
 4525      74757265 
 4525      3100
 4526              	.LASF96:
 4527 0644 64656C61 		.ascii	"delayPicture2\000"
 4527      79506963 
 4527      74757265 
 4527      3200
 4528              	.LASF36:
 4529 0652 73746174 		.ascii	"stateMux\000"
 4529      654D7578 
 4529      00
 4530              	.LASF145:
 4531 065b 456E6361 		.ascii	"Encabezado1\000"
 4531      62657A61 
 4531      646F3100 
 4532              	.LASF19:
 4533 0667 73697A65 		.ascii	"sizetype\000"
 4533      74797065 
 4533      00
 4534              	.LASF5:
 4535 0670 6C6F6E67 		.ascii	"long unsigned int\000"
 4535      20756E73 
 4535      69676E65 
 4535      6420696E 
 4535      7400
 4536              	.LASF122:
 4537 0682 50505544 		.ascii	"PPUDec\000"
 4537      656300
 4538              	.LASF70:
 4539 0689 61637469 		.ascii	"activeHose\000"
 4539      7665486F 
 4539      736500
 4540              	.LASF58:
 4541 0694 666C6167 		.ascii	"flagPrint\000"
 4541      5072696E 
 4541      7400
 4542              	.LASF10:
 4543 069e 696E7433 		.ascii	"int32_t\000"
ARM GAS  C:\Users\Diego\AppData\Local\Temp\cc6qIbsx.s 			page 92


 4543      325F7400 
 4544              	.LASF23:
 4545 06a6 666C6167 		.ascii	"flagWayToPayMixed\000"
 4545      57617954 
 4545      6F506179 
 4545      4D697865 
 4545      6400
 4546              	.LASF1:
 4547 06b8 756E7369 		.ascii	"unsigned char\000"
 4547      676E6564 
 4547      20636861 
 4547      7200
 4548              	.LASF160:
 4549 06c6 474E5520 		.ascii	"GNU C 4.9.3 20150303 (release) [ARM/embedded-4_9-br"
 4549      4320342E 
 4549      392E3320 
 4549      32303135 
 4549      30333033 
 4550 06f9 616E6368 		.ascii	"anch revision 221220] -mcpu=cortex-m3 -mthumb -g -O"
 4550      20726576 
 4550      6973696F 
 4550      6E203232 
 4550      31323230 
 4551 072c 67202D66 		.ascii	"g -ffunction-sections -ffat-lto-objects\000"
 4551      66756E63 
 4551      74696F6E 
 4551      2D736563 
 4551      74696F6E 
 4552              	.LASF28:
 4553 0754 61757468 		.ascii	"authorizationFlag\000"
 4553      6F72697A 
 4553      6174696F 
 4553      6E466C61 
 4553      6700
 4554              	.LASF75:
 4555 0766 70756D70 		.ascii	"pump\000"
 4555      00
 4556              	.LASF116:
 4557 076b 74656D70 		.ascii	"temporal\000"
 4557      6F72616C 
 4557      00
 4558              	.LASF121:
 4559 0774 566F6C44 		.ascii	"VolDec\000"
 4559      656300
 4560              	.LASF33:
 4561 077b 70726573 		.ascii	"presetType\000"
 4561      65745479 
 4561      706500
 4562              	.LASF67:
 4563 0786 766F6C75 		.ascii	"volumeSale\000"
 4563      6D655361 
 4563      6C6500
 4564              	.LASF61:
 4565 0791 73686966 		.ascii	"shiftPassword\000"
 4565      74506173 
 4565      73776F72 
 4565      6400
ARM GAS  C:\Users\Diego\AppData\Local\Temp\cc6qIbsx.s 			page 93


 4566              	.LASF0:
 4567 079f 7369676E 		.ascii	"signed char\000"
 4567      65642063 
 4567      68617200 
 4568              	.LASF133:
 4569 07ab 636F756E 		.ascii	"count_protector\000"
 4569      745F7072 
 4569      6F746563 
 4569      746F7200 
 4570              	.LASF3:
 4571 07bb 73686F72 		.ascii	"short unsigned int\000"
 4571      7420756E 
 4571      7369676E 
 4571      65642069 
 4571      6E7400
 4572              	.LASF85:
 4573 07ce 636F756E 		.ascii	"countPump\000"
 4573      7450756D 
 4573      7000
 4574              	.LASF156:
 4575 07d8 6D656D63 		.ascii	"memcpy\000"
 4575      707900
 4576              	.LASF69:
 4577 07df 70726F64 		.ascii	"productSale\000"
 4577      75637453 
 4577      616C6500 
 4578              	.LASF11:
 4579 07eb 75696E74 		.ascii	"uint8\000"
 4579      3800
 4580              	.LASF15:
 4581 07f1 646F7562 		.ascii	"double\000"
 4581      6C6500
 4582              	.LASF22:
 4583 07f8 77617954 		.ascii	"wayToPay\000"
 4583      6F506179 
 4583      00
 4584              	.LASF38:
 4585 0801 74696D65 		.ascii	"timeLiftHandle\000"
 4585      4C696674 
 4585      48616E64 
 4585      6C6500
 4586              	.LASF65:
 4587 0810 70707541 		.ascii	"ppuAuthorized\000"
 4587      7574686F 
 4587      72697A65 
 4587      6400
 4588              	.LASF26:
 4589 081e 73657269 		.ascii	"serialSelectedSale\000"
 4589      616C5365 
 4589      6C656374 
 4589      65645361 
 4589      6C6500
 4590              	.LASF63:
 4591 0831 706F7369 		.ascii	"position\000"
 4591      74696F6E 
 4591      00
 4592              	.LASF149:
ARM GAS  C:\Users\Diego\AppData\Local\Temp\cc6qIbsx.s 			page 94


 4593 083a 62756666 		.ascii	"bufferDisplay1\000"
 4593      65724469 
 4593      73706C61 
 4593      793100
 4594              	.LASF138:
 4595 0849 70756D70 		.ascii	"pumpGap\000"
 4595      47617000 
 4596              	.LASF73:
 4597 0851 72665374 		.ascii	"rfState\000"
 4597      61746500 
 4598              	.LASF166:
 4599 0859 52465F43 		.ascii	"RF_Connection_ClearRxBuffer\000"
 4599      6F6E6E65 
 4599      6374696F 
 4599      6E5F436C 
 4599      65617252 
 4600              		.ident	"GCC: (GNU Tools for ARM Embedded Processors) 4.9.3 20150303 (release) [ARM/embedded-4_9-br
