ARM GAS  C:\Users\RECEPC~1\AppData\Local\Temp\cc4fvgjK.s 			page 1


   1              		.syntax unified
   2              		.cpu cortex-m3
   3              		.fpu softvfp
   4              		.eabi_attribute 20, 1
   5              		.eabi_attribute 21, 1
   6              		.eabi_attribute 23, 3
   7              		.eabi_attribute 24, 1
   8              		.eabi_attribute 25, 1
   9              		.eabi_attribute 26, 1
  10              		.eabi_attribute 30, 1
  11              		.eabi_attribute 34, 1
  12              		.eabi_attribute 18, 4
  13              		.thumb
  14              		.file	"RFPoll.c"
  15              		.text
  16              	.Ltext0:
  17              		.cfi_sections	.debug_frame
  18              		.section	.text.verificar_check,"ax",%progbits
  19              		.align	2
  20              		.global	verificar_check
  21              		.thumb
  22              		.thumb_func
  23              		.type	verificar_check, %function
  24              	verificar_check:
  25              	.LFB63:
  26              		.file 1 ".\\RFPoll.c"
   1:.\RFPoll.c    **** #include <project.h>
   2:.\RFPoll.c    **** #include <protocol.h>
   3:.\RFPoll.c    **** #include <variables.h>
   4:.\RFPoll.c    **** #include <RFPoll.h>
   5:.\RFPoll.c    **** #include <LCD.h>
   6:.\RFPoll.c    **** #include <I2C.h>
   7:.\RFPoll.c    **** #include <Print.h>
   8:.\RFPoll.c    **** #include <device.h>
   9:.\RFPoll.c    **** #include <stdio.h>
  10:.\RFPoll.c    **** #include <stdlib.h>
  11:.\RFPoll.c    **** 
  12:.\RFPoll.c    **** 
  13:.\RFPoll.c    **** 
  14:.\RFPoll.c    **** /*
  15:.\RFPoll.c    **** ***************************************************************************************************
  16:.\RFPoll.c    **** *                             uint8 verificar_check(uint8 *datos, uint16 size)
  17:.\RFPoll.c    **** *
  18:.\RFPoll.c    **** * Description : calcula el checksum
  19:.\RFPoll.c    **** *               
  20:.\RFPoll.c    **** 
  21:.\RFPoll.c    **** ***************************************************************************************************
  22:.\RFPoll.c    **** */
  23:.\RFPoll.c    **** uint8 verificar_check(uint8 *datos, uint16 size){
  27              		.loc 1 23 0
  28              		.cfi_startproc
  29              		@ args = 0, pretend = 0, frame = 256
  30              		@ frame_needed = 0, uses_anonymous_args = 0
  31              	.LVL0:
  32 0000 30B5     		push	{r4, r5, lr}
  33              		.cfi_def_cfa_offset 12
  34              		.cfi_offset 4, -12
ARM GAS  C:\Users\RECEPC~1\AppData\Local\Temp\cc4fvgjK.s 			page 2


  35              		.cfi_offset 5, -8
  36              		.cfi_offset 14, -4
  37 0002 C1B0     		sub	sp, sp, #260
  38              		.cfi_def_cfa_offset 272
  39 0004 0546     		mov	r5, r0
  40 0006 0C46     		mov	r4, r1
  24:.\RFPoll.c    **** 	uint8 checksum,index; 
  25:.\RFPoll.c    **** 	uint16 i;
  26:.\RFPoll.c    ****     uint8 table[256] = { 
  41              		.loc 1 26 0
  42 0008 6846     		mov	r0, sp
  43              	.LVL1:
  44 000a 0949     		ldr	r1, .L5
  45              	.LVL2:
  46 000c 4FF48072 		mov	r2, #256
  47 0010 FFF7FEFF 		bl	memcpy
  48              	.LVL3:
  27:.\RFPoll.c    ****     0, 94,188,226, 97, 63,221,131,194,156,126, 32,163,253, 31, 65,
  28:.\RFPoll.c    ****     157,195, 33,127,252,162, 64, 30, 95,  1,227,189, 62, 96,130,220,
  29:.\RFPoll.c    ****     35,125,159,193, 66, 28,254,160,225,191, 93,  3,128,222, 60, 98,
  30:.\RFPoll.c    ****     190,224,  2, 92,223,129, 99, 61,124, 34,192,158, 29, 67,161,255,
  31:.\RFPoll.c    ****     70, 24,250,164, 39,121,155,197,132,218, 56,102,229,187, 89,  7,
  32:.\RFPoll.c    ****     219,133,103, 57,186,228,  6, 88, 25, 71,165,251,120, 38,196,154,
  33:.\RFPoll.c    ****     101, 59,217,135,  4, 90,184,230,167,249, 27, 69,198,152,122, 36,
  34:.\RFPoll.c    ****     248,166, 68, 26,153,199, 37,123, 58,100,134,216, 91,  5,231,185,
  35:.\RFPoll.c    ****     140,210, 48,110,237,179, 81, 15, 78, 16,242,172, 47,113,147,205,
  36:.\RFPoll.c    ****     17, 79,173,243,112, 46,204,146,211,141,111, 49,178,236, 14, 80,
  37:.\RFPoll.c    ****     175,241, 19, 77,206,144,114, 44,109, 51,209,143, 12, 82,176,238,
  38:.\RFPoll.c    ****     50,108,142,208, 83, 13,239,177,240,174, 76, 18,145,207, 45,115,
  39:.\RFPoll.c    ****     202,148,118, 40,171,245, 23, 73,  8, 86,180,234,105, 55,213,139,
  40:.\RFPoll.c    ****     87,  9,235,181, 54,104,138,212,149,203, 41,119,244,170, 72, 22,
  41:.\RFPoll.c    ****     233,183, 85, 11,136,214, 52,106, 43,117,151,201, 74, 20,246,168,
  42:.\RFPoll.c    ****     116, 42,200,150, 21, 75,169,247,182,232, 10, 84,215,137,107, 53};	
  43:.\RFPoll.c    **** 	checksum=0;
  44:.\RFPoll.c    **** 	for(i=0;i<(size-1);i++){
  49              		.loc 1 44 0
  50 0014 0023     		movs	r3, #0
  43:.\RFPoll.c    **** 	for(i=0;i<(size-1);i++){
  51              		.loc 1 43 0
  52 0016 1846     		mov	r0, r3
  53              		.loc 1 44 0
  54 0018 05E0     		b	.L2
  55              	.LVL4:
  56              	.L3:
  45:.\RFPoll.c    **** 		index = (uint8)(checksum ^ datos[i]);
  57              		.loc 1 45 0 discriminator 3
  58 001a EA5C     		ldrb	r2, [r5, r3]	@ zero_extendqisi2
  59 001c 5040     		eors	r0, r0, r2
  60              	.LVL5:
  46:.\RFPoll.c    **** 		checksum = table[index];				
  61              		.loc 1 46 0 discriminator 3
  62 001e 1DF80000 		ldrb	r0, [sp, r0]	@ zero_extendqisi2
  63              	.LVL6:
  44:.\RFPoll.c    **** 		index = (uint8)(checksum ^ datos[i]);
  64              		.loc 1 44 0 discriminator 3
  65 0022 0133     		adds	r3, r3, #1
  66              	.LVL7:
ARM GAS  C:\Users\RECEPC~1\AppData\Local\Temp\cc4fvgjK.s 			page 3


  67 0024 9BB2     		uxth	r3, r3
  68              	.LVL8:
  69              	.L2:
  44:.\RFPoll.c    **** 		index = (uint8)(checksum ^ datos[i]);
  70              		.loc 1 44 0 is_stmt 0 discriminator 1
  71 0026 621E     		subs	r2, r4, #1
  72 0028 9342     		cmp	r3, r2
  73 002a F6DB     		blt	.L3
  47:.\RFPoll.c    **** 	}
  48:.\RFPoll.c    **** 	return checksum;
  49:.\RFPoll.c    **** }
  74              		.loc 1 49 0 is_stmt 1
  75 002c 41B0     		add	sp, sp, #260
  76              		.cfi_def_cfa_offset 12
  77              		@ sp needed
  78 002e 30BD     		pop	{r4, r5, pc}
  79              	.LVL9:
  80              	.L6:
  81              		.align	2
  82              	.L5:
  83 0030 00000000 		.word	.LANCHOR0
  84              		.cfi_endproc
  85              	.LFE63:
  86              		.size	verificar_check, .-verificar_check
  87              		.section	.text.pollingRFA_Tx,"ax",%progbits
  88              		.align	2
  89              		.global	pollingRFA_Tx
  90              		.thumb
  91              		.thumb_func
  92              		.type	pollingRFA_Tx, %function
  93              	pollingRFA_Tx:
  94              	.LFB65:
  50:.\RFPoll.c    **** 
  51:.\RFPoll.c    **** 
  52:.\RFPoll.c    **** 
  53:.\RFPoll.c    **** 
  54:.\RFPoll.c    **** void pollingRF_Rx(){
  55:.\RFPoll.c    ****     uint16 i,x,y;       
  56:.\RFPoll.c    ****     CyDelay(50);
  57:.\RFPoll.c    ****     if(RF_Connection_GetRxBufferSize() >= 1){
  58:.\RFPoll.c    ****         ActiveRF=1;
  59:.\RFPoll.c    ****         counterRF = 0;
  60:.\RFPoll.c    ****         i=0;
  61:.\RFPoll.c    ****         while(RF_Connection_GetRxBufferSize()>0){//&& (RF_Connection_RX_STS_FIFO_NOTEMPTY)
  62:.\RFPoll.c    ****            buffer_rf[i]=RF_Connection_ReadRxData(); 	
  63:.\RFPoll.c    ****     	   i++;	
  64:.\RFPoll.c    ****         } 
  65:.\RFPoll.c    ****         y=0;
  66:.\RFPoll.c    ****         buffer_tx[y] = 0xBC; y++;
  67:.\RFPoll.c    ****         buffer_tx[y] = 0xCB; y++;
  68:.\RFPoll.c    ****         buffer_tx[y] = 0xC8; y++;
  69:.\RFPoll.c    ****         buffer_tx[y] = IDCast[0]; y++;
  70:.\RFPoll.c    ****         buffer_tx[y] = IDCast[1]; y++;
  71:.\RFPoll.c    ****         if(((buffer_rf[0]==0xBC)&&(buffer_rf[1]==0xBB)&&(buffer_rf[2]==0xB8)&&(buffer_rf[3]==IDCast
  72:.\RFPoll.c    ****             switch(buffer_rf[6]){
  73:.\RFPoll.c    ****                case 0xA1:               //Peticion de estado
  74:.\RFPoll.c    ****                 if(buffer_rf[5] == side.a.dir){
ARM GAS  C:\Users\RECEPC~1\AppData\Local\Temp\cc4fvgjK.s 			page 4


  75:.\RFPoll.c    ****                     if(bufferAready == 0){                        
  76:.\RFPoll.c    ****                         buffer_tx[5] = side.a.dir;y++;
  77:.\RFPoll.c    ****                         buffer_tx[y] = 0xA1;y++;
  78:.\RFPoll.c    ****                         buffer_tx[y] = side.a.rfState; y++;
  79:.\RFPoll.c    ****                         buffer_tx[y] = verificar_check(buffer_tx,y+1);y++;
  80:.\RFPoll.c    ****                         for (x = 0; x < y; x++){
  81:.\RFPoll.c    ****                             RF_Connection_PutChar(buffer_tx[x]);
  82:.\RFPoll.c    ****                         }
  83:.\RFPoll.c    ****                     }else{
  84:.\RFPoll.c    ****                         for (x = 1; x < buffer_A[0]; x++){
  85:.\RFPoll.c    ****                             RF_Connection_PutChar(buffer_A[x]);
  86:.\RFPoll.c    ****                         }
  87:.\RFPoll.c    ****                         bufferAready = 0;
  88:.\RFPoll.c    ****                     } 
  89:.\RFPoll.c    ****                 }
  90:.\RFPoll.c    ****                 if(buffer_rf[5] == side.b.dir){
  91:.\RFPoll.c    ****                     if(side.b.RFstateReport == 0){
  92:.\RFPoll.c    ****                         buffer_tx[5] = side.b.dir;y++;
  93:.\RFPoll.c    ****                         buffer_tx[y] = 0xA1;y++;
  94:.\RFPoll.c    ****                         buffer_tx[y] = side.b.rfState;y++;
  95:.\RFPoll.c    ****                         buffer_tx[y] = verificar_check(buffer_tx,y+1);y++;
  96:.\RFPoll.c    ****                         for (x = 0; x < y; x++){
  97:.\RFPoll.c    ****                             RF_Connection_PutChar(buffer_tx[x]);
  98:.\RFPoll.c    ****                         }
  99:.\RFPoll.c    ****                     }else{
 100:.\RFPoll.c    ****                         pollingRFB_Tx();
 101:.\RFPoll.c    ****                     } 
 102:.\RFPoll.c    ****                 }
 103:.\RFPoll.c    ****                 if(buffer_rf[5] == side.c.dir){
 104:.\RFPoll.c    ****                     buffer_tx[5] = side.c.dir; y++;
 105:.\RFPoll.c    ****                     buffer_tx[y] = 0xA1; y++;
 106:.\RFPoll.c    ****                     buffer_tx[y] = side.c.rfState; y++;
 107:.\RFPoll.c    ****                     buffer_tx[y] = verificar_check(buffer_tx,y+1);y++;
 108:.\RFPoll.c    ****                     for (x = 0; x < y; x++){
 109:.\RFPoll.c    ****                         RF_Connection_PutChar(buffer_tx[x]);
 110:.\RFPoll.c    ****                     }
 111:.\RFPoll.c    ****                 }
 112:.\RFPoll.c    ****                 if(buffer_rf[5] == side.d.dir){
 113:.\RFPoll.c    ****                     buffer_tx[5] = side.d.dir; y++;
 114:.\RFPoll.c    ****                     buffer_tx[y] = 0xA1; y++;
 115:.\RFPoll.c    ****                     buffer_tx[y] = side.d.rfState; y++;
 116:.\RFPoll.c    ****                     buffer_tx[y] = verificar_check(buffer_tx,y+1);y++;
 117:.\RFPoll.c    ****                     for (x = 0; x < y; x++){
 118:.\RFPoll.c    ****                         RF_Connection_PutChar(buffer_tx[x]);
 119:.\RFPoll.c    ****                     }
 120:.\RFPoll.c    ****                 }                    
 121:.\RFPoll.c    ****                break;
 122:.\RFPoll.c    ****                
 123:.\RFPoll.c    ****                
 124:.\RFPoll.c    ****                case 0xA5:
 125:.\RFPoll.c    ****                 if(buffer_rf[5] == side.a.dir){                      
 126:.\RFPoll.c    ****                     pollTotals = 1;
 127:.\RFPoll.c    ****                     buffer_tx[5] = side.a.dir;y++;
 128:.\RFPoll.c    ****                     buffer_tx[y] = 0xA1;y++;
 129:.\RFPoll.c    ****                     buffer_tx[y] = side.a.rfState; y++;
 130:.\RFPoll.c    ****                     buffer_tx[y] = verificar_check(buffer_tx,y+1);y++;
 131:.\RFPoll.c    ****                     for (x = 0; x < y; x++){
ARM GAS  C:\Users\RECEPC~1\AppData\Local\Temp\cc4fvgjK.s 			page 5


 132:.\RFPoll.c    ****                         RF_Connection_PutChar(buffer_tx[x]);
 133:.\RFPoll.c    ****                     }                    
 134:.\RFPoll.c    ****                 }                
 135:.\RFPoll.c    ****                 if(buffer_rf[5] == side.b.dir){                      
 136:.\RFPoll.c    ****                     pollTotals = 2;
 137:.\RFPoll.c    ****                     buffer_tx[5] = side.b.dir;y++;
 138:.\RFPoll.c    ****                     buffer_tx[y] = 0xA1;y++;
 139:.\RFPoll.c    ****                     buffer_tx[y] = side.b.rfState; y++;
 140:.\RFPoll.c    ****                     buffer_tx[y] = verificar_check(buffer_tx,y+1);y++;
 141:.\RFPoll.c    ****                     for (x = 0; x < y; x++){
 142:.\RFPoll.c    ****                         RF_Connection_PutChar(buffer_tx[x]);
 143:.\RFPoll.c    ****                     }                    
 144:.\RFPoll.c    ****                 }                 
 145:.\RFPoll.c    ****                 
 146:.\RFPoll.c    ****                break;
 147:.\RFPoll.c    ****                 
 148:.\RFPoll.c    ****                case 0xA6:               //Envio de precios
 149:.\RFPoll.c    ****                 if(buffer_rf[5] == side.a.dir){                        
 150:.\RFPoll.c    ****                     for(x=9;x < 14 ; x++ ){
 151:.\RFPoll.c    ****                         side.a.ppuAuthorized[buffer_rf[8]][x-9] = buffer_rf[x];
 152:.\RFPoll.c    ****                     }
 153:.\RFPoll.c    ****                     side.a.changePPU = true;
 154:.\RFPoll.c    ****                     side.a.grade = buffer_rf[8];
 155:.\RFPoll.c    ****                     buffer_tx[5] = side.a.dir;y++;
 156:.\RFPoll.c    ****                     buffer_tx[y] = 0xA6;y++;
 157:.\RFPoll.c    ****                     buffer_tx[y] = 0x03;y++;
 158:.\RFPoll.c    ****                 } 
 159:.\RFPoll.c    ****                 if(buffer_rf[5] == side.b.dir){                        
 160:.\RFPoll.c    ****                     for(x=9;x < 14 ; x++ ){
 161:.\RFPoll.c    ****                         side.b.ppuAuthorized[buffer_rf[8]][x-9] = buffer_rf[x];
 162:.\RFPoll.c    ****                     }
 163:.\RFPoll.c    ****                     side.b.changePPU = true;
 164:.\RFPoll.c    ****                     side.b.grade = buffer_rf[8];
 165:.\RFPoll.c    ****                     buffer_tx[5] = side.b.dir; y++;
 166:.\RFPoll.c    ****                     buffer_tx[y] = 0xA6;y++;
 167:.\RFPoll.c    ****                     buffer_tx[y] = 0x03;y++;
 168:.\RFPoll.c    ****                 } 
 169:.\RFPoll.c    ****                 if(buffer_rf[5] == side.c.dir){                        
 170:.\RFPoll.c    ****                     for(x=9;x < 14 ; x++ ){
 171:.\RFPoll.c    ****                         side.c.ppuAuthorized[buffer_rf[8]][x-9] = buffer_rf[x];
 172:.\RFPoll.c    ****                     }
 173:.\RFPoll.c    ****                     side.c.changePPU = true;
 174:.\RFPoll.c    ****                     side.c.grade = buffer_rf[8];
 175:.\RFPoll.c    ****                     buffer_tx[5] = side.c.dir; y++;
 176:.\RFPoll.c    ****                     buffer_tx[y] = 0xA6;y++;
 177:.\RFPoll.c    ****                     buffer_tx[y] = 0x03;y++;
 178:.\RFPoll.c    ****                 } 
 179:.\RFPoll.c    ****                 if(buffer_rf[5] == side.d.dir){                        
 180:.\RFPoll.c    ****                     for(x=9;x < 14 ; x++ ){
 181:.\RFPoll.c    ****                         side.d.ppuAuthorized[buffer_rf[8]][x-9] = buffer_rf[x];
 182:.\RFPoll.c    ****                     }
 183:.\RFPoll.c    ****                     side.d.changePPU = true;
 184:.\RFPoll.c    ****                     side.d.grade = buffer_rf[8];
 185:.\RFPoll.c    ****                     buffer_tx[5] = side.d.dir; y++;
 186:.\RFPoll.c    ****                     buffer_tx[y] = 0xA6;y++;
 187:.\RFPoll.c    ****                     buffer_tx[y] = 0x03;y++;
 188:.\RFPoll.c    ****                 }
ARM GAS  C:\Users\RECEPC~1\AppData\Local\Temp\cc4fvgjK.s 			page 6


 189:.\RFPoll.c    ****                 buffer_tx[y] = verificar_check(buffer_tx,y+1);y++;
 190:.\RFPoll.c    ****                 for (x = 0; x < y; x++){
 191:.\RFPoll.c    ****                     RF_Connection_PutChar(buffer_tx[x]);
 192:.\RFPoll.c    ****                 }
 193:.\RFPoll.c    ****                break;
 194:.\RFPoll.c    ****                 
 195:.\RFPoll.c    ****                case 0xA7:               //Impresion general
 196:.\RFPoll.c    ****                 for(x = 9; x <= buffer_rf[8];x++){
 197:.\RFPoll.c    ****                     //buffer_print[x-9] = buffer_rf[x];
 198:.\RFPoll.c    ****                     write_psoc1(printPortA,buffer_rf[x]);
 199:.\RFPoll.c    ****                 }
 200:.\RFPoll.c    ****                 if(buffer_rf[5] == side.a.dir){
 201:.\RFPoll.c    ****                     buffer_tx[5] = side.a.dir;
 202:.\RFPoll.c    ****                     buffer_tx[6] = 0xA7;
 203:.\RFPoll.c    ****                     buffer_tx[7] = side.a.rfState;
 204:.\RFPoll.c    ****                     buffer_tx[8] = 0x03;
 205:.\RFPoll.c    ****                 }  
 206:.\RFPoll.c    ****                 if(buffer_rf[5] == side.b.dir){
 207:.\RFPoll.c    ****                     buffer_tx[5] = side.b.dir;
 208:.\RFPoll.c    ****                     buffer_tx[6] = 0xA7;
 209:.\RFPoll.c    ****                     buffer_tx[7] = side.b.rfState;
 210:.\RFPoll.c    ****                     buffer_tx[8] = 0x03;
 211:.\RFPoll.c    ****                 }
 212:.\RFPoll.c    ****                 if(buffer_rf[5] == side.c.dir){
 213:.\RFPoll.c    ****                     buffer_tx[5] = side.c.dir;
 214:.\RFPoll.c    ****                     buffer_tx[6] = 0xA7;
 215:.\RFPoll.c    ****                     buffer_tx[7] = side.c.rfState;
 216:.\RFPoll.c    ****                     buffer_tx[8] = 0x03;
 217:.\RFPoll.c    ****                 }
 218:.\RFPoll.c    ****                 if(buffer_rf[5] == side.d.dir){
 219:.\RFPoll.c    ****                     buffer_tx[5] = side.d.dir;
 220:.\RFPoll.c    ****                     buffer_tx[6] = 0xA7;
 221:.\RFPoll.c    ****                     buffer_tx[7] = side.d.rfState;
 222:.\RFPoll.c    ****                     buffer_tx[8] = 0x03;
 223:.\RFPoll.c    ****                 }
 224:.\RFPoll.c    ****                 buffer_tx[8] = verificar_check(buffer_tx,9);
 225:.\RFPoll.c    ****                 for (x = 0; x < 9; x++){
 226:.\RFPoll.c    ****                     RF_Connection_PutChar(buffer_tx[x]);
 227:.\RFPoll.c    ****                 }
 228:.\RFPoll.c    ****                 
 229:.\RFPoll.c    ****                 
 230:.\RFPoll.c    ****                break;
 231:.\RFPoll.c    ****                 
 232:.\RFPoll.c    ****                case 0xA9:
 233:.\RFPoll.c    ****                 if(buffer_rf[5] == side.a.dir){
 234:.\RFPoll.c    ****                     for(x = 0; x < 10; x++){
 235:.\RFPoll.c    ****                         side.a.saleNumber[x] = buffer_rf[x+8];
 236:.\RFPoll.c    ****                     }
 237:.\RFPoll.c    ****                     if(bufferDisplay1.flagPrint)
 238:.\RFPoll.c    ****                         imprimir(printPortA,side.a.dir); 
 239:.\RFPoll.c    ****                 }
 240:.\RFPoll.c    ****                 if(buffer_rf[5] == side.b.dir){
 241:.\RFPoll.c    ****                     for(x = 0; x < 10; x++){
 242:.\RFPoll.c    ****                         side.b.saleNumber[x] = buffer_rf[x+8];
 243:.\RFPoll.c    ****                     }
 244:.\RFPoll.c    ****                     if(bufferDisplay2.flagPrint)
 245:.\RFPoll.c    ****                         imprimir(printPortB,side.b.dir); 
ARM GAS  C:\Users\RECEPC~1\AppData\Local\Temp\cc4fvgjK.s 			page 7


 246:.\RFPoll.c    ****                 }
 247:.\RFPoll.c    ****                 if(buffer_rf[5] == side.c.dir){
 248:.\RFPoll.c    ****                     for(x = 0; x < 10; x++){
 249:.\RFPoll.c    ****                         side.c.saleNumber[x] = buffer_rf[x+8];
 250:.\RFPoll.c    ****                     }
 251:.\RFPoll.c    ****                     if(bufferDisplay3.flagPrint)
 252:.\RFPoll.c    ****                         imprimir(printPortA,side.c.dir); 
 253:.\RFPoll.c    ****                 }
 254:.\RFPoll.c    ****                 if(buffer_rf[5] == side.d.dir){
 255:.\RFPoll.c    ****                     for(x = 0; x < 10; x++){
 256:.\RFPoll.c    ****                         side.d.saleNumber[x] = buffer_rf[x+8];
 257:.\RFPoll.c    ****                     }
 258:.\RFPoll.c    ****                     if(bufferDisplay4.flagPrint)
 259:.\RFPoll.c    ****                         imprimir(printPortB,side.d.dir); 
 260:.\RFPoll.c    ****                 }
 261:.\RFPoll.c    ****                break;
 262:.\RFPoll.c    ****                case 0xAB:
 263:.\RFPoll.c    ****                 buffer_tx[0] = 0xBC;
 264:.\RFPoll.c    ****                break;
 265:.\RFPoll.c    ****                 
 266:.\RFPoll.c    ****                case 0xE1:               //Configuracion de la estacion
 267:.\RFPoll.c    ****                 symbols[1] = buffer_rf[8];
 268:.\RFPoll.c    ****                 date[0]    = buffer_rf[9];
 269:.\RFPoll.c    ****                 date[1]    = buffer_rf[10];
 270:.\RFPoll.c    ****                 date[2]    = buffer_rf[11];
 271:.\RFPoll.c    ****                 time[1]    = buffer_rf[12];
 272:.\RFPoll.c    ****                 time[0]    = buffer_rf[13];
 273:.\RFPoll.c    ****                 for(x = 17; x < 47; x++){
 274:.\RFPoll.c    ****                     Encabezado1[x-17] = buffer_rf[x];
 275:.\RFPoll.c    ****                 }
 276:.\RFPoll.c    ****                 for(x = 47; x < 77; x++){
 277:.\RFPoll.c    ****                     Encabezado2[x-47] = buffer_rf[x];
 278:.\RFPoll.c    ****                 }
 279:.\RFPoll.c    ****                 for(x = 77; x < 107; x++){
 280:.\RFPoll.c    ****                     Encabezado3[x-77] = buffer_rf[x];
 281:.\RFPoll.c    ****                 }
 282:.\RFPoll.c    ****                 for(x = 107; x < 137; x++){
 283:.\RFPoll.c    ****                     Encabezado4[x-77] = buffer_rf[x];
 284:.\RFPoll.c    ****                 }
 285:.\RFPoll.c    ****                 CopiasCredito = buffer_rf[16];
 286:.\RFPoll.c    ****                 write_hora();
 287:.\RFPoll.c    ****                 write_fecha(); 
 288:.\RFPoll.c    ****                 for(x =0 ; x <30; x++){
 289:.\RFPoll.c    ****                     EEPROM_1_WriteByte(Encabezado1[x],16+x);
 290:.\RFPoll.c    ****                 }
 291:.\RFPoll.c    ****                 for(x =30 ; x <60; x++){
 292:.\RFPoll.c    ****                     EEPROM_1_WriteByte(Encabezado2[x-30],16+x);
 293:.\RFPoll.c    ****                 }
 294:.\RFPoll.c    ****                 for(x =60 ; x <90; x++){
 295:.\RFPoll.c    ****                     EEPROM_1_WriteByte(Encabezado3[x-30],16+x);
 296:.\RFPoll.c    ****                 }
 297:.\RFPoll.c    ****                 for(x =90 ; x <120; x++){
 298:.\RFPoll.c    ****                     EEPROM_1_WriteByte(Encabezado4[x-30],16+x);
 299:.\RFPoll.c    ****                 }
 300:.\RFPoll.c    ****                 side.a.dir = EEPROM_1_ReadByte(12);
 301:.\RFPoll.c    ****                 side.b.dir = EEPROM_1_ReadByte(13);
 302:.\RFPoll.c    ****                 side.c.dir = EEPROM_1_ReadByte(14);
ARM GAS  C:\Users\RECEPC~1\AppData\Local\Temp\cc4fvgjK.s 			page 8


 303:.\RFPoll.c    ****                 side.d.dir = EEPROM_1_ReadByte(15);
 304:.\RFPoll.c    ****                 imprimir(printPortA,side.a.dir);
 305:.\RFPoll.c    ****                break;
 306:.\RFPoll.c    ****                
 307:.\RFPoll.c    ****                case 0xE2:               //Configuracion de la posicion                             
 308:.\RFPoll.c    ****                 buffer_tx[5] = buffer_rf[5];
 309:.\RFPoll.c    ****                 buffer_tx[6] = 0xE2;
 310:.\RFPoll.c    ****                 buffer_tx[7] = 0x08;
 311:.\RFPoll.c    ****                 buffer_tx[8] = 0x03;
 312:.\RFPoll.c    ****                 buffer_tx[9] = verificar_check(buffer_tx,10);
 313:.\RFPoll.c    ****                 for (x = 0; x < 10; x++){
 314:.\RFPoll.c    ****                     RF_Connection_PutChar(buffer_tx[x]);
 315:.\RFPoll.c    ****                 }
 316:.\RFPoll.c    ****                 for(x = 8; x < 12; x++){
 317:.\RFPoll.c    ****                     GradesHose[x-8] = buffer_rf[x];
 318:.\RFPoll.c    ****                 }
 319:.\RFPoll.c    ****                 lockTurn = buffer_rf[12];
 320:.\RFPoll.c    ****                 EEPROM_1_WriteByte(lockTurn,7);
 321:.\RFPoll.c    ****                break;
 322:.\RFPoll.c    ****                 
 323:.\RFPoll.c    ****                case 0xE4:               //Turno                                                 
 324:.\RFPoll.c    ****                 if(buffer_rf[7]== 0x02){
 325:.\RFPoll.c    ****                     flowDisplay1 = 0;
 326:.\RFPoll.c    ****                     ShiftState = 0;
 327:.\RFPoll.c    ****                     side.a.rfState = RF_IDLE;
 328:.\RFPoll.c    ****                     side.a.RFstateReport = 0;
 329:.\RFPoll.c    ****                     SetPicture(1,DISPLAY_ERROR);
 330:.\RFPoll.c    ****                 }else{
 331:.\RFPoll.c    ****                     ShiftState = 0;
 332:.\RFPoll.c    ****                     lockTurn = buffer_rf[7];
 333:.\RFPoll.c    ****                     flowDisplay1 = 0;
 334:.\RFPoll.c    ****                     side.a.RFstateReport = 0;
 335:.\RFPoll.c    ****                     CyDelay(200);
 336:.\RFPoll.c    ****                     SetPicture(1,DISPLAY_ID_RECONOCIDO);
 337:.\RFPoll.c    ****                 }
 338:.\RFPoll.c    ****                     
 339:.\RFPoll.c    ****                break;
 340:.\RFPoll.c    ****            }                       
 341:.\RFPoll.c    ****         } 
 342:.\RFPoll.c    ****         RF_Connection_ClearRxBuffer(); 
 343:.\RFPoll.c    ****     }                            
 344:.\RFPoll.c    ****     //countRX = 0;            
 345:.\RFPoll.c    **** }
 346:.\RFPoll.c    **** 
 347:.\RFPoll.c    **** 
 348:.\RFPoll.c    **** void pollingRFA_Tx(){   
  95              		.loc 1 348 0
  96              		.cfi_startproc
  97              		@ args = 0, pretend = 0, frame = 0
  98              		@ frame_needed = 0, uses_anonymous_args = 0
 349:.\RFPoll.c    ****     uint16 x,y,z;     
 350:.\RFPoll.c    ****     if(countTX >15){
  99              		.loc 1 350 0
 100 0000 8F4B     		ldr	r3, .L71
 101 0002 D3E90023 		ldrd	r2, [r3]
 102 0006 002B     		cmp	r3, #0
 103 0008 08BF     		it	eq
ARM GAS  C:\Users\RECEPC~1\AppData\Local\Temp\cc4fvgjK.s 			page 9


 104 000a 102A     		cmpeq	r2, #16
 105 000c C0F08082 		bcc	.L70
 348:.\RFPoll.c    ****     uint16 x,y,z;     
 106              		.loc 1 348 0
 107 0010 70B5     		push	{r4, r5, r6, lr}
 108              		.cfi_def_cfa_offset 16
 109              		.cfi_offset 4, -16
 110              		.cfi_offset 5, -12
 111              		.cfi_offset 6, -8
 112              		.cfi_offset 14, -4
 351:.\RFPoll.c    ****     /////////////// COPIA DE RECIBO //////////////////
 352:.\RFPoll.c    **** //    if(side.a.rfState == RF_COPY_RECEIPT && side.a.RFstateReport == 1){        
 353:.\RFPoll.c    **** //        buffer_txDisplay[5] = side.a.dir;
 354:.\RFPoll.c    **** //        buffer_txDisplay[6] = 0xE6;
 355:.\RFPoll.c    **** //        buffer_txDisplay[7] = RF_COPY_RECEIPT;
 356:.\RFPoll.c    **** //        buffer_txDisplay[8] = verificar_check(buffer_txDisplay,9);
 357:.\RFPoll.c    **** //        for (x = 0; x < 9; x++){
 358:.\RFPoll.c    **** //            RF_Connection_PutChar(buffer_txDisplay[x]);
 359:.\RFPoll.c    **** //        }
 360:.\RFPoll.c    **** //		side.a.RFstateReport = 0;
 361:.\RFPoll.c    **** //    }    
 362:.\RFPoll.c    ****     ////////////// PRESET - DISPENSANDO ////////////////////////////////////
 363:.\RFPoll.c    ****     if(side.a.pumpState == PUMP_BUSY && side.a.RFstateReport == 1){
 113              		.loc 1 363 0
 114 0012 8C4B     		ldr	r3, .L71+4
 115 0014 93F80431 		ldrb	r3, [r3, #260]	@ zero_extendqisi2
 116 0018 092B     		cmp	r3, #9
 117 001a 7FD1     		bne	.L9
 118              		.loc 1 363 0 is_stmt 0 discriminator 1
 119 001c 894B     		ldr	r3, .L71+4
 120 001e 93F80731 		ldrb	r3, [r3, #263]	@ zero_extendqisi2
 121 0022 012B     		cmp	r3, #1
 122 0024 7AD1     		bne	.L9
 364:.\RFPoll.c    ****         buffer_A[0] = 40;
 123              		.loc 1 364 0 is_stmt 1
 124 0026 884B     		ldr	r3, .L71+8
 125 0028 2822     		movs	r2, #40
 126 002a 1A70     		strb	r2, [r3]
 365:.\RFPoll.c    **** 		buffer_A[1] = 0xBC;
 127              		.loc 1 365 0
 128 002c BC22     		movs	r2, #188
 129 002e 5A70     		strb	r2, [r3, #1]
 366:.\RFPoll.c    ****         buffer_A[2] = 0xCB;
 130              		.loc 1 366 0
 131 0030 CB22     		movs	r2, #203
 132 0032 9A70     		strb	r2, [r3, #2]
 367:.\RFPoll.c    ****         buffer_A[3] = 0xC8;
 133              		.loc 1 367 0
 134 0034 C822     		movs	r2, #200
 135 0036 DA70     		strb	r2, [r3, #3]
 368:.\RFPoll.c    ****         buffer_A[4] = IDCast[0];
 136              		.loc 1 368 0
 137 0038 844A     		ldr	r2, .L71+12
 138 003a 1178     		ldrb	r1, [r2]	@ zero_extendqisi2
 139 003c 1971     		strb	r1, [r3, #4]
 369:.\RFPoll.c    ****         buffer_A[5] = IDCast[1];
 140              		.loc 1 369 0
ARM GAS  C:\Users\RECEPC~1\AppData\Local\Temp\cc4fvgjK.s 			page 10


 141 003e 5278     		ldrb	r2, [r2, #1]	@ zero_extendqisi2
 142 0040 5A71     		strb	r2, [r3, #5]
 370:.\RFPoll.c    ****         buffer_A[6]  = side.a.dir;
 143              		.loc 1 370 0
 144 0042 804A     		ldr	r2, .L71+4
 145 0044 1178     		ldrb	r1, [r2]	@ zero_extendqisi2
 146 0046 9971     		strb	r1, [r3, #6]
 371:.\RFPoll.c    ****         buffer_A[7]  = 0xAA;
 147              		.loc 1 371 0
 148 0048 AA21     		movs	r1, #170
 149 004a D971     		strb	r1, [r3, #7]
 372:.\RFPoll.c    ****         buffer_A[8]  = RF_DELIVERING;
 150              		.loc 1 372 0
 151 004c 0121     		movs	r1, #1
 152 004e 1972     		strb	r1, [r3, #8]
 373:.\RFPoll.c    ****         buffer_A[9]  = side.a.activeHose;
 153              		.loc 1 373 0
 154 0050 92F80021 		ldrb	r2, [r2, #256]	@ zero_extendqisi2
 155 0054 5A72     		strb	r2, [r3, #9]
 374:.\RFPoll.c    ****         buffer_A[10]  = bufferDisplay1.presetType[0]&0x03;
 156              		.loc 1 374 0
 157 0056 7E49     		ldr	r1, .L71+16
 158 0058 91F86320 		ldrb	r2, [r1, #99]	@ zero_extendqisi2
 159 005c 02F00302 		and	r2, r2, #3
 160 0060 9A72     		strb	r2, [r3, #10]
 375:.\RFPoll.c    ****         for(x = bufferDisplay1.presetValue[0][0] ; x > 0; x--){
 161              		.loc 1 375 0
 162 0062 91F86540 		ldrb	r4, [r1, #101]	@ zero_extendqisi2
 163 0066 A3B2     		uxth	r3, r4
 164              	.LVL10:
 165 0068 08E0     		b	.L10
 166              	.L11:
 376:.\RFPoll.c    ****             tempPreset[bufferDisplay1.presetValue[0][0]-x] = (bufferDisplay1.presetValue[0][x]); 
 167              		.loc 1 376 0 discriminator 3
 168 006a E11A     		subs	r1, r4, r3
 169 006c 784A     		ldr	r2, .L71+16
 170 006e 1A44     		add	r2, r2, r3
 171 0070 92F86500 		ldrb	r0, [r2, #101]	@ zero_extendqisi2
 172 0074 774A     		ldr	r2, .L71+20
 173 0076 5054     		strb	r0, [r2, r1]
 375:.\RFPoll.c    ****         for(x = bufferDisplay1.presetValue[0][0] ; x > 0; x--){
 174              		.loc 1 375 0 discriminator 3
 175 0078 013B     		subs	r3, r3, #1
 176              	.LVL11:
 177 007a 9BB2     		uxth	r3, r3
 178              	.LVL12:
 179              	.L10:
 375:.\RFPoll.c    ****         for(x = bufferDisplay1.presetValue[0][0] ; x > 0; x--){
 180              		.loc 1 375 0 is_stmt 0 discriminator 1
 181 007c 002B     		cmp	r3, #0
 182 007e F4D1     		bne	.L11
 183 0080 0B22     		movs	r2, #11
 184 0082 0CE0     		b	.L12
 185              	.LVL13:
 186              	.L14:
 377:.\RFPoll.c    ****         }
 378:.\RFPoll.c    ****         for(x = 11; x<=18; x++){
ARM GAS  C:\Users\RECEPC~1\AppData\Local\Temp\cc4fvgjK.s 			page 11


 379:.\RFPoll.c    ****             buffer_A[x] = tempPreset[x-11]; 
 187              		.loc 1 379 0 is_stmt 1
 188 0084 A2F10B01 		sub	r1, r2, #11
 189 0088 7248     		ldr	r0, .L71+20
 190 008a 415C     		ldrb	r1, [r0, r1]	@ zero_extendqisi2
 191 008c C9B2     		uxtb	r1, r1
 192 008e 6E48     		ldr	r0, .L71+8
 193 0090 8154     		strb	r1, [r0, r2]
 380:.\RFPoll.c    ****             if(buffer_A[x]== 0x00)
 194              		.loc 1 380 0
 195 0092 11B9     		cbnz	r1, .L13
 381:.\RFPoll.c    ****                 buffer_A[x] = 0x30;
 196              		.loc 1 381 0
 197 0094 3020     		movs	r0, #48
 198 0096 6C49     		ldr	r1, .L71+8
 199 0098 8854     		strb	r0, [r1, r2]
 200              	.L13:
 378:.\RFPoll.c    ****             buffer_A[x] = tempPreset[x-11]; 
 201              		.loc 1 378 0 discriminator 2
 202 009a 0132     		adds	r2, r2, #1
 203              	.LVL14:
 204 009c 92B2     		uxth	r2, r2
 205              	.LVL15:
 206              	.L12:
 378:.\RFPoll.c    ****             buffer_A[x] = tempPreset[x-11]; 
 207              		.loc 1 378 0 is_stmt 0 discriminator 1
 208 009e 122A     		cmp	r2, #18
 209 00a0 F0D9     		bls	.L14
 382:.\RFPoll.c    ****         }        
 383:.\RFPoll.c    ****         buffer_A[19]  = 0x00;
 210              		.loc 1 383 0 is_stmt 1
 211 00a2 0021     		movs	r1, #0
 212 00a4 684A     		ldr	r2, .L71+8
 213              	.LVL16:
 214 00a6 D174     		strb	r1, [r2, #19]
 384:.\RFPoll.c    ****         if(bufferDisplay1.flagPrint == 0){
 215              		.loc 1 384 0
 216 00a8 694A     		ldr	r2, .L71+16
 217 00aa 92F83421 		ldrb	r2, [r2, #308]	@ zero_extendqisi2
 218 00ae 52B1     		cbz	r2, .L15
 219 00b0 19E0     		b	.L16
 220              	.LVL17:
 221              	.L17:
 385:.\RFPoll.c    ****             for(x = 0; x <8 ; x++){
 386:.\RFPoll.c    ****                 buffer_A[20+x]=0x20;
 222              		.loc 1 386 0 discriminator 3
 223 00b2 03F11402 		add	r2, r3, #20
 224 00b6 2020     		movs	r0, #32
 225 00b8 6349     		ldr	r1, .L71+8
 226 00ba 8854     		strb	r0, [r1, r2]
 387:.\RFPoll.c    ****                 tempPreset[x] = 0x00;
 227              		.loc 1 387 0 discriminator 3
 228 00bc 0021     		movs	r1, #0
 229 00be 654A     		ldr	r2, .L71+20
 230 00c0 D154     		strb	r1, [r2, r3]
 385:.\RFPoll.c    ****             for(x = 0; x <8 ; x++){
 231              		.loc 1 385 0 discriminator 3
ARM GAS  C:\Users\RECEPC~1\AppData\Local\Temp\cc4fvgjK.s 			page 12


 232 00c2 0133     		adds	r3, r3, #1
 233              	.LVL18:
 234 00c4 9BB2     		uxth	r3, r3
 235              	.LVL19:
 236              	.L15:
 385:.\RFPoll.c    ****             for(x = 0; x <8 ; x++){
 237              		.loc 1 385 0 is_stmt 0 discriminator 1
 238 00c6 072B     		cmp	r3, #7
 239 00c8 F3D9     		bls	.L17
 240 00ca 0EE0     		b	.L18
 241              	.L19:
 388:.\RFPoll.c    ****             }
 389:.\RFPoll.c    ****         }else{
 390:.\RFPoll.c    ****             for(x = 0; x <8 ; x++){
 391:.\RFPoll.c    ****                 buffer_A[20+x]=bufferDisplay1.licenceSale[x+1];
 242              		.loc 1 391 0 is_stmt 1 discriminator 3
 243 00cc 03F11400 		add	r0, r3, #20
 244 00d0 591C     		adds	r1, r3, #1
 245 00d2 5F4A     		ldr	r2, .L71+16
 246 00d4 0A44     		add	r2, r2, r1
 247 00d6 92F8DF40 		ldrb	r4, [r2, #223]	@ zero_extendqisi2
 248 00da 5B4A     		ldr	r2, .L71+8
 249 00dc 1454     		strb	r4, [r2, r0]
 392:.\RFPoll.c    ****                 tempPreset[x] = 0x00;
 250              		.loc 1 392 0 discriminator 3
 251 00de 0020     		movs	r0, #0
 252 00e0 5C4A     		ldr	r2, .L71+20
 253 00e2 D054     		strb	r0, [r2, r3]
 390:.\RFPoll.c    ****                 buffer_A[20+x]=bufferDisplay1.licenceSale[x+1];
 254              		.loc 1 390 0 discriminator 3
 255 00e4 8BB2     		uxth	r3, r1
 256              	.LVL20:
 257              	.L16:
 390:.\RFPoll.c    ****                 buffer_A[20+x]=bufferDisplay1.licenceSale[x+1];
 258              		.loc 1 390 0 is_stmt 0 discriminator 1
 259 00e6 072B     		cmp	r3, #7
 260 00e8 F0D9     		bls	.L19
 261              	.L18:
 262 00ea 1C23     		movs	r3, #28
 263              	.LVL21:
 264 00ec 04E0     		b	.L20
 265              	.LVL22:
 266              	.L21:
 393:.\RFPoll.c    ****             }
 394:.\RFPoll.c    ****         }
 395:.\RFPoll.c    ****         for(x=28; x<=38;x++){
 396:.\RFPoll.c    ****             buffer_A[x]= 0x30;
 267              		.loc 1 396 0 is_stmt 1 discriminator 3
 268 00ee 3021     		movs	r1, #48
 269 00f0 554A     		ldr	r2, .L71+8
 270 00f2 D154     		strb	r1, [r2, r3]
 395:.\RFPoll.c    ****             buffer_A[x]= 0x30;
 271              		.loc 1 395 0 discriminator 3
 272 00f4 0133     		adds	r3, r3, #1
 273              	.LVL23:
 274 00f6 9BB2     		uxth	r3, r3
 275              	.LVL24:
ARM GAS  C:\Users\RECEPC~1\AppData\Local\Temp\cc4fvgjK.s 			page 13


 276              	.L20:
 395:.\RFPoll.c    ****             buffer_A[x]= 0x30;
 277              		.loc 1 395 0 is_stmt 0 discriminator 1
 278 00f8 262B     		cmp	r3, #38
 279 00fa F8D9     		bls	.L21
 397:.\RFPoll.c    ****         }
 398:.\RFPoll.c    ****         buffer_A[39] = verificar_check(buffer_A,40);                                
 280              		.loc 1 398 0 is_stmt 1
 281 00fc 524C     		ldr	r4, .L71+8
 282 00fe 2046     		mov	r0, r4
 283 0100 2821     		movs	r1, #40
 284 0102 FFF7FEFF 		bl	verificar_check
 285              	.LVL25:
 286 0106 84F82700 		strb	r0, [r4, #39]
 399:.\RFPoll.c    ****         side.a.rfState = RF_DELIVERING;
 287              		.loc 1 399 0
 288 010a 4E4A     		ldr	r2, .L71+4
 289 010c 0123     		movs	r3, #1
 290 010e 82F80331 		strb	r3, [r2, #259]
 400:.\RFPoll.c    ****         side.a.RFstateReport = 0;
 291              		.loc 1 400 0
 292 0112 0021     		movs	r1, #0
 293 0114 82F80711 		strb	r1, [r2, #263]
 401:.\RFPoll.c    ****         bufferAready =1;
 294              		.loc 1 401 0
 295 0118 4F4A     		ldr	r2, .L71+24
 296 011a 1370     		strb	r3, [r2]
 297              	.L9:
 402:.\RFPoll.c    ****     }          
 403:.\RFPoll.c    ****     ////////////// FIN VENTA ////////////////////////////////////
 404:.\RFPoll.c    ****     if((side.a.pumpState == PUMP_PEOT || side.a.pumpState == PUMP_FEOT) && side.a.RFstateReport == 
 298              		.loc 1 404 0
 299 011c 494B     		ldr	r3, .L71+4
 300 011e 93F80431 		ldrb	r3, [r3, #260]	@ zero_extendqisi2
 301 0122 0A3B     		subs	r3, r3, #10
 302 0124 DBB2     		uxtb	r3, r3
 303 0126 012B     		cmp	r3, #1
 304 0128 00F2CE80 		bhi	.L22
 305              		.loc 1 404 0 is_stmt 0 discriminator 1
 306 012c 454B     		ldr	r3, .L71+4
 307 012e 93F80731 		ldrb	r3, [r3, #263]	@ zero_extendqisi2
 308 0132 012B     		cmp	r3, #1
 309 0134 40F0C880 		bne	.L22
 405:.\RFPoll.c    ****         buffer_A[0] = 32;
 310              		.loc 1 405 0 is_stmt 1
 311 0138 434B     		ldr	r3, .L71+8
 312 013a 2022     		movs	r2, #32
 313 013c 1A70     		strb	r2, [r3]
 406:.\RFPoll.c    **** 		buffer_A[1] = 0xBC;
 314              		.loc 1 406 0
 315 013e BC22     		movs	r2, #188
 316 0140 5A70     		strb	r2, [r3, #1]
 407:.\RFPoll.c    ****         buffer_A[2] = 0xCB;
 317              		.loc 1 407 0
 318 0142 CB22     		movs	r2, #203
 319 0144 9A70     		strb	r2, [r3, #2]
 408:.\RFPoll.c    ****         buffer_A[3] = 0xC8;
ARM GAS  C:\Users\RECEPC~1\AppData\Local\Temp\cc4fvgjK.s 			page 14


 320              		.loc 1 408 0
 321 0146 C822     		movs	r2, #200
 322 0148 DA70     		strb	r2, [r3, #3]
 409:.\RFPoll.c    ****         buffer_A[4] = IDCast[0];
 323              		.loc 1 409 0
 324 014a 404A     		ldr	r2, .L71+12
 325 014c 1178     		ldrb	r1, [r2]	@ zero_extendqisi2
 326 014e 1971     		strb	r1, [r3, #4]
 410:.\RFPoll.c    ****         buffer_A[5] = IDCast[1];
 327              		.loc 1 410 0
 328 0150 5278     		ldrb	r2, [r2, #1]	@ zero_extendqisi2
 329 0152 5A71     		strb	r2, [r3, #5]
 411:.\RFPoll.c    ****         buffer_A[6]  = side.a.dir;
 330              		.loc 1 411 0
 331 0154 3B4A     		ldr	r2, .L71+4
 332 0156 1178     		ldrb	r1, [r2]	@ zero_extendqisi2
 333 0158 9971     		strb	r1, [r3, #6]
 412:.\RFPoll.c    ****         buffer_A[7]  = 0xA4;
 334              		.loc 1 412 0
 335 015a A421     		movs	r1, #164
 336 015c D971     		strb	r1, [r3, #7]
 413:.\RFPoll.c    ****         buffer_A[8]  = RF_CASHSALEREPORT;
 337              		.loc 1 413 0
 338 015e 0221     		movs	r1, #2
 339 0160 1972     		strb	r1, [r3, #8]
 414:.\RFPoll.c    ****         buffer_A[9]  = side.a.activeHose-1;
 340              		.loc 1 414 0
 341 0162 92F80011 		ldrb	r1, [r2, #256]	@ zero_extendqisi2
 342 0166 0139     		subs	r1, r1, #1
 343 0168 5972     		strb	r1, [r3, #9]
 415:.\RFPoll.c    ****         for(x=side.a.ppuSale[0];x > 0 ;x--){						   							
 344              		.loc 1 415 0
 345 016a 92F8F140 		ldrb	r4, [r2, #241]	@ zero_extendqisi2
 346 016e A3B2     		uxth	r3, r4
 347              	.LVL26:
 348 0170 08E0     		b	.L23
 349              	.L24:
 416:.\RFPoll.c    ****     		tempPPU[side.a.ppuSale[0]-x]= side.a.ppuSale[x];
 350              		.loc 1 416 0 discriminator 3
 351 0172 E11A     		subs	r1, r4, r3
 352 0174 334A     		ldr	r2, .L71+4
 353 0176 1A44     		add	r2, r2, r3
 354 0178 92F8F100 		ldrb	r0, [r2, #241]	@ zero_extendqisi2
 355 017c 374A     		ldr	r2, .L71+28
 356 017e 5054     		strb	r0, [r2, r1]
 415:.\RFPoll.c    ****         for(x=side.a.ppuSale[0];x > 0 ;x--){						   							
 357              		.loc 1 415 0 discriminator 3
 358 0180 013B     		subs	r3, r3, #1
 359              	.LVL27:
 360 0182 9BB2     		uxth	r3, r3
 361              	.LVL28:
 362              	.L23:
 415:.\RFPoll.c    ****         for(x=side.a.ppuSale[0];x > 0 ;x--){						   							
 363              		.loc 1 415 0 is_stmt 0 discriminator 1
 364 0184 002B     		cmp	r3, #0
 365 0186 F4D1     		bne	.L24
 366 0188 0A23     		movs	r3, #10
ARM GAS  C:\Users\RECEPC~1\AppData\Local\Temp\cc4fvgjK.s 			page 15


 367              	.LVL29:
 368 018a 0CE0     		b	.L25
 369              	.LVL30:
 370              	.L27:
 417:.\RFPoll.c    ****     	}
 418:.\RFPoll.c    ****         for(x = 10; x<=14; x++){
 419:.\RFPoll.c    ****             buffer_A[x] = tempPPU[x-10]; 
 371              		.loc 1 419 0 is_stmt 1
 372 018c A3F10A02 		sub	r2, r3, #10
 373 0190 3249     		ldr	r1, .L71+28
 374 0192 8A5C     		ldrb	r2, [r1, r2]	@ zero_extendqisi2
 375 0194 D2B2     		uxtb	r2, r2
 376 0196 2C49     		ldr	r1, .L71+8
 377 0198 CA54     		strb	r2, [r1, r3]
 420:.\RFPoll.c    ****             if(buffer_A[x]== 0x00)
 378              		.loc 1 420 0
 379 019a 12B9     		cbnz	r2, .L26
 421:.\RFPoll.c    ****                 buffer_A[x] = 0x30;
 380              		.loc 1 421 0
 381 019c 3021     		movs	r1, #48
 382 019e 2A4A     		ldr	r2, .L71+8
 383 01a0 D154     		strb	r1, [r2, r3]
 384              	.L26:
 418:.\RFPoll.c    ****             buffer_A[x] = tempPPU[x-10]; 
 385              		.loc 1 418 0 discriminator 2
 386 01a2 0133     		adds	r3, r3, #1
 387              	.LVL31:
 388 01a4 9BB2     		uxth	r3, r3
 389              	.LVL32:
 390              	.L25:
 418:.\RFPoll.c    ****             buffer_A[x] = tempPPU[x-10]; 
 391              		.loc 1 418 0 is_stmt 0 discriminator 1
 392 01a6 0E2B     		cmp	r3, #14
 393 01a8 F0D9     		bls	.L27
 422:.\RFPoll.c    ****         } 
 423:.\RFPoll.c    ****         if(digits ==5 || digits ==6){
 394              		.loc 1 423 0 is_stmt 1
 395 01aa 2D4B     		ldr	r3, .L71+32
 396              	.LVL33:
 397 01ac 1B78     		ldrb	r3, [r3]	@ zero_extendqisi2
 398 01ae 053B     		subs	r3, r3, #5
 399 01b0 DBB2     		uxtb	r3, r3
 400 01b2 012B     		cmp	r3, #1
 401 01b4 0CD9     		bls	.L66
 402 01b6 0123     		movs	r3, #1
 403 01b8 1BE0     		b	.L29
 404              	.LVL34:
 405              	.L30:
 424:.\RFPoll.c    ****             for(x=1;x <= side.a.volumeSale[0];x++){						   							
 425:.\RFPoll.c    ****                 buffer_A[x+14]=side.a.volumeSale[7-x];                
 406              		.loc 1 425 0 discriminator 3
 407 01ba 03F10E01 		add	r1, r3, #14
 408 01be 294A     		ldr	r2, .L71+36
 409 01c0 D21A     		subs	r2, r2, r3
 410 01c2 92F8E300 		ldrb	r0, [r2, #227]	@ zero_extendqisi2
 411 01c6 204A     		ldr	r2, .L71+8
 412 01c8 5054     		strb	r0, [r2, r1]
ARM GAS  C:\Users\RECEPC~1\AppData\Local\Temp\cc4fvgjK.s 			page 16


 424:.\RFPoll.c    ****             for(x=1;x <= side.a.volumeSale[0];x++){						   							
 413              		.loc 1 424 0 discriminator 3
 414 01ca 0133     		adds	r3, r3, #1
 415              	.LVL35:
 416 01cc 9BB2     		uxth	r3, r3
 417              	.LVL36:
 418 01ce 00E0     		b	.L28
 419              	.LVL37:
 420              	.L66:
 421 01d0 0123     		movs	r3, #1
 422              	.L28:
 423              	.LVL38:
 424:.\RFPoll.c    ****             for(x=1;x <= side.a.volumeSale[0];x++){						   							
 424              		.loc 1 424 0 is_stmt 0 discriminator 1
 425 01d2 1C4A     		ldr	r2, .L71+4
 426 01d4 92F8E320 		ldrb	r2, [r2, #227]	@ zero_extendqisi2
 427 01d8 9A42     		cmp	r2, r3
 428 01da EED2     		bcs	.L30
 429 01dc 0EE0     		b	.L31
 430              	.L32:
 426:.\RFPoll.c    ****         	}
 427:.\RFPoll.c    ****         }else{
 428:.\RFPoll.c    ****             for(x=1;x <= side.a.volumeSale[0];x++){						   							
 429:.\RFPoll.c    ****                 buffer_A[x+14]=side.a.volumeSale[9-x];                
 431              		.loc 1 429 0 is_stmt 1 discriminator 3
 432 01de 03F10E01 		add	r1, r3, #14
 433 01e2 214A     		ldr	r2, .L71+40
 434 01e4 D21A     		subs	r2, r2, r3
 435 01e6 92F8E300 		ldrb	r0, [r2, #227]	@ zero_extendqisi2
 436 01ea 174A     		ldr	r2, .L71+8
 437 01ec 5054     		strb	r0, [r2, r1]
 428:.\RFPoll.c    ****                 buffer_A[x+14]=side.a.volumeSale[9-x];                
 438              		.loc 1 428 0 discriminator 3
 439 01ee 0133     		adds	r3, r3, #1
 440              	.LVL39:
 441 01f0 9BB2     		uxth	r3, r3
 442              	.LVL40:
 443              	.L29:
 428:.\RFPoll.c    ****                 buffer_A[x+14]=side.a.volumeSale[9-x];                
 444              		.loc 1 428 0 is_stmt 0 discriminator 1
 445 01f2 144A     		ldr	r2, .L71+4
 446 01f4 92F8E320 		ldrb	r2, [r2, #227]	@ zero_extendqisi2
 447 01f8 9A42     		cmp	r2, r3
 448 01fa F0D2     		bcs	.L32
 449              	.L31:
 430:.\RFPoll.c    ****         	}
 431:.\RFPoll.c    ****         }        
 432:.\RFPoll.c    ****         if(buffer_A[21]==0x00){
 450              		.loc 1 432 0 is_stmt 1
 451 01fc 124B     		ldr	r3, .L71+8
 452              	.LVL41:
 453 01fe 5B7D     		ldrb	r3, [r3, #21]	@ zero_extendqisi2
 454 0200 1BB9     		cbnz	r3, .L33
 433:.\RFPoll.c    ****             buffer_A[21] = 0x30;
 455              		.loc 1 433 0
 456 0202 114B     		ldr	r3, .L71+8
 457 0204 3022     		movs	r2, #48
ARM GAS  C:\Users\RECEPC~1\AppData\Local\Temp\cc4fvgjK.s 			page 17


 458 0206 5A75     		strb	r2, [r3, #21]
 434:.\RFPoll.c    ****             buffer_A[22] = 0x30;
 459              		.loc 1 434 0
 460 0208 9A75     		strb	r2, [r3, #22]
 461              	.L33:
 435:.\RFPoll.c    ****         }
 436:.\RFPoll.c    ****         if(digits ==5 || digits ==6){
 462              		.loc 1 436 0
 463 020a 154B     		ldr	r3, .L71+32
 464 020c 1B78     		ldrb	r3, [r3]	@ zero_extendqisi2
 465 020e 053B     		subs	r3, r3, #5
 466 0210 DBB2     		uxtb	r3, r3
 467 0212 012B     		cmp	r3, #1
 468 0214 0CD9     		bls	.L67
 469 0216 0123     		movs	r3, #1
 470 0218 32E0     		b	.L35
 471              	.LVL42:
 472              	.L36:
 437:.\RFPoll.c    ****             for(x=1;x <= side.a.moneySale[0];x++){						   							
 438:.\RFPoll.c    ****         		buffer_A[x+22]=side.a.moneySale[7-x];                
 473              		.loc 1 438 0 discriminator 3
 474 021a 03F11601 		add	r1, r3, #22
 475 021e 114A     		ldr	r2, .L71+36
 476 0220 D21A     		subs	r2, r2, r3
 477 0222 92F8D500 		ldrb	r0, [r2, #213]	@ zero_extendqisi2
 478 0226 084A     		ldr	r2, .L71+8
 479 0228 5054     		strb	r0, [r2, r1]
 437:.\RFPoll.c    ****             for(x=1;x <= side.a.moneySale[0];x++){						   							
 480              		.loc 1 437 0 discriminator 3
 481 022a 0133     		adds	r3, r3, #1
 482              	.LVL43:
 483 022c 9BB2     		uxth	r3, r3
 484              	.LVL44:
 485 022e 00E0     		b	.L34
 486              	.LVL45:
 487              	.L67:
 488 0230 0123     		movs	r3, #1
 489              	.L34:
 490              	.LVL46:
 437:.\RFPoll.c    ****             for(x=1;x <= side.a.moneySale[0];x++){						   							
 491              		.loc 1 437 0 is_stmt 0 discriminator 1
 492 0232 044A     		ldr	r2, .L71+4
 493 0234 92F8D520 		ldrb	r2, [r2, #213]	@ zero_extendqisi2
 494 0238 9A42     		cmp	r2, r3
 495 023a EED2     		bcs	.L36
 496 023c 25E0     		b	.L37
 497              	.L72:
 498 023e 00BF     		.align	2
 499              	.L71:
 500 0240 00000000 		.word	countTX
 501 0244 00000000 		.word	side
 502 0248 00000000 		.word	buffer_A
 503 024c 00000000 		.word	IDCast
 504 0250 00000000 		.word	bufferDisplay1
 505 0254 00000000 		.word	tempPreset
 506 0258 00000000 		.word	bufferAready
 507 025c 00000000 		.word	tempPPU
ARM GAS  C:\Users\RECEPC~1\AppData\Local\Temp\cc4fvgjK.s 			page 18


 508 0260 00000000 		.word	digits
 509 0264 07000000 		.word	side+7
 510 0268 09000000 		.word	side+9
 511              	.L38:
 439:.\RFPoll.c    ****         	} 
 440:.\RFPoll.c    ****         }else{
 441:.\RFPoll.c    ****             for(x=1;x <= side.a.moneySale[0];x++){						   							
 442:.\RFPoll.c    ****         		buffer_A[x+22]=side.a.moneySale[9-x];                
 512              		.loc 1 442 0 is_stmt 1 discriminator 3
 513 026c 03F11601 		add	r1, r3, #22
 514 0270 A84A     		ldr	r2, .L73
 515 0272 D21A     		subs	r2, r2, r3
 516 0274 92F8D500 		ldrb	r0, [r2, #213]	@ zero_extendqisi2
 517 0278 A74A     		ldr	r2, .L73+4
 518 027a 5054     		strb	r0, [r2, r1]
 441:.\RFPoll.c    ****         		buffer_A[x+22]=side.a.moneySale[9-x];                
 519              		.loc 1 441 0 discriminator 3
 520 027c 0133     		adds	r3, r3, #1
 521              	.LVL47:
 522 027e 9BB2     		uxth	r3, r3
 523              	.LVL48:
 524              	.L35:
 441:.\RFPoll.c    ****         		buffer_A[x+22]=side.a.moneySale[9-x];                
 525              		.loc 1 441 0 is_stmt 0 discriminator 1
 526 0280 A64A     		ldr	r2, .L73+8
 527 0282 92F8D520 		ldrb	r2, [r2, #213]	@ zero_extendqisi2
 528 0286 9A42     		cmp	r2, r3
 529 0288 F0D2     		bcs	.L38
 530              	.L37:
 443:.\RFPoll.c    ****         	}            
 444:.\RFPoll.c    ****         }
 445:.\RFPoll.c    ****         if(buffer_A[29]==0x00){
 531              		.loc 1 445 0 is_stmt 1
 532 028a A34B     		ldr	r3, .L73+4
 533              	.LVL49:
 534 028c 5B7F     		ldrb	r3, [r3, #29]	@ zero_extendqisi2
 535 028e 1BB9     		cbnz	r3, .L39
 446:.\RFPoll.c    ****             buffer_A[29] = 0x30;
 536              		.loc 1 446 0
 537 0290 A14B     		ldr	r3, .L73+4
 538 0292 3022     		movs	r2, #48
 539 0294 5A77     		strb	r2, [r3, #29]
 447:.\RFPoll.c    ****             buffer_A[30] = 0x30;
 540              		.loc 1 447 0
 541 0296 9A77     		strb	r2, [r3, #30]
 542              	.L39:
 448:.\RFPoll.c    ****         }
 449:.\RFPoll.c    ****         buffer_A[31] = verificar_check(buffer_A,32);                          
 543              		.loc 1 449 0
 544 0298 9F4C     		ldr	r4, .L73+4
 545 029a 2046     		mov	r0, r4
 546 029c 2021     		movs	r1, #32
 547 029e FFF7FEFF 		bl	verificar_check
 548              	.LVL50:
 549 02a2 E077     		strb	r0, [r4, #31]
 450:.\RFPoll.c    ****         side.a.pumpState = PUMP_IDLE;
 550              		.loc 1 450 0
ARM GAS  C:\Users\RECEPC~1\AppData\Local\Temp\cc4fvgjK.s 			page 19


 551 02a4 9D4B     		ldr	r3, .L73+8
 552 02a6 0622     		movs	r2, #6
 553 02a8 83F80421 		strb	r2, [r3, #260]
 451:.\RFPoll.c    ****         side.a.rfState = RF_IDLE;
 554              		.loc 1 451 0
 555 02ac 0822     		movs	r2, #8
 556 02ae 83F80321 		strb	r2, [r3, #259]
 452:.\RFPoll.c    ****         bufferDisplay1.flagActiveSale = false;
 557              		.loc 1 452 0
 558 02b2 0022     		movs	r2, #0
 559 02b4 9A49     		ldr	r1, .L73+12
 560 02b6 81F83521 		strb	r2, [r1, #309]
 453:.\RFPoll.c    ****         side.a.RFstateReport = 0;
 561              		.loc 1 453 0
 562 02ba 83F80721 		strb	r2, [r3, #263]
 454:.\RFPoll.c    ****         pollTotals = 1;
 563              		.loc 1 454 0
 564 02be 0123     		movs	r3, #1
 565 02c0 984A     		ldr	r2, .L73+16
 566 02c2 1370     		strb	r3, [r2]
 455:.\RFPoll.c    ****         bufferAready = 1;        
 567              		.loc 1 455 0
 568 02c4 984A     		ldr	r2, .L73+20
 569 02c6 1370     		strb	r3, [r2]
 570              	.L22:
 456:.\RFPoll.c    ****     }                                               
 457:.\RFPoll.c    ****     ////////////// TURNOS ////////////////////////////////////
 458:.\RFPoll.c    ****     if(ShiftState ==1  && side.a.RFstateReport == 1){   
 571              		.loc 1 458 0
 572 02c8 984B     		ldr	r3, .L73+24
 573 02ca 1B78     		ldrb	r3, [r3]	@ zero_extendqisi2
 574 02cc DBB2     		uxtb	r3, r3
 575 02ce 012B     		cmp	r3, #1
 576 02d0 51D1     		bne	.L40
 577              		.loc 1 458 0 is_stmt 0 discriminator 1
 578 02d2 924B     		ldr	r3, .L73+8
 579 02d4 93F80731 		ldrb	r3, [r3, #263]	@ zero_extendqisi2
 580 02d8 012B     		cmp	r3, #1
 581 02da 4CD1     		bne	.L40
 459:.\RFPoll.c    ****         buffer_txDisplay[0] = 0xBC;
 582              		.loc 1 459 0 is_stmt 1
 583 02dc 944B     		ldr	r3, .L73+28
 584 02de BC22     		movs	r2, #188
 585 02e0 1A70     		strb	r2, [r3]
 460:.\RFPoll.c    ****         buffer_txDisplay[1] = 0xCB;
 586              		.loc 1 460 0
 587 02e2 CB22     		movs	r2, #203
 588 02e4 5A70     		strb	r2, [r3, #1]
 461:.\RFPoll.c    ****         buffer_txDisplay[2] = 0xC8;
 589              		.loc 1 461 0
 590 02e6 C822     		movs	r2, #200
 591 02e8 9A70     		strb	r2, [r3, #2]
 462:.\RFPoll.c    ****         buffer_txDisplay[3] = IDCast[0];
 592              		.loc 1 462 0
 593 02ea 924A     		ldr	r2, .L73+32
 594 02ec 1178     		ldrb	r1, [r2]	@ zero_extendqisi2
 595 02ee D970     		strb	r1, [r3, #3]
ARM GAS  C:\Users\RECEPC~1\AppData\Local\Temp\cc4fvgjK.s 			page 20


 463:.\RFPoll.c    ****         buffer_txDisplay[4] = IDCast[1];
 596              		.loc 1 463 0
 597 02f0 5278     		ldrb	r2, [r2, #1]	@ zero_extendqisi2
 598 02f2 1A71     		strb	r2, [r3, #4]
 464:.\RFPoll.c    ****         buffer_txDisplay[5]  = side.a.dir;
 599              		.loc 1 464 0
 600 02f4 894A     		ldr	r2, .L73+8
 601 02f6 1278     		ldrb	r2, [r2]	@ zero_extendqisi2
 602 02f8 5A71     		strb	r2, [r3, #5]
 465:.\RFPoll.c    ****         buffer_txDisplay[6]  = 0xE3;
 603              		.loc 1 465 0
 604 02fa E322     		movs	r2, #227
 605 02fc 9A71     		strb	r2, [r3, #6]
 466:.\RFPoll.c    ****         buffer_txDisplay[7]  = RF_WORKSHIFTREQ;
 606              		.loc 1 466 0
 607 02fe 0522     		movs	r2, #5
 608 0300 DA71     		strb	r2, [r3, #7]
 467:.\RFPoll.c    ****         for(x=bufferDisplay1.shiftId[0];x >=1  ;x--){						   							
 609              		.loc 1 467 0
 610 0302 874B     		ldr	r3, .L73+12
 611 0304 93F83641 		ldrb	r4, [r3, #310]	@ zero_extendqisi2
 612              	.LVL51:
 613 0308 08E0     		b	.L41
 614              	.L42:
 468:.\RFPoll.c    ****     		buffer_txDisplay[x+7]= bufferDisplay1.shiftId[x];            
 615              		.loc 1 468 0 discriminator 3
 616 030a E21D     		adds	r2, r4, #7
 617 030c 844B     		ldr	r3, .L73+12
 618 030e 2344     		add	r3, r3, r4
 619 0310 93F83611 		ldrb	r1, [r3, #310]	@ zero_extendqisi2
 620 0314 864B     		ldr	r3, .L73+28
 621 0316 9954     		strb	r1, [r3, r2]
 467:.\RFPoll.c    ****         for(x=bufferDisplay1.shiftId[0];x >=1  ;x--){						   							
 622              		.loc 1 467 0 discriminator 3
 623 0318 013C     		subs	r4, r4, #1
 624              	.LVL52:
 625 031a A4B2     		uxth	r4, r4
 626              	.LVL53:
 627              	.L41:
 467:.\RFPoll.c    ****         for(x=bufferDisplay1.shiftId[0];x >=1  ;x--){						   							
 628              		.loc 1 467 0 is_stmt 0 discriminator 1
 629 031c 002C     		cmp	r4, #0
 630 031e F4D1     		bne	.L42
 631 0320 0122     		movs	r2, #1
 632 0322 0BE0     		b	.L43
 633              	.LVL54:
 634              	.L44:
 469:.\RFPoll.c    ****     	}
 470:.\RFPoll.c    **** //        for(x=8; x<19; x++){
 471:.\RFPoll.c    **** //            if(buffer_txDisplay[x] ==0x00)
 472:.\RFPoll.c    **** //                buffer_txDisplay[x]=0x30;
 473:.\RFPoll.c    **** //        }
 474:.\RFPoll.c    ****         for(x=1;x <= bufferDisplay1.shiftPassword[0] ;x++){						   							
 475:.\RFPoll.c    ****     		buffer_txDisplay[x+18]= bufferDisplay1.shiftPassword[(bufferDisplay1.shiftPassword[0]+1)-x]; 
 635              		.loc 1 475 0 is_stmt 1 discriminator 3
 636 0324 02F11201 		add	r1, r2, #18
 637 0328 0133     		adds	r3, r3, #1
ARM GAS  C:\Users\RECEPC~1\AppData\Local\Temp\cc4fvgjK.s 			page 21


 638 032a 9B1A     		subs	r3, r3, r2
 639 032c 7C48     		ldr	r0, .L73+12
 640 032e 0344     		add	r3, r3, r0
 641 0330 93F84101 		ldrb	r0, [r3, #321]	@ zero_extendqisi2
 642 0334 7E4B     		ldr	r3, .L73+28
 643 0336 5854     		strb	r0, [r3, r1]
 474:.\RFPoll.c    ****     		buffer_txDisplay[x+18]= bufferDisplay1.shiftPassword[(bufferDisplay1.shiftPassword[0]+1)-x]; 
 644              		.loc 1 474 0 discriminator 3
 645 0338 0132     		adds	r2, r2, #1
 646              	.LVL55:
 647 033a 92B2     		uxth	r2, r2
 648              	.LVL56:
 649              	.L43:
 474:.\RFPoll.c    ****     		buffer_txDisplay[x+18]= bufferDisplay1.shiftPassword[(bufferDisplay1.shiftPassword[0]+1)-x]; 
 650              		.loc 1 474 0 is_stmt 0 discriminator 1
 651 033c 784B     		ldr	r3, .L73+12
 652 033e 93F84131 		ldrb	r3, [r3, #321]	@ zero_extendqisi2
 653 0342 99B2     		uxth	r1, r3
 654 0344 9142     		cmp	r1, r2
 655 0346 EDD2     		bcs	.L44
 476:.\RFPoll.c    ****     	}
 477:.\RFPoll.c    **** //        for(x=19; x<31; x++){
 478:.\RFPoll.c    **** //            if(buffer_txDisplay[x] ==0x00)
 479:.\RFPoll.c    **** //                buffer_txDisplay[x]=0x30;
 480:.\RFPoll.c    **** //        }
 481:.\RFPoll.c    ****         buffer_txDisplay[32] = verificar_check(buffer_txDisplay,33);
 656              		.loc 1 481 0 is_stmt 1
 657 0348 794D     		ldr	r5, .L73+28
 658 034a 2846     		mov	r0, r5
 659 034c 2121     		movs	r1, #33
 660 034e FFF7FEFF 		bl	verificar_check
 661              	.LVL57:
 662 0352 85F82000 		strb	r0, [r5, #32]
 663              	.LVL58:
 482:.\RFPoll.c    ****         for (x = 0; x < 33; x++){
 664              		.loc 1 482 0
 665 0356 05E0     		b	.L45
 666              	.LVL59:
 667              	.L46:
 483:.\RFPoll.c    ****             RF_Connection_PutChar(buffer_txDisplay[x]);
 668              		.loc 1 483 0 discriminator 3
 669 0358 754B     		ldr	r3, .L73+28
 670 035a 185D     		ldrb	r0, [r3, r4]	@ zero_extendqisi2
 671 035c FFF7FEFF 		bl	RF_Connection_PutChar
 672              	.LVL60:
 482:.\RFPoll.c    ****         for (x = 0; x < 33; x++){
 673              		.loc 1 482 0 discriminator 3
 674 0360 0134     		adds	r4, r4, #1
 675              	.LVL61:
 676 0362 A4B2     		uxth	r4, r4
 677              	.LVL62:
 678              	.L45:
 482:.\RFPoll.c    ****         for (x = 0; x < 33; x++){
 679              		.loc 1 482 0 is_stmt 0 discriminator 1
 680 0364 202C     		cmp	r4, #32
 681 0366 F7D9     		bls	.L46
 484:.\RFPoll.c    ****         }
ARM GAS  C:\Users\RECEPC~1\AppData\Local\Temp\cc4fvgjK.s 			page 22


 485:.\RFPoll.c    ****         side.a.rfState = RF_IDLE;
 682              		.loc 1 485 0 is_stmt 1
 683 0368 6C4B     		ldr	r3, .L73+8
 684 036a 0822     		movs	r2, #8
 685 036c 83F80321 		strb	r2, [r3, #259]
 486:.\RFPoll.c    ****         side.a.RFstateReport = 0;
 686              		.loc 1 486 0
 687 0370 0022     		movs	r2, #0
 688 0372 83F80721 		strb	r2, [r3, #263]
 689              	.LVL63:
 690              	.L40:
 487:.\RFPoll.c    ****     }
 488:.\RFPoll.c    ****     ////////////// CAMBIO PPU ////////////////////////////////////
 489:.\RFPoll.c    ****     if(side.a.changePPU){
 691              		.loc 1 489 0
 692 0376 694B     		ldr	r3, .L73+8
 693 0378 93F80531 		ldrb	r3, [r3, #261]	@ zero_extendqisi2
 694 037c 6BB1     		cbz	r3, .L47
 490:.\RFPoll.c    ****         if(priceChange(side.a.dir,side.a.grade,side.a.ppuAuthorized[side.a.grade]))
 695              		.loc 1 490 0
 696 037e 674B     		ldr	r3, .L73+8
 697 0380 93F80611 		ldrb	r1, [r3, #262]	@ zero_extendqisi2
 698 0384 03EBC102 		add	r2, r3, r1, lsl #3
 699 0388 1878     		ldrb	r0, [r3]	@ zero_extendqisi2
 700 038a B532     		adds	r2, r2, #181
 701 038c FFF7FEFF 		bl	priceChange
 702              	.LVL64:
 703 0390 18B1     		cbz	r0, .L47
 491:.\RFPoll.c    ****             side.a.changePPU = false;          
 704              		.loc 1 491 0
 705 0392 0022     		movs	r2, #0
 706 0394 614B     		ldr	r3, .L73+8
 707 0396 83F80521 		strb	r2, [r3, #261]
 708              	.L47:
 492:.\RFPoll.c    ****     }    
 493:.\RFPoll.c    ****     ////////////// TOTALES ////////////////////////////////////
 494:.\RFPoll.c    ****     
 495:.\RFPoll.c    ****     if(side.a.RFstateReport == 1 && pollTotals ==1){
 709              		.loc 1 495 0
 710 039a 604B     		ldr	r3, .L73+8
 711 039c 93F80731 		ldrb	r3, [r3, #263]	@ zero_extendqisi2
 712 03a0 012B     		cmp	r3, #1
 713 03a2 40F0AF80 		bne	.L48
 714              		.loc 1 495 0 is_stmt 0 discriminator 1
 715 03a6 5F4B     		ldr	r3, .L73+16
 716 03a8 1B78     		ldrb	r3, [r3]	@ zero_extendqisi2
 717 03aa DBB2     		uxtb	r3, r3
 718 03ac 012B     		cmp	r3, #1
 719 03ae 40F0A980 		bne	.L48
 496:.\RFPoll.c    ****         pollTotals = 0;
 720              		.loc 1 496 0 is_stmt 1
 721 03b2 0022     		movs	r2, #0
 722 03b4 5B4B     		ldr	r3, .L73+16
 723 03b6 1A70     		strb	r2, [r3]
 724              	.LVL65:
 497:.\RFPoll.c    ****         y=0;
 498:.\RFPoll.c    ****         buffer_txTotals[y] = 0xBC; y++;
ARM GAS  C:\Users\RECEPC~1\AppData\Local\Temp\cc4fvgjK.s 			page 23


 725              		.loc 1 498 0
 726 03b8 5F4B     		ldr	r3, .L73+36
 727 03ba BC22     		movs	r2, #188
 728 03bc 1A70     		strb	r2, [r3]
 729              	.LVL66:
 499:.\RFPoll.c    ****         buffer_txTotals[y] = 0xCB; y++;
 730              		.loc 1 499 0
 731 03be CB22     		movs	r2, #203
 732 03c0 5A70     		strb	r2, [r3, #1]
 733              	.LVL67:
 500:.\RFPoll.c    ****         buffer_txTotals[y] = 0xC8; y++;
 734              		.loc 1 500 0
 735 03c2 C822     		movs	r2, #200
 736 03c4 9A70     		strb	r2, [r3, #2]
 737              	.LVL68:
 501:.\RFPoll.c    ****         buffer_txTotals[y] = IDCast[0]; y++;
 738              		.loc 1 501 0
 739 03c6 5B4A     		ldr	r2, .L73+32
 740 03c8 1178     		ldrb	r1, [r2]	@ zero_extendqisi2
 741 03ca D970     		strb	r1, [r3, #3]
 742              	.LVL69:
 502:.\RFPoll.c    ****         buffer_txTotals[y] = IDCast[1]; y++;
 743              		.loc 1 502 0
 744 03cc 5278     		ldrb	r2, [r2, #1]	@ zero_extendqisi2
 745 03ce 1A71     		strb	r2, [r3, #4]
 746              	.LVL70:
 503:.\RFPoll.c    ****         buffer_txTotals[5] = side.a.dir; y++;
 747              		.loc 1 503 0
 748 03d0 524A     		ldr	r2, .L73+8
 749 03d2 1178     		ldrb	r1, [r2]	@ zero_extendqisi2
 750 03d4 5971     		strb	r1, [r3, #5]
 751              	.LVL71:
 504:.\RFPoll.c    ****         buffer_txTotals[y] = 0xE8; y++;
 752              		.loc 1 504 0
 753 03d6 E821     		movs	r1, #232
 754 03d8 9971     		strb	r1, [r3, #6]
 755              	.LVL72:
 505:.\RFPoll.c    ****         buffer_txTotals[y] = side.a.rfState; y++;
 756              		.loc 1 505 0
 757 03da 92F80321 		ldrb	r2, [r2, #259]	@ zero_extendqisi2
 758 03de DA71     		strb	r2, [r3, #7]
 759              	.LVL73:
 506:.\RFPoll.c    ****         buffer_txTotals[y] = 0x00; y++;
 507:.\RFPoll.c    ****         for(z=1;z <= side.a.hoseNumber; z++){
 760              		.loc 1 507 0
 761 03e0 0121     		movs	r1, #1
 506:.\RFPoll.c    ****         buffer_txTotals[y] = 0x00; y++;
 762              		.loc 1 506 0
 763 03e2 0924     		movs	r4, #9
 764              		.loc 1 507 0
 765 03e4 70E0     		b	.L49
 766              	.LVL74:
 767              	.L63:
 508:.\RFPoll.c    ****             buffer_txTotals[y] = z; y++;                    
 768              		.loc 1 508 0
 769 03e6 544B     		ldr	r3, .L73+36
 770 03e8 1955     		strb	r1, [r3, r4]
ARM GAS  C:\Users\RECEPC~1\AppData\Local\Temp\cc4fvgjK.s 			page 24


 771 03ea 0134     		adds	r4, r4, #1
 772              	.LVL75:
 773 03ec A4B2     		uxth	r4, r4
 774              	.LVL76:
 509:.\RFPoll.c    ****             if (digits == 6 || digits == 5){                            
 775              		.loc 1 509 0
 776 03ee 534B     		ldr	r3, .L73+40
 777 03f0 1B78     		ldrb	r3, [r3]	@ zero_extendqisi2
 778 03f2 053B     		subs	r3, r3, #5
 779 03f4 DBB2     		uxtb	r3, r3
 780 03f6 012B     		cmp	r3, #1
 781 03f8 12D9     		bls	.L68
 782 03fa 0C22     		movs	r2, #12
 783 03fc 4CE0     		b	.L51
 784              	.LVL77:
 785              	.L52:
 510:.\RFPoll.c    ****                 for(x = 8; x > 0; x--){ //Volumen
 511:.\RFPoll.c    ****                     buffer_txTotals[y] = (side.a.totalsHandle[z-1][0][x])-48;y++;
 786              		.loc 1 511 0 discriminator 3
 787 03fe 4B1E     		subs	r3, r1, #1
 788 0400 03EB4303 		add	r3, r3, r3, lsl #1
 789 0404 C3EB0313 		rsb	r3, r3, r3, lsl #4
 790 0408 1344     		add	r3, r3, r2
 791 040a 4448     		ldr	r0, .L73+8
 792 040c 0344     		add	r3, r3, r0
 793 040e 5B78     		ldrb	r3, [r3, #1]	@ zero_extendqisi2
 794 0410 303B     		subs	r3, r3, #48
 795 0412 4948     		ldr	r0, .L73+36
 796 0414 0355     		strb	r3, [r0, r4]
 797 0416 0134     		adds	r4, r4, #1
 798              	.LVL78:
 799 0418 A4B2     		uxth	r4, r4
 800              	.LVL79:
 510:.\RFPoll.c    ****                 for(x = 8; x > 0; x--){ //Volumen
 801              		.loc 1 510 0 discriminator 3
 802 041a 013A     		subs	r2, r2, #1
 803              	.LVL80:
 804 041c 92B2     		uxth	r2, r2
 805              	.LVL81:
 806 041e 00E0     		b	.L50
 807              	.LVL82:
 808              	.L68:
 809 0420 0822     		movs	r2, #8
 810              	.L50:
 811              	.LVL83:
 510:.\RFPoll.c    ****                 for(x = 8; x > 0; x--){ //Volumen
 812              		.loc 1 510 0 is_stmt 0 discriminator 1
 813 0422 002A     		cmp	r2, #0
 814 0424 EBD1     		bne	.L52
 815 0426 06E0     		b	.L53
 816              	.L54:
 512:.\RFPoll.c    ****                 }
 513:.\RFPoll.c    ****                 for(x =0; x < 4; x++){
 514:.\RFPoll.c    ****                     buffer_txTotals[y] = 0x30;y++;
 817              		.loc 1 514 0 is_stmt 1 discriminator 3
 818 0428 3020     		movs	r0, #48
 819 042a 434B     		ldr	r3, .L73+36
ARM GAS  C:\Users\RECEPC~1\AppData\Local\Temp\cc4fvgjK.s 			page 25


 820 042c 1855     		strb	r0, [r3, r4]
 821 042e 0134     		adds	r4, r4, #1
 822              	.LVL84:
 823 0430 A4B2     		uxth	r4, r4
 824              	.LVL85:
 513:.\RFPoll.c    ****                     buffer_txTotals[y] = 0x30;y++;
 825              		.loc 1 513 0 discriminator 3
 826 0432 0132     		adds	r2, r2, #1
 827              	.LVL86:
 828 0434 92B2     		uxth	r2, r2
 829              	.LVL87:
 830              	.L53:
 513:.\RFPoll.c    ****                     buffer_txTotals[y] = 0x30;y++;
 831              		.loc 1 513 0 is_stmt 0 discriminator 1
 832 0436 032A     		cmp	r2, #3
 833 0438 F6D9     		bls	.L54
 834 043a 0822     		movs	r2, #8
 835              	.LVL88:
 836 043c 0FE0     		b	.L55
 837              	.LVL89:
 838              	.L56:
 515:.\RFPoll.c    ****                 }
 516:.\RFPoll.c    ****                 for(x = 8; x > 0; x--){//Dinero
 517:.\RFPoll.c    ****                     buffer_txTotals[y] = (side.a.totalsHandle[z-1][1][x])-48;y++;
 839              		.loc 1 517 0 is_stmt 1 discriminator 3
 840 043e 4B1E     		subs	r3, r1, #1
 841 0440 03EB4303 		add	r3, r3, r3, lsl #1
 842 0444 C3EB0313 		rsb	r3, r3, r3, lsl #4
 843 0448 3448     		ldr	r0, .L73+8
 844 044a 0344     		add	r3, r3, r0
 845 044c 1344     		add	r3, r3, r2
 846 044e 1B7C     		ldrb	r3, [r3, #16]	@ zero_extendqisi2
 847 0450 303B     		subs	r3, r3, #48
 848 0452 3948     		ldr	r0, .L73+36
 849 0454 0355     		strb	r3, [r0, r4]
 850 0456 0134     		adds	r4, r4, #1
 851              	.LVL90:
 852 0458 A4B2     		uxth	r4, r4
 853              	.LVL91:
 516:.\RFPoll.c    ****                     buffer_txTotals[y] = (side.a.totalsHandle[z-1][1][x])-48;y++;
 854              		.loc 1 516 0 discriminator 3
 855 045a 013A     		subs	r2, r2, #1
 856              	.LVL92:
 857 045c 92B2     		uxth	r2, r2
 858              	.LVL93:
 859              	.L55:
 516:.\RFPoll.c    ****                     buffer_txTotals[y] = (side.a.totalsHandle[z-1][1][x])-48;y++;
 860              		.loc 1 516 0 is_stmt 0 discriminator 1
 861 045e 002A     		cmp	r2, #0
 862 0460 EDD1     		bne	.L56
 863 0462 06E0     		b	.L57
 864              	.L58:
 518:.\RFPoll.c    ****                 }
 519:.\RFPoll.c    ****                 for(x =0; x < 4; x++){
 520:.\RFPoll.c    ****                     buffer_txTotals[y] = 0x30;y++;
 865              		.loc 1 520 0 is_stmt 1 discriminator 3
 866 0464 3020     		movs	r0, #48
ARM GAS  C:\Users\RECEPC~1\AppData\Local\Temp\cc4fvgjK.s 			page 26


 867 0466 344B     		ldr	r3, .L73+36
 868 0468 1855     		strb	r0, [r3, r4]
 869 046a 0134     		adds	r4, r4, #1
 870              	.LVL94:
 871 046c A4B2     		uxth	r4, r4
 872              	.LVL95:
 519:.\RFPoll.c    ****                     buffer_txTotals[y] = 0x30;y++;
 873              		.loc 1 519 0 discriminator 3
 874 046e 0132     		adds	r2, r2, #1
 875              	.LVL96:
 876 0470 92B2     		uxth	r2, r2
 877              	.LVL97:
 878              	.L57:
 519:.\RFPoll.c    ****                     buffer_txTotals[y] = 0x30;y++;
 879              		.loc 1 519 0 is_stmt 0 discriminator 1
 880 0472 032A     		cmp	r2, #3
 881 0474 F6D9     		bls	.L58
 882 0476 25E0     		b	.L59
 883              	.L60:
 521:.\RFPoll.c    ****                 }
 522:.\RFPoll.c    ****             }else{
 523:.\RFPoll.c    ****                 for(x = 12; x > 0; x--){ //Volumen
 524:.\RFPoll.c    ****                     buffer_txTotals[y] = (side.a.totalsHandle[z-1][0][x])-48;y++;
 884              		.loc 1 524 0 is_stmt 1 discriminator 3
 885 0478 4B1E     		subs	r3, r1, #1
 886 047a 03EB4303 		add	r3, r3, r3, lsl #1
 887 047e C3EB0313 		rsb	r3, r3, r3, lsl #4
 888 0482 1344     		add	r3, r3, r2
 889 0484 2548     		ldr	r0, .L73+8
 890 0486 0344     		add	r3, r3, r0
 891 0488 5B78     		ldrb	r3, [r3, #1]	@ zero_extendqisi2
 892 048a 303B     		subs	r3, r3, #48
 893 048c 2A48     		ldr	r0, .L73+36
 894 048e 0355     		strb	r3, [r0, r4]
 895 0490 0134     		adds	r4, r4, #1
 896              	.LVL98:
 897 0492 A4B2     		uxth	r4, r4
 898              	.LVL99:
 523:.\RFPoll.c    ****                     buffer_txTotals[y] = (side.a.totalsHandle[z-1][0][x])-48;y++;
 899              		.loc 1 523 0 discriminator 3
 900 0494 013A     		subs	r2, r2, #1
 901              	.LVL100:
 902 0496 92B2     		uxth	r2, r2
 903              	.LVL101:
 904              	.L51:
 523:.\RFPoll.c    ****                     buffer_txTotals[y] = (side.a.totalsHandle[z-1][0][x])-48;y++;
 905              		.loc 1 523 0 is_stmt 0 discriminator 1
 906 0498 002A     		cmp	r2, #0
 907 049a EDD1     		bne	.L60
 908 049c 0C22     		movs	r2, #12
 909              	.LVL102:
 910 049e 0FE0     		b	.L61
 911              	.LVL103:
 912              	.L62:
 525:.\RFPoll.c    ****                 }                        
 526:.\RFPoll.c    ****                 for(x = 12; x > 0; x--){//Dinero
 527:.\RFPoll.c    ****                     buffer_txTotals[y] = (side.a.totalsHandle[z-1][1][x])-48;y++;
ARM GAS  C:\Users\RECEPC~1\AppData\Local\Temp\cc4fvgjK.s 			page 27


 913              		.loc 1 527 0 is_stmt 1 discriminator 3
 914 04a0 4B1E     		subs	r3, r1, #1
 915 04a2 03EB4303 		add	r3, r3, r3, lsl #1
 916 04a6 C3EB0313 		rsb	r3, r3, r3, lsl #4
 917 04aa 1C48     		ldr	r0, .L73+8
 918 04ac 0344     		add	r3, r3, r0
 919 04ae 1344     		add	r3, r3, r2
 920 04b0 1B7C     		ldrb	r3, [r3, #16]	@ zero_extendqisi2
 921 04b2 303B     		subs	r3, r3, #48
 922 04b4 2048     		ldr	r0, .L73+36
 923 04b6 0355     		strb	r3, [r0, r4]
 924 04b8 0134     		adds	r4, r4, #1
 925              	.LVL104:
 926 04ba A4B2     		uxth	r4, r4
 927              	.LVL105:
 526:.\RFPoll.c    ****                     buffer_txTotals[y] = (side.a.totalsHandle[z-1][1][x])-48;y++;
 928              		.loc 1 526 0 discriminator 3
 929 04bc 013A     		subs	r2, r2, #1
 930              	.LVL106:
 931 04be 92B2     		uxth	r2, r2
 932              	.LVL107:
 933              	.L61:
 526:.\RFPoll.c    ****                     buffer_txTotals[y] = (side.a.totalsHandle[z-1][1][x])-48;y++;
 934              		.loc 1 526 0 is_stmt 0 discriminator 1
 935 04c0 002A     		cmp	r2, #0
 936 04c2 EDD1     		bne	.L62
 937              	.L59:
 507:.\RFPoll.c    ****             buffer_txTotals[y] = z; y++;                    
 938              		.loc 1 507 0 is_stmt 1 discriminator 2
 939 04c4 0131     		adds	r1, r1, #1
 940              	.LVL108:
 941 04c6 89B2     		uxth	r1, r1
 942              	.LVL109:
 943              	.L49:
 507:.\RFPoll.c    ****             buffer_txTotals[y] = z; y++;                    
 944              		.loc 1 507 0 is_stmt 0 discriminator 1
 945 04c8 144B     		ldr	r3, .L73+8
 946 04ca 93F80231 		ldrb	r3, [r3, #258]	@ zero_extendqisi2
 947 04ce 8B42     		cmp	r3, r1
 948 04d0 89D2     		bcs	.L63
 528:.\RFPoll.c    ****                 }                        
 529:.\RFPoll.c    ****             } 
 530:.\RFPoll.c    ****         }
 531:.\RFPoll.c    ****         buffer_txTotals[8] = y-9;
 949              		.loc 1 531 0 is_stmt 1
 950 04d2 194E     		ldr	r6, .L73+36
 951 04d4 A4F10903 		sub	r3, r4, #9
 952 04d8 3372     		strb	r3, [r6, #8]
 532:.\RFPoll.c    ****         buffer_txTotals[y] = verificar_check(buffer_txTotals,y+1);y++;                 
 953              		.loc 1 532 0
 954 04da 651C     		adds	r5, r4, #1
 955 04dc ADB2     		uxth	r5, r5
 956 04de 3046     		mov	r0, r6
 957 04e0 2946     		mov	r1, r5
 958              	.LVL110:
 959 04e2 FFF7FEFF 		bl	verificar_check
 960              	.LVL111:
ARM GAS  C:\Users\RECEPC~1\AppData\Local\Temp\cc4fvgjK.s 			page 28


 961 04e6 3055     		strb	r0, [r6, r4]
 962              	.LVL112:
 533:.\RFPoll.c    ****         for (x = 0; x < y; x++){
 963              		.loc 1 533 0
 964 04e8 0024     		movs	r4, #0
 965 04ea 05E0     		b	.L64
 966              	.LVL113:
 967              	.L65:
 534:.\RFPoll.c    ****             RF_Connection_PutChar(buffer_txTotals[x]);
 968              		.loc 1 534 0 discriminator 3
 969 04ec 124B     		ldr	r3, .L73+36
 970 04ee 185D     		ldrb	r0, [r3, r4]	@ zero_extendqisi2
 971 04f0 FFF7FEFF 		bl	RF_Connection_PutChar
 972              	.LVL114:
 533:.\RFPoll.c    ****         for (x = 0; x < y; x++){
 973              		.loc 1 533 0 discriminator 3
 974 04f4 0134     		adds	r4, r4, #1
 975              	.LVL115:
 976 04f6 A4B2     		uxth	r4, r4
 977              	.LVL116:
 978              	.L64:
 533:.\RFPoll.c    ****         for (x = 0; x < y; x++){
 979              		.loc 1 533 0 is_stmt 0 discriminator 1
 980 04f8 AC42     		cmp	r4, r5
 981 04fa F7D3     		bcc	.L65
 535:.\RFPoll.c    ****         }        
 536:.\RFPoll.c    ****         side.a.RFstateReport = 0;        
 982              		.loc 1 536 0 is_stmt 1
 983 04fc 0022     		movs	r2, #0
 984 04fe 074B     		ldr	r3, .L73+8
 985 0500 83F80721 		strb	r2, [r3, #263]
 986              	.LVL117:
 987              	.L48:
 537:.\RFPoll.c    ****     }    
 538:.\RFPoll.c    ****     countTX = 0; 
 988              		.loc 1 538 0
 989 0504 0020     		movs	r0, #0
 990 0506 0021     		movs	r1, #0
 991 0508 0D4B     		ldr	r3, .L73+44
 992 050a C3E90001 		strd	r0, [r3]
 993 050e 70BD     		pop	{r4, r5, r6, pc}
 994              	.L70:
 995              		.cfi_def_cfa_offset 0
 996              		.cfi_restore 4
 997              		.cfi_restore 5
 998              		.cfi_restore 6
 999              		.cfi_restore 14
 1000 0510 7047     		bx	lr
 1001              	.L74:
 1002 0512 00BF     		.align	2
 1003              	.L73:
 1004 0514 09000000 		.word	side+9
 1005 0518 00000000 		.word	buffer_A
 1006 051c 00000000 		.word	side
 1007 0520 00000000 		.word	bufferDisplay1
 1008 0524 00000000 		.word	pollTotals
 1009 0528 00000000 		.word	bufferAready
ARM GAS  C:\Users\RECEPC~1\AppData\Local\Temp\cc4fvgjK.s 			page 29


 1010 052c 00000000 		.word	ShiftState
 1011 0530 00000000 		.word	buffer_txDisplay
 1012 0534 00000000 		.word	IDCast
 1013 0538 00000000 		.word	buffer_txTotals
 1014 053c 00000000 		.word	digits
 1015 0540 00000000 		.word	countTX
 1016              		.cfi_endproc
 1017              	.LFE65:
 1018              		.size	pollingRFA_Tx, .-pollingRFA_Tx
 1019              		.section	.text.pollingRFB_Tx,"ax",%progbits
 1020              		.align	2
 1021              		.global	pollingRFB_Tx
 1022              		.thumb
 1023              		.thumb_func
 1024              		.type	pollingRFB_Tx, %function
 1025              	pollingRFB_Tx:
 1026              	.LFB66:
 539:.\RFPoll.c    ****     }
 540:.\RFPoll.c    ****     
 541:.\RFPoll.c    **** }
 542:.\RFPoll.c    **** 
 543:.\RFPoll.c    **** void pollingRFB_Tx(){   
 1027              		.loc 1 543 0
 1028              		.cfi_startproc
 1029              		@ args = 0, pretend = 0, frame = 0
 1030              		@ frame_needed = 0, uses_anonymous_args = 0
 1031 0000 70B5     		push	{r4, r5, r6, lr}
 1032              		.cfi_def_cfa_offset 16
 1033              		.cfi_offset 4, -16
 1034              		.cfi_offset 5, -12
 1035              		.cfi_offset 6, -8
 1036              		.cfi_offset 14, -4
 544:.\RFPoll.c    ****     uint16 x,y,z;      
 545:.\RFPoll.c    ****     /////////////// COPIA DE RECIBO //////////////////
 546:.\RFPoll.c    **** //    if(side.b.rfState == RF_COPY_RECEIPT && side.b.RFstateReport == 1){        
 547:.\RFPoll.c    **** //        buffer_txDisplay[5] = side.b.dir;
 548:.\RFPoll.c    **** //        buffer_txDisplay[6] = 0xE6;
 549:.\RFPoll.c    **** //        buffer_txDisplay[7] = RF_COPY_RECEIPT;
 550:.\RFPoll.c    **** //        buffer_txDisplay[8] = verificar_check(buffer_txDisplay,9);
 551:.\RFPoll.c    **** //        for (x = 0; x < 9; x++){
 552:.\RFPoll.c    **** //            RF_Connection_PutChar(buffer_txDisplay[x]);
 553:.\RFPoll.c    **** //        }
 554:.\RFPoll.c    **** //		side.b.RFstateReport = 0;
 555:.\RFPoll.c    **** //    }    
 556:.\RFPoll.c    ****     ////////////// PRESET - DISPENSANDO ////////////////////////////////////
 557:.\RFPoll.c    ****     if(side.b.pumpState == PUMP_BUSY && side.b.RFstateReport == 1){
 1037              		.loc 1 557 0
 1038 0002 9D4B     		ldr	r3, .L135
 1039 0004 93F81632 		ldrb	r3, [r3, #534]	@ zero_extendqisi2
 1040 0008 092B     		cmp	r3, #9
 1041 000a 40F08A80 		bne	.L76
 1042              		.loc 1 557 0 is_stmt 0 discriminator 1
 1043 000e 9A4B     		ldr	r3, .L135
 1044 0010 93F81932 		ldrb	r3, [r3, #537]	@ zero_extendqisi2
 1045 0014 012B     		cmp	r3, #1
 1046 0016 40F08480 		bne	.L76
 558:.\RFPoll.c    ****             buffer_txPreset[0] = 0xBC;
ARM GAS  C:\Users\RECEPC~1\AppData\Local\Temp\cc4fvgjK.s 			page 30


 1047              		.loc 1 558 0 is_stmt 1
 1048 001a 984B     		ldr	r3, .L135+4
 1049 001c BC22     		movs	r2, #188
 1050 001e 1A70     		strb	r2, [r3]
 559:.\RFPoll.c    ****             buffer_txPreset[1] = 0xCB;
 1051              		.loc 1 559 0
 1052 0020 CB22     		movs	r2, #203
 1053 0022 5A70     		strb	r2, [r3, #1]
 560:.\RFPoll.c    ****             buffer_txPreset[2] = 0xC8;
 1054              		.loc 1 560 0
 1055 0024 C822     		movs	r2, #200
 1056 0026 9A70     		strb	r2, [r3, #2]
 561:.\RFPoll.c    ****             buffer_txPreset[3] = IDCast[0];
 1057              		.loc 1 561 0
 1058 0028 954A     		ldr	r2, .L135+8
 1059 002a 1178     		ldrb	r1, [r2]	@ zero_extendqisi2
 1060 002c D970     		strb	r1, [r3, #3]
 562:.\RFPoll.c    ****             buffer_txPreset[4] = IDCast[1];
 1061              		.loc 1 562 0
 1062 002e 5278     		ldrb	r2, [r2, #1]	@ zero_extendqisi2
 1063 0030 1A71     		strb	r2, [r3, #4]
 563:.\RFPoll.c    ****             buffer_txPreset[5]  = side.b.dir;
 1064              		.loc 1 563 0
 1065 0032 914A     		ldr	r2, .L135
 1066 0034 92F81211 		ldrb	r1, [r2, #274]	@ zero_extendqisi2
 1067 0038 5971     		strb	r1, [r3, #5]
 564:.\RFPoll.c    ****             buffer_txPreset[6]  = 0xAA;
 1068              		.loc 1 564 0
 1069 003a AA21     		movs	r1, #170
 1070 003c 9971     		strb	r1, [r3, #6]
 565:.\RFPoll.c    ****             buffer_txPreset[7]  = RF_DELIVERING;
 1071              		.loc 1 565 0
 1072 003e 0121     		movs	r1, #1
 1073 0040 D971     		strb	r1, [r3, #7]
 566:.\RFPoll.c    ****             buffer_txPreset[8]  = side.b.activeHose;
 1074              		.loc 1 566 0
 1075 0042 92F81222 		ldrb	r2, [r2, #530]	@ zero_extendqisi2
 1076 0046 1A72     		strb	r2, [r3, #8]
 567:.\RFPoll.c    ****             buffer_txPreset[9]  = bufferDisplay2.presetType[0]&0x03;
 1077              		.loc 1 567 0
 1078 0048 8E49     		ldr	r1, .L135+12
 1079 004a 91F86320 		ldrb	r2, [r1, #99]	@ zero_extendqisi2
 1080 004e 02F00302 		and	r2, r2, #3
 1081 0052 5A72     		strb	r2, [r3, #9]
 568:.\RFPoll.c    ****             for(x = bufferDisplay2.presetValue[0][0] ; x > 0; x--){
 1082              		.loc 1 568 0
 1083 0054 91F86500 		ldrb	r0, [r1, #101]	@ zero_extendqisi2
 1084 0058 84B2     		uxth	r4, r0
 1085              	.LVL118:
 1086 005a 08E0     		b	.L77
 1087              	.L78:
 569:.\RFPoll.c    ****                 tempPreset[bufferDisplay2.presetValue[0][0]-x] = (bufferDisplay2.presetValue[0][x])
 1088              		.loc 1 569 0 discriminator 3
 1089 005c 021B     		subs	r2, r0, r4
 1090 005e 894B     		ldr	r3, .L135+12
 1091 0060 2344     		add	r3, r3, r4
 1092 0062 93F86510 		ldrb	r1, [r3, #101]	@ zero_extendqisi2
ARM GAS  C:\Users\RECEPC~1\AppData\Local\Temp\cc4fvgjK.s 			page 31


 1093 0066 884B     		ldr	r3, .L135+16
 1094 0068 9954     		strb	r1, [r3, r2]
 568:.\RFPoll.c    ****             for(x = bufferDisplay2.presetValue[0][0] ; x > 0; x--){
 1095              		.loc 1 568 0 discriminator 3
 1096 006a 013C     		subs	r4, r4, #1
 1097              	.LVL119:
 1098 006c A4B2     		uxth	r4, r4
 1099              	.LVL120:
 1100              	.L77:
 568:.\RFPoll.c    ****             for(x = bufferDisplay2.presetValue[0][0] ; x > 0; x--){
 1101              		.loc 1 568 0 is_stmt 0 discriminator 1
 1102 006e 002C     		cmp	r4, #0
 1103 0070 F4D1     		bne	.L78
 1104 0072 0A23     		movs	r3, #10
 1105 0074 0CE0     		b	.L79
 1106              	.LVL121:
 1107              	.L81:
 570:.\RFPoll.c    ****             }
 571:.\RFPoll.c    ****             for(x = 10; x<=17; x++){
 572:.\RFPoll.c    ****                 buffer_txPreset[x] = tempPreset[x-10]; 
 1108              		.loc 1 572 0 is_stmt 1
 1109 0076 A3F10A02 		sub	r2, r3, #10
 1110 007a 8349     		ldr	r1, .L135+16
 1111 007c 8A5C     		ldrb	r2, [r1, r2]	@ zero_extendqisi2
 1112 007e D2B2     		uxtb	r2, r2
 1113 0080 7E49     		ldr	r1, .L135+4
 1114 0082 CA54     		strb	r2, [r1, r3]
 573:.\RFPoll.c    ****                 if(buffer_txPreset[x]== 0x00)
 1115              		.loc 1 573 0
 1116 0084 12B9     		cbnz	r2, .L80
 574:.\RFPoll.c    ****                     buffer_txPreset[x] = 0x30;
 1117              		.loc 1 574 0
 1118 0086 3021     		movs	r1, #48
 1119 0088 7C4A     		ldr	r2, .L135+4
 1120 008a D154     		strb	r1, [r2, r3]
 1121              	.L80:
 571:.\RFPoll.c    ****                 buffer_txPreset[x] = tempPreset[x-10]; 
 1122              		.loc 1 571 0 discriminator 2
 1123 008c 0133     		adds	r3, r3, #1
 1124              	.LVL122:
 1125 008e 9BB2     		uxth	r3, r3
 1126              	.LVL123:
 1127              	.L79:
 571:.\RFPoll.c    ****                 buffer_txPreset[x] = tempPreset[x-10]; 
 1128              		.loc 1 571 0 is_stmt 0 discriminator 1
 1129 0090 112B     		cmp	r3, #17
 1130 0092 F0D9     		bls	.L81
 575:.\RFPoll.c    ****             }        
 576:.\RFPoll.c    ****             buffer_txPreset[18]  = 0x00;
 1131              		.loc 1 576 0 is_stmt 1
 1132 0094 0022     		movs	r2, #0
 1133 0096 794B     		ldr	r3, .L135+4
 1134              	.LVL124:
 1135 0098 9A74     		strb	r2, [r3, #18]
 577:.\RFPoll.c    ****             if(bufferDisplay2.flagPrint == 0){
 1136              		.loc 1 577 0
 1137 009a 7A4B     		ldr	r3, .L135+12
ARM GAS  C:\Users\RECEPC~1\AppData\Local\Temp\cc4fvgjK.s 			page 32


 1138 009c 93F83431 		ldrb	r3, [r3, #308]	@ zero_extendqisi2
 1139 00a0 63B1     		cbz	r3, .L130
 1140 00a2 2346     		mov	r3, r4
 1141 00a4 1BE0     		b	.L83
 1142              	.LVL125:
 1143              	.L84:
 578:.\RFPoll.c    ****                 for(x = 0; x <8 ; x++){
 579:.\RFPoll.c    ****                     buffer_txPreset[19+x]=0x20;
 1144              		.loc 1 579 0 discriminator 3
 1145 00a6 03F11302 		add	r2, r3, #19
 1146 00aa 2020     		movs	r0, #32
 1147 00ac 7349     		ldr	r1, .L135+4
 1148 00ae 8854     		strb	r0, [r1, r2]
 580:.\RFPoll.c    ****                     tempPreset[x] = 0x00;
 1149              		.loc 1 580 0 discriminator 3
 1150 00b0 0021     		movs	r1, #0
 1151 00b2 754A     		ldr	r2, .L135+16
 1152 00b4 D154     		strb	r1, [r2, r3]
 578:.\RFPoll.c    ****                 for(x = 0; x <8 ; x++){
 1153              		.loc 1 578 0 discriminator 3
 1154 00b6 0133     		adds	r3, r3, #1
 1155              	.LVL126:
 1156 00b8 9BB2     		uxth	r3, r3
 1157              	.LVL127:
 1158 00ba 00E0     		b	.L82
 1159              	.LVL128:
 1160              	.L130:
 1161 00bc 2346     		mov	r3, r4
 1162              	.L82:
 1163              	.LVL129:
 578:.\RFPoll.c    ****                 for(x = 0; x <8 ; x++){
 1164              		.loc 1 578 0 is_stmt 0 discriminator 1
 1165 00be 072B     		cmp	r3, #7
 1166 00c0 F1D9     		bls	.L84
 1167 00c2 0EE0     		b	.L85
 1168              	.L86:
 581:.\RFPoll.c    ****                 }
 582:.\RFPoll.c    ****             }else{
 583:.\RFPoll.c    ****                 for(x = 0; x <8 ; x++){
 584:.\RFPoll.c    ****                     buffer_txPreset[19+x]=bufferDisplay2.licenceSale[x+1];
 1169              		.loc 1 584 0 is_stmt 1 discriminator 3
 1170 00c4 03F11300 		add	r0, r3, #19
 1171 00c8 591C     		adds	r1, r3, #1
 1172 00ca 6E4A     		ldr	r2, .L135+12
 1173 00cc 0A44     		add	r2, r2, r1
 1174 00ce 92F8DF50 		ldrb	r5, [r2, #223]	@ zero_extendqisi2
 1175 00d2 6A4A     		ldr	r2, .L135+4
 1176 00d4 1554     		strb	r5, [r2, r0]
 585:.\RFPoll.c    ****                     tempPreset[x] = 0x00;
 1177              		.loc 1 585 0 discriminator 3
 1178 00d6 0020     		movs	r0, #0
 1179 00d8 6B4A     		ldr	r2, .L135+16
 1180 00da D054     		strb	r0, [r2, r3]
 583:.\RFPoll.c    ****                     buffer_txPreset[19+x]=bufferDisplay2.licenceSale[x+1];
 1181              		.loc 1 583 0 discriminator 3
 1182 00dc 8BB2     		uxth	r3, r1
 1183              	.LVL130:
ARM GAS  C:\Users\RECEPC~1\AppData\Local\Temp\cc4fvgjK.s 			page 33


 1184              	.L83:
 583:.\RFPoll.c    ****                     buffer_txPreset[19+x]=bufferDisplay2.licenceSale[x+1];
 1185              		.loc 1 583 0 is_stmt 0 discriminator 1
 1186 00de 072B     		cmp	r3, #7
 1187 00e0 F0D9     		bls	.L86
 1188              	.L85:
 1189 00e2 1B23     		movs	r3, #27
 1190              	.LVL131:
 1191 00e4 04E0     		b	.L87
 1192              	.LVL132:
 1193              	.L88:
 586:.\RFPoll.c    ****                 }
 587:.\RFPoll.c    ****             }
 588:.\RFPoll.c    ****             for(x=27; x<=37;x++){
 589:.\RFPoll.c    ****                 buffer_txPreset[x]= 0x30;
 1194              		.loc 1 589 0 is_stmt 1 discriminator 3
 1195 00e6 3021     		movs	r1, #48
 1196 00e8 644A     		ldr	r2, .L135+4
 1197 00ea D154     		strb	r1, [r2, r3]
 588:.\RFPoll.c    ****                 buffer_txPreset[x]= 0x30;
 1198              		.loc 1 588 0 discriminator 3
 1199 00ec 0133     		adds	r3, r3, #1
 1200              	.LVL133:
 1201 00ee 9BB2     		uxth	r3, r3
 1202              	.LVL134:
 1203              	.L87:
 588:.\RFPoll.c    ****                 buffer_txPreset[x]= 0x30;
 1204              		.loc 1 588 0 is_stmt 0 discriminator 1
 1205 00f0 252B     		cmp	r3, #37
 1206 00f2 F8D9     		bls	.L88
 590:.\RFPoll.c    ****             }
 591:.\RFPoll.c    ****             buffer_txPreset[38] = verificar_check(buffer_txPreset,39);            
 1207              		.loc 1 591 0 is_stmt 1
 1208 00f4 614D     		ldr	r5, .L135+4
 1209 00f6 2846     		mov	r0, r5
 1210 00f8 2721     		movs	r1, #39
 1211 00fa FFF7FEFF 		bl	verificar_check
 1212              	.LVL135:
 1213 00fe 85F82600 		strb	r0, [r5, #38]
 1214              	.LVL136:
 592:.\RFPoll.c    ****             for (x = 0; x < 40; x++){
 1215              		.loc 1 592 0
 1216 0102 05E0     		b	.L89
 1217              	.LVL137:
 1218              	.L90:
 593:.\RFPoll.c    ****                 RF_Connection_PutChar(buffer_txPreset[x]);
 1219              		.loc 1 593 0 discriminator 3
 1220 0104 5D4B     		ldr	r3, .L135+4
 1221 0106 185D     		ldrb	r0, [r3, r4]	@ zero_extendqisi2
 1222 0108 FFF7FEFF 		bl	RF_Connection_PutChar
 1223              	.LVL138:
 592:.\RFPoll.c    ****             for (x = 0; x < 40; x++){
 1224              		.loc 1 592 0 discriminator 3
 1225 010c 0134     		adds	r4, r4, #1
 1226              	.LVL139:
 1227 010e A4B2     		uxth	r4, r4
 1228              	.LVL140:
ARM GAS  C:\Users\RECEPC~1\AppData\Local\Temp\cc4fvgjK.s 			page 34


 1229              	.L89:
 592:.\RFPoll.c    ****             for (x = 0; x < 40; x++){
 1230              		.loc 1 592 0 is_stmt 0 discriminator 1
 1231 0110 272C     		cmp	r4, #39
 1232 0112 F7D9     		bls	.L90
 594:.\RFPoll.c    ****             }            
 595:.\RFPoll.c    ****             side.b.rfState = RF_DELIVERING;
 1233              		.loc 1 595 0 is_stmt 1
 1234 0114 584B     		ldr	r3, .L135
 1235 0116 0122     		movs	r2, #1
 1236 0118 83F81522 		strb	r2, [r3, #533]
 596:.\RFPoll.c    ****             side.b.RFstateReport = 0;
 1237              		.loc 1 596 0
 1238 011c 0022     		movs	r2, #0
 1239 011e 83F81922 		strb	r2, [r3, #537]
 1240              	.LVL141:
 1241              	.L76:
 597:.\RFPoll.c    ****     }      
 598:.\RFPoll.c    ****     ////////////// FIN VENTA ////////////////////////////////////
 599:.\RFPoll.c    ****     if(bufferDisplay2.flagEndSale == true && side.b.RFstateReport == 1){
 1242              		.loc 1 599 0
 1243 0122 584B     		ldr	r3, .L135+12
 1244 0124 93F80331 		ldrb	r3, [r3, #259]	@ zero_extendqisi2
 1245 0128 012B     		cmp	r3, #1
 1246 012a 40F0D180 		bne	.L91
 1247              		.loc 1 599 0 is_stmt 0 discriminator 1
 1248 012e 524B     		ldr	r3, .L135
 1249 0130 93F81932 		ldrb	r3, [r3, #537]	@ zero_extendqisi2
 1250 0134 012B     		cmp	r3, #1
 1251 0136 40F0CB80 		bne	.L91
 600:.\RFPoll.c    ****         buffer_txEOT[0] = 0xBC;
 1252              		.loc 1 600 0 is_stmt 1
 1253 013a 544B     		ldr	r3, .L135+20
 1254 013c BC22     		movs	r2, #188
 1255 013e 1A70     		strb	r2, [r3]
 601:.\RFPoll.c    ****         buffer_txEOT[1] = 0xCB;
 1256              		.loc 1 601 0
 1257 0140 CB22     		movs	r2, #203
 1258 0142 5A70     		strb	r2, [r3, #1]
 602:.\RFPoll.c    ****         buffer_txEOT[2] = 0xC8;
 1259              		.loc 1 602 0
 1260 0144 C822     		movs	r2, #200
 1261 0146 9A70     		strb	r2, [r3, #2]
 603:.\RFPoll.c    ****         buffer_txEOT[3] = IDCast[0];
 1262              		.loc 1 603 0
 1263 0148 4D4A     		ldr	r2, .L135+8
 1264 014a 1178     		ldrb	r1, [r2]	@ zero_extendqisi2
 1265 014c D970     		strb	r1, [r3, #3]
 604:.\RFPoll.c    ****         buffer_txEOT[4] = IDCast[1];
 1266              		.loc 1 604 0
 1267 014e 5278     		ldrb	r2, [r2, #1]	@ zero_extendqisi2
 1268 0150 1A71     		strb	r2, [r3, #4]
 605:.\RFPoll.c    ****         buffer_txEOT[5]  = side.b.dir;
 1269              		.loc 1 605 0
 1270 0152 494A     		ldr	r2, .L135
 1271 0154 92F81211 		ldrb	r1, [r2, #274]	@ zero_extendqisi2
 1272 0158 5971     		strb	r1, [r3, #5]
ARM GAS  C:\Users\RECEPC~1\AppData\Local\Temp\cc4fvgjK.s 			page 35


 606:.\RFPoll.c    ****         buffer_txEOT[6]  = 0xA4;
 1273              		.loc 1 606 0
 1274 015a A421     		movs	r1, #164
 1275 015c 9971     		strb	r1, [r3, #6]
 607:.\RFPoll.c    ****         buffer_txEOT[7]  = RF_CASHSALEREPORT;
 1276              		.loc 1 607 0
 1277 015e 0221     		movs	r1, #2
 1278 0160 D971     		strb	r1, [r3, #7]
 608:.\RFPoll.c    ****         buffer_txEOT[8]  = side.b.activeHose;
 1279              		.loc 1 608 0
 1280 0162 92F81212 		ldrb	r1, [r2, #530]	@ zero_extendqisi2
 1281 0166 1972     		strb	r1, [r3, #8]
 609:.\RFPoll.c    ****         for(x=side.b.ppuSale[0];x > 0 ;x--){						   							
 1282              		.loc 1 609 0
 1283 0168 92F80302 		ldrb	r0, [r2, #515]	@ zero_extendqisi2
 1284 016c 84B2     		uxth	r4, r0
 1285              	.LVL142:
 1286 016e 08E0     		b	.L92
 1287              	.L93:
 610:.\RFPoll.c    ****     		tempPPU[side.b.ppuSale[0]-x]= side.b.ppuSale[x];
 1288              		.loc 1 610 0 discriminator 3
 1289 0170 021B     		subs	r2, r0, r4
 1290 0172 414B     		ldr	r3, .L135
 1291 0174 2344     		add	r3, r3, r4
 1292 0176 93F80312 		ldrb	r1, [r3, #515]	@ zero_extendqisi2
 1293 017a 454B     		ldr	r3, .L135+24
 1294 017c 9954     		strb	r1, [r3, r2]
 609:.\RFPoll.c    ****         for(x=side.b.ppuSale[0];x > 0 ;x--){						   							
 1295              		.loc 1 609 0 discriminator 3
 1296 017e 013C     		subs	r4, r4, #1
 1297              	.LVL143:
 1298 0180 A4B2     		uxth	r4, r4
 1299              	.LVL144:
 1300              	.L92:
 609:.\RFPoll.c    ****         for(x=side.b.ppuSale[0];x > 0 ;x--){						   							
 1301              		.loc 1 609 0 is_stmt 0 discriminator 1
 1302 0182 002C     		cmp	r4, #0
 1303 0184 F4D1     		bne	.L93
 1304 0186 0923     		movs	r3, #9
 1305 0188 0CE0     		b	.L94
 1306              	.LVL145:
 1307              	.L96:
 611:.\RFPoll.c    ****     	}
 612:.\RFPoll.c    ****         for(x = 9; x<=13; x++){
 613:.\RFPoll.c    ****             buffer_txEOT[x] = tempPPU[x-9]; 
 1308              		.loc 1 613 0 is_stmt 1
 1309 018a A3F10902 		sub	r2, r3, #9
 1310 018e 4049     		ldr	r1, .L135+24
 1311 0190 8A5C     		ldrb	r2, [r1, r2]	@ zero_extendqisi2
 1312 0192 D2B2     		uxtb	r2, r2
 1313 0194 3D49     		ldr	r1, .L135+20
 1314 0196 CA54     		strb	r2, [r1, r3]
 614:.\RFPoll.c    ****             if(buffer_txEOT[x]== 0x00)
 1315              		.loc 1 614 0
 1316 0198 12B9     		cbnz	r2, .L95
 615:.\RFPoll.c    ****                 buffer_txEOT[x] = 0x30;
 1317              		.loc 1 615 0
ARM GAS  C:\Users\RECEPC~1\AppData\Local\Temp\cc4fvgjK.s 			page 36


 1318 019a 3021     		movs	r1, #48
 1319 019c 3B4A     		ldr	r2, .L135+20
 1320 019e D154     		strb	r1, [r2, r3]
 1321              	.L95:
 612:.\RFPoll.c    ****             buffer_txEOT[x] = tempPPU[x-9]; 
 1322              		.loc 1 612 0 discriminator 2
 1323 01a0 0133     		adds	r3, r3, #1
 1324              	.LVL146:
 1325 01a2 9BB2     		uxth	r3, r3
 1326              	.LVL147:
 1327              	.L94:
 612:.\RFPoll.c    ****             buffer_txEOT[x] = tempPPU[x-9]; 
 1328              		.loc 1 612 0 is_stmt 0 discriminator 1
 1329 01a4 0D2B     		cmp	r3, #13
 1330 01a6 F0D9     		bls	.L96
 616:.\RFPoll.c    ****         } 
 617:.\RFPoll.c    ****         if(digits ==5 || digits ==6){
 1331              		.loc 1 617 0 is_stmt 1
 1332 01a8 3A4B     		ldr	r3, .L135+28
 1333              	.LVL148:
 1334 01aa 1B78     		ldrb	r3, [r3]	@ zero_extendqisi2
 1335 01ac 053B     		subs	r3, r3, #5
 1336 01ae DBB2     		uxtb	r3, r3
 1337 01b0 012B     		cmp	r3, #1
 1338 01b2 0CD9     		bls	.L131
 1339 01b4 0123     		movs	r3, #1
 1340 01b6 1BE0     		b	.L98
 1341              	.LVL149:
 1342              	.L99:
 618:.\RFPoll.c    ****             for(x=1;x <= side.b.volumeSale[0];x++){						   							
 619:.\RFPoll.c    ****                 buffer_txEOT[x+13]=side.b.volumeSale[7-x];                
 1343              		.loc 1 619 0 discriminator 3
 1344 01b8 03F10D01 		add	r1, r3, #13
 1345 01bc 364A     		ldr	r2, .L135+32
 1346 01be D21A     		subs	r2, r2, r3
 1347 01c0 92F8F501 		ldrb	r0, [r2, #501]	@ zero_extendqisi2
 1348 01c4 314A     		ldr	r2, .L135+20
 1349 01c6 5054     		strb	r0, [r2, r1]
 618:.\RFPoll.c    ****             for(x=1;x <= side.b.volumeSale[0];x++){						   							
 1350              		.loc 1 618 0 discriminator 3
 1351 01c8 0133     		adds	r3, r3, #1
 1352              	.LVL150:
 1353 01ca 9BB2     		uxth	r3, r3
 1354              	.LVL151:
 1355 01cc 00E0     		b	.L97
 1356              	.LVL152:
 1357              	.L131:
 1358 01ce 0123     		movs	r3, #1
 1359              	.L97:
 1360              	.LVL153:
 618:.\RFPoll.c    ****             for(x=1;x <= side.b.volumeSale[0];x++){						   							
 1361              		.loc 1 618 0 is_stmt 0 discriminator 1
 1362 01d0 294A     		ldr	r2, .L135
 1363 01d2 92F8F521 		ldrb	r2, [r2, #501]	@ zero_extendqisi2
 1364 01d6 9A42     		cmp	r2, r3
 1365 01d8 EED2     		bcs	.L99
 1366 01da 0EE0     		b	.L100
ARM GAS  C:\Users\RECEPC~1\AppData\Local\Temp\cc4fvgjK.s 			page 37


 1367              	.L101:
 620:.\RFPoll.c    ****         	}
 621:.\RFPoll.c    ****         }else{
 622:.\RFPoll.c    ****             for(x=1;x <= side.b.volumeSale[0];x++){						   							
 623:.\RFPoll.c    ****                 buffer_txEOT[x+13]=side.b.volumeSale[9-x];                
 1368              		.loc 1 623 0 is_stmt 1 discriminator 3
 1369 01dc 03F10D01 		add	r1, r3, #13
 1370 01e0 2E4A     		ldr	r2, .L135+36
 1371 01e2 D21A     		subs	r2, r2, r3
 1372 01e4 92F8F501 		ldrb	r0, [r2, #501]	@ zero_extendqisi2
 1373 01e8 284A     		ldr	r2, .L135+20
 1374 01ea 5054     		strb	r0, [r2, r1]
 622:.\RFPoll.c    ****                 buffer_txEOT[x+13]=side.b.volumeSale[9-x];                
 1375              		.loc 1 622 0 discriminator 3
 1376 01ec 0133     		adds	r3, r3, #1
 1377              	.LVL154:
 1378 01ee 9BB2     		uxth	r3, r3
 1379              	.LVL155:
 1380              	.L98:
 622:.\RFPoll.c    ****                 buffer_txEOT[x+13]=side.b.volumeSale[9-x];                
 1381              		.loc 1 622 0 is_stmt 0 discriminator 1
 1382 01f0 214A     		ldr	r2, .L135
 1383 01f2 92F8F521 		ldrb	r2, [r2, #501]	@ zero_extendqisi2
 1384 01f6 9A42     		cmp	r2, r3
 1385 01f8 F0D2     		bcs	.L101
 1386              	.L100:
 624:.\RFPoll.c    ****         	}
 625:.\RFPoll.c    ****         }        
 626:.\RFPoll.c    ****         if(buffer_txEOT[20]==0x00){
 1387              		.loc 1 626 0 is_stmt 1
 1388 01fa 244B     		ldr	r3, .L135+20
 1389              	.LVL156:
 1390 01fc 1B7D     		ldrb	r3, [r3, #20]	@ zero_extendqisi2
 1391 01fe 1BB9     		cbnz	r3, .L102
 627:.\RFPoll.c    ****             buffer_txEOT[20] = 0x30;
 1392              		.loc 1 627 0
 1393 0200 224B     		ldr	r3, .L135+20
 1394 0202 3022     		movs	r2, #48
 1395 0204 1A75     		strb	r2, [r3, #20]
 628:.\RFPoll.c    ****             buffer_txEOT[21] = 0x30;
 1396              		.loc 1 628 0
 1397 0206 5A75     		strb	r2, [r3, #21]
 1398              	.L102:
 629:.\RFPoll.c    ****         }
 630:.\RFPoll.c    ****         if(digits ==5 || digits ==6){
 1399              		.loc 1 630 0
 1400 0208 224B     		ldr	r3, .L135+28
 1401 020a 1B78     		ldrb	r3, [r3]	@ zero_extendqisi2
 1402 020c 053B     		subs	r3, r3, #5
 1403 020e DBB2     		uxtb	r3, r3
 1404 0210 012B     		cmp	r3, #1
 1405 0212 0CD9     		bls	.L132
 1406 0214 0123     		movs	r3, #1
 1407 0216 1BE0     		b	.L104
 1408              	.LVL157:
 1409              	.L105:
 631:.\RFPoll.c    ****             for(x=1;x <= side.b.moneySale[0];x++){						   							
ARM GAS  C:\Users\RECEPC~1\AppData\Local\Temp\cc4fvgjK.s 			page 38


 632:.\RFPoll.c    ****         		buffer_txEOT[x+21]=side.b.moneySale[7-x];                
 1410              		.loc 1 632 0 discriminator 3
 1411 0218 03F11501 		add	r1, r3, #21
 1412 021c 1E4A     		ldr	r2, .L135+32
 1413 021e D21A     		subs	r2, r2, r3
 1414 0220 92F8E701 		ldrb	r0, [r2, #487]	@ zero_extendqisi2
 1415 0224 194A     		ldr	r2, .L135+20
 1416 0226 5054     		strb	r0, [r2, r1]
 631:.\RFPoll.c    ****             for(x=1;x <= side.b.moneySale[0];x++){						   							
 1417              		.loc 1 631 0 discriminator 3
 1418 0228 0133     		adds	r3, r3, #1
 1419              	.LVL158:
 1420 022a 9BB2     		uxth	r3, r3
 1421              	.LVL159:
 1422 022c 00E0     		b	.L103
 1423              	.LVL160:
 1424              	.L132:
 1425 022e 0123     		movs	r3, #1
 1426              	.L103:
 1427              	.LVL161:
 631:.\RFPoll.c    ****             for(x=1;x <= side.b.moneySale[0];x++){						   							
 1428              		.loc 1 631 0 is_stmt 0 discriminator 1
 1429 0230 114A     		ldr	r2, .L135
 1430 0232 92F8E721 		ldrb	r2, [r2, #487]	@ zero_extendqisi2
 1431 0236 9A42     		cmp	r2, r3
 1432 0238 EED2     		bcs	.L105
 1433 023a 0EE0     		b	.L106
 1434              	.L107:
 633:.\RFPoll.c    ****         	} 
 634:.\RFPoll.c    ****         }else{
 635:.\RFPoll.c    ****             for(x=1;x <= side.b.moneySale[0];x++){						   							
 636:.\RFPoll.c    ****         		buffer_txEOT[x+21]=side.b.moneySale[9-x];                
 1435              		.loc 1 636 0 is_stmt 1 discriminator 3
 1436 023c 03F11501 		add	r1, r3, #21
 1437 0240 164A     		ldr	r2, .L135+36
 1438 0242 D21A     		subs	r2, r2, r3
 1439 0244 92F8E701 		ldrb	r0, [r2, #487]	@ zero_extendqisi2
 1440 0248 104A     		ldr	r2, .L135+20
 1441 024a 5054     		strb	r0, [r2, r1]
 635:.\RFPoll.c    ****         		buffer_txEOT[x+21]=side.b.moneySale[9-x];                
 1442              		.loc 1 635 0 discriminator 3
 1443 024c 0133     		adds	r3, r3, #1
 1444              	.LVL162:
 1445 024e 9BB2     		uxth	r3, r3
 1446              	.LVL163:
 1447              	.L104:
 635:.\RFPoll.c    ****         		buffer_txEOT[x+21]=side.b.moneySale[9-x];                
 1448              		.loc 1 635 0 is_stmt 0 discriminator 1
 1449 0250 094A     		ldr	r2, .L135
 1450 0252 92F8E721 		ldrb	r2, [r2, #487]	@ zero_extendqisi2
 1451 0256 9A42     		cmp	r2, r3
 1452 0258 F0D2     		bcs	.L107
 1453              	.L106:
 637:.\RFPoll.c    ****         	}            
 638:.\RFPoll.c    ****         }
 639:.\RFPoll.c    ****         if(buffer_txEOT[28]==0x00){
 1454              		.loc 1 639 0 is_stmt 1
ARM GAS  C:\Users\RECEPC~1\AppData\Local\Temp\cc4fvgjK.s 			page 39


 1455 025a 0C4B     		ldr	r3, .L135+20
 1456              	.LVL164:
 1457 025c 1B7F     		ldrb	r3, [r3, #28]	@ zero_extendqisi2
 1458 025e 1BB9     		cbnz	r3, .L108
 640:.\RFPoll.c    ****             buffer_txEOT[28] = 0x30;
 1459              		.loc 1 640 0
 1460 0260 0A4B     		ldr	r3, .L135+20
 1461 0262 3022     		movs	r2, #48
 1462 0264 1A77     		strb	r2, [r3, #28]
 641:.\RFPoll.c    ****             buffer_txEOT[29] = 0x30;
 1463              		.loc 1 641 0
 1464 0266 5A77     		strb	r2, [r3, #29]
 1465              	.L108:
 642:.\RFPoll.c    ****         }
 643:.\RFPoll.c    ****         buffer_txEOT[30] = verificar_check(buffer_txEOT,31);        
 1466              		.loc 1 643 0
 1467 0268 084D     		ldr	r5, .L135+20
 1468 026a 2846     		mov	r0, r5
 1469 026c 1F21     		movs	r1, #31
 1470 026e FFF7FEFF 		bl	verificar_check
 1471              	.LVL165:
 1472 0272 A877     		strb	r0, [r5, #30]
 1473              	.LVL166:
 644:.\RFPoll.c    ****         for (x = 0; x < 31; x++){
 1474              		.loc 1 644 0
 1475 0274 1AE0     		b	.L109
 1476              	.L136:
 1477 0276 00BF     		.align	2
 1478              	.L135:
 1479 0278 00000000 		.word	side
 1480 027c 00000000 		.word	buffer_txPreset
 1481 0280 00000000 		.word	IDCast
 1482 0284 00000000 		.word	bufferDisplay2
 1483 0288 00000000 		.word	tempPreset
 1484 028c 00000000 		.word	buffer_txEOT
 1485 0290 00000000 		.word	tempPPU
 1486 0294 00000000 		.word	digits
 1487 0298 07000000 		.word	side+7
 1488 029c 09000000 		.word	side+9
 1489              	.LVL167:
 1490              	.L110:
 645:.\RFPoll.c    ****             RF_Connection_PutChar(buffer_txEOT[x]);
 1491              		.loc 1 645 0 discriminator 3
 1492 02a0 734B     		ldr	r3, .L137
 1493 02a2 185D     		ldrb	r0, [r3, r4]	@ zero_extendqisi2
 1494 02a4 FFF7FEFF 		bl	RF_Connection_PutChar
 1495              	.LVL168:
 644:.\RFPoll.c    ****         for (x = 0; x < 31; x++){
 1496              		.loc 1 644 0 discriminator 3
 1497 02a8 0134     		adds	r4, r4, #1
 1498              	.LVL169:
 1499 02aa A4B2     		uxth	r4, r4
 1500              	.LVL170:
 1501              	.L109:
 644:.\RFPoll.c    ****         for (x = 0; x < 31; x++){
 1502              		.loc 1 644 0 is_stmt 0 discriminator 1
 1503 02ac 1E2C     		cmp	r4, #30
ARM GAS  C:\Users\RECEPC~1\AppData\Local\Temp\cc4fvgjK.s 			page 40


 1504 02ae F7D9     		bls	.L110
 646:.\RFPoll.c    ****         }  
 647:.\RFPoll.c    ****         side.a.pumpState = PUMP_IDLE;
 1505              		.loc 1 647 0 is_stmt 1
 1506 02b0 704B     		ldr	r3, .L137+4
 1507 02b2 0622     		movs	r2, #6
 1508 02b4 83F80421 		strb	r2, [r3, #260]
 648:.\RFPoll.c    ****         side.b.rfState = RF_IDLE;
 1509              		.loc 1 648 0
 1510 02b8 0822     		movs	r2, #8
 1511 02ba 83F81522 		strb	r2, [r3, #533]
 649:.\RFPoll.c    ****         bufferDisplay2.flagActiveSale = false;
 1512              		.loc 1 649 0
 1513 02be 0022     		movs	r2, #0
 1514 02c0 6D49     		ldr	r1, .L137+8
 1515 02c2 81F83521 		strb	r2, [r1, #309]
 650:.\RFPoll.c    ****         side.b.RFstateReport = 0;
 1516              		.loc 1 650 0
 1517 02c6 83F81922 		strb	r2, [r3, #537]
 651:.\RFPoll.c    ****         pollTotals = 2;
 1518              		.loc 1 651 0
 1519 02ca 0222     		movs	r2, #2
 1520 02cc 6B4B     		ldr	r3, .L137+12
 1521 02ce 1A70     		strb	r2, [r3]
 1522              	.LVL171:
 1523              	.L91:
 652:.\RFPoll.c    ****     }                                               
 653:.\RFPoll.c    ****     ////////////// TURNOS ////////////////////////////////////
 654:.\RFPoll.c    **** //    if(ShiftState ==1  && side.b.RFstateReport == 1){                                    
 655:.\RFPoll.c    **** //        buffer_txDisplay[5]  = side.b.dir;
 656:.\RFPoll.c    **** //        buffer_txDisplay[6]  = 0xE3;
 657:.\RFPoll.c    **** //        buffer_txDisplay[7]  = RF_WORKSHIFTREQ;
 658:.\RFPoll.c    **** //        for(x=1;x <= bufferDisplay2.shiftId[0] ;x++){						   							
 659:.\RFPoll.c    **** //    		buffer_txDisplay[x+7]= bufferDisplay2.shiftId[(bufferDisplay2.shiftId[0]+1)-x];            
 660:.\RFPoll.c    **** //    	}
 661:.\RFPoll.c    **** //        for(x=8; x<19; x++){
 662:.\RFPoll.c    **** //            if(buffer_txDisplay[x] ==0x00)
 663:.\RFPoll.c    **** //                buffer_txDisplay[x]=0x30;
 664:.\RFPoll.c    **** //        }
 665:.\RFPoll.c    **** //        for(x=1;x <= bufferDisplay2.shiftPassword[0] ;x++){						   							
 666:.\RFPoll.c    **** //    		buffer_txDisplay[x+18]= bufferDisplay2.shiftPassword[(bufferDisplay2.shiftPassword[0]+1)-x]
 667:.\RFPoll.c    **** //    	}
 668:.\RFPoll.c    **** //        for(x=19; x<31; x++){
 669:.\RFPoll.c    **** //            if(buffer_txDisplay[x] ==0x00)
 670:.\RFPoll.c    **** //                buffer_txDisplay[x]=0x30;
 671:.\RFPoll.c    **** //        }
 672:.\RFPoll.c    **** //        buffer_txDisplay[32] = verificar_check(buffer_txDisplay,33);
 673:.\RFPoll.c    **** //        for (x = 0; x < 33; x++){
 674:.\RFPoll.c    **** //            RF_Connection_PutChar(buffer_txDisplay[x]);
 675:.\RFPoll.c    **** //        }
 676:.\RFPoll.c    **** //        side.b.rfState = RF_WORKSHIFTREQ;
 677:.\RFPoll.c    **** //        side.b.RFstateReport = 0;
 678:.\RFPoll.c    **** //    }
 679:.\RFPoll.c    ****     ////////////// CAMBIO PPU ////////////////////////////////////
 680:.\RFPoll.c    ****     if(side.b.changePPU){
 1524              		.loc 1 680 0
 1525 02d0 684B     		ldr	r3, .L137+4
ARM GAS  C:\Users\RECEPC~1\AppData\Local\Temp\cc4fvgjK.s 			page 41


 1526 02d2 93F81732 		ldrb	r3, [r3, #535]	@ zero_extendqisi2
 1527 02d6 7BB1     		cbz	r3, .L111
 681:.\RFPoll.c    ****         if(priceChange(side.b.dir,side.b.grade,side.b.ppuAuthorized[side.b.grade]))
 1528              		.loc 1 681 0
 1529 02d8 664B     		ldr	r3, .L137+4
 1530 02da 93F81812 		ldrb	r1, [r3, #536]	@ zero_extendqisi2
 1531 02de 03EBC102 		add	r2, r3, r1, lsl #3
 1532 02e2 93F81201 		ldrb	r0, [r3, #274]	@ zero_extendqisi2
 1533 02e6 02F2C712 		addw	r2, r2, #455
 1534 02ea FFF7FEFF 		bl	priceChange
 1535              	.LVL172:
 1536 02ee 18B1     		cbz	r0, .L111
 682:.\RFPoll.c    ****             side.b.changePPU = false;          
 1537              		.loc 1 682 0
 1538 02f0 0022     		movs	r2, #0
 1539 02f2 604B     		ldr	r3, .L137+4
 1540 02f4 83F81722 		strb	r2, [r3, #535]
 1541              	.L111:
 683:.\RFPoll.c    ****     }
 684:.\RFPoll.c    ****     ////////////// TOTALES ////////////////////////////////////
 685:.\RFPoll.c    ****     
 686:.\RFPoll.c    ****     if(side.b.RFstateReport == 1 && pollTotals == 2){
 1542              		.loc 1 686 0
 1543 02f8 5E4B     		ldr	r3, .L137+4
 1544 02fa 93F81932 		ldrb	r3, [r3, #537]	@ zero_extendqisi2
 1545 02fe 012B     		cmp	r3, #1
 1546 0300 40F0B480 		bne	.L75
 1547              		.loc 1 686 0 is_stmt 0 discriminator 1
 1548 0304 5D4B     		ldr	r3, .L137+12
 1549 0306 1B78     		ldrb	r3, [r3]	@ zero_extendqisi2
 1550 0308 DBB2     		uxtb	r3, r3
 1551 030a 022B     		cmp	r3, #2
 1552 030c 40F0AE80 		bne	.L75
 687:.\RFPoll.c    ****         pollTotals = 0;
 1553              		.loc 1 687 0 is_stmt 1
 1554 0310 0022     		movs	r2, #0
 1555 0312 5A4B     		ldr	r3, .L137+12
 1556 0314 1A70     		strb	r2, [r3]
 1557              	.LVL173:
 688:.\RFPoll.c    ****         y=0;
 689:.\RFPoll.c    ****         buffer_txTotals[y] = 0xBC; y++;
 1558              		.loc 1 689 0
 1559 0316 5A4B     		ldr	r3, .L137+16
 1560 0318 BC22     		movs	r2, #188
 1561 031a 1A70     		strb	r2, [r3]
 1562              	.LVL174:
 690:.\RFPoll.c    ****         buffer_txTotals[y] = 0xCB; y++;
 1563              		.loc 1 690 0
 1564 031c CB22     		movs	r2, #203
 1565 031e 5A70     		strb	r2, [r3, #1]
 1566              	.LVL175:
 691:.\RFPoll.c    ****         buffer_txTotals[y] = 0xC8; y++;
 1567              		.loc 1 691 0
 1568 0320 C822     		movs	r2, #200
 1569 0322 9A70     		strb	r2, [r3, #2]
 1570              	.LVL176:
 692:.\RFPoll.c    ****         buffer_txTotals[y] = IDCast[0]; y++;
ARM GAS  C:\Users\RECEPC~1\AppData\Local\Temp\cc4fvgjK.s 			page 42


 1571              		.loc 1 692 0
 1572 0324 574A     		ldr	r2, .L137+20
 1573 0326 1178     		ldrb	r1, [r2]	@ zero_extendqisi2
 1574 0328 D970     		strb	r1, [r3, #3]
 1575              	.LVL177:
 693:.\RFPoll.c    ****         buffer_txTotals[y] = IDCast[1]; y++;
 1576              		.loc 1 693 0
 1577 032a 5278     		ldrb	r2, [r2, #1]	@ zero_extendqisi2
 1578 032c 1A71     		strb	r2, [r3, #4]
 1579              	.LVL178:
 694:.\RFPoll.c    ****         buffer_txTotals[5] = side.b.dir; y++;
 1580              		.loc 1 694 0
 1581 032e 514A     		ldr	r2, .L137+4
 1582 0330 92F81211 		ldrb	r1, [r2, #274]	@ zero_extendqisi2
 1583 0334 5971     		strb	r1, [r3, #5]
 1584              	.LVL179:
 695:.\RFPoll.c    ****         buffer_txTotals[y] = 0xE8; y++;
 1585              		.loc 1 695 0
 1586 0336 E821     		movs	r1, #232
 1587 0338 9971     		strb	r1, [r3, #6]
 1588              	.LVL180:
 696:.\RFPoll.c    ****         buffer_txTotals[y] = side.b.rfState; y++;
 1589              		.loc 1 696 0
 1590 033a 92F81522 		ldrb	r2, [r2, #533]	@ zero_extendqisi2
 1591 033e DA71     		strb	r2, [r3, #7]
 1592              	.LVL181:
 697:.\RFPoll.c    ****         buffer_txTotals[y] = 0x00; y++;
 698:.\RFPoll.c    ****         for(z=1;z <= side.b.hoseNumber; z++){
 1593              		.loc 1 698 0
 1594 0340 0121     		movs	r1, #1
 697:.\RFPoll.c    ****         buffer_txTotals[y] = 0x00; y++;
 1595              		.loc 1 697 0
 1596 0342 0924     		movs	r4, #9
 1597              		.loc 1 698 0
 1598 0344 74E0     		b	.L113
 1599              	.LVL182:
 1600              	.L127:
 699:.\RFPoll.c    ****             buffer_txTotals[y] = z; y++;                    
 1601              		.loc 1 699 0
 1602 0346 4E4B     		ldr	r3, .L137+16
 1603 0348 1955     		strb	r1, [r3, r4]
 1604 034a 0134     		adds	r4, r4, #1
 1605              	.LVL183:
 1606 034c A4B2     		uxth	r4, r4
 1607              	.LVL184:
 700:.\RFPoll.c    ****             if (digits == 6 || digits == 5){                            
 1608              		.loc 1 700 0
 1609 034e 4E4B     		ldr	r3, .L137+24
 1610 0350 1B78     		ldrb	r3, [r3]	@ zero_extendqisi2
 1611 0352 053B     		subs	r3, r3, #5
 1612 0354 DBB2     		uxtb	r3, r3
 1613 0356 012B     		cmp	r3, #1
 1614 0358 13D9     		bls	.L133
 1615 035a 0C22     		movs	r2, #12
 1616 035c 4FE0     		b	.L115
 1617              	.LVL185:
 1618              	.L116:
ARM GAS  C:\Users\RECEPC~1\AppData\Local\Temp\cc4fvgjK.s 			page 43


 701:.\RFPoll.c    ****                 for(x = 8; x > 0; x--){ //Volumen
 702:.\RFPoll.c    ****                     buffer_txTotals[y] = (side.b.totalsHandle[z-1][0][x])-48;y++;
 1619              		.loc 1 702 0 discriminator 3
 1620 035e 4B1E     		subs	r3, r1, #1
 1621 0360 03EB4303 		add	r3, r3, r3, lsl #1
 1622 0364 C3EB0313 		rsb	r3, r3, r3, lsl #4
 1623 0368 4248     		ldr	r0, .L137+4
 1624 036a 0344     		add	r3, r3, r0
 1625 036c 1344     		add	r3, r3, r2
 1626 036e 93F81331 		ldrb	r3, [r3, #275]	@ zero_extendqisi2
 1627 0372 303B     		subs	r3, r3, #48
 1628 0374 4248     		ldr	r0, .L137+16
 1629 0376 0355     		strb	r3, [r0, r4]
 1630 0378 0134     		adds	r4, r4, #1
 1631              	.LVL186:
 1632 037a A4B2     		uxth	r4, r4
 1633              	.LVL187:
 701:.\RFPoll.c    ****                 for(x = 8; x > 0; x--){ //Volumen
 1634              		.loc 1 701 0 discriminator 3
 1635 037c 013A     		subs	r2, r2, #1
 1636              	.LVL188:
 1637 037e 92B2     		uxth	r2, r2
 1638              	.LVL189:
 1639 0380 00E0     		b	.L114
 1640              	.LVL190:
 1641              	.L133:
 1642 0382 0822     		movs	r2, #8
 1643              	.L114:
 1644              	.LVL191:
 701:.\RFPoll.c    ****                 for(x = 8; x > 0; x--){ //Volumen
 1645              		.loc 1 701 0 is_stmt 0 discriminator 1
 1646 0384 002A     		cmp	r2, #0
 1647 0386 EAD1     		bne	.L116
 1648 0388 06E0     		b	.L117
 1649              	.L118:
 703:.\RFPoll.c    ****                 }
 704:.\RFPoll.c    ****                 for(x =0; x < 4; x++){
 705:.\RFPoll.c    ****                     buffer_txTotals[y] = 0x30;y++;
 1650              		.loc 1 705 0 is_stmt 1 discriminator 3
 1651 038a 3020     		movs	r0, #48
 1652 038c 3C4B     		ldr	r3, .L137+16
 1653 038e 1855     		strb	r0, [r3, r4]
 1654 0390 0134     		adds	r4, r4, #1
 1655              	.LVL192:
 1656 0392 A4B2     		uxth	r4, r4
 1657              	.LVL193:
 704:.\RFPoll.c    ****                     buffer_txTotals[y] = 0x30;y++;
 1658              		.loc 1 704 0 discriminator 3
 1659 0394 0132     		adds	r2, r2, #1
 1660              	.LVL194:
 1661 0396 92B2     		uxth	r2, r2
 1662              	.LVL195:
 1663              	.L117:
 704:.\RFPoll.c    ****                     buffer_txTotals[y] = 0x30;y++;
 1664              		.loc 1 704 0 is_stmt 0 discriminator 1
 1665 0398 032A     		cmp	r2, #3
 1666 039a F6D9     		bls	.L118
ARM GAS  C:\Users\RECEPC~1\AppData\Local\Temp\cc4fvgjK.s 			page 44


 1667 039c 0822     		movs	r2, #8
 1668              	.LVL196:
 1669 039e 10E0     		b	.L119
 1670              	.LVL197:
 1671              	.L120:
 706:.\RFPoll.c    ****                 }
 707:.\RFPoll.c    ****                 for(x = 8; x > 0; x--){//Dinero
 708:.\RFPoll.c    ****                     buffer_txTotals[y] = (side.b.totalsHandle[z-1][1][x])-48;y++;
 1672              		.loc 1 708 0 is_stmt 1 discriminator 3
 1673 03a0 4B1E     		subs	r3, r1, #1
 1674 03a2 03EB4303 		add	r3, r3, r3, lsl #1
 1675 03a6 C3EB0313 		rsb	r3, r3, r3, lsl #4
 1676 03aa 3248     		ldr	r0, .L137+4
 1677 03ac 0344     		add	r3, r3, r0
 1678 03ae 1344     		add	r3, r3, r2
 1679 03b0 93F82231 		ldrb	r3, [r3, #290]	@ zero_extendqisi2
 1680 03b4 303B     		subs	r3, r3, #48
 1681 03b6 3248     		ldr	r0, .L137+16
 1682 03b8 0355     		strb	r3, [r0, r4]
 1683 03ba 0134     		adds	r4, r4, #1
 1684              	.LVL198:
 1685 03bc A4B2     		uxth	r4, r4
 1686              	.LVL199:
 707:.\RFPoll.c    ****                     buffer_txTotals[y] = (side.b.totalsHandle[z-1][1][x])-48;y++;
 1687              		.loc 1 707 0 discriminator 3
 1688 03be 013A     		subs	r2, r2, #1
 1689              	.LVL200:
 1690 03c0 92B2     		uxth	r2, r2
 1691              	.LVL201:
 1692              	.L119:
 707:.\RFPoll.c    ****                     buffer_txTotals[y] = (side.b.totalsHandle[z-1][1][x])-48;y++;
 1693              		.loc 1 707 0 is_stmt 0 discriminator 1
 1694 03c2 002A     		cmp	r2, #0
 1695 03c4 ECD1     		bne	.L120
 1696 03c6 06E0     		b	.L121
 1697              	.L122:
 709:.\RFPoll.c    ****                 }
 710:.\RFPoll.c    ****                 for(x =0; x < 4; x++){
 711:.\RFPoll.c    ****                     buffer_txTotals[y] = 0x30;y++;
 1698              		.loc 1 711 0 is_stmt 1 discriminator 3
 1699 03c8 3020     		movs	r0, #48
 1700 03ca 2D4B     		ldr	r3, .L137+16
 1701 03cc 1855     		strb	r0, [r3, r4]
 1702 03ce 0134     		adds	r4, r4, #1
 1703              	.LVL202:
 1704 03d0 A4B2     		uxth	r4, r4
 1705              	.LVL203:
 710:.\RFPoll.c    ****                     buffer_txTotals[y] = 0x30;y++;
 1706              		.loc 1 710 0 discriminator 3
 1707 03d2 0132     		adds	r2, r2, #1
 1708              	.LVL204:
 1709 03d4 92B2     		uxth	r2, r2
 1710              	.LVL205:
 1711              	.L121:
 710:.\RFPoll.c    ****                     buffer_txTotals[y] = 0x30;y++;
 1712              		.loc 1 710 0 is_stmt 0 discriminator 1
 1713 03d6 032A     		cmp	r2, #3
ARM GAS  C:\Users\RECEPC~1\AppData\Local\Temp\cc4fvgjK.s 			page 45


 1714 03d8 F6D9     		bls	.L122
 1715 03da 27E0     		b	.L123
 1716              	.L124:
 712:.\RFPoll.c    ****                 }
 713:.\RFPoll.c    ****             }else{
 714:.\RFPoll.c    ****                 for(x = 12; x > 0; x--){ //Volumen
 715:.\RFPoll.c    ****                     buffer_txTotals[y] = (side.b.totalsHandle[z-1][0][x])-48;y++;
 1717              		.loc 1 715 0 is_stmt 1 discriminator 3
 1718 03dc 4B1E     		subs	r3, r1, #1
 1719 03de 03EB4303 		add	r3, r3, r3, lsl #1
 1720 03e2 C3EB0313 		rsb	r3, r3, r3, lsl #4
 1721 03e6 2348     		ldr	r0, .L137+4
 1722 03e8 0344     		add	r3, r3, r0
 1723 03ea 1344     		add	r3, r3, r2
 1724 03ec 93F81331 		ldrb	r3, [r3, #275]	@ zero_extendqisi2
 1725 03f0 303B     		subs	r3, r3, #48
 1726 03f2 2348     		ldr	r0, .L137+16
 1727 03f4 0355     		strb	r3, [r0, r4]
 1728 03f6 0134     		adds	r4, r4, #1
 1729              	.LVL206:
 1730 03f8 A4B2     		uxth	r4, r4
 1731              	.LVL207:
 714:.\RFPoll.c    ****                     buffer_txTotals[y] = (side.b.totalsHandle[z-1][0][x])-48;y++;
 1732              		.loc 1 714 0 discriminator 3
 1733 03fa 013A     		subs	r2, r2, #1
 1734              	.LVL208:
 1735 03fc 92B2     		uxth	r2, r2
 1736              	.LVL209:
 1737              	.L115:
 714:.\RFPoll.c    ****                     buffer_txTotals[y] = (side.b.totalsHandle[z-1][0][x])-48;y++;
 1738              		.loc 1 714 0 is_stmt 0 discriminator 1
 1739 03fe 002A     		cmp	r2, #0
 1740 0400 ECD1     		bne	.L124
 1741 0402 0C22     		movs	r2, #12
 1742              	.LVL210:
 1743 0404 10E0     		b	.L125
 1744              	.LVL211:
 1745              	.L126:
 716:.\RFPoll.c    ****                 }                        
 717:.\RFPoll.c    ****                 for(x = 12; x > 0; x--){//Dinero
 718:.\RFPoll.c    ****                     buffer_txTotals[y] = (side.b.totalsHandle[z-1][1][x])-48;y++;
 1746              		.loc 1 718 0 is_stmt 1 discriminator 3
 1747 0406 4B1E     		subs	r3, r1, #1
 1748 0408 03EB4303 		add	r3, r3, r3, lsl #1
 1749 040c C3EB0313 		rsb	r3, r3, r3, lsl #4
 1750 0410 1848     		ldr	r0, .L137+4
 1751 0412 0344     		add	r3, r3, r0
 1752 0414 1344     		add	r3, r3, r2
 1753 0416 93F82231 		ldrb	r3, [r3, #290]	@ zero_extendqisi2
 1754 041a 303B     		subs	r3, r3, #48
 1755 041c 1848     		ldr	r0, .L137+16
 1756 041e 0355     		strb	r3, [r0, r4]
 1757 0420 0134     		adds	r4, r4, #1
 1758              	.LVL212:
 1759 0422 A4B2     		uxth	r4, r4
 1760              	.LVL213:
 717:.\RFPoll.c    ****                     buffer_txTotals[y] = (side.b.totalsHandle[z-1][1][x])-48;y++;
ARM GAS  C:\Users\RECEPC~1\AppData\Local\Temp\cc4fvgjK.s 			page 46


 1761              		.loc 1 717 0 discriminator 3
 1762 0424 013A     		subs	r2, r2, #1
 1763              	.LVL214:
 1764 0426 92B2     		uxth	r2, r2
 1765              	.LVL215:
 1766              	.L125:
 717:.\RFPoll.c    ****                     buffer_txTotals[y] = (side.b.totalsHandle[z-1][1][x])-48;y++;
 1767              		.loc 1 717 0 is_stmt 0 discriminator 1
 1768 0428 002A     		cmp	r2, #0
 1769 042a ECD1     		bne	.L126
 1770              	.L123:
 698:.\RFPoll.c    ****             buffer_txTotals[y] = z; y++;                    
 1771              		.loc 1 698 0 is_stmt 1 discriminator 2
 1772 042c 0131     		adds	r1, r1, #1
 1773              	.LVL216:
 1774 042e 89B2     		uxth	r1, r1
 1775              	.LVL217:
 1776              	.L113:
 698:.\RFPoll.c    ****             buffer_txTotals[y] = z; y++;                    
 1777              		.loc 1 698 0 is_stmt 0 discriminator 1
 1778 0430 104B     		ldr	r3, .L137+4
 1779 0432 93F81432 		ldrb	r3, [r3, #532]	@ zero_extendqisi2
 1780 0436 8B42     		cmp	r3, r1
 1781 0438 85D2     		bcs	.L127
 719:.\RFPoll.c    ****                 }                        
 720:.\RFPoll.c    ****             } 
 721:.\RFPoll.c    ****         }
 722:.\RFPoll.c    ****         buffer_txTotals[8] = y-9;
 1782              		.loc 1 722 0 is_stmt 1
 1783 043a 114E     		ldr	r6, .L137+16
 1784 043c A4F10903 		sub	r3, r4, #9
 1785 0440 3372     		strb	r3, [r6, #8]
 723:.\RFPoll.c    ****         buffer_txTotals[y] = verificar_check(buffer_txTotals,y+1);y++;                 
 1786              		.loc 1 723 0
 1787 0442 651C     		adds	r5, r4, #1
 1788 0444 ADB2     		uxth	r5, r5
 1789 0446 3046     		mov	r0, r6
 1790 0448 2946     		mov	r1, r5
 1791              	.LVL218:
 1792 044a FFF7FEFF 		bl	verificar_check
 1793              	.LVL219:
 1794 044e 3055     		strb	r0, [r6, r4]
 1795              	.LVL220:
 724:.\RFPoll.c    ****         for (x = 0; x < y; x++){
 1796              		.loc 1 724 0
 1797 0450 0024     		movs	r4, #0
 1798 0452 05E0     		b	.L128
 1799              	.LVL221:
 1800              	.L129:
 725:.\RFPoll.c    ****             RF_Connection_PutChar(buffer_txTotals[x]);
 1801              		.loc 1 725 0 discriminator 3
 1802 0454 0A4B     		ldr	r3, .L137+16
 1803 0456 185D     		ldrb	r0, [r3, r4]	@ zero_extendqisi2
 1804 0458 FFF7FEFF 		bl	RF_Connection_PutChar
 1805              	.LVL222:
 724:.\RFPoll.c    ****         for (x = 0; x < y; x++){
 1806              		.loc 1 724 0 discriminator 3
ARM GAS  C:\Users\RECEPC~1\AppData\Local\Temp\cc4fvgjK.s 			page 47


 1807 045c 0134     		adds	r4, r4, #1
 1808              	.LVL223:
 1809 045e A4B2     		uxth	r4, r4
 1810              	.LVL224:
 1811              	.L128:
 724:.\RFPoll.c    ****         for (x = 0; x < y; x++){
 1812              		.loc 1 724 0 is_stmt 0 discriminator 1
 1813 0460 AC42     		cmp	r4, r5
 1814 0462 F7D3     		bcc	.L129
 726:.\RFPoll.c    ****         }        
 727:.\RFPoll.c    ****         side.b.RFstateReport = 0;        
 1815              		.loc 1 727 0 is_stmt 1
 1816 0464 0022     		movs	r2, #0
 1817 0466 034B     		ldr	r3, .L137+4
 1818 0468 83F81922 		strb	r2, [r3, #537]
 1819              	.LVL225:
 1820              	.L75:
 1821 046c 70BD     		pop	{r4, r5, r6, pc}
 1822              	.L138:
 1823 046e 00BF     		.align	2
 1824              	.L137:
 1825 0470 00000000 		.word	buffer_txEOT
 1826 0474 00000000 		.word	side
 1827 0478 00000000 		.word	bufferDisplay2
 1828 047c 00000000 		.word	pollTotals
 1829 0480 00000000 		.word	buffer_txTotals
 1830 0484 00000000 		.word	IDCast
 1831 0488 00000000 		.word	digits
 1832              		.cfi_endproc
 1833              	.LFE66:
 1834              		.size	pollingRFB_Tx, .-pollingRFB_Tx
 1835              		.section	.text.pollingRF_Rx,"ax",%progbits
 1836              		.align	2
 1837              		.global	pollingRF_Rx
 1838              		.thumb
 1839              		.thumb_func
 1840              		.type	pollingRF_Rx, %function
 1841              	pollingRF_Rx:
 1842              	.LFB64:
  54:.\RFPoll.c    ****     uint16 i,x,y;       
 1843              		.loc 1 54 0
 1844              		.cfi_startproc
 1845              		@ args = 0, pretend = 0, frame = 0
 1846              		@ frame_needed = 0, uses_anonymous_args = 0
 1847 0000 70B5     		push	{r4, r5, r6, lr}
 1848              		.cfi_def_cfa_offset 16
 1849              		.cfi_offset 4, -16
 1850              		.cfi_offset 5, -12
 1851              		.cfi_offset 6, -8
 1852              		.cfi_offset 14, -4
  56:.\RFPoll.c    ****     if(RF_Connection_GetRxBufferSize() >= 1){
 1853              		.loc 1 56 0
 1854 0002 3220     		movs	r0, #50
 1855 0004 FFF7FEFF 		bl	CyDelay
 1856              	.LVL226:
  57:.\RFPoll.c    ****         ActiveRF=1;
 1857              		.loc 1 57 0
ARM GAS  C:\Users\RECEPC~1\AppData\Local\Temp\cc4fvgjK.s 			page 48


 1858 0008 FFF7FEFF 		bl	RF_Connection_GetRxBufferSize
 1859              	.LVL227:
 1860 000c 0028     		cmp	r0, #0
 1861 000e 00F04884 		beq	.L139
  58:.\RFPoll.c    ****         counterRF = 0;
 1862              		.loc 1 58 0
 1863 0012 0122     		movs	r2, #1
 1864 0014 9C4B     		ldr	r3, .L238
 1865 0016 1A70     		strb	r2, [r3]
  59:.\RFPoll.c    ****         i=0;
 1866              		.loc 1 59 0
 1867 0018 0024     		movs	r4, #0
 1868 001a 9C4B     		ldr	r3, .L238+4
 1869 001c 1C70     		strb	r4, [r3]
 1870              	.LVL228:
  61:.\RFPoll.c    ****            buffer_rf[i]=RF_Connection_ReadRxData(); 	
 1871              		.loc 1 61 0
 1872 001e 05E0     		b	.L141
 1873              	.LVL229:
 1874              	.L142:
  62:.\RFPoll.c    ****     	   i++;	
 1875              		.loc 1 62 0
 1876 0020 FFF7FEFF 		bl	RF_Connection_ReadRxData
 1877              	.LVL230:
 1878 0024 9A4B     		ldr	r3, .L238+8
 1879 0026 1855     		strb	r0, [r3, r4]
  63:.\RFPoll.c    ****         } 
 1880              		.loc 1 63 0
 1881 0028 0134     		adds	r4, r4, #1
 1882              	.LVL231:
 1883 002a A4B2     		uxth	r4, r4
 1884              	.LVL232:
 1885              	.L141:
  61:.\RFPoll.c    ****            buffer_rf[i]=RF_Connection_ReadRxData(); 	
 1886              		.loc 1 61 0
 1887 002c FFF7FEFF 		bl	RF_Connection_GetRxBufferSize
 1888              	.LVL233:
 1889 0030 0028     		cmp	r0, #0
 1890 0032 F5D1     		bne	.L142
 1891              	.LVL234:
  66:.\RFPoll.c    ****         buffer_tx[y] = 0xCB; y++;
 1892              		.loc 1 66 0
 1893 0034 974B     		ldr	r3, .L238+12
 1894 0036 BC22     		movs	r2, #188
 1895 0038 1A70     		strb	r2, [r3]
 1896              	.LVL235:
  67:.\RFPoll.c    ****         buffer_tx[y] = 0xC8; y++;
 1897              		.loc 1 67 0
 1898 003a CB22     		movs	r2, #203
 1899 003c 5A70     		strb	r2, [r3, #1]
 1900              	.LVL236:
  68:.\RFPoll.c    ****         buffer_tx[y] = IDCast[0]; y++;
 1901              		.loc 1 68 0
 1902 003e C822     		movs	r2, #200
 1903 0040 9A70     		strb	r2, [r3, #2]
 1904              	.LVL237:
  69:.\RFPoll.c    ****         buffer_tx[y] = IDCast[1]; y++;
ARM GAS  C:\Users\RECEPC~1\AppData\Local\Temp\cc4fvgjK.s 			page 49


 1905              		.loc 1 69 0
 1906 0042 954A     		ldr	r2, .L238+16
 1907 0044 1178     		ldrb	r1, [r2]	@ zero_extendqisi2
 1908 0046 D970     		strb	r1, [r3, #3]
 1909              	.LVL238:
  70:.\RFPoll.c    ****         if(((buffer_rf[0]==0xBC)&&(buffer_rf[1]==0xBB)&&(buffer_rf[2]==0xB8)&&(buffer_rf[3]==IDCast
 1910              		.loc 1 70 0
 1911 0048 5278     		ldrb	r2, [r2, #1]	@ zero_extendqisi2
 1912 004a 1A71     		strb	r2, [r3, #4]
 1913              	.LVL239:
  71:.\RFPoll.c    ****             switch(buffer_rf[6]){
 1914              		.loc 1 71 0
 1915 004c 904B     		ldr	r3, .L238+8
 1916 004e 1B78     		ldrb	r3, [r3]	@ zero_extendqisi2
 1917 0050 BC2B     		cmp	r3, #188
 1918 0052 40F02484 		bne	.L143
  71:.\RFPoll.c    ****             switch(buffer_rf[6]){
 1919              		.loc 1 71 0 is_stmt 0 discriminator 1
 1920 0056 8E4B     		ldr	r3, .L238+8
 1921 0058 5B78     		ldrb	r3, [r3, #1]	@ zero_extendqisi2
 1922 005a BB2B     		cmp	r3, #187
 1923 005c 40F01F84 		bne	.L143
  71:.\RFPoll.c    ****             switch(buffer_rf[6]){
 1924              		.loc 1 71 0 discriminator 2
 1925 0060 8B4B     		ldr	r3, .L238+8
 1926 0062 9B78     		ldrb	r3, [r3, #2]	@ zero_extendqisi2
 1927 0064 B82B     		cmp	r3, #184
 1928 0066 40F01A84 		bne	.L143
  71:.\RFPoll.c    ****             switch(buffer_rf[6]){
 1929              		.loc 1 71 0 discriminator 3
 1930 006a 8B4B     		ldr	r3, .L238+16
 1931 006c 1B78     		ldrb	r3, [r3]	@ zero_extendqisi2
 1932 006e 884A     		ldr	r2, .L238+8
 1933 0070 D278     		ldrb	r2, [r2, #3]	@ zero_extendqisi2
 1934 0072 9A42     		cmp	r2, r3
 1935 0074 40F01384 		bne	.L143
  71:.\RFPoll.c    ****             switch(buffer_rf[6]){
 1936              		.loc 1 71 0 discriminator 4
 1937 0078 874B     		ldr	r3, .L238+16
 1938 007a 5B78     		ldrb	r3, [r3, #1]	@ zero_extendqisi2
 1939 007c 844A     		ldr	r2, .L238+8
 1940 007e 1279     		ldrb	r2, [r2, #4]	@ zero_extendqisi2
 1941 0080 9A42     		cmp	r2, r3
 1942 0082 40F00C84 		bne	.L143
  72:.\RFPoll.c    ****                case 0xA1:               //Peticion de estado
 1943              		.loc 1 72 0 is_stmt 1
 1944 0086 824B     		ldr	r3, .L238+8
 1945 0088 9B79     		ldrb	r3, [r3, #6]	@ zero_extendqisi2
 1946 008a A13B     		subs	r3, r3, #161
 1947 008c 432B     		cmp	r3, #67
 1948 008e 00F20684 		bhi	.L143
 1949 0092 DFE813F0 		tbh	[pc, r3, lsl #1]
 1950              	.L145:
 1951 0096 4400     		.2byte	(.L144-.L145)/2
 1952 0098 0404     		.2byte	(.L143-.L145)/2
 1953 009a 0404     		.2byte	(.L143-.L145)/2
 1954 009c 0404     		.2byte	(.L143-.L145)/2
ARM GAS  C:\Users\RECEPC~1\AppData\Local\Temp\cc4fvgjK.s 			page 50


 1955 009e 0901     		.2byte	(.L146-.L145)/2
 1956 00a0 5701     		.2byte	(.L147-.L145)/2
 1957 00a2 1402     		.2byte	(.L225-.L145)/2
 1958 00a4 0404     		.2byte	(.L143-.L145)/2
 1959 00a6 6702     		.2byte	(.L149-.L145)/2
 1960 00a8 0404     		.2byte	(.L143-.L145)/2
 1961 00aa 0404     		.2byte	(.L143-.L145)/2
 1962 00ac 0404     		.2byte	(.L143-.L145)/2
 1963 00ae 0404     		.2byte	(.L143-.L145)/2
 1964 00b0 0404     		.2byte	(.L143-.L145)/2
 1965 00b2 0404     		.2byte	(.L143-.L145)/2
 1966 00b4 0404     		.2byte	(.L143-.L145)/2
 1967 00b6 0404     		.2byte	(.L143-.L145)/2
 1968 00b8 0404     		.2byte	(.L143-.L145)/2
 1969 00ba 0404     		.2byte	(.L143-.L145)/2
 1970 00bc 0404     		.2byte	(.L143-.L145)/2
 1971 00be 0404     		.2byte	(.L143-.L145)/2
 1972 00c0 0404     		.2byte	(.L143-.L145)/2
 1973 00c2 0404     		.2byte	(.L143-.L145)/2
 1974 00c4 0404     		.2byte	(.L143-.L145)/2
 1975 00c6 0404     		.2byte	(.L143-.L145)/2
 1976 00c8 0404     		.2byte	(.L143-.L145)/2
 1977 00ca 0404     		.2byte	(.L143-.L145)/2
 1978 00cc 0404     		.2byte	(.L143-.L145)/2
 1979 00ce 0404     		.2byte	(.L143-.L145)/2
 1980 00d0 0404     		.2byte	(.L143-.L145)/2
 1981 00d2 0404     		.2byte	(.L143-.L145)/2
 1982 00d4 0404     		.2byte	(.L143-.L145)/2
 1983 00d6 0404     		.2byte	(.L143-.L145)/2
 1984 00d8 0404     		.2byte	(.L143-.L145)/2
 1985 00da 0404     		.2byte	(.L143-.L145)/2
 1986 00dc 0404     		.2byte	(.L143-.L145)/2
 1987 00de 0404     		.2byte	(.L143-.L145)/2
 1988 00e0 0404     		.2byte	(.L143-.L145)/2
 1989 00e2 0404     		.2byte	(.L143-.L145)/2
 1990 00e4 0404     		.2byte	(.L143-.L145)/2
 1991 00e6 0404     		.2byte	(.L143-.L145)/2
 1992 00e8 0404     		.2byte	(.L143-.L145)/2
 1993 00ea 0404     		.2byte	(.L143-.L145)/2
 1994 00ec 0404     		.2byte	(.L143-.L145)/2
 1995 00ee 0404     		.2byte	(.L143-.L145)/2
 1996 00f0 0404     		.2byte	(.L143-.L145)/2
 1997 00f2 0404     		.2byte	(.L143-.L145)/2
 1998 00f4 0404     		.2byte	(.L143-.L145)/2
 1999 00f6 0404     		.2byte	(.L143-.L145)/2
 2000 00f8 0404     		.2byte	(.L143-.L145)/2
 2001 00fa 0404     		.2byte	(.L143-.L145)/2
 2002 00fc 0404     		.2byte	(.L143-.L145)/2
 2003 00fe 0404     		.2byte	(.L143-.L145)/2
 2004 0100 0404     		.2byte	(.L143-.L145)/2
 2005 0102 0404     		.2byte	(.L143-.L145)/2
 2006 0104 0404     		.2byte	(.L143-.L145)/2
 2007 0106 0404     		.2byte	(.L143-.L145)/2
 2008 0108 0404     		.2byte	(.L143-.L145)/2
 2009 010a 0404     		.2byte	(.L143-.L145)/2
 2010 010c 0404     		.2byte	(.L143-.L145)/2
 2011 010e 0404     		.2byte	(.L143-.L145)/2
ARM GAS  C:\Users\RECEPC~1\AppData\Local\Temp\cc4fvgjK.s 			page 51


 2012 0110 0404     		.2byte	(.L143-.L145)/2
 2013 0112 0404     		.2byte	(.L143-.L145)/2
 2014 0114 0404     		.2byte	(.L143-.L145)/2
 2015 0116 ED02     		.2byte	(.L150-.L145)/2
 2016 0118 8903     		.2byte	(.L151-.L145)/2
 2017 011a 0404     		.2byte	(.L143-.L145)/2
 2018 011c B603     		.2byte	(.L152-.L145)/2
 2019              		.p2align 1
 2020              	.L144:
  74:.\RFPoll.c    ****                     if(bufferAready == 0){                        
 2021              		.loc 1 74 0
 2022 011e 5C4B     		ldr	r3, .L238+8
 2023 0120 5A79     		ldrb	r2, [r3, #5]	@ zero_extendqisi2
 2024 0122 5E4B     		ldr	r3, .L238+20
 2025 0124 1B78     		ldrb	r3, [r3]	@ zero_extendqisi2
 2026 0126 9A42     		cmp	r2, r3
 2027 0128 2ED1     		bne	.L226
  75:.\RFPoll.c    ****                         buffer_tx[5] = side.a.dir;y++;
 2028              		.loc 1 75 0
 2029 012a 5D4A     		ldr	r2, .L238+24
 2030 012c 1278     		ldrb	r2, [r2]	@ zero_extendqisi2
 2031 012e 12F0FF0F 		tst	r2, #255
 2032 0132 1FD1     		bne	.L227
  76:.\RFPoll.c    ****                         buffer_tx[y] = 0xA1;y++;
 2033              		.loc 1 76 0
 2034 0134 574C     		ldr	r4, .L238+12
 2035              	.LVL240:
 2036 0136 6371     		strb	r3, [r4, #5]
 2037              	.LVL241:
  77:.\RFPoll.c    ****                         buffer_tx[y] = side.a.rfState; y++;
 2038              		.loc 1 77 0
 2039 0138 A123     		movs	r3, #161
 2040 013a A371     		strb	r3, [r4, #6]
 2041              	.LVL242:
  78:.\RFPoll.c    ****                         buffer_tx[y] = verificar_check(buffer_tx,y+1);y++;
 2042              		.loc 1 78 0
 2043 013c 574B     		ldr	r3, .L238+20
 2044 013e 93F80331 		ldrb	r3, [r3, #259]	@ zero_extendqisi2
 2045 0142 E371     		strb	r3, [r4, #7]
 2046              	.LVL243:
  79:.\RFPoll.c    ****                         for (x = 0; x < y; x++){
 2047              		.loc 1 79 0
 2048 0144 2046     		mov	r0, r4
 2049 0146 0921     		movs	r1, #9
 2050 0148 FFF7FEFF 		bl	verificar_check
 2051              	.LVL244:
 2052 014c 2072     		strb	r0, [r4, #8]
 2053              	.LVL245:
  80:.\RFPoll.c    ****                             RF_Connection_PutChar(buffer_tx[x]);
 2054              		.loc 1 80 0
 2055 014e 0024     		movs	r4, #0
 2056 0150 05E0     		b	.L155
 2057              	.LVL246:
 2058              	.L156:
  81:.\RFPoll.c    ****                         }
 2059              		.loc 1 81 0 discriminator 3
 2060 0152 504B     		ldr	r3, .L238+12
ARM GAS  C:\Users\RECEPC~1\AppData\Local\Temp\cc4fvgjK.s 			page 52


 2061 0154 185D     		ldrb	r0, [r3, r4]	@ zero_extendqisi2
 2062 0156 FFF7FEFF 		bl	RF_Connection_PutChar
 2063              	.LVL247:
  80:.\RFPoll.c    ****                             RF_Connection_PutChar(buffer_tx[x]);
 2064              		.loc 1 80 0 discriminator 3
 2065 015a 0134     		adds	r4, r4, #1
 2066              	.LVL248:
 2067 015c A4B2     		uxth	r4, r4
 2068              	.LVL249:
 2069              	.L155:
  80:.\RFPoll.c    ****                             RF_Connection_PutChar(buffer_tx[x]);
 2070              		.loc 1 80 0 is_stmt 0 discriminator 1
 2071 015e 082C     		cmp	r4, #8
 2072 0160 F7D9     		bls	.L156
  79:.\RFPoll.c    ****                         for (x = 0; x < y; x++){
 2073              		.loc 1 79 0 is_stmt 1
 2074 0162 0924     		movs	r4, #9
 2075              	.LVL250:
 2076 0164 11E0     		b	.L153
 2077              	.LVL251:
 2078              	.L157:
  85:.\RFPoll.c    ****                         }
 2079              		.loc 1 85 0 discriminator 3
 2080 0166 4F4B     		ldr	r3, .L238+28
 2081 0168 185D     		ldrb	r0, [r3, r4]	@ zero_extendqisi2
 2082 016a FFF7FEFF 		bl	RF_Connection_PutChar
 2083              	.LVL252:
  84:.\RFPoll.c    ****                             RF_Connection_PutChar(buffer_A[x]);
 2084              		.loc 1 84 0 discriminator 3
 2085 016e 0134     		adds	r4, r4, #1
 2086              	.LVL253:
 2087 0170 A4B2     		uxth	r4, r4
 2088              	.LVL254:
 2089 0172 00E0     		b	.L154
 2090              	.LVL255:
 2091              	.L227:
 2092 0174 0124     		movs	r4, #1
 2093              	.LVL256:
 2094              	.L154:
  84:.\RFPoll.c    ****                             RF_Connection_PutChar(buffer_A[x]);
 2095              		.loc 1 84 0 is_stmt 0 discriminator 1
 2096 0176 4B4B     		ldr	r3, .L238+28
 2097 0178 1B78     		ldrb	r3, [r3]	@ zero_extendqisi2
 2098 017a A342     		cmp	r3, r4
 2099 017c F3D8     		bhi	.L157
  87:.\RFPoll.c    ****                     } 
 2100              		.loc 1 87 0 is_stmt 1
 2101 017e 0022     		movs	r2, #0
 2102 0180 474B     		ldr	r3, .L238+24
 2103 0182 1A70     		strb	r2, [r3]
  70:.\RFPoll.c    ****         if(((buffer_rf[0]==0xBC)&&(buffer_rf[1]==0xBB)&&(buffer_rf[2]==0xB8)&&(buffer_rf[3]==IDCast
 2104              		.loc 1 70 0
 2105 0184 0524     		movs	r4, #5
 2106              	.LVL257:
 2107 0186 00E0     		b	.L153
 2108              	.LVL258:
 2109              	.L226:
ARM GAS  C:\Users\RECEPC~1\AppData\Local\Temp\cc4fvgjK.s 			page 53


 2110 0188 0524     		movs	r4, #5
 2111              	.LVL259:
 2112              	.L153:
  90:.\RFPoll.c    ****                     if(side.b.RFstateReport == 0){
 2113              		.loc 1 90 0
 2114 018a 414B     		ldr	r3, .L238+8
 2115 018c 5A79     		ldrb	r2, [r3, #5]	@ zero_extendqisi2
 2116 018e 434B     		ldr	r3, .L238+20
 2117 0190 93F81231 		ldrb	r3, [r3, #274]	@ zero_extendqisi2
 2118 0194 9A42     		cmp	r2, r3
 2119 0196 26D1     		bne	.L158
  91:.\RFPoll.c    ****                         buffer_tx[5] = side.b.dir;y++;
 2120              		.loc 1 91 0
 2121 0198 404A     		ldr	r2, .L238+20
 2122 019a 92F81922 		ldrb	r2, [r2, #537]	@ zero_extendqisi2
 2123 019e 02BB     		cbnz	r2, .L159
  92:.\RFPoll.c    ****                         buffer_tx[y] = 0xA1;y++;
 2124              		.loc 1 92 0
 2125 01a0 3C4D     		ldr	r5, .L238+12
 2126 01a2 6B71     		strb	r3, [r5, #5]
 2127 01a4 631C     		adds	r3, r4, #1
 2128 01a6 9BB2     		uxth	r3, r3
 2129              	.LVL260:
  93:.\RFPoll.c    ****                         buffer_tx[y] = side.b.rfState;y++;
 2130              		.loc 1 93 0
 2131 01a8 A122     		movs	r2, #161
 2132 01aa EA54     		strb	r2, [r5, r3]
 2133 01ac 0133     		adds	r3, r3, #1
 2134              	.LVL261:
 2135 01ae 9BB2     		uxth	r3, r3
 2136              	.LVL262:
  94:.\RFPoll.c    ****                         buffer_tx[y] = verificar_check(buffer_tx,y+1);y++;
 2137              		.loc 1 94 0
 2138 01b0 3A4A     		ldr	r2, .L238+20
 2139 01b2 92F81522 		ldrb	r2, [r2, #533]	@ zero_extendqisi2
 2140 01b6 EA54     		strb	r2, [r5, r3]
 2141 01b8 5C1C     		adds	r4, r3, #1
 2142 01ba A4B2     		uxth	r4, r4
 2143              	.LVL263:
  95:.\RFPoll.c    ****                         for (x = 0; x < y; x++){
 2144              		.loc 1 95 0
 2145 01bc 991C     		adds	r1, r3, #2
 2146 01be 2846     		mov	r0, r5
 2147 01c0 89B2     		uxth	r1, r1
 2148 01c2 FFF7FEFF 		bl	verificar_check
 2149              	.LVL264:
 2150 01c6 2855     		strb	r0, [r5, r4]
 2151 01c8 0134     		adds	r4, r4, #1
 2152              	.LVL265:
 2153 01ca A4B2     		uxth	r4, r4
 2154              	.LVL266:
  96:.\RFPoll.c    ****                             RF_Connection_PutChar(buffer_tx[x]);
 2155              		.loc 1 96 0
 2156 01cc 0025     		movs	r5, #0
 2157 01ce 05E0     		b	.L160
 2158              	.LVL267:
 2159              	.L161:
ARM GAS  C:\Users\RECEPC~1\AppData\Local\Temp\cc4fvgjK.s 			page 54


  97:.\RFPoll.c    ****                         }
 2160              		.loc 1 97 0 discriminator 3
 2161 01d0 304B     		ldr	r3, .L238+12
 2162 01d2 585D     		ldrb	r0, [r3, r5]	@ zero_extendqisi2
 2163 01d4 FFF7FEFF 		bl	RF_Connection_PutChar
 2164              	.LVL268:
  96:.\RFPoll.c    ****                             RF_Connection_PutChar(buffer_tx[x]);
 2165              		.loc 1 96 0 discriminator 3
 2166 01d8 0135     		adds	r5, r5, #1
 2167              	.LVL269:
 2168 01da ADB2     		uxth	r5, r5
 2169              	.LVL270:
 2170              	.L160:
  96:.\RFPoll.c    ****                             RF_Connection_PutChar(buffer_tx[x]);
 2171              		.loc 1 96 0 is_stmt 0 discriminator 1
 2172 01dc A542     		cmp	r5, r4
 2173 01de F7D3     		bcc	.L161
 2174 01e0 01E0     		b	.L158
 2175              	.LVL271:
 2176              	.L159:
 100:.\RFPoll.c    ****                     } 
 2177              		.loc 1 100 0 is_stmt 1
 2178 01e2 FFF7FEFF 		bl	pollingRFB_Tx
 2179              	.LVL272:
 2180              	.L158:
 103:.\RFPoll.c    ****                     buffer_tx[5] = side.c.dir; y++;
 2181              		.loc 1 103 0
 2182 01e6 2A4B     		ldr	r3, .L238+8
 2183 01e8 5A79     		ldrb	r2, [r3, #5]	@ zero_extendqisi2
 2184 01ea 2C4B     		ldr	r3, .L238+20
 2185 01ec 93F82432 		ldrb	r3, [r3, #548]	@ zero_extendqisi2
 2186 01f0 9A42     		cmp	r2, r3
 2187 01f2 1FD1     		bne	.L162
 104:.\RFPoll.c    ****                     buffer_tx[y] = 0xA1; y++;
 2188              		.loc 1 104 0
 2189 01f4 274D     		ldr	r5, .L238+12
 2190 01f6 6B71     		strb	r3, [r5, #5]
 2191 01f8 631C     		adds	r3, r4, #1
 2192 01fa 9BB2     		uxth	r3, r3
 2193              	.LVL273:
 105:.\RFPoll.c    ****                     buffer_tx[y] = side.c.rfState; y++;
 2194              		.loc 1 105 0
 2195 01fc A122     		movs	r2, #161
 2196 01fe EA54     		strb	r2, [r5, r3]
 2197 0200 0133     		adds	r3, r3, #1
 2198              	.LVL274:
 2199 0202 9BB2     		uxth	r3, r3
 2200              	.LVL275:
 106:.\RFPoll.c    ****                     buffer_tx[y] = verificar_check(buffer_tx,y+1);y++;
 2201              		.loc 1 106 0
 2202 0204 254A     		ldr	r2, .L238+20
 2203 0206 92F82723 		ldrb	r2, [r2, #807]	@ zero_extendqisi2
 2204 020a EA54     		strb	r2, [r5, r3]
 2205 020c 5C1C     		adds	r4, r3, #1
 2206 020e A4B2     		uxth	r4, r4
 2207              	.LVL276:
 107:.\RFPoll.c    ****                     for (x = 0; x < y; x++){
ARM GAS  C:\Users\RECEPC~1\AppData\Local\Temp\cc4fvgjK.s 			page 55


 2208              		.loc 1 107 0
 2209 0210 991C     		adds	r1, r3, #2
 2210 0212 2846     		mov	r0, r5
 2211 0214 89B2     		uxth	r1, r1
 2212 0216 FFF7FEFF 		bl	verificar_check
 2213              	.LVL277:
 2214 021a 2855     		strb	r0, [r5, r4]
 2215 021c 0134     		adds	r4, r4, #1
 2216              	.LVL278:
 2217 021e A4B2     		uxth	r4, r4
 2218              	.LVL279:
 108:.\RFPoll.c    ****                         RF_Connection_PutChar(buffer_tx[x]);
 2219              		.loc 1 108 0
 2220 0220 0025     		movs	r5, #0
 2221 0222 05E0     		b	.L163
 2222              	.LVL280:
 2223              	.L164:
 109:.\RFPoll.c    ****                     }
 2224              		.loc 1 109 0 discriminator 3
 2225 0224 1B4B     		ldr	r3, .L238+12
 2226 0226 585D     		ldrb	r0, [r3, r5]	@ zero_extendqisi2
 2227 0228 FFF7FEFF 		bl	RF_Connection_PutChar
 2228              	.LVL281:
 108:.\RFPoll.c    ****                         RF_Connection_PutChar(buffer_tx[x]);
 2229              		.loc 1 108 0 discriminator 3
 2230 022c 0135     		adds	r5, r5, #1
 2231              	.LVL282:
 2232 022e ADB2     		uxth	r5, r5
 2233              	.LVL283:
 2234              	.L163:
 108:.\RFPoll.c    ****                         RF_Connection_PutChar(buffer_tx[x]);
 2235              		.loc 1 108 0 is_stmt 0 discriminator 1
 2236 0230 A542     		cmp	r5, r4
 2237 0232 F7D3     		bcc	.L164
 2238              	.LVL284:
 2239              	.L162:
 112:.\RFPoll.c    ****                     buffer_tx[5] = side.d.dir; y++;
 2240              		.loc 1 112 0 is_stmt 1
 2241 0234 164B     		ldr	r3, .L238+8
 2242 0236 5A79     		ldrb	r2, [r3, #5]	@ zero_extendqisi2
 2243 0238 184B     		ldr	r3, .L238+20
 2244 023a 93F83633 		ldrb	r3, [r3, #822]	@ zero_extendqisi2
 2245 023e 9A42     		cmp	r2, r3
 2246 0240 40F02D83 		bne	.L143
 113:.\RFPoll.c    ****                     buffer_tx[y] = 0xA1; y++;
 2247              		.loc 1 113 0
 2248 0244 134D     		ldr	r5, .L238+12
 2249 0246 6B71     		strb	r3, [r5, #5]
 2250 0248 631C     		adds	r3, r4, #1
 2251 024a 9BB2     		uxth	r3, r3
 2252              	.LVL285:
 114:.\RFPoll.c    ****                     buffer_tx[y] = side.d.rfState; y++;
 2253              		.loc 1 114 0
 2254 024c A122     		movs	r2, #161
 2255 024e EA54     		strb	r2, [r5, r3]
 2256 0250 0133     		adds	r3, r3, #1
 2257              	.LVL286:
ARM GAS  C:\Users\RECEPC~1\AppData\Local\Temp\cc4fvgjK.s 			page 56


 2258 0252 9BB2     		uxth	r3, r3
 2259              	.LVL287:
 115:.\RFPoll.c    ****                     buffer_tx[y] = verificar_check(buffer_tx,y+1);y++;
 2260              		.loc 1 115 0
 2261 0254 114A     		ldr	r2, .L238+20
 2262 0256 92F83924 		ldrb	r2, [r2, #1081]	@ zero_extendqisi2
 2263 025a EA54     		strb	r2, [r5, r3]
 2264 025c 5C1C     		adds	r4, r3, #1
 2265 025e A4B2     		uxth	r4, r4
 2266              	.LVL288:
 116:.\RFPoll.c    ****                     for (x = 0; x < y; x++){
 2267              		.loc 1 116 0
 2268 0260 991C     		adds	r1, r3, #2
 2269 0262 2846     		mov	r0, r5
 2270 0264 89B2     		uxth	r1, r1
 2271 0266 FFF7FEFF 		bl	verificar_check
 2272              	.LVL289:
 2273 026a 2855     		strb	r0, [r5, r4]
 2274 026c 0134     		adds	r4, r4, #1
 2275              	.LVL290:
 2276 026e A4B2     		uxth	r4, r4
 2277              	.LVL291:
 117:.\RFPoll.c    ****                         RF_Connection_PutChar(buffer_tx[x]);
 2278              		.loc 1 117 0
 2279 0270 0025     		movs	r5, #0
 2280 0272 05E0     		b	.L165
 2281              	.LVL292:
 2282              	.L166:
 118:.\RFPoll.c    ****                     }
 2283              		.loc 1 118 0 discriminator 3
 2284 0274 074B     		ldr	r3, .L238+12
 2285 0276 585D     		ldrb	r0, [r3, r5]	@ zero_extendqisi2
 2286 0278 FFF7FEFF 		bl	RF_Connection_PutChar
 2287              	.LVL293:
 117:.\RFPoll.c    ****                         RF_Connection_PutChar(buffer_tx[x]);
 2288              		.loc 1 117 0 discriminator 3
 2289 027c 0135     		adds	r5, r5, #1
 2290              	.LVL294:
 2291 027e ADB2     		uxth	r5, r5
 2292              	.LVL295:
 2293              	.L165:
 117:.\RFPoll.c    ****                         RF_Connection_PutChar(buffer_tx[x]);
 2294              		.loc 1 117 0 is_stmt 0 discriminator 1
 2295 0280 A542     		cmp	r5, r4
 2296 0282 F7D3     		bcc	.L166
 2297 0284 0BE3     		b	.L143
 2298              	.L239:
 2299 0286 00BF     		.align	2
 2300              	.L238:
 2301 0288 00000000 		.word	ActiveRF
 2302 028c 00000000 		.word	counterRF
 2303 0290 00000000 		.word	buffer_rf
 2304 0294 00000000 		.word	buffer_tx
 2305 0298 00000000 		.word	IDCast
 2306 029c 00000000 		.word	side
 2307 02a0 00000000 		.word	bufferAready
 2308 02a4 00000000 		.word	buffer_A
ARM GAS  C:\Users\RECEPC~1\AppData\Local\Temp\cc4fvgjK.s 			page 57


 2309              	.LVL296:
 2310              	.L146:
 125:.\RFPoll.c    ****                     pollTotals = 1;
 2311              		.loc 1 125 0 is_stmt 1
 2312 02a8 B24B     		ldr	r3, .L240
 2313 02aa 5A79     		ldrb	r2, [r3, #5]	@ zero_extendqisi2
 2314 02ac B24B     		ldr	r3, .L240+4
 2315 02ae 1B78     		ldrb	r3, [r3]	@ zero_extendqisi2
 2316 02b0 9A42     		cmp	r2, r3
 2317 02b2 1BD1     		bne	.L228
 126:.\RFPoll.c    ****                     buffer_tx[5] = side.a.dir;y++;
 2318              		.loc 1 126 0
 2319 02b4 0121     		movs	r1, #1
 2320 02b6 B14A     		ldr	r2, .L240+8
 2321 02b8 1170     		strb	r1, [r2]
 127:.\RFPoll.c    ****                     buffer_tx[y] = 0xA1;y++;
 2322              		.loc 1 127 0
 2323 02ba B14C     		ldr	r4, .L240+12
 2324              	.LVL297:
 2325 02bc 6371     		strb	r3, [r4, #5]
 2326              	.LVL298:
 128:.\RFPoll.c    ****                     buffer_tx[y] = side.a.rfState; y++;
 2327              		.loc 1 128 0
 2328 02be A123     		movs	r3, #161
 2329 02c0 A371     		strb	r3, [r4, #6]
 2330              	.LVL299:
 129:.\RFPoll.c    ****                     buffer_tx[y] = verificar_check(buffer_tx,y+1);y++;
 2331              		.loc 1 129 0
 2332 02c2 AD4B     		ldr	r3, .L240+4
 2333 02c4 93F80331 		ldrb	r3, [r3, #259]	@ zero_extendqisi2
 2334 02c8 E371     		strb	r3, [r4, #7]
 2335              	.LVL300:
 130:.\RFPoll.c    ****                     for (x = 0; x < y; x++){
 2336              		.loc 1 130 0
 2337 02ca 2046     		mov	r0, r4
 2338 02cc 0921     		movs	r1, #9
 2339 02ce FFF7FEFF 		bl	verificar_check
 2340              	.LVL301:
 2341 02d2 2072     		strb	r0, [r4, #8]
 2342              	.LVL302:
 131:.\RFPoll.c    ****                         RF_Connection_PutChar(buffer_tx[x]);
 2343              		.loc 1 131 0
 2344 02d4 0024     		movs	r4, #0
 2345 02d6 05E0     		b	.L168
 2346              	.LVL303:
 2347              	.L169:
 132:.\RFPoll.c    ****                     }                    
 2348              		.loc 1 132 0 discriminator 3
 2349 02d8 A94B     		ldr	r3, .L240+12
 2350 02da 185D     		ldrb	r0, [r3, r4]	@ zero_extendqisi2
 2351 02dc FFF7FEFF 		bl	RF_Connection_PutChar
 2352              	.LVL304:
 131:.\RFPoll.c    ****                         RF_Connection_PutChar(buffer_tx[x]);
 2353              		.loc 1 131 0 discriminator 3
 2354 02e0 0134     		adds	r4, r4, #1
 2355              	.LVL305:
 2356 02e2 A4B2     		uxth	r4, r4
ARM GAS  C:\Users\RECEPC~1\AppData\Local\Temp\cc4fvgjK.s 			page 58


 2357              	.LVL306:
 2358              	.L168:
 131:.\RFPoll.c    ****                         RF_Connection_PutChar(buffer_tx[x]);
 2359              		.loc 1 131 0 is_stmt 0 discriminator 1
 2360 02e4 082C     		cmp	r4, #8
 2361 02e6 F7D9     		bls	.L169
 130:.\RFPoll.c    ****                     for (x = 0; x < y; x++){
 2362              		.loc 1 130 0 is_stmt 1
 2363 02e8 0923     		movs	r3, #9
 2364 02ea 00E0     		b	.L167
 2365              	.LVL307:
 2366              	.L228:
  70:.\RFPoll.c    ****         if(((buffer_rf[0]==0xBC)&&(buffer_rf[1]==0xBB)&&(buffer_rf[2]==0xB8)&&(buffer_rf[3]==IDCast
 2367              		.loc 1 70 0
 2368 02ec 0523     		movs	r3, #5
 2369              	.LVL308:
 2370              	.L167:
 135:.\RFPoll.c    ****                     pollTotals = 2;
 2371              		.loc 1 135 0
 2372 02ee A14A     		ldr	r2, .L240
 2373 02f0 5179     		ldrb	r1, [r2, #5]	@ zero_extendqisi2
 2374 02f2 A14A     		ldr	r2, .L240+4
 2375 02f4 92F81221 		ldrb	r2, [r2, #274]	@ zero_extendqisi2
 2376 02f8 9142     		cmp	r1, r2
 2377 02fa 40F0D082 		bne	.L143
 136:.\RFPoll.c    ****                     buffer_tx[5] = side.b.dir;y++;
 2378              		.loc 1 136 0
 2379 02fe 0220     		movs	r0, #2
 2380 0300 9E49     		ldr	r1, .L240+8
 2381 0302 0870     		strb	r0, [r1]
 137:.\RFPoll.c    ****                     buffer_tx[y] = 0xA1;y++;
 2382              		.loc 1 137 0
 2383 0304 9E4D     		ldr	r5, .L240+12
 2384 0306 6A71     		strb	r2, [r5, #5]
 2385 0308 0133     		adds	r3, r3, #1
 2386              	.LVL309:
 138:.\RFPoll.c    ****                     buffer_tx[y] = side.b.rfState; y++;
 2387              		.loc 1 138 0
 2388 030a A122     		movs	r2, #161
 2389 030c EA54     		strb	r2, [r5, r3]
 2390 030e 0133     		adds	r3, r3, #1
 2391              	.LVL310:
 2392 0310 9BB2     		uxth	r3, r3
 2393              	.LVL311:
 139:.\RFPoll.c    ****                     buffer_tx[y] = verificar_check(buffer_tx,y+1);y++;
 2394              		.loc 1 139 0
 2395 0312 994A     		ldr	r2, .L240+4
 2396 0314 92F81522 		ldrb	r2, [r2, #533]	@ zero_extendqisi2
 2397 0318 EA54     		strb	r2, [r5, r3]
 2398 031a 5C1C     		adds	r4, r3, #1
 2399 031c A4B2     		uxth	r4, r4
 2400              	.LVL312:
 140:.\RFPoll.c    ****                     for (x = 0; x < y; x++){
 2401              		.loc 1 140 0
 2402 031e 1918     		adds	r1, r3, r0
 2403 0320 2846     		mov	r0, r5
 2404 0322 89B2     		uxth	r1, r1
ARM GAS  C:\Users\RECEPC~1\AppData\Local\Temp\cc4fvgjK.s 			page 59


 2405 0324 FFF7FEFF 		bl	verificar_check
 2406              	.LVL313:
 2407 0328 2855     		strb	r0, [r5, r4]
 2408 032a 0134     		adds	r4, r4, #1
 2409              	.LVL314:
 2410 032c A4B2     		uxth	r4, r4
 2411              	.LVL315:
 141:.\RFPoll.c    ****                         RF_Connection_PutChar(buffer_tx[x]);
 2412              		.loc 1 141 0
 2413 032e 0025     		movs	r5, #0
 2414 0330 05E0     		b	.L170
 2415              	.LVL316:
 2416              	.L171:
 142:.\RFPoll.c    ****                     }                    
 2417              		.loc 1 142 0 discriminator 3
 2418 0332 934B     		ldr	r3, .L240+12
 2419 0334 585D     		ldrb	r0, [r3, r5]	@ zero_extendqisi2
 2420 0336 FFF7FEFF 		bl	RF_Connection_PutChar
 2421              	.LVL317:
 141:.\RFPoll.c    ****                         RF_Connection_PutChar(buffer_tx[x]);
 2422              		.loc 1 141 0 discriminator 3
 2423 033a 0135     		adds	r5, r5, #1
 2424              	.LVL318:
 2425 033c ADB2     		uxth	r5, r5
 2426              	.LVL319:
 2427              	.L170:
 141:.\RFPoll.c    ****                         RF_Connection_PutChar(buffer_tx[x]);
 2428              		.loc 1 141 0 is_stmt 0 discriminator 1
 2429 033e A542     		cmp	r5, r4
 2430 0340 F7D3     		bcc	.L171
 2431 0342 ACE2     		b	.L143
 2432              	.LVL320:
 2433              	.L147:
 149:.\RFPoll.c    ****                     for(x=9;x < 14 ; x++ ){
 2434              		.loc 1 149 0 is_stmt 1
 2435 0344 8B4B     		ldr	r3, .L240
 2436 0346 5A79     		ldrb	r2, [r3, #5]	@ zero_extendqisi2
 2437 0348 8B4B     		ldr	r3, .L240+4
 2438 034a 1878     		ldrb	r0, [r3]	@ zero_extendqisi2
 2439 034c 8242     		cmp	r2, r0
 2440 034e 0DD0     		beq	.L229
  70:.\RFPoll.c    ****         if(((buffer_rf[0]==0xBC)&&(buffer_rf[1]==0xBB)&&(buffer_rf[2]==0xB8)&&(buffer_rf[3]==IDCast
 2441              		.loc 1 70 0
 2442 0350 0524     		movs	r4, #5
 2443              	.LVL321:
 2444 0352 1DE0     		b	.L173
 2445              	.LVL322:
 2446              	.L174:
 151:.\RFPoll.c    ****                     }
 2447              		.loc 1 151 0 discriminator 3
 2448 0354 874C     		ldr	r4, .L240
 2449 0356 257A     		ldrb	r5, [r4, #8]	@ zero_extendqisi2
 2450 0358 E45C     		ldrb	r4, [r4, r3]	@ zero_extendqisi2
 2451 035a 8749     		ldr	r1, .L240+4
 2452 035c 01EBC501 		add	r1, r1, r5, lsl #3
 2453 0360 1944     		add	r1, r1, r3
 2454 0362 81F8AC40 		strb	r4, [r1, #172]
ARM GAS  C:\Users\RECEPC~1\AppData\Local\Temp\cc4fvgjK.s 			page 60


 150:.\RFPoll.c    ****                         side.a.ppuAuthorized[buffer_rf[8]][x-9] = buffer_rf[x];
 2455              		.loc 1 150 0 discriminator 3
 2456 0366 0133     		adds	r3, r3, #1
 2457              	.LVL323:
 2458 0368 9BB2     		uxth	r3, r3
 2459              	.LVL324:
 2460 036a 00E0     		b	.L172
 2461              	.LVL325:
 2462              	.L229:
 2463 036c 0923     		movs	r3, #9
 2464              	.LVL326:
 2465              	.L172:
 150:.\RFPoll.c    ****                         side.a.ppuAuthorized[buffer_rf[8]][x-9] = buffer_rf[x];
 2466              		.loc 1 150 0 is_stmt 0 discriminator 1
 2467 036e 0D2B     		cmp	r3, #13
 2468 0370 F0D9     		bls	.L174
 153:.\RFPoll.c    ****                     side.a.grade = buffer_rf[8];
 2469              		.loc 1 153 0 is_stmt 1
 2470 0372 814B     		ldr	r3, .L240+4
 2471              	.LVL327:
 2472 0374 0121     		movs	r1, #1
 2473 0376 83F80511 		strb	r1, [r3, #261]
 154:.\RFPoll.c    ****                     buffer_tx[5] = side.a.dir;y++;
 2474              		.loc 1 154 0
 2475 037a 7E49     		ldr	r1, .L240
 2476 037c 097A     		ldrb	r1, [r1, #8]	@ zero_extendqisi2
 2477 037e 83F80611 		strb	r1, [r3, #262]
 155:.\RFPoll.c    ****                     buffer_tx[y] = 0xA6;y++;
 2478              		.loc 1 155 0
 2479 0382 7F4B     		ldr	r3, .L240+12
 2480 0384 5871     		strb	r0, [r3, #5]
 2481              	.LVL328:
 156:.\RFPoll.c    ****                     buffer_tx[y] = 0x03;y++;
 2482              		.loc 1 156 0
 2483 0386 A621     		movs	r1, #166
 2484 0388 9971     		strb	r1, [r3, #6]
 2485              	.LVL329:
 157:.\RFPoll.c    ****                 } 
 2486              		.loc 1 157 0
 2487 038a 0321     		movs	r1, #3
 2488 038c D971     		strb	r1, [r3, #7]
 2489              	.LVL330:
 2490 038e 0824     		movs	r4, #8
 2491              	.LVL331:
 2492              	.L173:
 159:.\RFPoll.c    ****                     for(x=9;x < 14 ; x++ ){
 2493              		.loc 1 159 0
 2494 0390 794B     		ldr	r3, .L240+4
 2495 0392 93F81201 		ldrb	r0, [r3, #274]	@ zero_extendqisi2
 2496 0396 8242     		cmp	r2, r0
 2497 0398 23D1     		bne	.L176
 2498 039a 0BE0     		b	.L230
 2499              	.LVL332:
 2500              	.L177:
 161:.\RFPoll.c    ****                     }
 2501              		.loc 1 161 0 discriminator 3
 2502 039c 754D     		ldr	r5, .L240
ARM GAS  C:\Users\RECEPC~1\AppData\Local\Temp\cc4fvgjK.s 			page 61


 2503 039e 2E7A     		ldrb	r6, [r5, #8]	@ zero_extendqisi2
 2504 03a0 ED5C     		ldrb	r5, [r5, r3]	@ zero_extendqisi2
 2505 03a2 7549     		ldr	r1, .L240+4
 2506 03a4 01EBC601 		add	r1, r1, r6, lsl #3
 2507 03a8 1944     		add	r1, r1, r3
 2508 03aa 81F8BE51 		strb	r5, [r1, #446]
 160:.\RFPoll.c    ****                         side.b.ppuAuthorized[buffer_rf[8]][x-9] = buffer_rf[x];
 2509              		.loc 1 160 0 discriminator 3
 2510 03ae 0133     		adds	r3, r3, #1
 2511              	.LVL333:
 2512 03b0 9BB2     		uxth	r3, r3
 2513              	.LVL334:
 2514 03b2 00E0     		b	.L175
 2515              	.LVL335:
 2516              	.L230:
 2517 03b4 0923     		movs	r3, #9
 2518              	.L175:
 2519              	.LVL336:
 160:.\RFPoll.c    ****                         side.b.ppuAuthorized[buffer_rf[8]][x-9] = buffer_rf[x];
 2520              		.loc 1 160 0 is_stmt 0 discriminator 1
 2521 03b6 0D2B     		cmp	r3, #13
 2522 03b8 F0D9     		bls	.L177
 163:.\RFPoll.c    ****                     side.b.grade = buffer_rf[8];
 2523              		.loc 1 163 0 is_stmt 1
 2524 03ba 6F4B     		ldr	r3, .L240+4
 2525              	.LVL337:
 2526 03bc 0121     		movs	r1, #1
 2527 03be 83F81712 		strb	r1, [r3, #535]
 164:.\RFPoll.c    ****                     buffer_tx[5] = side.b.dir; y++;
 2528              		.loc 1 164 0
 2529 03c2 6C49     		ldr	r1, .L240
 2530 03c4 097A     		ldrb	r1, [r1, #8]	@ zero_extendqisi2
 2531 03c6 83F81812 		strb	r1, [r3, #536]
 165:.\RFPoll.c    ****                     buffer_tx[y] = 0xA6;y++;
 2532              		.loc 1 165 0
 2533 03ca 6D49     		ldr	r1, .L240+12
 2534 03cc 4871     		strb	r0, [r1, #5]
 2535 03ce 631C     		adds	r3, r4, #1
 2536 03d0 9BB2     		uxth	r3, r3
 2537              	.LVL338:
 166:.\RFPoll.c    ****                     buffer_tx[y] = 0x03;y++;
 2538              		.loc 1 166 0
 2539 03d2 A620     		movs	r0, #166
 2540 03d4 C854     		strb	r0, [r1, r3]
 2541 03d6 0133     		adds	r3, r3, #1
 2542              	.LVL339:
 2543 03d8 9BB2     		uxth	r3, r3
 2544              	.LVL340:
 167:.\RFPoll.c    ****                 } 
 2545              		.loc 1 167 0
 2546 03da 0320     		movs	r0, #3
 2547 03dc C854     		strb	r0, [r1, r3]
 2548 03de 0133     		adds	r3, r3, #1
 2549              	.LVL341:
 2550 03e0 9CB2     		uxth	r4, r3
 2551              	.LVL342:
 2552              	.L176:
ARM GAS  C:\Users\RECEPC~1\AppData\Local\Temp\cc4fvgjK.s 			page 62


 169:.\RFPoll.c    ****                     for(x=9;x < 14 ; x++ ){
 2553              		.loc 1 169 0
 2554 03e2 654B     		ldr	r3, .L240+4
 2555 03e4 93F82402 		ldrb	r0, [r3, #548]	@ zero_extendqisi2
 2556 03e8 8242     		cmp	r2, r0
 2557 03ea 23D1     		bne	.L179
 2558 03ec 0BE0     		b	.L231
 2559              	.LVL343:
 2560              	.L180:
 171:.\RFPoll.c    ****                     }
 2561              		.loc 1 171 0 discriminator 3
 2562 03ee 614D     		ldr	r5, .L240
 2563 03f0 2E7A     		ldrb	r6, [r5, #8]	@ zero_extendqisi2
 2564 03f2 ED5C     		ldrb	r5, [r5, r3]	@ zero_extendqisi2
 2565 03f4 6049     		ldr	r1, .L240+4
 2566 03f6 01EBC601 		add	r1, r1, r6, lsl #3
 2567 03fa 1944     		add	r1, r1, r3
 2568 03fc 81F8D052 		strb	r5, [r1, #720]
 170:.\RFPoll.c    ****                         side.c.ppuAuthorized[buffer_rf[8]][x-9] = buffer_rf[x];
 2569              		.loc 1 170 0 discriminator 3
 2570 0400 0133     		adds	r3, r3, #1
 2571              	.LVL344:
 2572 0402 9BB2     		uxth	r3, r3
 2573              	.LVL345:
 2574 0404 00E0     		b	.L178
 2575              	.LVL346:
 2576              	.L231:
 2577 0406 0923     		movs	r3, #9
 2578              	.L178:
 2579              	.LVL347:
 170:.\RFPoll.c    ****                         side.c.ppuAuthorized[buffer_rf[8]][x-9] = buffer_rf[x];
 2580              		.loc 1 170 0 is_stmt 0 discriminator 1
 2581 0408 0D2B     		cmp	r3, #13
 2582 040a F0D9     		bls	.L180
 173:.\RFPoll.c    ****                     side.c.grade = buffer_rf[8];
 2583              		.loc 1 173 0 is_stmt 1
 2584 040c 5A4B     		ldr	r3, .L240+4
 2585              	.LVL348:
 2586 040e 0121     		movs	r1, #1
 2587 0410 83F82913 		strb	r1, [r3, #809]
 174:.\RFPoll.c    ****                     buffer_tx[5] = side.c.dir; y++;
 2588              		.loc 1 174 0
 2589 0414 5749     		ldr	r1, .L240
 2590 0416 097A     		ldrb	r1, [r1, #8]	@ zero_extendqisi2
 2591 0418 83F82A13 		strb	r1, [r3, #810]
 175:.\RFPoll.c    ****                     buffer_tx[y] = 0xA6;y++;
 2592              		.loc 1 175 0
 2593 041c 5849     		ldr	r1, .L240+12
 2594 041e 4871     		strb	r0, [r1, #5]
 2595 0420 631C     		adds	r3, r4, #1
 2596 0422 9BB2     		uxth	r3, r3
 2597              	.LVL349:
 176:.\RFPoll.c    ****                     buffer_tx[y] = 0x03;y++;
 2598              		.loc 1 176 0
 2599 0424 A620     		movs	r0, #166
 2600 0426 C854     		strb	r0, [r1, r3]
 2601 0428 0133     		adds	r3, r3, #1
ARM GAS  C:\Users\RECEPC~1\AppData\Local\Temp\cc4fvgjK.s 			page 63


 2602              	.LVL350:
 2603 042a 9BB2     		uxth	r3, r3
 2604              	.LVL351:
 177:.\RFPoll.c    ****                 } 
 2605              		.loc 1 177 0
 2606 042c 0320     		movs	r0, #3
 2607 042e C854     		strb	r0, [r1, r3]
 2608 0430 0133     		adds	r3, r3, #1
 2609              	.LVL352:
 2610 0432 9CB2     		uxth	r4, r3
 2611              	.LVL353:
 2612              	.L179:
 179:.\RFPoll.c    ****                     for(x=9;x < 14 ; x++ ){
 2613              		.loc 1 179 0
 2614 0434 504B     		ldr	r3, .L240+4
 2615 0436 93F83613 		ldrb	r1, [r3, #822]	@ zero_extendqisi2
 2616 043a 8A42     		cmp	r2, r1
 2617 043c 23D1     		bne	.L182
 2618 043e 0BE0     		b	.L232
 2619              	.LVL354:
 2620              	.L183:
 181:.\RFPoll.c    ****                     }
 2621              		.loc 1 181 0 discriminator 3
 2622 0440 4C48     		ldr	r0, .L240
 2623 0442 057A     		ldrb	r5, [r0, #8]	@ zero_extendqisi2
 2624 0444 C05C     		ldrb	r0, [r0, r3]	@ zero_extendqisi2
 2625 0446 4C4A     		ldr	r2, .L240+4
 2626 0448 02EBC502 		add	r2, r2, r5, lsl #3
 2627 044c 1A44     		add	r2, r2, r3
 2628 044e 82F8E203 		strb	r0, [r2, #994]
 180:.\RFPoll.c    ****                         side.d.ppuAuthorized[buffer_rf[8]][x-9] = buffer_rf[x];
 2629              		.loc 1 180 0 discriminator 3
 2630 0452 0133     		adds	r3, r3, #1
 2631              	.LVL355:
 2632 0454 9BB2     		uxth	r3, r3
 2633              	.LVL356:
 2634 0456 00E0     		b	.L181
 2635              	.LVL357:
 2636              	.L232:
 2637 0458 0923     		movs	r3, #9
 2638              	.L181:
 2639              	.LVL358:
 180:.\RFPoll.c    ****                         side.d.ppuAuthorized[buffer_rf[8]][x-9] = buffer_rf[x];
 2640              		.loc 1 180 0 is_stmt 0 discriminator 1
 2641 045a 0D2B     		cmp	r3, #13
 2642 045c F0D9     		bls	.L183
 183:.\RFPoll.c    ****                     side.d.grade = buffer_rf[8];
 2643              		.loc 1 183 0 is_stmt 1
 2644 045e 464B     		ldr	r3, .L240+4
 2645              	.LVL359:
 2646 0460 0122     		movs	r2, #1
 2647 0462 83F83B24 		strb	r2, [r3, #1083]
 184:.\RFPoll.c    ****                     buffer_tx[5] = side.d.dir; y++;
 2648              		.loc 1 184 0
 2649 0466 434A     		ldr	r2, .L240
 2650 0468 127A     		ldrb	r2, [r2, #8]	@ zero_extendqisi2
 2651 046a 83F83C24 		strb	r2, [r3, #1084]
ARM GAS  C:\Users\RECEPC~1\AppData\Local\Temp\cc4fvgjK.s 			page 64


 185:.\RFPoll.c    ****                     buffer_tx[y] = 0xA6;y++;
 2652              		.loc 1 185 0
 2653 046e 444A     		ldr	r2, .L240+12
 2654 0470 5171     		strb	r1, [r2, #5]
 2655 0472 631C     		adds	r3, r4, #1
 2656 0474 9BB2     		uxth	r3, r3
 2657              	.LVL360:
 186:.\RFPoll.c    ****                     buffer_tx[y] = 0x03;y++;
 2658              		.loc 1 186 0
 2659 0476 A621     		movs	r1, #166
 2660 0478 D154     		strb	r1, [r2, r3]
 2661 047a 0133     		adds	r3, r3, #1
 2662              	.LVL361:
 2663 047c 9BB2     		uxth	r3, r3
 2664              	.LVL362:
 187:.\RFPoll.c    ****                 }
 2665              		.loc 1 187 0
 2666 047e 0321     		movs	r1, #3
 2667 0480 D154     		strb	r1, [r2, r3]
 2668 0482 0133     		adds	r3, r3, #1
 2669              	.LVL363:
 2670 0484 9CB2     		uxth	r4, r3
 2671              	.LVL364:
 2672              	.L182:
 189:.\RFPoll.c    ****                 for (x = 0; x < y; x++){
 2673              		.loc 1 189 0
 2674 0486 651C     		adds	r5, r4, #1
 2675 0488 ADB2     		uxth	r5, r5
 2676 048a 3D4E     		ldr	r6, .L240+12
 2677 048c 3046     		mov	r0, r6
 2678 048e 2946     		mov	r1, r5
 2679 0490 FFF7FEFF 		bl	verificar_check
 2680              	.LVL365:
 2681 0494 3055     		strb	r0, [r6, r4]
 2682              	.LVL366:
 190:.\RFPoll.c    ****                     RF_Connection_PutChar(buffer_tx[x]);
 2683              		.loc 1 190 0
 2684 0496 0024     		movs	r4, #0
 2685 0498 05E0     		b	.L184
 2686              	.LVL367:
 2687              	.L185:
 191:.\RFPoll.c    ****                 }
 2688              		.loc 1 191 0 discriminator 3
 2689 049a 394B     		ldr	r3, .L240+12
 2690 049c 185D     		ldrb	r0, [r3, r4]	@ zero_extendqisi2
 2691 049e FFF7FEFF 		bl	RF_Connection_PutChar
 2692              	.LVL368:
 190:.\RFPoll.c    ****                     RF_Connection_PutChar(buffer_tx[x]);
 2693              		.loc 1 190 0 discriminator 3
 2694 04a2 0134     		adds	r4, r4, #1
 2695              	.LVL369:
 2696 04a4 A4B2     		uxth	r4, r4
 2697              	.LVL370:
 2698              	.L184:
 190:.\RFPoll.c    ****                     RF_Connection_PutChar(buffer_tx[x]);
 2699              		.loc 1 190 0 is_stmt 0 discriminator 1
 2700 04a6 AC42     		cmp	r4, r5
ARM GAS  C:\Users\RECEPC~1\AppData\Local\Temp\cc4fvgjK.s 			page 65


 2701 04a8 F7D3     		bcc	.L185
 2702 04aa F8E1     		b	.L143
 2703              	.LVL371:
 2704              	.L186:
 198:.\RFPoll.c    ****                 }
 2705              		.loc 1 198 0 is_stmt 1 discriminator 3
 2706 04ac 354B     		ldr	r3, .L240+16
 2707 04ae 1878     		ldrb	r0, [r3]	@ zero_extendqisi2
 2708 04b0 304B     		ldr	r3, .L240
 2709 04b2 195D     		ldrb	r1, [r3, r4]	@ zero_extendqisi2
 2710 04b4 FFF7FEFF 		bl	write_psoc1
 2711              	.LVL372:
 196:.\RFPoll.c    ****                     //buffer_print[x-9] = buffer_rf[x];
 2712              		.loc 1 196 0 discriminator 3
 2713 04b8 0134     		adds	r4, r4, #1
 2714              	.LVL373:
 2715 04ba A4B2     		uxth	r4, r4
 2716              	.LVL374:
 2717 04bc 00E0     		b	.L148
 2718              	.LVL375:
 2719              	.L225:
  72:.\RFPoll.c    ****                case 0xA1:               //Peticion de estado
 2720              		.loc 1 72 0
 2721 04be 0924     		movs	r4, #9
 2722              	.LVL376:
 2723              	.L148:
 196:.\RFPoll.c    ****                     //buffer_print[x-9] = buffer_rf[x];
 2724              		.loc 1 196 0 discriminator 1
 2725 04c0 2C4B     		ldr	r3, .L240
 2726 04c2 1B7A     		ldrb	r3, [r3, #8]	@ zero_extendqisi2
 2727 04c4 A342     		cmp	r3, r4
 2728 04c6 F1D2     		bcs	.L186
 200:.\RFPoll.c    ****                     buffer_tx[5] = side.a.dir;
 2729              		.loc 1 200 0
 2730 04c8 2A4B     		ldr	r3, .L240
 2731 04ca 5B79     		ldrb	r3, [r3, #5]	@ zero_extendqisi2
 2732 04cc 2A4A     		ldr	r2, .L240+4
 2733 04ce 1178     		ldrb	r1, [r2]	@ zero_extendqisi2
 2734 04d0 8B42     		cmp	r3, r1
 2735 04d2 09D1     		bne	.L187
 201:.\RFPoll.c    ****                     buffer_tx[6] = 0xA7;
 2736              		.loc 1 201 0
 2737 04d4 2A4A     		ldr	r2, .L240+12
 2738 04d6 5171     		strb	r1, [r2, #5]
 202:.\RFPoll.c    ****                     buffer_tx[7] = side.a.rfState;
 2739              		.loc 1 202 0
 2740 04d8 A721     		movs	r1, #167
 2741 04da 9171     		strb	r1, [r2, #6]
 203:.\RFPoll.c    ****                     buffer_tx[8] = 0x03;
 2742              		.loc 1 203 0
 2743 04dc 2649     		ldr	r1, .L240+4
 2744 04de 91F80311 		ldrb	r1, [r1, #259]	@ zero_extendqisi2
 2745 04e2 D171     		strb	r1, [r2, #7]
 204:.\RFPoll.c    ****                 }  
 2746              		.loc 1 204 0
 2747 04e4 0321     		movs	r1, #3
 2748 04e6 1172     		strb	r1, [r2, #8]
ARM GAS  C:\Users\RECEPC~1\AppData\Local\Temp\cc4fvgjK.s 			page 66


 2749              	.L187:
 206:.\RFPoll.c    ****                     buffer_tx[5] = side.b.dir;
 2750              		.loc 1 206 0
 2751 04e8 234A     		ldr	r2, .L240+4
 2752 04ea 92F81211 		ldrb	r1, [r2, #274]	@ zero_extendqisi2
 2753 04ee 8B42     		cmp	r3, r1
 2754 04f0 09D1     		bne	.L188
 207:.\RFPoll.c    ****                     buffer_tx[6] = 0xA7;
 2755              		.loc 1 207 0
 2756 04f2 234A     		ldr	r2, .L240+12
 2757 04f4 5171     		strb	r1, [r2, #5]
 208:.\RFPoll.c    ****                     buffer_tx[7] = side.b.rfState;
 2758              		.loc 1 208 0
 2759 04f6 A721     		movs	r1, #167
 2760 04f8 9171     		strb	r1, [r2, #6]
 209:.\RFPoll.c    ****                     buffer_tx[8] = 0x03;
 2761              		.loc 1 209 0
 2762 04fa 1F49     		ldr	r1, .L240+4
 2763 04fc 91F81512 		ldrb	r1, [r1, #533]	@ zero_extendqisi2
 2764 0500 D171     		strb	r1, [r2, #7]
 210:.\RFPoll.c    ****                 }
 2765              		.loc 1 210 0
 2766 0502 0321     		movs	r1, #3
 2767 0504 1172     		strb	r1, [r2, #8]
 2768              	.L188:
 212:.\RFPoll.c    ****                     buffer_tx[5] = side.c.dir;
 2769              		.loc 1 212 0
 2770 0506 1C4A     		ldr	r2, .L240+4
 2771 0508 92F82412 		ldrb	r1, [r2, #548]	@ zero_extendqisi2
 2772 050c 8B42     		cmp	r3, r1
 2773 050e 09D1     		bne	.L189
 213:.\RFPoll.c    ****                     buffer_tx[6] = 0xA7;
 2774              		.loc 1 213 0
 2775 0510 1B4A     		ldr	r2, .L240+12
 2776 0512 5171     		strb	r1, [r2, #5]
 214:.\RFPoll.c    ****                     buffer_tx[7] = side.c.rfState;
 2777              		.loc 1 214 0
 2778 0514 A721     		movs	r1, #167
 2779 0516 9171     		strb	r1, [r2, #6]
 215:.\RFPoll.c    ****                     buffer_tx[8] = 0x03;
 2780              		.loc 1 215 0
 2781 0518 1749     		ldr	r1, .L240+4
 2782 051a 91F82713 		ldrb	r1, [r1, #807]	@ zero_extendqisi2
 2783 051e D171     		strb	r1, [r2, #7]
 216:.\RFPoll.c    ****                 }
 2784              		.loc 1 216 0
 2785 0520 0321     		movs	r1, #3
 2786 0522 1172     		strb	r1, [r2, #8]
 2787              	.L189:
 218:.\RFPoll.c    ****                     buffer_tx[5] = side.d.dir;
 2788              		.loc 1 218 0
 2789 0524 144A     		ldr	r2, .L240+4
 2790 0526 92F83623 		ldrb	r2, [r2, #822]	@ zero_extendqisi2
 2791 052a 9342     		cmp	r3, r2
 2792 052c 09D1     		bne	.L190
 219:.\RFPoll.c    ****                     buffer_tx[6] = 0xA7;
 2793              		.loc 1 219 0
ARM GAS  C:\Users\RECEPC~1\AppData\Local\Temp\cc4fvgjK.s 			page 67


 2794 052e 144B     		ldr	r3, .L240+12
 2795 0530 5A71     		strb	r2, [r3, #5]
 220:.\RFPoll.c    ****                     buffer_tx[7] = side.d.rfState;
 2796              		.loc 1 220 0
 2797 0532 A722     		movs	r2, #167
 2798 0534 9A71     		strb	r2, [r3, #6]
 221:.\RFPoll.c    ****                     buffer_tx[8] = 0x03;
 2799              		.loc 1 221 0
 2800 0536 104A     		ldr	r2, .L240+4
 2801 0538 92F83924 		ldrb	r2, [r2, #1081]	@ zero_extendqisi2
 2802 053c DA71     		strb	r2, [r3, #7]
 222:.\RFPoll.c    ****                 }
 2803              		.loc 1 222 0
 2804 053e 0322     		movs	r2, #3
 2805 0540 1A72     		strb	r2, [r3, #8]
 2806              	.L190:
 224:.\RFPoll.c    ****                 for (x = 0; x < 9; x++){
 2807              		.loc 1 224 0
 2808 0542 0F4C     		ldr	r4, .L240+12
 2809              	.LVL377:
 2810 0544 2046     		mov	r0, r4
 2811 0546 0921     		movs	r1, #9
 2812 0548 FFF7FEFF 		bl	verificar_check
 2813              	.LVL378:
 2814 054c 2072     		strb	r0, [r4, #8]
 2815              	.LVL379:
 225:.\RFPoll.c    ****                     RF_Connection_PutChar(buffer_tx[x]);
 2816              		.loc 1 225 0
 2817 054e 0024     		movs	r4, #0
 2818 0550 05E0     		b	.L191
 2819              	.LVL380:
 2820              	.L192:
 226:.\RFPoll.c    ****                 }
 2821              		.loc 1 226 0 discriminator 3
 2822 0552 0B4B     		ldr	r3, .L240+12
 2823 0554 185D     		ldrb	r0, [r3, r4]	@ zero_extendqisi2
 2824 0556 FFF7FEFF 		bl	RF_Connection_PutChar
 2825              	.LVL381:
 225:.\RFPoll.c    ****                     RF_Connection_PutChar(buffer_tx[x]);
 2826              		.loc 1 225 0 discriminator 3
 2827 055a 0134     		adds	r4, r4, #1
 2828              	.LVL382:
 2829 055c A4B2     		uxth	r4, r4
 2830              	.LVL383:
 2831              	.L191:
 225:.\RFPoll.c    ****                     RF_Connection_PutChar(buffer_tx[x]);
 2832              		.loc 1 225 0 is_stmt 0 discriminator 1
 2833 055e 082C     		cmp	r4, #8
 2834 0560 F7D9     		bls	.L192
 2835 0562 9CE1     		b	.L143
 2836              	.LVL384:
 2837              	.L149:
 233:.\RFPoll.c    ****                     for(x = 0; x < 10; x++){
 2838              		.loc 1 233 0 is_stmt 1
 2839 0564 034B     		ldr	r3, .L240
 2840 0566 5B79     		ldrb	r3, [r3, #5]	@ zero_extendqisi2
 2841 0568 034A     		ldr	r2, .L240+4
ARM GAS  C:\Users\RECEPC~1\AppData\Local\Temp\cc4fvgjK.s 			page 68


 2842 056a 1178     		ldrb	r1, [r2]	@ zero_extendqisi2
 2843 056c 8B42     		cmp	r3, r1
 2844 056e 21D1     		bne	.L194
 2845 0570 15E0     		b	.L233
 2846              	.L241:
 2847 0572 00BF     		.align	2
 2848              	.L240:
 2849 0574 00000000 		.word	buffer_rf
 2850 0578 00000000 		.word	side
 2851 057c 00000000 		.word	pollTotals
 2852 0580 00000000 		.word	buffer_tx
 2853 0584 00000000 		.word	printPortA
 2854              	.LVL385:
 2855              	.L195:
 235:.\RFPoll.c    ****                     }
 2856              		.loc 1 235 0 discriminator 3
 2857 0588 03F10802 		add	r2, r3, #8
 2858 058c A648     		ldr	r0, .L242
 2859 058e 805C     		ldrb	r0, [r0, r2]	@ zero_extendqisi2
 2860 0590 A64A     		ldr	r2, .L242+4
 2861 0592 1A44     		add	r2, r2, r3
 2862 0594 82F80801 		strb	r0, [r2, #264]
 234:.\RFPoll.c    ****                         side.a.saleNumber[x] = buffer_rf[x+8];
 2863              		.loc 1 234 0 discriminator 3
 2864 0598 0133     		adds	r3, r3, #1
 2865              	.LVL386:
 2866 059a 9BB2     		uxth	r3, r3
 2867              	.LVL387:
 2868 059c 00E0     		b	.L193
 2869              	.LVL388:
 2870              	.L233:
 2871 059e 0023     		movs	r3, #0
 2872              	.L193:
 2873              	.LVL389:
 234:.\RFPoll.c    ****                         side.a.saleNumber[x] = buffer_rf[x+8];
 2874              		.loc 1 234 0 is_stmt 0 discriminator 1
 2875 05a0 092B     		cmp	r3, #9
 2876 05a2 F1D9     		bls	.L195
 237:.\RFPoll.c    ****                         imprimir(printPortA,side.a.dir); 
 2877              		.loc 1 237 0 is_stmt 1
 2878 05a4 A24B     		ldr	r3, .L242+8
 2879              	.LVL390:
 2880 05a6 93F83431 		ldrb	r3, [r3, #308]	@ zero_extendqisi2
 2881 05aa 1BB1     		cbz	r3, .L194
 238:.\RFPoll.c    ****                 }
 2882              		.loc 1 238 0
 2883 05ac A14B     		ldr	r3, .L242+12
 2884 05ae 1878     		ldrb	r0, [r3]	@ zero_extendqisi2
 2885 05b0 FFF7FEFF 		bl	imprimir
 2886              	.LVL391:
 2887              	.L194:
 240:.\RFPoll.c    ****                     for(x = 0; x < 10; x++){
 2888              		.loc 1 240 0
 2889 05b4 9C4B     		ldr	r3, .L242
 2890 05b6 5B79     		ldrb	r3, [r3, #5]	@ zero_extendqisi2
 2891 05b8 9C4A     		ldr	r2, .L242+4
 2892 05ba 92F81211 		ldrb	r1, [r2, #274]	@ zero_extendqisi2
ARM GAS  C:\Users\RECEPC~1\AppData\Local\Temp\cc4fvgjK.s 			page 69


 2893 05be 8B42     		cmp	r3, r1
 2894 05c0 16D1     		bne	.L197
 2895 05c2 0AE0     		b	.L234
 2896              	.LVL392:
 2897              	.L198:
 242:.\RFPoll.c    ****                     }
 2898              		.loc 1 242 0 discriminator 3
 2899 05c4 03F10802 		add	r2, r3, #8
 2900 05c8 9748     		ldr	r0, .L242
 2901 05ca 805C     		ldrb	r0, [r0, r2]	@ zero_extendqisi2
 2902 05cc 974A     		ldr	r2, .L242+4
 2903 05ce 1A44     		add	r2, r2, r3
 2904 05d0 82F81A02 		strb	r0, [r2, #538]
 241:.\RFPoll.c    ****                         side.b.saleNumber[x] = buffer_rf[x+8];
 2905              		.loc 1 241 0 discriminator 3
 2906 05d4 0133     		adds	r3, r3, #1
 2907              	.LVL393:
 2908 05d6 9BB2     		uxth	r3, r3
 2909              	.LVL394:
 2910 05d8 00E0     		b	.L196
 2911              	.LVL395:
 2912              	.L234:
 2913 05da 0023     		movs	r3, #0
 2914              	.L196:
 2915              	.LVL396:
 241:.\RFPoll.c    ****                         side.b.saleNumber[x] = buffer_rf[x+8];
 2916              		.loc 1 241 0 is_stmt 0 discriminator 1
 2917 05dc 092B     		cmp	r3, #9
 2918 05de F1D9     		bls	.L198
 244:.\RFPoll.c    ****                         imprimir(printPortB,side.b.dir); 
 2919              		.loc 1 244 0 is_stmt 1
 2920 05e0 954B     		ldr	r3, .L242+16
 2921              	.LVL397:
 2922 05e2 93F83431 		ldrb	r3, [r3, #308]	@ zero_extendqisi2
 2923 05e6 1BB1     		cbz	r3, .L197
 245:.\RFPoll.c    ****                 }
 2924              		.loc 1 245 0
 2925 05e8 944B     		ldr	r3, .L242+20
 2926 05ea 1878     		ldrb	r0, [r3]	@ zero_extendqisi2
 2927 05ec FFF7FEFF 		bl	imprimir
 2928              	.LVL398:
 2929              	.L197:
 247:.\RFPoll.c    ****                     for(x = 0; x < 10; x++){
 2930              		.loc 1 247 0
 2931 05f0 8D4B     		ldr	r3, .L242
 2932 05f2 5B79     		ldrb	r3, [r3, #5]	@ zero_extendqisi2
 2933 05f4 8D4A     		ldr	r2, .L242+4
 2934 05f6 92F82412 		ldrb	r1, [r2, #548]	@ zero_extendqisi2
 2935 05fa 8B42     		cmp	r3, r1
 2936 05fc 16D1     		bne	.L200
 2937 05fe 0AE0     		b	.L235
 2938              	.LVL399:
 2939              	.L201:
 249:.\RFPoll.c    ****                     }
 2940              		.loc 1 249 0 discriminator 3
 2941 0600 03F10802 		add	r2, r3, #8
 2942 0604 8848     		ldr	r0, .L242
ARM GAS  C:\Users\RECEPC~1\AppData\Local\Temp\cc4fvgjK.s 			page 70


 2943 0606 805C     		ldrb	r0, [r0, r2]	@ zero_extendqisi2
 2944 0608 884A     		ldr	r2, .L242+4
 2945 060a 1A44     		add	r2, r2, r3
 2946 060c 82F82C03 		strb	r0, [r2, #812]
 248:.\RFPoll.c    ****                         side.c.saleNumber[x] = buffer_rf[x+8];
 2947              		.loc 1 248 0 discriminator 3
 2948 0610 0133     		adds	r3, r3, #1
 2949              	.LVL400:
 2950 0612 9BB2     		uxth	r3, r3
 2951              	.LVL401:
 2952 0614 00E0     		b	.L199
 2953              	.LVL402:
 2954              	.L235:
 2955 0616 0023     		movs	r3, #0
 2956              	.L199:
 2957              	.LVL403:
 248:.\RFPoll.c    ****                         side.c.saleNumber[x] = buffer_rf[x+8];
 2958              		.loc 1 248 0 is_stmt 0 discriminator 1
 2959 0618 092B     		cmp	r3, #9
 2960 061a F1D9     		bls	.L201
 251:.\RFPoll.c    ****                         imprimir(printPortA,side.c.dir); 
 2961              		.loc 1 251 0 is_stmt 1
 2962 061c 884B     		ldr	r3, .L242+24
 2963              	.LVL404:
 2964 061e 93F83431 		ldrb	r3, [r3, #308]	@ zero_extendqisi2
 2965 0622 1BB1     		cbz	r3, .L200
 252:.\RFPoll.c    ****                 }
 2966              		.loc 1 252 0
 2967 0624 834B     		ldr	r3, .L242+12
 2968 0626 1878     		ldrb	r0, [r3]	@ zero_extendqisi2
 2969 0628 FFF7FEFF 		bl	imprimir
 2970              	.LVL405:
 2971              	.L200:
 254:.\RFPoll.c    ****                     for(x = 0; x < 10; x++){
 2972              		.loc 1 254 0
 2973 062c 7E4B     		ldr	r3, .L242
 2974 062e 5B79     		ldrb	r3, [r3, #5]	@ zero_extendqisi2
 2975 0630 7E4A     		ldr	r2, .L242+4
 2976 0632 92F83613 		ldrb	r1, [r2, #822]	@ zero_extendqisi2
 2977 0636 8B42     		cmp	r3, r1
 2978 0638 40F03181 		bne	.L143
 2979 063c 0AE0     		b	.L236
 2980              	.LVL406:
 2981              	.L203:
 256:.\RFPoll.c    ****                     }
 2982              		.loc 1 256 0 discriminator 3
 2983 063e 03F10802 		add	r2, r3, #8
 2984 0642 7948     		ldr	r0, .L242
 2985 0644 805C     		ldrb	r0, [r0, r2]	@ zero_extendqisi2
 2986 0646 794A     		ldr	r2, .L242+4
 2987 0648 1A44     		add	r2, r2, r3
 2988 064a 82F83E04 		strb	r0, [r2, #1086]
 255:.\RFPoll.c    ****                         side.d.saleNumber[x] = buffer_rf[x+8];
 2989              		.loc 1 255 0 discriminator 3
 2990 064e 0133     		adds	r3, r3, #1
 2991              	.LVL407:
 2992 0650 9BB2     		uxth	r3, r3
ARM GAS  C:\Users\RECEPC~1\AppData\Local\Temp\cc4fvgjK.s 			page 71


 2993              	.LVL408:
 2994 0652 00E0     		b	.L202
 2995              	.LVL409:
 2996              	.L236:
 2997 0654 0023     		movs	r3, #0
 2998              	.L202:
 2999              	.LVL410:
 255:.\RFPoll.c    ****                         side.d.saleNumber[x] = buffer_rf[x+8];
 3000              		.loc 1 255 0 is_stmt 0 discriminator 1
 3001 0656 092B     		cmp	r3, #9
 3002 0658 F1D9     		bls	.L203
 258:.\RFPoll.c    ****                         imprimir(printPortB,side.d.dir); 
 3003              		.loc 1 258 0 is_stmt 1
 3004 065a 7A4B     		ldr	r3, .L242+28
 3005              	.LVL411:
 3006 065c 93F83431 		ldrb	r3, [r3, #308]	@ zero_extendqisi2
 3007 0660 002B     		cmp	r3, #0
 3008 0662 00F01C81 		beq	.L143
 259:.\RFPoll.c    ****                 }
 3009              		.loc 1 259 0
 3010 0666 754B     		ldr	r3, .L242+20
 3011 0668 1878     		ldrb	r0, [r3]	@ zero_extendqisi2
 3012 066a FFF7FEFF 		bl	imprimir
 3013              	.LVL412:
 3014 066e 16E1     		b	.L143
 3015              	.L150:
 267:.\RFPoll.c    ****                 date[0]    = buffer_rf[9];
 3016              		.loc 1 267 0
 3017 0670 6D4B     		ldr	r3, .L242
 3018 0672 197A     		ldrb	r1, [r3, #8]	@ zero_extendqisi2
 3019 0674 744A     		ldr	r2, .L242+32
 3020 0676 5170     		strb	r1, [r2, #1]
 268:.\RFPoll.c    ****                 date[1]    = buffer_rf[10];
 3021              		.loc 1 268 0
 3022 0678 597A     		ldrb	r1, [r3, #9]	@ zero_extendqisi2
 3023 067a 744A     		ldr	r2, .L242+36
 3024 067c 1170     		strb	r1, [r2]
 269:.\RFPoll.c    ****                 date[2]    = buffer_rf[11];
 3025              		.loc 1 269 0
 3026 067e 997A     		ldrb	r1, [r3, #10]	@ zero_extendqisi2
 3027 0680 5170     		strb	r1, [r2, #1]
 270:.\RFPoll.c    ****                 time[1]    = buffer_rf[12];
 3028              		.loc 1 270 0
 3029 0682 D97A     		ldrb	r1, [r3, #11]	@ zero_extendqisi2
 3030 0684 9170     		strb	r1, [r2, #2]
 271:.\RFPoll.c    ****                 time[0]    = buffer_rf[13];
 3031              		.loc 1 271 0
 3032 0686 197B     		ldrb	r1, [r3, #12]	@ zero_extendqisi2
 3033 0688 714A     		ldr	r2, .L242+40
 3034 068a 5170     		strb	r1, [r2, #1]
 272:.\RFPoll.c    ****                 for(x = 17; x < 47; x++){
 3035              		.loc 1 272 0
 3036 068c 5B7B     		ldrb	r3, [r3, #13]	@ zero_extendqisi2
 3037 068e 1370     		strb	r3, [r2]
 3038              	.LVL413:
 273:.\RFPoll.c    ****                     Encabezado1[x-17] = buffer_rf[x];
 3039              		.loc 1 273 0
ARM GAS  C:\Users\RECEPC~1\AppData\Local\Temp\cc4fvgjK.s 			page 72


 3040 0690 1123     		movs	r3, #17
 3041 0692 07E0     		b	.L204
 3042              	.LVL414:
 3043              	.L205:
 274:.\RFPoll.c    ****                 }
 3044              		.loc 1 274 0 discriminator 3
 3045 0694 A3F11102 		sub	r2, r3, #17
 3046 0698 6349     		ldr	r1, .L242
 3047 069a C85C     		ldrb	r0, [r1, r3]	@ zero_extendqisi2
 3048 069c 6D49     		ldr	r1, .L242+44
 3049 069e 8854     		strb	r0, [r1, r2]
 273:.\RFPoll.c    ****                     Encabezado1[x-17] = buffer_rf[x];
 3050              		.loc 1 273 0 discriminator 3
 3051 06a0 0133     		adds	r3, r3, #1
 3052              	.LVL415:
 3053 06a2 9BB2     		uxth	r3, r3
 3054              	.LVL416:
 3055              	.L204:
 273:.\RFPoll.c    ****                     Encabezado1[x-17] = buffer_rf[x];
 3056              		.loc 1 273 0 is_stmt 0 discriminator 1
 3057 06a4 2E2B     		cmp	r3, #46
 3058 06a6 F5D9     		bls	.L205
 3059 06a8 2F23     		movs	r3, #47
 3060              	.LVL417:
 3061 06aa 07E0     		b	.L206
 3062              	.LVL418:
 3063              	.L207:
 277:.\RFPoll.c    ****                 }
 3064              		.loc 1 277 0 is_stmt 1 discriminator 3
 3065 06ac A3F12F02 		sub	r2, r3, #47
 3066 06b0 5D49     		ldr	r1, .L242
 3067 06b2 C85C     		ldrb	r0, [r1, r3]	@ zero_extendqisi2
 3068 06b4 6849     		ldr	r1, .L242+48
 3069 06b6 8854     		strb	r0, [r1, r2]
 276:.\RFPoll.c    ****                     Encabezado2[x-47] = buffer_rf[x];
 3070              		.loc 1 276 0 discriminator 3
 3071 06b8 0133     		adds	r3, r3, #1
 3072              	.LVL419:
 3073 06ba 9BB2     		uxth	r3, r3
 3074              	.LVL420:
 3075              	.L206:
 276:.\RFPoll.c    ****                     Encabezado2[x-47] = buffer_rf[x];
 3076              		.loc 1 276 0 is_stmt 0 discriminator 1
 3077 06bc 4C2B     		cmp	r3, #76
 3078 06be F5D9     		bls	.L207
 3079 06c0 4D23     		movs	r3, #77
 3080              	.LVL421:
 3081 06c2 07E0     		b	.L208
 3082              	.LVL422:
 3083              	.L209:
 280:.\RFPoll.c    ****                 }
 3084              		.loc 1 280 0 is_stmt 1 discriminator 3
 3085 06c4 A3F14D02 		sub	r2, r3, #77
 3086 06c8 5749     		ldr	r1, .L242
 3087 06ca C85C     		ldrb	r0, [r1, r3]	@ zero_extendqisi2
 3088 06cc 6349     		ldr	r1, .L242+52
 3089 06ce 8854     		strb	r0, [r1, r2]
ARM GAS  C:\Users\RECEPC~1\AppData\Local\Temp\cc4fvgjK.s 			page 73


 279:.\RFPoll.c    ****                     Encabezado3[x-77] = buffer_rf[x];
 3090              		.loc 1 279 0 discriminator 3
 3091 06d0 0133     		adds	r3, r3, #1
 3092              	.LVL423:
 3093 06d2 9BB2     		uxth	r3, r3
 3094              	.LVL424:
 3095              	.L208:
 279:.\RFPoll.c    ****                     Encabezado3[x-77] = buffer_rf[x];
 3096              		.loc 1 279 0 is_stmt 0 discriminator 1
 3097 06d4 6A2B     		cmp	r3, #106
 3098 06d6 F5D9     		bls	.L209
 3099 06d8 6B23     		movs	r3, #107
 3100              	.LVL425:
 3101 06da 07E0     		b	.L210
 3102              	.LVL426:
 3103              	.L211:
 283:.\RFPoll.c    ****                 }
 3104              		.loc 1 283 0 is_stmt 1 discriminator 3
 3105 06dc A3F14D02 		sub	r2, r3, #77
 3106 06e0 5149     		ldr	r1, .L242
 3107 06e2 C85C     		ldrb	r0, [r1, r3]	@ zero_extendqisi2
 3108 06e4 5E49     		ldr	r1, .L242+56
 3109 06e6 8854     		strb	r0, [r1, r2]
 282:.\RFPoll.c    ****                     Encabezado4[x-77] = buffer_rf[x];
 3110              		.loc 1 282 0 discriminator 3
 3111 06e8 0133     		adds	r3, r3, #1
 3112              	.LVL427:
 3113 06ea 9BB2     		uxth	r3, r3
 3114              	.LVL428:
 3115              	.L210:
 282:.\RFPoll.c    ****                     Encabezado4[x-77] = buffer_rf[x];
 3116              		.loc 1 282 0 is_stmt 0 discriminator 1
 3117 06ec 882B     		cmp	r3, #136
 3118 06ee F5D9     		bls	.L211
 285:.\RFPoll.c    ****                 write_hora();
 3119              		.loc 1 285 0 is_stmt 1
 3120 06f0 4D4B     		ldr	r3, .L242
 3121              	.LVL429:
 3122 06f2 1A7C     		ldrb	r2, [r3, #16]	@ zero_extendqisi2
 3123 06f4 5B4B     		ldr	r3, .L242+60
 3124 06f6 1A70     		strb	r2, [r3]
 286:.\RFPoll.c    ****                 write_fecha(); 
 3125              		.loc 1 286 0
 3126 06f8 FFF7FEFF 		bl	write_hora
 3127              	.LVL430:
 287:.\RFPoll.c    ****                 for(x =0 ; x <30; x++){
 3128              		.loc 1 287 0
 3129 06fc FFF7FEFF 		bl	write_fecha
 3130              	.LVL431:
 288:.\RFPoll.c    ****                     EEPROM_1_WriteByte(Encabezado1[x],16+x);
 3131              		.loc 1 288 0
 3132 0700 0024     		movs	r4, #0
 3133              	.LVL432:
 3134 0702 08E0     		b	.L212
 3135              	.LVL433:
 3136              	.L213:
 289:.\RFPoll.c    ****                 }
ARM GAS  C:\Users\RECEPC~1\AppData\Local\Temp\cc4fvgjK.s 			page 74


 3137              		.loc 1 289 0 discriminator 3
 3138 0704 04F11001 		add	r1, r4, #16
 3139 0708 524B     		ldr	r3, .L242+44
 3140 070a 185D     		ldrb	r0, [r3, r4]	@ zero_extendqisi2
 3141 070c 89B2     		uxth	r1, r1
 3142 070e FFF7FEFF 		bl	EEPROM_1_WriteByte
 3143              	.LVL434:
 288:.\RFPoll.c    ****                     EEPROM_1_WriteByte(Encabezado1[x],16+x);
 3144              		.loc 1 288 0 discriminator 3
 3145 0712 0134     		adds	r4, r4, #1
 3146              	.LVL435:
 3147 0714 A4B2     		uxth	r4, r4
 3148              	.LVL436:
 3149              	.L212:
 288:.\RFPoll.c    ****                     EEPROM_1_WriteByte(Encabezado1[x],16+x);
 3150              		.loc 1 288 0 is_stmt 0 discriminator 1
 3151 0716 1D2C     		cmp	r4, #29
 3152 0718 F4D9     		bls	.L213
 3153 071a 1E24     		movs	r4, #30
 3154              	.LVL437:
 3155 071c 0AE0     		b	.L214
 3156              	.LVL438:
 3157              	.L215:
 292:.\RFPoll.c    ****                 }
 3158              		.loc 1 292 0 is_stmt 1 discriminator 3
 3159 071e A4F11E03 		sub	r3, r4, #30
 3160 0722 04F11001 		add	r1, r4, #16
 3161 0726 4C4A     		ldr	r2, .L242+48
 3162 0728 D05C     		ldrb	r0, [r2, r3]	@ zero_extendqisi2
 3163 072a 89B2     		uxth	r1, r1
 3164 072c FFF7FEFF 		bl	EEPROM_1_WriteByte
 3165              	.LVL439:
 291:.\RFPoll.c    ****                     EEPROM_1_WriteByte(Encabezado2[x-30],16+x);
 3166              		.loc 1 291 0 discriminator 3
 3167 0730 0134     		adds	r4, r4, #1
 3168              	.LVL440:
 3169 0732 A4B2     		uxth	r4, r4
 3170              	.LVL441:
 3171              	.L214:
 291:.\RFPoll.c    ****                     EEPROM_1_WriteByte(Encabezado2[x-30],16+x);
 3172              		.loc 1 291 0 is_stmt 0 discriminator 1
 3173 0734 3B2C     		cmp	r4, #59
 3174 0736 F2D9     		bls	.L215
 3175 0738 3C24     		movs	r4, #60
 3176              	.LVL442:
 3177 073a 0AE0     		b	.L216
 3178              	.LVL443:
 3179              	.L217:
 295:.\RFPoll.c    ****                 }
 3180              		.loc 1 295 0 is_stmt 1 discriminator 3
 3181 073c A4F11E03 		sub	r3, r4, #30
 3182 0740 04F11001 		add	r1, r4, #16
 3183 0744 454A     		ldr	r2, .L242+52
 3184 0746 D05C     		ldrb	r0, [r2, r3]	@ zero_extendqisi2
 3185 0748 89B2     		uxth	r1, r1
 3186 074a FFF7FEFF 		bl	EEPROM_1_WriteByte
 3187              	.LVL444:
ARM GAS  C:\Users\RECEPC~1\AppData\Local\Temp\cc4fvgjK.s 			page 75


 294:.\RFPoll.c    ****                     EEPROM_1_WriteByte(Encabezado3[x-30],16+x);
 3188              		.loc 1 294 0 discriminator 3
 3189 074e 0134     		adds	r4, r4, #1
 3190              	.LVL445:
 3191 0750 A4B2     		uxth	r4, r4
 3192              	.LVL446:
 3193              	.L216:
 294:.\RFPoll.c    ****                     EEPROM_1_WriteByte(Encabezado3[x-30],16+x);
 3194              		.loc 1 294 0 is_stmt 0 discriminator 1
 3195 0752 592C     		cmp	r4, #89
 3196 0754 F2D9     		bls	.L217
 3197 0756 5A24     		movs	r4, #90
 3198              	.LVL447:
 3199 0758 0AE0     		b	.L218
 3200              	.LVL448:
 3201              	.L219:
 298:.\RFPoll.c    ****                 }
 3202              		.loc 1 298 0 is_stmt 1 discriminator 3
 3203 075a A4F11E03 		sub	r3, r4, #30
 3204 075e 04F11001 		add	r1, r4, #16
 3205 0762 3F4A     		ldr	r2, .L242+56
 3206 0764 D05C     		ldrb	r0, [r2, r3]	@ zero_extendqisi2
 3207 0766 89B2     		uxth	r1, r1
 3208 0768 FFF7FEFF 		bl	EEPROM_1_WriteByte
 3209              	.LVL449:
 297:.\RFPoll.c    ****                     EEPROM_1_WriteByte(Encabezado4[x-30],16+x);
 3210              		.loc 1 297 0 discriminator 3
 3211 076c 0134     		adds	r4, r4, #1
 3212              	.LVL450:
 3213 076e A4B2     		uxth	r4, r4
 3214              	.LVL451:
 3215              	.L218:
 297:.\RFPoll.c    ****                     EEPROM_1_WriteByte(Encabezado4[x-30],16+x);
 3216              		.loc 1 297 0 is_stmt 0 discriminator 1
 3217 0770 772C     		cmp	r4, #119
 3218 0772 F2D9     		bls	.L219
 300:.\RFPoll.c    ****                 side.b.dir = EEPROM_1_ReadByte(13);
 3219              		.loc 1 300 0 is_stmt 1
 3220 0774 0C20     		movs	r0, #12
 3221 0776 FFF7FEFF 		bl	EEPROM_1_ReadByte
 3222              	.LVL452:
 3223 077a 2C4C     		ldr	r4, .L242+4
 3224              	.LVL453:
 3225 077c 2070     		strb	r0, [r4]
 301:.\RFPoll.c    ****                 side.c.dir = EEPROM_1_ReadByte(14);
 3226              		.loc 1 301 0
 3227 077e 0D20     		movs	r0, #13
 3228 0780 FFF7FEFF 		bl	EEPROM_1_ReadByte
 3229              	.LVL454:
 3230 0784 84F81201 		strb	r0, [r4, #274]
 302:.\RFPoll.c    ****                 side.d.dir = EEPROM_1_ReadByte(15);
 3231              		.loc 1 302 0
 3232 0788 0E20     		movs	r0, #14
 3233 078a FFF7FEFF 		bl	EEPROM_1_ReadByte
 3234              	.LVL455:
 3235 078e 84F82402 		strb	r0, [r4, #548]
 303:.\RFPoll.c    ****                 imprimir(printPortA,side.a.dir);
ARM GAS  C:\Users\RECEPC~1\AppData\Local\Temp\cc4fvgjK.s 			page 76


 3236              		.loc 1 303 0
 3237 0792 0F20     		movs	r0, #15
 3238 0794 FFF7FEFF 		bl	EEPROM_1_ReadByte
 3239              	.LVL456:
 3240 0798 84F83603 		strb	r0, [r4, #822]
 304:.\RFPoll.c    ****                break;
 3241              		.loc 1 304 0
 3242 079c 254B     		ldr	r3, .L242+12
 3243 079e 1878     		ldrb	r0, [r3]	@ zero_extendqisi2
 3244 07a0 2178     		ldrb	r1, [r4]	@ zero_extendqisi2
 3245 07a2 FFF7FEFF 		bl	imprimir
 3246              	.LVL457:
 305:.\RFPoll.c    ****                
 3247              		.loc 1 305 0
 3248 07a6 7AE0     		b	.L143
 3249              	.LVL458:
 3250              	.L151:
 308:.\RFPoll.c    ****                 buffer_tx[6] = 0xE2;
 3251              		.loc 1 308 0
 3252 07a8 1F4B     		ldr	r3, .L242
 3253 07aa 5B79     		ldrb	r3, [r3, #5]	@ zero_extendqisi2
 3254 07ac 2E4C     		ldr	r4, .L242+64
 3255              	.LVL459:
 3256 07ae 6371     		strb	r3, [r4, #5]
 309:.\RFPoll.c    ****                 buffer_tx[7] = 0x08;
 3257              		.loc 1 309 0
 3258 07b0 E223     		movs	r3, #226
 3259 07b2 A371     		strb	r3, [r4, #6]
 310:.\RFPoll.c    ****                 buffer_tx[8] = 0x03;
 3260              		.loc 1 310 0
 3261 07b4 0823     		movs	r3, #8
 3262 07b6 E371     		strb	r3, [r4, #7]
 311:.\RFPoll.c    ****                 buffer_tx[9] = verificar_check(buffer_tx,10);
 3263              		.loc 1 311 0
 3264 07b8 0323     		movs	r3, #3
 3265 07ba 2372     		strb	r3, [r4, #8]
 312:.\RFPoll.c    ****                 for (x = 0; x < 10; x++){
 3266              		.loc 1 312 0
 3267 07bc 2046     		mov	r0, r4
 3268 07be 0A21     		movs	r1, #10
 3269 07c0 FFF7FEFF 		bl	verificar_check
 3270              	.LVL460:
 3271 07c4 6072     		strb	r0, [r4, #9]
 3272              	.LVL461:
 313:.\RFPoll.c    ****                     RF_Connection_PutChar(buffer_tx[x]);
 3273              		.loc 1 313 0
 3274 07c6 0024     		movs	r4, #0
 3275 07c8 05E0     		b	.L220
 3276              	.LVL462:
 3277              	.L221:
 314:.\RFPoll.c    ****                 }
 3278              		.loc 1 314 0 discriminator 3
 3279 07ca 274B     		ldr	r3, .L242+64
 3280 07cc 185D     		ldrb	r0, [r3, r4]	@ zero_extendqisi2
 3281 07ce FFF7FEFF 		bl	RF_Connection_PutChar
 3282              	.LVL463:
 313:.\RFPoll.c    ****                     RF_Connection_PutChar(buffer_tx[x]);
ARM GAS  C:\Users\RECEPC~1\AppData\Local\Temp\cc4fvgjK.s 			page 77


 3283              		.loc 1 313 0 discriminator 3
 3284 07d2 0134     		adds	r4, r4, #1
 3285              	.LVL464:
 3286 07d4 A4B2     		uxth	r4, r4
 3287              	.LVL465:
 3288              	.L220:
 313:.\RFPoll.c    ****                     RF_Connection_PutChar(buffer_tx[x]);
 3289              		.loc 1 313 0 is_stmt 0 discriminator 1
 3290 07d6 092C     		cmp	r4, #9
 3291 07d8 F7D9     		bls	.L221
 3292 07da 0823     		movs	r3, #8
 3293 07dc 07E0     		b	.L222
 3294              	.LVL466:
 3295              	.L223:
 317:.\RFPoll.c    ****                 }
 3296              		.loc 1 317 0 is_stmt 1 discriminator 3
 3297 07de A3F10802 		sub	r2, r3, #8
 3298 07e2 1149     		ldr	r1, .L242
 3299 07e4 C85C     		ldrb	r0, [r1, r3]	@ zero_extendqisi2
 3300 07e6 2149     		ldr	r1, .L242+68
 3301 07e8 8854     		strb	r0, [r1, r2]
 316:.\RFPoll.c    ****                     GradesHose[x-8] = buffer_rf[x];
 3302              		.loc 1 316 0 discriminator 3
 3303 07ea 0133     		adds	r3, r3, #1
 3304              	.LVL467:
 3305 07ec 9BB2     		uxth	r3, r3
 3306              	.LVL468:
 3307              	.L222:
 316:.\RFPoll.c    ****                     GradesHose[x-8] = buffer_rf[x];
 3308              		.loc 1 316 0 is_stmt 0 discriminator 1
 3309 07ee 0B2B     		cmp	r3, #11
 3310 07f0 F5D9     		bls	.L223
 319:.\RFPoll.c    ****                 EEPROM_1_WriteByte(lockTurn,7);
 3311              		.loc 1 319 0 is_stmt 1
 3312 07f2 0D4B     		ldr	r3, .L242
 3313              	.LVL469:
 3314 07f4 187B     		ldrb	r0, [r3, #12]	@ zero_extendqisi2
 3315 07f6 1E4B     		ldr	r3, .L242+72
 3316 07f8 1870     		strb	r0, [r3]
 320:.\RFPoll.c    ****                break;
 3317              		.loc 1 320 0
 3318 07fa 0721     		movs	r1, #7
 3319 07fc FFF7FEFF 		bl	EEPROM_1_WriteByte
 3320              	.LVL470:
 321:.\RFPoll.c    ****                 
 3321              		.loc 1 321 0
 3322 0800 4DE0     		b	.L143
 3323              	.LVL471:
 3324              	.L152:
 324:.\RFPoll.c    ****                     flowDisplay1 = 0;
 3325              		.loc 1 324 0
 3326 0802 094B     		ldr	r3, .L242
 3327 0804 DA79     		ldrb	r2, [r3, #7]	@ zero_extendqisi2
 3328 0806 022A     		cmp	r2, #2
 3329 0808 38D1     		bne	.L224
 325:.\RFPoll.c    ****                     ShiftState = 0;
 3330              		.loc 1 325 0
ARM GAS  C:\Users\RECEPC~1\AppData\Local\Temp\cc4fvgjK.s 			page 78


 3331 080a 0021     		movs	r1, #0
 3332 080c 194B     		ldr	r3, .L242+76
 3333 080e 1960     		str	r1, [r3]
 326:.\RFPoll.c    ****                     side.a.rfState = RF_IDLE;
 3334              		.loc 1 326 0
 3335 0810 194B     		ldr	r3, .L242+80
 3336 0812 1970     		strb	r1, [r3]
 327:.\RFPoll.c    ****                     side.a.RFstateReport = 0;
 3337              		.loc 1 327 0
 3338 0814 054B     		ldr	r3, .L242+4
 3339 0816 0822     		movs	r2, #8
 3340 0818 83F80321 		strb	r2, [r3, #259]
 328:.\RFPoll.c    ****                     SetPicture(1,DISPLAY_ERROR);
 3341              		.loc 1 328 0
 3342 081c 83F80711 		strb	r1, [r3, #263]
 329:.\RFPoll.c    ****                 }else{
 3343              		.loc 1 329 0
 3344 0820 0120     		movs	r0, #1
 3345 0822 FFF7FEFF 		bl	SetPicture
 3346              	.LVL472:
 3347 0826 3AE0     		b	.L143
 3348              	.L243:
 3349              		.align	2
 3350              	.L242:
 3351 0828 00000000 		.word	buffer_rf
 3352 082c 00000000 		.word	side
 3353 0830 00000000 		.word	bufferDisplay1
 3354 0834 00000000 		.word	printPortA
 3355 0838 00000000 		.word	bufferDisplay2
 3356 083c 00000000 		.word	printPortB
 3357 0840 00000000 		.word	bufferDisplay3
 3358 0844 00000000 		.word	bufferDisplay4
 3359 0848 00000000 		.word	symbols
 3360 084c 00000000 		.word	date
 3361 0850 00000000 		.word	time
 3362 0854 00000000 		.word	Encabezado1
 3363 0858 00000000 		.word	Encabezado2
 3364 085c 00000000 		.word	Encabezado3
 3365 0860 00000000 		.word	Encabezado4
 3366 0864 00000000 		.word	CopiasCredito
 3367 0868 00000000 		.word	buffer_tx
 3368 086c 00000000 		.word	GradesHose
 3369 0870 00000000 		.word	lockTurn
 3370 0874 00000000 		.word	flowDisplay1
 3371 0878 00000000 		.word	ShiftState
 3372              	.L224:
 331:.\RFPoll.c    ****                     lockTurn = buffer_rf[7];
 3373              		.loc 1 331 0
 3374 087c 0023     		movs	r3, #0
 3375 087e 0949     		ldr	r1, .L244
 3376 0880 0B70     		strb	r3, [r1]
 332:.\RFPoll.c    ****                     flowDisplay1 = 0;
 3377              		.loc 1 332 0
 3378 0882 0949     		ldr	r1, .L244+4
 3379 0884 0A70     		strb	r2, [r1]
 333:.\RFPoll.c    ****                     side.a.RFstateReport = 0;
 3380              		.loc 1 333 0
ARM GAS  C:\Users\RECEPC~1\AppData\Local\Temp\cc4fvgjK.s 			page 79


 3381 0886 094A     		ldr	r2, .L244+8
 3382 0888 1360     		str	r3, [r2]
 334:.\RFPoll.c    ****                     CyDelay(200);
 3383              		.loc 1 334 0
 3384 088a 094A     		ldr	r2, .L244+12
 3385 088c 82F80731 		strb	r3, [r2, #263]
 335:.\RFPoll.c    ****                     SetPicture(1,DISPLAY_ID_RECONOCIDO);
 3386              		.loc 1 335 0
 3387 0890 C820     		movs	r0, #200
 3388 0892 FFF7FEFF 		bl	CyDelay
 3389              	.LVL473:
 336:.\RFPoll.c    ****                 }
 3390              		.loc 1 336 0
 3391 0896 0120     		movs	r0, #1
 3392 0898 1321     		movs	r1, #19
 3393 089a FFF7FEFF 		bl	SetPicture
 3394              	.LVL474:
 3395              	.L143:
 342:.\RFPoll.c    ****     }                            
 3396              		.loc 1 342 0
 3397 089e FFF7FEFF 		bl	RF_Connection_ClearRxBuffer
 3398              	.LVL475:
 3399              	.L139:
 3400 08a2 70BD     		pop	{r4, r5, r6, pc}
 3401              	.L245:
 3402              		.align	2
 3403              	.L244:
 3404 08a4 00000000 		.word	ShiftState
 3405 08a8 00000000 		.word	lockTurn
 3406 08ac 00000000 		.word	flowDisplay1
 3407 08b0 00000000 		.word	side
 3408              		.cfi_endproc
 3409              	.LFE64:
 3410              		.size	pollingRF_Rx, .-pollingRF_Rx
 3411              		.comm	side,1096,4
 3412              		.comm	bufferDisplay4,332,4
 3413              		.comm	bufferDisplay3,332,4
 3414              		.comm	bufferDisplay2,332,4
 3415              		.comm	bufferDisplay1,332,4
 3416              		.comm	GradesHose,5,4
 3417              		.comm	CopiasCredito,1,1
 3418              		.comm	Encabezado4,30,4
 3419              		.comm	Encabezado3,30,4
 3420              		.comm	Encabezado2,30,4
 3421              		.comm	Encabezado1,30,4
 3422              		.comm	intIDStation,2,2
 3423              		.comm	buffer_txDisplay,60,4
 3424              		.comm	buffer_txEOT,60,4
 3425              		.comm	buffer_txPreset,60,4
 3426              		.comm	buffer_print,250,4
 3427              		.comm	buffer_A,255,4
 3428              		.comm	buffer_txTotals,512,4
 3429              		.comm	buffer_tx,512,4
 3430              		.comm	buffer_rf,512,4
 3431              		.comm	printPortB,1,1
 3432              		.comm	printPortA,1,1
 3433              		.comm	pumpGap,3,4
ARM GAS  C:\Users\RECEPC~1\AppData\Local\Temp\cc4fvgjK.s 			page 80


 3434              		.comm	idStation,5,4
 3435              		.comm	controlChar,1,1
 3436              		.comm	configAccess,5,4
 3437              		.comm	count_protector2,1,1
 3438              		.comm	count_protector,1,1
 3439              		.comm	timeDownHandle,2,4
 3440              		.comm	dateDownHandle,3,4
 3441              		.comm	VolUnit,6,4
 3442              		.comm	PrinterType,1,1
 3443              		.comm	hiddenKeys,1,1
 3444              		.comm	digits,1,1
 3445              		.comm	lockTurn,1,1
 3446              		.comm	NumPositions,1,1
 3447              		.comm	statePump,4,4
 3448              		.comm	DDMode,1,1
 3449              		.comm	PPUDec,1,1
 3450              		.comm	VolDec,1,1
 3451              		.comm	MoneyDec,1,1
 3452              		.comm	ConversionFactor,1,1
 3453              		.comm	UnitType,1,1
 3454              		.comm	bufferAready,1,1
 3455              		.comm	sizeSendB,1,1
 3456              		.comm	pollTotals,1,1
 3457              		.comm	ShiftState,1,1
 3458              		.comm	CGrade,1,1
 3459              		.comm	tempPPU,5,4
 3460              		.comm	tempPreset,8,4
 3461              		.comm	temporal,30,4
 3462              		.comm	counterRF,1,1
 3463              		.comm	ActiveRF,1,1
 3464              		.comm	IDCast,2,4
 3465              		.comm	PlateRequest,1,1
 3466              		.comm	PrevStatePump,4,4
 3467              		.comm	stateBeagleSoft,1,1
 3468              		.comm	flagResetMux,1,1
 3469              		.comm	passwordSeller,8,4
 3470              		.comm	typeIdSeller,1,1
 3471              		.comm	idSeller,25,4
 3472              		.comm	residue,14,4
 3473              		.comm	screen,2,4
 3474              		.comm	date,3,4
 3475              		.comm	time,3,4
 3476              		.comm	symbols,2,4
 3477              		.comm	ppux10,1,1
 3478              		.comm	delayPicture2,4,4
 3479              		.comm	delayPicture1,4,4
 3480              		.comm	productNumber,1,1
 3481              		.comm	flagPoint2,1,1
 3482              		.comm	flagPoint1,1,1
 3483              		.comm	numberKeys2,1,1
 3484              		.comm	numberKeys1,1,1
 3485              		.comm	flowDisplay4,4,4
 3486              		.comm	flowDisplay3,4,4
 3487              		.comm	flowDisplay2,4,4
 3488              		.comm	flowDisplay1,4,4
 3489              		.comm	countLCD,8,8
 3490              		.comm	countPump,8,8
ARM GAS  C:\Users\RECEPC~1\AppData\Local\Temp\cc4fvgjK.s 			page 81


 3491              		.comm	countTX,8,8
 3492              		.comm	countRX,8,8
 3493              		.comm	countAnimation2,8,8
 3494              		.comm	countAnimation1,8,8
 3495              		.section	.rodata
 3496              		.align	2
 3497              		.set	.LANCHOR0,. + 0
 3498              	.LC0:
 3499 0000 00       		.byte	0
 3500 0001 5E       		.byte	94
 3501 0002 BC       		.byte	-68
 3502 0003 E2       		.byte	-30
 3503 0004 61       		.byte	97
 3504 0005 3F       		.byte	63
 3505 0006 DD       		.byte	-35
 3506 0007 83       		.byte	-125
 3507 0008 C2       		.byte	-62
 3508 0009 9C       		.byte	-100
 3509 000a 7E       		.byte	126
 3510 000b 20       		.byte	32
 3511 000c A3       		.byte	-93
 3512 000d FD       		.byte	-3
 3513 000e 1F       		.byte	31
 3514 000f 41       		.byte	65
 3515 0010 9D       		.byte	-99
 3516 0011 C3       		.byte	-61
 3517 0012 21       		.byte	33
 3518 0013 7F       		.byte	127
 3519 0014 FC       		.byte	-4
 3520 0015 A2       		.byte	-94
 3521 0016 40       		.byte	64
 3522 0017 1E       		.byte	30
 3523 0018 5F       		.byte	95
 3524 0019 01       		.byte	1
 3525 001a E3       		.byte	-29
 3526 001b BD       		.byte	-67
 3527 001c 3E       		.byte	62
 3528 001d 60       		.byte	96
 3529 001e 82       		.byte	-126
 3530 001f DC       		.byte	-36
 3531 0020 23       		.byte	35
 3532 0021 7D       		.byte	125
 3533 0022 9F       		.byte	-97
 3534 0023 C1       		.byte	-63
 3535 0024 42       		.byte	66
 3536 0025 1C       		.byte	28
 3537 0026 FE       		.byte	-2
 3538 0027 A0       		.byte	-96
 3539 0028 E1       		.byte	-31
 3540 0029 BF       		.byte	-65
 3541 002a 5D       		.byte	93
 3542 002b 03       		.byte	3
 3543 002c 80       		.byte	-128
 3544 002d DE       		.byte	-34
 3545 002e 3C       		.byte	60
 3546 002f 62       		.byte	98
 3547 0030 BE       		.byte	-66
ARM GAS  C:\Users\RECEPC~1\AppData\Local\Temp\cc4fvgjK.s 			page 82


 3548 0031 E0       		.byte	-32
 3549 0032 02       		.byte	2
 3550 0033 5C       		.byte	92
 3551 0034 DF       		.byte	-33
 3552 0035 81       		.byte	-127
 3553 0036 63       		.byte	99
 3554 0037 3D       		.byte	61
 3555 0038 7C       		.byte	124
 3556 0039 22       		.byte	34
 3557 003a C0       		.byte	-64
 3558 003b 9E       		.byte	-98
 3559 003c 1D       		.byte	29
 3560 003d 43       		.byte	67
 3561 003e A1       		.byte	-95
 3562 003f FF       		.byte	-1
 3563 0040 46       		.byte	70
 3564 0041 18       		.byte	24
 3565 0042 FA       		.byte	-6
 3566 0043 A4       		.byte	-92
 3567 0044 27       		.byte	39
 3568 0045 79       		.byte	121
 3569 0046 9B       		.byte	-101
 3570 0047 C5       		.byte	-59
 3571 0048 84       		.byte	-124
 3572 0049 DA       		.byte	-38
 3573 004a 38       		.byte	56
 3574 004b 66       		.byte	102
 3575 004c E5       		.byte	-27
 3576 004d BB       		.byte	-69
 3577 004e 59       		.byte	89
 3578 004f 07       		.byte	7
 3579 0050 DB       		.byte	-37
 3580 0051 85       		.byte	-123
 3581 0052 67       		.byte	103
 3582 0053 39       		.byte	57
 3583 0054 BA       		.byte	-70
 3584 0055 E4       		.byte	-28
 3585 0056 06       		.byte	6
 3586 0057 58       		.byte	88
 3587 0058 19       		.byte	25
 3588 0059 47       		.byte	71
 3589 005a A5       		.byte	-91
 3590 005b FB       		.byte	-5
 3591 005c 78       		.byte	120
 3592 005d 26       		.byte	38
 3593 005e C4       		.byte	-60
 3594 005f 9A       		.byte	-102
 3595 0060 65       		.byte	101
 3596 0061 3B       		.byte	59
 3597 0062 D9       		.byte	-39
 3598 0063 87       		.byte	-121
 3599 0064 04       		.byte	4
 3600 0065 5A       		.byte	90
 3601 0066 B8       		.byte	-72
 3602 0067 E6       		.byte	-26
 3603 0068 A7       		.byte	-89
 3604 0069 F9       		.byte	-7
ARM GAS  C:\Users\RECEPC~1\AppData\Local\Temp\cc4fvgjK.s 			page 83


 3605 006a 1B       		.byte	27
 3606 006b 45       		.byte	69
 3607 006c C6       		.byte	-58
 3608 006d 98       		.byte	-104
 3609 006e 7A       		.byte	122
 3610 006f 24       		.byte	36
 3611 0070 F8       		.byte	-8
 3612 0071 A6       		.byte	-90
 3613 0072 44       		.byte	68
 3614 0073 1A       		.byte	26
 3615 0074 99       		.byte	-103
 3616 0075 C7       		.byte	-57
 3617 0076 25       		.byte	37
 3618 0077 7B       		.byte	123
 3619 0078 3A       		.byte	58
 3620 0079 64       		.byte	100
 3621 007a 86       		.byte	-122
 3622 007b D8       		.byte	-40
 3623 007c 5B       		.byte	91
 3624 007d 05       		.byte	5
 3625 007e E7       		.byte	-25
 3626 007f B9       		.byte	-71
 3627 0080 8C       		.byte	-116
 3628 0081 D2       		.byte	-46
 3629 0082 30       		.byte	48
 3630 0083 6E       		.byte	110
 3631 0084 ED       		.byte	-19
 3632 0085 B3       		.byte	-77
 3633 0086 51       		.byte	81
 3634 0087 0F       		.byte	15
 3635 0088 4E       		.byte	78
 3636 0089 10       		.byte	16
 3637 008a F2       		.byte	-14
 3638 008b AC       		.byte	-84
 3639 008c 2F       		.byte	47
 3640 008d 71       		.byte	113
 3641 008e 93       		.byte	-109
 3642 008f CD       		.byte	-51
 3643 0090 11       		.byte	17
 3644 0091 4F       		.byte	79
 3645 0092 AD       		.byte	-83
 3646 0093 F3       		.byte	-13
 3647 0094 70       		.byte	112
 3648 0095 2E       		.byte	46
 3649 0096 CC       		.byte	-52
 3650 0097 92       		.byte	-110
 3651 0098 D3       		.byte	-45
 3652 0099 8D       		.byte	-115
 3653 009a 6F       		.byte	111
 3654 009b 31       		.byte	49
 3655 009c B2       		.byte	-78
 3656 009d EC       		.byte	-20
 3657 009e 0E       		.byte	14
 3658 009f 50       		.byte	80
 3659 00a0 AF       		.byte	-81
 3660 00a1 F1       		.byte	-15
 3661 00a2 13       		.byte	19
ARM GAS  C:\Users\RECEPC~1\AppData\Local\Temp\cc4fvgjK.s 			page 84


 3662 00a3 4D       		.byte	77
 3663 00a4 CE       		.byte	-50
 3664 00a5 90       		.byte	-112
 3665 00a6 72       		.byte	114
 3666 00a7 2C       		.byte	44
 3667 00a8 6D       		.byte	109
 3668 00a9 33       		.byte	51
 3669 00aa D1       		.byte	-47
 3670 00ab 8F       		.byte	-113
 3671 00ac 0C       		.byte	12
 3672 00ad 52       		.byte	82
 3673 00ae B0       		.byte	-80
 3674 00af EE       		.byte	-18
 3675 00b0 32       		.byte	50
 3676 00b1 6C       		.byte	108
 3677 00b2 8E       		.byte	-114
 3678 00b3 D0       		.byte	-48
 3679 00b4 53       		.byte	83
 3680 00b5 0D       		.byte	13
 3681 00b6 EF       		.byte	-17
 3682 00b7 B1       		.byte	-79
 3683 00b8 F0       		.byte	-16
 3684 00b9 AE       		.byte	-82
 3685 00ba 4C       		.byte	76
 3686 00bb 12       		.byte	18
 3687 00bc 91       		.byte	-111
 3688 00bd CF       		.byte	-49
 3689 00be 2D       		.byte	45
 3690 00bf 73       		.byte	115
 3691 00c0 CA       		.byte	-54
 3692 00c1 94       		.byte	-108
 3693 00c2 76       		.byte	118
 3694 00c3 28       		.byte	40
 3695 00c4 AB       		.byte	-85
 3696 00c5 F5       		.byte	-11
 3697 00c6 17       		.byte	23
 3698 00c7 49       		.byte	73
 3699 00c8 08       		.byte	8
 3700 00c9 56       		.byte	86
 3701 00ca B4       		.byte	-76
 3702 00cb EA       		.byte	-22
 3703 00cc 69       		.byte	105
 3704 00cd 37       		.byte	55
 3705 00ce D5       		.byte	-43
 3706 00cf 8B       		.byte	-117
 3707 00d0 57       		.byte	87
 3708 00d1 09       		.byte	9
 3709 00d2 EB       		.byte	-21
 3710 00d3 B5       		.byte	-75
 3711 00d4 36       		.byte	54
 3712 00d5 68       		.byte	104
 3713 00d6 8A       		.byte	-118
 3714 00d7 D4       		.byte	-44
 3715 00d8 95       		.byte	-107
 3716 00d9 CB       		.byte	-53
 3717 00da 29       		.byte	41
 3718 00db 77       		.byte	119
ARM GAS  C:\Users\RECEPC~1\AppData\Local\Temp\cc4fvgjK.s 			page 85


 3719 00dc F4       		.byte	-12
 3720 00dd AA       		.byte	-86
 3721 00de 48       		.byte	72
 3722 00df 16       		.byte	22
 3723 00e0 E9       		.byte	-23
 3724 00e1 B7       		.byte	-73
 3725 00e2 55       		.byte	85
 3726 00e3 0B       		.byte	11
 3727 00e4 88       		.byte	-120
 3728 00e5 D6       		.byte	-42
 3729 00e6 34       		.byte	52
 3730 00e7 6A       		.byte	106
 3731 00e8 2B       		.byte	43
 3732 00e9 75       		.byte	117
 3733 00ea 97       		.byte	-105
 3734 00eb C9       		.byte	-55
 3735 00ec 4A       		.byte	74
 3736 00ed 14       		.byte	20
 3737 00ee F6       		.byte	-10
 3738 00ef A8       		.byte	-88
 3739 00f0 74       		.byte	116
 3740 00f1 2A       		.byte	42
 3741 00f2 C8       		.byte	-56
 3742 00f3 96       		.byte	-106
 3743 00f4 15       		.byte	21
 3744 00f5 4B       		.byte	75
 3745 00f6 A9       		.byte	-87
 3746 00f7 F7       		.byte	-9
 3747 00f8 B6       		.byte	-74
 3748 00f9 E8       		.byte	-24
 3749 00fa 0A       		.byte	10
 3750 00fb 54       		.byte	84
 3751 00fc D7       		.byte	-41
 3752 00fd 89       		.byte	-119
 3753 00fe 6B       		.byte	107
 3754 00ff 35       		.byte	53
 3755              		.text
 3756              	.Letext0:
 3757              		.file 2 "c:\\program files (x86)\\cypress\\psoc creator\\3.3\\psoc creator\\import\\gnu\\arm\\4.9.
 3758              		.file 3 "c:\\program files (x86)\\cypress\\psoc creator\\3.3\\psoc creator\\import\\gnu\\arm\\4.9.
 3759              		.file 4 "Generated_Source\\PSoC5/cytypes.h"
 3760              		.file 5 "./variables.h"
 3761              		.file 6 "Generated_Source\\PSoC5/core_cm3.h"
 3762              		.file 7 "Generated_Source\\PSoC5/RF_Connection.h"
 3763              		.file 8 "Generated_Source\\PSoC5/CyLib.h"
 3764              		.file 9 "./protocol.h"
 3765              		.file 10 "./I2C.h"
 3766              		.file 11 "./Print.h"
 3767              		.file 12 "Generated_Source\\PSoC5/EEPROM_1.h"
 3768              		.file 13 "./LCD.h"
 3769              		.section	.debug_info,"",%progbits
 3770              	.Ldebug_info0:
 3771 0000 78130000 		.4byte	0x1378
 3772 0004 0400     		.2byte	0x4
 3773 0006 00000000 		.4byte	.Ldebug_abbrev0
 3774 000a 04       		.byte	0x4
 3775 000b 01       		.uleb128 0x1
ARM GAS  C:\Users\RECEPC~1\AppData\Local\Temp\cc4fvgjK.s 			page 86


 3776 000c 350C0000 		.4byte	.LASF264
 3777 0010 01       		.byte	0x1
 3778 0011 93060000 		.4byte	.LASF265
 3779 0015 3A0D0000 		.4byte	.LASF266
 3780 0019 00000000 		.4byte	.Ldebug_ranges0+0
 3781 001d 00000000 		.4byte	0
 3782 0021 00000000 		.4byte	.Ldebug_line0
 3783 0025 02       		.uleb128 0x2
 3784 0026 01       		.byte	0x1
 3785 0027 06       		.byte	0x6
 3786 0028 5E0E0000 		.4byte	.LASF0
 3787 002c 02       		.uleb128 0x2
 3788 002d 01       		.byte	0x1
 3789 002e 08       		.byte	0x8
 3790 002f F40B0000 		.4byte	.LASF1
 3791 0033 02       		.uleb128 0x2
 3792 0034 02       		.byte	0x2
 3793 0035 05       		.byte	0x5
 3794 0036 64090000 		.4byte	.LASF2
 3795 003a 02       		.uleb128 0x2
 3796 003b 02       		.byte	0x2
 3797 003c 07       		.byte	0x7
 3798 003d B40E0000 		.4byte	.LASF3
 3799 0041 03       		.uleb128 0x3
 3800 0042 57010000 		.4byte	.LASF9
 3801 0046 02       		.byte	0x2
 3802 0047 3F       		.byte	0x3f
 3803 0048 4C000000 		.4byte	0x4c
 3804 004c 02       		.uleb128 0x2
 3805 004d 04       		.byte	0x4
 3806 004e 05       		.byte	0x5
 3807 004f 6E090000 		.4byte	.LASF4
 3808 0053 02       		.uleb128 0x2
 3809 0054 04       		.byte	0x4
 3810 0055 07       		.byte	0x7
 3811 0056 500B0000 		.4byte	.LASF5
 3812 005a 02       		.uleb128 0x2
 3813 005b 08       		.byte	0x8
 3814 005c 05       		.byte	0x5
 3815 005d E7060000 		.4byte	.LASF6
 3816 0061 02       		.uleb128 0x2
 3817 0062 08       		.byte	0x8
 3818 0063 07       		.byte	0x7
 3819 0064 41030000 		.4byte	.LASF7
 3820 0068 04       		.uleb128 0x4
 3821 0069 04       		.byte	0x4
 3822 006a 05       		.byte	0x5
 3823 006b 696E7400 		.ascii	"int\000"
 3824 006f 02       		.uleb128 0x2
 3825 0070 04       		.byte	0x4
 3826 0071 07       		.byte	0x7
 3827 0072 3E010000 		.4byte	.LASF8
 3828 0076 03       		.uleb128 0x3
 3829 0077 9D0B0000 		.4byte	.LASF10
 3830 007b 03       		.byte	0x3
 3831 007c 2C       		.byte	0x2c
 3832 007d 41000000 		.4byte	0x41
ARM GAS  C:\Users\RECEPC~1\AppData\Local\Temp\cc4fvgjK.s 			page 87


 3833 0081 05       		.uleb128 0x5
 3834 0082 1C0F0000 		.4byte	.LASF11
 3835 0086 04       		.byte	0x4
 3836 0087 3801     		.2byte	0x138
 3837 0089 2C000000 		.4byte	0x2c
 3838 008d 05       		.uleb128 0x5
 3839 008e F2050000 		.4byte	.LASF12
 3840 0092 04       		.byte	0x4
 3841 0093 3901     		.2byte	0x139
 3842 0095 3A000000 		.4byte	0x3a
 3843 0099 05       		.uleb128 0x5
 3844 009a 14080000 		.4byte	.LASF13
 3845 009e 04       		.byte	0x4
 3846 009f 3A01     		.2byte	0x13a
 3847 00a1 53000000 		.4byte	0x53
 3848 00a5 02       		.uleb128 0x2
 3849 00a6 04       		.byte	0x4
 3850 00a7 04       		.byte	0x4
 3851 00a8 95020000 		.4byte	.LASF14
 3852 00ac 02       		.uleb128 0x2
 3853 00ad 08       		.byte	0x8
 3854 00ae 04       		.byte	0x4
 3855 00af 220F0000 		.4byte	.LASF15
 3856 00b3 05       		.uleb128 0x5
 3857 00b4 EB0A0000 		.4byte	.LASF16
 3858 00b8 04       		.byte	0x4
 3859 00b9 4401     		.2byte	0x144
 3860 00bb 61000000 		.4byte	0x61
 3861 00bf 05       		.uleb128 0x5
 3862 00c0 3A060000 		.4byte	.LASF17
 3863 00c4 04       		.byte	0x4
 3864 00c5 4901     		.2byte	0x149
 3865 00c7 CB000000 		.4byte	0xcb
 3866 00cb 02       		.uleb128 0x2
 3867 00cc 01       		.byte	0x1
 3868 00cd 08       		.byte	0x8
 3869 00ce 7B050000 		.4byte	.LASF18
 3870 00d2 05       		.uleb128 0x5
 3871 00d3 C20B0000 		.4byte	.LASF19
 3872 00d7 04       		.byte	0x4
 3873 00d8 DA01     		.2byte	0x1da
 3874 00da 53000000 		.4byte	0x53
 3875 00de 06       		.uleb128 0x6
 3876 00df 81000000 		.4byte	0x81
 3877 00e3 06       		.uleb128 0x6
 3878 00e4 99000000 		.4byte	0x99
 3879 00e8 02       		.uleb128 0x2
 3880 00e9 04       		.byte	0x4
 3881 00ea 07       		.byte	0x7
 3882 00eb 470B0000 		.4byte	.LASF20
 3883 00ef 07       		.uleb128 0x7
 3884 00f0 04       		.byte	0x4
 3885 00f1 08       		.uleb128 0x8
 3886 00f2 81000000 		.4byte	0x81
 3887 00f6 01010000 		.4byte	0x101
 3888 00fa 09       		.uleb128 0x9
 3889 00fb E8000000 		.4byte	0xe8
ARM GAS  C:\Users\RECEPC~1\AppData\Local\Temp\cc4fvgjK.s 			page 88


 3890 00ff 03       		.byte	0x3
 3891 0100 00       		.byte	0
 3892 0101 0A       		.uleb128 0xa
 3893 0102 16010000 		.4byte	.LASF63
 3894 0106 4C01     		.2byte	0x14c
 3895 0108 05       		.byte	0x5
 3896 0109 81       		.byte	0x81
 3897 010a 15030000 		.4byte	0x315
 3898 010e 0B       		.uleb128 0xb
 3899 010f 9D010000 		.4byte	.LASF21
 3900 0113 05       		.byte	0x5
 3901 0114 82       		.byte	0x82
 3902 0115 81000000 		.4byte	0x81
 3903 0119 00       		.byte	0
 3904 011a 0B       		.uleb128 0xb
 3905 011b 63040000 		.4byte	.LASF22
 3906 011f 05       		.byte	0x5
 3907 0120 83       		.byte	0x83
 3908 0121 15030000 		.4byte	0x315
 3909 0125 01       		.byte	0x1
 3910 0126 0B       		.uleb128 0xb
 3911 0127 290F0000 		.4byte	.LASF23
 3912 012b 05       		.byte	0x5
 3913 012c 84       		.byte	0x84
 3914 012d 81000000 		.4byte	0x81
 3915 0131 1A       		.byte	0x1a
 3916 0132 0B       		.uleb128 0xb
 3917 0133 E20B0000 		.4byte	.LASF24
 3918 0137 05       		.byte	0x5
 3919 0138 85       		.byte	0x85
 3920 0139 81000000 		.4byte	0x81
 3921 013d 1B       		.byte	0x1b
 3922 013e 0B       		.uleb128 0xb
 3923 013f EF010000 		.4byte	.LASF25
 3924 0143 05       		.byte	0x5
 3925 0144 86       		.byte	0x86
 3926 0145 25030000 		.4byte	0x325
 3927 0149 1C       		.byte	0x1c
 3928 014a 0B       		.uleb128 0xb
 3929 014b FB080000 		.4byte	.LASF26
 3930 014f 05       		.byte	0x5
 3931 0150 87       		.byte	0x87
 3932 0151 25030000 		.4byte	0x325
 3933 0155 26       		.byte	0x26
 3934 0156 0B       		.uleb128 0xb
 3935 0157 7D0F0000 		.4byte	.LASF27
 3936 015b 05       		.byte	0x5
 3937 015c 88       		.byte	0x88
 3938 015d 15030000 		.4byte	0x315
 3939 0161 30       		.byte	0x30
 3940 0162 0B       		.uleb128 0xb
 3941 0163 A2080000 		.4byte	.LASF28
 3942 0167 05       		.byte	0x5
 3943 0168 89       		.byte	0x89
 3944 0169 81000000 		.4byte	0x81
 3945 016d 49       		.byte	0x49
 3946 016e 0B       		.uleb128 0xb
ARM GAS  C:\Users\RECEPC~1\AppData\Local\Temp\cc4fvgjK.s 			page 89


 3947 016f DF0C0000 		.4byte	.LASF29
 3948 0173 05       		.byte	0x5
 3949 0174 8A       		.byte	0x8a
 3950 0175 81000000 		.4byte	0x81
 3951 0179 4A       		.byte	0x4a
 3952 017a 0B       		.uleb128 0xb
 3953 017b 71050000 		.4byte	.LASF30
 3954 017f 05       		.byte	0x5
 3955 0180 8B       		.byte	0x8b
 3956 0181 35030000 		.4byte	0x335
 3957 0185 4B       		.byte	0x4b
 3958 0186 0B       		.uleb128 0xb
 3959 0187 CA070000 		.4byte	.LASF31
 3960 018b 05       		.byte	0x5
 3961 018c 8C       		.byte	0x8c
 3962 018d 81000000 		.4byte	0x81
 3963 0191 60       		.byte	0x60
 3964 0192 0B       		.uleb128 0xb
 3965 0193 5E050000 		.4byte	.LASF32
 3966 0197 05       		.byte	0x5
 3967 0198 8D       		.byte	0x8d
 3968 0199 81000000 		.4byte	0x81
 3969 019d 61       		.byte	0x61
 3970 019e 0B       		.uleb128 0xb
 3971 019f 32010000 		.4byte	.LASF33
 3972 01a3 05       		.byte	0x5
 3973 01a4 8E       		.byte	0x8e
 3974 01a5 81000000 		.4byte	0x81
 3975 01a9 62       		.byte	0x62
 3976 01aa 0B       		.uleb128 0xb
 3977 01ab 900D0000 		.4byte	.LASF34
 3978 01af 05       		.byte	0x5
 3979 01b0 8F       		.byte	0x8f
 3980 01b1 45030000 		.4byte	0x345
 3981 01b5 63       		.byte	0x63
 3982 01b6 0B       		.uleb128 0xb
 3983 01b7 1A050000 		.4byte	.LASF35
 3984 01bb 05       		.byte	0x5
 3985 01bc 90       		.byte	0x90
 3986 01bd 55030000 		.4byte	0x355
 3987 01c1 65       		.byte	0x65
 3988 01c2 0B       		.uleb128 0xb
 3989 01c3 33040000 		.4byte	.LASF36
 3990 01c7 05       		.byte	0x5
 3991 01c8 91       		.byte	0x91
 3992 01c9 81000000 		.4byte	0x81
 3993 01cd 79       		.byte	0x79
 3994 01ce 0B       		.uleb128 0xb
 3995 01cf 0E0B0000 		.4byte	.LASF37
 3996 01d3 05       		.byte	0x5
 3997 01d4 92       		.byte	0x92
 3998 01d5 6B030000 		.4byte	0x36b
 3999 01d9 7A       		.byte	0x7a
 4000 01da 0B       		.uleb128 0xb
 4001 01db 420A0000 		.4byte	.LASF38
 4002 01df 05       		.byte	0x5
 4003 01e0 93       		.byte	0x93
ARM GAS  C:\Users\RECEPC~1\AppData\Local\Temp\cc4fvgjK.s 			page 90


 4004 01e1 7B030000 		.4byte	0x37b
 4005 01e5 7F       		.byte	0x7f
 4006 01e6 0B       		.uleb128 0xb
 4007 01e7 380F0000 		.4byte	.LASF39
 4008 01eb 05       		.byte	0x5
 4009 01ec 94       		.byte	0x94
 4010 01ed 7B030000 		.4byte	0x37b
 4011 01f1 85       		.byte	0x85
 4012 01f2 0B       		.uleb128 0xb
 4013 01f3 C8080000 		.4byte	.LASF40
 4014 01f7 05       		.byte	0x5
 4015 01f8 95       		.byte	0x95
 4016 01f9 8B030000 		.4byte	0x38b
 4017 01fd 8B       		.byte	0x8b
 4018 01fe 0B       		.uleb128 0xb
 4019 01ff 8D030000 		.4byte	.LASF41
 4020 0203 05       		.byte	0x5
 4021 0204 96       		.byte	0x96
 4022 0205 8B030000 		.4byte	0x38b
 4023 0209 99       		.byte	0x99
 4024 020a 0B       		.uleb128 0xb
 4025 020b 84070000 		.4byte	.LASF42
 4026 020f 05       		.byte	0x5
 4027 0210 97       		.byte	0x97
 4028 0211 8B030000 		.4byte	0x38b
 4029 0215 A7       		.byte	0xa7
 4030 0216 0B       		.uleb128 0xb
 4031 0217 83060000 		.4byte	.LASF43
 4032 021b 05       		.byte	0x5
 4033 021c 98       		.byte	0x98
 4034 021d 8B030000 		.4byte	0x38b
 4035 0221 B5       		.byte	0xb5
 4036 0222 0B       		.uleb128 0xb
 4037 0223 D10A0000 		.4byte	.LASF44
 4038 0227 05       		.byte	0x5
 4039 0228 99       		.byte	0x99
 4040 0229 8B030000 		.4byte	0x38b
 4041 022d C3       		.byte	0xc3
 4042 022e 0B       		.uleb128 0xb
 4043 022f 88080000 		.4byte	.LASF45
 4044 0233 05       		.byte	0x5
 4045 0234 9A       		.byte	0x9a
 4046 0235 8B030000 		.4byte	0x38b
 4047 0239 D1       		.byte	0xd1
 4048 023a 0B       		.uleb128 0xb
 4049 023b 4B090000 		.4byte	.LASF46
 4050 023f 05       		.byte	0x5
 4051 0240 9B       		.byte	0x9b
 4052 0241 9B030000 		.4byte	0x39b
 4053 0245 DF       		.byte	0xdf
 4054 0246 0B       		.uleb128 0xb
 4055 0247 93040000 		.4byte	.LASF47
 4056 024b 05       		.byte	0x5
 4057 024c 9C       		.byte	0x9c
 4058 024d 9B030000 		.4byte	0x39b
 4059 0251 EA       		.byte	0xea
 4060 0252 0B       		.uleb128 0xb
ARM GAS  C:\Users\RECEPC~1\AppData\Local\Temp\cc4fvgjK.s 			page 91


 4061 0253 53050000 		.4byte	.LASF48
 4062 0257 05       		.byte	0x5
 4063 0258 9D       		.byte	0x9d
 4064 0259 9B030000 		.4byte	0x39b
 4065 025d F5       		.byte	0xf5
 4066 025e 0C       		.uleb128 0xc
 4067 025f F3070000 		.4byte	.LASF49
 4068 0263 05       		.byte	0x5
 4069 0264 9E       		.byte	0x9e
 4070 0265 81000000 		.4byte	0x81
 4071 0269 0001     		.2byte	0x100
 4072 026b 0C       		.uleb128 0xc
 4073 026c 2E060000 		.4byte	.LASF50
 4074 0270 05       		.byte	0x5
 4075 0271 9F       		.byte	0x9f
 4076 0272 81000000 		.4byte	0x81
 4077 0276 0101     		.2byte	0x101
 4078 0278 0C       		.uleb128 0xc
 4079 0279 61010000 		.4byte	.LASF51
 4080 027d 05       		.byte	0x5
 4081 027e A0       		.byte	0xa0
 4082 027f 81000000 		.4byte	0x81
 4083 0283 0201     		.2byte	0x102
 4084 0285 0C       		.uleb128 0xc
 4085 0286 010A0000 		.4byte	.LASF52
 4086 028a 05       		.byte	0x5
 4087 028b A1       		.byte	0xa1
 4088 028c 81000000 		.4byte	0x81
 4089 0290 0301     		.2byte	0x103
 4090 0292 0C       		.uleb128 0xc
 4091 0293 9E060000 		.4byte	.LASF53
 4092 0297 05       		.byte	0x5
 4093 0298 A2       		.byte	0xa2
 4094 0299 25030000 		.4byte	0x325
 4095 029d 0401     		.2byte	0x104
 4096 029f 0C       		.uleb128 0xc
 4097 02a0 D8000000 		.4byte	.LASF54
 4098 02a4 05       		.byte	0x5
 4099 02a5 A3       		.byte	0xa3
 4100 02a6 25030000 		.4byte	0x325
 4101 02aa 0E01     		.2byte	0x10e
 4102 02ac 0C       		.uleb128 0xc
 4103 02ad 6C060000 		.4byte	.LASF55
 4104 02b1 05       		.byte	0x5
 4105 02b2 A4       		.byte	0xa4
 4106 02b3 25030000 		.4byte	0x325
 4107 02b7 1801     		.2byte	0x118
 4108 02b9 0C       		.uleb128 0xc
 4109 02ba 57090000 		.4byte	.LASF56
 4110 02be 05       		.byte	0x5
 4111 02bf A5       		.byte	0xa5
 4112 02c0 AB030000 		.4byte	0x3ab
 4113 02c4 2201     		.2byte	0x122
 4114 02c6 0C       		.uleb128 0xc
 4115 02c7 A9060000 		.4byte	.LASF57
 4116 02cb 05       		.byte	0x5
 4117 02cc A6       		.byte	0xa6
ARM GAS  C:\Users\RECEPC~1\AppData\Local\Temp\cc4fvgjK.s 			page 92


 4118 02cd 45030000 		.4byte	0x345
 4119 02d1 3101     		.2byte	0x131
 4120 02d3 0C       		.uleb128 0xc
 4121 02d4 9F040000 		.4byte	.LASF58
 4122 02d8 05       		.byte	0x5
 4123 02d9 A7       		.byte	0xa7
 4124 02da 81000000 		.4byte	0x81
 4125 02de 3301     		.2byte	0x133
 4126 02e0 0C       		.uleb128 0xc
 4127 02e1 930B0000 		.4byte	.LASF59
 4128 02e5 05       		.byte	0x5
 4129 02e6 A8       		.byte	0xa8
 4130 02e7 81000000 		.4byte	0x81
 4131 02eb 3401     		.2byte	0x134
 4132 02ed 0C       		.uleb128 0xc
 4133 02ee BD040000 		.4byte	.LASF60
 4134 02f2 05       		.byte	0x5
 4135 02f3 A9       		.byte	0xa9
 4136 02f4 81000000 		.4byte	0x81
 4137 02f8 3501     		.2byte	0x135
 4138 02fa 0C       		.uleb128 0xc
 4139 02fb AB090000 		.4byte	.LASF61
 4140 02ff 05       		.byte	0x5
 4141 0300 AA       		.byte	0xaa
 4142 0301 9B030000 		.4byte	0x39b
 4143 0305 3601     		.2byte	0x136
 4144 0307 0C       		.uleb128 0xc
 4145 0308 230E0000 		.4byte	.LASF62
 4146 030c 05       		.byte	0x5
 4147 030d AB       		.byte	0xab
 4148 030e 9B030000 		.4byte	0x39b
 4149 0312 4101     		.2byte	0x141
 4150 0314 00       		.byte	0
 4151 0315 08       		.uleb128 0x8
 4152 0316 81000000 		.4byte	0x81
 4153 031a 25030000 		.4byte	0x325
 4154 031e 09       		.uleb128 0x9
 4155 031f E8000000 		.4byte	0xe8
 4156 0323 18       		.byte	0x18
 4157 0324 00       		.byte	0
 4158 0325 08       		.uleb128 0x8
 4159 0326 81000000 		.4byte	0x81
 4160 032a 35030000 		.4byte	0x335
 4161 032e 09       		.uleb128 0x9
 4162 032f E8000000 		.4byte	0xe8
 4163 0333 09       		.byte	0x9
 4164 0334 00       		.byte	0
 4165 0335 08       		.uleb128 0x8
 4166 0336 81000000 		.4byte	0x81
 4167 033a 45030000 		.4byte	0x345
 4168 033e 09       		.uleb128 0x9
 4169 033f E8000000 		.4byte	0xe8
 4170 0343 14       		.byte	0x14
 4171 0344 00       		.byte	0
 4172 0345 08       		.uleb128 0x8
 4173 0346 81000000 		.4byte	0x81
 4174 034a 55030000 		.4byte	0x355
ARM GAS  C:\Users\RECEPC~1\AppData\Local\Temp\cc4fvgjK.s 			page 93


 4175 034e 09       		.uleb128 0x9
 4176 034f E8000000 		.4byte	0xe8
 4177 0353 01       		.byte	0x1
 4178 0354 00       		.byte	0
 4179 0355 08       		.uleb128 0x8
 4180 0356 81000000 		.4byte	0x81
 4181 035a 6B030000 		.4byte	0x36b
 4182 035e 09       		.uleb128 0x9
 4183 035f E8000000 		.4byte	0xe8
 4184 0363 01       		.byte	0x1
 4185 0364 09       		.uleb128 0x9
 4186 0365 E8000000 		.4byte	0xe8
 4187 0369 09       		.byte	0x9
 4188 036a 00       		.byte	0
 4189 036b 08       		.uleb128 0x8
 4190 036c 81000000 		.4byte	0x81
 4191 0370 7B030000 		.4byte	0x37b
 4192 0374 09       		.uleb128 0x9
 4193 0375 E8000000 		.4byte	0xe8
 4194 0379 04       		.byte	0x4
 4195 037a 00       		.byte	0
 4196 037b 08       		.uleb128 0x8
 4197 037c 81000000 		.4byte	0x81
 4198 0380 8B030000 		.4byte	0x38b
 4199 0384 09       		.uleb128 0x9
 4200 0385 E8000000 		.4byte	0xe8
 4201 0389 05       		.byte	0x5
 4202 038a 00       		.byte	0
 4203 038b 08       		.uleb128 0x8
 4204 038c 81000000 		.4byte	0x81
 4205 0390 9B030000 		.4byte	0x39b
 4206 0394 09       		.uleb128 0x9
 4207 0395 E8000000 		.4byte	0xe8
 4208 0399 0D       		.byte	0xd
 4209 039a 00       		.byte	0
 4210 039b 08       		.uleb128 0x8
 4211 039c 81000000 		.4byte	0x81
 4212 03a0 AB030000 		.4byte	0x3ab
 4213 03a4 09       		.uleb128 0x9
 4214 03a5 E8000000 		.4byte	0xe8
 4215 03a9 0A       		.byte	0xa
 4216 03aa 00       		.byte	0
 4217 03ab 08       		.uleb128 0x8
 4218 03ac 81000000 		.4byte	0x81
 4219 03b0 BB030000 		.4byte	0x3bb
 4220 03b4 09       		.uleb128 0x9
 4221 03b5 E8000000 		.4byte	0xe8
 4222 03b9 0E       		.byte	0xe
 4223 03ba 00       		.byte	0
 4224 03bb 0A       		.uleb128 0xa
 4225 03bc 900F0000 		.4byte	.LASF64
 4226 03c0 1201     		.2byte	0x112
 4227 03c2 05       		.byte	0x5
 4228 03c3 BC       		.byte	0xbc
 4229 03c4 92040000 		.4byte	0x492
 4230 03c8 0D       		.uleb128 0xd
 4231 03c9 64697200 		.ascii	"dir\000"
ARM GAS  C:\Users\RECEPC~1\AppData\Local\Temp\cc4fvgjK.s 			page 94


 4232 03cd 05       		.byte	0x5
 4233 03ce BD       		.byte	0xbd
 4234 03cf 81000000 		.4byte	0x81
 4235 03d3 00       		.byte	0
 4236 03d4 0B       		.uleb128 0xb
 4237 03d5 0D050000 		.4byte	.LASF65
 4238 03d9 05       		.byte	0x5
 4239 03da BE       		.byte	0xbe
 4240 03db 92040000 		.4byte	0x492
 4241 03df 01       		.byte	0x1
 4242 03e0 0B       		.uleb128 0xb
 4243 03e1 6F0F0000 		.4byte	.LASF66
 4244 03e5 05       		.byte	0x5
 4245 03e6 BF       		.byte	0xbf
 4246 03e7 AE040000 		.4byte	0x4ae
 4247 03eb B5       		.byte	0xb5
 4248 03ec 0B       		.uleb128 0xb
 4249 03ed DD060000 		.4byte	.LASF67
 4250 03f1 05       		.byte	0x5
 4251 03f2 C0       		.byte	0xc0
 4252 03f3 8B030000 		.4byte	0x38b
 4253 03f7 D5       		.byte	0xd5
 4254 03f8 0B       		.uleb128 0xb
 4255 03f9 F30D0000 		.4byte	.LASF68
 4256 03fd 05       		.byte	0x5
 4257 03fe C1       		.byte	0xc1
 4258 03ff 8B030000 		.4byte	0x38b
 4259 0403 E3       		.byte	0xe3
 4260 0404 0B       		.uleb128 0xb
 4261 0405 3B070000 		.4byte	.LASF69
 4262 0409 05       		.byte	0x5
 4263 040a C2       		.byte	0xc2
 4264 040b 8B030000 		.4byte	0x38b
 4265 040f F1       		.byte	0xf1
 4266 0410 0B       		.uleb128 0xb
 4267 0411 FB0E0000 		.4byte	.LASF70
 4268 0415 05       		.byte	0x5
 4269 0416 C3       		.byte	0xc3
 4270 0417 81000000 		.4byte	0x81
 4271 041b FF       		.byte	0xff
 4272 041c 0C       		.uleb128 0xc
 4273 041d 880B0000 		.4byte	.LASF71
 4274 0421 05       		.byte	0x5
 4275 0422 C4       		.byte	0xc4
 4276 0423 81000000 		.4byte	0x81
 4277 0427 0001     		.2byte	0x100
 4278 0429 0C       		.uleb128 0xc
 4279 042a 1A030000 		.4byte	.LASF72
 4280 042e 05       		.byte	0x5
 4281 042f C5       		.byte	0xc5
 4282 0430 81000000 		.4byte	0x81
 4283 0434 0101     		.2byte	0x101
 4284 0436 0C       		.uleb128 0xc
 4285 0437 510A0000 		.4byte	.LASF73
 4286 043b 05       		.byte	0x5
 4287 043c C6       		.byte	0xc6
 4288 043d 81000000 		.4byte	0x81
ARM GAS  C:\Users\RECEPC~1\AppData\Local\Temp\cc4fvgjK.s 			page 95


 4289 0441 0201     		.2byte	0x102
 4290 0443 0C       		.uleb128 0xc
 4291 0444 A90F0000 		.4byte	.LASF74
 4292 0448 05       		.byte	0x5
 4293 0449 C7       		.byte	0xc7
 4294 044a 81000000 		.4byte	0x81
 4295 044e 0301     		.2byte	0x103
 4296 0450 0C       		.uleb128 0xc
 4297 0451 24060000 		.4byte	.LASF75
 4298 0455 05       		.byte	0x5
 4299 0456 C8       		.byte	0xc8
 4300 0457 81000000 		.4byte	0x81
 4301 045b 0401     		.2byte	0x104
 4302 045d 0C       		.uleb128 0xc
 4303 045e 0F020000 		.4byte	.LASF76
 4304 0462 05       		.byte	0x5
 4305 0463 C9       		.byte	0xc9
 4306 0464 81000000 		.4byte	0x81
 4307 0468 0501     		.2byte	0x105
 4308 046a 0C       		.uleb128 0xc
 4309 046b 320F0000 		.4byte	.LASF77
 4310 046f 05       		.byte	0x5
 4311 0470 CA       		.byte	0xca
 4312 0471 81000000 		.4byte	0x81
 4313 0475 0601     		.2byte	0x106
 4314 0477 0C       		.uleb128 0xc
 4315 0478 CA000000 		.4byte	.LASF78
 4316 047c 05       		.byte	0x5
 4317 047d CB       		.byte	0xcb
 4318 047e 81000000 		.4byte	0x81
 4319 0482 0701     		.2byte	0x107
 4320 0484 0C       		.uleb128 0xc
 4321 0485 A50B0000 		.4byte	.LASF79
 4322 0489 05       		.byte	0x5
 4323 048a CC       		.byte	0xcc
 4324 048b 25030000 		.4byte	0x325
 4325 048f 0801     		.2byte	0x108
 4326 0491 00       		.byte	0
 4327 0492 08       		.uleb128 0x8
 4328 0493 81000000 		.4byte	0x81
 4329 0497 AE040000 		.4byte	0x4ae
 4330 049b 09       		.uleb128 0x9
 4331 049c E8000000 		.4byte	0xe8
 4332 04a0 03       		.byte	0x3
 4333 04a1 09       		.uleb128 0x9
 4334 04a2 E8000000 		.4byte	0xe8
 4335 04a6 02       		.byte	0x2
 4336 04a7 09       		.uleb128 0x9
 4337 04a8 E8000000 		.4byte	0xe8
 4338 04ac 0E       		.byte	0xe
 4339 04ad 00       		.byte	0
 4340 04ae 08       		.uleb128 0x8
 4341 04af 81000000 		.4byte	0x81
 4342 04b3 C4040000 		.4byte	0x4c4
 4343 04b7 09       		.uleb128 0x9
 4344 04b8 E8000000 		.4byte	0xe8
 4345 04bc 03       		.byte	0x3
ARM GAS  C:\Users\RECEPC~1\AppData\Local\Temp\cc4fvgjK.s 			page 96


 4346 04bd 09       		.uleb128 0x9
 4347 04be E8000000 		.4byte	0xe8
 4348 04c2 07       		.byte	0x7
 4349 04c3 00       		.byte	0
 4350 04c4 0A       		.uleb128 0xa
 4351 04c5 160D0000 		.4byte	.LASF80
 4352 04c9 4804     		.2byte	0x448
 4353 04cb 05       		.byte	0x5
 4354 04cc CF       		.byte	0xcf
 4355 04cd FD040000 		.4byte	0x4fd
 4356 04d1 0D       		.uleb128 0xd
 4357 04d2 6100     		.ascii	"a\000"
 4358 04d4 05       		.byte	0x5
 4359 04d5 D0       		.byte	0xd0
 4360 04d6 BB030000 		.4byte	0x3bb
 4361 04da 00       		.byte	0
 4362 04db 0E       		.uleb128 0xe
 4363 04dc 6200     		.ascii	"b\000"
 4364 04de 05       		.byte	0x5
 4365 04df D1       		.byte	0xd1
 4366 04e0 BB030000 		.4byte	0x3bb
 4367 04e4 1201     		.2byte	0x112
 4368 04e6 0E       		.uleb128 0xe
 4369 04e7 6300     		.ascii	"c\000"
 4370 04e9 05       		.byte	0x5
 4371 04ea D2       		.byte	0xd2
 4372 04eb BB030000 		.4byte	0x3bb
 4373 04ef 2402     		.2byte	0x224
 4374 04f1 0E       		.uleb128 0xe
 4375 04f2 6400     		.ascii	"d\000"
 4376 04f4 05       		.byte	0x5
 4377 04f5 D3       		.byte	0xd3
 4378 04f6 BB030000 		.4byte	0x3bb
 4379 04fa 3603     		.2byte	0x336
 4380 04fc 00       		.byte	0
 4381 04fd 0F       		.uleb128 0xf
 4382 04fe D10E0000 		.4byte	.LASF138
 4383 0502 01       		.byte	0x1
 4384 0503 05       		.byte	0x5
 4385 0504 E9       		.byte	0xe9
 4386 0505 76060000 		.4byte	0x676
 4387 0509 10       		.uleb128 0x10
 4388 050a ED0E0000 		.4byte	.LASF81
 4389 050e 00       		.sleb128 0
 4390 050f 10       		.uleb128 0x10
 4391 0510 BC050000 		.4byte	.LASF82
 4392 0514 01       		.sleb128 1
 4393 0515 10       		.uleb128 0x10
 4394 0516 E2050000 		.4byte	.LASF83
 4395 051a 02       		.sleb128 2
 4396 051b 10       		.uleb128 0x10
 4397 051c AD040000 		.4byte	.LASF84
 4398 0520 03       		.sleb128 3
 4399 0521 10       		.uleb128 0x10
 4400 0522 26050000 		.4byte	.LASF85
 4401 0526 04       		.sleb128 4
 4402 0527 10       		.uleb128 0x10
ARM GAS  C:\Users\RECEPC~1\AppData\Local\Temp\cc4fvgjK.s 			page 97


 4403 0528 F9050000 		.4byte	.LASF86
 4404 052c 05       		.sleb128 5
 4405 052d 10       		.uleb128 0x10
 4406 052e 23090000 		.4byte	.LASF87
 4407 0532 06       		.sleb128 6
 4408 0533 10       		.uleb128 0x10
 4409 0534 CB010000 		.4byte	.LASF88
 4410 0538 0F       		.sleb128 15
 4411 0539 10       		.uleb128 0x10
 4412 053a 6A0E0000 		.4byte	.LASF89
 4413 053e FE00     		.sleb128 126
 4414 0540 10       		.uleb128 0x10
 4415 0541 870E0000 		.4byte	.LASF90
 4416 0545 8601     		.sleb128 134
 4417 0547 10       		.uleb128 0x10
 4418 0548 08070000 		.4byte	.LASF91
 4419 054c 07       		.sleb128 7
 4420 054d 10       		.uleb128 0x10
 4421 054e 38080000 		.4byte	.LASF92
 4422 0552 08       		.sleb128 8
 4423 0553 10       		.uleb128 0x10
 4424 0554 620B0000 		.4byte	.LASF93
 4425 0558 09       		.sleb128 9
 4426 0559 10       		.uleb128 0x10
 4427 055a DB080000 		.4byte	.LASF94
 4428 055e 0A       		.sleb128 10
 4429 055f 10       		.uleb128 0x10
 4430 0560 38020000 		.4byte	.LASF95
 4431 0564 0B       		.sleb128 11
 4432 0565 10       		.uleb128 0x10
 4433 0566 2E000000 		.4byte	.LASF96
 4434 056a 25       		.sleb128 37
 4435 056b 10       		.uleb128 0x10
 4436 056c B2070000 		.4byte	.LASF97
 4437 0570 26       		.sleb128 38
 4438 0571 10       		.uleb128 0x10
 4439 0572 70010000 		.4byte	.LASF98
 4440 0576 27       		.sleb128 39
 4441 0577 10       		.uleb128 0x10
 4442 0578 B3090000 		.4byte	.LASF99
 4443 057c 2F       		.sleb128 47
 4444 057d 10       		.uleb128 0x10
 4445 057e 93090000 		.4byte	.LASF100
 4446 0582 2C       		.sleb128 44
 4447 0583 10       		.uleb128 0x10
 4448 0584 510F0000 		.4byte	.LASF101
 4449 0588 0C       		.sleb128 12
 4450 0589 10       		.uleb128 0x10
 4451 058a 7F0A0000 		.4byte	.LASF102
 4452 058e 8501     		.sleb128 133
 4453 0590 10       		.uleb128 0x10
 4454 0591 C40D0000 		.4byte	.LASF103
 4455 0595 1C       		.sleb128 28
 4456 0596 10       		.uleb128 0x10
 4457 0597 E2020000 		.4byte	.LASF104
 4458 059b 12       		.sleb128 18
 4459 059c 10       		.uleb128 0x10
ARM GAS  C:\Users\RECEPC~1\AppData\Local\Temp\cc4fvgjK.s 			page 98


 4460 059d 6A080000 		.4byte	.LASF105
 4461 05a1 13       		.sleb128 19
 4462 05a2 10       		.uleb128 0x10
 4463 05a3 0D0A0000 		.4byte	.LASF106
 4464 05a7 24       		.sleb128 36
 4465 05a8 10       		.uleb128 0x10
 4466 05a9 72030000 		.4byte	.LASF107
 4467 05ad 0D       		.sleb128 13
 4468 05ae 10       		.uleb128 0x10
 4469 05af 4D060000 		.4byte	.LASF108
 4470 05b3 0E       		.sleb128 14
 4471 05b4 10       		.uleb128 0x10
 4472 05b5 A00A0000 		.4byte	.LASF109
 4473 05b9 8301     		.sleb128 131
 4474 05bb 10       		.uleb128 0x10
 4475 05bc A1030000 		.4byte	.LASF110
 4476 05c0 DA00     		.sleb128 90
 4477 05c2 10       		.uleb128 0x10
 4478 05c3 070F0000 		.4byte	.LASF111
 4479 05c7 31       		.sleb128 49
 4480 05c8 10       		.uleb128 0x10
 4481 05c9 270A0000 		.4byte	.LASF112
 4482 05cd 35       		.sleb128 53
 4483 05ce 10       		.uleb128 0x10
 4484 05cf 190C0000 		.4byte	.LASF113
 4485 05d3 2E       		.sleb128 46
 4486 05d4 10       		.uleb128 0x10
 4487 05d5 C30C0000 		.4byte	.LASF114
 4488 05d9 8C01     		.sleb128 140
 4489 05db 10       		.uleb128 0x10
 4490 05dc C6030000 		.4byte	.LASF115
 4491 05e0 9601     		.sleb128 150
 4492 05e2 10       		.uleb128 0x10
 4493 05e3 E8090000 		.4byte	.LASF116
 4494 05e7 39       		.sleb128 57
 4495 05e8 10       		.uleb128 0x10
 4496 05e9 63020000 		.4byte	.LASF117
 4497 05ed 9701     		.sleb128 151
 4498 05ef 10       		.uleb128 0x10
 4499 05f0 68000000 		.4byte	.LASF118
 4500 05f4 9801     		.sleb128 152
 4501 05f6 10       		.uleb128 0x10
 4502 05f7 CA090000 		.4byte	.LASF119
 4503 05fb 3E       		.sleb128 62
 4504 05fc 10       		.uleb128 0x10
 4505 05fd 21000000 		.4byte	.LASF120
 4506 0601 3F       		.sleb128 63
 4507 0602 10       		.uleb128 0x10
 4508 0603 15090000 		.4byte	.LASF121
 4509 0607 C000     		.sleb128 64
 4510 0609 10       		.uleb128 0x10
 4511 060a 010D0000 		.4byte	.LASF122
 4512 060e 8D01     		.sleb128 141
 4513 0610 10       		.uleb128 0x10
 4514 0611 70070000 		.4byte	.LASF123
 4515 0615 23       		.sleb128 35
 4516 0616 10       		.uleb128 0x10
ARM GAS  C:\Users\RECEPC~1\AppData\Local\Temp\cc4fvgjK.s 			page 99


 4517 0617 250D0000 		.4byte	.LASF124
 4518 061b 2A       		.sleb128 42
 4519 061c 10       		.uleb128 0x10
 4520 061d CB0B0000 		.4byte	.LASF125
 4521 0621 2B       		.sleb128 43
 4522 0622 10       		.uleb128 0x10
 4523 0623 020C0000 		.4byte	.LASF126
 4524 0627 3C       		.sleb128 60
 4525 0628 10       		.uleb128 0x10
 4526 0629 9B0D0000 		.4byte	.LASF127
 4527 062d C100     		.sleb128 65
 4528 062f 10       		.uleb128 0x10
 4529 0630 9B020000 		.4byte	.LASF128
 4530 0634 EB00     		.sleb128 107
 4531 0636 10       		.uleb128 0x10
 4532 0637 47000000 		.4byte	.LASF129
 4533 063b E700     		.sleb128 103
 4534 063d 10       		.uleb128 0x10
 4535 063e 1C070000 		.4byte	.LASF130
 4536 0642 E400     		.sleb128 100
 4537 0644 10       		.uleb128 0x10
 4538 0645 E4000000 		.4byte	.LASF131
 4539 0649 E500     		.sleb128 101
 4540 064b 10       		.uleb128 0x10
 4541 064c BB000000 		.4byte	.LASF132
 4542 0650 9901     		.sleb128 153
 4543 0652 10       		.uleb128 0x10
 4544 0653 310E0000 		.4byte	.LASF133
 4545 0657 9A01     		.sleb128 154
 4546 0659 10       		.uleb128 0x10
 4547 065a 400E0000 		.4byte	.LASF134
 4548 065e 9B01     		.sleb128 155
 4549 0660 10       		.uleb128 0x10
 4550 0661 4F0E0000 		.4byte	.LASF135
 4551 0665 9C01     		.sleb128 156
 4552 0667 10       		.uleb128 0x10
 4553 0668 A4010000 		.4byte	.LASF136
 4554 066c FA01     		.sleb128 250
 4555 066e 10       		.uleb128 0x10
 4556 066f A5070000 		.4byte	.LASF137
 4557 0673 FF01     		.sleb128 255
 4558 0675 00       		.byte	0
 4559 0676 11       		.uleb128 0x11
 4560 0677 EC030000 		.4byte	.LASF139
 4561 067b 01       		.byte	0x1
 4562 067c 05       		.byte	0x5
 4563 067d 3401     		.2byte	0x134
 4564 067f B4060000 		.4byte	0x6b4
 4565 0683 10       		.uleb128 0x10
 4566 0684 37030000 		.4byte	.LASF140
 4567 0688 00       		.sleb128 0
 4568 0689 10       		.uleb128 0x10
 4569 068a 8B020000 		.4byte	.LASF141
 4570 068e 06       		.sleb128 6
 4571 068f 10       		.uleb128 0x10
 4572 0690 D6070000 		.4byte	.LASF142
 4573 0694 07       		.sleb128 7
ARM GAS  C:\Users\RECEPC~1\AppData\Local\Temp\cc4fvgjK.s 			page 100


 4574 0695 10       		.uleb128 0x10
 4575 0696 1B080000 		.4byte	.LASF143
 4576 069a 08       		.sleb128 8
 4577 069b 10       		.uleb128 0x10
 4578 069c 67050000 		.4byte	.LASF144
 4579 06a0 09       		.sleb128 9
 4580 06a1 10       		.uleb128 0x10
 4581 06a2 1B0D0000 		.4byte	.LASF145
 4582 06a6 0A       		.sleb128 10
 4583 06a7 10       		.uleb128 0x10
 4584 06a8 68030000 		.4byte	.LASF146
 4585 06ac 0B       		.sleb128 11
 4586 06ad 10       		.uleb128 0x10
 4587 06ae 91050000 		.4byte	.LASF147
 4588 06b2 0C       		.sleb128 12
 4589 06b3 00       		.byte	0
 4590 06b4 11       		.uleb128 0x11
 4591 06b5 87040000 		.4byte	.LASF148
 4592 06b9 01       		.byte	0x1
 4593 06ba 05       		.byte	0x5
 4594 06bb 4001     		.2byte	0x140
 4595 06bd F8060000 		.4byte	0x6f8
 4596 06c1 10       		.uleb128 0x10
 4597 06c2 80080000 		.4byte	.LASF149
 4598 06c6 08       		.sleb128 8
 4599 06c7 10       		.uleb128 0x10
 4600 06c8 920A0000 		.4byte	.LASF150
 4601 06cc 01       		.sleb128 1
 4602 06cd 10       		.uleb128 0x10
 4603 06ce B00B0000 		.4byte	.LASF151
 4604 06d2 02       		.sleb128 2
 4605 06d3 10       		.uleb128 0x10
 4606 06d4 BB060000 		.4byte	.LASF152
 4607 06d8 03       		.sleb128 3
 4608 06d9 10       		.uleb128 0x10
 4609 06da 58030000 		.4byte	.LASF153
 4610 06de 05       		.sleb128 5
 4611 06df 10       		.uleb128 0x10
 4612 06e0 6B0A0000 		.4byte	.LASF154
 4613 06e4 06       		.sleb128 6
 4614 06e5 10       		.uleb128 0x10
 4615 06e6 DD0D0000 		.4byte	.LASF155
 4616 06ea 04       		.sleb128 4
 4617 06eb 10       		.uleb128 0x10
 4618 06ec F10C0000 		.4byte	.LASF156
 4619 06f0 0B       		.sleb128 11
 4620 06f1 10       		.uleb128 0x10
 4621 06f2 40060000 		.4byte	.LASF157
 4622 06f6 0C       		.sleb128 12
 4623 06f7 00       		.byte	0
 4624 06f8 12       		.uleb128 0x12
 4625 06f9 04       		.byte	0x4
 4626 06fa FE060000 		.4byte	0x6fe
 4627 06fe 13       		.uleb128 0x13
 4628 06ff 14       		.uleb128 0x14
 4629 0700 CD060000 		.4byte	.LASF267
 4630 0704 01       		.byte	0x1
ARM GAS  C:\Users\RECEPC~1\AppData\Local\Temp\cc4fvgjK.s 			page 101


 4631 0705 17       		.byte	0x17
 4632 0706 81000000 		.4byte	0x81
 4633 070a 00000000 		.4byte	.LFB63
 4634 070e 34000000 		.4byte	.LFE63-.LFB63
 4635 0712 01       		.uleb128 0x1
 4636 0713 9C       		.byte	0x9c
 4637 0714 91070000 		.4byte	0x791
 4638 0718 15       		.uleb128 0x15
 4639 0719 75060000 		.4byte	.LASF158
 4640 071d 01       		.byte	0x1
 4641 071e 17       		.byte	0x17
 4642 071f 91070000 		.4byte	0x791
 4643 0723 00000000 		.4byte	.LLST0
 4644 0727 15       		.uleb128 0x15
 4645 0728 00080000 		.4byte	.LASF159
 4646 072c 01       		.byte	0x1
 4647 072d 17       		.byte	0x17
 4648 072e 8D000000 		.4byte	0x8d
 4649 0732 2C000000 		.4byte	.LLST1
 4650 0736 16       		.uleb128 0x16
 4651 0737 C0020000 		.4byte	.LASF160
 4652 073b 01       		.byte	0x1
 4653 073c 18       		.byte	0x18
 4654 073d 81000000 		.4byte	0x81
 4655 0741 4D000000 		.4byte	.LLST2
 4656 0745 16       		.uleb128 0x16
 4657 0746 D0020000 		.4byte	.LASF161
 4658 074a 01       		.byte	0x1
 4659 074b 18       		.byte	0x18
 4660 074c 81000000 		.4byte	0x81
 4661 0750 77000000 		.4byte	.LLST3
 4662 0754 17       		.uleb128 0x17
 4663 0755 6900     		.ascii	"i\000"
 4664 0757 01       		.byte	0x1
 4665 0758 19       		.byte	0x19
 4666 0759 8D000000 		.4byte	0x8d
 4667 075d 8A000000 		.4byte	.LLST4
 4668 0761 18       		.uleb128 0x18
 4669 0762 B6050000 		.4byte	.LASF162
 4670 0766 01       		.byte	0x1
 4671 0767 1A       		.byte	0x1a
 4672 0768 97070000 		.4byte	0x797
 4673 076c 03       		.uleb128 0x3
 4674 076d 91       		.byte	0x91
 4675 076e F07D     		.sleb128 -272
 4676 0770 19       		.uleb128 0x19
 4677 0771 14000000 		.4byte	.LVL3
 4678 0775 75120000 		.4byte	0x1275
 4679 0779 1A       		.uleb128 0x1a
 4680 077a 01       		.uleb128 0x1
 4681 077b 52       		.byte	0x52
 4682 077c 03       		.uleb128 0x3
 4683 077d 0A       		.byte	0xa
 4684 077e 0001     		.2byte	0x100
 4685 0780 1A       		.uleb128 0x1a
 4686 0781 01       		.uleb128 0x1
 4687 0782 51       		.byte	0x51
ARM GAS  C:\Users\RECEPC~1\AppData\Local\Temp\cc4fvgjK.s 			page 102


 4688 0783 05       		.uleb128 0x5
 4689 0784 03       		.byte	0x3
 4690 0785 00000000 		.4byte	.LANCHOR0
 4691 0789 1A       		.uleb128 0x1a
 4692 078a 01       		.uleb128 0x1
 4693 078b 50       		.byte	0x50
 4694 078c 02       		.uleb128 0x2
 4695 078d 7D       		.byte	0x7d
 4696 078e 00       		.sleb128 0
 4697 078f 00       		.byte	0
 4698 0790 00       		.byte	0
 4699 0791 12       		.uleb128 0x12
 4700 0792 04       		.byte	0x4
 4701 0793 81000000 		.4byte	0x81
 4702 0797 08       		.uleb128 0x8
 4703 0798 81000000 		.4byte	0x81
 4704 079c A7070000 		.4byte	0x7a7
 4705 07a0 09       		.uleb128 0x9
 4706 07a1 E8000000 		.4byte	0xe8
 4707 07a5 FF       		.byte	0xff
 4708 07a6 00       		.byte	0
 4709 07a7 1B       		.uleb128 0x1b
 4710 07a8 FE000000 		.4byte	.LASF163
 4711 07ac 01       		.byte	0x1
 4712 07ad 5C01     		.2byte	0x15c
 4713 07af 00000000 		.4byte	.LFB65
 4714 07b3 44050000 		.4byte	.LFE65-.LFB65
 4715 07b7 01       		.uleb128 0x1
 4716 07b8 9C       		.byte	0x9c
 4717 07b9 6B080000 		.4byte	0x86b
 4718 07bd 1C       		.uleb128 0x1c
 4719 07be 7800     		.ascii	"x\000"
 4720 07c0 01       		.byte	0x1
 4721 07c1 5D01     		.2byte	0x15d
 4722 07c3 8D000000 		.4byte	0x8d
 4723 07c7 B4000000 		.4byte	.LLST5
 4724 07cb 1C       		.uleb128 0x1c
 4725 07cc 7900     		.ascii	"y\000"
 4726 07ce 01       		.byte	0x1
 4727 07cf 5D01     		.2byte	0x15d
 4728 07d1 8D000000 		.4byte	0x8d
 4729 07d5 76020000 		.4byte	.LLST6
 4730 07d9 1C       		.uleb128 0x1c
 4731 07da 7A00     		.ascii	"z\000"
 4732 07dc 01       		.byte	0x1
 4733 07dd 5D01     		.2byte	0x15d
 4734 07df 8D000000 		.4byte	0x8d
 4735 07e3 4D030000 		.4byte	.LLST7
 4736 07e7 1D       		.uleb128 0x1d
 4737 07e8 06010000 		.4byte	.LVL25
 4738 07ec FF060000 		.4byte	0x6ff
 4739 07f0 01080000 		.4byte	0x801
 4740 07f4 1A       		.uleb128 0x1a
 4741 07f5 01       		.uleb128 0x1
 4742 07f6 51       		.byte	0x51
 4743 07f7 02       		.uleb128 0x2
 4744 07f8 08       		.byte	0x8
ARM GAS  C:\Users\RECEPC~1\AppData\Local\Temp\cc4fvgjK.s 			page 103


 4745 07f9 28       		.byte	0x28
 4746 07fa 1A       		.uleb128 0x1a
 4747 07fb 01       		.uleb128 0x1
 4748 07fc 50       		.byte	0x50
 4749 07fd 02       		.uleb128 0x2
 4750 07fe 74       		.byte	0x74
 4751 07ff 00       		.sleb128 0
 4752 0800 00       		.byte	0
 4753 0801 1D       		.uleb128 0x1d
 4754 0802 A2020000 		.4byte	.LVL50
 4755 0806 FF060000 		.4byte	0x6ff
 4756 080a 1B080000 		.4byte	0x81b
 4757 080e 1A       		.uleb128 0x1a
 4758 080f 01       		.uleb128 0x1
 4759 0810 51       		.byte	0x51
 4760 0811 02       		.uleb128 0x2
 4761 0812 08       		.byte	0x8
 4762 0813 20       		.byte	0x20
 4763 0814 1A       		.uleb128 0x1a
 4764 0815 01       		.uleb128 0x1
 4765 0816 50       		.byte	0x50
 4766 0817 02       		.uleb128 0x2
 4767 0818 74       		.byte	0x74
 4768 0819 00       		.sleb128 0
 4769 081a 00       		.byte	0
 4770 081b 1D       		.uleb128 0x1d
 4771 081c 52030000 		.4byte	.LVL57
 4772 0820 FF060000 		.4byte	0x6ff
 4773 0824 35080000 		.4byte	0x835
 4774 0828 1A       		.uleb128 0x1a
 4775 0829 01       		.uleb128 0x1
 4776 082a 51       		.byte	0x51
 4777 082b 02       		.uleb128 0x2
 4778 082c 08       		.byte	0x8
 4779 082d 21       		.byte	0x21
 4780 082e 1A       		.uleb128 0x1a
 4781 082f 01       		.uleb128 0x1
 4782 0830 50       		.byte	0x50
 4783 0831 02       		.uleb128 0x2
 4784 0832 75       		.byte	0x75
 4785 0833 00       		.sleb128 0
 4786 0834 00       		.byte	0
 4787 0835 1E       		.uleb128 0x1e
 4788 0836 60030000 		.4byte	.LVL60
 4789 083a 92120000 		.4byte	0x1292
 4790 083e 1E       		.uleb128 0x1e
 4791 083f 90030000 		.4byte	.LVL64
 4792 0843 A3120000 		.4byte	0x12a3
 4793 0847 1D       		.uleb128 0x1d
 4794 0848 E6040000 		.4byte	.LVL111
 4795 084c FF060000 		.4byte	0x6ff
 4796 0850 61080000 		.4byte	0x861
 4797 0854 1A       		.uleb128 0x1a
 4798 0855 01       		.uleb128 0x1
 4799 0856 51       		.byte	0x51
 4800 0857 02       		.uleb128 0x2
 4801 0858 75       		.byte	0x75
ARM GAS  C:\Users\RECEPC~1\AppData\Local\Temp\cc4fvgjK.s 			page 104


 4802 0859 00       		.sleb128 0
 4803 085a 1A       		.uleb128 0x1a
 4804 085b 01       		.uleb128 0x1
 4805 085c 50       		.byte	0x50
 4806 085d 02       		.uleb128 0x2
 4807 085e 76       		.byte	0x76
 4808 085f 00       		.sleb128 0
 4809 0860 00       		.byte	0
 4810 0861 1E       		.uleb128 0x1e
 4811 0862 F4040000 		.4byte	.LVL114
 4812 0866 92120000 		.4byte	0x1292
 4813 086a 00       		.byte	0
 4814 086b 1B       		.uleb128 0x1b
 4815 086c B3080000 		.4byte	.LASF164
 4816 0870 01       		.byte	0x1
 4817 0871 1F02     		.2byte	0x21f
 4818 0873 00000000 		.4byte	.LFB66
 4819 0877 8C040000 		.4byte	.LFE66-.LFB66
 4820 087b 01       		.uleb128 0x1
 4821 087c 9C       		.byte	0x9c
 4822 087d 1D090000 		.4byte	0x91d
 4823 0881 1C       		.uleb128 0x1c
 4824 0882 7800     		.ascii	"x\000"
 4825 0884 01       		.byte	0x1
 4826 0885 2002     		.2byte	0x220
 4827 0887 8D000000 		.4byte	0x8d
 4828 088b 77030000 		.4byte	.LLST8
 4829 088f 1C       		.uleb128 0x1c
 4830 0890 7900     		.ascii	"y\000"
 4831 0892 01       		.byte	0x1
 4832 0893 2002     		.2byte	0x220
 4833 0895 8D000000 		.4byte	0x8d
 4834 0899 3A050000 		.4byte	.LLST9
 4835 089d 1C       		.uleb128 0x1c
 4836 089e 7A00     		.ascii	"z\000"
 4837 08a0 01       		.byte	0x1
 4838 08a1 2002     		.2byte	0x220
 4839 08a3 8D000000 		.4byte	0x8d
 4840 08a7 11060000 		.4byte	.LLST10
 4841 08ab 1D       		.uleb128 0x1d
 4842 08ac FE000000 		.4byte	.LVL135
 4843 08b0 FF060000 		.4byte	0x6ff
 4844 08b4 C5080000 		.4byte	0x8c5
 4845 08b8 1A       		.uleb128 0x1a
 4846 08b9 01       		.uleb128 0x1
 4847 08ba 51       		.byte	0x51
 4848 08bb 02       		.uleb128 0x2
 4849 08bc 08       		.byte	0x8
 4850 08bd 27       		.byte	0x27
 4851 08be 1A       		.uleb128 0x1a
 4852 08bf 01       		.uleb128 0x1
 4853 08c0 50       		.byte	0x50
 4854 08c1 02       		.uleb128 0x2
 4855 08c2 75       		.byte	0x75
 4856 08c3 00       		.sleb128 0
 4857 08c4 00       		.byte	0
 4858 08c5 1E       		.uleb128 0x1e
ARM GAS  C:\Users\RECEPC~1\AppData\Local\Temp\cc4fvgjK.s 			page 105


 4859 08c6 0C010000 		.4byte	.LVL138
 4860 08ca 92120000 		.4byte	0x1292
 4861 08ce 1D       		.uleb128 0x1d
 4862 08cf 72020000 		.4byte	.LVL165
 4863 08d3 FF060000 		.4byte	0x6ff
 4864 08d7 E7080000 		.4byte	0x8e7
 4865 08db 1A       		.uleb128 0x1a
 4866 08dc 01       		.uleb128 0x1
 4867 08dd 51       		.byte	0x51
 4868 08de 01       		.uleb128 0x1
 4869 08df 4F       		.byte	0x4f
 4870 08e0 1A       		.uleb128 0x1a
 4871 08e1 01       		.uleb128 0x1
 4872 08e2 50       		.byte	0x50
 4873 08e3 02       		.uleb128 0x2
 4874 08e4 75       		.byte	0x75
 4875 08e5 00       		.sleb128 0
 4876 08e6 00       		.byte	0
 4877 08e7 1E       		.uleb128 0x1e
 4878 08e8 A8020000 		.4byte	.LVL168
 4879 08ec 92120000 		.4byte	0x1292
 4880 08f0 1E       		.uleb128 0x1e
 4881 08f1 EE020000 		.4byte	.LVL172
 4882 08f5 A3120000 		.4byte	0x12a3
 4883 08f9 1D       		.uleb128 0x1d
 4884 08fa 4E040000 		.4byte	.LVL219
 4885 08fe FF060000 		.4byte	0x6ff
 4886 0902 13090000 		.4byte	0x913
 4887 0906 1A       		.uleb128 0x1a
 4888 0907 01       		.uleb128 0x1
 4889 0908 51       		.byte	0x51
 4890 0909 02       		.uleb128 0x2
 4891 090a 75       		.byte	0x75
 4892 090b 00       		.sleb128 0
 4893 090c 1A       		.uleb128 0x1a
 4894 090d 01       		.uleb128 0x1
 4895 090e 50       		.byte	0x50
 4896 090f 02       		.uleb128 0x2
 4897 0910 76       		.byte	0x76
 4898 0911 00       		.sleb128 0
 4899 0912 00       		.byte	0
 4900 0913 1E       		.uleb128 0x1e
 4901 0914 5C040000 		.4byte	.LVL222
 4902 0918 92120000 		.4byte	0x1292
 4903 091c 00       		.byte	0
 4904 091d 1F       		.uleb128 0x1f
 4905 091e 00050000 		.4byte	.LASF165
 4906 0922 01       		.byte	0x1
 4907 0923 36       		.byte	0x36
 4908 0924 00000000 		.4byte	.LFB64
 4909 0928 B4080000 		.4byte	.LFE64-.LFB64
 4910 092c 01       		.uleb128 0x1
 4911 092d 9C       		.byte	0x9c
 4912 092e FE0B0000 		.4byte	0xbfe
 4913 0932 17       		.uleb128 0x17
 4914 0933 6900     		.ascii	"i\000"
 4915 0935 01       		.byte	0x1
ARM GAS  C:\Users\RECEPC~1\AppData\Local\Temp\cc4fvgjK.s 			page 106


 4916 0936 37       		.byte	0x37
 4917 0937 8D000000 		.4byte	0x8d
 4918 093b 3B060000 		.4byte	.LLST11
 4919 093f 17       		.uleb128 0x17
 4920 0940 7800     		.ascii	"x\000"
 4921 0942 01       		.byte	0x1
 4922 0943 37       		.byte	0x37
 4923 0944 8D000000 		.4byte	0x8d
 4924 0948 D3060000 		.4byte	.LLST12
 4925 094c 17       		.uleb128 0x17
 4926 094d 7900     		.ascii	"y\000"
 4927 094f 01       		.byte	0x1
 4928 0950 37       		.byte	0x37
 4929 0951 8D000000 		.4byte	0x8d
 4930 0955 2A0A0000 		.4byte	.LLST13
 4931 0959 1D       		.uleb128 0x1d
 4932 095a 08000000 		.4byte	.LVL226
 4933 095e C2120000 		.4byte	0x12c2
 4934 0962 6D090000 		.4byte	0x96d
 4935 0966 1A       		.uleb128 0x1a
 4936 0967 01       		.uleb128 0x1
 4937 0968 50       		.byte	0x50
 4938 0969 02       		.uleb128 0x2
 4939 096a 08       		.byte	0x8
 4940 096b 32       		.byte	0x32
 4941 096c 00       		.byte	0
 4942 096d 1E       		.uleb128 0x1e
 4943 096e 0C000000 		.4byte	.LVL227
 4944 0972 D3120000 		.4byte	0x12d3
 4945 0976 1E       		.uleb128 0x1e
 4946 0977 24000000 		.4byte	.LVL230
 4947 097b DE120000 		.4byte	0x12de
 4948 097f 1E       		.uleb128 0x1e
 4949 0980 30000000 		.4byte	.LVL233
 4950 0984 D3120000 		.4byte	0x12d3
 4951 0988 1D       		.uleb128 0x1d
 4952 0989 4C010000 		.4byte	.LVL244
 4953 098d FF060000 		.4byte	0x6ff
 4954 0991 A1090000 		.4byte	0x9a1
 4955 0995 1A       		.uleb128 0x1a
 4956 0996 01       		.uleb128 0x1
 4957 0997 51       		.byte	0x51
 4958 0998 01       		.uleb128 0x1
 4959 0999 39       		.byte	0x39
 4960 099a 1A       		.uleb128 0x1a
 4961 099b 01       		.uleb128 0x1
 4962 099c 50       		.byte	0x50
 4963 099d 02       		.uleb128 0x2
 4964 099e 74       		.byte	0x74
 4965 099f 00       		.sleb128 0
 4966 09a0 00       		.byte	0
 4967 09a1 1E       		.uleb128 0x1e
 4968 09a2 5A010000 		.4byte	.LVL247
 4969 09a6 92120000 		.4byte	0x1292
 4970 09aa 1E       		.uleb128 0x1e
 4971 09ab 6E010000 		.4byte	.LVL252
 4972 09af 92120000 		.4byte	0x1292
ARM GAS  C:\Users\RECEPC~1\AppData\Local\Temp\cc4fvgjK.s 			page 107


 4973 09b3 1D       		.uleb128 0x1d
 4974 09b4 C6010000 		.4byte	.LVL264
 4975 09b8 FF060000 		.4byte	0x6ff
 4976 09bc C7090000 		.4byte	0x9c7
 4977 09c0 1A       		.uleb128 0x1a
 4978 09c1 01       		.uleb128 0x1
 4979 09c2 50       		.byte	0x50
 4980 09c3 02       		.uleb128 0x2
 4981 09c4 75       		.byte	0x75
 4982 09c5 00       		.sleb128 0
 4983 09c6 00       		.byte	0
 4984 09c7 1E       		.uleb128 0x1e
 4985 09c8 D8010000 		.4byte	.LVL268
 4986 09cc 92120000 		.4byte	0x1292
 4987 09d0 1E       		.uleb128 0x1e
 4988 09d1 E6010000 		.4byte	.LVL272
 4989 09d5 6B080000 		.4byte	0x86b
 4990 09d9 1D       		.uleb128 0x1d
 4991 09da 1A020000 		.4byte	.LVL277
 4992 09de FF060000 		.4byte	0x6ff
 4993 09e2 ED090000 		.4byte	0x9ed
 4994 09e6 1A       		.uleb128 0x1a
 4995 09e7 01       		.uleb128 0x1
 4996 09e8 50       		.byte	0x50
 4997 09e9 02       		.uleb128 0x2
 4998 09ea 75       		.byte	0x75
 4999 09eb 00       		.sleb128 0
 5000 09ec 00       		.byte	0
 5001 09ed 1E       		.uleb128 0x1e
 5002 09ee 2C020000 		.4byte	.LVL281
 5003 09f2 92120000 		.4byte	0x1292
 5004 09f6 1D       		.uleb128 0x1d
 5005 09f7 6A020000 		.4byte	.LVL289
 5006 09fb FF060000 		.4byte	0x6ff
 5007 09ff 0A0A0000 		.4byte	0xa0a
 5008 0a03 1A       		.uleb128 0x1a
 5009 0a04 01       		.uleb128 0x1
 5010 0a05 50       		.byte	0x50
 5011 0a06 02       		.uleb128 0x2
 5012 0a07 75       		.byte	0x75
 5013 0a08 00       		.sleb128 0
 5014 0a09 00       		.byte	0
 5015 0a0a 1E       		.uleb128 0x1e
 5016 0a0b 7C020000 		.4byte	.LVL293
 5017 0a0f 92120000 		.4byte	0x1292
 5018 0a13 1D       		.uleb128 0x1d
 5019 0a14 D2020000 		.4byte	.LVL301
 5020 0a18 FF060000 		.4byte	0x6ff
 5021 0a1c 2C0A0000 		.4byte	0xa2c
 5022 0a20 1A       		.uleb128 0x1a
 5023 0a21 01       		.uleb128 0x1
 5024 0a22 51       		.byte	0x51
 5025 0a23 01       		.uleb128 0x1
 5026 0a24 39       		.byte	0x39
 5027 0a25 1A       		.uleb128 0x1a
 5028 0a26 01       		.uleb128 0x1
 5029 0a27 50       		.byte	0x50
ARM GAS  C:\Users\RECEPC~1\AppData\Local\Temp\cc4fvgjK.s 			page 108


 5030 0a28 02       		.uleb128 0x2
 5031 0a29 74       		.byte	0x74
 5032 0a2a 00       		.sleb128 0
 5033 0a2b 00       		.byte	0
 5034 0a2c 1E       		.uleb128 0x1e
 5035 0a2d E0020000 		.4byte	.LVL304
 5036 0a31 92120000 		.4byte	0x1292
 5037 0a35 1D       		.uleb128 0x1d
 5038 0a36 28030000 		.4byte	.LVL313
 5039 0a3a FF060000 		.4byte	0x6ff
 5040 0a3e 490A0000 		.4byte	0xa49
 5041 0a42 1A       		.uleb128 0x1a
 5042 0a43 01       		.uleb128 0x1
 5043 0a44 50       		.byte	0x50
 5044 0a45 02       		.uleb128 0x2
 5045 0a46 75       		.byte	0x75
 5046 0a47 00       		.sleb128 0
 5047 0a48 00       		.byte	0
 5048 0a49 1E       		.uleb128 0x1e
 5049 0a4a 3A030000 		.4byte	.LVL317
 5050 0a4e 92120000 		.4byte	0x1292
 5051 0a52 1D       		.uleb128 0x1d
 5052 0a53 94040000 		.4byte	.LVL365
 5053 0a57 FF060000 		.4byte	0x6ff
 5054 0a5b 6C0A0000 		.4byte	0xa6c
 5055 0a5f 1A       		.uleb128 0x1a
 5056 0a60 01       		.uleb128 0x1
 5057 0a61 51       		.byte	0x51
 5058 0a62 02       		.uleb128 0x2
 5059 0a63 75       		.byte	0x75
 5060 0a64 00       		.sleb128 0
 5061 0a65 1A       		.uleb128 0x1a
 5062 0a66 01       		.uleb128 0x1
 5063 0a67 50       		.byte	0x50
 5064 0a68 02       		.uleb128 0x2
 5065 0a69 76       		.byte	0x76
 5066 0a6a 00       		.sleb128 0
 5067 0a6b 00       		.byte	0
 5068 0a6c 1E       		.uleb128 0x1e
 5069 0a6d A2040000 		.4byte	.LVL368
 5070 0a71 92120000 		.4byte	0x1292
 5071 0a75 1E       		.uleb128 0x1e
 5072 0a76 B8040000 		.4byte	.LVL372
 5073 0a7a E9120000 		.4byte	0x12e9
 5074 0a7e 1D       		.uleb128 0x1d
 5075 0a7f 4C050000 		.4byte	.LVL378
 5076 0a83 FF060000 		.4byte	0x6ff
 5077 0a87 970A0000 		.4byte	0xa97
 5078 0a8b 1A       		.uleb128 0x1a
 5079 0a8c 01       		.uleb128 0x1
 5080 0a8d 51       		.byte	0x51
 5081 0a8e 01       		.uleb128 0x1
 5082 0a8f 39       		.byte	0x39
 5083 0a90 1A       		.uleb128 0x1a
 5084 0a91 01       		.uleb128 0x1
 5085 0a92 50       		.byte	0x50
 5086 0a93 02       		.uleb128 0x2
ARM GAS  C:\Users\RECEPC~1\AppData\Local\Temp\cc4fvgjK.s 			page 109


 5087 0a94 74       		.byte	0x74
 5088 0a95 00       		.sleb128 0
 5089 0a96 00       		.byte	0
 5090 0a97 1E       		.uleb128 0x1e
 5091 0a98 5A050000 		.4byte	.LVL381
 5092 0a9c 92120000 		.4byte	0x1292
 5093 0aa0 1E       		.uleb128 0x1e
 5094 0aa1 B4050000 		.4byte	.LVL391
 5095 0aa5 03130000 		.4byte	0x1303
 5096 0aa9 1E       		.uleb128 0x1e
 5097 0aaa F0050000 		.4byte	.LVL398
 5098 0aae 03130000 		.4byte	0x1303
 5099 0ab2 1E       		.uleb128 0x1e
 5100 0ab3 2C060000 		.4byte	.LVL405
 5101 0ab7 03130000 		.4byte	0x1303
 5102 0abb 1E       		.uleb128 0x1e
 5103 0abc 6E060000 		.4byte	.LVL412
 5104 0ac0 03130000 		.4byte	0x1303
 5105 0ac4 1E       		.uleb128 0x1e
 5106 0ac5 FC060000 		.4byte	.LVL430
 5107 0ac9 19130000 		.4byte	0x1319
 5108 0acd 1E       		.uleb128 0x1e
 5109 0ace 00070000 		.4byte	.LVL431
 5110 0ad2 24130000 		.4byte	0x1324
 5111 0ad6 1D       		.uleb128 0x1d
 5112 0ad7 12070000 		.4byte	.LVL434
 5113 0adb 2F130000 		.4byte	0x132f
 5114 0adf EA0A0000 		.4byte	0xaea
 5115 0ae3 1A       		.uleb128 0x1a
 5116 0ae4 01       		.uleb128 0x1
 5117 0ae5 51       		.byte	0x51
 5118 0ae6 02       		.uleb128 0x2
 5119 0ae7 74       		.byte	0x74
 5120 0ae8 10       		.sleb128 16
 5121 0ae9 00       		.byte	0
 5122 0aea 1D       		.uleb128 0x1d
 5123 0aeb 30070000 		.4byte	.LVL439
 5124 0aef 2F130000 		.4byte	0x132f
 5125 0af3 FE0A0000 		.4byte	0xafe
 5126 0af7 1A       		.uleb128 0x1a
 5127 0af8 01       		.uleb128 0x1
 5128 0af9 51       		.byte	0x51
 5129 0afa 02       		.uleb128 0x2
 5130 0afb 74       		.byte	0x74
 5131 0afc 10       		.sleb128 16
 5132 0afd 00       		.byte	0
 5133 0afe 1D       		.uleb128 0x1d
 5134 0aff 4E070000 		.4byte	.LVL444
 5135 0b03 2F130000 		.4byte	0x132f
 5136 0b07 120B0000 		.4byte	0xb12
 5137 0b0b 1A       		.uleb128 0x1a
 5138 0b0c 01       		.uleb128 0x1
 5139 0b0d 51       		.byte	0x51
 5140 0b0e 02       		.uleb128 0x2
 5141 0b0f 74       		.byte	0x74
 5142 0b10 10       		.sleb128 16
 5143 0b11 00       		.byte	0
ARM GAS  C:\Users\RECEPC~1\AppData\Local\Temp\cc4fvgjK.s 			page 110


 5144 0b12 1D       		.uleb128 0x1d
 5145 0b13 6C070000 		.4byte	.LVL449
 5146 0b17 2F130000 		.4byte	0x132f
 5147 0b1b 260B0000 		.4byte	0xb26
 5148 0b1f 1A       		.uleb128 0x1a
 5149 0b20 01       		.uleb128 0x1
 5150 0b21 51       		.byte	0x51
 5151 0b22 02       		.uleb128 0x2
 5152 0b23 74       		.byte	0x74
 5153 0b24 10       		.sleb128 16
 5154 0b25 00       		.byte	0
 5155 0b26 1D       		.uleb128 0x1d
 5156 0b27 7A070000 		.4byte	.LVL452
 5157 0b2b 49130000 		.4byte	0x1349
 5158 0b2f 390B0000 		.4byte	0xb39
 5159 0b33 1A       		.uleb128 0x1a
 5160 0b34 01       		.uleb128 0x1
 5161 0b35 50       		.byte	0x50
 5162 0b36 01       		.uleb128 0x1
 5163 0b37 3C       		.byte	0x3c
 5164 0b38 00       		.byte	0
 5165 0b39 1D       		.uleb128 0x1d
 5166 0b3a 84070000 		.4byte	.LVL454
 5167 0b3e 49130000 		.4byte	0x1349
 5168 0b42 4C0B0000 		.4byte	0xb4c
 5169 0b46 1A       		.uleb128 0x1a
 5170 0b47 01       		.uleb128 0x1
 5171 0b48 50       		.byte	0x50
 5172 0b49 01       		.uleb128 0x1
 5173 0b4a 3D       		.byte	0x3d
 5174 0b4b 00       		.byte	0
 5175 0b4c 1D       		.uleb128 0x1d
 5176 0b4d 8E070000 		.4byte	.LVL455
 5177 0b51 49130000 		.4byte	0x1349
 5178 0b55 5F0B0000 		.4byte	0xb5f
 5179 0b59 1A       		.uleb128 0x1a
 5180 0b5a 01       		.uleb128 0x1
 5181 0b5b 50       		.byte	0x50
 5182 0b5c 01       		.uleb128 0x1
 5183 0b5d 3E       		.byte	0x3e
 5184 0b5e 00       		.byte	0
 5185 0b5f 1D       		.uleb128 0x1d
 5186 0b60 98070000 		.4byte	.LVL456
 5187 0b64 49130000 		.4byte	0x1349
 5188 0b68 720B0000 		.4byte	0xb72
 5189 0b6c 1A       		.uleb128 0x1a
 5190 0b6d 01       		.uleb128 0x1
 5191 0b6e 50       		.byte	0x50
 5192 0b6f 01       		.uleb128 0x1
 5193 0b70 3F       		.byte	0x3f
 5194 0b71 00       		.byte	0
 5195 0b72 1E       		.uleb128 0x1e
 5196 0b73 A6070000 		.4byte	.LVL457
 5197 0b77 03130000 		.4byte	0x1303
 5198 0b7b 1D       		.uleb128 0x1d
 5199 0b7c C4070000 		.4byte	.LVL460
 5200 0b80 FF060000 		.4byte	0x6ff
ARM GAS  C:\Users\RECEPC~1\AppData\Local\Temp\cc4fvgjK.s 			page 111


 5201 0b84 940B0000 		.4byte	0xb94
 5202 0b88 1A       		.uleb128 0x1a
 5203 0b89 01       		.uleb128 0x1
 5204 0b8a 51       		.byte	0x51
 5205 0b8b 01       		.uleb128 0x1
 5206 0b8c 3A       		.byte	0x3a
 5207 0b8d 1A       		.uleb128 0x1a
 5208 0b8e 01       		.uleb128 0x1
 5209 0b8f 50       		.byte	0x50
 5210 0b90 02       		.uleb128 0x2
 5211 0b91 74       		.byte	0x74
 5212 0b92 00       		.sleb128 0
 5213 0b93 00       		.byte	0
 5214 0b94 1E       		.uleb128 0x1e
 5215 0b95 D2070000 		.4byte	.LVL463
 5216 0b99 92120000 		.4byte	0x1292
 5217 0b9d 1D       		.uleb128 0x1d
 5218 0b9e 00080000 		.4byte	.LVL470
 5219 0ba2 2F130000 		.4byte	0x132f
 5220 0ba6 B00B0000 		.4byte	0xbb0
 5221 0baa 1A       		.uleb128 0x1a
 5222 0bab 01       		.uleb128 0x1
 5223 0bac 51       		.byte	0x51
 5224 0bad 01       		.uleb128 0x1
 5225 0bae 37       		.byte	0x37
 5226 0baf 00       		.byte	0
 5227 0bb0 1D       		.uleb128 0x1d
 5228 0bb1 26080000 		.4byte	.LVL472
 5229 0bb5 5E130000 		.4byte	0x135e
 5230 0bb9 C80B0000 		.4byte	0xbc8
 5231 0bbd 1A       		.uleb128 0x1a
 5232 0bbe 01       		.uleb128 0x1
 5233 0bbf 51       		.byte	0x51
 5234 0bc0 01       		.uleb128 0x1
 5235 0bc1 30       		.byte	0x30
 5236 0bc2 1A       		.uleb128 0x1a
 5237 0bc3 01       		.uleb128 0x1
 5238 0bc4 50       		.byte	0x50
 5239 0bc5 01       		.uleb128 0x1
 5240 0bc6 31       		.byte	0x31
 5241 0bc7 00       		.byte	0
 5242 0bc8 1D       		.uleb128 0x1d
 5243 0bc9 96080000 		.4byte	.LVL473
 5244 0bcd C2120000 		.4byte	0x12c2
 5245 0bd1 DC0B0000 		.4byte	0xbdc
 5246 0bd5 1A       		.uleb128 0x1a
 5247 0bd6 01       		.uleb128 0x1
 5248 0bd7 50       		.byte	0x50
 5249 0bd8 02       		.uleb128 0x2
 5250 0bd9 08       		.byte	0x8
 5251 0bda C8       		.byte	0xc8
 5252 0bdb 00       		.byte	0
 5253 0bdc 1D       		.uleb128 0x1d
 5254 0bdd 9E080000 		.4byte	.LVL474
 5255 0be1 5E130000 		.4byte	0x135e
 5256 0be5 F40B0000 		.4byte	0xbf4
 5257 0be9 1A       		.uleb128 0x1a
ARM GAS  C:\Users\RECEPC~1\AppData\Local\Temp\cc4fvgjK.s 			page 112


 5258 0bea 01       		.uleb128 0x1
 5259 0beb 51       		.byte	0x51
 5260 0bec 01       		.uleb128 0x1
 5261 0bed 43       		.byte	0x43
 5262 0bee 1A       		.uleb128 0x1a
 5263 0bef 01       		.uleb128 0x1
 5264 0bf0 50       		.byte	0x50
 5265 0bf1 01       		.uleb128 0x1
 5266 0bf2 31       		.byte	0x31
 5267 0bf3 00       		.byte	0
 5268 0bf4 1E       		.uleb128 0x1e
 5269 0bf5 A2080000 		.4byte	.LVL475
 5270 0bf9 74130000 		.4byte	0x1374
 5271 0bfd 00       		.byte	0
 5272 0bfe 20       		.uleb128 0x20
 5273 0bff 86090000 		.4byte	.LASF166
 5274 0c03 06       		.byte	0x6
 5275 0c04 5506     		.2byte	0x655
 5276 0c06 0A0C0000 		.4byte	0xc0a
 5277 0c0a 06       		.uleb128 0x6
 5278 0c0b 76000000 		.4byte	0x76
 5279 0c0f 21       		.uleb128 0x21
 5280 0c10 43070000 		.4byte	.LASF167
 5281 0c14 05       		.byte	0x5
 5282 0c15 2C       		.byte	0x2c
 5283 0c16 200C0000 		.4byte	0xc20
 5284 0c1a 05       		.uleb128 0x5
 5285 0c1b 03       		.byte	0x3
 5286 0c1c 00000000 		.4byte	countAnimation1
 5287 0c20 06       		.uleb128 0x6
 5288 0c21 B3000000 		.4byte	0xb3
 5289 0c25 21       		.uleb128 0x21
 5290 0c26 95070000 		.4byte	.LASF168
 5291 0c2a 05       		.byte	0x5
 5292 0c2b 2D       		.byte	0x2d
 5293 0c2c 200C0000 		.4byte	0xc20
 5294 0c30 05       		.uleb128 0x5
 5295 0c31 03       		.byte	0x3
 5296 0c32 00000000 		.4byte	countAnimation2
 5297 0c36 21       		.uleb128 0x21
 5298 0c37 7B060000 		.4byte	.LASF169
 5299 0c3b 05       		.byte	0x5
 5300 0c3c 2E       		.byte	0x2e
 5301 0c3d 200C0000 		.4byte	0xc20
 5302 0c41 05       		.uleb128 0x5
 5303 0c42 03       		.byte	0x3
 5304 0c43 00000000 		.4byte	countRX
 5305 0c47 21       		.uleb128 0x21
 5306 0c48 07020000 		.4byte	.LASF170
 5307 0c4c 05       		.byte	0x5
 5308 0c4d 2F       		.byte	0x2f
 5309 0c4e 200C0000 		.4byte	0xc20
 5310 0c52 05       		.uleb128 0x5
 5311 0c53 03       		.byte	0x3
 5312 0c54 00000000 		.4byte	countTX
 5313 0c58 21       		.uleb128 0x21
 5314 0c59 C70E0000 		.4byte	.LASF171
ARM GAS  C:\Users\RECEPC~1\AppData\Local\Temp\cc4fvgjK.s 			page 113


 5315 0c5d 05       		.byte	0x5
 5316 0c5e 30       		.byte	0x30
 5317 0c5f 200C0000 		.4byte	0xc20
 5318 0c63 05       		.uleb128 0x5
 5319 0c64 03       		.byte	0x3
 5320 0c65 00000000 		.4byte	countPump
 5321 0c69 21       		.uleb128 0x21
 5322 0c6a 75040000 		.4byte	.LASF172
 5323 0c6e 05       		.byte	0x5
 5324 0c6f 31       		.byte	0x31
 5325 0c70 200C0000 		.4byte	0xc20
 5326 0c74 05       		.uleb128 0x5
 5327 0c75 03       		.byte	0x3
 5328 0c76 00000000 		.4byte	countLCD
 5329 0c7a 21       		.uleb128 0x21
 5330 0c7b CC040000 		.4byte	.LASF173
 5331 0c7f 05       		.byte	0x5
 5332 0c80 32       		.byte	0x32
 5333 0c81 E3000000 		.4byte	0xe3
 5334 0c85 05       		.uleb128 0x5
 5335 0c86 03       		.byte	0x3
 5336 0c87 00000000 		.4byte	flowDisplay1
 5337 0c8b 21       		.uleb128 0x21
 5338 0c8c D9040000 		.4byte	.LASF174
 5339 0c90 05       		.byte	0x5
 5340 0c91 33       		.byte	0x33
 5341 0c92 E3000000 		.4byte	0xe3
 5342 0c96 05       		.uleb128 0x5
 5343 0c97 03       		.byte	0x3
 5344 0c98 00000000 		.4byte	flowDisplay2
 5345 0c9c 21       		.uleb128 0x21
 5346 0c9d E6040000 		.4byte	.LASF175
 5347 0ca1 05       		.byte	0x5
 5348 0ca2 34       		.byte	0x34
 5349 0ca3 E3000000 		.4byte	0xe3
 5350 0ca7 05       		.uleb128 0x5
 5351 0ca8 03       		.byte	0x3
 5352 0ca9 00000000 		.4byte	flowDisplay3
 5353 0cad 21       		.uleb128 0x21
 5354 0cae F3040000 		.4byte	.LASF176
 5355 0cb2 05       		.byte	0x5
 5356 0cb3 35       		.byte	0x35
 5357 0cb4 E3000000 		.4byte	0xe3
 5358 0cb8 05       		.uleb128 0x5
 5359 0cb9 03       		.byte	0x3
 5360 0cba 00000000 		.4byte	flowDisplay4
 5361 0cbe 21       		.uleb128 0x21
 5362 0cbf 9E050000 		.4byte	.LASF177
 5363 0cc3 05       		.byte	0x5
 5364 0cc4 36       		.byte	0x36
 5365 0cc5 DE000000 		.4byte	0xde
 5366 0cc9 05       		.uleb128 0x5
 5367 0cca 03       		.byte	0x3
 5368 0ccb 00000000 		.4byte	numberKeys1
 5369 0ccf 21       		.uleb128 0x21
 5370 0cd0 AA050000 		.4byte	.LASF178
 5371 0cd4 05       		.byte	0x5
ARM GAS  C:\Users\RECEPC~1\AppData\Local\Temp\cc4fvgjK.s 			page 114


 5372 0cd5 37       		.byte	0x37
 5373 0cd6 DE000000 		.4byte	0xde
 5374 0cda 05       		.uleb128 0x5
 5375 0cdb 03       		.byte	0x3
 5376 0cdc 00000000 		.4byte	numberKeys2
 5377 0ce0 21       		.uleb128 0x21
 5378 0ce1 F0080000 		.4byte	.LASF179
 5379 0ce5 05       		.byte	0x5
 5380 0ce6 38       		.byte	0x38
 5381 0ce7 DE000000 		.4byte	0xde
 5382 0ceb 05       		.uleb128 0x5
 5383 0cec 03       		.byte	0x3
 5384 0ced 00000000 		.4byte	flagPoint1
 5385 0cf1 21       		.uleb128 0x21
 5386 0cf2 FC010000 		.4byte	.LASF180
 5387 0cf6 05       		.byte	0x5
 5388 0cf7 39       		.byte	0x39
 5389 0cf8 DE000000 		.4byte	0xde
 5390 0cfc 05       		.uleb128 0x5
 5391 0cfd 03       		.byte	0x3
 5392 0cfe 00000000 		.4byte	flagPoint2
 5393 0d02 21       		.uleb128 0x21
 5394 0d03 4C040000 		.4byte	.LASF181
 5395 0d07 05       		.byte	0x5
 5396 0d08 3A       		.byte	0x3a
 5397 0d09 DE000000 		.4byte	0xde
 5398 0d0d 05       		.uleb128 0x5
 5399 0d0e 03       		.byte	0x3
 5400 0d0f 00000000 		.4byte	productNumber
 5401 0d13 21       		.uleb128 0x21
 5402 0d14 F20A0000 		.4byte	.LASF182
 5403 0d18 05       		.byte	0x5
 5404 0d19 3B       		.byte	0x3b
 5405 0d1a E3000000 		.4byte	0xe3
 5406 0d1e 05       		.uleb128 0x5
 5407 0d1f 03       		.byte	0x3
 5408 0d20 00000000 		.4byte	delayPicture1
 5409 0d24 21       		.uleb128 0x21
 5410 0d25 000B0000 		.4byte	.LASF183
 5411 0d29 05       		.byte	0x5
 5412 0d2a 3C       		.byte	0x3c
 5413 0d2b E3000000 		.4byte	0xe3
 5414 0d2f 05       		.uleb128 0x5
 5415 0d30 03       		.byte	0x3
 5416 0d31 00000000 		.4byte	delayPicture2
 5417 0d35 21       		.uleb128 0x21
 5418 0d36 C1080000 		.4byte	.LASF184
 5419 0d3a 05       		.byte	0x5
 5420 0d3b 3D       		.byte	0x3d
 5421 0d3c DE000000 		.4byte	0xde
 5422 0d40 05       		.uleb128 0x5
 5423 0d41 03       		.byte	0x3
 5424 0d42 00000000 		.4byte	ppux10
 5425 0d46 21       		.uleb128 0x21
 5426 0d47 0D090000 		.4byte	.LASF185
 5427 0d4b 05       		.byte	0x5
 5428 0d4c 3E       		.byte	0x3e
ARM GAS  C:\Users\RECEPC~1\AppData\Local\Temp\cc4fvgjK.s 			page 115


 5429 0d4d 570D0000 		.4byte	0xd57
 5430 0d51 05       		.uleb128 0x5
 5431 0d52 03       		.byte	0x3
 5432 0d53 00000000 		.4byte	symbols
 5433 0d57 06       		.uleb128 0x6
 5434 0d58 45030000 		.4byte	0x345
 5435 0d5c 08       		.uleb128 0x8
 5436 0d5d 81000000 		.4byte	0x81
 5437 0d61 6C0D0000 		.4byte	0xd6c
 5438 0d65 09       		.uleb128 0x9
 5439 0d66 E8000000 		.4byte	0xe8
 5440 0d6a 02       		.byte	0x2
 5441 0d6b 00       		.byte	0
 5442 0d6c 21       		.uleb128 0x21
 5443 0d6d FA030000 		.4byte	.LASF186
 5444 0d71 05       		.byte	0x5
 5445 0d72 3F       		.byte	0x3f
 5446 0d73 7D0D0000 		.4byte	0xd7d
 5447 0d77 05       		.uleb128 0x5
 5448 0d78 03       		.byte	0x3
 5449 0d79 00000000 		.4byte	time
 5450 0d7d 06       		.uleb128 0x6
 5451 0d7e 5C0D0000 		.4byte	0xd5c
 5452 0d82 21       		.uleb128 0x21
 5453 0d83 14060000 		.4byte	.LASF187
 5454 0d87 05       		.byte	0x5
 5455 0d88 40       		.byte	0x40
 5456 0d89 930D0000 		.4byte	0xd93
 5457 0d8d 05       		.uleb128 0x5
 5458 0d8e 03       		.byte	0x3
 5459 0d8f 00000000 		.4byte	date
 5460 0d93 06       		.uleb128 0x6
 5461 0d94 5C0D0000 		.4byte	0xd5c
 5462 0d98 21       		.uleb128 0x21
 5463 0d99 19020000 		.4byte	.LASF188
 5464 0d9d 05       		.byte	0x5
 5465 0d9e 41       		.byte	0x41
 5466 0d9f A90D0000 		.4byte	0xda9
 5467 0da3 05       		.uleb128 0x5
 5468 0da4 03       		.byte	0x3
 5469 0da5 00000000 		.4byte	screen
 5470 0da9 06       		.uleb128 0x6
 5471 0daa 45030000 		.4byte	0x345
 5472 0dae 21       		.uleb128 0x21
 5473 0daf 8A010000 		.4byte	.LASF189
 5474 0db3 05       		.byte	0x5
 5475 0db4 42       		.byte	0x42
 5476 0db5 BF0D0000 		.4byte	0xdbf
 5477 0db9 05       		.uleb128 0x5
 5478 0dba 03       		.byte	0x3
 5479 0dbb 00000000 		.4byte	residue
 5480 0dbf 06       		.uleb128 0x6
 5481 0dc0 8B030000 		.4byte	0x38b
 5482 0dc4 21       		.uleb128 0x21
 5483 0dc5 5A040000 		.4byte	.LASF190
 5484 0dc9 05       		.byte	0x5
 5485 0dca 43       		.byte	0x43
ARM GAS  C:\Users\RECEPC~1\AppData\Local\Temp\cc4fvgjK.s 			page 116


 5486 0dcb D50D0000 		.4byte	0xdd5
 5487 0dcf 05       		.uleb128 0x5
 5488 0dd0 03       		.byte	0x3
 5489 0dd1 00000000 		.4byte	idSeller
 5490 0dd5 06       		.uleb128 0x6
 5491 0dd6 15030000 		.4byte	0x315
 5492 0dda 21       		.uleb128 0x21
 5493 0ddb E60D0000 		.4byte	.LASF191
 5494 0ddf 05       		.byte	0x5
 5495 0de0 44       		.byte	0x44
 5496 0de1 DE000000 		.4byte	0xde
 5497 0de5 05       		.uleb128 0x5
 5498 0de6 03       		.byte	0x3
 5499 0de7 00000000 		.4byte	typeIdSeller
 5500 0deb 08       		.uleb128 0x8
 5501 0dec 81000000 		.4byte	0x81
 5502 0df0 FB0D0000 		.4byte	0xdfb
 5503 0df4 09       		.uleb128 0x9
 5504 0df5 E8000000 		.4byte	0xe8
 5505 0df9 07       		.byte	0x7
 5506 0dfa 00       		.byte	0
 5507 0dfb 21       		.uleb128 0x21
 5508 0dfc C20A0000 		.4byte	.LASF192
 5509 0e00 05       		.byte	0x5
 5510 0e01 45       		.byte	0x45
 5511 0e02 0C0E0000 		.4byte	0xe0c
 5512 0e06 05       		.uleb128 0x5
 5513 0e07 03       		.byte	0x3
 5514 0e08 00000000 		.4byte	passwordSeller
 5515 0e0c 06       		.uleb128 0x6
 5516 0e0d EB0D0000 		.4byte	0xdeb
 5517 0e11 21       		.uleb128 0x21
 5518 0e12 2B080000 		.4byte	.LASF193
 5519 0e16 05       		.byte	0x5
 5520 0e17 46       		.byte	0x46
 5521 0e18 DE000000 		.4byte	0xde
 5522 0e1c 05       		.uleb128 0x5
 5523 0e1d 03       		.byte	0x3
 5524 0e1e 00000000 		.4byte	flagResetMux
 5525 0e22 21       		.uleb128 0x21
 5526 0e23 60070000 		.4byte	.LASF194
 5527 0e27 05       		.byte	0x5
 5528 0e28 47       		.byte	0x47
 5529 0e29 DE000000 		.4byte	0xde
 5530 0e2d 05       		.uleb128 0x5
 5531 0e2e 03       		.byte	0x3
 5532 0e2f 00000000 		.4byte	stateBeagleSoft
 5533 0e33 21       		.uleb128 0x21
 5534 0e34 A2000000 		.4byte	.LASF195
 5535 0e38 05       		.byte	0x5
 5536 0e39 48       		.byte	0x48
 5537 0e3a 440E0000 		.4byte	0xe44
 5538 0e3e 05       		.uleb128 0x5
 5539 0e3f 03       		.byte	0x3
 5540 0e40 00000000 		.4byte	PrevStatePump
 5541 0e44 06       		.uleb128 0x6
 5542 0e45 F1000000 		.4byte	0xf1
ARM GAS  C:\Users\RECEPC~1\AppData\Local\Temp\cc4fvgjK.s 			page 117


 5543 0e49 21       		.uleb128 0x21
 5544 0e4a 56020000 		.4byte	.LASF196
 5545 0e4e 05       		.byte	0x5
 5546 0e4f 49       		.byte	0x49
 5547 0e50 DE000000 		.4byte	0xde
 5548 0e54 05       		.uleb128 0x5
 5549 0e55 03       		.byte	0x3
 5550 0e56 00000000 		.4byte	PlateRequest
 5551 0e5a 21       		.uleb128 0x21
 5552 0e5b 7F090000 		.4byte	.LASF197
 5553 0e5f 05       		.byte	0x5
 5554 0e60 4A       		.byte	0x4a
 5555 0e61 6B0E0000 		.4byte	0xe6b
 5556 0e65 05       		.uleb128 0x5
 5557 0e66 03       		.byte	0x3
 5558 0e67 00000000 		.4byte	IDCast
 5559 0e6b 06       		.uleb128 0x6
 5560 0e6c 45030000 		.4byte	0x345
 5561 0e70 21       		.uleb128 0x21
 5562 0e71 B2060000 		.4byte	.LASF198
 5563 0e75 05       		.byte	0x5
 5564 0e76 4B       		.byte	0x4b
 5565 0e77 DE000000 		.4byte	0xde
 5566 0e7b 05       		.uleb128 0x5
 5567 0e7c 03       		.byte	0x3
 5568 0e7d 00000000 		.4byte	ActiveRF
 5569 0e81 21       		.uleb128 0x21
 5570 0e82 98000000 		.4byte	.LASF199
 5571 0e86 05       		.byte	0x5
 5572 0e87 4C       		.byte	0x4c
 5573 0e88 DE000000 		.4byte	0xde
 5574 0e8c 05       		.uleb128 0x5
 5575 0e8d 03       		.byte	0x3
 5576 0e8e 00000000 		.4byte	counterRF
 5577 0e92 08       		.uleb128 0x8
 5578 0e93 81000000 		.4byte	0x81
 5579 0e97 A20E0000 		.4byte	0xea2
 5580 0e9b 09       		.uleb128 0x9
 5581 0e9c E8000000 		.4byte	0xe8
 5582 0ea0 1D       		.byte	0x1d
 5583 0ea1 00       		.byte	0
 5584 0ea2 21       		.uleb128 0x21
 5585 0ea3 800D0000 		.4byte	.LASF200
 5586 0ea7 05       		.byte	0x5
 5587 0ea8 4D       		.byte	0x4d
 5588 0ea9 B30E0000 		.4byte	0xeb3
 5589 0ead 05       		.uleb128 0x5
 5590 0eae 03       		.byte	0x3
 5591 0eaf 00000000 		.4byte	temporal
 5592 0eb3 06       		.uleb128 0x6
 5593 0eb4 920E0000 		.4byte	0xe92
 5594 0eb8 21       		.uleb128 0x21
 5595 0eb9 92010000 		.4byte	.LASF201
 5596 0ebd 05       		.byte	0x5
 5597 0ebe 4E       		.byte	0x4e
 5598 0ebf C90E0000 		.4byte	0xec9
 5599 0ec3 05       		.uleb128 0x5
ARM GAS  C:\Users\RECEPC~1\AppData\Local\Temp\cc4fvgjK.s 			page 118


 5600 0ec4 03       		.byte	0x3
 5601 0ec5 00000000 		.4byte	tempPreset
 5602 0ec9 06       		.uleb128 0x6
 5603 0eca EB0D0000 		.4byte	0xdeb
 5604 0ece 21       		.uleb128 0x21
 5605 0ecf 990F0000 		.4byte	.LASF202
 5606 0ed3 05       		.byte	0x5
 5607 0ed4 4F       		.byte	0x4f
 5608 0ed5 DF0E0000 		.4byte	0xedf
 5609 0ed9 05       		.uleb128 0x5
 5610 0eda 03       		.byte	0x3
 5611 0edb 00000000 		.4byte	tempPPU
 5612 0edf 06       		.uleb128 0x6
 5613 0ee0 6B030000 		.4byte	0x36b
 5614 0ee4 21       		.uleb128 0x21
 5615 0ee5 C9020000 		.4byte	.LASF203
 5616 0ee9 05       		.byte	0x5
 5617 0eea 50       		.byte	0x50
 5618 0eeb DE000000 		.4byte	0xde
 5619 0eef 05       		.uleb128 0x5
 5620 0ef0 03       		.byte	0x3
 5621 0ef1 00000000 		.4byte	CGrade
 5622 0ef5 21       		.uleb128 0x21
 5623 0ef6 F7020000 		.4byte	.LASF204
 5624 0efa 05       		.byte	0x5
 5625 0efb 51       		.byte	0x51
 5626 0efc DE000000 		.4byte	0xde
 5627 0f00 05       		.uleb128 0x5
 5628 0f01 03       		.byte	0x3
 5629 0f02 00000000 		.4byte	ShiftState
 5630 0f06 21       		.uleb128 0x21
 5631 0f07 7D0B0000 		.4byte	.LASF205
 5632 0f0b 05       		.byte	0x5
 5633 0f0c 52       		.byte	0x52
 5634 0f0d DE000000 		.4byte	0xde
 5635 0f11 05       		.uleb128 0x5
 5636 0f12 03       		.byte	0x3
 5637 0f13 00000000 		.4byte	pollTotals
 5638 0f17 21       		.uleb128 0x21
 5639 0f18 470F0000 		.4byte	.LASF206
 5640 0f1c 05       		.byte	0x5
 5641 0f1d 53       		.byte	0x53
 5642 0f1e DE000000 		.4byte	0xde
 5643 0f22 05       		.uleb128 0x5
 5644 0f23 03       		.byte	0x3
 5645 0f24 00000000 		.4byte	sizeSendB
 5646 0f28 21       		.uleb128 0x21
 5647 0f29 5D080000 		.4byte	.LASF207
 5648 0f2d 05       		.byte	0x5
 5649 0f2e 54       		.byte	0x54
 5650 0f2f DE000000 		.4byte	0xde
 5651 0f33 05       		.uleb128 0x5
 5652 0f34 03       		.byte	0x3
 5653 0f35 00000000 		.4byte	bufferAready
 5654 0f39 21       		.uleb128 0x21
 5655 0f3a E20A0000 		.4byte	.LASF208
 5656 0f3e 05       		.byte	0x5
ARM GAS  C:\Users\RECEPC~1\AppData\Local\Temp\cc4fvgjK.s 			page 119


 5657 0f3f 56       		.byte	0x56
 5658 0f40 81000000 		.4byte	0x81
 5659 0f44 05       		.uleb128 0x5
 5660 0f45 03       		.byte	0x3
 5661 0f46 00000000 		.4byte	UnitType
 5662 0f4a 21       		.uleb128 0x21
 5663 0f4b 80050000 		.4byte	.LASF209
 5664 0f4f 05       		.byte	0x5
 5665 0f50 56       		.byte	0x56
 5666 0f51 81000000 		.4byte	0x81
 5667 0f55 05       		.uleb128 0x5
 5668 0f56 03       		.byte	0x3
 5669 0f57 00000000 		.4byte	ConversionFactor
 5670 0f5b 21       		.uleb128 0x21
 5671 0f5c 02030000 		.4byte	.LASF210
 5672 0f60 05       		.byte	0x5
 5673 0f61 56       		.byte	0x56
 5674 0f62 81000000 		.4byte	0x81
 5675 0f66 05       		.uleb128 0x5
 5676 0f67 03       		.byte	0x3
 5677 0f68 00000000 		.4byte	MoneyDec
 5678 0f6c 21       		.uleb128 0x21
 5679 0f6d 890D0000 		.4byte	.LASF211
 5680 0f71 05       		.byte	0x5
 5681 0f72 56       		.byte	0x56
 5682 0f73 81000000 		.4byte	0x81
 5683 0f77 05       		.uleb128 0x5
 5684 0f78 03       		.byte	0x3
 5685 0f79 00000000 		.4byte	VolDec
 5686 0f7d 21       		.uleb128 0x21
 5687 0f7e 760B0000 		.4byte	.LASF212
 5688 0f82 05       		.byte	0x5
 5689 0f83 56       		.byte	0x56
 5690 0f84 81000000 		.4byte	0x81
 5691 0f88 05       		.uleb128 0x5
 5692 0f89 03       		.byte	0x3
 5693 0f8a 00000000 		.4byte	PPUDec
 5694 0f8e 21       		.uleb128 0x21
 5695 0f8f BF010000 		.4byte	.LASF213
 5696 0f93 05       		.byte	0x5
 5697 0f94 56       		.byte	0x56
 5698 0f95 81000000 		.4byte	0x81
 5699 0f99 05       		.uleb128 0x5
 5700 0f9a 03       		.byte	0x3
 5701 0f9b 00000000 		.4byte	DDMode
 5702 0f9f 21       		.uleb128 0x21
 5703 0fa0 0C010000 		.4byte	.LASF214
 5704 0fa4 05       		.byte	0x5
 5705 0fa5 57       		.byte	0x57
 5706 0fa6 F1000000 		.4byte	0xf1
 5707 0faa 05       		.uleb128 0x5
 5708 0fab 03       		.byte	0x3
 5709 0fac 00000000 		.4byte	statePump
 5710 0fb0 21       		.uleb128 0x21
 5711 0fb1 53070000 		.4byte	.LASF215
 5712 0fb5 05       		.byte	0x5
 5713 0fb6 58       		.byte	0x58
ARM GAS  C:\Users\RECEPC~1\AppData\Local\Temp\cc4fvgjK.s 			page 120


 5714 0fb7 81000000 		.4byte	0x81
 5715 0fbb 05       		.uleb128 0x5
 5716 0fbc 03       		.byte	0x3
 5717 0fbd 00000000 		.4byte	NumPositions
 5718 0fc1 21       		.uleb128 0x21
 5719 0fc2 6C040000 		.4byte	.LASF216
 5720 0fc6 05       		.byte	0x5
 5721 0fc7 59       		.byte	0x59
 5722 0fc8 81000000 		.4byte	0x81
 5723 0fcc 05       		.uleb128 0x5
 5724 0fcd 03       		.byte	0x3
 5725 0fce 00000000 		.4byte	lockTurn
 5726 0fd2 21       		.uleb128 0x21
 5727 0fd3 E5030000 		.4byte	.LASF217
 5728 0fd7 05       		.byte	0x5
 5729 0fd8 5A       		.byte	0x5a
 5730 0fd9 81000000 		.4byte	0x81
 5731 0fdd 05       		.uleb128 0x5
 5732 0fde 03       		.byte	0x3
 5733 0fdf 00000000 		.4byte	digits
 5734 0fe3 21       		.uleb128 0x21
 5735 0fe4 27010000 		.4byte	.LASF218
 5736 0fe8 05       		.byte	0x5
 5737 0fe9 5B       		.byte	0x5b
 5738 0fea 81000000 		.4byte	0x81
 5739 0fee 05       		.uleb128 0x5
 5740 0fef 03       		.byte	0x3
 5741 0ff0 00000000 		.4byte	hiddenKeys
 5742 0ff4 21       		.uleb128 0x21
 5743 0ff5 4B010000 		.4byte	.LASF219
 5744 0ff9 05       		.byte	0x5
 5745 0ffa 5C       		.byte	0x5c
 5746 0ffb 81000000 		.4byte	0x81
 5747 0fff 05       		.uleb128 0x5
 5748 1000 03       		.byte	0x3
 5749 1001 00000000 		.4byte	PrinterType
 5750 1005 08       		.uleb128 0x8
 5751 1006 BF000000 		.4byte	0xbf
 5752 100a 15100000 		.4byte	0x1015
 5753 100e 09       		.uleb128 0x9
 5754 100f E8000000 		.4byte	0xe8
 5755 1013 05       		.byte	0x5
 5756 1014 00       		.byte	0
 5757 1015 21       		.uleb128 0x21
 5758 1016 77090000 		.4byte	.LASF220
 5759 101a 05       		.byte	0x5
 5760 101b 5D       		.byte	0x5d
 5761 101c 05100000 		.4byte	0x1005
 5762 1020 05       		.uleb128 0x5
 5763 1021 03       		.byte	0x3
 5764 1022 00000000 		.4byte	VolUnit
 5765 1026 21       		.uleb128 0x21
 5766 1027 3C090000 		.4byte	.LASF221
 5767 102b 05       		.byte	0x5
 5768 102c 5E       		.byte	0x5e
 5769 102d 5C0D0000 		.4byte	0xd5c
 5770 1031 05       		.uleb128 0x5
ARM GAS  C:\Users\RECEPC~1\AppData\Local\Temp\cc4fvgjK.s 			page 121


 5771 1032 03       		.byte	0x3
 5772 1033 00000000 		.4byte	dateDownHandle
 5773 1037 21       		.uleb128 0x21
 5774 1038 05080000 		.4byte	.LASF222
 5775 103c 05       		.byte	0x5
 5776 103d 5F       		.byte	0x5f
 5777 103e 45030000 		.4byte	0x345
 5778 1042 05       		.uleb128 0x5
 5779 1043 03       		.byte	0x3
 5780 1044 00000000 		.4byte	timeDownHandle
 5781 1048 21       		.uleb128 0x21
 5782 1049 A40E0000 		.4byte	.LASF223
 5783 104d 05       		.byte	0x5
 5784 104e 60       		.byte	0x60
 5785 104f 81000000 		.4byte	0x81
 5786 1053 05       		.uleb128 0x5
 5787 1054 03       		.byte	0x3
 5788 1055 00000000 		.4byte	count_protector
 5789 1059 21       		.uleb128 0x21
 5790 105a 87000000 		.4byte	.LASF224
 5791 105e 05       		.byte	0x5
 5792 105f 60       		.byte	0x60
 5793 1060 81000000 		.4byte	0x81
 5794 1064 05       		.uleb128 0x5
 5795 1065 03       		.byte	0x3
 5796 1066 00000000 		.4byte	count_protector2
 5797 106a 21       		.uleb128 0x21
 5798 106b B9030000 		.4byte	.LASF225
 5799 106f 05       		.byte	0x5
 5800 1070 61       		.byte	0x61
 5801 1071 6B030000 		.4byte	0x36b
 5802 1075 05       		.uleb128 0x5
 5803 1076 03       		.byte	0x3
 5804 1077 00000000 		.4byte	configAccess
 5805 107b 21       		.uleb128 0x21
 5806 107c 20020000 		.4byte	.LASF226
 5807 1080 05       		.byte	0x5
 5808 1081 62       		.byte	0x62
 5809 1082 81000000 		.4byte	0x81
 5810 1086 05       		.uleb128 0x5
 5811 1087 03       		.byte	0x3
 5812 1088 00000000 		.4byte	controlChar
 5813 108c 08       		.uleb128 0x8
 5814 108d BF000000 		.4byte	0xbf
 5815 1091 9C100000 		.4byte	0x109c
 5816 1095 09       		.uleb128 0x9
 5817 1096 E8000000 		.4byte	0xe8
 5818 109a 04       		.byte	0x4
 5819 109b 00       		.byte	0
 5820 109c 21       		.uleb128 0x21
 5821 109d E5010000 		.4byte	.LASF227
 5822 10a1 05       		.byte	0x5
 5823 10a2 63       		.byte	0x63
 5824 10a3 8C100000 		.4byte	0x108c
 5825 10a7 05       		.uleb128 0x5
 5826 10a8 03       		.byte	0x3
 5827 10a9 00000000 		.4byte	idStation
ARM GAS  C:\Users\RECEPC~1\AppData\Local\Temp\cc4fvgjK.s 			page 122


 5828 10ad 21       		.uleb128 0x21
 5829 10ae A10F0000 		.4byte	.LASF228
 5830 10b2 05       		.byte	0x5
 5831 10b3 64       		.byte	0x64
 5832 10b4 5C0D0000 		.4byte	0xd5c
 5833 10b8 05       		.uleb128 0x5
 5834 10b9 03       		.byte	0x3
 5835 10ba 00000000 		.4byte	pumpGap
 5836 10be 21       		.uleb128 0x21
 5837 10bf 1D040000 		.4byte	.LASF229
 5838 10c3 05       		.byte	0x5
 5839 10c4 65       		.byte	0x65
 5840 10c5 81000000 		.4byte	0x81
 5841 10c9 05       		.uleb128 0x5
 5842 10ca 03       		.byte	0x3
 5843 10cb 00000000 		.4byte	printPortA
 5844 10cf 21       		.uleb128 0x21
 5845 10d0 28040000 		.4byte	.LASF230
 5846 10d4 05       		.byte	0x5
 5847 10d5 66       		.byte	0x66
 5848 10d6 81000000 		.4byte	0x81
 5849 10da 05       		.uleb128 0x5
 5850 10db 03       		.byte	0x3
 5851 10dc 00000000 		.4byte	printPortB
 5852 10e0 08       		.uleb128 0x8
 5853 10e1 81000000 		.4byte	0x81
 5854 10e5 F1100000 		.4byte	0x10f1
 5855 10e9 22       		.uleb128 0x22
 5856 10ea E8000000 		.4byte	0xe8
 5857 10ee FF01     		.2byte	0x1ff
 5858 10f0 00       		.byte	0
 5859 10f1 21       		.uleb128 0x21
 5860 10f2 1D010000 		.4byte	.LASF231
 5861 10f6 05       		.byte	0x5
 5862 10f7 67       		.byte	0x67
 5863 10f8 E0100000 		.4byte	0x10e0
 5864 10fc 05       		.uleb128 0x5
 5865 10fd 03       		.byte	0x3
 5866 10fe 00000000 		.4byte	buffer_rf
 5867 1102 21       		.uleb128 0x21
 5868 1103 81020000 		.4byte	.LASF232
 5869 1107 05       		.byte	0x5
 5870 1108 68       		.byte	0x68
 5871 1109 E0100000 		.4byte	0x10e0
 5872 110d 05       		.uleb128 0x5
 5873 110e 03       		.byte	0x3
 5874 110f 00000000 		.4byte	buffer_tx
 5875 1113 21       		.uleb128 0x21
 5876 1114 B40D0000 		.4byte	.LASF233
 5877 1118 05       		.byte	0x5
 5878 1119 69       		.byte	0x69
 5879 111a E0100000 		.4byte	0x10e0
 5880 111e 05       		.uleb128 0x5
 5881 111f 03       		.byte	0x3
 5882 1120 00000000 		.4byte	buffer_txTotals
 5883 1124 08       		.uleb128 0x8
 5884 1125 81000000 		.4byte	0x81
ARM GAS  C:\Users\RECEPC~1\AppData\Local\Temp\cc4fvgjK.s 			page 123


 5885 1129 34110000 		.4byte	0x1134
 5886 112d 09       		.uleb128 0x9
 5887 112e E8000000 		.4byte	0xe8
 5888 1132 FE       		.byte	0xfe
 5889 1133 00       		.byte	0
 5890 1134 21       		.uleb128 0x21
 5891 1135 7E040000 		.4byte	.LASF234
 5892 1139 05       		.byte	0x5
 5893 113a 6A       		.byte	0x6a
 5894 113b 24110000 		.4byte	0x1124
 5895 113f 05       		.uleb128 0x5
 5896 1140 03       		.byte	0x3
 5897 1141 00000000 		.4byte	buffer_A
 5898 1145 08       		.uleb128 0x8
 5899 1146 BF000000 		.4byte	0xbf
 5900 114a 55110000 		.4byte	0x1155
 5901 114e 09       		.uleb128 0x9
 5902 114f E8000000 		.4byte	0xe8
 5903 1153 F9       		.byte	0xf9
 5904 1154 00       		.byte	0
 5905 1155 21       		.uleb128 0x21
 5906 1156 3F040000 		.4byte	.LASF235
 5907 115a 05       		.byte	0x5
 5908 115b 6B       		.byte	0x6b
 5909 115c 45110000 		.4byte	0x1145
 5910 1160 05       		.uleb128 0x5
 5911 1161 03       		.byte	0x3
 5912 1162 00000000 		.4byte	buffer_print
 5913 1166 08       		.uleb128 0x8
 5914 1167 81000000 		.4byte	0x81
 5915 116b 76110000 		.4byte	0x1176
 5916 116f 09       		.uleb128 0x9
 5917 1170 E8000000 		.4byte	0xe8
 5918 1174 3B       		.byte	0x3b
 5919 1175 00       		.byte	0
 5920 1176 21       		.uleb128 0x21
 5921 1177 E3070000 		.4byte	.LASF236
 5922 117b 05       		.byte	0x5
 5923 117c 6C       		.byte	0x6c
 5924 117d 66110000 		.4byte	0x1166
 5925 1181 05       		.uleb128 0x5
 5926 1182 03       		.byte	0x3
 5927 1183 00000000 		.4byte	buffer_txPreset
 5928 1187 21       		.uleb128 0x21
 5929 1188 090E0000 		.4byte	.LASF237
 5930 118c 05       		.byte	0x5
 5931 118d 6D       		.byte	0x6d
 5932 118e 66110000 		.4byte	0x1166
 5933 1192 05       		.uleb128 0x5
 5934 1193 03       		.byte	0x3
 5935 1194 00000000 		.4byte	buffer_txEOT
 5936 1198 21       		.uleb128 0x21
 5937 1199 4C080000 		.4byte	.LASF238
 5938 119d 05       		.byte	0x5
 5939 119e 6E       		.byte	0x6e
 5940 119f 66110000 		.4byte	0x1166
 5941 11a3 05       		.uleb128 0x5
ARM GAS  C:\Users\RECEPC~1\AppData\Local\Temp\cc4fvgjK.s 			page 124


 5942 11a4 03       		.byte	0x3
 5943 11a5 00000000 		.4byte	buffer_txDisplay
 5944 11a9 21       		.uleb128 0x21
 5945 11aa 160E0000 		.4byte	.LASF239
 5946 11ae 05       		.byte	0x5
 5947 11af 6F       		.byte	0x6f
 5948 11b0 8D000000 		.4byte	0x8d
 5949 11b4 05       		.uleb128 0x5
 5950 11b5 03       		.byte	0x3
 5951 11b6 00000000 		.4byte	intIDStation
 5952 11ba 21       		.uleb128 0x21
 5953 11bb 170B0000 		.4byte	.LASF240
 5954 11bf 05       		.byte	0x5
 5955 11c0 70       		.byte	0x70
 5956 11c1 920E0000 		.4byte	0xe92
 5957 11c5 05       		.uleb128 0x5
 5958 11c6 03       		.byte	0x3
 5959 11c7 00000000 		.4byte	Encabezado1
 5960 11cb 21       		.uleb128 0x21
 5961 11cc 230B0000 		.4byte	.LASF241
 5962 11d0 05       		.byte	0x5
 5963 11d1 71       		.byte	0x71
 5964 11d2 920E0000 		.4byte	0xe92
 5965 11d6 05       		.uleb128 0x5
 5966 11d7 03       		.byte	0x3
 5967 11d8 00000000 		.4byte	Encabezado2
 5968 11dc 21       		.uleb128 0x21
 5969 11dd 2F0B0000 		.4byte	.LASF242
 5970 11e1 05       		.byte	0x5
 5971 11e2 72       		.byte	0x72
 5972 11e3 920E0000 		.4byte	0xe92
 5973 11e7 05       		.uleb128 0x5
 5974 11e8 03       		.byte	0x3
 5975 11e9 00000000 		.4byte	Encabezado3
 5976 11ed 21       		.uleb128 0x21
 5977 11ee 3B0B0000 		.4byte	.LASF243
 5978 11f2 05       		.byte	0x5
 5979 11f3 73       		.byte	0x73
 5980 11f4 920E0000 		.4byte	0xe92
 5981 11f8 05       		.uleb128 0x5
 5982 11f9 03       		.byte	0x3
 5983 11fa 00000000 		.4byte	Encabezado4
 5984 11fe 21       		.uleb128 0x21
 5985 11ff B40A0000 		.4byte	.LASF244
 5986 1203 05       		.byte	0x5
 5987 1204 74       		.byte	0x74
 5988 1205 81000000 		.4byte	0x81
 5989 1209 05       		.uleb128 0x5
 5990 120a 03       		.byte	0x3
 5991 120b 00000000 		.4byte	CopiasCredito
 5992 120f 21       		.uleb128 0x21
 5993 1210 B0000000 		.4byte	.LASF245
 5994 1214 05       		.byte	0x5
 5995 1215 75       		.byte	0x75
 5996 1216 6B030000 		.4byte	0x36b
 5997 121a 05       		.uleb128 0x5
 5998 121b 03       		.byte	0x3
ARM GAS  C:\Users\RECEPC~1\AppData\Local\Temp\cc4fvgjK.s 			page 125


 5999 121c 00000000 		.4byte	GradesHose
 6000 1220 21       		.uleb128 0x21
 6001 1221 0B030000 		.4byte	.LASF246
 6002 1225 05       		.byte	0x5
 6003 1226 AE       		.byte	0xae
 6004 1227 01010000 		.4byte	0x101
 6005 122b 05       		.uleb128 0x5
 6006 122c 03       		.byte	0x3
 6007 122d 00000000 		.4byte	bufferDisplay1
 6008 1231 21       		.uleb128 0x21
 6009 1232 5C0A0000 		.4byte	.LASF247
 6010 1236 05       		.byte	0x5
 6011 1237 AF       		.byte	0xaf
 6012 1238 01010000 		.4byte	0x101
 6013 123c 05       		.uleb128 0x5
 6014 123d 03       		.byte	0x3
 6015 123e 00000000 		.4byte	bufferDisplay2
 6016 1242 21       		.uleb128 0x21
 6017 1243 28030000 		.4byte	.LASF248
 6018 1247 05       		.byte	0x5
 6019 1248 B0       		.byte	0xb0
 6020 1249 01010000 		.4byte	0x101
 6021 124d 05       		.uleb128 0x5
 6022 124e 03       		.byte	0x3
 6023 124f 00000000 		.4byte	bufferDisplay3
 6024 1253 21       		.uleb128 0x21
 6025 1254 B10F0000 		.4byte	.LASF249
 6026 1258 05       		.byte	0x5
 6027 1259 B1       		.byte	0xb1
 6028 125a 01010000 		.4byte	0x101
 6029 125e 05       		.uleb128 0x5
 6030 125f 03       		.byte	0x3
 6031 1260 00000000 		.4byte	bufferDisplay4
 6032 1264 21       		.uleb128 0x21
 6033 1265 C6010000 		.4byte	.LASF250
 6034 1269 05       		.byte	0x5
 6035 126a D6       		.byte	0xd6
 6036 126b C4040000 		.4byte	0x4c4
 6037 126f 05       		.uleb128 0x5
 6038 1270 03       		.byte	0x3
 6039 1271 00000000 		.4byte	side
 6040 1275 23       		.uleb128 0x23
 6041 1276 E60E0000 		.4byte	.LASF251
 6042 127a EF000000 		.4byte	0xef
 6043 127e 92120000 		.4byte	0x1292
 6044 1282 24       		.uleb128 0x24
 6045 1283 EF000000 		.4byte	0xef
 6046 1287 24       		.uleb128 0x24
 6047 1288 F8060000 		.4byte	0x6f8
 6048 128c 24       		.uleb128 0x24
 6049 128d E8000000 		.4byte	0xe8
 6050 1291 00       		.byte	0
 6051 1292 25       		.uleb128 0x25
 6052 1293 CC050000 		.4byte	.LASF252
 6053 1297 07       		.byte	0x7
 6054 1298 8A       		.byte	0x8a
 6055 1299 A3120000 		.4byte	0x12a3
ARM GAS  C:\Users\RECEPC~1\AppData\Local\Temp\cc4fvgjK.s 			page 126


 6056 129d 24       		.uleb128 0x24
 6057 129e 81000000 		.4byte	0x81
 6058 12a2 00       		.byte	0
 6059 12a3 26       		.uleb128 0x26
 6060 12a4 96080000 		.4byte	.LASF256
 6061 12a8 09       		.byte	0x9
 6062 12a9 26       		.byte	0x26
 6063 12aa 81000000 		.4byte	0x81
 6064 12ae C2120000 		.4byte	0x12c2
 6065 12b2 24       		.uleb128 0x24
 6066 12b3 81000000 		.4byte	0x81
 6067 12b7 24       		.uleb128 0x24
 6068 12b8 81000000 		.4byte	0x81
 6069 12bc 24       		.uleb128 0x24
 6070 12bd 91070000 		.4byte	0x791
 6071 12c1 00       		.byte	0
 6072 12c2 25       		.uleb128 0x25
 6073 12c3 19000000 		.4byte	.LASF253
 6074 12c7 08       		.byte	0x8
 6075 12c8 77       		.byte	0x77
 6076 12c9 D3120000 		.4byte	0x12d3
 6077 12cd 24       		.uleb128 0x24
 6078 12ce 99000000 		.4byte	0x99
 6079 12d2 00       		.byte	0
 6080 12d3 27       		.uleb128 0x27
 6081 12d4 FF030000 		.4byte	.LASF254
 6082 12d8 07       		.byte	0x7
 6083 12d9 73       		.byte	0x73
 6084 12da 8D000000 		.4byte	0x8d
 6085 12de 27       		.uleb128 0x27
 6086 12df 00000000 		.4byte	.LASF255
 6087 12e3 07       		.byte	0x7
 6088 12e4 6F       		.byte	0x6f
 6089 12e5 81000000 		.4byte	0x81
 6090 12e9 26       		.uleb128 0x26
 6091 12ea 2C020000 		.4byte	.LASF257
 6092 12ee 0A       		.byte	0xa
 6093 12ef 27       		.byte	0x27
 6094 12f0 81000000 		.4byte	0x81
 6095 12f4 03130000 		.4byte	0x1303
 6096 12f8 24       		.uleb128 0x24
 6097 12f9 81000000 		.4byte	0x81
 6098 12fd 24       		.uleb128 0x24
 6099 12fe 81000000 		.4byte	0x81
 6100 1302 00       		.byte	0
 6101 1303 25       		.uleb128 0x25
 6102 1304 1F030000 		.4byte	.LASF258
 6103 1308 0B       		.byte	0xb
 6104 1309 25       		.byte	0x25
 6105 130a 19130000 		.4byte	0x1319
 6106 130e 24       		.uleb128 0x24
 6107 130f 81000000 		.4byte	0x81
 6108 1313 24       		.uleb128 0x24
 6109 1314 81000000 		.4byte	0x81
 6110 1318 00       		.byte	0
 6111 1319 27       		.uleb128 0x27
 6112 131a 19060000 		.4byte	.LASF259
ARM GAS  C:\Users\RECEPC~1\AppData\Local\Temp\cc4fvgjK.s 			page 127


 6113 131e 0A       		.byte	0xa
 6114 131f 23       		.byte	0x23
 6115 1320 81000000 		.4byte	0x81
 6116 1324 27       		.uleb128 0x27
 6117 1325 D6020000 		.4byte	.LASF260
 6118 1329 0A       		.byte	0xa
 6119 132a 24       		.byte	0x24
 6120 132b 81000000 		.4byte	0x81
 6121 132f 26       		.uleb128 0x26
 6122 1330 F5060000 		.4byte	.LASF261
 6123 1334 0C       		.byte	0xc
 6124 1335 21       		.byte	0x21
 6125 1336 D2000000 		.4byte	0xd2
 6126 133a 49130000 		.4byte	0x1349
 6127 133e 24       		.uleb128 0x24
 6128 133f 81000000 		.4byte	0x81
 6129 1343 24       		.uleb128 0x24
 6130 1344 8D000000 		.4byte	0x8d
 6131 1348 00       		.byte	0
 6132 1349 26       		.uleb128 0x26
 6133 134a 41050000 		.4byte	.LASF262
 6134 134e 0C       		.byte	0xc
 6135 134f 23       		.byte	0x23
 6136 1350 81000000 		.4byte	0x81
 6137 1354 5E130000 		.4byte	0x135e
 6138 1358 24       		.uleb128 0x24
 6139 1359 8D000000 		.4byte	0x8d
 6140 135d 00       		.byte	0
 6141 135e 25       		.uleb128 0x25
 6142 135f FE0D0000 		.4byte	.LASF263
 6143 1363 0D       		.byte	0xd
 6144 1364 22       		.byte	0x22
 6145 1365 74130000 		.4byte	0x1374
 6146 1369 24       		.uleb128 0x24
 6147 136a 81000000 		.4byte	0x81
 6148 136e 24       		.uleb128 0x24
 6149 136f 8D000000 		.4byte	0x8d
 6150 1373 00       		.byte	0
 6151 1374 28       		.uleb128 0x28
 6152 1375 C00F0000 		.4byte	.LASF268
 6153 1379 07       		.byte	0x7
 6154 137a 75       		.byte	0x75
 6155 137b 00       		.byte	0
 6156              		.section	.debug_abbrev,"",%progbits
 6157              	.Ldebug_abbrev0:
 6158 0000 01       		.uleb128 0x1
 6159 0001 11       		.uleb128 0x11
 6160 0002 01       		.byte	0x1
 6161 0003 25       		.uleb128 0x25
 6162 0004 0E       		.uleb128 0xe
 6163 0005 13       		.uleb128 0x13
 6164 0006 0B       		.uleb128 0xb
 6165 0007 03       		.uleb128 0x3
 6166 0008 0E       		.uleb128 0xe
 6167 0009 1B       		.uleb128 0x1b
 6168 000a 0E       		.uleb128 0xe
 6169 000b 55       		.uleb128 0x55
ARM GAS  C:\Users\RECEPC~1\AppData\Local\Temp\cc4fvgjK.s 			page 128


 6170 000c 17       		.uleb128 0x17
 6171 000d 11       		.uleb128 0x11
 6172 000e 01       		.uleb128 0x1
 6173 000f 10       		.uleb128 0x10
 6174 0010 17       		.uleb128 0x17
 6175 0011 00       		.byte	0
 6176 0012 00       		.byte	0
 6177 0013 02       		.uleb128 0x2
 6178 0014 24       		.uleb128 0x24
 6179 0015 00       		.byte	0
 6180 0016 0B       		.uleb128 0xb
 6181 0017 0B       		.uleb128 0xb
 6182 0018 3E       		.uleb128 0x3e
 6183 0019 0B       		.uleb128 0xb
 6184 001a 03       		.uleb128 0x3
 6185 001b 0E       		.uleb128 0xe
 6186 001c 00       		.byte	0
 6187 001d 00       		.byte	0
 6188 001e 03       		.uleb128 0x3
 6189 001f 16       		.uleb128 0x16
 6190 0020 00       		.byte	0
 6191 0021 03       		.uleb128 0x3
 6192 0022 0E       		.uleb128 0xe
 6193 0023 3A       		.uleb128 0x3a
 6194 0024 0B       		.uleb128 0xb
 6195 0025 3B       		.uleb128 0x3b
 6196 0026 0B       		.uleb128 0xb
 6197 0027 49       		.uleb128 0x49
 6198 0028 13       		.uleb128 0x13
 6199 0029 00       		.byte	0
 6200 002a 00       		.byte	0
 6201 002b 04       		.uleb128 0x4
 6202 002c 24       		.uleb128 0x24
 6203 002d 00       		.byte	0
 6204 002e 0B       		.uleb128 0xb
 6205 002f 0B       		.uleb128 0xb
 6206 0030 3E       		.uleb128 0x3e
 6207 0031 0B       		.uleb128 0xb
 6208 0032 03       		.uleb128 0x3
 6209 0033 08       		.uleb128 0x8
 6210 0034 00       		.byte	0
 6211 0035 00       		.byte	0
 6212 0036 05       		.uleb128 0x5
 6213 0037 16       		.uleb128 0x16
 6214 0038 00       		.byte	0
 6215 0039 03       		.uleb128 0x3
 6216 003a 0E       		.uleb128 0xe
 6217 003b 3A       		.uleb128 0x3a
 6218 003c 0B       		.uleb128 0xb
 6219 003d 3B       		.uleb128 0x3b
 6220 003e 05       		.uleb128 0x5
 6221 003f 49       		.uleb128 0x49
 6222 0040 13       		.uleb128 0x13
 6223 0041 00       		.byte	0
 6224 0042 00       		.byte	0
 6225 0043 06       		.uleb128 0x6
 6226 0044 35       		.uleb128 0x35
ARM GAS  C:\Users\RECEPC~1\AppData\Local\Temp\cc4fvgjK.s 			page 129


 6227 0045 00       		.byte	0
 6228 0046 49       		.uleb128 0x49
 6229 0047 13       		.uleb128 0x13
 6230 0048 00       		.byte	0
 6231 0049 00       		.byte	0
 6232 004a 07       		.uleb128 0x7
 6233 004b 0F       		.uleb128 0xf
 6234 004c 00       		.byte	0
 6235 004d 0B       		.uleb128 0xb
 6236 004e 0B       		.uleb128 0xb
 6237 004f 00       		.byte	0
 6238 0050 00       		.byte	0
 6239 0051 08       		.uleb128 0x8
 6240 0052 01       		.uleb128 0x1
 6241 0053 01       		.byte	0x1
 6242 0054 49       		.uleb128 0x49
 6243 0055 13       		.uleb128 0x13
 6244 0056 01       		.uleb128 0x1
 6245 0057 13       		.uleb128 0x13
 6246 0058 00       		.byte	0
 6247 0059 00       		.byte	0
 6248 005a 09       		.uleb128 0x9
 6249 005b 21       		.uleb128 0x21
 6250 005c 00       		.byte	0
 6251 005d 49       		.uleb128 0x49
 6252 005e 13       		.uleb128 0x13
 6253 005f 2F       		.uleb128 0x2f
 6254 0060 0B       		.uleb128 0xb
 6255 0061 00       		.byte	0
 6256 0062 00       		.byte	0
 6257 0063 0A       		.uleb128 0xa
 6258 0064 13       		.uleb128 0x13
 6259 0065 01       		.byte	0x1
 6260 0066 03       		.uleb128 0x3
 6261 0067 0E       		.uleb128 0xe
 6262 0068 0B       		.uleb128 0xb
 6263 0069 05       		.uleb128 0x5
 6264 006a 3A       		.uleb128 0x3a
 6265 006b 0B       		.uleb128 0xb
 6266 006c 3B       		.uleb128 0x3b
 6267 006d 0B       		.uleb128 0xb
 6268 006e 01       		.uleb128 0x1
 6269 006f 13       		.uleb128 0x13
 6270 0070 00       		.byte	0
 6271 0071 00       		.byte	0
 6272 0072 0B       		.uleb128 0xb
 6273 0073 0D       		.uleb128 0xd
 6274 0074 00       		.byte	0
 6275 0075 03       		.uleb128 0x3
 6276 0076 0E       		.uleb128 0xe
 6277 0077 3A       		.uleb128 0x3a
 6278 0078 0B       		.uleb128 0xb
 6279 0079 3B       		.uleb128 0x3b
 6280 007a 0B       		.uleb128 0xb
 6281 007b 49       		.uleb128 0x49
 6282 007c 13       		.uleb128 0x13
 6283 007d 38       		.uleb128 0x38
ARM GAS  C:\Users\RECEPC~1\AppData\Local\Temp\cc4fvgjK.s 			page 130


 6284 007e 0B       		.uleb128 0xb
 6285 007f 00       		.byte	0
 6286 0080 00       		.byte	0
 6287 0081 0C       		.uleb128 0xc
 6288 0082 0D       		.uleb128 0xd
 6289 0083 00       		.byte	0
 6290 0084 03       		.uleb128 0x3
 6291 0085 0E       		.uleb128 0xe
 6292 0086 3A       		.uleb128 0x3a
 6293 0087 0B       		.uleb128 0xb
 6294 0088 3B       		.uleb128 0x3b
 6295 0089 0B       		.uleb128 0xb
 6296 008a 49       		.uleb128 0x49
 6297 008b 13       		.uleb128 0x13
 6298 008c 38       		.uleb128 0x38
 6299 008d 05       		.uleb128 0x5
 6300 008e 00       		.byte	0
 6301 008f 00       		.byte	0
 6302 0090 0D       		.uleb128 0xd
 6303 0091 0D       		.uleb128 0xd
 6304 0092 00       		.byte	0
 6305 0093 03       		.uleb128 0x3
 6306 0094 08       		.uleb128 0x8
 6307 0095 3A       		.uleb128 0x3a
 6308 0096 0B       		.uleb128 0xb
 6309 0097 3B       		.uleb128 0x3b
 6310 0098 0B       		.uleb128 0xb
 6311 0099 49       		.uleb128 0x49
 6312 009a 13       		.uleb128 0x13
 6313 009b 38       		.uleb128 0x38
 6314 009c 0B       		.uleb128 0xb
 6315 009d 00       		.byte	0
 6316 009e 00       		.byte	0
 6317 009f 0E       		.uleb128 0xe
 6318 00a0 0D       		.uleb128 0xd
 6319 00a1 00       		.byte	0
 6320 00a2 03       		.uleb128 0x3
 6321 00a3 08       		.uleb128 0x8
 6322 00a4 3A       		.uleb128 0x3a
 6323 00a5 0B       		.uleb128 0xb
 6324 00a6 3B       		.uleb128 0x3b
 6325 00a7 0B       		.uleb128 0xb
 6326 00a8 49       		.uleb128 0x49
 6327 00a9 13       		.uleb128 0x13
 6328 00aa 38       		.uleb128 0x38
 6329 00ab 05       		.uleb128 0x5
 6330 00ac 00       		.byte	0
 6331 00ad 00       		.byte	0
 6332 00ae 0F       		.uleb128 0xf
 6333 00af 04       		.uleb128 0x4
 6334 00b0 01       		.byte	0x1
 6335 00b1 03       		.uleb128 0x3
 6336 00b2 0E       		.uleb128 0xe
 6337 00b3 0B       		.uleb128 0xb
 6338 00b4 0B       		.uleb128 0xb
 6339 00b5 3A       		.uleb128 0x3a
 6340 00b6 0B       		.uleb128 0xb
ARM GAS  C:\Users\RECEPC~1\AppData\Local\Temp\cc4fvgjK.s 			page 131


 6341 00b7 3B       		.uleb128 0x3b
 6342 00b8 0B       		.uleb128 0xb
 6343 00b9 01       		.uleb128 0x1
 6344 00ba 13       		.uleb128 0x13
 6345 00bb 00       		.byte	0
 6346 00bc 00       		.byte	0
 6347 00bd 10       		.uleb128 0x10
 6348 00be 28       		.uleb128 0x28
 6349 00bf 00       		.byte	0
 6350 00c0 03       		.uleb128 0x3
 6351 00c1 0E       		.uleb128 0xe
 6352 00c2 1C       		.uleb128 0x1c
 6353 00c3 0D       		.uleb128 0xd
 6354 00c4 00       		.byte	0
 6355 00c5 00       		.byte	0
 6356 00c6 11       		.uleb128 0x11
 6357 00c7 04       		.uleb128 0x4
 6358 00c8 01       		.byte	0x1
 6359 00c9 03       		.uleb128 0x3
 6360 00ca 0E       		.uleb128 0xe
 6361 00cb 0B       		.uleb128 0xb
 6362 00cc 0B       		.uleb128 0xb
 6363 00cd 3A       		.uleb128 0x3a
 6364 00ce 0B       		.uleb128 0xb
 6365 00cf 3B       		.uleb128 0x3b
 6366 00d0 05       		.uleb128 0x5
 6367 00d1 01       		.uleb128 0x1
 6368 00d2 13       		.uleb128 0x13
 6369 00d3 00       		.byte	0
 6370 00d4 00       		.byte	0
 6371 00d5 12       		.uleb128 0x12
 6372 00d6 0F       		.uleb128 0xf
 6373 00d7 00       		.byte	0
 6374 00d8 0B       		.uleb128 0xb
 6375 00d9 0B       		.uleb128 0xb
 6376 00da 49       		.uleb128 0x49
 6377 00db 13       		.uleb128 0x13
 6378 00dc 00       		.byte	0
 6379 00dd 00       		.byte	0
 6380 00de 13       		.uleb128 0x13
 6381 00df 26       		.uleb128 0x26
 6382 00e0 00       		.byte	0
 6383 00e1 00       		.byte	0
 6384 00e2 00       		.byte	0
 6385 00e3 14       		.uleb128 0x14
 6386 00e4 2E       		.uleb128 0x2e
 6387 00e5 01       		.byte	0x1
 6388 00e6 3F       		.uleb128 0x3f
 6389 00e7 19       		.uleb128 0x19
 6390 00e8 03       		.uleb128 0x3
 6391 00e9 0E       		.uleb128 0xe
 6392 00ea 3A       		.uleb128 0x3a
 6393 00eb 0B       		.uleb128 0xb
 6394 00ec 3B       		.uleb128 0x3b
 6395 00ed 0B       		.uleb128 0xb
 6396 00ee 27       		.uleb128 0x27
 6397 00ef 19       		.uleb128 0x19
ARM GAS  C:\Users\RECEPC~1\AppData\Local\Temp\cc4fvgjK.s 			page 132


 6398 00f0 49       		.uleb128 0x49
 6399 00f1 13       		.uleb128 0x13
 6400 00f2 11       		.uleb128 0x11
 6401 00f3 01       		.uleb128 0x1
 6402 00f4 12       		.uleb128 0x12
 6403 00f5 06       		.uleb128 0x6
 6404 00f6 40       		.uleb128 0x40
 6405 00f7 18       		.uleb128 0x18
 6406 00f8 9742     		.uleb128 0x2117
 6407 00fa 19       		.uleb128 0x19
 6408 00fb 01       		.uleb128 0x1
 6409 00fc 13       		.uleb128 0x13
 6410 00fd 00       		.byte	0
 6411 00fe 00       		.byte	0
 6412 00ff 15       		.uleb128 0x15
 6413 0100 05       		.uleb128 0x5
 6414 0101 00       		.byte	0
 6415 0102 03       		.uleb128 0x3
 6416 0103 0E       		.uleb128 0xe
 6417 0104 3A       		.uleb128 0x3a
 6418 0105 0B       		.uleb128 0xb
 6419 0106 3B       		.uleb128 0x3b
 6420 0107 0B       		.uleb128 0xb
 6421 0108 49       		.uleb128 0x49
 6422 0109 13       		.uleb128 0x13
 6423 010a 02       		.uleb128 0x2
 6424 010b 17       		.uleb128 0x17
 6425 010c 00       		.byte	0
 6426 010d 00       		.byte	0
 6427 010e 16       		.uleb128 0x16
 6428 010f 34       		.uleb128 0x34
 6429 0110 00       		.byte	0
 6430 0111 03       		.uleb128 0x3
 6431 0112 0E       		.uleb128 0xe
 6432 0113 3A       		.uleb128 0x3a
 6433 0114 0B       		.uleb128 0xb
 6434 0115 3B       		.uleb128 0x3b
 6435 0116 0B       		.uleb128 0xb
 6436 0117 49       		.uleb128 0x49
 6437 0118 13       		.uleb128 0x13
 6438 0119 02       		.uleb128 0x2
 6439 011a 17       		.uleb128 0x17
 6440 011b 00       		.byte	0
 6441 011c 00       		.byte	0
 6442 011d 17       		.uleb128 0x17
 6443 011e 34       		.uleb128 0x34
 6444 011f 00       		.byte	0
 6445 0120 03       		.uleb128 0x3
 6446 0121 08       		.uleb128 0x8
 6447 0122 3A       		.uleb128 0x3a
 6448 0123 0B       		.uleb128 0xb
 6449 0124 3B       		.uleb128 0x3b
 6450 0125 0B       		.uleb128 0xb
 6451 0126 49       		.uleb128 0x49
 6452 0127 13       		.uleb128 0x13
 6453 0128 02       		.uleb128 0x2
 6454 0129 17       		.uleb128 0x17
ARM GAS  C:\Users\RECEPC~1\AppData\Local\Temp\cc4fvgjK.s 			page 133


 6455 012a 00       		.byte	0
 6456 012b 00       		.byte	0
 6457 012c 18       		.uleb128 0x18
 6458 012d 34       		.uleb128 0x34
 6459 012e 00       		.byte	0
 6460 012f 03       		.uleb128 0x3
 6461 0130 0E       		.uleb128 0xe
 6462 0131 3A       		.uleb128 0x3a
 6463 0132 0B       		.uleb128 0xb
 6464 0133 3B       		.uleb128 0x3b
 6465 0134 0B       		.uleb128 0xb
 6466 0135 49       		.uleb128 0x49
 6467 0136 13       		.uleb128 0x13
 6468 0137 02       		.uleb128 0x2
 6469 0138 18       		.uleb128 0x18
 6470 0139 00       		.byte	0
 6471 013a 00       		.byte	0
 6472 013b 19       		.uleb128 0x19
 6473 013c 898201   		.uleb128 0x4109
 6474 013f 01       		.byte	0x1
 6475 0140 11       		.uleb128 0x11
 6476 0141 01       		.uleb128 0x1
 6477 0142 31       		.uleb128 0x31
 6478 0143 13       		.uleb128 0x13
 6479 0144 00       		.byte	0
 6480 0145 00       		.byte	0
 6481 0146 1A       		.uleb128 0x1a
 6482 0147 8A8201   		.uleb128 0x410a
 6483 014a 00       		.byte	0
 6484 014b 02       		.uleb128 0x2
 6485 014c 18       		.uleb128 0x18
 6486 014d 9142     		.uleb128 0x2111
 6487 014f 18       		.uleb128 0x18
 6488 0150 00       		.byte	0
 6489 0151 00       		.byte	0
 6490 0152 1B       		.uleb128 0x1b
 6491 0153 2E       		.uleb128 0x2e
 6492 0154 01       		.byte	0x1
 6493 0155 3F       		.uleb128 0x3f
 6494 0156 19       		.uleb128 0x19
 6495 0157 03       		.uleb128 0x3
 6496 0158 0E       		.uleb128 0xe
 6497 0159 3A       		.uleb128 0x3a
 6498 015a 0B       		.uleb128 0xb
 6499 015b 3B       		.uleb128 0x3b
 6500 015c 05       		.uleb128 0x5
 6501 015d 27       		.uleb128 0x27
 6502 015e 19       		.uleb128 0x19
 6503 015f 11       		.uleb128 0x11
 6504 0160 01       		.uleb128 0x1
 6505 0161 12       		.uleb128 0x12
 6506 0162 06       		.uleb128 0x6
 6507 0163 40       		.uleb128 0x40
 6508 0164 18       		.uleb128 0x18
 6509 0165 9742     		.uleb128 0x2117
 6510 0167 19       		.uleb128 0x19
 6511 0168 01       		.uleb128 0x1
ARM GAS  C:\Users\RECEPC~1\AppData\Local\Temp\cc4fvgjK.s 			page 134


 6512 0169 13       		.uleb128 0x13
 6513 016a 00       		.byte	0
 6514 016b 00       		.byte	0
 6515 016c 1C       		.uleb128 0x1c
 6516 016d 34       		.uleb128 0x34
 6517 016e 00       		.byte	0
 6518 016f 03       		.uleb128 0x3
 6519 0170 08       		.uleb128 0x8
 6520 0171 3A       		.uleb128 0x3a
 6521 0172 0B       		.uleb128 0xb
 6522 0173 3B       		.uleb128 0x3b
 6523 0174 05       		.uleb128 0x5
 6524 0175 49       		.uleb128 0x49
 6525 0176 13       		.uleb128 0x13
 6526 0177 02       		.uleb128 0x2
 6527 0178 17       		.uleb128 0x17
 6528 0179 00       		.byte	0
 6529 017a 00       		.byte	0
 6530 017b 1D       		.uleb128 0x1d
 6531 017c 898201   		.uleb128 0x4109
 6532 017f 01       		.byte	0x1
 6533 0180 11       		.uleb128 0x11
 6534 0181 01       		.uleb128 0x1
 6535 0182 31       		.uleb128 0x31
 6536 0183 13       		.uleb128 0x13
 6537 0184 01       		.uleb128 0x1
 6538 0185 13       		.uleb128 0x13
 6539 0186 00       		.byte	0
 6540 0187 00       		.byte	0
 6541 0188 1E       		.uleb128 0x1e
 6542 0189 898201   		.uleb128 0x4109
 6543 018c 00       		.byte	0
 6544 018d 11       		.uleb128 0x11
 6545 018e 01       		.uleb128 0x1
 6546 018f 31       		.uleb128 0x31
 6547 0190 13       		.uleb128 0x13
 6548 0191 00       		.byte	0
 6549 0192 00       		.byte	0
 6550 0193 1F       		.uleb128 0x1f
 6551 0194 2E       		.uleb128 0x2e
 6552 0195 01       		.byte	0x1
 6553 0196 3F       		.uleb128 0x3f
 6554 0197 19       		.uleb128 0x19
 6555 0198 03       		.uleb128 0x3
 6556 0199 0E       		.uleb128 0xe
 6557 019a 3A       		.uleb128 0x3a
 6558 019b 0B       		.uleb128 0xb
 6559 019c 3B       		.uleb128 0x3b
 6560 019d 0B       		.uleb128 0xb
 6561 019e 27       		.uleb128 0x27
 6562 019f 19       		.uleb128 0x19
 6563 01a0 11       		.uleb128 0x11
 6564 01a1 01       		.uleb128 0x1
 6565 01a2 12       		.uleb128 0x12
 6566 01a3 06       		.uleb128 0x6
 6567 01a4 40       		.uleb128 0x40
 6568 01a5 18       		.uleb128 0x18
ARM GAS  C:\Users\RECEPC~1\AppData\Local\Temp\cc4fvgjK.s 			page 135


 6569 01a6 9742     		.uleb128 0x2117
 6570 01a8 19       		.uleb128 0x19
 6571 01a9 01       		.uleb128 0x1
 6572 01aa 13       		.uleb128 0x13
 6573 01ab 00       		.byte	0
 6574 01ac 00       		.byte	0
 6575 01ad 20       		.uleb128 0x20
 6576 01ae 34       		.uleb128 0x34
 6577 01af 00       		.byte	0
 6578 01b0 03       		.uleb128 0x3
 6579 01b1 0E       		.uleb128 0xe
 6580 01b2 3A       		.uleb128 0x3a
 6581 01b3 0B       		.uleb128 0xb
 6582 01b4 3B       		.uleb128 0x3b
 6583 01b5 05       		.uleb128 0x5
 6584 01b6 49       		.uleb128 0x49
 6585 01b7 13       		.uleb128 0x13
 6586 01b8 3F       		.uleb128 0x3f
 6587 01b9 19       		.uleb128 0x19
 6588 01ba 3C       		.uleb128 0x3c
 6589 01bb 19       		.uleb128 0x19
 6590 01bc 00       		.byte	0
 6591 01bd 00       		.byte	0
 6592 01be 21       		.uleb128 0x21
 6593 01bf 34       		.uleb128 0x34
 6594 01c0 00       		.byte	0
 6595 01c1 03       		.uleb128 0x3
 6596 01c2 0E       		.uleb128 0xe
 6597 01c3 3A       		.uleb128 0x3a
 6598 01c4 0B       		.uleb128 0xb
 6599 01c5 3B       		.uleb128 0x3b
 6600 01c6 0B       		.uleb128 0xb
 6601 01c7 49       		.uleb128 0x49
 6602 01c8 13       		.uleb128 0x13
 6603 01c9 3F       		.uleb128 0x3f
 6604 01ca 19       		.uleb128 0x19
 6605 01cb 02       		.uleb128 0x2
 6606 01cc 18       		.uleb128 0x18
 6607 01cd 00       		.byte	0
 6608 01ce 00       		.byte	0
 6609 01cf 22       		.uleb128 0x22
 6610 01d0 21       		.uleb128 0x21
 6611 01d1 00       		.byte	0
 6612 01d2 49       		.uleb128 0x49
 6613 01d3 13       		.uleb128 0x13
 6614 01d4 2F       		.uleb128 0x2f
 6615 01d5 05       		.uleb128 0x5
 6616 01d6 00       		.byte	0
 6617 01d7 00       		.byte	0
 6618 01d8 23       		.uleb128 0x23
 6619 01d9 2E       		.uleb128 0x2e
 6620 01da 01       		.byte	0x1
 6621 01db 3F       		.uleb128 0x3f
 6622 01dc 19       		.uleb128 0x19
 6623 01dd 03       		.uleb128 0x3
 6624 01de 0E       		.uleb128 0xe
 6625 01df 27       		.uleb128 0x27
ARM GAS  C:\Users\RECEPC~1\AppData\Local\Temp\cc4fvgjK.s 			page 136


 6626 01e0 19       		.uleb128 0x19
 6627 01e1 49       		.uleb128 0x49
 6628 01e2 13       		.uleb128 0x13
 6629 01e3 34       		.uleb128 0x34
 6630 01e4 19       		.uleb128 0x19
 6631 01e5 3C       		.uleb128 0x3c
 6632 01e6 19       		.uleb128 0x19
 6633 01e7 01       		.uleb128 0x1
 6634 01e8 13       		.uleb128 0x13
 6635 01e9 00       		.byte	0
 6636 01ea 00       		.byte	0
 6637 01eb 24       		.uleb128 0x24
 6638 01ec 05       		.uleb128 0x5
 6639 01ed 00       		.byte	0
 6640 01ee 49       		.uleb128 0x49
 6641 01ef 13       		.uleb128 0x13
 6642 01f0 00       		.byte	0
 6643 01f1 00       		.byte	0
 6644 01f2 25       		.uleb128 0x25
 6645 01f3 2E       		.uleb128 0x2e
 6646 01f4 01       		.byte	0x1
 6647 01f5 3F       		.uleb128 0x3f
 6648 01f6 19       		.uleb128 0x19
 6649 01f7 03       		.uleb128 0x3
 6650 01f8 0E       		.uleb128 0xe
 6651 01f9 3A       		.uleb128 0x3a
 6652 01fa 0B       		.uleb128 0xb
 6653 01fb 3B       		.uleb128 0x3b
 6654 01fc 0B       		.uleb128 0xb
 6655 01fd 27       		.uleb128 0x27
 6656 01fe 19       		.uleb128 0x19
 6657 01ff 3C       		.uleb128 0x3c
 6658 0200 19       		.uleb128 0x19
 6659 0201 01       		.uleb128 0x1
 6660 0202 13       		.uleb128 0x13
 6661 0203 00       		.byte	0
 6662 0204 00       		.byte	0
 6663 0205 26       		.uleb128 0x26
 6664 0206 2E       		.uleb128 0x2e
 6665 0207 01       		.byte	0x1
 6666 0208 3F       		.uleb128 0x3f
 6667 0209 19       		.uleb128 0x19
 6668 020a 03       		.uleb128 0x3
 6669 020b 0E       		.uleb128 0xe
 6670 020c 3A       		.uleb128 0x3a
 6671 020d 0B       		.uleb128 0xb
 6672 020e 3B       		.uleb128 0x3b
 6673 020f 0B       		.uleb128 0xb
 6674 0210 27       		.uleb128 0x27
 6675 0211 19       		.uleb128 0x19
 6676 0212 49       		.uleb128 0x49
 6677 0213 13       		.uleb128 0x13
 6678 0214 3C       		.uleb128 0x3c
 6679 0215 19       		.uleb128 0x19
 6680 0216 01       		.uleb128 0x1
 6681 0217 13       		.uleb128 0x13
 6682 0218 00       		.byte	0
ARM GAS  C:\Users\RECEPC~1\AppData\Local\Temp\cc4fvgjK.s 			page 137


 6683 0219 00       		.byte	0
 6684 021a 27       		.uleb128 0x27
 6685 021b 2E       		.uleb128 0x2e
 6686 021c 00       		.byte	0
 6687 021d 3F       		.uleb128 0x3f
 6688 021e 19       		.uleb128 0x19
 6689 021f 03       		.uleb128 0x3
 6690 0220 0E       		.uleb128 0xe
 6691 0221 3A       		.uleb128 0x3a
 6692 0222 0B       		.uleb128 0xb
 6693 0223 3B       		.uleb128 0x3b
 6694 0224 0B       		.uleb128 0xb
 6695 0225 27       		.uleb128 0x27
 6696 0226 19       		.uleb128 0x19
 6697 0227 49       		.uleb128 0x49
 6698 0228 13       		.uleb128 0x13
 6699 0229 3C       		.uleb128 0x3c
 6700 022a 19       		.uleb128 0x19
 6701 022b 00       		.byte	0
 6702 022c 00       		.byte	0
 6703 022d 28       		.uleb128 0x28
 6704 022e 2E       		.uleb128 0x2e
 6705 022f 00       		.byte	0
 6706 0230 3F       		.uleb128 0x3f
 6707 0231 19       		.uleb128 0x19
 6708 0232 03       		.uleb128 0x3
 6709 0233 0E       		.uleb128 0xe
 6710 0234 3A       		.uleb128 0x3a
 6711 0235 0B       		.uleb128 0xb
 6712 0236 3B       		.uleb128 0x3b
 6713 0237 0B       		.uleb128 0xb
 6714 0238 27       		.uleb128 0x27
 6715 0239 19       		.uleb128 0x19
 6716 023a 3C       		.uleb128 0x3c
 6717 023b 19       		.uleb128 0x19
 6718 023c 00       		.byte	0
 6719 023d 00       		.byte	0
 6720 023e 00       		.byte	0
 6721              		.section	.debug_loc,"",%progbits
 6722              	.Ldebug_loc0:
 6723              	.LLST0:
 6724 0000 00000000 		.4byte	.LVL0
 6725 0004 0A000000 		.4byte	.LVL1
 6726 0008 0100     		.2byte	0x1
 6727 000a 50       		.byte	0x50
 6728 000b 0A000000 		.4byte	.LVL1
 6729 000f 30000000 		.4byte	.LVL9
 6730 0013 0100     		.2byte	0x1
 6731 0015 55       		.byte	0x55
 6732 0016 30000000 		.4byte	.LVL9
 6733 001a 34000000 		.4byte	.LFE63
 6734 001e 0400     		.2byte	0x4
 6735 0020 F3       		.byte	0xf3
 6736 0021 01       		.uleb128 0x1
 6737 0022 50       		.byte	0x50
 6738 0023 9F       		.byte	0x9f
 6739 0024 00000000 		.4byte	0
ARM GAS  C:\Users\RECEPC~1\AppData\Local\Temp\cc4fvgjK.s 			page 138


 6740 0028 00000000 		.4byte	0
 6741              	.LLST1:
 6742 002c 00000000 		.4byte	.LVL0
 6743 0030 0C000000 		.4byte	.LVL2
 6744 0034 0100     		.2byte	0x1
 6745 0036 51       		.byte	0x51
 6746 0037 0C000000 		.4byte	.LVL2
 6747 003b 34000000 		.4byte	.LFE63
 6748 003f 0400     		.2byte	0x4
 6749 0041 F3       		.byte	0xf3
 6750 0042 01       		.uleb128 0x1
 6751 0043 51       		.byte	0x51
 6752 0044 9F       		.byte	0x9f
 6753 0045 00000000 		.4byte	0
 6754 0049 00000000 		.4byte	0
 6755              	.LLST2:
 6756 004d 14000000 		.4byte	.LVL3
 6757 0051 1A000000 		.4byte	.LVL4
 6758 0055 0200     		.2byte	0x2
 6759 0057 30       		.byte	0x30
 6760 0058 9F       		.byte	0x9f
 6761 0059 1A000000 		.4byte	.LVL4
 6762 005d 1E000000 		.4byte	.LVL5
 6763 0061 0100     		.2byte	0x1
 6764 0063 50       		.byte	0x50
 6765 0064 22000000 		.4byte	.LVL6
 6766 0068 34000000 		.4byte	.LFE63
 6767 006c 0100     		.2byte	0x1
 6768 006e 50       		.byte	0x50
 6769 006f 00000000 		.4byte	0
 6770 0073 00000000 		.4byte	0
 6771              	.LLST3:
 6772 0077 1E000000 		.4byte	.LVL5
 6773 007b 22000000 		.4byte	.LVL6
 6774 007f 0100     		.2byte	0x1
 6775 0081 50       		.byte	0x50
 6776 0082 00000000 		.4byte	0
 6777 0086 00000000 		.4byte	0
 6778              	.LLST4:
 6779 008a 14000000 		.4byte	.LVL3
 6780 008e 1A000000 		.4byte	.LVL4
 6781 0092 0200     		.2byte	0x2
 6782 0094 30       		.byte	0x30
 6783 0095 9F       		.byte	0x9f
 6784 0096 1A000000 		.4byte	.LVL4
 6785 009a 24000000 		.4byte	.LVL7
 6786 009e 0100     		.2byte	0x1
 6787 00a0 53       		.byte	0x53
 6788 00a1 26000000 		.4byte	.LVL8
 6789 00a5 34000000 		.4byte	.LFE63
 6790 00a9 0100     		.2byte	0x1
 6791 00ab 53       		.byte	0x53
 6792 00ac 00000000 		.4byte	0
 6793 00b0 00000000 		.4byte	0
 6794              	.LLST5:
 6795 00b4 68000000 		.4byte	.LVL10
 6796 00b8 7A000000 		.4byte	.LVL11
ARM GAS  C:\Users\RECEPC~1\AppData\Local\Temp\cc4fvgjK.s 			page 139


 6797 00bc 0100     		.2byte	0x1
 6798 00be 53       		.byte	0x53
 6799 00bf 7C000000 		.4byte	.LVL12
 6800 00c3 84000000 		.4byte	.LVL13
 6801 00c7 0100     		.2byte	0x1
 6802 00c9 53       		.byte	0x53
 6803 00ca 84000000 		.4byte	.LVL13
 6804 00ce 9C000000 		.4byte	.LVL14
 6805 00d2 0100     		.2byte	0x1
 6806 00d4 52       		.byte	0x52
 6807 00d5 9E000000 		.4byte	.LVL15
 6808 00d9 A6000000 		.4byte	.LVL16
 6809 00dd 0100     		.2byte	0x1
 6810 00df 52       		.byte	0x52
 6811 00e0 B2000000 		.4byte	.LVL17
 6812 00e4 C4000000 		.4byte	.LVL18
 6813 00e8 0100     		.2byte	0x1
 6814 00ea 53       		.byte	0x53
 6815 00eb C6000000 		.4byte	.LVL19
 6816 00ef EC000000 		.4byte	.LVL21
 6817 00f3 0100     		.2byte	0x1
 6818 00f5 53       		.byte	0x53
 6819 00f6 EE000000 		.4byte	.LVL22
 6820 00fa F6000000 		.4byte	.LVL23
 6821 00fe 0100     		.2byte	0x1
 6822 0100 53       		.byte	0x53
 6823 0101 F8000000 		.4byte	.LVL24
 6824 0105 05010000 		.4byte	.LVL25-1
 6825 0109 0100     		.2byte	0x1
 6826 010b 53       		.byte	0x53
 6827 010c 70010000 		.4byte	.LVL26
 6828 0110 82010000 		.4byte	.LVL27
 6829 0114 0100     		.2byte	0x1
 6830 0116 53       		.byte	0x53
 6831 0117 84010000 		.4byte	.LVL28
 6832 011b 8A010000 		.4byte	.LVL29
 6833 011f 0100     		.2byte	0x1
 6834 0121 53       		.byte	0x53
 6835 0122 8C010000 		.4byte	.LVL30
 6836 0126 A4010000 		.4byte	.LVL31
 6837 012a 0100     		.2byte	0x1
 6838 012c 53       		.byte	0x53
 6839 012d A6010000 		.4byte	.LVL32
 6840 0131 AC010000 		.4byte	.LVL33
 6841 0135 0100     		.2byte	0x1
 6842 0137 53       		.byte	0x53
 6843 0138 BA010000 		.4byte	.LVL34
 6844 013c CC010000 		.4byte	.LVL35
 6845 0140 0100     		.2byte	0x1
 6846 0142 53       		.byte	0x53
 6847 0143 CE010000 		.4byte	.LVL36
 6848 0147 D0010000 		.4byte	.LVL37
 6849 014b 0100     		.2byte	0x1
 6850 014d 53       		.byte	0x53
 6851 014e D2010000 		.4byte	.LVL38
 6852 0152 F0010000 		.4byte	.LVL39
 6853 0156 0100     		.2byte	0x1
ARM GAS  C:\Users\RECEPC~1\AppData\Local\Temp\cc4fvgjK.s 			page 140


 6854 0158 53       		.byte	0x53
 6855 0159 F2010000 		.4byte	.LVL40
 6856 015d FE010000 		.4byte	.LVL41
 6857 0161 0100     		.2byte	0x1
 6858 0163 53       		.byte	0x53
 6859 0164 1A020000 		.4byte	.LVL42
 6860 0168 2C020000 		.4byte	.LVL43
 6861 016c 0100     		.2byte	0x1
 6862 016e 53       		.byte	0x53
 6863 016f 2E020000 		.4byte	.LVL44
 6864 0173 30020000 		.4byte	.LVL45
 6865 0177 0100     		.2byte	0x1
 6866 0179 53       		.byte	0x53
 6867 017a 32020000 		.4byte	.LVL46
 6868 017e 7E020000 		.4byte	.LVL47
 6869 0182 0100     		.2byte	0x1
 6870 0184 53       		.byte	0x53
 6871 0185 80020000 		.4byte	.LVL48
 6872 0189 8C020000 		.4byte	.LVL49
 6873 018d 0100     		.2byte	0x1
 6874 018f 53       		.byte	0x53
 6875 0190 08030000 		.4byte	.LVL51
 6876 0194 1A030000 		.4byte	.LVL52
 6877 0198 0100     		.2byte	0x1
 6878 019a 54       		.byte	0x54
 6879 019b 1C030000 		.4byte	.LVL53
 6880 019f 24030000 		.4byte	.LVL54
 6881 01a3 0100     		.2byte	0x1
 6882 01a5 54       		.byte	0x54
 6883 01a6 24030000 		.4byte	.LVL54
 6884 01aa 3A030000 		.4byte	.LVL55
 6885 01ae 0100     		.2byte	0x1
 6886 01b0 52       		.byte	0x52
 6887 01b1 3C030000 		.4byte	.LVL56
 6888 01b5 51030000 		.4byte	.LVL57-1
 6889 01b9 0100     		.2byte	0x1
 6890 01bb 52       		.byte	0x52
 6891 01bc 56030000 		.4byte	.LVL58
 6892 01c0 58030000 		.4byte	.LVL59
 6893 01c4 0200     		.2byte	0x2
 6894 01c6 30       		.byte	0x30
 6895 01c7 9F       		.byte	0x9f
 6896 01c8 58030000 		.4byte	.LVL59
 6897 01cc 62030000 		.4byte	.LVL61
 6898 01d0 0100     		.2byte	0x1
 6899 01d2 54       		.byte	0x54
 6900 01d3 64030000 		.4byte	.LVL62
 6901 01d7 76030000 		.4byte	.LVL63
 6902 01db 0100     		.2byte	0x1
 6903 01dd 54       		.byte	0x54
 6904 01de FE030000 		.4byte	.LVL77
 6905 01e2 1C040000 		.4byte	.LVL80
 6906 01e6 0100     		.2byte	0x1
 6907 01e8 52       		.byte	0x52
 6908 01e9 1E040000 		.4byte	.LVL81
 6909 01ed 20040000 		.4byte	.LVL82
 6910 01f1 0100     		.2byte	0x1
ARM GAS  C:\Users\RECEPC~1\AppData\Local\Temp\cc4fvgjK.s 			page 141


 6911 01f3 52       		.byte	0x52
 6912 01f4 22040000 		.4byte	.LVL83
 6913 01f8 34040000 		.4byte	.LVL86
 6914 01fc 0100     		.2byte	0x1
 6915 01fe 52       		.byte	0x52
 6916 01ff 36040000 		.4byte	.LVL87
 6917 0203 3C040000 		.4byte	.LVL88
 6918 0207 0100     		.2byte	0x1
 6919 0209 52       		.byte	0x52
 6920 020a 3E040000 		.4byte	.LVL89
 6921 020e 5C040000 		.4byte	.LVL92
 6922 0212 0100     		.2byte	0x1
 6923 0214 52       		.byte	0x52
 6924 0215 5E040000 		.4byte	.LVL93
 6925 0219 70040000 		.4byte	.LVL96
 6926 021d 0100     		.2byte	0x1
 6927 021f 52       		.byte	0x52
 6928 0220 72040000 		.4byte	.LVL97
 6929 0224 96040000 		.4byte	.LVL100
 6930 0228 0100     		.2byte	0x1
 6931 022a 52       		.byte	0x52
 6932 022b 98040000 		.4byte	.LVL101
 6933 022f 9E040000 		.4byte	.LVL102
 6934 0233 0100     		.2byte	0x1
 6935 0235 52       		.byte	0x52
 6936 0236 A0040000 		.4byte	.LVL103
 6937 023a BE040000 		.4byte	.LVL106
 6938 023e 0100     		.2byte	0x1
 6939 0240 52       		.byte	0x52
 6940 0241 C0040000 		.4byte	.LVL107
 6941 0245 C8040000 		.4byte	.LVL109
 6942 0249 0100     		.2byte	0x1
 6943 024b 52       		.byte	0x52
 6944 024c E8040000 		.4byte	.LVL112
 6945 0250 EC040000 		.4byte	.LVL113
 6946 0254 0200     		.2byte	0x2
 6947 0256 30       		.byte	0x30
 6948 0257 9F       		.byte	0x9f
 6949 0258 EC040000 		.4byte	.LVL113
 6950 025c F6040000 		.4byte	.LVL115
 6951 0260 0100     		.2byte	0x1
 6952 0262 54       		.byte	0x54
 6953 0263 F8040000 		.4byte	.LVL116
 6954 0267 04050000 		.4byte	.LVL117
 6955 026b 0100     		.2byte	0x1
 6956 026d 54       		.byte	0x54
 6957 026e 00000000 		.4byte	0
 6958 0272 00000000 		.4byte	0
 6959              	.LLST6:
 6960 0276 B8030000 		.4byte	.LVL65
 6961 027a BE030000 		.4byte	.LVL66
 6962 027e 0200     		.2byte	0x2
 6963 0280 30       		.byte	0x30
 6964 0281 9F       		.byte	0x9f
 6965 0282 BE030000 		.4byte	.LVL66
 6966 0286 C2030000 		.4byte	.LVL67
 6967 028a 0200     		.2byte	0x2
ARM GAS  C:\Users\RECEPC~1\AppData\Local\Temp\cc4fvgjK.s 			page 142


 6968 028c 31       		.byte	0x31
 6969 028d 9F       		.byte	0x9f
 6970 028e C2030000 		.4byte	.LVL67
 6971 0292 C6030000 		.4byte	.LVL68
 6972 0296 0200     		.2byte	0x2
 6973 0298 32       		.byte	0x32
 6974 0299 9F       		.byte	0x9f
 6975 029a C6030000 		.4byte	.LVL68
 6976 029e CC030000 		.4byte	.LVL69
 6977 02a2 0200     		.2byte	0x2
 6978 02a4 33       		.byte	0x33
 6979 02a5 9F       		.byte	0x9f
 6980 02a6 CC030000 		.4byte	.LVL69
 6981 02aa D0030000 		.4byte	.LVL70
 6982 02ae 0200     		.2byte	0x2
 6983 02b0 34       		.byte	0x34
 6984 02b1 9F       		.byte	0x9f
 6985 02b2 D0030000 		.4byte	.LVL70
 6986 02b6 D6030000 		.4byte	.LVL71
 6987 02ba 0200     		.2byte	0x2
 6988 02bc 35       		.byte	0x35
 6989 02bd 9F       		.byte	0x9f
 6990 02be D6030000 		.4byte	.LVL71
 6991 02c2 DA030000 		.4byte	.LVL72
 6992 02c6 0200     		.2byte	0x2
 6993 02c8 36       		.byte	0x36
 6994 02c9 9F       		.byte	0x9f
 6995 02ca DA030000 		.4byte	.LVL72
 6996 02ce E0030000 		.4byte	.LVL73
 6997 02d2 0200     		.2byte	0x2
 6998 02d4 37       		.byte	0x37
 6999 02d5 9F       		.byte	0x9f
 7000 02d6 E0030000 		.4byte	.LVL73
 7001 02da E6030000 		.4byte	.LVL74
 7002 02de 0200     		.2byte	0x2
 7003 02e0 39       		.byte	0x39
 7004 02e1 9F       		.byte	0x9f
 7005 02e2 E6030000 		.4byte	.LVL74
 7006 02e6 EC030000 		.4byte	.LVL75
 7007 02ea 0100     		.2byte	0x1
 7008 02ec 54       		.byte	0x54
 7009 02ed EE030000 		.4byte	.LVL76
 7010 02f1 18040000 		.4byte	.LVL78
 7011 02f5 0100     		.2byte	0x1
 7012 02f7 54       		.byte	0x54
 7013 02f8 1A040000 		.4byte	.LVL79
 7014 02fc 30040000 		.4byte	.LVL84
 7015 0300 0100     		.2byte	0x1
 7016 0302 54       		.byte	0x54
 7017 0303 32040000 		.4byte	.LVL85
 7018 0307 58040000 		.4byte	.LVL90
 7019 030b 0100     		.2byte	0x1
 7020 030d 54       		.byte	0x54
 7021 030e 5A040000 		.4byte	.LVL91
 7022 0312 6C040000 		.4byte	.LVL94
 7023 0316 0100     		.2byte	0x1
 7024 0318 54       		.byte	0x54
ARM GAS  C:\Users\RECEPC~1\AppData\Local\Temp\cc4fvgjK.s 			page 143


 7025 0319 6E040000 		.4byte	.LVL95
 7026 031d 92040000 		.4byte	.LVL98
 7027 0321 0100     		.2byte	0x1
 7028 0323 54       		.byte	0x54
 7029 0324 94040000 		.4byte	.LVL99
 7030 0328 BA040000 		.4byte	.LVL104
 7031 032c 0100     		.2byte	0x1
 7032 032e 54       		.byte	0x54
 7033 032f BC040000 		.4byte	.LVL105
 7034 0333 E8040000 		.4byte	.LVL112
 7035 0337 0100     		.2byte	0x1
 7036 0339 54       		.byte	0x54
 7037 033a E8040000 		.4byte	.LVL112
 7038 033e 04050000 		.4byte	.LVL117
 7039 0342 0100     		.2byte	0x1
 7040 0344 55       		.byte	0x55
 7041 0345 00000000 		.4byte	0
 7042 0349 00000000 		.4byte	0
 7043              	.LLST7:
 7044 034d E0030000 		.4byte	.LVL73
 7045 0351 E6030000 		.4byte	.LVL74
 7046 0355 0200     		.2byte	0x2
 7047 0357 31       		.byte	0x31
 7048 0358 9F       		.byte	0x9f
 7049 0359 E6030000 		.4byte	.LVL74
 7050 035d C6040000 		.4byte	.LVL108
 7051 0361 0100     		.2byte	0x1
 7052 0363 51       		.byte	0x51
 7053 0364 C8040000 		.4byte	.LVL109
 7054 0368 E2040000 		.4byte	.LVL110
 7055 036c 0100     		.2byte	0x1
 7056 036e 51       		.byte	0x51
 7057 036f 00000000 		.4byte	0
 7058 0373 00000000 		.4byte	0
 7059              	.LLST8:
 7060 0377 5A000000 		.4byte	.LVL118
 7061 037b 6C000000 		.4byte	.LVL119
 7062 037f 0100     		.2byte	0x1
 7063 0381 54       		.byte	0x54
 7064 0382 6E000000 		.4byte	.LVL120
 7065 0386 76000000 		.4byte	.LVL121
 7066 038a 0100     		.2byte	0x1
 7067 038c 54       		.byte	0x54
 7068 038d 76000000 		.4byte	.LVL121
 7069 0391 8E000000 		.4byte	.LVL122
 7070 0395 0100     		.2byte	0x1
 7071 0397 53       		.byte	0x53
 7072 0398 90000000 		.4byte	.LVL123
 7073 039c 98000000 		.4byte	.LVL124
 7074 03a0 0100     		.2byte	0x1
 7075 03a2 53       		.byte	0x53
 7076 03a3 A6000000 		.4byte	.LVL125
 7077 03a7 B8000000 		.4byte	.LVL126
 7078 03ab 0100     		.2byte	0x1
 7079 03ad 53       		.byte	0x53
 7080 03ae BA000000 		.4byte	.LVL127
 7081 03b2 BC000000 		.4byte	.LVL128
ARM GAS  C:\Users\RECEPC~1\AppData\Local\Temp\cc4fvgjK.s 			page 144


 7082 03b6 0100     		.2byte	0x1
 7083 03b8 53       		.byte	0x53
 7084 03b9 BE000000 		.4byte	.LVL129
 7085 03bd E4000000 		.4byte	.LVL131
 7086 03c1 0100     		.2byte	0x1
 7087 03c3 53       		.byte	0x53
 7088 03c4 E6000000 		.4byte	.LVL132
 7089 03c8 EE000000 		.4byte	.LVL133
 7090 03cc 0100     		.2byte	0x1
 7091 03ce 53       		.byte	0x53
 7092 03cf F0000000 		.4byte	.LVL134
 7093 03d3 FD000000 		.4byte	.LVL135-1
 7094 03d7 0100     		.2byte	0x1
 7095 03d9 53       		.byte	0x53
 7096 03da 02010000 		.4byte	.LVL136
 7097 03de 04010000 		.4byte	.LVL137
 7098 03e2 0200     		.2byte	0x2
 7099 03e4 30       		.byte	0x30
 7100 03e5 9F       		.byte	0x9f
 7101 03e6 04010000 		.4byte	.LVL137
 7102 03ea 0E010000 		.4byte	.LVL139
 7103 03ee 0100     		.2byte	0x1
 7104 03f0 54       		.byte	0x54
 7105 03f1 10010000 		.4byte	.LVL140
 7106 03f5 22010000 		.4byte	.LVL141
 7107 03f9 0100     		.2byte	0x1
 7108 03fb 54       		.byte	0x54
 7109 03fc 6E010000 		.4byte	.LVL142
 7110 0400 80010000 		.4byte	.LVL143
 7111 0404 0100     		.2byte	0x1
 7112 0406 54       		.byte	0x54
 7113 0407 82010000 		.4byte	.LVL144
 7114 040b 8A010000 		.4byte	.LVL145
 7115 040f 0100     		.2byte	0x1
 7116 0411 54       		.byte	0x54
 7117 0412 8A010000 		.4byte	.LVL145
 7118 0416 A2010000 		.4byte	.LVL146
 7119 041a 0100     		.2byte	0x1
 7120 041c 53       		.byte	0x53
 7121 041d A4010000 		.4byte	.LVL147
 7122 0421 AA010000 		.4byte	.LVL148
 7123 0425 0100     		.2byte	0x1
 7124 0427 53       		.byte	0x53
 7125 0428 B8010000 		.4byte	.LVL149
 7126 042c CA010000 		.4byte	.LVL150
 7127 0430 0100     		.2byte	0x1
 7128 0432 53       		.byte	0x53
 7129 0433 CC010000 		.4byte	.LVL151
 7130 0437 CE010000 		.4byte	.LVL152
 7131 043b 0100     		.2byte	0x1
 7132 043d 53       		.byte	0x53
 7133 043e D0010000 		.4byte	.LVL153
 7134 0442 EE010000 		.4byte	.LVL154
 7135 0446 0100     		.2byte	0x1
 7136 0448 53       		.byte	0x53
 7137 0449 F0010000 		.4byte	.LVL155
 7138 044d FC010000 		.4byte	.LVL156
ARM GAS  C:\Users\RECEPC~1\AppData\Local\Temp\cc4fvgjK.s 			page 145


 7139 0451 0100     		.2byte	0x1
 7140 0453 53       		.byte	0x53
 7141 0454 18020000 		.4byte	.LVL157
 7142 0458 2A020000 		.4byte	.LVL158
 7143 045c 0100     		.2byte	0x1
 7144 045e 53       		.byte	0x53
 7145 045f 2C020000 		.4byte	.LVL159
 7146 0463 2E020000 		.4byte	.LVL160
 7147 0467 0100     		.2byte	0x1
 7148 0469 53       		.byte	0x53
 7149 046a 30020000 		.4byte	.LVL161
 7150 046e 4E020000 		.4byte	.LVL162
 7151 0472 0100     		.2byte	0x1
 7152 0474 53       		.byte	0x53
 7153 0475 50020000 		.4byte	.LVL163
 7154 0479 5C020000 		.4byte	.LVL164
 7155 047d 0100     		.2byte	0x1
 7156 047f 53       		.byte	0x53
 7157 0480 74020000 		.4byte	.LVL166
 7158 0484 A0020000 		.4byte	.LVL167
 7159 0488 0200     		.2byte	0x2
 7160 048a 30       		.byte	0x30
 7161 048b 9F       		.byte	0x9f
 7162 048c A0020000 		.4byte	.LVL167
 7163 0490 AA020000 		.4byte	.LVL169
 7164 0494 0100     		.2byte	0x1
 7165 0496 54       		.byte	0x54
 7166 0497 AC020000 		.4byte	.LVL170
 7167 049b D0020000 		.4byte	.LVL171
 7168 049f 0100     		.2byte	0x1
 7169 04a1 54       		.byte	0x54
 7170 04a2 5E030000 		.4byte	.LVL185
 7171 04a6 7E030000 		.4byte	.LVL188
 7172 04aa 0100     		.2byte	0x1
 7173 04ac 52       		.byte	0x52
 7174 04ad 80030000 		.4byte	.LVL189
 7175 04b1 82030000 		.4byte	.LVL190
 7176 04b5 0100     		.2byte	0x1
 7177 04b7 52       		.byte	0x52
 7178 04b8 84030000 		.4byte	.LVL191
 7179 04bc 96030000 		.4byte	.LVL194
 7180 04c0 0100     		.2byte	0x1
 7181 04c2 52       		.byte	0x52
 7182 04c3 98030000 		.4byte	.LVL195
 7183 04c7 9E030000 		.4byte	.LVL196
 7184 04cb 0100     		.2byte	0x1
 7185 04cd 52       		.byte	0x52
 7186 04ce A0030000 		.4byte	.LVL197
 7187 04d2 C0030000 		.4byte	.LVL200
 7188 04d6 0100     		.2byte	0x1
 7189 04d8 52       		.byte	0x52
 7190 04d9 C2030000 		.4byte	.LVL201
 7191 04dd D4030000 		.4byte	.LVL204
 7192 04e1 0100     		.2byte	0x1
 7193 04e3 52       		.byte	0x52
 7194 04e4 D6030000 		.4byte	.LVL205
 7195 04e8 FC030000 		.4byte	.LVL208
ARM GAS  C:\Users\RECEPC~1\AppData\Local\Temp\cc4fvgjK.s 			page 146


 7196 04ec 0100     		.2byte	0x1
 7197 04ee 52       		.byte	0x52
 7198 04ef FE030000 		.4byte	.LVL209
 7199 04f3 04040000 		.4byte	.LVL210
 7200 04f7 0100     		.2byte	0x1
 7201 04f9 52       		.byte	0x52
 7202 04fa 06040000 		.4byte	.LVL211
 7203 04fe 26040000 		.4byte	.LVL214
 7204 0502 0100     		.2byte	0x1
 7205 0504 52       		.byte	0x52
 7206 0505 28040000 		.4byte	.LVL215
 7207 0509 30040000 		.4byte	.LVL217
 7208 050d 0100     		.2byte	0x1
 7209 050f 52       		.byte	0x52
 7210 0510 50040000 		.4byte	.LVL220
 7211 0514 54040000 		.4byte	.LVL221
 7212 0518 0200     		.2byte	0x2
 7213 051a 30       		.byte	0x30
 7214 051b 9F       		.byte	0x9f
 7215 051c 54040000 		.4byte	.LVL221
 7216 0520 5E040000 		.4byte	.LVL223
 7217 0524 0100     		.2byte	0x1
 7218 0526 54       		.byte	0x54
 7219 0527 60040000 		.4byte	.LVL224
 7220 052b 6C040000 		.4byte	.LVL225
 7221 052f 0100     		.2byte	0x1
 7222 0531 54       		.byte	0x54
 7223 0532 00000000 		.4byte	0
 7224 0536 00000000 		.4byte	0
 7225              	.LLST9:
 7226 053a 16030000 		.4byte	.LVL173
 7227 053e 1C030000 		.4byte	.LVL174
 7228 0542 0200     		.2byte	0x2
 7229 0544 30       		.byte	0x30
 7230 0545 9F       		.byte	0x9f
 7231 0546 1C030000 		.4byte	.LVL174
 7232 054a 20030000 		.4byte	.LVL175
 7233 054e 0200     		.2byte	0x2
 7234 0550 31       		.byte	0x31
 7235 0551 9F       		.byte	0x9f
 7236 0552 20030000 		.4byte	.LVL175
 7237 0556 24030000 		.4byte	.LVL176
 7238 055a 0200     		.2byte	0x2
 7239 055c 32       		.byte	0x32
 7240 055d 9F       		.byte	0x9f
 7241 055e 24030000 		.4byte	.LVL176
 7242 0562 2A030000 		.4byte	.LVL177
 7243 0566 0200     		.2byte	0x2
 7244 0568 33       		.byte	0x33
 7245 0569 9F       		.byte	0x9f
 7246 056a 2A030000 		.4byte	.LVL177
 7247 056e 2E030000 		.4byte	.LVL178
 7248 0572 0200     		.2byte	0x2
 7249 0574 34       		.byte	0x34
 7250 0575 9F       		.byte	0x9f
 7251 0576 2E030000 		.4byte	.LVL178
 7252 057a 36030000 		.4byte	.LVL179
ARM GAS  C:\Users\RECEPC~1\AppData\Local\Temp\cc4fvgjK.s 			page 147


 7253 057e 0200     		.2byte	0x2
 7254 0580 35       		.byte	0x35
 7255 0581 9F       		.byte	0x9f
 7256 0582 36030000 		.4byte	.LVL179
 7257 0586 3A030000 		.4byte	.LVL180
 7258 058a 0200     		.2byte	0x2
 7259 058c 36       		.byte	0x36
 7260 058d 9F       		.byte	0x9f
 7261 058e 3A030000 		.4byte	.LVL180
 7262 0592 40030000 		.4byte	.LVL181
 7263 0596 0200     		.2byte	0x2
 7264 0598 37       		.byte	0x37
 7265 0599 9F       		.byte	0x9f
 7266 059a 40030000 		.4byte	.LVL181
 7267 059e 46030000 		.4byte	.LVL182
 7268 05a2 0200     		.2byte	0x2
 7269 05a4 39       		.byte	0x39
 7270 05a5 9F       		.byte	0x9f
 7271 05a6 46030000 		.4byte	.LVL182
 7272 05aa 4C030000 		.4byte	.LVL183
 7273 05ae 0100     		.2byte	0x1
 7274 05b0 54       		.byte	0x54
 7275 05b1 4E030000 		.4byte	.LVL184
 7276 05b5 7A030000 		.4byte	.LVL186
 7277 05b9 0100     		.2byte	0x1
 7278 05bb 54       		.byte	0x54
 7279 05bc 7C030000 		.4byte	.LVL187
 7280 05c0 92030000 		.4byte	.LVL192
 7281 05c4 0100     		.2byte	0x1
 7282 05c6 54       		.byte	0x54
 7283 05c7 94030000 		.4byte	.LVL193
 7284 05cb BC030000 		.4byte	.LVL198
 7285 05cf 0100     		.2byte	0x1
 7286 05d1 54       		.byte	0x54
 7287 05d2 BE030000 		.4byte	.LVL199
 7288 05d6 D0030000 		.4byte	.LVL202
 7289 05da 0100     		.2byte	0x1
 7290 05dc 54       		.byte	0x54
 7291 05dd D2030000 		.4byte	.LVL203
 7292 05e1 F8030000 		.4byte	.LVL206
 7293 05e5 0100     		.2byte	0x1
 7294 05e7 54       		.byte	0x54
 7295 05e8 FA030000 		.4byte	.LVL207
 7296 05ec 22040000 		.4byte	.LVL212
 7297 05f0 0100     		.2byte	0x1
 7298 05f2 54       		.byte	0x54
 7299 05f3 24040000 		.4byte	.LVL213
 7300 05f7 50040000 		.4byte	.LVL220
 7301 05fb 0100     		.2byte	0x1
 7302 05fd 54       		.byte	0x54
 7303 05fe 50040000 		.4byte	.LVL220
 7304 0602 6C040000 		.4byte	.LVL225
 7305 0606 0100     		.2byte	0x1
 7306 0608 55       		.byte	0x55
 7307 0609 00000000 		.4byte	0
 7308 060d 00000000 		.4byte	0
 7309              	.LLST10:
ARM GAS  C:\Users\RECEPC~1\AppData\Local\Temp\cc4fvgjK.s 			page 148


 7310 0611 40030000 		.4byte	.LVL181
 7311 0615 46030000 		.4byte	.LVL182
 7312 0619 0200     		.2byte	0x2
 7313 061b 31       		.byte	0x31
 7314 061c 9F       		.byte	0x9f
 7315 061d 46030000 		.4byte	.LVL182
 7316 0621 2E040000 		.4byte	.LVL216
 7317 0625 0100     		.2byte	0x1
 7318 0627 51       		.byte	0x51
 7319 0628 30040000 		.4byte	.LVL217
 7320 062c 4A040000 		.4byte	.LVL218
 7321 0630 0100     		.2byte	0x1
 7322 0632 51       		.byte	0x51
 7323 0633 00000000 		.4byte	0
 7324 0637 00000000 		.4byte	0
 7325              	.LLST11:
 7326 063b 1E000000 		.4byte	.LVL228
 7327 063f 20000000 		.4byte	.LVL229
 7328 0643 0200     		.2byte	0x2
 7329 0645 30       		.byte	0x30
 7330 0646 9F       		.byte	0x9f
 7331 0647 20000000 		.4byte	.LVL229
 7332 064b 2A000000 		.4byte	.LVL231
 7333 064f 0100     		.2byte	0x1
 7334 0651 54       		.byte	0x54
 7335 0652 2C000000 		.4byte	.LVL232
 7336 0656 36010000 		.4byte	.LVL240
 7337 065a 0100     		.2byte	0x1
 7338 065c 54       		.byte	0x54
 7339 065d 74010000 		.4byte	.LVL255
 7340 0661 76010000 		.4byte	.LVL256
 7341 0665 0100     		.2byte	0x1
 7342 0667 54       		.byte	0x54
 7343 0668 88010000 		.4byte	.LVL258
 7344 066c 8A010000 		.4byte	.LVL259
 7345 0670 0100     		.2byte	0x1
 7346 0672 54       		.byte	0x54
 7347 0673 A8020000 		.4byte	.LVL296
 7348 0677 BC020000 		.4byte	.LVL297
 7349 067b 0100     		.2byte	0x1
 7350 067d 54       		.byte	0x54
 7351 067e EC020000 		.4byte	.LVL307
 7352 0682 EE020000 		.4byte	.LVL308
 7353 0686 0100     		.2byte	0x1
 7354 0688 54       		.byte	0x54
 7355 0689 44030000 		.4byte	.LVL320
 7356 068d 52030000 		.4byte	.LVL321
 7357 0691 0100     		.2byte	0x1
 7358 0693 54       		.byte	0x54
 7359 0694 6C030000 		.4byte	.LVL325
 7360 0698 6E030000 		.4byte	.LVL326
 7361 069c 0100     		.2byte	0x1
 7362 069e 54       		.byte	0x54
 7363 069f BE040000 		.4byte	.LVL375
 7364 06a3 C0040000 		.4byte	.LVL376
 7365 06a7 0100     		.2byte	0x1
 7366 06a9 54       		.byte	0x54
ARM GAS  C:\Users\RECEPC~1\AppData\Local\Temp\cc4fvgjK.s 			page 149


 7367 06aa 64050000 		.4byte	.LVL384
 7368 06ae 02070000 		.4byte	.LVL432
 7369 06b2 0100     		.2byte	0x1
 7370 06b4 54       		.byte	0x54
 7371 06b5 A8070000 		.4byte	.LVL458
 7372 06b9 AE070000 		.4byte	.LVL459
 7373 06bd 0100     		.2byte	0x1
 7374 06bf 54       		.byte	0x54
 7375 06c0 02080000 		.4byte	.LVL471
 7376 06c4 9E080000 		.4byte	.LVL474
 7377 06c8 0100     		.2byte	0x1
 7378 06ca 54       		.byte	0x54
 7379 06cb 00000000 		.4byte	0
 7380 06cf 00000000 		.4byte	0
 7381              	.LLST12:
 7382 06d3 4E010000 		.4byte	.LVL245
 7383 06d7 52010000 		.4byte	.LVL246
 7384 06db 0200     		.2byte	0x2
 7385 06dd 30       		.byte	0x30
 7386 06de 9F       		.byte	0x9f
 7387 06df 52010000 		.4byte	.LVL246
 7388 06e3 5C010000 		.4byte	.LVL248
 7389 06e7 0100     		.2byte	0x1
 7390 06e9 54       		.byte	0x54
 7391 06ea 5E010000 		.4byte	.LVL249
 7392 06ee 64010000 		.4byte	.LVL250
 7393 06f2 0100     		.2byte	0x1
 7394 06f4 54       		.byte	0x54
 7395 06f5 66010000 		.4byte	.LVL251
 7396 06f9 70010000 		.4byte	.LVL253
 7397 06fd 0100     		.2byte	0x1
 7398 06ff 54       		.byte	0x54
 7399 0700 72010000 		.4byte	.LVL254
 7400 0704 74010000 		.4byte	.LVL255
 7401 0708 0100     		.2byte	0x1
 7402 070a 54       		.byte	0x54
 7403 070b 76010000 		.4byte	.LVL256
 7404 070f 86010000 		.4byte	.LVL257
 7405 0713 0100     		.2byte	0x1
 7406 0715 54       		.byte	0x54
 7407 0716 CC010000 		.4byte	.LVL266
 7408 071a D0010000 		.4byte	.LVL267
 7409 071e 0200     		.2byte	0x2
 7410 0720 30       		.byte	0x30
 7411 0721 9F       		.byte	0x9f
 7412 0722 D0010000 		.4byte	.LVL267
 7413 0726 DA010000 		.4byte	.LVL269
 7414 072a 0100     		.2byte	0x1
 7415 072c 55       		.byte	0x55
 7416 072d DC010000 		.4byte	.LVL270
 7417 0731 E2010000 		.4byte	.LVL271
 7418 0735 0100     		.2byte	0x1
 7419 0737 55       		.byte	0x55
 7420 0738 20020000 		.4byte	.LVL279
 7421 073c 24020000 		.4byte	.LVL280
 7422 0740 0200     		.2byte	0x2
 7423 0742 30       		.byte	0x30
ARM GAS  C:\Users\RECEPC~1\AppData\Local\Temp\cc4fvgjK.s 			page 150


 7424 0743 9F       		.byte	0x9f
 7425 0744 24020000 		.4byte	.LVL280
 7426 0748 2E020000 		.4byte	.LVL282
 7427 074c 0100     		.2byte	0x1
 7428 074e 55       		.byte	0x55
 7429 074f 30020000 		.4byte	.LVL283
 7430 0753 34020000 		.4byte	.LVL284
 7431 0757 0100     		.2byte	0x1
 7432 0759 55       		.byte	0x55
 7433 075a 70020000 		.4byte	.LVL291
 7434 075e 74020000 		.4byte	.LVL292
 7435 0762 0200     		.2byte	0x2
 7436 0764 30       		.byte	0x30
 7437 0765 9F       		.byte	0x9f
 7438 0766 74020000 		.4byte	.LVL292
 7439 076a 7E020000 		.4byte	.LVL294
 7440 076e 0100     		.2byte	0x1
 7441 0770 55       		.byte	0x55
 7442 0771 80020000 		.4byte	.LVL295
 7443 0775 A8020000 		.4byte	.LVL296
 7444 0779 0100     		.2byte	0x1
 7445 077b 55       		.byte	0x55
 7446 077c D4020000 		.4byte	.LVL302
 7447 0780 D8020000 		.4byte	.LVL303
 7448 0784 0200     		.2byte	0x2
 7449 0786 30       		.byte	0x30
 7450 0787 9F       		.byte	0x9f
 7451 0788 D8020000 		.4byte	.LVL303
 7452 078c E2020000 		.4byte	.LVL305
 7453 0790 0100     		.2byte	0x1
 7454 0792 54       		.byte	0x54
 7455 0793 E4020000 		.4byte	.LVL306
 7456 0797 EC020000 		.4byte	.LVL307
 7457 079b 0100     		.2byte	0x1
 7458 079d 54       		.byte	0x54
 7459 079e 2E030000 		.4byte	.LVL315
 7460 07a2 32030000 		.4byte	.LVL316
 7461 07a6 0200     		.2byte	0x2
 7462 07a8 30       		.byte	0x30
 7463 07a9 9F       		.byte	0x9f
 7464 07aa 32030000 		.4byte	.LVL316
 7465 07ae 3C030000 		.4byte	.LVL318
 7466 07b2 0100     		.2byte	0x1
 7467 07b4 55       		.byte	0x55
 7468 07b5 3E030000 		.4byte	.LVL319
 7469 07b9 44030000 		.4byte	.LVL320
 7470 07bd 0100     		.2byte	0x1
 7471 07bf 55       		.byte	0x55
 7472 07c0 54030000 		.4byte	.LVL322
 7473 07c4 68030000 		.4byte	.LVL323
 7474 07c8 0100     		.2byte	0x1
 7475 07ca 53       		.byte	0x53
 7476 07cb 6A030000 		.4byte	.LVL324
 7477 07cf 6C030000 		.4byte	.LVL325
 7478 07d3 0100     		.2byte	0x1
 7479 07d5 53       		.byte	0x53
 7480 07d6 6E030000 		.4byte	.LVL326
ARM GAS  C:\Users\RECEPC~1\AppData\Local\Temp\cc4fvgjK.s 			page 151


 7481 07da 74030000 		.4byte	.LVL327
 7482 07de 0100     		.2byte	0x1
 7483 07e0 53       		.byte	0x53
 7484 07e1 9C030000 		.4byte	.LVL332
 7485 07e5 B0030000 		.4byte	.LVL333
 7486 07e9 0100     		.2byte	0x1
 7487 07eb 53       		.byte	0x53
 7488 07ec B2030000 		.4byte	.LVL334
 7489 07f0 B4030000 		.4byte	.LVL335
 7490 07f4 0100     		.2byte	0x1
 7491 07f6 53       		.byte	0x53
 7492 07f7 B6030000 		.4byte	.LVL336
 7493 07fb BC030000 		.4byte	.LVL337
 7494 07ff 0100     		.2byte	0x1
 7495 0801 53       		.byte	0x53
 7496 0802 EE030000 		.4byte	.LVL343
 7497 0806 02040000 		.4byte	.LVL344
 7498 080a 0100     		.2byte	0x1
 7499 080c 53       		.byte	0x53
 7500 080d 04040000 		.4byte	.LVL345
 7501 0811 06040000 		.4byte	.LVL346
 7502 0815 0100     		.2byte	0x1
 7503 0817 53       		.byte	0x53
 7504 0818 08040000 		.4byte	.LVL347
 7505 081c 0E040000 		.4byte	.LVL348
 7506 0820 0100     		.2byte	0x1
 7507 0822 53       		.byte	0x53
 7508 0823 40040000 		.4byte	.LVL354
 7509 0827 54040000 		.4byte	.LVL355
 7510 082b 0100     		.2byte	0x1
 7511 082d 53       		.byte	0x53
 7512 082e 56040000 		.4byte	.LVL356
 7513 0832 58040000 		.4byte	.LVL357
 7514 0836 0100     		.2byte	0x1
 7515 0838 53       		.byte	0x53
 7516 0839 5A040000 		.4byte	.LVL358
 7517 083d 60040000 		.4byte	.LVL359
 7518 0841 0100     		.2byte	0x1
 7519 0843 53       		.byte	0x53
 7520 0844 96040000 		.4byte	.LVL366
 7521 0848 9A040000 		.4byte	.LVL367
 7522 084c 0200     		.2byte	0x2
 7523 084e 30       		.byte	0x30
 7524 084f 9F       		.byte	0x9f
 7525 0850 9A040000 		.4byte	.LVL367
 7526 0854 A4040000 		.4byte	.LVL369
 7527 0858 0100     		.2byte	0x1
 7528 085a 54       		.byte	0x54
 7529 085b A6040000 		.4byte	.LVL370
 7530 085f BA040000 		.4byte	.LVL373
 7531 0863 0100     		.2byte	0x1
 7532 0865 54       		.byte	0x54
 7533 0866 BC040000 		.4byte	.LVL374
 7534 086a BE040000 		.4byte	.LVL375
 7535 086e 0100     		.2byte	0x1
 7536 0870 54       		.byte	0x54
 7537 0871 C0040000 		.4byte	.LVL376
ARM GAS  C:\Users\RECEPC~1\AppData\Local\Temp\cc4fvgjK.s 			page 152


 7538 0875 44050000 		.4byte	.LVL377
 7539 0879 0100     		.2byte	0x1
 7540 087b 54       		.byte	0x54
 7541 087c 4E050000 		.4byte	.LVL379
 7542 0880 52050000 		.4byte	.LVL380
 7543 0884 0200     		.2byte	0x2
 7544 0886 30       		.byte	0x30
 7545 0887 9F       		.byte	0x9f
 7546 0888 52050000 		.4byte	.LVL380
 7547 088c 5C050000 		.4byte	.LVL382
 7548 0890 0100     		.2byte	0x1
 7549 0892 54       		.byte	0x54
 7550 0893 5E050000 		.4byte	.LVL383
 7551 0897 64050000 		.4byte	.LVL384
 7552 089b 0100     		.2byte	0x1
 7553 089d 54       		.byte	0x54
 7554 089e 88050000 		.4byte	.LVL385
 7555 08a2 9A050000 		.4byte	.LVL386
 7556 08a6 0100     		.2byte	0x1
 7557 08a8 53       		.byte	0x53
 7558 08a9 9C050000 		.4byte	.LVL387
 7559 08ad 9E050000 		.4byte	.LVL388
 7560 08b1 0100     		.2byte	0x1
 7561 08b3 53       		.byte	0x53
 7562 08b4 A0050000 		.4byte	.LVL389
 7563 08b8 A6050000 		.4byte	.LVL390
 7564 08bc 0100     		.2byte	0x1
 7565 08be 53       		.byte	0x53
 7566 08bf C4050000 		.4byte	.LVL392
 7567 08c3 D6050000 		.4byte	.LVL393
 7568 08c7 0100     		.2byte	0x1
 7569 08c9 53       		.byte	0x53
 7570 08ca D8050000 		.4byte	.LVL394
 7571 08ce DA050000 		.4byte	.LVL395
 7572 08d2 0100     		.2byte	0x1
 7573 08d4 53       		.byte	0x53
 7574 08d5 DC050000 		.4byte	.LVL396
 7575 08d9 E2050000 		.4byte	.LVL397
 7576 08dd 0100     		.2byte	0x1
 7577 08df 53       		.byte	0x53
 7578 08e0 00060000 		.4byte	.LVL399
 7579 08e4 12060000 		.4byte	.LVL400
 7580 08e8 0100     		.2byte	0x1
 7581 08ea 53       		.byte	0x53
 7582 08eb 14060000 		.4byte	.LVL401
 7583 08ef 16060000 		.4byte	.LVL402
 7584 08f3 0100     		.2byte	0x1
 7585 08f5 53       		.byte	0x53
 7586 08f6 18060000 		.4byte	.LVL403
 7587 08fa 1E060000 		.4byte	.LVL404
 7588 08fe 0100     		.2byte	0x1
 7589 0900 53       		.byte	0x53
 7590 0901 3E060000 		.4byte	.LVL406
 7591 0905 50060000 		.4byte	.LVL407
 7592 0909 0100     		.2byte	0x1
 7593 090b 53       		.byte	0x53
 7594 090c 52060000 		.4byte	.LVL408
ARM GAS  C:\Users\RECEPC~1\AppData\Local\Temp\cc4fvgjK.s 			page 153


 7595 0910 54060000 		.4byte	.LVL409
 7596 0914 0100     		.2byte	0x1
 7597 0916 53       		.byte	0x53
 7598 0917 56060000 		.4byte	.LVL410
 7599 091b 5C060000 		.4byte	.LVL411
 7600 091f 0100     		.2byte	0x1
 7601 0921 53       		.byte	0x53
 7602 0922 90060000 		.4byte	.LVL413
 7603 0926 94060000 		.4byte	.LVL414
 7604 092a 0200     		.2byte	0x2
 7605 092c 41       		.byte	0x41
 7606 092d 9F       		.byte	0x9f
 7607 092e 94060000 		.4byte	.LVL414
 7608 0932 A2060000 		.4byte	.LVL415
 7609 0936 0100     		.2byte	0x1
 7610 0938 53       		.byte	0x53
 7611 0939 A4060000 		.4byte	.LVL416
 7612 093d AA060000 		.4byte	.LVL417
 7613 0941 0100     		.2byte	0x1
 7614 0943 53       		.byte	0x53
 7615 0944 AC060000 		.4byte	.LVL418
 7616 0948 BA060000 		.4byte	.LVL419
 7617 094c 0100     		.2byte	0x1
 7618 094e 53       		.byte	0x53
 7619 094f BC060000 		.4byte	.LVL420
 7620 0953 C2060000 		.4byte	.LVL421
 7621 0957 0100     		.2byte	0x1
 7622 0959 53       		.byte	0x53
 7623 095a C4060000 		.4byte	.LVL422
 7624 095e D2060000 		.4byte	.LVL423
 7625 0962 0100     		.2byte	0x1
 7626 0964 53       		.byte	0x53
 7627 0965 D4060000 		.4byte	.LVL424
 7628 0969 DA060000 		.4byte	.LVL425
 7629 096d 0100     		.2byte	0x1
 7630 096f 53       		.byte	0x53
 7631 0970 DC060000 		.4byte	.LVL426
 7632 0974 EA060000 		.4byte	.LVL427
 7633 0978 0100     		.2byte	0x1
 7634 097a 53       		.byte	0x53
 7635 097b EC060000 		.4byte	.LVL428
 7636 097f F2060000 		.4byte	.LVL429
 7637 0983 0100     		.2byte	0x1
 7638 0985 53       		.byte	0x53
 7639 0986 00070000 		.4byte	.LVL431
 7640 098a 04070000 		.4byte	.LVL433
 7641 098e 0200     		.2byte	0x2
 7642 0990 30       		.byte	0x30
 7643 0991 9F       		.byte	0x9f
 7644 0992 04070000 		.4byte	.LVL433
 7645 0996 14070000 		.4byte	.LVL435
 7646 099a 0100     		.2byte	0x1
 7647 099c 54       		.byte	0x54
 7648 099d 16070000 		.4byte	.LVL436
 7649 09a1 1C070000 		.4byte	.LVL437
 7650 09a5 0100     		.2byte	0x1
 7651 09a7 54       		.byte	0x54
ARM GAS  C:\Users\RECEPC~1\AppData\Local\Temp\cc4fvgjK.s 			page 154


 7652 09a8 1E070000 		.4byte	.LVL438
 7653 09ac 32070000 		.4byte	.LVL440
 7654 09b0 0100     		.2byte	0x1
 7655 09b2 54       		.byte	0x54
 7656 09b3 34070000 		.4byte	.LVL441
 7657 09b7 3A070000 		.4byte	.LVL442
 7658 09bb 0100     		.2byte	0x1
 7659 09bd 54       		.byte	0x54
 7660 09be 3C070000 		.4byte	.LVL443
 7661 09c2 50070000 		.4byte	.LVL445
 7662 09c6 0100     		.2byte	0x1
 7663 09c8 54       		.byte	0x54
 7664 09c9 52070000 		.4byte	.LVL446
 7665 09cd 58070000 		.4byte	.LVL447
 7666 09d1 0100     		.2byte	0x1
 7667 09d3 54       		.byte	0x54
 7668 09d4 5A070000 		.4byte	.LVL448
 7669 09d8 6E070000 		.4byte	.LVL450
 7670 09dc 0100     		.2byte	0x1
 7671 09de 54       		.byte	0x54
 7672 09df 70070000 		.4byte	.LVL451
 7673 09e3 7C070000 		.4byte	.LVL453
 7674 09e7 0100     		.2byte	0x1
 7675 09e9 54       		.byte	0x54
 7676 09ea C6070000 		.4byte	.LVL461
 7677 09ee CA070000 		.4byte	.LVL462
 7678 09f2 0200     		.2byte	0x2
 7679 09f4 30       		.byte	0x30
 7680 09f5 9F       		.byte	0x9f
 7681 09f6 CA070000 		.4byte	.LVL462
 7682 09fa D4070000 		.4byte	.LVL464
 7683 09fe 0100     		.2byte	0x1
 7684 0a00 54       		.byte	0x54
 7685 0a01 D6070000 		.4byte	.LVL465
 7686 0a05 DE070000 		.4byte	.LVL466
 7687 0a09 0100     		.2byte	0x1
 7688 0a0b 54       		.byte	0x54
 7689 0a0c DE070000 		.4byte	.LVL466
 7690 0a10 EC070000 		.4byte	.LVL467
 7691 0a14 0100     		.2byte	0x1
 7692 0a16 53       		.byte	0x53
 7693 0a17 EE070000 		.4byte	.LVL468
 7694 0a1b F4070000 		.4byte	.LVL469
 7695 0a1f 0100     		.2byte	0x1
 7696 0a21 53       		.byte	0x53
 7697 0a22 00000000 		.4byte	0
 7698 0a26 00000000 		.4byte	0
 7699              	.LLST13:
 7700 0a2a 34000000 		.4byte	.LVL234
 7701 0a2e 3A000000 		.4byte	.LVL235
 7702 0a32 0200     		.2byte	0x2
 7703 0a34 30       		.byte	0x30
 7704 0a35 9F       		.byte	0x9f
 7705 0a36 3A000000 		.4byte	.LVL235
 7706 0a3a 3E000000 		.4byte	.LVL236
 7707 0a3e 0200     		.2byte	0x2
 7708 0a40 31       		.byte	0x31
ARM GAS  C:\Users\RECEPC~1\AppData\Local\Temp\cc4fvgjK.s 			page 155


 7709 0a41 9F       		.byte	0x9f
 7710 0a42 3E000000 		.4byte	.LVL236
 7711 0a46 42000000 		.4byte	.LVL237
 7712 0a4a 0200     		.2byte	0x2
 7713 0a4c 32       		.byte	0x32
 7714 0a4d 9F       		.byte	0x9f
 7715 0a4e 42000000 		.4byte	.LVL237
 7716 0a52 48000000 		.4byte	.LVL238
 7717 0a56 0200     		.2byte	0x2
 7718 0a58 33       		.byte	0x33
 7719 0a59 9F       		.byte	0x9f
 7720 0a5a 48000000 		.4byte	.LVL238
 7721 0a5e 4C000000 		.4byte	.LVL239
 7722 0a62 0200     		.2byte	0x2
 7723 0a64 34       		.byte	0x34
 7724 0a65 9F       		.byte	0x9f
 7725 0a66 4C000000 		.4byte	.LVL239
 7726 0a6a 38010000 		.4byte	.LVL241
 7727 0a6e 0200     		.2byte	0x2
 7728 0a70 35       		.byte	0x35
 7729 0a71 9F       		.byte	0x9f
 7730 0a72 38010000 		.4byte	.LVL241
 7731 0a76 3C010000 		.4byte	.LVL242
 7732 0a7a 0200     		.2byte	0x2
 7733 0a7c 36       		.byte	0x36
 7734 0a7d 9F       		.byte	0x9f
 7735 0a7e 3C010000 		.4byte	.LVL242
 7736 0a82 44010000 		.4byte	.LVL243
 7737 0a86 0200     		.2byte	0x2
 7738 0a88 37       		.byte	0x37
 7739 0a89 9F       		.byte	0x9f
 7740 0a8a 44010000 		.4byte	.LVL243
 7741 0a8e 4E010000 		.4byte	.LVL245
 7742 0a92 0200     		.2byte	0x2
 7743 0a94 38       		.byte	0x38
 7744 0a95 9F       		.byte	0x9f
 7745 0a96 4E010000 		.4byte	.LVL245
 7746 0a9a 66010000 		.4byte	.LVL251
 7747 0a9e 0200     		.2byte	0x2
 7748 0aa0 39       		.byte	0x39
 7749 0aa1 9F       		.byte	0x9f
 7750 0aa2 66010000 		.4byte	.LVL251
 7751 0aa6 8A010000 		.4byte	.LVL259
 7752 0aaa 0200     		.2byte	0x2
 7753 0aac 35       		.byte	0x35
 7754 0aad 9F       		.byte	0x9f
 7755 0aae 8A010000 		.4byte	.LVL259
 7756 0ab2 A8010000 		.4byte	.LVL260
 7757 0ab6 0100     		.2byte	0x1
 7758 0ab8 54       		.byte	0x54
 7759 0ab9 A8010000 		.4byte	.LVL260
 7760 0abd AE010000 		.4byte	.LVL261
 7761 0ac1 0100     		.2byte	0x1
 7762 0ac3 53       		.byte	0x53
 7763 0ac4 AE010000 		.4byte	.LVL261
 7764 0ac8 B0010000 		.4byte	.LVL262
 7765 0acc 0300     		.2byte	0x3
ARM GAS  C:\Users\RECEPC~1\AppData\Local\Temp\cc4fvgjK.s 			page 156


 7766 0ace 73       		.byte	0x73
 7767 0acf 7F       		.sleb128 -1
 7768 0ad0 9F       		.byte	0x9f
 7769 0ad1 B0010000 		.4byte	.LVL262
 7770 0ad5 BC010000 		.4byte	.LVL263
 7771 0ad9 0100     		.2byte	0x1
 7772 0adb 53       		.byte	0x53
 7773 0adc BC010000 		.4byte	.LVL263
 7774 0ae0 CA010000 		.4byte	.LVL265
 7775 0ae4 0100     		.2byte	0x1
 7776 0ae6 54       		.byte	0x54
 7777 0ae7 CA010000 		.4byte	.LVL265
 7778 0aeb CC010000 		.4byte	.LVL266
 7779 0aef 0300     		.2byte	0x3
 7780 0af1 74       		.byte	0x74
 7781 0af2 7F       		.sleb128 -1
 7782 0af3 9F       		.byte	0x9f
 7783 0af4 CC010000 		.4byte	.LVL266
 7784 0af8 FC010000 		.4byte	.LVL273
 7785 0afc 0100     		.2byte	0x1
 7786 0afe 54       		.byte	0x54
 7787 0aff FC010000 		.4byte	.LVL273
 7788 0b03 02020000 		.4byte	.LVL274
 7789 0b07 0100     		.2byte	0x1
 7790 0b09 53       		.byte	0x53
 7791 0b0a 02020000 		.4byte	.LVL274
 7792 0b0e 04020000 		.4byte	.LVL275
 7793 0b12 0300     		.2byte	0x3
 7794 0b14 73       		.byte	0x73
 7795 0b15 7F       		.sleb128 -1
 7796 0b16 9F       		.byte	0x9f
 7797 0b17 04020000 		.4byte	.LVL275
 7798 0b1b 10020000 		.4byte	.LVL276
 7799 0b1f 0100     		.2byte	0x1
 7800 0b21 53       		.byte	0x53
 7801 0b22 10020000 		.4byte	.LVL276
 7802 0b26 1E020000 		.4byte	.LVL278
 7803 0b2a 0100     		.2byte	0x1
 7804 0b2c 54       		.byte	0x54
 7805 0b2d 1E020000 		.4byte	.LVL278
 7806 0b31 20020000 		.4byte	.LVL279
 7807 0b35 0300     		.2byte	0x3
 7808 0b37 74       		.byte	0x74
 7809 0b38 7F       		.sleb128 -1
 7810 0b39 9F       		.byte	0x9f
 7811 0b3a 20020000 		.4byte	.LVL279
 7812 0b3e 4C020000 		.4byte	.LVL285
 7813 0b42 0100     		.2byte	0x1
 7814 0b44 54       		.byte	0x54
 7815 0b45 4C020000 		.4byte	.LVL285
 7816 0b49 52020000 		.4byte	.LVL286
 7817 0b4d 0100     		.2byte	0x1
 7818 0b4f 53       		.byte	0x53
 7819 0b50 52020000 		.4byte	.LVL286
 7820 0b54 54020000 		.4byte	.LVL287
 7821 0b58 0300     		.2byte	0x3
 7822 0b5a 73       		.byte	0x73
ARM GAS  C:\Users\RECEPC~1\AppData\Local\Temp\cc4fvgjK.s 			page 157


 7823 0b5b 7F       		.sleb128 -1
 7824 0b5c 9F       		.byte	0x9f
 7825 0b5d 54020000 		.4byte	.LVL287
 7826 0b61 60020000 		.4byte	.LVL288
 7827 0b65 0100     		.2byte	0x1
 7828 0b67 53       		.byte	0x53
 7829 0b68 60020000 		.4byte	.LVL288
 7830 0b6c 6E020000 		.4byte	.LVL290
 7831 0b70 0100     		.2byte	0x1
 7832 0b72 54       		.byte	0x54
 7833 0b73 6E020000 		.4byte	.LVL290
 7834 0b77 70020000 		.4byte	.LVL291
 7835 0b7b 0300     		.2byte	0x3
 7836 0b7d 74       		.byte	0x74
 7837 0b7e 7F       		.sleb128 -1
 7838 0b7f 9F       		.byte	0x9f
 7839 0b80 70020000 		.4byte	.LVL291
 7840 0b84 A8020000 		.4byte	.LVL296
 7841 0b88 0100     		.2byte	0x1
 7842 0b8a 54       		.byte	0x54
 7843 0b8b A8020000 		.4byte	.LVL296
 7844 0b8f BE020000 		.4byte	.LVL298
 7845 0b93 0200     		.2byte	0x2
 7846 0b95 35       		.byte	0x35
 7847 0b96 9F       		.byte	0x9f
 7848 0b97 BE020000 		.4byte	.LVL298
 7849 0b9b C2020000 		.4byte	.LVL299
 7850 0b9f 0200     		.2byte	0x2
 7851 0ba1 36       		.byte	0x36
 7852 0ba2 9F       		.byte	0x9f
 7853 0ba3 C2020000 		.4byte	.LVL299
 7854 0ba7 CA020000 		.4byte	.LVL300
 7855 0bab 0200     		.2byte	0x2
 7856 0bad 37       		.byte	0x37
 7857 0bae 9F       		.byte	0x9f
 7858 0baf CA020000 		.4byte	.LVL300
 7859 0bb3 D4020000 		.4byte	.LVL302
 7860 0bb7 0200     		.2byte	0x2
 7861 0bb9 38       		.byte	0x38
 7862 0bba 9F       		.byte	0x9f
 7863 0bbb D4020000 		.4byte	.LVL302
 7864 0bbf EC020000 		.4byte	.LVL307
 7865 0bc3 0200     		.2byte	0x2
 7866 0bc5 39       		.byte	0x39
 7867 0bc6 9F       		.byte	0x9f
 7868 0bc7 EC020000 		.4byte	.LVL307
 7869 0bcb EE020000 		.4byte	.LVL308
 7870 0bcf 0200     		.2byte	0x2
 7871 0bd1 35       		.byte	0x35
 7872 0bd2 9F       		.byte	0x9f
 7873 0bd3 EE020000 		.4byte	.LVL308
 7874 0bd7 10030000 		.4byte	.LVL310
 7875 0bdb 0100     		.2byte	0x1
 7876 0bdd 53       		.byte	0x53
 7877 0bde 10030000 		.4byte	.LVL310
 7878 0be2 12030000 		.4byte	.LVL311
 7879 0be6 0300     		.2byte	0x3
ARM GAS  C:\Users\RECEPC~1\AppData\Local\Temp\cc4fvgjK.s 			page 158


 7880 0be8 73       		.byte	0x73
 7881 0be9 7F       		.sleb128 -1
 7882 0bea 9F       		.byte	0x9f
 7883 0beb 12030000 		.4byte	.LVL311
 7884 0bef 1E030000 		.4byte	.LVL312
 7885 0bf3 0100     		.2byte	0x1
 7886 0bf5 53       		.byte	0x53
 7887 0bf6 1E030000 		.4byte	.LVL312
 7888 0bfa 2C030000 		.4byte	.LVL314
 7889 0bfe 0100     		.2byte	0x1
 7890 0c00 54       		.byte	0x54
 7891 0c01 2C030000 		.4byte	.LVL314
 7892 0c05 2E030000 		.4byte	.LVL315
 7893 0c09 0300     		.2byte	0x3
 7894 0c0b 74       		.byte	0x74
 7895 0c0c 7F       		.sleb128 -1
 7896 0c0d 9F       		.byte	0x9f
 7897 0c0e 2E030000 		.4byte	.LVL315
 7898 0c12 44030000 		.4byte	.LVL320
 7899 0c16 0100     		.2byte	0x1
 7900 0c18 54       		.byte	0x54
 7901 0c19 44030000 		.4byte	.LVL320
 7902 0c1d 86030000 		.4byte	.LVL328
 7903 0c21 0200     		.2byte	0x2
 7904 0c23 35       		.byte	0x35
 7905 0c24 9F       		.byte	0x9f
 7906 0c25 86030000 		.4byte	.LVL328
 7907 0c29 8A030000 		.4byte	.LVL329
 7908 0c2d 0200     		.2byte	0x2
 7909 0c2f 36       		.byte	0x36
 7910 0c30 9F       		.byte	0x9f
 7911 0c31 8A030000 		.4byte	.LVL329
 7912 0c35 8E030000 		.4byte	.LVL330
 7913 0c39 0200     		.2byte	0x2
 7914 0c3b 37       		.byte	0x37
 7915 0c3c 9F       		.byte	0x9f
 7916 0c3d 8E030000 		.4byte	.LVL330
 7917 0c41 90030000 		.4byte	.LVL331
 7918 0c45 0200     		.2byte	0x2
 7919 0c47 38       		.byte	0x38
 7920 0c48 9F       		.byte	0x9f
 7921 0c49 90030000 		.4byte	.LVL331
 7922 0c4d D2030000 		.4byte	.LVL338
 7923 0c51 0100     		.2byte	0x1
 7924 0c53 54       		.byte	0x54
 7925 0c54 D2030000 		.4byte	.LVL338
 7926 0c58 D8030000 		.4byte	.LVL339
 7927 0c5c 0100     		.2byte	0x1
 7928 0c5e 53       		.byte	0x53
 7929 0c5f D8030000 		.4byte	.LVL339
 7930 0c63 DA030000 		.4byte	.LVL340
 7931 0c67 0300     		.2byte	0x3
 7932 0c69 73       		.byte	0x73
 7933 0c6a 7F       		.sleb128 -1
 7934 0c6b 9F       		.byte	0x9f
 7935 0c6c DA030000 		.4byte	.LVL340
 7936 0c70 E0030000 		.4byte	.LVL341
ARM GAS  C:\Users\RECEPC~1\AppData\Local\Temp\cc4fvgjK.s 			page 159


 7937 0c74 0100     		.2byte	0x1
 7938 0c76 53       		.byte	0x53
 7939 0c77 E0030000 		.4byte	.LVL341
 7940 0c7b E2030000 		.4byte	.LVL342
 7941 0c7f 0300     		.2byte	0x3
 7942 0c81 73       		.byte	0x73
 7943 0c82 7F       		.sleb128 -1
 7944 0c83 9F       		.byte	0x9f
 7945 0c84 E2030000 		.4byte	.LVL342
 7946 0c88 24040000 		.4byte	.LVL349
 7947 0c8c 0100     		.2byte	0x1
 7948 0c8e 54       		.byte	0x54
 7949 0c8f 24040000 		.4byte	.LVL349
 7950 0c93 2A040000 		.4byte	.LVL350
 7951 0c97 0100     		.2byte	0x1
 7952 0c99 53       		.byte	0x53
 7953 0c9a 2A040000 		.4byte	.LVL350
 7954 0c9e 2C040000 		.4byte	.LVL351
 7955 0ca2 0300     		.2byte	0x3
 7956 0ca4 73       		.byte	0x73
 7957 0ca5 7F       		.sleb128 -1
 7958 0ca6 9F       		.byte	0x9f
 7959 0ca7 2C040000 		.4byte	.LVL351
 7960 0cab 32040000 		.4byte	.LVL352
 7961 0caf 0100     		.2byte	0x1
 7962 0cb1 53       		.byte	0x53
 7963 0cb2 32040000 		.4byte	.LVL352
 7964 0cb6 34040000 		.4byte	.LVL353
 7965 0cba 0300     		.2byte	0x3
 7966 0cbc 73       		.byte	0x73
 7967 0cbd 7F       		.sleb128 -1
 7968 0cbe 9F       		.byte	0x9f
 7969 0cbf 34040000 		.4byte	.LVL353
 7970 0cc3 76040000 		.4byte	.LVL360
 7971 0cc7 0100     		.2byte	0x1
 7972 0cc9 54       		.byte	0x54
 7973 0cca 76040000 		.4byte	.LVL360
 7974 0cce 7C040000 		.4byte	.LVL361
 7975 0cd2 0100     		.2byte	0x1
 7976 0cd4 53       		.byte	0x53
 7977 0cd5 7C040000 		.4byte	.LVL361
 7978 0cd9 7E040000 		.4byte	.LVL362
 7979 0cdd 0300     		.2byte	0x3
 7980 0cdf 73       		.byte	0x73
 7981 0ce0 7F       		.sleb128 -1
 7982 0ce1 9F       		.byte	0x9f
 7983 0ce2 7E040000 		.4byte	.LVL362
 7984 0ce6 84040000 		.4byte	.LVL363
 7985 0cea 0100     		.2byte	0x1
 7986 0cec 53       		.byte	0x53
 7987 0ced 84040000 		.4byte	.LVL363
 7988 0cf1 86040000 		.4byte	.LVL364
 7989 0cf5 0300     		.2byte	0x3
 7990 0cf7 73       		.byte	0x73
 7991 0cf8 7F       		.sleb128 -1
 7992 0cf9 9F       		.byte	0x9f
 7993 0cfa 86040000 		.4byte	.LVL364
ARM GAS  C:\Users\RECEPC~1\AppData\Local\Temp\cc4fvgjK.s 			page 160


 7994 0cfe 96040000 		.4byte	.LVL366
 7995 0d02 0100     		.2byte	0x1
 7996 0d04 54       		.byte	0x54
 7997 0d05 96040000 		.4byte	.LVL366
 7998 0d09 AC040000 		.4byte	.LVL371
 7999 0d0d 0100     		.2byte	0x1
 8000 0d0f 55       		.byte	0x55
 8001 0d10 AC040000 		.4byte	.LVL371
 8002 0d14 9E080000 		.4byte	.LVL474
 8003 0d18 0200     		.2byte	0x2
 8004 0d1a 35       		.byte	0x35
 8005 0d1b 9F       		.byte	0x9f
 8006 0d1c 00000000 		.4byte	0
 8007 0d20 00000000 		.4byte	0
 8008              		.section	.debug_aranges,"",%progbits
 8009 0000 34000000 		.4byte	0x34
 8010 0004 0200     		.2byte	0x2
 8011 0006 00000000 		.4byte	.Ldebug_info0
 8012 000a 04       		.byte	0x4
 8013 000b 00       		.byte	0
 8014 000c 0000     		.2byte	0
 8015 000e 0000     		.2byte	0
 8016 0010 00000000 		.4byte	.LFB63
 8017 0014 34000000 		.4byte	.LFE63-.LFB63
 8018 0018 00000000 		.4byte	.LFB65
 8019 001c 44050000 		.4byte	.LFE65-.LFB65
 8020 0020 00000000 		.4byte	.LFB66
 8021 0024 8C040000 		.4byte	.LFE66-.LFB66
 8022 0028 00000000 		.4byte	.LFB64
 8023 002c B4080000 		.4byte	.LFE64-.LFB64
 8024 0030 00000000 		.4byte	0
 8025 0034 00000000 		.4byte	0
 8026              		.section	.debug_ranges,"",%progbits
 8027              	.Ldebug_ranges0:
 8028 0000 00000000 		.4byte	.LFB63
 8029 0004 34000000 		.4byte	.LFE63
 8030 0008 00000000 		.4byte	.LFB65
 8031 000c 44050000 		.4byte	.LFE65
 8032 0010 00000000 		.4byte	.LFB66
 8033 0014 8C040000 		.4byte	.LFE66
 8034 0018 00000000 		.4byte	.LFB64
 8035 001c B4080000 		.4byte	.LFE64
 8036 0020 00000000 		.4byte	0
 8037 0024 00000000 		.4byte	0
 8038              		.section	.debug_line,"",%progbits
 8039              	.Ldebug_line0:
 8040 0000 7E080000 		.section	.debug_str,"MS",%progbits,1
 8040      0200BB01 
 8040      00000201 
 8040      FB0E0D00 
 8040      01010101 
 8041              	.LASF255:
 8042 0000 52465F43 		.ascii	"RF_Connection_ReadRxData\000"
 8042      6F6E6E65 
 8042      6374696F 
 8042      6E5F5265 
 8042      61645278 
ARM GAS  C:\Users\RECEPC~1\AppData\Local\Temp\cc4fvgjK.s 			page 161


 8043              	.LASF253:
 8044 0019 43794465 		.ascii	"CyDelay\000"
 8044      6C617900 
 8045              	.LASF120:
 8046 0021 44495350 		.ascii	"DISPLAY_HORA\000"
 8046      4C41595F 
 8046      484F5241 
 8046      00
 8047              	.LASF96:
 8048 002e 44495350 		.ascii	"DISPLAY_INGRESE_PASSWORD\000"
 8048      4C41595F 
 8048      494E4752 
 8048      4553455F 
 8048      50415353 
 8049              	.LASF129:
 8050 0047 44495350 		.ascii	"DISPLAY_IMPRESORA_NO_FUNCIONANDO\000"
 8050      4C41595F 
 8050      494D5052 
 8050      45534F52 
 8050      415F4E4F 
 8051              	.LASF118:
 8052 0068 44495350 		.ascii	"DISPLAY_AUTORIZACION_RECHAZADA\000"
 8052      4C41595F 
 8052      4155544F 
 8052      52495A41 
 8052      43494F4E 
 8053              	.LASF224:
 8054 0087 636F756E 		.ascii	"count_protector2\000"
 8054      745F7072 
 8054      6F746563 
 8054      746F7232 
 8054      00
 8055              	.LASF199:
 8056 0098 636F756E 		.ascii	"counterRF\000"
 8056      74657252 
 8056      4600
 8057              	.LASF195:
 8058 00a2 50726576 		.ascii	"PrevStatePump\000"
 8058      53746174 
 8058      6550756D 
 8058      7000
 8059              	.LASF245:
 8060 00b0 47726164 		.ascii	"GradesHose\000"
 8060      6573486F 
 8060      736500
 8061              	.LASF132:
 8062 00bb 44495350 		.ascii	"DISPLAY_DUMMY0\000"
 8062      4C41595F 
 8062      44554D4D 
 8062      593000
 8063              	.LASF78:
 8064 00ca 52467374 		.ascii	"RFstateReport\000"
 8064      61746552 
 8064      65706F72 
 8064      7400
 8065              	.LASF54:
 8066 00d8 766F6C75 		.ascii	"volumeQuota\000"
ARM GAS  C:\Users\RECEPC~1\AppData\Local\Temp\cc4fvgjK.s 			page 162


 8066      6D655175 
 8066      6F746100 
 8067              	.LASF131:
 8068 00e4 44495350 		.ascii	"DISPLAY_PRECIO_POR_UNIDAD\000"
 8068      4C41595F 
 8068      50524543 
 8068      494F5F50 
 8068      4F525F55 
 8069              	.LASF163:
 8070 00fe 706F6C6C 		.ascii	"pollingRFA_Tx\000"
 8070      696E6752 
 8070      46415F54 
 8070      7800
 8071              	.LASF214:
 8072 010c 73746174 		.ascii	"statePump\000"
 8072      6550756D 
 8072      7000
 8073              	.LASF63:
 8074 0116 62756666 		.ascii	"buffer\000"
 8074      657200
 8075              	.LASF231:
 8076 011d 62756666 		.ascii	"buffer_rf\000"
 8076      65725F72 
 8076      6600
 8077              	.LASF218:
 8078 0127 68696464 		.ascii	"hiddenKeys\000"
 8078      656E4B65 
 8078      797300
 8079              	.LASF33:
 8080 0132 73616C65 		.ascii	"salePerform\000"
 8080      50657266 
 8080      6F726D00 
 8081              	.LASF8:
 8082 013e 756E7369 		.ascii	"unsigned int\000"
 8082      676E6564 
 8082      20696E74 
 8082      00
 8083              	.LASF219:
 8084 014b 5072696E 		.ascii	"PrinterType\000"
 8084      74657254 
 8084      79706500 
 8085              	.LASF9:
 8086 0157 5F5F696E 		.ascii	"__int32_t\000"
 8086      7433325F 
 8086      7400
 8087              	.LASF51:
 8088 0161 666C6167 		.ascii	"flagLiftHandle\000"
 8088      4C696674 
 8088      48616E64 
 8088      6C6500
 8089              	.LASF98:
 8090 0170 44495350 		.ascii	"DISPLAY_PASSWORD_INVALIDO\000"
 8090      4C41595F 
 8090      50415353 
 8090      574F5244 
 8090      5F494E56 
 8091              	.LASF189:
ARM GAS  C:\Users\RECEPC~1\AppData\Local\Temp\cc4fvgjK.s 			page 163


 8092 018a 72657369 		.ascii	"residue\000"
 8092      64756500 
 8093              	.LASF201:
 8094 0192 74656D70 		.ascii	"tempPreset\000"
 8094      50726573 
 8094      657400
 8095              	.LASF21:
 8096 019d 69645479 		.ascii	"idType\000"
 8096      706500
 8097              	.LASF136:
 8098 01a4 44495350 		.ascii	"DISPLAY_SIDE_DUMMY_DISPLAY\000"
 8098      4C41595F 
 8098      53494445 
 8098      5F44554D 
 8098      4D595F44 
 8099              	.LASF213:
 8100 01bf 44444D6F 		.ascii	"DDMode\000"
 8100      646500
 8101              	.LASF250:
 8102 01c6 73696465 		.ascii	"side\000"
 8102      00
 8103              	.LASF88:
 8104 01cb 44495350 		.ascii	"DISPLAY_INTRODUZCA_VALOR2\000"
 8104      4C41595F 
 8104      494E5452 
 8104      4F44555A 
 8104      43415F56 
 8105              	.LASF227:
 8106 01e5 69645374 		.ascii	"idStation\000"
 8106      6174696F 
 8106      6E00
 8107              	.LASF25:
 8108 01ef 73656C65 		.ascii	"selectedSale\000"
 8108      63746564 
 8108      53616C65 
 8108      00
 8109              	.LASF180:
 8110 01fc 666C6167 		.ascii	"flagPoint2\000"
 8110      506F696E 
 8110      743200
 8111              	.LASF170:
 8112 0207 636F756E 		.ascii	"countTX\000"
 8112      74545800 
 8113              	.LASF76:
 8114 020f 6368616E 		.ascii	"changePPU\000"
 8114      67655050 
 8114      5500
 8115              	.LASF188:
 8116 0219 73637265 		.ascii	"screen\000"
 8116      656E00
 8117              	.LASF226:
 8118 0220 636F6E74 		.ascii	"controlChar\000"
 8118      726F6C43 
 8118      68617200 
 8119              	.LASF257:
 8120 022c 77726974 		.ascii	"write_psoc1\000"
 8120      655F7073 
ARM GAS  C:\Users\RECEPC~1\AppData\Local\Temp\cc4fvgjK.s 			page 164


 8120      6F633100 
 8121              	.LASF95:
 8122 0238 44495350 		.ascii	"DISPLAY_DESEA_IMPRIMIR_RECIBO\000"
 8122      4C41595F 
 8122      44455345 
 8122      415F494D 
 8122      5052494D 
 8123              	.LASF196:
 8124 0256 506C6174 		.ascii	"PlateRequest\000"
 8124      65526571 
 8124      75657374 
 8124      00
 8125              	.LASF117:
 8126 0263 44495350 		.ascii	"DISPLAY_AUTORIZACION_ACEPTADA\000"
 8126      4C41595F 
 8126      4155544F 
 8126      52495A41 
 8126      43494F4E 
 8127              	.LASF232:
 8128 0281 62756666 		.ascii	"buffer_tx\000"
 8128      65725F74 
 8128      7800
 8129              	.LASF141:
 8130 028b 50554D50 		.ascii	"PUMP_IDLE\000"
 8130      5F49444C 
 8130      4500
 8131              	.LASF14:
 8132 0295 666C6F61 		.ascii	"float\000"
 8132      7400
 8133              	.LASF128:
 8134 029b 44495350 		.ascii	"DISPLAY_AMBAS_IMPRESORAS_FUNCIONANDO\000"
 8134      4C41595F 
 8134      414D4241 
 8134      535F494D 
 8134      50524553 
 8135              	.LASF160:
 8136 02c0 63686563 		.ascii	"checksum\000"
 8136      6B73756D 
 8136      00
 8137              	.LASF203:
 8138 02c9 43477261 		.ascii	"CGrade\000"
 8138      646500
 8139              	.LASF161:
 8140 02d0 696E6465 		.ascii	"index\000"
 8140      7800
 8141              	.LASF260:
 8142 02d6 77726974 		.ascii	"write_fecha\000"
 8142      655F6665 
 8142      63686100 
 8143              	.LASF104:
 8144 02e2 44495350 		.ascii	"DISPLAY_ESPERANDO_ID\000"
 8144      4C41595F 
 8144      45535045 
 8144      52414E44 
 8144      4F5F4944 
 8145              	.LASF204:
 8146 02f7 53686966 		.ascii	"ShiftState\000"
ARM GAS  C:\Users\RECEPC~1\AppData\Local\Temp\cc4fvgjK.s 			page 165


 8146      74537461 
 8146      746500
 8147              	.LASF210:
 8148 0302 4D6F6E65 		.ascii	"MoneyDec\000"
 8148      79446563 
 8148      00
 8149              	.LASF246:
 8150 030b 62756666 		.ascii	"bufferDisplay1\000"
 8150      65724469 
 8150      73706C61 
 8150      793100
 8151              	.LASF72:
 8152 031a 686F7365 		.ascii	"hose\000"
 8152      00
 8153              	.LASF258:
 8154 031f 696D7072 		.ascii	"imprimir\000"
 8154      696D6972 
 8154      00
 8155              	.LASF248:
 8156 0328 62756666 		.ascii	"bufferDisplay3\000"
 8156      65724469 
 8156      73706C61 
 8156      793300
 8157              	.LASF140:
 8158 0337 50554D50 		.ascii	"PUMP_FAIL\000"
 8158      5F464149 
 8158      4C00
 8159              	.LASF7:
 8160 0341 6C6F6E67 		.ascii	"long long unsigned int\000"
 8160      206C6F6E 
 8160      6720756E 
 8160      7369676E 
 8160      65642069 
 8161              	.LASF153:
 8162 0358 52465F57 		.ascii	"RF_WORKSHIFTREQ\000"
 8162      4F524B53 
 8162      48494654 
 8162      52455100 
 8163              	.LASF146:
 8164 0368 50554D50 		.ascii	"PUMP_FEOT\000"
 8164      5F46454F 
 8164      5400
 8165              	.LASF107:
 8166 0372 44495350 		.ascii	"DISPLAY_INTRODUZCA_VOLUMEN\000"
 8166      4C41595F 
 8166      494E5452 
 8166      4F44555A 
 8166      43415F56 
 8167              	.LASF41:
 8168 038d 746F7461 		.ascii	"totalVolumePrevious\000"
 8168      6C566F6C 
 8168      756D6550 
 8168      72657669 
 8168      6F757300 
 8169              	.LASF110:
 8170 03a1 44495350 		.ascii	"DISPLAY_CONFIGURACIONES\000"
 8170      4C41595F 
ARM GAS  C:\Users\RECEPC~1\AppData\Local\Temp\cc4fvgjK.s 			page 166


 8170      434F4E46 
 8170      49475552 
 8170      4143494F 
 8171              	.LASF225:
 8172 03b9 636F6E66 		.ascii	"configAccess\000"
 8172      69674163 
 8172      63657373 
 8172      00
 8173              	.LASF115:
 8174 03c6 44495350 		.ascii	"DISPLAY_ESPERANDO_AUTORIZACION\000"
 8174      4C41595F 
 8174      45535045 
 8174      52414E44 
 8174      4F5F4155 
 8175              	.LASF217:
 8176 03e5 64696769 		.ascii	"digits\000"
 8176      747300
 8177              	.LASF139:
 8178 03ec 5F50554D 		.ascii	"_PUMP_STATES_\000"
 8178      505F5354 
 8178      41544553 
 8178      5F00
 8179              	.LASF186:
 8180 03fa 74696D65 		.ascii	"time\000"
 8180      00
 8181              	.LASF254:
 8182 03ff 52465F43 		.ascii	"RF_Connection_GetRxBufferSize\000"
 8182      6F6E6E65 
 8182      6374696F 
 8182      6E5F4765 
 8182      74527842 
 8183              	.LASF229:
 8184 041d 7072696E 		.ascii	"printPortA\000"
 8184      74506F72 
 8184      744100
 8185              	.LASF230:
 8186 0428 7072696E 		.ascii	"printPortB\000"
 8186      74506F72 
 8186      744200
 8187              	.LASF36:
 8188 0433 70726F64 		.ascii	"productType\000"
 8188      75637454 
 8188      79706500 
 8189              	.LASF235:
 8190 043f 62756666 		.ascii	"buffer_print\000"
 8190      65725F70 
 8190      72696E74 
 8190      00
 8191              	.LASF181:
 8192 044c 70726F64 		.ascii	"productNumber\000"
 8192      7563744E 
 8192      756D6265 
 8192      7200
 8193              	.LASF190:
 8194 045a 69645365 		.ascii	"idSeller\000"
 8194      6C6C6572 
 8194      00
ARM GAS  C:\Users\RECEPC~1\AppData\Local\Temp\cc4fvgjK.s 			page 167


 8195              	.LASF22:
 8196 0463 69645365 		.ascii	"idSerial\000"
 8196      7269616C 
 8196      00
 8197              	.LASF216:
 8198 046c 6C6F636B 		.ascii	"lockTurn\000"
 8198      5475726E 
 8198      00
 8199              	.LASF172:
 8200 0475 636F756E 		.ascii	"countLCD\000"
 8200      744C4344 
 8200      00
 8201              	.LASF234:
 8202 047e 62756666 		.ascii	"buffer_A\000"
 8202      65725F41 
 8202      00
 8203              	.LASF148:
 8204 0487 5F52465F 		.ascii	"_RF_STATES_\000"
 8204      53544154 
 8204      45535F00 
 8205              	.LASF47:
 8206 0493 6D696C65 		.ascii	"mileageSale\000"
 8206      61676553 
 8206      616C6500 
 8207              	.LASF58:
 8208 049f 666C6167 		.ascii	"flagChangePPU\000"
 8208      4368616E 
 8208      67655050 
 8208      5500
 8209              	.LASF84:
 8210 04ad 44495350 		.ascii	"DISPLAY_INICIO2\000"
 8210      4C41595F 
 8210      494E4943 
 8210      494F3200 
 8211              	.LASF60:
 8212 04bd 666C6167 		.ascii	"flagActiveSale\000"
 8212      41637469 
 8212      76655361 
 8212      6C6500
 8213              	.LASF173:
 8214 04cc 666C6F77 		.ascii	"flowDisplay1\000"
 8214      44697370 
 8214      6C617931 
 8214      00
 8215              	.LASF174:
 8216 04d9 666C6F77 		.ascii	"flowDisplay2\000"
 8216      44697370 
 8216      6C617932 
 8216      00
 8217              	.LASF175:
 8218 04e6 666C6F77 		.ascii	"flowDisplay3\000"
 8218      44697370 
 8218      6C617933 
 8218      00
 8219              	.LASF176:
 8220 04f3 666C6F77 		.ascii	"flowDisplay4\000"
 8220      44697370 
ARM GAS  C:\Users\RECEPC~1\AppData\Local\Temp\cc4fvgjK.s 			page 168


 8220      6C617934 
 8220      00
 8221              	.LASF165:
 8222 0500 706F6C6C 		.ascii	"pollingRF_Rx\000"
 8222      696E6752 
 8222      465F5278 
 8222      00
 8223              	.LASF65:
 8224 050d 746F7461 		.ascii	"totalsHandle\000"
 8224      6C734861 
 8224      6E646C65 
 8224      00
 8225              	.LASF35:
 8226 051a 70726573 		.ascii	"presetValue\000"
 8226      65745661 
 8226      6C756500 
 8227              	.LASF85:
 8228 0526 44495350 		.ascii	"DISPLAY_FORMA_PAGO_DESEADA\000"
 8228      4C41595F 
 8228      464F524D 
 8228      415F5041 
 8228      474F5F44 
 8229              	.LASF262:
 8230 0541 45455052 		.ascii	"EEPROM_1_ReadByte\000"
 8230      4F4D5F31 
 8230      5F526561 
 8230      64427974 
 8230      6500
 8231              	.LASF48:
 8232 0553 6964656E 		.ascii	"identySale\000"
 8232      74795361 
 8232      6C6500
 8233              	.LASF32:
 8234 055e 73616C65 		.ascii	"saleType\000"
 8234      54797065 
 8234      00
 8235              	.LASF144:
 8236 0567 50554D50 		.ascii	"PUMP_BUSY\000"
 8236      5F425553 
 8236      5900
 8237              	.LASF30:
 8238 0571 76616C75 		.ascii	"valueKeys\000"
 8238      654B6579 
 8238      7300
 8239              	.LASF18:
 8240 057b 63686172 		.ascii	"char\000"
 8240      00
 8241              	.LASF209:
 8242 0580 436F6E76 		.ascii	"ConversionFactor\000"
 8242      65727369 
 8242      6F6E4661 
 8242      63746F72 
 8242      00
 8243              	.LASF147:
 8244 0591 50554D50 		.ascii	"PUMP_STOPPED\000"
 8244      5F53544F 
 8244      50504544 
ARM GAS  C:\Users\RECEPC~1\AppData\Local\Temp\cc4fvgjK.s 			page 169


 8244      00
 8245              	.LASF177:
 8246 059e 6E756D62 		.ascii	"numberKeys1\000"
 8246      65724B65 
 8246      79733100 
 8247              	.LASF178:
 8248 05aa 6E756D62 		.ascii	"numberKeys2\000"
 8248      65724B65 
 8248      79733200 
 8249              	.LASF162:
 8250 05b6 7461626C 		.ascii	"table\000"
 8250      6500
 8251              	.LASF82:
 8252 05bc 44495350 		.ascii	"DISPLAY_INICIO0\000"
 8252      4C41595F 
 8252      494E4943 
 8252      494F3000 
 8253              	.LASF252:
 8254 05cc 52465F43 		.ascii	"RF_Connection_PutChar\000"
 8254      6F6E6E65 
 8254      6374696F 
 8254      6E5F5075 
 8254      74436861 
 8255              	.LASF83:
 8256 05e2 44495350 		.ascii	"DISPLAY_INICIO1\000"
 8256      4C41595F 
 8256      494E4943 
 8256      494F3100 
 8257              	.LASF12:
 8258 05f2 75696E74 		.ascii	"uint16\000"
 8258      313600
 8259              	.LASF86:
 8260 05f9 44495350 		.ascii	"DISPLAY_FORMA_PROGRAMACION\000"
 8260      4C41595F 
 8260      464F524D 
 8260      415F5052 
 8260      4F475241 
 8261              	.LASF187:
 8262 0614 64617465 		.ascii	"date\000"
 8262      00
 8263              	.LASF259:
 8264 0619 77726974 		.ascii	"write_hora\000"
 8264      655F686F 
 8264      726100
 8265              	.LASF75:
 8266 0624 70756D70 		.ascii	"pumpState\000"
 8266      53746174 
 8266      6500
 8267              	.LASF50:
 8268 062e 666C6167 		.ascii	"flagPayment\000"
 8268      5061796D 
 8268      656E7400 
 8269              	.LASF17:
 8270 063a 63686172 		.ascii	"char8\000"
 8270      3800
 8271              	.LASF157:
 8272 0640 52465F5A 		.ascii	"RF_ZERO_SALE\000"
ARM GAS  C:\Users\RECEPC~1\AppData\Local\Temp\cc4fvgjK.s 			page 170


 8272      45524F5F 
 8272      53414C45 
 8272      00
 8273              	.LASF108:
 8274 064d 44495350 		.ascii	"DISPLAY_INTRODUZCA_KILOMETRAJE\000"
 8274      4C41595F 
 8274      494E5452 
 8274      4F44555A 
 8274      43415F4B 
 8275              	.LASF55:
 8276 066c 70707551 		.ascii	"ppuQuota\000"
 8276      756F7461 
 8276      00
 8277              	.LASF158:
 8278 0675 6461746F 		.ascii	"datos\000"
 8278      7300
 8279              	.LASF169:
 8280 067b 636F756E 		.ascii	"countRX\000"
 8280      74525800 
 8281              	.LASF43:
 8282 0683 746F7461 		.ascii	"totalMoneyAfter\000"
 8282      6C4D6F6E 
 8282      65794166 
 8282      74657200 
 8283              	.LASF265:
 8284 0693 2E5C5246 		.ascii	".\\RFPoll.c\000"
 8284      506F6C6C 
 8284      2E6300
 8285              	.LASF53:
 8286 069e 6D6F6E65 		.ascii	"moneyQuota\000"
 8286      7951756F 
 8286      746100
 8287              	.LASF57:
 8288 06a9 7072696E 		.ascii	"printers\000"
 8288      74657273 
 8288      00
 8289              	.LASF198:
 8290 06b2 41637469 		.ascii	"ActiveRF\000"
 8290      76655246 
 8290      00
 8291              	.LASF152:
 8292 06bb 52465F43 		.ascii	"RF_CREDITSALEAUTH\000"
 8292      52454449 
 8292      5453414C 
 8292      45415554 
 8292      4800
 8293              	.LASF267:
 8294 06cd 76657269 		.ascii	"verificar_check\000"
 8294      66696361 
 8294      725F6368 
 8294      65636B00 
 8295              	.LASF67:
 8296 06dd 6D6F6E65 		.ascii	"moneySale\000"
 8296      7953616C 
 8296      6500
 8297              	.LASF6:
 8298 06e7 6C6F6E67 		.ascii	"long long int\000"
ARM GAS  C:\Users\RECEPC~1\AppData\Local\Temp\cc4fvgjK.s 			page 171


 8298      206C6F6E 
 8298      6720696E 
 8298      7400
 8299              	.LASF261:
 8300 06f5 45455052 		.ascii	"EEPROM_1_WriteByte\000"
 8300      4F4D5F31 
 8300      5F577269 
 8300      74654279 
 8300      746500
 8301              	.LASF91:
 8302 0708 44495350 		.ascii	"DISPLAY_SUBA_MANIJA\000"
 8302      4C41595F 
 8302      53554241 
 8302      5F4D414E 
 8302      494A4100 
 8303              	.LASF130:
 8304 071c 44495350 		.ascii	"DISPLAY_IDENTIFICADOR_ESTACION\000"
 8304      4C41595F 
 8304      4944454E 
 8304      54494649 
 8304      4341444F 
 8305              	.LASF69:
 8306 073b 70707553 		.ascii	"ppuSale\000"
 8306      616C6500 
 8307              	.LASF167:
 8308 0743 636F756E 		.ascii	"countAnimation1\000"
 8308      74416E69 
 8308      6D617469 
 8308      6F6E3100 
 8309              	.LASF215:
 8310 0753 4E756D50 		.ascii	"NumPositions\000"
 8310      6F736974 
 8310      696F6E73 
 8310      00
 8311              	.LASF194:
 8312 0760 73746174 		.ascii	"stateBeagleSoft\000"
 8312      65426561 
 8312      676C6553 
 8312      6F667400 
 8313              	.LASF123:
 8314 0770 44495350 		.ascii	"DISPLAY_ABRIR_TURNO\000"
 8314      4C41595F 
 8314      41425249 
 8314      525F5455 
 8314      524E4F00 
 8315              	.LASF42:
 8316 0784 746F7461 		.ascii	"totalPPUPrevious\000"
 8316      6C505055 
 8316      50726576 
 8316      696F7573 
 8316      00
 8317              	.LASF168:
 8318 0795 636F756E 		.ascii	"countAnimation2\000"
 8318      74416E69 
 8318      6D617469 
 8318      6F6E3200 
 8319              	.LASF137:
ARM GAS  C:\Users\RECEPC~1\AppData\Local\Temp\cc4fvgjK.s 			page 172


 8320 07a5 44495350 		.ascii	"DISPLAY_NULL\000"
 8320      4C41595F 
 8320      4E554C4C 
 8320      00
 8321              	.LASF97:
 8322 07b2 44495350 		.ascii	"DISPLAY_PASSWORD_VALIDO\000"
 8322      4C41595F 
 8322      50415353 
 8322      574F5244 
 8322      5F56414C 
 8323              	.LASF31:
 8324 07ca 76656869 		.ascii	"vehicleType\000"
 8324      636C6554 
 8324      79706500 
 8325              	.LASF142:
 8326 07d6 50554D50 		.ascii	"PUMP_CALLING\000"
 8326      5F43414C 
 8326      4C494E47 
 8326      00
 8327              	.LASF236:
 8328 07e3 62756666 		.ascii	"buffer_txPreset\000"
 8328      65725F74 
 8328      78507265 
 8328      73657400 
 8329              	.LASF49:
 8330 07f3 666C6167 		.ascii	"flagKeyboard\000"
 8330      4B657962 
 8330      6F617264 
 8330      00
 8331              	.LASF159:
 8332 0800 73697A65 		.ascii	"size\000"
 8332      00
 8333              	.LASF222:
 8334 0805 74696D65 		.ascii	"timeDownHandle\000"
 8334      446F776E 
 8334      48616E64 
 8334      6C6500
 8335              	.LASF13:
 8336 0814 75696E74 		.ascii	"uint32\000"
 8336      333200
 8337              	.LASF143:
 8338 081b 50554D50 		.ascii	"PUMP_AUTHORIZED\000"
 8338      5F415554 
 8338      484F5249 
 8338      5A454400 
 8339              	.LASF193:
 8340 082b 666C6167 		.ascii	"flagResetMux\000"
 8340      52657365 
 8340      744D7578 
 8340      00
 8341              	.LASF92:
 8342 0838 44495350 		.ascii	"DISPLAY_DESPACHANDO\000"
 8342      4C41595F 
 8342      44455350 
 8342      41434841 
 8342      4E444F00 
 8343              	.LASF238:
ARM GAS  C:\Users\RECEPC~1\AppData\Local\Temp\cc4fvgjK.s 			page 173


 8344 084c 62756666 		.ascii	"buffer_txDisplay\000"
 8344      65725F74 
 8344      78446973 
 8344      706C6179 
 8344      00
 8345              	.LASF207:
 8346 085d 62756666 		.ascii	"bufferAready\000"
 8346      65724172 
 8346      65616479 
 8346      00
 8347              	.LASF105:
 8348 086a 44495350 		.ascii	"DISPLAY_ID_RECONOCIDO\000"
 8348      4C41595F 
 8348      49445F52 
 8348      45434F4E 
 8348      4F434944 
 8349              	.LASF149:
 8350 0880 52465F49 		.ascii	"RF_IDLE\000"
 8350      444C4500 
 8351              	.LASF45:
 8352 0888 746F7461 		.ascii	"totalPPUAfter\000"
 8352      6C505055 
 8352      41667465 
 8352      7200
 8353              	.LASF256:
 8354 0896 70726963 		.ascii	"priceChange\000"
 8354      65436861 
 8354      6E676500 
 8355              	.LASF28:
 8356 08a2 6B657962 		.ascii	"keyboardWayToPay\000"
 8356      6F617264 
 8356      57617954 
 8356      6F506179 
 8356      00
 8357              	.LASF164:
 8358 08b3 706F6C6C 		.ascii	"pollingRFB_Tx\000"
 8358      696E6752 
 8358      46425F54 
 8358      7800
 8359              	.LASF184:
 8360 08c1 70707578 		.ascii	"ppux10\000"
 8360      313000
 8361              	.LASF40:
 8362 08c8 746F7461 		.ascii	"totalMoneyPrevious\000"
 8362      6C4D6F6E 
 8362      65795072 
 8362      6576696F 
 8362      757300
 8363              	.LASF94:
 8364 08db 44495350 		.ascii	"DISPLAY_DIGITE_PLACA\000"
 8364      4C41595F 
 8364      44494749 
 8364      54455F50 
 8364      4C414341 
 8365              	.LASF179:
 8366 08f0 666C6167 		.ascii	"flagPoint1\000"
 8366      506F696E 
ARM GAS  C:\Users\RECEPC~1\AppData\Local\Temp\cc4fvgjK.s 			page 174


 8366      743100
 8367              	.LASF26:
 8368 08fb 6D6F6E65 		.ascii	"moneySelectedSale\000"
 8368      7953656C 
 8368      65637465 
 8368      6453616C 
 8368      6500
 8369              	.LASF185:
 8370 090d 73796D62 		.ascii	"symbols\000"
 8370      6F6C7300 
 8371              	.LASF121:
 8372 0915 44495350 		.ascii	"DISPLAY_FECHA\000"
 8372      4C41595F 
 8372      46454348 
 8372      4100
 8373              	.LASF87:
 8374 0923 44495350 		.ascii	"DISPLAY_INTRODUZCA_VALOR\000"
 8374      4C41595F 
 8374      494E5452 
 8374      4F44555A 
 8374      43415F56 
 8375              	.LASF221:
 8376 093c 64617465 		.ascii	"dateDownHandle\000"
 8376      446F776E 
 8376      48616E64 
 8376      6C6500
 8377              	.LASF46:
 8378 094b 6C696365 		.ascii	"licenceSale\000"
 8378      6E636553 
 8378      616C6500 
 8379              	.LASF56:
 8380 0957 70726963 		.ascii	"priceConsign\000"
 8380      65436F6E 
 8380      7369676E 
 8380      00
 8381              	.LASF2:
 8382 0964 73686F72 		.ascii	"short int\000"
 8382      7420696E 
 8382      7400
 8383              	.LASF4:
 8384 096e 6C6F6E67 		.ascii	"long int\000"
 8384      20696E74 
 8384      00
 8385              	.LASF220:
 8386 0977 566F6C55 		.ascii	"VolUnit\000"
 8386      6E697400 
 8387              	.LASF197:
 8388 097f 49444361 		.ascii	"IDCast\000"
 8388      737400
 8389              	.LASF166:
 8390 0986 49544D5F 		.ascii	"ITM_RxBuffer\000"
 8390      52784275 
 8390      66666572 
 8390      00
 8391              	.LASF100:
 8392 0993 44495350 		.ascii	"DISPLAY_TIEMPO_EXPIRADO\000"
 8392      4C41595F 
ARM GAS  C:\Users\RECEPC~1\AppData\Local\Temp\cc4fvgjK.s 			page 175


 8392      5449454D 
 8392      504F5F45 
 8392      58504952 
 8393              	.LASF61:
 8394 09ab 73686966 		.ascii	"shiftId\000"
 8394      74496400 
 8395              	.LASF99:
 8396 09b3 44495350 		.ascii	"DISPLAY_NUEVO_PASSWORD\000"
 8396      4C41595F 
 8396      4E554556 
 8396      4F5F5041 
 8396      5353574F 
 8397              	.LASF119:
 8398 09ca 44495350 		.ascii	"DISPLAY_CONFIGURAR_FECHA_HORA\000"
 8398      4C41595F 
 8398      434F4E46 
 8398      49475552 
 8398      41525F46 
 8399              	.LASF116:
 8400 09e8 44495350 		.ascii	"DISPLAY_POR_FAVOR_ESPERE\000"
 8400      4C41595F 
 8400      504F525F 
 8400      4641564F 
 8400      525F4553 
 8401              	.LASF52:
 8402 0a01 666C6167 		.ascii	"flagEndSale\000"
 8402      456E6453 
 8402      616C6500 
 8403              	.LASF106:
 8404 0a0d 44495350 		.ascii	"DISPLAY_INTRODUZCA_CEDULA\000"
 8404      4C41595F 
 8404      494E5452 
 8404      4F44555A 
 8404      43415F43 
 8405              	.LASF112:
 8406 0a27 44495350 		.ascii	"DISPLAY_IMPRIMIENDO_RECIBO\000"
 8406      4C41595F 
 8406      494D5052 
 8406      494D4945 
 8406      4E444F5F 
 8407              	.LASF38:
 8408 0a42 64617465 		.ascii	"dateLiftHandle\000"
 8408      4C696674 
 8408      48616E64 
 8408      6C6500
 8409              	.LASF73:
 8410 0a51 686F7365 		.ascii	"hoseNumber\000"
 8410      4E756D62 
 8410      657200
 8411              	.LASF247:
 8412 0a5c 62756666 		.ascii	"bufferDisplay2\000"
 8412      65724469 
 8412      73706C61 
 8412      793200
 8413              	.LASF154:
 8414 0a6b 52465F43 		.ascii	"RF_CREDITSALEREPORT\000"
 8414      52454449 
ARM GAS  C:\Users\RECEPC~1\AppData\Local\Temp\cc4fvgjK.s 			page 176


 8414      5453414C 
 8414      45524550 
 8414      4F525400 
 8415              	.LASF102:
 8416 0a7f 44495350 		.ascii	"DISPLAY_ID_DIGITAL\000"
 8416      4C41595F 
 8416      49445F44 
 8416      49474954 
 8416      414C00
 8417              	.LASF150:
 8418 0a92 52465F44 		.ascii	"RF_DELIVERING\000"
 8418      454C4956 
 8418      4552494E 
 8418      4700
 8419              	.LASF109:
 8420 0aa0 44495350 		.ascii	"DISPLAY_OPERACIONES\000"
 8420      4C41595F 
 8420      4F504552 
 8420      4143494F 
 8420      4E455300 
 8421              	.LASF244:
 8422 0ab4 436F7069 		.ascii	"CopiasCredito\000"
 8422      61734372 
 8422      65646974 
 8422      6F00
 8423              	.LASF192:
 8424 0ac2 70617373 		.ascii	"passwordSeller\000"
 8424      776F7264 
 8424      53656C6C 
 8424      657200
 8425              	.LASF44:
 8426 0ad1 746F7461 		.ascii	"totalVolumeAfter\000"
 8426      6C566F6C 
 8426      756D6541 
 8426      66746572 
 8426      00
 8427              	.LASF208:
 8428 0ae2 556E6974 		.ascii	"UnitType\000"
 8428      54797065 
 8428      00
 8429              	.LASF16:
 8430 0aeb 75696E74 		.ascii	"uint64\000"
 8430      363400
 8431              	.LASF182:
 8432 0af2 64656C61 		.ascii	"delayPicture1\000"
 8432      79506963 
 8432      74757265 
 8432      3100
 8433              	.LASF183:
 8434 0b00 64656C61 		.ascii	"delayPicture2\000"
 8434      79506963 
 8434      74757265 
 8434      3200
 8435              	.LASF37:
 8436 0b0e 73746174 		.ascii	"stateMux\000"
 8436      654D7578 
 8436      00
ARM GAS  C:\Users\RECEPC~1\AppData\Local\Temp\cc4fvgjK.s 			page 177


 8437              	.LASF240:
 8438 0b17 456E6361 		.ascii	"Encabezado1\000"
 8438      62657A61 
 8438      646F3100 
 8439              	.LASF241:
 8440 0b23 456E6361 		.ascii	"Encabezado2\000"
 8440      62657A61 
 8440      646F3200 
 8441              	.LASF242:
 8442 0b2f 456E6361 		.ascii	"Encabezado3\000"
 8442      62657A61 
 8442      646F3300 
 8443              	.LASF243:
 8444 0b3b 456E6361 		.ascii	"Encabezado4\000"
 8444      62657A61 
 8444      646F3400 
 8445              	.LASF20:
 8446 0b47 73697A65 		.ascii	"sizetype\000"
 8446      74797065 
 8446      00
 8447              	.LASF5:
 8448 0b50 6C6F6E67 		.ascii	"long unsigned int\000"
 8448      20756E73 
 8448      69676E65 
 8448      6420696E 
 8448      7400
 8449              	.LASF93:
 8450 0b62 44495350 		.ascii	"DISPLAY_BAJE_MANIJA\000"
 8450      4C41595F 
 8450      42414A45 
 8450      5F4D414E 
 8450      494A4100 
 8451              	.LASF212:
 8452 0b76 50505544 		.ascii	"PPUDec\000"
 8452      656300
 8453              	.LASF205:
 8454 0b7d 706F6C6C 		.ascii	"pollTotals\000"
 8454      546F7461 
 8454      6C7300
 8455              	.LASF71:
 8456 0b88 61637469 		.ascii	"activeHose\000"
 8456      7665486F 
 8456      736500
 8457              	.LASF59:
 8458 0b93 666C6167 		.ascii	"flagPrint\000"
 8458      5072696E 
 8458      7400
 8459              	.LASF10:
 8460 0b9d 696E7433 		.ascii	"int32_t\000"
 8460      325F7400 
 8461              	.LASF79:
 8462 0ba5 73616C65 		.ascii	"saleNumber\000"
 8462      4E756D62 
 8462      657200
 8463              	.LASF151:
 8464 0bb0 52465F43 		.ascii	"RF_CASHSALEREPORT\000"
 8464      41534853 
ARM GAS  C:\Users\RECEPC~1\AppData\Local\Temp\cc4fvgjK.s 			page 178


 8464      414C4552 
 8464      45504F52 
 8464      5400
 8465              	.LASF19:
 8466 0bc2 63797374 		.ascii	"cystatus\000"
 8466      61747573 
 8466      00
 8467              	.LASF125:
 8468 0bcb 44495350 		.ascii	"DISPLAY_CANCELADO_X_PC\000"
 8468      4C41595F 
 8468      43414E43 
 8468      454C4144 
 8468      4F5F585F 
 8469              	.LASF24:
 8470 0be2 666C6167 		.ascii	"flagWayToPayMixed\000"
 8470      57617954 
 8470      6F506179 
 8470      4D697865 
 8470      6400
 8471              	.LASF1:
 8472 0bf4 756E7369 		.ascii	"unsigned char\000"
 8472      676E6564 
 8472      20636861 
 8472      7200
 8473              	.LASF126:
 8474 0c02 44495350 		.ascii	"DISPLAY_USUARIO_VALIDO\000"
 8474      4C41595F 
 8474      55535541 
 8474      52494F5F 
 8474      56414C49 
 8475              	.LASF113:
 8476 0c19 44495350 		.ascii	"DISPLAY_SELECCIONE_POSICION\000"
 8476      4C41595F 
 8476      53454C45 
 8476      4343494F 
 8476      4E455F50 
 8477              	.LASF264:
 8478 0c35 474E5520 		.ascii	"GNU C 4.9.3 20150303 (release) [ARM/embedded-4_9-br"
 8478      4320342E 
 8478      392E3320 
 8478      32303135 
 8478      30333033 
 8479 0c68 616E6368 		.ascii	"anch revision 221220] -mcpu=cortex-m3 -mthumb -g -O"
 8479      20726576 
 8479      6973696F 
 8479      6E203232 
 8479      31323230 
 8480 0c9b 67202D66 		.ascii	"g -ffunction-sections -ffat-lto-objects\000"
 8480      66756E63 
 8480      74696F6E 
 8480      2D736563 
 8480      74696F6E 
 8481              	.LASF114:
 8482 0cc3 44495350 		.ascii	"DISPLAY_OPERACION_CANCELADA\000"
 8482      4C41595F 
 8482      4F504552 
 8482      4143494F 
ARM GAS  C:\Users\RECEPC~1\AppData\Local\Temp\cc4fvgjK.s 			page 179


 8482      4E5F4341 
 8483              	.LASF29:
 8484 0cdf 61757468 		.ascii	"authorizationFlag\000"
 8484      6F72697A 
 8484      6174696F 
 8484      6E466C61 
 8484      6700
 8485              	.LASF156:
 8486 0cf1 52465F43 		.ascii	"RF_COPY_RECEIPT\000"
 8486      4F50595F 
 8486      52454345 
 8486      49505400 
 8487              	.LASF122:
 8488 0d01 44495350 		.ascii	"DISPLAY_OPCION_TURNO\000"
 8488      4C41595F 
 8488      4F504349 
 8488      4F4E5F54 
 8488      55524E4F 
 8489              	.LASF80:
 8490 0d16 70756D70 		.ascii	"pump\000"
 8490      00
 8491              	.LASF145:
 8492 0d1b 50554D50 		.ascii	"PUMP_PEOT\000"
 8492      5F50454F 
 8492      5400
 8493              	.LASF124:
 8494 0d25 44495350 		.ascii	"DISPLAY_CERRAR_TURNO\000"
 8494      4C41595F 
 8494      43455252 
 8494      41525F54 
 8494      55524E4F 
 8495              	.LASF266:
 8496 0d3a 433A5C55 		.ascii	"C:\\Users\\Recepcion\\Documents\\GitHub\\NSY-DH\\Wo"
 8496      73657273 
 8496      5C526563 
 8496      65706369 
 8496      6F6E5C44 
 8497 0d67 726B7370 		.ascii	"rkspace01\\Design01.cydsn\000"
 8497      61636530 
 8497      315C4465 
 8497      7369676E 
 8497      30312E63 
 8498              	.LASF200:
 8499 0d80 74656D70 		.ascii	"temporal\000"
 8499      6F72616C 
 8499      00
 8500              	.LASF211:
 8501 0d89 566F6C44 		.ascii	"VolDec\000"
 8501      656300
 8502              	.LASF34:
 8503 0d90 70726573 		.ascii	"presetType\000"
 8503      65745479 
 8503      706500
 8504              	.LASF127:
 8505 0d9b 44495350 		.ascii	"DISPLAY_USUARIO_INVALIDO\000"
 8505      4C41595F 
 8505      55535541 
ARM GAS  C:\Users\RECEPC~1\AppData\Local\Temp\cc4fvgjK.s 			page 180


 8505      52494F5F 
 8505      494E5641 
 8506              	.LASF233:
 8507 0db4 62756666 		.ascii	"buffer_txTotals\000"
 8507      65725F74 
 8507      78546F74 
 8507      616C7300 
 8508              	.LASF103:
 8509 0dc4 44495350 		.ascii	"DISPLAY_ID_NO_RECONOCIDO\000"
 8509      4C41595F 
 8509      49445F4E 
 8509      4F5F5245 
 8509      434F4E4F 
 8510              	.LASF155:
 8511 0ddd 52465F45 		.ascii	"RF_ERROR\000"
 8511      52524F52 
 8511      00
 8512              	.LASF191:
 8513 0de6 74797065 		.ascii	"typeIdSeller\000"
 8513      49645365 
 8513      6C6C6572 
 8513      00
 8514              	.LASF68:
 8515 0df3 766F6C75 		.ascii	"volumeSale\000"
 8515      6D655361 
 8515      6C6500
 8516              	.LASF263:
 8517 0dfe 53657450 		.ascii	"SetPicture\000"
 8517      69637475 
 8517      726500
 8518              	.LASF237:
 8519 0e09 62756666 		.ascii	"buffer_txEOT\000"
 8519      65725F74 
 8519      78454F54 
 8519      00
 8520              	.LASF239:
 8521 0e16 696E7449 		.ascii	"intIDStation\000"
 8521      44537461 
 8521      74696F6E 
 8521      00
 8522              	.LASF62:
 8523 0e23 73686966 		.ascii	"shiftPassword\000"
 8523      74506173 
 8523      73776F72 
 8523      6400
 8524              	.LASF133:
 8525 0e31 44495350 		.ascii	"DISPLAY_DUMMY1\000"
 8525      4C41595F 
 8525      44554D4D 
 8525      593100
 8526              	.LASF134:
 8527 0e40 44495350 		.ascii	"DISPLAY_DUMMY2\000"
 8527      4C41595F 
 8527      44554D4D 
 8527      593200
 8528              	.LASF135:
 8529 0e4f 44495350 		.ascii	"DISPLAY_DUMMY3\000"
ARM GAS  C:\Users\RECEPC~1\AppData\Local\Temp\cc4fvgjK.s 			page 181


 8529      4C41595F 
 8529      44554D4D 
 8529      593300
 8530              	.LASF0:
 8531 0e5e 7369676E 		.ascii	"signed char\000"
 8531      65642063 
 8531      68617200 
 8532              	.LASF89:
 8533 0e6a 44495350 		.ascii	"DISPLAY_SELECCIONE_PRODUCTO3\000"
 8533      4C41595F 
 8533      53454C45 
 8533      4343494F 
 8533      4E455F50 
 8534              	.LASF90:
 8535 0e87 44495350 		.ascii	"DISPLAY_SELECCIONE_PRODUCTO4\000"
 8535      4C41595F 
 8535      53454C45 
 8535      4343494F 
 8535      4E455F50 
 8536              	.LASF223:
 8537 0ea4 636F756E 		.ascii	"count_protector\000"
 8537      745F7072 
 8537      6F746563 
 8537      746F7200 
 8538              	.LASF3:
 8539 0eb4 73686F72 		.ascii	"short unsigned int\000"
 8539      7420756E 
 8539      7369676E 
 8539      65642069 
 8539      6E7400
 8540              	.LASF171:
 8541 0ec7 636F756E 		.ascii	"countPump\000"
 8541      7450756D 
 8541      7000
 8542              	.LASF138:
 8543 0ed1 5F415641 		.ascii	"_AVAILABLE_DISPLAYS_\000"
 8543      494C4142 
 8543      4C455F44 
 8543      4953504C 
 8543      4159535F 
 8544              	.LASF251:
 8545 0ee6 6D656D63 		.ascii	"memcpy\000"
 8545      707900
 8546              	.LASF81:
 8547 0eed 44495350 		.ascii	"DISPLAY_ERROR\000"
 8547      4C41595F 
 8547      4552524F 
 8547      5200
 8548              	.LASF70:
 8549 0efb 70726F64 		.ascii	"productSale\000"
 8549      75637453 
 8549      616C6500 
 8550              	.LASF111:
 8551 0f07 44495350 		.ascii	"DISPLAY_COPIA_RECIBO\000"
 8551      4C41595F 
 8551      434F5049 
 8551      415F5245 
ARM GAS  C:\Users\RECEPC~1\AppData\Local\Temp\cc4fvgjK.s 			page 182


 8551      4349424F 
 8552              	.LASF11:
 8553 0f1c 75696E74 		.ascii	"uint8\000"
 8553      3800
 8554              	.LASF15:
 8555 0f22 646F7562 		.ascii	"double\000"
 8555      6C6500
 8556              	.LASF23:
 8557 0f29 77617954 		.ascii	"wayToPay\000"
 8557      6F506179 
 8557      00
 8558              	.LASF77:
 8559 0f32 67726164 		.ascii	"grade\000"
 8559      6500
 8560              	.LASF39:
 8561 0f38 74696D65 		.ascii	"timeLiftHandle\000"
 8561      4C696674 
 8561      48616E64 
 8561      6C6500
 8562              	.LASF206:
 8563 0f47 73697A65 		.ascii	"sizeSendB\000"
 8563      53656E64 
 8563      4200
 8564              	.LASF101:
 8565 0f51 44495350 		.ascii	"DISPLAY_GRACIAS_VUELVA_PRONTO\000"
 8565      4C41595F 
 8565      47524143 
 8565      4941535F 
 8565      5655454C 
 8566              	.LASF66:
 8567 0f6f 70707541 		.ascii	"ppuAuthorized\000"
 8567      7574686F 
 8567      72697A65 
 8567      6400
 8568              	.LASF27:
 8569 0f7d 73657269 		.ascii	"serialSelectedSale\000"
 8569      616C5365 
 8569      6C656374 
 8569      65645361 
 8569      6C6500
 8570              	.LASF64:
 8571 0f90 706F7369 		.ascii	"position\000"
 8571      74696F6E 
 8571      00
 8572              	.LASF202:
 8573 0f99 74656D70 		.ascii	"tempPPU\000"
 8573      50505500 
 8574              	.LASF228:
 8575 0fa1 70756D70 		.ascii	"pumpGap\000"
 8575      47617000 
 8576              	.LASF74:
 8577 0fa9 72665374 		.ascii	"rfState\000"
 8577      61746500 
 8578              	.LASF249:
 8579 0fb1 62756666 		.ascii	"bufferDisplay4\000"
 8579      65724469 
 8579      73706C61 
ARM GAS  C:\Users\RECEPC~1\AppData\Local\Temp\cc4fvgjK.s 			page 183


 8579      793400
 8580              	.LASF268:
 8581 0fc0 52465F43 		.ascii	"RF_Connection_ClearRxBuffer\000"
 8581      6F6E6E65 
 8581      6374696F 
 8581      6E5F436C 
 8581      65617252 
 8582              		.ident	"GCC: (GNU Tools for ARM Embedded Processors) 4.9.3 20150303 (release) [ARM/embedded-4_9-br
