ARM GAS  C:\Users\Diego\AppData\Local\Temp\cc84Hguj.s 			page 1


   1              		.syntax unified
   2              		.cpu cortex-m3
   3              		.fpu softvfp
   4              		.eabi_attribute 20, 1
   5              		.eabi_attribute 21, 1
   6              		.eabi_attribute 23, 3
   7              		.eabi_attribute 24, 1
   8              		.eabi_attribute 25, 1
   9              		.eabi_attribute 26, 1
  10              		.eabi_attribute 30, 1
  11              		.eabi_attribute 34, 1
  12              		.eabi_attribute 18, 4
  13              		.thumb
  14              		.file	"RFPoll.c"
  15              		.text
  16              	.Ltext0:
  17              		.cfi_sections	.debug_frame
  18              		.section	.text.verificar_check,"ax",%progbits
  19              		.align	2
  20              		.global	verificar_check
  21              		.thumb
  22              		.thumb_func
  23              		.type	verificar_check, %function
  24              	verificar_check:
  25              	.LFB63:
  26              		.file 1 ".\\RFPoll.c"
   1:.\RFPoll.c    **** /* ========================================
   2:.\RFPoll.c    ****  *
   3:.\RFPoll.c    ****  * Copyright YOUR COMPANY, THE YEAR
   4:.\RFPoll.c    ****  * All Rights Reserved
   5:.\RFPoll.c    ****  * UNPUBLISHED, LICENSED SOFTWARE.
   6:.\RFPoll.c    ****  *
   7:.\RFPoll.c    ****  * CONFIDENTIAL AND PROPRIETARY INFORMATION
   8:.\RFPoll.c    ****  * WHICH IS THE PROPERTY OF your company.
   9:.\RFPoll.c    ****  *
  10:.\RFPoll.c    ****  * ========================================
  11:.\RFPoll.c    **** */
  12:.\RFPoll.c    **** #include <device.h>
  13:.\RFPoll.c    **** #include <variables.h>
  14:.\RFPoll.c    **** /*
  15:.\RFPoll.c    **** ***************************************************************************************************
  16:.\RFPoll.c    **** *                             uint8 verificar_check(uint8 *datos, uint16 size)
  17:.\RFPoll.c    **** *
  18:.\RFPoll.c    **** * Description : calcula el checksum
  19:.\RFPoll.c    **** *               
  20:.\RFPoll.c    **** 
  21:.\RFPoll.c    **** ***************************************************************************************************
  22:.\RFPoll.c    **** */
  23:.\RFPoll.c    **** uint8 verificar_check(uint8 *datos, uint16 size){
  27              		.loc 1 23 0
  28              		.cfi_startproc
  29              		@ args = 0, pretend = 0, frame = 256
  30              		@ frame_needed = 0, uses_anonymous_args = 0
  31              	.LVL0:
  32 0000 30B5     		push	{r4, r5, lr}
  33              		.cfi_def_cfa_offset 12
  34              		.cfi_offset 4, -12
ARM GAS  C:\Users\Diego\AppData\Local\Temp\cc84Hguj.s 			page 2


  35              		.cfi_offset 5, -8
  36              		.cfi_offset 14, -4
  37 0002 C1B0     		sub	sp, sp, #260
  38              		.cfi_def_cfa_offset 272
  39 0004 0546     		mov	r5, r0
  40 0006 0C46     		mov	r4, r1
  24:.\RFPoll.c    **** 	uint8 checksum,index; 
  25:.\RFPoll.c    **** 	uint16 i;
  26:.\RFPoll.c    ****     uint8 table[256] = { 
  41              		.loc 1 26 0
  42 0008 6846     		mov	r0, sp
  43              	.LVL1:
  44 000a 0949     		ldr	r1, .L5
  45              	.LVL2:
  46 000c 4FF48072 		mov	r2, #256
  47 0010 FFF7FEFF 		bl	memcpy
  48              	.LVL3:
  27:.\RFPoll.c    ****     0, 94,188,226, 97, 63,221,131,194,156,126, 32,163,253, 31, 65,
  28:.\RFPoll.c    ****     157,195, 33,127,252,162, 64, 30, 95,  1,227,189, 62, 96,130,220,
  29:.\RFPoll.c    ****     35,125,159,193, 66, 28,254,160,225,191, 93,  3,128,222, 60, 98,
  30:.\RFPoll.c    ****     190,224,  2, 92,223,129, 99, 61,124, 34,192,158, 29, 67,161,255,
  31:.\RFPoll.c    ****     70, 24,250,164, 39,121,155,197,132,218, 56,102,229,187, 89,  7,
  32:.\RFPoll.c    ****     219,133,103, 57,186,228,  6, 88, 25, 71,165,251,120, 38,196,154,
  33:.\RFPoll.c    ****     101, 59,217,135,  4, 90,184,230,167,249, 27, 69,198,152,122, 36,
  34:.\RFPoll.c    ****     248,166, 68, 26,153,199, 37,123, 58,100,134,216, 91,  5,231,185,
  35:.\RFPoll.c    ****     140,210, 48,110,237,179, 81, 15, 78, 16,242,172, 47,113,147,205,
  36:.\RFPoll.c    ****     17, 79,173,243,112, 46,204,146,211,141,111, 49,178,236, 14, 80,
  37:.\RFPoll.c    ****     175,241, 19, 77,206,144,114, 44,109, 51,209,143, 12, 82,176,238,
  38:.\RFPoll.c    ****     50,108,142,208, 83, 13,239,177,240,174, 76, 18,145,207, 45,115,
  39:.\RFPoll.c    ****     202,148,118, 40,171,245, 23, 73,  8, 86,180,234,105, 55,213,139,
  40:.\RFPoll.c    ****     87,  9,235,181, 54,104,138,212,149,203, 41,119,244,170, 72, 22,
  41:.\RFPoll.c    ****     233,183, 85, 11,136,214, 52,106, 43,117,151,201, 74, 20,246,168,
  42:.\RFPoll.c    ****     116, 42,200,150, 21, 75,169,247,182,232, 10, 84,215,137,107, 53};	
  43:.\RFPoll.c    **** 	checksum=0;
  44:.\RFPoll.c    **** 	for(i=0;i<(size-1);i++){
  49              		.loc 1 44 0
  50 0014 0023     		movs	r3, #0
  43:.\RFPoll.c    **** 	for(i=0;i<(size-1);i++){
  51              		.loc 1 43 0
  52 0016 1846     		mov	r0, r3
  53              		.loc 1 44 0
  54 0018 05E0     		b	.L2
  55              	.LVL4:
  56              	.L3:
  45:.\RFPoll.c    **** 		index = (uint8)(checksum ^ datos[i]);
  57              		.loc 1 45 0 discriminator 3
  58 001a EA5C     		ldrb	r2, [r5, r3]	@ zero_extendqisi2
  59 001c 5040     		eors	r0, r0, r2
  60              	.LVL5:
  46:.\RFPoll.c    **** 		checksum = table[index];				
  61              		.loc 1 46 0 discriminator 3
  62 001e 1DF80000 		ldrb	r0, [sp, r0]	@ zero_extendqisi2
  63              	.LVL6:
  44:.\RFPoll.c    **** 		index = (uint8)(checksum ^ datos[i]);
  64              		.loc 1 44 0 discriminator 3
  65 0022 0133     		adds	r3, r3, #1
  66              	.LVL7:
ARM GAS  C:\Users\Diego\AppData\Local\Temp\cc84Hguj.s 			page 3


  67 0024 9BB2     		uxth	r3, r3
  68              	.LVL8:
  69              	.L2:
  44:.\RFPoll.c    **** 		index = (uint8)(checksum ^ datos[i]);
  70              		.loc 1 44 0 is_stmt 0 discriminator 1
  71 0026 621E     		subs	r2, r4, #1
  72 0028 9342     		cmp	r3, r2
  73 002a F6DB     		blt	.L3
  47:.\RFPoll.c    **** 	}
  48:.\RFPoll.c    **** 	return checksum;
  49:.\RFPoll.c    **** }
  74              		.loc 1 49 0 is_stmt 1
  75 002c 41B0     		add	sp, sp, #260
  76              		.cfi_def_cfa_offset 12
  77              		@ sp needed
  78 002e 30BD     		pop	{r4, r5, pc}
  79              	.LVL9:
  80              	.L6:
  81              		.align	2
  82              	.L5:
  83 0030 00000000 		.word	.LANCHOR0
  84              		.cfi_endproc
  85              	.LFE63:
  86              		.size	verificar_check, .-verificar_check
  87              		.section	.text.pollingRF_Rx,"ax",%progbits
  88              		.align	2
  89              		.global	pollingRF_Rx
  90              		.thumb
  91              		.thumb_func
  92              		.type	pollingRF_Rx, %function
  93              	pollingRF_Rx:
  94              	.LFB64:
  50:.\RFPoll.c    **** 
  51:.\RFPoll.c    **** 
  52:.\RFPoll.c    **** 
  53:.\RFPoll.c    **** 
  54:.\RFPoll.c    **** void pollingRF_Rx(){
  95              		.loc 1 54 0
  96              		.cfi_startproc
  97              		@ args = 0, pretend = 0, frame = 0
  98              		@ frame_needed = 0, uses_anonymous_args = 0
  99 0000 10B5     		push	{r4, lr}
 100              		.cfi_def_cfa_offset 8
 101              		.cfi_offset 4, -8
 102              		.cfi_offset 14, -4
  55:.\RFPoll.c    ****     uint16 status1, status2,size,i,x,y,z;
  56:.\RFPoll.c    **** 	uint8 aux[15],programar_ok;
  57:.\RFPoll.c    **** 	if(RF_Connection_GetRxBufferSize()>=7){
 103              		.loc 1 57 0
 104 0002 FFF7FEFF 		bl	RF_Connection_GetRxBufferSize
 105              	.LVL10:
 106 0006 0628     		cmp	r0, #6
 107 0008 07D8     		bhi	.L22
 108 000a 10BD     		pop	{r4, pc}
 109              	.LVL11:
 110              	.L10:
  58:.\RFPoll.c    ****         
ARM GAS  C:\Users\Diego\AppData\Local\Temp\cc84Hguj.s 			page 4


  59:.\RFPoll.c    ****             i=0;
  60:.\RFPoll.c    ****     	    while(RF_Connection_GetRxBufferSize()>0){
  61:.\RFPoll.c    ****     	       buffer_rf[i]=RF_Connection_ReadRxData(); 	
 111              		.loc 1 61 0
 112 000c FFF7FEFF 		bl	RF_Connection_ReadRxData
 113              	.LVL12:
 114 0010 4A4B     		ldr	r3, .L25
 115 0012 1855     		strb	r0, [r3, r4]
  62:.\RFPoll.c    ****     		   i++;	
 116              		.loc 1 62 0
 117 0014 0134     		adds	r4, r4, #1
 118              	.LVL13:
 119 0016 A4B2     		uxth	r4, r4
 120              	.LVL14:
 121 0018 00E0     		b	.L8
 122              	.LVL15:
 123              	.L22:
 124 001a 0024     		movs	r4, #0
 125              	.L8:
 126              	.LVL16:
  60:.\RFPoll.c    ****     	       buffer_rf[i]=RF_Connection_ReadRxData(); 	
 127              		.loc 1 60 0
 128 001c FFF7FEFF 		bl	RF_Connection_GetRxBufferSize
 129              	.LVL17:
 130 0020 0028     		cmp	r0, #0
 131 0022 F3D1     		bne	.L10
  63:.\RFPoll.c    ****     	    }
  64:.\RFPoll.c    ****             //if((buffer_rf[0]==0xBC)&&(buffer_rf[1]==0xBB)&&(buffer_rf[2]==0xB8)&&(buffer_rf[3]==I
  65:.\RFPoll.c    ****             if((buffer_rf[0]==0xBC)&&(buffer_rf[1]==0xBB)&&(buffer_rf[2]==0xB8)){
 132              		.loc 1 65 0
 133 0024 454B     		ldr	r3, .L25
 134 0026 1B78     		ldrb	r3, [r3]	@ zero_extendqisi2
 135 0028 BC2B     		cmp	r3, #188
 136 002a 40F08480 		bne	.L11
 137              		.loc 1 65 0 is_stmt 0 discriminator 1
 138 002e 434B     		ldr	r3, .L25
 139 0030 5B78     		ldrb	r3, [r3, #1]	@ zero_extendqisi2
 140 0032 BB2B     		cmp	r3, #187
 141 0034 7FD1     		bne	.L11
 142              		.loc 1 65 0 discriminator 2
 143 0036 414B     		ldr	r3, .L25
 144 0038 9B78     		ldrb	r3, [r3, #2]	@ zero_extendqisi2
 145 003a B82B     		cmp	r3, #184
 146 003c 7BD1     		bne	.L11
  66:.\RFPoll.c    ****                switch(buffer_rf[6]){
 147              		.loc 1 66 0 is_stmt 1
 148 003e 3F4B     		ldr	r3, .L25
 149 0040 9B79     		ldrb	r3, [r3, #6]	@ zero_extendqisi2
 150 0042 E12B     		cmp	r3, #225
 151 0044 26D0     		beq	.L12
 152 0046 E22B     		cmp	r3, #226
 153 0048 4ED0     		beq	.L23
 154 004a A12B     		cmp	r3, #161
 155 004c 73D1     		bne	.L11
  67:.\RFPoll.c    ****                    case 0xA1:
  68:.\RFPoll.c    ****                     buffer_tx[0] = 0xBC;
 156              		.loc 1 68 0
ARM GAS  C:\Users\Diego\AppData\Local\Temp\cc84Hguj.s 			page 5


 157 004e 3C4C     		ldr	r4, .L25+4
 158              	.LVL18:
 159 0050 BC23     		movs	r3, #188
 160 0052 2370     		strb	r3, [r4]
  69:.\RFPoll.c    ****                     buffer_tx[1] = 0xCB;
 161              		.loc 1 69 0
 162 0054 CB23     		movs	r3, #203
 163 0056 6370     		strb	r3, [r4, #1]
  70:.\RFPoll.c    ****                     buffer_tx[2] = 0xC8;
 164              		.loc 1 70 0
 165 0058 C823     		movs	r3, #200
 166 005a A370     		strb	r3, [r4, #2]
  71:.\RFPoll.c    ****                     buffer_tx[3] = IDCast[0];
 167              		.loc 1 71 0
 168 005c 394B     		ldr	r3, .L25+8
 169 005e 1A78     		ldrb	r2, [r3]	@ zero_extendqisi2
 170 0060 E270     		strb	r2, [r4, #3]
  72:.\RFPoll.c    ****                     buffer_tx[4] = IDCast[1];
 171              		.loc 1 72 0
 172 0062 5B78     		ldrb	r3, [r3, #1]	@ zero_extendqisi2
 173 0064 2371     		strb	r3, [r4, #4]
  73:.\RFPoll.c    ****                     buffer_tx[5] = buffer_rf[5];
 174              		.loc 1 73 0
 175 0066 354B     		ldr	r3, .L25
 176 0068 5B79     		ldrb	r3, [r3, #5]	@ zero_extendqisi2
 177 006a 6371     		strb	r3, [r4, #5]
  74:.\RFPoll.c    ****                     buffer_tx[6] = 0xA1;
 178              		.loc 1 74 0
 179 006c A123     		movs	r3, #161
 180 006e A371     		strb	r3, [r4, #6]
  75:.\RFPoll.c    ****                     buffer_tx[7] = 0x08;
 181              		.loc 1 75 0
 182 0070 0823     		movs	r3, #8
 183 0072 E371     		strb	r3, [r4, #7]
  76:.\RFPoll.c    ****                     buffer_tx[8] = verificar_check(buffer_tx,9);
 184              		.loc 1 76 0
 185 0074 2046     		mov	r0, r4
 186 0076 0921     		movs	r1, #9
 187 0078 FFF7FEFF 		bl	verificar_check
 188              	.LVL19:
 189 007c 2072     		strb	r0, [r4, #8]
 190              	.LVL20:
  77:.\RFPoll.c    ****                     for (x = 0; x < 9; x++){
 191              		.loc 1 77 0
 192 007e 0024     		movs	r4, #0
 193 0080 05E0     		b	.L15
 194              	.LVL21:
 195              	.L16:
  78:.\RFPoll.c    ****                         RF_Connection_PutChar(buffer_tx[x]);
 196              		.loc 1 78 0 discriminator 3
 197 0082 2F4B     		ldr	r3, .L25+4
 198 0084 185D     		ldrb	r0, [r3, r4]	@ zero_extendqisi2
 199 0086 FFF7FEFF 		bl	RF_Connection_PutChar
 200              	.LVL22:
  77:.\RFPoll.c    ****                     for (x = 0; x < 9; x++){
 201              		.loc 1 77 0 discriminator 3
 202 008a 0134     		adds	r4, r4, #1
ARM GAS  C:\Users\Diego\AppData\Local\Temp\cc84Hguj.s 			page 6


 203              	.LVL23:
 204 008c A4B2     		uxth	r4, r4
 205              	.LVL24:
 206              	.L15:
  77:.\RFPoll.c    ****                     for (x = 0; x < 9; x++){
 207              		.loc 1 77 0 is_stmt 0 discriminator 1
 208 008e 082C     		cmp	r4, #8
 209 0090 F7D9     		bls	.L16
 210 0092 50E0     		b	.L11
 211              	.LVL25:
 212              	.L12:
  79:.\RFPoll.c    ****                     }
  80:.\RFPoll.c    ****                    break;
  81:.\RFPoll.c    ****                    case 0xE1:
  82:.\RFPoll.c    ****                     symbols[1] = buffer_rf[8];
 213              		.loc 1 82 0 is_stmt 1
 214 0094 294B     		ldr	r3, .L25
 215 0096 197A     		ldrb	r1, [r3, #8]	@ zero_extendqisi2
 216 0098 2B4A     		ldr	r2, .L25+12
 217 009a 5170     		strb	r1, [r2, #1]
  83:.\RFPoll.c    ****                     date[0]    = buffer_rf[9];
 218              		.loc 1 83 0
 219 009c 597A     		ldrb	r1, [r3, #9]	@ zero_extendqisi2
 220 009e 2B4A     		ldr	r2, .L25+16
 221 00a0 1170     		strb	r1, [r2]
  84:.\RFPoll.c    ****                     date[1]    = buffer_rf[10];
 222              		.loc 1 84 0
 223 00a2 997A     		ldrb	r1, [r3, #10]	@ zero_extendqisi2
 224 00a4 5170     		strb	r1, [r2, #1]
  85:.\RFPoll.c    ****                     date[2]    = buffer_rf[11];
 225              		.loc 1 85 0
 226 00a6 D97A     		ldrb	r1, [r3, #11]	@ zero_extendqisi2
 227 00a8 9170     		strb	r1, [r2, #2]
  86:.\RFPoll.c    ****                     time[0]    = buffer_rf[12];
 228              		.loc 1 86 0
 229 00aa 197B     		ldrb	r1, [r3, #12]	@ zero_extendqisi2
 230 00ac 284A     		ldr	r2, .L25+20
 231 00ae 1170     		strb	r1, [r2]
  87:.\RFPoll.c    ****                     time[1]    = buffer_rf[13];
 232              		.loc 1 87 0
 233 00b0 5B7B     		ldrb	r3, [r3, #13]	@ zero_extendqisi2
 234 00b2 5370     		strb	r3, [r2, #1]
 235              	.LVL26:
  88:.\RFPoll.c    ****                     for(x = 17; x < 45; x++){
 236              		.loc 1 88 0
 237 00b4 1123     		movs	r3, #17
 238 00b6 07E0     		b	.L17
 239              	.LVL27:
 240              	.L18:
  89:.\RFPoll.c    ****                         Encabezado1[x-17] = buffer_rf[x];
 241              		.loc 1 89 0 discriminator 3
 242 00b8 A3F11102 		sub	r2, r3, #17
 243 00bc 1F49     		ldr	r1, .L25
 244 00be C85C     		ldrb	r0, [r1, r3]	@ zero_extendqisi2
 245 00c0 2449     		ldr	r1, .L25+24
 246 00c2 8854     		strb	r0, [r1, r2]
  88:.\RFPoll.c    ****                     for(x = 17; x < 45; x++){
ARM GAS  C:\Users\Diego\AppData\Local\Temp\cc84Hguj.s 			page 7


 247              		.loc 1 88 0 discriminator 3
 248 00c4 0133     		adds	r3, r3, #1
 249              	.LVL28:
 250 00c6 9BB2     		uxth	r3, r3
 251              	.LVL29:
 252              	.L17:
  88:.\RFPoll.c    ****                     for(x = 17; x < 45; x++){
 253              		.loc 1 88 0 is_stmt 0 discriminator 1
 254 00c8 2C2B     		cmp	r3, #44
 255 00ca F5D9     		bls	.L18
  90:.\RFPoll.c    ****                     }
  91:.\RFPoll.c    ****                     CopiasCredito = buffer_rf[16];
 256              		.loc 1 91 0 is_stmt 1
 257 00cc 1B4B     		ldr	r3, .L25
 258              	.LVL30:
 259 00ce 1A7C     		ldrb	r2, [r3, #16]	@ zero_extendqisi2
 260 00d0 214B     		ldr	r3, .L25+28
 261 00d2 1A70     		strb	r2, [r3]
  92:.\RFPoll.c    ****                    break;
 262              		.loc 1 92 0
 263 00d4 2FE0     		b	.L11
 264              	.LVL31:
 265              	.L19:
  93:.\RFPoll.c    ****                    
  94:.\RFPoll.c    ****                    case 0xE2:                    
  95:.\RFPoll.c    ****                     for(x = 0; x < 6; x++){
  96:.\RFPoll.c    ****                         GradesHose[x] = buffer_rf[x+8];
 266              		.loc 1 96 0 discriminator 3
 267 00d6 03F10802 		add	r2, r3, #8
 268 00da 1849     		ldr	r1, .L25
 269 00dc 895C     		ldrb	r1, [r1, r2]	@ zero_extendqisi2
 270 00de 1F4A     		ldr	r2, .L25+32
 271 00e0 D154     		strb	r1, [r2, r3]
  95:.\RFPoll.c    ****                         GradesHose[x] = buffer_rf[x+8];
 272              		.loc 1 95 0 discriminator 3
 273 00e2 0133     		adds	r3, r3, #1
 274              	.LVL32:
 275 00e4 9BB2     		uxth	r3, r3
 276              	.LVL33:
 277 00e6 00E0     		b	.L13
 278              	.LVL34:
 279              	.L23:
  66:.\RFPoll.c    ****                    case 0xA1:
 280              		.loc 1 66 0
 281 00e8 0023     		movs	r3, #0
 282              	.L13:
 283              	.LVL35:
  95:.\RFPoll.c    ****                         GradesHose[x] = buffer_rf[x+8];
 284              		.loc 1 95 0 discriminator 1
 285 00ea 052B     		cmp	r3, #5
 286 00ec F3D9     		bls	.L19
  97:.\RFPoll.c    ****                     }                    
  98:.\RFPoll.c    ****                     buffer_tx[0] = 0xBC;
 287              		.loc 1 98 0
 288 00ee 144C     		ldr	r4, .L25+4
 289              	.LVL36:
 290 00f0 BC23     		movs	r3, #188
ARM GAS  C:\Users\Diego\AppData\Local\Temp\cc84Hguj.s 			page 8


 291              	.LVL37:
 292 00f2 2370     		strb	r3, [r4]
  99:.\RFPoll.c    ****                     buffer_tx[1] = 0xCB;
 293              		.loc 1 99 0
 294 00f4 CB23     		movs	r3, #203
 295 00f6 6370     		strb	r3, [r4, #1]
 100:.\RFPoll.c    ****                     buffer_tx[2] = 0xC8;
 296              		.loc 1 100 0
 297 00f8 C823     		movs	r3, #200
 298 00fa A370     		strb	r3, [r4, #2]
 101:.\RFPoll.c    ****                     buffer_tx[3] = IDCast[0];
 299              		.loc 1 101 0
 300 00fc 114B     		ldr	r3, .L25+8
 301 00fe 1A78     		ldrb	r2, [r3]	@ zero_extendqisi2
 302 0100 E270     		strb	r2, [r4, #3]
 102:.\RFPoll.c    ****                     buffer_tx[4] = IDCast[1];
 303              		.loc 1 102 0
 304 0102 5B78     		ldrb	r3, [r3, #1]	@ zero_extendqisi2
 305 0104 2371     		strb	r3, [r4, #4]
 103:.\RFPoll.c    ****                     buffer_tx[5] = buffer_rf[5];
 306              		.loc 1 103 0
 307 0106 0D4B     		ldr	r3, .L25
 308 0108 5B79     		ldrb	r3, [r3, #5]	@ zero_extendqisi2
 309 010a 6371     		strb	r3, [r4, #5]
 104:.\RFPoll.c    ****                     buffer_tx[6] = 0xE2;
 310              		.loc 1 104 0
 311 010c E223     		movs	r3, #226
 312 010e A371     		strb	r3, [r4, #6]
 105:.\RFPoll.c    ****                     buffer_tx[7] = 0x08;
 313              		.loc 1 105 0
 314 0110 0823     		movs	r3, #8
 315 0112 E371     		strb	r3, [r4, #7]
 106:.\RFPoll.c    ****                     buffer_tx[8] = 0x03;
 316              		.loc 1 106 0
 317 0114 0323     		movs	r3, #3
 318 0116 2372     		strb	r3, [r4, #8]
 107:.\RFPoll.c    ****                     buffer_tx[9] = verificar_check(buffer_tx,10);
 319              		.loc 1 107 0
 320 0118 2046     		mov	r0, r4
 321 011a 0A21     		movs	r1, #10
 322 011c FFF7FEFF 		bl	verificar_check
 323              	.LVL38:
 324 0120 6072     		strb	r0, [r4, #9]
 325              	.LVL39:
 108:.\RFPoll.c    ****                     for (x = 0; x < 10; x++){
 326              		.loc 1 108 0
 327 0122 0024     		movs	r4, #0
 328 0124 05E0     		b	.L20
 329              	.LVL40:
 330              	.L21:
 109:.\RFPoll.c    ****                         RF_Connection_PutChar(buffer_tx[x]);
 331              		.loc 1 109 0 discriminator 3
 332 0126 064B     		ldr	r3, .L25+4
 333 0128 185D     		ldrb	r0, [r3, r4]	@ zero_extendqisi2
 334 012a FFF7FEFF 		bl	RF_Connection_PutChar
 335              	.LVL41:
 108:.\RFPoll.c    ****                     for (x = 0; x < 10; x++){
ARM GAS  C:\Users\Diego\AppData\Local\Temp\cc84Hguj.s 			page 9


 336              		.loc 1 108 0 discriminator 3
 337 012e 0134     		adds	r4, r4, #1
 338              	.LVL42:
 339 0130 A4B2     		uxth	r4, r4
 340              	.LVL43:
 341              	.L20:
 108:.\RFPoll.c    ****                     for (x = 0; x < 10; x++){
 342              		.loc 1 108 0 is_stmt 0 discriminator 1
 343 0132 092C     		cmp	r4, #9
 344 0134 F7D9     		bls	.L21
 345              	.LVL44:
 346              	.L11:
 110:.\RFPoll.c    ****                     }
 111:.\RFPoll.c    ****                    break;
 112:.\RFPoll.c    ****                }                       
 113:.\RFPoll.c    ****             }
 114:.\RFPoll.c    ****            RF_Connection_ClearRxBuffer();
 347              		.loc 1 114 0 is_stmt 1
 348 0136 FFF7FEFF 		bl	RF_Connection_ClearRxBuffer
 349              	.LVL45:
 350 013a 10BD     		pop	{r4, pc}
 351              	.L26:
 352              		.align	2
 353              	.L25:
 354 013c 00000000 		.word	buffer_rf
 355 0140 00000000 		.word	buffer_tx
 356 0144 00000000 		.word	IDCast
 357 0148 00000000 		.word	symbols
 358 014c 00000000 		.word	date
 359 0150 00000000 		.word	time
 360 0154 00000000 		.word	Encabezado1
 361 0158 00000000 		.word	CopiasCredito
 362 015c 00000000 		.word	GradesHose
 363              		.cfi_endproc
 364              	.LFE64:
 365              		.size	pollingRF_Rx, .-pollingRF_Rx
 366              		.comm	side,1036,4
 367              		.comm	bufferDisplay4,332,4
 368              		.comm	bufferDisplay3,332,4
 369              		.comm	bufferDisplay2,332,4
 370              		.comm	bufferDisplay1,332,4
 371              		.comm	GradesHose,5,4
 372              		.comm	CopiasCredito,1,1
 373              		.comm	Encabezado1,30,4
 374              		.comm	intIDStation,2,2
 375              		.comm	buffer_tx,1500,4
 376              		.comm	buffer_rf,1500,4
 377              		.comm	printPortB,1,1
 378              		.comm	printPortA,1,1
 379              		.comm	pumpGap,3,4
 380              		.comm	idStation,5,4
 381              		.comm	controlChar,1,1
 382              		.comm	configAccess,5,4
 383              		.comm	count_protector2,1,1
 384              		.comm	count_protector,1,1
 385              		.comm	timeDownHandle,2,4
 386              		.comm	dateDownHandle,3,4
ARM GAS  C:\Users\Diego\AppData\Local\Temp\cc84Hguj.s 			page 10


 387              		.comm	VolUnit,6,4
 388              		.comm	PrinterType,1,1
 389              		.comm	hiddenKeys,1,1
 390              		.comm	digits,1,1
 391              		.comm	lockTurn,1,1
 392              		.comm	NumPositions,1,1
 393              		.comm	statePump,4,4
 394              		.comm	DDMode,1,1
 395              		.comm	PPUDec,1,1
 396              		.comm	VolDec,1,1
 397              		.comm	MoneyDec,1,1
 398              		.comm	ConversionFactor,1,1
 399              		.comm	UnitType,1,1
 400              		.comm	IDCast,2,4
 401              		.comm	PlateRequest,1,1
 402              		.comm	PrevStatePump,4,4
 403              		.comm	stateBeagleSoft,1,1
 404              		.comm	flagResetMux,1,1
 405              		.comm	passwordSeller,8,4
 406              		.comm	typeIdSeller,1,1
 407              		.comm	idSeller,25,4
 408              		.comm	temporal,30,4
 409              		.comm	residue,14,4
 410              		.comm	screen,2,4
 411              		.comm	date,3,4
 412              		.comm	time,3,4
 413              		.comm	symbols,2,4
 414              		.comm	decimalVolume,1,1
 415              		.comm	decimalMoney,1,1
 416              		.comm	ppux10,1,1
 417              		.comm	delayPicture2,4,4
 418              		.comm	delayPicture1,4,4
 419              		.comm	productNumber,1,1
 420              		.comm	flagPoint2,1,1
 421              		.comm	flagPoint1,1,1
 422              		.comm	numberKeys2,1,1
 423              		.comm	numberKeys1,1,1
 424              		.comm	flowDisplay4,4,4
 425              		.comm	flowDisplay3,4,4
 426              		.comm	flowDisplay2,4,4
 427              		.comm	flowDisplay1,4,4
 428              		.comm	countPump,8,8
 429              		.comm	countBeagleTX,8,8
 430              		.comm	countAnimation2,8,8
 431              		.comm	countAnimation1,8,8
 432              		.section	.rodata
 433              		.align	2
 434              		.set	.LANCHOR0,. + 0
 435              	.LC0:
 436 0000 00       		.byte	0
 437 0001 5E       		.byte	94
 438 0002 BC       		.byte	-68
 439 0003 E2       		.byte	-30
 440 0004 61       		.byte	97
 441 0005 3F       		.byte	63
 442 0006 DD       		.byte	-35
 443 0007 83       		.byte	-125
ARM GAS  C:\Users\Diego\AppData\Local\Temp\cc84Hguj.s 			page 11


 444 0008 C2       		.byte	-62
 445 0009 9C       		.byte	-100
 446 000a 7E       		.byte	126
 447 000b 20       		.byte	32
 448 000c A3       		.byte	-93
 449 000d FD       		.byte	-3
 450 000e 1F       		.byte	31
 451 000f 41       		.byte	65
 452 0010 9D       		.byte	-99
 453 0011 C3       		.byte	-61
 454 0012 21       		.byte	33
 455 0013 7F       		.byte	127
 456 0014 FC       		.byte	-4
 457 0015 A2       		.byte	-94
 458 0016 40       		.byte	64
 459 0017 1E       		.byte	30
 460 0018 5F       		.byte	95
 461 0019 01       		.byte	1
 462 001a E3       		.byte	-29
 463 001b BD       		.byte	-67
 464 001c 3E       		.byte	62
 465 001d 60       		.byte	96
 466 001e 82       		.byte	-126
 467 001f DC       		.byte	-36
 468 0020 23       		.byte	35
 469 0021 7D       		.byte	125
 470 0022 9F       		.byte	-97
 471 0023 C1       		.byte	-63
 472 0024 42       		.byte	66
 473 0025 1C       		.byte	28
 474 0026 FE       		.byte	-2
 475 0027 A0       		.byte	-96
 476 0028 E1       		.byte	-31
 477 0029 BF       		.byte	-65
 478 002a 5D       		.byte	93
 479 002b 03       		.byte	3
 480 002c 80       		.byte	-128
 481 002d DE       		.byte	-34
 482 002e 3C       		.byte	60
 483 002f 62       		.byte	98
 484 0030 BE       		.byte	-66
 485 0031 E0       		.byte	-32
 486 0032 02       		.byte	2
 487 0033 5C       		.byte	92
 488 0034 DF       		.byte	-33
 489 0035 81       		.byte	-127
 490 0036 63       		.byte	99
 491 0037 3D       		.byte	61
 492 0038 7C       		.byte	124
 493 0039 22       		.byte	34
 494 003a C0       		.byte	-64
 495 003b 9E       		.byte	-98
 496 003c 1D       		.byte	29
 497 003d 43       		.byte	67
 498 003e A1       		.byte	-95
 499 003f FF       		.byte	-1
 500 0040 46       		.byte	70
ARM GAS  C:\Users\Diego\AppData\Local\Temp\cc84Hguj.s 			page 12


 501 0041 18       		.byte	24
 502 0042 FA       		.byte	-6
 503 0043 A4       		.byte	-92
 504 0044 27       		.byte	39
 505 0045 79       		.byte	121
 506 0046 9B       		.byte	-101
 507 0047 C5       		.byte	-59
 508 0048 84       		.byte	-124
 509 0049 DA       		.byte	-38
 510 004a 38       		.byte	56
 511 004b 66       		.byte	102
 512 004c E5       		.byte	-27
 513 004d BB       		.byte	-69
 514 004e 59       		.byte	89
 515 004f 07       		.byte	7
 516 0050 DB       		.byte	-37
 517 0051 85       		.byte	-123
 518 0052 67       		.byte	103
 519 0053 39       		.byte	57
 520 0054 BA       		.byte	-70
 521 0055 E4       		.byte	-28
 522 0056 06       		.byte	6
 523 0057 58       		.byte	88
 524 0058 19       		.byte	25
 525 0059 47       		.byte	71
 526 005a A5       		.byte	-91
 527 005b FB       		.byte	-5
 528 005c 78       		.byte	120
 529 005d 26       		.byte	38
 530 005e C4       		.byte	-60
 531 005f 9A       		.byte	-102
 532 0060 65       		.byte	101
 533 0061 3B       		.byte	59
 534 0062 D9       		.byte	-39
 535 0063 87       		.byte	-121
 536 0064 04       		.byte	4
 537 0065 5A       		.byte	90
 538 0066 B8       		.byte	-72
 539 0067 E6       		.byte	-26
 540 0068 A7       		.byte	-89
 541 0069 F9       		.byte	-7
 542 006a 1B       		.byte	27
 543 006b 45       		.byte	69
 544 006c C6       		.byte	-58
 545 006d 98       		.byte	-104
 546 006e 7A       		.byte	122
 547 006f 24       		.byte	36
 548 0070 F8       		.byte	-8
 549 0071 A6       		.byte	-90
 550 0072 44       		.byte	68
 551 0073 1A       		.byte	26
 552 0074 99       		.byte	-103
 553 0075 C7       		.byte	-57
 554 0076 25       		.byte	37
 555 0077 7B       		.byte	123
 556 0078 3A       		.byte	58
 557 0079 64       		.byte	100
ARM GAS  C:\Users\Diego\AppData\Local\Temp\cc84Hguj.s 			page 13


 558 007a 86       		.byte	-122
 559 007b D8       		.byte	-40
 560 007c 5B       		.byte	91
 561 007d 05       		.byte	5
 562 007e E7       		.byte	-25
 563 007f B9       		.byte	-71
 564 0080 8C       		.byte	-116
 565 0081 D2       		.byte	-46
 566 0082 30       		.byte	48
 567 0083 6E       		.byte	110
 568 0084 ED       		.byte	-19
 569 0085 B3       		.byte	-77
 570 0086 51       		.byte	81
 571 0087 0F       		.byte	15
 572 0088 4E       		.byte	78
 573 0089 10       		.byte	16
 574 008a F2       		.byte	-14
 575 008b AC       		.byte	-84
 576 008c 2F       		.byte	47
 577 008d 71       		.byte	113
 578 008e 93       		.byte	-109
 579 008f CD       		.byte	-51
 580 0090 11       		.byte	17
 581 0091 4F       		.byte	79
 582 0092 AD       		.byte	-83
 583 0093 F3       		.byte	-13
 584 0094 70       		.byte	112
 585 0095 2E       		.byte	46
 586 0096 CC       		.byte	-52
 587 0097 92       		.byte	-110
 588 0098 D3       		.byte	-45
 589 0099 8D       		.byte	-115
 590 009a 6F       		.byte	111
 591 009b 31       		.byte	49
 592 009c B2       		.byte	-78
 593 009d EC       		.byte	-20
 594 009e 0E       		.byte	14
 595 009f 50       		.byte	80
 596 00a0 AF       		.byte	-81
 597 00a1 F1       		.byte	-15
 598 00a2 13       		.byte	19
 599 00a3 4D       		.byte	77
 600 00a4 CE       		.byte	-50
 601 00a5 90       		.byte	-112
 602 00a6 72       		.byte	114
 603 00a7 2C       		.byte	44
 604 00a8 6D       		.byte	109
 605 00a9 33       		.byte	51
 606 00aa D1       		.byte	-47
 607 00ab 8F       		.byte	-113
 608 00ac 0C       		.byte	12
 609 00ad 52       		.byte	82
 610 00ae B0       		.byte	-80
 611 00af EE       		.byte	-18
 612 00b0 32       		.byte	50
 613 00b1 6C       		.byte	108
 614 00b2 8E       		.byte	-114
ARM GAS  C:\Users\Diego\AppData\Local\Temp\cc84Hguj.s 			page 14


 615 00b3 D0       		.byte	-48
 616 00b4 53       		.byte	83
 617 00b5 0D       		.byte	13
 618 00b6 EF       		.byte	-17
 619 00b7 B1       		.byte	-79
 620 00b8 F0       		.byte	-16
 621 00b9 AE       		.byte	-82
 622 00ba 4C       		.byte	76
 623 00bb 12       		.byte	18
 624 00bc 91       		.byte	-111
 625 00bd CF       		.byte	-49
 626 00be 2D       		.byte	45
 627 00bf 73       		.byte	115
 628 00c0 CA       		.byte	-54
 629 00c1 94       		.byte	-108
 630 00c2 76       		.byte	118
 631 00c3 28       		.byte	40
 632 00c4 AB       		.byte	-85
 633 00c5 F5       		.byte	-11
 634 00c6 17       		.byte	23
 635 00c7 49       		.byte	73
 636 00c8 08       		.byte	8
 637 00c9 56       		.byte	86
 638 00ca B4       		.byte	-76
 639 00cb EA       		.byte	-22
 640 00cc 69       		.byte	105
 641 00cd 37       		.byte	55
 642 00ce D5       		.byte	-43
 643 00cf 8B       		.byte	-117
 644 00d0 57       		.byte	87
 645 00d1 09       		.byte	9
 646 00d2 EB       		.byte	-21
 647 00d3 B5       		.byte	-75
 648 00d4 36       		.byte	54
 649 00d5 68       		.byte	104
 650 00d6 8A       		.byte	-118
 651 00d7 D4       		.byte	-44
 652 00d8 95       		.byte	-107
 653 00d9 CB       		.byte	-53
 654 00da 29       		.byte	41
 655 00db 77       		.byte	119
 656 00dc F4       		.byte	-12
 657 00dd AA       		.byte	-86
 658 00de 48       		.byte	72
 659 00df 16       		.byte	22
 660 00e0 E9       		.byte	-23
 661 00e1 B7       		.byte	-73
 662 00e2 55       		.byte	85
 663 00e3 0B       		.byte	11
 664 00e4 88       		.byte	-120
 665 00e5 D6       		.byte	-42
 666 00e6 34       		.byte	52
 667 00e7 6A       		.byte	106
 668 00e8 2B       		.byte	43
 669 00e9 75       		.byte	117
 670 00ea 97       		.byte	-105
 671 00eb C9       		.byte	-55
ARM GAS  C:\Users\Diego\AppData\Local\Temp\cc84Hguj.s 			page 15


 672 00ec 4A       		.byte	74
 673 00ed 14       		.byte	20
 674 00ee F6       		.byte	-10
 675 00ef A8       		.byte	-88
 676 00f0 74       		.byte	116
 677 00f1 2A       		.byte	42
 678 00f2 C8       		.byte	-56
 679 00f3 96       		.byte	-106
 680 00f4 15       		.byte	21
 681 00f5 4B       		.byte	75
 682 00f6 A9       		.byte	-87
 683 00f7 F7       		.byte	-9
 684 00f8 B6       		.byte	-74
 685 00f9 E8       		.byte	-24
 686 00fa 0A       		.byte	10
 687 00fb 54       		.byte	84
 688 00fc D7       		.byte	-41
 689 00fd 89       		.byte	-119
 690 00fe 6B       		.byte	107
 691 00ff 35       		.byte	53
 692              		.text
 693              	.Letext0:
 694              		.file 2 "c:\\program files (x86)\\cypress\\psoc creator\\3.3\\psoc creator\\import\\gnu\\arm\\4.9.
 695              		.file 3 "c:\\program files (x86)\\cypress\\psoc creator\\3.3\\psoc creator\\import\\gnu\\arm\\4.9.
 696              		.file 4 "Generated_Source\\PSoC5/cytypes.h"
 697              		.file 5 "./variables.h"
 698              		.file 6 "Generated_Source\\PSoC5/core_cm3.h"
 699              		.file 7 "Generated_Source\\PSoC5/RF_Connection.h"
 700              		.section	.debug_info,"",%progbits
 701              	.Ldebug_info0:
 702 0000 810B0000 		.4byte	0xb81
 703 0004 0400     		.2byte	0x4
 704 0006 00000000 		.4byte	.Ldebug_abbrev0
 705 000a 04       		.byte	0x4
 706 000b 01       		.uleb128 0x1
 707 000c 70060000 		.4byte	.LASF153
 708 0010 01       		.byte	0x1
 709 0011 4F030000 		.4byte	.LASF154
 710 0015 2D040000 		.4byte	.LASF155
 711 0019 00000000 		.4byte	.Ldebug_ranges0+0
 712 001d 00000000 		.4byte	0
 713 0021 00000000 		.4byte	.Ldebug_line0
 714 0025 02       		.uleb128 0x2
 715 0026 01       		.byte	0x1
 716 0027 06       		.byte	0x6
 717 0028 49070000 		.4byte	.LASF0
 718 002c 02       		.uleb128 0x2
 719 002d 01       		.byte	0x1
 720 002e 08       		.byte	0x8
 721 002f 62060000 		.4byte	.LASF1
 722 0033 02       		.uleb128 0x2
 723 0034 02       		.byte	0x2
 724 0035 05       		.byte	0x5
 725 0036 02050000 		.4byte	.LASF2
 726 003a 02       		.uleb128 0x2
 727 003b 02       		.byte	0x2
 728 003c 07       		.byte	0x7
ARM GAS  C:\Users\Diego\AppData\Local\Temp\cc84Hguj.s 			page 16


 729 003d 65070000 		.4byte	.LASF3
 730 0041 03       		.uleb128 0x3
 731 0042 C7000000 		.4byte	.LASF9
 732 0046 02       		.byte	0x2
 733 0047 3F       		.byte	0x3f
 734 0048 4C000000 		.4byte	0x4c
 735 004c 02       		.uleb128 0x2
 736 004d 04       		.byte	0x4
 737 004e 05       		.byte	0x5
 738 004f 0C050000 		.4byte	.LASF4
 739 0053 02       		.uleb128 0x2
 740 0054 04       		.byte	0x4
 741 0055 07       		.byte	0x7
 742 0056 1A060000 		.4byte	.LASF5
 743 005a 02       		.uleb128 0x2
 744 005b 08       		.byte	0x8
 745 005c 05       		.byte	0x5
 746 005d 88030000 		.4byte	.LASF6
 747 0061 02       		.uleb128 0x2
 748 0062 08       		.byte	0x8
 749 0063 07       		.byte	0x7
 750 0064 79010000 		.4byte	.LASF7
 751 0068 04       		.uleb128 0x4
 752 0069 04       		.byte	0x4
 753 006a 05       		.byte	0x5
 754 006b 696E7400 		.ascii	"int\000"
 755 006f 02       		.uleb128 0x2
 756 0070 04       		.byte	0x4
 757 0071 07       		.byte	0x7
 758 0072 AE000000 		.4byte	.LASF8
 759 0076 03       		.uleb128 0x3
 760 0077 48060000 		.4byte	.LASF10
 761 007b 03       		.byte	0x3
 762 007c 2C       		.byte	0x2c
 763 007d 41000000 		.4byte	0x41
 764 0081 05       		.uleb128 0x5
 765 0082 95070000 		.4byte	.LASF11
 766 0086 04       		.byte	0x4
 767 0087 3801     		.2byte	0x138
 768 0089 2C000000 		.4byte	0x2c
 769 008d 05       		.uleb128 0x5
 770 008e 12030000 		.4byte	.LASF12
 771 0092 04       		.byte	0x4
 772 0093 3901     		.2byte	0x139
 773 0095 3A000000 		.4byte	0x3a
 774 0099 05       		.uleb128 0x5
 775 009a 19040000 		.4byte	.LASF13
 776 009e 04       		.byte	0x4
 777 009f 3A01     		.2byte	0x13a
 778 00a1 53000000 		.4byte	0x53
 779 00a5 02       		.uleb128 0x2
 780 00a6 04       		.byte	0x4
 781 00a7 04       		.byte	0x4
 782 00a8 47010000 		.4byte	.LASF14
 783 00ac 02       		.uleb128 0x2
 784 00ad 08       		.byte	0x8
 785 00ae 04       		.byte	0x4
ARM GAS  C:\Users\Diego\AppData\Local\Temp\cc84Hguj.s 			page 17


 786 00af 9B070000 		.4byte	.LASF15
 787 00b3 05       		.uleb128 0x5
 788 00b4 D9050000 		.4byte	.LASF16
 789 00b8 04       		.byte	0x4
 790 00b9 4401     		.2byte	0x144
 791 00bb 61000000 		.4byte	0x61
 792 00bf 05       		.uleb128 0x5
 793 00c0 2A030000 		.4byte	.LASF17
 794 00c4 04       		.byte	0x4
 795 00c5 4901     		.2byte	0x149
 796 00c7 CB000000 		.4byte	0xcb
 797 00cb 02       		.uleb128 0x2
 798 00cc 01       		.byte	0x1
 799 00cd 08       		.byte	0x8
 800 00ce BA020000 		.4byte	.LASF18
 801 00d2 06       		.uleb128 0x6
 802 00d3 81000000 		.4byte	0x81
 803 00d7 06       		.uleb128 0x6
 804 00d8 99000000 		.4byte	0x99
 805 00dc 02       		.uleb128 0x2
 806 00dd 04       		.byte	0x4
 807 00de 07       		.byte	0x7
 808 00df 11060000 		.4byte	.LASF19
 809 00e3 07       		.uleb128 0x7
 810 00e4 04       		.byte	0x4
 811 00e5 08       		.uleb128 0x8
 812 00e6 81000000 		.4byte	0x81
 813 00ea F5000000 		.4byte	0xf5
 814 00ee 09       		.uleb128 0x9
 815 00ef DC000000 		.4byte	0xdc
 816 00f3 03       		.byte	0x3
 817 00f4 00       		.byte	0
 818 00f5 0A       		.uleb128 0xa
 819 00f6 84000000 		.4byte	.LASF62
 820 00fa 4C01     		.2byte	0x14c
 821 00fc 05       		.byte	0x5
 822 00fd 6D       		.byte	0x6d
 823 00fe 09030000 		.4byte	0x309
 824 0102 0B       		.uleb128 0xb
 825 0103 E8000000 		.4byte	.LASF20
 826 0107 05       		.byte	0x5
 827 0108 6E       		.byte	0x6e
 828 0109 81000000 		.4byte	0x81
 829 010d 00       		.byte	0
 830 010e 0B       		.uleb128 0xb
 831 010f 14020000 		.4byte	.LASF21
 832 0113 05       		.byte	0x5
 833 0114 6F       		.byte	0x6f
 834 0115 09030000 		.4byte	0x309
 835 0119 01       		.byte	0x1
 836 011a 0B       		.uleb128 0xb
 837 011b A2070000 		.4byte	.LASF22
 838 011f 05       		.byte	0x5
 839 0120 70       		.byte	0x70
 840 0121 81000000 		.4byte	0x81
 841 0125 1A       		.byte	0x1a
 842 0126 0B       		.uleb128 0xb
ARM GAS  C:\Users\Diego\AppData\Local\Temp\cc84Hguj.s 			page 18


 843 0127 50060000 		.4byte	.LASF23
 844 012b 05       		.byte	0x5
 845 012c 71       		.byte	0x71
 846 012d 81000000 		.4byte	0x81
 847 0131 1B       		.byte	0x1b
 848 0132 0B       		.uleb128 0xb
 849 0133 05010000 		.4byte	.LASF24
 850 0137 05       		.byte	0x5
 851 0138 72       		.byte	0x72
 852 0139 19030000 		.4byte	0x319
 853 013d 1C       		.byte	0x1c
 854 013e 0B       		.uleb128 0xb
 855 013f B3040000 		.4byte	.LASF25
 856 0143 05       		.byte	0x5
 857 0144 73       		.byte	0x73
 858 0145 19030000 		.4byte	0x319
 859 0149 26       		.byte	0x26
 860 014a 0B       		.uleb128 0xb
 861 014b C8070000 		.4byte	.LASF26
 862 014f 05       		.byte	0x5
 863 0150 74       		.byte	0x74
 864 0151 09030000 		.4byte	0x309
 865 0155 30       		.byte	0x30
 866 0156 0B       		.uleb128 0xb
 867 0157 7D040000 		.4byte	.LASF27
 868 015b 05       		.byte	0x5
 869 015c 75       		.byte	0x75
 870 015d 81000000 		.4byte	0x81
 871 0161 49       		.byte	0x49
 872 0162 0B       		.uleb128 0xb
 873 0163 FE060000 		.4byte	.LASF28
 874 0167 05       		.byte	0x5
 875 0168 76       		.byte	0x76
 876 0169 81000000 		.4byte	0x81
 877 016d 4A       		.byte	0x4a
 878 016e 0B       		.uleb128 0xb
 879 016f B0020000 		.4byte	.LASF29
 880 0173 05       		.byte	0x5
 881 0174 77       		.byte	0x77
 882 0175 29030000 		.4byte	0x329
 883 0179 4B       		.byte	0x4b
 884 017a 0B       		.uleb128 0xb
 885 017b FB030000 		.4byte	.LASF30
 886 017f 05       		.byte	0x5
 887 0180 78       		.byte	0x78
 888 0181 81000000 		.4byte	0x81
 889 0185 60       		.byte	0x60
 890 0186 0B       		.uleb128 0xb
 891 0187 A7020000 		.4byte	.LASF31
 892 018b 05       		.byte	0x5
 893 018c 79       		.byte	0x79
 894 018d 81000000 		.4byte	0x81
 895 0191 61       		.byte	0x61
 896 0192 0B       		.uleb128 0xb
 897 0193 A2000000 		.4byte	.LASF32
 898 0197 05       		.byte	0x5
 899 0198 7A       		.byte	0x7a
ARM GAS  C:\Users\Diego\AppData\Local\Temp\cc84Hguj.s 			page 19


 900 0199 81000000 		.4byte	0x81
 901 019d 62       		.byte	0x62
 902 019e 0B       		.uleb128 0xb
 903 019f 25070000 		.4byte	.LASF33
 904 01a3 05       		.byte	0x5
 905 01a4 7B       		.byte	0x7b
 906 01a5 39030000 		.4byte	0x339
 907 01a9 63       		.byte	0x63
 908 01aa 0B       		.uleb128 0xb
 909 01ab 90020000 		.4byte	.LASF34
 910 01af 05       		.byte	0x5
 911 01b0 7C       		.byte	0x7c
 912 01b1 49030000 		.4byte	0x349
 913 01b5 65       		.byte	0x65
 914 01b6 0B       		.uleb128 0xb
 915 01b7 F1010000 		.4byte	.LASF35
 916 01bb 05       		.byte	0x5
 917 01bc 7D       		.byte	0x7d
 918 01bd 81000000 		.4byte	0x81
 919 01c1 79       		.byte	0x79
 920 01c2 0B       		.uleb128 0xb
 921 01c3 FC050000 		.4byte	.LASF36
 922 01c7 05       		.byte	0x5
 923 01c8 7E       		.byte	0x7e
 924 01c9 5F030000 		.4byte	0x35f
 925 01cd 7A       		.byte	0x7a
 926 01ce 0B       		.uleb128 0xb
 927 01cf 5D050000 		.4byte	.LASF37
 928 01d3 05       		.byte	0x5
 929 01d4 7F       		.byte	0x7f
 930 01d5 6F030000 		.4byte	0x36f
 931 01d9 7F       		.byte	0x7f
 932 01da 0B       		.uleb128 0xb
 933 01db AB070000 		.4byte	.LASF38
 934 01df 05       		.byte	0x5
 935 01e0 80       		.byte	0x80
 936 01e1 6F030000 		.4byte	0x36f
 937 01e5 85       		.byte	0x85
 938 01e6 0B       		.uleb128 0xb
 939 01e7 95040000 		.4byte	.LASF39
 940 01eb 05       		.byte	0x5
 941 01ec 81       		.byte	0x81
 942 01ed 7F030000 		.4byte	0x37f
 943 01f1 8B       		.byte	0x8b
 944 01f2 0B       		.uleb128 0xb
 945 01f3 90010000 		.4byte	.LASF40
 946 01f7 05       		.byte	0x5
 947 01f8 82       		.byte	0x82
 948 01f9 7F030000 		.4byte	0x37f
 949 01fd 99       		.byte	0x99
 950 01fe 0B       		.uleb128 0xb
 951 01ff CB030000 		.4byte	.LASF41
 952 0203 05       		.byte	0x5
 953 0204 83       		.byte	0x83
 954 0205 7F030000 		.4byte	0x37f
 955 0209 A7       		.byte	0xa7
 956 020a 0B       		.uleb128 0xb
ARM GAS  C:\Users\Diego\AppData\Local\Temp\cc84Hguj.s 			page 20


 957 020b 3F030000 		.4byte	.LASF42
 958 020f 05       		.byte	0x5
 959 0210 84       		.byte	0x84
 960 0211 7F030000 		.4byte	0x37f
 961 0215 B5       		.byte	0xb5
 962 0216 0B       		.uleb128 0xb
 963 0217 BF050000 		.4byte	.LASF43
 964 021b 05       		.byte	0x5
 965 021c 85       		.byte	0x85
 966 021d 7F030000 		.4byte	0x37f
 967 0221 C3       		.byte	0xc3
 968 0222 0B       		.uleb128 0xb
 969 0223 6F040000 		.4byte	.LASF44
 970 0227 05       		.byte	0x5
 971 0228 86       		.byte	0x86
 972 0229 7F030000 		.4byte	0x37f
 973 022d D1       		.byte	0xd1
 974 022e 0B       		.uleb128 0xb
 975 022f E9040000 		.4byte	.LASF45
 976 0233 05       		.byte	0x5
 977 0234 87       		.byte	0x87
 978 0235 8F030000 		.4byte	0x38f
 979 0239 DF       		.byte	0xdf
 980 023a 0B       		.uleb128 0xb
 981 023b 26020000 		.4byte	.LASF46
 982 023f 05       		.byte	0x5
 983 0240 88       		.byte	0x88
 984 0241 8F030000 		.4byte	0x38f
 985 0245 EA       		.byte	0xea
 986 0246 0B       		.uleb128 0xb
 987 0247 9C020000 		.4byte	.LASF47
 988 024b 05       		.byte	0x5
 989 024c 89       		.byte	0x89
 990 024d 8F030000 		.4byte	0x38f
 991 0251 F5       		.byte	0xf5
 992 0252 0C       		.uleb128 0xc
 993 0253 07040000 		.4byte	.LASF48
 994 0257 05       		.byte	0x5
 995 0258 8A       		.byte	0x8a
 996 0259 81000000 		.4byte	0x81
 997 025d 0001     		.2byte	0x100
 998 025f 0C       		.uleb128 0xc
 999 0260 1E030000 		.4byte	.LASF49
 1000 0264 05       		.byte	0x5
 1001 0265 8B       		.byte	0x8b
 1002 0266 81000000 		.4byte	0x81
 1003 026a 0101     		.2byte	0x101
 1004 026c 0C       		.uleb128 0xc
 1005 026d D1000000 		.4byte	.LASF50
 1006 0271 05       		.byte	0x5
 1007 0272 8C       		.byte	0x8c
 1008 0273 81000000 		.4byte	0x81
 1009 0277 0201     		.2byte	0x102
 1010 0279 0C       		.uleb128 0xc
 1011 027a 51050000 		.4byte	.LASF51
 1012 027e 05       		.byte	0x5
 1013 027f 8D       		.byte	0x8d
ARM GAS  C:\Users\Diego\AppData\Local\Temp\cc84Hguj.s 			page 21


 1014 0280 81000000 		.4byte	0x81
 1015 0284 0301     		.2byte	0x103
 1016 0286 0C       		.uleb128 0xc
 1017 0287 5A030000 		.4byte	.LASF52
 1018 028b 05       		.byte	0x5
 1019 028c 8E       		.byte	0x8e
 1020 028d 19030000 		.4byte	0x319
 1021 0291 0401     		.2byte	0x104
 1022 0293 0C       		.uleb128 0xc
 1023 0294 6E000000 		.4byte	.LASF53
 1024 0298 05       		.byte	0x5
 1025 0299 8F       		.byte	0x8f
 1026 029a 19030000 		.4byte	0x319
 1027 029e 0E01     		.2byte	0x10e
 1028 02a0 0C       		.uleb128 0xc
 1029 02a1 30030000 		.4byte	.LASF54
 1030 02a5 05       		.byte	0x5
 1031 02a6 90       		.byte	0x90
 1032 02a7 19030000 		.4byte	0x319
 1033 02ab 1801     		.2byte	0x118
 1034 02ad 0C       		.uleb128 0xc
 1035 02ae F5040000 		.4byte	.LASF55
 1036 02b2 05       		.byte	0x5
 1037 02b3 91       		.byte	0x91
 1038 02b4 9F030000 		.4byte	0x39f
 1039 02b8 2201     		.2byte	0x122
 1040 02ba 0C       		.uleb128 0xc
 1041 02bb 65030000 		.4byte	.LASF56
 1042 02bf 05       		.byte	0x5
 1043 02c0 92       		.byte	0x92
 1044 02c1 39030000 		.4byte	0x339
 1045 02c5 3101     		.2byte	0x131
 1046 02c7 0C       		.uleb128 0xc
 1047 02c8 32020000 		.4byte	.LASF57
 1048 02cc 05       		.byte	0x5
 1049 02cd 93       		.byte	0x93
 1050 02ce 81000000 		.4byte	0x81
 1051 02d2 3301     		.2byte	0x133
 1052 02d4 0C       		.uleb128 0xc
 1053 02d5 3E060000 		.4byte	.LASF58
 1054 02d9 05       		.byte	0x5
 1055 02da 94       		.byte	0x94
 1056 02db 81000000 		.4byte	0x81
 1057 02df 3401     		.2byte	0x134
 1058 02e1 0C       		.uleb128 0xc
 1059 02e2 40020000 		.4byte	.LASF59
 1060 02e6 05       		.byte	0x5
 1061 02e7 95       		.byte	0x95
 1062 02e8 81000000 		.4byte	0x81
 1063 02ec 3501     		.2byte	0x135
 1064 02ee 0C       		.uleb128 0xc
 1065 02ef 3C050000 		.4byte	.LASF60
 1066 02f3 05       		.byte	0x5
 1067 02f4 96       		.byte	0x96
 1068 02f5 8F030000 		.4byte	0x38f
 1069 02f9 3601     		.2byte	0x136
 1070 02fb 0C       		.uleb128 0xc
ARM GAS  C:\Users\Diego\AppData\Local\Temp\cc84Hguj.s 			page 22


 1071 02fc 3B070000 		.4byte	.LASF61
 1072 0300 05       		.byte	0x5
 1073 0301 97       		.byte	0x97
 1074 0302 8F030000 		.4byte	0x38f
 1075 0306 4101     		.2byte	0x141
 1076 0308 00       		.byte	0
 1077 0309 08       		.uleb128 0x8
 1078 030a 81000000 		.4byte	0x81
 1079 030e 19030000 		.4byte	0x319
 1080 0312 09       		.uleb128 0x9
 1081 0313 DC000000 		.4byte	0xdc
 1082 0317 18       		.byte	0x18
 1083 0318 00       		.byte	0
 1084 0319 08       		.uleb128 0x8
 1085 031a 81000000 		.4byte	0x81
 1086 031e 29030000 		.4byte	0x329
 1087 0322 09       		.uleb128 0x9
 1088 0323 DC000000 		.4byte	0xdc
 1089 0327 09       		.byte	0x9
 1090 0328 00       		.byte	0
 1091 0329 08       		.uleb128 0x8
 1092 032a 81000000 		.4byte	0x81
 1093 032e 39030000 		.4byte	0x339
 1094 0332 09       		.uleb128 0x9
 1095 0333 DC000000 		.4byte	0xdc
 1096 0337 14       		.byte	0x14
 1097 0338 00       		.byte	0
 1098 0339 08       		.uleb128 0x8
 1099 033a 81000000 		.4byte	0x81
 1100 033e 49030000 		.4byte	0x349
 1101 0342 09       		.uleb128 0x9
 1102 0343 DC000000 		.4byte	0xdc
 1103 0347 01       		.byte	0x1
 1104 0348 00       		.byte	0
 1105 0349 08       		.uleb128 0x8
 1106 034a 81000000 		.4byte	0x81
 1107 034e 5F030000 		.4byte	0x35f
 1108 0352 09       		.uleb128 0x9
 1109 0353 DC000000 		.4byte	0xdc
 1110 0357 01       		.byte	0x1
 1111 0358 09       		.uleb128 0x9
 1112 0359 DC000000 		.4byte	0xdc
 1113 035d 09       		.byte	0x9
 1114 035e 00       		.byte	0
 1115 035f 08       		.uleb128 0x8
 1116 0360 81000000 		.4byte	0x81
 1117 0364 6F030000 		.4byte	0x36f
 1118 0368 09       		.uleb128 0x9
 1119 0369 DC000000 		.4byte	0xdc
 1120 036d 04       		.byte	0x4
 1121 036e 00       		.byte	0
 1122 036f 08       		.uleb128 0x8
 1123 0370 81000000 		.4byte	0x81
 1124 0374 7F030000 		.4byte	0x37f
 1125 0378 09       		.uleb128 0x9
 1126 0379 DC000000 		.4byte	0xdc
 1127 037d 05       		.byte	0x5
ARM GAS  C:\Users\Diego\AppData\Local\Temp\cc84Hguj.s 			page 23


 1128 037e 00       		.byte	0
 1129 037f 08       		.uleb128 0x8
 1130 0380 81000000 		.4byte	0x81
 1131 0384 8F030000 		.4byte	0x38f
 1132 0388 09       		.uleb128 0x9
 1133 0389 DC000000 		.4byte	0xdc
 1134 038d 0D       		.byte	0xd
 1135 038e 00       		.byte	0
 1136 038f 08       		.uleb128 0x8
 1137 0390 81000000 		.4byte	0x81
 1138 0394 9F030000 		.4byte	0x39f
 1139 0398 09       		.uleb128 0x9
 1140 0399 DC000000 		.4byte	0xdc
 1141 039d 0A       		.byte	0xa
 1142 039e 00       		.byte	0
 1143 039f 08       		.uleb128 0x8
 1144 03a0 81000000 		.4byte	0x81
 1145 03a4 AF030000 		.4byte	0x3af
 1146 03a8 09       		.uleb128 0x9
 1147 03a9 DC000000 		.4byte	0xdc
 1148 03ad 0E       		.byte	0xe
 1149 03ae 00       		.byte	0
 1150 03af 0A       		.uleb128 0xa
 1151 03b0 DB070000 		.4byte	.LASF63
 1152 03b4 0301     		.2byte	0x103
 1153 03b6 05       		.byte	0x5
 1154 03b7 A8       		.byte	0xa8
 1155 03b8 38040000 		.4byte	0x438
 1156 03bc 0D       		.uleb128 0xd
 1157 03bd 64697200 		.ascii	"dir\000"
 1158 03c1 05       		.byte	0x5
 1159 03c2 A9       		.byte	0xa9
 1160 03c3 81000000 		.4byte	0x81
 1161 03c7 00       		.byte	0
 1162 03c8 0B       		.uleb128 0xb
 1163 03c9 83020000 		.4byte	.LASF64
 1164 03cd 05       		.byte	0x5
 1165 03ce AA       		.byte	0xaa
 1166 03cf 38040000 		.4byte	0x438
 1167 03d3 01       		.byte	0x1
 1168 03d4 0B       		.uleb128 0xb
 1169 03d5 BA070000 		.4byte	.LASF65
 1170 03d9 05       		.byte	0x5
 1171 03da AB       		.byte	0xab
 1172 03db 54040000 		.4byte	0x454
 1173 03df B5       		.byte	0xb5
 1174 03e0 0B       		.uleb128 0xb
 1175 03e1 7E030000 		.4byte	.LASF66
 1176 03e5 05       		.byte	0x5
 1177 03e6 AC       		.byte	0xac
 1178 03e7 7F030000 		.4byte	0x37f
 1179 03eb D5       		.byte	0xd5
 1180 03ec 0B       		.uleb128 0xb
 1181 03ed 30070000 		.4byte	.LASF67
 1182 03f1 05       		.byte	0x5
 1183 03f2 AD       		.byte	0xad
 1184 03f3 7F030000 		.4byte	0x37f
ARM GAS  C:\Users\Diego\AppData\Local\Temp\cc84Hguj.s 			page 24


 1185 03f7 E3       		.byte	0xe3
 1186 03f8 0B       		.uleb128 0xb
 1187 03f9 96030000 		.4byte	.LASF68
 1188 03fd 05       		.byte	0x5
 1189 03fe AE       		.byte	0xae
 1190 03ff 7F030000 		.4byte	0x37f
 1191 0403 F1       		.byte	0xf1
 1192 0404 0B       		.uleb128 0xb
 1193 0405 89070000 		.4byte	.LASF69
 1194 0409 05       		.byte	0x5
 1195 040a AF       		.byte	0xaf
 1196 040b 81000000 		.4byte	0x81
 1197 040f FF       		.byte	0xff
 1198 0410 0C       		.uleb128 0xc
 1199 0411 33060000 		.4byte	.LASF70
 1200 0415 05       		.byte	0x5
 1201 0416 B0       		.byte	0xb0
 1202 0417 81000000 		.4byte	0x81
 1203 041b 0001     		.2byte	0x100
 1204 041d 0C       		.uleb128 0xc
 1205 041e 65010000 		.4byte	.LASF71
 1206 0422 05       		.byte	0x5
 1207 0423 B1       		.byte	0xb1
 1208 0424 81000000 		.4byte	0x81
 1209 0428 0101     		.2byte	0x101
 1210 042a 0C       		.uleb128 0xc
 1211 042b 6C050000 		.4byte	.LASF72
 1212 042f 05       		.byte	0x5
 1213 0430 B2       		.byte	0xb2
 1214 0431 81000000 		.4byte	0x81
 1215 0435 0201     		.2byte	0x102
 1216 0437 00       		.byte	0
 1217 0438 08       		.uleb128 0x8
 1218 0439 81000000 		.4byte	0x81
 1219 043d 54040000 		.4byte	0x454
 1220 0441 09       		.uleb128 0x9
 1221 0442 DC000000 		.4byte	0xdc
 1222 0446 03       		.byte	0x3
 1223 0447 09       		.uleb128 0x9
 1224 0448 DC000000 		.4byte	0xdc
 1225 044c 02       		.byte	0x2
 1226 044d 09       		.uleb128 0x9
 1227 044e DC000000 		.4byte	0xdc
 1228 0452 0E       		.byte	0xe
 1229 0453 00       		.byte	0
 1230 0454 08       		.uleb128 0x8
 1231 0455 81000000 		.4byte	0x81
 1232 0459 6A040000 		.4byte	0x46a
 1233 045d 09       		.uleb128 0x9
 1234 045e DC000000 		.4byte	0xdc
 1235 0462 03       		.byte	0x3
 1236 0463 09       		.uleb128 0x9
 1237 0464 DC000000 		.4byte	0xdc
 1238 0468 07       		.byte	0x7
 1239 0469 00       		.byte	0
 1240 046a 0A       		.uleb128 0xa
 1241 046b 10070000 		.4byte	.LASF73
ARM GAS  C:\Users\Diego\AppData\Local\Temp\cc84Hguj.s 			page 25


 1242 046f 0C04     		.2byte	0x40c
 1243 0471 05       		.byte	0x5
 1244 0472 B5       		.byte	0xb5
 1245 0473 A3040000 		.4byte	0x4a3
 1246 0477 0D       		.uleb128 0xd
 1247 0478 6100     		.ascii	"a\000"
 1248 047a 05       		.byte	0x5
 1249 047b B6       		.byte	0xb6
 1250 047c AF030000 		.4byte	0x3af
 1251 0480 00       		.byte	0
 1252 0481 0E       		.uleb128 0xe
 1253 0482 6200     		.ascii	"b\000"
 1254 0484 05       		.byte	0x5
 1255 0485 B7       		.byte	0xb7
 1256 0486 AF030000 		.4byte	0x3af
 1257 048a 0301     		.2byte	0x103
 1258 048c 0E       		.uleb128 0xe
 1259 048d 6300     		.ascii	"c\000"
 1260 048f 05       		.byte	0x5
 1261 0490 B8       		.byte	0xb8
 1262 0491 AF030000 		.4byte	0x3af
 1263 0495 0602     		.2byte	0x206
 1264 0497 0E       		.uleb128 0xe
 1265 0498 6400     		.ascii	"d\000"
 1266 049a 05       		.byte	0x5
 1267 049b B9       		.byte	0xb9
 1268 049c AF030000 		.4byte	0x3af
 1269 04a0 0903     		.2byte	0x309
 1270 04a2 00       		.byte	0
 1271 04a3 0F       		.uleb128 0xf
 1272 04a4 6E030000 		.4byte	.LASF156
 1273 04a8 01       		.byte	0x1
 1274 04a9 17       		.byte	0x17
 1275 04aa 81000000 		.4byte	0x81
 1276 04ae 00000000 		.4byte	.LFB63
 1277 04b2 34000000 		.4byte	.LFE63-.LFB63
 1278 04b6 01       		.uleb128 0x1
 1279 04b7 9C       		.byte	0x9c
 1280 04b8 35050000 		.4byte	0x535
 1281 04bc 10       		.uleb128 0x10
 1282 04bd 39030000 		.4byte	.LASF74
 1283 04c1 01       		.byte	0x1
 1284 04c2 17       		.byte	0x17
 1285 04c3 35050000 		.4byte	0x535
 1286 04c7 00000000 		.4byte	.LLST0
 1287 04cb 10       		.uleb128 0x10
 1288 04cc 14040000 		.4byte	.LASF75
 1289 04d0 01       		.byte	0x1
 1290 04d1 17       		.byte	0x17
 1291 04d2 8D000000 		.4byte	0x8d
 1292 04d6 2C000000 		.4byte	.LLST1
 1293 04da 11       		.uleb128 0x11
 1294 04db 4D010000 		.4byte	.LASF76
 1295 04df 01       		.byte	0x1
 1296 04e0 18       		.byte	0x18
 1297 04e1 81000000 		.4byte	0x81
 1298 04e5 4D000000 		.4byte	.LLST2
ARM GAS  C:\Users\Diego\AppData\Local\Temp\cc84Hguj.s 			page 26


 1299 04e9 11       		.uleb128 0x11
 1300 04ea 56010000 		.4byte	.LASF77
 1301 04ee 01       		.byte	0x1
 1302 04ef 18       		.byte	0x18
 1303 04f0 81000000 		.4byte	0x81
 1304 04f4 77000000 		.4byte	.LLST3
 1305 04f8 12       		.uleb128 0x12
 1306 04f9 6900     		.ascii	"i\000"
 1307 04fb 01       		.byte	0x1
 1308 04fc 19       		.byte	0x19
 1309 04fd 8D000000 		.4byte	0x8d
 1310 0501 8A000000 		.4byte	.LLST4
 1311 0505 13       		.uleb128 0x13
 1312 0506 F6020000 		.4byte	.LASF78
 1313 050a 01       		.byte	0x1
 1314 050b 1A       		.byte	0x1a
 1315 050c 3B050000 		.4byte	0x53b
 1316 0510 03       		.uleb128 0x3
 1317 0511 91       		.byte	0x91
 1318 0512 F07D     		.sleb128 -272
 1319 0514 14       		.uleb128 0x14
 1320 0515 14000000 		.4byte	.LVL3
 1321 0519 320B0000 		.4byte	0xb32
 1322 051d 15       		.uleb128 0x15
 1323 051e 01       		.uleb128 0x1
 1324 051f 52       		.byte	0x52
 1325 0520 03       		.uleb128 0x3
 1326 0521 0A       		.byte	0xa
 1327 0522 0001     		.2byte	0x100
 1328 0524 15       		.uleb128 0x15
 1329 0525 01       		.uleb128 0x1
 1330 0526 51       		.byte	0x51
 1331 0527 05       		.uleb128 0x5
 1332 0528 03       		.byte	0x3
 1333 0529 00000000 		.4byte	.LANCHOR0
 1334 052d 15       		.uleb128 0x15
 1335 052e 01       		.uleb128 0x1
 1336 052f 50       		.byte	0x50
 1337 0530 02       		.uleb128 0x2
 1338 0531 7D       		.byte	0x7d
 1339 0532 00       		.sleb128 0
 1340 0533 00       		.byte	0
 1341 0534 00       		.byte	0
 1342 0535 16       		.uleb128 0x16
 1343 0536 04       		.byte	0x4
 1344 0537 81000000 		.4byte	0x81
 1345 053b 08       		.uleb128 0x8
 1346 053c 81000000 		.4byte	0x81
 1347 0540 4B050000 		.4byte	0x54b
 1348 0544 09       		.uleb128 0x9
 1349 0545 DC000000 		.4byte	0xdc
 1350 0549 FF       		.byte	0xff
 1351 054a 00       		.byte	0
 1352 054b 17       		.uleb128 0x17
 1353 054c 29000000 		.4byte	.LASF157
 1354 0550 01       		.byte	0x1
 1355 0551 36       		.byte	0x36
ARM GAS  C:\Users\Diego\AppData\Local\Temp\cc84Hguj.s 			page 27


 1356 0552 00000000 		.4byte	.LFB64
 1357 0556 60010000 		.4byte	.LFE64-.LFB64
 1358 055a 01       		.uleb128 0x1
 1359 055b 9C       		.byte	0x9c
 1360 055c 2C060000 		.4byte	0x62c
 1361 0560 18       		.uleb128 0x18
 1362 0561 19000000 		.4byte	.LASF79
 1363 0565 01       		.byte	0x1
 1364 0566 37       		.byte	0x37
 1365 0567 8D000000 		.4byte	0x8d
 1366 056b 18       		.uleb128 0x18
 1367 056c 21000000 		.4byte	.LASF80
 1368 0570 01       		.byte	0x1
 1369 0571 37       		.byte	0x37
 1370 0572 8D000000 		.4byte	0x8d
 1371 0576 18       		.uleb128 0x18
 1372 0577 14040000 		.4byte	.LASF75
 1373 057b 01       		.byte	0x1
 1374 057c 37       		.byte	0x37
 1375 057d 8D000000 		.4byte	0x8d
 1376 0581 12       		.uleb128 0x12
 1377 0582 6900     		.ascii	"i\000"
 1378 0584 01       		.byte	0x1
 1379 0585 37       		.byte	0x37
 1380 0586 8D000000 		.4byte	0x8d
 1381 058a B4000000 		.4byte	.LLST5
 1382 058e 12       		.uleb128 0x12
 1383 058f 7800     		.ascii	"x\000"
 1384 0591 01       		.byte	0x1
 1385 0592 37       		.byte	0x37
 1386 0593 8D000000 		.4byte	0x8d
 1387 0597 E8000000 		.4byte	.LLST6
 1388 059b 19       		.uleb128 0x19
 1389 059c 7900     		.ascii	"y\000"
 1390 059e 01       		.byte	0x1
 1391 059f 37       		.byte	0x37
 1392 05a0 8D000000 		.4byte	0x8d
 1393 05a4 19       		.uleb128 0x19
 1394 05a5 7A00     		.ascii	"z\000"
 1395 05a7 01       		.byte	0x1
 1396 05a8 37       		.byte	0x37
 1397 05a9 8D000000 		.4byte	0x8d
 1398 05ad 19       		.uleb128 0x19
 1399 05ae 61757800 		.ascii	"aux\000"
 1400 05b2 01       		.byte	0x1
 1401 05b3 38       		.byte	0x38
 1402 05b4 9F030000 		.4byte	0x39f
 1403 05b8 18       		.uleb128 0x18
 1404 05b9 CD040000 		.4byte	.LASF81
 1405 05bd 01       		.byte	0x1
 1406 05be 38       		.byte	0x38
 1407 05bf 81000000 		.4byte	0x81
 1408 05c3 1A       		.uleb128 0x1a
 1409 05c4 06000000 		.4byte	.LVL10
 1410 05c8 560B0000 		.4byte	0xb56
 1411 05cc 1A       		.uleb128 0x1a
 1412 05cd 10000000 		.4byte	.LVL12
ARM GAS  C:\Users\Diego\AppData\Local\Temp\cc84Hguj.s 			page 28


 1413 05d1 610B0000 		.4byte	0xb61
 1414 05d5 1A       		.uleb128 0x1a
 1415 05d6 20000000 		.4byte	.LVL17
 1416 05da 560B0000 		.4byte	0xb56
 1417 05de 1B       		.uleb128 0x1b
 1418 05df 7C000000 		.4byte	.LVL19
 1419 05e3 A3040000 		.4byte	0x4a3
 1420 05e7 F7050000 		.4byte	0x5f7
 1421 05eb 15       		.uleb128 0x15
 1422 05ec 01       		.uleb128 0x1
 1423 05ed 51       		.byte	0x51
 1424 05ee 01       		.uleb128 0x1
 1425 05ef 39       		.byte	0x39
 1426 05f0 15       		.uleb128 0x15
 1427 05f1 01       		.uleb128 0x1
 1428 05f2 50       		.byte	0x50
 1429 05f3 02       		.uleb128 0x2
 1430 05f4 74       		.byte	0x74
 1431 05f5 00       		.sleb128 0
 1432 05f6 00       		.byte	0
 1433 05f7 1A       		.uleb128 0x1a
 1434 05f8 8A000000 		.4byte	.LVL22
 1435 05fc 6C0B0000 		.4byte	0xb6c
 1436 0600 1B       		.uleb128 0x1b
 1437 0601 20010000 		.4byte	.LVL38
 1438 0605 A3040000 		.4byte	0x4a3
 1439 0609 19060000 		.4byte	0x619
 1440 060d 15       		.uleb128 0x15
 1441 060e 01       		.uleb128 0x1
 1442 060f 51       		.byte	0x51
 1443 0610 01       		.uleb128 0x1
 1444 0611 3A       		.byte	0x3a
 1445 0612 15       		.uleb128 0x15
 1446 0613 01       		.uleb128 0x1
 1447 0614 50       		.byte	0x50
 1448 0615 02       		.uleb128 0x2
 1449 0616 74       		.byte	0x74
 1450 0617 00       		.sleb128 0
 1451 0618 00       		.byte	0
 1452 0619 1A       		.uleb128 0x1a
 1453 061a 2E010000 		.4byte	.LVL41
 1454 061e 6C0B0000 		.4byte	0xb6c
 1455 0622 1A       		.uleb128 0x1a
 1456 0623 3A010000 		.4byte	.LVL45
 1457 0627 7D0B0000 		.4byte	0xb7d
 1458 062b 00       		.byte	0
 1459 062c 1C       		.uleb128 0x1c
 1460 062d 24050000 		.4byte	.LASF82
 1461 0631 06       		.byte	0x6
 1462 0632 5506     		.2byte	0x655
 1463 0634 38060000 		.4byte	0x638
 1464 0638 06       		.uleb128 0x6
 1465 0639 76000000 		.4byte	0x76
 1466 063d 1D       		.uleb128 0x1d
 1467 063e 9E030000 		.4byte	.LASF83
 1468 0642 05       		.byte	0x5
 1469 0643 2C       		.byte	0x2c
ARM GAS  C:\Users\Diego\AppData\Local\Temp\cc84Hguj.s 			page 29


 1470 0644 4E060000 		.4byte	0x64e
 1471 0648 05       		.uleb128 0x5
 1472 0649 03       		.byte	0x3
 1473 064a 00000000 		.4byte	countAnimation1
 1474 064e 06       		.uleb128 0x6
 1475 064f B3000000 		.4byte	0xb3
 1476 0653 1D       		.uleb128 0x1d
 1477 0654 DC030000 		.4byte	.LASF84
 1478 0658 05       		.byte	0x5
 1479 0659 2D       		.byte	0x2d
 1480 065a 4E060000 		.4byte	0x64e
 1481 065e 05       		.uleb128 0x5
 1482 065f 03       		.byte	0x3
 1483 0660 00000000 		.4byte	countAnimation2
 1484 0664 1D       		.uleb128 0x1d
 1485 0665 E8020000 		.4byte	.LASF85
 1486 0669 05       		.byte	0x5
 1487 066a 2E       		.byte	0x2e
 1488 066b 4E060000 		.4byte	0x64e
 1489 066f 05       		.uleb128 0x5
 1490 0670 03       		.byte	0x3
 1491 0671 00000000 		.4byte	countBeagleTX
 1492 0675 1D       		.uleb128 0x1d
 1493 0676 78070000 		.4byte	.LASF86
 1494 067a 05       		.byte	0x5
 1495 067b 2F       		.byte	0x2f
 1496 067c 4E060000 		.4byte	0x64e
 1497 0680 05       		.uleb128 0x5
 1498 0681 03       		.byte	0x3
 1499 0682 00000000 		.4byte	countPump
 1500 0686 1D       		.uleb128 0x1d
 1501 0687 4F020000 		.4byte	.LASF87
 1502 068b 05       		.byte	0x5
 1503 068c 30       		.byte	0x30
 1504 068d D7000000 		.4byte	0xd7
 1505 0691 05       		.uleb128 0x5
 1506 0692 03       		.byte	0x3
 1507 0693 00000000 		.4byte	flowDisplay1
 1508 0697 1D       		.uleb128 0x1d
 1509 0698 5C020000 		.4byte	.LASF88
 1510 069c 05       		.byte	0x5
 1511 069d 31       		.byte	0x31
 1512 069e D7000000 		.4byte	0xd7
 1513 06a2 05       		.uleb128 0x5
 1514 06a3 03       		.byte	0x3
 1515 06a4 00000000 		.4byte	flowDisplay2
 1516 06a8 1D       		.uleb128 0x1d
 1517 06a9 69020000 		.4byte	.LASF89
 1518 06ad 05       		.byte	0x5
 1519 06ae 32       		.byte	0x32
 1520 06af D7000000 		.4byte	0xd7
 1521 06b3 05       		.uleb128 0x5
 1522 06b4 03       		.byte	0x3
 1523 06b5 00000000 		.4byte	flowDisplay3
 1524 06b9 1D       		.uleb128 0x1d
 1525 06ba 76020000 		.4byte	.LASF90
 1526 06be 05       		.byte	0x5
ARM GAS  C:\Users\Diego\AppData\Local\Temp\cc84Hguj.s 			page 30


 1527 06bf 33       		.byte	0x33
 1528 06c0 D7000000 		.4byte	0xd7
 1529 06c4 05       		.uleb128 0x5
 1530 06c5 03       		.byte	0x3
 1531 06c6 00000000 		.4byte	flowDisplay4
 1532 06ca 1D       		.uleb128 0x1d
 1533 06cb D0020000 		.4byte	.LASF91
 1534 06cf 05       		.byte	0x5
 1535 06d0 34       		.byte	0x34
 1536 06d1 D2000000 		.4byte	0xd2
 1537 06d5 05       		.uleb128 0x5
 1538 06d6 03       		.byte	0x3
 1539 06d7 00000000 		.4byte	numberKeys1
 1540 06db 1D       		.uleb128 0x1d
 1541 06dc DC020000 		.4byte	.LASF92
 1542 06e0 05       		.byte	0x5
 1543 06e1 35       		.byte	0x35
 1544 06e2 D2000000 		.4byte	0xd2
 1545 06e6 05       		.uleb128 0x5
 1546 06e7 03       		.byte	0x3
 1547 06e8 00000000 		.4byte	numberKeys2
 1548 06ec 1D       		.uleb128 0x1d
 1549 06ed A8040000 		.4byte	.LASF93
 1550 06f1 05       		.byte	0x5
 1551 06f2 36       		.byte	0x36
 1552 06f3 D2000000 		.4byte	0xd2
 1553 06f7 05       		.uleb128 0x5
 1554 06f8 03       		.byte	0x3
 1555 06f9 00000000 		.4byte	flagPoint1
 1556 06fd 1D       		.uleb128 0x1d
 1557 06fe 12010000 		.4byte	.LASF94
 1558 0702 05       		.byte	0x5
 1559 0703 37       		.byte	0x37
 1560 0704 D2000000 		.4byte	0xd2
 1561 0708 05       		.uleb128 0x5
 1562 0709 03       		.byte	0x3
 1563 070a 00000000 		.4byte	flagPoint2
 1564 070e 1D       		.uleb128 0x1d
 1565 070f FD010000 		.4byte	.LASF95
 1566 0713 05       		.byte	0x5
 1567 0714 38       		.byte	0x38
 1568 0715 D2000000 		.4byte	0xd2
 1569 0719 05       		.uleb128 0x5
 1570 071a 03       		.byte	0x3
 1571 071b 00000000 		.4byte	productNumber
 1572 071f 1D       		.uleb128 0x1d
 1573 0720 E0050000 		.4byte	.LASF96
 1574 0724 05       		.byte	0x5
 1575 0725 39       		.byte	0x39
 1576 0726 D7000000 		.4byte	0xd7
 1577 072a 05       		.uleb128 0x5
 1578 072b 03       		.byte	0x3
 1579 072c 00000000 		.4byte	delayPicture1
 1580 0730 1D       		.uleb128 0x1d
 1581 0731 EE050000 		.4byte	.LASF97
 1582 0735 05       		.byte	0x5
 1583 0736 3A       		.byte	0x3a
ARM GAS  C:\Users\Diego\AppData\Local\Temp\cc84Hguj.s 			page 31


 1584 0737 D7000000 		.4byte	0xd7
 1585 073b 05       		.uleb128 0x5
 1586 073c 03       		.byte	0x3
 1587 073d 00000000 		.4byte	delayPicture2
 1588 0741 1D       		.uleb128 0x1d
 1589 0742 8E040000 		.4byte	.LASF98
 1590 0746 05       		.byte	0x5
 1591 0747 3B       		.byte	0x3b
 1592 0748 D2000000 		.4byte	0xd2
 1593 074c 05       		.uleb128 0x5
 1594 074d 03       		.byte	0x3
 1595 074e 00000000 		.4byte	ppux10
 1596 0752 1D       		.uleb128 0x1d
 1597 0753 95000000 		.4byte	.LASF99
 1598 0757 05       		.byte	0x5
 1599 0758 3C       		.byte	0x3c
 1600 0759 D2000000 		.4byte	0xd2
 1601 075d 05       		.uleb128 0x5
 1602 075e 03       		.byte	0x3
 1603 075f 00000000 		.4byte	decimalMoney
 1604 0763 1D       		.uleb128 0x1d
 1605 0764 47000000 		.4byte	.LASF100
 1606 0768 05       		.byte	0x5
 1607 0769 3D       		.byte	0x3d
 1608 076a D2000000 		.4byte	0xd2
 1609 076e 05       		.uleb128 0x5
 1610 076f 03       		.byte	0x3
 1611 0770 00000000 		.4byte	decimalVolume
 1612 0774 1D       		.uleb128 0x1d
 1613 0775 C5040000 		.4byte	.LASF101
 1614 0779 05       		.byte	0x5
 1615 077a 3E       		.byte	0x3e
 1616 077b 85070000 		.4byte	0x785
 1617 077f 05       		.uleb128 0x5
 1618 0780 03       		.byte	0x3
 1619 0781 00000000 		.4byte	symbols
 1620 0785 06       		.uleb128 0x6
 1621 0786 39030000 		.4byte	0x339
 1622 078a 08       		.uleb128 0x8
 1623 078b 81000000 		.4byte	0x81
 1624 078f 9A070000 		.4byte	0x79a
 1625 0793 09       		.uleb128 0x9
 1626 0794 DC000000 		.4byte	0xdc
 1627 0798 02       		.byte	0x2
 1628 0799 00       		.byte	0
 1629 079a 1D       		.uleb128 0x1d
 1630 079b B8010000 		.4byte	.LASF102
 1631 079f 05       		.byte	0x5
 1632 07a0 3F       		.byte	0x3f
 1633 07a1 AB070000 		.4byte	0x7ab
 1634 07a5 05       		.uleb128 0x5
 1635 07a6 03       		.byte	0x3
 1636 07a7 00000000 		.4byte	time
 1637 07ab 06       		.uleb128 0x6
 1638 07ac 8A070000 		.4byte	0x78a
 1639 07b0 1D       		.uleb128 0x1d
 1640 07b1 19030000 		.4byte	.LASF103
ARM GAS  C:\Users\Diego\AppData\Local\Temp\cc84Hguj.s 			page 32


 1641 07b5 05       		.byte	0x5
 1642 07b6 40       		.byte	0x40
 1643 07b7 C1070000 		.4byte	0x7c1
 1644 07bb 05       		.uleb128 0x5
 1645 07bc 03       		.byte	0x3
 1646 07bd 00000000 		.4byte	date
 1647 07c1 06       		.uleb128 0x6
 1648 07c2 8A070000 		.4byte	0x78a
 1649 07c6 1D       		.uleb128 0x1d
 1650 07c7 1D010000 		.4byte	.LASF104
 1651 07cb 05       		.byte	0x5
 1652 07cc 41       		.byte	0x41
 1653 07cd D7070000 		.4byte	0x7d7
 1654 07d1 05       		.uleb128 0x5
 1655 07d2 03       		.byte	0x3
 1656 07d3 00000000 		.4byte	screen
 1657 07d7 06       		.uleb128 0x6
 1658 07d8 39030000 		.4byte	0x339
 1659 07dc 1D       		.uleb128 0x1d
 1660 07dd E0000000 		.4byte	.LASF105
 1661 07e1 05       		.byte	0x5
 1662 07e2 42       		.byte	0x42
 1663 07e3 ED070000 		.4byte	0x7ed
 1664 07e7 05       		.uleb128 0x5
 1665 07e8 03       		.byte	0x3
 1666 07e9 00000000 		.4byte	residue
 1667 07ed 06       		.uleb128 0x6
 1668 07ee 7F030000 		.4byte	0x37f
 1669 07f2 08       		.uleb128 0x8
 1670 07f3 81000000 		.4byte	0x81
 1671 07f7 02080000 		.4byte	0x802
 1672 07fb 09       		.uleb128 0x9
 1673 07fc DC000000 		.4byte	0xdc
 1674 0800 1D       		.byte	0x1d
 1675 0801 00       		.byte	0
 1676 0802 1D       		.uleb128 0x1d
 1677 0803 15070000 		.4byte	.LASF106
 1678 0807 05       		.byte	0x5
 1679 0808 43       		.byte	0x43
 1680 0809 F2070000 		.4byte	0x7f2
 1681 080d 05       		.uleb128 0x5
 1682 080e 03       		.byte	0x3
 1683 080f 00000000 		.4byte	temporal
 1684 0813 1D       		.uleb128 0x1d
 1685 0814 0B020000 		.4byte	.LASF107
 1686 0818 05       		.byte	0x5
 1687 0819 44       		.byte	0x44
 1688 081a 24080000 		.4byte	0x824
 1689 081e 05       		.uleb128 0x5
 1690 081f 03       		.byte	0x3
 1691 0820 00000000 		.4byte	idSeller
 1692 0824 06       		.uleb128 0x6
 1693 0825 09030000 		.4byte	0x309
 1694 0829 1D       		.uleb128 0x1d
 1695 082a 44050000 		.4byte	.LASF108
 1696 082e 05       		.byte	0x5
 1697 082f 45       		.byte	0x45
ARM GAS  C:\Users\Diego\AppData\Local\Temp\cc84Hguj.s 			page 33


 1698 0830 D2000000 		.4byte	0xd2
 1699 0834 05       		.uleb128 0x5
 1700 0835 03       		.byte	0x3
 1701 0836 00000000 		.4byte	typeIdSeller
 1702 083a 08       		.uleb128 0x8
 1703 083b 81000000 		.4byte	0x81
 1704 083f 4A080000 		.4byte	0x84a
 1705 0843 09       		.uleb128 0x9
 1706 0844 DC000000 		.4byte	0xdc
 1707 0848 07       		.byte	0x7
 1708 0849 00       		.byte	0
 1709 084a 1D       		.uleb128 0x1d
 1710 084b B0050000 		.4byte	.LASF109
 1711 084f 05       		.byte	0x5
 1712 0850 46       		.byte	0x46
 1713 0851 5B080000 		.4byte	0x85b
 1714 0855 05       		.uleb128 0x5
 1715 0856 03       		.byte	0x3
 1716 0857 00000000 		.4byte	passwordSeller
 1717 085b 06       		.uleb128 0x6
 1718 085c 3A080000 		.4byte	0x83a
 1719 0860 1D       		.uleb128 0x1d
 1720 0861 20040000 		.4byte	.LASF110
 1721 0865 05       		.byte	0x5
 1722 0866 47       		.byte	0x47
 1723 0867 D2000000 		.4byte	0xd2
 1724 086b 05       		.uleb128 0x5
 1725 086c 03       		.byte	0x3
 1726 086d 00000000 		.4byte	flagResetMux
 1727 0871 1D       		.uleb128 0x1d
 1728 0872 BB030000 		.4byte	.LASF111
 1729 0876 05       		.byte	0x5
 1730 0877 48       		.byte	0x48
 1731 0878 D2000000 		.4byte	0xd2
 1732 087c 05       		.uleb128 0x5
 1733 087d 03       		.byte	0x3
 1734 087e 00000000 		.4byte	stateBeagleSoft
 1735 0882 1D       		.uleb128 0x1d
 1736 0883 55000000 		.4byte	.LASF112
 1737 0887 05       		.byte	0x5
 1738 0888 49       		.byte	0x49
 1739 0889 93080000 		.4byte	0x893
 1740 088d 05       		.uleb128 0x5
 1741 088e 03       		.byte	0x3
 1742 088f 00000000 		.4byte	PrevStatePump
 1743 0893 06       		.uleb128 0x6
 1744 0894 E5000000 		.4byte	0xe5
 1745 0898 1D       		.uleb128 0x1d
 1746 0899 30010000 		.4byte	.LASF113
 1747 089d 05       		.byte	0x5
 1748 089e 4A       		.byte	0x4a
 1749 089f D2000000 		.4byte	0xd2
 1750 08a3 05       		.uleb128 0x5
 1751 08a4 03       		.byte	0x3
 1752 08a5 00000000 		.4byte	PlateRequest
 1753 08a9 1D       		.uleb128 0x1d
 1754 08aa 1D050000 		.4byte	.LASF114
ARM GAS  C:\Users\Diego\AppData\Local\Temp\cc84Hguj.s 			page 34


 1755 08ae 05       		.byte	0x5
 1756 08af 4B       		.byte	0x4b
 1757 08b0 BA080000 		.4byte	0x8ba
 1758 08b4 05       		.uleb128 0x5
 1759 08b5 03       		.byte	0x3
 1760 08b6 00000000 		.4byte	IDCast
 1761 08ba 06       		.uleb128 0x6
 1762 08bb 39030000 		.4byte	0x339
 1763 08bf 1D       		.uleb128 0x1d
 1764 08c0 D0050000 		.4byte	.LASF115
 1765 08c4 05       		.byte	0x5
 1766 08c5 4D       		.byte	0x4d
 1767 08c6 81000000 		.4byte	0x81
 1768 08ca 05       		.uleb128 0x5
 1769 08cb 03       		.byte	0x3
 1770 08cc 00000000 		.4byte	UnitType
 1771 08d0 1D       		.uleb128 0x1d
 1772 08d1 BF020000 		.4byte	.LASF116
 1773 08d5 05       		.byte	0x5
 1774 08d6 4D       		.byte	0x4d
 1775 08d7 81000000 		.4byte	0x81
 1776 08db 05       		.uleb128 0x5
 1777 08dc 03       		.byte	0x3
 1778 08dd 00000000 		.4byte	ConversionFactor
 1779 08e1 1D       		.uleb128 0x1d
 1780 08e2 5C010000 		.4byte	.LASF117
 1781 08e6 05       		.byte	0x5
 1782 08e7 4D       		.byte	0x4d
 1783 08e8 81000000 		.4byte	0x81
 1784 08ec 05       		.uleb128 0x5
 1785 08ed 03       		.byte	0x3
 1786 08ee 00000000 		.4byte	MoneyDec
 1787 08f2 1D       		.uleb128 0x1d
 1788 08f3 1E070000 		.4byte	.LASF118
 1789 08f7 05       		.byte	0x5
 1790 08f8 4D       		.byte	0x4d
 1791 08f9 81000000 		.4byte	0x81
 1792 08fd 05       		.uleb128 0x5
 1793 08fe 03       		.byte	0x3
 1794 08ff 00000000 		.4byte	VolDec
 1795 0903 1D       		.uleb128 0x1d
 1796 0904 2C060000 		.4byte	.LASF119
 1797 0908 05       		.byte	0x5
 1798 0909 4D       		.byte	0x4d
 1799 090a 81000000 		.4byte	0x81
 1800 090e 05       		.uleb128 0x5
 1801 090f 03       		.byte	0x3
 1802 0910 00000000 		.4byte	PPUDec
 1803 0914 1D       		.uleb128 0x1d
 1804 0915 EF000000 		.4byte	.LASF120
 1805 0919 05       		.byte	0x5
 1806 091a 4D       		.byte	0x4d
 1807 091b 81000000 		.4byte	0x81
 1808 091f 05       		.uleb128 0x5
 1809 0920 03       		.byte	0x3
 1810 0921 00000000 		.4byte	DDMode
 1811 0925 1D       		.uleb128 0x1d
ARM GAS  C:\Users\Diego\AppData\Local\Temp\cc84Hguj.s 			page 35


 1812 0926 7A000000 		.4byte	.LASF121
 1813 092a 05       		.byte	0x5
 1814 092b 4E       		.byte	0x4e
 1815 092c E5000000 		.4byte	0xe5
 1816 0930 05       		.uleb128 0x5
 1817 0931 03       		.byte	0x3
 1818 0932 00000000 		.4byte	statePump
 1819 0936 1D       		.uleb128 0x1d
 1820 0937 AE030000 		.4byte	.LASF122
 1821 093b 05       		.byte	0x5
 1822 093c 4F       		.byte	0x4f
 1823 093d 81000000 		.4byte	0x81
 1824 0941 05       		.uleb128 0x5
 1825 0942 03       		.byte	0x3
 1826 0943 00000000 		.4byte	NumPositions
 1827 0947 1D       		.uleb128 0x1d
 1828 0948 1D020000 		.4byte	.LASF123
 1829 094c 05       		.byte	0x5
 1830 094d 50       		.byte	0x50
 1831 094e 81000000 		.4byte	0x81
 1832 0952 05       		.uleb128 0x5
 1833 0953 03       		.byte	0x3
 1834 0954 00000000 		.4byte	lockTurn
 1835 0958 1D       		.uleb128 0x1d
 1836 0959 B1010000 		.4byte	.LASF124
 1837 095d 05       		.byte	0x5
 1838 095e 51       		.byte	0x51
 1839 095f 81000000 		.4byte	0x81
 1840 0963 05       		.uleb128 0x5
 1841 0964 03       		.byte	0x3
 1842 0965 00000000 		.4byte	digits
 1843 0969 1D       		.uleb128 0x1d
 1844 096a 31050000 		.4byte	.LASF125
 1845 096e 05       		.byte	0x5
 1846 096f 52       		.byte	0x52
 1847 0970 81000000 		.4byte	0x81
 1848 0974 05       		.uleb128 0x5
 1849 0975 03       		.byte	0x3
 1850 0976 00000000 		.4byte	hiddenKeys
 1851 097a 1D       		.uleb128 0x1d
 1852 097b BB000000 		.4byte	.LASF126
 1853 097f 05       		.byte	0x5
 1854 0980 53       		.byte	0x53
 1855 0981 81000000 		.4byte	0x81
 1856 0985 05       		.uleb128 0x5
 1857 0986 03       		.byte	0x3
 1858 0987 00000000 		.4byte	PrinterType
 1859 098b 08       		.uleb128 0x8
 1860 098c BF000000 		.4byte	0xbf
 1861 0990 9B090000 		.4byte	0x99b
 1862 0994 09       		.uleb128 0x9
 1863 0995 DC000000 		.4byte	0xdc
 1864 0999 05       		.byte	0x5
 1865 099a 00       		.byte	0
 1866 099b 1D       		.uleb128 0x1d
 1867 099c 15050000 		.4byte	.LASF127
 1868 09a0 05       		.byte	0x5
ARM GAS  C:\Users\Diego\AppData\Local\Temp\cc84Hguj.s 			page 36


 1869 09a1 54       		.byte	0x54
 1870 09a2 8B090000 		.4byte	0x98b
 1871 09a6 05       		.uleb128 0x5
 1872 09a7 03       		.byte	0x3
 1873 09a8 00000000 		.4byte	VolUnit
 1874 09ac 1D       		.uleb128 0x1d
 1875 09ad DA040000 		.4byte	.LASF128
 1876 09b1 05       		.byte	0x5
 1877 09b2 55       		.byte	0x55
 1878 09b3 8A070000 		.4byte	0x78a
 1879 09b7 05       		.uleb128 0x5
 1880 09b8 03       		.byte	0x3
 1881 09b9 00000000 		.4byte	dateDownHandle
 1882 09bd 1D       		.uleb128 0x1d
 1883 09be EC030000 		.4byte	.LASF129
 1884 09c2 05       		.byte	0x5
 1885 09c3 56       		.byte	0x56
 1886 09c4 39030000 		.4byte	0x339
 1887 09c8 05       		.uleb128 0x5
 1888 09c9 03       		.byte	0x3
 1889 09ca 00000000 		.4byte	timeDownHandle
 1890 09ce 1D       		.uleb128 0x1d
 1891 09cf 55070000 		.4byte	.LASF130
 1892 09d3 05       		.byte	0x5
 1893 09d4 57       		.byte	0x57
 1894 09d5 81000000 		.4byte	0x81
 1895 09d9 05       		.uleb128 0x5
 1896 09da 03       		.byte	0x3
 1897 09db 00000000 		.4byte	count_protector
 1898 09df 1D       		.uleb128 0x1d
 1899 09e0 36000000 		.4byte	.LASF131
 1900 09e4 05       		.byte	0x5
 1901 09e5 57       		.byte	0x57
 1902 09e6 81000000 		.4byte	0x81
 1903 09ea 05       		.uleb128 0x5
 1904 09eb 03       		.byte	0x3
 1905 09ec 00000000 		.4byte	count_protector2
 1906 09f0 1D       		.uleb128 0x1d
 1907 09f1 A4010000 		.4byte	.LASF132
 1908 09f5 05       		.byte	0x5
 1909 09f6 58       		.byte	0x58
 1910 09f7 5F030000 		.4byte	0x35f
 1911 09fb 05       		.uleb128 0x5
 1912 09fc 03       		.byte	0x3
 1913 09fd 00000000 		.4byte	configAccess
 1914 0a01 1D       		.uleb128 0x1d
 1915 0a02 24010000 		.4byte	.LASF133
 1916 0a06 05       		.byte	0x5
 1917 0a07 59       		.byte	0x59
 1918 0a08 81000000 		.4byte	0x81
 1919 0a0c 05       		.uleb128 0x5
 1920 0a0d 03       		.byte	0x3
 1921 0a0e 00000000 		.4byte	controlChar
 1922 0a12 08       		.uleb128 0x8
 1923 0a13 BF000000 		.4byte	0xbf
 1924 0a17 220A0000 		.4byte	0xa22
 1925 0a1b 09       		.uleb128 0x9
ARM GAS  C:\Users\Diego\AppData\Local\Temp\cc84Hguj.s 			page 37


 1926 0a1c DC000000 		.4byte	0xdc
 1927 0a20 04       		.byte	0x4
 1928 0a21 00       		.byte	0
 1929 0a22 1D       		.uleb128 0x1d
 1930 0a23 FB000000 		.4byte	.LASF134
 1931 0a27 05       		.byte	0x5
 1932 0a28 5A       		.byte	0x5a
 1933 0a29 120A0000 		.4byte	0xa12
 1934 0a2d 05       		.uleb128 0x5
 1935 0a2e 03       		.byte	0x3
 1936 0a2f 00000000 		.4byte	idStation
 1937 0a33 1D       		.uleb128 0x1d
 1938 0a34 F3070000 		.4byte	.LASF135
 1939 0a38 05       		.byte	0x5
 1940 0a39 5B       		.byte	0x5b
 1941 0a3a 8A070000 		.4byte	0x78a
 1942 0a3e 05       		.uleb128 0x5
 1943 0a3f 03       		.byte	0x3
 1944 0a40 00000000 		.4byte	pumpGap
 1945 0a44 1D       		.uleb128 0x1d
 1946 0a45 DB010000 		.4byte	.LASF136
 1947 0a49 05       		.byte	0x5
 1948 0a4a 5C       		.byte	0x5c
 1949 0a4b 81000000 		.4byte	0x81
 1950 0a4f 05       		.uleb128 0x5
 1951 0a50 03       		.byte	0x3
 1952 0a51 00000000 		.4byte	printPortA
 1953 0a55 1D       		.uleb128 0x1d
 1954 0a56 E6010000 		.4byte	.LASF137
 1955 0a5a 05       		.byte	0x5
 1956 0a5b 5D       		.byte	0x5d
 1957 0a5c 81000000 		.4byte	0x81
 1958 0a60 05       		.uleb128 0x5
 1959 0a61 03       		.byte	0x3
 1960 0a62 00000000 		.4byte	printPortB
 1961 0a66 08       		.uleb128 0x8
 1962 0a67 81000000 		.4byte	0x81
 1963 0a6b 770A0000 		.4byte	0xa77
 1964 0a6f 1E       		.uleb128 0x1e
 1965 0a70 DC000000 		.4byte	0xdc
 1966 0a74 DB05     		.2byte	0x5db
 1967 0a76 00       		.byte	0
 1968 0a77 1D       		.uleb128 0x1d
 1969 0a78 8B000000 		.4byte	.LASF138
 1970 0a7c 05       		.byte	0x5
 1971 0a7d 5E       		.byte	0x5e
 1972 0a7e 660A0000 		.4byte	0xa66
 1973 0a82 05       		.uleb128 0x5
 1974 0a83 03       		.byte	0x3
 1975 0a84 00000000 		.4byte	buffer_rf
 1976 0a88 1D       		.uleb128 0x1d
 1977 0a89 3D010000 		.4byte	.LASF139
 1978 0a8d 05       		.byte	0x5
 1979 0a8e 5F       		.byte	0x5f
 1980 0a8f 660A0000 		.4byte	0xa66
 1981 0a93 05       		.uleb128 0x5
 1982 0a94 03       		.byte	0x3
ARM GAS  C:\Users\Diego\AppData\Local\Temp\cc84Hguj.s 			page 38


 1983 0a95 00000000 		.4byte	buffer_tx
 1984 0a99 1D       		.uleb128 0x1d
 1985 0a9a 86050000 		.4byte	.LASF140
 1986 0a9e 05       		.byte	0x5
 1987 0a9f 60       		.byte	0x60
 1988 0aa0 8D000000 		.4byte	0x8d
 1989 0aa4 05       		.uleb128 0x5
 1990 0aa5 03       		.byte	0x3
 1991 0aa6 00000000 		.4byte	intIDStation
 1992 0aaa 1D       		.uleb128 0x1d
 1993 0aab 05060000 		.4byte	.LASF141
 1994 0aaf 05       		.byte	0x5
 1995 0ab0 61       		.byte	0x61
 1996 0ab1 F2070000 		.4byte	0x7f2
 1997 0ab5 05       		.uleb128 0x5
 1998 0ab6 03       		.byte	0x3
 1999 0ab7 00000000 		.4byte	Encabezado1
 2000 0abb 1D       		.uleb128 0x1d
 2001 0abc A2050000 		.4byte	.LASF142
 2002 0ac0 05       		.byte	0x5
 2003 0ac1 62       		.byte	0x62
 2004 0ac2 81000000 		.4byte	0x81
 2005 0ac6 05       		.uleb128 0x5
 2006 0ac7 03       		.byte	0x3
 2007 0ac8 00000000 		.4byte	CopiasCredito
 2008 0acc 1D       		.uleb128 0x1d
 2009 0acd 63000000 		.4byte	.LASF143
 2010 0ad1 05       		.byte	0x5
 2011 0ad2 63       		.byte	0x63
 2012 0ad3 5F030000 		.4byte	0x35f
 2013 0ad7 05       		.uleb128 0x5
 2014 0ad8 03       		.byte	0x3
 2015 0ad9 00000000 		.4byte	GradesHose
 2016 0add 1D       		.uleb128 0x1d
 2017 0ade E4070000 		.4byte	.LASF144
 2018 0ae2 05       		.byte	0x5
 2019 0ae3 9A       		.byte	0x9a
 2020 0ae4 F5000000 		.4byte	0xf5
 2021 0ae8 05       		.uleb128 0x5
 2022 0ae9 03       		.byte	0x3
 2023 0aea 00000000 		.4byte	bufferDisplay1
 2024 0aee 1D       		.uleb128 0x1d
 2025 0aef 77050000 		.4byte	.LASF145
 2026 0af3 05       		.byte	0x5
 2027 0af4 9B       		.byte	0x9b
 2028 0af5 F5000000 		.4byte	0xf5
 2029 0af9 05       		.uleb128 0x5
 2030 0afa 03       		.byte	0x3
 2031 0afb 00000000 		.4byte	bufferDisplay2
 2032 0aff 1D       		.uleb128 0x1d
 2033 0b00 6A010000 		.4byte	.LASF146
 2034 0b04 05       		.byte	0x5
 2035 0b05 9C       		.byte	0x9c
 2036 0b06 F5000000 		.4byte	0xf5
 2037 0b0a 05       		.uleb128 0x5
 2038 0b0b 03       		.byte	0x3
 2039 0b0c 00000000 		.4byte	bufferDisplay3
ARM GAS  C:\Users\Diego\AppData\Local\Temp\cc84Hguj.s 			page 39


 2040 0b10 1D       		.uleb128 0x1d
 2041 0b11 93050000 		.4byte	.LASF147
 2042 0b15 05       		.byte	0x5
 2043 0b16 9D       		.byte	0x9d
 2044 0b17 F5000000 		.4byte	0xf5
 2045 0b1b 05       		.uleb128 0x5
 2046 0b1c 03       		.byte	0x3
 2047 0b1d 00000000 		.4byte	bufferDisplay4
 2048 0b21 1D       		.uleb128 0x1d
 2049 0b22 F6000000 		.4byte	.LASF148
 2050 0b26 05       		.byte	0x5
 2051 0b27 BC       		.byte	0xbc
 2052 0b28 6A040000 		.4byte	0x46a
 2053 0b2c 05       		.uleb128 0x5
 2054 0b2d 03       		.byte	0x3
 2055 0b2e 00000000 		.4byte	side
 2056 0b32 1F       		.uleb128 0x1f
 2057 0b33 82070000 		.4byte	.LASF151
 2058 0b37 E3000000 		.4byte	0xe3
 2059 0b3b 4F0B0000 		.4byte	0xb4f
 2060 0b3f 20       		.uleb128 0x20
 2061 0b40 E3000000 		.4byte	0xe3
 2062 0b44 20       		.uleb128 0x20
 2063 0b45 4F0B0000 		.4byte	0xb4f
 2064 0b49 20       		.uleb128 0x20
 2065 0b4a DC000000 		.4byte	0xdc
 2066 0b4e 00       		.byte	0
 2067 0b4f 16       		.uleb128 0x16
 2068 0b50 04       		.byte	0x4
 2069 0b51 550B0000 		.4byte	0xb55
 2070 0b55 21       		.uleb128 0x21
 2071 0b56 22       		.uleb128 0x22
 2072 0b57 BD010000 		.4byte	.LASF149
 2073 0b5b 07       		.byte	0x7
 2074 0b5c 73       		.byte	0x73
 2075 0b5d 8D000000 		.4byte	0x8d
 2076 0b61 22       		.uleb128 0x22
 2077 0b62 00000000 		.4byte	.LASF150
 2078 0b66 07       		.byte	0x7
 2079 0b67 6F       		.byte	0x6f
 2080 0b68 81000000 		.4byte	0x81
 2081 0b6c 23       		.uleb128 0x23
 2082 0b6d FC020000 		.4byte	.LASF152
 2083 0b71 07       		.byte	0x7
 2084 0b72 8A       		.byte	0x8a
 2085 0b73 7D0B0000 		.4byte	0xb7d
 2086 0b77 20       		.uleb128 0x20
 2087 0b78 81000000 		.4byte	0x81
 2088 0b7c 00       		.byte	0
 2089 0b7d 24       		.uleb128 0x24
 2090 0b7e FB070000 		.4byte	.LASF158
 2091 0b82 07       		.byte	0x7
 2092 0b83 75       		.byte	0x75
 2093 0b84 00       		.byte	0
 2094              		.section	.debug_abbrev,"",%progbits
 2095              	.Ldebug_abbrev0:
 2096 0000 01       		.uleb128 0x1
ARM GAS  C:\Users\Diego\AppData\Local\Temp\cc84Hguj.s 			page 40


 2097 0001 11       		.uleb128 0x11
 2098 0002 01       		.byte	0x1
 2099 0003 25       		.uleb128 0x25
 2100 0004 0E       		.uleb128 0xe
 2101 0005 13       		.uleb128 0x13
 2102 0006 0B       		.uleb128 0xb
 2103 0007 03       		.uleb128 0x3
 2104 0008 0E       		.uleb128 0xe
 2105 0009 1B       		.uleb128 0x1b
 2106 000a 0E       		.uleb128 0xe
 2107 000b 55       		.uleb128 0x55
 2108 000c 17       		.uleb128 0x17
 2109 000d 11       		.uleb128 0x11
 2110 000e 01       		.uleb128 0x1
 2111 000f 10       		.uleb128 0x10
 2112 0010 17       		.uleb128 0x17
 2113 0011 00       		.byte	0
 2114 0012 00       		.byte	0
 2115 0013 02       		.uleb128 0x2
 2116 0014 24       		.uleb128 0x24
 2117 0015 00       		.byte	0
 2118 0016 0B       		.uleb128 0xb
 2119 0017 0B       		.uleb128 0xb
 2120 0018 3E       		.uleb128 0x3e
 2121 0019 0B       		.uleb128 0xb
 2122 001a 03       		.uleb128 0x3
 2123 001b 0E       		.uleb128 0xe
 2124 001c 00       		.byte	0
 2125 001d 00       		.byte	0
 2126 001e 03       		.uleb128 0x3
 2127 001f 16       		.uleb128 0x16
 2128 0020 00       		.byte	0
 2129 0021 03       		.uleb128 0x3
 2130 0022 0E       		.uleb128 0xe
 2131 0023 3A       		.uleb128 0x3a
 2132 0024 0B       		.uleb128 0xb
 2133 0025 3B       		.uleb128 0x3b
 2134 0026 0B       		.uleb128 0xb
 2135 0027 49       		.uleb128 0x49
 2136 0028 13       		.uleb128 0x13
 2137 0029 00       		.byte	0
 2138 002a 00       		.byte	0
 2139 002b 04       		.uleb128 0x4
 2140 002c 24       		.uleb128 0x24
 2141 002d 00       		.byte	0
 2142 002e 0B       		.uleb128 0xb
 2143 002f 0B       		.uleb128 0xb
 2144 0030 3E       		.uleb128 0x3e
 2145 0031 0B       		.uleb128 0xb
 2146 0032 03       		.uleb128 0x3
 2147 0033 08       		.uleb128 0x8
 2148 0034 00       		.byte	0
 2149 0035 00       		.byte	0
 2150 0036 05       		.uleb128 0x5
 2151 0037 16       		.uleb128 0x16
 2152 0038 00       		.byte	0
 2153 0039 03       		.uleb128 0x3
ARM GAS  C:\Users\Diego\AppData\Local\Temp\cc84Hguj.s 			page 41


 2154 003a 0E       		.uleb128 0xe
 2155 003b 3A       		.uleb128 0x3a
 2156 003c 0B       		.uleb128 0xb
 2157 003d 3B       		.uleb128 0x3b
 2158 003e 05       		.uleb128 0x5
 2159 003f 49       		.uleb128 0x49
 2160 0040 13       		.uleb128 0x13
 2161 0041 00       		.byte	0
 2162 0042 00       		.byte	0
 2163 0043 06       		.uleb128 0x6
 2164 0044 35       		.uleb128 0x35
 2165 0045 00       		.byte	0
 2166 0046 49       		.uleb128 0x49
 2167 0047 13       		.uleb128 0x13
 2168 0048 00       		.byte	0
 2169 0049 00       		.byte	0
 2170 004a 07       		.uleb128 0x7
 2171 004b 0F       		.uleb128 0xf
 2172 004c 00       		.byte	0
 2173 004d 0B       		.uleb128 0xb
 2174 004e 0B       		.uleb128 0xb
 2175 004f 00       		.byte	0
 2176 0050 00       		.byte	0
 2177 0051 08       		.uleb128 0x8
 2178 0052 01       		.uleb128 0x1
 2179 0053 01       		.byte	0x1
 2180 0054 49       		.uleb128 0x49
 2181 0055 13       		.uleb128 0x13
 2182 0056 01       		.uleb128 0x1
 2183 0057 13       		.uleb128 0x13
 2184 0058 00       		.byte	0
 2185 0059 00       		.byte	0
 2186 005a 09       		.uleb128 0x9
 2187 005b 21       		.uleb128 0x21
 2188 005c 00       		.byte	0
 2189 005d 49       		.uleb128 0x49
 2190 005e 13       		.uleb128 0x13
 2191 005f 2F       		.uleb128 0x2f
 2192 0060 0B       		.uleb128 0xb
 2193 0061 00       		.byte	0
 2194 0062 00       		.byte	0
 2195 0063 0A       		.uleb128 0xa
 2196 0064 13       		.uleb128 0x13
 2197 0065 01       		.byte	0x1
 2198 0066 03       		.uleb128 0x3
 2199 0067 0E       		.uleb128 0xe
 2200 0068 0B       		.uleb128 0xb
 2201 0069 05       		.uleb128 0x5
 2202 006a 3A       		.uleb128 0x3a
 2203 006b 0B       		.uleb128 0xb
 2204 006c 3B       		.uleb128 0x3b
 2205 006d 0B       		.uleb128 0xb
 2206 006e 01       		.uleb128 0x1
 2207 006f 13       		.uleb128 0x13
 2208 0070 00       		.byte	0
 2209 0071 00       		.byte	0
 2210 0072 0B       		.uleb128 0xb
ARM GAS  C:\Users\Diego\AppData\Local\Temp\cc84Hguj.s 			page 42


 2211 0073 0D       		.uleb128 0xd
 2212 0074 00       		.byte	0
 2213 0075 03       		.uleb128 0x3
 2214 0076 0E       		.uleb128 0xe
 2215 0077 3A       		.uleb128 0x3a
 2216 0078 0B       		.uleb128 0xb
 2217 0079 3B       		.uleb128 0x3b
 2218 007a 0B       		.uleb128 0xb
 2219 007b 49       		.uleb128 0x49
 2220 007c 13       		.uleb128 0x13
 2221 007d 38       		.uleb128 0x38
 2222 007e 0B       		.uleb128 0xb
 2223 007f 00       		.byte	0
 2224 0080 00       		.byte	0
 2225 0081 0C       		.uleb128 0xc
 2226 0082 0D       		.uleb128 0xd
 2227 0083 00       		.byte	0
 2228 0084 03       		.uleb128 0x3
 2229 0085 0E       		.uleb128 0xe
 2230 0086 3A       		.uleb128 0x3a
 2231 0087 0B       		.uleb128 0xb
 2232 0088 3B       		.uleb128 0x3b
 2233 0089 0B       		.uleb128 0xb
 2234 008a 49       		.uleb128 0x49
 2235 008b 13       		.uleb128 0x13
 2236 008c 38       		.uleb128 0x38
 2237 008d 05       		.uleb128 0x5
 2238 008e 00       		.byte	0
 2239 008f 00       		.byte	0
 2240 0090 0D       		.uleb128 0xd
 2241 0091 0D       		.uleb128 0xd
 2242 0092 00       		.byte	0
 2243 0093 03       		.uleb128 0x3
 2244 0094 08       		.uleb128 0x8
 2245 0095 3A       		.uleb128 0x3a
 2246 0096 0B       		.uleb128 0xb
 2247 0097 3B       		.uleb128 0x3b
 2248 0098 0B       		.uleb128 0xb
 2249 0099 49       		.uleb128 0x49
 2250 009a 13       		.uleb128 0x13
 2251 009b 38       		.uleb128 0x38
 2252 009c 0B       		.uleb128 0xb
 2253 009d 00       		.byte	0
 2254 009e 00       		.byte	0
 2255 009f 0E       		.uleb128 0xe
 2256 00a0 0D       		.uleb128 0xd
 2257 00a1 00       		.byte	0
 2258 00a2 03       		.uleb128 0x3
 2259 00a3 08       		.uleb128 0x8
 2260 00a4 3A       		.uleb128 0x3a
 2261 00a5 0B       		.uleb128 0xb
 2262 00a6 3B       		.uleb128 0x3b
 2263 00a7 0B       		.uleb128 0xb
 2264 00a8 49       		.uleb128 0x49
 2265 00a9 13       		.uleb128 0x13
 2266 00aa 38       		.uleb128 0x38
 2267 00ab 05       		.uleb128 0x5
ARM GAS  C:\Users\Diego\AppData\Local\Temp\cc84Hguj.s 			page 43


 2268 00ac 00       		.byte	0
 2269 00ad 00       		.byte	0
 2270 00ae 0F       		.uleb128 0xf
 2271 00af 2E       		.uleb128 0x2e
 2272 00b0 01       		.byte	0x1
 2273 00b1 3F       		.uleb128 0x3f
 2274 00b2 19       		.uleb128 0x19
 2275 00b3 03       		.uleb128 0x3
 2276 00b4 0E       		.uleb128 0xe
 2277 00b5 3A       		.uleb128 0x3a
 2278 00b6 0B       		.uleb128 0xb
 2279 00b7 3B       		.uleb128 0x3b
 2280 00b8 0B       		.uleb128 0xb
 2281 00b9 27       		.uleb128 0x27
 2282 00ba 19       		.uleb128 0x19
 2283 00bb 49       		.uleb128 0x49
 2284 00bc 13       		.uleb128 0x13
 2285 00bd 11       		.uleb128 0x11
 2286 00be 01       		.uleb128 0x1
 2287 00bf 12       		.uleb128 0x12
 2288 00c0 06       		.uleb128 0x6
 2289 00c1 40       		.uleb128 0x40
 2290 00c2 18       		.uleb128 0x18
 2291 00c3 9742     		.uleb128 0x2117
 2292 00c5 19       		.uleb128 0x19
 2293 00c6 01       		.uleb128 0x1
 2294 00c7 13       		.uleb128 0x13
 2295 00c8 00       		.byte	0
 2296 00c9 00       		.byte	0
 2297 00ca 10       		.uleb128 0x10
 2298 00cb 05       		.uleb128 0x5
 2299 00cc 00       		.byte	0
 2300 00cd 03       		.uleb128 0x3
 2301 00ce 0E       		.uleb128 0xe
 2302 00cf 3A       		.uleb128 0x3a
 2303 00d0 0B       		.uleb128 0xb
 2304 00d1 3B       		.uleb128 0x3b
 2305 00d2 0B       		.uleb128 0xb
 2306 00d3 49       		.uleb128 0x49
 2307 00d4 13       		.uleb128 0x13
 2308 00d5 02       		.uleb128 0x2
 2309 00d6 17       		.uleb128 0x17
 2310 00d7 00       		.byte	0
 2311 00d8 00       		.byte	0
 2312 00d9 11       		.uleb128 0x11
 2313 00da 34       		.uleb128 0x34
 2314 00db 00       		.byte	0
 2315 00dc 03       		.uleb128 0x3
 2316 00dd 0E       		.uleb128 0xe
 2317 00de 3A       		.uleb128 0x3a
 2318 00df 0B       		.uleb128 0xb
 2319 00e0 3B       		.uleb128 0x3b
 2320 00e1 0B       		.uleb128 0xb
 2321 00e2 49       		.uleb128 0x49
 2322 00e3 13       		.uleb128 0x13
 2323 00e4 02       		.uleb128 0x2
 2324 00e5 17       		.uleb128 0x17
ARM GAS  C:\Users\Diego\AppData\Local\Temp\cc84Hguj.s 			page 44


 2325 00e6 00       		.byte	0
 2326 00e7 00       		.byte	0
 2327 00e8 12       		.uleb128 0x12
 2328 00e9 34       		.uleb128 0x34
 2329 00ea 00       		.byte	0
 2330 00eb 03       		.uleb128 0x3
 2331 00ec 08       		.uleb128 0x8
 2332 00ed 3A       		.uleb128 0x3a
 2333 00ee 0B       		.uleb128 0xb
 2334 00ef 3B       		.uleb128 0x3b
 2335 00f0 0B       		.uleb128 0xb
 2336 00f1 49       		.uleb128 0x49
 2337 00f2 13       		.uleb128 0x13
 2338 00f3 02       		.uleb128 0x2
 2339 00f4 17       		.uleb128 0x17
 2340 00f5 00       		.byte	0
 2341 00f6 00       		.byte	0
 2342 00f7 13       		.uleb128 0x13
 2343 00f8 34       		.uleb128 0x34
 2344 00f9 00       		.byte	0
 2345 00fa 03       		.uleb128 0x3
 2346 00fb 0E       		.uleb128 0xe
 2347 00fc 3A       		.uleb128 0x3a
 2348 00fd 0B       		.uleb128 0xb
 2349 00fe 3B       		.uleb128 0x3b
 2350 00ff 0B       		.uleb128 0xb
 2351 0100 49       		.uleb128 0x49
 2352 0101 13       		.uleb128 0x13
 2353 0102 02       		.uleb128 0x2
 2354 0103 18       		.uleb128 0x18
 2355 0104 00       		.byte	0
 2356 0105 00       		.byte	0
 2357 0106 14       		.uleb128 0x14
 2358 0107 898201   		.uleb128 0x4109
 2359 010a 01       		.byte	0x1
 2360 010b 11       		.uleb128 0x11
 2361 010c 01       		.uleb128 0x1
 2362 010d 31       		.uleb128 0x31
 2363 010e 13       		.uleb128 0x13
 2364 010f 00       		.byte	0
 2365 0110 00       		.byte	0
 2366 0111 15       		.uleb128 0x15
 2367 0112 8A8201   		.uleb128 0x410a
 2368 0115 00       		.byte	0
 2369 0116 02       		.uleb128 0x2
 2370 0117 18       		.uleb128 0x18
 2371 0118 9142     		.uleb128 0x2111
 2372 011a 18       		.uleb128 0x18
 2373 011b 00       		.byte	0
 2374 011c 00       		.byte	0
 2375 011d 16       		.uleb128 0x16
 2376 011e 0F       		.uleb128 0xf
 2377 011f 00       		.byte	0
 2378 0120 0B       		.uleb128 0xb
 2379 0121 0B       		.uleb128 0xb
 2380 0122 49       		.uleb128 0x49
 2381 0123 13       		.uleb128 0x13
ARM GAS  C:\Users\Diego\AppData\Local\Temp\cc84Hguj.s 			page 45


 2382 0124 00       		.byte	0
 2383 0125 00       		.byte	0
 2384 0126 17       		.uleb128 0x17
 2385 0127 2E       		.uleb128 0x2e
 2386 0128 01       		.byte	0x1
 2387 0129 3F       		.uleb128 0x3f
 2388 012a 19       		.uleb128 0x19
 2389 012b 03       		.uleb128 0x3
 2390 012c 0E       		.uleb128 0xe
 2391 012d 3A       		.uleb128 0x3a
 2392 012e 0B       		.uleb128 0xb
 2393 012f 3B       		.uleb128 0x3b
 2394 0130 0B       		.uleb128 0xb
 2395 0131 11       		.uleb128 0x11
 2396 0132 01       		.uleb128 0x1
 2397 0133 12       		.uleb128 0x12
 2398 0134 06       		.uleb128 0x6
 2399 0135 40       		.uleb128 0x40
 2400 0136 18       		.uleb128 0x18
 2401 0137 9742     		.uleb128 0x2117
 2402 0139 19       		.uleb128 0x19
 2403 013a 01       		.uleb128 0x1
 2404 013b 13       		.uleb128 0x13
 2405 013c 00       		.byte	0
 2406 013d 00       		.byte	0
 2407 013e 18       		.uleb128 0x18
 2408 013f 34       		.uleb128 0x34
 2409 0140 00       		.byte	0
 2410 0141 03       		.uleb128 0x3
 2411 0142 0E       		.uleb128 0xe
 2412 0143 3A       		.uleb128 0x3a
 2413 0144 0B       		.uleb128 0xb
 2414 0145 3B       		.uleb128 0x3b
 2415 0146 0B       		.uleb128 0xb
 2416 0147 49       		.uleb128 0x49
 2417 0148 13       		.uleb128 0x13
 2418 0149 00       		.byte	0
 2419 014a 00       		.byte	0
 2420 014b 19       		.uleb128 0x19
 2421 014c 34       		.uleb128 0x34
 2422 014d 00       		.byte	0
 2423 014e 03       		.uleb128 0x3
 2424 014f 08       		.uleb128 0x8
 2425 0150 3A       		.uleb128 0x3a
 2426 0151 0B       		.uleb128 0xb
 2427 0152 3B       		.uleb128 0x3b
 2428 0153 0B       		.uleb128 0xb
 2429 0154 49       		.uleb128 0x49
 2430 0155 13       		.uleb128 0x13
 2431 0156 00       		.byte	0
 2432 0157 00       		.byte	0
 2433 0158 1A       		.uleb128 0x1a
 2434 0159 898201   		.uleb128 0x4109
 2435 015c 00       		.byte	0
 2436 015d 11       		.uleb128 0x11
 2437 015e 01       		.uleb128 0x1
 2438 015f 31       		.uleb128 0x31
ARM GAS  C:\Users\Diego\AppData\Local\Temp\cc84Hguj.s 			page 46


 2439 0160 13       		.uleb128 0x13
 2440 0161 00       		.byte	0
 2441 0162 00       		.byte	0
 2442 0163 1B       		.uleb128 0x1b
 2443 0164 898201   		.uleb128 0x4109
 2444 0167 01       		.byte	0x1
 2445 0168 11       		.uleb128 0x11
 2446 0169 01       		.uleb128 0x1
 2447 016a 31       		.uleb128 0x31
 2448 016b 13       		.uleb128 0x13
 2449 016c 01       		.uleb128 0x1
 2450 016d 13       		.uleb128 0x13
 2451 016e 00       		.byte	0
 2452 016f 00       		.byte	0
 2453 0170 1C       		.uleb128 0x1c
 2454 0171 34       		.uleb128 0x34
 2455 0172 00       		.byte	0
 2456 0173 03       		.uleb128 0x3
 2457 0174 0E       		.uleb128 0xe
 2458 0175 3A       		.uleb128 0x3a
 2459 0176 0B       		.uleb128 0xb
 2460 0177 3B       		.uleb128 0x3b
 2461 0178 05       		.uleb128 0x5
 2462 0179 49       		.uleb128 0x49
 2463 017a 13       		.uleb128 0x13
 2464 017b 3F       		.uleb128 0x3f
 2465 017c 19       		.uleb128 0x19
 2466 017d 3C       		.uleb128 0x3c
 2467 017e 19       		.uleb128 0x19
 2468 017f 00       		.byte	0
 2469 0180 00       		.byte	0
 2470 0181 1D       		.uleb128 0x1d
 2471 0182 34       		.uleb128 0x34
 2472 0183 00       		.byte	0
 2473 0184 03       		.uleb128 0x3
 2474 0185 0E       		.uleb128 0xe
 2475 0186 3A       		.uleb128 0x3a
 2476 0187 0B       		.uleb128 0xb
 2477 0188 3B       		.uleb128 0x3b
 2478 0189 0B       		.uleb128 0xb
 2479 018a 49       		.uleb128 0x49
 2480 018b 13       		.uleb128 0x13
 2481 018c 3F       		.uleb128 0x3f
 2482 018d 19       		.uleb128 0x19
 2483 018e 02       		.uleb128 0x2
 2484 018f 18       		.uleb128 0x18
 2485 0190 00       		.byte	0
 2486 0191 00       		.byte	0
 2487 0192 1E       		.uleb128 0x1e
 2488 0193 21       		.uleb128 0x21
 2489 0194 00       		.byte	0
 2490 0195 49       		.uleb128 0x49
 2491 0196 13       		.uleb128 0x13
 2492 0197 2F       		.uleb128 0x2f
 2493 0198 05       		.uleb128 0x5
 2494 0199 00       		.byte	0
 2495 019a 00       		.byte	0
ARM GAS  C:\Users\Diego\AppData\Local\Temp\cc84Hguj.s 			page 47


 2496 019b 1F       		.uleb128 0x1f
 2497 019c 2E       		.uleb128 0x2e
 2498 019d 01       		.byte	0x1
 2499 019e 3F       		.uleb128 0x3f
 2500 019f 19       		.uleb128 0x19
 2501 01a0 03       		.uleb128 0x3
 2502 01a1 0E       		.uleb128 0xe
 2503 01a2 27       		.uleb128 0x27
 2504 01a3 19       		.uleb128 0x19
 2505 01a4 49       		.uleb128 0x49
 2506 01a5 13       		.uleb128 0x13
 2507 01a6 34       		.uleb128 0x34
 2508 01a7 19       		.uleb128 0x19
 2509 01a8 3C       		.uleb128 0x3c
 2510 01a9 19       		.uleb128 0x19
 2511 01aa 01       		.uleb128 0x1
 2512 01ab 13       		.uleb128 0x13
 2513 01ac 00       		.byte	0
 2514 01ad 00       		.byte	0
 2515 01ae 20       		.uleb128 0x20
 2516 01af 05       		.uleb128 0x5
 2517 01b0 00       		.byte	0
 2518 01b1 49       		.uleb128 0x49
 2519 01b2 13       		.uleb128 0x13
 2520 01b3 00       		.byte	0
 2521 01b4 00       		.byte	0
 2522 01b5 21       		.uleb128 0x21
 2523 01b6 26       		.uleb128 0x26
 2524 01b7 00       		.byte	0
 2525 01b8 00       		.byte	0
 2526 01b9 00       		.byte	0
 2527 01ba 22       		.uleb128 0x22
 2528 01bb 2E       		.uleb128 0x2e
 2529 01bc 00       		.byte	0
 2530 01bd 3F       		.uleb128 0x3f
 2531 01be 19       		.uleb128 0x19
 2532 01bf 03       		.uleb128 0x3
 2533 01c0 0E       		.uleb128 0xe
 2534 01c1 3A       		.uleb128 0x3a
 2535 01c2 0B       		.uleb128 0xb
 2536 01c3 3B       		.uleb128 0x3b
 2537 01c4 0B       		.uleb128 0xb
 2538 01c5 27       		.uleb128 0x27
 2539 01c6 19       		.uleb128 0x19
 2540 01c7 49       		.uleb128 0x49
 2541 01c8 13       		.uleb128 0x13
 2542 01c9 3C       		.uleb128 0x3c
 2543 01ca 19       		.uleb128 0x19
 2544 01cb 00       		.byte	0
 2545 01cc 00       		.byte	0
 2546 01cd 23       		.uleb128 0x23
 2547 01ce 2E       		.uleb128 0x2e
 2548 01cf 01       		.byte	0x1
 2549 01d0 3F       		.uleb128 0x3f
 2550 01d1 19       		.uleb128 0x19
 2551 01d2 03       		.uleb128 0x3
 2552 01d3 0E       		.uleb128 0xe
ARM GAS  C:\Users\Diego\AppData\Local\Temp\cc84Hguj.s 			page 48


 2553 01d4 3A       		.uleb128 0x3a
 2554 01d5 0B       		.uleb128 0xb
 2555 01d6 3B       		.uleb128 0x3b
 2556 01d7 0B       		.uleb128 0xb
 2557 01d8 27       		.uleb128 0x27
 2558 01d9 19       		.uleb128 0x19
 2559 01da 3C       		.uleb128 0x3c
 2560 01db 19       		.uleb128 0x19
 2561 01dc 01       		.uleb128 0x1
 2562 01dd 13       		.uleb128 0x13
 2563 01de 00       		.byte	0
 2564 01df 00       		.byte	0
 2565 01e0 24       		.uleb128 0x24
 2566 01e1 2E       		.uleb128 0x2e
 2567 01e2 00       		.byte	0
 2568 01e3 3F       		.uleb128 0x3f
 2569 01e4 19       		.uleb128 0x19
 2570 01e5 03       		.uleb128 0x3
 2571 01e6 0E       		.uleb128 0xe
 2572 01e7 3A       		.uleb128 0x3a
 2573 01e8 0B       		.uleb128 0xb
 2574 01e9 3B       		.uleb128 0x3b
 2575 01ea 0B       		.uleb128 0xb
 2576 01eb 27       		.uleb128 0x27
 2577 01ec 19       		.uleb128 0x19
 2578 01ed 3C       		.uleb128 0x3c
 2579 01ee 19       		.uleb128 0x19
 2580 01ef 00       		.byte	0
 2581 01f0 00       		.byte	0
 2582 01f1 00       		.byte	0
 2583              		.section	.debug_loc,"",%progbits
 2584              	.Ldebug_loc0:
 2585              	.LLST0:
 2586 0000 00000000 		.4byte	.LVL0
 2587 0004 0A000000 		.4byte	.LVL1
 2588 0008 0100     		.2byte	0x1
 2589 000a 50       		.byte	0x50
 2590 000b 0A000000 		.4byte	.LVL1
 2591 000f 30000000 		.4byte	.LVL9
 2592 0013 0100     		.2byte	0x1
 2593 0015 55       		.byte	0x55
 2594 0016 30000000 		.4byte	.LVL9
 2595 001a 34000000 		.4byte	.LFE63
 2596 001e 0400     		.2byte	0x4
 2597 0020 F3       		.byte	0xf3
 2598 0021 01       		.uleb128 0x1
 2599 0022 50       		.byte	0x50
 2600 0023 9F       		.byte	0x9f
 2601 0024 00000000 		.4byte	0
 2602 0028 00000000 		.4byte	0
 2603              	.LLST1:
 2604 002c 00000000 		.4byte	.LVL0
 2605 0030 0C000000 		.4byte	.LVL2
 2606 0034 0100     		.2byte	0x1
 2607 0036 51       		.byte	0x51
 2608 0037 0C000000 		.4byte	.LVL2
 2609 003b 34000000 		.4byte	.LFE63
ARM GAS  C:\Users\Diego\AppData\Local\Temp\cc84Hguj.s 			page 49


 2610 003f 0400     		.2byte	0x4
 2611 0041 F3       		.byte	0xf3
 2612 0042 01       		.uleb128 0x1
 2613 0043 51       		.byte	0x51
 2614 0044 9F       		.byte	0x9f
 2615 0045 00000000 		.4byte	0
 2616 0049 00000000 		.4byte	0
 2617              	.LLST2:
 2618 004d 14000000 		.4byte	.LVL3
 2619 0051 1A000000 		.4byte	.LVL4
 2620 0055 0200     		.2byte	0x2
 2621 0057 30       		.byte	0x30
 2622 0058 9F       		.byte	0x9f
 2623 0059 1A000000 		.4byte	.LVL4
 2624 005d 1E000000 		.4byte	.LVL5
 2625 0061 0100     		.2byte	0x1
 2626 0063 50       		.byte	0x50
 2627 0064 22000000 		.4byte	.LVL6
 2628 0068 34000000 		.4byte	.LFE63
 2629 006c 0100     		.2byte	0x1
 2630 006e 50       		.byte	0x50
 2631 006f 00000000 		.4byte	0
 2632 0073 00000000 		.4byte	0
 2633              	.LLST3:
 2634 0077 1E000000 		.4byte	.LVL5
 2635 007b 22000000 		.4byte	.LVL6
 2636 007f 0100     		.2byte	0x1
 2637 0081 50       		.byte	0x50
 2638 0082 00000000 		.4byte	0
 2639 0086 00000000 		.4byte	0
 2640              	.LLST4:
 2641 008a 14000000 		.4byte	.LVL3
 2642 008e 1A000000 		.4byte	.LVL4
 2643 0092 0200     		.2byte	0x2
 2644 0094 30       		.byte	0x30
 2645 0095 9F       		.byte	0x9f
 2646 0096 1A000000 		.4byte	.LVL4
 2647 009a 24000000 		.4byte	.LVL7
 2648 009e 0100     		.2byte	0x1
 2649 00a0 53       		.byte	0x53
 2650 00a1 26000000 		.4byte	.LVL8
 2651 00a5 34000000 		.4byte	.LFE63
 2652 00a9 0100     		.2byte	0x1
 2653 00ab 53       		.byte	0x53
 2654 00ac 00000000 		.4byte	0
 2655 00b0 00000000 		.4byte	0
 2656              	.LLST5:
 2657 00b4 0C000000 		.4byte	.LVL11
 2658 00b8 16000000 		.4byte	.LVL13
 2659 00bc 0100     		.2byte	0x1
 2660 00be 54       		.byte	0x54
 2661 00bf 18000000 		.4byte	.LVL14
 2662 00c3 1A000000 		.4byte	.LVL15
 2663 00c7 0100     		.2byte	0x1
 2664 00c9 54       		.byte	0x54
 2665 00ca 1C000000 		.4byte	.LVL16
 2666 00ce 50000000 		.4byte	.LVL18
ARM GAS  C:\Users\Diego\AppData\Local\Temp\cc84Hguj.s 			page 50


 2667 00d2 0100     		.2byte	0x1
 2668 00d4 54       		.byte	0x54
 2669 00d5 94000000 		.4byte	.LVL25
 2670 00d9 F0000000 		.4byte	.LVL36
 2671 00dd 0100     		.2byte	0x1
 2672 00df 54       		.byte	0x54
 2673 00e0 00000000 		.4byte	0
 2674 00e4 00000000 		.4byte	0
 2675              	.LLST6:
 2676 00e8 7E000000 		.4byte	.LVL20
 2677 00ec 82000000 		.4byte	.LVL21
 2678 00f0 0200     		.2byte	0x2
 2679 00f2 30       		.byte	0x30
 2680 00f3 9F       		.byte	0x9f
 2681 00f4 82000000 		.4byte	.LVL21
 2682 00f8 8C000000 		.4byte	.LVL23
 2683 00fc 0100     		.2byte	0x1
 2684 00fe 54       		.byte	0x54
 2685 00ff 8E000000 		.4byte	.LVL24
 2686 0103 94000000 		.4byte	.LVL25
 2687 0107 0100     		.2byte	0x1
 2688 0109 54       		.byte	0x54
 2689 010a B4000000 		.4byte	.LVL26
 2690 010e B8000000 		.4byte	.LVL27
 2691 0112 0200     		.2byte	0x2
 2692 0114 41       		.byte	0x41
 2693 0115 9F       		.byte	0x9f
 2694 0116 B8000000 		.4byte	.LVL27
 2695 011a C6000000 		.4byte	.LVL28
 2696 011e 0100     		.2byte	0x1
 2697 0120 53       		.byte	0x53
 2698 0121 C8000000 		.4byte	.LVL29
 2699 0125 CE000000 		.4byte	.LVL30
 2700 0129 0100     		.2byte	0x1
 2701 012b 53       		.byte	0x53
 2702 012c D6000000 		.4byte	.LVL31
 2703 0130 E4000000 		.4byte	.LVL32
 2704 0134 0100     		.2byte	0x1
 2705 0136 53       		.byte	0x53
 2706 0137 E6000000 		.4byte	.LVL33
 2707 013b E8000000 		.4byte	.LVL34
 2708 013f 0100     		.2byte	0x1
 2709 0141 53       		.byte	0x53
 2710 0142 EA000000 		.4byte	.LVL35
 2711 0146 F2000000 		.4byte	.LVL37
 2712 014a 0100     		.2byte	0x1
 2713 014c 53       		.byte	0x53
 2714 014d 22010000 		.4byte	.LVL39
 2715 0151 26010000 		.4byte	.LVL40
 2716 0155 0200     		.2byte	0x2
 2717 0157 30       		.byte	0x30
 2718 0158 9F       		.byte	0x9f
 2719 0159 26010000 		.4byte	.LVL40
 2720 015d 30010000 		.4byte	.LVL42
 2721 0161 0100     		.2byte	0x1
 2722 0163 54       		.byte	0x54
 2723 0164 32010000 		.4byte	.LVL43
ARM GAS  C:\Users\Diego\AppData\Local\Temp\cc84Hguj.s 			page 51


 2724 0168 36010000 		.4byte	.LVL44
 2725 016c 0100     		.2byte	0x1
 2726 016e 54       		.byte	0x54
 2727 016f 00000000 		.4byte	0
 2728 0173 00000000 		.4byte	0
 2729              		.section	.debug_aranges,"",%progbits
 2730 0000 24000000 		.4byte	0x24
 2731 0004 0200     		.2byte	0x2
 2732 0006 00000000 		.4byte	.Ldebug_info0
 2733 000a 04       		.byte	0x4
 2734 000b 00       		.byte	0
 2735 000c 0000     		.2byte	0
 2736 000e 0000     		.2byte	0
 2737 0010 00000000 		.4byte	.LFB63
 2738 0014 34000000 		.4byte	.LFE63-.LFB63
 2739 0018 00000000 		.4byte	.LFB64
 2740 001c 60010000 		.4byte	.LFE64-.LFB64
 2741 0020 00000000 		.4byte	0
 2742 0024 00000000 		.4byte	0
 2743              		.section	.debug_ranges,"",%progbits
 2744              	.Ldebug_ranges0:
 2745 0000 00000000 		.4byte	.LFB63
 2746 0004 34000000 		.4byte	.LFE63
 2747 0008 00000000 		.4byte	.LFB64
 2748 000c 60010000 		.4byte	.LFE64
 2749 0010 00000000 		.4byte	0
 2750 0014 00000000 		.4byte	0
 2751              		.section	.debug_line,"",%progbits
 2752              	.Ldebug_line0:
 2753 0000 28020000 		.section	.debug_str,"MS",%progbits,1
 2753      02006F01 
 2753      00000201 
 2753      FB0E0D00 
 2753      01010101 
 2754              	.LASF150:
 2755 0000 52465F43 		.ascii	"RF_Connection_ReadRxData\000"
 2755      6F6E6E65 
 2755      6374696F 
 2755      6E5F5265 
 2755      61645278 
 2756              	.LASF79:
 2757 0019 73746174 		.ascii	"status1\000"
 2757      75733100 
 2758              	.LASF80:
 2759 0021 73746174 		.ascii	"status2\000"
 2759      75733200 
 2760              	.LASF157:
 2761 0029 706F6C6C 		.ascii	"pollingRF_Rx\000"
 2761      696E6752 
 2761      465F5278 
 2761      00
 2762              	.LASF131:
 2763 0036 636F756E 		.ascii	"count_protector2\000"
 2763      745F7072 
 2763      6F746563 
 2763      746F7232 
 2763      00
ARM GAS  C:\Users\Diego\AppData\Local\Temp\cc84Hguj.s 			page 52


 2764              	.LASF100:
 2765 0047 64656369 		.ascii	"decimalVolume\000"
 2765      6D616C56 
 2765      6F6C756D 
 2765      6500
 2766              	.LASF112:
 2767 0055 50726576 		.ascii	"PrevStatePump\000"
 2767      53746174 
 2767      6550756D 
 2767      7000
 2768              	.LASF143:
 2769 0063 47726164 		.ascii	"GradesHose\000"
 2769      6573486F 
 2769      736500
 2770              	.LASF53:
 2771 006e 766F6C75 		.ascii	"volumeQuota\000"
 2771      6D655175 
 2771      6F746100 
 2772              	.LASF121:
 2773 007a 73746174 		.ascii	"statePump\000"
 2773      6550756D 
 2773      7000
 2774              	.LASF62:
 2775 0084 62756666 		.ascii	"buffer\000"
 2775      657200
 2776              	.LASF138:
 2777 008b 62756666 		.ascii	"buffer_rf\000"
 2777      65725F72 
 2777      6600
 2778              	.LASF99:
 2779 0095 64656369 		.ascii	"decimalMoney\000"
 2779      6D616C4D 
 2779      6F6E6579 
 2779      00
 2780              	.LASF32:
 2781 00a2 73616C65 		.ascii	"salePerform\000"
 2781      50657266 
 2781      6F726D00 
 2782              	.LASF8:
 2783 00ae 756E7369 		.ascii	"unsigned int\000"
 2783      676E6564 
 2783      20696E74 
 2783      00
 2784              	.LASF126:
 2785 00bb 5072696E 		.ascii	"PrinterType\000"
 2785      74657254 
 2785      79706500 
 2786              	.LASF9:
 2787 00c7 5F5F696E 		.ascii	"__int32_t\000"
 2787      7433325F 
 2787      7400
 2788              	.LASF50:
 2789 00d1 666C6167 		.ascii	"flagLiftHandle\000"
 2789      4C696674 
 2789      48616E64 
 2789      6C6500
 2790              	.LASF105:
ARM GAS  C:\Users\Diego\AppData\Local\Temp\cc84Hguj.s 			page 53


 2791 00e0 72657369 		.ascii	"residue\000"
 2791      64756500 
 2792              	.LASF20:
 2793 00e8 69645479 		.ascii	"idType\000"
 2793      706500
 2794              	.LASF120:
 2795 00ef 44444D6F 		.ascii	"DDMode\000"
 2795      646500
 2796              	.LASF148:
 2797 00f6 73696465 		.ascii	"side\000"
 2797      00
 2798              	.LASF134:
 2799 00fb 69645374 		.ascii	"idStation\000"
 2799      6174696F 
 2799      6E00
 2800              	.LASF24:
 2801 0105 73656C65 		.ascii	"selectedSale\000"
 2801      63746564 
 2801      53616C65 
 2801      00
 2802              	.LASF94:
 2803 0112 666C6167 		.ascii	"flagPoint2\000"
 2803      506F696E 
 2803      743200
 2804              	.LASF104:
 2805 011d 73637265 		.ascii	"screen\000"
 2805      656E00
 2806              	.LASF133:
 2807 0124 636F6E74 		.ascii	"controlChar\000"
 2807      726F6C43 
 2807      68617200 
 2808              	.LASF113:
 2809 0130 506C6174 		.ascii	"PlateRequest\000"
 2809      65526571 
 2809      75657374 
 2809      00
 2810              	.LASF139:
 2811 013d 62756666 		.ascii	"buffer_tx\000"
 2811      65725F74 
 2811      7800
 2812              	.LASF14:
 2813 0147 666C6F61 		.ascii	"float\000"
 2813      7400
 2814              	.LASF76:
 2815 014d 63686563 		.ascii	"checksum\000"
 2815      6B73756D 
 2815      00
 2816              	.LASF77:
 2817 0156 696E6465 		.ascii	"index\000"
 2817      7800
 2818              	.LASF117:
 2819 015c 4D6F6E65 		.ascii	"MoneyDec\000"
 2819      79446563 
 2819      00
 2820              	.LASF71:
 2821 0165 686F7365 		.ascii	"hose\000"
 2821      00
ARM GAS  C:\Users\Diego\AppData\Local\Temp\cc84Hguj.s 			page 54


 2822              	.LASF146:
 2823 016a 62756666 		.ascii	"bufferDisplay3\000"
 2823      65724469 
 2823      73706C61 
 2823      793300
 2824              	.LASF7:
 2825 0179 6C6F6E67 		.ascii	"long long unsigned int\000"
 2825      206C6F6E 
 2825      6720756E 
 2825      7369676E 
 2825      65642069 
 2826              	.LASF40:
 2827 0190 746F7461 		.ascii	"totalVolumePrevious\000"
 2827      6C566F6C 
 2827      756D6550 
 2827      72657669 
 2827      6F757300 
 2828              	.LASF132:
 2829 01a4 636F6E66 		.ascii	"configAccess\000"
 2829      69674163 
 2829      63657373 
 2829      00
 2830              	.LASF124:
 2831 01b1 64696769 		.ascii	"digits\000"
 2831      747300
 2832              	.LASF102:
 2833 01b8 74696D65 		.ascii	"time\000"
 2833      00
 2834              	.LASF149:
 2835 01bd 52465F43 		.ascii	"RF_Connection_GetRxBufferSize\000"
 2835      6F6E6E65 
 2835      6374696F 
 2835      6E5F4765 
 2835      74527842 
 2836              	.LASF136:
 2837 01db 7072696E 		.ascii	"printPortA\000"
 2837      74506F72 
 2837      744100
 2838              	.LASF137:
 2839 01e6 7072696E 		.ascii	"printPortB\000"
 2839      74506F72 
 2839      744200
 2840              	.LASF35:
 2841 01f1 70726F64 		.ascii	"productType\000"
 2841      75637454 
 2841      79706500 
 2842              	.LASF95:
 2843 01fd 70726F64 		.ascii	"productNumber\000"
 2843      7563744E 
 2843      756D6265 
 2843      7200
 2844              	.LASF107:
 2845 020b 69645365 		.ascii	"idSeller\000"
 2845      6C6C6572 
 2845      00
 2846              	.LASF21:
 2847 0214 69645365 		.ascii	"idSerial\000"
ARM GAS  C:\Users\Diego\AppData\Local\Temp\cc84Hguj.s 			page 55


 2847      7269616C 
 2847      00
 2848              	.LASF123:
 2849 021d 6C6F636B 		.ascii	"lockTurn\000"
 2849      5475726E 
 2849      00
 2850              	.LASF46:
 2851 0226 6D696C65 		.ascii	"mileageSale\000"
 2851      61676553 
 2851      616C6500 
 2852              	.LASF57:
 2853 0232 666C6167 		.ascii	"flagChangePPU\000"
 2853      4368616E 
 2853      67655050 
 2853      5500
 2854              	.LASF59:
 2855 0240 666C6167 		.ascii	"flagActiveSale\000"
 2855      41637469 
 2855      76655361 
 2855      6C6500
 2856              	.LASF87:
 2857 024f 666C6F77 		.ascii	"flowDisplay1\000"
 2857      44697370 
 2857      6C617931 
 2857      00
 2858              	.LASF88:
 2859 025c 666C6F77 		.ascii	"flowDisplay2\000"
 2859      44697370 
 2859      6C617932 
 2859      00
 2860              	.LASF89:
 2861 0269 666C6F77 		.ascii	"flowDisplay3\000"
 2861      44697370 
 2861      6C617933 
 2861      00
 2862              	.LASF90:
 2863 0276 666C6F77 		.ascii	"flowDisplay4\000"
 2863      44697370 
 2863      6C617934 
 2863      00
 2864              	.LASF64:
 2865 0283 746F7461 		.ascii	"totalsHandle\000"
 2865      6C734861 
 2865      6E646C65 
 2865      00
 2866              	.LASF34:
 2867 0290 70726573 		.ascii	"presetValue\000"
 2867      65745661 
 2867      6C756500 
 2868              	.LASF47:
 2869 029c 6964656E 		.ascii	"identySale\000"
 2869      74795361 
 2869      6C6500
 2870              	.LASF31:
 2871 02a7 73616C65 		.ascii	"saleType\000"
 2871      54797065 
 2871      00
ARM GAS  C:\Users\Diego\AppData\Local\Temp\cc84Hguj.s 			page 56


 2872              	.LASF29:
 2873 02b0 76616C75 		.ascii	"valueKeys\000"
 2873      654B6579 
 2873      7300
 2874              	.LASF18:
 2875 02ba 63686172 		.ascii	"char\000"
 2875      00
 2876              	.LASF116:
 2877 02bf 436F6E76 		.ascii	"ConversionFactor\000"
 2877      65727369 
 2877      6F6E4661 
 2877      63746F72 
 2877      00
 2878              	.LASF91:
 2879 02d0 6E756D62 		.ascii	"numberKeys1\000"
 2879      65724B65 
 2879      79733100 
 2880              	.LASF92:
 2881 02dc 6E756D62 		.ascii	"numberKeys2\000"
 2881      65724B65 
 2881      79733200 
 2882              	.LASF85:
 2883 02e8 636F756E 		.ascii	"countBeagleTX\000"
 2883      74426561 
 2883      676C6554 
 2883      5800
 2884              	.LASF78:
 2885 02f6 7461626C 		.ascii	"table\000"
 2885      6500
 2886              	.LASF152:
 2887 02fc 52465F43 		.ascii	"RF_Connection_PutChar\000"
 2887      6F6E6E65 
 2887      6374696F 
 2887      6E5F5075 
 2887      74436861 
 2888              	.LASF12:
 2889 0312 75696E74 		.ascii	"uint16\000"
 2889      313600
 2890              	.LASF103:
 2891 0319 64617465 		.ascii	"date\000"
 2891      00
 2892              	.LASF49:
 2893 031e 666C6167 		.ascii	"flagPayment\000"
 2893      5061796D 
 2893      656E7400 
 2894              	.LASF17:
 2895 032a 63686172 		.ascii	"char8\000"
 2895      3800
 2896              	.LASF54:
 2897 0330 70707551 		.ascii	"ppuQuota\000"
 2897      756F7461 
 2897      00
 2898              	.LASF74:
 2899 0339 6461746F 		.ascii	"datos\000"
 2899      7300
 2900              	.LASF42:
 2901 033f 746F7461 		.ascii	"totalMoneyAfter\000"
ARM GAS  C:\Users\Diego\AppData\Local\Temp\cc84Hguj.s 			page 57


 2901      6C4D6F6E 
 2901      65794166 
 2901      74657200 
 2902              	.LASF154:
 2903 034f 2E5C5246 		.ascii	".\\RFPoll.c\000"
 2903      506F6C6C 
 2903      2E6300
 2904              	.LASF52:
 2905 035a 6D6F6E65 		.ascii	"moneyQuota\000"
 2905      7951756F 
 2905      746100
 2906              	.LASF56:
 2907 0365 7072696E 		.ascii	"printers\000"
 2907      74657273 
 2907      00
 2908              	.LASF156:
 2909 036e 76657269 		.ascii	"verificar_check\000"
 2909      66696361 
 2909      725F6368 
 2909      65636B00 
 2910              	.LASF66:
 2911 037e 6D6F6E65 		.ascii	"moneySale\000"
 2911      7953616C 
 2911      6500
 2912              	.LASF6:
 2913 0388 6C6F6E67 		.ascii	"long long int\000"
 2913      206C6F6E 
 2913      6720696E 
 2913      7400
 2914              	.LASF68:
 2915 0396 70707553 		.ascii	"ppuSale\000"
 2915      616C6500 
 2916              	.LASF83:
 2917 039e 636F756E 		.ascii	"countAnimation1\000"
 2917      74416E69 
 2917      6D617469 
 2917      6F6E3100 
 2918              	.LASF122:
 2919 03ae 4E756D50 		.ascii	"NumPositions\000"
 2919      6F736974 
 2919      696F6E73 
 2919      00
 2920              	.LASF111:
 2921 03bb 73746174 		.ascii	"stateBeagleSoft\000"
 2921      65426561 
 2921      676C6553 
 2921      6F667400 
 2922              	.LASF41:
 2923 03cb 746F7461 		.ascii	"totalPPUPrevious\000"
 2923      6C505055 
 2923      50726576 
 2923      696F7573 
 2923      00
 2924              	.LASF84:
 2925 03dc 636F756E 		.ascii	"countAnimation2\000"
 2925      74416E69 
 2925      6D617469 
ARM GAS  C:\Users\Diego\AppData\Local\Temp\cc84Hguj.s 			page 58


 2925      6F6E3200 
 2926              	.LASF129:
 2927 03ec 74696D65 		.ascii	"timeDownHandle\000"
 2927      446F776E 
 2927      48616E64 
 2927      6C6500
 2928              	.LASF30:
 2929 03fb 76656869 		.ascii	"vehicleType\000"
 2929      636C6554 
 2929      79706500 
 2930              	.LASF48:
 2931 0407 666C6167 		.ascii	"flagKeyboard\000"
 2931      4B657962 
 2931      6F617264 
 2931      00
 2932              	.LASF75:
 2933 0414 73697A65 		.ascii	"size\000"
 2933      00
 2934              	.LASF13:
 2935 0419 75696E74 		.ascii	"uint32\000"
 2935      333200
 2936              	.LASF110:
 2937 0420 666C6167 		.ascii	"flagResetMux\000"
 2937      52657365 
 2937      744D7578 
 2937      00
 2938              	.LASF155:
 2939 042d 433A5C55 		.ascii	"C:\\Users\\Diego\\Documents\\GitHub\\NSY-DH\\Worksp"
 2939      73657273 
 2939      5C446965 
 2939      676F5C44 
 2939      6F63756D 
 2940 045a 61636530 		.ascii	"ace01\\Design01.cydsn\000"
 2940      315C4465 
 2940      7369676E 
 2940      30312E63 
 2940      7964736E 
 2941              	.LASF44:
 2942 046f 746F7461 		.ascii	"totalPPUAfter\000"
 2942      6C505055 
 2942      41667465 
 2942      7200
 2943              	.LASF27:
 2944 047d 6B657962 		.ascii	"keyboardWayToPay\000"
 2944      6F617264 
 2944      57617954 
 2944      6F506179 
 2944      00
 2945              	.LASF98:
 2946 048e 70707578 		.ascii	"ppux10\000"
 2946      313000
 2947              	.LASF39:
 2948 0495 746F7461 		.ascii	"totalMoneyPrevious\000"
 2948      6C4D6F6E 
 2948      65795072 
 2948      6576696F 
 2948      757300
ARM GAS  C:\Users\Diego\AppData\Local\Temp\cc84Hguj.s 			page 59


 2949              	.LASF93:
 2950 04a8 666C6167 		.ascii	"flagPoint1\000"
 2950      506F696E 
 2950      743100
 2951              	.LASF25:
 2952 04b3 6D6F6E65 		.ascii	"moneySelectedSale\000"
 2952      7953656C 
 2952      65637465 
 2952      6453616C 
 2952      6500
 2953              	.LASF101:
 2954 04c5 73796D62 		.ascii	"symbols\000"
 2954      6F6C7300 
 2955              	.LASF81:
 2956 04cd 70726F67 		.ascii	"programar_ok\000"
 2956      72616D61 
 2956      725F6F6B 
 2956      00
 2957              	.LASF128:
 2958 04da 64617465 		.ascii	"dateDownHandle\000"
 2958      446F776E 
 2958      48616E64 
 2958      6C6500
 2959              	.LASF45:
 2960 04e9 6C696365 		.ascii	"licenceSale\000"
 2960      6E636553 
 2960      616C6500 
 2961              	.LASF55:
 2962 04f5 70726963 		.ascii	"priceConsign\000"
 2962      65436F6E 
 2962      7369676E 
 2962      00
 2963              	.LASF2:
 2964 0502 73686F72 		.ascii	"short int\000"
 2964      7420696E 
 2964      7400
 2965              	.LASF4:
 2966 050c 6C6F6E67 		.ascii	"long int\000"
 2966      20696E74 
 2966      00
 2967              	.LASF127:
 2968 0515 566F6C55 		.ascii	"VolUnit\000"
 2968      6E697400 
 2969              	.LASF114:
 2970 051d 49444361 		.ascii	"IDCast\000"
 2970      737400
 2971              	.LASF82:
 2972 0524 49544D5F 		.ascii	"ITM_RxBuffer\000"
 2972      52784275 
 2972      66666572 
 2972      00
 2973              	.LASF125:
 2974 0531 68696464 		.ascii	"hiddenKeys\000"
 2974      656E4B65 
 2974      797300
 2975              	.LASF60:
 2976 053c 73686966 		.ascii	"shiftId\000"
ARM GAS  C:\Users\Diego\AppData\Local\Temp\cc84Hguj.s 			page 60


 2976      74496400 
 2977              	.LASF108:
 2978 0544 74797065 		.ascii	"typeIdSeller\000"
 2978      49645365 
 2978      6C6C6572 
 2978      00
 2979              	.LASF51:
 2980 0551 666C6167 		.ascii	"flagEndSale\000"
 2980      456E6453 
 2980      616C6500 
 2981              	.LASF37:
 2982 055d 64617465 		.ascii	"dateLiftHandle\000"
 2982      4C696674 
 2982      48616E64 
 2982      6C6500
 2983              	.LASF72:
 2984 056c 686F7365 		.ascii	"hoseNumber\000"
 2984      4E756D62 
 2984      657200
 2985              	.LASF145:
 2986 0577 62756666 		.ascii	"bufferDisplay2\000"
 2986      65724469 
 2986      73706C61 
 2986      793200
 2987              	.LASF140:
 2988 0586 696E7449 		.ascii	"intIDStation\000"
 2988      44537461 
 2988      74696F6E 
 2988      00
 2989              	.LASF147:
 2990 0593 62756666 		.ascii	"bufferDisplay4\000"
 2990      65724469 
 2990      73706C61 
 2990      793400
 2991              	.LASF142:
 2992 05a2 436F7069 		.ascii	"CopiasCredito\000"
 2992      61734372 
 2992      65646974 
 2992      6F00
 2993              	.LASF109:
 2994 05b0 70617373 		.ascii	"passwordSeller\000"
 2994      776F7264 
 2994      53656C6C 
 2994      657200
 2995              	.LASF43:
 2996 05bf 746F7461 		.ascii	"totalVolumeAfter\000"
 2996      6C566F6C 
 2996      756D6541 
 2996      66746572 
 2996      00
 2997              	.LASF115:
 2998 05d0 556E6974 		.ascii	"UnitType\000"
 2998      54797065 
 2998      00
 2999              	.LASF16:
 3000 05d9 75696E74 		.ascii	"uint64\000"
 3000      363400
ARM GAS  C:\Users\Diego\AppData\Local\Temp\cc84Hguj.s 			page 61


 3001              	.LASF96:
 3002 05e0 64656C61 		.ascii	"delayPicture1\000"
 3002      79506963 
 3002      74757265 
 3002      3100
 3003              	.LASF97:
 3004 05ee 64656C61 		.ascii	"delayPicture2\000"
 3004      79506963 
 3004      74757265 
 3004      3200
 3005              	.LASF36:
 3006 05fc 73746174 		.ascii	"stateMux\000"
 3006      654D7578 
 3006      00
 3007              	.LASF141:
 3008 0605 456E6361 		.ascii	"Encabezado1\000"
 3008      62657A61 
 3008      646F3100 
 3009              	.LASF19:
 3010 0611 73697A65 		.ascii	"sizetype\000"
 3010      74797065 
 3010      00
 3011              	.LASF5:
 3012 061a 6C6F6E67 		.ascii	"long unsigned int\000"
 3012      20756E73 
 3012      69676E65 
 3012      6420696E 
 3012      7400
 3013              	.LASF119:
 3014 062c 50505544 		.ascii	"PPUDec\000"
 3014      656300
 3015              	.LASF70:
 3016 0633 61637469 		.ascii	"activeHose\000"
 3016      7665486F 
 3016      736500
 3017              	.LASF58:
 3018 063e 666C6167 		.ascii	"flagPrint\000"
 3018      5072696E 
 3018      7400
 3019              	.LASF10:
 3020 0648 696E7433 		.ascii	"int32_t\000"
 3020      325F7400 
 3021              	.LASF23:
 3022 0650 666C6167 		.ascii	"flagWayToPayMixed\000"
 3022      57617954 
 3022      6F506179 
 3022      4D697865 
 3022      6400
 3023              	.LASF1:
 3024 0662 756E7369 		.ascii	"unsigned char\000"
 3024      676E6564 
 3024      20636861 
 3024      7200
 3025              	.LASF153:
 3026 0670 474E5520 		.ascii	"GNU C 4.9.3 20150303 (release) [ARM/embedded-4_9-br"
 3026      4320342E 
 3026      392E3320 
ARM GAS  C:\Users\Diego\AppData\Local\Temp\cc84Hguj.s 			page 62


 3026      32303135 
 3026      30333033 
 3027 06a3 616E6368 		.ascii	"anch revision 221220] -mcpu=cortex-m3 -mthumb -g -O"
 3027      20726576 
 3027      6973696F 
 3027      6E203232 
 3027      31323230 
 3028 06d6 67202D66 		.ascii	"g -ffunction-sections -ffat-lto-objects\000"
 3028      66756E63 
 3028      74696F6E 
 3028      2D736563 
 3028      74696F6E 
 3029              	.LASF28:
 3030 06fe 61757468 		.ascii	"authorizationFlag\000"
 3030      6F72697A 
 3030      6174696F 
 3030      6E466C61 
 3030      6700
 3031              	.LASF73:
 3032 0710 70756D70 		.ascii	"pump\000"
 3032      00
 3033              	.LASF106:
 3034 0715 74656D70 		.ascii	"temporal\000"
 3034      6F72616C 
 3034      00
 3035              	.LASF118:
 3036 071e 566F6C44 		.ascii	"VolDec\000"
 3036      656300
 3037              	.LASF33:
 3038 0725 70726573 		.ascii	"presetType\000"
 3038      65745479 
 3038      706500
 3039              	.LASF67:
 3040 0730 766F6C75 		.ascii	"volumeSale\000"
 3040      6D655361 
 3040      6C6500
 3041              	.LASF61:
 3042 073b 73686966 		.ascii	"shiftPassword\000"
 3042      74506173 
 3042      73776F72 
 3042      6400
 3043              	.LASF0:
 3044 0749 7369676E 		.ascii	"signed char\000"
 3044      65642063 
 3044      68617200 
 3045              	.LASF130:
 3046 0755 636F756E 		.ascii	"count_protector\000"
 3046      745F7072 
 3046      6F746563 
 3046      746F7200 
 3047              	.LASF3:
 3048 0765 73686F72 		.ascii	"short unsigned int\000"
 3048      7420756E 
 3048      7369676E 
 3048      65642069 
 3048      6E7400
 3049              	.LASF86:
ARM GAS  C:\Users\Diego\AppData\Local\Temp\cc84Hguj.s 			page 63


 3050 0778 636F756E 		.ascii	"countPump\000"
 3050      7450756D 
 3050      7000
 3051              	.LASF151:
 3052 0782 6D656D63 		.ascii	"memcpy\000"
 3052      707900
 3053              	.LASF69:
 3054 0789 70726F64 		.ascii	"productSale\000"
 3054      75637453 
 3054      616C6500 
 3055              	.LASF11:
 3056 0795 75696E74 		.ascii	"uint8\000"
 3056      3800
 3057              	.LASF15:
 3058 079b 646F7562 		.ascii	"double\000"
 3058      6C6500
 3059              	.LASF22:
 3060 07a2 77617954 		.ascii	"wayToPay\000"
 3060      6F506179 
 3060      00
 3061              	.LASF38:
 3062 07ab 74696D65 		.ascii	"timeLiftHandle\000"
 3062      4C696674 
 3062      48616E64 
 3062      6C6500
 3063              	.LASF65:
 3064 07ba 70707541 		.ascii	"ppuAuthorized\000"
 3064      7574686F 
 3064      72697A65 
 3064      6400
 3065              	.LASF26:
 3066 07c8 73657269 		.ascii	"serialSelectedSale\000"
 3066      616C5365 
 3066      6C656374 
 3066      65645361 
 3066      6C6500
 3067              	.LASF63:
 3068 07db 706F7369 		.ascii	"position\000"
 3068      74696F6E 
 3068      00
 3069              	.LASF144:
 3070 07e4 62756666 		.ascii	"bufferDisplay1\000"
 3070      65724469 
 3070      73706C61 
 3070      793100
 3071              	.LASF135:
 3072 07f3 70756D70 		.ascii	"pumpGap\000"
 3072      47617000 
 3073              	.LASF158:
 3074 07fb 52465F43 		.ascii	"RF_Connection_ClearRxBuffer\000"
 3074      6F6E6E65 
 3074      6374696F 
 3074      6E5F436C 
 3074      65617252 
 3075              		.ident	"GCC: (GNU Tools for ARM Embedded Processors) 4.9.3 20150303 (release) [ARM/embedded-4_9-br
