ARM GAS  C:\Users\RECEPC~1\AppData\Local\Temp\cckY5SBD.s 			page 1


   1              		.syntax unified
   2              		.cpu cortex-m3
   3              		.fpu softvfp
   4              		.eabi_attribute 20, 1
   5              		.eabi_attribute 21, 1
   6              		.eabi_attribute 23, 3
   7              		.eabi_attribute 24, 1
   8              		.eabi_attribute 25, 1
   9              		.eabi_attribute 26, 1
  10              		.eabi_attribute 30, 1
  11              		.eabi_attribute 34, 1
  12              		.eabi_attribute 18, 4
  13              		.thumb
  14              		.file	"RFPoll.c"
  15              		.text
  16              	.Ltext0:
  17              		.cfi_sections	.debug_frame
  18              		.section	.text.verificar_check,"ax",%progbits
  19              		.align	2
  20              		.global	verificar_check
  21              		.thumb
  22              		.thumb_func
  23              		.type	verificar_check, %function
  24              	verificar_check:
  25              	.LFB63:
  26              		.file 1 ".\\RFPoll.c"
   1:.\RFPoll.c    **** #include <project.h>
   2:.\RFPoll.c    **** #include <protocol.h>
   3:.\RFPoll.c    **** #include <variables.h>
   4:.\RFPoll.c    **** #include <RFPoll.h>
   5:.\RFPoll.c    **** #include <LCD.h>
   6:.\RFPoll.c    **** #include <I2C.h>
   7:.\RFPoll.c    **** #include <Print.h>
   8:.\RFPoll.c    **** #include <device.h>
   9:.\RFPoll.c    **** #include <stdio.h>
  10:.\RFPoll.c    **** #include <stdlib.h>
  11:.\RFPoll.c    **** 
  12:.\RFPoll.c    **** 
  13:.\RFPoll.c    **** 
  14:.\RFPoll.c    **** /*
  15:.\RFPoll.c    **** ***************************************************************************************************
  16:.\RFPoll.c    **** *                             uint8 verificar_check(uint8 *datos, uint16 size)
  17:.\RFPoll.c    **** *
  18:.\RFPoll.c    **** * Description : calcula el checksum
  19:.\RFPoll.c    **** *               
  20:.\RFPoll.c    **** 
  21:.\RFPoll.c    **** ***************************************************************************************************
  22:.\RFPoll.c    **** */
  23:.\RFPoll.c    **** uint8 verificar_check(uint8 *datos, uint16 size){
  27              		.loc 1 23 0
  28              		.cfi_startproc
  29              		@ args = 0, pretend = 0, frame = 256
  30              		@ frame_needed = 0, uses_anonymous_args = 0
  31              	.LVL0:
  32 0000 30B5     		push	{r4, r5, lr}
  33              		.cfi_def_cfa_offset 12
  34              		.cfi_offset 4, -12
ARM GAS  C:\Users\RECEPC~1\AppData\Local\Temp\cckY5SBD.s 			page 2


  35              		.cfi_offset 5, -8
  36              		.cfi_offset 14, -4
  37 0002 C1B0     		sub	sp, sp, #260
  38              		.cfi_def_cfa_offset 272
  39 0004 0546     		mov	r5, r0
  40 0006 0C46     		mov	r4, r1
  24:.\RFPoll.c    **** 	uint8 checksum,index; 
  25:.\RFPoll.c    **** 	uint16 i;
  26:.\RFPoll.c    ****     uint8 table[256] = { 
  41              		.loc 1 26 0
  42 0008 6846     		mov	r0, sp
  43              	.LVL1:
  44 000a 0949     		ldr	r1, .L5
  45              	.LVL2:
  46 000c 4FF48072 		mov	r2, #256
  47 0010 FFF7FEFF 		bl	memcpy
  48              	.LVL3:
  27:.\RFPoll.c    ****     0, 94,188,226, 97, 63,221,131,194,156,126, 32,163,253, 31, 65,
  28:.\RFPoll.c    ****     157,195, 33,127,252,162, 64, 30, 95,  1,227,189, 62, 96,130,220,
  29:.\RFPoll.c    ****     35,125,159,193, 66, 28,254,160,225,191, 93,  3,128,222, 60, 98,
  30:.\RFPoll.c    ****     190,224,  2, 92,223,129, 99, 61,124, 34,192,158, 29, 67,161,255,
  31:.\RFPoll.c    ****     70, 24,250,164, 39,121,155,197,132,218, 56,102,229,187, 89,  7,
  32:.\RFPoll.c    ****     219,133,103, 57,186,228,  6, 88, 25, 71,165,251,120, 38,196,154,
  33:.\RFPoll.c    ****     101, 59,217,135,  4, 90,184,230,167,249, 27, 69,198,152,122, 36,
  34:.\RFPoll.c    ****     248,166, 68, 26,153,199, 37,123, 58,100,134,216, 91,  5,231,185,
  35:.\RFPoll.c    ****     140,210, 48,110,237,179, 81, 15, 78, 16,242,172, 47,113,147,205,
  36:.\RFPoll.c    ****     17, 79,173,243,112, 46,204,146,211,141,111, 49,178,236, 14, 80,
  37:.\RFPoll.c    ****     175,241, 19, 77,206,144,114, 44,109, 51,209,143, 12, 82,176,238,
  38:.\RFPoll.c    ****     50,108,142,208, 83, 13,239,177,240,174, 76, 18,145,207, 45,115,
  39:.\RFPoll.c    ****     202,148,118, 40,171,245, 23, 73,  8, 86,180,234,105, 55,213,139,
  40:.\RFPoll.c    ****     87,  9,235,181, 54,104,138,212,149,203, 41,119,244,170, 72, 22,
  41:.\RFPoll.c    ****     233,183, 85, 11,136,214, 52,106, 43,117,151,201, 74, 20,246,168,
  42:.\RFPoll.c    ****     116, 42,200,150, 21, 75,169,247,182,232, 10, 84,215,137,107, 53};	
  43:.\RFPoll.c    **** 	checksum=0;
  44:.\RFPoll.c    **** 	for(i=0;i<(size-1);i++){
  49              		.loc 1 44 0
  50 0014 0023     		movs	r3, #0
  43:.\RFPoll.c    **** 	for(i=0;i<(size-1);i++){
  51              		.loc 1 43 0
  52 0016 1846     		mov	r0, r3
  53              		.loc 1 44 0
  54 0018 05E0     		b	.L2
  55              	.LVL4:
  56              	.L3:
  45:.\RFPoll.c    **** 		index = (uint8)(checksum ^ datos[i]);
  57              		.loc 1 45 0 discriminator 3
  58 001a EA5C     		ldrb	r2, [r5, r3]	@ zero_extendqisi2
  59 001c 5040     		eors	r0, r0, r2
  60              	.LVL5:
  46:.\RFPoll.c    **** 		checksum = table[index];				
  61              		.loc 1 46 0 discriminator 3
  62 001e 1DF80000 		ldrb	r0, [sp, r0]	@ zero_extendqisi2
  63              	.LVL6:
  44:.\RFPoll.c    **** 		index = (uint8)(checksum ^ datos[i]);
  64              		.loc 1 44 0 discriminator 3
  65 0022 0133     		adds	r3, r3, #1
  66              	.LVL7:
ARM GAS  C:\Users\RECEPC~1\AppData\Local\Temp\cckY5SBD.s 			page 3


  67 0024 9BB2     		uxth	r3, r3
  68              	.LVL8:
  69              	.L2:
  44:.\RFPoll.c    **** 		index = (uint8)(checksum ^ datos[i]);
  70              		.loc 1 44 0 is_stmt 0 discriminator 1
  71 0026 621E     		subs	r2, r4, #1
  72 0028 9342     		cmp	r3, r2
  73 002a F6DB     		blt	.L3
  47:.\RFPoll.c    **** 	}
  48:.\RFPoll.c    **** 	return checksum;
  49:.\RFPoll.c    **** }
  74              		.loc 1 49 0 is_stmt 1
  75 002c 41B0     		add	sp, sp, #260
  76              		.cfi_def_cfa_offset 12
  77              		@ sp needed
  78 002e 30BD     		pop	{r4, r5, pc}
  79              	.LVL9:
  80              	.L6:
  81              		.align	2
  82              	.L5:
  83 0030 00000000 		.word	.LANCHOR0
  84              		.cfi_endproc
  85              	.LFE63:
  86              		.size	verificar_check, .-verificar_check
  87              		.section	.text.pollingRFA_Tx,"ax",%progbits
  88              		.align	2
  89              		.global	pollingRFA_Tx
  90              		.thumb
  91              		.thumb_func
  92              		.type	pollingRFA_Tx, %function
  93              	pollingRFA_Tx:
  94              	.LFB65:
  50:.\RFPoll.c    **** 
  51:.\RFPoll.c    **** 
  52:.\RFPoll.c    **** 
  53:.\RFPoll.c    **** 
  54:.\RFPoll.c    **** void pollingRF_Rx(){
  55:.\RFPoll.c    ****     uint16 i,x,y,z;       
  56:.\RFPoll.c    ****     CyDelay(40);
  57:.\RFPoll.c    ****     if(RF_Connection_GetRxBufferSize() >= 1){
  58:.\RFPoll.c    ****         ActiveRF=1;
  59:.\RFPoll.c    ****         counterRF = 0;
  60:.\RFPoll.c    ****         i=0;
  61:.\RFPoll.c    ****         while(RF_Connection_GetRxBufferSize()>0){//&& (RF_Connection_RX_STS_FIFO_NOTEMPTY)
  62:.\RFPoll.c    ****            buffer_rf[i]=RF_Connection_ReadRxData(); 	
  63:.\RFPoll.c    ****     	   i++;	
  64:.\RFPoll.c    ****         } 
  65:.\RFPoll.c    ****         y=0;
  66:.\RFPoll.c    ****         buffer_tx[y] = 0xBC; y++;
  67:.\RFPoll.c    ****         buffer_tx[y] = 0xCB; y++;
  68:.\RFPoll.c    ****         buffer_tx[y] = 0xC8; y++;
  69:.\RFPoll.c    ****         buffer_tx[y] = IDCast[0]; y++;
  70:.\RFPoll.c    ****         buffer_tx[y] = IDCast[1]; y++;
  71:.\RFPoll.c    ****         if(((buffer_rf[0]==0xBC)&&(buffer_rf[1]==0xBB)&&(buffer_rf[2]==0xB8)&&(buffer_rf[3]==IDCast
  72:.\RFPoll.c    ****             switch(buffer_rf[6]){
  73:.\RFPoll.c    ****                case 0xA1:               //Peticion de estado
  74:.\RFPoll.c    ****                 if(buffer_rf[5] == side.a.dir){
ARM GAS  C:\Users\RECEPC~1\AppData\Local\Temp\cckY5SBD.s 			page 4


  75:.\RFPoll.c    ****                     if(side.a.RFstateReport == 0){                        
  76:.\RFPoll.c    ****                         buffer_tx[5] = side.a.dir;y++;
  77:.\RFPoll.c    ****                         buffer_tx[y] = 0xA1;y++;
  78:.\RFPoll.c    ****                         buffer_tx[y] = side.a.rfState; y++;
  79:.\RFPoll.c    ****                         buffer_tx[y] = verificar_check(buffer_tx,y+1);y++;
  80:.\RFPoll.c    ****                         for (x = 0; x < y; x++){
  81:.\RFPoll.c    ****                             RF_Connection_PutChar(buffer_tx[x]);
  82:.\RFPoll.c    ****                         }
  83:.\RFPoll.c    ****                     }else{
  84:.\RFPoll.c    ****                         pollingRFA_Tx();
  85:.\RFPoll.c    ****                     } 
  86:.\RFPoll.c    ****                 }
  87:.\RFPoll.c    ****                 if(buffer_rf[5] == side.b.dir){
  88:.\RFPoll.c    ****                     if(side.b.RFstateReport == 0){
  89:.\RFPoll.c    ****                         buffer_tx[5] = side.b.dir;y++;
  90:.\RFPoll.c    ****                         buffer_tx[y] = 0xA1;y++;
  91:.\RFPoll.c    ****                         buffer_tx[y] = side.b.rfState;y++;
  92:.\RFPoll.c    ****                         buffer_tx[y] = verificar_check(buffer_tx,y+1);y++;
  93:.\RFPoll.c    ****                         for (x = 0; x < y; x++){
  94:.\RFPoll.c    ****                             RF_Connection_PutChar(buffer_tx[x]);
  95:.\RFPoll.c    ****                         }
  96:.\RFPoll.c    ****                     }else{
  97:.\RFPoll.c    ****                         pollingRFB_Tx();
  98:.\RFPoll.c    ****                     } 
  99:.\RFPoll.c    ****                 }
 100:.\RFPoll.c    ****                 if(buffer_rf[5] == side.c.dir){
 101:.\RFPoll.c    ****                     buffer_tx[5] = side.c.dir; y++;
 102:.\RFPoll.c    ****                     buffer_tx[y] = 0xA1; y++;
 103:.\RFPoll.c    ****                     buffer_tx[y] = side.c.rfState; y++;
 104:.\RFPoll.c    ****                     buffer_tx[y] = verificar_check(buffer_tx,y+1);y++;
 105:.\RFPoll.c    ****                     for (x = 0; x < y; x++){
 106:.\RFPoll.c    ****                         RF_Connection_PutChar(buffer_tx[x]);
 107:.\RFPoll.c    ****                     }
 108:.\RFPoll.c    ****                 }
 109:.\RFPoll.c    ****                 if(buffer_rf[5] == side.d.dir){
 110:.\RFPoll.c    ****                     buffer_tx[5] = side.d.dir; y++;
 111:.\RFPoll.c    ****                     buffer_tx[y] = 0xA1; y++;
 112:.\RFPoll.c    ****                     buffer_tx[y] = side.d.rfState; y++;
 113:.\RFPoll.c    ****                     buffer_tx[y] = verificar_check(buffer_tx,y+1);y++;
 114:.\RFPoll.c    ****                     for (x = 0; x < y; x++){
 115:.\RFPoll.c    ****                         RF_Connection_PutChar(buffer_tx[x]);
 116:.\RFPoll.c    ****                     }
 117:.\RFPoll.c    ****                 }                    
 118:.\RFPoll.c    ****                break;
 119:.\RFPoll.c    ****                
 120:.\RFPoll.c    ****                
 121:.\RFPoll.c    ****                case 0xA5:
 122:.\RFPoll.c    ****                 if(buffer_rf[5] == side.a.dir){                      
 123:.\RFPoll.c    ****                     pollTotals = 1;
 124:.\RFPoll.c    ****                     buffer_tx[5] = side.a.dir;y++;
 125:.\RFPoll.c    ****                     buffer_tx[y] = 0xA1;y++;
 126:.\RFPoll.c    ****                     buffer_tx[y] = side.a.rfState; y++;
 127:.\RFPoll.c    ****                     buffer_tx[y] = verificar_check(buffer_tx,y+1);y++;
 128:.\RFPoll.c    ****                     for (x = 0; x < y; x++){
 129:.\RFPoll.c    ****                         RF_Connection_PutChar(buffer_tx[x]);
 130:.\RFPoll.c    ****                     }                    
 131:.\RFPoll.c    ****                 }                
ARM GAS  C:\Users\RECEPC~1\AppData\Local\Temp\cckY5SBD.s 			page 5


 132:.\RFPoll.c    ****                 if(buffer_rf[5] == side.b.dir){                      
 133:.\RFPoll.c    ****                     pollTotals = 2;
 134:.\RFPoll.c    ****                     buffer_tx[5] = side.b.dir;y++;
 135:.\RFPoll.c    ****                     buffer_tx[y] = 0xA1;y++;
 136:.\RFPoll.c    ****                     buffer_tx[y] = side.b.rfState; y++;
 137:.\RFPoll.c    ****                     buffer_tx[y] = verificar_check(buffer_tx,y+1);y++;
 138:.\RFPoll.c    ****                     for (x = 0; x < y; x++){
 139:.\RFPoll.c    ****                         RF_Connection_PutChar(buffer_tx[x]);
 140:.\RFPoll.c    ****                     }                    
 141:.\RFPoll.c    ****                 }                 
 142:.\RFPoll.c    ****                 
 143:.\RFPoll.c    ****                break;
 144:.\RFPoll.c    ****                 
 145:.\RFPoll.c    ****                case 0xA6:               //Envio de precios
 146:.\RFPoll.c    ****                 if(buffer_rf[5] == side.a.dir){                        
 147:.\RFPoll.c    ****                     for(x=9;x < 14 ; x++ ){
 148:.\RFPoll.c    ****                         side.a.ppuAuthorized[buffer_rf[8]][x-9] = buffer_rf[x];
 149:.\RFPoll.c    ****                     }
 150:.\RFPoll.c    ****                     side.a.changePPU = true;
 151:.\RFPoll.c    ****                     side.a.grade = buffer_rf[8];
 152:.\RFPoll.c    ****                     buffer_tx[5] = side.a.dir;y++;
 153:.\RFPoll.c    ****                     buffer_tx[y] = 0xA6;y++;
 154:.\RFPoll.c    ****                     buffer_tx[y] = 0x03;y++;
 155:.\RFPoll.c    ****                 } 
 156:.\RFPoll.c    ****                 if(buffer_rf[5] == side.b.dir){                        
 157:.\RFPoll.c    ****                     for(x=9;x < 14 ; x++ ){
 158:.\RFPoll.c    ****                         side.b.ppuAuthorized[buffer_rf[8]][x-9] = buffer_rf[x];
 159:.\RFPoll.c    ****                     }
 160:.\RFPoll.c    ****                     side.b.changePPU = true;
 161:.\RFPoll.c    ****                     side.b.grade = buffer_rf[8];
 162:.\RFPoll.c    ****                     buffer_tx[5] = side.b.dir; y++;
 163:.\RFPoll.c    ****                     buffer_tx[y] = 0xA6;y++;
 164:.\RFPoll.c    ****                     buffer_tx[y] = 0x03;y++;
 165:.\RFPoll.c    ****                 } 
 166:.\RFPoll.c    ****                 if(buffer_rf[5] == side.c.dir){                        
 167:.\RFPoll.c    ****                     for(x=9;x < 14 ; x++ ){
 168:.\RFPoll.c    ****                         side.c.ppuAuthorized[buffer_rf[8]][x-9] = buffer_rf[x];
 169:.\RFPoll.c    ****                     }
 170:.\RFPoll.c    ****                     side.c.changePPU = true;
 171:.\RFPoll.c    ****                     side.c.grade = buffer_rf[8];
 172:.\RFPoll.c    ****                     buffer_tx[5] = side.c.dir; y++;
 173:.\RFPoll.c    ****                     buffer_tx[y] = 0xA6;y++;
 174:.\RFPoll.c    ****                     buffer_tx[y] = 0x03;y++;
 175:.\RFPoll.c    ****                 } 
 176:.\RFPoll.c    ****                 if(buffer_rf[5] == side.d.dir){                        
 177:.\RFPoll.c    ****                     for(x=9;x < 14 ; x++ ){
 178:.\RFPoll.c    ****                         side.d.ppuAuthorized[buffer_rf[8]][x-9] = buffer_rf[x];
 179:.\RFPoll.c    ****                     }
 180:.\RFPoll.c    ****                     side.d.changePPU = true;
 181:.\RFPoll.c    ****                     side.d.grade = buffer_rf[8];
 182:.\RFPoll.c    ****                     buffer_tx[5] = side.d.dir; y++;
 183:.\RFPoll.c    ****                     buffer_tx[y] = 0xA6;y++;
 184:.\RFPoll.c    ****                     buffer_tx[y] = 0x03;y++;
 185:.\RFPoll.c    ****                 }
 186:.\RFPoll.c    ****                 buffer_tx[y] = verificar_check(buffer_tx,y+1);y++;
 187:.\RFPoll.c    ****                 for (x = 0; x < y; x++){
 188:.\RFPoll.c    ****                     RF_Connection_PutChar(buffer_tx[x]);
ARM GAS  C:\Users\RECEPC~1\AppData\Local\Temp\cckY5SBD.s 			page 6


 189:.\RFPoll.c    ****                 }
 190:.\RFPoll.c    ****                break;
 191:.\RFPoll.c    ****                 
 192:.\RFPoll.c    ****                case 0xA7:               //Impresion general
 193:.\RFPoll.c    ****                 for(x = 9; x <= buffer_rf[8];x++){
 194:.\RFPoll.c    ****                     //buffer_print[x-9] = buffer_rf[x];
 195:.\RFPoll.c    ****                     write_psoc1(printPortA,buffer_rf[x]);
 196:.\RFPoll.c    ****                 }
 197:.\RFPoll.c    ****                 if(buffer_rf[5] == side.a.dir){
 198:.\RFPoll.c    ****                     buffer_tx[5] = side.a.dir;
 199:.\RFPoll.c    ****                     buffer_tx[6] = 0xA7;
 200:.\RFPoll.c    ****                     buffer_tx[7] = side.a.rfState;
 201:.\RFPoll.c    ****                     buffer_tx[8] = 0x03;
 202:.\RFPoll.c    ****                 }  
 203:.\RFPoll.c    ****                 if(buffer_rf[5] == side.b.dir){
 204:.\RFPoll.c    ****                     buffer_tx[5] = side.b.dir;
 205:.\RFPoll.c    ****                     buffer_tx[6] = 0xA7;
 206:.\RFPoll.c    ****                     buffer_tx[7] = side.b.rfState;
 207:.\RFPoll.c    ****                     buffer_tx[8] = 0x03;
 208:.\RFPoll.c    ****                 }
 209:.\RFPoll.c    ****                 if(buffer_rf[5] == side.c.dir){
 210:.\RFPoll.c    ****                     buffer_tx[5] = side.c.dir;
 211:.\RFPoll.c    ****                     buffer_tx[6] = 0xA7;
 212:.\RFPoll.c    ****                     buffer_tx[7] = side.c.rfState;
 213:.\RFPoll.c    ****                     buffer_tx[8] = 0x03;
 214:.\RFPoll.c    ****                 }
 215:.\RFPoll.c    ****                 if(buffer_rf[5] == side.d.dir){
 216:.\RFPoll.c    ****                     buffer_tx[5] = side.d.dir;
 217:.\RFPoll.c    ****                     buffer_tx[6] = 0xA7;
 218:.\RFPoll.c    ****                     buffer_tx[7] = side.d.rfState;
 219:.\RFPoll.c    ****                     buffer_tx[8] = 0x03;
 220:.\RFPoll.c    ****                 }
 221:.\RFPoll.c    ****                 buffer_tx[8] = verificar_check(buffer_tx,9);
 222:.\RFPoll.c    ****                 for (x = 0; x < 9; x++){
 223:.\RFPoll.c    ****                     RF_Connection_PutChar(buffer_tx[x]);
 224:.\RFPoll.c    ****                 }
 225:.\RFPoll.c    ****                 
 226:.\RFPoll.c    ****                 
 227:.\RFPoll.c    ****                break;
 228:.\RFPoll.c    ****                 
 229:.\RFPoll.c    ****                case 0xA9:
 230:.\RFPoll.c    ****                 if(buffer_rf[5] == side.a.dir){
 231:.\RFPoll.c    ****                     for(x = 0; x < 10; x++){
 232:.\RFPoll.c    ****                         side.a.saleNumber[x] = buffer_rf[x+8];
 233:.\RFPoll.c    ****                     }
 234:.\RFPoll.c    ****                     if(bufferDisplay1.flagPrint)
 235:.\RFPoll.c    ****                         imprimir(printPortA,side.a.dir); 
 236:.\RFPoll.c    ****                 }
 237:.\RFPoll.c    ****                 if(buffer_rf[5] == side.b.dir){
 238:.\RFPoll.c    ****                     for(x = 0; x < 10; x++){
 239:.\RFPoll.c    ****                         side.b.saleNumber[x] = buffer_rf[x+8];
 240:.\RFPoll.c    ****                     }
 241:.\RFPoll.c    ****                     if(bufferDisplay2.flagPrint)
 242:.\RFPoll.c    ****                         imprimir(printPortB,side.b.dir); 
 243:.\RFPoll.c    ****                 }
 244:.\RFPoll.c    ****                 if(buffer_rf[5] == side.c.dir){
 245:.\RFPoll.c    ****                     for(x = 0; x < 10; x++){
ARM GAS  C:\Users\RECEPC~1\AppData\Local\Temp\cckY5SBD.s 			page 7


 246:.\RFPoll.c    ****                         side.c.saleNumber[x] = buffer_rf[x+8];
 247:.\RFPoll.c    ****                     }
 248:.\RFPoll.c    ****                     if(bufferDisplay3.flagPrint)
 249:.\RFPoll.c    ****                         imprimir(printPortA,side.c.dir); 
 250:.\RFPoll.c    ****                 }
 251:.\RFPoll.c    ****                 if(buffer_rf[5] == side.d.dir){
 252:.\RFPoll.c    ****                     for(x = 0; x < 10; x++){
 253:.\RFPoll.c    ****                         side.d.saleNumber[x] = buffer_rf[x+8];
 254:.\RFPoll.c    ****                     }
 255:.\RFPoll.c    ****                     if(bufferDisplay4.flagPrint)
 256:.\RFPoll.c    ****                         imprimir(printPortB,side.d.dir); 
 257:.\RFPoll.c    ****                 }
 258:.\RFPoll.c    ****                break;
 259:.\RFPoll.c    ****                case 0xAB:
 260:.\RFPoll.c    ****                 buffer_tx[0] = 0xBC;
 261:.\RFPoll.c    ****                break;
 262:.\RFPoll.c    ****                 
 263:.\RFPoll.c    ****                case 0xE1:               //Configuracion de la estacion
 264:.\RFPoll.c    ****                 symbols[1] = buffer_rf[8];
 265:.\RFPoll.c    ****                 date[0]    = buffer_rf[9];
 266:.\RFPoll.c    ****                 date[1]    = buffer_rf[10];
 267:.\RFPoll.c    ****                 date[2]    = buffer_rf[11];
 268:.\RFPoll.c    ****                 time[1]    = buffer_rf[12];
 269:.\RFPoll.c    ****                 time[0]    = buffer_rf[13];
 270:.\RFPoll.c    ****                 for(x = 17; x < 47; x++){
 271:.\RFPoll.c    ****                     Encabezado1[x-17] = buffer_rf[x];
 272:.\RFPoll.c    ****                 }
 273:.\RFPoll.c    ****                 for(x = 47; x < 77; x++){
 274:.\RFPoll.c    ****                     Encabezado2[x-47] = buffer_rf[x];
 275:.\RFPoll.c    ****                 }
 276:.\RFPoll.c    ****                 for(x = 77; x < 107; x++){
 277:.\RFPoll.c    ****                     Encabezado3[x-77] = buffer_rf[x];
 278:.\RFPoll.c    ****                 }
 279:.\RFPoll.c    ****                 for(x = 107; x < 137; x++){
 280:.\RFPoll.c    ****                     Encabezado4[x-77] = buffer_rf[x];
 281:.\RFPoll.c    ****                 }
 282:.\RFPoll.c    ****                 CopiasCredito = buffer_rf[16];
 283:.\RFPoll.c    ****                 write_hora();
 284:.\RFPoll.c    ****                 write_fecha(); 
 285:.\RFPoll.c    ****                 for(x =0 ; x <30; x++){
 286:.\RFPoll.c    ****                     EEPROM_1_WriteByte(Encabezado1[x],16+x);
 287:.\RFPoll.c    ****                 }
 288:.\RFPoll.c    ****                 for(x =30 ; x <60; x++){
 289:.\RFPoll.c    ****                     EEPROM_1_WriteByte(Encabezado2[x-30],16+x);
 290:.\RFPoll.c    ****                 }
 291:.\RFPoll.c    ****                 for(x =60 ; x <90; x++){
 292:.\RFPoll.c    ****                     EEPROM_1_WriteByte(Encabezado3[x-30],16+x);
 293:.\RFPoll.c    ****                 }
 294:.\RFPoll.c    ****                 for(x =90 ; x <120; x++){
 295:.\RFPoll.c    ****                     EEPROM_1_WriteByte(Encabezado4[x-30],16+x);
 296:.\RFPoll.c    ****                 }
 297:.\RFPoll.c    ****                 side.a.dir = EEPROM_1_ReadByte(12);
 298:.\RFPoll.c    ****                 side.b.dir = EEPROM_1_ReadByte(13);
 299:.\RFPoll.c    ****                 side.c.dir = EEPROM_1_ReadByte(14);
 300:.\RFPoll.c    ****                 side.d.dir = EEPROM_1_ReadByte(15);
 301:.\RFPoll.c    ****                 imprimir(printPortA,side.a.dir);
 302:.\RFPoll.c    ****                break;
ARM GAS  C:\Users\RECEPC~1\AppData\Local\Temp\cckY5SBD.s 			page 8


 303:.\RFPoll.c    ****                
 304:.\RFPoll.c    ****                case 0xE2:               //Configuracion de la posicion                             
 305:.\RFPoll.c    ****                 buffer_tx[5] = buffer_rf[5];
 306:.\RFPoll.c    ****                 buffer_tx[6] = 0xE2;
 307:.\RFPoll.c    ****                 buffer_tx[7] = 0x08;
 308:.\RFPoll.c    ****                 buffer_tx[8] = 0x03;
 309:.\RFPoll.c    ****                 buffer_tx[9] = verificar_check(buffer_tx,10);
 310:.\RFPoll.c    ****                 for (x = 0; x < 10; x++){
 311:.\RFPoll.c    ****                     RF_Connection_PutChar(buffer_tx[x]);
 312:.\RFPoll.c    ****                 }
 313:.\RFPoll.c    ****                 for(x = 8; x < 12; x++){
 314:.\RFPoll.c    ****                     GradesHose[x-8] = buffer_rf[x];
 315:.\RFPoll.c    ****                 }
 316:.\RFPoll.c    ****                 lockTurn = buffer_rf[12];
 317:.\RFPoll.c    ****                 EEPROM_1_WriteByte(lockTurn,7);
 318:.\RFPoll.c    ****                break;
 319:.\RFPoll.c    ****                 
 320:.\RFPoll.c    ****                case 0xE4:               //Turno                                                 
 321:.\RFPoll.c    ****                 if(buffer_rf[7]== 0x02){
 322:.\RFPoll.c    ****                     flowDisplay1 = 0;
 323:.\RFPoll.c    ****                     ShiftState = 0;
 324:.\RFPoll.c    ****                     side.a.rfState = RF_IDLE;
 325:.\RFPoll.c    ****                     side.a.RFstateReport = 0;
 326:.\RFPoll.c    ****                     SetPicture(1,DISPLAY_ERROR);
 327:.\RFPoll.c    ****                 }else{
 328:.\RFPoll.c    ****                     ShiftState = 0;
 329:.\RFPoll.c    ****                     lockTurn = buffer_rf[7];
 330:.\RFPoll.c    ****                     flowDisplay1 = 0;
 331:.\RFPoll.c    ****                     side.a.RFstateReport = 0;
 332:.\RFPoll.c    ****                     CyDelay(200);
 333:.\RFPoll.c    ****                     SetPicture(1,DISPLAY_ID_RECONOCIDO);
 334:.\RFPoll.c    ****                 }
 335:.\RFPoll.c    ****                     
 336:.\RFPoll.c    ****                break;
 337:.\RFPoll.c    ****            }                       
 338:.\RFPoll.c    ****         } 
 339:.\RFPoll.c    ****         RF_Connection_ClearRxBuffer(); 
 340:.\RFPoll.c    ****     }                            
 341:.\RFPoll.c    ****     //countRX = 0;            
 342:.\RFPoll.c    **** }
 343:.\RFPoll.c    **** 
 344:.\RFPoll.c    **** 
 345:.\RFPoll.c    **** void pollingRFA_Tx(){   
  95              		.loc 1 345 0
  96              		.cfi_startproc
  97              		@ args = 0, pretend = 0, frame = 0
  98              		@ frame_needed = 0, uses_anonymous_args = 0
  99 0000 70B5     		push	{r4, r5, r6, lr}
 100              		.cfi_def_cfa_offset 16
 101              		.cfi_offset 4, -16
 102              		.cfi_offset 5, -12
 103              		.cfi_offset 6, -8
 104              		.cfi_offset 14, -4
 346:.\RFPoll.c    ****     uint16 x,y,z;      
 347:.\RFPoll.c    ****     /////////////// COPIA DE RECIBO //////////////////
 348:.\RFPoll.c    **** //    if(side.a.rfState == RF_COPY_RECEIPT && side.a.RFstateReport == 1){        
 349:.\RFPoll.c    **** //        buffer_txDisplay[5] = side.a.dir;
ARM GAS  C:\Users\RECEPC~1\AppData\Local\Temp\cckY5SBD.s 			page 9


 350:.\RFPoll.c    **** //        buffer_txDisplay[6] = 0xE6;
 351:.\RFPoll.c    **** //        buffer_txDisplay[7] = RF_COPY_RECEIPT;
 352:.\RFPoll.c    **** //        buffer_txDisplay[8] = verificar_check(buffer_txDisplay,9);
 353:.\RFPoll.c    **** //        for (x = 0; x < 9; x++){
 354:.\RFPoll.c    **** //            RF_Connection_PutChar(buffer_txDisplay[x]);
 355:.\RFPoll.c    **** //        }
 356:.\RFPoll.c    **** //		side.a.RFstateReport = 0;
 357:.\RFPoll.c    **** //    }    
 358:.\RFPoll.c    ****     ////////////// PRESET - DISPENSANDO ////////////////////////////////////
 359:.\RFPoll.c    ****     if(side.a.pumpState == PUMP_BUSY && side.a.RFstateReport == 1){
 105              		.loc 1 359 0
 106 0002 9D4B     		ldr	r3, .L74
 107 0004 93F80431 		ldrb	r3, [r3, #260]	@ zero_extendqisi2
 108 0008 092B     		cmp	r3, #9
 109 000a 40F08980 		bne	.L8
 110              		.loc 1 359 0 is_stmt 0 discriminator 1
 111 000e 9A4B     		ldr	r3, .L74
 112 0010 93F80731 		ldrb	r3, [r3, #263]	@ zero_extendqisi2
 113 0014 012B     		cmp	r3, #1
 114 0016 40F08380 		bne	.L8
 360:.\RFPoll.c    ****         buffer_txPreset[0] = 0xBC;
 115              		.loc 1 360 0 is_stmt 1
 116 001a 984B     		ldr	r3, .L74+4
 117 001c BC22     		movs	r2, #188
 118 001e 1A70     		strb	r2, [r3]
 361:.\RFPoll.c    ****         buffer_txPreset[1] = 0xCB;
 119              		.loc 1 361 0
 120 0020 CB22     		movs	r2, #203
 121 0022 5A70     		strb	r2, [r3, #1]
 362:.\RFPoll.c    ****         buffer_txPreset[2] = 0xC8;
 122              		.loc 1 362 0
 123 0024 C822     		movs	r2, #200
 124 0026 9A70     		strb	r2, [r3, #2]
 363:.\RFPoll.c    ****         buffer_txPreset[3] = IDCast[0];
 125              		.loc 1 363 0
 126 0028 954A     		ldr	r2, .L74+8
 127 002a 1178     		ldrb	r1, [r2]	@ zero_extendqisi2
 128 002c D970     		strb	r1, [r3, #3]
 364:.\RFPoll.c    ****         buffer_txPreset[4] = IDCast[1];
 129              		.loc 1 364 0
 130 002e 5278     		ldrb	r2, [r2, #1]	@ zero_extendqisi2
 131 0030 1A71     		strb	r2, [r3, #4]
 365:.\RFPoll.c    ****         buffer_txPreset[5]  = side.a.dir;
 132              		.loc 1 365 0
 133 0032 914A     		ldr	r2, .L74
 134 0034 1178     		ldrb	r1, [r2]	@ zero_extendqisi2
 135 0036 5971     		strb	r1, [r3, #5]
 366:.\RFPoll.c    ****         buffer_txPreset[6]  = 0xAA;
 136              		.loc 1 366 0
 137 0038 AA21     		movs	r1, #170
 138 003a 9971     		strb	r1, [r3, #6]
 367:.\RFPoll.c    ****         buffer_txPreset[7]  = RF_DELIVERING;
 139              		.loc 1 367 0
 140 003c 0121     		movs	r1, #1
 141 003e D971     		strb	r1, [r3, #7]
 368:.\RFPoll.c    ****         buffer_txPreset[8]  = side.a.activeHose;
 142              		.loc 1 368 0
ARM GAS  C:\Users\RECEPC~1\AppData\Local\Temp\cckY5SBD.s 			page 10


 143 0040 92F80021 		ldrb	r2, [r2, #256]	@ zero_extendqisi2
 144 0044 1A72     		strb	r2, [r3, #8]
 369:.\RFPoll.c    ****         buffer_txPreset[9]  = bufferDisplay1.presetType[0]&0x03;
 145              		.loc 1 369 0
 146 0046 8F49     		ldr	r1, .L74+12
 147 0048 91F86320 		ldrb	r2, [r1, #99]	@ zero_extendqisi2
 148 004c 02F00302 		and	r2, r2, #3
 149 0050 5A72     		strb	r2, [r3, #9]
 370:.\RFPoll.c    ****         for(x = bufferDisplay1.presetValue[0][0] ; x > 0; x--){
 150              		.loc 1 370 0
 151 0052 91F86500 		ldrb	r0, [r1, #101]	@ zero_extendqisi2
 152 0056 84B2     		uxth	r4, r0
 153              	.LVL10:
 154 0058 08E0     		b	.L9
 155              	.L10:
 371:.\RFPoll.c    ****             tempPreset[bufferDisplay1.presetValue[0][0]-x] = (bufferDisplay1.presetValue[0][x]); 
 156              		.loc 1 371 0 discriminator 3
 157 005a 021B     		subs	r2, r0, r4
 158 005c 894B     		ldr	r3, .L74+12
 159 005e 2344     		add	r3, r3, r4
 160 0060 93F86510 		ldrb	r1, [r3, #101]	@ zero_extendqisi2
 161 0064 884B     		ldr	r3, .L74+16
 162 0066 9954     		strb	r1, [r3, r2]
 370:.\RFPoll.c    ****         for(x = bufferDisplay1.presetValue[0][0] ; x > 0; x--){
 163              		.loc 1 370 0 discriminator 3
 164 0068 013C     		subs	r4, r4, #1
 165              	.LVL11:
 166 006a A4B2     		uxth	r4, r4
 167              	.LVL12:
 168              	.L9:
 370:.\RFPoll.c    ****         for(x = bufferDisplay1.presetValue[0][0] ; x > 0; x--){
 169              		.loc 1 370 0 is_stmt 0 discriminator 1
 170 006c 002C     		cmp	r4, #0
 171 006e F4D1     		bne	.L10
 172 0070 0A23     		movs	r3, #10
 173 0072 0CE0     		b	.L11
 174              	.LVL13:
 175              	.L13:
 372:.\RFPoll.c    ****         }
 373:.\RFPoll.c    ****         for(x = 10; x<=17; x++){
 374:.\RFPoll.c    ****             buffer_txPreset[x] = tempPreset[x-10]; 
 176              		.loc 1 374 0 is_stmt 1
 177 0074 A3F10A02 		sub	r2, r3, #10
 178 0078 8349     		ldr	r1, .L74+16
 179 007a 8A5C     		ldrb	r2, [r1, r2]	@ zero_extendqisi2
 180 007c D2B2     		uxtb	r2, r2
 181 007e 7F49     		ldr	r1, .L74+4
 182 0080 CA54     		strb	r2, [r1, r3]
 375:.\RFPoll.c    ****             if(buffer_txPreset[x]== 0x00)
 183              		.loc 1 375 0
 184 0082 12B9     		cbnz	r2, .L12
 376:.\RFPoll.c    ****                 buffer_txPreset[x] = 0x30;
 185              		.loc 1 376 0
 186 0084 3021     		movs	r1, #48
 187 0086 7D4A     		ldr	r2, .L74+4
 188 0088 D154     		strb	r1, [r2, r3]
 189              	.L12:
ARM GAS  C:\Users\RECEPC~1\AppData\Local\Temp\cckY5SBD.s 			page 11


 373:.\RFPoll.c    ****             buffer_txPreset[x] = tempPreset[x-10]; 
 190              		.loc 1 373 0 discriminator 2
 191 008a 0133     		adds	r3, r3, #1
 192              	.LVL14:
 193 008c 9BB2     		uxth	r3, r3
 194              	.LVL15:
 195              	.L11:
 373:.\RFPoll.c    ****             buffer_txPreset[x] = tempPreset[x-10]; 
 196              		.loc 1 373 0 is_stmt 0 discriminator 1
 197 008e 112B     		cmp	r3, #17
 198 0090 F0D9     		bls	.L13
 377:.\RFPoll.c    ****         }        
 378:.\RFPoll.c    ****         buffer_txPreset[18]  = 0x00;
 199              		.loc 1 378 0 is_stmt 1
 200 0092 0022     		movs	r2, #0
 201 0094 794B     		ldr	r3, .L74+4
 202              	.LVL16:
 203 0096 9A74     		strb	r2, [r3, #18]
 379:.\RFPoll.c    ****         if(bufferDisplay1.flagPrint == 0){
 204              		.loc 1 379 0
 205 0098 7A4B     		ldr	r3, .L74+12
 206 009a 93F83431 		ldrb	r3, [r3, #308]	@ zero_extendqisi2
 207 009e 63B1     		cbz	r3, .L69
 208 00a0 2346     		mov	r3, r4
 209 00a2 1BE0     		b	.L15
 210              	.LVL17:
 211              	.L16:
 380:.\RFPoll.c    ****             for(x = 0; x <8 ; x++){
 381:.\RFPoll.c    ****                 buffer_txPreset[19+x]=0x20;
 212              		.loc 1 381 0 discriminator 3
 213 00a4 03F11302 		add	r2, r3, #19
 214 00a8 2020     		movs	r0, #32
 215 00aa 7449     		ldr	r1, .L74+4
 216 00ac 8854     		strb	r0, [r1, r2]
 382:.\RFPoll.c    ****                 tempPreset[x] = 0x00;
 217              		.loc 1 382 0 discriminator 3
 218 00ae 0021     		movs	r1, #0
 219 00b0 754A     		ldr	r2, .L74+16
 220 00b2 D154     		strb	r1, [r2, r3]
 380:.\RFPoll.c    ****             for(x = 0; x <8 ; x++){
 221              		.loc 1 380 0 discriminator 3
 222 00b4 0133     		adds	r3, r3, #1
 223              	.LVL18:
 224 00b6 9BB2     		uxth	r3, r3
 225              	.LVL19:
 226 00b8 00E0     		b	.L14
 227              	.LVL20:
 228              	.L69:
 229 00ba 2346     		mov	r3, r4
 230              	.L14:
 231              	.LVL21:
 380:.\RFPoll.c    ****             for(x = 0; x <8 ; x++){
 232              		.loc 1 380 0 is_stmt 0 discriminator 1
 233 00bc 072B     		cmp	r3, #7
 234 00be F1D9     		bls	.L16
 235 00c0 0EE0     		b	.L17
 236              	.L18:
ARM GAS  C:\Users\RECEPC~1\AppData\Local\Temp\cckY5SBD.s 			page 12


 383:.\RFPoll.c    ****             }
 384:.\RFPoll.c    ****         }else{
 385:.\RFPoll.c    ****             for(x = 0; x <8 ; x++){
 386:.\RFPoll.c    ****                 buffer_txPreset[19+x]=bufferDisplay1.licenceSale[x+1];
 237              		.loc 1 386 0 is_stmt 1 discriminator 3
 238 00c2 03F11300 		add	r0, r3, #19
 239 00c6 591C     		adds	r1, r3, #1
 240 00c8 6E4A     		ldr	r2, .L74+12
 241 00ca 0A44     		add	r2, r2, r1
 242 00cc 92F8DF50 		ldrb	r5, [r2, #223]	@ zero_extendqisi2
 243 00d0 6A4A     		ldr	r2, .L74+4
 244 00d2 1554     		strb	r5, [r2, r0]
 387:.\RFPoll.c    ****                 tempPreset[x] = 0x00;
 245              		.loc 1 387 0 discriminator 3
 246 00d4 0020     		movs	r0, #0
 247 00d6 6C4A     		ldr	r2, .L74+16
 248 00d8 D054     		strb	r0, [r2, r3]
 385:.\RFPoll.c    ****                 buffer_txPreset[19+x]=bufferDisplay1.licenceSale[x+1];
 249              		.loc 1 385 0 discriminator 3
 250 00da 8BB2     		uxth	r3, r1
 251              	.LVL22:
 252              	.L15:
 385:.\RFPoll.c    ****                 buffer_txPreset[19+x]=bufferDisplay1.licenceSale[x+1];
 253              		.loc 1 385 0 is_stmt 0 discriminator 1
 254 00dc 072B     		cmp	r3, #7
 255 00de F0D9     		bls	.L18
 256              	.L17:
 257 00e0 1B23     		movs	r3, #27
 258              	.LVL23:
 259 00e2 04E0     		b	.L19
 260              	.LVL24:
 261              	.L20:
 388:.\RFPoll.c    ****             }
 389:.\RFPoll.c    ****         }
 390:.\RFPoll.c    ****         for(x=27; x<=37;x++){
 391:.\RFPoll.c    ****             buffer_txPreset[x]= 0x30;
 262              		.loc 1 391 0 is_stmt 1 discriminator 3
 263 00e4 3021     		movs	r1, #48
 264 00e6 654A     		ldr	r2, .L74+4
 265 00e8 D154     		strb	r1, [r2, r3]
 390:.\RFPoll.c    ****             buffer_txPreset[x]= 0x30;
 266              		.loc 1 390 0 discriminator 3
 267 00ea 0133     		adds	r3, r3, #1
 268              	.LVL25:
 269 00ec 9BB2     		uxth	r3, r3
 270              	.LVL26:
 271              	.L19:
 390:.\RFPoll.c    ****             buffer_txPreset[x]= 0x30;
 272              		.loc 1 390 0 is_stmt 0 discriminator 1
 273 00ee 252B     		cmp	r3, #37
 274 00f0 F8D9     		bls	.L20
 392:.\RFPoll.c    ****         }
 393:.\RFPoll.c    ****         buffer_txPreset[38] = verificar_check(buffer_txPreset,39);            
 275              		.loc 1 393 0 is_stmt 1
 276 00f2 624D     		ldr	r5, .L74+4
 277 00f4 2846     		mov	r0, r5
 278 00f6 2721     		movs	r1, #39
ARM GAS  C:\Users\RECEPC~1\AppData\Local\Temp\cckY5SBD.s 			page 13


 279 00f8 FFF7FEFF 		bl	verificar_check
 280              	.LVL27:
 281 00fc 85F82600 		strb	r0, [r5, #38]
 282              	.LVL28:
 394:.\RFPoll.c    ****         for (x = 0; x < 39; x++){
 283              		.loc 1 394 0
 284 0100 05E0     		b	.L21
 285              	.LVL29:
 286              	.L22:
 395:.\RFPoll.c    ****             RF_Connection_PutChar(buffer_txPreset[x]);
 287              		.loc 1 395 0 discriminator 3
 288 0102 5E4B     		ldr	r3, .L74+4
 289 0104 185D     		ldrb	r0, [r3, r4]	@ zero_extendqisi2
 290 0106 FFF7FEFF 		bl	RF_Connection_PutChar
 291              	.LVL30:
 394:.\RFPoll.c    ****         for (x = 0; x < 39; x++){
 292              		.loc 1 394 0 discriminator 3
 293 010a 0134     		adds	r4, r4, #1
 294              	.LVL31:
 295 010c A4B2     		uxth	r4, r4
 296              	.LVL32:
 297              	.L21:
 394:.\RFPoll.c    ****         for (x = 0; x < 39; x++){
 298              		.loc 1 394 0 is_stmt 0 discriminator 1
 299 010e 262C     		cmp	r4, #38
 300 0110 F7D9     		bls	.L22
 396:.\RFPoll.c    ****         }            
 397:.\RFPoll.c    ****         side.a.rfState = RF_DELIVERING;
 301              		.loc 1 397 0 is_stmt 1
 302 0112 594B     		ldr	r3, .L74
 303 0114 0122     		movs	r2, #1
 304 0116 83F80321 		strb	r2, [r3, #259]
 398:.\RFPoll.c    ****         side.a.RFstateReport = 0;
 305              		.loc 1 398 0
 306 011a 0022     		movs	r2, #0
 307 011c 83F80721 		strb	r2, [r3, #263]
 308              	.LVL33:
 309              	.L8:
 399:.\RFPoll.c    ****     }      
 400:.\RFPoll.c    ****     ////////////// FIN VENTA ////////////////////////////////////
 401:.\RFPoll.c    ****     if((side.a.pumpState == PUMP_PEOT || side.a.pumpState == PUMP_FEOT) && side.a.RFstateReport == 
 310              		.loc 1 401 0
 311 0120 554B     		ldr	r3, .L74
 312 0122 93F80431 		ldrb	r3, [r3, #260]	@ zero_extendqisi2
 313 0126 0A3B     		subs	r3, r3, #10
 314 0128 DBB2     		uxtb	r3, r3
 315 012a 012B     		cmp	r3, #1
 316 012c 00F2D080 		bhi	.L23
 317              		.loc 1 401 0 is_stmt 0 discriminator 1
 318 0130 514B     		ldr	r3, .L74
 319 0132 93F80731 		ldrb	r3, [r3, #263]	@ zero_extendqisi2
 320 0136 012B     		cmp	r3, #1
 321 0138 40F0CA80 		bne	.L23
 402:.\RFPoll.c    ****         buffer_txEOT[0] = 0xBC;
 322              		.loc 1 402 0 is_stmt 1
 323 013c 534B     		ldr	r3, .L74+20
 324 013e BC22     		movs	r2, #188
ARM GAS  C:\Users\RECEPC~1\AppData\Local\Temp\cckY5SBD.s 			page 14


 325 0140 1A70     		strb	r2, [r3]
 403:.\RFPoll.c    ****         buffer_txEOT[1] = 0xCB;
 326              		.loc 1 403 0
 327 0142 CB22     		movs	r2, #203
 328 0144 5A70     		strb	r2, [r3, #1]
 404:.\RFPoll.c    ****         buffer_txEOT[2] = 0xC8;
 329              		.loc 1 404 0
 330 0146 C822     		movs	r2, #200
 331 0148 9A70     		strb	r2, [r3, #2]
 405:.\RFPoll.c    ****         buffer_txEOT[3] = IDCast[0];
 332              		.loc 1 405 0
 333 014a 4D4A     		ldr	r2, .L74+8
 334 014c 1178     		ldrb	r1, [r2]	@ zero_extendqisi2
 335 014e D970     		strb	r1, [r3, #3]
 406:.\RFPoll.c    ****         buffer_txEOT[4] = IDCast[1];
 336              		.loc 1 406 0
 337 0150 5278     		ldrb	r2, [r2, #1]	@ zero_extendqisi2
 338 0152 1A71     		strb	r2, [r3, #4]
 407:.\RFPoll.c    ****         buffer_txEOT[5]  = side.a.dir;
 339              		.loc 1 407 0
 340 0154 484A     		ldr	r2, .L74
 341 0156 1178     		ldrb	r1, [r2]	@ zero_extendqisi2
 342 0158 5971     		strb	r1, [r3, #5]
 408:.\RFPoll.c    ****         buffer_txEOT[6]  = 0xA4;
 343              		.loc 1 408 0
 344 015a A421     		movs	r1, #164
 345 015c 9971     		strb	r1, [r3, #6]
 409:.\RFPoll.c    ****         buffer_txEOT[7]  = RF_CASHSALEREPORT;
 346              		.loc 1 409 0
 347 015e 0221     		movs	r1, #2
 348 0160 D971     		strb	r1, [r3, #7]
 410:.\RFPoll.c    ****         buffer_txEOT[8]  = side.a.activeHose-1;
 349              		.loc 1 410 0
 350 0162 92F80011 		ldrb	r1, [r2, #256]	@ zero_extendqisi2
 351 0166 0139     		subs	r1, r1, #1
 352 0168 1972     		strb	r1, [r3, #8]
 411:.\RFPoll.c    ****         for(x=side.a.ppuSale[0];x > 0 ;x--){						   							
 353              		.loc 1 411 0
 354 016a 92F8F100 		ldrb	r0, [r2, #241]	@ zero_extendqisi2
 355 016e 84B2     		uxth	r4, r0
 356              	.LVL34:
 357 0170 08E0     		b	.L24
 358              	.L25:
 412:.\RFPoll.c    ****     		tempPPU[side.a.ppuSale[0]-x]= side.a.ppuSale[x];
 359              		.loc 1 412 0 discriminator 3
 360 0172 021B     		subs	r2, r0, r4
 361 0174 404B     		ldr	r3, .L74
 362 0176 2344     		add	r3, r3, r4
 363 0178 93F8F110 		ldrb	r1, [r3, #241]	@ zero_extendqisi2
 364 017c 444B     		ldr	r3, .L74+24
 365 017e 9954     		strb	r1, [r3, r2]
 411:.\RFPoll.c    ****         for(x=side.a.ppuSale[0];x > 0 ;x--){						   							
 366              		.loc 1 411 0 discriminator 3
 367 0180 013C     		subs	r4, r4, #1
 368              	.LVL35:
 369 0182 A4B2     		uxth	r4, r4
 370              	.LVL36:
ARM GAS  C:\Users\RECEPC~1\AppData\Local\Temp\cckY5SBD.s 			page 15


 371              	.L24:
 411:.\RFPoll.c    ****         for(x=side.a.ppuSale[0];x > 0 ;x--){						   							
 372              		.loc 1 411 0 is_stmt 0 discriminator 1
 373 0184 002C     		cmp	r4, #0
 374 0186 F4D1     		bne	.L25
 375 0188 0923     		movs	r3, #9
 376 018a 0CE0     		b	.L26
 377              	.LVL37:
 378              	.L28:
 413:.\RFPoll.c    ****     	}
 414:.\RFPoll.c    ****         for(x = 9; x<=13; x++){
 415:.\RFPoll.c    ****             buffer_txEOT[x] = tempPPU[x-9]; 
 379              		.loc 1 415 0 is_stmt 1
 380 018c A3F10902 		sub	r2, r3, #9
 381 0190 3F49     		ldr	r1, .L74+24
 382 0192 8A5C     		ldrb	r2, [r1, r2]	@ zero_extendqisi2
 383 0194 D2B2     		uxtb	r2, r2
 384 0196 3D49     		ldr	r1, .L74+20
 385 0198 CA54     		strb	r2, [r1, r3]
 416:.\RFPoll.c    ****             if(buffer_txEOT[x]== 0x00)
 386              		.loc 1 416 0
 387 019a 12B9     		cbnz	r2, .L27
 417:.\RFPoll.c    ****                 buffer_txEOT[x] = 0x30;
 388              		.loc 1 417 0
 389 019c 3021     		movs	r1, #48
 390 019e 3B4A     		ldr	r2, .L74+20
 391 01a0 D154     		strb	r1, [r2, r3]
 392              	.L27:
 414:.\RFPoll.c    ****             buffer_txEOT[x] = tempPPU[x-9]; 
 393              		.loc 1 414 0 discriminator 2
 394 01a2 0133     		adds	r3, r3, #1
 395              	.LVL38:
 396 01a4 9BB2     		uxth	r3, r3
 397              	.LVL39:
 398              	.L26:
 414:.\RFPoll.c    ****             buffer_txEOT[x] = tempPPU[x-9]; 
 399              		.loc 1 414 0 is_stmt 0 discriminator 1
 400 01a6 0D2B     		cmp	r3, #13
 401 01a8 F0D9     		bls	.L28
 418:.\RFPoll.c    ****         } 
 419:.\RFPoll.c    ****         if(digits ==5 || digits ==6){
 402              		.loc 1 419 0 is_stmt 1
 403 01aa 3A4B     		ldr	r3, .L74+28
 404              	.LVL40:
 405 01ac 1B78     		ldrb	r3, [r3]	@ zero_extendqisi2
 406 01ae 053B     		subs	r3, r3, #5
 407 01b0 DBB2     		uxtb	r3, r3
 408 01b2 012B     		cmp	r3, #1
 409 01b4 0CD9     		bls	.L70
 410 01b6 0123     		movs	r3, #1
 411 01b8 1BE0     		b	.L30
 412              	.LVL41:
 413              	.L31:
 420:.\RFPoll.c    ****             for(x=1;x <= side.a.volumeSale[0];x++){						   							
 421:.\RFPoll.c    ****                 buffer_txEOT[x+13]=side.a.volumeSale[7-x];                
 414              		.loc 1 421 0 discriminator 3
 415 01ba 03F10D01 		add	r1, r3, #13
ARM GAS  C:\Users\RECEPC~1\AppData\Local\Temp\cckY5SBD.s 			page 16


 416 01be 364A     		ldr	r2, .L74+32
 417 01c0 D21A     		subs	r2, r2, r3
 418 01c2 92F8E300 		ldrb	r0, [r2, #227]	@ zero_extendqisi2
 419 01c6 314A     		ldr	r2, .L74+20
 420 01c8 5054     		strb	r0, [r2, r1]
 420:.\RFPoll.c    ****             for(x=1;x <= side.a.volumeSale[0];x++){						   							
 421              		.loc 1 420 0 discriminator 3
 422 01ca 0133     		adds	r3, r3, #1
 423              	.LVL42:
 424 01cc 9BB2     		uxth	r3, r3
 425              	.LVL43:
 426 01ce 00E0     		b	.L29
 427              	.LVL44:
 428              	.L70:
 429 01d0 0123     		movs	r3, #1
 430              	.L29:
 431              	.LVL45:
 420:.\RFPoll.c    ****             for(x=1;x <= side.a.volumeSale[0];x++){						   							
 432              		.loc 1 420 0 is_stmt 0 discriminator 1
 433 01d2 294A     		ldr	r2, .L74
 434 01d4 92F8E320 		ldrb	r2, [r2, #227]	@ zero_extendqisi2
 435 01d8 9A42     		cmp	r2, r3
 436 01da EED2     		bcs	.L31
 437 01dc 0EE0     		b	.L32
 438              	.L33:
 422:.\RFPoll.c    ****         	}
 423:.\RFPoll.c    ****         }else{
 424:.\RFPoll.c    ****             for(x=1;x <= side.a.volumeSale[0];x++){						   							
 425:.\RFPoll.c    ****                 buffer_txEOT[x+13]=side.a.volumeSale[9-x];                
 439              		.loc 1 425 0 is_stmt 1 discriminator 3
 440 01de 03F10D01 		add	r1, r3, #13
 441 01e2 2E4A     		ldr	r2, .L74+36
 442 01e4 D21A     		subs	r2, r2, r3
 443 01e6 92F8E300 		ldrb	r0, [r2, #227]	@ zero_extendqisi2
 444 01ea 284A     		ldr	r2, .L74+20
 445 01ec 5054     		strb	r0, [r2, r1]
 424:.\RFPoll.c    ****                 buffer_txEOT[x+13]=side.a.volumeSale[9-x];                
 446              		.loc 1 424 0 discriminator 3
 447 01ee 0133     		adds	r3, r3, #1
 448              	.LVL46:
 449 01f0 9BB2     		uxth	r3, r3
 450              	.LVL47:
 451              	.L30:
 424:.\RFPoll.c    ****                 buffer_txEOT[x+13]=side.a.volumeSale[9-x];                
 452              		.loc 1 424 0 is_stmt 0 discriminator 1
 453 01f2 214A     		ldr	r2, .L74
 454 01f4 92F8E320 		ldrb	r2, [r2, #227]	@ zero_extendqisi2
 455 01f8 9A42     		cmp	r2, r3
 456 01fa F0D2     		bcs	.L33
 457              	.L32:
 426:.\RFPoll.c    ****         	}
 427:.\RFPoll.c    ****         }        
 428:.\RFPoll.c    ****         if(buffer_txEOT[20]==0x00){
 458              		.loc 1 428 0 is_stmt 1
 459 01fc 234B     		ldr	r3, .L74+20
 460              	.LVL48:
 461 01fe 1B7D     		ldrb	r3, [r3, #20]	@ zero_extendqisi2
ARM GAS  C:\Users\RECEPC~1\AppData\Local\Temp\cckY5SBD.s 			page 17


 462 0200 1BB9     		cbnz	r3, .L34
 429:.\RFPoll.c    ****             buffer_txEOT[20] = 0x30;
 463              		.loc 1 429 0
 464 0202 224B     		ldr	r3, .L74+20
 465 0204 3022     		movs	r2, #48
 466 0206 1A75     		strb	r2, [r3, #20]
 430:.\RFPoll.c    ****             buffer_txEOT[21] = 0x30;
 467              		.loc 1 430 0
 468 0208 5A75     		strb	r2, [r3, #21]
 469              	.L34:
 431:.\RFPoll.c    ****         }
 432:.\RFPoll.c    ****         if(digits ==5 || digits ==6){
 470              		.loc 1 432 0
 471 020a 224B     		ldr	r3, .L74+28
 472 020c 1B78     		ldrb	r3, [r3]	@ zero_extendqisi2
 473 020e 053B     		subs	r3, r3, #5
 474 0210 DBB2     		uxtb	r3, r3
 475 0212 012B     		cmp	r3, #1
 476 0214 0CD9     		bls	.L71
 477 0216 0123     		movs	r3, #1
 478 0218 1BE0     		b	.L36
 479              	.LVL49:
 480              	.L37:
 433:.\RFPoll.c    ****             for(x=1;x <= side.a.moneySale[0];x++){						   							
 434:.\RFPoll.c    ****         		buffer_txEOT[x+21]=side.a.moneySale[7-x];                
 481              		.loc 1 434 0 discriminator 3
 482 021a 03F11501 		add	r1, r3, #21
 483 021e 1E4A     		ldr	r2, .L74+32
 484 0220 D21A     		subs	r2, r2, r3
 485 0222 92F8D500 		ldrb	r0, [r2, #213]	@ zero_extendqisi2
 486 0226 194A     		ldr	r2, .L74+20
 487 0228 5054     		strb	r0, [r2, r1]
 433:.\RFPoll.c    ****             for(x=1;x <= side.a.moneySale[0];x++){						   							
 488              		.loc 1 433 0 discriminator 3
 489 022a 0133     		adds	r3, r3, #1
 490              	.LVL50:
 491 022c 9BB2     		uxth	r3, r3
 492              	.LVL51:
 493 022e 00E0     		b	.L35
 494              	.LVL52:
 495              	.L71:
 496 0230 0123     		movs	r3, #1
 497              	.L35:
 498              	.LVL53:
 433:.\RFPoll.c    ****             for(x=1;x <= side.a.moneySale[0];x++){						   							
 499              		.loc 1 433 0 is_stmt 0 discriminator 1
 500 0232 114A     		ldr	r2, .L74
 501 0234 92F8D520 		ldrb	r2, [r2, #213]	@ zero_extendqisi2
 502 0238 9A42     		cmp	r2, r3
 503 023a EED2     		bcs	.L37
 504 023c 0EE0     		b	.L38
 505              	.L39:
 435:.\RFPoll.c    ****         	} 
 436:.\RFPoll.c    ****         }else{
 437:.\RFPoll.c    ****             for(x=1;x <= side.a.moneySale[0];x++){						   							
 438:.\RFPoll.c    ****         		buffer_txEOT[x+21]=side.a.moneySale[9-x];                
 506              		.loc 1 438 0 is_stmt 1 discriminator 3
ARM GAS  C:\Users\RECEPC~1\AppData\Local\Temp\cckY5SBD.s 			page 18


 507 023e 03F11501 		add	r1, r3, #21
 508 0242 164A     		ldr	r2, .L74+36
 509 0244 D21A     		subs	r2, r2, r3
 510 0246 92F8D500 		ldrb	r0, [r2, #213]	@ zero_extendqisi2
 511 024a 104A     		ldr	r2, .L74+20
 512 024c 5054     		strb	r0, [r2, r1]
 437:.\RFPoll.c    ****         		buffer_txEOT[x+21]=side.a.moneySale[9-x];                
 513              		.loc 1 437 0 discriminator 3
 514 024e 0133     		adds	r3, r3, #1
 515              	.LVL54:
 516 0250 9BB2     		uxth	r3, r3
 517              	.LVL55:
 518              	.L36:
 437:.\RFPoll.c    ****         		buffer_txEOT[x+21]=side.a.moneySale[9-x];                
 519              		.loc 1 437 0 is_stmt 0 discriminator 1
 520 0252 094A     		ldr	r2, .L74
 521 0254 92F8D520 		ldrb	r2, [r2, #213]	@ zero_extendqisi2
 522 0258 9A42     		cmp	r2, r3
 523 025a F0D2     		bcs	.L39
 524              	.L38:
 439:.\RFPoll.c    ****         	}            
 440:.\RFPoll.c    ****         }
 441:.\RFPoll.c    ****         if(buffer_txEOT[28]==0x00){
 525              		.loc 1 441 0 is_stmt 1
 526 025c 0B4B     		ldr	r3, .L74+20
 527              	.LVL56:
 528 025e 1B7F     		ldrb	r3, [r3, #28]	@ zero_extendqisi2
 529 0260 1BB9     		cbnz	r3, .L40
 442:.\RFPoll.c    ****             buffer_txEOT[28] = 0x30;
 530              		.loc 1 442 0
 531 0262 0A4B     		ldr	r3, .L74+20
 532 0264 3022     		movs	r2, #48
 533 0266 1A77     		strb	r2, [r3, #28]
 443:.\RFPoll.c    ****             buffer_txEOT[29] = 0x30;
 534              		.loc 1 443 0
 535 0268 5A77     		strb	r2, [r3, #29]
 536              	.L40:
 444:.\RFPoll.c    ****         }
 445:.\RFPoll.c    ****         buffer_txEOT[30] = verificar_check(buffer_txEOT,31);                
 537              		.loc 1 445 0
 538 026a 084D     		ldr	r5, .L74+20
 539 026c 2846     		mov	r0, r5
 540 026e 1F21     		movs	r1, #31
 541 0270 FFF7FEFF 		bl	verificar_check
 542              	.LVL57:
 543 0274 A877     		strb	r0, [r5, #30]
 544              	.LVL58:
 446:.\RFPoll.c    ****         for (x = 0; x < 31; x++){
 545              		.loc 1 446 0
 546 0276 19E0     		b	.L41
 547              	.L75:
 548              		.align	2
 549              	.L74:
 550 0278 00000000 		.word	side
 551 027c 00000000 		.word	buffer_txPreset
 552 0280 00000000 		.word	IDCast
 553 0284 00000000 		.word	bufferDisplay1
ARM GAS  C:\Users\RECEPC~1\AppData\Local\Temp\cckY5SBD.s 			page 19


 554 0288 00000000 		.word	tempPreset
 555 028c 00000000 		.word	buffer_txEOT
 556 0290 00000000 		.word	tempPPU
 557 0294 00000000 		.word	digits
 558 0298 07000000 		.word	side+7
 559 029c 09000000 		.word	side+9
 560              	.LVL59:
 561              	.L42:
 447:.\RFPoll.c    ****             RF_Connection_PutChar(buffer_txEOT[x]);
 562              		.loc 1 447 0 discriminator 3
 563 02a0 9B4B     		ldr	r3, .L76
 564 02a2 185D     		ldrb	r0, [r3, r4]	@ zero_extendqisi2
 565 02a4 FFF7FEFF 		bl	RF_Connection_PutChar
 566              	.LVL60:
 446:.\RFPoll.c    ****         for (x = 0; x < 31; x++){
 567              		.loc 1 446 0 discriminator 3
 568 02a8 0134     		adds	r4, r4, #1
 569              	.LVL61:
 570 02aa A4B2     		uxth	r4, r4
 571              	.LVL62:
 572              	.L41:
 446:.\RFPoll.c    ****         for (x = 0; x < 31; x++){
 573              		.loc 1 446 0 is_stmt 0 discriminator 1
 574 02ac 1E2C     		cmp	r4, #30
 575 02ae F7D9     		bls	.L42
 448:.\RFPoll.c    ****         }   
 449:.\RFPoll.c    ****         side.a.pumpState = PUMP_IDLE;
 576              		.loc 1 449 0 is_stmt 1
 577 02b0 984B     		ldr	r3, .L76+4
 578 02b2 0622     		movs	r2, #6
 579 02b4 83F80421 		strb	r2, [r3, #260]
 450:.\RFPoll.c    ****         side.a.rfState = RF_IDLE;
 580              		.loc 1 450 0
 581 02b8 0822     		movs	r2, #8
 582 02ba 83F80321 		strb	r2, [r3, #259]
 451:.\RFPoll.c    ****         bufferDisplay1.flagActiveSale = false;
 583              		.loc 1 451 0
 584 02be 0022     		movs	r2, #0
 585 02c0 9549     		ldr	r1, .L76+8
 586 02c2 81F83521 		strb	r2, [r1, #309]
 452:.\RFPoll.c    ****         side.a.RFstateReport = 0;
 587              		.loc 1 452 0
 588 02c6 83F80721 		strb	r2, [r3, #263]
 453:.\RFPoll.c    ****         pollTotals = 1;
 589              		.loc 1 453 0
 590 02ca 0122     		movs	r2, #1
 591 02cc 934B     		ldr	r3, .L76+12
 592 02ce 1A70     		strb	r2, [r3]
 593              	.LVL63:
 594              	.L23:
 454:.\RFPoll.c    ****         
 455:.\RFPoll.c    ****     }                                               
 456:.\RFPoll.c    ****     ////////////// TURNOS ////////////////////////////////////
 457:.\RFPoll.c    ****     if(ShiftState ==1  && side.a.RFstateReport == 1){   
 595              		.loc 1 457 0
 596 02d0 934B     		ldr	r3, .L76+16
 597 02d2 1B78     		ldrb	r3, [r3]	@ zero_extendqisi2
ARM GAS  C:\Users\RECEPC~1\AppData\Local\Temp\cckY5SBD.s 			page 20


 598 02d4 DBB2     		uxtb	r3, r3
 599 02d6 012B     		cmp	r3, #1
 600 02d8 51D1     		bne	.L43
 601              		.loc 1 457 0 is_stmt 0 discriminator 1
 602 02da 8E4B     		ldr	r3, .L76+4
 603 02dc 93F80731 		ldrb	r3, [r3, #263]	@ zero_extendqisi2
 604 02e0 012B     		cmp	r3, #1
 605 02e2 4CD1     		bne	.L43
 458:.\RFPoll.c    ****         buffer_txDisplay[0] = 0xBC;
 606              		.loc 1 458 0 is_stmt 1
 607 02e4 8F4B     		ldr	r3, .L76+20
 608 02e6 BC22     		movs	r2, #188
 609 02e8 1A70     		strb	r2, [r3]
 459:.\RFPoll.c    ****         buffer_txDisplay[1] = 0xCB;
 610              		.loc 1 459 0
 611 02ea CB22     		movs	r2, #203
 612 02ec 5A70     		strb	r2, [r3, #1]
 460:.\RFPoll.c    ****         buffer_txDisplay[2] = 0xC8;
 613              		.loc 1 460 0
 614 02ee C822     		movs	r2, #200
 615 02f0 9A70     		strb	r2, [r3, #2]
 461:.\RFPoll.c    ****         buffer_txDisplay[3] = IDCast[0];
 616              		.loc 1 461 0
 617 02f2 8D4A     		ldr	r2, .L76+24
 618 02f4 1178     		ldrb	r1, [r2]	@ zero_extendqisi2
 619 02f6 D970     		strb	r1, [r3, #3]
 462:.\RFPoll.c    ****         buffer_txDisplay[4] = IDCast[1];
 620              		.loc 1 462 0
 621 02f8 5278     		ldrb	r2, [r2, #1]	@ zero_extendqisi2
 622 02fa 1A71     		strb	r2, [r3, #4]
 463:.\RFPoll.c    ****         buffer_txDisplay[5]  = side.a.dir;
 623              		.loc 1 463 0
 624 02fc 854A     		ldr	r2, .L76+4
 625 02fe 1278     		ldrb	r2, [r2]	@ zero_extendqisi2
 626 0300 5A71     		strb	r2, [r3, #5]
 464:.\RFPoll.c    ****         buffer_txDisplay[6]  = 0xE3;
 627              		.loc 1 464 0
 628 0302 E322     		movs	r2, #227
 629 0304 9A71     		strb	r2, [r3, #6]
 465:.\RFPoll.c    ****         buffer_txDisplay[7]  = RF_WORKSHIFTREQ;
 630              		.loc 1 465 0
 631 0306 0522     		movs	r2, #5
 632 0308 DA71     		strb	r2, [r3, #7]
 466:.\RFPoll.c    ****         for(x=bufferDisplay1.shiftId[0];x >=1  ;x--){						   							
 633              		.loc 1 466 0
 634 030a 834B     		ldr	r3, .L76+8
 635 030c 93F83641 		ldrb	r4, [r3, #310]	@ zero_extendqisi2
 636              	.LVL64:
 637 0310 08E0     		b	.L44
 638              	.L45:
 467:.\RFPoll.c    ****     		buffer_txDisplay[x+7]= bufferDisplay1.shiftId[x];            
 639              		.loc 1 467 0 discriminator 3
 640 0312 E21D     		adds	r2, r4, #7
 641 0314 804B     		ldr	r3, .L76+8
 642 0316 2344     		add	r3, r3, r4
 643 0318 93F83611 		ldrb	r1, [r3, #310]	@ zero_extendqisi2
 644 031c 814B     		ldr	r3, .L76+20
ARM GAS  C:\Users\RECEPC~1\AppData\Local\Temp\cckY5SBD.s 			page 21


 645 031e 9954     		strb	r1, [r3, r2]
 466:.\RFPoll.c    ****         for(x=bufferDisplay1.shiftId[0];x >=1  ;x--){						   							
 646              		.loc 1 466 0 discriminator 3
 647 0320 013C     		subs	r4, r4, #1
 648              	.LVL65:
 649 0322 A4B2     		uxth	r4, r4
 650              	.LVL66:
 651              	.L44:
 466:.\RFPoll.c    ****         for(x=bufferDisplay1.shiftId[0];x >=1  ;x--){						   							
 652              		.loc 1 466 0 is_stmt 0 discriminator 1
 653 0324 002C     		cmp	r4, #0
 654 0326 F4D1     		bne	.L45
 655 0328 0122     		movs	r2, #1
 656 032a 0BE0     		b	.L46
 657              	.LVL67:
 658              	.L47:
 468:.\RFPoll.c    ****     	}
 469:.\RFPoll.c    **** //        for(x=8; x<19; x++){
 470:.\RFPoll.c    **** //            if(buffer_txDisplay[x] ==0x00)
 471:.\RFPoll.c    **** //                buffer_txDisplay[x]=0x30;
 472:.\RFPoll.c    **** //        }
 473:.\RFPoll.c    ****         for(x=1;x <= bufferDisplay1.shiftPassword[0] ;x++){						   							
 474:.\RFPoll.c    ****     		buffer_txDisplay[x+18]= bufferDisplay1.shiftPassword[(bufferDisplay1.shiftPassword[0]+1)-x]; 
 659              		.loc 1 474 0 is_stmt 1 discriminator 3
 660 032c 02F11201 		add	r1, r2, #18
 661 0330 0133     		adds	r3, r3, #1
 662 0332 9B1A     		subs	r3, r3, r2
 663 0334 7848     		ldr	r0, .L76+8
 664 0336 0344     		add	r3, r3, r0
 665 0338 93F84101 		ldrb	r0, [r3, #321]	@ zero_extendqisi2
 666 033c 794B     		ldr	r3, .L76+20
 667 033e 5854     		strb	r0, [r3, r1]
 473:.\RFPoll.c    ****     		buffer_txDisplay[x+18]= bufferDisplay1.shiftPassword[(bufferDisplay1.shiftPassword[0]+1)-x]; 
 668              		.loc 1 473 0 discriminator 3
 669 0340 0132     		adds	r2, r2, #1
 670              	.LVL68:
 671 0342 92B2     		uxth	r2, r2
 672              	.LVL69:
 673              	.L46:
 473:.\RFPoll.c    ****     		buffer_txDisplay[x+18]= bufferDisplay1.shiftPassword[(bufferDisplay1.shiftPassword[0]+1)-x]; 
 674              		.loc 1 473 0 is_stmt 0 discriminator 1
 675 0344 744B     		ldr	r3, .L76+8
 676 0346 93F84131 		ldrb	r3, [r3, #321]	@ zero_extendqisi2
 677 034a 99B2     		uxth	r1, r3
 678 034c 9142     		cmp	r1, r2
 679 034e EDD2     		bcs	.L47
 475:.\RFPoll.c    ****     	}
 476:.\RFPoll.c    **** //        for(x=19; x<31; x++){
 477:.\RFPoll.c    **** //            if(buffer_txDisplay[x] ==0x00)
 478:.\RFPoll.c    **** //                buffer_txDisplay[x]=0x30;
 479:.\RFPoll.c    **** //        }
 480:.\RFPoll.c    ****         buffer_txDisplay[32] = verificar_check(buffer_txDisplay,33);
 680              		.loc 1 480 0 is_stmt 1
 681 0350 744D     		ldr	r5, .L76+20
 682 0352 2846     		mov	r0, r5
 683 0354 2121     		movs	r1, #33
 684 0356 FFF7FEFF 		bl	verificar_check
ARM GAS  C:\Users\RECEPC~1\AppData\Local\Temp\cckY5SBD.s 			page 22


 685              	.LVL70:
 686 035a 85F82000 		strb	r0, [r5, #32]
 687              	.LVL71:
 481:.\RFPoll.c    ****         for (x = 0; x < 33; x++){
 688              		.loc 1 481 0
 689 035e 05E0     		b	.L48
 690              	.LVL72:
 691              	.L49:
 482:.\RFPoll.c    ****             RF_Connection_PutChar(buffer_txDisplay[x]);
 692              		.loc 1 482 0 discriminator 3
 693 0360 704B     		ldr	r3, .L76+20
 694 0362 185D     		ldrb	r0, [r3, r4]	@ zero_extendqisi2
 695 0364 FFF7FEFF 		bl	RF_Connection_PutChar
 696              	.LVL73:
 481:.\RFPoll.c    ****         for (x = 0; x < 33; x++){
 697              		.loc 1 481 0 discriminator 3
 698 0368 0134     		adds	r4, r4, #1
 699              	.LVL74:
 700 036a A4B2     		uxth	r4, r4
 701              	.LVL75:
 702              	.L48:
 481:.\RFPoll.c    ****         for (x = 0; x < 33; x++){
 703              		.loc 1 481 0 is_stmt 0 discriminator 1
 704 036c 202C     		cmp	r4, #32
 705 036e F7D9     		bls	.L49
 483:.\RFPoll.c    ****         }
 484:.\RFPoll.c    ****         side.a.rfState = RF_IDLE;
 706              		.loc 1 484 0 is_stmt 1
 707 0370 684B     		ldr	r3, .L76+4
 708 0372 0822     		movs	r2, #8
 709 0374 83F80321 		strb	r2, [r3, #259]
 485:.\RFPoll.c    ****         side.a.RFstateReport = 0;
 710              		.loc 1 485 0
 711 0378 0022     		movs	r2, #0
 712 037a 83F80721 		strb	r2, [r3, #263]
 713              	.LVL76:
 714              	.L43:
 486:.\RFPoll.c    ****     }
 487:.\RFPoll.c    ****     ////////////// CAMBIO PPU ////////////////////////////////////
 488:.\RFPoll.c    ****     if(side.a.changePPU){
 715              		.loc 1 488 0
 716 037e 654B     		ldr	r3, .L76+4
 717 0380 93F80531 		ldrb	r3, [r3, #261]	@ zero_extendqisi2
 718 0384 6BB1     		cbz	r3, .L50
 489:.\RFPoll.c    ****         if(priceChange(side.a.dir,side.a.grade,side.a.ppuAuthorized[side.a.grade]))
 719              		.loc 1 489 0
 720 0386 634B     		ldr	r3, .L76+4
 721 0388 93F80611 		ldrb	r1, [r3, #262]	@ zero_extendqisi2
 722 038c 03EBC102 		add	r2, r3, r1, lsl #3
 723 0390 1878     		ldrb	r0, [r3]	@ zero_extendqisi2
 724 0392 B532     		adds	r2, r2, #181
 725 0394 FFF7FEFF 		bl	priceChange
 726              	.LVL77:
 727 0398 18B1     		cbz	r0, .L50
 490:.\RFPoll.c    ****             side.a.changePPU = false;          
 728              		.loc 1 490 0
 729 039a 0022     		movs	r2, #0
ARM GAS  C:\Users\RECEPC~1\AppData\Local\Temp\cckY5SBD.s 			page 23


 730 039c 5D4B     		ldr	r3, .L76+4
 731 039e 83F80521 		strb	r2, [r3, #261]
 732              	.L50:
 491:.\RFPoll.c    ****     }    
 492:.\RFPoll.c    ****     ////////////// TOTALES ////////////////////////////////////
 493:.\RFPoll.c    ****     
 494:.\RFPoll.c    ****     if(side.a.RFstateReport == 1 && pollTotals ==1){
 733              		.loc 1 494 0
 734 03a2 5C4B     		ldr	r3, .L76+4
 735 03a4 93F80731 		ldrb	r3, [r3, #263]	@ zero_extendqisi2
 736 03a8 012B     		cmp	r3, #1
 737 03aa 40F0AF80 		bne	.L7
 738              		.loc 1 494 0 is_stmt 0 discriminator 1
 739 03ae 5B4B     		ldr	r3, .L76+12
 740 03b0 1B78     		ldrb	r3, [r3]	@ zero_extendqisi2
 741 03b2 DBB2     		uxtb	r3, r3
 742 03b4 012B     		cmp	r3, #1
 743 03b6 40F0A980 		bne	.L7
 495:.\RFPoll.c    ****         pollTotals = 0;
 744              		.loc 1 495 0 is_stmt 1
 745 03ba 0022     		movs	r2, #0
 746 03bc 574B     		ldr	r3, .L76+12
 747 03be 1A70     		strb	r2, [r3]
 748              	.LVL78:
 496:.\RFPoll.c    ****         y=0;
 497:.\RFPoll.c    ****         buffer_txTotals[y] = 0xBC; y++;
 749              		.loc 1 497 0
 750 03c0 5A4B     		ldr	r3, .L76+28
 751 03c2 BC22     		movs	r2, #188
 752 03c4 1A70     		strb	r2, [r3]
 753              	.LVL79:
 498:.\RFPoll.c    ****         buffer_txTotals[y] = 0xCB; y++;
 754              		.loc 1 498 0
 755 03c6 CB22     		movs	r2, #203
 756 03c8 5A70     		strb	r2, [r3, #1]
 757              	.LVL80:
 499:.\RFPoll.c    ****         buffer_txTotals[y] = 0xC8; y++;
 758              		.loc 1 499 0
 759 03ca C822     		movs	r2, #200
 760 03cc 9A70     		strb	r2, [r3, #2]
 761              	.LVL81:
 500:.\RFPoll.c    ****         buffer_txTotals[y] = IDCast[0]; y++;
 762              		.loc 1 500 0
 763 03ce 564A     		ldr	r2, .L76+24
 764 03d0 1178     		ldrb	r1, [r2]	@ zero_extendqisi2
 765 03d2 D970     		strb	r1, [r3, #3]
 766              	.LVL82:
 501:.\RFPoll.c    ****         buffer_txTotals[y] = IDCast[1]; y++;
 767              		.loc 1 501 0
 768 03d4 5278     		ldrb	r2, [r2, #1]	@ zero_extendqisi2
 769 03d6 1A71     		strb	r2, [r3, #4]
 770              	.LVL83:
 502:.\RFPoll.c    ****         buffer_txTotals[5] = side.a.dir; y++;
 771              		.loc 1 502 0
 772 03d8 4E4A     		ldr	r2, .L76+4
 773 03da 1178     		ldrb	r1, [r2]	@ zero_extendqisi2
 774 03dc 5971     		strb	r1, [r3, #5]
ARM GAS  C:\Users\RECEPC~1\AppData\Local\Temp\cckY5SBD.s 			page 24


 775              	.LVL84:
 503:.\RFPoll.c    ****         buffer_txTotals[y] = 0xE8; y++;
 776              		.loc 1 503 0
 777 03de E821     		movs	r1, #232
 778 03e0 9971     		strb	r1, [r3, #6]
 779              	.LVL85:
 504:.\RFPoll.c    ****         buffer_txTotals[y] = side.a.rfState; y++;
 780              		.loc 1 504 0
 781 03e2 92F80321 		ldrb	r2, [r2, #259]	@ zero_extendqisi2
 782 03e6 DA71     		strb	r2, [r3, #7]
 783              	.LVL86:
 505:.\RFPoll.c    ****         buffer_txTotals[y] = 0x00; y++;
 506:.\RFPoll.c    ****         for(z=1;z <= side.a.hoseNumber; z++){
 784              		.loc 1 506 0
 785 03e8 0121     		movs	r1, #1
 505:.\RFPoll.c    ****         buffer_txTotals[y] = 0x00; y++;
 786              		.loc 1 505 0
 787 03ea 0924     		movs	r4, #9
 788              		.loc 1 506 0
 789 03ec 70E0     		b	.L52
 790              	.LVL87:
 791              	.L66:
 507:.\RFPoll.c    ****             buffer_txTotals[y] = z; y++;                    
 792              		.loc 1 507 0
 793 03ee 4F4B     		ldr	r3, .L76+28
 794 03f0 1955     		strb	r1, [r3, r4]
 795 03f2 0134     		adds	r4, r4, #1
 796              	.LVL88:
 797 03f4 A4B2     		uxth	r4, r4
 798              	.LVL89:
 508:.\RFPoll.c    ****             if (digits == 6 || digits == 5){                            
 799              		.loc 1 508 0
 800 03f6 4E4B     		ldr	r3, .L76+32
 801 03f8 1B78     		ldrb	r3, [r3]	@ zero_extendqisi2
 802 03fa 053B     		subs	r3, r3, #5
 803 03fc DBB2     		uxtb	r3, r3
 804 03fe 012B     		cmp	r3, #1
 805 0400 12D9     		bls	.L72
 806 0402 0C22     		movs	r2, #12
 807 0404 4CE0     		b	.L54
 808              	.LVL90:
 809              	.L55:
 509:.\RFPoll.c    ****                 for(x = 8; x > 0; x--){ //Volumen
 510:.\RFPoll.c    ****                     buffer_txTotals[y] = (side.a.totalsHandle[z-1][0][x])-48;y++;
 810              		.loc 1 510 0 discriminator 3
 811 0406 4B1E     		subs	r3, r1, #1
 812 0408 03EB4303 		add	r3, r3, r3, lsl #1
 813 040c C3EB0313 		rsb	r3, r3, r3, lsl #4
 814 0410 1344     		add	r3, r3, r2
 815 0412 4048     		ldr	r0, .L76+4
 816 0414 0344     		add	r3, r3, r0
 817 0416 5B78     		ldrb	r3, [r3, #1]	@ zero_extendqisi2
 818 0418 303B     		subs	r3, r3, #48
 819 041a 4448     		ldr	r0, .L76+28
 820 041c 0355     		strb	r3, [r0, r4]
 821 041e 0134     		adds	r4, r4, #1
 822              	.LVL91:
ARM GAS  C:\Users\RECEPC~1\AppData\Local\Temp\cckY5SBD.s 			page 25


 823 0420 A4B2     		uxth	r4, r4
 824              	.LVL92:
 509:.\RFPoll.c    ****                 for(x = 8; x > 0; x--){ //Volumen
 825              		.loc 1 509 0 discriminator 3
 826 0422 013A     		subs	r2, r2, #1
 827              	.LVL93:
 828 0424 92B2     		uxth	r2, r2
 829              	.LVL94:
 830 0426 00E0     		b	.L53
 831              	.LVL95:
 832              	.L72:
 833 0428 0822     		movs	r2, #8
 834              	.L53:
 835              	.LVL96:
 509:.\RFPoll.c    ****                 for(x = 8; x > 0; x--){ //Volumen
 836              		.loc 1 509 0 is_stmt 0 discriminator 1
 837 042a 002A     		cmp	r2, #0
 838 042c EBD1     		bne	.L55
 839 042e 06E0     		b	.L56
 840              	.L57:
 511:.\RFPoll.c    ****                 }
 512:.\RFPoll.c    ****                 for(x =0; x < 4; x++){
 513:.\RFPoll.c    ****                     buffer_txTotals[y] = 0x30;y++;
 841              		.loc 1 513 0 is_stmt 1 discriminator 3
 842 0430 3020     		movs	r0, #48
 843 0432 3E4B     		ldr	r3, .L76+28
 844 0434 1855     		strb	r0, [r3, r4]
 845 0436 0134     		adds	r4, r4, #1
 846              	.LVL97:
 847 0438 A4B2     		uxth	r4, r4
 848              	.LVL98:
 512:.\RFPoll.c    ****                     buffer_txTotals[y] = 0x30;y++;
 849              		.loc 1 512 0 discriminator 3
 850 043a 0132     		adds	r2, r2, #1
 851              	.LVL99:
 852 043c 92B2     		uxth	r2, r2
 853              	.LVL100:
 854              	.L56:
 512:.\RFPoll.c    ****                     buffer_txTotals[y] = 0x30;y++;
 855              		.loc 1 512 0 is_stmt 0 discriminator 1
 856 043e 032A     		cmp	r2, #3
 857 0440 F6D9     		bls	.L57
 858 0442 0822     		movs	r2, #8
 859              	.LVL101:
 860 0444 0FE0     		b	.L58
 861              	.LVL102:
 862              	.L59:
 514:.\RFPoll.c    ****                 }
 515:.\RFPoll.c    ****                 for(x = 8; x > 0; x--){//Dinero
 516:.\RFPoll.c    ****                     buffer_txTotals[y] = (side.a.totalsHandle[z-1][1][x])-48;y++;
 863              		.loc 1 516 0 is_stmt 1 discriminator 3
 864 0446 4B1E     		subs	r3, r1, #1
 865 0448 03EB4303 		add	r3, r3, r3, lsl #1
 866 044c C3EB0313 		rsb	r3, r3, r3, lsl #4
 867 0450 3048     		ldr	r0, .L76+4
 868 0452 0344     		add	r3, r3, r0
 869 0454 1344     		add	r3, r3, r2
ARM GAS  C:\Users\RECEPC~1\AppData\Local\Temp\cckY5SBD.s 			page 26


 870 0456 1B7C     		ldrb	r3, [r3, #16]	@ zero_extendqisi2
 871 0458 303B     		subs	r3, r3, #48
 872 045a 3448     		ldr	r0, .L76+28
 873 045c 0355     		strb	r3, [r0, r4]
 874 045e 0134     		adds	r4, r4, #1
 875              	.LVL103:
 876 0460 A4B2     		uxth	r4, r4
 877              	.LVL104:
 515:.\RFPoll.c    ****                     buffer_txTotals[y] = (side.a.totalsHandle[z-1][1][x])-48;y++;
 878              		.loc 1 515 0 discriminator 3
 879 0462 013A     		subs	r2, r2, #1
 880              	.LVL105:
 881 0464 92B2     		uxth	r2, r2
 882              	.LVL106:
 883              	.L58:
 515:.\RFPoll.c    ****                     buffer_txTotals[y] = (side.a.totalsHandle[z-1][1][x])-48;y++;
 884              		.loc 1 515 0 is_stmt 0 discriminator 1
 885 0466 002A     		cmp	r2, #0
 886 0468 EDD1     		bne	.L59
 887 046a 06E0     		b	.L60
 888              	.L61:
 517:.\RFPoll.c    ****                 }
 518:.\RFPoll.c    ****                 for(x =0; x < 4; x++){
 519:.\RFPoll.c    ****                     buffer_txTotals[y] = 0x30;y++;
 889              		.loc 1 519 0 is_stmt 1 discriminator 3
 890 046c 3020     		movs	r0, #48
 891 046e 2F4B     		ldr	r3, .L76+28
 892 0470 1855     		strb	r0, [r3, r4]
 893 0472 0134     		adds	r4, r4, #1
 894              	.LVL107:
 895 0474 A4B2     		uxth	r4, r4
 896              	.LVL108:
 518:.\RFPoll.c    ****                     buffer_txTotals[y] = 0x30;y++;
 897              		.loc 1 518 0 discriminator 3
 898 0476 0132     		adds	r2, r2, #1
 899              	.LVL109:
 900 0478 92B2     		uxth	r2, r2
 901              	.LVL110:
 902              	.L60:
 518:.\RFPoll.c    ****                     buffer_txTotals[y] = 0x30;y++;
 903              		.loc 1 518 0 is_stmt 0 discriminator 1
 904 047a 032A     		cmp	r2, #3
 905 047c F6D9     		bls	.L61
 906 047e 25E0     		b	.L62
 907              	.L63:
 520:.\RFPoll.c    ****                 }
 521:.\RFPoll.c    ****             }else{
 522:.\RFPoll.c    ****                 for(x = 12; x > 0; x--){ //Volumen
 523:.\RFPoll.c    ****                     buffer_txTotals[y] = (side.a.totalsHandle[z-1][0][x])-48;y++;
 908              		.loc 1 523 0 is_stmt 1 discriminator 3
 909 0480 4B1E     		subs	r3, r1, #1
 910 0482 03EB4303 		add	r3, r3, r3, lsl #1
 911 0486 C3EB0313 		rsb	r3, r3, r3, lsl #4
 912 048a 1344     		add	r3, r3, r2
 913 048c 2148     		ldr	r0, .L76+4
 914 048e 0344     		add	r3, r3, r0
 915 0490 5B78     		ldrb	r3, [r3, #1]	@ zero_extendqisi2
ARM GAS  C:\Users\RECEPC~1\AppData\Local\Temp\cckY5SBD.s 			page 27


 916 0492 303B     		subs	r3, r3, #48
 917 0494 2548     		ldr	r0, .L76+28
 918 0496 0355     		strb	r3, [r0, r4]
 919 0498 0134     		adds	r4, r4, #1
 920              	.LVL111:
 921 049a A4B2     		uxth	r4, r4
 922              	.LVL112:
 522:.\RFPoll.c    ****                     buffer_txTotals[y] = (side.a.totalsHandle[z-1][0][x])-48;y++;
 923              		.loc 1 522 0 discriminator 3
 924 049c 013A     		subs	r2, r2, #1
 925              	.LVL113:
 926 049e 92B2     		uxth	r2, r2
 927              	.LVL114:
 928              	.L54:
 522:.\RFPoll.c    ****                     buffer_txTotals[y] = (side.a.totalsHandle[z-1][0][x])-48;y++;
 929              		.loc 1 522 0 is_stmt 0 discriminator 1
 930 04a0 002A     		cmp	r2, #0
 931 04a2 EDD1     		bne	.L63
 932 04a4 0C22     		movs	r2, #12
 933              	.LVL115:
 934 04a6 0FE0     		b	.L64
 935              	.LVL116:
 936              	.L65:
 524:.\RFPoll.c    ****                 }                        
 525:.\RFPoll.c    ****                 for(x = 12; x > 0; x--){//Dinero
 526:.\RFPoll.c    ****                     buffer_txTotals[y] = (side.a.totalsHandle[z-1][1][x])-48;y++;
 937              		.loc 1 526 0 is_stmt 1 discriminator 3
 938 04a8 4B1E     		subs	r3, r1, #1
 939 04aa 03EB4303 		add	r3, r3, r3, lsl #1
 940 04ae C3EB0313 		rsb	r3, r3, r3, lsl #4
 941 04b2 1848     		ldr	r0, .L76+4
 942 04b4 0344     		add	r3, r3, r0
 943 04b6 1344     		add	r3, r3, r2
 944 04b8 1B7C     		ldrb	r3, [r3, #16]	@ zero_extendqisi2
 945 04ba 303B     		subs	r3, r3, #48
 946 04bc 1B48     		ldr	r0, .L76+28
 947 04be 0355     		strb	r3, [r0, r4]
 948 04c0 0134     		adds	r4, r4, #1
 949              	.LVL117:
 950 04c2 A4B2     		uxth	r4, r4
 951              	.LVL118:
 525:.\RFPoll.c    ****                     buffer_txTotals[y] = (side.a.totalsHandle[z-1][1][x])-48;y++;
 952              		.loc 1 525 0 discriminator 3
 953 04c4 013A     		subs	r2, r2, #1
 954              	.LVL119:
 955 04c6 92B2     		uxth	r2, r2
 956              	.LVL120:
 957              	.L64:
 525:.\RFPoll.c    ****                     buffer_txTotals[y] = (side.a.totalsHandle[z-1][1][x])-48;y++;
 958              		.loc 1 525 0 is_stmt 0 discriminator 1
 959 04c8 002A     		cmp	r2, #0
 960 04ca EDD1     		bne	.L65
 961              	.L62:
 506:.\RFPoll.c    ****             buffer_txTotals[y] = z; y++;                    
 962              		.loc 1 506 0 is_stmt 1 discriminator 2
 963 04cc 0131     		adds	r1, r1, #1
 964              	.LVL121:
ARM GAS  C:\Users\RECEPC~1\AppData\Local\Temp\cckY5SBD.s 			page 28


 965 04ce 89B2     		uxth	r1, r1
 966              	.LVL122:
 967              	.L52:
 506:.\RFPoll.c    ****             buffer_txTotals[y] = z; y++;                    
 968              		.loc 1 506 0 is_stmt 0 discriminator 1
 969 04d0 104B     		ldr	r3, .L76+4
 970 04d2 93F80231 		ldrb	r3, [r3, #258]	@ zero_extendqisi2
 971 04d6 8B42     		cmp	r3, r1
 972 04d8 89D2     		bcs	.L66
 527:.\RFPoll.c    ****                 }                        
 528:.\RFPoll.c    ****             } 
 529:.\RFPoll.c    ****         }
 530:.\RFPoll.c    ****         buffer_txTotals[8] = y-9;
 973              		.loc 1 530 0 is_stmt 1
 974 04da 144E     		ldr	r6, .L76+28
 975 04dc A4F10903 		sub	r3, r4, #9
 976 04e0 3372     		strb	r3, [r6, #8]
 531:.\RFPoll.c    ****         buffer_txTotals[y] = verificar_check(buffer_txTotals,y+1);y++;                 
 977              		.loc 1 531 0
 978 04e2 651C     		adds	r5, r4, #1
 979 04e4 ADB2     		uxth	r5, r5
 980 04e6 3046     		mov	r0, r6
 981 04e8 2946     		mov	r1, r5
 982              	.LVL123:
 983 04ea FFF7FEFF 		bl	verificar_check
 984              	.LVL124:
 985 04ee 3055     		strb	r0, [r6, r4]
 986              	.LVL125:
 532:.\RFPoll.c    ****         for (x = 0; x < y; x++){
 987              		.loc 1 532 0
 988 04f0 0024     		movs	r4, #0
 989 04f2 05E0     		b	.L67
 990              	.LVL126:
 991              	.L68:
 533:.\RFPoll.c    ****             RF_Connection_PutChar(buffer_txTotals[x]);
 992              		.loc 1 533 0 discriminator 3
 993 04f4 0D4B     		ldr	r3, .L76+28
 994 04f6 185D     		ldrb	r0, [r3, r4]	@ zero_extendqisi2
 995 04f8 FFF7FEFF 		bl	RF_Connection_PutChar
 996              	.LVL127:
 532:.\RFPoll.c    ****         for (x = 0; x < y; x++){
 997              		.loc 1 532 0 discriminator 3
 998 04fc 0134     		adds	r4, r4, #1
 999              	.LVL128:
 1000 04fe A4B2     		uxth	r4, r4
 1001              	.LVL129:
 1002              	.L67:
 532:.\RFPoll.c    ****         for (x = 0; x < y; x++){
 1003              		.loc 1 532 0 is_stmt 0 discriminator 1
 1004 0500 AC42     		cmp	r4, r5
 1005 0502 F7D3     		bcc	.L68
 534:.\RFPoll.c    ****         }        
 535:.\RFPoll.c    ****         side.a.RFstateReport = 0;        
 1006              		.loc 1 535 0 is_stmt 1
 1007 0504 0022     		movs	r2, #0
 1008 0506 034B     		ldr	r3, .L76+4
 1009 0508 83F80721 		strb	r2, [r3, #263]
ARM GAS  C:\Users\RECEPC~1\AppData\Local\Temp\cckY5SBD.s 			page 29


 1010              	.LVL130:
 1011              	.L7:
 1012 050c 70BD     		pop	{r4, r5, r6, pc}
 1013              	.L77:
 1014 050e 00BF     		.align	2
 1015              	.L76:
 1016 0510 00000000 		.word	buffer_txEOT
 1017 0514 00000000 		.word	side
 1018 0518 00000000 		.word	bufferDisplay1
 1019 051c 00000000 		.word	pollTotals
 1020 0520 00000000 		.word	ShiftState
 1021 0524 00000000 		.word	buffer_txDisplay
 1022 0528 00000000 		.word	IDCast
 1023 052c 00000000 		.word	buffer_txTotals
 1024 0530 00000000 		.word	digits
 1025              		.cfi_endproc
 1026              	.LFE65:
 1027              		.size	pollingRFA_Tx, .-pollingRFA_Tx
 1028              		.section	.text.pollingRFB_Tx,"ax",%progbits
 1029              		.align	2
 1030              		.global	pollingRFB_Tx
 1031              		.thumb
 1032              		.thumb_func
 1033              		.type	pollingRFB_Tx, %function
 1034              	pollingRFB_Tx:
 1035              	.LFB66:
 536:.\RFPoll.c    ****     }    
 537:.\RFPoll.c    ****  }
 538:.\RFPoll.c    **** 
 539:.\RFPoll.c    **** void pollingRFB_Tx(){   
 1036              		.loc 1 539 0
 1037              		.cfi_startproc
 1038              		@ args = 0, pretend = 0, frame = 0
 1039              		@ frame_needed = 0, uses_anonymous_args = 0
 1040 0000 70B5     		push	{r4, r5, r6, lr}
 1041              		.cfi_def_cfa_offset 16
 1042              		.cfi_offset 4, -16
 1043              		.cfi_offset 5, -12
 1044              		.cfi_offset 6, -8
 1045              		.cfi_offset 14, -4
 540:.\RFPoll.c    ****     uint16 x,y,z;      
 541:.\RFPoll.c    ****     /////////////// COPIA DE RECIBO //////////////////
 542:.\RFPoll.c    **** //    if(side.b.rfState == RF_COPY_RECEIPT && side.b.RFstateReport == 1){        
 543:.\RFPoll.c    **** //        buffer_txDisplay[5] = side.b.dir;
 544:.\RFPoll.c    **** //        buffer_txDisplay[6] = 0xE6;
 545:.\RFPoll.c    **** //        buffer_txDisplay[7] = RF_COPY_RECEIPT;
 546:.\RFPoll.c    **** //        buffer_txDisplay[8] = verificar_check(buffer_txDisplay,9);
 547:.\RFPoll.c    **** //        for (x = 0; x < 9; x++){
 548:.\RFPoll.c    **** //            RF_Connection_PutChar(buffer_txDisplay[x]);
 549:.\RFPoll.c    **** //        }
 550:.\RFPoll.c    **** //		side.b.RFstateReport = 0;
 551:.\RFPoll.c    **** //    }    
 552:.\RFPoll.c    ****     ////////////// PRESET - DISPENSANDO ////////////////////////////////////
 553:.\RFPoll.c    ****     if(side.b.pumpState == PUMP_BUSY && side.b.RFstateReport == 1){
 1046              		.loc 1 553 0
 1047 0002 9D4B     		ldr	r3, .L138
 1048 0004 93F81632 		ldrb	r3, [r3, #534]	@ zero_extendqisi2
ARM GAS  C:\Users\RECEPC~1\AppData\Local\Temp\cckY5SBD.s 			page 30


 1049 0008 092B     		cmp	r3, #9
 1050 000a 40F08A80 		bne	.L79
 1051              		.loc 1 553 0 is_stmt 0 discriminator 1
 1052 000e 9A4B     		ldr	r3, .L138
 1053 0010 93F81932 		ldrb	r3, [r3, #537]	@ zero_extendqisi2
 1054 0014 012B     		cmp	r3, #1
 1055 0016 40F08480 		bne	.L79
 554:.\RFPoll.c    ****             buffer_txPreset[0] = 0xBC;
 1056              		.loc 1 554 0 is_stmt 1
 1057 001a 984B     		ldr	r3, .L138+4
 1058 001c BC22     		movs	r2, #188
 1059 001e 1A70     		strb	r2, [r3]
 555:.\RFPoll.c    ****             buffer_txPreset[1] = 0xCB;
 1060              		.loc 1 555 0
 1061 0020 CB22     		movs	r2, #203
 1062 0022 5A70     		strb	r2, [r3, #1]
 556:.\RFPoll.c    ****             buffer_txPreset[2] = 0xC8;
 1063              		.loc 1 556 0
 1064 0024 C822     		movs	r2, #200
 1065 0026 9A70     		strb	r2, [r3, #2]
 557:.\RFPoll.c    ****             buffer_txPreset[3] = IDCast[0];
 1066              		.loc 1 557 0
 1067 0028 954A     		ldr	r2, .L138+8
 1068 002a 1178     		ldrb	r1, [r2]	@ zero_extendqisi2
 1069 002c D970     		strb	r1, [r3, #3]
 558:.\RFPoll.c    ****             buffer_txPreset[4] = IDCast[1];
 1070              		.loc 1 558 0
 1071 002e 5278     		ldrb	r2, [r2, #1]	@ zero_extendqisi2
 1072 0030 1A71     		strb	r2, [r3, #4]
 559:.\RFPoll.c    ****             buffer_txPreset[5]  = side.b.dir;
 1073              		.loc 1 559 0
 1074 0032 914A     		ldr	r2, .L138
 1075 0034 92F81211 		ldrb	r1, [r2, #274]	@ zero_extendqisi2
 1076 0038 5971     		strb	r1, [r3, #5]
 560:.\RFPoll.c    ****             buffer_txPreset[6]  = 0xAA;
 1077              		.loc 1 560 0
 1078 003a AA21     		movs	r1, #170
 1079 003c 9971     		strb	r1, [r3, #6]
 561:.\RFPoll.c    ****             buffer_txPreset[7]  = RF_DELIVERING;
 1080              		.loc 1 561 0
 1081 003e 0121     		movs	r1, #1
 1082 0040 D971     		strb	r1, [r3, #7]
 562:.\RFPoll.c    ****             buffer_txPreset[8]  = side.b.activeHose;
 1083              		.loc 1 562 0
 1084 0042 92F81222 		ldrb	r2, [r2, #530]	@ zero_extendqisi2
 1085 0046 1A72     		strb	r2, [r3, #8]
 563:.\RFPoll.c    ****             buffer_txPreset[9]  = bufferDisplay2.presetType[0]&0x03;
 1086              		.loc 1 563 0
 1087 0048 8E49     		ldr	r1, .L138+12
 1088 004a 91F86320 		ldrb	r2, [r1, #99]	@ zero_extendqisi2
 1089 004e 02F00302 		and	r2, r2, #3
 1090 0052 5A72     		strb	r2, [r3, #9]
 564:.\RFPoll.c    ****             for(x = bufferDisplay2.presetValue[0][0] ; x > 0; x--){
 1091              		.loc 1 564 0
 1092 0054 91F86500 		ldrb	r0, [r1, #101]	@ zero_extendqisi2
 1093 0058 84B2     		uxth	r4, r0
 1094              	.LVL131:
ARM GAS  C:\Users\RECEPC~1\AppData\Local\Temp\cckY5SBD.s 			page 31


 1095 005a 08E0     		b	.L80
 1096              	.L81:
 565:.\RFPoll.c    ****                 tempPreset[bufferDisplay2.presetValue[0][0]-x] = (bufferDisplay2.presetValue[0][x])
 1097              		.loc 1 565 0 discriminator 3
 1098 005c 021B     		subs	r2, r0, r4
 1099 005e 894B     		ldr	r3, .L138+12
 1100 0060 2344     		add	r3, r3, r4
 1101 0062 93F86510 		ldrb	r1, [r3, #101]	@ zero_extendqisi2
 1102 0066 884B     		ldr	r3, .L138+16
 1103 0068 9954     		strb	r1, [r3, r2]
 564:.\RFPoll.c    ****             for(x = bufferDisplay2.presetValue[0][0] ; x > 0; x--){
 1104              		.loc 1 564 0 discriminator 3
 1105 006a 013C     		subs	r4, r4, #1
 1106              	.LVL132:
 1107 006c A4B2     		uxth	r4, r4
 1108              	.LVL133:
 1109              	.L80:
 564:.\RFPoll.c    ****             for(x = bufferDisplay2.presetValue[0][0] ; x > 0; x--){
 1110              		.loc 1 564 0 is_stmt 0 discriminator 1
 1111 006e 002C     		cmp	r4, #0
 1112 0070 F4D1     		bne	.L81
 1113 0072 0A23     		movs	r3, #10
 1114 0074 0CE0     		b	.L82
 1115              	.LVL134:
 1116              	.L84:
 566:.\RFPoll.c    ****             }
 567:.\RFPoll.c    ****             for(x = 10; x<=17; x++){
 568:.\RFPoll.c    ****                 buffer_txPreset[x] = tempPreset[x-10]; 
 1117              		.loc 1 568 0 is_stmt 1
 1118 0076 A3F10A02 		sub	r2, r3, #10
 1119 007a 8349     		ldr	r1, .L138+16
 1120 007c 8A5C     		ldrb	r2, [r1, r2]	@ zero_extendqisi2
 1121 007e D2B2     		uxtb	r2, r2
 1122 0080 7E49     		ldr	r1, .L138+4
 1123 0082 CA54     		strb	r2, [r1, r3]
 569:.\RFPoll.c    ****                 if(buffer_txPreset[x]== 0x00)
 1124              		.loc 1 569 0
 1125 0084 12B9     		cbnz	r2, .L83
 570:.\RFPoll.c    ****                     buffer_txPreset[x] = 0x30;
 1126              		.loc 1 570 0
 1127 0086 3021     		movs	r1, #48
 1128 0088 7C4A     		ldr	r2, .L138+4
 1129 008a D154     		strb	r1, [r2, r3]
 1130              	.L83:
 567:.\RFPoll.c    ****                 buffer_txPreset[x] = tempPreset[x-10]; 
 1131              		.loc 1 567 0 discriminator 2
 1132 008c 0133     		adds	r3, r3, #1
 1133              	.LVL135:
 1134 008e 9BB2     		uxth	r3, r3
 1135              	.LVL136:
 1136              	.L82:
 567:.\RFPoll.c    ****                 buffer_txPreset[x] = tempPreset[x-10]; 
 1137              		.loc 1 567 0 is_stmt 0 discriminator 1
 1138 0090 112B     		cmp	r3, #17
 1139 0092 F0D9     		bls	.L84
 571:.\RFPoll.c    ****             }        
 572:.\RFPoll.c    ****             buffer_txPreset[18]  = 0x00;
ARM GAS  C:\Users\RECEPC~1\AppData\Local\Temp\cckY5SBD.s 			page 32


 1140              		.loc 1 572 0 is_stmt 1
 1141 0094 0022     		movs	r2, #0
 1142 0096 794B     		ldr	r3, .L138+4
 1143              	.LVL137:
 1144 0098 9A74     		strb	r2, [r3, #18]
 573:.\RFPoll.c    ****             if(bufferDisplay2.flagPrint == 0){
 1145              		.loc 1 573 0
 1146 009a 7A4B     		ldr	r3, .L138+12
 1147 009c 93F83431 		ldrb	r3, [r3, #308]	@ zero_extendqisi2
 1148 00a0 63B1     		cbz	r3, .L133
 1149 00a2 2346     		mov	r3, r4
 1150 00a4 1BE0     		b	.L86
 1151              	.LVL138:
 1152              	.L87:
 574:.\RFPoll.c    ****                 for(x = 0; x <8 ; x++){
 575:.\RFPoll.c    ****                     buffer_txPreset[19+x]=0x20;
 1153              		.loc 1 575 0 discriminator 3
 1154 00a6 03F11302 		add	r2, r3, #19
 1155 00aa 2020     		movs	r0, #32
 1156 00ac 7349     		ldr	r1, .L138+4
 1157 00ae 8854     		strb	r0, [r1, r2]
 576:.\RFPoll.c    ****                     tempPreset[x] = 0x00;
 1158              		.loc 1 576 0 discriminator 3
 1159 00b0 0021     		movs	r1, #0
 1160 00b2 754A     		ldr	r2, .L138+16
 1161 00b4 D154     		strb	r1, [r2, r3]
 574:.\RFPoll.c    ****                 for(x = 0; x <8 ; x++){
 1162              		.loc 1 574 0 discriminator 3
 1163 00b6 0133     		adds	r3, r3, #1
 1164              	.LVL139:
 1165 00b8 9BB2     		uxth	r3, r3
 1166              	.LVL140:
 1167 00ba 00E0     		b	.L85
 1168              	.LVL141:
 1169              	.L133:
 1170 00bc 2346     		mov	r3, r4
 1171              	.L85:
 1172              	.LVL142:
 574:.\RFPoll.c    ****                 for(x = 0; x <8 ; x++){
 1173              		.loc 1 574 0 is_stmt 0 discriminator 1
 1174 00be 072B     		cmp	r3, #7
 1175 00c0 F1D9     		bls	.L87
 1176 00c2 0EE0     		b	.L88
 1177              	.L89:
 577:.\RFPoll.c    ****                 }
 578:.\RFPoll.c    ****             }else{
 579:.\RFPoll.c    ****                 for(x = 0; x <8 ; x++){
 580:.\RFPoll.c    ****                     buffer_txPreset[19+x]=bufferDisplay2.licenceSale[x+1];
 1178              		.loc 1 580 0 is_stmt 1 discriminator 3
 1179 00c4 03F11300 		add	r0, r3, #19
 1180 00c8 591C     		adds	r1, r3, #1
 1181 00ca 6E4A     		ldr	r2, .L138+12
 1182 00cc 0A44     		add	r2, r2, r1
 1183 00ce 92F8DF50 		ldrb	r5, [r2, #223]	@ zero_extendqisi2
 1184 00d2 6A4A     		ldr	r2, .L138+4
 1185 00d4 1554     		strb	r5, [r2, r0]
 581:.\RFPoll.c    ****                     tempPreset[x] = 0x00;
ARM GAS  C:\Users\RECEPC~1\AppData\Local\Temp\cckY5SBD.s 			page 33


 1186              		.loc 1 581 0 discriminator 3
 1187 00d6 0020     		movs	r0, #0
 1188 00d8 6B4A     		ldr	r2, .L138+16
 1189 00da D054     		strb	r0, [r2, r3]
 579:.\RFPoll.c    ****                     buffer_txPreset[19+x]=bufferDisplay2.licenceSale[x+1];
 1190              		.loc 1 579 0 discriminator 3
 1191 00dc 8BB2     		uxth	r3, r1
 1192              	.LVL143:
 1193              	.L86:
 579:.\RFPoll.c    ****                     buffer_txPreset[19+x]=bufferDisplay2.licenceSale[x+1];
 1194              		.loc 1 579 0 is_stmt 0 discriminator 1
 1195 00de 072B     		cmp	r3, #7
 1196 00e0 F0D9     		bls	.L89
 1197              	.L88:
 1198 00e2 1B23     		movs	r3, #27
 1199              	.LVL144:
 1200 00e4 04E0     		b	.L90
 1201              	.LVL145:
 1202              	.L91:
 582:.\RFPoll.c    ****                 }
 583:.\RFPoll.c    ****             }
 584:.\RFPoll.c    ****             for(x=27; x<=37;x++){
 585:.\RFPoll.c    ****                 buffer_txPreset[x]= 0x30;
 1203              		.loc 1 585 0 is_stmt 1 discriminator 3
 1204 00e6 3021     		movs	r1, #48
 1205 00e8 644A     		ldr	r2, .L138+4
 1206 00ea D154     		strb	r1, [r2, r3]
 584:.\RFPoll.c    ****                 buffer_txPreset[x]= 0x30;
 1207              		.loc 1 584 0 discriminator 3
 1208 00ec 0133     		adds	r3, r3, #1
 1209              	.LVL146:
 1210 00ee 9BB2     		uxth	r3, r3
 1211              	.LVL147:
 1212              	.L90:
 584:.\RFPoll.c    ****                 buffer_txPreset[x]= 0x30;
 1213              		.loc 1 584 0 is_stmt 0 discriminator 1
 1214 00f0 252B     		cmp	r3, #37
 1215 00f2 F8D9     		bls	.L91
 586:.\RFPoll.c    ****             }
 587:.\RFPoll.c    ****             buffer_txPreset[38] = verificar_check(buffer_txPreset,39);            
 1216              		.loc 1 587 0 is_stmt 1
 1217 00f4 614D     		ldr	r5, .L138+4
 1218 00f6 2846     		mov	r0, r5
 1219 00f8 2721     		movs	r1, #39
 1220 00fa FFF7FEFF 		bl	verificar_check
 1221              	.LVL148:
 1222 00fe 85F82600 		strb	r0, [r5, #38]
 1223              	.LVL149:
 588:.\RFPoll.c    ****             for (x = 0; x < 40; x++){
 1224              		.loc 1 588 0
 1225 0102 05E0     		b	.L92
 1226              	.LVL150:
 1227              	.L93:
 589:.\RFPoll.c    ****                 RF_Connection_PutChar(buffer_txPreset[x]);
 1228              		.loc 1 589 0 discriminator 3
 1229 0104 5D4B     		ldr	r3, .L138+4
 1230 0106 185D     		ldrb	r0, [r3, r4]	@ zero_extendqisi2
ARM GAS  C:\Users\RECEPC~1\AppData\Local\Temp\cckY5SBD.s 			page 34


 1231 0108 FFF7FEFF 		bl	RF_Connection_PutChar
 1232              	.LVL151:
 588:.\RFPoll.c    ****             for (x = 0; x < 40; x++){
 1233              		.loc 1 588 0 discriminator 3
 1234 010c 0134     		adds	r4, r4, #1
 1235              	.LVL152:
 1236 010e A4B2     		uxth	r4, r4
 1237              	.LVL153:
 1238              	.L92:
 588:.\RFPoll.c    ****             for (x = 0; x < 40; x++){
 1239              		.loc 1 588 0 is_stmt 0 discriminator 1
 1240 0110 272C     		cmp	r4, #39
 1241 0112 F7D9     		bls	.L93
 590:.\RFPoll.c    ****             }            
 591:.\RFPoll.c    ****             side.b.rfState = RF_DELIVERING;
 1242              		.loc 1 591 0 is_stmt 1
 1243 0114 584B     		ldr	r3, .L138
 1244 0116 0122     		movs	r2, #1
 1245 0118 83F81522 		strb	r2, [r3, #533]
 592:.\RFPoll.c    ****             side.b.RFstateReport = 0;
 1246              		.loc 1 592 0
 1247 011c 0022     		movs	r2, #0
 1248 011e 83F81922 		strb	r2, [r3, #537]
 1249              	.LVL154:
 1250              	.L79:
 593:.\RFPoll.c    ****     }      
 594:.\RFPoll.c    ****     ////////////// FIN VENTA ////////////////////////////////////
 595:.\RFPoll.c    ****     if(bufferDisplay2.flagEndSale == true && side.b.RFstateReport == 1){
 1251              		.loc 1 595 0
 1252 0122 584B     		ldr	r3, .L138+12
 1253 0124 93F80331 		ldrb	r3, [r3, #259]	@ zero_extendqisi2
 1254 0128 012B     		cmp	r3, #1
 1255 012a 40F0D180 		bne	.L94
 1256              		.loc 1 595 0 is_stmt 0 discriminator 1
 1257 012e 524B     		ldr	r3, .L138
 1258 0130 93F81932 		ldrb	r3, [r3, #537]	@ zero_extendqisi2
 1259 0134 012B     		cmp	r3, #1
 1260 0136 40F0CB80 		bne	.L94
 596:.\RFPoll.c    ****         buffer_txEOT[0] = 0xBC;
 1261              		.loc 1 596 0 is_stmt 1
 1262 013a 544B     		ldr	r3, .L138+20
 1263 013c BC22     		movs	r2, #188
 1264 013e 1A70     		strb	r2, [r3]
 597:.\RFPoll.c    ****         buffer_txEOT[1] = 0xCB;
 1265              		.loc 1 597 0
 1266 0140 CB22     		movs	r2, #203
 1267 0142 5A70     		strb	r2, [r3, #1]
 598:.\RFPoll.c    ****         buffer_txEOT[2] = 0xC8;
 1268              		.loc 1 598 0
 1269 0144 C822     		movs	r2, #200
 1270 0146 9A70     		strb	r2, [r3, #2]
 599:.\RFPoll.c    ****         buffer_txEOT[3] = IDCast[0];
 1271              		.loc 1 599 0
 1272 0148 4D4A     		ldr	r2, .L138+8
 1273 014a 1178     		ldrb	r1, [r2]	@ zero_extendqisi2
 1274 014c D970     		strb	r1, [r3, #3]
 600:.\RFPoll.c    ****         buffer_txEOT[4] = IDCast[1];
ARM GAS  C:\Users\RECEPC~1\AppData\Local\Temp\cckY5SBD.s 			page 35


 1275              		.loc 1 600 0
 1276 014e 5278     		ldrb	r2, [r2, #1]	@ zero_extendqisi2
 1277 0150 1A71     		strb	r2, [r3, #4]
 601:.\RFPoll.c    ****         buffer_txEOT[5]  = side.b.dir;
 1278              		.loc 1 601 0
 1279 0152 494A     		ldr	r2, .L138
 1280 0154 92F81211 		ldrb	r1, [r2, #274]	@ zero_extendqisi2
 1281 0158 5971     		strb	r1, [r3, #5]
 602:.\RFPoll.c    ****         buffer_txEOT[6]  = 0xA4;
 1282              		.loc 1 602 0
 1283 015a A421     		movs	r1, #164
 1284 015c 9971     		strb	r1, [r3, #6]
 603:.\RFPoll.c    ****         buffer_txEOT[7]  = RF_CASHSALEREPORT;
 1285              		.loc 1 603 0
 1286 015e 0221     		movs	r1, #2
 1287 0160 D971     		strb	r1, [r3, #7]
 604:.\RFPoll.c    ****         buffer_txEOT[8]  = side.b.activeHose;
 1288              		.loc 1 604 0
 1289 0162 92F81212 		ldrb	r1, [r2, #530]	@ zero_extendqisi2
 1290 0166 1972     		strb	r1, [r3, #8]
 605:.\RFPoll.c    ****         for(x=side.b.ppuSale[0];x > 0 ;x--){						   							
 1291              		.loc 1 605 0
 1292 0168 92F80302 		ldrb	r0, [r2, #515]	@ zero_extendqisi2
 1293 016c 84B2     		uxth	r4, r0
 1294              	.LVL155:
 1295 016e 08E0     		b	.L95
 1296              	.L96:
 606:.\RFPoll.c    ****     		tempPPU[side.b.ppuSale[0]-x]= side.b.ppuSale[x];
 1297              		.loc 1 606 0 discriminator 3
 1298 0170 021B     		subs	r2, r0, r4
 1299 0172 414B     		ldr	r3, .L138
 1300 0174 2344     		add	r3, r3, r4
 1301 0176 93F80312 		ldrb	r1, [r3, #515]	@ zero_extendqisi2
 1302 017a 454B     		ldr	r3, .L138+24
 1303 017c 9954     		strb	r1, [r3, r2]
 605:.\RFPoll.c    ****         for(x=side.b.ppuSale[0];x > 0 ;x--){						   							
 1304              		.loc 1 605 0 discriminator 3
 1305 017e 013C     		subs	r4, r4, #1
 1306              	.LVL156:
 1307 0180 A4B2     		uxth	r4, r4
 1308              	.LVL157:
 1309              	.L95:
 605:.\RFPoll.c    ****         for(x=side.b.ppuSale[0];x > 0 ;x--){						   							
 1310              		.loc 1 605 0 is_stmt 0 discriminator 1
 1311 0182 002C     		cmp	r4, #0
 1312 0184 F4D1     		bne	.L96
 1313 0186 0923     		movs	r3, #9
 1314 0188 0CE0     		b	.L97
 1315              	.LVL158:
 1316              	.L99:
 607:.\RFPoll.c    ****     	}
 608:.\RFPoll.c    ****         for(x = 9; x<=13; x++){
 609:.\RFPoll.c    ****             buffer_txEOT[x] = tempPPU[x-9]; 
 1317              		.loc 1 609 0 is_stmt 1
 1318 018a A3F10902 		sub	r2, r3, #9
 1319 018e 4049     		ldr	r1, .L138+24
 1320 0190 8A5C     		ldrb	r2, [r1, r2]	@ zero_extendqisi2
ARM GAS  C:\Users\RECEPC~1\AppData\Local\Temp\cckY5SBD.s 			page 36


 1321 0192 D2B2     		uxtb	r2, r2
 1322 0194 3D49     		ldr	r1, .L138+20
 1323 0196 CA54     		strb	r2, [r1, r3]
 610:.\RFPoll.c    ****             if(buffer_txEOT[x]== 0x00)
 1324              		.loc 1 610 0
 1325 0198 12B9     		cbnz	r2, .L98
 611:.\RFPoll.c    ****                 buffer_txEOT[x] = 0x30;
 1326              		.loc 1 611 0
 1327 019a 3021     		movs	r1, #48
 1328 019c 3B4A     		ldr	r2, .L138+20
 1329 019e D154     		strb	r1, [r2, r3]
 1330              	.L98:
 608:.\RFPoll.c    ****             buffer_txEOT[x] = tempPPU[x-9]; 
 1331              		.loc 1 608 0 discriminator 2
 1332 01a0 0133     		adds	r3, r3, #1
 1333              	.LVL159:
 1334 01a2 9BB2     		uxth	r3, r3
 1335              	.LVL160:
 1336              	.L97:
 608:.\RFPoll.c    ****             buffer_txEOT[x] = tempPPU[x-9]; 
 1337              		.loc 1 608 0 is_stmt 0 discriminator 1
 1338 01a4 0D2B     		cmp	r3, #13
 1339 01a6 F0D9     		bls	.L99
 612:.\RFPoll.c    ****         } 
 613:.\RFPoll.c    ****         if(digits ==5 || digits ==6){
 1340              		.loc 1 613 0 is_stmt 1
 1341 01a8 3A4B     		ldr	r3, .L138+28
 1342              	.LVL161:
 1343 01aa 1B78     		ldrb	r3, [r3]	@ zero_extendqisi2
 1344 01ac 053B     		subs	r3, r3, #5
 1345 01ae DBB2     		uxtb	r3, r3
 1346 01b0 012B     		cmp	r3, #1
 1347 01b2 0CD9     		bls	.L134
 1348 01b4 0123     		movs	r3, #1
 1349 01b6 1BE0     		b	.L101
 1350              	.LVL162:
 1351              	.L102:
 614:.\RFPoll.c    ****             for(x=1;x <= side.b.volumeSale[0];x++){						   							
 615:.\RFPoll.c    ****                 buffer_txEOT[x+13]=side.b.volumeSale[7-x];                
 1352              		.loc 1 615 0 discriminator 3
 1353 01b8 03F10D01 		add	r1, r3, #13
 1354 01bc 364A     		ldr	r2, .L138+32
 1355 01be D21A     		subs	r2, r2, r3
 1356 01c0 92F8F501 		ldrb	r0, [r2, #501]	@ zero_extendqisi2
 1357 01c4 314A     		ldr	r2, .L138+20
 1358 01c6 5054     		strb	r0, [r2, r1]
 614:.\RFPoll.c    ****             for(x=1;x <= side.b.volumeSale[0];x++){						   							
 1359              		.loc 1 614 0 discriminator 3
 1360 01c8 0133     		adds	r3, r3, #1
 1361              	.LVL163:
 1362 01ca 9BB2     		uxth	r3, r3
 1363              	.LVL164:
 1364 01cc 00E0     		b	.L100
 1365              	.LVL165:
 1366              	.L134:
 1367 01ce 0123     		movs	r3, #1
 1368              	.L100:
ARM GAS  C:\Users\RECEPC~1\AppData\Local\Temp\cckY5SBD.s 			page 37


 1369              	.LVL166:
 614:.\RFPoll.c    ****             for(x=1;x <= side.b.volumeSale[0];x++){						   							
 1370              		.loc 1 614 0 is_stmt 0 discriminator 1
 1371 01d0 294A     		ldr	r2, .L138
 1372 01d2 92F8F521 		ldrb	r2, [r2, #501]	@ zero_extendqisi2
 1373 01d6 9A42     		cmp	r2, r3
 1374 01d8 EED2     		bcs	.L102
 1375 01da 0EE0     		b	.L103
 1376              	.L104:
 616:.\RFPoll.c    ****         	}
 617:.\RFPoll.c    ****         }else{
 618:.\RFPoll.c    ****             for(x=1;x <= side.b.volumeSale[0];x++){						   							
 619:.\RFPoll.c    ****                 buffer_txEOT[x+13]=side.b.volumeSale[9-x];                
 1377              		.loc 1 619 0 is_stmt 1 discriminator 3
 1378 01dc 03F10D01 		add	r1, r3, #13
 1379 01e0 2E4A     		ldr	r2, .L138+36
 1380 01e2 D21A     		subs	r2, r2, r3
 1381 01e4 92F8F501 		ldrb	r0, [r2, #501]	@ zero_extendqisi2
 1382 01e8 284A     		ldr	r2, .L138+20
 1383 01ea 5054     		strb	r0, [r2, r1]
 618:.\RFPoll.c    ****                 buffer_txEOT[x+13]=side.b.volumeSale[9-x];                
 1384              		.loc 1 618 0 discriminator 3
 1385 01ec 0133     		adds	r3, r3, #1
 1386              	.LVL167:
 1387 01ee 9BB2     		uxth	r3, r3
 1388              	.LVL168:
 1389              	.L101:
 618:.\RFPoll.c    ****                 buffer_txEOT[x+13]=side.b.volumeSale[9-x];                
 1390              		.loc 1 618 0 is_stmt 0 discriminator 1
 1391 01f0 214A     		ldr	r2, .L138
 1392 01f2 92F8F521 		ldrb	r2, [r2, #501]	@ zero_extendqisi2
 1393 01f6 9A42     		cmp	r2, r3
 1394 01f8 F0D2     		bcs	.L104
 1395              	.L103:
 620:.\RFPoll.c    ****         	}
 621:.\RFPoll.c    ****         }        
 622:.\RFPoll.c    ****         if(buffer_txEOT[20]==0x00){
 1396              		.loc 1 622 0 is_stmt 1
 1397 01fa 244B     		ldr	r3, .L138+20
 1398              	.LVL169:
 1399 01fc 1B7D     		ldrb	r3, [r3, #20]	@ zero_extendqisi2
 1400 01fe 1BB9     		cbnz	r3, .L105
 623:.\RFPoll.c    ****             buffer_txEOT[20] = 0x30;
 1401              		.loc 1 623 0
 1402 0200 224B     		ldr	r3, .L138+20
 1403 0202 3022     		movs	r2, #48
 1404 0204 1A75     		strb	r2, [r3, #20]
 624:.\RFPoll.c    ****             buffer_txEOT[21] = 0x30;
 1405              		.loc 1 624 0
 1406 0206 5A75     		strb	r2, [r3, #21]
 1407              	.L105:
 625:.\RFPoll.c    ****         }
 626:.\RFPoll.c    ****         if(digits ==5 || digits ==6){
 1408              		.loc 1 626 0
 1409 0208 224B     		ldr	r3, .L138+28
 1410 020a 1B78     		ldrb	r3, [r3]	@ zero_extendqisi2
 1411 020c 053B     		subs	r3, r3, #5
ARM GAS  C:\Users\RECEPC~1\AppData\Local\Temp\cckY5SBD.s 			page 38


 1412 020e DBB2     		uxtb	r3, r3
 1413 0210 012B     		cmp	r3, #1
 1414 0212 0CD9     		bls	.L135
 1415 0214 0123     		movs	r3, #1
 1416 0216 1BE0     		b	.L107
 1417              	.LVL170:
 1418              	.L108:
 627:.\RFPoll.c    ****             for(x=1;x <= side.b.moneySale[0];x++){						   							
 628:.\RFPoll.c    ****         		buffer_txEOT[x+21]=side.b.moneySale[7-x];                
 1419              		.loc 1 628 0 discriminator 3
 1420 0218 03F11501 		add	r1, r3, #21
 1421 021c 1E4A     		ldr	r2, .L138+32
 1422 021e D21A     		subs	r2, r2, r3
 1423 0220 92F8E701 		ldrb	r0, [r2, #487]	@ zero_extendqisi2
 1424 0224 194A     		ldr	r2, .L138+20
 1425 0226 5054     		strb	r0, [r2, r1]
 627:.\RFPoll.c    ****             for(x=1;x <= side.b.moneySale[0];x++){						   							
 1426              		.loc 1 627 0 discriminator 3
 1427 0228 0133     		adds	r3, r3, #1
 1428              	.LVL171:
 1429 022a 9BB2     		uxth	r3, r3
 1430              	.LVL172:
 1431 022c 00E0     		b	.L106
 1432              	.LVL173:
 1433              	.L135:
 1434 022e 0123     		movs	r3, #1
 1435              	.L106:
 1436              	.LVL174:
 627:.\RFPoll.c    ****             for(x=1;x <= side.b.moneySale[0];x++){						   							
 1437              		.loc 1 627 0 is_stmt 0 discriminator 1
 1438 0230 114A     		ldr	r2, .L138
 1439 0232 92F8E721 		ldrb	r2, [r2, #487]	@ zero_extendqisi2
 1440 0236 9A42     		cmp	r2, r3
 1441 0238 EED2     		bcs	.L108
 1442 023a 0EE0     		b	.L109
 1443              	.L110:
 629:.\RFPoll.c    ****         	} 
 630:.\RFPoll.c    ****         }else{
 631:.\RFPoll.c    ****             for(x=1;x <= side.b.moneySale[0];x++){						   							
 632:.\RFPoll.c    ****         		buffer_txEOT[x+21]=side.b.moneySale[9-x];                
 1444              		.loc 1 632 0 is_stmt 1 discriminator 3
 1445 023c 03F11501 		add	r1, r3, #21
 1446 0240 164A     		ldr	r2, .L138+36
 1447 0242 D21A     		subs	r2, r2, r3
 1448 0244 92F8E701 		ldrb	r0, [r2, #487]	@ zero_extendqisi2
 1449 0248 104A     		ldr	r2, .L138+20
 1450 024a 5054     		strb	r0, [r2, r1]
 631:.\RFPoll.c    ****         		buffer_txEOT[x+21]=side.b.moneySale[9-x];                
 1451              		.loc 1 631 0 discriminator 3
 1452 024c 0133     		adds	r3, r3, #1
 1453              	.LVL175:
 1454 024e 9BB2     		uxth	r3, r3
 1455              	.LVL176:
 1456              	.L107:
 631:.\RFPoll.c    ****         		buffer_txEOT[x+21]=side.b.moneySale[9-x];                
 1457              		.loc 1 631 0 is_stmt 0 discriminator 1
 1458 0250 094A     		ldr	r2, .L138
ARM GAS  C:\Users\RECEPC~1\AppData\Local\Temp\cckY5SBD.s 			page 39


 1459 0252 92F8E721 		ldrb	r2, [r2, #487]	@ zero_extendqisi2
 1460 0256 9A42     		cmp	r2, r3
 1461 0258 F0D2     		bcs	.L110
 1462              	.L109:
 633:.\RFPoll.c    ****         	}            
 634:.\RFPoll.c    ****         }
 635:.\RFPoll.c    ****         if(buffer_txEOT[28]==0x00){
 1463              		.loc 1 635 0 is_stmt 1
 1464 025a 0C4B     		ldr	r3, .L138+20
 1465              	.LVL177:
 1466 025c 1B7F     		ldrb	r3, [r3, #28]	@ zero_extendqisi2
 1467 025e 1BB9     		cbnz	r3, .L111
 636:.\RFPoll.c    ****             buffer_txEOT[28] = 0x30;
 1468              		.loc 1 636 0
 1469 0260 0A4B     		ldr	r3, .L138+20
 1470 0262 3022     		movs	r2, #48
 1471 0264 1A77     		strb	r2, [r3, #28]
 637:.\RFPoll.c    ****             buffer_txEOT[29] = 0x30;
 1472              		.loc 1 637 0
 1473 0266 5A77     		strb	r2, [r3, #29]
 1474              	.L111:
 638:.\RFPoll.c    ****         }
 639:.\RFPoll.c    ****         buffer_txEOT[30] = verificar_check(buffer_txEOT,31);        
 1475              		.loc 1 639 0
 1476 0268 084D     		ldr	r5, .L138+20
 1477 026a 2846     		mov	r0, r5
 1478 026c 1F21     		movs	r1, #31
 1479 026e FFF7FEFF 		bl	verificar_check
 1480              	.LVL178:
 1481 0272 A877     		strb	r0, [r5, #30]
 1482              	.LVL179:
 640:.\RFPoll.c    ****         for (x = 0; x < 31; x++){
 1483              		.loc 1 640 0
 1484 0274 1AE0     		b	.L112
 1485              	.L139:
 1486 0276 00BF     		.align	2
 1487              	.L138:
 1488 0278 00000000 		.word	side
 1489 027c 00000000 		.word	buffer_txPreset
 1490 0280 00000000 		.word	IDCast
 1491 0284 00000000 		.word	bufferDisplay2
 1492 0288 00000000 		.word	tempPreset
 1493 028c 00000000 		.word	buffer_txEOT
 1494 0290 00000000 		.word	tempPPU
 1495 0294 00000000 		.word	digits
 1496 0298 07000000 		.word	side+7
 1497 029c 09000000 		.word	side+9
 1498              	.LVL180:
 1499              	.L113:
 641:.\RFPoll.c    ****             RF_Connection_PutChar(buffer_txEOT[x]);
 1500              		.loc 1 641 0 discriminator 3
 1501 02a0 734B     		ldr	r3, .L140
 1502 02a2 185D     		ldrb	r0, [r3, r4]	@ zero_extendqisi2
 1503 02a4 FFF7FEFF 		bl	RF_Connection_PutChar
 1504              	.LVL181:
 640:.\RFPoll.c    ****         for (x = 0; x < 31; x++){
 1505              		.loc 1 640 0 discriminator 3
ARM GAS  C:\Users\RECEPC~1\AppData\Local\Temp\cckY5SBD.s 			page 40


 1506 02a8 0134     		adds	r4, r4, #1
 1507              	.LVL182:
 1508 02aa A4B2     		uxth	r4, r4
 1509              	.LVL183:
 1510              	.L112:
 640:.\RFPoll.c    ****         for (x = 0; x < 31; x++){
 1511              		.loc 1 640 0 is_stmt 0 discriminator 1
 1512 02ac 1E2C     		cmp	r4, #30
 1513 02ae F7D9     		bls	.L113
 642:.\RFPoll.c    ****         }  
 643:.\RFPoll.c    ****         side.a.pumpState = PUMP_IDLE;
 1514              		.loc 1 643 0 is_stmt 1
 1515 02b0 704B     		ldr	r3, .L140+4
 1516 02b2 0622     		movs	r2, #6
 1517 02b4 83F80421 		strb	r2, [r3, #260]
 644:.\RFPoll.c    ****         side.b.rfState = RF_IDLE;
 1518              		.loc 1 644 0
 1519 02b8 0822     		movs	r2, #8
 1520 02ba 83F81522 		strb	r2, [r3, #533]
 645:.\RFPoll.c    ****         bufferDisplay2.flagActiveSale = false;
 1521              		.loc 1 645 0
 1522 02be 0022     		movs	r2, #0
 1523 02c0 6D49     		ldr	r1, .L140+8
 1524 02c2 81F83521 		strb	r2, [r1, #309]
 646:.\RFPoll.c    ****         side.b.RFstateReport = 0;
 1525              		.loc 1 646 0
 1526 02c6 83F81922 		strb	r2, [r3, #537]
 647:.\RFPoll.c    ****         pollTotals = 2;
 1527              		.loc 1 647 0
 1528 02ca 0222     		movs	r2, #2
 1529 02cc 6B4B     		ldr	r3, .L140+12
 1530 02ce 1A70     		strb	r2, [r3]
 1531              	.LVL184:
 1532              	.L94:
 648:.\RFPoll.c    ****     }                                               
 649:.\RFPoll.c    ****     ////////////// TURNOS ////////////////////////////////////
 650:.\RFPoll.c    **** //    if(ShiftState ==1  && side.b.RFstateReport == 1){                                    
 651:.\RFPoll.c    **** //        buffer_txDisplay[5]  = side.b.dir;
 652:.\RFPoll.c    **** //        buffer_txDisplay[6]  = 0xE3;
 653:.\RFPoll.c    **** //        buffer_txDisplay[7]  = RF_WORKSHIFTREQ;
 654:.\RFPoll.c    **** //        for(x=1;x <= bufferDisplay2.shiftId[0] ;x++){						   							
 655:.\RFPoll.c    **** //    		buffer_txDisplay[x+7]= bufferDisplay2.shiftId[(bufferDisplay2.shiftId[0]+1)-x];            
 656:.\RFPoll.c    **** //    	}
 657:.\RFPoll.c    **** //        for(x=8; x<19; x++){
 658:.\RFPoll.c    **** //            if(buffer_txDisplay[x] ==0x00)
 659:.\RFPoll.c    **** //                buffer_txDisplay[x]=0x30;
 660:.\RFPoll.c    **** //        }
 661:.\RFPoll.c    **** //        for(x=1;x <= bufferDisplay2.shiftPassword[0] ;x++){						   							
 662:.\RFPoll.c    **** //    		buffer_txDisplay[x+18]= bufferDisplay2.shiftPassword[(bufferDisplay2.shiftPassword[0]+1)-x]
 663:.\RFPoll.c    **** //    	}
 664:.\RFPoll.c    **** //        for(x=19; x<31; x++){
 665:.\RFPoll.c    **** //            if(buffer_txDisplay[x] ==0x00)
 666:.\RFPoll.c    **** //                buffer_txDisplay[x]=0x30;
 667:.\RFPoll.c    **** //        }
 668:.\RFPoll.c    **** //        buffer_txDisplay[32] = verificar_check(buffer_txDisplay,33);
 669:.\RFPoll.c    **** //        for (x = 0; x < 33; x++){
 670:.\RFPoll.c    **** //            RF_Connection_PutChar(buffer_txDisplay[x]);
ARM GAS  C:\Users\RECEPC~1\AppData\Local\Temp\cckY5SBD.s 			page 41


 671:.\RFPoll.c    **** //        }
 672:.\RFPoll.c    **** //        side.b.rfState = RF_WORKSHIFTREQ;
 673:.\RFPoll.c    **** //        side.b.RFstateReport = 0;
 674:.\RFPoll.c    **** //    }
 675:.\RFPoll.c    ****     ////////////// CAMBIO PPU ////////////////////////////////////
 676:.\RFPoll.c    ****     if(side.b.changePPU){
 1533              		.loc 1 676 0
 1534 02d0 684B     		ldr	r3, .L140+4
 1535 02d2 93F81732 		ldrb	r3, [r3, #535]	@ zero_extendqisi2
 1536 02d6 7BB1     		cbz	r3, .L114
 677:.\RFPoll.c    ****         if(priceChange(side.b.dir,side.b.grade,side.b.ppuAuthorized[side.b.grade]))
 1537              		.loc 1 677 0
 1538 02d8 664B     		ldr	r3, .L140+4
 1539 02da 93F81812 		ldrb	r1, [r3, #536]	@ zero_extendqisi2
 1540 02de 03EBC102 		add	r2, r3, r1, lsl #3
 1541 02e2 93F81201 		ldrb	r0, [r3, #274]	@ zero_extendqisi2
 1542 02e6 02F2C712 		addw	r2, r2, #455
 1543 02ea FFF7FEFF 		bl	priceChange
 1544              	.LVL185:
 1545 02ee 18B1     		cbz	r0, .L114
 678:.\RFPoll.c    ****             side.b.changePPU = false;          
 1546              		.loc 1 678 0
 1547 02f0 0022     		movs	r2, #0
 1548 02f2 604B     		ldr	r3, .L140+4
 1549 02f4 83F81722 		strb	r2, [r3, #535]
 1550              	.L114:
 679:.\RFPoll.c    ****     }
 680:.\RFPoll.c    ****     ////////////// TOTALES ////////////////////////////////////
 681:.\RFPoll.c    ****     
 682:.\RFPoll.c    ****     if(side.b.RFstateReport == 1 && pollTotals == 2){
 1551              		.loc 1 682 0
 1552 02f8 5E4B     		ldr	r3, .L140+4
 1553 02fa 93F81932 		ldrb	r3, [r3, #537]	@ zero_extendqisi2
 1554 02fe 012B     		cmp	r3, #1
 1555 0300 40F0B480 		bne	.L78
 1556              		.loc 1 682 0 is_stmt 0 discriminator 1
 1557 0304 5D4B     		ldr	r3, .L140+12
 1558 0306 1B78     		ldrb	r3, [r3]	@ zero_extendqisi2
 1559 0308 DBB2     		uxtb	r3, r3
 1560 030a 022B     		cmp	r3, #2
 1561 030c 40F0AE80 		bne	.L78
 683:.\RFPoll.c    ****         pollTotals = 0;
 1562              		.loc 1 683 0 is_stmt 1
 1563 0310 0022     		movs	r2, #0
 1564 0312 5A4B     		ldr	r3, .L140+12
 1565 0314 1A70     		strb	r2, [r3]
 1566              	.LVL186:
 684:.\RFPoll.c    ****         y=0;
 685:.\RFPoll.c    ****         buffer_txTotals[y] = 0xBC; y++;
 1567              		.loc 1 685 0
 1568 0316 5A4B     		ldr	r3, .L140+16
 1569 0318 BC22     		movs	r2, #188
 1570 031a 1A70     		strb	r2, [r3]
 1571              	.LVL187:
 686:.\RFPoll.c    ****         buffer_txTotals[y] = 0xCB; y++;
 1572              		.loc 1 686 0
 1573 031c CB22     		movs	r2, #203
ARM GAS  C:\Users\RECEPC~1\AppData\Local\Temp\cckY5SBD.s 			page 42


 1574 031e 5A70     		strb	r2, [r3, #1]
 1575              	.LVL188:
 687:.\RFPoll.c    ****         buffer_txTotals[y] = 0xC8; y++;
 1576              		.loc 1 687 0
 1577 0320 C822     		movs	r2, #200
 1578 0322 9A70     		strb	r2, [r3, #2]
 1579              	.LVL189:
 688:.\RFPoll.c    ****         buffer_txTotals[y] = IDCast[0]; y++;
 1580              		.loc 1 688 0
 1581 0324 574A     		ldr	r2, .L140+20
 1582 0326 1178     		ldrb	r1, [r2]	@ zero_extendqisi2
 1583 0328 D970     		strb	r1, [r3, #3]
 1584              	.LVL190:
 689:.\RFPoll.c    ****         buffer_txTotals[y] = IDCast[1]; y++;
 1585              		.loc 1 689 0
 1586 032a 5278     		ldrb	r2, [r2, #1]	@ zero_extendqisi2
 1587 032c 1A71     		strb	r2, [r3, #4]
 1588              	.LVL191:
 690:.\RFPoll.c    ****         buffer_txTotals[5] = side.b.dir; y++;
 1589              		.loc 1 690 0
 1590 032e 514A     		ldr	r2, .L140+4
 1591 0330 92F81211 		ldrb	r1, [r2, #274]	@ zero_extendqisi2
 1592 0334 5971     		strb	r1, [r3, #5]
 1593              	.LVL192:
 691:.\RFPoll.c    ****         buffer_txTotals[y] = 0xE8; y++;
 1594              		.loc 1 691 0
 1595 0336 E821     		movs	r1, #232
 1596 0338 9971     		strb	r1, [r3, #6]
 1597              	.LVL193:
 692:.\RFPoll.c    ****         buffer_txTotals[y] = side.b.rfState; y++;
 1598              		.loc 1 692 0
 1599 033a 92F81522 		ldrb	r2, [r2, #533]	@ zero_extendqisi2
 1600 033e DA71     		strb	r2, [r3, #7]
 1601              	.LVL194:
 693:.\RFPoll.c    ****         buffer_txTotals[y] = 0x00; y++;
 694:.\RFPoll.c    ****         for(z=1;z <= side.b.hoseNumber; z++){
 1602              		.loc 1 694 0
 1603 0340 0121     		movs	r1, #1
 693:.\RFPoll.c    ****         buffer_txTotals[y] = 0x00; y++;
 1604              		.loc 1 693 0
 1605 0342 0924     		movs	r4, #9
 1606              		.loc 1 694 0
 1607 0344 74E0     		b	.L116
 1608              	.LVL195:
 1609              	.L130:
 695:.\RFPoll.c    ****             buffer_txTotals[y] = z; y++;                    
 1610              		.loc 1 695 0
 1611 0346 4E4B     		ldr	r3, .L140+16
 1612 0348 1955     		strb	r1, [r3, r4]
 1613 034a 0134     		adds	r4, r4, #1
 1614              	.LVL196:
 1615 034c A4B2     		uxth	r4, r4
 1616              	.LVL197:
 696:.\RFPoll.c    ****             if (digits == 6 || digits == 5){                            
 1617              		.loc 1 696 0
 1618 034e 4E4B     		ldr	r3, .L140+24
 1619 0350 1B78     		ldrb	r3, [r3]	@ zero_extendqisi2
ARM GAS  C:\Users\RECEPC~1\AppData\Local\Temp\cckY5SBD.s 			page 43


 1620 0352 053B     		subs	r3, r3, #5
 1621 0354 DBB2     		uxtb	r3, r3
 1622 0356 012B     		cmp	r3, #1
 1623 0358 13D9     		bls	.L136
 1624 035a 0C22     		movs	r2, #12
 1625 035c 4FE0     		b	.L118
 1626              	.LVL198:
 1627              	.L119:
 697:.\RFPoll.c    ****                 for(x = 8; x > 0; x--){ //Volumen
 698:.\RFPoll.c    ****                     buffer_txTotals[y] = (side.b.totalsHandle[z-1][0][x])-48;y++;
 1628              		.loc 1 698 0 discriminator 3
 1629 035e 4B1E     		subs	r3, r1, #1
 1630 0360 03EB4303 		add	r3, r3, r3, lsl #1
 1631 0364 C3EB0313 		rsb	r3, r3, r3, lsl #4
 1632 0368 4248     		ldr	r0, .L140+4
 1633 036a 0344     		add	r3, r3, r0
 1634 036c 1344     		add	r3, r3, r2
 1635 036e 93F81331 		ldrb	r3, [r3, #275]	@ zero_extendqisi2
 1636 0372 303B     		subs	r3, r3, #48
 1637 0374 4248     		ldr	r0, .L140+16
 1638 0376 0355     		strb	r3, [r0, r4]
 1639 0378 0134     		adds	r4, r4, #1
 1640              	.LVL199:
 1641 037a A4B2     		uxth	r4, r4
 1642              	.LVL200:
 697:.\RFPoll.c    ****                 for(x = 8; x > 0; x--){ //Volumen
 1643              		.loc 1 697 0 discriminator 3
 1644 037c 013A     		subs	r2, r2, #1
 1645              	.LVL201:
 1646 037e 92B2     		uxth	r2, r2
 1647              	.LVL202:
 1648 0380 00E0     		b	.L117
 1649              	.LVL203:
 1650              	.L136:
 1651 0382 0822     		movs	r2, #8
 1652              	.L117:
 1653              	.LVL204:
 697:.\RFPoll.c    ****                 for(x = 8; x > 0; x--){ //Volumen
 1654              		.loc 1 697 0 is_stmt 0 discriminator 1
 1655 0384 002A     		cmp	r2, #0
 1656 0386 EAD1     		bne	.L119
 1657 0388 06E0     		b	.L120
 1658              	.L121:
 699:.\RFPoll.c    ****                 }
 700:.\RFPoll.c    ****                 for(x =0; x < 4; x++){
 701:.\RFPoll.c    ****                     buffer_txTotals[y] = 0x30;y++;
 1659              		.loc 1 701 0 is_stmt 1 discriminator 3
 1660 038a 3020     		movs	r0, #48
 1661 038c 3C4B     		ldr	r3, .L140+16
 1662 038e 1855     		strb	r0, [r3, r4]
 1663 0390 0134     		adds	r4, r4, #1
 1664              	.LVL205:
 1665 0392 A4B2     		uxth	r4, r4
 1666              	.LVL206:
 700:.\RFPoll.c    ****                     buffer_txTotals[y] = 0x30;y++;
 1667              		.loc 1 700 0 discriminator 3
 1668 0394 0132     		adds	r2, r2, #1
ARM GAS  C:\Users\RECEPC~1\AppData\Local\Temp\cckY5SBD.s 			page 44


 1669              	.LVL207:
 1670 0396 92B2     		uxth	r2, r2
 1671              	.LVL208:
 1672              	.L120:
 700:.\RFPoll.c    ****                     buffer_txTotals[y] = 0x30;y++;
 1673              		.loc 1 700 0 is_stmt 0 discriminator 1
 1674 0398 032A     		cmp	r2, #3
 1675 039a F6D9     		bls	.L121
 1676 039c 0822     		movs	r2, #8
 1677              	.LVL209:
 1678 039e 10E0     		b	.L122
 1679              	.LVL210:
 1680              	.L123:
 702:.\RFPoll.c    ****                 }
 703:.\RFPoll.c    ****                 for(x = 8; x > 0; x--){//Dinero
 704:.\RFPoll.c    ****                     buffer_txTotals[y] = (side.b.totalsHandle[z-1][1][x])-48;y++;
 1681              		.loc 1 704 0 is_stmt 1 discriminator 3
 1682 03a0 4B1E     		subs	r3, r1, #1
 1683 03a2 03EB4303 		add	r3, r3, r3, lsl #1
 1684 03a6 C3EB0313 		rsb	r3, r3, r3, lsl #4
 1685 03aa 3248     		ldr	r0, .L140+4
 1686 03ac 0344     		add	r3, r3, r0
 1687 03ae 1344     		add	r3, r3, r2
 1688 03b0 93F82231 		ldrb	r3, [r3, #290]	@ zero_extendqisi2
 1689 03b4 303B     		subs	r3, r3, #48
 1690 03b6 3248     		ldr	r0, .L140+16
 1691 03b8 0355     		strb	r3, [r0, r4]
 1692 03ba 0134     		adds	r4, r4, #1
 1693              	.LVL211:
 1694 03bc A4B2     		uxth	r4, r4
 1695              	.LVL212:
 703:.\RFPoll.c    ****                     buffer_txTotals[y] = (side.b.totalsHandle[z-1][1][x])-48;y++;
 1696              		.loc 1 703 0 discriminator 3
 1697 03be 013A     		subs	r2, r2, #1
 1698              	.LVL213:
 1699 03c0 92B2     		uxth	r2, r2
 1700              	.LVL214:
 1701              	.L122:
 703:.\RFPoll.c    ****                     buffer_txTotals[y] = (side.b.totalsHandle[z-1][1][x])-48;y++;
 1702              		.loc 1 703 0 is_stmt 0 discriminator 1
 1703 03c2 002A     		cmp	r2, #0
 1704 03c4 ECD1     		bne	.L123
 1705 03c6 06E0     		b	.L124
 1706              	.L125:
 705:.\RFPoll.c    ****                 }
 706:.\RFPoll.c    ****                 for(x =0; x < 4; x++){
 707:.\RFPoll.c    ****                     buffer_txTotals[y] = 0x30;y++;
 1707              		.loc 1 707 0 is_stmt 1 discriminator 3
 1708 03c8 3020     		movs	r0, #48
 1709 03ca 2D4B     		ldr	r3, .L140+16
 1710 03cc 1855     		strb	r0, [r3, r4]
 1711 03ce 0134     		adds	r4, r4, #1
 1712              	.LVL215:
 1713 03d0 A4B2     		uxth	r4, r4
 1714              	.LVL216:
 706:.\RFPoll.c    ****                     buffer_txTotals[y] = 0x30;y++;
 1715              		.loc 1 706 0 discriminator 3
ARM GAS  C:\Users\RECEPC~1\AppData\Local\Temp\cckY5SBD.s 			page 45


 1716 03d2 0132     		adds	r2, r2, #1
 1717              	.LVL217:
 1718 03d4 92B2     		uxth	r2, r2
 1719              	.LVL218:
 1720              	.L124:
 706:.\RFPoll.c    ****                     buffer_txTotals[y] = 0x30;y++;
 1721              		.loc 1 706 0 is_stmt 0 discriminator 1
 1722 03d6 032A     		cmp	r2, #3
 1723 03d8 F6D9     		bls	.L125
 1724 03da 27E0     		b	.L126
 1725              	.L127:
 708:.\RFPoll.c    ****                 }
 709:.\RFPoll.c    ****             }else{
 710:.\RFPoll.c    ****                 for(x = 12; x > 0; x--){ //Volumen
 711:.\RFPoll.c    ****                     buffer_txTotals[y] = (side.b.totalsHandle[z-1][0][x])-48;y++;
 1726              		.loc 1 711 0 is_stmt 1 discriminator 3
 1727 03dc 4B1E     		subs	r3, r1, #1
 1728 03de 03EB4303 		add	r3, r3, r3, lsl #1
 1729 03e2 C3EB0313 		rsb	r3, r3, r3, lsl #4
 1730 03e6 2348     		ldr	r0, .L140+4
 1731 03e8 0344     		add	r3, r3, r0
 1732 03ea 1344     		add	r3, r3, r2
 1733 03ec 93F81331 		ldrb	r3, [r3, #275]	@ zero_extendqisi2
 1734 03f0 303B     		subs	r3, r3, #48
 1735 03f2 2348     		ldr	r0, .L140+16
 1736 03f4 0355     		strb	r3, [r0, r4]
 1737 03f6 0134     		adds	r4, r4, #1
 1738              	.LVL219:
 1739 03f8 A4B2     		uxth	r4, r4
 1740              	.LVL220:
 710:.\RFPoll.c    ****                     buffer_txTotals[y] = (side.b.totalsHandle[z-1][0][x])-48;y++;
 1741              		.loc 1 710 0 discriminator 3
 1742 03fa 013A     		subs	r2, r2, #1
 1743              	.LVL221:
 1744 03fc 92B2     		uxth	r2, r2
 1745              	.LVL222:
 1746              	.L118:
 710:.\RFPoll.c    ****                     buffer_txTotals[y] = (side.b.totalsHandle[z-1][0][x])-48;y++;
 1747              		.loc 1 710 0 is_stmt 0 discriminator 1
 1748 03fe 002A     		cmp	r2, #0
 1749 0400 ECD1     		bne	.L127
 1750 0402 0C22     		movs	r2, #12
 1751              	.LVL223:
 1752 0404 10E0     		b	.L128
 1753              	.LVL224:
 1754              	.L129:
 712:.\RFPoll.c    ****                 }                        
 713:.\RFPoll.c    ****                 for(x = 12; x > 0; x--){//Dinero
 714:.\RFPoll.c    ****                     buffer_txTotals[y] = (side.b.totalsHandle[z-1][1][x])-48;y++;
 1755              		.loc 1 714 0 is_stmt 1 discriminator 3
 1756 0406 4B1E     		subs	r3, r1, #1
 1757 0408 03EB4303 		add	r3, r3, r3, lsl #1
 1758 040c C3EB0313 		rsb	r3, r3, r3, lsl #4
 1759 0410 1848     		ldr	r0, .L140+4
 1760 0412 0344     		add	r3, r3, r0
 1761 0414 1344     		add	r3, r3, r2
 1762 0416 93F82231 		ldrb	r3, [r3, #290]	@ zero_extendqisi2
ARM GAS  C:\Users\RECEPC~1\AppData\Local\Temp\cckY5SBD.s 			page 46


 1763 041a 303B     		subs	r3, r3, #48
 1764 041c 1848     		ldr	r0, .L140+16
 1765 041e 0355     		strb	r3, [r0, r4]
 1766 0420 0134     		adds	r4, r4, #1
 1767              	.LVL225:
 1768 0422 A4B2     		uxth	r4, r4
 1769              	.LVL226:
 713:.\RFPoll.c    ****                     buffer_txTotals[y] = (side.b.totalsHandle[z-1][1][x])-48;y++;
 1770              		.loc 1 713 0 discriminator 3
 1771 0424 013A     		subs	r2, r2, #1
 1772              	.LVL227:
 1773 0426 92B2     		uxth	r2, r2
 1774              	.LVL228:
 1775              	.L128:
 713:.\RFPoll.c    ****                     buffer_txTotals[y] = (side.b.totalsHandle[z-1][1][x])-48;y++;
 1776              		.loc 1 713 0 is_stmt 0 discriminator 1
 1777 0428 002A     		cmp	r2, #0
 1778 042a ECD1     		bne	.L129
 1779              	.L126:
 694:.\RFPoll.c    ****             buffer_txTotals[y] = z; y++;                    
 1780              		.loc 1 694 0 is_stmt 1 discriminator 2
 1781 042c 0131     		adds	r1, r1, #1
 1782              	.LVL229:
 1783 042e 89B2     		uxth	r1, r1
 1784              	.LVL230:
 1785              	.L116:
 694:.\RFPoll.c    ****             buffer_txTotals[y] = z; y++;                    
 1786              		.loc 1 694 0 is_stmt 0 discriminator 1
 1787 0430 104B     		ldr	r3, .L140+4
 1788 0432 93F81432 		ldrb	r3, [r3, #532]	@ zero_extendqisi2
 1789 0436 8B42     		cmp	r3, r1
 1790 0438 85D2     		bcs	.L130
 715:.\RFPoll.c    ****                 }                        
 716:.\RFPoll.c    ****             } 
 717:.\RFPoll.c    ****         }
 718:.\RFPoll.c    ****         buffer_txTotals[8] = y-9;
 1791              		.loc 1 718 0 is_stmt 1
 1792 043a 114E     		ldr	r6, .L140+16
 1793 043c A4F10903 		sub	r3, r4, #9
 1794 0440 3372     		strb	r3, [r6, #8]
 719:.\RFPoll.c    ****         buffer_txTotals[y] = verificar_check(buffer_txTotals,y+1);y++;                 
 1795              		.loc 1 719 0
 1796 0442 651C     		adds	r5, r4, #1
 1797 0444 ADB2     		uxth	r5, r5
 1798 0446 3046     		mov	r0, r6
 1799 0448 2946     		mov	r1, r5
 1800              	.LVL231:
 1801 044a FFF7FEFF 		bl	verificar_check
 1802              	.LVL232:
 1803 044e 3055     		strb	r0, [r6, r4]
 1804              	.LVL233:
 720:.\RFPoll.c    ****         for (x = 0; x < y; x++){
 1805              		.loc 1 720 0
 1806 0450 0024     		movs	r4, #0
 1807 0452 05E0     		b	.L131
 1808              	.LVL234:
 1809              	.L132:
ARM GAS  C:\Users\RECEPC~1\AppData\Local\Temp\cckY5SBD.s 			page 47


 721:.\RFPoll.c    ****             RF_Connection_PutChar(buffer_txTotals[x]);
 1810              		.loc 1 721 0 discriminator 3
 1811 0454 0A4B     		ldr	r3, .L140+16
 1812 0456 185D     		ldrb	r0, [r3, r4]	@ zero_extendqisi2
 1813 0458 FFF7FEFF 		bl	RF_Connection_PutChar
 1814              	.LVL235:
 720:.\RFPoll.c    ****         for (x = 0; x < y; x++){
 1815              		.loc 1 720 0 discriminator 3
 1816 045c 0134     		adds	r4, r4, #1
 1817              	.LVL236:
 1818 045e A4B2     		uxth	r4, r4
 1819              	.LVL237:
 1820              	.L131:
 720:.\RFPoll.c    ****         for (x = 0; x < y; x++){
 1821              		.loc 1 720 0 is_stmt 0 discriminator 1
 1822 0460 AC42     		cmp	r4, r5
 1823 0462 F7D3     		bcc	.L132
 722:.\RFPoll.c    ****         }        
 723:.\RFPoll.c    ****         side.b.RFstateReport = 0;        
 1824              		.loc 1 723 0 is_stmt 1
 1825 0464 0022     		movs	r2, #0
 1826 0466 034B     		ldr	r3, .L140+4
 1827 0468 83F81922 		strb	r2, [r3, #537]
 1828              	.LVL238:
 1829              	.L78:
 1830 046c 70BD     		pop	{r4, r5, r6, pc}
 1831              	.L141:
 1832 046e 00BF     		.align	2
 1833              	.L140:
 1834 0470 00000000 		.word	buffer_txEOT
 1835 0474 00000000 		.word	side
 1836 0478 00000000 		.word	bufferDisplay2
 1837 047c 00000000 		.word	pollTotals
 1838 0480 00000000 		.word	buffer_txTotals
 1839 0484 00000000 		.word	IDCast
 1840 0488 00000000 		.word	digits
 1841              		.cfi_endproc
 1842              	.LFE66:
 1843              		.size	pollingRFB_Tx, .-pollingRFB_Tx
 1844              		.section	.text.pollingRF_Rx,"ax",%progbits
 1845              		.align	2
 1846              		.global	pollingRF_Rx
 1847              		.thumb
 1848              		.thumb_func
 1849              		.type	pollingRF_Rx, %function
 1850              	pollingRF_Rx:
 1851              	.LFB64:
  54:.\RFPoll.c    ****     uint16 i,x,y,z;       
 1852              		.loc 1 54 0
 1853              		.cfi_startproc
 1854              		@ args = 0, pretend = 0, frame = 0
 1855              		@ frame_needed = 0, uses_anonymous_args = 0
 1856 0000 70B5     		push	{r4, r5, r6, lr}
 1857              		.cfi_def_cfa_offset 16
 1858              		.cfi_offset 4, -16
 1859              		.cfi_offset 5, -12
 1860              		.cfi_offset 6, -8
ARM GAS  C:\Users\RECEPC~1\AppData\Local\Temp\cckY5SBD.s 			page 48


 1861              		.cfi_offset 14, -4
  56:.\RFPoll.c    ****     if(RF_Connection_GetRxBufferSize() >= 1){
 1862              		.loc 1 56 0
 1863 0002 2820     		movs	r0, #40
 1864 0004 FFF7FEFF 		bl	CyDelay
 1865              	.LVL239:
  57:.\RFPoll.c    ****         ActiveRF=1;
 1866              		.loc 1 57 0
 1867 0008 FFF7FEFF 		bl	RF_Connection_GetRxBufferSize
 1868              	.LVL240:
 1869 000c 0028     		cmp	r0, #0
 1870 000e 00F00D84 		beq	.L142
  58:.\RFPoll.c    ****         counterRF = 0;
 1871              		.loc 1 58 0
 1872 0012 0122     		movs	r2, #1
 1873 0014 A14B     		ldr	r3, .L239
 1874 0016 1A70     		strb	r2, [r3]
  59:.\RFPoll.c    ****         i=0;
 1875              		.loc 1 59 0
 1876 0018 0024     		movs	r4, #0
 1877 001a A14B     		ldr	r3, .L239+4
 1878 001c 1C70     		strb	r4, [r3]
 1879              	.LVL241:
  61:.\RFPoll.c    ****            buffer_rf[i]=RF_Connection_ReadRxData(); 	
 1880              		.loc 1 61 0
 1881 001e 05E0     		b	.L144
 1882              	.LVL242:
 1883              	.L145:
  62:.\RFPoll.c    ****     	   i++;	
 1884              		.loc 1 62 0
 1885 0020 FFF7FEFF 		bl	RF_Connection_ReadRxData
 1886              	.LVL243:
 1887 0024 9F4B     		ldr	r3, .L239+8
 1888 0026 1855     		strb	r0, [r3, r4]
  63:.\RFPoll.c    ****         } 
 1889              		.loc 1 63 0
 1890 0028 0134     		adds	r4, r4, #1
 1891              	.LVL244:
 1892 002a A4B2     		uxth	r4, r4
 1893              	.LVL245:
 1894              	.L144:
  61:.\RFPoll.c    ****            buffer_rf[i]=RF_Connection_ReadRxData(); 	
 1895              		.loc 1 61 0
 1896 002c FFF7FEFF 		bl	RF_Connection_GetRxBufferSize
 1897              	.LVL246:
 1898 0030 0028     		cmp	r0, #0
 1899 0032 F5D1     		bne	.L145
 1900              	.LVL247:
  66:.\RFPoll.c    ****         buffer_tx[y] = 0xCB; y++;
 1901              		.loc 1 66 0
 1902 0034 9C4B     		ldr	r3, .L239+12
 1903 0036 BC22     		movs	r2, #188
 1904 0038 1A70     		strb	r2, [r3]
 1905              	.LVL248:
  67:.\RFPoll.c    ****         buffer_tx[y] = 0xC8; y++;
 1906              		.loc 1 67 0
 1907 003a CB22     		movs	r2, #203
ARM GAS  C:\Users\RECEPC~1\AppData\Local\Temp\cckY5SBD.s 			page 49


 1908 003c 5A70     		strb	r2, [r3, #1]
 1909              	.LVL249:
  68:.\RFPoll.c    ****         buffer_tx[y] = IDCast[0]; y++;
 1910              		.loc 1 68 0
 1911 003e C822     		movs	r2, #200
 1912 0040 9A70     		strb	r2, [r3, #2]
 1913              	.LVL250:
  69:.\RFPoll.c    ****         buffer_tx[y] = IDCast[1]; y++;
 1914              		.loc 1 69 0
 1915 0042 9A4A     		ldr	r2, .L239+16
 1916 0044 1178     		ldrb	r1, [r2]	@ zero_extendqisi2
 1917 0046 D970     		strb	r1, [r3, #3]
 1918              	.LVL251:
  70:.\RFPoll.c    ****         if(((buffer_rf[0]==0xBC)&&(buffer_rf[1]==0xBB)&&(buffer_rf[2]==0xB8)&&(buffer_rf[3]==IDCast
 1919              		.loc 1 70 0
 1920 0048 5278     		ldrb	r2, [r2, #1]	@ zero_extendqisi2
 1921 004a 1A71     		strb	r2, [r3, #4]
 1922              	.LVL252:
  71:.\RFPoll.c    ****             switch(buffer_rf[6]){
 1923              		.loc 1 71 0
 1924 004c 954B     		ldr	r3, .L239+8
 1925 004e 1B78     		ldrb	r3, [r3]	@ zero_extendqisi2
 1926 0050 BC2B     		cmp	r3, #188
 1927 0052 40F0E983 		bne	.L146
  71:.\RFPoll.c    ****             switch(buffer_rf[6]){
 1928              		.loc 1 71 0 is_stmt 0 discriminator 1
 1929 0056 934B     		ldr	r3, .L239+8
 1930 0058 5B78     		ldrb	r3, [r3, #1]	@ zero_extendqisi2
 1931 005a BB2B     		cmp	r3, #187
 1932 005c 40F0E483 		bne	.L146
  71:.\RFPoll.c    ****             switch(buffer_rf[6]){
 1933              		.loc 1 71 0 discriminator 2
 1934 0060 904B     		ldr	r3, .L239+8
 1935 0062 9B78     		ldrb	r3, [r3, #2]	@ zero_extendqisi2
 1936 0064 B82B     		cmp	r3, #184
 1937 0066 40F0DF83 		bne	.L146
  71:.\RFPoll.c    ****             switch(buffer_rf[6]){
 1938              		.loc 1 71 0 discriminator 3
 1939 006a 904B     		ldr	r3, .L239+16
 1940 006c 1B78     		ldrb	r3, [r3]	@ zero_extendqisi2
 1941 006e 8D4A     		ldr	r2, .L239+8
 1942 0070 D278     		ldrb	r2, [r2, #3]	@ zero_extendqisi2
 1943 0072 9A42     		cmp	r2, r3
 1944 0074 40F0D883 		bne	.L146
  71:.\RFPoll.c    ****             switch(buffer_rf[6]){
 1945              		.loc 1 71 0 discriminator 4
 1946 0078 8C4B     		ldr	r3, .L239+16
 1947 007a 5B78     		ldrb	r3, [r3, #1]	@ zero_extendqisi2
 1948 007c 894A     		ldr	r2, .L239+8
 1949 007e 1279     		ldrb	r2, [r2, #4]	@ zero_extendqisi2
 1950 0080 9A42     		cmp	r2, r3
 1951 0082 40F0D183 		bne	.L146
  72:.\RFPoll.c    ****                case 0xA1:               //Peticion de estado
 1952              		.loc 1 72 0 is_stmt 1
 1953 0086 874B     		ldr	r3, .L239+8
 1954 0088 9B79     		ldrb	r3, [r3, #6]	@ zero_extendqisi2
 1955 008a A13B     		subs	r3, r3, #161
ARM GAS  C:\Users\RECEPC~1\AppData\Local\Temp\cckY5SBD.s 			page 50


 1956 008c 432B     		cmp	r3, #67
 1957 008e 00F2CB83 		bhi	.L146
 1958 0092 DFE813F0 		tbh	[pc, r3, lsl #1]
 1959              	.L148:
 1960 0096 4400     		.2byte	(.L147-.L148)/2
 1961 0098 C903     		.2byte	(.L146-.L148)/2
 1962 009a C903     		.2byte	(.L146-.L148)/2
 1963 009c C903     		.2byte	(.L146-.L148)/2
 1964 009e EA00     		.2byte	(.L149-.L148)/2
 1965 00a0 4701     		.2byte	(.L150-.L148)/2
 1966 00a2 0402     		.2byte	(.L227-.L148)/2
 1967 00a4 C903     		.2byte	(.L146-.L148)/2
 1968 00a6 5702     		.2byte	(.L152-.L148)/2
 1969 00a8 C903     		.2byte	(.L146-.L148)/2
 1970 00aa C903     		.2byte	(.L146-.L148)/2
 1971 00ac C903     		.2byte	(.L146-.L148)/2
 1972 00ae C903     		.2byte	(.L146-.L148)/2
 1973 00b0 C903     		.2byte	(.L146-.L148)/2
 1974 00b2 C903     		.2byte	(.L146-.L148)/2
 1975 00b4 C903     		.2byte	(.L146-.L148)/2
 1976 00b6 C903     		.2byte	(.L146-.L148)/2
 1977 00b8 C903     		.2byte	(.L146-.L148)/2
 1978 00ba C903     		.2byte	(.L146-.L148)/2
 1979 00bc C903     		.2byte	(.L146-.L148)/2
 1980 00be C903     		.2byte	(.L146-.L148)/2
 1981 00c0 C903     		.2byte	(.L146-.L148)/2
 1982 00c2 C903     		.2byte	(.L146-.L148)/2
 1983 00c4 C903     		.2byte	(.L146-.L148)/2
 1984 00c6 C903     		.2byte	(.L146-.L148)/2
 1985 00c8 C903     		.2byte	(.L146-.L148)/2
 1986 00ca C903     		.2byte	(.L146-.L148)/2
 1987 00cc C903     		.2byte	(.L146-.L148)/2
 1988 00ce C903     		.2byte	(.L146-.L148)/2
 1989 00d0 C903     		.2byte	(.L146-.L148)/2
 1990 00d2 C903     		.2byte	(.L146-.L148)/2
 1991 00d4 C903     		.2byte	(.L146-.L148)/2
 1992 00d6 C903     		.2byte	(.L146-.L148)/2
 1993 00d8 C903     		.2byte	(.L146-.L148)/2
 1994 00da C903     		.2byte	(.L146-.L148)/2
 1995 00dc C903     		.2byte	(.L146-.L148)/2
 1996 00de C903     		.2byte	(.L146-.L148)/2
 1997 00e0 C903     		.2byte	(.L146-.L148)/2
 1998 00e2 C903     		.2byte	(.L146-.L148)/2
 1999 00e4 C903     		.2byte	(.L146-.L148)/2
 2000 00e6 C903     		.2byte	(.L146-.L148)/2
 2001 00e8 C903     		.2byte	(.L146-.L148)/2
 2002 00ea C903     		.2byte	(.L146-.L148)/2
 2003 00ec C903     		.2byte	(.L146-.L148)/2
 2004 00ee C903     		.2byte	(.L146-.L148)/2
 2005 00f0 C903     		.2byte	(.L146-.L148)/2
 2006 00f2 C903     		.2byte	(.L146-.L148)/2
 2007 00f4 C903     		.2byte	(.L146-.L148)/2
 2008 00f6 C903     		.2byte	(.L146-.L148)/2
 2009 00f8 C903     		.2byte	(.L146-.L148)/2
 2010 00fa C903     		.2byte	(.L146-.L148)/2
 2011 00fc C903     		.2byte	(.L146-.L148)/2
 2012 00fe C903     		.2byte	(.L146-.L148)/2
ARM GAS  C:\Users\RECEPC~1\AppData\Local\Temp\cckY5SBD.s 			page 51


 2013 0100 C903     		.2byte	(.L146-.L148)/2
 2014 0102 C903     		.2byte	(.L146-.L148)/2
 2015 0104 C903     		.2byte	(.L146-.L148)/2
 2016 0106 C903     		.2byte	(.L146-.L148)/2
 2017 0108 C903     		.2byte	(.L146-.L148)/2
 2018 010a C903     		.2byte	(.L146-.L148)/2
 2019 010c C903     		.2byte	(.L146-.L148)/2
 2020 010e C903     		.2byte	(.L146-.L148)/2
 2021 0110 C903     		.2byte	(.L146-.L148)/2
 2022 0112 C903     		.2byte	(.L146-.L148)/2
 2023 0114 C903     		.2byte	(.L146-.L148)/2
 2024 0116 DC02     		.2byte	(.L153-.L148)/2
 2025 0118 7803     		.2byte	(.L154-.L148)/2
 2026 011a C903     		.2byte	(.L146-.L148)/2
 2027 011c A503     		.2byte	(.L155-.L148)/2
 2028              		.p2align 1
 2029              	.L147:
  74:.\RFPoll.c    ****                     if(side.a.RFstateReport == 0){                        
 2030              		.loc 1 74 0
 2031 011e 614B     		ldr	r3, .L239+8
 2032 0120 5A79     		ldrb	r2, [r3, #5]	@ zero_extendqisi2
 2033 0122 634B     		ldr	r3, .L239+20
 2034 0124 1B78     		ldrb	r3, [r3]	@ zero_extendqisi2
 2035 0126 9A42     		cmp	r2, r3
 2036 0128 20D1     		bne	.L228
  75:.\RFPoll.c    ****                         buffer_tx[5] = side.a.dir;y++;
 2037              		.loc 1 75 0
 2038 012a 614A     		ldr	r2, .L239+20
 2039 012c 92F80721 		ldrb	r2, [r2, #263]	@ zero_extendqisi2
 2040 0130 C2B9     		cbnz	r2, .L157
  76:.\RFPoll.c    ****                         buffer_tx[y] = 0xA1;y++;
 2041              		.loc 1 76 0
 2042 0132 5D4C     		ldr	r4, .L239+12
 2043              	.LVL253:
 2044 0134 6371     		strb	r3, [r4, #5]
 2045              	.LVL254:
  77:.\RFPoll.c    ****                         buffer_tx[y] = side.a.rfState; y++;
 2046              		.loc 1 77 0
 2047 0136 A123     		movs	r3, #161
 2048 0138 A371     		strb	r3, [r4, #6]
 2049              	.LVL255:
  78:.\RFPoll.c    ****                         buffer_tx[y] = verificar_check(buffer_tx,y+1);y++;
 2050              		.loc 1 78 0
 2051 013a 5D4B     		ldr	r3, .L239+20
 2052 013c 93F80331 		ldrb	r3, [r3, #259]	@ zero_extendqisi2
 2053 0140 E371     		strb	r3, [r4, #7]
 2054              	.LVL256:
  79:.\RFPoll.c    ****                         for (x = 0; x < y; x++){
 2055              		.loc 1 79 0
 2056 0142 2046     		mov	r0, r4
 2057 0144 0921     		movs	r1, #9
 2058 0146 FFF7FEFF 		bl	verificar_check
 2059              	.LVL257:
 2060 014a 2072     		strb	r0, [r4, #8]
 2061              	.LVL258:
  80:.\RFPoll.c    ****                             RF_Connection_PutChar(buffer_tx[x]);
 2062              		.loc 1 80 0
ARM GAS  C:\Users\RECEPC~1\AppData\Local\Temp\cckY5SBD.s 			page 52


 2063 014c 0024     		movs	r4, #0
 2064 014e 05E0     		b	.L158
 2065              	.LVL259:
 2066              	.L159:
  81:.\RFPoll.c    ****                         }
 2067              		.loc 1 81 0 discriminator 3
 2068 0150 554B     		ldr	r3, .L239+12
 2069 0152 185D     		ldrb	r0, [r3, r4]	@ zero_extendqisi2
 2070 0154 FFF7FEFF 		bl	RF_Connection_PutChar
 2071              	.LVL260:
  80:.\RFPoll.c    ****                             RF_Connection_PutChar(buffer_tx[x]);
 2072              		.loc 1 80 0 discriminator 3
 2073 0158 0134     		adds	r4, r4, #1
 2074              	.LVL261:
 2075 015a A4B2     		uxth	r4, r4
 2076              	.LVL262:
 2077              	.L158:
  80:.\RFPoll.c    ****                             RF_Connection_PutChar(buffer_tx[x]);
 2078              		.loc 1 80 0 is_stmt 0 discriminator 1
 2079 015c 082C     		cmp	r4, #8
 2080 015e F7D9     		bls	.L159
  79:.\RFPoll.c    ****                         for (x = 0; x < y; x++){
 2081              		.loc 1 79 0 is_stmt 1
 2082 0160 0924     		movs	r4, #9
 2083              	.LVL263:
 2084 0162 04E0     		b	.L156
 2085              	.LVL264:
 2086              	.L157:
  84:.\RFPoll.c    ****                     } 
 2087              		.loc 1 84 0
 2088 0164 FFF7FEFF 		bl	pollingRFA_Tx
 2089              	.LVL265:
  70:.\RFPoll.c    ****         if(((buffer_rf[0]==0xBC)&&(buffer_rf[1]==0xBB)&&(buffer_rf[2]==0xB8)&&(buffer_rf[3]==IDCast
 2090              		.loc 1 70 0
 2091 0168 0524     		movs	r4, #5
 2092              	.LVL266:
 2093 016a 00E0     		b	.L156
 2094              	.LVL267:
 2095              	.L228:
 2096 016c 0524     		movs	r4, #5
 2097              	.LVL268:
 2098              	.L156:
  87:.\RFPoll.c    ****                     if(side.b.RFstateReport == 0){
 2099              		.loc 1 87 0
 2100 016e 4D4B     		ldr	r3, .L239+8
 2101 0170 5A79     		ldrb	r2, [r3, #5]	@ zero_extendqisi2
 2102 0172 4F4B     		ldr	r3, .L239+20
 2103 0174 93F81231 		ldrb	r3, [r3, #274]	@ zero_extendqisi2
 2104 0178 9A42     		cmp	r2, r3
 2105 017a 26D1     		bne	.L160
  88:.\RFPoll.c    ****                         buffer_tx[5] = side.b.dir;y++;
 2106              		.loc 1 88 0
 2107 017c 4C4A     		ldr	r2, .L239+20
 2108 017e 92F81922 		ldrb	r2, [r2, #537]	@ zero_extendqisi2
 2109 0182 02BB     		cbnz	r2, .L161
  89:.\RFPoll.c    ****                         buffer_tx[y] = 0xA1;y++;
 2110              		.loc 1 89 0
ARM GAS  C:\Users\RECEPC~1\AppData\Local\Temp\cckY5SBD.s 			page 53


 2111 0184 484D     		ldr	r5, .L239+12
 2112 0186 6B71     		strb	r3, [r5, #5]
 2113 0188 631C     		adds	r3, r4, #1
 2114 018a 9BB2     		uxth	r3, r3
 2115              	.LVL269:
  90:.\RFPoll.c    ****                         buffer_tx[y] = side.b.rfState;y++;
 2116              		.loc 1 90 0
 2117 018c A122     		movs	r2, #161
 2118 018e EA54     		strb	r2, [r5, r3]
 2119 0190 0133     		adds	r3, r3, #1
 2120              	.LVL270:
 2121 0192 9BB2     		uxth	r3, r3
 2122              	.LVL271:
  91:.\RFPoll.c    ****                         buffer_tx[y] = verificar_check(buffer_tx,y+1);y++;
 2123              		.loc 1 91 0
 2124 0194 464A     		ldr	r2, .L239+20
 2125 0196 92F81522 		ldrb	r2, [r2, #533]	@ zero_extendqisi2
 2126 019a EA54     		strb	r2, [r5, r3]
 2127 019c 5C1C     		adds	r4, r3, #1
 2128 019e A4B2     		uxth	r4, r4
 2129              	.LVL272:
  92:.\RFPoll.c    ****                         for (x = 0; x < y; x++){
 2130              		.loc 1 92 0
 2131 01a0 991C     		adds	r1, r3, #2
 2132 01a2 2846     		mov	r0, r5
 2133 01a4 89B2     		uxth	r1, r1
 2134 01a6 FFF7FEFF 		bl	verificar_check
 2135              	.LVL273:
 2136 01aa 2855     		strb	r0, [r5, r4]
 2137 01ac 0134     		adds	r4, r4, #1
 2138              	.LVL274:
 2139 01ae A4B2     		uxth	r4, r4
 2140              	.LVL275:
  93:.\RFPoll.c    ****                             RF_Connection_PutChar(buffer_tx[x]);
 2141              		.loc 1 93 0
 2142 01b0 0025     		movs	r5, #0
 2143 01b2 05E0     		b	.L162
 2144              	.LVL276:
 2145              	.L163:
  94:.\RFPoll.c    ****                         }
 2146              		.loc 1 94 0 discriminator 3
 2147 01b4 3C4B     		ldr	r3, .L239+12
 2148 01b6 585D     		ldrb	r0, [r3, r5]	@ zero_extendqisi2
 2149 01b8 FFF7FEFF 		bl	RF_Connection_PutChar
 2150              	.LVL277:
  93:.\RFPoll.c    ****                             RF_Connection_PutChar(buffer_tx[x]);
 2151              		.loc 1 93 0 discriminator 3
 2152 01bc 0135     		adds	r5, r5, #1
 2153              	.LVL278:
 2154 01be ADB2     		uxth	r5, r5
 2155              	.LVL279:
 2156              	.L162:
  93:.\RFPoll.c    ****                             RF_Connection_PutChar(buffer_tx[x]);
 2157              		.loc 1 93 0 is_stmt 0 discriminator 1
 2158 01c0 A542     		cmp	r5, r4
 2159 01c2 F7D3     		bcc	.L163
 2160 01c4 01E0     		b	.L160
ARM GAS  C:\Users\RECEPC~1\AppData\Local\Temp\cckY5SBD.s 			page 54


 2161              	.LVL280:
 2162              	.L161:
  97:.\RFPoll.c    ****                     } 
 2163              		.loc 1 97 0 is_stmt 1
 2164 01c6 FFF7FEFF 		bl	pollingRFB_Tx
 2165              	.LVL281:
 2166              	.L160:
 100:.\RFPoll.c    ****                     buffer_tx[5] = side.c.dir; y++;
 2167              		.loc 1 100 0
 2168 01ca 364B     		ldr	r3, .L239+8
 2169 01cc 5A79     		ldrb	r2, [r3, #5]	@ zero_extendqisi2
 2170 01ce 384B     		ldr	r3, .L239+20
 2171 01d0 93F82432 		ldrb	r3, [r3, #548]	@ zero_extendqisi2
 2172 01d4 9A42     		cmp	r2, r3
 2173 01d6 1FD1     		bne	.L164
 101:.\RFPoll.c    ****                     buffer_tx[y] = 0xA1; y++;
 2174              		.loc 1 101 0
 2175 01d8 334D     		ldr	r5, .L239+12
 2176 01da 6B71     		strb	r3, [r5, #5]
 2177 01dc 631C     		adds	r3, r4, #1
 2178 01de 9BB2     		uxth	r3, r3
 2179              	.LVL282:
 102:.\RFPoll.c    ****                     buffer_tx[y] = side.c.rfState; y++;
 2180              		.loc 1 102 0
 2181 01e0 A122     		movs	r2, #161
 2182 01e2 EA54     		strb	r2, [r5, r3]
 2183 01e4 0133     		adds	r3, r3, #1
 2184              	.LVL283:
 2185 01e6 9BB2     		uxth	r3, r3
 2186              	.LVL284:
 103:.\RFPoll.c    ****                     buffer_tx[y] = verificar_check(buffer_tx,y+1);y++;
 2187              		.loc 1 103 0
 2188 01e8 314A     		ldr	r2, .L239+20
 2189 01ea 92F82723 		ldrb	r2, [r2, #807]	@ zero_extendqisi2
 2190 01ee EA54     		strb	r2, [r5, r3]
 2191 01f0 5C1C     		adds	r4, r3, #1
 2192 01f2 A4B2     		uxth	r4, r4
 2193              	.LVL285:
 104:.\RFPoll.c    ****                     for (x = 0; x < y; x++){
 2194              		.loc 1 104 0
 2195 01f4 991C     		adds	r1, r3, #2
 2196 01f6 2846     		mov	r0, r5
 2197 01f8 89B2     		uxth	r1, r1
 2198 01fa FFF7FEFF 		bl	verificar_check
 2199              	.LVL286:
 2200 01fe 2855     		strb	r0, [r5, r4]
 2201 0200 0134     		adds	r4, r4, #1
 2202              	.LVL287:
 2203 0202 A4B2     		uxth	r4, r4
 2204              	.LVL288:
 105:.\RFPoll.c    ****                         RF_Connection_PutChar(buffer_tx[x]);
 2205              		.loc 1 105 0
 2206 0204 0025     		movs	r5, #0
 2207 0206 05E0     		b	.L165
 2208              	.LVL289:
 2209              	.L166:
 106:.\RFPoll.c    ****                     }
ARM GAS  C:\Users\RECEPC~1\AppData\Local\Temp\cckY5SBD.s 			page 55


 2210              		.loc 1 106 0 discriminator 3
 2211 0208 274B     		ldr	r3, .L239+12
 2212 020a 585D     		ldrb	r0, [r3, r5]	@ zero_extendqisi2
 2213 020c FFF7FEFF 		bl	RF_Connection_PutChar
 2214              	.LVL290:
 105:.\RFPoll.c    ****                         RF_Connection_PutChar(buffer_tx[x]);
 2215              		.loc 1 105 0 discriminator 3
 2216 0210 0135     		adds	r5, r5, #1
 2217              	.LVL291:
 2218 0212 ADB2     		uxth	r5, r5
 2219              	.LVL292:
 2220              	.L165:
 105:.\RFPoll.c    ****                         RF_Connection_PutChar(buffer_tx[x]);
 2221              		.loc 1 105 0 is_stmt 0 discriminator 1
 2222 0214 A542     		cmp	r5, r4
 2223 0216 F7D3     		bcc	.L166
 2224              	.LVL293:
 2225              	.L164:
 109:.\RFPoll.c    ****                     buffer_tx[5] = side.d.dir; y++;
 2226              		.loc 1 109 0 is_stmt 1
 2227 0218 224B     		ldr	r3, .L239+8
 2228 021a 5A79     		ldrb	r2, [r3, #5]	@ zero_extendqisi2
 2229 021c 244B     		ldr	r3, .L239+20
 2230 021e 93F83633 		ldrb	r3, [r3, #822]	@ zero_extendqisi2
 2231 0222 9A42     		cmp	r2, r3
 2232 0224 40F00083 		bne	.L146
 110:.\RFPoll.c    ****                     buffer_tx[y] = 0xA1; y++;
 2233              		.loc 1 110 0
 2234 0228 1F4D     		ldr	r5, .L239+12
 2235 022a 6B71     		strb	r3, [r5, #5]
 2236 022c 631C     		adds	r3, r4, #1
 2237 022e 9BB2     		uxth	r3, r3
 2238              	.LVL294:
 111:.\RFPoll.c    ****                     buffer_tx[y] = side.d.rfState; y++;
 2239              		.loc 1 111 0
 2240 0230 A122     		movs	r2, #161
 2241 0232 EA54     		strb	r2, [r5, r3]
 2242 0234 0133     		adds	r3, r3, #1
 2243              	.LVL295:
 2244 0236 9BB2     		uxth	r3, r3
 2245              	.LVL296:
 112:.\RFPoll.c    ****                     buffer_tx[y] = verificar_check(buffer_tx,y+1);y++;
 2246              		.loc 1 112 0
 2247 0238 1D4A     		ldr	r2, .L239+20
 2248 023a 92F83924 		ldrb	r2, [r2, #1081]	@ zero_extendqisi2
 2249 023e EA54     		strb	r2, [r5, r3]
 2250 0240 5C1C     		adds	r4, r3, #1
 2251 0242 A4B2     		uxth	r4, r4
 2252              	.LVL297:
 113:.\RFPoll.c    ****                     for (x = 0; x < y; x++){
 2253              		.loc 1 113 0
 2254 0244 991C     		adds	r1, r3, #2
 2255 0246 2846     		mov	r0, r5
 2256 0248 89B2     		uxth	r1, r1
 2257 024a FFF7FEFF 		bl	verificar_check
 2258              	.LVL298:
 2259 024e 2855     		strb	r0, [r5, r4]
ARM GAS  C:\Users\RECEPC~1\AppData\Local\Temp\cckY5SBD.s 			page 56


 2260 0250 0134     		adds	r4, r4, #1
 2261              	.LVL299:
 2262 0252 A4B2     		uxth	r4, r4
 2263              	.LVL300:
 114:.\RFPoll.c    ****                         RF_Connection_PutChar(buffer_tx[x]);
 2264              		.loc 1 114 0
 2265 0254 0025     		movs	r5, #0
 2266 0256 05E0     		b	.L167
 2267              	.LVL301:
 2268              	.L168:
 115:.\RFPoll.c    ****                     }
 2269              		.loc 1 115 0 discriminator 3
 2270 0258 134B     		ldr	r3, .L239+12
 2271 025a 585D     		ldrb	r0, [r3, r5]	@ zero_extendqisi2
 2272 025c FFF7FEFF 		bl	RF_Connection_PutChar
 2273              	.LVL302:
 114:.\RFPoll.c    ****                         RF_Connection_PutChar(buffer_tx[x]);
 2274              		.loc 1 114 0 discriminator 3
 2275 0260 0135     		adds	r5, r5, #1
 2276              	.LVL303:
 2277 0262 ADB2     		uxth	r5, r5
 2278              	.LVL304:
 2279              	.L167:
 114:.\RFPoll.c    ****                         RF_Connection_PutChar(buffer_tx[x]);
 2280              		.loc 1 114 0 is_stmt 0 discriminator 1
 2281 0264 A542     		cmp	r5, r4
 2282 0266 F7D3     		bcc	.L168
 2283 0268 DEE2     		b	.L146
 2284              	.LVL305:
 2285              	.L149:
 122:.\RFPoll.c    ****                     pollTotals = 1;
 2286              		.loc 1 122 0 is_stmt 1
 2287 026a 0E4B     		ldr	r3, .L239+8
 2288 026c 5A79     		ldrb	r2, [r3, #5]	@ zero_extendqisi2
 2289 026e 104B     		ldr	r3, .L239+20
 2290 0270 1B78     		ldrb	r3, [r3]	@ zero_extendqisi2
 2291 0272 9A42     		cmp	r2, r3
 2292 0274 2AD1     		bne	.L229
 123:.\RFPoll.c    ****                     buffer_tx[5] = side.a.dir;y++;
 2293              		.loc 1 123 0
 2294 0276 0121     		movs	r1, #1
 2295 0278 0E4A     		ldr	r2, .L239+24
 2296 027a 1170     		strb	r1, [r2]
 124:.\RFPoll.c    ****                     buffer_tx[y] = 0xA1;y++;
 2297              		.loc 1 124 0
 2298 027c 0A4C     		ldr	r4, .L239+12
 2299              	.LVL306:
 2300 027e 6371     		strb	r3, [r4, #5]
 2301              	.LVL307:
 125:.\RFPoll.c    ****                     buffer_tx[y] = side.a.rfState; y++;
 2302              		.loc 1 125 0
 2303 0280 A123     		movs	r3, #161
 2304 0282 A371     		strb	r3, [r4, #6]
 2305              	.LVL308:
 126:.\RFPoll.c    ****                     buffer_tx[y] = verificar_check(buffer_tx,y+1);y++;
 2306              		.loc 1 126 0
 2307 0284 0A4B     		ldr	r3, .L239+20
ARM GAS  C:\Users\RECEPC~1\AppData\Local\Temp\cckY5SBD.s 			page 57


 2308 0286 93F80331 		ldrb	r3, [r3, #259]	@ zero_extendqisi2
 2309 028a E371     		strb	r3, [r4, #7]
 2310              	.LVL309:
 127:.\RFPoll.c    ****                     for (x = 0; x < y; x++){
 2311              		.loc 1 127 0
 2312 028c 2046     		mov	r0, r4
 2313 028e 0921     		movs	r1, #9
 2314 0290 FFF7FEFF 		bl	verificar_check
 2315              	.LVL310:
 2316 0294 2072     		strb	r0, [r4, #8]
 2317              	.LVL311:
 128:.\RFPoll.c    ****                         RF_Connection_PutChar(buffer_tx[x]);
 2318              		.loc 1 128 0
 2319 0296 0024     		movs	r4, #0
 2320 0298 14E0     		b	.L170
 2321              	.L240:
 2322 029a 00BF     		.align	2
 2323              	.L239:
 2324 029c 00000000 		.word	ActiveRF
 2325 02a0 00000000 		.word	counterRF
 2326 02a4 00000000 		.word	buffer_rf
 2327 02a8 00000000 		.word	buffer_tx
 2328 02ac 00000000 		.word	IDCast
 2329 02b0 00000000 		.word	side
 2330 02b4 00000000 		.word	pollTotals
 2331              	.LVL312:
 2332              	.L171:
 129:.\RFPoll.c    ****                     }                    
 2333              		.loc 1 129 0 discriminator 3
 2334 02b8 AB4B     		ldr	r3, .L241
 2335 02ba 185D     		ldrb	r0, [r3, r4]	@ zero_extendqisi2
 2336 02bc FFF7FEFF 		bl	RF_Connection_PutChar
 2337              	.LVL313:
 128:.\RFPoll.c    ****                         RF_Connection_PutChar(buffer_tx[x]);
 2338              		.loc 1 128 0 discriminator 3
 2339 02c0 0134     		adds	r4, r4, #1
 2340              	.LVL314:
 2341 02c2 A4B2     		uxth	r4, r4
 2342              	.LVL315:
 2343              	.L170:
 128:.\RFPoll.c    ****                         RF_Connection_PutChar(buffer_tx[x]);
 2344              		.loc 1 128 0 is_stmt 0 discriminator 1
 2345 02c4 082C     		cmp	r4, #8
 2346 02c6 F7D9     		bls	.L171
 127:.\RFPoll.c    ****                     for (x = 0; x < y; x++){
 2347              		.loc 1 127 0 is_stmt 1
 2348 02c8 0923     		movs	r3, #9
 2349 02ca 00E0     		b	.L169
 2350              	.LVL316:
 2351              	.L229:
  70:.\RFPoll.c    ****         if(((buffer_rf[0]==0xBC)&&(buffer_rf[1]==0xBB)&&(buffer_rf[2]==0xB8)&&(buffer_rf[3]==IDCast
 2352              		.loc 1 70 0
 2353 02cc 0523     		movs	r3, #5
 2354              	.LVL317:
 2355              	.L169:
 132:.\RFPoll.c    ****                     pollTotals = 2;
 2356              		.loc 1 132 0
ARM GAS  C:\Users\RECEPC~1\AppData\Local\Temp\cckY5SBD.s 			page 58


 2357 02ce A74A     		ldr	r2, .L241+4
 2358 02d0 5179     		ldrb	r1, [r2, #5]	@ zero_extendqisi2
 2359 02d2 A74A     		ldr	r2, .L241+8
 2360 02d4 92F81221 		ldrb	r2, [r2, #274]	@ zero_extendqisi2
 2361 02d8 9142     		cmp	r1, r2
 2362 02da 40F0A582 		bne	.L146
 133:.\RFPoll.c    ****                     buffer_tx[5] = side.b.dir;y++;
 2363              		.loc 1 133 0
 2364 02de 0220     		movs	r0, #2
 2365 02e0 A449     		ldr	r1, .L241+12
 2366 02e2 0870     		strb	r0, [r1]
 134:.\RFPoll.c    ****                     buffer_tx[y] = 0xA1;y++;
 2367              		.loc 1 134 0
 2368 02e4 A04D     		ldr	r5, .L241
 2369 02e6 6A71     		strb	r2, [r5, #5]
 2370 02e8 0133     		adds	r3, r3, #1
 2371              	.LVL318:
 135:.\RFPoll.c    ****                     buffer_tx[y] = side.b.rfState; y++;
 2372              		.loc 1 135 0
 2373 02ea A122     		movs	r2, #161
 2374 02ec EA54     		strb	r2, [r5, r3]
 2375 02ee 0133     		adds	r3, r3, #1
 2376              	.LVL319:
 2377 02f0 9BB2     		uxth	r3, r3
 2378              	.LVL320:
 136:.\RFPoll.c    ****                     buffer_tx[y] = verificar_check(buffer_tx,y+1);y++;
 2379              		.loc 1 136 0
 2380 02f2 9F4A     		ldr	r2, .L241+8
 2381 02f4 92F81522 		ldrb	r2, [r2, #533]	@ zero_extendqisi2
 2382 02f8 EA54     		strb	r2, [r5, r3]
 2383 02fa 5C1C     		adds	r4, r3, #1
 2384 02fc A4B2     		uxth	r4, r4
 2385              	.LVL321:
 137:.\RFPoll.c    ****                     for (x = 0; x < y; x++){
 2386              		.loc 1 137 0
 2387 02fe 1918     		adds	r1, r3, r0
 2388 0300 2846     		mov	r0, r5
 2389 0302 89B2     		uxth	r1, r1
 2390 0304 FFF7FEFF 		bl	verificar_check
 2391              	.LVL322:
 2392 0308 2855     		strb	r0, [r5, r4]
 2393 030a 0134     		adds	r4, r4, #1
 2394              	.LVL323:
 2395 030c A4B2     		uxth	r4, r4
 2396              	.LVL324:
 138:.\RFPoll.c    ****                         RF_Connection_PutChar(buffer_tx[x]);
 2397              		.loc 1 138 0
 2398 030e 0025     		movs	r5, #0
 2399 0310 05E0     		b	.L172
 2400              	.LVL325:
 2401              	.L173:
 139:.\RFPoll.c    ****                     }                    
 2402              		.loc 1 139 0 discriminator 3
 2403 0312 954B     		ldr	r3, .L241
 2404 0314 585D     		ldrb	r0, [r3, r5]	@ zero_extendqisi2
 2405 0316 FFF7FEFF 		bl	RF_Connection_PutChar
 2406              	.LVL326:
ARM GAS  C:\Users\RECEPC~1\AppData\Local\Temp\cckY5SBD.s 			page 59


 138:.\RFPoll.c    ****                         RF_Connection_PutChar(buffer_tx[x]);
 2407              		.loc 1 138 0 discriminator 3
 2408 031a 0135     		adds	r5, r5, #1
 2409              	.LVL327:
 2410 031c ADB2     		uxth	r5, r5
 2411              	.LVL328:
 2412              	.L172:
 138:.\RFPoll.c    ****                         RF_Connection_PutChar(buffer_tx[x]);
 2413              		.loc 1 138 0 is_stmt 0 discriminator 1
 2414 031e A542     		cmp	r5, r4
 2415 0320 F7D3     		bcc	.L173
 2416 0322 81E2     		b	.L146
 2417              	.LVL329:
 2418              	.L150:
 146:.\RFPoll.c    ****                     for(x=9;x < 14 ; x++ ){
 2419              		.loc 1 146 0 is_stmt 1
 2420 0324 914B     		ldr	r3, .L241+4
 2421 0326 5A79     		ldrb	r2, [r3, #5]	@ zero_extendqisi2
 2422 0328 914B     		ldr	r3, .L241+8
 2423 032a 1878     		ldrb	r0, [r3]	@ zero_extendqisi2
 2424 032c 8242     		cmp	r2, r0
 2425 032e 0DD0     		beq	.L230
  70:.\RFPoll.c    ****         if(((buffer_rf[0]==0xBC)&&(buffer_rf[1]==0xBB)&&(buffer_rf[2]==0xB8)&&(buffer_rf[3]==IDCast
 2426              		.loc 1 70 0
 2427 0330 0524     		movs	r4, #5
 2428              	.LVL330:
 2429 0332 1DE0     		b	.L175
 2430              	.LVL331:
 2431              	.L176:
 148:.\RFPoll.c    ****                     }
 2432              		.loc 1 148 0 discriminator 3
 2433 0334 8D4C     		ldr	r4, .L241+4
 2434 0336 257A     		ldrb	r5, [r4, #8]	@ zero_extendqisi2
 2435 0338 E45C     		ldrb	r4, [r4, r3]	@ zero_extendqisi2
 2436 033a 8D49     		ldr	r1, .L241+8
 2437 033c 01EBC501 		add	r1, r1, r5, lsl #3
 2438 0340 1944     		add	r1, r1, r3
 2439 0342 81F8AC40 		strb	r4, [r1, #172]
 147:.\RFPoll.c    ****                         side.a.ppuAuthorized[buffer_rf[8]][x-9] = buffer_rf[x];
 2440              		.loc 1 147 0 discriminator 3
 2441 0346 0133     		adds	r3, r3, #1
 2442              	.LVL332:
 2443 0348 9BB2     		uxth	r3, r3
 2444              	.LVL333:
 2445 034a 00E0     		b	.L174
 2446              	.LVL334:
 2447              	.L230:
 2448 034c 0923     		movs	r3, #9
 2449              	.LVL335:
 2450              	.L174:
 147:.\RFPoll.c    ****                         side.a.ppuAuthorized[buffer_rf[8]][x-9] = buffer_rf[x];
 2451              		.loc 1 147 0 is_stmt 0 discriminator 1
 2452 034e 0D2B     		cmp	r3, #13
 2453 0350 F0D9     		bls	.L176
 150:.\RFPoll.c    ****                     side.a.grade = buffer_rf[8];
 2454              		.loc 1 150 0 is_stmt 1
 2455 0352 874B     		ldr	r3, .L241+8
ARM GAS  C:\Users\RECEPC~1\AppData\Local\Temp\cckY5SBD.s 			page 60


 2456              	.LVL336:
 2457 0354 0121     		movs	r1, #1
 2458 0356 83F80511 		strb	r1, [r3, #261]
 151:.\RFPoll.c    ****                     buffer_tx[5] = side.a.dir;y++;
 2459              		.loc 1 151 0
 2460 035a 8449     		ldr	r1, .L241+4
 2461 035c 097A     		ldrb	r1, [r1, #8]	@ zero_extendqisi2
 2462 035e 83F80611 		strb	r1, [r3, #262]
 152:.\RFPoll.c    ****                     buffer_tx[y] = 0xA6;y++;
 2463              		.loc 1 152 0
 2464 0362 814B     		ldr	r3, .L241
 2465 0364 5871     		strb	r0, [r3, #5]
 2466              	.LVL337:
 153:.\RFPoll.c    ****                     buffer_tx[y] = 0x03;y++;
 2467              		.loc 1 153 0
 2468 0366 A621     		movs	r1, #166
 2469 0368 9971     		strb	r1, [r3, #6]
 2470              	.LVL338:
 154:.\RFPoll.c    ****                 } 
 2471              		.loc 1 154 0
 2472 036a 0321     		movs	r1, #3
 2473 036c D971     		strb	r1, [r3, #7]
 2474              	.LVL339:
 2475 036e 0824     		movs	r4, #8
 2476              	.LVL340:
 2477              	.L175:
 156:.\RFPoll.c    ****                     for(x=9;x < 14 ; x++ ){
 2478              		.loc 1 156 0
 2479 0370 7F4B     		ldr	r3, .L241+8
 2480 0372 93F81201 		ldrb	r0, [r3, #274]	@ zero_extendqisi2
 2481 0376 8242     		cmp	r2, r0
 2482 0378 23D1     		bne	.L178
 2483 037a 0BE0     		b	.L231
 2484              	.LVL341:
 2485              	.L179:
 158:.\RFPoll.c    ****                     }
 2486              		.loc 1 158 0 discriminator 3
 2487 037c 7B4D     		ldr	r5, .L241+4
 2488 037e 2E7A     		ldrb	r6, [r5, #8]	@ zero_extendqisi2
 2489 0380 ED5C     		ldrb	r5, [r5, r3]	@ zero_extendqisi2
 2490 0382 7B49     		ldr	r1, .L241+8
 2491 0384 01EBC601 		add	r1, r1, r6, lsl #3
 2492 0388 1944     		add	r1, r1, r3
 2493 038a 81F8BE51 		strb	r5, [r1, #446]
 157:.\RFPoll.c    ****                         side.b.ppuAuthorized[buffer_rf[8]][x-9] = buffer_rf[x];
 2494              		.loc 1 157 0 discriminator 3
 2495 038e 0133     		adds	r3, r3, #1
 2496              	.LVL342:
 2497 0390 9BB2     		uxth	r3, r3
 2498              	.LVL343:
 2499 0392 00E0     		b	.L177
 2500              	.LVL344:
 2501              	.L231:
 2502 0394 0923     		movs	r3, #9
 2503              	.L177:
 2504              	.LVL345:
 157:.\RFPoll.c    ****                         side.b.ppuAuthorized[buffer_rf[8]][x-9] = buffer_rf[x];
ARM GAS  C:\Users\RECEPC~1\AppData\Local\Temp\cckY5SBD.s 			page 61


 2505              		.loc 1 157 0 is_stmt 0 discriminator 1
 2506 0396 0D2B     		cmp	r3, #13
 2507 0398 F0D9     		bls	.L179
 160:.\RFPoll.c    ****                     side.b.grade = buffer_rf[8];
 2508              		.loc 1 160 0 is_stmt 1
 2509 039a 754B     		ldr	r3, .L241+8
 2510              	.LVL346:
 2511 039c 0121     		movs	r1, #1
 2512 039e 83F81712 		strb	r1, [r3, #535]
 161:.\RFPoll.c    ****                     buffer_tx[5] = side.b.dir; y++;
 2513              		.loc 1 161 0
 2514 03a2 7249     		ldr	r1, .L241+4
 2515 03a4 097A     		ldrb	r1, [r1, #8]	@ zero_extendqisi2
 2516 03a6 83F81812 		strb	r1, [r3, #536]
 162:.\RFPoll.c    ****                     buffer_tx[y] = 0xA6;y++;
 2517              		.loc 1 162 0
 2518 03aa 6F49     		ldr	r1, .L241
 2519 03ac 4871     		strb	r0, [r1, #5]
 2520 03ae 631C     		adds	r3, r4, #1
 2521 03b0 9BB2     		uxth	r3, r3
 2522              	.LVL347:
 163:.\RFPoll.c    ****                     buffer_tx[y] = 0x03;y++;
 2523              		.loc 1 163 0
 2524 03b2 A620     		movs	r0, #166
 2525 03b4 C854     		strb	r0, [r1, r3]
 2526 03b6 0133     		adds	r3, r3, #1
 2527              	.LVL348:
 2528 03b8 9BB2     		uxth	r3, r3
 2529              	.LVL349:
 164:.\RFPoll.c    ****                 } 
 2530              		.loc 1 164 0
 2531 03ba 0320     		movs	r0, #3
 2532 03bc C854     		strb	r0, [r1, r3]
 2533 03be 0133     		adds	r3, r3, #1
 2534              	.LVL350:
 2535 03c0 9CB2     		uxth	r4, r3
 2536              	.LVL351:
 2537              	.L178:
 166:.\RFPoll.c    ****                     for(x=9;x < 14 ; x++ ){
 2538              		.loc 1 166 0
 2539 03c2 6B4B     		ldr	r3, .L241+8
 2540 03c4 93F82402 		ldrb	r0, [r3, #548]	@ zero_extendqisi2
 2541 03c8 8242     		cmp	r2, r0
 2542 03ca 23D1     		bne	.L181
 2543 03cc 0BE0     		b	.L232
 2544              	.LVL352:
 2545              	.L182:
 168:.\RFPoll.c    ****                     }
 2546              		.loc 1 168 0 discriminator 3
 2547 03ce 674D     		ldr	r5, .L241+4
 2548 03d0 2E7A     		ldrb	r6, [r5, #8]	@ zero_extendqisi2
 2549 03d2 ED5C     		ldrb	r5, [r5, r3]	@ zero_extendqisi2
 2550 03d4 6649     		ldr	r1, .L241+8
 2551 03d6 01EBC601 		add	r1, r1, r6, lsl #3
 2552 03da 1944     		add	r1, r1, r3
 2553 03dc 81F8D052 		strb	r5, [r1, #720]
 167:.\RFPoll.c    ****                         side.c.ppuAuthorized[buffer_rf[8]][x-9] = buffer_rf[x];
ARM GAS  C:\Users\RECEPC~1\AppData\Local\Temp\cckY5SBD.s 			page 62


 2554              		.loc 1 167 0 discriminator 3
 2555 03e0 0133     		adds	r3, r3, #1
 2556              	.LVL353:
 2557 03e2 9BB2     		uxth	r3, r3
 2558              	.LVL354:
 2559 03e4 00E0     		b	.L180
 2560              	.LVL355:
 2561              	.L232:
 2562 03e6 0923     		movs	r3, #9
 2563              	.L180:
 2564              	.LVL356:
 167:.\RFPoll.c    ****                         side.c.ppuAuthorized[buffer_rf[8]][x-9] = buffer_rf[x];
 2565              		.loc 1 167 0 is_stmt 0 discriminator 1
 2566 03e8 0D2B     		cmp	r3, #13
 2567 03ea F0D9     		bls	.L182
 170:.\RFPoll.c    ****                     side.c.grade = buffer_rf[8];
 2568              		.loc 1 170 0 is_stmt 1
 2569 03ec 604B     		ldr	r3, .L241+8
 2570              	.LVL357:
 2571 03ee 0121     		movs	r1, #1
 2572 03f0 83F82913 		strb	r1, [r3, #809]
 171:.\RFPoll.c    ****                     buffer_tx[5] = side.c.dir; y++;
 2573              		.loc 1 171 0
 2574 03f4 5D49     		ldr	r1, .L241+4
 2575 03f6 097A     		ldrb	r1, [r1, #8]	@ zero_extendqisi2
 2576 03f8 83F82A13 		strb	r1, [r3, #810]
 172:.\RFPoll.c    ****                     buffer_tx[y] = 0xA6;y++;
 2577              		.loc 1 172 0
 2578 03fc 5A49     		ldr	r1, .L241
 2579 03fe 4871     		strb	r0, [r1, #5]
 2580 0400 631C     		adds	r3, r4, #1
 2581 0402 9BB2     		uxth	r3, r3
 2582              	.LVL358:
 173:.\RFPoll.c    ****                     buffer_tx[y] = 0x03;y++;
 2583              		.loc 1 173 0
 2584 0404 A620     		movs	r0, #166
 2585 0406 C854     		strb	r0, [r1, r3]
 2586 0408 0133     		adds	r3, r3, #1
 2587              	.LVL359:
 2588 040a 9BB2     		uxth	r3, r3
 2589              	.LVL360:
 174:.\RFPoll.c    ****                 } 
 2590              		.loc 1 174 0
 2591 040c 0320     		movs	r0, #3
 2592 040e C854     		strb	r0, [r1, r3]
 2593 0410 0133     		adds	r3, r3, #1
 2594              	.LVL361:
 2595 0412 9CB2     		uxth	r4, r3
 2596              	.LVL362:
 2597              	.L181:
 176:.\RFPoll.c    ****                     for(x=9;x < 14 ; x++ ){
 2598              		.loc 1 176 0
 2599 0414 564B     		ldr	r3, .L241+8
 2600 0416 93F83613 		ldrb	r1, [r3, #822]	@ zero_extendqisi2
 2601 041a 8A42     		cmp	r2, r1
 2602 041c 23D1     		bne	.L184
 2603 041e 0BE0     		b	.L233
ARM GAS  C:\Users\RECEPC~1\AppData\Local\Temp\cckY5SBD.s 			page 63


 2604              	.LVL363:
 2605              	.L185:
 178:.\RFPoll.c    ****                     }
 2606              		.loc 1 178 0 discriminator 3
 2607 0420 5248     		ldr	r0, .L241+4
 2608 0422 057A     		ldrb	r5, [r0, #8]	@ zero_extendqisi2
 2609 0424 C05C     		ldrb	r0, [r0, r3]	@ zero_extendqisi2
 2610 0426 524A     		ldr	r2, .L241+8
 2611 0428 02EBC502 		add	r2, r2, r5, lsl #3
 2612 042c 1A44     		add	r2, r2, r3
 2613 042e 82F8E203 		strb	r0, [r2, #994]
 177:.\RFPoll.c    ****                         side.d.ppuAuthorized[buffer_rf[8]][x-9] = buffer_rf[x];
 2614              		.loc 1 177 0 discriminator 3
 2615 0432 0133     		adds	r3, r3, #1
 2616              	.LVL364:
 2617 0434 9BB2     		uxth	r3, r3
 2618              	.LVL365:
 2619 0436 00E0     		b	.L183
 2620              	.LVL366:
 2621              	.L233:
 2622 0438 0923     		movs	r3, #9
 2623              	.L183:
 2624              	.LVL367:
 177:.\RFPoll.c    ****                         side.d.ppuAuthorized[buffer_rf[8]][x-9] = buffer_rf[x];
 2625              		.loc 1 177 0 is_stmt 0 discriminator 1
 2626 043a 0D2B     		cmp	r3, #13
 2627 043c F0D9     		bls	.L185
 180:.\RFPoll.c    ****                     side.d.grade = buffer_rf[8];
 2628              		.loc 1 180 0 is_stmt 1
 2629 043e 4C4B     		ldr	r3, .L241+8
 2630              	.LVL368:
 2631 0440 0122     		movs	r2, #1
 2632 0442 83F83B24 		strb	r2, [r3, #1083]
 181:.\RFPoll.c    ****                     buffer_tx[5] = side.d.dir; y++;
 2633              		.loc 1 181 0
 2634 0446 494A     		ldr	r2, .L241+4
 2635 0448 127A     		ldrb	r2, [r2, #8]	@ zero_extendqisi2
 2636 044a 83F83C24 		strb	r2, [r3, #1084]
 182:.\RFPoll.c    ****                     buffer_tx[y] = 0xA6;y++;
 2637              		.loc 1 182 0
 2638 044e 464A     		ldr	r2, .L241
 2639 0450 5171     		strb	r1, [r2, #5]
 2640 0452 631C     		adds	r3, r4, #1
 2641 0454 9BB2     		uxth	r3, r3
 2642              	.LVL369:
 183:.\RFPoll.c    ****                     buffer_tx[y] = 0x03;y++;
 2643              		.loc 1 183 0
 2644 0456 A621     		movs	r1, #166
 2645 0458 D154     		strb	r1, [r2, r3]
 2646 045a 0133     		adds	r3, r3, #1
 2647              	.LVL370:
 2648 045c 9BB2     		uxth	r3, r3
 2649              	.LVL371:
 184:.\RFPoll.c    ****                 }
 2650              		.loc 1 184 0
 2651 045e 0321     		movs	r1, #3
 2652 0460 D154     		strb	r1, [r2, r3]
ARM GAS  C:\Users\RECEPC~1\AppData\Local\Temp\cckY5SBD.s 			page 64


 2653 0462 0133     		adds	r3, r3, #1
 2654              	.LVL372:
 2655 0464 9CB2     		uxth	r4, r3
 2656              	.LVL373:
 2657              	.L184:
 186:.\RFPoll.c    ****                 for (x = 0; x < y; x++){
 2658              		.loc 1 186 0
 2659 0466 651C     		adds	r5, r4, #1
 2660 0468 ADB2     		uxth	r5, r5
 2661 046a 3F4E     		ldr	r6, .L241
 2662 046c 3046     		mov	r0, r6
 2663 046e 2946     		mov	r1, r5
 2664 0470 FFF7FEFF 		bl	verificar_check
 2665              	.LVL374:
 2666 0474 3055     		strb	r0, [r6, r4]
 2667              	.LVL375:
 187:.\RFPoll.c    ****                     RF_Connection_PutChar(buffer_tx[x]);
 2668              		.loc 1 187 0
 2669 0476 0024     		movs	r4, #0
 2670 0478 05E0     		b	.L186
 2671              	.LVL376:
 2672              	.L187:
 188:.\RFPoll.c    ****                 }
 2673              		.loc 1 188 0 discriminator 3
 2674 047a 3B4B     		ldr	r3, .L241
 2675 047c 185D     		ldrb	r0, [r3, r4]	@ zero_extendqisi2
 2676 047e FFF7FEFF 		bl	RF_Connection_PutChar
 2677              	.LVL377:
 187:.\RFPoll.c    ****                     RF_Connection_PutChar(buffer_tx[x]);
 2678              		.loc 1 187 0 discriminator 3
 2679 0482 0134     		adds	r4, r4, #1
 2680              	.LVL378:
 2681 0484 A4B2     		uxth	r4, r4
 2682              	.LVL379:
 2683              	.L186:
 187:.\RFPoll.c    ****                     RF_Connection_PutChar(buffer_tx[x]);
 2684              		.loc 1 187 0 is_stmt 0 discriminator 1
 2685 0486 AC42     		cmp	r4, r5
 2686 0488 F7D3     		bcc	.L187
 2687 048a CDE1     		b	.L146
 2688              	.LVL380:
 2689              	.L188:
 195:.\RFPoll.c    ****                 }
 2690              		.loc 1 195 0 is_stmt 1 discriminator 3
 2691 048c 3A4B     		ldr	r3, .L241+16
 2692 048e 1878     		ldrb	r0, [r3]	@ zero_extendqisi2
 2693 0490 364B     		ldr	r3, .L241+4
 2694 0492 195D     		ldrb	r1, [r3, r4]	@ zero_extendqisi2
 2695 0494 FFF7FEFF 		bl	write_psoc1
 2696              	.LVL381:
 193:.\RFPoll.c    ****                     //buffer_print[x-9] = buffer_rf[x];
 2697              		.loc 1 193 0 discriminator 3
 2698 0498 0134     		adds	r4, r4, #1
 2699              	.LVL382:
 2700 049a A4B2     		uxth	r4, r4
 2701              	.LVL383:
 2702 049c 00E0     		b	.L151
ARM GAS  C:\Users\RECEPC~1\AppData\Local\Temp\cckY5SBD.s 			page 65


 2703              	.LVL384:
 2704              	.L227:
  72:.\RFPoll.c    ****                case 0xA1:               //Peticion de estado
 2705              		.loc 1 72 0
 2706 049e 0924     		movs	r4, #9
 2707              	.LVL385:
 2708              	.L151:
 193:.\RFPoll.c    ****                     //buffer_print[x-9] = buffer_rf[x];
 2709              		.loc 1 193 0 discriminator 1
 2710 04a0 324B     		ldr	r3, .L241+4
 2711 04a2 1B7A     		ldrb	r3, [r3, #8]	@ zero_extendqisi2
 2712 04a4 A342     		cmp	r3, r4
 2713 04a6 F1D2     		bcs	.L188
 197:.\RFPoll.c    ****                     buffer_tx[5] = side.a.dir;
 2714              		.loc 1 197 0
 2715 04a8 304B     		ldr	r3, .L241+4
 2716 04aa 5B79     		ldrb	r3, [r3, #5]	@ zero_extendqisi2
 2717 04ac 304A     		ldr	r2, .L241+8
 2718 04ae 1178     		ldrb	r1, [r2]	@ zero_extendqisi2
 2719 04b0 8B42     		cmp	r3, r1
 2720 04b2 09D1     		bne	.L189
 198:.\RFPoll.c    ****                     buffer_tx[6] = 0xA7;
 2721              		.loc 1 198 0
 2722 04b4 2C4A     		ldr	r2, .L241
 2723 04b6 5171     		strb	r1, [r2, #5]
 199:.\RFPoll.c    ****                     buffer_tx[7] = side.a.rfState;
 2724              		.loc 1 199 0
 2725 04b8 A721     		movs	r1, #167
 2726 04ba 9171     		strb	r1, [r2, #6]
 200:.\RFPoll.c    ****                     buffer_tx[8] = 0x03;
 2727              		.loc 1 200 0
 2728 04bc 2C49     		ldr	r1, .L241+8
 2729 04be 91F80311 		ldrb	r1, [r1, #259]	@ zero_extendqisi2
 2730 04c2 D171     		strb	r1, [r2, #7]
 201:.\RFPoll.c    ****                 }  
 2731              		.loc 1 201 0
 2732 04c4 0321     		movs	r1, #3
 2733 04c6 1172     		strb	r1, [r2, #8]
 2734              	.L189:
 203:.\RFPoll.c    ****                     buffer_tx[5] = side.b.dir;
 2735              		.loc 1 203 0
 2736 04c8 294A     		ldr	r2, .L241+8
 2737 04ca 92F81211 		ldrb	r1, [r2, #274]	@ zero_extendqisi2
 2738 04ce 8B42     		cmp	r3, r1
 2739 04d0 09D1     		bne	.L190
 204:.\RFPoll.c    ****                     buffer_tx[6] = 0xA7;
 2740              		.loc 1 204 0
 2741 04d2 254A     		ldr	r2, .L241
 2742 04d4 5171     		strb	r1, [r2, #5]
 205:.\RFPoll.c    ****                     buffer_tx[7] = side.b.rfState;
 2743              		.loc 1 205 0
 2744 04d6 A721     		movs	r1, #167
 2745 04d8 9171     		strb	r1, [r2, #6]
 206:.\RFPoll.c    ****                     buffer_tx[8] = 0x03;
 2746              		.loc 1 206 0
 2747 04da 2549     		ldr	r1, .L241+8
 2748 04dc 91F81512 		ldrb	r1, [r1, #533]	@ zero_extendqisi2
ARM GAS  C:\Users\RECEPC~1\AppData\Local\Temp\cckY5SBD.s 			page 66


 2749 04e0 D171     		strb	r1, [r2, #7]
 207:.\RFPoll.c    ****                 }
 2750              		.loc 1 207 0
 2751 04e2 0321     		movs	r1, #3
 2752 04e4 1172     		strb	r1, [r2, #8]
 2753              	.L190:
 209:.\RFPoll.c    ****                     buffer_tx[5] = side.c.dir;
 2754              		.loc 1 209 0
 2755 04e6 224A     		ldr	r2, .L241+8
 2756 04e8 92F82412 		ldrb	r1, [r2, #548]	@ zero_extendqisi2
 2757 04ec 8B42     		cmp	r3, r1
 2758 04ee 09D1     		bne	.L191
 210:.\RFPoll.c    ****                     buffer_tx[6] = 0xA7;
 2759              		.loc 1 210 0
 2760 04f0 1D4A     		ldr	r2, .L241
 2761 04f2 5171     		strb	r1, [r2, #5]
 211:.\RFPoll.c    ****                     buffer_tx[7] = side.c.rfState;
 2762              		.loc 1 211 0
 2763 04f4 A721     		movs	r1, #167
 2764 04f6 9171     		strb	r1, [r2, #6]
 212:.\RFPoll.c    ****                     buffer_tx[8] = 0x03;
 2765              		.loc 1 212 0
 2766 04f8 1D49     		ldr	r1, .L241+8
 2767 04fa 91F82713 		ldrb	r1, [r1, #807]	@ zero_extendqisi2
 2768 04fe D171     		strb	r1, [r2, #7]
 213:.\RFPoll.c    ****                 }
 2769              		.loc 1 213 0
 2770 0500 0321     		movs	r1, #3
 2771 0502 1172     		strb	r1, [r2, #8]
 2772              	.L191:
 215:.\RFPoll.c    ****                     buffer_tx[5] = side.d.dir;
 2773              		.loc 1 215 0
 2774 0504 1A4A     		ldr	r2, .L241+8
 2775 0506 92F83623 		ldrb	r2, [r2, #822]	@ zero_extendqisi2
 2776 050a 9342     		cmp	r3, r2
 2777 050c 09D1     		bne	.L192
 216:.\RFPoll.c    ****                     buffer_tx[6] = 0xA7;
 2778              		.loc 1 216 0
 2779 050e 164B     		ldr	r3, .L241
 2780 0510 5A71     		strb	r2, [r3, #5]
 217:.\RFPoll.c    ****                     buffer_tx[7] = side.d.rfState;
 2781              		.loc 1 217 0
 2782 0512 A722     		movs	r2, #167
 2783 0514 9A71     		strb	r2, [r3, #6]
 218:.\RFPoll.c    ****                     buffer_tx[8] = 0x03;
 2784              		.loc 1 218 0
 2785 0516 164A     		ldr	r2, .L241+8
 2786 0518 92F83924 		ldrb	r2, [r2, #1081]	@ zero_extendqisi2
 2787 051c DA71     		strb	r2, [r3, #7]
 219:.\RFPoll.c    ****                 }
 2788              		.loc 1 219 0
 2789 051e 0322     		movs	r2, #3
 2790 0520 1A72     		strb	r2, [r3, #8]
 2791              	.L192:
 221:.\RFPoll.c    ****                 for (x = 0; x < 9; x++){
 2792              		.loc 1 221 0
 2793 0522 114C     		ldr	r4, .L241
ARM GAS  C:\Users\RECEPC~1\AppData\Local\Temp\cckY5SBD.s 			page 67


 2794              	.LVL386:
 2795 0524 2046     		mov	r0, r4
 2796 0526 0921     		movs	r1, #9
 2797 0528 FFF7FEFF 		bl	verificar_check
 2798              	.LVL387:
 2799 052c 2072     		strb	r0, [r4, #8]
 2800              	.LVL388:
 222:.\RFPoll.c    ****                     RF_Connection_PutChar(buffer_tx[x]);
 2801              		.loc 1 222 0
 2802 052e 0024     		movs	r4, #0
 2803 0530 05E0     		b	.L193
 2804              	.LVL389:
 2805              	.L194:
 223:.\RFPoll.c    ****                 }
 2806              		.loc 1 223 0 discriminator 3
 2807 0532 0D4B     		ldr	r3, .L241
 2808 0534 185D     		ldrb	r0, [r3, r4]	@ zero_extendqisi2
 2809 0536 FFF7FEFF 		bl	RF_Connection_PutChar
 2810              	.LVL390:
 222:.\RFPoll.c    ****                     RF_Connection_PutChar(buffer_tx[x]);
 2811              		.loc 1 222 0 discriminator 3
 2812 053a 0134     		adds	r4, r4, #1
 2813              	.LVL391:
 2814 053c A4B2     		uxth	r4, r4
 2815              	.LVL392:
 2816              	.L193:
 222:.\RFPoll.c    ****                     RF_Connection_PutChar(buffer_tx[x]);
 2817              		.loc 1 222 0 is_stmt 0 discriminator 1
 2818 053e 082C     		cmp	r4, #8
 2819 0540 F7D9     		bls	.L194
 2820 0542 71E1     		b	.L146
 2821              	.LVL393:
 2822              	.L152:
 230:.\RFPoll.c    ****                     for(x = 0; x < 10; x++){
 2823              		.loc 1 230 0 is_stmt 1
 2824 0544 094B     		ldr	r3, .L241+4
 2825 0546 5B79     		ldrb	r3, [r3, #5]	@ zero_extendqisi2
 2826 0548 094A     		ldr	r2, .L241+8
 2827 054a 1178     		ldrb	r1, [r2]	@ zero_extendqisi2
 2828 054c 8B42     		cmp	r3, r1
 2829 054e 20D1     		bne	.L196
 2830 0550 14E0     		b	.L234
 2831              	.LVL394:
 2832              	.L197:
 232:.\RFPoll.c    ****                     }
 2833              		.loc 1 232 0 discriminator 3
 2834 0552 03F10802 		add	r2, r3, #8
 2835 0556 0548     		ldr	r0, .L241+4
 2836 0558 805C     		ldrb	r0, [r0, r2]	@ zero_extendqisi2
 2837 055a 054A     		ldr	r2, .L241+8
 2838 055c 1A44     		add	r2, r2, r3
 2839 055e 82F80801 		strb	r0, [r2, #264]
 231:.\RFPoll.c    ****                         side.a.saleNumber[x] = buffer_rf[x+8];
 2840              		.loc 1 231 0 discriminator 3
 2841 0562 0133     		adds	r3, r3, #1
 2842              	.LVL395:
 2843 0564 9BB2     		uxth	r3, r3
ARM GAS  C:\Users\RECEPC~1\AppData\Local\Temp\cckY5SBD.s 			page 68


 2844              	.LVL396:
 2845 0566 0AE0     		b	.L195
 2846              	.L242:
 2847              		.align	2
 2848              	.L241:
 2849 0568 00000000 		.word	buffer_tx
 2850 056c 00000000 		.word	buffer_rf
 2851 0570 00000000 		.word	side
 2852 0574 00000000 		.word	pollTotals
 2853 0578 00000000 		.word	printPortA
 2854              	.LVL397:
 2855              	.L234:
 2856 057c 0023     		movs	r3, #0
 2857              	.L195:
 2858              	.LVL398:
 231:.\RFPoll.c    ****                         side.a.saleNumber[x] = buffer_rf[x+8];
 2859              		.loc 1 231 0 is_stmt 0 discriminator 1
 2860 057e 092B     		cmp	r3, #9
 2861 0580 E7D9     		bls	.L197
 234:.\RFPoll.c    ****                         imprimir(printPortA,side.a.dir); 
 2862              		.loc 1 234 0 is_stmt 1
 2863 0582 AB4B     		ldr	r3, .L243
 2864              	.LVL399:
 2865 0584 93F83431 		ldrb	r3, [r3, #308]	@ zero_extendqisi2
 2866 0588 1BB1     		cbz	r3, .L196
 235:.\RFPoll.c    ****                 }
 2867              		.loc 1 235 0
 2868 058a AA4B     		ldr	r3, .L243+4
 2869 058c 1878     		ldrb	r0, [r3]	@ zero_extendqisi2
 2870 058e FFF7FEFF 		bl	imprimir
 2871              	.LVL400:
 2872              	.L196:
 237:.\RFPoll.c    ****                     for(x = 0; x < 10; x++){
 2873              		.loc 1 237 0
 2874 0592 A94B     		ldr	r3, .L243+8
 2875 0594 5B79     		ldrb	r3, [r3, #5]	@ zero_extendqisi2
 2876 0596 A94A     		ldr	r2, .L243+12
 2877 0598 92F81211 		ldrb	r1, [r2, #274]	@ zero_extendqisi2
 2878 059c 8B42     		cmp	r3, r1
 2879 059e 16D1     		bne	.L199
 2880 05a0 0AE0     		b	.L235
 2881              	.LVL401:
 2882              	.L200:
 239:.\RFPoll.c    ****                     }
 2883              		.loc 1 239 0 discriminator 3
 2884 05a2 03F10802 		add	r2, r3, #8
 2885 05a6 A448     		ldr	r0, .L243+8
 2886 05a8 805C     		ldrb	r0, [r0, r2]	@ zero_extendqisi2
 2887 05aa A44A     		ldr	r2, .L243+12
 2888 05ac 1A44     		add	r2, r2, r3
 2889 05ae 82F81A02 		strb	r0, [r2, #538]
 238:.\RFPoll.c    ****                         side.b.saleNumber[x] = buffer_rf[x+8];
 2890              		.loc 1 238 0 discriminator 3
 2891 05b2 0133     		adds	r3, r3, #1
 2892              	.LVL402:
 2893 05b4 9BB2     		uxth	r3, r3
 2894              	.LVL403:
ARM GAS  C:\Users\RECEPC~1\AppData\Local\Temp\cckY5SBD.s 			page 69


 2895 05b6 00E0     		b	.L198
 2896              	.LVL404:
 2897              	.L235:
 2898 05b8 0023     		movs	r3, #0
 2899              	.L198:
 2900              	.LVL405:
 238:.\RFPoll.c    ****                         side.b.saleNumber[x] = buffer_rf[x+8];
 2901              		.loc 1 238 0 is_stmt 0 discriminator 1
 2902 05ba 092B     		cmp	r3, #9
 2903 05bc F1D9     		bls	.L200
 241:.\RFPoll.c    ****                         imprimir(printPortB,side.b.dir); 
 2904              		.loc 1 241 0 is_stmt 1
 2905 05be A04B     		ldr	r3, .L243+16
 2906              	.LVL406:
 2907 05c0 93F83431 		ldrb	r3, [r3, #308]	@ zero_extendqisi2
 2908 05c4 1BB1     		cbz	r3, .L199
 242:.\RFPoll.c    ****                 }
 2909              		.loc 1 242 0
 2910 05c6 9F4B     		ldr	r3, .L243+20
 2911 05c8 1878     		ldrb	r0, [r3]	@ zero_extendqisi2
 2912 05ca FFF7FEFF 		bl	imprimir
 2913              	.LVL407:
 2914              	.L199:
 244:.\RFPoll.c    ****                     for(x = 0; x < 10; x++){
 2915              		.loc 1 244 0
 2916 05ce 9A4B     		ldr	r3, .L243+8
 2917 05d0 5B79     		ldrb	r3, [r3, #5]	@ zero_extendqisi2
 2918 05d2 9A4A     		ldr	r2, .L243+12
 2919 05d4 92F82412 		ldrb	r1, [r2, #548]	@ zero_extendqisi2
 2920 05d8 8B42     		cmp	r3, r1
 2921 05da 16D1     		bne	.L202
 2922 05dc 0AE0     		b	.L236
 2923              	.LVL408:
 2924              	.L203:
 246:.\RFPoll.c    ****                     }
 2925              		.loc 1 246 0 discriminator 3
 2926 05de 03F10802 		add	r2, r3, #8
 2927 05e2 9548     		ldr	r0, .L243+8
 2928 05e4 805C     		ldrb	r0, [r0, r2]	@ zero_extendqisi2
 2929 05e6 954A     		ldr	r2, .L243+12
 2930 05e8 1A44     		add	r2, r2, r3
 2931 05ea 82F82C03 		strb	r0, [r2, #812]
 245:.\RFPoll.c    ****                         side.c.saleNumber[x] = buffer_rf[x+8];
 2932              		.loc 1 245 0 discriminator 3
 2933 05ee 0133     		adds	r3, r3, #1
 2934              	.LVL409:
 2935 05f0 9BB2     		uxth	r3, r3
 2936              	.LVL410:
 2937 05f2 00E0     		b	.L201
 2938              	.LVL411:
 2939              	.L236:
 2940 05f4 0023     		movs	r3, #0
 2941              	.L201:
 2942              	.LVL412:
 245:.\RFPoll.c    ****                         side.c.saleNumber[x] = buffer_rf[x+8];
 2943              		.loc 1 245 0 is_stmt 0 discriminator 1
 2944 05f6 092B     		cmp	r3, #9
ARM GAS  C:\Users\RECEPC~1\AppData\Local\Temp\cckY5SBD.s 			page 70


 2945 05f8 F1D9     		bls	.L203
 248:.\RFPoll.c    ****                         imprimir(printPortA,side.c.dir); 
 2946              		.loc 1 248 0 is_stmt 1
 2947 05fa 934B     		ldr	r3, .L243+24
 2948              	.LVL413:
 2949 05fc 93F83431 		ldrb	r3, [r3, #308]	@ zero_extendqisi2
 2950 0600 1BB1     		cbz	r3, .L202
 249:.\RFPoll.c    ****                 }
 2951              		.loc 1 249 0
 2952 0602 8C4B     		ldr	r3, .L243+4
 2953 0604 1878     		ldrb	r0, [r3]	@ zero_extendqisi2
 2954 0606 FFF7FEFF 		bl	imprimir
 2955              	.LVL414:
 2956              	.L202:
 251:.\RFPoll.c    ****                     for(x = 0; x < 10; x++){
 2957              		.loc 1 251 0
 2958 060a 8B4B     		ldr	r3, .L243+8
 2959 060c 5B79     		ldrb	r3, [r3, #5]	@ zero_extendqisi2
 2960 060e 8B4A     		ldr	r2, .L243+12
 2961 0610 92F83613 		ldrb	r1, [r2, #822]	@ zero_extendqisi2
 2962 0614 8B42     		cmp	r3, r1
 2963 0616 40F00781 		bne	.L146
 2964 061a 0AE0     		b	.L237
 2965              	.LVL415:
 2966              	.L205:
 253:.\RFPoll.c    ****                     }
 2967              		.loc 1 253 0 discriminator 3
 2968 061c 03F10802 		add	r2, r3, #8
 2969 0620 8548     		ldr	r0, .L243+8
 2970 0622 805C     		ldrb	r0, [r0, r2]	@ zero_extendqisi2
 2971 0624 854A     		ldr	r2, .L243+12
 2972 0626 1A44     		add	r2, r2, r3
 2973 0628 82F83E04 		strb	r0, [r2, #1086]
 252:.\RFPoll.c    ****                         side.d.saleNumber[x] = buffer_rf[x+8];
 2974              		.loc 1 252 0 discriminator 3
 2975 062c 0133     		adds	r3, r3, #1
 2976              	.LVL416:
 2977 062e 9BB2     		uxth	r3, r3
 2978              	.LVL417:
 2979 0630 00E0     		b	.L204
 2980              	.LVL418:
 2981              	.L237:
 2982 0632 0023     		movs	r3, #0
 2983              	.L204:
 2984              	.LVL419:
 252:.\RFPoll.c    ****                         side.d.saleNumber[x] = buffer_rf[x+8];
 2985              		.loc 1 252 0 is_stmt 0 discriminator 1
 2986 0634 092B     		cmp	r3, #9
 2987 0636 F1D9     		bls	.L205
 255:.\RFPoll.c    ****                         imprimir(printPortB,side.d.dir); 
 2988              		.loc 1 255 0 is_stmt 1
 2989 0638 844B     		ldr	r3, .L243+28
 2990              	.LVL420:
 2991 063a 93F83431 		ldrb	r3, [r3, #308]	@ zero_extendqisi2
 2992 063e 002B     		cmp	r3, #0
 2993 0640 00F0F280 		beq	.L146
 256:.\RFPoll.c    ****                 }
ARM GAS  C:\Users\RECEPC~1\AppData\Local\Temp\cckY5SBD.s 			page 71


 2994              		.loc 1 256 0
 2995 0644 7F4B     		ldr	r3, .L243+20
 2996 0646 1878     		ldrb	r0, [r3]	@ zero_extendqisi2
 2997 0648 FFF7FEFF 		bl	imprimir
 2998              	.LVL421:
 2999 064c ECE0     		b	.L146
 3000              	.L153:
 264:.\RFPoll.c    ****                 date[0]    = buffer_rf[9];
 3001              		.loc 1 264 0
 3002 064e 7A4B     		ldr	r3, .L243+8
 3003 0650 197A     		ldrb	r1, [r3, #8]	@ zero_extendqisi2
 3004 0652 7F4A     		ldr	r2, .L243+32
 3005 0654 5170     		strb	r1, [r2, #1]
 265:.\RFPoll.c    ****                 date[1]    = buffer_rf[10];
 3006              		.loc 1 265 0
 3007 0656 597A     		ldrb	r1, [r3, #9]	@ zero_extendqisi2
 3008 0658 7E4A     		ldr	r2, .L243+36
 3009 065a 1170     		strb	r1, [r2]
 266:.\RFPoll.c    ****                 date[2]    = buffer_rf[11];
 3010              		.loc 1 266 0
 3011 065c 997A     		ldrb	r1, [r3, #10]	@ zero_extendqisi2
 3012 065e 5170     		strb	r1, [r2, #1]
 267:.\RFPoll.c    ****                 time[1]    = buffer_rf[12];
 3013              		.loc 1 267 0
 3014 0660 D97A     		ldrb	r1, [r3, #11]	@ zero_extendqisi2
 3015 0662 9170     		strb	r1, [r2, #2]
 268:.\RFPoll.c    ****                 time[0]    = buffer_rf[13];
 3016              		.loc 1 268 0
 3017 0664 197B     		ldrb	r1, [r3, #12]	@ zero_extendqisi2
 3018 0666 7C4A     		ldr	r2, .L243+40
 3019 0668 5170     		strb	r1, [r2, #1]
 269:.\RFPoll.c    ****                 for(x = 17; x < 47; x++){
 3020              		.loc 1 269 0
 3021 066a 5B7B     		ldrb	r3, [r3, #13]	@ zero_extendqisi2
 3022 066c 1370     		strb	r3, [r2]
 3023              	.LVL422:
 270:.\RFPoll.c    ****                     Encabezado1[x-17] = buffer_rf[x];
 3024              		.loc 1 270 0
 3025 066e 1123     		movs	r3, #17
 3026 0670 07E0     		b	.L206
 3027              	.LVL423:
 3028              	.L207:
 271:.\RFPoll.c    ****                 }
 3029              		.loc 1 271 0 discriminator 3
 3030 0672 A3F11102 		sub	r2, r3, #17
 3031 0676 7049     		ldr	r1, .L243+8
 3032 0678 C85C     		ldrb	r0, [r1, r3]	@ zero_extendqisi2
 3033 067a 7849     		ldr	r1, .L243+44
 3034 067c 8854     		strb	r0, [r1, r2]
 270:.\RFPoll.c    ****                     Encabezado1[x-17] = buffer_rf[x];
 3035              		.loc 1 270 0 discriminator 3
 3036 067e 0133     		adds	r3, r3, #1
 3037              	.LVL424:
 3038 0680 9BB2     		uxth	r3, r3
 3039              	.LVL425:
 3040              	.L206:
 270:.\RFPoll.c    ****                     Encabezado1[x-17] = buffer_rf[x];
ARM GAS  C:\Users\RECEPC~1\AppData\Local\Temp\cckY5SBD.s 			page 72


 3041              		.loc 1 270 0 is_stmt 0 discriminator 1
 3042 0682 2E2B     		cmp	r3, #46
 3043 0684 F5D9     		bls	.L207
 3044 0686 2F23     		movs	r3, #47
 3045              	.LVL426:
 3046 0688 07E0     		b	.L208
 3047              	.LVL427:
 3048              	.L209:
 274:.\RFPoll.c    ****                 }
 3049              		.loc 1 274 0 is_stmt 1 discriminator 3
 3050 068a A3F12F02 		sub	r2, r3, #47
 3051 068e 6A49     		ldr	r1, .L243+8
 3052 0690 C85C     		ldrb	r0, [r1, r3]	@ zero_extendqisi2
 3053 0692 7349     		ldr	r1, .L243+48
 3054 0694 8854     		strb	r0, [r1, r2]
 273:.\RFPoll.c    ****                     Encabezado2[x-47] = buffer_rf[x];
 3055              		.loc 1 273 0 discriminator 3
 3056 0696 0133     		adds	r3, r3, #1
 3057              	.LVL428:
 3058 0698 9BB2     		uxth	r3, r3
 3059              	.LVL429:
 3060              	.L208:
 273:.\RFPoll.c    ****                     Encabezado2[x-47] = buffer_rf[x];
 3061              		.loc 1 273 0 is_stmt 0 discriminator 1
 3062 069a 4C2B     		cmp	r3, #76
 3063 069c F5D9     		bls	.L209
 3064 069e 4D23     		movs	r3, #77
 3065              	.LVL430:
 3066 06a0 07E0     		b	.L210
 3067              	.LVL431:
 3068              	.L211:
 277:.\RFPoll.c    ****                 }
 3069              		.loc 1 277 0 is_stmt 1 discriminator 3
 3070 06a2 A3F14D02 		sub	r2, r3, #77
 3071 06a6 6449     		ldr	r1, .L243+8
 3072 06a8 C85C     		ldrb	r0, [r1, r3]	@ zero_extendqisi2
 3073 06aa 6E49     		ldr	r1, .L243+52
 3074 06ac 8854     		strb	r0, [r1, r2]
 276:.\RFPoll.c    ****                     Encabezado3[x-77] = buffer_rf[x];
 3075              		.loc 1 276 0 discriminator 3
 3076 06ae 0133     		adds	r3, r3, #1
 3077              	.LVL432:
 3078 06b0 9BB2     		uxth	r3, r3
 3079              	.LVL433:
 3080              	.L210:
 276:.\RFPoll.c    ****                     Encabezado3[x-77] = buffer_rf[x];
 3081              		.loc 1 276 0 is_stmt 0 discriminator 1
 3082 06b2 6A2B     		cmp	r3, #106
 3083 06b4 F5D9     		bls	.L211
 3084 06b6 6B23     		movs	r3, #107
 3085              	.LVL434:
 3086 06b8 07E0     		b	.L212
 3087              	.LVL435:
 3088              	.L213:
 280:.\RFPoll.c    ****                 }
 3089              		.loc 1 280 0 is_stmt 1 discriminator 3
 3090 06ba A3F14D02 		sub	r2, r3, #77
ARM GAS  C:\Users\RECEPC~1\AppData\Local\Temp\cckY5SBD.s 			page 73


 3091 06be 5E49     		ldr	r1, .L243+8
 3092 06c0 C85C     		ldrb	r0, [r1, r3]	@ zero_extendqisi2
 3093 06c2 6949     		ldr	r1, .L243+56
 3094 06c4 8854     		strb	r0, [r1, r2]
 279:.\RFPoll.c    ****                     Encabezado4[x-77] = buffer_rf[x];
 3095              		.loc 1 279 0 discriminator 3
 3096 06c6 0133     		adds	r3, r3, #1
 3097              	.LVL436:
 3098 06c8 9BB2     		uxth	r3, r3
 3099              	.LVL437:
 3100              	.L212:
 279:.\RFPoll.c    ****                     Encabezado4[x-77] = buffer_rf[x];
 3101              		.loc 1 279 0 is_stmt 0 discriminator 1
 3102 06ca 882B     		cmp	r3, #136
 3103 06cc F5D9     		bls	.L213
 282:.\RFPoll.c    ****                 write_hora();
 3104              		.loc 1 282 0 is_stmt 1
 3105 06ce 5A4B     		ldr	r3, .L243+8
 3106              	.LVL438:
 3107 06d0 1A7C     		ldrb	r2, [r3, #16]	@ zero_extendqisi2
 3108 06d2 664B     		ldr	r3, .L243+60
 3109 06d4 1A70     		strb	r2, [r3]
 283:.\RFPoll.c    ****                 write_fecha(); 
 3110              		.loc 1 283 0
 3111 06d6 FFF7FEFF 		bl	write_hora
 3112              	.LVL439:
 284:.\RFPoll.c    ****                 for(x =0 ; x <30; x++){
 3113              		.loc 1 284 0
 3114 06da FFF7FEFF 		bl	write_fecha
 3115              	.LVL440:
 285:.\RFPoll.c    ****                     EEPROM_1_WriteByte(Encabezado1[x],16+x);
 3116              		.loc 1 285 0
 3117 06de 0024     		movs	r4, #0
 3118              	.LVL441:
 3119 06e0 08E0     		b	.L214
 3120              	.LVL442:
 3121              	.L215:
 286:.\RFPoll.c    ****                 }
 3122              		.loc 1 286 0 discriminator 3
 3123 06e2 04F11001 		add	r1, r4, #16
 3124 06e6 5D4B     		ldr	r3, .L243+44
 3125 06e8 185D     		ldrb	r0, [r3, r4]	@ zero_extendqisi2
 3126 06ea 89B2     		uxth	r1, r1
 3127 06ec FFF7FEFF 		bl	EEPROM_1_WriteByte
 3128              	.LVL443:
 285:.\RFPoll.c    ****                     EEPROM_1_WriteByte(Encabezado1[x],16+x);
 3129              		.loc 1 285 0 discriminator 3
 3130 06f0 0134     		adds	r4, r4, #1
 3131              	.LVL444:
 3132 06f2 A4B2     		uxth	r4, r4
 3133              	.LVL445:
 3134              	.L214:
 285:.\RFPoll.c    ****                     EEPROM_1_WriteByte(Encabezado1[x],16+x);
 3135              		.loc 1 285 0 is_stmt 0 discriminator 1
 3136 06f4 1D2C     		cmp	r4, #29
 3137 06f6 F4D9     		bls	.L215
 3138 06f8 1E24     		movs	r4, #30
ARM GAS  C:\Users\RECEPC~1\AppData\Local\Temp\cckY5SBD.s 			page 74


 3139              	.LVL446:
 3140 06fa 0AE0     		b	.L216
 3141              	.LVL447:
 3142              	.L217:
 289:.\RFPoll.c    ****                 }
 3143              		.loc 1 289 0 is_stmt 1 discriminator 3
 3144 06fc A4F11E03 		sub	r3, r4, #30
 3145 0700 04F11001 		add	r1, r4, #16
 3146 0704 564A     		ldr	r2, .L243+48
 3147 0706 D05C     		ldrb	r0, [r2, r3]	@ zero_extendqisi2
 3148 0708 89B2     		uxth	r1, r1
 3149 070a FFF7FEFF 		bl	EEPROM_1_WriteByte
 3150              	.LVL448:
 288:.\RFPoll.c    ****                     EEPROM_1_WriteByte(Encabezado2[x-30],16+x);
 3151              		.loc 1 288 0 discriminator 3
 3152 070e 0134     		adds	r4, r4, #1
 3153              	.LVL449:
 3154 0710 A4B2     		uxth	r4, r4
 3155              	.LVL450:
 3156              	.L216:
 288:.\RFPoll.c    ****                     EEPROM_1_WriteByte(Encabezado2[x-30],16+x);
 3157              		.loc 1 288 0 is_stmt 0 discriminator 1
 3158 0712 3B2C     		cmp	r4, #59
 3159 0714 F2D9     		bls	.L217
 3160 0716 3C24     		movs	r4, #60
 3161              	.LVL451:
 3162 0718 0AE0     		b	.L218
 3163              	.LVL452:
 3164              	.L219:
 292:.\RFPoll.c    ****                 }
 3165              		.loc 1 292 0 is_stmt 1 discriminator 3
 3166 071a A4F11E03 		sub	r3, r4, #30
 3167 071e 04F11001 		add	r1, r4, #16
 3168 0722 504A     		ldr	r2, .L243+52
 3169 0724 D05C     		ldrb	r0, [r2, r3]	@ zero_extendqisi2
 3170 0726 89B2     		uxth	r1, r1
 3171 0728 FFF7FEFF 		bl	EEPROM_1_WriteByte
 3172              	.LVL453:
 291:.\RFPoll.c    ****                     EEPROM_1_WriteByte(Encabezado3[x-30],16+x);
 3173              		.loc 1 291 0 discriminator 3
 3174 072c 0134     		adds	r4, r4, #1
 3175              	.LVL454:
 3176 072e A4B2     		uxth	r4, r4
 3177              	.LVL455:
 3178              	.L218:
 291:.\RFPoll.c    ****                     EEPROM_1_WriteByte(Encabezado3[x-30],16+x);
 3179              		.loc 1 291 0 is_stmt 0 discriminator 1
 3180 0730 592C     		cmp	r4, #89
 3181 0732 F2D9     		bls	.L219
 3182 0734 5A24     		movs	r4, #90
 3183              	.LVL456:
 3184 0736 0AE0     		b	.L220
 3185              	.LVL457:
 3186              	.L221:
 295:.\RFPoll.c    ****                 }
 3187              		.loc 1 295 0 is_stmt 1 discriminator 3
 3188 0738 A4F11E03 		sub	r3, r4, #30
ARM GAS  C:\Users\RECEPC~1\AppData\Local\Temp\cckY5SBD.s 			page 75


 3189 073c 04F11001 		add	r1, r4, #16
 3190 0740 494A     		ldr	r2, .L243+56
 3191 0742 D05C     		ldrb	r0, [r2, r3]	@ zero_extendqisi2
 3192 0744 89B2     		uxth	r1, r1
 3193 0746 FFF7FEFF 		bl	EEPROM_1_WriteByte
 3194              	.LVL458:
 294:.\RFPoll.c    ****                     EEPROM_1_WriteByte(Encabezado4[x-30],16+x);
 3195              		.loc 1 294 0 discriminator 3
 3196 074a 0134     		adds	r4, r4, #1
 3197              	.LVL459:
 3198 074c A4B2     		uxth	r4, r4
 3199              	.LVL460:
 3200              	.L220:
 294:.\RFPoll.c    ****                     EEPROM_1_WriteByte(Encabezado4[x-30],16+x);
 3201              		.loc 1 294 0 is_stmt 0 discriminator 1
 3202 074e 772C     		cmp	r4, #119
 3203 0750 F2D9     		bls	.L221
 297:.\RFPoll.c    ****                 side.b.dir = EEPROM_1_ReadByte(13);
 3204              		.loc 1 297 0 is_stmt 1
 3205 0752 0C20     		movs	r0, #12
 3206 0754 FFF7FEFF 		bl	EEPROM_1_ReadByte
 3207              	.LVL461:
 3208 0758 384C     		ldr	r4, .L243+12
 3209              	.LVL462:
 3210 075a 2070     		strb	r0, [r4]
 298:.\RFPoll.c    ****                 side.c.dir = EEPROM_1_ReadByte(14);
 3211              		.loc 1 298 0
 3212 075c 0D20     		movs	r0, #13
 3213 075e FFF7FEFF 		bl	EEPROM_1_ReadByte
 3214              	.LVL463:
 3215 0762 84F81201 		strb	r0, [r4, #274]
 299:.\RFPoll.c    ****                 side.d.dir = EEPROM_1_ReadByte(15);
 3216              		.loc 1 299 0
 3217 0766 0E20     		movs	r0, #14
 3218 0768 FFF7FEFF 		bl	EEPROM_1_ReadByte
 3219              	.LVL464:
 3220 076c 84F82402 		strb	r0, [r4, #548]
 300:.\RFPoll.c    ****                 imprimir(printPortA,side.a.dir);
 3221              		.loc 1 300 0
 3222 0770 0F20     		movs	r0, #15
 3223 0772 FFF7FEFF 		bl	EEPROM_1_ReadByte
 3224              	.LVL465:
 3225 0776 84F83603 		strb	r0, [r4, #822]
 301:.\RFPoll.c    ****                break;
 3226              		.loc 1 301 0
 3227 077a 2E4B     		ldr	r3, .L243+4
 3228 077c 1878     		ldrb	r0, [r3]	@ zero_extendqisi2
 3229 077e 2178     		ldrb	r1, [r4]	@ zero_extendqisi2
 3230 0780 FFF7FEFF 		bl	imprimir
 3231              	.LVL466:
 302:.\RFPoll.c    ****                
 3232              		.loc 1 302 0
 3233 0784 50E0     		b	.L146
 3234              	.LVL467:
 3235              	.L154:
 305:.\RFPoll.c    ****                 buffer_tx[6] = 0xE2;
 3236              		.loc 1 305 0
ARM GAS  C:\Users\RECEPC~1\AppData\Local\Temp\cckY5SBD.s 			page 76


 3237 0786 2C4B     		ldr	r3, .L243+8
 3238 0788 5B79     		ldrb	r3, [r3, #5]	@ zero_extendqisi2
 3239 078a 394C     		ldr	r4, .L243+64
 3240              	.LVL468:
 3241 078c 6371     		strb	r3, [r4, #5]
 306:.\RFPoll.c    ****                 buffer_tx[7] = 0x08;
 3242              		.loc 1 306 0
 3243 078e E223     		movs	r3, #226
 3244 0790 A371     		strb	r3, [r4, #6]
 307:.\RFPoll.c    ****                 buffer_tx[8] = 0x03;
 3245              		.loc 1 307 0
 3246 0792 0823     		movs	r3, #8
 3247 0794 E371     		strb	r3, [r4, #7]
 308:.\RFPoll.c    ****                 buffer_tx[9] = verificar_check(buffer_tx,10);
 3248              		.loc 1 308 0
 3249 0796 0323     		movs	r3, #3
 3250 0798 2372     		strb	r3, [r4, #8]
 309:.\RFPoll.c    ****                 for (x = 0; x < 10; x++){
 3251              		.loc 1 309 0
 3252 079a 2046     		mov	r0, r4
 3253 079c 0A21     		movs	r1, #10
 3254 079e FFF7FEFF 		bl	verificar_check
 3255              	.LVL469:
 3256 07a2 6072     		strb	r0, [r4, #9]
 3257              	.LVL470:
 310:.\RFPoll.c    ****                     RF_Connection_PutChar(buffer_tx[x]);
 3258              		.loc 1 310 0
 3259 07a4 0024     		movs	r4, #0
 3260 07a6 05E0     		b	.L222
 3261              	.LVL471:
 3262              	.L223:
 311:.\RFPoll.c    ****                 }
 3263              		.loc 1 311 0 discriminator 3
 3264 07a8 314B     		ldr	r3, .L243+64
 3265 07aa 185D     		ldrb	r0, [r3, r4]	@ zero_extendqisi2
 3266 07ac FFF7FEFF 		bl	RF_Connection_PutChar
 3267              	.LVL472:
 310:.\RFPoll.c    ****                     RF_Connection_PutChar(buffer_tx[x]);
 3268              		.loc 1 310 0 discriminator 3
 3269 07b0 0134     		adds	r4, r4, #1
 3270              	.LVL473:
 3271 07b2 A4B2     		uxth	r4, r4
 3272              	.LVL474:
 3273              	.L222:
 310:.\RFPoll.c    ****                     RF_Connection_PutChar(buffer_tx[x]);
 3274              		.loc 1 310 0 is_stmt 0 discriminator 1
 3275 07b4 092C     		cmp	r4, #9
 3276 07b6 F7D9     		bls	.L223
 3277 07b8 0823     		movs	r3, #8
 3278 07ba 07E0     		b	.L224
 3279              	.LVL475:
 3280              	.L225:
 314:.\RFPoll.c    ****                 }
 3281              		.loc 1 314 0 is_stmt 1 discriminator 3
 3282 07bc A3F10802 		sub	r2, r3, #8
 3283 07c0 1D49     		ldr	r1, .L243+8
 3284 07c2 C85C     		ldrb	r0, [r1, r3]	@ zero_extendqisi2
ARM GAS  C:\Users\RECEPC~1\AppData\Local\Temp\cckY5SBD.s 			page 77


 3285 07c4 2B49     		ldr	r1, .L243+68
 3286 07c6 8854     		strb	r0, [r1, r2]
 313:.\RFPoll.c    ****                     GradesHose[x-8] = buffer_rf[x];
 3287              		.loc 1 313 0 discriminator 3
 3288 07c8 0133     		adds	r3, r3, #1
 3289              	.LVL476:
 3290 07ca 9BB2     		uxth	r3, r3
 3291              	.LVL477:
 3292              	.L224:
 313:.\RFPoll.c    ****                     GradesHose[x-8] = buffer_rf[x];
 3293              		.loc 1 313 0 is_stmt 0 discriminator 1
 3294 07cc 0B2B     		cmp	r3, #11
 3295 07ce F5D9     		bls	.L225
 316:.\RFPoll.c    ****                 EEPROM_1_WriteByte(lockTurn,7);
 3296              		.loc 1 316 0 is_stmt 1
 3297 07d0 194B     		ldr	r3, .L243+8
 3298              	.LVL478:
 3299 07d2 187B     		ldrb	r0, [r3, #12]	@ zero_extendqisi2
 3300 07d4 284B     		ldr	r3, .L243+72
 3301 07d6 1870     		strb	r0, [r3]
 317:.\RFPoll.c    ****                break;
 3302              		.loc 1 317 0
 3303 07d8 0721     		movs	r1, #7
 3304 07da FFF7FEFF 		bl	EEPROM_1_WriteByte
 3305              	.LVL479:
 318:.\RFPoll.c    ****                 
 3306              		.loc 1 318 0
 3307 07de 23E0     		b	.L146
 3308              	.LVL480:
 3309              	.L155:
 321:.\RFPoll.c    ****                     flowDisplay1 = 0;
 3310              		.loc 1 321 0
 3311 07e0 154B     		ldr	r3, .L243+8
 3312 07e2 DA79     		ldrb	r2, [r3, #7]	@ zero_extendqisi2
 3313 07e4 022A     		cmp	r2, #2
 3314 07e6 0ED1     		bne	.L226
 322:.\RFPoll.c    ****                     ShiftState = 0;
 3315              		.loc 1 322 0
 3316 07e8 0021     		movs	r1, #0
 3317 07ea 244B     		ldr	r3, .L243+76
 3318 07ec 1960     		str	r1, [r3]
 323:.\RFPoll.c    ****                     side.a.rfState = RF_IDLE;
 3319              		.loc 1 323 0
 3320 07ee 244B     		ldr	r3, .L243+80
 3321 07f0 1970     		strb	r1, [r3]
 324:.\RFPoll.c    ****                     side.a.RFstateReport = 0;
 3322              		.loc 1 324 0
 3323 07f2 124B     		ldr	r3, .L243+12
 3324 07f4 0822     		movs	r2, #8
 3325 07f6 83F80321 		strb	r2, [r3, #259]
 325:.\RFPoll.c    ****                     SetPicture(1,DISPLAY_ERROR);
 3326              		.loc 1 325 0
 3327 07fa 83F80711 		strb	r1, [r3, #263]
 326:.\RFPoll.c    ****                 }else{
 3328              		.loc 1 326 0
 3329 07fe 0120     		movs	r0, #1
 3330 0800 FFF7FEFF 		bl	SetPicture
ARM GAS  C:\Users\RECEPC~1\AppData\Local\Temp\cckY5SBD.s 			page 78


 3331              	.LVL481:
 3332 0804 10E0     		b	.L146
 3333              	.L226:
 328:.\RFPoll.c    ****                     lockTurn = buffer_rf[7];
 3334              		.loc 1 328 0
 3335 0806 0023     		movs	r3, #0
 3336 0808 1D49     		ldr	r1, .L243+80
 3337 080a 0B70     		strb	r3, [r1]
 329:.\RFPoll.c    ****                     flowDisplay1 = 0;
 3338              		.loc 1 329 0
 3339 080c 1A49     		ldr	r1, .L243+72
 3340 080e 0A70     		strb	r2, [r1]
 330:.\RFPoll.c    ****                     side.a.RFstateReport = 0;
 3341              		.loc 1 330 0
 3342 0810 1A4A     		ldr	r2, .L243+76
 3343 0812 1360     		str	r3, [r2]
 331:.\RFPoll.c    ****                     CyDelay(200);
 3344              		.loc 1 331 0
 3345 0814 094A     		ldr	r2, .L243+12
 3346 0816 82F80731 		strb	r3, [r2, #263]
 332:.\RFPoll.c    ****                     SetPicture(1,DISPLAY_ID_RECONOCIDO);
 3347              		.loc 1 332 0
 3348 081a C820     		movs	r0, #200
 3349 081c FFF7FEFF 		bl	CyDelay
 3350              	.LVL482:
 333:.\RFPoll.c    ****                 }
 3351              		.loc 1 333 0
 3352 0820 0120     		movs	r0, #1
 3353 0822 1321     		movs	r1, #19
 3354 0824 FFF7FEFF 		bl	SetPicture
 3355              	.LVL483:
 3356              	.L146:
 339:.\RFPoll.c    ****     }                            
 3357              		.loc 1 339 0
 3358 0828 FFF7FEFF 		bl	RF_Connection_ClearRxBuffer
 3359              	.LVL484:
 3360              	.L142:
 3361 082c 70BD     		pop	{r4, r5, r6, pc}
 3362              	.L244:
 3363 082e 00BF     		.align	2
 3364              	.L243:
 3365 0830 00000000 		.word	bufferDisplay1
 3366 0834 00000000 		.word	printPortA
 3367 0838 00000000 		.word	buffer_rf
 3368 083c 00000000 		.word	side
 3369 0840 00000000 		.word	bufferDisplay2
 3370 0844 00000000 		.word	printPortB
 3371 0848 00000000 		.word	bufferDisplay3
 3372 084c 00000000 		.word	bufferDisplay4
 3373 0850 00000000 		.word	symbols
 3374 0854 00000000 		.word	date
 3375 0858 00000000 		.word	time
 3376 085c 00000000 		.word	Encabezado1
 3377 0860 00000000 		.word	Encabezado2
 3378 0864 00000000 		.word	Encabezado3
 3379 0868 00000000 		.word	Encabezado4
 3380 086c 00000000 		.word	CopiasCredito
ARM GAS  C:\Users\RECEPC~1\AppData\Local\Temp\cckY5SBD.s 			page 79


 3381 0870 00000000 		.word	buffer_tx
 3382 0874 00000000 		.word	GradesHose
 3383 0878 00000000 		.word	lockTurn
 3384 087c 00000000 		.word	flowDisplay1
 3385 0880 00000000 		.word	ShiftState
 3386              		.cfi_endproc
 3387              	.LFE64:
 3388              		.size	pollingRF_Rx, .-pollingRF_Rx
 3389              		.comm	side,1096,4
 3390              		.comm	bufferDisplay4,332,4
 3391              		.comm	bufferDisplay3,332,4
 3392              		.comm	bufferDisplay2,332,4
 3393              		.comm	bufferDisplay1,332,4
 3394              		.comm	GradesHose,5,4
 3395              		.comm	CopiasCredito,1,1
 3396              		.comm	Encabezado4,30,4
 3397              		.comm	Encabezado3,30,4
 3398              		.comm	Encabezado2,30,4
 3399              		.comm	Encabezado1,30,4
 3400              		.comm	intIDStation,2,2
 3401              		.comm	buffer_txDisplay,60,4
 3402              		.comm	buffer_txEOT,60,4
 3403              		.comm	buffer_txPreset,60,4
 3404              		.comm	buffer_print,250,4
 3405              		.comm	buffer_txTotals,512,4
 3406              		.comm	buffer_tx,512,4
 3407              		.comm	buffer_rf,512,4
 3408              		.comm	printPortB,1,1
 3409              		.comm	printPortA,1,1
 3410              		.comm	pumpGap,3,4
 3411              		.comm	idStation,5,4
 3412              		.comm	controlChar,1,1
 3413              		.comm	configAccess,5,4
 3414              		.comm	count_protector2,1,1
 3415              		.comm	count_protector,1,1
 3416              		.comm	timeDownHandle,2,4
 3417              		.comm	dateDownHandle,3,4
 3418              		.comm	VolUnit,6,4
 3419              		.comm	PrinterType,1,1
 3420              		.comm	hiddenKeys,1,1
 3421              		.comm	digits,1,1
 3422              		.comm	lockTurn,1,1
 3423              		.comm	NumPositions,1,1
 3424              		.comm	statePump,4,4
 3425              		.comm	DDMode,1,1
 3426              		.comm	PPUDec,1,1
 3427              		.comm	VolDec,1,1
 3428              		.comm	MoneyDec,1,1
 3429              		.comm	ConversionFactor,1,1
 3430              		.comm	UnitType,1,1
 3431              		.comm	sizeSendB,1,1
 3432              		.comm	pollTotals,1,1
 3433              		.comm	ShiftState,1,1
 3434              		.comm	CGrade,1,1
 3435              		.comm	tempPPU,5,4
 3436              		.comm	tempPreset,8,4
 3437              		.comm	temporal,30,4
ARM GAS  C:\Users\RECEPC~1\AppData\Local\Temp\cckY5SBD.s 			page 80


 3438              		.comm	counterRF,1,1
 3439              		.comm	ActiveRF,1,1
 3440              		.comm	IDCast,2,4
 3441              		.comm	PlateRequest,1,1
 3442              		.comm	PrevStatePump,4,4
 3443              		.comm	stateBeagleSoft,1,1
 3444              		.comm	flagResetMux,1,1
 3445              		.comm	passwordSeller,8,4
 3446              		.comm	typeIdSeller,1,1
 3447              		.comm	idSeller,25,4
 3448              		.comm	residue,14,4
 3449              		.comm	screen,2,4
 3450              		.comm	date,3,4
 3451              		.comm	time,3,4
 3452              		.comm	symbols,2,4
 3453              		.comm	decimalVolume,1,1
 3454              		.comm	decimalMoney,1,1
 3455              		.comm	ppux10,1,1
 3456              		.comm	delayPicture2,4,4
 3457              		.comm	delayPicture1,4,4
 3458              		.comm	productNumber,1,1
 3459              		.comm	flagPoint2,1,1
 3460              		.comm	flagPoint1,1,1
 3461              		.comm	numberKeys2,1,1
 3462              		.comm	numberKeys1,1,1
 3463              		.comm	flowDisplay4,4,4
 3464              		.comm	flowDisplay3,4,4
 3465              		.comm	flowDisplay2,4,4
 3466              		.comm	flowDisplay1,4,4
 3467              		.comm	countLCD,8,8
 3468              		.comm	countPump,8,8
 3469              		.comm	countTX,8,8
 3470              		.comm	countRX,8,8
 3471              		.comm	countAnimation2,8,8
 3472              		.comm	countAnimation1,8,8
 3473              		.section	.rodata
 3474              		.align	2
 3475              		.set	.LANCHOR0,. + 0
 3476              	.LC0:
 3477 0000 00       		.byte	0
 3478 0001 5E       		.byte	94
 3479 0002 BC       		.byte	-68
 3480 0003 E2       		.byte	-30
 3481 0004 61       		.byte	97
 3482 0005 3F       		.byte	63
 3483 0006 DD       		.byte	-35
 3484 0007 83       		.byte	-125
 3485 0008 C2       		.byte	-62
 3486 0009 9C       		.byte	-100
 3487 000a 7E       		.byte	126
 3488 000b 20       		.byte	32
 3489 000c A3       		.byte	-93
 3490 000d FD       		.byte	-3
 3491 000e 1F       		.byte	31
 3492 000f 41       		.byte	65
 3493 0010 9D       		.byte	-99
 3494 0011 C3       		.byte	-61
ARM GAS  C:\Users\RECEPC~1\AppData\Local\Temp\cckY5SBD.s 			page 81


 3495 0012 21       		.byte	33
 3496 0013 7F       		.byte	127
 3497 0014 FC       		.byte	-4
 3498 0015 A2       		.byte	-94
 3499 0016 40       		.byte	64
 3500 0017 1E       		.byte	30
 3501 0018 5F       		.byte	95
 3502 0019 01       		.byte	1
 3503 001a E3       		.byte	-29
 3504 001b BD       		.byte	-67
 3505 001c 3E       		.byte	62
 3506 001d 60       		.byte	96
 3507 001e 82       		.byte	-126
 3508 001f DC       		.byte	-36
 3509 0020 23       		.byte	35
 3510 0021 7D       		.byte	125
 3511 0022 9F       		.byte	-97
 3512 0023 C1       		.byte	-63
 3513 0024 42       		.byte	66
 3514 0025 1C       		.byte	28
 3515 0026 FE       		.byte	-2
 3516 0027 A0       		.byte	-96
 3517 0028 E1       		.byte	-31
 3518 0029 BF       		.byte	-65
 3519 002a 5D       		.byte	93
 3520 002b 03       		.byte	3
 3521 002c 80       		.byte	-128
 3522 002d DE       		.byte	-34
 3523 002e 3C       		.byte	60
 3524 002f 62       		.byte	98
 3525 0030 BE       		.byte	-66
 3526 0031 E0       		.byte	-32
 3527 0032 02       		.byte	2
 3528 0033 5C       		.byte	92
 3529 0034 DF       		.byte	-33
 3530 0035 81       		.byte	-127
 3531 0036 63       		.byte	99
 3532 0037 3D       		.byte	61
 3533 0038 7C       		.byte	124
 3534 0039 22       		.byte	34
 3535 003a C0       		.byte	-64
 3536 003b 9E       		.byte	-98
 3537 003c 1D       		.byte	29
 3538 003d 43       		.byte	67
 3539 003e A1       		.byte	-95
 3540 003f FF       		.byte	-1
 3541 0040 46       		.byte	70
 3542 0041 18       		.byte	24
 3543 0042 FA       		.byte	-6
 3544 0043 A4       		.byte	-92
 3545 0044 27       		.byte	39
 3546 0045 79       		.byte	121
 3547 0046 9B       		.byte	-101
 3548 0047 C5       		.byte	-59
 3549 0048 84       		.byte	-124
 3550 0049 DA       		.byte	-38
 3551 004a 38       		.byte	56
ARM GAS  C:\Users\RECEPC~1\AppData\Local\Temp\cckY5SBD.s 			page 82


 3552 004b 66       		.byte	102
 3553 004c E5       		.byte	-27
 3554 004d BB       		.byte	-69
 3555 004e 59       		.byte	89
 3556 004f 07       		.byte	7
 3557 0050 DB       		.byte	-37
 3558 0051 85       		.byte	-123
 3559 0052 67       		.byte	103
 3560 0053 39       		.byte	57
 3561 0054 BA       		.byte	-70
 3562 0055 E4       		.byte	-28
 3563 0056 06       		.byte	6
 3564 0057 58       		.byte	88
 3565 0058 19       		.byte	25
 3566 0059 47       		.byte	71
 3567 005a A5       		.byte	-91
 3568 005b FB       		.byte	-5
 3569 005c 78       		.byte	120
 3570 005d 26       		.byte	38
 3571 005e C4       		.byte	-60
 3572 005f 9A       		.byte	-102
 3573 0060 65       		.byte	101
 3574 0061 3B       		.byte	59
 3575 0062 D9       		.byte	-39
 3576 0063 87       		.byte	-121
 3577 0064 04       		.byte	4
 3578 0065 5A       		.byte	90
 3579 0066 B8       		.byte	-72
 3580 0067 E6       		.byte	-26
 3581 0068 A7       		.byte	-89
 3582 0069 F9       		.byte	-7
 3583 006a 1B       		.byte	27
 3584 006b 45       		.byte	69
 3585 006c C6       		.byte	-58
 3586 006d 98       		.byte	-104
 3587 006e 7A       		.byte	122
 3588 006f 24       		.byte	36
 3589 0070 F8       		.byte	-8
 3590 0071 A6       		.byte	-90
 3591 0072 44       		.byte	68
 3592 0073 1A       		.byte	26
 3593 0074 99       		.byte	-103
 3594 0075 C7       		.byte	-57
 3595 0076 25       		.byte	37
 3596 0077 7B       		.byte	123
 3597 0078 3A       		.byte	58
 3598 0079 64       		.byte	100
 3599 007a 86       		.byte	-122
 3600 007b D8       		.byte	-40
 3601 007c 5B       		.byte	91
 3602 007d 05       		.byte	5
 3603 007e E7       		.byte	-25
 3604 007f B9       		.byte	-71
 3605 0080 8C       		.byte	-116
 3606 0081 D2       		.byte	-46
 3607 0082 30       		.byte	48
 3608 0083 6E       		.byte	110
ARM GAS  C:\Users\RECEPC~1\AppData\Local\Temp\cckY5SBD.s 			page 83


 3609 0084 ED       		.byte	-19
 3610 0085 B3       		.byte	-77
 3611 0086 51       		.byte	81
 3612 0087 0F       		.byte	15
 3613 0088 4E       		.byte	78
 3614 0089 10       		.byte	16
 3615 008a F2       		.byte	-14
 3616 008b AC       		.byte	-84
 3617 008c 2F       		.byte	47
 3618 008d 71       		.byte	113
 3619 008e 93       		.byte	-109
 3620 008f CD       		.byte	-51
 3621 0090 11       		.byte	17
 3622 0091 4F       		.byte	79
 3623 0092 AD       		.byte	-83
 3624 0093 F3       		.byte	-13
 3625 0094 70       		.byte	112
 3626 0095 2E       		.byte	46
 3627 0096 CC       		.byte	-52
 3628 0097 92       		.byte	-110
 3629 0098 D3       		.byte	-45
 3630 0099 8D       		.byte	-115
 3631 009a 6F       		.byte	111
 3632 009b 31       		.byte	49
 3633 009c B2       		.byte	-78
 3634 009d EC       		.byte	-20
 3635 009e 0E       		.byte	14
 3636 009f 50       		.byte	80
 3637 00a0 AF       		.byte	-81
 3638 00a1 F1       		.byte	-15
 3639 00a2 13       		.byte	19
 3640 00a3 4D       		.byte	77
 3641 00a4 CE       		.byte	-50
 3642 00a5 90       		.byte	-112
 3643 00a6 72       		.byte	114
 3644 00a7 2C       		.byte	44
 3645 00a8 6D       		.byte	109
 3646 00a9 33       		.byte	51
 3647 00aa D1       		.byte	-47
 3648 00ab 8F       		.byte	-113
 3649 00ac 0C       		.byte	12
 3650 00ad 52       		.byte	82
 3651 00ae B0       		.byte	-80
 3652 00af EE       		.byte	-18
 3653 00b0 32       		.byte	50
 3654 00b1 6C       		.byte	108
 3655 00b2 8E       		.byte	-114
 3656 00b3 D0       		.byte	-48
 3657 00b4 53       		.byte	83
 3658 00b5 0D       		.byte	13
 3659 00b6 EF       		.byte	-17
 3660 00b7 B1       		.byte	-79
 3661 00b8 F0       		.byte	-16
 3662 00b9 AE       		.byte	-82
 3663 00ba 4C       		.byte	76
 3664 00bb 12       		.byte	18
 3665 00bc 91       		.byte	-111
ARM GAS  C:\Users\RECEPC~1\AppData\Local\Temp\cckY5SBD.s 			page 84


 3666 00bd CF       		.byte	-49
 3667 00be 2D       		.byte	45
 3668 00bf 73       		.byte	115
 3669 00c0 CA       		.byte	-54
 3670 00c1 94       		.byte	-108
 3671 00c2 76       		.byte	118
 3672 00c3 28       		.byte	40
 3673 00c4 AB       		.byte	-85
 3674 00c5 F5       		.byte	-11
 3675 00c6 17       		.byte	23
 3676 00c7 49       		.byte	73
 3677 00c8 08       		.byte	8
 3678 00c9 56       		.byte	86
 3679 00ca B4       		.byte	-76
 3680 00cb EA       		.byte	-22
 3681 00cc 69       		.byte	105
 3682 00cd 37       		.byte	55
 3683 00ce D5       		.byte	-43
 3684 00cf 8B       		.byte	-117
 3685 00d0 57       		.byte	87
 3686 00d1 09       		.byte	9
 3687 00d2 EB       		.byte	-21
 3688 00d3 B5       		.byte	-75
 3689 00d4 36       		.byte	54
 3690 00d5 68       		.byte	104
 3691 00d6 8A       		.byte	-118
 3692 00d7 D4       		.byte	-44
 3693 00d8 95       		.byte	-107
 3694 00d9 CB       		.byte	-53
 3695 00da 29       		.byte	41
 3696 00db 77       		.byte	119
 3697 00dc F4       		.byte	-12
 3698 00dd AA       		.byte	-86
 3699 00de 48       		.byte	72
 3700 00df 16       		.byte	22
 3701 00e0 E9       		.byte	-23
 3702 00e1 B7       		.byte	-73
 3703 00e2 55       		.byte	85
 3704 00e3 0B       		.byte	11
 3705 00e4 88       		.byte	-120
 3706 00e5 D6       		.byte	-42
 3707 00e6 34       		.byte	52
 3708 00e7 6A       		.byte	106
 3709 00e8 2B       		.byte	43
 3710 00e9 75       		.byte	117
 3711 00ea 97       		.byte	-105
 3712 00eb C9       		.byte	-55
 3713 00ec 4A       		.byte	74
 3714 00ed 14       		.byte	20
 3715 00ee F6       		.byte	-10
 3716 00ef A8       		.byte	-88
 3717 00f0 74       		.byte	116
 3718 00f1 2A       		.byte	42
 3719 00f2 C8       		.byte	-56
 3720 00f3 96       		.byte	-106
 3721 00f4 15       		.byte	21
 3722 00f5 4B       		.byte	75
ARM GAS  C:\Users\RECEPC~1\AppData\Local\Temp\cckY5SBD.s 			page 85


 3723 00f6 A9       		.byte	-87
 3724 00f7 F7       		.byte	-9
 3725 00f8 B6       		.byte	-74
 3726 00f9 E8       		.byte	-24
 3727 00fa 0A       		.byte	10
 3728 00fb 54       		.byte	84
 3729 00fc D7       		.byte	-41
 3730 00fd 89       		.byte	-119
 3731 00fe 6B       		.byte	107
 3732 00ff 35       		.byte	53
 3733              		.text
 3734              	.Letext0:
 3735              		.file 2 "c:\\program files (x86)\\cypress\\psoc creator\\3.3\\psoc creator\\import\\gnu\\arm\\4.9.
 3736              		.file 3 "c:\\program files (x86)\\cypress\\psoc creator\\3.3\\psoc creator\\import\\gnu\\arm\\4.9.
 3737              		.file 4 "Generated_Source\\PSoC5/cytypes.h"
 3738              		.file 5 "./variables.h"
 3739              		.file 6 "Generated_Source\\PSoC5/core_cm3.h"
 3740              		.file 7 "Generated_Source\\PSoC5/RF_Connection.h"
 3741              		.file 8 "Generated_Source\\PSoC5/CyLib.h"
 3742              		.file 9 "./protocol.h"
 3743              		.file 10 "./I2C.h"
 3744              		.file 11 "./Print.h"
 3745              		.file 12 "Generated_Source\\PSoC5/EEPROM_1.h"
 3746              		.file 13 "./LCD.h"
 3747              		.section	.debug_info,"",%progbits
 3748              	.Ldebug_info0:
 3749 0000 82130000 		.4byte	0x1382
 3750 0004 0400     		.2byte	0x4
 3751 0006 00000000 		.4byte	.Ldebug_abbrev0
 3752 000a 04       		.byte	0x4
 3753 000b 01       		.uleb128 0x1
 3754 000c 450C0000 		.4byte	.LASF264
 3755 0010 01       		.byte	0x1
 3756 0011 A5060000 		.4byte	.LASF265
 3757 0015 4A0D0000 		.4byte	.LASF266
 3758 0019 00000000 		.4byte	.Ldebug_ranges0+0
 3759 001d 00000000 		.4byte	0
 3760 0021 00000000 		.4byte	.Ldebug_line0
 3761 0025 02       		.uleb128 0x2
 3762 0026 01       		.byte	0x1
 3763 0027 06       		.byte	0x6
 3764 0028 630E0000 		.4byte	.LASF0
 3765 002c 02       		.uleb128 0x2
 3766 002d 01       		.byte	0x1
 3767 002e 08       		.byte	0x8
 3768 002f 040C0000 		.4byte	.LASF1
 3769 0033 02       		.uleb128 0x2
 3770 0034 02       		.byte	0x2
 3771 0035 05       		.byte	0x5
 3772 0036 74090000 		.4byte	.LASF2
 3773 003a 02       		.uleb128 0x2
 3774 003b 02       		.byte	0x2
 3775 003c 07       		.byte	0x7
 3776 003d B90E0000 		.4byte	.LASF3
 3777 0041 03       		.uleb128 0x3
 3778 0042 5D010000 		.4byte	.LASF9
 3779 0046 02       		.byte	0x2
ARM GAS  C:\Users\RECEPC~1\AppData\Local\Temp\cckY5SBD.s 			page 86


 3780 0047 3F       		.byte	0x3f
 3781 0048 4C000000 		.4byte	0x4c
 3782 004c 02       		.uleb128 0x2
 3783 004d 04       		.byte	0x4
 3784 004e 05       		.byte	0x5
 3785 004f 7E090000 		.4byte	.LASF4
 3786 0053 02       		.uleb128 0x2
 3787 0054 04       		.byte	0x4
 3788 0055 07       		.byte	0x7
 3789 0056 600B0000 		.4byte	.LASF5
 3790 005a 02       		.uleb128 0x2
 3791 005b 08       		.byte	0x8
 3792 005c 05       		.byte	0x5
 3793 005d F9060000 		.4byte	.LASF6
 3794 0061 02       		.uleb128 0x2
 3795 0062 08       		.byte	0x8
 3796 0063 07       		.byte	0x7
 3797 0064 5C030000 		.4byte	.LASF7
 3798 0068 04       		.uleb128 0x4
 3799 0069 04       		.byte	0x4
 3800 006a 05       		.byte	0x5
 3801 006b 696E7400 		.ascii	"int\000"
 3802 006f 02       		.uleb128 0x2
 3803 0070 04       		.byte	0x4
 3804 0071 07       		.byte	0x7
 3805 0072 44010000 		.4byte	.LASF8
 3806 0076 03       		.uleb128 0x3
 3807 0077 AD0B0000 		.4byte	.LASF10
 3808 007b 03       		.byte	0x3
 3809 007c 2C       		.byte	0x2c
 3810 007d 41000000 		.4byte	0x41
 3811 0081 05       		.uleb128 0x5
 3812 0082 210F0000 		.4byte	.LASF11
 3813 0086 04       		.byte	0x4
 3814 0087 3801     		.2byte	0x138
 3815 0089 2C000000 		.4byte	0x2c
 3816 008d 05       		.uleb128 0x5
 3817 008e 04060000 		.4byte	.LASF12
 3818 0092 04       		.byte	0x4
 3819 0093 3901     		.2byte	0x139
 3820 0095 3A000000 		.4byte	0x3a
 3821 0099 05       		.uleb128 0x5
 3822 009a 26080000 		.4byte	.LASF13
 3823 009e 04       		.byte	0x4
 3824 009f 3A01     		.2byte	0x13a
 3825 00a1 53000000 		.4byte	0x53
 3826 00a5 02       		.uleb128 0x2
 3827 00a6 04       		.byte	0x4
 3828 00a7 04       		.byte	0x4
 3829 00a8 B0020000 		.4byte	.LASF14
 3830 00ac 02       		.uleb128 0x2
 3831 00ad 08       		.byte	0x8
 3832 00ae 04       		.byte	0x4
 3833 00af 270F0000 		.4byte	.LASF15
 3834 00b3 05       		.uleb128 0x5
 3835 00b4 FB0A0000 		.4byte	.LASF16
 3836 00b8 04       		.byte	0x4
ARM GAS  C:\Users\RECEPC~1\AppData\Local\Temp\cckY5SBD.s 			page 87


 3837 00b9 4401     		.2byte	0x144
 3838 00bb 61000000 		.4byte	0x61
 3839 00bf 05       		.uleb128 0x5
 3840 00c0 4C060000 		.4byte	.LASF17
 3841 00c4 04       		.byte	0x4
 3842 00c5 4901     		.2byte	0x149
 3843 00c7 CB000000 		.4byte	0xcb
 3844 00cb 02       		.uleb128 0x2
 3845 00cc 01       		.byte	0x1
 3846 00cd 08       		.byte	0x8
 3847 00ce 8D050000 		.4byte	.LASF18
 3848 00d2 05       		.uleb128 0x5
 3849 00d3 D20B0000 		.4byte	.LASF19
 3850 00d7 04       		.byte	0x4
 3851 00d8 DA01     		.2byte	0x1da
 3852 00da 53000000 		.4byte	0x53
 3853 00de 06       		.uleb128 0x6
 3854 00df 81000000 		.4byte	0x81
 3855 00e3 06       		.uleb128 0x6
 3856 00e4 99000000 		.4byte	0x99
 3857 00e8 02       		.uleb128 0x2
 3858 00e9 04       		.byte	0x4
 3859 00ea 07       		.byte	0x7
 3860 00eb 570B0000 		.4byte	.LASF20
 3861 00ef 07       		.uleb128 0x7
 3862 00f0 04       		.byte	0x4
 3863 00f1 08       		.uleb128 0x8
 3864 00f2 81000000 		.4byte	0x81
 3865 00f6 01010000 		.4byte	0x101
 3866 00fa 09       		.uleb128 0x9
 3867 00fb E8000000 		.4byte	0xe8
 3868 00ff 03       		.byte	0x3
 3869 0100 00       		.byte	0
 3870 0101 0A       		.uleb128 0xa
 3871 0102 1A010000 		.4byte	.LASF63
 3872 0106 4C01     		.2byte	0x14c
 3873 0108 05       		.byte	0x5
 3874 0109 81       		.byte	0x81
 3875 010a 15030000 		.4byte	0x315
 3876 010e 0B       		.uleb128 0xb
 3877 010f A3010000 		.4byte	.LASF21
 3878 0113 05       		.byte	0x5
 3879 0114 82       		.byte	0x82
 3880 0115 81000000 		.4byte	0x81
 3881 0119 00       		.byte	0
 3882 011a 0B       		.uleb128 0xb
 3883 011b 7E040000 		.4byte	.LASF22
 3884 011f 05       		.byte	0x5
 3885 0120 83       		.byte	0x83
 3886 0121 15030000 		.4byte	0x315
 3887 0125 01       		.byte	0x1
 3888 0126 0B       		.uleb128 0xb
 3889 0127 2E0F0000 		.4byte	.LASF23
 3890 012b 05       		.byte	0x5
 3891 012c 84       		.byte	0x84
 3892 012d 81000000 		.4byte	0x81
 3893 0131 1A       		.byte	0x1a
ARM GAS  C:\Users\RECEPC~1\AppData\Local\Temp\cckY5SBD.s 			page 88


 3894 0132 0B       		.uleb128 0xb
 3895 0133 F20B0000 		.4byte	.LASF24
 3896 0137 05       		.byte	0x5
 3897 0138 85       		.byte	0x85
 3898 0139 81000000 		.4byte	0x81
 3899 013d 1B       		.byte	0x1b
 3900 013e 0B       		.uleb128 0xb
 3901 013f 00020000 		.4byte	.LASF25
 3902 0143 05       		.byte	0x5
 3903 0144 86       		.byte	0x86
 3904 0145 25030000 		.4byte	0x325
 3905 0149 1C       		.byte	0x1c
 3906 014a 0B       		.uleb128 0xb
 3907 014b 0B090000 		.4byte	.LASF26
 3908 014f 05       		.byte	0x5
 3909 0150 87       		.byte	0x87
 3910 0151 25030000 		.4byte	0x325
 3911 0155 26       		.byte	0x26
 3912 0156 0B       		.uleb128 0xb
 3913 0157 820F0000 		.4byte	.LASF27
 3914 015b 05       		.byte	0x5
 3915 015c 88       		.byte	0x88
 3916 015d 15030000 		.4byte	0x315
 3917 0161 30       		.byte	0x30
 3918 0162 0B       		.uleb128 0xb
 3919 0163 B2080000 		.4byte	.LASF28
 3920 0167 05       		.byte	0x5
 3921 0168 89       		.byte	0x89
 3922 0169 81000000 		.4byte	0x81
 3923 016d 49       		.byte	0x49
 3924 016e 0B       		.uleb128 0xb
 3925 016f EF0C0000 		.4byte	.LASF29
 3926 0173 05       		.byte	0x5
 3927 0174 8A       		.byte	0x8a
 3928 0175 81000000 		.4byte	0x81
 3929 0179 4A       		.byte	0x4a
 3930 017a 0B       		.uleb128 0xb
 3931 017b 83050000 		.4byte	.LASF30
 3932 017f 05       		.byte	0x5
 3933 0180 8B       		.byte	0x8b
 3934 0181 35030000 		.4byte	0x335
 3935 0185 4B       		.byte	0x4b
 3936 0186 0B       		.uleb128 0xb
 3937 0187 DC070000 		.4byte	.LASF31
 3938 018b 05       		.byte	0x5
 3939 018c 8C       		.byte	0x8c
 3940 018d 81000000 		.4byte	0x81
 3941 0191 60       		.byte	0x60
 3942 0192 0B       		.uleb128 0xb
 3943 0193 70050000 		.4byte	.LASF32
 3944 0197 05       		.byte	0x5
 3945 0198 8D       		.byte	0x8d
 3946 0199 81000000 		.4byte	0x81
 3947 019d 61       		.byte	0x61
 3948 019e 0B       		.uleb128 0xb
 3949 019f 38010000 		.4byte	.LASF33
 3950 01a3 05       		.byte	0x5
ARM GAS  C:\Users\RECEPC~1\AppData\Local\Temp\cckY5SBD.s 			page 89


 3951 01a4 8E       		.byte	0x8e
 3952 01a5 81000000 		.4byte	0x81
 3953 01a9 62       		.byte	0x62
 3954 01aa 0B       		.uleb128 0xb
 3955 01ab A00D0000 		.4byte	.LASF34
 3956 01af 05       		.byte	0x5
 3957 01b0 8F       		.byte	0x8f
 3958 01b1 45030000 		.4byte	0x345
 3959 01b5 63       		.byte	0x63
 3960 01b6 0B       		.uleb128 0xb
 3961 01b7 2C050000 		.4byte	.LASF35
 3962 01bb 05       		.byte	0x5
 3963 01bc 90       		.byte	0x90
 3964 01bd 55030000 		.4byte	0x355
 3965 01c1 65       		.byte	0x65
 3966 01c2 0B       		.uleb128 0xb
 3967 01c3 4E040000 		.4byte	.LASF36
 3968 01c7 05       		.byte	0x5
 3969 01c8 91       		.byte	0x91
 3970 01c9 81000000 		.4byte	0x81
 3971 01cd 79       		.byte	0x79
 3972 01ce 0B       		.uleb128 0xb
 3973 01cf 1E0B0000 		.4byte	.LASF37
 3974 01d3 05       		.byte	0x5
 3975 01d4 92       		.byte	0x92
 3976 01d5 6B030000 		.4byte	0x36b
 3977 01d9 7A       		.byte	0x7a
 3978 01da 0B       		.uleb128 0xb
 3979 01db 520A0000 		.4byte	.LASF38
 3980 01df 05       		.byte	0x5
 3981 01e0 93       		.byte	0x93
 3982 01e1 7B030000 		.4byte	0x37b
 3983 01e5 7F       		.byte	0x7f
 3984 01e6 0B       		.uleb128 0xb
 3985 01e7 3D0F0000 		.4byte	.LASF39
 3986 01eb 05       		.byte	0x5
 3987 01ec 94       		.byte	0x94
 3988 01ed 7B030000 		.4byte	0x37b
 3989 01f1 85       		.byte	0x85
 3990 01f2 0B       		.uleb128 0xb
 3991 01f3 D8080000 		.4byte	.LASF40
 3992 01f7 05       		.byte	0x5
 3993 01f8 95       		.byte	0x95
 3994 01f9 8B030000 		.4byte	0x38b
 3995 01fd 8B       		.byte	0x8b
 3996 01fe 0B       		.uleb128 0xb
 3997 01ff A8030000 		.4byte	.LASF41
 3998 0203 05       		.byte	0x5
 3999 0204 96       		.byte	0x96
 4000 0205 8B030000 		.4byte	0x38b
 4001 0209 99       		.byte	0x99
 4002 020a 0B       		.uleb128 0xb
 4003 020b 96070000 		.4byte	.LASF42
 4004 020f 05       		.byte	0x5
 4005 0210 97       		.byte	0x97
 4006 0211 8B030000 		.4byte	0x38b
 4007 0215 A7       		.byte	0xa7
ARM GAS  C:\Users\RECEPC~1\AppData\Local\Temp\cckY5SBD.s 			page 90


 4008 0216 0B       		.uleb128 0xb
 4009 0217 95060000 		.4byte	.LASF43
 4010 021b 05       		.byte	0x5
 4011 021c 98       		.byte	0x98
 4012 021d 8B030000 		.4byte	0x38b
 4013 0221 B5       		.byte	0xb5
 4014 0222 0B       		.uleb128 0xb
 4015 0223 E10A0000 		.4byte	.LASF44
 4016 0227 05       		.byte	0x5
 4017 0228 99       		.byte	0x99
 4018 0229 8B030000 		.4byte	0x38b
 4019 022d C3       		.byte	0xc3
 4020 022e 0B       		.uleb128 0xb
 4021 022f 98080000 		.4byte	.LASF45
 4022 0233 05       		.byte	0x5
 4023 0234 9A       		.byte	0x9a
 4024 0235 8B030000 		.4byte	0x38b
 4025 0239 D1       		.byte	0xd1
 4026 023a 0B       		.uleb128 0xb
 4027 023b 5B090000 		.4byte	.LASF46
 4028 023f 05       		.byte	0x5
 4029 0240 9B       		.byte	0x9b
 4030 0241 9B030000 		.4byte	0x39b
 4031 0245 DF       		.byte	0xdf
 4032 0246 0B       		.uleb128 0xb
 4033 0247 A5040000 		.4byte	.LASF47
 4034 024b 05       		.byte	0x5
 4035 024c 9C       		.byte	0x9c
 4036 024d 9B030000 		.4byte	0x39b
 4037 0251 EA       		.byte	0xea
 4038 0252 0B       		.uleb128 0xb
 4039 0253 65050000 		.4byte	.LASF48
 4040 0257 05       		.byte	0x5
 4041 0258 9D       		.byte	0x9d
 4042 0259 9B030000 		.4byte	0x39b
 4043 025d F5       		.byte	0xf5
 4044 025e 0C       		.uleb128 0xc
 4045 025f 05080000 		.4byte	.LASF49
 4046 0263 05       		.byte	0x5
 4047 0264 9E       		.byte	0x9e
 4048 0265 81000000 		.4byte	0x81
 4049 0269 0001     		.2byte	0x100
 4050 026b 0C       		.uleb128 0xc
 4051 026c 40060000 		.4byte	.LASF50
 4052 0270 05       		.byte	0x5
 4053 0271 9F       		.byte	0x9f
 4054 0272 81000000 		.4byte	0x81
 4055 0276 0101     		.2byte	0x101
 4056 0278 0C       		.uleb128 0xc
 4057 0279 67010000 		.4byte	.LASF51
 4058 027d 05       		.byte	0x5
 4059 027e A0       		.byte	0xa0
 4060 027f 81000000 		.4byte	0x81
 4061 0283 0201     		.2byte	0x102
 4062 0285 0C       		.uleb128 0xc
 4063 0286 110A0000 		.4byte	.LASF52
 4064 028a 05       		.byte	0x5
ARM GAS  C:\Users\RECEPC~1\AppData\Local\Temp\cckY5SBD.s 			page 91


 4065 028b A1       		.byte	0xa1
 4066 028c 81000000 		.4byte	0x81
 4067 0290 0301     		.2byte	0x103
 4068 0292 0C       		.uleb128 0xc
 4069 0293 B0060000 		.4byte	.LASF53
 4070 0297 05       		.byte	0x5
 4071 0298 A2       		.byte	0xa2
 4072 0299 25030000 		.4byte	0x325
 4073 029d 0401     		.2byte	0x104
 4074 029f 0C       		.uleb128 0xc
 4075 02a0 DC000000 		.4byte	.LASF54
 4076 02a4 05       		.byte	0x5
 4077 02a5 A3       		.byte	0xa3
 4078 02a6 25030000 		.4byte	0x325
 4079 02aa 0E01     		.2byte	0x10e
 4080 02ac 0C       		.uleb128 0xc
 4081 02ad 7E060000 		.4byte	.LASF55
 4082 02b1 05       		.byte	0x5
 4083 02b2 A4       		.byte	0xa4
 4084 02b3 25030000 		.4byte	0x325
 4085 02b7 1801     		.2byte	0x118
 4086 02b9 0C       		.uleb128 0xc
 4087 02ba 67090000 		.4byte	.LASF56
 4088 02be 05       		.byte	0x5
 4089 02bf A5       		.byte	0xa5
 4090 02c0 AB030000 		.4byte	0x3ab
 4091 02c4 2201     		.2byte	0x122
 4092 02c6 0C       		.uleb128 0xc
 4093 02c7 BB060000 		.4byte	.LASF57
 4094 02cb 05       		.byte	0x5
 4095 02cc A6       		.byte	0xa6
 4096 02cd 45030000 		.4byte	0x345
 4097 02d1 3101     		.2byte	0x131
 4098 02d3 0C       		.uleb128 0xc
 4099 02d4 B1040000 		.4byte	.LASF58
 4100 02d8 05       		.byte	0x5
 4101 02d9 A7       		.byte	0xa7
 4102 02da 81000000 		.4byte	0x81
 4103 02de 3301     		.2byte	0x133
 4104 02e0 0C       		.uleb128 0xc
 4105 02e1 A30B0000 		.4byte	.LASF59
 4106 02e5 05       		.byte	0x5
 4107 02e6 A8       		.byte	0xa8
 4108 02e7 81000000 		.4byte	0x81
 4109 02eb 3401     		.2byte	0x134
 4110 02ed 0C       		.uleb128 0xc
 4111 02ee CF040000 		.4byte	.LASF60
 4112 02f2 05       		.byte	0x5
 4113 02f3 A9       		.byte	0xa9
 4114 02f4 81000000 		.4byte	0x81
 4115 02f8 3501     		.2byte	0x135
 4116 02fa 0C       		.uleb128 0xc
 4117 02fb BB090000 		.4byte	.LASF61
 4118 02ff 05       		.byte	0x5
 4119 0300 AA       		.byte	0xaa
 4120 0301 9B030000 		.4byte	0x39b
 4121 0305 3601     		.2byte	0x136
ARM GAS  C:\Users\RECEPC~1\AppData\Local\Temp\cckY5SBD.s 			page 92


 4122 0307 0C       		.uleb128 0xc
 4123 0308 280E0000 		.4byte	.LASF62
 4124 030c 05       		.byte	0x5
 4125 030d AB       		.byte	0xab
 4126 030e 9B030000 		.4byte	0x39b
 4127 0312 4101     		.2byte	0x141
 4128 0314 00       		.byte	0
 4129 0315 08       		.uleb128 0x8
 4130 0316 81000000 		.4byte	0x81
 4131 031a 25030000 		.4byte	0x325
 4132 031e 09       		.uleb128 0x9
 4133 031f E8000000 		.4byte	0xe8
 4134 0323 18       		.byte	0x18
 4135 0324 00       		.byte	0
 4136 0325 08       		.uleb128 0x8
 4137 0326 81000000 		.4byte	0x81
 4138 032a 35030000 		.4byte	0x335
 4139 032e 09       		.uleb128 0x9
 4140 032f E8000000 		.4byte	0xe8
 4141 0333 09       		.byte	0x9
 4142 0334 00       		.byte	0
 4143 0335 08       		.uleb128 0x8
 4144 0336 81000000 		.4byte	0x81
 4145 033a 45030000 		.4byte	0x345
 4146 033e 09       		.uleb128 0x9
 4147 033f E8000000 		.4byte	0xe8
 4148 0343 14       		.byte	0x14
 4149 0344 00       		.byte	0
 4150 0345 08       		.uleb128 0x8
 4151 0346 81000000 		.4byte	0x81
 4152 034a 55030000 		.4byte	0x355
 4153 034e 09       		.uleb128 0x9
 4154 034f E8000000 		.4byte	0xe8
 4155 0353 01       		.byte	0x1
 4156 0354 00       		.byte	0
 4157 0355 08       		.uleb128 0x8
 4158 0356 81000000 		.4byte	0x81
 4159 035a 6B030000 		.4byte	0x36b
 4160 035e 09       		.uleb128 0x9
 4161 035f E8000000 		.4byte	0xe8
 4162 0363 01       		.byte	0x1
 4163 0364 09       		.uleb128 0x9
 4164 0365 E8000000 		.4byte	0xe8
 4165 0369 09       		.byte	0x9
 4166 036a 00       		.byte	0
 4167 036b 08       		.uleb128 0x8
 4168 036c 81000000 		.4byte	0x81
 4169 0370 7B030000 		.4byte	0x37b
 4170 0374 09       		.uleb128 0x9
 4171 0375 E8000000 		.4byte	0xe8
 4172 0379 04       		.byte	0x4
 4173 037a 00       		.byte	0
 4174 037b 08       		.uleb128 0x8
 4175 037c 81000000 		.4byte	0x81
 4176 0380 8B030000 		.4byte	0x38b
 4177 0384 09       		.uleb128 0x9
 4178 0385 E8000000 		.4byte	0xe8
ARM GAS  C:\Users\RECEPC~1\AppData\Local\Temp\cckY5SBD.s 			page 93


 4179 0389 05       		.byte	0x5
 4180 038a 00       		.byte	0
 4181 038b 08       		.uleb128 0x8
 4182 038c 81000000 		.4byte	0x81
 4183 0390 9B030000 		.4byte	0x39b
 4184 0394 09       		.uleb128 0x9
 4185 0395 E8000000 		.4byte	0xe8
 4186 0399 0D       		.byte	0xd
 4187 039a 00       		.byte	0
 4188 039b 08       		.uleb128 0x8
 4189 039c 81000000 		.4byte	0x81
 4190 03a0 AB030000 		.4byte	0x3ab
 4191 03a4 09       		.uleb128 0x9
 4192 03a5 E8000000 		.4byte	0xe8
 4193 03a9 0A       		.byte	0xa
 4194 03aa 00       		.byte	0
 4195 03ab 08       		.uleb128 0x8
 4196 03ac 81000000 		.4byte	0x81
 4197 03b0 BB030000 		.4byte	0x3bb
 4198 03b4 09       		.uleb128 0x9
 4199 03b5 E8000000 		.4byte	0xe8
 4200 03b9 0E       		.byte	0xe
 4201 03ba 00       		.byte	0
 4202 03bb 0A       		.uleb128 0xa
 4203 03bc 950F0000 		.4byte	.LASF64
 4204 03c0 1201     		.2byte	0x112
 4205 03c2 05       		.byte	0x5
 4206 03c3 BC       		.byte	0xbc
 4207 03c4 92040000 		.4byte	0x492
 4208 03c8 0D       		.uleb128 0xd
 4209 03c9 64697200 		.ascii	"dir\000"
 4210 03cd 05       		.byte	0x5
 4211 03ce BD       		.byte	0xbd
 4212 03cf 81000000 		.4byte	0x81
 4213 03d3 00       		.byte	0
 4214 03d4 0B       		.uleb128 0xb
 4215 03d5 1F050000 		.4byte	.LASF65
 4216 03d9 05       		.byte	0x5
 4217 03da BE       		.byte	0xbe
 4218 03db 92040000 		.4byte	0x492
 4219 03df 01       		.byte	0x1
 4220 03e0 0B       		.uleb128 0xb
 4221 03e1 740F0000 		.4byte	.LASF66
 4222 03e5 05       		.byte	0x5
 4223 03e6 BF       		.byte	0xbf
 4224 03e7 AE040000 		.4byte	0x4ae
 4225 03eb B5       		.byte	0xb5
 4226 03ec 0B       		.uleb128 0xb
 4227 03ed EF060000 		.4byte	.LASF67
 4228 03f1 05       		.byte	0x5
 4229 03f2 C0       		.byte	0xc0
 4230 03f3 8B030000 		.4byte	0x38b
 4231 03f7 D5       		.byte	0xd5
 4232 03f8 0B       		.uleb128 0xb
 4233 03f9 030E0000 		.4byte	.LASF68
 4234 03fd 05       		.byte	0x5
 4235 03fe C1       		.byte	0xc1
ARM GAS  C:\Users\RECEPC~1\AppData\Local\Temp\cckY5SBD.s 			page 94


 4236 03ff 8B030000 		.4byte	0x38b
 4237 0403 E3       		.byte	0xe3
 4238 0404 0B       		.uleb128 0xb
 4239 0405 4D070000 		.4byte	.LASF69
 4240 0409 05       		.byte	0x5
 4241 040a C2       		.byte	0xc2
 4242 040b 8B030000 		.4byte	0x38b
 4243 040f F1       		.byte	0xf1
 4244 0410 0B       		.uleb128 0xb
 4245 0411 000F0000 		.4byte	.LASF70
 4246 0415 05       		.byte	0x5
 4247 0416 C3       		.byte	0xc3
 4248 0417 81000000 		.4byte	0x81
 4249 041b FF       		.byte	0xff
 4250 041c 0C       		.uleb128 0xc
 4251 041d 980B0000 		.4byte	.LASF71
 4252 0421 05       		.byte	0x5
 4253 0422 C4       		.byte	0xc4
 4254 0423 81000000 		.4byte	0x81
 4255 0427 0001     		.2byte	0x100
 4256 0429 0C       		.uleb128 0xc
 4257 042a 35030000 		.4byte	.LASF72
 4258 042e 05       		.byte	0x5
 4259 042f C5       		.byte	0xc5
 4260 0430 81000000 		.4byte	0x81
 4261 0434 0101     		.2byte	0x101
 4262 0436 0C       		.uleb128 0xc
 4263 0437 610A0000 		.4byte	.LASF73
 4264 043b 05       		.byte	0x5
 4265 043c C6       		.byte	0xc6
 4266 043d 81000000 		.4byte	0x81
 4267 0441 0201     		.2byte	0x102
 4268 0443 0C       		.uleb128 0xc
 4269 0444 AE0F0000 		.4byte	.LASF74
 4270 0448 05       		.byte	0x5
 4271 0449 C7       		.byte	0xc7
 4272 044a 81000000 		.4byte	0x81
 4273 044e 0301     		.2byte	0x103
 4274 0450 0C       		.uleb128 0xc
 4275 0451 36060000 		.4byte	.LASF75
 4276 0455 05       		.byte	0x5
 4277 0456 C8       		.byte	0xc8
 4278 0457 81000000 		.4byte	0x81
 4279 045b 0401     		.2byte	0x104
 4280 045d 0C       		.uleb128 0xc
 4281 045e 20020000 		.4byte	.LASF76
 4282 0462 05       		.byte	0x5
 4283 0463 C9       		.byte	0xc9
 4284 0464 81000000 		.4byte	0x81
 4285 0468 0501     		.2byte	0x105
 4286 046a 0C       		.uleb128 0xc
 4287 046b 370F0000 		.4byte	.LASF77
 4288 046f 05       		.byte	0x5
 4289 0470 CA       		.byte	0xca
 4290 0471 81000000 		.4byte	0x81
 4291 0475 0601     		.2byte	0x106
 4292 0477 0C       		.uleb128 0xc
ARM GAS  C:\Users\RECEPC~1\AppData\Local\Temp\cckY5SBD.s 			page 95


 4293 0478 CE000000 		.4byte	.LASF78
 4294 047c 05       		.byte	0x5
 4295 047d CB       		.byte	0xcb
 4296 047e 81000000 		.4byte	0x81
 4297 0482 0701     		.2byte	0x107
 4298 0484 0C       		.uleb128 0xc
 4299 0485 B50B0000 		.4byte	.LASF79
 4300 0489 05       		.byte	0x5
 4301 048a CC       		.byte	0xcc
 4302 048b 25030000 		.4byte	0x325
 4303 048f 0801     		.2byte	0x108
 4304 0491 00       		.byte	0
 4305 0492 08       		.uleb128 0x8
 4306 0493 81000000 		.4byte	0x81
 4307 0497 AE040000 		.4byte	0x4ae
 4308 049b 09       		.uleb128 0x9
 4309 049c E8000000 		.4byte	0xe8
 4310 04a0 03       		.byte	0x3
 4311 04a1 09       		.uleb128 0x9
 4312 04a2 E8000000 		.4byte	0xe8
 4313 04a6 02       		.byte	0x2
 4314 04a7 09       		.uleb128 0x9
 4315 04a8 E8000000 		.4byte	0xe8
 4316 04ac 0E       		.byte	0xe
 4317 04ad 00       		.byte	0
 4318 04ae 08       		.uleb128 0x8
 4319 04af 81000000 		.4byte	0x81
 4320 04b3 C4040000 		.4byte	0x4c4
 4321 04b7 09       		.uleb128 0x9
 4322 04b8 E8000000 		.4byte	0xe8
 4323 04bc 03       		.byte	0x3
 4324 04bd 09       		.uleb128 0x9
 4325 04be E8000000 		.4byte	0xe8
 4326 04c2 07       		.byte	0x7
 4327 04c3 00       		.byte	0
 4328 04c4 0A       		.uleb128 0xa
 4329 04c5 260D0000 		.4byte	.LASF80
 4330 04c9 4804     		.2byte	0x448
 4331 04cb 05       		.byte	0x5
 4332 04cc CF       		.byte	0xcf
 4333 04cd FD040000 		.4byte	0x4fd
 4334 04d1 0D       		.uleb128 0xd
 4335 04d2 6100     		.ascii	"a\000"
 4336 04d4 05       		.byte	0x5
 4337 04d5 D0       		.byte	0xd0
 4338 04d6 BB030000 		.4byte	0x3bb
 4339 04da 00       		.byte	0
 4340 04db 0E       		.uleb128 0xe
 4341 04dc 6200     		.ascii	"b\000"
 4342 04de 05       		.byte	0x5
 4343 04df D1       		.byte	0xd1
 4344 04e0 BB030000 		.4byte	0x3bb
 4345 04e4 1201     		.2byte	0x112
 4346 04e6 0E       		.uleb128 0xe
 4347 04e7 6300     		.ascii	"c\000"
 4348 04e9 05       		.byte	0x5
 4349 04ea D2       		.byte	0xd2
ARM GAS  C:\Users\RECEPC~1\AppData\Local\Temp\cckY5SBD.s 			page 96


 4350 04eb BB030000 		.4byte	0x3bb
 4351 04ef 2402     		.2byte	0x224
 4352 04f1 0E       		.uleb128 0xe
 4353 04f2 6400     		.ascii	"d\000"
 4354 04f4 05       		.byte	0x5
 4355 04f5 D3       		.byte	0xd3
 4356 04f6 BB030000 		.4byte	0x3bb
 4357 04fa 3603     		.2byte	0x336
 4358 04fc 00       		.byte	0
 4359 04fd 0F       		.uleb128 0xf
 4360 04fe D60E0000 		.4byte	.LASF138
 4361 0502 01       		.byte	0x1
 4362 0503 05       		.byte	0x5
 4363 0504 E9       		.byte	0xe9
 4364 0505 76060000 		.4byte	0x676
 4365 0509 10       		.uleb128 0x10
 4366 050a F20E0000 		.4byte	.LASF81
 4367 050e 00       		.sleb128 0
 4368 050f 10       		.uleb128 0x10
 4369 0510 CE050000 		.4byte	.LASF82
 4370 0514 01       		.sleb128 1
 4371 0515 10       		.uleb128 0x10
 4372 0516 F4050000 		.4byte	.LASF83
 4373 051a 02       		.sleb128 2
 4374 051b 10       		.uleb128 0x10
 4375 051c BF040000 		.4byte	.LASF84
 4376 0520 03       		.sleb128 3
 4377 0521 10       		.uleb128 0x10
 4378 0522 38050000 		.4byte	.LASF85
 4379 0526 04       		.sleb128 4
 4380 0527 10       		.uleb128 0x10
 4381 0528 0B060000 		.4byte	.LASF86
 4382 052c 05       		.sleb128 5
 4383 052d 10       		.uleb128 0x10
 4384 052e 33090000 		.4byte	.LASF87
 4385 0532 06       		.sleb128 6
 4386 0533 10       		.uleb128 0x10
 4387 0534 D1010000 		.4byte	.LASF88
 4388 0538 0F       		.sleb128 15
 4389 0539 10       		.uleb128 0x10
 4390 053a 6F0E0000 		.4byte	.LASF89
 4391 053e FE00     		.sleb128 126
 4392 0540 10       		.uleb128 0x10
 4393 0541 8C0E0000 		.4byte	.LASF90
 4394 0545 8601     		.sleb128 134
 4395 0547 10       		.uleb128 0x10
 4396 0548 1A070000 		.4byte	.LASF91
 4397 054c 07       		.sleb128 7
 4398 054d 10       		.uleb128 0x10
 4399 054e 4A080000 		.4byte	.LASF92
 4400 0552 08       		.sleb128 8
 4401 0553 10       		.uleb128 0x10
 4402 0554 720B0000 		.4byte	.LASF93
 4403 0558 09       		.sleb128 9
 4404 0559 10       		.uleb128 0x10
 4405 055a EB080000 		.4byte	.LASF94
 4406 055e 0A       		.sleb128 10
ARM GAS  C:\Users\RECEPC~1\AppData\Local\Temp\cckY5SBD.s 			page 97


 4407 055f 10       		.uleb128 0x10
 4408 0560 53020000 		.4byte	.LASF95
 4409 0564 0B       		.sleb128 11
 4410 0565 10       		.uleb128 0x10
 4411 0566 2E000000 		.4byte	.LASF96
 4412 056a 25       		.sleb128 37
 4413 056b 10       		.uleb128 0x10
 4414 056c C4070000 		.4byte	.LASF97
 4415 0570 26       		.sleb128 38
 4416 0571 10       		.uleb128 0x10
 4417 0572 76010000 		.4byte	.LASF98
 4418 0576 27       		.sleb128 39
 4419 0577 10       		.uleb128 0x10
 4420 0578 C3090000 		.4byte	.LASF99
 4421 057c 2F       		.sleb128 47
 4422 057d 10       		.uleb128 0x10
 4423 057e A3090000 		.4byte	.LASF100
 4424 0582 2C       		.sleb128 44
 4425 0583 10       		.uleb128 0x10
 4426 0584 560F0000 		.4byte	.LASF101
 4427 0588 0C       		.sleb128 12
 4428 0589 10       		.uleb128 0x10
 4429 058a 8F0A0000 		.4byte	.LASF102
 4430 058e 8501     		.sleb128 133
 4431 0590 10       		.uleb128 0x10
 4432 0591 D40D0000 		.4byte	.LASF103
 4433 0595 1C       		.sleb128 28
 4434 0596 10       		.uleb128 0x10
 4435 0597 FD020000 		.4byte	.LASF104
 4436 059b 12       		.sleb128 18
 4437 059c 10       		.uleb128 0x10
 4438 059d 7A080000 		.4byte	.LASF105
 4439 05a1 13       		.sleb128 19
 4440 05a2 10       		.uleb128 0x10
 4441 05a3 1D0A0000 		.4byte	.LASF106
 4442 05a7 24       		.sleb128 36
 4443 05a8 10       		.uleb128 0x10
 4444 05a9 8D030000 		.4byte	.LASF107
 4445 05ad 0D       		.sleb128 13
 4446 05ae 10       		.uleb128 0x10
 4447 05af 5F060000 		.4byte	.LASF108
 4448 05b3 0E       		.sleb128 14
 4449 05b4 10       		.uleb128 0x10
 4450 05b5 B00A0000 		.4byte	.LASF109
 4451 05b9 8301     		.sleb128 131
 4452 05bb 10       		.uleb128 0x10
 4453 05bc BC030000 		.4byte	.LASF110
 4454 05c0 DA00     		.sleb128 90
 4455 05c2 10       		.uleb128 0x10
 4456 05c3 0C0F0000 		.4byte	.LASF111
 4457 05c7 31       		.sleb128 49
 4458 05c8 10       		.uleb128 0x10
 4459 05c9 370A0000 		.4byte	.LASF112
 4460 05cd 35       		.sleb128 53
 4461 05ce 10       		.uleb128 0x10
 4462 05cf 290C0000 		.4byte	.LASF113
 4463 05d3 2E       		.sleb128 46
ARM GAS  C:\Users\RECEPC~1\AppData\Local\Temp\cckY5SBD.s 			page 98


 4464 05d4 10       		.uleb128 0x10
 4465 05d5 D30C0000 		.4byte	.LASF114
 4466 05d9 8C01     		.sleb128 140
 4467 05db 10       		.uleb128 0x10
 4468 05dc E1030000 		.4byte	.LASF115
 4469 05e0 9601     		.sleb128 150
 4470 05e2 10       		.uleb128 0x10
 4471 05e3 F8090000 		.4byte	.LASF116
 4472 05e7 39       		.sleb128 57
 4473 05e8 10       		.uleb128 0x10
 4474 05e9 7E020000 		.4byte	.LASF117
 4475 05ed 9701     		.sleb128 151
 4476 05ef 10       		.uleb128 0x10
 4477 05f0 68000000 		.4byte	.LASF118
 4478 05f4 9801     		.sleb128 152
 4479 05f6 10       		.uleb128 0x10
 4480 05f7 DA090000 		.4byte	.LASF119
 4481 05fb 3E       		.sleb128 62
 4482 05fc 10       		.uleb128 0x10
 4483 05fd 21000000 		.4byte	.LASF120
 4484 0601 3F       		.sleb128 63
 4485 0602 10       		.uleb128 0x10
 4486 0603 25090000 		.4byte	.LASF121
 4487 0607 C000     		.sleb128 64
 4488 0609 10       		.uleb128 0x10
 4489 060a 110D0000 		.4byte	.LASF122
 4490 060e 8D01     		.sleb128 141
 4491 0610 10       		.uleb128 0x10
 4492 0611 82070000 		.4byte	.LASF123
 4493 0615 23       		.sleb128 35
 4494 0616 10       		.uleb128 0x10
 4495 0617 350D0000 		.4byte	.LASF124
 4496 061b 2A       		.sleb128 42
 4497 061c 10       		.uleb128 0x10
 4498 061d DB0B0000 		.4byte	.LASF125
 4499 0621 2B       		.sleb128 43
 4500 0622 10       		.uleb128 0x10
 4501 0623 120C0000 		.4byte	.LASF126
 4502 0627 3C       		.sleb128 60
 4503 0628 10       		.uleb128 0x10
 4504 0629 AB0D0000 		.4byte	.LASF127
 4505 062d C100     		.sleb128 65
 4506 062f 10       		.uleb128 0x10
 4507 0630 B6020000 		.4byte	.LASF128
 4508 0634 EB00     		.sleb128 107
 4509 0636 10       		.uleb128 0x10
 4510 0637 47000000 		.4byte	.LASF129
 4511 063b E700     		.sleb128 103
 4512 063d 10       		.uleb128 0x10
 4513 063e 2E070000 		.4byte	.LASF130
 4514 0642 E400     		.sleb128 100
 4515 0644 10       		.uleb128 0x10
 4516 0645 E8000000 		.4byte	.LASF131
 4517 0649 E500     		.sleb128 101
 4518 064b 10       		.uleb128 0x10
 4519 064c BF000000 		.4byte	.LASF132
 4520 0650 9901     		.sleb128 153
ARM GAS  C:\Users\RECEPC~1\AppData\Local\Temp\cckY5SBD.s 			page 99


 4521 0652 10       		.uleb128 0x10
 4522 0653 360E0000 		.4byte	.LASF133
 4523 0657 9A01     		.sleb128 154
 4524 0659 10       		.uleb128 0x10
 4525 065a 450E0000 		.4byte	.LASF134
 4526 065e 9B01     		.sleb128 155
 4527 0660 10       		.uleb128 0x10
 4528 0661 540E0000 		.4byte	.LASF135
 4529 0665 9C01     		.sleb128 156
 4530 0667 10       		.uleb128 0x10
 4531 0668 AA010000 		.4byte	.LASF136
 4532 066c FA01     		.sleb128 250
 4533 066e 10       		.uleb128 0x10
 4534 066f B7070000 		.4byte	.LASF137
 4535 0673 FF01     		.sleb128 255
 4536 0675 00       		.byte	0
 4537 0676 11       		.uleb128 0x11
 4538 0677 07040000 		.4byte	.LASF139
 4539 067b 01       		.byte	0x1
 4540 067c 05       		.byte	0x5
 4541 067d 3401     		.2byte	0x134
 4542 067f B4060000 		.4byte	0x6b4
 4543 0683 10       		.uleb128 0x10
 4544 0684 52030000 		.4byte	.LASF140
 4545 0688 00       		.sleb128 0
 4546 0689 10       		.uleb128 0x10
 4547 068a A6020000 		.4byte	.LASF141
 4548 068e 06       		.sleb128 6
 4549 068f 10       		.uleb128 0x10
 4550 0690 E8070000 		.4byte	.LASF142
 4551 0694 07       		.sleb128 7
 4552 0695 10       		.uleb128 0x10
 4553 0696 2D080000 		.4byte	.LASF143
 4554 069a 08       		.sleb128 8
 4555 069b 10       		.uleb128 0x10
 4556 069c 79050000 		.4byte	.LASF144
 4557 06a0 09       		.sleb128 9
 4558 06a1 10       		.uleb128 0x10
 4559 06a2 2B0D0000 		.4byte	.LASF145
 4560 06a6 0A       		.sleb128 10
 4561 06a7 10       		.uleb128 0x10
 4562 06a8 83030000 		.4byte	.LASF146
 4563 06ac 0B       		.sleb128 11
 4564 06ad 10       		.uleb128 0x10
 4565 06ae A3050000 		.4byte	.LASF147
 4566 06b2 0C       		.sleb128 12
 4567 06b3 00       		.byte	0
 4568 06b4 11       		.uleb128 0x11
 4569 06b5 99040000 		.4byte	.LASF148
 4570 06b9 01       		.byte	0x1
 4571 06ba 05       		.byte	0x5
 4572 06bb 4001     		.2byte	0x140
 4573 06bd F8060000 		.4byte	0x6f8
 4574 06c1 10       		.uleb128 0x10
 4575 06c2 90080000 		.4byte	.LASF149
 4576 06c6 08       		.sleb128 8
 4577 06c7 10       		.uleb128 0x10
ARM GAS  C:\Users\RECEPC~1\AppData\Local\Temp\cckY5SBD.s 			page 100


 4578 06c8 A20A0000 		.4byte	.LASF150
 4579 06cc 01       		.sleb128 1
 4580 06cd 10       		.uleb128 0x10
 4581 06ce C00B0000 		.4byte	.LASF151
 4582 06d2 02       		.sleb128 2
 4583 06d3 10       		.uleb128 0x10
 4584 06d4 CD060000 		.4byte	.LASF152
 4585 06d8 03       		.sleb128 3
 4586 06d9 10       		.uleb128 0x10
 4587 06da 73030000 		.4byte	.LASF153
 4588 06de 05       		.sleb128 5
 4589 06df 10       		.uleb128 0x10
 4590 06e0 7B0A0000 		.4byte	.LASF154
 4591 06e4 06       		.sleb128 6
 4592 06e5 10       		.uleb128 0x10
 4593 06e6 ED0D0000 		.4byte	.LASF155
 4594 06ea 04       		.sleb128 4
 4595 06eb 10       		.uleb128 0x10
 4596 06ec 010D0000 		.4byte	.LASF156
 4597 06f0 0B       		.sleb128 11
 4598 06f1 10       		.uleb128 0x10
 4599 06f2 52060000 		.4byte	.LASF157
 4600 06f6 0C       		.sleb128 12
 4601 06f7 00       		.byte	0
 4602 06f8 12       		.uleb128 0x12
 4603 06f9 04       		.byte	0x4
 4604 06fa FE060000 		.4byte	0x6fe
 4605 06fe 13       		.uleb128 0x13
 4606 06ff 14       		.uleb128 0x14
 4607 0700 DF060000 		.4byte	.LASF267
 4608 0704 01       		.byte	0x1
 4609 0705 17       		.byte	0x17
 4610 0706 81000000 		.4byte	0x81
 4611 070a 00000000 		.4byte	.LFB63
 4612 070e 34000000 		.4byte	.LFE63-.LFB63
 4613 0712 01       		.uleb128 0x1
 4614 0713 9C       		.byte	0x9c
 4615 0714 91070000 		.4byte	0x791
 4616 0718 15       		.uleb128 0x15
 4617 0719 87060000 		.4byte	.LASF158
 4618 071d 01       		.byte	0x1
 4619 071e 17       		.byte	0x17
 4620 071f 91070000 		.4byte	0x791
 4621 0723 00000000 		.4byte	.LLST0
 4622 0727 15       		.uleb128 0x15
 4623 0728 12080000 		.4byte	.LASF159
 4624 072c 01       		.byte	0x1
 4625 072d 17       		.byte	0x17
 4626 072e 8D000000 		.4byte	0x8d
 4627 0732 2C000000 		.4byte	.LLST1
 4628 0736 16       		.uleb128 0x16
 4629 0737 DB020000 		.4byte	.LASF160
 4630 073b 01       		.byte	0x1
 4631 073c 18       		.byte	0x18
 4632 073d 81000000 		.4byte	0x81
 4633 0741 4D000000 		.4byte	.LLST2
 4634 0745 16       		.uleb128 0x16
ARM GAS  C:\Users\RECEPC~1\AppData\Local\Temp\cckY5SBD.s 			page 101


 4635 0746 EB020000 		.4byte	.LASF161
 4636 074a 01       		.byte	0x1
 4637 074b 18       		.byte	0x18
 4638 074c 81000000 		.4byte	0x81
 4639 0750 77000000 		.4byte	.LLST3
 4640 0754 17       		.uleb128 0x17
 4641 0755 6900     		.ascii	"i\000"
 4642 0757 01       		.byte	0x1
 4643 0758 19       		.byte	0x19
 4644 0759 8D000000 		.4byte	0x8d
 4645 075d 8A000000 		.4byte	.LLST4
 4646 0761 18       		.uleb128 0x18
 4647 0762 C8050000 		.4byte	.LASF162
 4648 0766 01       		.byte	0x1
 4649 0767 1A       		.byte	0x1a
 4650 0768 97070000 		.4byte	0x797
 4651 076c 03       		.uleb128 0x3
 4652 076d 91       		.byte	0x91
 4653 076e F07D     		.sleb128 -272
 4654 0770 19       		.uleb128 0x19
 4655 0771 14000000 		.4byte	.LVL3
 4656 0775 7F120000 		.4byte	0x127f
 4657 0779 1A       		.uleb128 0x1a
 4658 077a 01       		.uleb128 0x1
 4659 077b 52       		.byte	0x52
 4660 077c 03       		.uleb128 0x3
 4661 077d 0A       		.byte	0xa
 4662 077e 0001     		.2byte	0x100
 4663 0780 1A       		.uleb128 0x1a
 4664 0781 01       		.uleb128 0x1
 4665 0782 51       		.byte	0x51
 4666 0783 05       		.uleb128 0x5
 4667 0784 03       		.byte	0x3
 4668 0785 00000000 		.4byte	.LANCHOR0
 4669 0789 1A       		.uleb128 0x1a
 4670 078a 01       		.uleb128 0x1
 4671 078b 50       		.byte	0x50
 4672 078c 02       		.uleb128 0x2
 4673 078d 7D       		.byte	0x7d
 4674 078e 00       		.sleb128 0
 4675 078f 00       		.byte	0
 4676 0790 00       		.byte	0
 4677 0791 12       		.uleb128 0x12
 4678 0792 04       		.byte	0x4
 4679 0793 81000000 		.4byte	0x81
 4680 0797 08       		.uleb128 0x8
 4681 0798 81000000 		.4byte	0x81
 4682 079c A7070000 		.4byte	0x7a7
 4683 07a0 09       		.uleb128 0x9
 4684 07a1 E8000000 		.4byte	0xe8
 4685 07a5 FF       		.byte	0xff
 4686 07a6 00       		.byte	0
 4687 07a7 1B       		.uleb128 0x1b
 4688 07a8 02010000 		.4byte	.LASF163
 4689 07ac 01       		.byte	0x1
 4690 07ad 5901     		.2byte	0x159
 4691 07af 00000000 		.4byte	.LFB65
ARM GAS  C:\Users\RECEPC~1\AppData\Local\Temp\cckY5SBD.s 			page 102


 4692 07b3 34050000 		.4byte	.LFE65-.LFB65
 4693 07b7 01       		.uleb128 0x1
 4694 07b8 9C       		.byte	0x9c
 4695 07b9 7C080000 		.4byte	0x87c
 4696 07bd 1C       		.uleb128 0x1c
 4697 07be 7800     		.ascii	"x\000"
 4698 07c0 01       		.byte	0x1
 4699 07c1 5A01     		.2byte	0x15a
 4700 07c3 8D000000 		.4byte	0x8d
 4701 07c7 B4000000 		.4byte	.LLST5
 4702 07cb 1C       		.uleb128 0x1c
 4703 07cc 7900     		.ascii	"y\000"
 4704 07ce 01       		.byte	0x1
 4705 07cf 5A01     		.2byte	0x15a
 4706 07d1 8D000000 		.4byte	0x8d
 4707 07d5 C5020000 		.4byte	.LLST6
 4708 07d9 1C       		.uleb128 0x1c
 4709 07da 7A00     		.ascii	"z\000"
 4710 07dc 01       		.byte	0x1
 4711 07dd 5A01     		.2byte	0x15a
 4712 07df 8D000000 		.4byte	0x8d
 4713 07e3 9C030000 		.4byte	.LLST7
 4714 07e7 1D       		.uleb128 0x1d
 4715 07e8 FC000000 		.4byte	.LVL27
 4716 07ec FF060000 		.4byte	0x6ff
 4717 07f0 01080000 		.4byte	0x801
 4718 07f4 1A       		.uleb128 0x1a
 4719 07f5 01       		.uleb128 0x1
 4720 07f6 51       		.byte	0x51
 4721 07f7 02       		.uleb128 0x2
 4722 07f8 08       		.byte	0x8
 4723 07f9 27       		.byte	0x27
 4724 07fa 1A       		.uleb128 0x1a
 4725 07fb 01       		.uleb128 0x1
 4726 07fc 50       		.byte	0x50
 4727 07fd 02       		.uleb128 0x2
 4728 07fe 75       		.byte	0x75
 4729 07ff 00       		.sleb128 0
 4730 0800 00       		.byte	0
 4731 0801 1E       		.uleb128 0x1e
 4732 0802 0A010000 		.4byte	.LVL30
 4733 0806 9C120000 		.4byte	0x129c
 4734 080a 1D       		.uleb128 0x1d
 4735 080b 74020000 		.4byte	.LVL57
 4736 080f FF060000 		.4byte	0x6ff
 4737 0813 23080000 		.4byte	0x823
 4738 0817 1A       		.uleb128 0x1a
 4739 0818 01       		.uleb128 0x1
 4740 0819 51       		.byte	0x51
 4741 081a 01       		.uleb128 0x1
 4742 081b 4F       		.byte	0x4f
 4743 081c 1A       		.uleb128 0x1a
 4744 081d 01       		.uleb128 0x1
 4745 081e 50       		.byte	0x50
 4746 081f 02       		.uleb128 0x2
 4747 0820 75       		.byte	0x75
 4748 0821 00       		.sleb128 0
ARM GAS  C:\Users\RECEPC~1\AppData\Local\Temp\cckY5SBD.s 			page 103


 4749 0822 00       		.byte	0
 4750 0823 1E       		.uleb128 0x1e
 4751 0824 A8020000 		.4byte	.LVL60
 4752 0828 9C120000 		.4byte	0x129c
 4753 082c 1D       		.uleb128 0x1d
 4754 082d 5A030000 		.4byte	.LVL70
 4755 0831 FF060000 		.4byte	0x6ff
 4756 0835 46080000 		.4byte	0x846
 4757 0839 1A       		.uleb128 0x1a
 4758 083a 01       		.uleb128 0x1
 4759 083b 51       		.byte	0x51
 4760 083c 02       		.uleb128 0x2
 4761 083d 08       		.byte	0x8
 4762 083e 21       		.byte	0x21
 4763 083f 1A       		.uleb128 0x1a
 4764 0840 01       		.uleb128 0x1
 4765 0841 50       		.byte	0x50
 4766 0842 02       		.uleb128 0x2
 4767 0843 75       		.byte	0x75
 4768 0844 00       		.sleb128 0
 4769 0845 00       		.byte	0
 4770 0846 1E       		.uleb128 0x1e
 4771 0847 68030000 		.4byte	.LVL73
 4772 084b 9C120000 		.4byte	0x129c
 4773 084f 1E       		.uleb128 0x1e
 4774 0850 98030000 		.4byte	.LVL77
 4775 0854 AD120000 		.4byte	0x12ad
 4776 0858 1D       		.uleb128 0x1d
 4777 0859 EE040000 		.4byte	.LVL124
 4778 085d FF060000 		.4byte	0x6ff
 4779 0861 72080000 		.4byte	0x872
 4780 0865 1A       		.uleb128 0x1a
 4781 0866 01       		.uleb128 0x1
 4782 0867 51       		.byte	0x51
 4783 0868 02       		.uleb128 0x2
 4784 0869 75       		.byte	0x75
 4785 086a 00       		.sleb128 0
 4786 086b 1A       		.uleb128 0x1a
 4787 086c 01       		.uleb128 0x1
 4788 086d 50       		.byte	0x50
 4789 086e 02       		.uleb128 0x2
 4790 086f 76       		.byte	0x76
 4791 0870 00       		.sleb128 0
 4792 0871 00       		.byte	0
 4793 0872 1E       		.uleb128 0x1e
 4794 0873 FC040000 		.4byte	.LVL127
 4795 0877 9C120000 		.4byte	0x129c
 4796 087b 00       		.byte	0
 4797 087c 1B       		.uleb128 0x1b
 4798 087d C3080000 		.4byte	.LASF164
 4799 0881 01       		.byte	0x1
 4800 0882 1B02     		.2byte	0x21b
 4801 0884 00000000 		.4byte	.LFB66
 4802 0888 8C040000 		.4byte	.LFE66-.LFB66
 4803 088c 01       		.uleb128 0x1
 4804 088d 9C       		.byte	0x9c
 4805 088e 2E090000 		.4byte	0x92e
ARM GAS  C:\Users\RECEPC~1\AppData\Local\Temp\cckY5SBD.s 			page 104


 4806 0892 1C       		.uleb128 0x1c
 4807 0893 7800     		.ascii	"x\000"
 4808 0895 01       		.byte	0x1
 4809 0896 1C02     		.2byte	0x21c
 4810 0898 8D000000 		.4byte	0x8d
 4811 089c C6030000 		.4byte	.LLST8
 4812 08a0 1C       		.uleb128 0x1c
 4813 08a1 7900     		.ascii	"y\000"
 4814 08a3 01       		.byte	0x1
 4815 08a4 1C02     		.2byte	0x21c
 4816 08a6 8D000000 		.4byte	0x8d
 4817 08aa 89050000 		.4byte	.LLST9
 4818 08ae 1C       		.uleb128 0x1c
 4819 08af 7A00     		.ascii	"z\000"
 4820 08b1 01       		.byte	0x1
 4821 08b2 1C02     		.2byte	0x21c
 4822 08b4 8D000000 		.4byte	0x8d
 4823 08b8 60060000 		.4byte	.LLST10
 4824 08bc 1D       		.uleb128 0x1d
 4825 08bd FE000000 		.4byte	.LVL148
 4826 08c1 FF060000 		.4byte	0x6ff
 4827 08c5 D6080000 		.4byte	0x8d6
 4828 08c9 1A       		.uleb128 0x1a
 4829 08ca 01       		.uleb128 0x1
 4830 08cb 51       		.byte	0x51
 4831 08cc 02       		.uleb128 0x2
 4832 08cd 08       		.byte	0x8
 4833 08ce 27       		.byte	0x27
 4834 08cf 1A       		.uleb128 0x1a
 4835 08d0 01       		.uleb128 0x1
 4836 08d1 50       		.byte	0x50
 4837 08d2 02       		.uleb128 0x2
 4838 08d3 75       		.byte	0x75
 4839 08d4 00       		.sleb128 0
 4840 08d5 00       		.byte	0
 4841 08d6 1E       		.uleb128 0x1e
 4842 08d7 0C010000 		.4byte	.LVL151
 4843 08db 9C120000 		.4byte	0x129c
 4844 08df 1D       		.uleb128 0x1d
 4845 08e0 72020000 		.4byte	.LVL178
 4846 08e4 FF060000 		.4byte	0x6ff
 4847 08e8 F8080000 		.4byte	0x8f8
 4848 08ec 1A       		.uleb128 0x1a
 4849 08ed 01       		.uleb128 0x1
 4850 08ee 51       		.byte	0x51
 4851 08ef 01       		.uleb128 0x1
 4852 08f0 4F       		.byte	0x4f
 4853 08f1 1A       		.uleb128 0x1a
 4854 08f2 01       		.uleb128 0x1
 4855 08f3 50       		.byte	0x50
 4856 08f4 02       		.uleb128 0x2
 4857 08f5 75       		.byte	0x75
 4858 08f6 00       		.sleb128 0
 4859 08f7 00       		.byte	0
 4860 08f8 1E       		.uleb128 0x1e
 4861 08f9 A8020000 		.4byte	.LVL181
 4862 08fd 9C120000 		.4byte	0x129c
ARM GAS  C:\Users\RECEPC~1\AppData\Local\Temp\cckY5SBD.s 			page 105


 4863 0901 1E       		.uleb128 0x1e
 4864 0902 EE020000 		.4byte	.LVL185
 4865 0906 AD120000 		.4byte	0x12ad
 4866 090a 1D       		.uleb128 0x1d
 4867 090b 4E040000 		.4byte	.LVL232
 4868 090f FF060000 		.4byte	0x6ff
 4869 0913 24090000 		.4byte	0x924
 4870 0917 1A       		.uleb128 0x1a
 4871 0918 01       		.uleb128 0x1
 4872 0919 51       		.byte	0x51
 4873 091a 02       		.uleb128 0x2
 4874 091b 75       		.byte	0x75
 4875 091c 00       		.sleb128 0
 4876 091d 1A       		.uleb128 0x1a
 4877 091e 01       		.uleb128 0x1
 4878 091f 50       		.byte	0x50
 4879 0920 02       		.uleb128 0x2
 4880 0921 76       		.byte	0x76
 4881 0922 00       		.sleb128 0
 4882 0923 00       		.byte	0
 4883 0924 1E       		.uleb128 0x1e
 4884 0925 5C040000 		.4byte	.LVL235
 4885 0929 9C120000 		.4byte	0x129c
 4886 092d 00       		.byte	0
 4887 092e 1F       		.uleb128 0x1f
 4888 092f 12050000 		.4byte	.LASF165
 4889 0933 01       		.byte	0x1
 4890 0934 36       		.byte	0x36
 4891 0935 00000000 		.4byte	.LFB64
 4892 0939 84080000 		.4byte	.LFE64-.LFB64
 4893 093d 01       		.uleb128 0x1
 4894 093e 9C       		.byte	0x9c
 4895 093f 180C0000 		.4byte	0xc18
 4896 0943 17       		.uleb128 0x17
 4897 0944 6900     		.ascii	"i\000"
 4898 0946 01       		.byte	0x1
 4899 0947 37       		.byte	0x37
 4900 0948 8D000000 		.4byte	0x8d
 4901 094c 8A060000 		.4byte	.LLST11
 4902 0950 17       		.uleb128 0x17
 4903 0951 7800     		.ascii	"x\000"
 4904 0953 01       		.byte	0x1
 4905 0954 37       		.byte	0x37
 4906 0955 8D000000 		.4byte	0x8d
 4907 0959 22070000 		.4byte	.LLST12
 4908 095d 17       		.uleb128 0x17
 4909 095e 7900     		.ascii	"y\000"
 4910 0960 01       		.byte	0x1
 4911 0961 37       		.byte	0x37
 4912 0962 8D000000 		.4byte	0x8d
 4913 0966 580A0000 		.4byte	.LLST13
 4914 096a 20       		.uleb128 0x20
 4915 096b 7A00     		.ascii	"z\000"
 4916 096d 01       		.byte	0x1
 4917 096e 37       		.byte	0x37
 4918 096f 8D000000 		.4byte	0x8d
 4919 0973 1D       		.uleb128 0x1d
ARM GAS  C:\Users\RECEPC~1\AppData\Local\Temp\cckY5SBD.s 			page 106


 4920 0974 08000000 		.4byte	.LVL239
 4921 0978 CC120000 		.4byte	0x12cc
 4922 097c 87090000 		.4byte	0x987
 4923 0980 1A       		.uleb128 0x1a
 4924 0981 01       		.uleb128 0x1
 4925 0982 50       		.byte	0x50
 4926 0983 02       		.uleb128 0x2
 4927 0984 08       		.byte	0x8
 4928 0985 28       		.byte	0x28
 4929 0986 00       		.byte	0
 4930 0987 1E       		.uleb128 0x1e
 4931 0988 0C000000 		.4byte	.LVL240
 4932 098c DD120000 		.4byte	0x12dd
 4933 0990 1E       		.uleb128 0x1e
 4934 0991 24000000 		.4byte	.LVL243
 4935 0995 E8120000 		.4byte	0x12e8
 4936 0999 1E       		.uleb128 0x1e
 4937 099a 30000000 		.4byte	.LVL246
 4938 099e DD120000 		.4byte	0x12dd
 4939 09a2 1D       		.uleb128 0x1d
 4940 09a3 4A010000 		.4byte	.LVL257
 4941 09a7 FF060000 		.4byte	0x6ff
 4942 09ab BB090000 		.4byte	0x9bb
 4943 09af 1A       		.uleb128 0x1a
 4944 09b0 01       		.uleb128 0x1
 4945 09b1 51       		.byte	0x51
 4946 09b2 01       		.uleb128 0x1
 4947 09b3 39       		.byte	0x39
 4948 09b4 1A       		.uleb128 0x1a
 4949 09b5 01       		.uleb128 0x1
 4950 09b6 50       		.byte	0x50
 4951 09b7 02       		.uleb128 0x2
 4952 09b8 74       		.byte	0x74
 4953 09b9 00       		.sleb128 0
 4954 09ba 00       		.byte	0
 4955 09bb 1E       		.uleb128 0x1e
 4956 09bc 58010000 		.4byte	.LVL260
 4957 09c0 9C120000 		.4byte	0x129c
 4958 09c4 1E       		.uleb128 0x1e
 4959 09c5 68010000 		.4byte	.LVL265
 4960 09c9 A7070000 		.4byte	0x7a7
 4961 09cd 1D       		.uleb128 0x1d
 4962 09ce AA010000 		.4byte	.LVL273
 4963 09d2 FF060000 		.4byte	0x6ff
 4964 09d6 E1090000 		.4byte	0x9e1
 4965 09da 1A       		.uleb128 0x1a
 4966 09db 01       		.uleb128 0x1
 4967 09dc 50       		.byte	0x50
 4968 09dd 02       		.uleb128 0x2
 4969 09de 75       		.byte	0x75
 4970 09df 00       		.sleb128 0
 4971 09e0 00       		.byte	0
 4972 09e1 1E       		.uleb128 0x1e
 4973 09e2 BC010000 		.4byte	.LVL277
 4974 09e6 9C120000 		.4byte	0x129c
 4975 09ea 1E       		.uleb128 0x1e
 4976 09eb CA010000 		.4byte	.LVL281
ARM GAS  C:\Users\RECEPC~1\AppData\Local\Temp\cckY5SBD.s 			page 107


 4977 09ef 7C080000 		.4byte	0x87c
 4978 09f3 1D       		.uleb128 0x1d
 4979 09f4 FE010000 		.4byte	.LVL286
 4980 09f8 FF060000 		.4byte	0x6ff
 4981 09fc 070A0000 		.4byte	0xa07
 4982 0a00 1A       		.uleb128 0x1a
 4983 0a01 01       		.uleb128 0x1
 4984 0a02 50       		.byte	0x50
 4985 0a03 02       		.uleb128 0x2
 4986 0a04 75       		.byte	0x75
 4987 0a05 00       		.sleb128 0
 4988 0a06 00       		.byte	0
 4989 0a07 1E       		.uleb128 0x1e
 4990 0a08 10020000 		.4byte	.LVL290
 4991 0a0c 9C120000 		.4byte	0x129c
 4992 0a10 1D       		.uleb128 0x1d
 4993 0a11 4E020000 		.4byte	.LVL298
 4994 0a15 FF060000 		.4byte	0x6ff
 4995 0a19 240A0000 		.4byte	0xa24
 4996 0a1d 1A       		.uleb128 0x1a
 4997 0a1e 01       		.uleb128 0x1
 4998 0a1f 50       		.byte	0x50
 4999 0a20 02       		.uleb128 0x2
 5000 0a21 75       		.byte	0x75
 5001 0a22 00       		.sleb128 0
 5002 0a23 00       		.byte	0
 5003 0a24 1E       		.uleb128 0x1e
 5004 0a25 60020000 		.4byte	.LVL302
 5005 0a29 9C120000 		.4byte	0x129c
 5006 0a2d 1D       		.uleb128 0x1d
 5007 0a2e 94020000 		.4byte	.LVL310
 5008 0a32 FF060000 		.4byte	0x6ff
 5009 0a36 460A0000 		.4byte	0xa46
 5010 0a3a 1A       		.uleb128 0x1a
 5011 0a3b 01       		.uleb128 0x1
 5012 0a3c 51       		.byte	0x51
 5013 0a3d 01       		.uleb128 0x1
 5014 0a3e 39       		.byte	0x39
 5015 0a3f 1A       		.uleb128 0x1a
 5016 0a40 01       		.uleb128 0x1
 5017 0a41 50       		.byte	0x50
 5018 0a42 02       		.uleb128 0x2
 5019 0a43 74       		.byte	0x74
 5020 0a44 00       		.sleb128 0
 5021 0a45 00       		.byte	0
 5022 0a46 1E       		.uleb128 0x1e
 5023 0a47 C0020000 		.4byte	.LVL313
 5024 0a4b 9C120000 		.4byte	0x129c
 5025 0a4f 1D       		.uleb128 0x1d
 5026 0a50 08030000 		.4byte	.LVL322
 5027 0a54 FF060000 		.4byte	0x6ff
 5028 0a58 630A0000 		.4byte	0xa63
 5029 0a5c 1A       		.uleb128 0x1a
 5030 0a5d 01       		.uleb128 0x1
 5031 0a5e 50       		.byte	0x50
 5032 0a5f 02       		.uleb128 0x2
 5033 0a60 75       		.byte	0x75
ARM GAS  C:\Users\RECEPC~1\AppData\Local\Temp\cckY5SBD.s 			page 108


 5034 0a61 00       		.sleb128 0
 5035 0a62 00       		.byte	0
 5036 0a63 1E       		.uleb128 0x1e
 5037 0a64 1A030000 		.4byte	.LVL326
 5038 0a68 9C120000 		.4byte	0x129c
 5039 0a6c 1D       		.uleb128 0x1d
 5040 0a6d 74040000 		.4byte	.LVL374
 5041 0a71 FF060000 		.4byte	0x6ff
 5042 0a75 860A0000 		.4byte	0xa86
 5043 0a79 1A       		.uleb128 0x1a
 5044 0a7a 01       		.uleb128 0x1
 5045 0a7b 51       		.byte	0x51
 5046 0a7c 02       		.uleb128 0x2
 5047 0a7d 75       		.byte	0x75
 5048 0a7e 00       		.sleb128 0
 5049 0a7f 1A       		.uleb128 0x1a
 5050 0a80 01       		.uleb128 0x1
 5051 0a81 50       		.byte	0x50
 5052 0a82 02       		.uleb128 0x2
 5053 0a83 76       		.byte	0x76
 5054 0a84 00       		.sleb128 0
 5055 0a85 00       		.byte	0
 5056 0a86 1E       		.uleb128 0x1e
 5057 0a87 82040000 		.4byte	.LVL377
 5058 0a8b 9C120000 		.4byte	0x129c
 5059 0a8f 1E       		.uleb128 0x1e
 5060 0a90 98040000 		.4byte	.LVL381
 5061 0a94 F3120000 		.4byte	0x12f3
 5062 0a98 1D       		.uleb128 0x1d
 5063 0a99 2C050000 		.4byte	.LVL387
 5064 0a9d FF060000 		.4byte	0x6ff
 5065 0aa1 B10A0000 		.4byte	0xab1
 5066 0aa5 1A       		.uleb128 0x1a
 5067 0aa6 01       		.uleb128 0x1
 5068 0aa7 51       		.byte	0x51
 5069 0aa8 01       		.uleb128 0x1
 5070 0aa9 39       		.byte	0x39
 5071 0aaa 1A       		.uleb128 0x1a
 5072 0aab 01       		.uleb128 0x1
 5073 0aac 50       		.byte	0x50
 5074 0aad 02       		.uleb128 0x2
 5075 0aae 74       		.byte	0x74
 5076 0aaf 00       		.sleb128 0
 5077 0ab0 00       		.byte	0
 5078 0ab1 1E       		.uleb128 0x1e
 5079 0ab2 3A050000 		.4byte	.LVL390
 5080 0ab6 9C120000 		.4byte	0x129c
 5081 0aba 1E       		.uleb128 0x1e
 5082 0abb 92050000 		.4byte	.LVL400
 5083 0abf 0D130000 		.4byte	0x130d
 5084 0ac3 1E       		.uleb128 0x1e
 5085 0ac4 CE050000 		.4byte	.LVL407
 5086 0ac8 0D130000 		.4byte	0x130d
 5087 0acc 1E       		.uleb128 0x1e
 5088 0acd 0A060000 		.4byte	.LVL414
 5089 0ad1 0D130000 		.4byte	0x130d
 5090 0ad5 1E       		.uleb128 0x1e
ARM GAS  C:\Users\RECEPC~1\AppData\Local\Temp\cckY5SBD.s 			page 109


 5091 0ad6 4C060000 		.4byte	.LVL421
 5092 0ada 0D130000 		.4byte	0x130d
 5093 0ade 1E       		.uleb128 0x1e
 5094 0adf DA060000 		.4byte	.LVL439
 5095 0ae3 23130000 		.4byte	0x1323
 5096 0ae7 1E       		.uleb128 0x1e
 5097 0ae8 DE060000 		.4byte	.LVL440
 5098 0aec 2E130000 		.4byte	0x132e
 5099 0af0 1D       		.uleb128 0x1d
 5100 0af1 F0060000 		.4byte	.LVL443
 5101 0af5 39130000 		.4byte	0x1339
 5102 0af9 040B0000 		.4byte	0xb04
 5103 0afd 1A       		.uleb128 0x1a
 5104 0afe 01       		.uleb128 0x1
 5105 0aff 51       		.byte	0x51
 5106 0b00 02       		.uleb128 0x2
 5107 0b01 74       		.byte	0x74
 5108 0b02 10       		.sleb128 16
 5109 0b03 00       		.byte	0
 5110 0b04 1D       		.uleb128 0x1d
 5111 0b05 0E070000 		.4byte	.LVL448
 5112 0b09 39130000 		.4byte	0x1339
 5113 0b0d 180B0000 		.4byte	0xb18
 5114 0b11 1A       		.uleb128 0x1a
 5115 0b12 01       		.uleb128 0x1
 5116 0b13 51       		.byte	0x51
 5117 0b14 02       		.uleb128 0x2
 5118 0b15 74       		.byte	0x74
 5119 0b16 10       		.sleb128 16
 5120 0b17 00       		.byte	0
 5121 0b18 1D       		.uleb128 0x1d
 5122 0b19 2C070000 		.4byte	.LVL453
 5123 0b1d 39130000 		.4byte	0x1339
 5124 0b21 2C0B0000 		.4byte	0xb2c
 5125 0b25 1A       		.uleb128 0x1a
 5126 0b26 01       		.uleb128 0x1
 5127 0b27 51       		.byte	0x51
 5128 0b28 02       		.uleb128 0x2
 5129 0b29 74       		.byte	0x74
 5130 0b2a 10       		.sleb128 16
 5131 0b2b 00       		.byte	0
 5132 0b2c 1D       		.uleb128 0x1d
 5133 0b2d 4A070000 		.4byte	.LVL458
 5134 0b31 39130000 		.4byte	0x1339
 5135 0b35 400B0000 		.4byte	0xb40
 5136 0b39 1A       		.uleb128 0x1a
 5137 0b3a 01       		.uleb128 0x1
 5138 0b3b 51       		.byte	0x51
 5139 0b3c 02       		.uleb128 0x2
 5140 0b3d 74       		.byte	0x74
 5141 0b3e 10       		.sleb128 16
 5142 0b3f 00       		.byte	0
 5143 0b40 1D       		.uleb128 0x1d
 5144 0b41 58070000 		.4byte	.LVL461
 5145 0b45 53130000 		.4byte	0x1353
 5146 0b49 530B0000 		.4byte	0xb53
 5147 0b4d 1A       		.uleb128 0x1a
ARM GAS  C:\Users\RECEPC~1\AppData\Local\Temp\cckY5SBD.s 			page 110


 5148 0b4e 01       		.uleb128 0x1
 5149 0b4f 50       		.byte	0x50
 5150 0b50 01       		.uleb128 0x1
 5151 0b51 3C       		.byte	0x3c
 5152 0b52 00       		.byte	0
 5153 0b53 1D       		.uleb128 0x1d
 5154 0b54 62070000 		.4byte	.LVL463
 5155 0b58 53130000 		.4byte	0x1353
 5156 0b5c 660B0000 		.4byte	0xb66
 5157 0b60 1A       		.uleb128 0x1a
 5158 0b61 01       		.uleb128 0x1
 5159 0b62 50       		.byte	0x50
 5160 0b63 01       		.uleb128 0x1
 5161 0b64 3D       		.byte	0x3d
 5162 0b65 00       		.byte	0
 5163 0b66 1D       		.uleb128 0x1d
 5164 0b67 6C070000 		.4byte	.LVL464
 5165 0b6b 53130000 		.4byte	0x1353
 5166 0b6f 790B0000 		.4byte	0xb79
 5167 0b73 1A       		.uleb128 0x1a
 5168 0b74 01       		.uleb128 0x1
 5169 0b75 50       		.byte	0x50
 5170 0b76 01       		.uleb128 0x1
 5171 0b77 3E       		.byte	0x3e
 5172 0b78 00       		.byte	0
 5173 0b79 1D       		.uleb128 0x1d
 5174 0b7a 76070000 		.4byte	.LVL465
 5175 0b7e 53130000 		.4byte	0x1353
 5176 0b82 8C0B0000 		.4byte	0xb8c
 5177 0b86 1A       		.uleb128 0x1a
 5178 0b87 01       		.uleb128 0x1
 5179 0b88 50       		.byte	0x50
 5180 0b89 01       		.uleb128 0x1
 5181 0b8a 3F       		.byte	0x3f
 5182 0b8b 00       		.byte	0
 5183 0b8c 1E       		.uleb128 0x1e
 5184 0b8d 84070000 		.4byte	.LVL466
 5185 0b91 0D130000 		.4byte	0x130d
 5186 0b95 1D       		.uleb128 0x1d
 5187 0b96 A2070000 		.4byte	.LVL469
 5188 0b9a FF060000 		.4byte	0x6ff
 5189 0b9e AE0B0000 		.4byte	0xbae
 5190 0ba2 1A       		.uleb128 0x1a
 5191 0ba3 01       		.uleb128 0x1
 5192 0ba4 51       		.byte	0x51
 5193 0ba5 01       		.uleb128 0x1
 5194 0ba6 3A       		.byte	0x3a
 5195 0ba7 1A       		.uleb128 0x1a
 5196 0ba8 01       		.uleb128 0x1
 5197 0ba9 50       		.byte	0x50
 5198 0baa 02       		.uleb128 0x2
 5199 0bab 74       		.byte	0x74
 5200 0bac 00       		.sleb128 0
 5201 0bad 00       		.byte	0
 5202 0bae 1E       		.uleb128 0x1e
 5203 0baf B0070000 		.4byte	.LVL472
 5204 0bb3 9C120000 		.4byte	0x129c
ARM GAS  C:\Users\RECEPC~1\AppData\Local\Temp\cckY5SBD.s 			page 111


 5205 0bb7 1D       		.uleb128 0x1d
 5206 0bb8 DE070000 		.4byte	.LVL479
 5207 0bbc 39130000 		.4byte	0x1339
 5208 0bc0 CA0B0000 		.4byte	0xbca
 5209 0bc4 1A       		.uleb128 0x1a
 5210 0bc5 01       		.uleb128 0x1
 5211 0bc6 51       		.byte	0x51
 5212 0bc7 01       		.uleb128 0x1
 5213 0bc8 37       		.byte	0x37
 5214 0bc9 00       		.byte	0
 5215 0bca 1D       		.uleb128 0x1d
 5216 0bcb 04080000 		.4byte	.LVL481
 5217 0bcf 68130000 		.4byte	0x1368
 5218 0bd3 E20B0000 		.4byte	0xbe2
 5219 0bd7 1A       		.uleb128 0x1a
 5220 0bd8 01       		.uleb128 0x1
 5221 0bd9 51       		.byte	0x51
 5222 0bda 01       		.uleb128 0x1
 5223 0bdb 30       		.byte	0x30
 5224 0bdc 1A       		.uleb128 0x1a
 5225 0bdd 01       		.uleb128 0x1
 5226 0bde 50       		.byte	0x50
 5227 0bdf 01       		.uleb128 0x1
 5228 0be0 31       		.byte	0x31
 5229 0be1 00       		.byte	0
 5230 0be2 1D       		.uleb128 0x1d
 5231 0be3 20080000 		.4byte	.LVL482
 5232 0be7 CC120000 		.4byte	0x12cc
 5233 0beb F60B0000 		.4byte	0xbf6
 5234 0bef 1A       		.uleb128 0x1a
 5235 0bf0 01       		.uleb128 0x1
 5236 0bf1 50       		.byte	0x50
 5237 0bf2 02       		.uleb128 0x2
 5238 0bf3 08       		.byte	0x8
 5239 0bf4 C8       		.byte	0xc8
 5240 0bf5 00       		.byte	0
 5241 0bf6 1D       		.uleb128 0x1d
 5242 0bf7 28080000 		.4byte	.LVL483
 5243 0bfb 68130000 		.4byte	0x1368
 5244 0bff 0E0C0000 		.4byte	0xc0e
 5245 0c03 1A       		.uleb128 0x1a
 5246 0c04 01       		.uleb128 0x1
 5247 0c05 51       		.byte	0x51
 5248 0c06 01       		.uleb128 0x1
 5249 0c07 43       		.byte	0x43
 5250 0c08 1A       		.uleb128 0x1a
 5251 0c09 01       		.uleb128 0x1
 5252 0c0a 50       		.byte	0x50
 5253 0c0b 01       		.uleb128 0x1
 5254 0c0c 31       		.byte	0x31
 5255 0c0d 00       		.byte	0
 5256 0c0e 1E       		.uleb128 0x1e
 5257 0c0f 2C080000 		.4byte	.LVL484
 5258 0c13 7E130000 		.4byte	0x137e
 5259 0c17 00       		.byte	0
 5260 0c18 21       		.uleb128 0x21
 5261 0c19 96090000 		.4byte	.LASF166
ARM GAS  C:\Users\RECEPC~1\AppData\Local\Temp\cckY5SBD.s 			page 112


 5262 0c1d 06       		.byte	0x6
 5263 0c1e 5506     		.2byte	0x655
 5264 0c20 240C0000 		.4byte	0xc24
 5265 0c24 06       		.uleb128 0x6
 5266 0c25 76000000 		.4byte	0x76
 5267 0c29 22       		.uleb128 0x22
 5268 0c2a 55070000 		.4byte	.LASF167
 5269 0c2e 05       		.byte	0x5
 5270 0c2f 2C       		.byte	0x2c
 5271 0c30 3A0C0000 		.4byte	0xc3a
 5272 0c34 05       		.uleb128 0x5
 5273 0c35 03       		.byte	0x3
 5274 0c36 00000000 		.4byte	countAnimation1
 5275 0c3a 06       		.uleb128 0x6
 5276 0c3b B3000000 		.4byte	0xb3
 5277 0c3f 22       		.uleb128 0x22
 5278 0c40 A7070000 		.4byte	.LASF168
 5279 0c44 05       		.byte	0x5
 5280 0c45 2D       		.byte	0x2d
 5281 0c46 3A0C0000 		.4byte	0xc3a
 5282 0c4a 05       		.uleb128 0x5
 5283 0c4b 03       		.byte	0x3
 5284 0c4c 00000000 		.4byte	countAnimation2
 5285 0c50 22       		.uleb128 0x22
 5286 0c51 8D060000 		.4byte	.LASF169
 5287 0c55 05       		.byte	0x5
 5288 0c56 2E       		.byte	0x2e
 5289 0c57 3A0C0000 		.4byte	0xc3a
 5290 0c5b 05       		.uleb128 0x5
 5291 0c5c 03       		.byte	0x3
 5292 0c5d 00000000 		.4byte	countRX
 5293 0c61 22       		.uleb128 0x22
 5294 0c62 18020000 		.4byte	.LASF170
 5295 0c66 05       		.byte	0x5
 5296 0c67 2F       		.byte	0x2f
 5297 0c68 3A0C0000 		.4byte	0xc3a
 5298 0c6c 05       		.uleb128 0x5
 5299 0c6d 03       		.byte	0x3
 5300 0c6e 00000000 		.4byte	countTX
 5301 0c72 22       		.uleb128 0x22
 5302 0c73 CC0E0000 		.4byte	.LASF171
 5303 0c77 05       		.byte	0x5
 5304 0c78 30       		.byte	0x30
 5305 0c79 3A0C0000 		.4byte	0xc3a
 5306 0c7d 05       		.uleb128 0x5
 5307 0c7e 03       		.byte	0x3
 5308 0c7f 00000000 		.4byte	countPump
 5309 0c83 22       		.uleb128 0x22
 5310 0c84 90040000 		.4byte	.LASF172
 5311 0c88 05       		.byte	0x5
 5312 0c89 31       		.byte	0x31
 5313 0c8a 3A0C0000 		.4byte	0xc3a
 5314 0c8e 05       		.uleb128 0x5
 5315 0c8f 03       		.byte	0x3
 5316 0c90 00000000 		.4byte	countLCD
 5317 0c94 22       		.uleb128 0x22
 5318 0c95 DE040000 		.4byte	.LASF173
ARM GAS  C:\Users\RECEPC~1\AppData\Local\Temp\cckY5SBD.s 			page 113


 5319 0c99 05       		.byte	0x5
 5320 0c9a 32       		.byte	0x32
 5321 0c9b E3000000 		.4byte	0xe3
 5322 0c9f 05       		.uleb128 0x5
 5323 0ca0 03       		.byte	0x3
 5324 0ca1 00000000 		.4byte	flowDisplay1
 5325 0ca5 22       		.uleb128 0x22
 5326 0ca6 EB040000 		.4byte	.LASF174
 5327 0caa 05       		.byte	0x5
 5328 0cab 33       		.byte	0x33
 5329 0cac E3000000 		.4byte	0xe3
 5330 0cb0 05       		.uleb128 0x5
 5331 0cb1 03       		.byte	0x3
 5332 0cb2 00000000 		.4byte	flowDisplay2
 5333 0cb6 22       		.uleb128 0x22
 5334 0cb7 F8040000 		.4byte	.LASF175
 5335 0cbb 05       		.byte	0x5
 5336 0cbc 34       		.byte	0x34
 5337 0cbd E3000000 		.4byte	0xe3
 5338 0cc1 05       		.uleb128 0x5
 5339 0cc2 03       		.byte	0x3
 5340 0cc3 00000000 		.4byte	flowDisplay3
 5341 0cc7 22       		.uleb128 0x22
 5342 0cc8 05050000 		.4byte	.LASF176
 5343 0ccc 05       		.byte	0x5
 5344 0ccd 35       		.byte	0x35
 5345 0cce E3000000 		.4byte	0xe3
 5346 0cd2 05       		.uleb128 0x5
 5347 0cd3 03       		.byte	0x3
 5348 0cd4 00000000 		.4byte	flowDisplay4
 5349 0cd8 22       		.uleb128 0x22
 5350 0cd9 B0050000 		.4byte	.LASF177
 5351 0cdd 05       		.byte	0x5
 5352 0cde 36       		.byte	0x36
 5353 0cdf DE000000 		.4byte	0xde
 5354 0ce3 05       		.uleb128 0x5
 5355 0ce4 03       		.byte	0x3
 5356 0ce5 00000000 		.4byte	numberKeys1
 5357 0ce9 22       		.uleb128 0x22
 5358 0cea BC050000 		.4byte	.LASF178
 5359 0cee 05       		.byte	0x5
 5360 0cef 37       		.byte	0x37
 5361 0cf0 DE000000 		.4byte	0xde
 5362 0cf4 05       		.uleb128 0x5
 5363 0cf5 03       		.byte	0x3
 5364 0cf6 00000000 		.4byte	numberKeys2
 5365 0cfa 22       		.uleb128 0x22
 5366 0cfb 00090000 		.4byte	.LASF179
 5367 0cff 05       		.byte	0x5
 5368 0d00 38       		.byte	0x38
 5369 0d01 DE000000 		.4byte	0xde
 5370 0d05 05       		.uleb128 0x5
 5371 0d06 03       		.byte	0x3
 5372 0d07 00000000 		.4byte	flagPoint1
 5373 0d0b 22       		.uleb128 0x22
 5374 0d0c 0D020000 		.4byte	.LASF180
 5375 0d10 05       		.byte	0x5
ARM GAS  C:\Users\RECEPC~1\AppData\Local\Temp\cckY5SBD.s 			page 114


 5376 0d11 39       		.byte	0x39
 5377 0d12 DE000000 		.4byte	0xde
 5378 0d16 05       		.uleb128 0x5
 5379 0d17 03       		.byte	0x3
 5380 0d18 00000000 		.4byte	flagPoint2
 5381 0d1c 22       		.uleb128 0x22
 5382 0d1d 67040000 		.4byte	.LASF181
 5383 0d21 05       		.byte	0x5
 5384 0d22 3A       		.byte	0x3a
 5385 0d23 DE000000 		.4byte	0xde
 5386 0d27 05       		.uleb128 0x5
 5387 0d28 03       		.byte	0x3
 5388 0d29 00000000 		.4byte	productNumber
 5389 0d2d 22       		.uleb128 0x22
 5390 0d2e 020B0000 		.4byte	.LASF182
 5391 0d32 05       		.byte	0x5
 5392 0d33 3B       		.byte	0x3b
 5393 0d34 E3000000 		.4byte	0xe3
 5394 0d38 05       		.uleb128 0x5
 5395 0d39 03       		.byte	0x3
 5396 0d3a 00000000 		.4byte	delayPicture1
 5397 0d3e 22       		.uleb128 0x22
 5398 0d3f 100B0000 		.4byte	.LASF183
 5399 0d43 05       		.byte	0x5
 5400 0d44 3C       		.byte	0x3c
 5401 0d45 E3000000 		.4byte	0xe3
 5402 0d49 05       		.uleb128 0x5
 5403 0d4a 03       		.byte	0x3
 5404 0d4b 00000000 		.4byte	delayPicture2
 5405 0d4f 22       		.uleb128 0x22
 5406 0d50 D1080000 		.4byte	.LASF184
 5407 0d54 05       		.byte	0x5
 5408 0d55 3D       		.byte	0x3d
 5409 0d56 DE000000 		.4byte	0xde
 5410 0d5a 05       		.uleb128 0x5
 5411 0d5b 03       		.byte	0x3
 5412 0d5c 00000000 		.4byte	ppux10
 5413 0d60 22       		.uleb128 0x22
 5414 0d61 2B010000 		.4byte	.LASF185
 5415 0d65 05       		.byte	0x5
 5416 0d66 3E       		.byte	0x3e
 5417 0d67 DE000000 		.4byte	0xde
 5418 0d6b 05       		.uleb128 0x5
 5419 0d6c 03       		.byte	0x3
 5420 0d6d 00000000 		.4byte	decimalMoney
 5421 0d71 22       		.uleb128 0x22
 5422 0d72 98000000 		.4byte	.LASF186
 5423 0d76 05       		.byte	0x5
 5424 0d77 3F       		.byte	0x3f
 5425 0d78 DE000000 		.4byte	0xde
 5426 0d7c 05       		.uleb128 0x5
 5427 0d7d 03       		.byte	0x3
 5428 0d7e 00000000 		.4byte	decimalVolume
 5429 0d82 22       		.uleb128 0x22
 5430 0d83 1D090000 		.4byte	.LASF187
 5431 0d87 05       		.byte	0x5
 5432 0d88 40       		.byte	0x40
ARM GAS  C:\Users\RECEPC~1\AppData\Local\Temp\cckY5SBD.s 			page 115


 5433 0d89 930D0000 		.4byte	0xd93
 5434 0d8d 05       		.uleb128 0x5
 5435 0d8e 03       		.byte	0x3
 5436 0d8f 00000000 		.4byte	symbols
 5437 0d93 06       		.uleb128 0x6
 5438 0d94 45030000 		.4byte	0x345
 5439 0d98 08       		.uleb128 0x8
 5440 0d99 81000000 		.4byte	0x81
 5441 0d9d A80D0000 		.4byte	0xda8
 5442 0da1 09       		.uleb128 0x9
 5443 0da2 E8000000 		.4byte	0xe8
 5444 0da6 02       		.byte	0x2
 5445 0da7 00       		.byte	0
 5446 0da8 22       		.uleb128 0x22
 5447 0da9 15040000 		.4byte	.LASF188
 5448 0dad 05       		.byte	0x5
 5449 0dae 41       		.byte	0x41
 5450 0daf B90D0000 		.4byte	0xdb9
 5451 0db3 05       		.uleb128 0x5
 5452 0db4 03       		.byte	0x3
 5453 0db5 00000000 		.4byte	time
 5454 0db9 06       		.uleb128 0x6
 5455 0dba 980D0000 		.4byte	0xd98
 5456 0dbe 22       		.uleb128 0x22
 5457 0dbf 26060000 		.4byte	.LASF189
 5458 0dc3 05       		.byte	0x5
 5459 0dc4 42       		.byte	0x42
 5460 0dc5 CF0D0000 		.4byte	0xdcf
 5461 0dc9 05       		.uleb128 0x5
 5462 0dca 03       		.byte	0x3
 5463 0dcb 00000000 		.4byte	date
 5464 0dcf 06       		.uleb128 0x6
 5465 0dd0 980D0000 		.4byte	0xd98
 5466 0dd4 22       		.uleb128 0x22
 5467 0dd5 2A020000 		.4byte	.LASF190
 5468 0dd9 05       		.byte	0x5
 5469 0dda 43       		.byte	0x43
 5470 0ddb E50D0000 		.4byte	0xde5
 5471 0ddf 05       		.uleb128 0x5
 5472 0de0 03       		.byte	0x3
 5473 0de1 00000000 		.4byte	screen
 5474 0de5 06       		.uleb128 0x6
 5475 0de6 45030000 		.4byte	0x345
 5476 0dea 22       		.uleb128 0x22
 5477 0deb 90010000 		.4byte	.LASF191
 5478 0def 05       		.byte	0x5
 5479 0df0 44       		.byte	0x44
 5480 0df1 FB0D0000 		.4byte	0xdfb
 5481 0df5 05       		.uleb128 0x5
 5482 0df6 03       		.byte	0x3
 5483 0df7 00000000 		.4byte	residue
 5484 0dfb 06       		.uleb128 0x6
 5485 0dfc 8B030000 		.4byte	0x38b
 5486 0e00 22       		.uleb128 0x22
 5487 0e01 75040000 		.4byte	.LASF192
 5488 0e05 05       		.byte	0x5
 5489 0e06 45       		.byte	0x45
ARM GAS  C:\Users\RECEPC~1\AppData\Local\Temp\cckY5SBD.s 			page 116


 5490 0e07 110E0000 		.4byte	0xe11
 5491 0e0b 05       		.uleb128 0x5
 5492 0e0c 03       		.byte	0x3
 5493 0e0d 00000000 		.4byte	idSeller
 5494 0e11 06       		.uleb128 0x6
 5495 0e12 15030000 		.4byte	0x315
 5496 0e16 22       		.uleb128 0x22
 5497 0e17 F60D0000 		.4byte	.LASF193
 5498 0e1b 05       		.byte	0x5
 5499 0e1c 46       		.byte	0x46
 5500 0e1d DE000000 		.4byte	0xde
 5501 0e21 05       		.uleb128 0x5
 5502 0e22 03       		.byte	0x3
 5503 0e23 00000000 		.4byte	typeIdSeller
 5504 0e27 08       		.uleb128 0x8
 5505 0e28 81000000 		.4byte	0x81
 5506 0e2c 370E0000 		.4byte	0xe37
 5507 0e30 09       		.uleb128 0x9
 5508 0e31 E8000000 		.4byte	0xe8
 5509 0e35 07       		.byte	0x7
 5510 0e36 00       		.byte	0
 5511 0e37 22       		.uleb128 0x22
 5512 0e38 D20A0000 		.4byte	.LASF194
 5513 0e3c 05       		.byte	0x5
 5514 0e3d 47       		.byte	0x47
 5515 0e3e 480E0000 		.4byte	0xe48
 5516 0e42 05       		.uleb128 0x5
 5517 0e43 03       		.byte	0x3
 5518 0e44 00000000 		.4byte	passwordSeller
 5519 0e48 06       		.uleb128 0x6
 5520 0e49 270E0000 		.4byte	0xe27
 5521 0e4d 22       		.uleb128 0x22
 5522 0e4e 3D080000 		.4byte	.LASF195
 5523 0e52 05       		.byte	0x5
 5524 0e53 48       		.byte	0x48
 5525 0e54 DE000000 		.4byte	0xde
 5526 0e58 05       		.uleb128 0x5
 5527 0e59 03       		.byte	0x3
 5528 0e5a 00000000 		.4byte	flagResetMux
 5529 0e5e 22       		.uleb128 0x22
 5530 0e5f 72070000 		.4byte	.LASF196
 5531 0e63 05       		.byte	0x5
 5532 0e64 49       		.byte	0x49
 5533 0e65 DE000000 		.4byte	0xde
 5534 0e69 05       		.uleb128 0x5
 5535 0e6a 03       		.byte	0x3
 5536 0e6b 00000000 		.4byte	stateBeagleSoft
 5537 0e6f 22       		.uleb128 0x22
 5538 0e70 A6000000 		.4byte	.LASF197
 5539 0e74 05       		.byte	0x5
 5540 0e75 4A       		.byte	0x4a
 5541 0e76 800E0000 		.4byte	0xe80
 5542 0e7a 05       		.uleb128 0x5
 5543 0e7b 03       		.byte	0x3
 5544 0e7c 00000000 		.4byte	PrevStatePump
 5545 0e80 06       		.uleb128 0x6
 5546 0e81 F1000000 		.4byte	0xf1
ARM GAS  C:\Users\RECEPC~1\AppData\Local\Temp\cckY5SBD.s 			page 117


 5547 0e85 22       		.uleb128 0x22
 5548 0e86 71020000 		.4byte	.LASF198
 5549 0e8a 05       		.byte	0x5
 5550 0e8b 4B       		.byte	0x4b
 5551 0e8c DE000000 		.4byte	0xde
 5552 0e90 05       		.uleb128 0x5
 5553 0e91 03       		.byte	0x3
 5554 0e92 00000000 		.4byte	PlateRequest
 5555 0e96 22       		.uleb128 0x22
 5556 0e97 8F090000 		.4byte	.LASF199
 5557 0e9b 05       		.byte	0x5
 5558 0e9c 4C       		.byte	0x4c
 5559 0e9d A70E0000 		.4byte	0xea7
 5560 0ea1 05       		.uleb128 0x5
 5561 0ea2 03       		.byte	0x3
 5562 0ea3 00000000 		.4byte	IDCast
 5563 0ea7 06       		.uleb128 0x6
 5564 0ea8 45030000 		.4byte	0x345
 5565 0eac 22       		.uleb128 0x22
 5566 0ead C4060000 		.4byte	.LASF200
 5567 0eb1 05       		.byte	0x5
 5568 0eb2 4D       		.byte	0x4d
 5569 0eb3 DE000000 		.4byte	0xde
 5570 0eb7 05       		.uleb128 0x5
 5571 0eb8 03       		.byte	0x3
 5572 0eb9 00000000 		.4byte	ActiveRF
 5573 0ebd 22       		.uleb128 0x22
 5574 0ebe 3D020000 		.4byte	.LASF201
 5575 0ec2 05       		.byte	0x5
 5576 0ec3 4E       		.byte	0x4e
 5577 0ec4 DE000000 		.4byte	0xde
 5578 0ec8 05       		.uleb128 0x5
 5579 0ec9 03       		.byte	0x3
 5580 0eca 00000000 		.4byte	counterRF
 5581 0ece 08       		.uleb128 0x8
 5582 0ecf 81000000 		.4byte	0x81
 5583 0ed3 DE0E0000 		.4byte	0xede
 5584 0ed7 09       		.uleb128 0x9
 5585 0ed8 E8000000 		.4byte	0xe8
 5586 0edc 1D       		.byte	0x1d
 5587 0edd 00       		.byte	0
 5588 0ede 22       		.uleb128 0x22
 5589 0edf 900D0000 		.4byte	.LASF202
 5590 0ee3 05       		.byte	0x5
 5591 0ee4 4F       		.byte	0x4f
 5592 0ee5 EF0E0000 		.4byte	0xeef
 5593 0ee9 05       		.uleb128 0x5
 5594 0eea 03       		.byte	0x3
 5595 0eeb 00000000 		.4byte	temporal
 5596 0eef 06       		.uleb128 0x6
 5597 0ef0 CE0E0000 		.4byte	0xece
 5598 0ef4 22       		.uleb128 0x22
 5599 0ef5 98010000 		.4byte	.LASF203
 5600 0ef9 05       		.byte	0x5
 5601 0efa 50       		.byte	0x50
 5602 0efb 050F0000 		.4byte	0xf05
 5603 0eff 05       		.uleb128 0x5
ARM GAS  C:\Users\RECEPC~1\AppData\Local\Temp\cckY5SBD.s 			page 118


 5604 0f00 03       		.byte	0x3
 5605 0f01 00000000 		.4byte	tempPreset
 5606 0f05 06       		.uleb128 0x6
 5607 0f06 270E0000 		.4byte	0xe27
 5608 0f0a 22       		.uleb128 0x22
 5609 0f0b 9E0F0000 		.4byte	.LASF204
 5610 0f0f 05       		.byte	0x5
 5611 0f10 51       		.byte	0x51
 5612 0f11 1B0F0000 		.4byte	0xf1b
 5613 0f15 05       		.uleb128 0x5
 5614 0f16 03       		.byte	0x3
 5615 0f17 00000000 		.4byte	tempPPU
 5616 0f1b 06       		.uleb128 0x6
 5617 0f1c 6B030000 		.4byte	0x36b
 5618 0f20 22       		.uleb128 0x22
 5619 0f21 E4020000 		.4byte	.LASF205
 5620 0f25 05       		.byte	0x5
 5621 0f26 52       		.byte	0x52
 5622 0f27 DE000000 		.4byte	0xde
 5623 0f2b 05       		.uleb128 0x5
 5624 0f2c 03       		.byte	0x3
 5625 0f2d 00000000 		.4byte	CGrade
 5626 0f31 22       		.uleb128 0x22
 5627 0f32 12030000 		.4byte	.LASF206
 5628 0f36 05       		.byte	0x5
 5629 0f37 53       		.byte	0x53
 5630 0f38 DE000000 		.4byte	0xde
 5631 0f3c 05       		.uleb128 0x5
 5632 0f3d 03       		.byte	0x3
 5633 0f3e 00000000 		.4byte	ShiftState
 5634 0f42 22       		.uleb128 0x22
 5635 0f43 8D0B0000 		.4byte	.LASF207
 5636 0f47 05       		.byte	0x5
 5637 0f48 54       		.byte	0x54
 5638 0f49 DE000000 		.4byte	0xde
 5639 0f4d 05       		.uleb128 0x5
 5640 0f4e 03       		.byte	0x3
 5641 0f4f 00000000 		.4byte	pollTotals
 5642 0f53 22       		.uleb128 0x22
 5643 0f54 4C0F0000 		.4byte	.LASF208
 5644 0f58 05       		.byte	0x5
 5645 0f59 55       		.byte	0x55
 5646 0f5a DE000000 		.4byte	0xde
 5647 0f5e 05       		.uleb128 0x5
 5648 0f5f 03       		.byte	0x3
 5649 0f60 00000000 		.4byte	sizeSendB
 5650 0f64 22       		.uleb128 0x22
 5651 0f65 F20A0000 		.4byte	.LASF209
 5652 0f69 05       		.byte	0x5
 5653 0f6a 57       		.byte	0x57
 5654 0f6b 81000000 		.4byte	0x81
 5655 0f6f 05       		.uleb128 0x5
 5656 0f70 03       		.byte	0x3
 5657 0f71 00000000 		.4byte	UnitType
 5658 0f75 22       		.uleb128 0x22
 5659 0f76 92050000 		.4byte	.LASF210
 5660 0f7a 05       		.byte	0x5
ARM GAS  C:\Users\RECEPC~1\AppData\Local\Temp\cckY5SBD.s 			page 119


 5661 0f7b 57       		.byte	0x57
 5662 0f7c 81000000 		.4byte	0x81
 5663 0f80 05       		.uleb128 0x5
 5664 0f81 03       		.byte	0x3
 5665 0f82 00000000 		.4byte	ConversionFactor
 5666 0f86 22       		.uleb128 0x22
 5667 0f87 1D030000 		.4byte	.LASF211
 5668 0f8b 05       		.byte	0x5
 5669 0f8c 57       		.byte	0x57
 5670 0f8d 81000000 		.4byte	0x81
 5671 0f91 05       		.uleb128 0x5
 5672 0f92 03       		.byte	0x3
 5673 0f93 00000000 		.4byte	MoneyDec
 5674 0f97 22       		.uleb128 0x22
 5675 0f98 990D0000 		.4byte	.LASF212
 5676 0f9c 05       		.byte	0x5
 5677 0f9d 57       		.byte	0x57
 5678 0f9e 81000000 		.4byte	0x81
 5679 0fa2 05       		.uleb128 0x5
 5680 0fa3 03       		.byte	0x3
 5681 0fa4 00000000 		.4byte	VolDec
 5682 0fa8 22       		.uleb128 0x22
 5683 0fa9 860B0000 		.4byte	.LASF213
 5684 0fad 05       		.byte	0x5
 5685 0fae 57       		.byte	0x57
 5686 0faf 81000000 		.4byte	0x81
 5687 0fb3 05       		.uleb128 0x5
 5688 0fb4 03       		.byte	0x3
 5689 0fb5 00000000 		.4byte	PPUDec
 5690 0fb9 22       		.uleb128 0x22
 5691 0fba C5010000 		.4byte	.LASF214
 5692 0fbe 05       		.byte	0x5
 5693 0fbf 57       		.byte	0x57
 5694 0fc0 81000000 		.4byte	0x81
 5695 0fc4 05       		.uleb128 0x5
 5696 0fc5 03       		.byte	0x3
 5697 0fc6 00000000 		.4byte	DDMode
 5698 0fca 22       		.uleb128 0x22
 5699 0fcb 10010000 		.4byte	.LASF215
 5700 0fcf 05       		.byte	0x5
 5701 0fd0 58       		.byte	0x58
 5702 0fd1 F1000000 		.4byte	0xf1
 5703 0fd5 05       		.uleb128 0x5
 5704 0fd6 03       		.byte	0x3
 5705 0fd7 00000000 		.4byte	statePump
 5706 0fdb 22       		.uleb128 0x22
 5707 0fdc 65070000 		.4byte	.LASF216
 5708 0fe0 05       		.byte	0x5
 5709 0fe1 59       		.byte	0x59
 5710 0fe2 81000000 		.4byte	0x81
 5711 0fe6 05       		.uleb128 0x5
 5712 0fe7 03       		.byte	0x3
 5713 0fe8 00000000 		.4byte	NumPositions
 5714 0fec 22       		.uleb128 0x22
 5715 0fed 87040000 		.4byte	.LASF217
 5716 0ff1 05       		.byte	0x5
 5717 0ff2 5A       		.byte	0x5a
ARM GAS  C:\Users\RECEPC~1\AppData\Local\Temp\cckY5SBD.s 			page 120


 5718 0ff3 81000000 		.4byte	0x81
 5719 0ff7 05       		.uleb128 0x5
 5720 0ff8 03       		.byte	0x3
 5721 0ff9 00000000 		.4byte	lockTurn
 5722 0ffd 22       		.uleb128 0x22
 5723 0ffe 00040000 		.4byte	.LASF218
 5724 1002 05       		.byte	0x5
 5725 1003 5B       		.byte	0x5b
 5726 1004 81000000 		.4byte	0x81
 5727 1008 05       		.uleb128 0x5
 5728 1009 03       		.byte	0x3
 5729 100a 00000000 		.4byte	digits
 5730 100e 22       		.uleb128 0x22
 5731 100f 2B060000 		.4byte	.LASF219
 5732 1013 05       		.byte	0x5
 5733 1014 5C       		.byte	0x5c
 5734 1015 81000000 		.4byte	0x81
 5735 1019 05       		.uleb128 0x5
 5736 101a 03       		.byte	0x3
 5737 101b 00000000 		.4byte	hiddenKeys
 5738 101f 22       		.uleb128 0x22
 5739 1020 51010000 		.4byte	.LASF220
 5740 1024 05       		.byte	0x5
 5741 1025 5D       		.byte	0x5d
 5742 1026 81000000 		.4byte	0x81
 5743 102a 05       		.uleb128 0x5
 5744 102b 03       		.byte	0x3
 5745 102c 00000000 		.4byte	PrinterType
 5746 1030 08       		.uleb128 0x8
 5747 1031 BF000000 		.4byte	0xbf
 5748 1035 40100000 		.4byte	0x1040
 5749 1039 09       		.uleb128 0x9
 5750 103a E8000000 		.4byte	0xe8
 5751 103e 05       		.byte	0x5
 5752 103f 00       		.byte	0
 5753 1040 22       		.uleb128 0x22
 5754 1041 87090000 		.4byte	.LASF221
 5755 1045 05       		.byte	0x5
 5756 1046 5E       		.byte	0x5e
 5757 1047 30100000 		.4byte	0x1030
 5758 104b 05       		.uleb128 0x5
 5759 104c 03       		.byte	0x3
 5760 104d 00000000 		.4byte	VolUnit
 5761 1051 22       		.uleb128 0x22
 5762 1052 4C090000 		.4byte	.LASF222
 5763 1056 05       		.byte	0x5
 5764 1057 5F       		.byte	0x5f
 5765 1058 980D0000 		.4byte	0xd98
 5766 105c 05       		.uleb128 0x5
 5767 105d 03       		.byte	0x3
 5768 105e 00000000 		.4byte	dateDownHandle
 5769 1062 22       		.uleb128 0x22
 5770 1063 17080000 		.4byte	.LASF223
 5771 1067 05       		.byte	0x5
 5772 1068 60       		.byte	0x60
 5773 1069 45030000 		.4byte	0x345
 5774 106d 05       		.uleb128 0x5
ARM GAS  C:\Users\RECEPC~1\AppData\Local\Temp\cckY5SBD.s 			page 121


 5775 106e 03       		.byte	0x3
 5776 106f 00000000 		.4byte	timeDownHandle
 5777 1073 22       		.uleb128 0x22
 5778 1074 A90E0000 		.4byte	.LASF224
 5779 1078 05       		.byte	0x5
 5780 1079 61       		.byte	0x61
 5781 107a 81000000 		.4byte	0x81
 5782 107e 05       		.uleb128 0x5
 5783 107f 03       		.byte	0x3
 5784 1080 00000000 		.4byte	count_protector
 5785 1084 22       		.uleb128 0x22
 5786 1085 87000000 		.4byte	.LASF225
 5787 1089 05       		.byte	0x5
 5788 108a 61       		.byte	0x61
 5789 108b 81000000 		.4byte	0x81
 5790 108f 05       		.uleb128 0x5
 5791 1090 03       		.byte	0x3
 5792 1091 00000000 		.4byte	count_protector2
 5793 1095 22       		.uleb128 0x22
 5794 1096 D4030000 		.4byte	.LASF226
 5795 109a 05       		.byte	0x5
 5796 109b 62       		.byte	0x62
 5797 109c 6B030000 		.4byte	0x36b
 5798 10a0 05       		.uleb128 0x5
 5799 10a1 03       		.byte	0x3
 5800 10a2 00000000 		.4byte	configAccess
 5801 10a6 22       		.uleb128 0x22
 5802 10a7 31020000 		.4byte	.LASF227
 5803 10ab 05       		.byte	0x5
 5804 10ac 63       		.byte	0x63
 5805 10ad 81000000 		.4byte	0x81
 5806 10b1 05       		.uleb128 0x5
 5807 10b2 03       		.byte	0x3
 5808 10b3 00000000 		.4byte	controlChar
 5809 10b7 08       		.uleb128 0x8
 5810 10b8 BF000000 		.4byte	0xbf
 5811 10bc C7100000 		.4byte	0x10c7
 5812 10c0 09       		.uleb128 0x9
 5813 10c1 E8000000 		.4byte	0xe8
 5814 10c5 04       		.byte	0x4
 5815 10c6 00       		.byte	0
 5816 10c7 22       		.uleb128 0x22
 5817 10c8 EB010000 		.4byte	.LASF228
 5818 10cc 05       		.byte	0x5
 5819 10cd 64       		.byte	0x64
 5820 10ce B7100000 		.4byte	0x10b7
 5821 10d2 05       		.uleb128 0x5
 5822 10d3 03       		.byte	0x3
 5823 10d4 00000000 		.4byte	idStation
 5824 10d8 22       		.uleb128 0x22
 5825 10d9 A60F0000 		.4byte	.LASF229
 5826 10dd 05       		.byte	0x5
 5827 10de 65       		.byte	0x65
 5828 10df 980D0000 		.4byte	0xd98
 5829 10e3 05       		.uleb128 0x5
 5830 10e4 03       		.byte	0x3
 5831 10e5 00000000 		.4byte	pumpGap
ARM GAS  C:\Users\RECEPC~1\AppData\Local\Temp\cckY5SBD.s 			page 122


 5832 10e9 22       		.uleb128 0x22
 5833 10ea 38040000 		.4byte	.LASF230
 5834 10ee 05       		.byte	0x5
 5835 10ef 66       		.byte	0x66
 5836 10f0 81000000 		.4byte	0x81
 5837 10f4 05       		.uleb128 0x5
 5838 10f5 03       		.byte	0x3
 5839 10f6 00000000 		.4byte	printPortA
 5840 10fa 22       		.uleb128 0x22
 5841 10fb 43040000 		.4byte	.LASF231
 5842 10ff 05       		.byte	0x5
 5843 1100 67       		.byte	0x67
 5844 1101 81000000 		.4byte	0x81
 5845 1105 05       		.uleb128 0x5
 5846 1106 03       		.byte	0x3
 5847 1107 00000000 		.4byte	printPortB
 5848 110b 08       		.uleb128 0x8
 5849 110c 81000000 		.4byte	0x81
 5850 1110 1C110000 		.4byte	0x111c
 5851 1114 23       		.uleb128 0x23
 5852 1115 E8000000 		.4byte	0xe8
 5853 1119 FF01     		.2byte	0x1ff
 5854 111b 00       		.byte	0
 5855 111c 22       		.uleb128 0x22
 5856 111d 21010000 		.4byte	.LASF232
 5857 1121 05       		.byte	0x5
 5858 1122 68       		.byte	0x68
 5859 1123 0B110000 		.4byte	0x110b
 5860 1127 05       		.uleb128 0x5
 5861 1128 03       		.byte	0x3
 5862 1129 00000000 		.4byte	buffer_rf
 5863 112d 22       		.uleb128 0x22
 5864 112e 9C020000 		.4byte	.LASF233
 5865 1132 05       		.byte	0x5
 5866 1133 69       		.byte	0x69
 5867 1134 0B110000 		.4byte	0x110b
 5868 1138 05       		.uleb128 0x5
 5869 1139 03       		.byte	0x3
 5870 113a 00000000 		.4byte	buffer_tx
 5871 113e 22       		.uleb128 0x22
 5872 113f C40D0000 		.4byte	.LASF234
 5873 1143 05       		.byte	0x5
 5874 1144 6A       		.byte	0x6a
 5875 1145 0B110000 		.4byte	0x110b
 5876 1149 05       		.uleb128 0x5
 5877 114a 03       		.byte	0x3
 5878 114b 00000000 		.4byte	buffer_txTotals
 5879 114f 08       		.uleb128 0x8
 5880 1150 BF000000 		.4byte	0xbf
 5881 1154 5F110000 		.4byte	0x115f
 5882 1158 09       		.uleb128 0x9
 5883 1159 E8000000 		.4byte	0xe8
 5884 115d F9       		.byte	0xf9
 5885 115e 00       		.byte	0
 5886 115f 22       		.uleb128 0x22
 5887 1160 5A040000 		.4byte	.LASF235
 5888 1164 05       		.byte	0x5
ARM GAS  C:\Users\RECEPC~1\AppData\Local\Temp\cckY5SBD.s 			page 123


 5889 1165 6B       		.byte	0x6b
 5890 1166 4F110000 		.4byte	0x114f
 5891 116a 05       		.uleb128 0x5
 5892 116b 03       		.byte	0x3
 5893 116c 00000000 		.4byte	buffer_print
 5894 1170 08       		.uleb128 0x8
 5895 1171 81000000 		.4byte	0x81
 5896 1175 80110000 		.4byte	0x1180
 5897 1179 09       		.uleb128 0x9
 5898 117a E8000000 		.4byte	0xe8
 5899 117e 3B       		.byte	0x3b
 5900 117f 00       		.byte	0
 5901 1180 22       		.uleb128 0x22
 5902 1181 F5070000 		.4byte	.LASF236
 5903 1185 05       		.byte	0x5
 5904 1186 6C       		.byte	0x6c
 5905 1187 70110000 		.4byte	0x1170
 5906 118b 05       		.uleb128 0x5
 5907 118c 03       		.byte	0x3
 5908 118d 00000000 		.4byte	buffer_txPreset
 5909 1191 22       		.uleb128 0x22
 5910 1192 0E0E0000 		.4byte	.LASF237
 5911 1196 05       		.byte	0x5
 5912 1197 6D       		.byte	0x6d
 5913 1198 70110000 		.4byte	0x1170
 5914 119c 05       		.uleb128 0x5
 5915 119d 03       		.byte	0x3
 5916 119e 00000000 		.4byte	buffer_txEOT
 5917 11a2 22       		.uleb128 0x22
 5918 11a3 5E080000 		.4byte	.LASF238
 5919 11a7 05       		.byte	0x5
 5920 11a8 6E       		.byte	0x6e
 5921 11a9 70110000 		.4byte	0x1170
 5922 11ad 05       		.uleb128 0x5
 5923 11ae 03       		.byte	0x3
 5924 11af 00000000 		.4byte	buffer_txDisplay
 5925 11b3 22       		.uleb128 0x22
 5926 11b4 1B0E0000 		.4byte	.LASF239
 5927 11b8 05       		.byte	0x5
 5928 11b9 6F       		.byte	0x6f
 5929 11ba 8D000000 		.4byte	0x8d
 5930 11be 05       		.uleb128 0x5
 5931 11bf 03       		.byte	0x3
 5932 11c0 00000000 		.4byte	intIDStation
 5933 11c4 22       		.uleb128 0x22
 5934 11c5 270B0000 		.4byte	.LASF240
 5935 11c9 05       		.byte	0x5
 5936 11ca 70       		.byte	0x70
 5937 11cb CE0E0000 		.4byte	0xece
 5938 11cf 05       		.uleb128 0x5
 5939 11d0 03       		.byte	0x3
 5940 11d1 00000000 		.4byte	Encabezado1
 5941 11d5 22       		.uleb128 0x22
 5942 11d6 330B0000 		.4byte	.LASF241
 5943 11da 05       		.byte	0x5
 5944 11db 71       		.byte	0x71
 5945 11dc CE0E0000 		.4byte	0xece
ARM GAS  C:\Users\RECEPC~1\AppData\Local\Temp\cckY5SBD.s 			page 124


 5946 11e0 05       		.uleb128 0x5
 5947 11e1 03       		.byte	0x3
 5948 11e2 00000000 		.4byte	Encabezado2
 5949 11e6 22       		.uleb128 0x22
 5950 11e7 3F0B0000 		.4byte	.LASF242
 5951 11eb 05       		.byte	0x5
 5952 11ec 72       		.byte	0x72
 5953 11ed CE0E0000 		.4byte	0xece
 5954 11f1 05       		.uleb128 0x5
 5955 11f2 03       		.byte	0x3
 5956 11f3 00000000 		.4byte	Encabezado3
 5957 11f7 22       		.uleb128 0x22
 5958 11f8 4B0B0000 		.4byte	.LASF243
 5959 11fc 05       		.byte	0x5
 5960 11fd 73       		.byte	0x73
 5961 11fe CE0E0000 		.4byte	0xece
 5962 1202 05       		.uleb128 0x5
 5963 1203 03       		.byte	0x3
 5964 1204 00000000 		.4byte	Encabezado4
 5965 1208 22       		.uleb128 0x22
 5966 1209 C40A0000 		.4byte	.LASF244
 5967 120d 05       		.byte	0x5
 5968 120e 74       		.byte	0x74
 5969 120f 81000000 		.4byte	0x81
 5970 1213 05       		.uleb128 0x5
 5971 1214 03       		.byte	0x3
 5972 1215 00000000 		.4byte	CopiasCredito
 5973 1219 22       		.uleb128 0x22
 5974 121a B4000000 		.4byte	.LASF245
 5975 121e 05       		.byte	0x5
 5976 121f 75       		.byte	0x75
 5977 1220 6B030000 		.4byte	0x36b
 5978 1224 05       		.uleb128 0x5
 5979 1225 03       		.byte	0x3
 5980 1226 00000000 		.4byte	GradesHose
 5981 122a 22       		.uleb128 0x22
 5982 122b 26030000 		.4byte	.LASF246
 5983 122f 05       		.byte	0x5
 5984 1230 AE       		.byte	0xae
 5985 1231 01010000 		.4byte	0x101
 5986 1235 05       		.uleb128 0x5
 5987 1236 03       		.byte	0x3
 5988 1237 00000000 		.4byte	bufferDisplay1
 5989 123b 22       		.uleb128 0x22
 5990 123c 6C0A0000 		.4byte	.LASF247
 5991 1240 05       		.byte	0x5
 5992 1241 AF       		.byte	0xaf
 5993 1242 01010000 		.4byte	0x101
 5994 1246 05       		.uleb128 0x5
 5995 1247 03       		.byte	0x3
 5996 1248 00000000 		.4byte	bufferDisplay2
 5997 124c 22       		.uleb128 0x22
 5998 124d 43030000 		.4byte	.LASF248
 5999 1251 05       		.byte	0x5
 6000 1252 B0       		.byte	0xb0
 6001 1253 01010000 		.4byte	0x101
 6002 1257 05       		.uleb128 0x5
ARM GAS  C:\Users\RECEPC~1\AppData\Local\Temp\cckY5SBD.s 			page 125


 6003 1258 03       		.byte	0x3
 6004 1259 00000000 		.4byte	bufferDisplay3
 6005 125d 22       		.uleb128 0x22
 6006 125e B60F0000 		.4byte	.LASF249
 6007 1262 05       		.byte	0x5
 6008 1263 B1       		.byte	0xb1
 6009 1264 01010000 		.4byte	0x101
 6010 1268 05       		.uleb128 0x5
 6011 1269 03       		.byte	0x3
 6012 126a 00000000 		.4byte	bufferDisplay4
 6013 126e 22       		.uleb128 0x22
 6014 126f CC010000 		.4byte	.LASF250
 6015 1273 05       		.byte	0x5
 6016 1274 D6       		.byte	0xd6
 6017 1275 C4040000 		.4byte	0x4c4
 6018 1279 05       		.uleb128 0x5
 6019 127a 03       		.byte	0x3
 6020 127b 00000000 		.4byte	side
 6021 127f 24       		.uleb128 0x24
 6022 1280 EB0E0000 		.4byte	.LASF251
 6023 1284 EF000000 		.4byte	0xef
 6024 1288 9C120000 		.4byte	0x129c
 6025 128c 25       		.uleb128 0x25
 6026 128d EF000000 		.4byte	0xef
 6027 1291 25       		.uleb128 0x25
 6028 1292 F8060000 		.4byte	0x6f8
 6029 1296 25       		.uleb128 0x25
 6030 1297 E8000000 		.4byte	0xe8
 6031 129b 00       		.byte	0
 6032 129c 26       		.uleb128 0x26
 6033 129d DE050000 		.4byte	.LASF252
 6034 12a1 07       		.byte	0x7
 6035 12a2 8A       		.byte	0x8a
 6036 12a3 AD120000 		.4byte	0x12ad
 6037 12a7 25       		.uleb128 0x25
 6038 12a8 81000000 		.4byte	0x81
 6039 12ac 00       		.byte	0
 6040 12ad 27       		.uleb128 0x27
 6041 12ae A6080000 		.4byte	.LASF256
 6042 12b2 09       		.byte	0x9
 6043 12b3 26       		.byte	0x26
 6044 12b4 81000000 		.4byte	0x81
 6045 12b8 CC120000 		.4byte	0x12cc
 6046 12bc 25       		.uleb128 0x25
 6047 12bd 81000000 		.4byte	0x81
 6048 12c1 25       		.uleb128 0x25
 6049 12c2 81000000 		.4byte	0x81
 6050 12c6 25       		.uleb128 0x25
 6051 12c7 91070000 		.4byte	0x791
 6052 12cb 00       		.byte	0
 6053 12cc 26       		.uleb128 0x26
 6054 12cd 19000000 		.4byte	.LASF253
 6055 12d1 08       		.byte	0x8
 6056 12d2 77       		.byte	0x77
 6057 12d3 DD120000 		.4byte	0x12dd
 6058 12d7 25       		.uleb128 0x25
 6059 12d8 99000000 		.4byte	0x99
ARM GAS  C:\Users\RECEPC~1\AppData\Local\Temp\cckY5SBD.s 			page 126


 6060 12dc 00       		.byte	0
 6061 12dd 28       		.uleb128 0x28
 6062 12de 1A040000 		.4byte	.LASF254
 6063 12e2 07       		.byte	0x7
 6064 12e3 73       		.byte	0x73
 6065 12e4 8D000000 		.4byte	0x8d
 6066 12e8 28       		.uleb128 0x28
 6067 12e9 00000000 		.4byte	.LASF255
 6068 12ed 07       		.byte	0x7
 6069 12ee 6F       		.byte	0x6f
 6070 12ef 81000000 		.4byte	0x81
 6071 12f3 27       		.uleb128 0x27
 6072 12f4 47020000 		.4byte	.LASF257
 6073 12f8 0A       		.byte	0xa
 6074 12f9 27       		.byte	0x27
 6075 12fa 81000000 		.4byte	0x81
 6076 12fe 0D130000 		.4byte	0x130d
 6077 1302 25       		.uleb128 0x25
 6078 1303 81000000 		.4byte	0x81
 6079 1307 25       		.uleb128 0x25
 6080 1308 81000000 		.4byte	0x81
 6081 130c 00       		.byte	0
 6082 130d 26       		.uleb128 0x26
 6083 130e 3A030000 		.4byte	.LASF258
 6084 1312 0B       		.byte	0xb
 6085 1313 25       		.byte	0x25
 6086 1314 23130000 		.4byte	0x1323
 6087 1318 25       		.uleb128 0x25
 6088 1319 81000000 		.4byte	0x81
 6089 131d 25       		.uleb128 0x25
 6090 131e 81000000 		.4byte	0x81
 6091 1322 00       		.byte	0
 6092 1323 28       		.uleb128 0x28
 6093 1324 F5010000 		.4byte	.LASF259
 6094 1328 0A       		.byte	0xa
 6095 1329 23       		.byte	0x23
 6096 132a 81000000 		.4byte	0x81
 6097 132e 28       		.uleb128 0x28
 6098 132f F1020000 		.4byte	.LASF260
 6099 1333 0A       		.byte	0xa
 6100 1334 24       		.byte	0x24
 6101 1335 81000000 		.4byte	0x81
 6102 1339 27       		.uleb128 0x27
 6103 133a 07070000 		.4byte	.LASF261
 6104 133e 0C       		.byte	0xc
 6105 133f 21       		.byte	0x21
 6106 1340 D2000000 		.4byte	0xd2
 6107 1344 53130000 		.4byte	0x1353
 6108 1348 25       		.uleb128 0x25
 6109 1349 81000000 		.4byte	0x81
 6110 134d 25       		.uleb128 0x25
 6111 134e 8D000000 		.4byte	0x8d
 6112 1352 00       		.byte	0
 6113 1353 27       		.uleb128 0x27
 6114 1354 53050000 		.4byte	.LASF262
 6115 1358 0C       		.byte	0xc
 6116 1359 23       		.byte	0x23
ARM GAS  C:\Users\RECEPC~1\AppData\Local\Temp\cckY5SBD.s 			page 127


 6117 135a 81000000 		.4byte	0x81
 6118 135e 68130000 		.4byte	0x1368
 6119 1362 25       		.uleb128 0x25
 6120 1363 8D000000 		.4byte	0x8d
 6121 1367 00       		.byte	0
 6122 1368 26       		.uleb128 0x26
 6123 1369 6F080000 		.4byte	.LASF263
 6124 136d 0D       		.byte	0xd
 6125 136e 22       		.byte	0x22
 6126 136f 7E130000 		.4byte	0x137e
 6127 1373 25       		.uleb128 0x25
 6128 1374 81000000 		.4byte	0x81
 6129 1378 25       		.uleb128 0x25
 6130 1379 8D000000 		.4byte	0x8d
 6131 137d 00       		.byte	0
 6132 137e 29       		.uleb128 0x29
 6133 137f C50F0000 		.4byte	.LASF268
 6134 1383 07       		.byte	0x7
 6135 1384 75       		.byte	0x75
 6136 1385 00       		.byte	0
 6137              		.section	.debug_abbrev,"",%progbits
 6138              	.Ldebug_abbrev0:
 6139 0000 01       		.uleb128 0x1
 6140 0001 11       		.uleb128 0x11
 6141 0002 01       		.byte	0x1
 6142 0003 25       		.uleb128 0x25
 6143 0004 0E       		.uleb128 0xe
 6144 0005 13       		.uleb128 0x13
 6145 0006 0B       		.uleb128 0xb
 6146 0007 03       		.uleb128 0x3
 6147 0008 0E       		.uleb128 0xe
 6148 0009 1B       		.uleb128 0x1b
 6149 000a 0E       		.uleb128 0xe
 6150 000b 55       		.uleb128 0x55
 6151 000c 17       		.uleb128 0x17
 6152 000d 11       		.uleb128 0x11
 6153 000e 01       		.uleb128 0x1
 6154 000f 10       		.uleb128 0x10
 6155 0010 17       		.uleb128 0x17
 6156 0011 00       		.byte	0
 6157 0012 00       		.byte	0
 6158 0013 02       		.uleb128 0x2
 6159 0014 24       		.uleb128 0x24
 6160 0015 00       		.byte	0
 6161 0016 0B       		.uleb128 0xb
 6162 0017 0B       		.uleb128 0xb
 6163 0018 3E       		.uleb128 0x3e
 6164 0019 0B       		.uleb128 0xb
 6165 001a 03       		.uleb128 0x3
 6166 001b 0E       		.uleb128 0xe
 6167 001c 00       		.byte	0
 6168 001d 00       		.byte	0
 6169 001e 03       		.uleb128 0x3
 6170 001f 16       		.uleb128 0x16
 6171 0020 00       		.byte	0
 6172 0021 03       		.uleb128 0x3
 6173 0022 0E       		.uleb128 0xe
ARM GAS  C:\Users\RECEPC~1\AppData\Local\Temp\cckY5SBD.s 			page 128


 6174 0023 3A       		.uleb128 0x3a
 6175 0024 0B       		.uleb128 0xb
 6176 0025 3B       		.uleb128 0x3b
 6177 0026 0B       		.uleb128 0xb
 6178 0027 49       		.uleb128 0x49
 6179 0028 13       		.uleb128 0x13
 6180 0029 00       		.byte	0
 6181 002a 00       		.byte	0
 6182 002b 04       		.uleb128 0x4
 6183 002c 24       		.uleb128 0x24
 6184 002d 00       		.byte	0
 6185 002e 0B       		.uleb128 0xb
 6186 002f 0B       		.uleb128 0xb
 6187 0030 3E       		.uleb128 0x3e
 6188 0031 0B       		.uleb128 0xb
 6189 0032 03       		.uleb128 0x3
 6190 0033 08       		.uleb128 0x8
 6191 0034 00       		.byte	0
 6192 0035 00       		.byte	0
 6193 0036 05       		.uleb128 0x5
 6194 0037 16       		.uleb128 0x16
 6195 0038 00       		.byte	0
 6196 0039 03       		.uleb128 0x3
 6197 003a 0E       		.uleb128 0xe
 6198 003b 3A       		.uleb128 0x3a
 6199 003c 0B       		.uleb128 0xb
 6200 003d 3B       		.uleb128 0x3b
 6201 003e 05       		.uleb128 0x5
 6202 003f 49       		.uleb128 0x49
 6203 0040 13       		.uleb128 0x13
 6204 0041 00       		.byte	0
 6205 0042 00       		.byte	0
 6206 0043 06       		.uleb128 0x6
 6207 0044 35       		.uleb128 0x35
 6208 0045 00       		.byte	0
 6209 0046 49       		.uleb128 0x49
 6210 0047 13       		.uleb128 0x13
 6211 0048 00       		.byte	0
 6212 0049 00       		.byte	0
 6213 004a 07       		.uleb128 0x7
 6214 004b 0F       		.uleb128 0xf
 6215 004c 00       		.byte	0
 6216 004d 0B       		.uleb128 0xb
 6217 004e 0B       		.uleb128 0xb
 6218 004f 00       		.byte	0
 6219 0050 00       		.byte	0
 6220 0051 08       		.uleb128 0x8
 6221 0052 01       		.uleb128 0x1
 6222 0053 01       		.byte	0x1
 6223 0054 49       		.uleb128 0x49
 6224 0055 13       		.uleb128 0x13
 6225 0056 01       		.uleb128 0x1
 6226 0057 13       		.uleb128 0x13
 6227 0058 00       		.byte	0
 6228 0059 00       		.byte	0
 6229 005a 09       		.uleb128 0x9
 6230 005b 21       		.uleb128 0x21
ARM GAS  C:\Users\RECEPC~1\AppData\Local\Temp\cckY5SBD.s 			page 129


 6231 005c 00       		.byte	0
 6232 005d 49       		.uleb128 0x49
 6233 005e 13       		.uleb128 0x13
 6234 005f 2F       		.uleb128 0x2f
 6235 0060 0B       		.uleb128 0xb
 6236 0061 00       		.byte	0
 6237 0062 00       		.byte	0
 6238 0063 0A       		.uleb128 0xa
 6239 0064 13       		.uleb128 0x13
 6240 0065 01       		.byte	0x1
 6241 0066 03       		.uleb128 0x3
 6242 0067 0E       		.uleb128 0xe
 6243 0068 0B       		.uleb128 0xb
 6244 0069 05       		.uleb128 0x5
 6245 006a 3A       		.uleb128 0x3a
 6246 006b 0B       		.uleb128 0xb
 6247 006c 3B       		.uleb128 0x3b
 6248 006d 0B       		.uleb128 0xb
 6249 006e 01       		.uleb128 0x1
 6250 006f 13       		.uleb128 0x13
 6251 0070 00       		.byte	0
 6252 0071 00       		.byte	0
 6253 0072 0B       		.uleb128 0xb
 6254 0073 0D       		.uleb128 0xd
 6255 0074 00       		.byte	0
 6256 0075 03       		.uleb128 0x3
 6257 0076 0E       		.uleb128 0xe
 6258 0077 3A       		.uleb128 0x3a
 6259 0078 0B       		.uleb128 0xb
 6260 0079 3B       		.uleb128 0x3b
 6261 007a 0B       		.uleb128 0xb
 6262 007b 49       		.uleb128 0x49
 6263 007c 13       		.uleb128 0x13
 6264 007d 38       		.uleb128 0x38
 6265 007e 0B       		.uleb128 0xb
 6266 007f 00       		.byte	0
 6267 0080 00       		.byte	0
 6268 0081 0C       		.uleb128 0xc
 6269 0082 0D       		.uleb128 0xd
 6270 0083 00       		.byte	0
 6271 0084 03       		.uleb128 0x3
 6272 0085 0E       		.uleb128 0xe
 6273 0086 3A       		.uleb128 0x3a
 6274 0087 0B       		.uleb128 0xb
 6275 0088 3B       		.uleb128 0x3b
 6276 0089 0B       		.uleb128 0xb
 6277 008a 49       		.uleb128 0x49
 6278 008b 13       		.uleb128 0x13
 6279 008c 38       		.uleb128 0x38
 6280 008d 05       		.uleb128 0x5
 6281 008e 00       		.byte	0
 6282 008f 00       		.byte	0
 6283 0090 0D       		.uleb128 0xd
 6284 0091 0D       		.uleb128 0xd
 6285 0092 00       		.byte	0
 6286 0093 03       		.uleb128 0x3
 6287 0094 08       		.uleb128 0x8
ARM GAS  C:\Users\RECEPC~1\AppData\Local\Temp\cckY5SBD.s 			page 130


 6288 0095 3A       		.uleb128 0x3a
 6289 0096 0B       		.uleb128 0xb
 6290 0097 3B       		.uleb128 0x3b
 6291 0098 0B       		.uleb128 0xb
 6292 0099 49       		.uleb128 0x49
 6293 009a 13       		.uleb128 0x13
 6294 009b 38       		.uleb128 0x38
 6295 009c 0B       		.uleb128 0xb
 6296 009d 00       		.byte	0
 6297 009e 00       		.byte	0
 6298 009f 0E       		.uleb128 0xe
 6299 00a0 0D       		.uleb128 0xd
 6300 00a1 00       		.byte	0
 6301 00a2 03       		.uleb128 0x3
 6302 00a3 08       		.uleb128 0x8
 6303 00a4 3A       		.uleb128 0x3a
 6304 00a5 0B       		.uleb128 0xb
 6305 00a6 3B       		.uleb128 0x3b
 6306 00a7 0B       		.uleb128 0xb
 6307 00a8 49       		.uleb128 0x49
 6308 00a9 13       		.uleb128 0x13
 6309 00aa 38       		.uleb128 0x38
 6310 00ab 05       		.uleb128 0x5
 6311 00ac 00       		.byte	0
 6312 00ad 00       		.byte	0
 6313 00ae 0F       		.uleb128 0xf
 6314 00af 04       		.uleb128 0x4
 6315 00b0 01       		.byte	0x1
 6316 00b1 03       		.uleb128 0x3
 6317 00b2 0E       		.uleb128 0xe
 6318 00b3 0B       		.uleb128 0xb
 6319 00b4 0B       		.uleb128 0xb
 6320 00b5 3A       		.uleb128 0x3a
 6321 00b6 0B       		.uleb128 0xb
 6322 00b7 3B       		.uleb128 0x3b
 6323 00b8 0B       		.uleb128 0xb
 6324 00b9 01       		.uleb128 0x1
 6325 00ba 13       		.uleb128 0x13
 6326 00bb 00       		.byte	0
 6327 00bc 00       		.byte	0
 6328 00bd 10       		.uleb128 0x10
 6329 00be 28       		.uleb128 0x28
 6330 00bf 00       		.byte	0
 6331 00c0 03       		.uleb128 0x3
 6332 00c1 0E       		.uleb128 0xe
 6333 00c2 1C       		.uleb128 0x1c
 6334 00c3 0D       		.uleb128 0xd
 6335 00c4 00       		.byte	0
 6336 00c5 00       		.byte	0
 6337 00c6 11       		.uleb128 0x11
 6338 00c7 04       		.uleb128 0x4
 6339 00c8 01       		.byte	0x1
 6340 00c9 03       		.uleb128 0x3
 6341 00ca 0E       		.uleb128 0xe
 6342 00cb 0B       		.uleb128 0xb
 6343 00cc 0B       		.uleb128 0xb
 6344 00cd 3A       		.uleb128 0x3a
ARM GAS  C:\Users\RECEPC~1\AppData\Local\Temp\cckY5SBD.s 			page 131


 6345 00ce 0B       		.uleb128 0xb
 6346 00cf 3B       		.uleb128 0x3b
 6347 00d0 05       		.uleb128 0x5
 6348 00d1 01       		.uleb128 0x1
 6349 00d2 13       		.uleb128 0x13
 6350 00d3 00       		.byte	0
 6351 00d4 00       		.byte	0
 6352 00d5 12       		.uleb128 0x12
 6353 00d6 0F       		.uleb128 0xf
 6354 00d7 00       		.byte	0
 6355 00d8 0B       		.uleb128 0xb
 6356 00d9 0B       		.uleb128 0xb
 6357 00da 49       		.uleb128 0x49
 6358 00db 13       		.uleb128 0x13
 6359 00dc 00       		.byte	0
 6360 00dd 00       		.byte	0
 6361 00de 13       		.uleb128 0x13
 6362 00df 26       		.uleb128 0x26
 6363 00e0 00       		.byte	0
 6364 00e1 00       		.byte	0
 6365 00e2 00       		.byte	0
 6366 00e3 14       		.uleb128 0x14
 6367 00e4 2E       		.uleb128 0x2e
 6368 00e5 01       		.byte	0x1
 6369 00e6 3F       		.uleb128 0x3f
 6370 00e7 19       		.uleb128 0x19
 6371 00e8 03       		.uleb128 0x3
 6372 00e9 0E       		.uleb128 0xe
 6373 00ea 3A       		.uleb128 0x3a
 6374 00eb 0B       		.uleb128 0xb
 6375 00ec 3B       		.uleb128 0x3b
 6376 00ed 0B       		.uleb128 0xb
 6377 00ee 27       		.uleb128 0x27
 6378 00ef 19       		.uleb128 0x19
 6379 00f0 49       		.uleb128 0x49
 6380 00f1 13       		.uleb128 0x13
 6381 00f2 11       		.uleb128 0x11
 6382 00f3 01       		.uleb128 0x1
 6383 00f4 12       		.uleb128 0x12
 6384 00f5 06       		.uleb128 0x6
 6385 00f6 40       		.uleb128 0x40
 6386 00f7 18       		.uleb128 0x18
 6387 00f8 9742     		.uleb128 0x2117
 6388 00fa 19       		.uleb128 0x19
 6389 00fb 01       		.uleb128 0x1
 6390 00fc 13       		.uleb128 0x13
 6391 00fd 00       		.byte	0
 6392 00fe 00       		.byte	0
 6393 00ff 15       		.uleb128 0x15
 6394 0100 05       		.uleb128 0x5
 6395 0101 00       		.byte	0
 6396 0102 03       		.uleb128 0x3
 6397 0103 0E       		.uleb128 0xe
 6398 0104 3A       		.uleb128 0x3a
 6399 0105 0B       		.uleb128 0xb
 6400 0106 3B       		.uleb128 0x3b
 6401 0107 0B       		.uleb128 0xb
ARM GAS  C:\Users\RECEPC~1\AppData\Local\Temp\cckY5SBD.s 			page 132


 6402 0108 49       		.uleb128 0x49
 6403 0109 13       		.uleb128 0x13
 6404 010a 02       		.uleb128 0x2
 6405 010b 17       		.uleb128 0x17
 6406 010c 00       		.byte	0
 6407 010d 00       		.byte	0
 6408 010e 16       		.uleb128 0x16
 6409 010f 34       		.uleb128 0x34
 6410 0110 00       		.byte	0
 6411 0111 03       		.uleb128 0x3
 6412 0112 0E       		.uleb128 0xe
 6413 0113 3A       		.uleb128 0x3a
 6414 0114 0B       		.uleb128 0xb
 6415 0115 3B       		.uleb128 0x3b
 6416 0116 0B       		.uleb128 0xb
 6417 0117 49       		.uleb128 0x49
 6418 0118 13       		.uleb128 0x13
 6419 0119 02       		.uleb128 0x2
 6420 011a 17       		.uleb128 0x17
 6421 011b 00       		.byte	0
 6422 011c 00       		.byte	0
 6423 011d 17       		.uleb128 0x17
 6424 011e 34       		.uleb128 0x34
 6425 011f 00       		.byte	0
 6426 0120 03       		.uleb128 0x3
 6427 0121 08       		.uleb128 0x8
 6428 0122 3A       		.uleb128 0x3a
 6429 0123 0B       		.uleb128 0xb
 6430 0124 3B       		.uleb128 0x3b
 6431 0125 0B       		.uleb128 0xb
 6432 0126 49       		.uleb128 0x49
 6433 0127 13       		.uleb128 0x13
 6434 0128 02       		.uleb128 0x2
 6435 0129 17       		.uleb128 0x17
 6436 012a 00       		.byte	0
 6437 012b 00       		.byte	0
 6438 012c 18       		.uleb128 0x18
 6439 012d 34       		.uleb128 0x34
 6440 012e 00       		.byte	0
 6441 012f 03       		.uleb128 0x3
 6442 0130 0E       		.uleb128 0xe
 6443 0131 3A       		.uleb128 0x3a
 6444 0132 0B       		.uleb128 0xb
 6445 0133 3B       		.uleb128 0x3b
 6446 0134 0B       		.uleb128 0xb
 6447 0135 49       		.uleb128 0x49
 6448 0136 13       		.uleb128 0x13
 6449 0137 02       		.uleb128 0x2
 6450 0138 18       		.uleb128 0x18
 6451 0139 00       		.byte	0
 6452 013a 00       		.byte	0
 6453 013b 19       		.uleb128 0x19
 6454 013c 898201   		.uleb128 0x4109
 6455 013f 01       		.byte	0x1
 6456 0140 11       		.uleb128 0x11
 6457 0141 01       		.uleb128 0x1
 6458 0142 31       		.uleb128 0x31
ARM GAS  C:\Users\RECEPC~1\AppData\Local\Temp\cckY5SBD.s 			page 133


 6459 0143 13       		.uleb128 0x13
 6460 0144 00       		.byte	0
 6461 0145 00       		.byte	0
 6462 0146 1A       		.uleb128 0x1a
 6463 0147 8A8201   		.uleb128 0x410a
 6464 014a 00       		.byte	0
 6465 014b 02       		.uleb128 0x2
 6466 014c 18       		.uleb128 0x18
 6467 014d 9142     		.uleb128 0x2111
 6468 014f 18       		.uleb128 0x18
 6469 0150 00       		.byte	0
 6470 0151 00       		.byte	0
 6471 0152 1B       		.uleb128 0x1b
 6472 0153 2E       		.uleb128 0x2e
 6473 0154 01       		.byte	0x1
 6474 0155 3F       		.uleb128 0x3f
 6475 0156 19       		.uleb128 0x19
 6476 0157 03       		.uleb128 0x3
 6477 0158 0E       		.uleb128 0xe
 6478 0159 3A       		.uleb128 0x3a
 6479 015a 0B       		.uleb128 0xb
 6480 015b 3B       		.uleb128 0x3b
 6481 015c 05       		.uleb128 0x5
 6482 015d 27       		.uleb128 0x27
 6483 015e 19       		.uleb128 0x19
 6484 015f 11       		.uleb128 0x11
 6485 0160 01       		.uleb128 0x1
 6486 0161 12       		.uleb128 0x12
 6487 0162 06       		.uleb128 0x6
 6488 0163 40       		.uleb128 0x40
 6489 0164 18       		.uleb128 0x18
 6490 0165 9742     		.uleb128 0x2117
 6491 0167 19       		.uleb128 0x19
 6492 0168 01       		.uleb128 0x1
 6493 0169 13       		.uleb128 0x13
 6494 016a 00       		.byte	0
 6495 016b 00       		.byte	0
 6496 016c 1C       		.uleb128 0x1c
 6497 016d 34       		.uleb128 0x34
 6498 016e 00       		.byte	0
 6499 016f 03       		.uleb128 0x3
 6500 0170 08       		.uleb128 0x8
 6501 0171 3A       		.uleb128 0x3a
 6502 0172 0B       		.uleb128 0xb
 6503 0173 3B       		.uleb128 0x3b
 6504 0174 05       		.uleb128 0x5
 6505 0175 49       		.uleb128 0x49
 6506 0176 13       		.uleb128 0x13
 6507 0177 02       		.uleb128 0x2
 6508 0178 17       		.uleb128 0x17
 6509 0179 00       		.byte	0
 6510 017a 00       		.byte	0
 6511 017b 1D       		.uleb128 0x1d
 6512 017c 898201   		.uleb128 0x4109
 6513 017f 01       		.byte	0x1
 6514 0180 11       		.uleb128 0x11
 6515 0181 01       		.uleb128 0x1
ARM GAS  C:\Users\RECEPC~1\AppData\Local\Temp\cckY5SBD.s 			page 134


 6516 0182 31       		.uleb128 0x31
 6517 0183 13       		.uleb128 0x13
 6518 0184 01       		.uleb128 0x1
 6519 0185 13       		.uleb128 0x13
 6520 0186 00       		.byte	0
 6521 0187 00       		.byte	0
 6522 0188 1E       		.uleb128 0x1e
 6523 0189 898201   		.uleb128 0x4109
 6524 018c 00       		.byte	0
 6525 018d 11       		.uleb128 0x11
 6526 018e 01       		.uleb128 0x1
 6527 018f 31       		.uleb128 0x31
 6528 0190 13       		.uleb128 0x13
 6529 0191 00       		.byte	0
 6530 0192 00       		.byte	0
 6531 0193 1F       		.uleb128 0x1f
 6532 0194 2E       		.uleb128 0x2e
 6533 0195 01       		.byte	0x1
 6534 0196 3F       		.uleb128 0x3f
 6535 0197 19       		.uleb128 0x19
 6536 0198 03       		.uleb128 0x3
 6537 0199 0E       		.uleb128 0xe
 6538 019a 3A       		.uleb128 0x3a
 6539 019b 0B       		.uleb128 0xb
 6540 019c 3B       		.uleb128 0x3b
 6541 019d 0B       		.uleb128 0xb
 6542 019e 27       		.uleb128 0x27
 6543 019f 19       		.uleb128 0x19
 6544 01a0 11       		.uleb128 0x11
 6545 01a1 01       		.uleb128 0x1
 6546 01a2 12       		.uleb128 0x12
 6547 01a3 06       		.uleb128 0x6
 6548 01a4 40       		.uleb128 0x40
 6549 01a5 18       		.uleb128 0x18
 6550 01a6 9742     		.uleb128 0x2117
 6551 01a8 19       		.uleb128 0x19
 6552 01a9 01       		.uleb128 0x1
 6553 01aa 13       		.uleb128 0x13
 6554 01ab 00       		.byte	0
 6555 01ac 00       		.byte	0
 6556 01ad 20       		.uleb128 0x20
 6557 01ae 34       		.uleb128 0x34
 6558 01af 00       		.byte	0
 6559 01b0 03       		.uleb128 0x3
 6560 01b1 08       		.uleb128 0x8
 6561 01b2 3A       		.uleb128 0x3a
 6562 01b3 0B       		.uleb128 0xb
 6563 01b4 3B       		.uleb128 0x3b
 6564 01b5 0B       		.uleb128 0xb
 6565 01b6 49       		.uleb128 0x49
 6566 01b7 13       		.uleb128 0x13
 6567 01b8 00       		.byte	0
 6568 01b9 00       		.byte	0
 6569 01ba 21       		.uleb128 0x21
 6570 01bb 34       		.uleb128 0x34
 6571 01bc 00       		.byte	0
 6572 01bd 03       		.uleb128 0x3
ARM GAS  C:\Users\RECEPC~1\AppData\Local\Temp\cckY5SBD.s 			page 135


 6573 01be 0E       		.uleb128 0xe
 6574 01bf 3A       		.uleb128 0x3a
 6575 01c0 0B       		.uleb128 0xb
 6576 01c1 3B       		.uleb128 0x3b
 6577 01c2 05       		.uleb128 0x5
 6578 01c3 49       		.uleb128 0x49
 6579 01c4 13       		.uleb128 0x13
 6580 01c5 3F       		.uleb128 0x3f
 6581 01c6 19       		.uleb128 0x19
 6582 01c7 3C       		.uleb128 0x3c
 6583 01c8 19       		.uleb128 0x19
 6584 01c9 00       		.byte	0
 6585 01ca 00       		.byte	0
 6586 01cb 22       		.uleb128 0x22
 6587 01cc 34       		.uleb128 0x34
 6588 01cd 00       		.byte	0
 6589 01ce 03       		.uleb128 0x3
 6590 01cf 0E       		.uleb128 0xe
 6591 01d0 3A       		.uleb128 0x3a
 6592 01d1 0B       		.uleb128 0xb
 6593 01d2 3B       		.uleb128 0x3b
 6594 01d3 0B       		.uleb128 0xb
 6595 01d4 49       		.uleb128 0x49
 6596 01d5 13       		.uleb128 0x13
 6597 01d6 3F       		.uleb128 0x3f
 6598 01d7 19       		.uleb128 0x19
 6599 01d8 02       		.uleb128 0x2
 6600 01d9 18       		.uleb128 0x18
 6601 01da 00       		.byte	0
 6602 01db 00       		.byte	0
 6603 01dc 23       		.uleb128 0x23
 6604 01dd 21       		.uleb128 0x21
 6605 01de 00       		.byte	0
 6606 01df 49       		.uleb128 0x49
 6607 01e0 13       		.uleb128 0x13
 6608 01e1 2F       		.uleb128 0x2f
 6609 01e2 05       		.uleb128 0x5
 6610 01e3 00       		.byte	0
 6611 01e4 00       		.byte	0
 6612 01e5 24       		.uleb128 0x24
 6613 01e6 2E       		.uleb128 0x2e
 6614 01e7 01       		.byte	0x1
 6615 01e8 3F       		.uleb128 0x3f
 6616 01e9 19       		.uleb128 0x19
 6617 01ea 03       		.uleb128 0x3
 6618 01eb 0E       		.uleb128 0xe
 6619 01ec 27       		.uleb128 0x27
 6620 01ed 19       		.uleb128 0x19
 6621 01ee 49       		.uleb128 0x49
 6622 01ef 13       		.uleb128 0x13
 6623 01f0 34       		.uleb128 0x34
 6624 01f1 19       		.uleb128 0x19
 6625 01f2 3C       		.uleb128 0x3c
 6626 01f3 19       		.uleb128 0x19
 6627 01f4 01       		.uleb128 0x1
 6628 01f5 13       		.uleb128 0x13
 6629 01f6 00       		.byte	0
ARM GAS  C:\Users\RECEPC~1\AppData\Local\Temp\cckY5SBD.s 			page 136


 6630 01f7 00       		.byte	0
 6631 01f8 25       		.uleb128 0x25
 6632 01f9 05       		.uleb128 0x5
 6633 01fa 00       		.byte	0
 6634 01fb 49       		.uleb128 0x49
 6635 01fc 13       		.uleb128 0x13
 6636 01fd 00       		.byte	0
 6637 01fe 00       		.byte	0
 6638 01ff 26       		.uleb128 0x26
 6639 0200 2E       		.uleb128 0x2e
 6640 0201 01       		.byte	0x1
 6641 0202 3F       		.uleb128 0x3f
 6642 0203 19       		.uleb128 0x19
 6643 0204 03       		.uleb128 0x3
 6644 0205 0E       		.uleb128 0xe
 6645 0206 3A       		.uleb128 0x3a
 6646 0207 0B       		.uleb128 0xb
 6647 0208 3B       		.uleb128 0x3b
 6648 0209 0B       		.uleb128 0xb
 6649 020a 27       		.uleb128 0x27
 6650 020b 19       		.uleb128 0x19
 6651 020c 3C       		.uleb128 0x3c
 6652 020d 19       		.uleb128 0x19
 6653 020e 01       		.uleb128 0x1
 6654 020f 13       		.uleb128 0x13
 6655 0210 00       		.byte	0
 6656 0211 00       		.byte	0
 6657 0212 27       		.uleb128 0x27
 6658 0213 2E       		.uleb128 0x2e
 6659 0214 01       		.byte	0x1
 6660 0215 3F       		.uleb128 0x3f
 6661 0216 19       		.uleb128 0x19
 6662 0217 03       		.uleb128 0x3
 6663 0218 0E       		.uleb128 0xe
 6664 0219 3A       		.uleb128 0x3a
 6665 021a 0B       		.uleb128 0xb
 6666 021b 3B       		.uleb128 0x3b
 6667 021c 0B       		.uleb128 0xb
 6668 021d 27       		.uleb128 0x27
 6669 021e 19       		.uleb128 0x19
 6670 021f 49       		.uleb128 0x49
 6671 0220 13       		.uleb128 0x13
 6672 0221 3C       		.uleb128 0x3c
 6673 0222 19       		.uleb128 0x19
 6674 0223 01       		.uleb128 0x1
 6675 0224 13       		.uleb128 0x13
 6676 0225 00       		.byte	0
 6677 0226 00       		.byte	0
 6678 0227 28       		.uleb128 0x28
 6679 0228 2E       		.uleb128 0x2e
 6680 0229 00       		.byte	0
 6681 022a 3F       		.uleb128 0x3f
 6682 022b 19       		.uleb128 0x19
 6683 022c 03       		.uleb128 0x3
 6684 022d 0E       		.uleb128 0xe
 6685 022e 3A       		.uleb128 0x3a
 6686 022f 0B       		.uleb128 0xb
ARM GAS  C:\Users\RECEPC~1\AppData\Local\Temp\cckY5SBD.s 			page 137


 6687 0230 3B       		.uleb128 0x3b
 6688 0231 0B       		.uleb128 0xb
 6689 0232 27       		.uleb128 0x27
 6690 0233 19       		.uleb128 0x19
 6691 0234 49       		.uleb128 0x49
 6692 0235 13       		.uleb128 0x13
 6693 0236 3C       		.uleb128 0x3c
 6694 0237 19       		.uleb128 0x19
 6695 0238 00       		.byte	0
 6696 0239 00       		.byte	0
 6697 023a 29       		.uleb128 0x29
 6698 023b 2E       		.uleb128 0x2e
 6699 023c 00       		.byte	0
 6700 023d 3F       		.uleb128 0x3f
 6701 023e 19       		.uleb128 0x19
 6702 023f 03       		.uleb128 0x3
 6703 0240 0E       		.uleb128 0xe
 6704 0241 3A       		.uleb128 0x3a
 6705 0242 0B       		.uleb128 0xb
 6706 0243 3B       		.uleb128 0x3b
 6707 0244 0B       		.uleb128 0xb
 6708 0245 27       		.uleb128 0x27
 6709 0246 19       		.uleb128 0x19
 6710 0247 3C       		.uleb128 0x3c
 6711 0248 19       		.uleb128 0x19
 6712 0249 00       		.byte	0
 6713 024a 00       		.byte	0
 6714 024b 00       		.byte	0
 6715              		.section	.debug_loc,"",%progbits
 6716              	.Ldebug_loc0:
 6717              	.LLST0:
 6718 0000 00000000 		.4byte	.LVL0
 6719 0004 0A000000 		.4byte	.LVL1
 6720 0008 0100     		.2byte	0x1
 6721 000a 50       		.byte	0x50
 6722 000b 0A000000 		.4byte	.LVL1
 6723 000f 30000000 		.4byte	.LVL9
 6724 0013 0100     		.2byte	0x1
 6725 0015 55       		.byte	0x55
 6726 0016 30000000 		.4byte	.LVL9
 6727 001a 34000000 		.4byte	.LFE63
 6728 001e 0400     		.2byte	0x4
 6729 0020 F3       		.byte	0xf3
 6730 0021 01       		.uleb128 0x1
 6731 0022 50       		.byte	0x50
 6732 0023 9F       		.byte	0x9f
 6733 0024 00000000 		.4byte	0
 6734 0028 00000000 		.4byte	0
 6735              	.LLST1:
 6736 002c 00000000 		.4byte	.LVL0
 6737 0030 0C000000 		.4byte	.LVL2
 6738 0034 0100     		.2byte	0x1
 6739 0036 51       		.byte	0x51
 6740 0037 0C000000 		.4byte	.LVL2
 6741 003b 34000000 		.4byte	.LFE63
 6742 003f 0400     		.2byte	0x4
 6743 0041 F3       		.byte	0xf3
ARM GAS  C:\Users\RECEPC~1\AppData\Local\Temp\cckY5SBD.s 			page 138


 6744 0042 01       		.uleb128 0x1
 6745 0043 51       		.byte	0x51
 6746 0044 9F       		.byte	0x9f
 6747 0045 00000000 		.4byte	0
 6748 0049 00000000 		.4byte	0
 6749              	.LLST2:
 6750 004d 14000000 		.4byte	.LVL3
 6751 0051 1A000000 		.4byte	.LVL4
 6752 0055 0200     		.2byte	0x2
 6753 0057 30       		.byte	0x30
 6754 0058 9F       		.byte	0x9f
 6755 0059 1A000000 		.4byte	.LVL4
 6756 005d 1E000000 		.4byte	.LVL5
 6757 0061 0100     		.2byte	0x1
 6758 0063 50       		.byte	0x50
 6759 0064 22000000 		.4byte	.LVL6
 6760 0068 34000000 		.4byte	.LFE63
 6761 006c 0100     		.2byte	0x1
 6762 006e 50       		.byte	0x50
 6763 006f 00000000 		.4byte	0
 6764 0073 00000000 		.4byte	0
 6765              	.LLST3:
 6766 0077 1E000000 		.4byte	.LVL5
 6767 007b 22000000 		.4byte	.LVL6
 6768 007f 0100     		.2byte	0x1
 6769 0081 50       		.byte	0x50
 6770 0082 00000000 		.4byte	0
 6771 0086 00000000 		.4byte	0
 6772              	.LLST4:
 6773 008a 14000000 		.4byte	.LVL3
 6774 008e 1A000000 		.4byte	.LVL4
 6775 0092 0200     		.2byte	0x2
 6776 0094 30       		.byte	0x30
 6777 0095 9F       		.byte	0x9f
 6778 0096 1A000000 		.4byte	.LVL4
 6779 009a 24000000 		.4byte	.LVL7
 6780 009e 0100     		.2byte	0x1
 6781 00a0 53       		.byte	0x53
 6782 00a1 26000000 		.4byte	.LVL8
 6783 00a5 34000000 		.4byte	.LFE63
 6784 00a9 0100     		.2byte	0x1
 6785 00ab 53       		.byte	0x53
 6786 00ac 00000000 		.4byte	0
 6787 00b0 00000000 		.4byte	0
 6788              	.LLST5:
 6789 00b4 58000000 		.4byte	.LVL10
 6790 00b8 6A000000 		.4byte	.LVL11
 6791 00bc 0100     		.2byte	0x1
 6792 00be 54       		.byte	0x54
 6793 00bf 6C000000 		.4byte	.LVL12
 6794 00c3 74000000 		.4byte	.LVL13
 6795 00c7 0100     		.2byte	0x1
 6796 00c9 54       		.byte	0x54
 6797 00ca 74000000 		.4byte	.LVL13
 6798 00ce 8C000000 		.4byte	.LVL14
 6799 00d2 0100     		.2byte	0x1
 6800 00d4 53       		.byte	0x53
ARM GAS  C:\Users\RECEPC~1\AppData\Local\Temp\cckY5SBD.s 			page 139


 6801 00d5 8E000000 		.4byte	.LVL15
 6802 00d9 96000000 		.4byte	.LVL16
 6803 00dd 0100     		.2byte	0x1
 6804 00df 53       		.byte	0x53
 6805 00e0 A4000000 		.4byte	.LVL17
 6806 00e4 B6000000 		.4byte	.LVL18
 6807 00e8 0100     		.2byte	0x1
 6808 00ea 53       		.byte	0x53
 6809 00eb B8000000 		.4byte	.LVL19
 6810 00ef BA000000 		.4byte	.LVL20
 6811 00f3 0100     		.2byte	0x1
 6812 00f5 53       		.byte	0x53
 6813 00f6 BC000000 		.4byte	.LVL21
 6814 00fa E2000000 		.4byte	.LVL23
 6815 00fe 0100     		.2byte	0x1
 6816 0100 53       		.byte	0x53
 6817 0101 E4000000 		.4byte	.LVL24
 6818 0105 EC000000 		.4byte	.LVL25
 6819 0109 0100     		.2byte	0x1
 6820 010b 53       		.byte	0x53
 6821 010c EE000000 		.4byte	.LVL26
 6822 0110 FB000000 		.4byte	.LVL27-1
 6823 0114 0100     		.2byte	0x1
 6824 0116 53       		.byte	0x53
 6825 0117 00010000 		.4byte	.LVL28
 6826 011b 02010000 		.4byte	.LVL29
 6827 011f 0200     		.2byte	0x2
 6828 0121 30       		.byte	0x30
 6829 0122 9F       		.byte	0x9f
 6830 0123 02010000 		.4byte	.LVL29
 6831 0127 0C010000 		.4byte	.LVL31
 6832 012b 0100     		.2byte	0x1
 6833 012d 54       		.byte	0x54
 6834 012e 0E010000 		.4byte	.LVL32
 6835 0132 20010000 		.4byte	.LVL33
 6836 0136 0100     		.2byte	0x1
 6837 0138 54       		.byte	0x54
 6838 0139 70010000 		.4byte	.LVL34
 6839 013d 82010000 		.4byte	.LVL35
 6840 0141 0100     		.2byte	0x1
 6841 0143 54       		.byte	0x54
 6842 0144 84010000 		.4byte	.LVL36
 6843 0148 8C010000 		.4byte	.LVL37
 6844 014c 0100     		.2byte	0x1
 6845 014e 54       		.byte	0x54
 6846 014f 8C010000 		.4byte	.LVL37
 6847 0153 A4010000 		.4byte	.LVL38
 6848 0157 0100     		.2byte	0x1
 6849 0159 53       		.byte	0x53
 6850 015a A6010000 		.4byte	.LVL39
 6851 015e AC010000 		.4byte	.LVL40
 6852 0162 0100     		.2byte	0x1
 6853 0164 53       		.byte	0x53
 6854 0165 BA010000 		.4byte	.LVL41
 6855 0169 CC010000 		.4byte	.LVL42
 6856 016d 0100     		.2byte	0x1
 6857 016f 53       		.byte	0x53
ARM GAS  C:\Users\RECEPC~1\AppData\Local\Temp\cckY5SBD.s 			page 140


 6858 0170 CE010000 		.4byte	.LVL43
 6859 0174 D0010000 		.4byte	.LVL44
 6860 0178 0100     		.2byte	0x1
 6861 017a 53       		.byte	0x53
 6862 017b D2010000 		.4byte	.LVL45
 6863 017f F0010000 		.4byte	.LVL46
 6864 0183 0100     		.2byte	0x1
 6865 0185 53       		.byte	0x53
 6866 0186 F2010000 		.4byte	.LVL47
 6867 018a FE010000 		.4byte	.LVL48
 6868 018e 0100     		.2byte	0x1
 6869 0190 53       		.byte	0x53
 6870 0191 1A020000 		.4byte	.LVL49
 6871 0195 2C020000 		.4byte	.LVL50
 6872 0199 0100     		.2byte	0x1
 6873 019b 53       		.byte	0x53
 6874 019c 2E020000 		.4byte	.LVL51
 6875 01a0 30020000 		.4byte	.LVL52
 6876 01a4 0100     		.2byte	0x1
 6877 01a6 53       		.byte	0x53
 6878 01a7 32020000 		.4byte	.LVL53
 6879 01ab 50020000 		.4byte	.LVL54
 6880 01af 0100     		.2byte	0x1
 6881 01b1 53       		.byte	0x53
 6882 01b2 52020000 		.4byte	.LVL55
 6883 01b6 5E020000 		.4byte	.LVL56
 6884 01ba 0100     		.2byte	0x1
 6885 01bc 53       		.byte	0x53
 6886 01bd 76020000 		.4byte	.LVL58
 6887 01c1 A0020000 		.4byte	.LVL59
 6888 01c5 0200     		.2byte	0x2
 6889 01c7 30       		.byte	0x30
 6890 01c8 9F       		.byte	0x9f
 6891 01c9 A0020000 		.4byte	.LVL59
 6892 01cd AA020000 		.4byte	.LVL61
 6893 01d1 0100     		.2byte	0x1
 6894 01d3 54       		.byte	0x54
 6895 01d4 AC020000 		.4byte	.LVL62
 6896 01d8 D0020000 		.4byte	.LVL63
 6897 01dc 0100     		.2byte	0x1
 6898 01de 54       		.byte	0x54
 6899 01df 10030000 		.4byte	.LVL64
 6900 01e3 22030000 		.4byte	.LVL65
 6901 01e7 0100     		.2byte	0x1
 6902 01e9 54       		.byte	0x54
 6903 01ea 24030000 		.4byte	.LVL66
 6904 01ee 2C030000 		.4byte	.LVL67
 6905 01f2 0100     		.2byte	0x1
 6906 01f4 54       		.byte	0x54
 6907 01f5 2C030000 		.4byte	.LVL67
 6908 01f9 42030000 		.4byte	.LVL68
 6909 01fd 0100     		.2byte	0x1
 6910 01ff 52       		.byte	0x52
 6911 0200 44030000 		.4byte	.LVL69
 6912 0204 59030000 		.4byte	.LVL70-1
 6913 0208 0100     		.2byte	0x1
 6914 020a 52       		.byte	0x52
ARM GAS  C:\Users\RECEPC~1\AppData\Local\Temp\cckY5SBD.s 			page 141


 6915 020b 5E030000 		.4byte	.LVL71
 6916 020f 60030000 		.4byte	.LVL72
 6917 0213 0200     		.2byte	0x2
 6918 0215 30       		.byte	0x30
 6919 0216 9F       		.byte	0x9f
 6920 0217 60030000 		.4byte	.LVL72
 6921 021b 6A030000 		.4byte	.LVL74
 6922 021f 0100     		.2byte	0x1
 6923 0221 54       		.byte	0x54
 6924 0222 6C030000 		.4byte	.LVL75
 6925 0226 7E030000 		.4byte	.LVL76
 6926 022a 0100     		.2byte	0x1
 6927 022c 54       		.byte	0x54
 6928 022d 06040000 		.4byte	.LVL90
 6929 0231 24040000 		.4byte	.LVL93
 6930 0235 0100     		.2byte	0x1
 6931 0237 52       		.byte	0x52
 6932 0238 26040000 		.4byte	.LVL94
 6933 023c 28040000 		.4byte	.LVL95
 6934 0240 0100     		.2byte	0x1
 6935 0242 52       		.byte	0x52
 6936 0243 2A040000 		.4byte	.LVL96
 6937 0247 3C040000 		.4byte	.LVL99
 6938 024b 0100     		.2byte	0x1
 6939 024d 52       		.byte	0x52
 6940 024e 3E040000 		.4byte	.LVL100
 6941 0252 44040000 		.4byte	.LVL101
 6942 0256 0100     		.2byte	0x1
 6943 0258 52       		.byte	0x52
 6944 0259 46040000 		.4byte	.LVL102
 6945 025d 64040000 		.4byte	.LVL105
 6946 0261 0100     		.2byte	0x1
 6947 0263 52       		.byte	0x52
 6948 0264 66040000 		.4byte	.LVL106
 6949 0268 78040000 		.4byte	.LVL109
 6950 026c 0100     		.2byte	0x1
 6951 026e 52       		.byte	0x52
 6952 026f 7A040000 		.4byte	.LVL110
 6953 0273 9E040000 		.4byte	.LVL113
 6954 0277 0100     		.2byte	0x1
 6955 0279 52       		.byte	0x52
 6956 027a A0040000 		.4byte	.LVL114
 6957 027e A6040000 		.4byte	.LVL115
 6958 0282 0100     		.2byte	0x1
 6959 0284 52       		.byte	0x52
 6960 0285 A8040000 		.4byte	.LVL116
 6961 0289 C6040000 		.4byte	.LVL119
 6962 028d 0100     		.2byte	0x1
 6963 028f 52       		.byte	0x52
 6964 0290 C8040000 		.4byte	.LVL120
 6965 0294 D0040000 		.4byte	.LVL122
 6966 0298 0100     		.2byte	0x1
 6967 029a 52       		.byte	0x52
 6968 029b F0040000 		.4byte	.LVL125
 6969 029f F4040000 		.4byte	.LVL126
 6970 02a3 0200     		.2byte	0x2
 6971 02a5 30       		.byte	0x30
ARM GAS  C:\Users\RECEPC~1\AppData\Local\Temp\cckY5SBD.s 			page 142


 6972 02a6 9F       		.byte	0x9f
 6973 02a7 F4040000 		.4byte	.LVL126
 6974 02ab FE040000 		.4byte	.LVL128
 6975 02af 0100     		.2byte	0x1
 6976 02b1 54       		.byte	0x54
 6977 02b2 00050000 		.4byte	.LVL129
 6978 02b6 0C050000 		.4byte	.LVL130
 6979 02ba 0100     		.2byte	0x1
 6980 02bc 54       		.byte	0x54
 6981 02bd 00000000 		.4byte	0
 6982 02c1 00000000 		.4byte	0
 6983              	.LLST6:
 6984 02c5 C0030000 		.4byte	.LVL78
 6985 02c9 C6030000 		.4byte	.LVL79
 6986 02cd 0200     		.2byte	0x2
 6987 02cf 30       		.byte	0x30
 6988 02d0 9F       		.byte	0x9f
 6989 02d1 C6030000 		.4byte	.LVL79
 6990 02d5 CA030000 		.4byte	.LVL80
 6991 02d9 0200     		.2byte	0x2
 6992 02db 31       		.byte	0x31
 6993 02dc 9F       		.byte	0x9f
 6994 02dd CA030000 		.4byte	.LVL80
 6995 02e1 CE030000 		.4byte	.LVL81
 6996 02e5 0200     		.2byte	0x2
 6997 02e7 32       		.byte	0x32
 6998 02e8 9F       		.byte	0x9f
 6999 02e9 CE030000 		.4byte	.LVL81
 7000 02ed D4030000 		.4byte	.LVL82
 7001 02f1 0200     		.2byte	0x2
 7002 02f3 33       		.byte	0x33
 7003 02f4 9F       		.byte	0x9f
 7004 02f5 D4030000 		.4byte	.LVL82
 7005 02f9 D8030000 		.4byte	.LVL83
 7006 02fd 0200     		.2byte	0x2
 7007 02ff 34       		.byte	0x34
 7008 0300 9F       		.byte	0x9f
 7009 0301 D8030000 		.4byte	.LVL83
 7010 0305 DE030000 		.4byte	.LVL84
 7011 0309 0200     		.2byte	0x2
 7012 030b 35       		.byte	0x35
 7013 030c 9F       		.byte	0x9f
 7014 030d DE030000 		.4byte	.LVL84
 7015 0311 E2030000 		.4byte	.LVL85
 7016 0315 0200     		.2byte	0x2
 7017 0317 36       		.byte	0x36
 7018 0318 9F       		.byte	0x9f
 7019 0319 E2030000 		.4byte	.LVL85
 7020 031d E8030000 		.4byte	.LVL86
 7021 0321 0200     		.2byte	0x2
 7022 0323 37       		.byte	0x37
 7023 0324 9F       		.byte	0x9f
 7024 0325 E8030000 		.4byte	.LVL86
 7025 0329 EE030000 		.4byte	.LVL87
 7026 032d 0200     		.2byte	0x2
 7027 032f 39       		.byte	0x39
 7028 0330 9F       		.byte	0x9f
ARM GAS  C:\Users\RECEPC~1\AppData\Local\Temp\cckY5SBD.s 			page 143


 7029 0331 EE030000 		.4byte	.LVL87
 7030 0335 F4030000 		.4byte	.LVL88
 7031 0339 0100     		.2byte	0x1
 7032 033b 54       		.byte	0x54
 7033 033c F6030000 		.4byte	.LVL89
 7034 0340 20040000 		.4byte	.LVL91
 7035 0344 0100     		.2byte	0x1
 7036 0346 54       		.byte	0x54
 7037 0347 22040000 		.4byte	.LVL92
 7038 034b 38040000 		.4byte	.LVL97
 7039 034f 0100     		.2byte	0x1
 7040 0351 54       		.byte	0x54
 7041 0352 3A040000 		.4byte	.LVL98
 7042 0356 60040000 		.4byte	.LVL103
 7043 035a 0100     		.2byte	0x1
 7044 035c 54       		.byte	0x54
 7045 035d 62040000 		.4byte	.LVL104
 7046 0361 74040000 		.4byte	.LVL107
 7047 0365 0100     		.2byte	0x1
 7048 0367 54       		.byte	0x54
 7049 0368 76040000 		.4byte	.LVL108
 7050 036c 9A040000 		.4byte	.LVL111
 7051 0370 0100     		.2byte	0x1
 7052 0372 54       		.byte	0x54
 7053 0373 9C040000 		.4byte	.LVL112
 7054 0377 C2040000 		.4byte	.LVL117
 7055 037b 0100     		.2byte	0x1
 7056 037d 54       		.byte	0x54
 7057 037e C4040000 		.4byte	.LVL118
 7058 0382 F0040000 		.4byte	.LVL125
 7059 0386 0100     		.2byte	0x1
 7060 0388 54       		.byte	0x54
 7061 0389 F0040000 		.4byte	.LVL125
 7062 038d 0C050000 		.4byte	.LVL130
 7063 0391 0100     		.2byte	0x1
 7064 0393 55       		.byte	0x55
 7065 0394 00000000 		.4byte	0
 7066 0398 00000000 		.4byte	0
 7067              	.LLST7:
 7068 039c E8030000 		.4byte	.LVL86
 7069 03a0 EE030000 		.4byte	.LVL87
 7070 03a4 0200     		.2byte	0x2
 7071 03a6 31       		.byte	0x31
 7072 03a7 9F       		.byte	0x9f
 7073 03a8 EE030000 		.4byte	.LVL87
 7074 03ac CE040000 		.4byte	.LVL121
 7075 03b0 0100     		.2byte	0x1
 7076 03b2 51       		.byte	0x51
 7077 03b3 D0040000 		.4byte	.LVL122
 7078 03b7 EA040000 		.4byte	.LVL123
 7079 03bb 0100     		.2byte	0x1
 7080 03bd 51       		.byte	0x51
 7081 03be 00000000 		.4byte	0
 7082 03c2 00000000 		.4byte	0
 7083              	.LLST8:
 7084 03c6 5A000000 		.4byte	.LVL131
 7085 03ca 6C000000 		.4byte	.LVL132
ARM GAS  C:\Users\RECEPC~1\AppData\Local\Temp\cckY5SBD.s 			page 144


 7086 03ce 0100     		.2byte	0x1
 7087 03d0 54       		.byte	0x54
 7088 03d1 6E000000 		.4byte	.LVL133
 7089 03d5 76000000 		.4byte	.LVL134
 7090 03d9 0100     		.2byte	0x1
 7091 03db 54       		.byte	0x54
 7092 03dc 76000000 		.4byte	.LVL134
 7093 03e0 8E000000 		.4byte	.LVL135
 7094 03e4 0100     		.2byte	0x1
 7095 03e6 53       		.byte	0x53
 7096 03e7 90000000 		.4byte	.LVL136
 7097 03eb 98000000 		.4byte	.LVL137
 7098 03ef 0100     		.2byte	0x1
 7099 03f1 53       		.byte	0x53
 7100 03f2 A6000000 		.4byte	.LVL138
 7101 03f6 B8000000 		.4byte	.LVL139
 7102 03fa 0100     		.2byte	0x1
 7103 03fc 53       		.byte	0x53
 7104 03fd BA000000 		.4byte	.LVL140
 7105 0401 BC000000 		.4byte	.LVL141
 7106 0405 0100     		.2byte	0x1
 7107 0407 53       		.byte	0x53
 7108 0408 BE000000 		.4byte	.LVL142
 7109 040c E4000000 		.4byte	.LVL144
 7110 0410 0100     		.2byte	0x1
 7111 0412 53       		.byte	0x53
 7112 0413 E6000000 		.4byte	.LVL145
 7113 0417 EE000000 		.4byte	.LVL146
 7114 041b 0100     		.2byte	0x1
 7115 041d 53       		.byte	0x53
 7116 041e F0000000 		.4byte	.LVL147
 7117 0422 FD000000 		.4byte	.LVL148-1
 7118 0426 0100     		.2byte	0x1
 7119 0428 53       		.byte	0x53
 7120 0429 02010000 		.4byte	.LVL149
 7121 042d 04010000 		.4byte	.LVL150
 7122 0431 0200     		.2byte	0x2
 7123 0433 30       		.byte	0x30
 7124 0434 9F       		.byte	0x9f
 7125 0435 04010000 		.4byte	.LVL150
 7126 0439 0E010000 		.4byte	.LVL152
 7127 043d 0100     		.2byte	0x1
 7128 043f 54       		.byte	0x54
 7129 0440 10010000 		.4byte	.LVL153
 7130 0444 22010000 		.4byte	.LVL154
 7131 0448 0100     		.2byte	0x1
 7132 044a 54       		.byte	0x54
 7133 044b 6E010000 		.4byte	.LVL155
 7134 044f 80010000 		.4byte	.LVL156
 7135 0453 0100     		.2byte	0x1
 7136 0455 54       		.byte	0x54
 7137 0456 82010000 		.4byte	.LVL157
 7138 045a 8A010000 		.4byte	.LVL158
 7139 045e 0100     		.2byte	0x1
 7140 0460 54       		.byte	0x54
 7141 0461 8A010000 		.4byte	.LVL158
 7142 0465 A2010000 		.4byte	.LVL159
ARM GAS  C:\Users\RECEPC~1\AppData\Local\Temp\cckY5SBD.s 			page 145


 7143 0469 0100     		.2byte	0x1
 7144 046b 53       		.byte	0x53
 7145 046c A4010000 		.4byte	.LVL160
 7146 0470 AA010000 		.4byte	.LVL161
 7147 0474 0100     		.2byte	0x1
 7148 0476 53       		.byte	0x53
 7149 0477 B8010000 		.4byte	.LVL162
 7150 047b CA010000 		.4byte	.LVL163
 7151 047f 0100     		.2byte	0x1
 7152 0481 53       		.byte	0x53
 7153 0482 CC010000 		.4byte	.LVL164
 7154 0486 CE010000 		.4byte	.LVL165
 7155 048a 0100     		.2byte	0x1
 7156 048c 53       		.byte	0x53
 7157 048d D0010000 		.4byte	.LVL166
 7158 0491 EE010000 		.4byte	.LVL167
 7159 0495 0100     		.2byte	0x1
 7160 0497 53       		.byte	0x53
 7161 0498 F0010000 		.4byte	.LVL168
 7162 049c FC010000 		.4byte	.LVL169
 7163 04a0 0100     		.2byte	0x1
 7164 04a2 53       		.byte	0x53
 7165 04a3 18020000 		.4byte	.LVL170
 7166 04a7 2A020000 		.4byte	.LVL171
 7167 04ab 0100     		.2byte	0x1
 7168 04ad 53       		.byte	0x53
 7169 04ae 2C020000 		.4byte	.LVL172
 7170 04b2 2E020000 		.4byte	.LVL173
 7171 04b6 0100     		.2byte	0x1
 7172 04b8 53       		.byte	0x53
 7173 04b9 30020000 		.4byte	.LVL174
 7174 04bd 4E020000 		.4byte	.LVL175
 7175 04c1 0100     		.2byte	0x1
 7176 04c3 53       		.byte	0x53
 7177 04c4 50020000 		.4byte	.LVL176
 7178 04c8 5C020000 		.4byte	.LVL177
 7179 04cc 0100     		.2byte	0x1
 7180 04ce 53       		.byte	0x53
 7181 04cf 74020000 		.4byte	.LVL179
 7182 04d3 A0020000 		.4byte	.LVL180
 7183 04d7 0200     		.2byte	0x2
 7184 04d9 30       		.byte	0x30
 7185 04da 9F       		.byte	0x9f
 7186 04db A0020000 		.4byte	.LVL180
 7187 04df AA020000 		.4byte	.LVL182
 7188 04e3 0100     		.2byte	0x1
 7189 04e5 54       		.byte	0x54
 7190 04e6 AC020000 		.4byte	.LVL183
 7191 04ea D0020000 		.4byte	.LVL184
 7192 04ee 0100     		.2byte	0x1
 7193 04f0 54       		.byte	0x54
 7194 04f1 5E030000 		.4byte	.LVL198
 7195 04f5 7E030000 		.4byte	.LVL201
 7196 04f9 0100     		.2byte	0x1
 7197 04fb 52       		.byte	0x52
 7198 04fc 80030000 		.4byte	.LVL202
 7199 0500 82030000 		.4byte	.LVL203
ARM GAS  C:\Users\RECEPC~1\AppData\Local\Temp\cckY5SBD.s 			page 146


 7200 0504 0100     		.2byte	0x1
 7201 0506 52       		.byte	0x52
 7202 0507 84030000 		.4byte	.LVL204
 7203 050b 96030000 		.4byte	.LVL207
 7204 050f 0100     		.2byte	0x1
 7205 0511 52       		.byte	0x52
 7206 0512 98030000 		.4byte	.LVL208
 7207 0516 9E030000 		.4byte	.LVL209
 7208 051a 0100     		.2byte	0x1
 7209 051c 52       		.byte	0x52
 7210 051d A0030000 		.4byte	.LVL210
 7211 0521 C0030000 		.4byte	.LVL213
 7212 0525 0100     		.2byte	0x1
 7213 0527 52       		.byte	0x52
 7214 0528 C2030000 		.4byte	.LVL214
 7215 052c D4030000 		.4byte	.LVL217
 7216 0530 0100     		.2byte	0x1
 7217 0532 52       		.byte	0x52
 7218 0533 D6030000 		.4byte	.LVL218
 7219 0537 FC030000 		.4byte	.LVL221
 7220 053b 0100     		.2byte	0x1
 7221 053d 52       		.byte	0x52
 7222 053e FE030000 		.4byte	.LVL222
 7223 0542 04040000 		.4byte	.LVL223
 7224 0546 0100     		.2byte	0x1
 7225 0548 52       		.byte	0x52
 7226 0549 06040000 		.4byte	.LVL224
 7227 054d 26040000 		.4byte	.LVL227
 7228 0551 0100     		.2byte	0x1
 7229 0553 52       		.byte	0x52
 7230 0554 28040000 		.4byte	.LVL228
 7231 0558 30040000 		.4byte	.LVL230
 7232 055c 0100     		.2byte	0x1
 7233 055e 52       		.byte	0x52
 7234 055f 50040000 		.4byte	.LVL233
 7235 0563 54040000 		.4byte	.LVL234
 7236 0567 0200     		.2byte	0x2
 7237 0569 30       		.byte	0x30
 7238 056a 9F       		.byte	0x9f
 7239 056b 54040000 		.4byte	.LVL234
 7240 056f 5E040000 		.4byte	.LVL236
 7241 0573 0100     		.2byte	0x1
 7242 0575 54       		.byte	0x54
 7243 0576 60040000 		.4byte	.LVL237
 7244 057a 6C040000 		.4byte	.LVL238
 7245 057e 0100     		.2byte	0x1
 7246 0580 54       		.byte	0x54
 7247 0581 00000000 		.4byte	0
 7248 0585 00000000 		.4byte	0
 7249              	.LLST9:
 7250 0589 16030000 		.4byte	.LVL186
 7251 058d 1C030000 		.4byte	.LVL187
 7252 0591 0200     		.2byte	0x2
 7253 0593 30       		.byte	0x30
 7254 0594 9F       		.byte	0x9f
 7255 0595 1C030000 		.4byte	.LVL187
 7256 0599 20030000 		.4byte	.LVL188
ARM GAS  C:\Users\RECEPC~1\AppData\Local\Temp\cckY5SBD.s 			page 147


 7257 059d 0200     		.2byte	0x2
 7258 059f 31       		.byte	0x31
 7259 05a0 9F       		.byte	0x9f
 7260 05a1 20030000 		.4byte	.LVL188
 7261 05a5 24030000 		.4byte	.LVL189
 7262 05a9 0200     		.2byte	0x2
 7263 05ab 32       		.byte	0x32
 7264 05ac 9F       		.byte	0x9f
 7265 05ad 24030000 		.4byte	.LVL189
 7266 05b1 2A030000 		.4byte	.LVL190
 7267 05b5 0200     		.2byte	0x2
 7268 05b7 33       		.byte	0x33
 7269 05b8 9F       		.byte	0x9f
 7270 05b9 2A030000 		.4byte	.LVL190
 7271 05bd 2E030000 		.4byte	.LVL191
 7272 05c1 0200     		.2byte	0x2
 7273 05c3 34       		.byte	0x34
 7274 05c4 9F       		.byte	0x9f
 7275 05c5 2E030000 		.4byte	.LVL191
 7276 05c9 36030000 		.4byte	.LVL192
 7277 05cd 0200     		.2byte	0x2
 7278 05cf 35       		.byte	0x35
 7279 05d0 9F       		.byte	0x9f
 7280 05d1 36030000 		.4byte	.LVL192
 7281 05d5 3A030000 		.4byte	.LVL193
 7282 05d9 0200     		.2byte	0x2
 7283 05db 36       		.byte	0x36
 7284 05dc 9F       		.byte	0x9f
 7285 05dd 3A030000 		.4byte	.LVL193
 7286 05e1 40030000 		.4byte	.LVL194
 7287 05e5 0200     		.2byte	0x2
 7288 05e7 37       		.byte	0x37
 7289 05e8 9F       		.byte	0x9f
 7290 05e9 40030000 		.4byte	.LVL194
 7291 05ed 46030000 		.4byte	.LVL195
 7292 05f1 0200     		.2byte	0x2
 7293 05f3 39       		.byte	0x39
 7294 05f4 9F       		.byte	0x9f
 7295 05f5 46030000 		.4byte	.LVL195
 7296 05f9 4C030000 		.4byte	.LVL196
 7297 05fd 0100     		.2byte	0x1
 7298 05ff 54       		.byte	0x54
 7299 0600 4E030000 		.4byte	.LVL197
 7300 0604 7A030000 		.4byte	.LVL199
 7301 0608 0100     		.2byte	0x1
 7302 060a 54       		.byte	0x54
 7303 060b 7C030000 		.4byte	.LVL200
 7304 060f 92030000 		.4byte	.LVL205
 7305 0613 0100     		.2byte	0x1
 7306 0615 54       		.byte	0x54
 7307 0616 94030000 		.4byte	.LVL206
 7308 061a BC030000 		.4byte	.LVL211
 7309 061e 0100     		.2byte	0x1
 7310 0620 54       		.byte	0x54
 7311 0621 BE030000 		.4byte	.LVL212
 7312 0625 D0030000 		.4byte	.LVL215
 7313 0629 0100     		.2byte	0x1
ARM GAS  C:\Users\RECEPC~1\AppData\Local\Temp\cckY5SBD.s 			page 148


 7314 062b 54       		.byte	0x54
 7315 062c D2030000 		.4byte	.LVL216
 7316 0630 F8030000 		.4byte	.LVL219
 7317 0634 0100     		.2byte	0x1
 7318 0636 54       		.byte	0x54
 7319 0637 FA030000 		.4byte	.LVL220
 7320 063b 22040000 		.4byte	.LVL225
 7321 063f 0100     		.2byte	0x1
 7322 0641 54       		.byte	0x54
 7323 0642 24040000 		.4byte	.LVL226
 7324 0646 50040000 		.4byte	.LVL233
 7325 064a 0100     		.2byte	0x1
 7326 064c 54       		.byte	0x54
 7327 064d 50040000 		.4byte	.LVL233
 7328 0651 6C040000 		.4byte	.LVL238
 7329 0655 0100     		.2byte	0x1
 7330 0657 55       		.byte	0x55
 7331 0658 00000000 		.4byte	0
 7332 065c 00000000 		.4byte	0
 7333              	.LLST10:
 7334 0660 40030000 		.4byte	.LVL194
 7335 0664 46030000 		.4byte	.LVL195
 7336 0668 0200     		.2byte	0x2
 7337 066a 31       		.byte	0x31
 7338 066b 9F       		.byte	0x9f
 7339 066c 46030000 		.4byte	.LVL195
 7340 0670 2E040000 		.4byte	.LVL229
 7341 0674 0100     		.2byte	0x1
 7342 0676 51       		.byte	0x51
 7343 0677 30040000 		.4byte	.LVL230
 7344 067b 4A040000 		.4byte	.LVL231
 7345 067f 0100     		.2byte	0x1
 7346 0681 51       		.byte	0x51
 7347 0682 00000000 		.4byte	0
 7348 0686 00000000 		.4byte	0
 7349              	.LLST11:
 7350 068a 1E000000 		.4byte	.LVL241
 7351 068e 20000000 		.4byte	.LVL242
 7352 0692 0200     		.2byte	0x2
 7353 0694 30       		.byte	0x30
 7354 0695 9F       		.byte	0x9f
 7355 0696 20000000 		.4byte	.LVL242
 7356 069a 2A000000 		.4byte	.LVL244
 7357 069e 0100     		.2byte	0x1
 7358 06a0 54       		.byte	0x54
 7359 06a1 2C000000 		.4byte	.LVL245
 7360 06a5 34010000 		.4byte	.LVL253
 7361 06a9 0100     		.2byte	0x1
 7362 06ab 54       		.byte	0x54
 7363 06ac 64010000 		.4byte	.LVL264
 7364 06b0 6A010000 		.4byte	.LVL266
 7365 06b4 0100     		.2byte	0x1
 7366 06b6 54       		.byte	0x54
 7367 06b7 6C010000 		.4byte	.LVL267
 7368 06bb 6E010000 		.4byte	.LVL268
 7369 06bf 0100     		.2byte	0x1
 7370 06c1 54       		.byte	0x54
ARM GAS  C:\Users\RECEPC~1\AppData\Local\Temp\cckY5SBD.s 			page 149


 7371 06c2 6A020000 		.4byte	.LVL305
 7372 06c6 7E020000 		.4byte	.LVL306
 7373 06ca 0100     		.2byte	0x1
 7374 06cc 54       		.byte	0x54
 7375 06cd CC020000 		.4byte	.LVL316
 7376 06d1 CE020000 		.4byte	.LVL317
 7377 06d5 0100     		.2byte	0x1
 7378 06d7 54       		.byte	0x54
 7379 06d8 24030000 		.4byte	.LVL329
 7380 06dc 32030000 		.4byte	.LVL330
 7381 06e0 0100     		.2byte	0x1
 7382 06e2 54       		.byte	0x54
 7383 06e3 4C030000 		.4byte	.LVL334
 7384 06e7 4E030000 		.4byte	.LVL335
 7385 06eb 0100     		.2byte	0x1
 7386 06ed 54       		.byte	0x54
 7387 06ee 9E040000 		.4byte	.LVL384
 7388 06f2 A0040000 		.4byte	.LVL385
 7389 06f6 0100     		.2byte	0x1
 7390 06f8 54       		.byte	0x54
 7391 06f9 44050000 		.4byte	.LVL393
 7392 06fd E0060000 		.4byte	.LVL441
 7393 0701 0100     		.2byte	0x1
 7394 0703 54       		.byte	0x54
 7395 0704 86070000 		.4byte	.LVL467
 7396 0708 8C070000 		.4byte	.LVL468
 7397 070c 0100     		.2byte	0x1
 7398 070e 54       		.byte	0x54
 7399 070f E0070000 		.4byte	.LVL480
 7400 0713 28080000 		.4byte	.LVL483
 7401 0717 0100     		.2byte	0x1
 7402 0719 54       		.byte	0x54
 7403 071a 00000000 		.4byte	0
 7404 071e 00000000 		.4byte	0
 7405              	.LLST12:
 7406 0722 4C010000 		.4byte	.LVL258
 7407 0726 50010000 		.4byte	.LVL259
 7408 072a 0200     		.2byte	0x2
 7409 072c 30       		.byte	0x30
 7410 072d 9F       		.byte	0x9f
 7411 072e 50010000 		.4byte	.LVL259
 7412 0732 5A010000 		.4byte	.LVL261
 7413 0736 0100     		.2byte	0x1
 7414 0738 54       		.byte	0x54
 7415 0739 5C010000 		.4byte	.LVL262
 7416 073d 62010000 		.4byte	.LVL263
 7417 0741 0100     		.2byte	0x1
 7418 0743 54       		.byte	0x54
 7419 0744 B0010000 		.4byte	.LVL275
 7420 0748 B4010000 		.4byte	.LVL276
 7421 074c 0200     		.2byte	0x2
 7422 074e 30       		.byte	0x30
 7423 074f 9F       		.byte	0x9f
 7424 0750 B4010000 		.4byte	.LVL276
 7425 0754 BE010000 		.4byte	.LVL278
 7426 0758 0100     		.2byte	0x1
 7427 075a 55       		.byte	0x55
ARM GAS  C:\Users\RECEPC~1\AppData\Local\Temp\cckY5SBD.s 			page 150


 7428 075b C0010000 		.4byte	.LVL279
 7429 075f C6010000 		.4byte	.LVL280
 7430 0763 0100     		.2byte	0x1
 7431 0765 55       		.byte	0x55
 7432 0766 04020000 		.4byte	.LVL288
 7433 076a 08020000 		.4byte	.LVL289
 7434 076e 0200     		.2byte	0x2
 7435 0770 30       		.byte	0x30
 7436 0771 9F       		.byte	0x9f
 7437 0772 08020000 		.4byte	.LVL289
 7438 0776 12020000 		.4byte	.LVL291
 7439 077a 0100     		.2byte	0x1
 7440 077c 55       		.byte	0x55
 7441 077d 14020000 		.4byte	.LVL292
 7442 0781 18020000 		.4byte	.LVL293
 7443 0785 0100     		.2byte	0x1
 7444 0787 55       		.byte	0x55
 7445 0788 54020000 		.4byte	.LVL300
 7446 078c 58020000 		.4byte	.LVL301
 7447 0790 0200     		.2byte	0x2
 7448 0792 30       		.byte	0x30
 7449 0793 9F       		.byte	0x9f
 7450 0794 58020000 		.4byte	.LVL301
 7451 0798 62020000 		.4byte	.LVL303
 7452 079c 0100     		.2byte	0x1
 7453 079e 55       		.byte	0x55
 7454 079f 64020000 		.4byte	.LVL304
 7455 07a3 6A020000 		.4byte	.LVL305
 7456 07a7 0100     		.2byte	0x1
 7457 07a9 55       		.byte	0x55
 7458 07aa 96020000 		.4byte	.LVL311
 7459 07ae B8020000 		.4byte	.LVL312
 7460 07b2 0200     		.2byte	0x2
 7461 07b4 30       		.byte	0x30
 7462 07b5 9F       		.byte	0x9f
 7463 07b6 B8020000 		.4byte	.LVL312
 7464 07ba C2020000 		.4byte	.LVL314
 7465 07be 0100     		.2byte	0x1
 7466 07c0 54       		.byte	0x54
 7467 07c1 C4020000 		.4byte	.LVL315
 7468 07c5 CC020000 		.4byte	.LVL316
 7469 07c9 0100     		.2byte	0x1
 7470 07cb 54       		.byte	0x54
 7471 07cc 0E030000 		.4byte	.LVL324
 7472 07d0 12030000 		.4byte	.LVL325
 7473 07d4 0200     		.2byte	0x2
 7474 07d6 30       		.byte	0x30
 7475 07d7 9F       		.byte	0x9f
 7476 07d8 12030000 		.4byte	.LVL325
 7477 07dc 1C030000 		.4byte	.LVL327
 7478 07e0 0100     		.2byte	0x1
 7479 07e2 55       		.byte	0x55
 7480 07e3 1E030000 		.4byte	.LVL328
 7481 07e7 24030000 		.4byte	.LVL329
 7482 07eb 0100     		.2byte	0x1
 7483 07ed 55       		.byte	0x55
 7484 07ee 34030000 		.4byte	.LVL331
ARM GAS  C:\Users\RECEPC~1\AppData\Local\Temp\cckY5SBD.s 			page 151


 7485 07f2 48030000 		.4byte	.LVL332
 7486 07f6 0100     		.2byte	0x1
 7487 07f8 53       		.byte	0x53
 7488 07f9 4A030000 		.4byte	.LVL333
 7489 07fd 4C030000 		.4byte	.LVL334
 7490 0801 0100     		.2byte	0x1
 7491 0803 53       		.byte	0x53
 7492 0804 4E030000 		.4byte	.LVL335
 7493 0808 54030000 		.4byte	.LVL336
 7494 080c 0100     		.2byte	0x1
 7495 080e 53       		.byte	0x53
 7496 080f 7C030000 		.4byte	.LVL341
 7497 0813 90030000 		.4byte	.LVL342
 7498 0817 0100     		.2byte	0x1
 7499 0819 53       		.byte	0x53
 7500 081a 92030000 		.4byte	.LVL343
 7501 081e 94030000 		.4byte	.LVL344
 7502 0822 0100     		.2byte	0x1
 7503 0824 53       		.byte	0x53
 7504 0825 96030000 		.4byte	.LVL345
 7505 0829 9C030000 		.4byte	.LVL346
 7506 082d 0100     		.2byte	0x1
 7507 082f 53       		.byte	0x53
 7508 0830 CE030000 		.4byte	.LVL352
 7509 0834 E2030000 		.4byte	.LVL353
 7510 0838 0100     		.2byte	0x1
 7511 083a 53       		.byte	0x53
 7512 083b E4030000 		.4byte	.LVL354
 7513 083f E6030000 		.4byte	.LVL355
 7514 0843 0100     		.2byte	0x1
 7515 0845 53       		.byte	0x53
 7516 0846 E8030000 		.4byte	.LVL356
 7517 084a EE030000 		.4byte	.LVL357
 7518 084e 0100     		.2byte	0x1
 7519 0850 53       		.byte	0x53
 7520 0851 20040000 		.4byte	.LVL363
 7521 0855 34040000 		.4byte	.LVL364
 7522 0859 0100     		.2byte	0x1
 7523 085b 53       		.byte	0x53
 7524 085c 36040000 		.4byte	.LVL365
 7525 0860 38040000 		.4byte	.LVL366
 7526 0864 0100     		.2byte	0x1
 7527 0866 53       		.byte	0x53
 7528 0867 3A040000 		.4byte	.LVL367
 7529 086b 40040000 		.4byte	.LVL368
 7530 086f 0100     		.2byte	0x1
 7531 0871 53       		.byte	0x53
 7532 0872 76040000 		.4byte	.LVL375
 7533 0876 7A040000 		.4byte	.LVL376
 7534 087a 0200     		.2byte	0x2
 7535 087c 30       		.byte	0x30
 7536 087d 9F       		.byte	0x9f
 7537 087e 7A040000 		.4byte	.LVL376
 7538 0882 84040000 		.4byte	.LVL378
 7539 0886 0100     		.2byte	0x1
 7540 0888 54       		.byte	0x54
 7541 0889 86040000 		.4byte	.LVL379
ARM GAS  C:\Users\RECEPC~1\AppData\Local\Temp\cckY5SBD.s 			page 152


 7542 088d 9A040000 		.4byte	.LVL382
 7543 0891 0100     		.2byte	0x1
 7544 0893 54       		.byte	0x54
 7545 0894 9C040000 		.4byte	.LVL383
 7546 0898 9E040000 		.4byte	.LVL384
 7547 089c 0100     		.2byte	0x1
 7548 089e 54       		.byte	0x54
 7549 089f A0040000 		.4byte	.LVL385
 7550 08a3 24050000 		.4byte	.LVL386
 7551 08a7 0100     		.2byte	0x1
 7552 08a9 54       		.byte	0x54
 7553 08aa 2E050000 		.4byte	.LVL388
 7554 08ae 32050000 		.4byte	.LVL389
 7555 08b2 0200     		.2byte	0x2
 7556 08b4 30       		.byte	0x30
 7557 08b5 9F       		.byte	0x9f
 7558 08b6 32050000 		.4byte	.LVL389
 7559 08ba 3C050000 		.4byte	.LVL391
 7560 08be 0100     		.2byte	0x1
 7561 08c0 54       		.byte	0x54
 7562 08c1 3E050000 		.4byte	.LVL392
 7563 08c5 44050000 		.4byte	.LVL393
 7564 08c9 0100     		.2byte	0x1
 7565 08cb 54       		.byte	0x54
 7566 08cc 52050000 		.4byte	.LVL394
 7567 08d0 64050000 		.4byte	.LVL395
 7568 08d4 0100     		.2byte	0x1
 7569 08d6 53       		.byte	0x53
 7570 08d7 66050000 		.4byte	.LVL396
 7571 08db 7C050000 		.4byte	.LVL397
 7572 08df 0100     		.2byte	0x1
 7573 08e1 53       		.byte	0x53
 7574 08e2 7E050000 		.4byte	.LVL398
 7575 08e6 84050000 		.4byte	.LVL399
 7576 08ea 0100     		.2byte	0x1
 7577 08ec 53       		.byte	0x53
 7578 08ed A2050000 		.4byte	.LVL401
 7579 08f1 B4050000 		.4byte	.LVL402
 7580 08f5 0100     		.2byte	0x1
 7581 08f7 53       		.byte	0x53
 7582 08f8 B6050000 		.4byte	.LVL403
 7583 08fc B8050000 		.4byte	.LVL404
 7584 0900 0100     		.2byte	0x1
 7585 0902 53       		.byte	0x53
 7586 0903 BA050000 		.4byte	.LVL405
 7587 0907 C0050000 		.4byte	.LVL406
 7588 090b 0100     		.2byte	0x1
 7589 090d 53       		.byte	0x53
 7590 090e DE050000 		.4byte	.LVL408
 7591 0912 F0050000 		.4byte	.LVL409
 7592 0916 0100     		.2byte	0x1
 7593 0918 53       		.byte	0x53
 7594 0919 F2050000 		.4byte	.LVL410
 7595 091d F4050000 		.4byte	.LVL411
 7596 0921 0100     		.2byte	0x1
 7597 0923 53       		.byte	0x53
 7598 0924 F6050000 		.4byte	.LVL412
ARM GAS  C:\Users\RECEPC~1\AppData\Local\Temp\cckY5SBD.s 			page 153


 7599 0928 FC050000 		.4byte	.LVL413
 7600 092c 0100     		.2byte	0x1
 7601 092e 53       		.byte	0x53
 7602 092f 1C060000 		.4byte	.LVL415
 7603 0933 2E060000 		.4byte	.LVL416
 7604 0937 0100     		.2byte	0x1
 7605 0939 53       		.byte	0x53
 7606 093a 30060000 		.4byte	.LVL417
 7607 093e 32060000 		.4byte	.LVL418
 7608 0942 0100     		.2byte	0x1
 7609 0944 53       		.byte	0x53
 7610 0945 34060000 		.4byte	.LVL419
 7611 0949 3A060000 		.4byte	.LVL420
 7612 094d 0100     		.2byte	0x1
 7613 094f 53       		.byte	0x53
 7614 0950 6E060000 		.4byte	.LVL422
 7615 0954 72060000 		.4byte	.LVL423
 7616 0958 0200     		.2byte	0x2
 7617 095a 41       		.byte	0x41
 7618 095b 9F       		.byte	0x9f
 7619 095c 72060000 		.4byte	.LVL423
 7620 0960 80060000 		.4byte	.LVL424
 7621 0964 0100     		.2byte	0x1
 7622 0966 53       		.byte	0x53
 7623 0967 82060000 		.4byte	.LVL425
 7624 096b 88060000 		.4byte	.LVL426
 7625 096f 0100     		.2byte	0x1
 7626 0971 53       		.byte	0x53
 7627 0972 8A060000 		.4byte	.LVL427
 7628 0976 98060000 		.4byte	.LVL428
 7629 097a 0100     		.2byte	0x1
 7630 097c 53       		.byte	0x53
 7631 097d 9A060000 		.4byte	.LVL429
 7632 0981 A0060000 		.4byte	.LVL430
 7633 0985 0100     		.2byte	0x1
 7634 0987 53       		.byte	0x53
 7635 0988 A2060000 		.4byte	.LVL431
 7636 098c B0060000 		.4byte	.LVL432
 7637 0990 0100     		.2byte	0x1
 7638 0992 53       		.byte	0x53
 7639 0993 B2060000 		.4byte	.LVL433
 7640 0997 B8060000 		.4byte	.LVL434
 7641 099b 0100     		.2byte	0x1
 7642 099d 53       		.byte	0x53
 7643 099e BA060000 		.4byte	.LVL435
 7644 09a2 C8060000 		.4byte	.LVL436
 7645 09a6 0100     		.2byte	0x1
 7646 09a8 53       		.byte	0x53
 7647 09a9 CA060000 		.4byte	.LVL437
 7648 09ad D0060000 		.4byte	.LVL438
 7649 09b1 0100     		.2byte	0x1
 7650 09b3 53       		.byte	0x53
 7651 09b4 DE060000 		.4byte	.LVL440
 7652 09b8 E2060000 		.4byte	.LVL442
 7653 09bc 0200     		.2byte	0x2
 7654 09be 30       		.byte	0x30
 7655 09bf 9F       		.byte	0x9f
ARM GAS  C:\Users\RECEPC~1\AppData\Local\Temp\cckY5SBD.s 			page 154


 7656 09c0 E2060000 		.4byte	.LVL442
 7657 09c4 F2060000 		.4byte	.LVL444
 7658 09c8 0100     		.2byte	0x1
 7659 09ca 54       		.byte	0x54
 7660 09cb F4060000 		.4byte	.LVL445
 7661 09cf FA060000 		.4byte	.LVL446
 7662 09d3 0100     		.2byte	0x1
 7663 09d5 54       		.byte	0x54
 7664 09d6 FC060000 		.4byte	.LVL447
 7665 09da 10070000 		.4byte	.LVL449
 7666 09de 0100     		.2byte	0x1
 7667 09e0 54       		.byte	0x54
 7668 09e1 12070000 		.4byte	.LVL450
 7669 09e5 18070000 		.4byte	.LVL451
 7670 09e9 0100     		.2byte	0x1
 7671 09eb 54       		.byte	0x54
 7672 09ec 1A070000 		.4byte	.LVL452
 7673 09f0 2E070000 		.4byte	.LVL454
 7674 09f4 0100     		.2byte	0x1
 7675 09f6 54       		.byte	0x54
 7676 09f7 30070000 		.4byte	.LVL455
 7677 09fb 36070000 		.4byte	.LVL456
 7678 09ff 0100     		.2byte	0x1
 7679 0a01 54       		.byte	0x54
 7680 0a02 38070000 		.4byte	.LVL457
 7681 0a06 4C070000 		.4byte	.LVL459
 7682 0a0a 0100     		.2byte	0x1
 7683 0a0c 54       		.byte	0x54
 7684 0a0d 4E070000 		.4byte	.LVL460
 7685 0a11 5A070000 		.4byte	.LVL462
 7686 0a15 0100     		.2byte	0x1
 7687 0a17 54       		.byte	0x54
 7688 0a18 A4070000 		.4byte	.LVL470
 7689 0a1c A8070000 		.4byte	.LVL471
 7690 0a20 0200     		.2byte	0x2
 7691 0a22 30       		.byte	0x30
 7692 0a23 9F       		.byte	0x9f
 7693 0a24 A8070000 		.4byte	.LVL471
 7694 0a28 B2070000 		.4byte	.LVL473
 7695 0a2c 0100     		.2byte	0x1
 7696 0a2e 54       		.byte	0x54
 7697 0a2f B4070000 		.4byte	.LVL474
 7698 0a33 BC070000 		.4byte	.LVL475
 7699 0a37 0100     		.2byte	0x1
 7700 0a39 54       		.byte	0x54
 7701 0a3a BC070000 		.4byte	.LVL475
 7702 0a3e CA070000 		.4byte	.LVL476
 7703 0a42 0100     		.2byte	0x1
 7704 0a44 53       		.byte	0x53
 7705 0a45 CC070000 		.4byte	.LVL477
 7706 0a49 D2070000 		.4byte	.LVL478
 7707 0a4d 0100     		.2byte	0x1
 7708 0a4f 53       		.byte	0x53
 7709 0a50 00000000 		.4byte	0
 7710 0a54 00000000 		.4byte	0
 7711              	.LLST13:
 7712 0a58 34000000 		.4byte	.LVL247
ARM GAS  C:\Users\RECEPC~1\AppData\Local\Temp\cckY5SBD.s 			page 155


 7713 0a5c 3A000000 		.4byte	.LVL248
 7714 0a60 0200     		.2byte	0x2
 7715 0a62 30       		.byte	0x30
 7716 0a63 9F       		.byte	0x9f
 7717 0a64 3A000000 		.4byte	.LVL248
 7718 0a68 3E000000 		.4byte	.LVL249
 7719 0a6c 0200     		.2byte	0x2
 7720 0a6e 31       		.byte	0x31
 7721 0a6f 9F       		.byte	0x9f
 7722 0a70 3E000000 		.4byte	.LVL249
 7723 0a74 42000000 		.4byte	.LVL250
 7724 0a78 0200     		.2byte	0x2
 7725 0a7a 32       		.byte	0x32
 7726 0a7b 9F       		.byte	0x9f
 7727 0a7c 42000000 		.4byte	.LVL250
 7728 0a80 48000000 		.4byte	.LVL251
 7729 0a84 0200     		.2byte	0x2
 7730 0a86 33       		.byte	0x33
 7731 0a87 9F       		.byte	0x9f
 7732 0a88 48000000 		.4byte	.LVL251
 7733 0a8c 4C000000 		.4byte	.LVL252
 7734 0a90 0200     		.2byte	0x2
 7735 0a92 34       		.byte	0x34
 7736 0a93 9F       		.byte	0x9f
 7737 0a94 4C000000 		.4byte	.LVL252
 7738 0a98 36010000 		.4byte	.LVL254
 7739 0a9c 0200     		.2byte	0x2
 7740 0a9e 35       		.byte	0x35
 7741 0a9f 9F       		.byte	0x9f
 7742 0aa0 36010000 		.4byte	.LVL254
 7743 0aa4 3A010000 		.4byte	.LVL255
 7744 0aa8 0200     		.2byte	0x2
 7745 0aaa 36       		.byte	0x36
 7746 0aab 9F       		.byte	0x9f
 7747 0aac 3A010000 		.4byte	.LVL255
 7748 0ab0 42010000 		.4byte	.LVL256
 7749 0ab4 0200     		.2byte	0x2
 7750 0ab6 37       		.byte	0x37
 7751 0ab7 9F       		.byte	0x9f
 7752 0ab8 42010000 		.4byte	.LVL256
 7753 0abc 4C010000 		.4byte	.LVL258
 7754 0ac0 0200     		.2byte	0x2
 7755 0ac2 38       		.byte	0x38
 7756 0ac3 9F       		.byte	0x9f
 7757 0ac4 4C010000 		.4byte	.LVL258
 7758 0ac8 64010000 		.4byte	.LVL264
 7759 0acc 0200     		.2byte	0x2
 7760 0ace 39       		.byte	0x39
 7761 0acf 9F       		.byte	0x9f
 7762 0ad0 64010000 		.4byte	.LVL264
 7763 0ad4 6E010000 		.4byte	.LVL268
 7764 0ad8 0200     		.2byte	0x2
 7765 0ada 35       		.byte	0x35
 7766 0adb 9F       		.byte	0x9f
 7767 0adc 6E010000 		.4byte	.LVL268
 7768 0ae0 8C010000 		.4byte	.LVL269
 7769 0ae4 0100     		.2byte	0x1
ARM GAS  C:\Users\RECEPC~1\AppData\Local\Temp\cckY5SBD.s 			page 156


 7770 0ae6 54       		.byte	0x54
 7771 0ae7 8C010000 		.4byte	.LVL269
 7772 0aeb 92010000 		.4byte	.LVL270
 7773 0aef 0100     		.2byte	0x1
 7774 0af1 53       		.byte	0x53
 7775 0af2 92010000 		.4byte	.LVL270
 7776 0af6 94010000 		.4byte	.LVL271
 7777 0afa 0300     		.2byte	0x3
 7778 0afc 73       		.byte	0x73
 7779 0afd 7F       		.sleb128 -1
 7780 0afe 9F       		.byte	0x9f
 7781 0aff 94010000 		.4byte	.LVL271
 7782 0b03 A0010000 		.4byte	.LVL272
 7783 0b07 0100     		.2byte	0x1
 7784 0b09 53       		.byte	0x53
 7785 0b0a A0010000 		.4byte	.LVL272
 7786 0b0e AE010000 		.4byte	.LVL274
 7787 0b12 0100     		.2byte	0x1
 7788 0b14 54       		.byte	0x54
 7789 0b15 AE010000 		.4byte	.LVL274
 7790 0b19 B0010000 		.4byte	.LVL275
 7791 0b1d 0300     		.2byte	0x3
 7792 0b1f 74       		.byte	0x74
 7793 0b20 7F       		.sleb128 -1
 7794 0b21 9F       		.byte	0x9f
 7795 0b22 B0010000 		.4byte	.LVL275
 7796 0b26 E0010000 		.4byte	.LVL282
 7797 0b2a 0100     		.2byte	0x1
 7798 0b2c 54       		.byte	0x54
 7799 0b2d E0010000 		.4byte	.LVL282
 7800 0b31 E6010000 		.4byte	.LVL283
 7801 0b35 0100     		.2byte	0x1
 7802 0b37 53       		.byte	0x53
 7803 0b38 E6010000 		.4byte	.LVL283
 7804 0b3c E8010000 		.4byte	.LVL284
 7805 0b40 0300     		.2byte	0x3
 7806 0b42 73       		.byte	0x73
 7807 0b43 7F       		.sleb128 -1
 7808 0b44 9F       		.byte	0x9f
 7809 0b45 E8010000 		.4byte	.LVL284
 7810 0b49 F4010000 		.4byte	.LVL285
 7811 0b4d 0100     		.2byte	0x1
 7812 0b4f 53       		.byte	0x53
 7813 0b50 F4010000 		.4byte	.LVL285
 7814 0b54 02020000 		.4byte	.LVL287
 7815 0b58 0100     		.2byte	0x1
 7816 0b5a 54       		.byte	0x54
 7817 0b5b 02020000 		.4byte	.LVL287
 7818 0b5f 04020000 		.4byte	.LVL288
 7819 0b63 0300     		.2byte	0x3
 7820 0b65 74       		.byte	0x74
 7821 0b66 7F       		.sleb128 -1
 7822 0b67 9F       		.byte	0x9f
 7823 0b68 04020000 		.4byte	.LVL288
 7824 0b6c 30020000 		.4byte	.LVL294
 7825 0b70 0100     		.2byte	0x1
 7826 0b72 54       		.byte	0x54
ARM GAS  C:\Users\RECEPC~1\AppData\Local\Temp\cckY5SBD.s 			page 157


 7827 0b73 30020000 		.4byte	.LVL294
 7828 0b77 36020000 		.4byte	.LVL295
 7829 0b7b 0100     		.2byte	0x1
 7830 0b7d 53       		.byte	0x53
 7831 0b7e 36020000 		.4byte	.LVL295
 7832 0b82 38020000 		.4byte	.LVL296
 7833 0b86 0300     		.2byte	0x3
 7834 0b88 73       		.byte	0x73
 7835 0b89 7F       		.sleb128 -1
 7836 0b8a 9F       		.byte	0x9f
 7837 0b8b 38020000 		.4byte	.LVL296
 7838 0b8f 44020000 		.4byte	.LVL297
 7839 0b93 0100     		.2byte	0x1
 7840 0b95 53       		.byte	0x53
 7841 0b96 44020000 		.4byte	.LVL297
 7842 0b9a 52020000 		.4byte	.LVL299
 7843 0b9e 0100     		.2byte	0x1
 7844 0ba0 54       		.byte	0x54
 7845 0ba1 52020000 		.4byte	.LVL299
 7846 0ba5 54020000 		.4byte	.LVL300
 7847 0ba9 0300     		.2byte	0x3
 7848 0bab 74       		.byte	0x74
 7849 0bac 7F       		.sleb128 -1
 7850 0bad 9F       		.byte	0x9f
 7851 0bae 54020000 		.4byte	.LVL300
 7852 0bb2 6A020000 		.4byte	.LVL305
 7853 0bb6 0100     		.2byte	0x1
 7854 0bb8 54       		.byte	0x54
 7855 0bb9 6A020000 		.4byte	.LVL305
 7856 0bbd 80020000 		.4byte	.LVL307
 7857 0bc1 0200     		.2byte	0x2
 7858 0bc3 35       		.byte	0x35
 7859 0bc4 9F       		.byte	0x9f
 7860 0bc5 80020000 		.4byte	.LVL307
 7861 0bc9 84020000 		.4byte	.LVL308
 7862 0bcd 0200     		.2byte	0x2
 7863 0bcf 36       		.byte	0x36
 7864 0bd0 9F       		.byte	0x9f
 7865 0bd1 84020000 		.4byte	.LVL308
 7866 0bd5 8C020000 		.4byte	.LVL309
 7867 0bd9 0200     		.2byte	0x2
 7868 0bdb 37       		.byte	0x37
 7869 0bdc 9F       		.byte	0x9f
 7870 0bdd 8C020000 		.4byte	.LVL309
 7871 0be1 96020000 		.4byte	.LVL311
 7872 0be5 0200     		.2byte	0x2
 7873 0be7 38       		.byte	0x38
 7874 0be8 9F       		.byte	0x9f
 7875 0be9 96020000 		.4byte	.LVL311
 7876 0bed CC020000 		.4byte	.LVL316
 7877 0bf1 0200     		.2byte	0x2
 7878 0bf3 39       		.byte	0x39
 7879 0bf4 9F       		.byte	0x9f
 7880 0bf5 CC020000 		.4byte	.LVL316
 7881 0bf9 CE020000 		.4byte	.LVL317
 7882 0bfd 0200     		.2byte	0x2
 7883 0bff 35       		.byte	0x35
ARM GAS  C:\Users\RECEPC~1\AppData\Local\Temp\cckY5SBD.s 			page 158


 7884 0c00 9F       		.byte	0x9f
 7885 0c01 CE020000 		.4byte	.LVL317
 7886 0c05 F0020000 		.4byte	.LVL319
 7887 0c09 0100     		.2byte	0x1
 7888 0c0b 53       		.byte	0x53
 7889 0c0c F0020000 		.4byte	.LVL319
 7890 0c10 F2020000 		.4byte	.LVL320
 7891 0c14 0300     		.2byte	0x3
 7892 0c16 73       		.byte	0x73
 7893 0c17 7F       		.sleb128 -1
 7894 0c18 9F       		.byte	0x9f
 7895 0c19 F2020000 		.4byte	.LVL320
 7896 0c1d FE020000 		.4byte	.LVL321
 7897 0c21 0100     		.2byte	0x1
 7898 0c23 53       		.byte	0x53
 7899 0c24 FE020000 		.4byte	.LVL321
 7900 0c28 0C030000 		.4byte	.LVL323
 7901 0c2c 0100     		.2byte	0x1
 7902 0c2e 54       		.byte	0x54
 7903 0c2f 0C030000 		.4byte	.LVL323
 7904 0c33 0E030000 		.4byte	.LVL324
 7905 0c37 0300     		.2byte	0x3
 7906 0c39 74       		.byte	0x74
 7907 0c3a 7F       		.sleb128 -1
 7908 0c3b 9F       		.byte	0x9f
 7909 0c3c 0E030000 		.4byte	.LVL324
 7910 0c40 24030000 		.4byte	.LVL329
 7911 0c44 0100     		.2byte	0x1
 7912 0c46 54       		.byte	0x54
 7913 0c47 24030000 		.4byte	.LVL329
 7914 0c4b 66030000 		.4byte	.LVL337
 7915 0c4f 0200     		.2byte	0x2
 7916 0c51 35       		.byte	0x35
 7917 0c52 9F       		.byte	0x9f
 7918 0c53 66030000 		.4byte	.LVL337
 7919 0c57 6A030000 		.4byte	.LVL338
 7920 0c5b 0200     		.2byte	0x2
 7921 0c5d 36       		.byte	0x36
 7922 0c5e 9F       		.byte	0x9f
 7923 0c5f 6A030000 		.4byte	.LVL338
 7924 0c63 6E030000 		.4byte	.LVL339
 7925 0c67 0200     		.2byte	0x2
 7926 0c69 37       		.byte	0x37
 7927 0c6a 9F       		.byte	0x9f
 7928 0c6b 6E030000 		.4byte	.LVL339
 7929 0c6f 70030000 		.4byte	.LVL340
 7930 0c73 0200     		.2byte	0x2
 7931 0c75 38       		.byte	0x38
 7932 0c76 9F       		.byte	0x9f
 7933 0c77 70030000 		.4byte	.LVL340
 7934 0c7b B2030000 		.4byte	.LVL347
 7935 0c7f 0100     		.2byte	0x1
 7936 0c81 54       		.byte	0x54
 7937 0c82 B2030000 		.4byte	.LVL347
 7938 0c86 B8030000 		.4byte	.LVL348
 7939 0c8a 0100     		.2byte	0x1
 7940 0c8c 53       		.byte	0x53
ARM GAS  C:\Users\RECEPC~1\AppData\Local\Temp\cckY5SBD.s 			page 159


 7941 0c8d B8030000 		.4byte	.LVL348
 7942 0c91 BA030000 		.4byte	.LVL349
 7943 0c95 0300     		.2byte	0x3
 7944 0c97 73       		.byte	0x73
 7945 0c98 7F       		.sleb128 -1
 7946 0c99 9F       		.byte	0x9f
 7947 0c9a BA030000 		.4byte	.LVL349
 7948 0c9e C0030000 		.4byte	.LVL350
 7949 0ca2 0100     		.2byte	0x1
 7950 0ca4 53       		.byte	0x53
 7951 0ca5 C0030000 		.4byte	.LVL350
 7952 0ca9 C2030000 		.4byte	.LVL351
 7953 0cad 0300     		.2byte	0x3
 7954 0caf 73       		.byte	0x73
 7955 0cb0 7F       		.sleb128 -1
 7956 0cb1 9F       		.byte	0x9f
 7957 0cb2 C2030000 		.4byte	.LVL351
 7958 0cb6 04040000 		.4byte	.LVL358
 7959 0cba 0100     		.2byte	0x1
 7960 0cbc 54       		.byte	0x54
 7961 0cbd 04040000 		.4byte	.LVL358
 7962 0cc1 0A040000 		.4byte	.LVL359
 7963 0cc5 0100     		.2byte	0x1
 7964 0cc7 53       		.byte	0x53
 7965 0cc8 0A040000 		.4byte	.LVL359
 7966 0ccc 0C040000 		.4byte	.LVL360
 7967 0cd0 0300     		.2byte	0x3
 7968 0cd2 73       		.byte	0x73
 7969 0cd3 7F       		.sleb128 -1
 7970 0cd4 9F       		.byte	0x9f
 7971 0cd5 0C040000 		.4byte	.LVL360
 7972 0cd9 12040000 		.4byte	.LVL361
 7973 0cdd 0100     		.2byte	0x1
 7974 0cdf 53       		.byte	0x53
 7975 0ce0 12040000 		.4byte	.LVL361
 7976 0ce4 14040000 		.4byte	.LVL362
 7977 0ce8 0300     		.2byte	0x3
 7978 0cea 73       		.byte	0x73
 7979 0ceb 7F       		.sleb128 -1
 7980 0cec 9F       		.byte	0x9f
 7981 0ced 14040000 		.4byte	.LVL362
 7982 0cf1 56040000 		.4byte	.LVL369
 7983 0cf5 0100     		.2byte	0x1
 7984 0cf7 54       		.byte	0x54
 7985 0cf8 56040000 		.4byte	.LVL369
 7986 0cfc 5C040000 		.4byte	.LVL370
 7987 0d00 0100     		.2byte	0x1
 7988 0d02 53       		.byte	0x53
 7989 0d03 5C040000 		.4byte	.LVL370
 7990 0d07 5E040000 		.4byte	.LVL371
 7991 0d0b 0300     		.2byte	0x3
 7992 0d0d 73       		.byte	0x73
 7993 0d0e 7F       		.sleb128 -1
 7994 0d0f 9F       		.byte	0x9f
 7995 0d10 5E040000 		.4byte	.LVL371
 7996 0d14 64040000 		.4byte	.LVL372
 7997 0d18 0100     		.2byte	0x1
ARM GAS  C:\Users\RECEPC~1\AppData\Local\Temp\cckY5SBD.s 			page 160


 7998 0d1a 53       		.byte	0x53
 7999 0d1b 64040000 		.4byte	.LVL372
 8000 0d1f 66040000 		.4byte	.LVL373
 8001 0d23 0300     		.2byte	0x3
 8002 0d25 73       		.byte	0x73
 8003 0d26 7F       		.sleb128 -1
 8004 0d27 9F       		.byte	0x9f
 8005 0d28 66040000 		.4byte	.LVL373
 8006 0d2c 76040000 		.4byte	.LVL375
 8007 0d30 0100     		.2byte	0x1
 8008 0d32 54       		.byte	0x54
 8009 0d33 76040000 		.4byte	.LVL375
 8010 0d37 8C040000 		.4byte	.LVL380
 8011 0d3b 0100     		.2byte	0x1
 8012 0d3d 55       		.byte	0x55
 8013 0d3e 8C040000 		.4byte	.LVL380
 8014 0d42 28080000 		.4byte	.LVL483
 8015 0d46 0200     		.2byte	0x2
 8016 0d48 35       		.byte	0x35
 8017 0d49 9F       		.byte	0x9f
 8018 0d4a 00000000 		.4byte	0
 8019 0d4e 00000000 		.4byte	0
 8020              		.section	.debug_aranges,"",%progbits
 8021 0000 34000000 		.4byte	0x34
 8022 0004 0200     		.2byte	0x2
 8023 0006 00000000 		.4byte	.Ldebug_info0
 8024 000a 04       		.byte	0x4
 8025 000b 00       		.byte	0
 8026 000c 0000     		.2byte	0
 8027 000e 0000     		.2byte	0
 8028 0010 00000000 		.4byte	.LFB63
 8029 0014 34000000 		.4byte	.LFE63-.LFB63
 8030 0018 00000000 		.4byte	.LFB65
 8031 001c 34050000 		.4byte	.LFE65-.LFB65
 8032 0020 00000000 		.4byte	.LFB66
 8033 0024 8C040000 		.4byte	.LFE66-.LFB66
 8034 0028 00000000 		.4byte	.LFB64
 8035 002c 84080000 		.4byte	.LFE64-.LFB64
 8036 0030 00000000 		.4byte	0
 8037 0034 00000000 		.4byte	0
 8038              		.section	.debug_ranges,"",%progbits
 8039              	.Ldebug_ranges0:
 8040 0000 00000000 		.4byte	.LFB63
 8041 0004 34000000 		.4byte	.LFE63
 8042 0008 00000000 		.4byte	.LFB65
 8043 000c 34050000 		.4byte	.LFE65
 8044 0010 00000000 		.4byte	.LFB66
 8045 0014 8C040000 		.4byte	.LFE66
 8046 0018 00000000 		.4byte	.LFB64
 8047 001c 84080000 		.4byte	.LFE64
 8048 0020 00000000 		.4byte	0
 8049 0024 00000000 		.4byte	0
 8050              		.section	.debug_line,"",%progbits
 8051              	.Ldebug_line0:
 8052 0000 86080000 		.section	.debug_str,"MS",%progbits,1
 8052      0200BB01 
 8052      00000201 
ARM GAS  C:\Users\RECEPC~1\AppData\Local\Temp\cckY5SBD.s 			page 161


 8052      FB0E0D00 
 8052      01010101 
 8053              	.LASF255:
 8054 0000 52465F43 		.ascii	"RF_Connection_ReadRxData\000"
 8054      6F6E6E65 
 8054      6374696F 
 8054      6E5F5265 
 8054      61645278 
 8055              	.LASF253:
 8056 0019 43794465 		.ascii	"CyDelay\000"
 8056      6C617900 
 8057              	.LASF120:
 8058 0021 44495350 		.ascii	"DISPLAY_HORA\000"
 8058      4C41595F 
 8058      484F5241 
 8058      00
 8059              	.LASF96:
 8060 002e 44495350 		.ascii	"DISPLAY_INGRESE_PASSWORD\000"
 8060      4C41595F 
 8060      494E4752 
 8060      4553455F 
 8060      50415353 
 8061              	.LASF129:
 8062 0047 44495350 		.ascii	"DISPLAY_IMPRESORA_NO_FUNCIONANDO\000"
 8062      4C41595F 
 8062      494D5052 
 8062      45534F52 
 8062      415F4E4F 
 8063              	.LASF118:
 8064 0068 44495350 		.ascii	"DISPLAY_AUTORIZACION_RECHAZADA\000"
 8064      4C41595F 
 8064      4155544F 
 8064      52495A41 
 8064      43494F4E 
 8065              	.LASF225:
 8066 0087 636F756E 		.ascii	"count_protector2\000"
 8066      745F7072 
 8066      6F746563 
 8066      746F7232 
 8066      00
 8067              	.LASF186:
 8068 0098 64656369 		.ascii	"decimalVolume\000"
 8068      6D616C56 
 8068      6F6C756D 
 8068      6500
 8069              	.LASF197:
 8070 00a6 50726576 		.ascii	"PrevStatePump\000"
 8070      53746174 
 8070      6550756D 
 8070      7000
 8071              	.LASF245:
 8072 00b4 47726164 		.ascii	"GradesHose\000"
 8072      6573486F 
 8072      736500
 8073              	.LASF132:
 8074 00bf 44495350 		.ascii	"DISPLAY_DUMMY0\000"
 8074      4C41595F 
ARM GAS  C:\Users\RECEPC~1\AppData\Local\Temp\cckY5SBD.s 			page 162


 8074      44554D4D 
 8074      593000
 8075              	.LASF78:
 8076 00ce 52467374 		.ascii	"RFstateReport\000"
 8076      61746552 
 8076      65706F72 
 8076      7400
 8077              	.LASF54:
 8078 00dc 766F6C75 		.ascii	"volumeQuota\000"
 8078      6D655175 
 8078      6F746100 
 8079              	.LASF131:
 8080 00e8 44495350 		.ascii	"DISPLAY_PRECIO_POR_UNIDAD\000"
 8080      4C41595F 
 8080      50524543 
 8080      494F5F50 
 8080      4F525F55 
 8081              	.LASF163:
 8082 0102 706F6C6C 		.ascii	"pollingRFA_Tx\000"
 8082      696E6752 
 8082      46415F54 
 8082      7800
 8083              	.LASF215:
 8084 0110 73746174 		.ascii	"statePump\000"
 8084      6550756D 
 8084      7000
 8085              	.LASF63:
 8086 011a 62756666 		.ascii	"buffer\000"
 8086      657200
 8087              	.LASF232:
 8088 0121 62756666 		.ascii	"buffer_rf\000"
 8088      65725F72 
 8088      6600
 8089              	.LASF185:
 8090 012b 64656369 		.ascii	"decimalMoney\000"
 8090      6D616C4D 
 8090      6F6E6579 
 8090      00
 8091              	.LASF33:
 8092 0138 73616C65 		.ascii	"salePerform\000"
 8092      50657266 
 8092      6F726D00 
 8093              	.LASF8:
 8094 0144 756E7369 		.ascii	"unsigned int\000"
 8094      676E6564 
 8094      20696E74 
 8094      00
 8095              	.LASF220:
 8096 0151 5072696E 		.ascii	"PrinterType\000"
 8096      74657254 
 8096      79706500 
 8097              	.LASF9:
 8098 015d 5F5F696E 		.ascii	"__int32_t\000"
 8098      7433325F 
 8098      7400
 8099              	.LASF51:
 8100 0167 666C6167 		.ascii	"flagLiftHandle\000"
ARM GAS  C:\Users\RECEPC~1\AppData\Local\Temp\cckY5SBD.s 			page 163


 8100      4C696674 
 8100      48616E64 
 8100      6C6500
 8101              	.LASF98:
 8102 0176 44495350 		.ascii	"DISPLAY_PASSWORD_INVALIDO\000"
 8102      4C41595F 
 8102      50415353 
 8102      574F5244 
 8102      5F494E56 
 8103              	.LASF191:
 8104 0190 72657369 		.ascii	"residue\000"
 8104      64756500 
 8105              	.LASF203:
 8106 0198 74656D70 		.ascii	"tempPreset\000"
 8106      50726573 
 8106      657400
 8107              	.LASF21:
 8108 01a3 69645479 		.ascii	"idType\000"
 8108      706500
 8109              	.LASF136:
 8110 01aa 44495350 		.ascii	"DISPLAY_SIDE_DUMMY_DISPLAY\000"
 8110      4C41595F 
 8110      53494445 
 8110      5F44554D 
 8110      4D595F44 
 8111              	.LASF214:
 8112 01c5 44444D6F 		.ascii	"DDMode\000"
 8112      646500
 8113              	.LASF250:
 8114 01cc 73696465 		.ascii	"side\000"
 8114      00
 8115              	.LASF88:
 8116 01d1 44495350 		.ascii	"DISPLAY_INTRODUZCA_VALOR2\000"
 8116      4C41595F 
 8116      494E5452 
 8116      4F44555A 
 8116      43415F56 
 8117              	.LASF228:
 8118 01eb 69645374 		.ascii	"idStation\000"
 8118      6174696F 
 8118      6E00
 8119              	.LASF259:
 8120 01f5 77726974 		.ascii	"write_hora\000"
 8120      655F686F 
 8120      726100
 8121              	.LASF25:
 8122 0200 73656C65 		.ascii	"selectedSale\000"
 8122      63746564 
 8122      53616C65 
 8122      00
 8123              	.LASF180:
 8124 020d 666C6167 		.ascii	"flagPoint2\000"
 8124      506F696E 
 8124      743200
 8125              	.LASF170:
 8126 0218 636F756E 		.ascii	"countTX\000"
 8126      74545800 
ARM GAS  C:\Users\RECEPC~1\AppData\Local\Temp\cckY5SBD.s 			page 164


 8127              	.LASF76:
 8128 0220 6368616E 		.ascii	"changePPU\000"
 8128      67655050 
 8128      5500
 8129              	.LASF190:
 8130 022a 73637265 		.ascii	"screen\000"
 8130      656E00
 8131              	.LASF227:
 8132 0231 636F6E74 		.ascii	"controlChar\000"
 8132      726F6C43 
 8132      68617200 
 8133              	.LASF201:
 8134 023d 636F756E 		.ascii	"counterRF\000"
 8134      74657252 
 8134      4600
 8135              	.LASF257:
 8136 0247 77726974 		.ascii	"write_psoc1\000"
 8136      655F7073 
 8136      6F633100 
 8137              	.LASF95:
 8138 0253 44495350 		.ascii	"DISPLAY_DESEA_IMPRIMIR_RECIBO\000"
 8138      4C41595F 
 8138      44455345 
 8138      415F494D 
 8138      5052494D 
 8139              	.LASF198:
 8140 0271 506C6174 		.ascii	"PlateRequest\000"
 8140      65526571 
 8140      75657374 
 8140      00
 8141              	.LASF117:
 8142 027e 44495350 		.ascii	"DISPLAY_AUTORIZACION_ACEPTADA\000"
 8142      4C41595F 
 8142      4155544F 
 8142      52495A41 
 8142      43494F4E 
 8143              	.LASF233:
 8144 029c 62756666 		.ascii	"buffer_tx\000"
 8144      65725F74 
 8144      7800
 8145              	.LASF141:
 8146 02a6 50554D50 		.ascii	"PUMP_IDLE\000"
 8146      5F49444C 
 8146      4500
 8147              	.LASF14:
 8148 02b0 666C6F61 		.ascii	"float\000"
 8148      7400
 8149              	.LASF128:
 8150 02b6 44495350 		.ascii	"DISPLAY_AMBAS_IMPRESORAS_FUNCIONANDO\000"
 8150      4C41595F 
 8150      414D4241 
 8150      535F494D 
 8150      50524553 
 8151              	.LASF160:
 8152 02db 63686563 		.ascii	"checksum\000"
 8152      6B73756D 
 8152      00
ARM GAS  C:\Users\RECEPC~1\AppData\Local\Temp\cckY5SBD.s 			page 165


 8153              	.LASF205:
 8154 02e4 43477261 		.ascii	"CGrade\000"
 8154      646500
 8155              	.LASF161:
 8156 02eb 696E6465 		.ascii	"index\000"
 8156      7800
 8157              	.LASF260:
 8158 02f1 77726974 		.ascii	"write_fecha\000"
 8158      655F6665 
 8158      63686100 
 8159              	.LASF104:
 8160 02fd 44495350 		.ascii	"DISPLAY_ESPERANDO_ID\000"
 8160      4C41595F 
 8160      45535045 
 8160      52414E44 
 8160      4F5F4944 
 8161              	.LASF206:
 8162 0312 53686966 		.ascii	"ShiftState\000"
 8162      74537461 
 8162      746500
 8163              	.LASF211:
 8164 031d 4D6F6E65 		.ascii	"MoneyDec\000"
 8164      79446563 
 8164      00
 8165              	.LASF246:
 8166 0326 62756666 		.ascii	"bufferDisplay1\000"
 8166      65724469 
 8166      73706C61 
 8166      793100
 8167              	.LASF72:
 8168 0335 686F7365 		.ascii	"hose\000"
 8168      00
 8169              	.LASF258:
 8170 033a 696D7072 		.ascii	"imprimir\000"
 8170      696D6972 
 8170      00
 8171              	.LASF248:
 8172 0343 62756666 		.ascii	"bufferDisplay3\000"
 8172      65724469 
 8172      73706C61 
 8172      793300
 8173              	.LASF140:
 8174 0352 50554D50 		.ascii	"PUMP_FAIL\000"
 8174      5F464149 
 8174      4C00
 8175              	.LASF7:
 8176 035c 6C6F6E67 		.ascii	"long long unsigned int\000"
 8176      206C6F6E 
 8176      6720756E 
 8176      7369676E 
 8176      65642069 
 8177              	.LASF153:
 8178 0373 52465F57 		.ascii	"RF_WORKSHIFTREQ\000"
 8178      4F524B53 
 8178      48494654 
 8178      52455100 
 8179              	.LASF146:
ARM GAS  C:\Users\RECEPC~1\AppData\Local\Temp\cckY5SBD.s 			page 166


 8180 0383 50554D50 		.ascii	"PUMP_FEOT\000"
 8180      5F46454F 
 8180      5400
 8181              	.LASF107:
 8182 038d 44495350 		.ascii	"DISPLAY_INTRODUZCA_VOLUMEN\000"
 8182      4C41595F 
 8182      494E5452 
 8182      4F44555A 
 8182      43415F56 
 8183              	.LASF41:
 8184 03a8 746F7461 		.ascii	"totalVolumePrevious\000"
 8184      6C566F6C 
 8184      756D6550 
 8184      72657669 
 8184      6F757300 
 8185              	.LASF110:
 8186 03bc 44495350 		.ascii	"DISPLAY_CONFIGURACIONES\000"
 8186      4C41595F 
 8186      434F4E46 
 8186      49475552 
 8186      4143494F 
 8187              	.LASF226:
 8188 03d4 636F6E66 		.ascii	"configAccess\000"
 8188      69674163 
 8188      63657373 
 8188      00
 8189              	.LASF115:
 8190 03e1 44495350 		.ascii	"DISPLAY_ESPERANDO_AUTORIZACION\000"
 8190      4C41595F 
 8190      45535045 
 8190      52414E44 
 8190      4F5F4155 
 8191              	.LASF218:
 8192 0400 64696769 		.ascii	"digits\000"
 8192      747300
 8193              	.LASF139:
 8194 0407 5F50554D 		.ascii	"_PUMP_STATES_\000"
 8194      505F5354 
 8194      41544553 
 8194      5F00
 8195              	.LASF188:
 8196 0415 74696D65 		.ascii	"time\000"
 8196      00
 8197              	.LASF254:
 8198 041a 52465F43 		.ascii	"RF_Connection_GetRxBufferSize\000"
 8198      6F6E6E65 
 8198      6374696F 
 8198      6E5F4765 
 8198      74527842 
 8199              	.LASF230:
 8200 0438 7072696E 		.ascii	"printPortA\000"
 8200      74506F72 
 8200      744100
 8201              	.LASF231:
 8202 0443 7072696E 		.ascii	"printPortB\000"
 8202      74506F72 
 8202      744200
ARM GAS  C:\Users\RECEPC~1\AppData\Local\Temp\cckY5SBD.s 			page 167


 8203              	.LASF36:
 8204 044e 70726F64 		.ascii	"productType\000"
 8204      75637454 
 8204      79706500 
 8205              	.LASF235:
 8206 045a 62756666 		.ascii	"buffer_print\000"
 8206      65725F70 
 8206      72696E74 
 8206      00
 8207              	.LASF181:
 8208 0467 70726F64 		.ascii	"productNumber\000"
 8208      7563744E 
 8208      756D6265 
 8208      7200
 8209              	.LASF192:
 8210 0475 69645365 		.ascii	"idSeller\000"
 8210      6C6C6572 
 8210      00
 8211              	.LASF22:
 8212 047e 69645365 		.ascii	"idSerial\000"
 8212      7269616C 
 8212      00
 8213              	.LASF217:
 8214 0487 6C6F636B 		.ascii	"lockTurn\000"
 8214      5475726E 
 8214      00
 8215              	.LASF172:
 8216 0490 636F756E 		.ascii	"countLCD\000"
 8216      744C4344 
 8216      00
 8217              	.LASF148:
 8218 0499 5F52465F 		.ascii	"_RF_STATES_\000"
 8218      53544154 
 8218      45535F00 
 8219              	.LASF47:
 8220 04a5 6D696C65 		.ascii	"mileageSale\000"
 8220      61676553 
 8220      616C6500 
 8221              	.LASF58:
 8222 04b1 666C6167 		.ascii	"flagChangePPU\000"
 8222      4368616E 
 8222      67655050 
 8222      5500
 8223              	.LASF84:
 8224 04bf 44495350 		.ascii	"DISPLAY_INICIO2\000"
 8224      4C41595F 
 8224      494E4943 
 8224      494F3200 
 8225              	.LASF60:
 8226 04cf 666C6167 		.ascii	"flagActiveSale\000"
 8226      41637469 
 8226      76655361 
 8226      6C6500
 8227              	.LASF173:
 8228 04de 666C6F77 		.ascii	"flowDisplay1\000"
 8228      44697370 
 8228      6C617931 
ARM GAS  C:\Users\RECEPC~1\AppData\Local\Temp\cckY5SBD.s 			page 168


 8228      00
 8229              	.LASF174:
 8230 04eb 666C6F77 		.ascii	"flowDisplay2\000"
 8230      44697370 
 8230      6C617932 
 8230      00
 8231              	.LASF175:
 8232 04f8 666C6F77 		.ascii	"flowDisplay3\000"
 8232      44697370 
 8232      6C617933 
 8232      00
 8233              	.LASF176:
 8234 0505 666C6F77 		.ascii	"flowDisplay4\000"
 8234      44697370 
 8234      6C617934 
 8234      00
 8235              	.LASF165:
 8236 0512 706F6C6C 		.ascii	"pollingRF_Rx\000"
 8236      696E6752 
 8236      465F5278 
 8236      00
 8237              	.LASF65:
 8238 051f 746F7461 		.ascii	"totalsHandle\000"
 8238      6C734861 
 8238      6E646C65 
 8238      00
 8239              	.LASF35:
 8240 052c 70726573 		.ascii	"presetValue\000"
 8240      65745661 
 8240      6C756500 
 8241              	.LASF85:
 8242 0538 44495350 		.ascii	"DISPLAY_FORMA_PAGO_DESEADA\000"
 8242      4C41595F 
 8242      464F524D 
 8242      415F5041 
 8242      474F5F44 
 8243              	.LASF262:
 8244 0553 45455052 		.ascii	"EEPROM_1_ReadByte\000"
 8244      4F4D5F31 
 8244      5F526561 
 8244      64427974 
 8244      6500
 8245              	.LASF48:
 8246 0565 6964656E 		.ascii	"identySale\000"
 8246      74795361 
 8246      6C6500
 8247              	.LASF32:
 8248 0570 73616C65 		.ascii	"saleType\000"
 8248      54797065 
 8248      00
 8249              	.LASF144:
 8250 0579 50554D50 		.ascii	"PUMP_BUSY\000"
 8250      5F425553 
 8250      5900
 8251              	.LASF30:
 8252 0583 76616C75 		.ascii	"valueKeys\000"
 8252      654B6579 
ARM GAS  C:\Users\RECEPC~1\AppData\Local\Temp\cckY5SBD.s 			page 169


 8252      7300
 8253              	.LASF18:
 8254 058d 63686172 		.ascii	"char\000"
 8254      00
 8255              	.LASF210:
 8256 0592 436F6E76 		.ascii	"ConversionFactor\000"
 8256      65727369 
 8256      6F6E4661 
 8256      63746F72 
 8256      00
 8257              	.LASF147:
 8258 05a3 50554D50 		.ascii	"PUMP_STOPPED\000"
 8258      5F53544F 
 8258      50504544 
 8258      00
 8259              	.LASF177:
 8260 05b0 6E756D62 		.ascii	"numberKeys1\000"
 8260      65724B65 
 8260      79733100 
 8261              	.LASF178:
 8262 05bc 6E756D62 		.ascii	"numberKeys2\000"
 8262      65724B65 
 8262      79733200 
 8263              	.LASF162:
 8264 05c8 7461626C 		.ascii	"table\000"
 8264      6500
 8265              	.LASF82:
 8266 05ce 44495350 		.ascii	"DISPLAY_INICIO0\000"
 8266      4C41595F 
 8266      494E4943 
 8266      494F3000 
 8267              	.LASF252:
 8268 05de 52465F43 		.ascii	"RF_Connection_PutChar\000"
 8268      6F6E6E65 
 8268      6374696F 
 8268      6E5F5075 
 8268      74436861 
 8269              	.LASF83:
 8270 05f4 44495350 		.ascii	"DISPLAY_INICIO1\000"
 8270      4C41595F 
 8270      494E4943 
 8270      494F3100 
 8271              	.LASF12:
 8272 0604 75696E74 		.ascii	"uint16\000"
 8272      313600
 8273              	.LASF86:
 8274 060b 44495350 		.ascii	"DISPLAY_FORMA_PROGRAMACION\000"
 8274      4C41595F 
 8274      464F524D 
 8274      415F5052 
 8274      4F475241 
 8275              	.LASF189:
 8276 0626 64617465 		.ascii	"date\000"
 8276      00
 8277              	.LASF219:
 8278 062b 68696464 		.ascii	"hiddenKeys\000"
 8278      656E4B65 
ARM GAS  C:\Users\RECEPC~1\AppData\Local\Temp\cckY5SBD.s 			page 170


 8278      797300
 8279              	.LASF75:
 8280 0636 70756D70 		.ascii	"pumpState\000"
 8280      53746174 
 8280      6500
 8281              	.LASF50:
 8282 0640 666C6167 		.ascii	"flagPayment\000"
 8282      5061796D 
 8282      656E7400 
 8283              	.LASF17:
 8284 064c 63686172 		.ascii	"char8\000"
 8284      3800
 8285              	.LASF157:
 8286 0652 52465F5A 		.ascii	"RF_ZERO_SALE\000"
 8286      45524F5F 
 8286      53414C45 
 8286      00
 8287              	.LASF108:
 8288 065f 44495350 		.ascii	"DISPLAY_INTRODUZCA_KILOMETRAJE\000"
 8288      4C41595F 
 8288      494E5452 
 8288      4F44555A 
 8288      43415F4B 
 8289              	.LASF55:
 8290 067e 70707551 		.ascii	"ppuQuota\000"
 8290      756F7461 
 8290      00
 8291              	.LASF158:
 8292 0687 6461746F 		.ascii	"datos\000"
 8292      7300
 8293              	.LASF169:
 8294 068d 636F756E 		.ascii	"countRX\000"
 8294      74525800 
 8295              	.LASF43:
 8296 0695 746F7461 		.ascii	"totalMoneyAfter\000"
 8296      6C4D6F6E 
 8296      65794166 
 8296      74657200 
 8297              	.LASF265:
 8298 06a5 2E5C5246 		.ascii	".\\RFPoll.c\000"
 8298      506F6C6C 
 8298      2E6300
 8299              	.LASF53:
 8300 06b0 6D6F6E65 		.ascii	"moneyQuota\000"
 8300      7951756F 
 8300      746100
 8301              	.LASF57:
 8302 06bb 7072696E 		.ascii	"printers\000"
 8302      74657273 
 8302      00
 8303              	.LASF200:
 8304 06c4 41637469 		.ascii	"ActiveRF\000"
 8304      76655246 
 8304      00
 8305              	.LASF152:
 8306 06cd 52465F43 		.ascii	"RF_CREDITSALEAUTH\000"
 8306      52454449 
ARM GAS  C:\Users\RECEPC~1\AppData\Local\Temp\cckY5SBD.s 			page 171


 8306      5453414C 
 8306      45415554 
 8306      4800
 8307              	.LASF267:
 8308 06df 76657269 		.ascii	"verificar_check\000"
 8308      66696361 
 8308      725F6368 
 8308      65636B00 
 8309              	.LASF67:
 8310 06ef 6D6F6E65 		.ascii	"moneySale\000"
 8310      7953616C 
 8310      6500
 8311              	.LASF6:
 8312 06f9 6C6F6E67 		.ascii	"long long int\000"
 8312      206C6F6E 
 8312      6720696E 
 8312      7400
 8313              	.LASF261:
 8314 0707 45455052 		.ascii	"EEPROM_1_WriteByte\000"
 8314      4F4D5F31 
 8314      5F577269 
 8314      74654279 
 8314      746500
 8315              	.LASF91:
 8316 071a 44495350 		.ascii	"DISPLAY_SUBA_MANIJA\000"
 8316      4C41595F 
 8316      53554241 
 8316      5F4D414E 
 8316      494A4100 
 8317              	.LASF130:
 8318 072e 44495350 		.ascii	"DISPLAY_IDENTIFICADOR_ESTACION\000"
 8318      4C41595F 
 8318      4944454E 
 8318      54494649 
 8318      4341444F 
 8319              	.LASF69:
 8320 074d 70707553 		.ascii	"ppuSale\000"
 8320      616C6500 
 8321              	.LASF167:
 8322 0755 636F756E 		.ascii	"countAnimation1\000"
 8322      74416E69 
 8322      6D617469 
 8322      6F6E3100 
 8323              	.LASF216:
 8324 0765 4E756D50 		.ascii	"NumPositions\000"
 8324      6F736974 
 8324      696F6E73 
 8324      00
 8325              	.LASF196:
 8326 0772 73746174 		.ascii	"stateBeagleSoft\000"
 8326      65426561 
 8326      676C6553 
 8326      6F667400 
 8327              	.LASF123:
 8328 0782 44495350 		.ascii	"DISPLAY_ABRIR_TURNO\000"
 8328      4C41595F 
 8328      41425249 
ARM GAS  C:\Users\RECEPC~1\AppData\Local\Temp\cckY5SBD.s 			page 172


 8328      525F5455 
 8328      524E4F00 
 8329              	.LASF42:
 8330 0796 746F7461 		.ascii	"totalPPUPrevious\000"
 8330      6C505055 
 8330      50726576 
 8330      696F7573 
 8330      00
 8331              	.LASF168:
 8332 07a7 636F756E 		.ascii	"countAnimation2\000"
 8332      74416E69 
 8332      6D617469 
 8332      6F6E3200 
 8333              	.LASF137:
 8334 07b7 44495350 		.ascii	"DISPLAY_NULL\000"
 8334      4C41595F 
 8334      4E554C4C 
 8334      00
 8335              	.LASF97:
 8336 07c4 44495350 		.ascii	"DISPLAY_PASSWORD_VALIDO\000"
 8336      4C41595F 
 8336      50415353 
 8336      574F5244 
 8336      5F56414C 
 8337              	.LASF31:
 8338 07dc 76656869 		.ascii	"vehicleType\000"
 8338      636C6554 
 8338      79706500 
 8339              	.LASF142:
 8340 07e8 50554D50 		.ascii	"PUMP_CALLING\000"
 8340      5F43414C 
 8340      4C494E47 
 8340      00
 8341              	.LASF236:
 8342 07f5 62756666 		.ascii	"buffer_txPreset\000"
 8342      65725F74 
 8342      78507265 
 8342      73657400 
 8343              	.LASF49:
 8344 0805 666C6167 		.ascii	"flagKeyboard\000"
 8344      4B657962 
 8344      6F617264 
 8344      00
 8345              	.LASF159:
 8346 0812 73697A65 		.ascii	"size\000"
 8346      00
 8347              	.LASF223:
 8348 0817 74696D65 		.ascii	"timeDownHandle\000"
 8348      446F776E 
 8348      48616E64 
 8348      6C6500
 8349              	.LASF13:
 8350 0826 75696E74 		.ascii	"uint32\000"
 8350      333200
 8351              	.LASF143:
 8352 082d 50554D50 		.ascii	"PUMP_AUTHORIZED\000"
 8352      5F415554 
ARM GAS  C:\Users\RECEPC~1\AppData\Local\Temp\cckY5SBD.s 			page 173


 8352      484F5249 
 8352      5A454400 
 8353              	.LASF195:
 8354 083d 666C6167 		.ascii	"flagResetMux\000"
 8354      52657365 
 8354      744D7578 
 8354      00
 8355              	.LASF92:
 8356 084a 44495350 		.ascii	"DISPLAY_DESPACHANDO\000"
 8356      4C41595F 
 8356      44455350 
 8356      41434841 
 8356      4E444F00 
 8357              	.LASF238:
 8358 085e 62756666 		.ascii	"buffer_txDisplay\000"
 8358      65725F74 
 8358      78446973 
 8358      706C6179 
 8358      00
 8359              	.LASF263:
 8360 086f 53657450 		.ascii	"SetPicture\000"
 8360      69637475 
 8360      726500
 8361              	.LASF105:
 8362 087a 44495350 		.ascii	"DISPLAY_ID_RECONOCIDO\000"
 8362      4C41595F 
 8362      49445F52 
 8362      45434F4E 
 8362      4F434944 
 8363              	.LASF149:
 8364 0890 52465F49 		.ascii	"RF_IDLE\000"
 8364      444C4500 
 8365              	.LASF45:
 8366 0898 746F7461 		.ascii	"totalPPUAfter\000"
 8366      6C505055 
 8366      41667465 
 8366      7200
 8367              	.LASF256:
 8368 08a6 70726963 		.ascii	"priceChange\000"
 8368      65436861 
 8368      6E676500 
 8369              	.LASF28:
 8370 08b2 6B657962 		.ascii	"keyboardWayToPay\000"
 8370      6F617264 
 8370      57617954 
 8370      6F506179 
 8370      00
 8371              	.LASF164:
 8372 08c3 706F6C6C 		.ascii	"pollingRFB_Tx\000"
 8372      696E6752 
 8372      46425F54 
 8372      7800
 8373              	.LASF184:
 8374 08d1 70707578 		.ascii	"ppux10\000"
 8374      313000
 8375              	.LASF40:
 8376 08d8 746F7461 		.ascii	"totalMoneyPrevious\000"
ARM GAS  C:\Users\RECEPC~1\AppData\Local\Temp\cckY5SBD.s 			page 174


 8376      6C4D6F6E 
 8376      65795072 
 8376      6576696F 
 8376      757300
 8377              	.LASF94:
 8378 08eb 44495350 		.ascii	"DISPLAY_DIGITE_PLACA\000"
 8378      4C41595F 
 8378      44494749 
 8378      54455F50 
 8378      4C414341 
 8379              	.LASF179:
 8380 0900 666C6167 		.ascii	"flagPoint1\000"
 8380      506F696E 
 8380      743100
 8381              	.LASF26:
 8382 090b 6D6F6E65 		.ascii	"moneySelectedSale\000"
 8382      7953656C 
 8382      65637465 
 8382      6453616C 
 8382      6500
 8383              	.LASF187:
 8384 091d 73796D62 		.ascii	"symbols\000"
 8384      6F6C7300 
 8385              	.LASF121:
 8386 0925 44495350 		.ascii	"DISPLAY_FECHA\000"
 8386      4C41595F 
 8386      46454348 
 8386      4100
 8387              	.LASF87:
 8388 0933 44495350 		.ascii	"DISPLAY_INTRODUZCA_VALOR\000"
 8388      4C41595F 
 8388      494E5452 
 8388      4F44555A 
 8388      43415F56 
 8389              	.LASF222:
 8390 094c 64617465 		.ascii	"dateDownHandle\000"
 8390      446F776E 
 8390      48616E64 
 8390      6C6500
 8391              	.LASF46:
 8392 095b 6C696365 		.ascii	"licenceSale\000"
 8392      6E636553 
 8392      616C6500 
 8393              	.LASF56:
 8394 0967 70726963 		.ascii	"priceConsign\000"
 8394      65436F6E 
 8394      7369676E 
 8394      00
 8395              	.LASF2:
 8396 0974 73686F72 		.ascii	"short int\000"
 8396      7420696E 
 8396      7400
 8397              	.LASF4:
 8398 097e 6C6F6E67 		.ascii	"long int\000"
 8398      20696E74 
 8398      00
 8399              	.LASF221:
ARM GAS  C:\Users\RECEPC~1\AppData\Local\Temp\cckY5SBD.s 			page 175


 8400 0987 566F6C55 		.ascii	"VolUnit\000"
 8400      6E697400 
 8401              	.LASF199:
 8402 098f 49444361 		.ascii	"IDCast\000"
 8402      737400
 8403              	.LASF166:
 8404 0996 49544D5F 		.ascii	"ITM_RxBuffer\000"
 8404      52784275 
 8404      66666572 
 8404      00
 8405              	.LASF100:
 8406 09a3 44495350 		.ascii	"DISPLAY_TIEMPO_EXPIRADO\000"
 8406      4C41595F 
 8406      5449454D 
 8406      504F5F45 
 8406      58504952 
 8407              	.LASF61:
 8408 09bb 73686966 		.ascii	"shiftId\000"
 8408      74496400 
 8409              	.LASF99:
 8410 09c3 44495350 		.ascii	"DISPLAY_NUEVO_PASSWORD\000"
 8410      4C41595F 
 8410      4E554556 
 8410      4F5F5041 
 8410      5353574F 
 8411              	.LASF119:
 8412 09da 44495350 		.ascii	"DISPLAY_CONFIGURAR_FECHA_HORA\000"
 8412      4C41595F 
 8412      434F4E46 
 8412      49475552 
 8412      41525F46 
 8413              	.LASF116:
 8414 09f8 44495350 		.ascii	"DISPLAY_POR_FAVOR_ESPERE\000"
 8414      4C41595F 
 8414      504F525F 
 8414      4641564F 
 8414      525F4553 
 8415              	.LASF52:
 8416 0a11 666C6167 		.ascii	"flagEndSale\000"
 8416      456E6453 
 8416      616C6500 
 8417              	.LASF106:
 8418 0a1d 44495350 		.ascii	"DISPLAY_INTRODUZCA_CEDULA\000"
 8418      4C41595F 
 8418      494E5452 
 8418      4F44555A 
 8418      43415F43 
 8419              	.LASF112:
 8420 0a37 44495350 		.ascii	"DISPLAY_IMPRIMIENDO_RECIBO\000"
 8420      4C41595F 
 8420      494D5052 
 8420      494D4945 
 8420      4E444F5F 
 8421              	.LASF38:
 8422 0a52 64617465 		.ascii	"dateLiftHandle\000"
 8422      4C696674 
 8422      48616E64 
ARM GAS  C:\Users\RECEPC~1\AppData\Local\Temp\cckY5SBD.s 			page 176


 8422      6C6500
 8423              	.LASF73:
 8424 0a61 686F7365 		.ascii	"hoseNumber\000"
 8424      4E756D62 
 8424      657200
 8425              	.LASF247:
 8426 0a6c 62756666 		.ascii	"bufferDisplay2\000"
 8426      65724469 
 8426      73706C61 
 8426      793200
 8427              	.LASF154:
 8428 0a7b 52465F43 		.ascii	"RF_CREDITSALEREPORT\000"
 8428      52454449 
 8428      5453414C 
 8428      45524550 
 8428      4F525400 
 8429              	.LASF102:
 8430 0a8f 44495350 		.ascii	"DISPLAY_ID_DIGITAL\000"
 8430      4C41595F 
 8430      49445F44 
 8430      49474954 
 8430      414C00
 8431              	.LASF150:
 8432 0aa2 52465F44 		.ascii	"RF_DELIVERING\000"
 8432      454C4956 
 8432      4552494E 
 8432      4700
 8433              	.LASF109:
 8434 0ab0 44495350 		.ascii	"DISPLAY_OPERACIONES\000"
 8434      4C41595F 
 8434      4F504552 
 8434      4143494F 
 8434      4E455300 
 8435              	.LASF244:
 8436 0ac4 436F7069 		.ascii	"CopiasCredito\000"
 8436      61734372 
 8436      65646974 
 8436      6F00
 8437              	.LASF194:
 8438 0ad2 70617373 		.ascii	"passwordSeller\000"
 8438      776F7264 
 8438      53656C6C 
 8438      657200
 8439              	.LASF44:
 8440 0ae1 746F7461 		.ascii	"totalVolumeAfter\000"
 8440      6C566F6C 
 8440      756D6541 
 8440      66746572 
 8440      00
 8441              	.LASF209:
 8442 0af2 556E6974 		.ascii	"UnitType\000"
 8442      54797065 
 8442      00
 8443              	.LASF16:
 8444 0afb 75696E74 		.ascii	"uint64\000"
 8444      363400
 8445              	.LASF182:
ARM GAS  C:\Users\RECEPC~1\AppData\Local\Temp\cckY5SBD.s 			page 177


 8446 0b02 64656C61 		.ascii	"delayPicture1\000"
 8446      79506963 
 8446      74757265 
 8446      3100
 8447              	.LASF183:
 8448 0b10 64656C61 		.ascii	"delayPicture2\000"
 8448      79506963 
 8448      74757265 
 8448      3200
 8449              	.LASF37:
 8450 0b1e 73746174 		.ascii	"stateMux\000"
 8450      654D7578 
 8450      00
 8451              	.LASF240:
 8452 0b27 456E6361 		.ascii	"Encabezado1\000"
 8452      62657A61 
 8452      646F3100 
 8453              	.LASF241:
 8454 0b33 456E6361 		.ascii	"Encabezado2\000"
 8454      62657A61 
 8454      646F3200 
 8455              	.LASF242:
 8456 0b3f 456E6361 		.ascii	"Encabezado3\000"
 8456      62657A61 
 8456      646F3300 
 8457              	.LASF243:
 8458 0b4b 456E6361 		.ascii	"Encabezado4\000"
 8458      62657A61 
 8458      646F3400 
 8459              	.LASF20:
 8460 0b57 73697A65 		.ascii	"sizetype\000"
 8460      74797065 
 8460      00
 8461              	.LASF5:
 8462 0b60 6C6F6E67 		.ascii	"long unsigned int\000"
 8462      20756E73 
 8462      69676E65 
 8462      6420696E 
 8462      7400
 8463              	.LASF93:
 8464 0b72 44495350 		.ascii	"DISPLAY_BAJE_MANIJA\000"
 8464      4C41595F 
 8464      42414A45 
 8464      5F4D414E 
 8464      494A4100 
 8465              	.LASF213:
 8466 0b86 50505544 		.ascii	"PPUDec\000"
 8466      656300
 8467              	.LASF207:
 8468 0b8d 706F6C6C 		.ascii	"pollTotals\000"
 8468      546F7461 
 8468      6C7300
 8469              	.LASF71:
 8470 0b98 61637469 		.ascii	"activeHose\000"
 8470      7665486F 
 8470      736500
 8471              	.LASF59:
ARM GAS  C:\Users\RECEPC~1\AppData\Local\Temp\cckY5SBD.s 			page 178


 8472 0ba3 666C6167 		.ascii	"flagPrint\000"
 8472      5072696E 
 8472      7400
 8473              	.LASF10:
 8474 0bad 696E7433 		.ascii	"int32_t\000"
 8474      325F7400 
 8475              	.LASF79:
 8476 0bb5 73616C65 		.ascii	"saleNumber\000"
 8476      4E756D62 
 8476      657200
 8477              	.LASF151:
 8478 0bc0 52465F43 		.ascii	"RF_CASHSALEREPORT\000"
 8478      41534853 
 8478      414C4552 
 8478      45504F52 
 8478      5400
 8479              	.LASF19:
 8480 0bd2 63797374 		.ascii	"cystatus\000"
 8480      61747573 
 8480      00
 8481              	.LASF125:
 8482 0bdb 44495350 		.ascii	"DISPLAY_CANCELADO_X_PC\000"
 8482      4C41595F 
 8482      43414E43 
 8482      454C4144 
 8482      4F5F585F 
 8483              	.LASF24:
 8484 0bf2 666C6167 		.ascii	"flagWayToPayMixed\000"
 8484      57617954 
 8484      6F506179 
 8484      4D697865 
 8484      6400
 8485              	.LASF1:
 8486 0c04 756E7369 		.ascii	"unsigned char\000"
 8486      676E6564 
 8486      20636861 
 8486      7200
 8487              	.LASF126:
 8488 0c12 44495350 		.ascii	"DISPLAY_USUARIO_VALIDO\000"
 8488      4C41595F 
 8488      55535541 
 8488      52494F5F 
 8488      56414C49 
 8489              	.LASF113:
 8490 0c29 44495350 		.ascii	"DISPLAY_SELECCIONE_POSICION\000"
 8490      4C41595F 
 8490      53454C45 
 8490      4343494F 
 8490      4E455F50 
 8491              	.LASF264:
 8492 0c45 474E5520 		.ascii	"GNU C 4.9.3 20150303 (release) [ARM/embedded-4_9-br"
 8492      4320342E 
 8492      392E3320 
 8492      32303135 
 8492      30333033 
 8493 0c78 616E6368 		.ascii	"anch revision 221220] -mcpu=cortex-m3 -mthumb -g -O"
 8493      20726576 
ARM GAS  C:\Users\RECEPC~1\AppData\Local\Temp\cckY5SBD.s 			page 179


 8493      6973696F 
 8493      6E203232 
 8493      31323230 
 8494 0cab 67202D66 		.ascii	"g -ffunction-sections -ffat-lto-objects\000"
 8494      66756E63 
 8494      74696F6E 
 8494      2D736563 
 8494      74696F6E 
 8495              	.LASF114:
 8496 0cd3 44495350 		.ascii	"DISPLAY_OPERACION_CANCELADA\000"
 8496      4C41595F 
 8496      4F504552 
 8496      4143494F 
 8496      4E5F4341 
 8497              	.LASF29:
 8498 0cef 61757468 		.ascii	"authorizationFlag\000"
 8498      6F72697A 
 8498      6174696F 
 8498      6E466C61 
 8498      6700
 8499              	.LASF156:
 8500 0d01 52465F43 		.ascii	"RF_COPY_RECEIPT\000"
 8500      4F50595F 
 8500      52454345 
 8500      49505400 
 8501              	.LASF122:
 8502 0d11 44495350 		.ascii	"DISPLAY_OPCION_TURNO\000"
 8502      4C41595F 
 8502      4F504349 
 8502      4F4E5F54 
 8502      55524E4F 
 8503              	.LASF80:
 8504 0d26 70756D70 		.ascii	"pump\000"
 8504      00
 8505              	.LASF145:
 8506 0d2b 50554D50 		.ascii	"PUMP_PEOT\000"
 8506      5F50454F 
 8506      5400
 8507              	.LASF124:
 8508 0d35 44495350 		.ascii	"DISPLAY_CERRAR_TURNO\000"
 8508      4C41595F 
 8508      43455252 
 8508      41525F54 
 8508      55524E4F 
 8509              	.LASF266:
 8510 0d4a 433A5C55 		.ascii	"C:\\Users\\Recepcion\\Documents\\GitHub\\NSY-DH\\Wo"
 8510      73657273 
 8510      5C526563 
 8510      65706369 
 8510      6F6E5C44 
 8511 0d77 726B7370 		.ascii	"rkspace01\\Design01.cydsn\000"
 8511      61636530 
 8511      315C4465 
 8511      7369676E 
 8511      30312E63 
 8512              	.LASF202:
 8513 0d90 74656D70 		.ascii	"temporal\000"
ARM GAS  C:\Users\RECEPC~1\AppData\Local\Temp\cckY5SBD.s 			page 180


 8513      6F72616C 
 8513      00
 8514              	.LASF212:
 8515 0d99 566F6C44 		.ascii	"VolDec\000"
 8515      656300
 8516              	.LASF34:
 8517 0da0 70726573 		.ascii	"presetType\000"
 8517      65745479 
 8517      706500
 8518              	.LASF127:
 8519 0dab 44495350 		.ascii	"DISPLAY_USUARIO_INVALIDO\000"
 8519      4C41595F 
 8519      55535541 
 8519      52494F5F 
 8519      494E5641 
 8520              	.LASF234:
 8521 0dc4 62756666 		.ascii	"buffer_txTotals\000"
 8521      65725F74 
 8521      78546F74 
 8521      616C7300 
 8522              	.LASF103:
 8523 0dd4 44495350 		.ascii	"DISPLAY_ID_NO_RECONOCIDO\000"
 8523      4C41595F 
 8523      49445F4E 
 8523      4F5F5245 
 8523      434F4E4F 
 8524              	.LASF155:
 8525 0ded 52465F45 		.ascii	"RF_ERROR\000"
 8525      52524F52 
 8525      00
 8526              	.LASF193:
 8527 0df6 74797065 		.ascii	"typeIdSeller\000"
 8527      49645365 
 8527      6C6C6572 
 8527      00
 8528              	.LASF68:
 8529 0e03 766F6C75 		.ascii	"volumeSale\000"
 8529      6D655361 
 8529      6C6500
 8530              	.LASF237:
 8531 0e0e 62756666 		.ascii	"buffer_txEOT\000"
 8531      65725F74 
 8531      78454F54 
 8531      00
 8532              	.LASF239:
 8533 0e1b 696E7449 		.ascii	"intIDStation\000"
 8533      44537461 
 8533      74696F6E 
 8533      00
 8534              	.LASF62:
 8535 0e28 73686966 		.ascii	"shiftPassword\000"
 8535      74506173 
 8535      73776F72 
 8535      6400
 8536              	.LASF133:
 8537 0e36 44495350 		.ascii	"DISPLAY_DUMMY1\000"
 8537      4C41595F 
ARM GAS  C:\Users\RECEPC~1\AppData\Local\Temp\cckY5SBD.s 			page 181


 8537      44554D4D 
 8537      593100
 8538              	.LASF134:
 8539 0e45 44495350 		.ascii	"DISPLAY_DUMMY2\000"
 8539      4C41595F 
 8539      44554D4D 
 8539      593200
 8540              	.LASF135:
 8541 0e54 44495350 		.ascii	"DISPLAY_DUMMY3\000"
 8541      4C41595F 
 8541      44554D4D 
 8541      593300
 8542              	.LASF0:
 8543 0e63 7369676E 		.ascii	"signed char\000"
 8543      65642063 
 8543      68617200 
 8544              	.LASF89:
 8545 0e6f 44495350 		.ascii	"DISPLAY_SELECCIONE_PRODUCTO3\000"
 8545      4C41595F 
 8545      53454C45 
 8545      4343494F 
 8545      4E455F50 
 8546              	.LASF90:
 8547 0e8c 44495350 		.ascii	"DISPLAY_SELECCIONE_PRODUCTO4\000"
 8547      4C41595F 
 8547      53454C45 
 8547      4343494F 
 8547      4E455F50 
 8548              	.LASF224:
 8549 0ea9 636F756E 		.ascii	"count_protector\000"
 8549      745F7072 
 8549      6F746563 
 8549      746F7200 
 8550              	.LASF3:
 8551 0eb9 73686F72 		.ascii	"short unsigned int\000"
 8551      7420756E 
 8551      7369676E 
 8551      65642069 
 8551      6E7400
 8552              	.LASF171:
 8553 0ecc 636F756E 		.ascii	"countPump\000"
 8553      7450756D 
 8553      7000
 8554              	.LASF138:
 8555 0ed6 5F415641 		.ascii	"_AVAILABLE_DISPLAYS_\000"
 8555      494C4142 
 8555      4C455F44 
 8555      4953504C 
 8555      4159535F 
 8556              	.LASF251:
 8557 0eeb 6D656D63 		.ascii	"memcpy\000"
 8557      707900
 8558              	.LASF81:
 8559 0ef2 44495350 		.ascii	"DISPLAY_ERROR\000"
 8559      4C41595F 
 8559      4552524F 
 8559      5200
ARM GAS  C:\Users\RECEPC~1\AppData\Local\Temp\cckY5SBD.s 			page 182


 8560              	.LASF70:
 8561 0f00 70726F64 		.ascii	"productSale\000"
 8561      75637453 
 8561      616C6500 
 8562              	.LASF111:
 8563 0f0c 44495350 		.ascii	"DISPLAY_COPIA_RECIBO\000"
 8563      4C41595F 
 8563      434F5049 
 8563      415F5245 
 8563      4349424F 
 8564              	.LASF11:
 8565 0f21 75696E74 		.ascii	"uint8\000"
 8565      3800
 8566              	.LASF15:
 8567 0f27 646F7562 		.ascii	"double\000"
 8567      6C6500
 8568              	.LASF23:
 8569 0f2e 77617954 		.ascii	"wayToPay\000"
 8569      6F506179 
 8569      00
 8570              	.LASF77:
 8571 0f37 67726164 		.ascii	"grade\000"
 8571      6500
 8572              	.LASF39:
 8573 0f3d 74696D65 		.ascii	"timeLiftHandle\000"
 8573      4C696674 
 8573      48616E64 
 8573      6C6500
 8574              	.LASF208:
 8575 0f4c 73697A65 		.ascii	"sizeSendB\000"
 8575      53656E64 
 8575      4200
 8576              	.LASF101:
 8577 0f56 44495350 		.ascii	"DISPLAY_GRACIAS_VUELVA_PRONTO\000"
 8577      4C41595F 
 8577      47524143 
 8577      4941535F 
 8577      5655454C 
 8578              	.LASF66:
 8579 0f74 70707541 		.ascii	"ppuAuthorized\000"
 8579      7574686F 
 8579      72697A65 
 8579      6400
 8580              	.LASF27:
 8581 0f82 73657269 		.ascii	"serialSelectedSale\000"
 8581      616C5365 
 8581      6C656374 
 8581      65645361 
 8581      6C6500
 8582              	.LASF64:
 8583 0f95 706F7369 		.ascii	"position\000"
 8583      74696F6E 
 8583      00
 8584              	.LASF204:
 8585 0f9e 74656D70 		.ascii	"tempPPU\000"
 8585      50505500 
 8586              	.LASF229:
ARM GAS  C:\Users\RECEPC~1\AppData\Local\Temp\cckY5SBD.s 			page 183


 8587 0fa6 70756D70 		.ascii	"pumpGap\000"
 8587      47617000 
 8588              	.LASF74:
 8589 0fae 72665374 		.ascii	"rfState\000"
 8589      61746500 
 8590              	.LASF249:
 8591 0fb6 62756666 		.ascii	"bufferDisplay4\000"
 8591      65724469 
 8591      73706C61 
 8591      793400
 8592              	.LASF268:
 8593 0fc5 52465F43 		.ascii	"RF_Connection_ClearRxBuffer\000"
 8593      6F6E6E65 
 8593      6374696F 
 8593      6E5F436C 
 8593      65617252 
 8594              		.ident	"GCC: (GNU Tools for ARM Embedded Processors) 4.9.3 20150303 (release) [ARM/embedded-4_9-br
