ARM GAS  C:\Users\RECEPC~1\AppData\Local\Temp\ccIFDC7N.s 			page 1


   1              		.syntax unified
   2              		.cpu cortex-m3
   3              		.fpu softvfp
   4              		.eabi_attribute 20, 1
   5              		.eabi_attribute 21, 1
   6              		.eabi_attribute 23, 3
   7              		.eabi_attribute 24, 1
   8              		.eabi_attribute 25, 1
   9              		.eabi_attribute 26, 1
  10              		.eabi_attribute 30, 1
  11              		.eabi_attribute 34, 1
  12              		.eabi_attribute 18, 4
  13              		.thumb
  14              		.file	"RFPoll.c"
  15              		.text
  16              	.Ltext0:
  17              		.cfi_sections	.debug_frame
  18              		.section	.text.verificar_check,"ax",%progbits
  19              		.align	2
  20              		.global	verificar_check
  21              		.thumb
  22              		.thumb_func
  23              		.type	verificar_check, %function
  24              	verificar_check:
  25              	.LFB63:
  26              		.file 1 ".\\RFPoll.c"
   1:.\RFPoll.c    **** #include <project.h>
   2:.\RFPoll.c    **** #include <protocol.h>
   3:.\RFPoll.c    **** #include <variables.h>
   4:.\RFPoll.c    **** #include <RFPoll.h>
   5:.\RFPoll.c    **** #include <LCD.h>
   6:.\RFPoll.c    **** #include <I2C.h>
   7:.\RFPoll.c    **** #include <Print.h>
   8:.\RFPoll.c    **** #include <device.h>
   9:.\RFPoll.c    **** #include <stdio.h>
  10:.\RFPoll.c    **** #include <stdlib.h>
  11:.\RFPoll.c    **** 
  12:.\RFPoll.c    **** 
  13:.\RFPoll.c    **** 
  14:.\RFPoll.c    **** /*
  15:.\RFPoll.c    **** ***************************************************************************************************
  16:.\RFPoll.c    **** *                             uint8 verificar_check(uint8 *datos, uint16 size)
  17:.\RFPoll.c    **** *
  18:.\RFPoll.c    **** * Description : calcula el checksum
  19:.\RFPoll.c    **** *               
  20:.\RFPoll.c    **** 
  21:.\RFPoll.c    **** ***************************************************************************************************
  22:.\RFPoll.c    **** */
  23:.\RFPoll.c    **** uint8 verificar_check(uint8 *datos, uint16 size){
  27              		.loc 1 23 0
  28              		.cfi_startproc
  29              		@ args = 0, pretend = 0, frame = 256
  30              		@ frame_needed = 0, uses_anonymous_args = 0
  31              	.LVL0:
  32 0000 30B5     		push	{r4, r5, lr}
  33              		.cfi_def_cfa_offset 12
  34              		.cfi_offset 4, -12
ARM GAS  C:\Users\RECEPC~1\AppData\Local\Temp\ccIFDC7N.s 			page 2


  35              		.cfi_offset 5, -8
  36              		.cfi_offset 14, -4
  37 0002 C1B0     		sub	sp, sp, #260
  38              		.cfi_def_cfa_offset 272
  39 0004 0546     		mov	r5, r0
  40 0006 0C46     		mov	r4, r1
  24:.\RFPoll.c    **** 	uint8 checksum,index; 
  25:.\RFPoll.c    **** 	uint16 i;
  26:.\RFPoll.c    ****     uint8 table[256] = { 
  41              		.loc 1 26 0
  42 0008 6846     		mov	r0, sp
  43              	.LVL1:
  44 000a 0949     		ldr	r1, .L5
  45              	.LVL2:
  46 000c 4FF48072 		mov	r2, #256
  47 0010 FFF7FEFF 		bl	memcpy
  48              	.LVL3:
  27:.\RFPoll.c    ****     0, 94,188,226, 97, 63,221,131,194,156,126, 32,163,253, 31, 65,
  28:.\RFPoll.c    ****     157,195, 33,127,252,162, 64, 30, 95,  1,227,189, 62, 96,130,220,
  29:.\RFPoll.c    ****     35,125,159,193, 66, 28,254,160,225,191, 93,  3,128,222, 60, 98,
  30:.\RFPoll.c    ****     190,224,  2, 92,223,129, 99, 61,124, 34,192,158, 29, 67,161,255,
  31:.\RFPoll.c    ****     70, 24,250,164, 39,121,155,197,132,218, 56,102,229,187, 89,  7,
  32:.\RFPoll.c    ****     219,133,103, 57,186,228,  6, 88, 25, 71,165,251,120, 38,196,154,
  33:.\RFPoll.c    ****     101, 59,217,135,  4, 90,184,230,167,249, 27, 69,198,152,122, 36,
  34:.\RFPoll.c    ****     248,166, 68, 26,153,199, 37,123, 58,100,134,216, 91,  5,231,185,
  35:.\RFPoll.c    ****     140,210, 48,110,237,179, 81, 15, 78, 16,242,172, 47,113,147,205,
  36:.\RFPoll.c    ****     17, 79,173,243,112, 46,204,146,211,141,111, 49,178,236, 14, 80,
  37:.\RFPoll.c    ****     175,241, 19, 77,206,144,114, 44,109, 51,209,143, 12, 82,176,238,
  38:.\RFPoll.c    ****     50,108,142,208, 83, 13,239,177,240,174, 76, 18,145,207, 45,115,
  39:.\RFPoll.c    ****     202,148,118, 40,171,245, 23, 73,  8, 86,180,234,105, 55,213,139,
  40:.\RFPoll.c    ****     87,  9,235,181, 54,104,138,212,149,203, 41,119,244,170, 72, 22,
  41:.\RFPoll.c    ****     233,183, 85, 11,136,214, 52,106, 43,117,151,201, 74, 20,246,168,
  42:.\RFPoll.c    ****     116, 42,200,150, 21, 75,169,247,182,232, 10, 84,215,137,107, 53};	
  43:.\RFPoll.c    **** 	checksum=0;
  44:.\RFPoll.c    **** 	for(i=0;i<(size-1);i++){
  49              		.loc 1 44 0
  50 0014 0023     		movs	r3, #0
  43:.\RFPoll.c    **** 	for(i=0;i<(size-1);i++){
  51              		.loc 1 43 0
  52 0016 1846     		mov	r0, r3
  53              		.loc 1 44 0
  54 0018 05E0     		b	.L2
  55              	.LVL4:
  56              	.L3:
  45:.\RFPoll.c    **** 		index = (uint8)(checksum ^ datos[i]);
  57              		.loc 1 45 0 discriminator 3
  58 001a EA5C     		ldrb	r2, [r5, r3]	@ zero_extendqisi2
  59 001c 5040     		eors	r0, r0, r2
  60              	.LVL5:
  46:.\RFPoll.c    **** 		checksum = table[index];				
  61              		.loc 1 46 0 discriminator 3
  62 001e 1DF80000 		ldrb	r0, [sp, r0]	@ zero_extendqisi2
  63              	.LVL6:
  44:.\RFPoll.c    **** 		index = (uint8)(checksum ^ datos[i]);
  64              		.loc 1 44 0 discriminator 3
  65 0022 0133     		adds	r3, r3, #1
  66              	.LVL7:
ARM GAS  C:\Users\RECEPC~1\AppData\Local\Temp\ccIFDC7N.s 			page 3


  67 0024 9BB2     		uxth	r3, r3
  68              	.LVL8:
  69              	.L2:
  44:.\RFPoll.c    **** 		index = (uint8)(checksum ^ datos[i]);
  70              		.loc 1 44 0 is_stmt 0 discriminator 1
  71 0026 621E     		subs	r2, r4, #1
  72 0028 9342     		cmp	r3, r2
  73 002a F6DB     		blt	.L3
  47:.\RFPoll.c    **** 	}
  48:.\RFPoll.c    **** 	return checksum;
  49:.\RFPoll.c    **** }
  74              		.loc 1 49 0 is_stmt 1
  75 002c 41B0     		add	sp, sp, #260
  76              		.cfi_def_cfa_offset 12
  77              		@ sp needed
  78 002e 30BD     		pop	{r4, r5, pc}
  79              	.LVL9:
  80              	.L6:
  81              		.align	2
  82              	.L5:
  83 0030 00000000 		.word	.LANCHOR0
  84              		.cfi_endproc
  85              	.LFE63:
  86              		.size	verificar_check, .-verificar_check
  87              		.section	.text.pollingRFA_Tx,"ax",%progbits
  88              		.align	2
  89              		.global	pollingRFA_Tx
  90              		.thumb
  91              		.thumb_func
  92              		.type	pollingRFA_Tx, %function
  93              	pollingRFA_Tx:
  94              	.LFB65:
  50:.\RFPoll.c    **** 
  51:.\RFPoll.c    **** 
  52:.\RFPoll.c    **** 
  53:.\RFPoll.c    **** 
  54:.\RFPoll.c    **** void pollingRF_Rx(){
  55:.\RFPoll.c    ****     uint16 i,x,y,z;       
  56:.\RFPoll.c    ****     CyDelay(30);
  57:.\RFPoll.c    ****     if(RF_Connection_GetRxBufferSize() >= 1){
  58:.\RFPoll.c    ****         ActiveRF=1;
  59:.\RFPoll.c    ****         counterRF = 0;
  60:.\RFPoll.c    ****         i=0;
  61:.\RFPoll.c    ****         while(RF_Connection_GetRxBufferSize()>0){//&& (RF_Connection_RX_STS_FIFO_NOTEMPTY)
  62:.\RFPoll.c    ****            buffer_rf[i]=RF_Connection_ReadRxData(); 	
  63:.\RFPoll.c    ****     	   i++;	
  64:.\RFPoll.c    ****         } 
  65:.\RFPoll.c    ****         y=0;
  66:.\RFPoll.c    ****         buffer_tx[y] = 0xBC; y++;
  67:.\RFPoll.c    ****         buffer_tx[y] = 0xCB; y++;
  68:.\RFPoll.c    ****         buffer_tx[y] = 0xC8; y++;
  69:.\RFPoll.c    ****         buffer_tx[y] = IDCast[0]; y++;
  70:.\RFPoll.c    ****         buffer_tx[y] = IDCast[1]; y++;
  71:.\RFPoll.c    ****         if(((buffer_rf[0]==0xBC)&&(buffer_rf[1]==0xBB)&&(buffer_rf[2]==0xB8)&&(buffer_rf[3]==IDCast
  72:.\RFPoll.c    ****             switch(buffer_rf[6]){
  73:.\RFPoll.c    ****                case 0xA1:               //Peticion de estado
  74:.\RFPoll.c    ****                 if(buffer_rf[5] == side.a.dir){
ARM GAS  C:\Users\RECEPC~1\AppData\Local\Temp\ccIFDC7N.s 			page 4


  75:.\RFPoll.c    ****                     if(side.a.RFstateReport == 0){                        
  76:.\RFPoll.c    ****                         buffer_tx[5] = side.a.dir;y++;
  77:.\RFPoll.c    ****                         buffer_tx[y] = 0xA1;y++;
  78:.\RFPoll.c    ****                         buffer_tx[y] = side.a.rfState; y++;
  79:.\RFPoll.c    ****                         buffer_tx[y] = verificar_check(buffer_tx,y+1);y++;
  80:.\RFPoll.c    ****                         for (x = 0; x < y; x++){
  81:.\RFPoll.c    ****                             RF_Connection_PutChar(buffer_tx[x]);
  82:.\RFPoll.c    ****                         }
  83:.\RFPoll.c    ****                     }else{
  84:.\RFPoll.c    ****                         pollingRFA_Tx();
  85:.\RFPoll.c    ****                     } 
  86:.\RFPoll.c    ****                 }
  87:.\RFPoll.c    ****                 if(buffer_rf[5] == side.b.dir){
  88:.\RFPoll.c    ****                     if(side.b.RFstateReport == 0){
  89:.\RFPoll.c    ****                         buffer_tx[5] = side.b.dir;y++;
  90:.\RFPoll.c    ****                         buffer_tx[y] = 0xA1;y++;
  91:.\RFPoll.c    ****                         buffer_tx[y] = side.b.rfState;y++;
  92:.\RFPoll.c    ****                         buffer_tx[y] = verificar_check(buffer_tx,y+1);y++;
  93:.\RFPoll.c    ****                         for (x = 0; x < y; x++){
  94:.\RFPoll.c    ****                             RF_Connection_PutChar(buffer_tx[x]);
  95:.\RFPoll.c    ****                         }
  96:.\RFPoll.c    ****                     }else{
  97:.\RFPoll.c    ****                         pollingRFB_Tx();
  98:.\RFPoll.c    ****                     } 
  99:.\RFPoll.c    ****                 }
 100:.\RFPoll.c    ****                 if(buffer_rf[5] == side.c.dir){
 101:.\RFPoll.c    ****                     buffer_tx[5] = side.c.dir; y++;
 102:.\RFPoll.c    ****                     buffer_tx[y] = 0xA1; y++;
 103:.\RFPoll.c    ****                     buffer_tx[y] = side.c.rfState; y++;
 104:.\RFPoll.c    ****                     buffer_tx[y] = verificar_check(buffer_tx,y+1);y++;
 105:.\RFPoll.c    ****                     for (x = 0; x < y; x++){
 106:.\RFPoll.c    ****                         RF_Connection_PutChar(buffer_tx[x]);
 107:.\RFPoll.c    ****                     }
 108:.\RFPoll.c    ****                 }
 109:.\RFPoll.c    ****                 if(buffer_rf[5] == side.d.dir){
 110:.\RFPoll.c    ****                     buffer_tx[5] = side.d.dir; y++;
 111:.\RFPoll.c    ****                     buffer_tx[y] = 0xA1; y++;
 112:.\RFPoll.c    ****                     buffer_tx[y] = side.d.rfState; y++;
 113:.\RFPoll.c    ****                     buffer_tx[y] = verificar_check(buffer_tx,y+1);y++;
 114:.\RFPoll.c    ****                     for (x = 0; x < y; x++){
 115:.\RFPoll.c    ****                         RF_Connection_PutChar(buffer_tx[x]);
 116:.\RFPoll.c    ****                     }
 117:.\RFPoll.c    ****                 }                    
 118:.\RFPoll.c    ****                break;
 119:.\RFPoll.c    ****                
 120:.\RFPoll.c    ****                
 121:.\RFPoll.c    ****                case 0xA5:
 122:.\RFPoll.c    ****                 if(buffer_rf[5] == side.a.dir){
 123:.\RFPoll.c    ****                     getTotals(side.a.dir);
 124:.\RFPoll.c    ****                     buffer_tx[5] = side.a.dir; y++;
 125:.\RFPoll.c    ****                     buffer_tx[y] = 0xE8; y++;
 126:.\RFPoll.c    ****                     buffer_tx[y] = side.a.rfState; y++;
 127:.\RFPoll.c    ****                     buffer_tx[y] = 0x00; y++;
 128:.\RFPoll.c    ****                     for(z=1;z <= side.a.hoseNumber; z++){
 129:.\RFPoll.c    ****                         buffer_tx[y] = z; y++;                    
 130:.\RFPoll.c    ****                         if (digits == 6 || digits == 5){                            
 131:.\RFPoll.c    ****                             for(x = 8; x > 0; x--){ //Volumen
ARM GAS  C:\Users\RECEPC~1\AppData\Local\Temp\ccIFDC7N.s 			page 5


 132:.\RFPoll.c    ****                                 buffer_tx[y] = side.a.totalsHandle[0][0][x];y++;
 133:.\RFPoll.c    ****                             }
 134:.\RFPoll.c    ****                             for(x =0; x < 4; x++){
 135:.\RFPoll.c    ****                                 buffer_tx[y] = 0x30;y++;
 136:.\RFPoll.c    ****                             }
 137:.\RFPoll.c    ****                             for(x = 8; x > 0; x--){//Dinero
 138:.\RFPoll.c    ****                                 buffer_tx[y] = side.a.totalsHandle[0][1][x];y++;
 139:.\RFPoll.c    ****                             }
 140:.\RFPoll.c    ****                             for(x =0; x < 4; x++){
 141:.\RFPoll.c    ****                                 buffer_tx[y] = 0x30;y++;
 142:.\RFPoll.c    ****                             }
 143:.\RFPoll.c    ****                         }else{
 144:.\RFPoll.c    ****                             for(x = 12; x > 0; x--){ //Volumen
 145:.\RFPoll.c    ****                                 buffer_tx[y] = side.a.totalsHandle[0][0][x];y++;
 146:.\RFPoll.c    ****                             }                        
 147:.\RFPoll.c    ****                             for(x = 12; x > 0; x--){//Dinero
 148:.\RFPoll.c    ****                                 buffer_tx[y] = side.a.totalsHandle[0][1][x];y++;
 149:.\RFPoll.c    ****                             }                        
 150:.\RFPoll.c    ****                         } 
 151:.\RFPoll.c    ****                     }
 152:.\RFPoll.c    ****                 }                
 153:.\RFPoll.c    ****                 if(buffer_rf[5] == side.b.dir){                
 154:.\RFPoll.c    ****                     getTotals(side.b.dir);
 155:.\RFPoll.c    ****                     buffer_tx[5] = side.b.dir; y++;
 156:.\RFPoll.c    ****                     buffer_tx[y] = 0xE8; y++;
 157:.\RFPoll.c    ****                     buffer_tx[y] = side.b.rfState; y++;
 158:.\RFPoll.c    ****                     buffer_tx[y] = 0x00; y++;
 159:.\RFPoll.c    ****                     for(z=1;z <= side.b.hoseNumber; z++){
 160:.\RFPoll.c    ****                         buffer_tx[y] = z; y++;
 161:.\RFPoll.c    ****                         if (digits == 6 || digits == 5){                            
 162:.\RFPoll.c    ****                             for(x = 8; x > 0; x--){ //Volumen
 163:.\RFPoll.c    ****                                 buffer_tx[y] = side.b.totalsHandle[0][0][x];y++;
 164:.\RFPoll.c    ****                             }
 165:.\RFPoll.c    ****                             for(x =0; x < 4; x++){
 166:.\RFPoll.c    ****                                 buffer_tx[y] = 0x30;y++;
 167:.\RFPoll.c    ****                             }
 168:.\RFPoll.c    ****                             for(x = 8; x > 0; x--){//Dinero
 169:.\RFPoll.c    ****                                 buffer_tx[y] = side.b.totalsHandle[0][1][x];y++;
 170:.\RFPoll.c    ****                             }
 171:.\RFPoll.c    ****                             for(x =0; x < 4; x++){
 172:.\RFPoll.c    ****                                 buffer_tx[y] = 0x30;y++;
 173:.\RFPoll.c    ****                             }
 174:.\RFPoll.c    ****                         }else{
 175:.\RFPoll.c    ****                             for(x = 12; x > 0; x--){ //Volumen
 176:.\RFPoll.c    ****                                 buffer_tx[y] = side.b.totalsHandle[0][0][x];y++;
 177:.\RFPoll.c    ****                             }                        
 178:.\RFPoll.c    ****                             for(x = 12; x > 0; x--){//Dinero
 179:.\RFPoll.c    ****                                 buffer_tx[y] = side.b.totalsHandle[0][1][x];y++;
 180:.\RFPoll.c    ****                             }                        
 181:.\RFPoll.c    ****                         }
 182:.\RFPoll.c    ****                     }
 183:.\RFPoll.c    ****                 }
 184:.\RFPoll.c    ****                 buffer_tx[8] = y-9;
 185:.\RFPoll.c    ****                 buffer_tx[y] = verificar_check(buffer_tx,y+1);y++;                 
 186:.\RFPoll.c    ****                 for (x = 0; x < y; x++){
 187:.\RFPoll.c    ****                     RF_Connection_PutChar(buffer_tx[x]);
 188:.\RFPoll.c    ****                 }
ARM GAS  C:\Users\RECEPC~1\AppData\Local\Temp\ccIFDC7N.s 			page 6


 189:.\RFPoll.c    ****                break;
 190:.\RFPoll.c    ****                 
 191:.\RFPoll.c    ****                case 0xA6:               //Envio de precios
 192:.\RFPoll.c    ****                 if(buffer_rf[5] == side.a.dir){                        
 193:.\RFPoll.c    ****                     for(x=9;x < 14 ; x++ ){
 194:.\RFPoll.c    ****                         side.a.ppuAuthorized[buffer_rf[8]][x-9] = buffer_rf[x];
 195:.\RFPoll.c    ****                     }
 196:.\RFPoll.c    ****                     side.a.changePPU = true;
 197:.\RFPoll.c    ****                     side.a.grade = buffer_rf[8];
 198:.\RFPoll.c    ****                     buffer_tx[5] = side.a.dir;y++;
 199:.\RFPoll.c    ****                     buffer_tx[y] = 0xA6;y++;
 200:.\RFPoll.c    ****                     buffer_tx[y] = 0x03;y++;
 201:.\RFPoll.c    ****                 } 
 202:.\RFPoll.c    ****                 if(buffer_rf[5] == side.b.dir){                        
 203:.\RFPoll.c    ****                     for(x=9;x < 14 ; x++ ){
 204:.\RFPoll.c    ****                         side.b.ppuAuthorized[buffer_rf[8]][x-9] = buffer_rf[x];
 205:.\RFPoll.c    ****                     }
 206:.\RFPoll.c    ****                     side.b.changePPU = true;
 207:.\RFPoll.c    ****                     side.b.grade = buffer_rf[8];
 208:.\RFPoll.c    ****                     buffer_tx[5] = side.b.dir; y++;
 209:.\RFPoll.c    ****                     buffer_tx[y] = 0xA6;y++;
 210:.\RFPoll.c    ****                     buffer_tx[y] = 0x03;y++;
 211:.\RFPoll.c    ****                 } 
 212:.\RFPoll.c    ****                 if(buffer_rf[5] == side.c.dir){                        
 213:.\RFPoll.c    ****                     for(x=9;x < 14 ; x++ ){
 214:.\RFPoll.c    ****                         side.c.ppuAuthorized[buffer_rf[8]][x-9] = buffer_rf[x];
 215:.\RFPoll.c    ****                     }
 216:.\RFPoll.c    ****                     side.c.changePPU = true;
 217:.\RFPoll.c    ****                     side.c.grade = buffer_rf[8];
 218:.\RFPoll.c    ****                     buffer_tx[5] = side.c.dir; y++;
 219:.\RFPoll.c    ****                     buffer_tx[y] = 0xA6;y++;
 220:.\RFPoll.c    ****                     buffer_tx[y] = 0x03;y++;
 221:.\RFPoll.c    ****                 } 
 222:.\RFPoll.c    ****                 if(buffer_rf[5] == side.d.dir){                        
 223:.\RFPoll.c    ****                     for(x=9;x < 14 ; x++ ){
 224:.\RFPoll.c    ****                         side.d.ppuAuthorized[buffer_rf[8]][x-9] = buffer_rf[x];
 225:.\RFPoll.c    ****                     }
 226:.\RFPoll.c    ****                     side.d.changePPU = true;
 227:.\RFPoll.c    ****                     side.d.grade = buffer_rf[8];
 228:.\RFPoll.c    ****                     buffer_tx[5] = side.d.dir; y++;
 229:.\RFPoll.c    ****                     buffer_tx[y] = 0xA6;y++;
 230:.\RFPoll.c    ****                     buffer_tx[y] = 0x03;y++;
 231:.\RFPoll.c    ****                 }
 232:.\RFPoll.c    ****                 buffer_tx[y] = verificar_check(buffer_tx,y+1);y++;
 233:.\RFPoll.c    ****                 for (x = 0; x < y; x++){
 234:.\RFPoll.c    ****                     RF_Connection_PutChar(buffer_tx[x]);
 235:.\RFPoll.c    ****                 }
 236:.\RFPoll.c    ****                break;
 237:.\RFPoll.c    ****                 
 238:.\RFPoll.c    ****                case 0xA7:               //Impresion general
 239:.\RFPoll.c    ****                 
 240:.\RFPoll.c    ****                 if(buffer_rf[5] == side.a.dir){
 241:.\RFPoll.c    ****                     buffer_tx[5] = side.a.dir;
 242:.\RFPoll.c    ****                     buffer_tx[6] = 0xA7;
 243:.\RFPoll.c    ****                     buffer_tx[7] = side.a.rfState;
 244:.\RFPoll.c    ****                 }  
 245:.\RFPoll.c    ****                 if(buffer_rf[5] == side.b.dir){
ARM GAS  C:\Users\RECEPC~1\AppData\Local\Temp\ccIFDC7N.s 			page 7


 246:.\RFPoll.c    ****                     buffer_tx[5] = side.b.dir;
 247:.\RFPoll.c    ****                     buffer_tx[6] = 0xA7;
 248:.\RFPoll.c    ****                     buffer_tx[7] = side.b.rfState;
 249:.\RFPoll.c    ****                 }
 250:.\RFPoll.c    ****                 if(buffer_rf[5] == side.c.dir){
 251:.\RFPoll.c    ****                     buffer_tx[5] = side.c.dir;
 252:.\RFPoll.c    ****                     buffer_tx[6] = 0xA7;
 253:.\RFPoll.c    ****                     buffer_tx[7] = side.c.rfState;
 254:.\RFPoll.c    ****                 }
 255:.\RFPoll.c    ****                 if(buffer_rf[5] == side.d.dir){
 256:.\RFPoll.c    ****                     buffer_tx[5] = side.d.dir;
 257:.\RFPoll.c    ****                     buffer_tx[6] = 0xA7;
 258:.\RFPoll.c    ****                     buffer_tx[7] = side.d.rfState;
 259:.\RFPoll.c    ****                 }
 260:.\RFPoll.c    ****                 buffer_tx[8] = verificar_check(buffer_tx,9);
 261:.\RFPoll.c    ****                 for (x = 0; x < 9; x++){
 262:.\RFPoll.c    ****                     RF_Connection_PutChar(buffer_tx[x]);
 263:.\RFPoll.c    ****                 }
 264:.\RFPoll.c    ****                 
 265:.\RFPoll.c    ****                break;
 266:.\RFPoll.c    ****                case 0xAB:
 267:.\RFPoll.c    ****                 buffer_tx[0] = 0xBC;
 268:.\RFPoll.c    ****                break;
 269:.\RFPoll.c    ****                 
 270:.\RFPoll.c    ****                case 0xE1:               //Configuracion de la estacion
 271:.\RFPoll.c    ****                 symbols[1] = buffer_rf[8];
 272:.\RFPoll.c    ****                 date[0]    = buffer_rf[9];
 273:.\RFPoll.c    ****                 date[1]    = buffer_rf[10];
 274:.\RFPoll.c    ****                 date[2]    = buffer_rf[11];
 275:.\RFPoll.c    ****                 time[1]    = buffer_rf[12];
 276:.\RFPoll.c    ****                 time[0]    = buffer_rf[13];
 277:.\RFPoll.c    ****                 for(x = 17; x < 47; x++){
 278:.\RFPoll.c    ****                     Encabezado1[x-17] = buffer_rf[x];
 279:.\RFPoll.c    ****                 }
 280:.\RFPoll.c    ****                 for(x = 47; x < 77; x++){
 281:.\RFPoll.c    ****                     Encabezado2[x-47] = buffer_rf[x];
 282:.\RFPoll.c    ****                 }
 283:.\RFPoll.c    ****                 for(x = 77; x < 107; x++){
 284:.\RFPoll.c    ****                     Encabezado3[x-77] = buffer_rf[x];
 285:.\RFPoll.c    ****                 }
 286:.\RFPoll.c    ****                 for(x = 107; x < 137; x++){
 287:.\RFPoll.c    ****                     Encabezado4[x-77] = buffer_rf[x];
 288:.\RFPoll.c    ****                 }
 289:.\RFPoll.c    ****                 CopiasCredito = buffer_rf[16];
 290:.\RFPoll.c    ****                 write_hora();
 291:.\RFPoll.c    ****                 write_fecha(); 
 292:.\RFPoll.c    ****                 for(x =0 ; x <30; x++){
 293:.\RFPoll.c    ****                     EEPROM_1_WriteByte(Encabezado1[x],16+x);
 294:.\RFPoll.c    ****                 }
 295:.\RFPoll.c    ****                 for(x =30 ; x <60; x++){
 296:.\RFPoll.c    ****                     EEPROM_1_WriteByte(Encabezado2[x-30],16+x);
 297:.\RFPoll.c    ****                 }
 298:.\RFPoll.c    ****                 for(x =60 ; x <90; x++){
 299:.\RFPoll.c    ****                     EEPROM_1_WriteByte(Encabezado3[x-30],16+x);
 300:.\RFPoll.c    ****                 }
 301:.\RFPoll.c    ****                 for(x =90 ; x <120; x++){
 302:.\RFPoll.c    ****                     EEPROM_1_WriteByte(Encabezado4[x-30],16+x);
ARM GAS  C:\Users\RECEPC~1\AppData\Local\Temp\ccIFDC7N.s 			page 8


 303:.\RFPoll.c    ****                 }
 304:.\RFPoll.c    ****                 side.a.dir = EEPROM_1_ReadByte(12);
 305:.\RFPoll.c    ****                 side.b.dir = EEPROM_1_ReadByte(13);
 306:.\RFPoll.c    ****                 side.c.dir = EEPROM_1_ReadByte(14);
 307:.\RFPoll.c    ****                 side.d.dir = EEPROM_1_ReadByte(15);
 308:.\RFPoll.c    ****                 imprimir(printPortA,side.a.dir);
 309:.\RFPoll.c    ****                break;
 310:.\RFPoll.c    ****                
 311:.\RFPoll.c    ****                case 0xE2:               //Configuracion de la posicion                             
 312:.\RFPoll.c    ****                 buffer_tx[5] = buffer_rf[5];
 313:.\RFPoll.c    ****                 buffer_tx[6] = 0xE2;
 314:.\RFPoll.c    ****                 buffer_tx[7] = 0x08;
 315:.\RFPoll.c    ****                 buffer_tx[8] = 0x03;
 316:.\RFPoll.c    ****                 buffer_tx[9] = verificar_check(buffer_tx,10);
 317:.\RFPoll.c    ****                 for (x = 0; x < 10; x++){
 318:.\RFPoll.c    ****                     RF_Connection_PutChar(buffer_tx[x]);
 319:.\RFPoll.c    ****                 }
 320:.\RFPoll.c    ****                 for(x = 8; x < 12; x++){
 321:.\RFPoll.c    ****                     GradesHose[x-8] = buffer_rf[x];
 322:.\RFPoll.c    ****                 }
 323:.\RFPoll.c    ****                 lockTurn = buffer_rf[12];
 324:.\RFPoll.c    ****                 EEPROM_1_WriteByte(lockTurn,7);
 325:.\RFPoll.c    ****                break;
 326:.\RFPoll.c    ****            }                       
 327:.\RFPoll.c    ****         } 
 328:.\RFPoll.c    ****         RF_Connection_ClearRxBuffer(); 
 329:.\RFPoll.c    ****     }                            
 330:.\RFPoll.c    ****     //countRX = 0;            
 331:.\RFPoll.c    **** }
 332:.\RFPoll.c    **** 
 333:.\RFPoll.c    **** 
 334:.\RFPoll.c    **** void pollingRFA_Tx(){   
  95              		.loc 1 334 0
  96              		.cfi_startproc
  97              		@ args = 0, pretend = 0, frame = 0
  98              		@ frame_needed = 0, uses_anonymous_args = 0
  99 0000 38B5     		push	{r3, r4, r5, lr}
 100              		.cfi_def_cfa_offset 16
 101              		.cfi_offset 3, -16
 102              		.cfi_offset 4, -12
 103              		.cfi_offset 5, -8
 104              		.cfi_offset 14, -4
 335:.\RFPoll.c    ****     uint16 x;  
 336:.\RFPoll.c    ****     
 337:.\RFPoll.c    ****     /////////////// COPIA DE RECIBO //////////////////
 338:.\RFPoll.c    **** //    if(side.a.rfState == RF_COPY_RECEIPT && side.a.RFstateReport == 1){        
 339:.\RFPoll.c    **** //        buffer_txDisplay[5] = side.a.dir;
 340:.\RFPoll.c    **** //        buffer_txDisplay[6] = 0xE6;
 341:.\RFPoll.c    **** //        buffer_txDisplay[7] = RF_COPY_RECEIPT;
 342:.\RFPoll.c    **** //        buffer_txDisplay[8] = verificar_check(buffer_txDisplay,9);
 343:.\RFPoll.c    **** //        for (x = 0; x < 9; x++){
 344:.\RFPoll.c    **** //            RF_Connection_PutChar(buffer_txDisplay[x]);
 345:.\RFPoll.c    **** //        }
 346:.\RFPoll.c    **** //		side.a.RFstateReport = 0;
 347:.\RFPoll.c    **** //    }    
 348:.\RFPoll.c    ****     ////////////// PRESET - DISPENSANDO ////////////////////////////////////
 349:.\RFPoll.c    ****     if(side.a.pumpState == PUMP_BUSY && side.a.RFstateReport == 1){
ARM GAS  C:\Users\RECEPC~1\AppData\Local\Temp\ccIFDC7N.s 			page 9


 105              		.loc 1 349 0
 106 0002 AE4B     		ldr	r3, .L48
 107 0004 93F80431 		ldrb	r3, [r3, #260]	@ zero_extendqisi2
 108 0008 092B     		cmp	r3, #9
 109 000a 40F08980 		bne	.L8
 110              		.loc 1 349 0 is_stmt 0 discriminator 1
 111 000e AB4B     		ldr	r3, .L48
 112 0010 93F80731 		ldrb	r3, [r3, #263]	@ zero_extendqisi2
 113 0014 012B     		cmp	r3, #1
 114 0016 40F08380 		bne	.L8
 350:.\RFPoll.c    ****         buffer_txPreset[0] = 0xBC;
 115              		.loc 1 350 0 is_stmt 1
 116 001a A94B     		ldr	r3, .L48+4
 117 001c BC22     		movs	r2, #188
 118 001e 1A70     		strb	r2, [r3]
 351:.\RFPoll.c    ****         buffer_txPreset[1] = 0xCB;
 119              		.loc 1 351 0
 120 0020 CB22     		movs	r2, #203
 121 0022 5A70     		strb	r2, [r3, #1]
 352:.\RFPoll.c    ****         buffer_txPreset[2] = 0xC8;
 122              		.loc 1 352 0
 123 0024 C822     		movs	r2, #200
 124 0026 9A70     		strb	r2, [r3, #2]
 353:.\RFPoll.c    ****         buffer_txPreset[3] = IDCast[0];
 125              		.loc 1 353 0
 126 0028 A64A     		ldr	r2, .L48+8
 127 002a 1178     		ldrb	r1, [r2]	@ zero_extendqisi2
 128 002c D970     		strb	r1, [r3, #3]
 354:.\RFPoll.c    ****         buffer_txPreset[4] = IDCast[1];
 129              		.loc 1 354 0
 130 002e 5278     		ldrb	r2, [r2, #1]	@ zero_extendqisi2
 131 0030 1A71     		strb	r2, [r3, #4]
 355:.\RFPoll.c    ****         buffer_txPreset[5]  = side.a.dir;
 132              		.loc 1 355 0
 133 0032 A24A     		ldr	r2, .L48
 134 0034 1178     		ldrb	r1, [r2]	@ zero_extendqisi2
 135 0036 5971     		strb	r1, [r3, #5]
 356:.\RFPoll.c    ****         buffer_txPreset[6]  = 0xAA;
 136              		.loc 1 356 0
 137 0038 AA21     		movs	r1, #170
 138 003a 9971     		strb	r1, [r3, #6]
 357:.\RFPoll.c    ****         buffer_txPreset[7]  = RF_DELIVERING;
 139              		.loc 1 357 0
 140 003c 0121     		movs	r1, #1
 141 003e D971     		strb	r1, [r3, #7]
 358:.\RFPoll.c    ****         buffer_txPreset[8]  = side.a.activeHose;
 142              		.loc 1 358 0
 143 0040 92F80021 		ldrb	r2, [r2, #256]	@ zero_extendqisi2
 144 0044 1A72     		strb	r2, [r3, #8]
 359:.\RFPoll.c    ****         buffer_txPreset[9]  = bufferDisplay1.presetType[0]&0x03;
 145              		.loc 1 359 0
 146 0046 A049     		ldr	r1, .L48+12
 147 0048 91F86320 		ldrb	r2, [r1, #99]	@ zero_extendqisi2
 148 004c 02F00302 		and	r2, r2, #3
 149 0050 5A72     		strb	r2, [r3, #9]
 360:.\RFPoll.c    ****         for(x = bufferDisplay1.presetValue[0][0] ; x > 0; x--){
 150              		.loc 1 360 0
ARM GAS  C:\Users\RECEPC~1\AppData\Local\Temp\ccIFDC7N.s 			page 10


 151 0052 91F86500 		ldrb	r0, [r1, #101]	@ zero_extendqisi2
 152 0056 84B2     		uxth	r4, r0
 153              	.LVL10:
 154 0058 08E0     		b	.L9
 155              	.L10:
 361:.\RFPoll.c    ****             tempPreset[bufferDisplay1.presetValue[0][0]-x] = (bufferDisplay1.presetValue[0][x]); 
 156              		.loc 1 361 0 discriminator 3
 157 005a 021B     		subs	r2, r0, r4
 158 005c 9A4B     		ldr	r3, .L48+12
 159 005e 2344     		add	r3, r3, r4
 160 0060 93F86510 		ldrb	r1, [r3, #101]	@ zero_extendqisi2
 161 0064 994B     		ldr	r3, .L48+16
 162 0066 9954     		strb	r1, [r3, r2]
 360:.\RFPoll.c    ****         for(x = bufferDisplay1.presetValue[0][0] ; x > 0; x--){
 163              		.loc 1 360 0 discriminator 3
 164 0068 013C     		subs	r4, r4, #1
 165              	.LVL11:
 166 006a A4B2     		uxth	r4, r4
 167              	.LVL12:
 168              	.L9:
 360:.\RFPoll.c    ****         for(x = bufferDisplay1.presetValue[0][0] ; x > 0; x--){
 169              		.loc 1 360 0 is_stmt 0 discriminator 1
 170 006c 002C     		cmp	r4, #0
 171 006e F4D1     		bne	.L10
 172 0070 0A23     		movs	r3, #10
 173 0072 0CE0     		b	.L11
 174              	.LVL13:
 175              	.L13:
 362:.\RFPoll.c    ****         }
 363:.\RFPoll.c    ****         for(x = 10; x<=17; x++){
 364:.\RFPoll.c    ****             buffer_txPreset[x] = tempPreset[x-10]; 
 176              		.loc 1 364 0 is_stmt 1
 177 0074 A3F10A02 		sub	r2, r3, #10
 178 0078 9449     		ldr	r1, .L48+16
 179 007a 8A5C     		ldrb	r2, [r1, r2]	@ zero_extendqisi2
 180 007c D2B2     		uxtb	r2, r2
 181 007e 9049     		ldr	r1, .L48+4
 182 0080 CA54     		strb	r2, [r1, r3]
 365:.\RFPoll.c    ****             if(buffer_txPreset[x]== 0x00)
 183              		.loc 1 365 0
 184 0082 12B9     		cbnz	r2, .L12
 366:.\RFPoll.c    ****                 buffer_txPreset[x] = 0x30;
 185              		.loc 1 366 0
 186 0084 3021     		movs	r1, #48
 187 0086 8E4A     		ldr	r2, .L48+4
 188 0088 D154     		strb	r1, [r2, r3]
 189              	.L12:
 363:.\RFPoll.c    ****             buffer_txPreset[x] = tempPreset[x-10]; 
 190              		.loc 1 363 0 discriminator 2
 191 008a 0133     		adds	r3, r3, #1
 192              	.LVL14:
 193 008c 9BB2     		uxth	r3, r3
 194              	.LVL15:
 195              	.L11:
 363:.\RFPoll.c    ****             buffer_txPreset[x] = tempPreset[x-10]; 
 196              		.loc 1 363 0 is_stmt 0 discriminator 1
 197 008e 112B     		cmp	r3, #17
ARM GAS  C:\Users\RECEPC~1\AppData\Local\Temp\ccIFDC7N.s 			page 11


 198 0090 F0D9     		bls	.L13
 367:.\RFPoll.c    ****         }        
 368:.\RFPoll.c    ****         buffer_txPreset[18]  = 0x00;
 199              		.loc 1 368 0 is_stmt 1
 200 0092 0022     		movs	r2, #0
 201 0094 8A4B     		ldr	r3, .L48+4
 202              	.LVL16:
 203 0096 9A74     		strb	r2, [r3, #18]
 369:.\RFPoll.c    ****         if(bufferDisplay1.flagPrint == 0){
 204              		.loc 1 369 0
 205 0098 8B4B     		ldr	r3, .L48+12
 206 009a 93F83431 		ldrb	r3, [r3, #308]	@ zero_extendqisi2
 207 009e 63B1     		cbz	r3, .L44
 208 00a0 2346     		mov	r3, r4
 209 00a2 1BE0     		b	.L15
 210              	.LVL17:
 211              	.L16:
 370:.\RFPoll.c    ****             for(x = 0; x <8 ; x++){
 371:.\RFPoll.c    ****                 buffer_txPreset[19+x]=0x20;
 212              		.loc 1 371 0 discriminator 3
 213 00a4 03F11302 		add	r2, r3, #19
 214 00a8 2020     		movs	r0, #32
 215 00aa 8549     		ldr	r1, .L48+4
 216 00ac 8854     		strb	r0, [r1, r2]
 372:.\RFPoll.c    ****                 tempPreset[x] = 0x00;
 217              		.loc 1 372 0 discriminator 3
 218 00ae 0021     		movs	r1, #0
 219 00b0 864A     		ldr	r2, .L48+16
 220 00b2 D154     		strb	r1, [r2, r3]
 370:.\RFPoll.c    ****             for(x = 0; x <8 ; x++){
 221              		.loc 1 370 0 discriminator 3
 222 00b4 0133     		adds	r3, r3, #1
 223              	.LVL18:
 224 00b6 9BB2     		uxth	r3, r3
 225              	.LVL19:
 226 00b8 00E0     		b	.L14
 227              	.LVL20:
 228              	.L44:
 229 00ba 2346     		mov	r3, r4
 230              	.L14:
 231              	.LVL21:
 370:.\RFPoll.c    ****             for(x = 0; x <8 ; x++){
 232              		.loc 1 370 0 is_stmt 0 discriminator 1
 233 00bc 072B     		cmp	r3, #7
 234 00be F1D9     		bls	.L16
 235 00c0 0EE0     		b	.L17
 236              	.L18:
 373:.\RFPoll.c    ****             }
 374:.\RFPoll.c    ****         }else{
 375:.\RFPoll.c    ****             for(x = 0; x <8 ; x++){
 376:.\RFPoll.c    ****                 buffer_txPreset[19+x]=bufferDisplay1.licenceSale[x+1];
 237              		.loc 1 376 0 is_stmt 1 discriminator 3
 238 00c2 03F11300 		add	r0, r3, #19
 239 00c6 591C     		adds	r1, r3, #1
 240 00c8 7F4A     		ldr	r2, .L48+12
 241 00ca 0A44     		add	r2, r2, r1
 242 00cc 92F8DF50 		ldrb	r5, [r2, #223]	@ zero_extendqisi2
ARM GAS  C:\Users\RECEPC~1\AppData\Local\Temp\ccIFDC7N.s 			page 12


 243 00d0 7B4A     		ldr	r2, .L48+4
 244 00d2 1554     		strb	r5, [r2, r0]
 377:.\RFPoll.c    ****                 tempPreset[x] = 0x00;
 245              		.loc 1 377 0 discriminator 3
 246 00d4 0020     		movs	r0, #0
 247 00d6 7D4A     		ldr	r2, .L48+16
 248 00d8 D054     		strb	r0, [r2, r3]
 375:.\RFPoll.c    ****                 buffer_txPreset[19+x]=bufferDisplay1.licenceSale[x+1];
 249              		.loc 1 375 0 discriminator 3
 250 00da 8BB2     		uxth	r3, r1
 251              	.LVL22:
 252              	.L15:
 375:.\RFPoll.c    ****                 buffer_txPreset[19+x]=bufferDisplay1.licenceSale[x+1];
 253              		.loc 1 375 0 is_stmt 0 discriminator 1
 254 00dc 072B     		cmp	r3, #7
 255 00de F0D9     		bls	.L18
 256              	.L17:
 257 00e0 1B23     		movs	r3, #27
 258              	.LVL23:
 259 00e2 04E0     		b	.L19
 260              	.LVL24:
 261              	.L20:
 378:.\RFPoll.c    ****             }
 379:.\RFPoll.c    ****         }
 380:.\RFPoll.c    ****         for(x=27; x<=37;x++){
 381:.\RFPoll.c    ****             buffer_txPreset[x]= 0x30;
 262              		.loc 1 381 0 is_stmt 1 discriminator 3
 263 00e4 3021     		movs	r1, #48
 264 00e6 764A     		ldr	r2, .L48+4
 265 00e8 D154     		strb	r1, [r2, r3]
 380:.\RFPoll.c    ****             buffer_txPreset[x]= 0x30;
 266              		.loc 1 380 0 discriminator 3
 267 00ea 0133     		adds	r3, r3, #1
 268              	.LVL25:
 269 00ec 9BB2     		uxth	r3, r3
 270              	.LVL26:
 271              	.L19:
 380:.\RFPoll.c    ****             buffer_txPreset[x]= 0x30;
 272              		.loc 1 380 0 is_stmt 0 discriminator 1
 273 00ee 252B     		cmp	r3, #37
 274 00f0 F8D9     		bls	.L20
 382:.\RFPoll.c    ****         }
 383:.\RFPoll.c    ****         buffer_txPreset[38] = verificar_check(buffer_txPreset,39);            
 275              		.loc 1 383 0 is_stmt 1
 276 00f2 734D     		ldr	r5, .L48+4
 277 00f4 2846     		mov	r0, r5
 278 00f6 2721     		movs	r1, #39
 279 00f8 FFF7FEFF 		bl	verificar_check
 280              	.LVL27:
 281 00fc 85F82600 		strb	r0, [r5, #38]
 282              	.LVL28:
 384:.\RFPoll.c    ****         for (x = 0; x < 39; x++){
 283              		.loc 1 384 0
 284 0100 05E0     		b	.L21
 285              	.LVL29:
 286              	.L22:
 385:.\RFPoll.c    ****             RF_Connection_PutChar(buffer_txPreset[x]);
ARM GAS  C:\Users\RECEPC~1\AppData\Local\Temp\ccIFDC7N.s 			page 13


 287              		.loc 1 385 0 discriminator 3
 288 0102 6F4B     		ldr	r3, .L48+4
 289 0104 185D     		ldrb	r0, [r3, r4]	@ zero_extendqisi2
 290 0106 FFF7FEFF 		bl	RF_Connection_PutChar
 291              	.LVL30:
 384:.\RFPoll.c    ****         for (x = 0; x < 39; x++){
 292              		.loc 1 384 0 discriminator 3
 293 010a 0134     		adds	r4, r4, #1
 294              	.LVL31:
 295 010c A4B2     		uxth	r4, r4
 296              	.LVL32:
 297              	.L21:
 384:.\RFPoll.c    ****         for (x = 0; x < 39; x++){
 298              		.loc 1 384 0 is_stmt 0 discriminator 1
 299 010e 262C     		cmp	r4, #38
 300 0110 F7D9     		bls	.L22
 386:.\RFPoll.c    ****         }            
 387:.\RFPoll.c    ****         side.a.rfState = RF_DELIVERING;
 301              		.loc 1 387 0 is_stmt 1
 302 0112 6A4B     		ldr	r3, .L48
 303 0114 0122     		movs	r2, #1
 304 0116 83F80321 		strb	r2, [r3, #259]
 388:.\RFPoll.c    ****         side.a.RFstateReport = 0;
 305              		.loc 1 388 0
 306 011a 0022     		movs	r2, #0
 307 011c 83F80721 		strb	r2, [r3, #263]
 308              	.LVL33:
 309              	.L8:
 389:.\RFPoll.c    ****     }      
 390:.\RFPoll.c    ****     ////////////// FIN VENTA ////////////////////////////////////
 391:.\RFPoll.c    ****     if(bufferDisplay1.flagEndSale == true && side.a.RFstateReport == 1){
 310              		.loc 1 391 0
 311 0120 694B     		ldr	r3, .L48+12
 312 0122 93F80331 		ldrb	r3, [r3, #259]	@ zero_extendqisi2
 313 0126 012B     		cmp	r3, #1
 314 0128 40F0B580 		bne	.L23
 315              		.loc 1 391 0 is_stmt 0 discriminator 1
 316 012c 634B     		ldr	r3, .L48
 317 012e 93F80731 		ldrb	r3, [r3, #263]	@ zero_extendqisi2
 318 0132 012B     		cmp	r3, #1
 319 0134 40F0AF80 		bne	.L23
 392:.\RFPoll.c    ****         buffer_txEOT[0] = 0xBC;
 320              		.loc 1 392 0 is_stmt 1
 321 0138 654B     		ldr	r3, .L48+20
 322 013a BC22     		movs	r2, #188
 323 013c 1A70     		strb	r2, [r3]
 393:.\RFPoll.c    ****         buffer_txEOT[1] = 0xCB;
 324              		.loc 1 393 0
 325 013e CB22     		movs	r2, #203
 326 0140 5A70     		strb	r2, [r3, #1]
 394:.\RFPoll.c    ****         buffer_txEOT[2] = 0xC8;
 327              		.loc 1 394 0
 328 0142 C822     		movs	r2, #200
 329 0144 9A70     		strb	r2, [r3, #2]
 395:.\RFPoll.c    ****         buffer_txEOT[3] = IDCast[0];
 330              		.loc 1 395 0
 331 0146 5F4A     		ldr	r2, .L48+8
ARM GAS  C:\Users\RECEPC~1\AppData\Local\Temp\ccIFDC7N.s 			page 14


 332 0148 1178     		ldrb	r1, [r2]	@ zero_extendqisi2
 333 014a D970     		strb	r1, [r3, #3]
 396:.\RFPoll.c    ****         buffer_txEOT[4] = IDCast[1];
 334              		.loc 1 396 0
 335 014c 5278     		ldrb	r2, [r2, #1]	@ zero_extendqisi2
 336 014e 1A71     		strb	r2, [r3, #4]
 397:.\RFPoll.c    ****         buffer_txEOT[5]  = side.a.dir;
 337              		.loc 1 397 0
 338 0150 5A4A     		ldr	r2, .L48
 339 0152 1178     		ldrb	r1, [r2]	@ zero_extendqisi2
 340 0154 5971     		strb	r1, [r3, #5]
 398:.\RFPoll.c    ****         buffer_txEOT[6]  = 0xA4;
 341              		.loc 1 398 0
 342 0156 A421     		movs	r1, #164
 343 0158 9971     		strb	r1, [r3, #6]
 399:.\RFPoll.c    ****         buffer_txEOT[7]  = RF_CASHSALEREPORT;
 344              		.loc 1 399 0
 345 015a 0221     		movs	r1, #2
 346 015c D971     		strb	r1, [r3, #7]
 400:.\RFPoll.c    ****         buffer_txEOT[8]  = side.a.activeHose;
 347              		.loc 1 400 0
 348 015e 92F80011 		ldrb	r1, [r2, #256]	@ zero_extendqisi2
 349 0162 1972     		strb	r1, [r3, #8]
 401:.\RFPoll.c    ****         for(x=side.a.ppuSale[0];x > 0 ;x--){						   							
 350              		.loc 1 401 0
 351 0164 92F8F100 		ldrb	r0, [r2, #241]	@ zero_extendqisi2
 352 0168 84B2     		uxth	r4, r0
 353              	.LVL34:
 354 016a 08E0     		b	.L24
 355              	.L25:
 402:.\RFPoll.c    ****     		tempPPU[side.a.ppuSale[0]-x]= side.a.ppuSale[x];
 356              		.loc 1 402 0 discriminator 3
 357 016c 021B     		subs	r2, r0, r4
 358 016e 534B     		ldr	r3, .L48
 359 0170 2344     		add	r3, r3, r4
 360 0172 93F8F110 		ldrb	r1, [r3, #241]	@ zero_extendqisi2
 361 0176 574B     		ldr	r3, .L48+24
 362 0178 9954     		strb	r1, [r3, r2]
 401:.\RFPoll.c    ****         for(x=side.a.ppuSale[0];x > 0 ;x--){						   							
 363              		.loc 1 401 0 discriminator 3
 364 017a 013C     		subs	r4, r4, #1
 365              	.LVL35:
 366 017c A4B2     		uxth	r4, r4
 367              	.LVL36:
 368              	.L24:
 401:.\RFPoll.c    ****         for(x=side.a.ppuSale[0];x > 0 ;x--){						   							
 369              		.loc 1 401 0 is_stmt 0 discriminator 1
 370 017e 002C     		cmp	r4, #0
 371 0180 F4D1     		bne	.L25
 372 0182 0923     		movs	r3, #9
 373 0184 0CE0     		b	.L26
 374              	.LVL37:
 375              	.L28:
 403:.\RFPoll.c    ****     	}
 404:.\RFPoll.c    ****         for(x = 9; x<=13; x++){
 405:.\RFPoll.c    ****             buffer_txEOT[x] = tempPPU[x-9]; 
 376              		.loc 1 405 0 is_stmt 1
ARM GAS  C:\Users\RECEPC~1\AppData\Local\Temp\ccIFDC7N.s 			page 15


 377 0186 A3F10902 		sub	r2, r3, #9
 378 018a 5249     		ldr	r1, .L48+24
 379 018c 8A5C     		ldrb	r2, [r1, r2]	@ zero_extendqisi2
 380 018e D2B2     		uxtb	r2, r2
 381 0190 4F49     		ldr	r1, .L48+20
 382 0192 CA54     		strb	r2, [r1, r3]
 406:.\RFPoll.c    ****             if(buffer_txEOT[x]== 0x00)
 383              		.loc 1 406 0
 384 0194 12B9     		cbnz	r2, .L27
 407:.\RFPoll.c    ****                 buffer_txEOT[x] = 0x30;
 385              		.loc 1 407 0
 386 0196 3021     		movs	r1, #48
 387 0198 4D4A     		ldr	r2, .L48+20
 388 019a D154     		strb	r1, [r2, r3]
 389              	.L27:
 404:.\RFPoll.c    ****             buffer_txEOT[x] = tempPPU[x-9]; 
 390              		.loc 1 404 0 discriminator 2
 391 019c 0133     		adds	r3, r3, #1
 392              	.LVL38:
 393 019e 9BB2     		uxth	r3, r3
 394              	.LVL39:
 395              	.L26:
 404:.\RFPoll.c    ****             buffer_txEOT[x] = tempPPU[x-9]; 
 396              		.loc 1 404 0 is_stmt 0 discriminator 1
 397 01a0 0D2B     		cmp	r3, #13
 398 01a2 F0D9     		bls	.L28
 408:.\RFPoll.c    ****         } 
 409:.\RFPoll.c    ****         if(digits ==5 || digits ==6){
 399              		.loc 1 409 0 is_stmt 1
 400 01a4 4C4B     		ldr	r3, .L48+28
 401              	.LVL40:
 402 01a6 1B78     		ldrb	r3, [r3]	@ zero_extendqisi2
 403 01a8 053B     		subs	r3, r3, #5
 404 01aa DBB2     		uxtb	r3, r3
 405 01ac 012B     		cmp	r3, #1
 406 01ae 0CD9     		bls	.L45
 407 01b0 0123     		movs	r3, #1
 408 01b2 1BE0     		b	.L30
 409              	.LVL41:
 410              	.L31:
 410:.\RFPoll.c    ****             for(x=1;x <= side.a.volumeSale[0];x++){						   							
 411:.\RFPoll.c    ****                 buffer_txEOT[x+13]=side.a.volumeSale[7-x];                
 411              		.loc 1 411 0 discriminator 3
 412 01b4 03F10D01 		add	r1, r3, #13
 413 01b8 484A     		ldr	r2, .L48+32
 414 01ba D21A     		subs	r2, r2, r3
 415 01bc 92F8E300 		ldrb	r0, [r2, #227]	@ zero_extendqisi2
 416 01c0 434A     		ldr	r2, .L48+20
 417 01c2 5054     		strb	r0, [r2, r1]
 410:.\RFPoll.c    ****             for(x=1;x <= side.a.volumeSale[0];x++){						   							
 418              		.loc 1 410 0 discriminator 3
 419 01c4 0133     		adds	r3, r3, #1
 420              	.LVL42:
 421 01c6 9BB2     		uxth	r3, r3
 422              	.LVL43:
 423 01c8 00E0     		b	.L29
 424              	.LVL44:
ARM GAS  C:\Users\RECEPC~1\AppData\Local\Temp\ccIFDC7N.s 			page 16


 425              	.L45:
 426 01ca 0123     		movs	r3, #1
 427              	.L29:
 428              	.LVL45:
 410:.\RFPoll.c    ****             for(x=1;x <= side.a.volumeSale[0];x++){						   							
 429              		.loc 1 410 0 is_stmt 0 discriminator 1
 430 01cc 3B4A     		ldr	r2, .L48
 431 01ce 92F8E320 		ldrb	r2, [r2, #227]	@ zero_extendqisi2
 432 01d2 9A42     		cmp	r2, r3
 433 01d4 EED2     		bcs	.L31
 434 01d6 0EE0     		b	.L32
 435              	.L33:
 412:.\RFPoll.c    ****         	}
 413:.\RFPoll.c    ****         }else{
 414:.\RFPoll.c    ****             for(x=1;x <= side.a.volumeSale[0];x++){						   							
 415:.\RFPoll.c    ****                 buffer_txEOT[x+13]=side.a.volumeSale[9-x];                
 436              		.loc 1 415 0 is_stmt 1 discriminator 3
 437 01d8 03F10D01 		add	r1, r3, #13
 438 01dc 404A     		ldr	r2, .L48+36
 439 01de D21A     		subs	r2, r2, r3
 440 01e0 92F8E300 		ldrb	r0, [r2, #227]	@ zero_extendqisi2
 441 01e4 3A4A     		ldr	r2, .L48+20
 442 01e6 5054     		strb	r0, [r2, r1]
 414:.\RFPoll.c    ****                 buffer_txEOT[x+13]=side.a.volumeSale[9-x];                
 443              		.loc 1 414 0 discriminator 3
 444 01e8 0133     		adds	r3, r3, #1
 445              	.LVL46:
 446 01ea 9BB2     		uxth	r3, r3
 447              	.LVL47:
 448              	.L30:
 414:.\RFPoll.c    ****                 buffer_txEOT[x+13]=side.a.volumeSale[9-x];                
 449              		.loc 1 414 0 is_stmt 0 discriminator 1
 450 01ec 334A     		ldr	r2, .L48
 451 01ee 92F8E320 		ldrb	r2, [r2, #227]	@ zero_extendqisi2
 452 01f2 9A42     		cmp	r2, r3
 453 01f4 F0D2     		bcs	.L33
 454              	.L32:
 416:.\RFPoll.c    ****         	}
 417:.\RFPoll.c    ****         }        
 418:.\RFPoll.c    ****         if(buffer_txEOT[20]==0x00){
 455              		.loc 1 418 0 is_stmt 1
 456 01f6 364B     		ldr	r3, .L48+20
 457              	.LVL48:
 458 01f8 1B7D     		ldrb	r3, [r3, #20]	@ zero_extendqisi2
 459 01fa 1BB9     		cbnz	r3, .L34
 419:.\RFPoll.c    ****             buffer_txEOT[20] = 0x30;
 460              		.loc 1 419 0
 461 01fc 344B     		ldr	r3, .L48+20
 462 01fe 3022     		movs	r2, #48
 463 0200 1A75     		strb	r2, [r3, #20]
 420:.\RFPoll.c    ****             buffer_txEOT[21] = 0x30;
 464              		.loc 1 420 0
 465 0202 5A75     		strb	r2, [r3, #21]
 466              	.L34:
 421:.\RFPoll.c    ****         }
 422:.\RFPoll.c    ****         if(digits ==5 || digits ==6){
 467              		.loc 1 422 0
ARM GAS  C:\Users\RECEPC~1\AppData\Local\Temp\ccIFDC7N.s 			page 17


 468 0204 344B     		ldr	r3, .L48+28
 469 0206 1B78     		ldrb	r3, [r3]	@ zero_extendqisi2
 470 0208 053B     		subs	r3, r3, #5
 471 020a DBB2     		uxtb	r3, r3
 472 020c 012B     		cmp	r3, #1
 473 020e 0CD9     		bls	.L46
 474 0210 0123     		movs	r3, #1
 475 0212 1BE0     		b	.L36
 476              	.LVL49:
 477              	.L37:
 423:.\RFPoll.c    ****             for(x=1;x <= side.a.moneySale[0];x++){						   							
 424:.\RFPoll.c    ****         		buffer_txEOT[x+21]=side.a.moneySale[7-x];                
 478              		.loc 1 424 0 discriminator 3
 479 0214 03F11501 		add	r1, r3, #21
 480 0218 304A     		ldr	r2, .L48+32
 481 021a D21A     		subs	r2, r2, r3
 482 021c 92F8D500 		ldrb	r0, [r2, #213]	@ zero_extendqisi2
 483 0220 2B4A     		ldr	r2, .L48+20
 484 0222 5054     		strb	r0, [r2, r1]
 423:.\RFPoll.c    ****             for(x=1;x <= side.a.moneySale[0];x++){						   							
 485              		.loc 1 423 0 discriminator 3
 486 0224 0133     		adds	r3, r3, #1
 487              	.LVL50:
 488 0226 9BB2     		uxth	r3, r3
 489              	.LVL51:
 490 0228 00E0     		b	.L35
 491              	.LVL52:
 492              	.L46:
 493 022a 0123     		movs	r3, #1
 494              	.L35:
 495              	.LVL53:
 423:.\RFPoll.c    ****             for(x=1;x <= side.a.moneySale[0];x++){						   							
 496              		.loc 1 423 0 is_stmt 0 discriminator 1
 497 022c 234A     		ldr	r2, .L48
 498 022e 92F8D520 		ldrb	r2, [r2, #213]	@ zero_extendqisi2
 499 0232 9A42     		cmp	r2, r3
 500 0234 EED2     		bcs	.L37
 501 0236 0EE0     		b	.L38
 502              	.L39:
 425:.\RFPoll.c    ****         	} 
 426:.\RFPoll.c    ****         }else{
 427:.\RFPoll.c    ****             for(x=1;x <= side.a.moneySale[0];x++){						   							
 428:.\RFPoll.c    ****         		buffer_txEOT[x+21]=side.a.moneySale[9-x];                
 503              		.loc 1 428 0 is_stmt 1 discriminator 3
 504 0238 03F11501 		add	r1, r3, #21
 505 023c 284A     		ldr	r2, .L48+36
 506 023e D21A     		subs	r2, r2, r3
 507 0240 92F8D500 		ldrb	r0, [r2, #213]	@ zero_extendqisi2
 508 0244 224A     		ldr	r2, .L48+20
 509 0246 5054     		strb	r0, [r2, r1]
 427:.\RFPoll.c    ****         		buffer_txEOT[x+21]=side.a.moneySale[9-x];                
 510              		.loc 1 427 0 discriminator 3
 511 0248 0133     		adds	r3, r3, #1
 512              	.LVL54:
 513 024a 9BB2     		uxth	r3, r3
 514              	.LVL55:
 515              	.L36:
ARM GAS  C:\Users\RECEPC~1\AppData\Local\Temp\ccIFDC7N.s 			page 18


 427:.\RFPoll.c    ****         		buffer_txEOT[x+21]=side.a.moneySale[9-x];                
 516              		.loc 1 427 0 is_stmt 0 discriminator 1
 517 024c 1B4A     		ldr	r2, .L48
 518 024e 92F8D520 		ldrb	r2, [r2, #213]	@ zero_extendqisi2
 519 0252 9A42     		cmp	r2, r3
 520 0254 F0D2     		bcs	.L39
 521              	.L38:
 429:.\RFPoll.c    ****         	}            
 430:.\RFPoll.c    ****         }
 431:.\RFPoll.c    ****         if(buffer_txEOT[28]==0x00){
 522              		.loc 1 431 0 is_stmt 1
 523 0256 1E4B     		ldr	r3, .L48+20
 524              	.LVL56:
 525 0258 1B7F     		ldrb	r3, [r3, #28]	@ zero_extendqisi2
 526 025a 1BB9     		cbnz	r3, .L40
 432:.\RFPoll.c    ****             buffer_txEOT[28] = 0x30;
 527              		.loc 1 432 0
 528 025c 1C4B     		ldr	r3, .L48+20
 529 025e 3022     		movs	r2, #48
 530 0260 1A77     		strb	r2, [r3, #28]
 433:.\RFPoll.c    ****             buffer_txEOT[29] = 0x30;
 531              		.loc 1 433 0
 532 0262 5A77     		strb	r2, [r3, #29]
 533              	.L40:
 434:.\RFPoll.c    ****         }
 435:.\RFPoll.c    ****         buffer_txEOT[30] = verificar_check(buffer_txEOT,31);                
 534              		.loc 1 435 0
 535 0264 1A4D     		ldr	r5, .L48+20
 536 0266 2846     		mov	r0, r5
 537 0268 1F21     		movs	r1, #31
 538 026a FFF7FEFF 		bl	verificar_check
 539              	.LVL57:
 540 026e A877     		strb	r0, [r5, #30]
 541              	.LVL58:
 436:.\RFPoll.c    ****         for (x = 0; x < 31; x++){
 542              		.loc 1 436 0
 543 0270 05E0     		b	.L41
 544              	.LVL59:
 545              	.L42:
 437:.\RFPoll.c    ****             RF_Connection_PutChar(buffer_txEOT[x]);
 546              		.loc 1 437 0 discriminator 3
 547 0272 174B     		ldr	r3, .L48+20
 548 0274 185D     		ldrb	r0, [r3, r4]	@ zero_extendqisi2
 549 0276 FFF7FEFF 		bl	RF_Connection_PutChar
 550              	.LVL60:
 436:.\RFPoll.c    ****         for (x = 0; x < 31; x++){
 551              		.loc 1 436 0 discriminator 3
 552 027a 0134     		adds	r4, r4, #1
 553              	.LVL61:
 554 027c A4B2     		uxth	r4, r4
 555              	.LVL62:
 556              	.L41:
 436:.\RFPoll.c    ****         for (x = 0; x < 31; x++){
 557              		.loc 1 436 0 is_stmt 0 discriminator 1
 558 027e 1E2C     		cmp	r4, #30
 559 0280 F7D9     		bls	.L42
 438:.\RFPoll.c    ****         }        
ARM GAS  C:\Users\RECEPC~1\AppData\Local\Temp\ccIFDC7N.s 			page 19


 439:.\RFPoll.c    ****         side.a.rfState = RF_IDLE;
 560              		.loc 1 439 0 is_stmt 1
 561 0282 0E4B     		ldr	r3, .L48
 562 0284 0822     		movs	r2, #8
 563 0286 83F80321 		strb	r2, [r3, #259]
 440:.\RFPoll.c    ****         bufferDisplay1.flagActiveSale = false;
 564              		.loc 1 440 0
 565 028a 0022     		movs	r2, #0
 566 028c 0E49     		ldr	r1, .L48+12
 567 028e 81F83521 		strb	r2, [r1, #309]
 441:.\RFPoll.c    ****         side.a.RFstateReport = 0;
 568              		.loc 1 441 0
 569 0292 83F80721 		strb	r2, [r3, #263]
 570              	.LVL63:
 571              	.L23:
 442:.\RFPoll.c    ****     }                                               
 443:.\RFPoll.c    ****     ////////////// TURNOS ////////////////////////////////////
 444:.\RFPoll.c    **** //    if(ShiftState ==1  && side.a.RFstateReport == 1){                                    
 445:.\RFPoll.c    **** //        buffer_txDisplay[5]  = side.a.dir;
 446:.\RFPoll.c    **** //        buffer_txDisplay[6]  = 0xE3;
 447:.\RFPoll.c    **** //        buffer_txDisplay[7]  = RF_WORKSHIFTREQ;
 448:.\RFPoll.c    **** //        for(x=1;x <= bufferDisplay1.shiftId[0] ;x++){						   							
 449:.\RFPoll.c    **** //    		buffer_txDisplay[x+7]= bufferDisplay1.shiftId[(bufferDisplay1.shiftId[0]+1)-x];            
 450:.\RFPoll.c    **** //    	}
 451:.\RFPoll.c    **** //        for(x=8; x<19; x++){
 452:.\RFPoll.c    **** //            if(buffer_txDisplay[x] ==0x00)
 453:.\RFPoll.c    **** //                buffer_txDisplay[x]=0x30;
 454:.\RFPoll.c    **** //        }
 455:.\RFPoll.c    **** //        for(x=1;x <= bufferDisplay1.shiftPassword[0] ;x++){						   							
 456:.\RFPoll.c    **** //    		buffer_txDisplay[x+18]= bufferDisplay1.shiftPassword[(bufferDisplay1.shiftPassword[0]+1)-x]
 457:.\RFPoll.c    **** //    	}
 458:.\RFPoll.c    **** //        for(x=19; x<31; x++){
 459:.\RFPoll.c    **** //            if(buffer_txDisplay[x] ==0x00)
 460:.\RFPoll.c    **** //                buffer_txDisplay[x]=0x30;
 461:.\RFPoll.c    **** //        }
 462:.\RFPoll.c    **** //        buffer_txDisplay[32] = verificar_check(buffer_txDisplay,33);
 463:.\RFPoll.c    **** //        for (x = 0; x < 33; x++){
 464:.\RFPoll.c    **** //            RF_Connection_PutChar(buffer_txDisplay[x]);
 465:.\RFPoll.c    **** //        }
 466:.\RFPoll.c    **** //        side.a.rfState = RF_WORKSHIFTREQ;
 467:.\RFPoll.c    **** //        side.a.RFstateReport = 0;
 468:.\RFPoll.c    **** //    }
 469:.\RFPoll.c    ****     ////////////// CAMBIO PPU ////////////////////////////////////
 470:.\RFPoll.c    ****     if(side.a.changePPU){
 572              		.loc 1 470 0
 573 0296 094B     		ldr	r3, .L48
 574 0298 93F80531 		ldrb	r3, [r3, #261]	@ zero_extendqisi2
 575 029c 6BB1     		cbz	r3, .L7
 471:.\RFPoll.c    ****         if(priceChange(side.a.dir,side.a.grade,side.a.ppuAuthorized[side.a.grade]))
 576              		.loc 1 471 0
 577 029e 074B     		ldr	r3, .L48
 578 02a0 93F80611 		ldrb	r1, [r3, #262]	@ zero_extendqisi2
 579 02a4 03EBC102 		add	r2, r3, r1, lsl #3
 580 02a8 1878     		ldrb	r0, [r3]	@ zero_extendqisi2
 581 02aa B532     		adds	r2, r2, #181
 582 02ac FFF7FEFF 		bl	priceChange
 583              	.LVL64:
ARM GAS  C:\Users\RECEPC~1\AppData\Local\Temp\ccIFDC7N.s 			page 20


 584 02b0 18B1     		cbz	r0, .L7
 472:.\RFPoll.c    ****             side.a.changePPU = false;          
 585              		.loc 1 472 0
 586 02b2 0022     		movs	r2, #0
 587 02b4 014B     		ldr	r3, .L48
 588 02b6 83F80521 		strb	r2, [r3, #261]
 589              	.L7:
 590 02ba 38BD     		pop	{r3, r4, r5, pc}
 591              	.L49:
 592              		.align	2
 593              	.L48:
 594 02bc 00000000 		.word	side
 595 02c0 00000000 		.word	buffer_txPreset
 596 02c4 00000000 		.word	IDCast
 597 02c8 00000000 		.word	bufferDisplay1
 598 02cc 00000000 		.word	tempPreset
 599 02d0 00000000 		.word	buffer_txEOT
 600 02d4 00000000 		.word	tempPPU
 601 02d8 00000000 		.word	digits
 602 02dc 07000000 		.word	side+7
 603 02e0 09000000 		.word	side+9
 604              		.cfi_endproc
 605              	.LFE65:
 606              		.size	pollingRFA_Tx, .-pollingRFA_Tx
 607              		.section	.text.pollingRFB_Tx,"ax",%progbits
 608              		.align	2
 609              		.global	pollingRFB_Tx
 610              		.thumb
 611              		.thumb_func
 612              		.type	pollingRFB_Tx, %function
 613              	pollingRFB_Tx:
 614              	.LFB66:
 473:.\RFPoll.c    ****     }    
 474:.\RFPoll.c    ****     ////////////// TOTALES ////////////////////////////////////
 475:.\RFPoll.c    ****          
 476:.\RFPoll.c    ****  }
 477:.\RFPoll.c    **** 
 478:.\RFPoll.c    **** void pollingRFB_Tx(){   
 615              		.loc 1 478 0
 616              		.cfi_startproc
 617              		@ args = 0, pretend = 0, frame = 0
 618              		@ frame_needed = 0, uses_anonymous_args = 0
 619 0000 38B5     		push	{r3, r4, r5, lr}
 620              		.cfi_def_cfa_offset 16
 621              		.cfi_offset 3, -16
 622              		.cfi_offset 4, -12
 623              		.cfi_offset 5, -8
 624              		.cfi_offset 14, -4
 479:.\RFPoll.c    ****     uint16 x;  
 480:.\RFPoll.c    ****     
 481:.\RFPoll.c    ****     /////////////// COPIA DE RECIBO //////////////////
 482:.\RFPoll.c    **** //    if(side.b.rfState == RF_COPY_RECEIPT && side.b.RFstateReport == 1){        
 483:.\RFPoll.c    **** //        buffer_txDisplay[5] = side.b.dir;
 484:.\RFPoll.c    **** //        buffer_txDisplay[6] = 0xE6;
 485:.\RFPoll.c    **** //        buffer_txDisplay[7] = RF_COPY_RECEIPT;
 486:.\RFPoll.c    **** //        buffer_txDisplay[8] = verificar_check(buffer_txDisplay,9);
 487:.\RFPoll.c    **** //        for (x = 0; x < 9; x++){
ARM GAS  C:\Users\RECEPC~1\AppData\Local\Temp\ccIFDC7N.s 			page 21


 488:.\RFPoll.c    **** //            RF_Connection_PutChar(buffer_txDisplay[x]);
 489:.\RFPoll.c    **** //        }
 490:.\RFPoll.c    **** //		side.b.RFstateReport = 0;
 491:.\RFPoll.c    **** //    }    
 492:.\RFPoll.c    ****     ////////////// PRESET - DISPENSANDO ////////////////////////////////////
 493:.\RFPoll.c    ****     if(side.b.pumpState == PUMP_BUSY && side.b.RFstateReport == 1){
 625              		.loc 1 493 0
 626 0002 B34B     		ldr	r3, .L91
 627 0004 93F80C32 		ldrb	r3, [r3, #524]	@ zero_extendqisi2
 628 0008 092B     		cmp	r3, #9
 629 000a 40F08A80 		bne	.L51
 630              		.loc 1 493 0 is_stmt 0 discriminator 1
 631 000e B04B     		ldr	r3, .L91
 632 0010 93F80F32 		ldrb	r3, [r3, #527]	@ zero_extendqisi2
 633 0014 012B     		cmp	r3, #1
 634 0016 40F08480 		bne	.L51
 494:.\RFPoll.c    ****             buffer_txPreset[0] = 0xBC;
 635              		.loc 1 494 0 is_stmt 1
 636 001a AE4B     		ldr	r3, .L91+4
 637 001c BC22     		movs	r2, #188
 638 001e 1A70     		strb	r2, [r3]
 495:.\RFPoll.c    ****             buffer_txPreset[1] = 0xCB;
 639              		.loc 1 495 0
 640 0020 CB22     		movs	r2, #203
 641 0022 5A70     		strb	r2, [r3, #1]
 496:.\RFPoll.c    ****             buffer_txPreset[2] = 0xC8;
 642              		.loc 1 496 0
 643 0024 C822     		movs	r2, #200
 644 0026 9A70     		strb	r2, [r3, #2]
 497:.\RFPoll.c    ****             buffer_txPreset[3] = IDCast[0];
 645              		.loc 1 497 0
 646 0028 AB4A     		ldr	r2, .L91+8
 647 002a 1178     		ldrb	r1, [r2]	@ zero_extendqisi2
 648 002c D970     		strb	r1, [r3, #3]
 498:.\RFPoll.c    ****             buffer_txPreset[4] = IDCast[1];
 649              		.loc 1 498 0
 650 002e 5278     		ldrb	r2, [r2, #1]	@ zero_extendqisi2
 651 0030 1A71     		strb	r2, [r3, #4]
 499:.\RFPoll.c    ****             buffer_txPreset[5]  = side.b.dir;
 652              		.loc 1 499 0
 653 0032 A74A     		ldr	r2, .L91
 654 0034 92F80811 		ldrb	r1, [r2, #264]	@ zero_extendqisi2
 655 0038 5971     		strb	r1, [r3, #5]
 500:.\RFPoll.c    ****             buffer_txPreset[6]  = 0xAA;
 656              		.loc 1 500 0
 657 003a AA21     		movs	r1, #170
 658 003c 9971     		strb	r1, [r3, #6]
 501:.\RFPoll.c    ****             buffer_txPreset[7]  = RF_DELIVERING;
 659              		.loc 1 501 0
 660 003e 0121     		movs	r1, #1
 661 0040 D971     		strb	r1, [r3, #7]
 502:.\RFPoll.c    ****             buffer_txPreset[8]  = side.b.activeHose;
 662              		.loc 1 502 0
 663 0042 92F80822 		ldrb	r2, [r2, #520]	@ zero_extendqisi2
 664 0046 1A72     		strb	r2, [r3, #8]
 503:.\RFPoll.c    ****             buffer_txPreset[9]  = bufferDisplay2.presetType[0]&0x03;
 665              		.loc 1 503 0
ARM GAS  C:\Users\RECEPC~1\AppData\Local\Temp\ccIFDC7N.s 			page 22


 666 0048 A449     		ldr	r1, .L91+12
 667 004a 91F86320 		ldrb	r2, [r1, #99]	@ zero_extendqisi2
 668 004e 02F00302 		and	r2, r2, #3
 669 0052 5A72     		strb	r2, [r3, #9]
 504:.\RFPoll.c    ****             for(x = bufferDisplay2.presetValue[0][0] ; x > 0; x--){
 670              		.loc 1 504 0
 671 0054 91F86500 		ldrb	r0, [r1, #101]	@ zero_extendqisi2
 672 0058 84B2     		uxth	r4, r0
 673              	.LVL65:
 674 005a 08E0     		b	.L52
 675              	.L53:
 505:.\RFPoll.c    ****                 tempPreset[bufferDisplay2.presetValue[0][0]-x] = (bufferDisplay2.presetValue[0][x])
 676              		.loc 1 505 0 discriminator 3
 677 005c 021B     		subs	r2, r0, r4
 678 005e 9F4B     		ldr	r3, .L91+12
 679 0060 2344     		add	r3, r3, r4
 680 0062 93F86510 		ldrb	r1, [r3, #101]	@ zero_extendqisi2
 681 0066 9E4B     		ldr	r3, .L91+16
 682 0068 9954     		strb	r1, [r3, r2]
 504:.\RFPoll.c    ****             for(x = bufferDisplay2.presetValue[0][0] ; x > 0; x--){
 683              		.loc 1 504 0 discriminator 3
 684 006a 013C     		subs	r4, r4, #1
 685              	.LVL66:
 686 006c A4B2     		uxth	r4, r4
 687              	.LVL67:
 688              	.L52:
 504:.\RFPoll.c    ****             for(x = bufferDisplay2.presetValue[0][0] ; x > 0; x--){
 689              		.loc 1 504 0 is_stmt 0 discriminator 1
 690 006e 002C     		cmp	r4, #0
 691 0070 F4D1     		bne	.L53
 692 0072 0A23     		movs	r3, #10
 693 0074 0CE0     		b	.L54
 694              	.LVL68:
 695              	.L56:
 506:.\RFPoll.c    ****             }
 507:.\RFPoll.c    ****             for(x = 10; x<=17; x++){
 508:.\RFPoll.c    ****                 buffer_txPreset[x] = tempPreset[x-10]; 
 696              		.loc 1 508 0 is_stmt 1
 697 0076 A3F10A02 		sub	r2, r3, #10
 698 007a 9949     		ldr	r1, .L91+16
 699 007c 8A5C     		ldrb	r2, [r1, r2]	@ zero_extendqisi2
 700 007e D2B2     		uxtb	r2, r2
 701 0080 9449     		ldr	r1, .L91+4
 702 0082 CA54     		strb	r2, [r1, r3]
 509:.\RFPoll.c    ****                 if(buffer_txPreset[x]== 0x00)
 703              		.loc 1 509 0
 704 0084 12B9     		cbnz	r2, .L55
 510:.\RFPoll.c    ****                     buffer_txPreset[x] = 0x30;
 705              		.loc 1 510 0
 706 0086 3021     		movs	r1, #48
 707 0088 924A     		ldr	r2, .L91+4
 708 008a D154     		strb	r1, [r2, r3]
 709              	.L55:
 507:.\RFPoll.c    ****                 buffer_txPreset[x] = tempPreset[x-10]; 
 710              		.loc 1 507 0 discriminator 2
 711 008c 0133     		adds	r3, r3, #1
 712              	.LVL69:
ARM GAS  C:\Users\RECEPC~1\AppData\Local\Temp\ccIFDC7N.s 			page 23


 713 008e 9BB2     		uxth	r3, r3
 714              	.LVL70:
 715              	.L54:
 507:.\RFPoll.c    ****                 buffer_txPreset[x] = tempPreset[x-10]; 
 716              		.loc 1 507 0 is_stmt 0 discriminator 1
 717 0090 112B     		cmp	r3, #17
 718 0092 F0D9     		bls	.L56
 511:.\RFPoll.c    ****             }        
 512:.\RFPoll.c    ****             buffer_txPreset[18]  = 0x00;
 719              		.loc 1 512 0 is_stmt 1
 720 0094 0022     		movs	r2, #0
 721 0096 8F4B     		ldr	r3, .L91+4
 722              	.LVL71:
 723 0098 9A74     		strb	r2, [r3, #18]
 513:.\RFPoll.c    ****             if(bufferDisplay2.flagPrint == 0){
 724              		.loc 1 513 0
 725 009a 904B     		ldr	r3, .L91+12
 726 009c 93F83431 		ldrb	r3, [r3, #308]	@ zero_extendqisi2
 727 00a0 63B1     		cbz	r3, .L87
 728 00a2 2346     		mov	r3, r4
 729 00a4 1BE0     		b	.L58
 730              	.LVL72:
 731              	.L59:
 514:.\RFPoll.c    ****                 for(x = 0; x <8 ; x++){
 515:.\RFPoll.c    ****                     buffer_txPreset[19+x]=0x20;
 732              		.loc 1 515 0 discriminator 3
 733 00a6 03F11302 		add	r2, r3, #19
 734 00aa 2020     		movs	r0, #32
 735 00ac 8949     		ldr	r1, .L91+4
 736 00ae 8854     		strb	r0, [r1, r2]
 516:.\RFPoll.c    ****                     tempPreset[x] = 0x00;
 737              		.loc 1 516 0 discriminator 3
 738 00b0 0021     		movs	r1, #0
 739 00b2 8B4A     		ldr	r2, .L91+16
 740 00b4 D154     		strb	r1, [r2, r3]
 514:.\RFPoll.c    ****                 for(x = 0; x <8 ; x++){
 741              		.loc 1 514 0 discriminator 3
 742 00b6 0133     		adds	r3, r3, #1
 743              	.LVL73:
 744 00b8 9BB2     		uxth	r3, r3
 745              	.LVL74:
 746 00ba 00E0     		b	.L57
 747              	.LVL75:
 748              	.L87:
 749 00bc 2346     		mov	r3, r4
 750              	.L57:
 751              	.LVL76:
 514:.\RFPoll.c    ****                 for(x = 0; x <8 ; x++){
 752              		.loc 1 514 0 is_stmt 0 discriminator 1
 753 00be 072B     		cmp	r3, #7
 754 00c0 F1D9     		bls	.L59
 755 00c2 0EE0     		b	.L60
 756              	.L61:
 517:.\RFPoll.c    ****                 }
 518:.\RFPoll.c    ****             }else{
 519:.\RFPoll.c    ****                 for(x = 0; x <8 ; x++){
 520:.\RFPoll.c    ****                     buffer_txPreset[19+x]=bufferDisplay2.licenceSale[x+1];
ARM GAS  C:\Users\RECEPC~1\AppData\Local\Temp\ccIFDC7N.s 			page 24


 757              		.loc 1 520 0 is_stmt 1 discriminator 3
 758 00c4 03F11300 		add	r0, r3, #19
 759 00c8 591C     		adds	r1, r3, #1
 760 00ca 844A     		ldr	r2, .L91+12
 761 00cc 0A44     		add	r2, r2, r1
 762 00ce 92F8DF50 		ldrb	r5, [r2, #223]	@ zero_extendqisi2
 763 00d2 804A     		ldr	r2, .L91+4
 764 00d4 1554     		strb	r5, [r2, r0]
 521:.\RFPoll.c    ****                     tempPreset[x] = 0x00;
 765              		.loc 1 521 0 discriminator 3
 766 00d6 0020     		movs	r0, #0
 767 00d8 814A     		ldr	r2, .L91+16
 768 00da D054     		strb	r0, [r2, r3]
 519:.\RFPoll.c    ****                     buffer_txPreset[19+x]=bufferDisplay2.licenceSale[x+1];
 769              		.loc 1 519 0 discriminator 3
 770 00dc 8BB2     		uxth	r3, r1
 771              	.LVL77:
 772              	.L58:
 519:.\RFPoll.c    ****                     buffer_txPreset[19+x]=bufferDisplay2.licenceSale[x+1];
 773              		.loc 1 519 0 is_stmt 0 discriminator 1
 774 00de 072B     		cmp	r3, #7
 775 00e0 F0D9     		bls	.L61
 776              	.L60:
 777 00e2 1B23     		movs	r3, #27
 778              	.LVL78:
 779 00e4 04E0     		b	.L62
 780              	.LVL79:
 781              	.L63:
 522:.\RFPoll.c    ****                 }
 523:.\RFPoll.c    ****             }
 524:.\RFPoll.c    ****             for(x=27; x<=37;x++){
 525:.\RFPoll.c    ****                 buffer_txPreset[x]= 0x30;
 782              		.loc 1 525 0 is_stmt 1 discriminator 3
 783 00e6 3021     		movs	r1, #48
 784 00e8 7A4A     		ldr	r2, .L91+4
 785 00ea D154     		strb	r1, [r2, r3]
 524:.\RFPoll.c    ****                 buffer_txPreset[x]= 0x30;
 786              		.loc 1 524 0 discriminator 3
 787 00ec 0133     		adds	r3, r3, #1
 788              	.LVL80:
 789 00ee 9BB2     		uxth	r3, r3
 790              	.LVL81:
 791              	.L62:
 524:.\RFPoll.c    ****                 buffer_txPreset[x]= 0x30;
 792              		.loc 1 524 0 is_stmt 0 discriminator 1
 793 00f0 252B     		cmp	r3, #37
 794 00f2 F8D9     		bls	.L63
 526:.\RFPoll.c    ****             }
 527:.\RFPoll.c    ****             buffer_txPreset[38] = verificar_check(buffer_txPreset,39);            
 795              		.loc 1 527 0 is_stmt 1
 796 00f4 774D     		ldr	r5, .L91+4
 797 00f6 2846     		mov	r0, r5
 798 00f8 2721     		movs	r1, #39
 799 00fa FFF7FEFF 		bl	verificar_check
 800              	.LVL82:
 801 00fe 85F82600 		strb	r0, [r5, #38]
 802              	.LVL83:
ARM GAS  C:\Users\RECEPC~1\AppData\Local\Temp\ccIFDC7N.s 			page 25


 528:.\RFPoll.c    ****             for (x = 0; x < 40; x++){
 803              		.loc 1 528 0
 804 0102 05E0     		b	.L64
 805              	.LVL84:
 806              	.L65:
 529:.\RFPoll.c    ****                 RF_Connection_PutChar(buffer_txPreset[x]);
 807              		.loc 1 529 0 discriminator 3
 808 0104 734B     		ldr	r3, .L91+4
 809 0106 185D     		ldrb	r0, [r3, r4]	@ zero_extendqisi2
 810 0108 FFF7FEFF 		bl	RF_Connection_PutChar
 811              	.LVL85:
 528:.\RFPoll.c    ****             for (x = 0; x < 40; x++){
 812              		.loc 1 528 0 discriminator 3
 813 010c 0134     		adds	r4, r4, #1
 814              	.LVL86:
 815 010e A4B2     		uxth	r4, r4
 816              	.LVL87:
 817              	.L64:
 528:.\RFPoll.c    ****             for (x = 0; x < 40; x++){
 818              		.loc 1 528 0 is_stmt 0 discriminator 1
 819 0110 272C     		cmp	r4, #39
 820 0112 F7D9     		bls	.L65
 530:.\RFPoll.c    ****             }            
 531:.\RFPoll.c    ****             side.b.rfState = RF_DELIVERING;
 821              		.loc 1 531 0 is_stmt 1
 822 0114 6E4B     		ldr	r3, .L91
 823 0116 0122     		movs	r2, #1
 824 0118 83F80B22 		strb	r2, [r3, #523]
 532:.\RFPoll.c    ****             side.b.RFstateReport = 0;
 825              		.loc 1 532 0
 826 011c 0022     		movs	r2, #0
 827 011e 83F80F22 		strb	r2, [r3, #527]
 828              	.LVL88:
 829              	.L51:
 533:.\RFPoll.c    ****     }      
 534:.\RFPoll.c    ****     ////////////// FIN VENTA ////////////////////////////////////
 535:.\RFPoll.c    ****     if(bufferDisplay2.flagEndSale == true && side.b.RFstateReport == 1){
 830              		.loc 1 535 0
 831 0122 6E4B     		ldr	r3, .L91+12
 832 0124 93F80331 		ldrb	r3, [r3, #259]	@ zero_extendqisi2
 833 0128 012B     		cmp	r3, #1
 834 012a 40F0BC80 		bne	.L66
 835              		.loc 1 535 0 is_stmt 0 discriminator 1
 836 012e 684B     		ldr	r3, .L91
 837 0130 93F80F32 		ldrb	r3, [r3, #527]	@ zero_extendqisi2
 838 0134 012B     		cmp	r3, #1
 839 0136 40F0B680 		bne	.L66
 536:.\RFPoll.c    ****         buffer_txEOT[0] = 0xBC;
 840              		.loc 1 536 0 is_stmt 1
 841 013a 6A4B     		ldr	r3, .L91+20
 842 013c BC22     		movs	r2, #188
 843 013e 1A70     		strb	r2, [r3]
 537:.\RFPoll.c    ****         buffer_txEOT[1] = 0xCB;
 844              		.loc 1 537 0
 845 0140 CB22     		movs	r2, #203
 846 0142 5A70     		strb	r2, [r3, #1]
 538:.\RFPoll.c    ****         buffer_txEOT[2] = 0xC8;
ARM GAS  C:\Users\RECEPC~1\AppData\Local\Temp\ccIFDC7N.s 			page 26


 847              		.loc 1 538 0
 848 0144 C822     		movs	r2, #200
 849 0146 9A70     		strb	r2, [r3, #2]
 539:.\RFPoll.c    ****         buffer_txEOT[3] = IDCast[0];
 850              		.loc 1 539 0
 851 0148 634A     		ldr	r2, .L91+8
 852 014a 1178     		ldrb	r1, [r2]	@ zero_extendqisi2
 853 014c D970     		strb	r1, [r3, #3]
 540:.\RFPoll.c    ****         buffer_txEOT[4] = IDCast[1];
 854              		.loc 1 540 0
 855 014e 5278     		ldrb	r2, [r2, #1]	@ zero_extendqisi2
 856 0150 1A71     		strb	r2, [r3, #4]
 541:.\RFPoll.c    ****         buffer_txEOT[5]  = side.b.dir;
 857              		.loc 1 541 0
 858 0152 5F4A     		ldr	r2, .L91
 859 0154 92F80811 		ldrb	r1, [r2, #264]	@ zero_extendqisi2
 860 0158 5971     		strb	r1, [r3, #5]
 542:.\RFPoll.c    ****         buffer_txEOT[6]  = 0xA4;
 861              		.loc 1 542 0
 862 015a A421     		movs	r1, #164
 863 015c 9971     		strb	r1, [r3, #6]
 543:.\RFPoll.c    ****         buffer_txEOT[7]  = RF_CASHSALEREPORT;
 864              		.loc 1 543 0
 865 015e 0221     		movs	r1, #2
 866 0160 D971     		strb	r1, [r3, #7]
 544:.\RFPoll.c    ****         buffer_txEOT[8]  = side.b.activeHose;
 867              		.loc 1 544 0
 868 0162 92F80812 		ldrb	r1, [r2, #520]	@ zero_extendqisi2
 869 0166 1972     		strb	r1, [r3, #8]
 545:.\RFPoll.c    ****         for(x=side.b.ppuSale[0];x > 0 ;x--){						   							
 870              		.loc 1 545 0
 871 0168 92F8F901 		ldrb	r0, [r2, #505]	@ zero_extendqisi2
 872 016c 84B2     		uxth	r4, r0
 873              	.LVL89:
 874 016e 08E0     		b	.L67
 875              	.L68:
 546:.\RFPoll.c    ****     		tempPPU[side.b.ppuSale[0]-x]= side.b.ppuSale[x];
 876              		.loc 1 546 0 discriminator 3
 877 0170 021B     		subs	r2, r0, r4
 878 0172 574B     		ldr	r3, .L91
 879 0174 2344     		add	r3, r3, r4
 880 0176 93F8F911 		ldrb	r1, [r3, #505]	@ zero_extendqisi2
 881 017a 5B4B     		ldr	r3, .L91+24
 882 017c 9954     		strb	r1, [r3, r2]
 545:.\RFPoll.c    ****         for(x=side.b.ppuSale[0];x > 0 ;x--){						   							
 883              		.loc 1 545 0 discriminator 3
 884 017e 013C     		subs	r4, r4, #1
 885              	.LVL90:
 886 0180 A4B2     		uxth	r4, r4
 887              	.LVL91:
 888              	.L67:
 545:.\RFPoll.c    ****         for(x=side.b.ppuSale[0];x > 0 ;x--){						   							
 889              		.loc 1 545 0 is_stmt 0 discriminator 1
 890 0182 002C     		cmp	r4, #0
 891 0184 F4D1     		bne	.L68
 892 0186 0923     		movs	r3, #9
 893 0188 0CE0     		b	.L69
ARM GAS  C:\Users\RECEPC~1\AppData\Local\Temp\ccIFDC7N.s 			page 27


 894              	.LVL92:
 895              	.L71:
 547:.\RFPoll.c    ****     	}
 548:.\RFPoll.c    ****         for(x = 9; x<=13; x++){
 549:.\RFPoll.c    ****             buffer_txEOT[x] = tempPPU[x-9]; 
 896              		.loc 1 549 0 is_stmt 1
 897 018a A3F10902 		sub	r2, r3, #9
 898 018e 5649     		ldr	r1, .L91+24
 899 0190 8A5C     		ldrb	r2, [r1, r2]	@ zero_extendqisi2
 900 0192 D2B2     		uxtb	r2, r2
 901 0194 5349     		ldr	r1, .L91+20
 902 0196 CA54     		strb	r2, [r1, r3]
 550:.\RFPoll.c    ****             if(buffer_txEOT[x]== 0x00)
 903              		.loc 1 550 0
 904 0198 12B9     		cbnz	r2, .L70
 551:.\RFPoll.c    ****                 buffer_txEOT[x] = 0x30;
 905              		.loc 1 551 0
 906 019a 3021     		movs	r1, #48
 907 019c 514A     		ldr	r2, .L91+20
 908 019e D154     		strb	r1, [r2, r3]
 909              	.L70:
 548:.\RFPoll.c    ****             buffer_txEOT[x] = tempPPU[x-9]; 
 910              		.loc 1 548 0 discriminator 2
 911 01a0 0133     		adds	r3, r3, #1
 912              	.LVL93:
 913 01a2 9BB2     		uxth	r3, r3
 914              	.LVL94:
 915              	.L69:
 548:.\RFPoll.c    ****             buffer_txEOT[x] = tempPPU[x-9]; 
 916              		.loc 1 548 0 is_stmt 0 discriminator 1
 917 01a4 0D2B     		cmp	r3, #13
 918 01a6 F0D9     		bls	.L71
 552:.\RFPoll.c    ****         } 
 553:.\RFPoll.c    ****         if(digits ==5 || digits ==6){
 919              		.loc 1 553 0 is_stmt 1
 920 01a8 504B     		ldr	r3, .L91+28
 921              	.LVL95:
 922 01aa 1B78     		ldrb	r3, [r3]	@ zero_extendqisi2
 923 01ac 053B     		subs	r3, r3, #5
 924 01ae DBB2     		uxtb	r3, r3
 925 01b0 012B     		cmp	r3, #1
 926 01b2 0CD9     		bls	.L88
 927 01b4 0123     		movs	r3, #1
 928 01b6 1BE0     		b	.L73
 929              	.LVL96:
 930              	.L74:
 554:.\RFPoll.c    ****             for(x=1;x <= side.b.volumeSale[0];x++){						   							
 555:.\RFPoll.c    ****                 buffer_txEOT[x+13]=side.b.volumeSale[7-x];                
 931              		.loc 1 555 0 discriminator 3
 932 01b8 03F10D01 		add	r1, r3, #13
 933 01bc 4C4A     		ldr	r2, .L91+32
 934 01be D21A     		subs	r2, r2, r3
 935 01c0 92F8EB01 		ldrb	r0, [r2, #491]	@ zero_extendqisi2
 936 01c4 474A     		ldr	r2, .L91+20
 937 01c6 5054     		strb	r0, [r2, r1]
 554:.\RFPoll.c    ****             for(x=1;x <= side.b.volumeSale[0];x++){						   							
 938              		.loc 1 554 0 discriminator 3
ARM GAS  C:\Users\RECEPC~1\AppData\Local\Temp\ccIFDC7N.s 			page 28


 939 01c8 0133     		adds	r3, r3, #1
 940              	.LVL97:
 941 01ca 9BB2     		uxth	r3, r3
 942              	.LVL98:
 943 01cc 00E0     		b	.L72
 944              	.LVL99:
 945              	.L88:
 946 01ce 0123     		movs	r3, #1
 947              	.L72:
 948              	.LVL100:
 554:.\RFPoll.c    ****             for(x=1;x <= side.b.volumeSale[0];x++){						   							
 949              		.loc 1 554 0 is_stmt 0 discriminator 1
 950 01d0 3F4A     		ldr	r2, .L91
 951 01d2 92F8EB21 		ldrb	r2, [r2, #491]	@ zero_extendqisi2
 952 01d6 9A42     		cmp	r2, r3
 953 01d8 EED2     		bcs	.L74
 954 01da 0EE0     		b	.L75
 955              	.L76:
 556:.\RFPoll.c    ****         	}
 557:.\RFPoll.c    ****         }else{
 558:.\RFPoll.c    ****             for(x=1;x <= side.b.volumeSale[0];x++){						   							
 559:.\RFPoll.c    ****                 buffer_txEOT[x+13]=side.b.volumeSale[9-x];                
 956              		.loc 1 559 0 is_stmt 1 discriminator 3
 957 01dc 03F10D01 		add	r1, r3, #13
 958 01e0 444A     		ldr	r2, .L91+36
 959 01e2 D21A     		subs	r2, r2, r3
 960 01e4 92F8EB01 		ldrb	r0, [r2, #491]	@ zero_extendqisi2
 961 01e8 3E4A     		ldr	r2, .L91+20
 962 01ea 5054     		strb	r0, [r2, r1]
 558:.\RFPoll.c    ****                 buffer_txEOT[x+13]=side.b.volumeSale[9-x];                
 963              		.loc 1 558 0 discriminator 3
 964 01ec 0133     		adds	r3, r3, #1
 965              	.LVL101:
 966 01ee 9BB2     		uxth	r3, r3
 967              	.LVL102:
 968              	.L73:
 558:.\RFPoll.c    ****                 buffer_txEOT[x+13]=side.b.volumeSale[9-x];                
 969              		.loc 1 558 0 is_stmt 0 discriminator 1
 970 01f0 374A     		ldr	r2, .L91
 971 01f2 92F8EB21 		ldrb	r2, [r2, #491]	@ zero_extendqisi2
 972 01f6 9A42     		cmp	r2, r3
 973 01f8 F0D2     		bcs	.L76
 974              	.L75:
 560:.\RFPoll.c    ****         	}
 561:.\RFPoll.c    ****         }        
 562:.\RFPoll.c    ****         if(buffer_txEOT[20]==0x00){
 975              		.loc 1 562 0 is_stmt 1
 976 01fa 3A4B     		ldr	r3, .L91+20
 977              	.LVL103:
 978 01fc 1B7D     		ldrb	r3, [r3, #20]	@ zero_extendqisi2
 979 01fe 1BB9     		cbnz	r3, .L77
 563:.\RFPoll.c    ****             buffer_txEOT[20] = 0x30;
 980              		.loc 1 563 0
 981 0200 384B     		ldr	r3, .L91+20
 982 0202 3022     		movs	r2, #48
 983 0204 1A75     		strb	r2, [r3, #20]
 564:.\RFPoll.c    ****             buffer_txEOT[21] = 0x30;
ARM GAS  C:\Users\RECEPC~1\AppData\Local\Temp\ccIFDC7N.s 			page 29


 984              		.loc 1 564 0
 985 0206 5A75     		strb	r2, [r3, #21]
 986              	.L77:
 565:.\RFPoll.c    ****         }
 566:.\RFPoll.c    ****         if(digits ==5 || digits ==6){
 987              		.loc 1 566 0
 988 0208 384B     		ldr	r3, .L91+28
 989 020a 1B78     		ldrb	r3, [r3]	@ zero_extendqisi2
 990 020c 053B     		subs	r3, r3, #5
 991 020e DBB2     		uxtb	r3, r3
 992 0210 012B     		cmp	r3, #1
 993 0212 0CD9     		bls	.L89
 994 0214 0123     		movs	r3, #1
 995 0216 1BE0     		b	.L79
 996              	.LVL104:
 997              	.L80:
 567:.\RFPoll.c    ****             for(x=1;x <= side.b.moneySale[0];x++){						   							
 568:.\RFPoll.c    ****         		buffer_txEOT[x+21]=side.b.moneySale[7-x];                
 998              		.loc 1 568 0 discriminator 3
 999 0218 03F11501 		add	r1, r3, #21
 1000 021c 344A     		ldr	r2, .L91+32
 1001 021e D21A     		subs	r2, r2, r3
 1002 0220 92F8DD01 		ldrb	r0, [r2, #477]	@ zero_extendqisi2
 1003 0224 2F4A     		ldr	r2, .L91+20
 1004 0226 5054     		strb	r0, [r2, r1]
 567:.\RFPoll.c    ****             for(x=1;x <= side.b.moneySale[0];x++){						   							
 1005              		.loc 1 567 0 discriminator 3
 1006 0228 0133     		adds	r3, r3, #1
 1007              	.LVL105:
 1008 022a 9BB2     		uxth	r3, r3
 1009              	.LVL106:
 1010 022c 00E0     		b	.L78
 1011              	.LVL107:
 1012              	.L89:
 1013 022e 0123     		movs	r3, #1
 1014              	.L78:
 1015              	.LVL108:
 567:.\RFPoll.c    ****             for(x=1;x <= side.b.moneySale[0];x++){						   							
 1016              		.loc 1 567 0 is_stmt 0 discriminator 1
 1017 0230 274A     		ldr	r2, .L91
 1018 0232 92F8DD21 		ldrb	r2, [r2, #477]	@ zero_extendqisi2
 1019 0236 9A42     		cmp	r2, r3
 1020 0238 EED2     		bcs	.L80
 1021 023a 0EE0     		b	.L81
 1022              	.L82:
 569:.\RFPoll.c    ****         	} 
 570:.\RFPoll.c    ****         }else{
 571:.\RFPoll.c    ****             for(x=1;x <= side.b.moneySale[0];x++){						   							
 572:.\RFPoll.c    ****         		buffer_txEOT[x+21]=side.b.moneySale[9-x];                
 1023              		.loc 1 572 0 is_stmt 1 discriminator 3
 1024 023c 03F11501 		add	r1, r3, #21
 1025 0240 2C4A     		ldr	r2, .L91+36
 1026 0242 D21A     		subs	r2, r2, r3
 1027 0244 92F8DD01 		ldrb	r0, [r2, #477]	@ zero_extendqisi2
 1028 0248 264A     		ldr	r2, .L91+20
 1029 024a 5054     		strb	r0, [r2, r1]
 571:.\RFPoll.c    ****         		buffer_txEOT[x+21]=side.b.moneySale[9-x];                
ARM GAS  C:\Users\RECEPC~1\AppData\Local\Temp\ccIFDC7N.s 			page 30


 1030              		.loc 1 571 0 discriminator 3
 1031 024c 0133     		adds	r3, r3, #1
 1032              	.LVL109:
 1033 024e 9BB2     		uxth	r3, r3
 1034              	.LVL110:
 1035              	.L79:
 571:.\RFPoll.c    ****         		buffer_txEOT[x+21]=side.b.moneySale[9-x];                
 1036              		.loc 1 571 0 is_stmt 0 discriminator 1
 1037 0250 1F4A     		ldr	r2, .L91
 1038 0252 92F8DD21 		ldrb	r2, [r2, #477]	@ zero_extendqisi2
 1039 0256 9A42     		cmp	r2, r3
 1040 0258 F0D2     		bcs	.L82
 1041              	.L81:
 573:.\RFPoll.c    ****         	}            
 574:.\RFPoll.c    ****         }
 575:.\RFPoll.c    ****         if(buffer_txEOT[28]==0x00){
 1042              		.loc 1 575 0 is_stmt 1
 1043 025a 224B     		ldr	r3, .L91+20
 1044              	.LVL111:
 1045 025c 1B7F     		ldrb	r3, [r3, #28]	@ zero_extendqisi2
 1046 025e 1BB9     		cbnz	r3, .L83
 576:.\RFPoll.c    ****             buffer_txEOT[28] = 0x30;
 1047              		.loc 1 576 0
 1048 0260 204B     		ldr	r3, .L91+20
 1049 0262 3022     		movs	r2, #48
 1050 0264 1A77     		strb	r2, [r3, #28]
 577:.\RFPoll.c    ****             buffer_txEOT[29] = 0x30;
 1051              		.loc 1 577 0
 1052 0266 5A77     		strb	r2, [r3, #29]
 1053              	.L83:
 578:.\RFPoll.c    ****         }
 579:.\RFPoll.c    ****         buffer_txEOT[30] = verificar_check(buffer_txEOT,31);
 1054              		.loc 1 579 0
 1055 0268 1E4D     		ldr	r5, .L91+20
 1056 026a 2846     		mov	r0, r5
 1057 026c 1F21     		movs	r1, #31
 1058 026e FFF7FEFF 		bl	verificar_check
 1059              	.LVL112:
 1060 0272 A877     		strb	r0, [r5, #30]
 580:.\RFPoll.c    ****         CyDelay(10);
 1061              		.loc 1 580 0
 1062 0274 0A20     		movs	r0, #10
 1063 0276 FFF7FEFF 		bl	CyDelay
 1064              	.LVL113:
 581:.\RFPoll.c    ****         for (x = 0; x < 31; x++){
 1065              		.loc 1 581 0
 1066 027a 05E0     		b	.L84
 1067              	.LVL114:
 1068              	.L85:
 582:.\RFPoll.c    ****             RF_Connection_PutChar(buffer_txEOT[x]);
 1069              		.loc 1 582 0 discriminator 3
 1070 027c 194B     		ldr	r3, .L91+20
 1071 027e 185D     		ldrb	r0, [r3, r4]	@ zero_extendqisi2
 1072 0280 FFF7FEFF 		bl	RF_Connection_PutChar
 1073              	.LVL115:
 581:.\RFPoll.c    ****         for (x = 0; x < 31; x++){
 1074              		.loc 1 581 0 discriminator 3
ARM GAS  C:\Users\RECEPC~1\AppData\Local\Temp\ccIFDC7N.s 			page 31


 1075 0284 0134     		adds	r4, r4, #1
 1076              	.LVL116:
 1077 0286 A4B2     		uxth	r4, r4
 1078              	.LVL117:
 1079              	.L84:
 581:.\RFPoll.c    ****         for (x = 0; x < 31; x++){
 1080              		.loc 1 581 0 is_stmt 0 discriminator 1
 1081 0288 1E2C     		cmp	r4, #30
 1082 028a F7D9     		bls	.L85
 583:.\RFPoll.c    ****         }
 584:.\RFPoll.c    ****         CyDelay(10);
 1083              		.loc 1 584 0 is_stmt 1
 1084 028c 0A20     		movs	r0, #10
 1085 028e FFF7FEFF 		bl	CyDelay
 1086              	.LVL118:
 585:.\RFPoll.c    ****         side.b.rfState = RF_IDLE;
 1087              		.loc 1 585 0
 1088 0292 0F4B     		ldr	r3, .L91
 1089 0294 0822     		movs	r2, #8
 1090 0296 83F80B22 		strb	r2, [r3, #523]
 586:.\RFPoll.c    ****         bufferDisplay2.flagActiveSale = false;
 1091              		.loc 1 586 0
 1092 029a 0022     		movs	r2, #0
 1093 029c 0F49     		ldr	r1, .L91+12
 1094 029e 81F83521 		strb	r2, [r1, #309]
 587:.\RFPoll.c    ****         side.b.RFstateReport = 0;
 1095              		.loc 1 587 0
 1096 02a2 83F80F22 		strb	r2, [r3, #527]
 1097              	.LVL119:
 1098              	.L66:
 588:.\RFPoll.c    ****     }                                               
 589:.\RFPoll.c    ****     ////////////// TURNOS ////////////////////////////////////
 590:.\RFPoll.c    **** //    if(ShiftState ==1  && side.b.RFstateReport == 1){                                    
 591:.\RFPoll.c    **** //        buffer_txDisplay[5]  = side.b.dir;
 592:.\RFPoll.c    **** //        buffer_txDisplay[6]  = 0xE3;
 593:.\RFPoll.c    **** //        buffer_txDisplay[7]  = RF_WORKSHIFTREQ;
 594:.\RFPoll.c    **** //        for(x=1;x <= bufferDisplay2.shiftId[0] ;x++){						   							
 595:.\RFPoll.c    **** //    		buffer_txDisplay[x+7]= bufferDisplay2.shiftId[(bufferDisplay2.shiftId[0]+1)-x];            
 596:.\RFPoll.c    **** //    	}
 597:.\RFPoll.c    **** //        for(x=8; x<19; x++){
 598:.\RFPoll.c    **** //            if(buffer_txDisplay[x] ==0x00)
 599:.\RFPoll.c    **** //                buffer_txDisplay[x]=0x30;
 600:.\RFPoll.c    **** //        }
 601:.\RFPoll.c    **** //        for(x=1;x <= bufferDisplay2.shiftPassword[0] ;x++){						   							
 602:.\RFPoll.c    **** //    		buffer_txDisplay[x+18]= bufferDisplay2.shiftPassword[(bufferDisplay2.shiftPassword[0]+1)-x]
 603:.\RFPoll.c    **** //    	}
 604:.\RFPoll.c    **** //        for(x=19; x<31; x++){
 605:.\RFPoll.c    **** //            if(buffer_txDisplay[x] ==0x00)
 606:.\RFPoll.c    **** //                buffer_txDisplay[x]=0x30;
 607:.\RFPoll.c    **** //        }
 608:.\RFPoll.c    **** //        buffer_txDisplay[32] = verificar_check(buffer_txDisplay,33);
 609:.\RFPoll.c    **** //        for (x = 0; x < 33; x++){
 610:.\RFPoll.c    **** //            RF_Connection_PutChar(buffer_txDisplay[x]);
 611:.\RFPoll.c    **** //        }
 612:.\RFPoll.c    **** //        side.b.rfState = RF_WORKSHIFTREQ;
 613:.\RFPoll.c    **** //        side.b.RFstateReport = 0;
 614:.\RFPoll.c    **** //    }
ARM GAS  C:\Users\RECEPC~1\AppData\Local\Temp\ccIFDC7N.s 			page 32


 615:.\RFPoll.c    ****     ////////////// CAMBIO PPU ////////////////////////////////////
 616:.\RFPoll.c    ****     if(side.b.changePPU){
 1099              		.loc 1 616 0
 1100 02a6 0A4B     		ldr	r3, .L91
 1101 02a8 93F80D32 		ldrb	r3, [r3, #525]	@ zero_extendqisi2
 1102 02ac 7BB1     		cbz	r3, .L50
 617:.\RFPoll.c    ****         if(priceChange(side.b.dir,side.b.grade,side.b.ppuAuthorized[side.b.grade]))
 1103              		.loc 1 617 0
 1104 02ae 084B     		ldr	r3, .L91
 1105 02b0 93F80E12 		ldrb	r1, [r3, #526]	@ zero_extendqisi2
 1106 02b4 03EBC102 		add	r2, r3, r1, lsl #3
 1107 02b8 93F80801 		ldrb	r0, [r3, #264]	@ zero_extendqisi2
 1108 02bc 02F2BD12 		addw	r2, r2, #445
 1109 02c0 FFF7FEFF 		bl	priceChange
 1110              	.LVL120:
 1111 02c4 18B1     		cbz	r0, .L50
 618:.\RFPoll.c    ****             side.b.changePPU = false;          
 1112              		.loc 1 618 0
 1113 02c6 0022     		movs	r2, #0
 1114 02c8 014B     		ldr	r3, .L91
 1115 02ca 83F80D22 		strb	r2, [r3, #525]
 1116              	.L50:
 1117 02ce 38BD     		pop	{r3, r4, r5, pc}
 1118              	.L92:
 1119              		.align	2
 1120              	.L91:
 1121 02d0 00000000 		.word	side
 1122 02d4 00000000 		.word	buffer_txPreset
 1123 02d8 00000000 		.word	IDCast
 1124 02dc 00000000 		.word	bufferDisplay2
 1125 02e0 00000000 		.word	tempPreset
 1126 02e4 00000000 		.word	buffer_txEOT
 1127 02e8 00000000 		.word	tempPPU
 1128 02ec 00000000 		.word	digits
 1129 02f0 07000000 		.word	side+7
 1130 02f4 09000000 		.word	side+9
 1131              		.cfi_endproc
 1132              	.LFE66:
 1133              		.size	pollingRFB_Tx, .-pollingRFB_Tx
 1134              		.section	.text.pollingRF_Rx,"ax",%progbits
 1135              		.align	2
 1136              		.global	pollingRF_Rx
 1137              		.thumb
 1138              		.thumb_func
 1139              		.type	pollingRF_Rx, %function
 1140              	pollingRF_Rx:
 1141              	.LFB64:
  54:.\RFPoll.c    ****     uint16 i,x,y,z;       
 1142              		.loc 1 54 0
 1143              		.cfi_startproc
 1144              		@ args = 0, pretend = 0, frame = 0
 1145              		@ frame_needed = 0, uses_anonymous_args = 0
 1146 0000 70B5     		push	{r4, r5, r6, lr}
 1147              		.cfi_def_cfa_offset 16
 1148              		.cfi_offset 4, -16
 1149              		.cfi_offset 5, -12
 1150              		.cfi_offset 6, -8
ARM GAS  C:\Users\RECEPC~1\AppData\Local\Temp\ccIFDC7N.s 			page 33


 1151              		.cfi_offset 14, -4
  56:.\RFPoll.c    ****     if(RF_Connection_GetRxBufferSize() >= 1){
 1152              		.loc 1 56 0
 1153 0002 1E20     		movs	r0, #30
 1154 0004 FFF7FEFF 		bl	CyDelay
 1155              	.LVL121:
  57:.\RFPoll.c    ****         ActiveRF=1;
 1156              		.loc 1 57 0
 1157 0008 FFF7FEFF 		bl	RF_Connection_GetRxBufferSize
 1158              	.LVL122:
 1159 000c 0028     		cmp	r0, #0
 1160 000e 00F0D783 		beq	.L93
  58:.\RFPoll.c    ****         counterRF = 0;
 1161              		.loc 1 58 0
 1162 0012 0122     		movs	r2, #1
 1163 0014 A94B     		ldr	r3, .L201
 1164 0016 1A70     		strb	r2, [r3]
  59:.\RFPoll.c    ****         i=0;
 1165              		.loc 1 59 0
 1166 0018 0024     		movs	r4, #0
 1167 001a A94B     		ldr	r3, .L201+4
 1168 001c 1C70     		strb	r4, [r3]
 1169              	.LVL123:
  61:.\RFPoll.c    ****            buffer_rf[i]=RF_Connection_ReadRxData(); 	
 1170              		.loc 1 61 0
 1171 001e 05E0     		b	.L95
 1172              	.LVL124:
 1173              	.L96:
  62:.\RFPoll.c    ****     	   i++;	
 1174              		.loc 1 62 0
 1175 0020 FFF7FEFF 		bl	RF_Connection_ReadRxData
 1176              	.LVL125:
 1177 0024 A74B     		ldr	r3, .L201+8
 1178 0026 1855     		strb	r0, [r3, r4]
  63:.\RFPoll.c    ****         } 
 1179              		.loc 1 63 0
 1180 0028 0134     		adds	r4, r4, #1
 1181              	.LVL126:
 1182 002a A4B2     		uxth	r4, r4
 1183              	.LVL127:
 1184              	.L95:
  61:.\RFPoll.c    ****            buffer_rf[i]=RF_Connection_ReadRxData(); 	
 1185              		.loc 1 61 0
 1186 002c FFF7FEFF 		bl	RF_Connection_GetRxBufferSize
 1187              	.LVL128:
 1188 0030 0028     		cmp	r0, #0
 1189 0032 F5D1     		bne	.L96
 1190              	.LVL129:
  66:.\RFPoll.c    ****         buffer_tx[y] = 0xCB; y++;
 1191              		.loc 1 66 0
 1192 0034 A44B     		ldr	r3, .L201+12
 1193 0036 BC22     		movs	r2, #188
 1194 0038 1A70     		strb	r2, [r3]
 1195              	.LVL130:
  67:.\RFPoll.c    ****         buffer_tx[y] = 0xC8; y++;
 1196              		.loc 1 67 0
 1197 003a CB22     		movs	r2, #203
ARM GAS  C:\Users\RECEPC~1\AppData\Local\Temp\ccIFDC7N.s 			page 34


 1198 003c 5A70     		strb	r2, [r3, #1]
 1199              	.LVL131:
  68:.\RFPoll.c    ****         buffer_tx[y] = IDCast[0]; y++;
 1200              		.loc 1 68 0
 1201 003e C822     		movs	r2, #200
 1202 0040 9A70     		strb	r2, [r3, #2]
 1203              	.LVL132:
  69:.\RFPoll.c    ****         buffer_tx[y] = IDCast[1]; y++;
 1204              		.loc 1 69 0
 1205 0042 A24A     		ldr	r2, .L201+16
 1206 0044 1178     		ldrb	r1, [r2]	@ zero_extendqisi2
 1207 0046 D970     		strb	r1, [r3, #3]
 1208              	.LVL133:
  70:.\RFPoll.c    ****         if(((buffer_rf[0]==0xBC)&&(buffer_rf[1]==0xBB)&&(buffer_rf[2]==0xB8)&&(buffer_rf[3]==IDCast
 1209              		.loc 1 70 0
 1210 0048 5278     		ldrb	r2, [r2, #1]	@ zero_extendqisi2
 1211 004a 1A71     		strb	r2, [r3, #4]
 1212              	.LVL134:
  71:.\RFPoll.c    ****             switch(buffer_rf[6]){
 1213              		.loc 1 71 0
 1214 004c 9D4B     		ldr	r3, .L201+8
 1215 004e 1B78     		ldrb	r3, [r3]	@ zero_extendqisi2
 1216 0050 BC2B     		cmp	r3, #188
 1217 0052 40F0B383 		bne	.L97
  71:.\RFPoll.c    ****             switch(buffer_rf[6]){
 1218              		.loc 1 71 0 is_stmt 0 discriminator 1
 1219 0056 9B4B     		ldr	r3, .L201+8
 1220 0058 5B78     		ldrb	r3, [r3, #1]	@ zero_extendqisi2
 1221 005a BB2B     		cmp	r3, #187
 1222 005c 40F0AE83 		bne	.L97
  71:.\RFPoll.c    ****             switch(buffer_rf[6]){
 1223              		.loc 1 71 0 discriminator 2
 1224 0060 984B     		ldr	r3, .L201+8
 1225 0062 9B78     		ldrb	r3, [r3, #2]	@ zero_extendqisi2
 1226 0064 B82B     		cmp	r3, #184
 1227 0066 40F0A983 		bne	.L97
  71:.\RFPoll.c    ****             switch(buffer_rf[6]){
 1228              		.loc 1 71 0 discriminator 3
 1229 006a 984B     		ldr	r3, .L201+16
 1230 006c 1B78     		ldrb	r3, [r3]	@ zero_extendqisi2
 1231 006e 954A     		ldr	r2, .L201+8
 1232 0070 D278     		ldrb	r2, [r2, #3]	@ zero_extendqisi2
 1233 0072 9A42     		cmp	r2, r3
 1234 0074 40F0A283 		bne	.L97
  71:.\RFPoll.c    ****             switch(buffer_rf[6]){
 1235              		.loc 1 71 0 discriminator 4
 1236 0078 944B     		ldr	r3, .L201+16
 1237 007a 5B78     		ldrb	r3, [r3, #1]	@ zero_extendqisi2
 1238 007c 914A     		ldr	r2, .L201+8
 1239 007e 1279     		ldrb	r2, [r2, #4]	@ zero_extendqisi2
 1240 0080 9A42     		cmp	r2, r3
 1241 0082 40F09B83 		bne	.L97
  72:.\RFPoll.c    ****                case 0xA1:               //Peticion de estado
 1242              		.loc 1 72 0 is_stmt 1
 1243 0086 8F4B     		ldr	r3, .L201+8
 1244 0088 9B79     		ldrb	r3, [r3, #6]	@ zero_extendqisi2
 1245 008a A62B     		cmp	r3, #166
ARM GAS  C:\Users\RECEPC~1\AppData\Local\Temp\ccIFDC7N.s 			page 35


 1246 008c 00F0CB81 		beq	.L98
 1247 0090 05D8     		bhi	.L99
 1248 0092 A12B     		cmp	r3, #161
 1249 0094 0DD0     		beq	.L100
 1250 0096 A52B     		cmp	r3, #165
 1251 0098 00F0B180 		beq	.L101
 1252 009c 8EE3     		b	.L97
 1253              	.L99:
 1254 009e E12B     		cmp	r3, #225
 1255 00a0 00F0C482 		beq	.L102
 1256 00a4 E22B     		cmp	r3, #226
 1257 00a6 00F05D83 		beq	.L103
 1258 00aa A72B     		cmp	r3, #167
 1259 00ac 40F08683 		bne	.L97
 1260 00b0 76E2     		b	.L104
 1261              	.L100:
  74:.\RFPoll.c    ****                     if(side.a.RFstateReport == 0){                        
 1262              		.loc 1 74 0
 1263 00b2 844B     		ldr	r3, .L201+8
 1264 00b4 5A79     		ldrb	r2, [r3, #5]	@ zero_extendqisi2
 1265 00b6 864B     		ldr	r3, .L201+20
 1266 00b8 1B78     		ldrb	r3, [r3]	@ zero_extendqisi2
 1267 00ba 9A42     		cmp	r2, r3
 1268 00bc 20D1     		bne	.L192
  75:.\RFPoll.c    ****                         buffer_tx[5] = side.a.dir;y++;
 1269              		.loc 1 75 0
 1270 00be 844A     		ldr	r2, .L201+20
 1271 00c0 92F80721 		ldrb	r2, [r2, #263]	@ zero_extendqisi2
 1272 00c4 C2B9     		cbnz	r2, .L106
  76:.\RFPoll.c    ****                         buffer_tx[y] = 0xA1;y++;
 1273              		.loc 1 76 0
 1274 00c6 804C     		ldr	r4, .L201+12
 1275              	.LVL135:
 1276 00c8 6371     		strb	r3, [r4, #5]
 1277              	.LVL136:
  77:.\RFPoll.c    ****                         buffer_tx[y] = side.a.rfState; y++;
 1278              		.loc 1 77 0
 1279 00ca A123     		movs	r3, #161
 1280 00cc A371     		strb	r3, [r4, #6]
 1281              	.LVL137:
  78:.\RFPoll.c    ****                         buffer_tx[y] = verificar_check(buffer_tx,y+1);y++;
 1282              		.loc 1 78 0
 1283 00ce 804B     		ldr	r3, .L201+20
 1284 00d0 93F80331 		ldrb	r3, [r3, #259]	@ zero_extendqisi2
 1285 00d4 E371     		strb	r3, [r4, #7]
 1286              	.LVL138:
  79:.\RFPoll.c    ****                         for (x = 0; x < y; x++){
 1287              		.loc 1 79 0
 1288 00d6 2046     		mov	r0, r4
 1289 00d8 0921     		movs	r1, #9
 1290 00da FFF7FEFF 		bl	verificar_check
 1291              	.LVL139:
 1292 00de 2072     		strb	r0, [r4, #8]
 1293              	.LVL140:
  80:.\RFPoll.c    ****                             RF_Connection_PutChar(buffer_tx[x]);
 1294              		.loc 1 80 0
 1295 00e0 0024     		movs	r4, #0
ARM GAS  C:\Users\RECEPC~1\AppData\Local\Temp\ccIFDC7N.s 			page 36


 1296 00e2 05E0     		b	.L107
 1297              	.LVL141:
 1298              	.L108:
  81:.\RFPoll.c    ****                         }
 1299              		.loc 1 81 0 discriminator 3
 1300 00e4 784B     		ldr	r3, .L201+12
 1301 00e6 185D     		ldrb	r0, [r3, r4]	@ zero_extendqisi2
 1302 00e8 FFF7FEFF 		bl	RF_Connection_PutChar
 1303              	.LVL142:
  80:.\RFPoll.c    ****                             RF_Connection_PutChar(buffer_tx[x]);
 1304              		.loc 1 80 0 discriminator 3
 1305 00ec 0134     		adds	r4, r4, #1
 1306              	.LVL143:
 1307 00ee A4B2     		uxth	r4, r4
 1308              	.LVL144:
 1309              	.L107:
  80:.\RFPoll.c    ****                             RF_Connection_PutChar(buffer_tx[x]);
 1310              		.loc 1 80 0 is_stmt 0 discriminator 1
 1311 00f0 082C     		cmp	r4, #8
 1312 00f2 F7D9     		bls	.L108
  79:.\RFPoll.c    ****                         for (x = 0; x < y; x++){
 1313              		.loc 1 79 0 is_stmt 1
 1314 00f4 0924     		movs	r4, #9
 1315              	.LVL145:
 1316 00f6 04E0     		b	.L105
 1317              	.LVL146:
 1318              	.L106:
  84:.\RFPoll.c    ****                     } 
 1319              		.loc 1 84 0
 1320 00f8 FFF7FEFF 		bl	pollingRFA_Tx
 1321              	.LVL147:
  70:.\RFPoll.c    ****         if(((buffer_rf[0]==0xBC)&&(buffer_rf[1]==0xBB)&&(buffer_rf[2]==0xB8)&&(buffer_rf[3]==IDCast
 1322              		.loc 1 70 0
 1323 00fc 0524     		movs	r4, #5
 1324              	.LVL148:
 1325 00fe 00E0     		b	.L105
 1326              	.LVL149:
 1327              	.L192:
 1328 0100 0524     		movs	r4, #5
 1329              	.LVL150:
 1330              	.L105:
  87:.\RFPoll.c    ****                     if(side.b.RFstateReport == 0){
 1331              		.loc 1 87 0
 1332 0102 704B     		ldr	r3, .L201+8
 1333 0104 5A79     		ldrb	r2, [r3, #5]	@ zero_extendqisi2
 1334 0106 724B     		ldr	r3, .L201+20
 1335 0108 93F80831 		ldrb	r3, [r3, #264]	@ zero_extendqisi2
 1336 010c 9A42     		cmp	r2, r3
 1337 010e 26D1     		bne	.L109
  88:.\RFPoll.c    ****                         buffer_tx[5] = side.b.dir;y++;
 1338              		.loc 1 88 0
 1339 0110 6F4A     		ldr	r2, .L201+20
 1340 0112 92F80F22 		ldrb	r2, [r2, #527]	@ zero_extendqisi2
 1341 0116 02BB     		cbnz	r2, .L110
  89:.\RFPoll.c    ****                         buffer_tx[y] = 0xA1;y++;
 1342              		.loc 1 89 0
 1343 0118 6B4D     		ldr	r5, .L201+12
ARM GAS  C:\Users\RECEPC~1\AppData\Local\Temp\ccIFDC7N.s 			page 37


 1344 011a 6B71     		strb	r3, [r5, #5]
 1345 011c 631C     		adds	r3, r4, #1
 1346 011e 9BB2     		uxth	r3, r3
 1347              	.LVL151:
  90:.\RFPoll.c    ****                         buffer_tx[y] = side.b.rfState;y++;
 1348              		.loc 1 90 0
 1349 0120 A122     		movs	r2, #161
 1350 0122 EA54     		strb	r2, [r5, r3]
 1351 0124 0133     		adds	r3, r3, #1
 1352              	.LVL152:
 1353 0126 9BB2     		uxth	r3, r3
 1354              	.LVL153:
  91:.\RFPoll.c    ****                         buffer_tx[y] = verificar_check(buffer_tx,y+1);y++;
 1355              		.loc 1 91 0
 1356 0128 694A     		ldr	r2, .L201+20
 1357 012a 92F80B22 		ldrb	r2, [r2, #523]	@ zero_extendqisi2
 1358 012e EA54     		strb	r2, [r5, r3]
 1359 0130 5C1C     		adds	r4, r3, #1
 1360 0132 A4B2     		uxth	r4, r4
 1361              	.LVL154:
  92:.\RFPoll.c    ****                         for (x = 0; x < y; x++){
 1362              		.loc 1 92 0
 1363 0134 991C     		adds	r1, r3, #2
 1364 0136 2846     		mov	r0, r5
 1365 0138 89B2     		uxth	r1, r1
 1366 013a FFF7FEFF 		bl	verificar_check
 1367              	.LVL155:
 1368 013e 2855     		strb	r0, [r5, r4]
 1369 0140 0134     		adds	r4, r4, #1
 1370              	.LVL156:
 1371 0142 A4B2     		uxth	r4, r4
 1372              	.LVL157:
  93:.\RFPoll.c    ****                             RF_Connection_PutChar(buffer_tx[x]);
 1373              		.loc 1 93 0
 1374 0144 0025     		movs	r5, #0
 1375 0146 05E0     		b	.L111
 1376              	.LVL158:
 1377              	.L112:
  94:.\RFPoll.c    ****                         }
 1378              		.loc 1 94 0 discriminator 3
 1379 0148 5F4B     		ldr	r3, .L201+12
 1380 014a 585D     		ldrb	r0, [r3, r5]	@ zero_extendqisi2
 1381 014c FFF7FEFF 		bl	RF_Connection_PutChar
 1382              	.LVL159:
  93:.\RFPoll.c    ****                             RF_Connection_PutChar(buffer_tx[x]);
 1383              		.loc 1 93 0 discriminator 3
 1384 0150 0135     		adds	r5, r5, #1
 1385              	.LVL160:
 1386 0152 ADB2     		uxth	r5, r5
 1387              	.LVL161:
 1388              	.L111:
  93:.\RFPoll.c    ****                             RF_Connection_PutChar(buffer_tx[x]);
 1389              		.loc 1 93 0 is_stmt 0 discriminator 1
 1390 0154 A542     		cmp	r5, r4
 1391 0156 F7D3     		bcc	.L112
 1392 0158 01E0     		b	.L109
 1393              	.LVL162:
ARM GAS  C:\Users\RECEPC~1\AppData\Local\Temp\ccIFDC7N.s 			page 38


 1394              	.L110:
  97:.\RFPoll.c    ****                     } 
 1395              		.loc 1 97 0 is_stmt 1
 1396 015a FFF7FEFF 		bl	pollingRFB_Tx
 1397              	.LVL163:
 1398              	.L109:
 100:.\RFPoll.c    ****                     buffer_tx[5] = side.c.dir; y++;
 1399              		.loc 1 100 0
 1400 015e 594B     		ldr	r3, .L201+8
 1401 0160 5A79     		ldrb	r2, [r3, #5]	@ zero_extendqisi2
 1402 0162 5B4B     		ldr	r3, .L201+20
 1403 0164 93F81032 		ldrb	r3, [r3, #528]	@ zero_extendqisi2
 1404 0168 9A42     		cmp	r2, r3
 1405 016a 1FD1     		bne	.L113
 101:.\RFPoll.c    ****                     buffer_tx[y] = 0xA1; y++;
 1406              		.loc 1 101 0
 1407 016c 564D     		ldr	r5, .L201+12
 1408 016e 6B71     		strb	r3, [r5, #5]
 1409 0170 631C     		adds	r3, r4, #1
 1410 0172 9BB2     		uxth	r3, r3
 1411              	.LVL164:
 102:.\RFPoll.c    ****                     buffer_tx[y] = side.c.rfState; y++;
 1412              		.loc 1 102 0
 1413 0174 A122     		movs	r2, #161
 1414 0176 EA54     		strb	r2, [r5, r3]
 1415 0178 0133     		adds	r3, r3, #1
 1416              	.LVL165:
 1417 017a 9BB2     		uxth	r3, r3
 1418              	.LVL166:
 103:.\RFPoll.c    ****                     buffer_tx[y] = verificar_check(buffer_tx,y+1);y++;
 1419              		.loc 1 103 0
 1420 017c 544A     		ldr	r2, .L201+20
 1421 017e 92F81323 		ldrb	r2, [r2, #787]	@ zero_extendqisi2
 1422 0182 EA54     		strb	r2, [r5, r3]
 1423 0184 5C1C     		adds	r4, r3, #1
 1424 0186 A4B2     		uxth	r4, r4
 1425              	.LVL167:
 104:.\RFPoll.c    ****                     for (x = 0; x < y; x++){
 1426              		.loc 1 104 0
 1427 0188 991C     		adds	r1, r3, #2
 1428 018a 2846     		mov	r0, r5
 1429 018c 89B2     		uxth	r1, r1
 1430 018e FFF7FEFF 		bl	verificar_check
 1431              	.LVL168:
 1432 0192 2855     		strb	r0, [r5, r4]
 1433 0194 0134     		adds	r4, r4, #1
 1434              	.LVL169:
 1435 0196 A4B2     		uxth	r4, r4
 1436              	.LVL170:
 105:.\RFPoll.c    ****                         RF_Connection_PutChar(buffer_tx[x]);
 1437              		.loc 1 105 0
 1438 0198 0025     		movs	r5, #0
 1439 019a 05E0     		b	.L114
 1440              	.LVL171:
 1441              	.L115:
 106:.\RFPoll.c    ****                     }
 1442              		.loc 1 106 0 discriminator 3
ARM GAS  C:\Users\RECEPC~1\AppData\Local\Temp\ccIFDC7N.s 			page 39


 1443 019c 4A4B     		ldr	r3, .L201+12
 1444 019e 585D     		ldrb	r0, [r3, r5]	@ zero_extendqisi2
 1445 01a0 FFF7FEFF 		bl	RF_Connection_PutChar
 1446              	.LVL172:
 105:.\RFPoll.c    ****                         RF_Connection_PutChar(buffer_tx[x]);
 1447              		.loc 1 105 0 discriminator 3
 1448 01a4 0135     		adds	r5, r5, #1
 1449              	.LVL173:
 1450 01a6 ADB2     		uxth	r5, r5
 1451              	.LVL174:
 1452              	.L114:
 105:.\RFPoll.c    ****                         RF_Connection_PutChar(buffer_tx[x]);
 1453              		.loc 1 105 0 is_stmt 0 discriminator 1
 1454 01a8 A542     		cmp	r5, r4
 1455 01aa F7D3     		bcc	.L115
 1456              	.LVL175:
 1457              	.L113:
 109:.\RFPoll.c    ****                     buffer_tx[5] = side.d.dir; y++;
 1458              		.loc 1 109 0 is_stmt 1
 1459 01ac 454B     		ldr	r3, .L201+8
 1460 01ae 5A79     		ldrb	r2, [r3, #5]	@ zero_extendqisi2
 1461 01b0 474B     		ldr	r3, .L201+20
 1462 01b2 93F81833 		ldrb	r3, [r3, #792]	@ zero_extendqisi2
 1463 01b6 9A42     		cmp	r2, r3
 1464 01b8 40F00083 		bne	.L97
 110:.\RFPoll.c    ****                     buffer_tx[y] = 0xA1; y++;
 1465              		.loc 1 110 0
 1466 01bc 424D     		ldr	r5, .L201+12
 1467 01be 6B71     		strb	r3, [r5, #5]
 1468 01c0 631C     		adds	r3, r4, #1
 1469 01c2 9BB2     		uxth	r3, r3
 1470              	.LVL176:
 111:.\RFPoll.c    ****                     buffer_tx[y] = side.d.rfState; y++;
 1471              		.loc 1 111 0
 1472 01c4 A122     		movs	r2, #161
 1473 01c6 EA54     		strb	r2, [r5, r3]
 1474 01c8 0133     		adds	r3, r3, #1
 1475              	.LVL177:
 1476 01ca 9BB2     		uxth	r3, r3
 1477              	.LVL178:
 112:.\RFPoll.c    ****                     buffer_tx[y] = verificar_check(buffer_tx,y+1);y++;
 1478              		.loc 1 112 0
 1479 01cc 404A     		ldr	r2, .L201+20
 1480 01ce 92F81B24 		ldrb	r2, [r2, #1051]	@ zero_extendqisi2
 1481 01d2 EA54     		strb	r2, [r5, r3]
 1482 01d4 5C1C     		adds	r4, r3, #1
 1483 01d6 A4B2     		uxth	r4, r4
 1484              	.LVL179:
 113:.\RFPoll.c    ****                     for (x = 0; x < y; x++){
 1485              		.loc 1 113 0
 1486 01d8 991C     		adds	r1, r3, #2
 1487 01da 2846     		mov	r0, r5
 1488 01dc 89B2     		uxth	r1, r1
 1489 01de FFF7FEFF 		bl	verificar_check
 1490              	.LVL180:
 1491 01e2 2855     		strb	r0, [r5, r4]
 1492 01e4 0134     		adds	r4, r4, #1
ARM GAS  C:\Users\RECEPC~1\AppData\Local\Temp\ccIFDC7N.s 			page 40


 1493              	.LVL181:
 1494 01e6 A4B2     		uxth	r4, r4
 1495              	.LVL182:
 114:.\RFPoll.c    ****                         RF_Connection_PutChar(buffer_tx[x]);
 1496              		.loc 1 114 0
 1497 01e8 0025     		movs	r5, #0
 1498 01ea 05E0     		b	.L116
 1499              	.LVL183:
 1500              	.L117:
 115:.\RFPoll.c    ****                     }
 1501              		.loc 1 115 0 discriminator 3
 1502 01ec 364B     		ldr	r3, .L201+12
 1503 01ee 585D     		ldrb	r0, [r3, r5]	@ zero_extendqisi2
 1504 01f0 FFF7FEFF 		bl	RF_Connection_PutChar
 1505              	.LVL184:
 114:.\RFPoll.c    ****                         RF_Connection_PutChar(buffer_tx[x]);
 1506              		.loc 1 114 0 discriminator 3
 1507 01f4 0135     		adds	r5, r5, #1
 1508              	.LVL185:
 1509 01f6 ADB2     		uxth	r5, r5
 1510              	.LVL186:
 1511              	.L116:
 114:.\RFPoll.c    ****                         RF_Connection_PutChar(buffer_tx[x]);
 1512              		.loc 1 114 0 is_stmt 0 discriminator 1
 1513 01f8 A542     		cmp	r5, r4
 1514 01fa F7D3     		bcc	.L117
 1515 01fc DEE2     		b	.L97
 1516              	.LVL187:
 1517              	.L101:
 122:.\RFPoll.c    ****                     getTotals(side.a.dir);
 1518              		.loc 1 122 0 is_stmt 1
 1519 01fe 314B     		ldr	r3, .L201+8
 1520 0200 5B79     		ldrb	r3, [r3, #5]	@ zero_extendqisi2
 1521 0202 334A     		ldr	r2, .L201+20
 1522 0204 1078     		ldrb	r0, [r2]	@ zero_extendqisi2
 1523 0206 8342     		cmp	r3, r0
 1524 0208 79D1     		bne	.L193
 123:.\RFPoll.c    ****                     buffer_tx[5] = side.a.dir; y++;
 1525              		.loc 1 123 0
 1526 020a FFF7FEFF 		bl	getTotals
 1527              	.LVL188:
 124:.\RFPoll.c    ****                     buffer_tx[y] = 0xE8; y++;
 1528              		.loc 1 124 0
 1529 020e 304A     		ldr	r2, .L201+20
 1530 0210 1178     		ldrb	r1, [r2]	@ zero_extendqisi2
 1531 0212 2D4B     		ldr	r3, .L201+12
 1532 0214 5971     		strb	r1, [r3, #5]
 1533              	.LVL189:
 125:.\RFPoll.c    ****                     buffer_tx[y] = side.a.rfState; y++;
 1534              		.loc 1 125 0
 1535 0216 E821     		movs	r1, #232
 1536 0218 9971     		strb	r1, [r3, #6]
 1537              	.LVL190:
 126:.\RFPoll.c    ****                     buffer_tx[y] = 0x00; y++;
 1538              		.loc 1 126 0
 1539 021a 92F80321 		ldrb	r2, [r2, #259]	@ zero_extendqisi2
 1540 021e DA71     		strb	r2, [r3, #7]
ARM GAS  C:\Users\RECEPC~1\AppData\Local\Temp\ccIFDC7N.s 			page 41


 1541              	.LVL191:
 127:.\RFPoll.c    ****                     for(z=1;z <= side.a.hoseNumber; z++){
 1542              		.loc 1 127 0
 1543 0220 0022     		movs	r2, #0
 1544 0222 1A72     		strb	r2, [r3, #8]
 1545              	.LVL192:
 128:.\RFPoll.c    ****                         buffer_tx[y] = z; y++;                    
 1546              		.loc 1 128 0
 1547 0224 0122     		movs	r2, #1
 127:.\RFPoll.c    ****                     for(z=1;z <= side.a.hoseNumber; z++){
 1548              		.loc 1 127 0
 1549 0226 0924     		movs	r4, #9
 1550              	.LVL193:
 128:.\RFPoll.c    ****                         buffer_tx[y] = z; y++;                    
 1551              		.loc 1 128 0
 1552 0228 63E0     		b	.L119
 1553              	.LVL194:
 1554              	.L133:
 129:.\RFPoll.c    ****                         if (digits == 6 || digits == 5){                            
 1555              		.loc 1 129 0
 1556 022a 274B     		ldr	r3, .L201+12
 1557 022c 1A55     		strb	r2, [r3, r4]
 1558 022e 0134     		adds	r4, r4, #1
 1559              	.LVL195:
 1560 0230 A4B2     		uxth	r4, r4
 1561              	.LVL196:
 130:.\RFPoll.c    ****                             for(x = 8; x > 0; x--){ //Volumen
 1562              		.loc 1 130 0
 1563 0232 284B     		ldr	r3, .L201+24
 1564 0234 1B78     		ldrb	r3, [r3]	@ zero_extendqisi2
 1565 0236 053B     		subs	r3, r3, #5
 1566 0238 DBB2     		uxtb	r3, r3
 1567 023a 012B     		cmp	r3, #1
 1568 023c 0BD9     		bls	.L194
 1569 023e 0C23     		movs	r3, #12
 1570 0240 37E0     		b	.L121
 1571              	.LVL197:
 1572              	.L122:
 132:.\RFPoll.c    ****                             }
 1573              		.loc 1 132 0 discriminator 3
 1574 0242 2349     		ldr	r1, .L201+20
 1575 0244 1944     		add	r1, r1, r3
 1576 0246 4878     		ldrb	r0, [r1, #1]	@ zero_extendqisi2
 1577 0248 1F49     		ldr	r1, .L201+12
 1578 024a 0855     		strb	r0, [r1, r4]
 1579 024c 0134     		adds	r4, r4, #1
 1580              	.LVL198:
 1581 024e A4B2     		uxth	r4, r4
 1582              	.LVL199:
 131:.\RFPoll.c    ****                                 buffer_tx[y] = side.a.totalsHandle[0][0][x];y++;
 1583              		.loc 1 131 0 discriminator 3
 1584 0250 013B     		subs	r3, r3, #1
 1585              	.LVL200:
 1586 0252 9BB2     		uxth	r3, r3
 1587              	.LVL201:
 1588 0254 00E0     		b	.L120
 1589              	.LVL202:
ARM GAS  C:\Users\RECEPC~1\AppData\Local\Temp\ccIFDC7N.s 			page 42


 1590              	.L194:
 1591 0256 0823     		movs	r3, #8
 1592              	.L120:
 1593              	.LVL203:
 131:.\RFPoll.c    ****                                 buffer_tx[y] = side.a.totalsHandle[0][0][x];y++;
 1594              		.loc 1 131 0 is_stmt 0 discriminator 1
 1595 0258 002B     		cmp	r3, #0
 1596 025a F2D1     		bne	.L122
 1597 025c 06E0     		b	.L123
 1598              	.L124:
 135:.\RFPoll.c    ****                             }
 1599              		.loc 1 135 0 is_stmt 1 discriminator 3
 1600 025e 3020     		movs	r0, #48
 1601 0260 1949     		ldr	r1, .L201+12
 1602 0262 0855     		strb	r0, [r1, r4]
 1603 0264 0134     		adds	r4, r4, #1
 1604              	.LVL204:
 1605 0266 A4B2     		uxth	r4, r4
 1606              	.LVL205:
 134:.\RFPoll.c    ****                                 buffer_tx[y] = 0x30;y++;
 1607              		.loc 1 134 0 discriminator 3
 1608 0268 0133     		adds	r3, r3, #1
 1609              	.LVL206:
 1610 026a 9BB2     		uxth	r3, r3
 1611              	.LVL207:
 1612              	.L123:
 134:.\RFPoll.c    ****                                 buffer_tx[y] = 0x30;y++;
 1613              		.loc 1 134 0 is_stmt 0 discriminator 1
 1614 026c 032B     		cmp	r3, #3
 1615 026e F6D9     		bls	.L124
 1616 0270 0823     		movs	r3, #8
 1617              	.LVL208:
 1618 0272 08E0     		b	.L125
 1619              	.LVL209:
 1620              	.L126:
 138:.\RFPoll.c    ****                             }
 1621              		.loc 1 138 0 is_stmt 1 discriminator 3
 1622 0274 1649     		ldr	r1, .L201+20
 1623 0276 1944     		add	r1, r1, r3
 1624 0278 087C     		ldrb	r0, [r1, #16]	@ zero_extendqisi2
 1625 027a 1349     		ldr	r1, .L201+12
 1626 027c 0855     		strb	r0, [r1, r4]
 1627 027e 0134     		adds	r4, r4, #1
 1628              	.LVL210:
 1629 0280 A4B2     		uxth	r4, r4
 1630              	.LVL211:
 137:.\RFPoll.c    ****                                 buffer_tx[y] = side.a.totalsHandle[0][1][x];y++;
 1631              		.loc 1 137 0 discriminator 3
 1632 0282 013B     		subs	r3, r3, #1
 1633              	.LVL212:
 1634 0284 9BB2     		uxth	r3, r3
 1635              	.LVL213:
 1636              	.L125:
 137:.\RFPoll.c    ****                                 buffer_tx[y] = side.a.totalsHandle[0][1][x];y++;
 1637              		.loc 1 137 0 is_stmt 0 discriminator 1
 1638 0286 002B     		cmp	r3, #0
 1639 0288 F4D1     		bne	.L126
ARM GAS  C:\Users\RECEPC~1\AppData\Local\Temp\ccIFDC7N.s 			page 43


 1640 028a 06E0     		b	.L127
 1641              	.L128:
 141:.\RFPoll.c    ****                             }
 1642              		.loc 1 141 0 is_stmt 1 discriminator 3
 1643 028c 3020     		movs	r0, #48
 1644 028e 0E49     		ldr	r1, .L201+12
 1645 0290 0855     		strb	r0, [r1, r4]
 1646 0292 0134     		adds	r4, r4, #1
 1647              	.LVL214:
 1648 0294 A4B2     		uxth	r4, r4
 1649              	.LVL215:
 140:.\RFPoll.c    ****                                 buffer_tx[y] = 0x30;y++;
 1650              		.loc 1 140 0 discriminator 3
 1651 0296 0133     		adds	r3, r3, #1
 1652              	.LVL216:
 1653 0298 9BB2     		uxth	r3, r3
 1654              	.LVL217:
 1655              	.L127:
 140:.\RFPoll.c    ****                                 buffer_tx[y] = 0x30;y++;
 1656              		.loc 1 140 0 is_stmt 0 discriminator 1
 1657 029a 032B     		cmp	r3, #3
 1658 029c F6D9     		bls	.L128
 1659 029e 26E0     		b	.L129
 1660              	.L130:
 145:.\RFPoll.c    ****                             }                        
 1661              		.loc 1 145 0 is_stmt 1 discriminator 3
 1662 02a0 0B49     		ldr	r1, .L201+20
 1663 02a2 1944     		add	r1, r1, r3
 1664 02a4 4878     		ldrb	r0, [r1, #1]	@ zero_extendqisi2
 1665 02a6 0849     		ldr	r1, .L201+12
 1666 02a8 0855     		strb	r0, [r1, r4]
 1667 02aa 0134     		adds	r4, r4, #1
 1668              	.LVL218:
 1669 02ac A4B2     		uxth	r4, r4
 1670              	.LVL219:
 144:.\RFPoll.c    ****                                 buffer_tx[y] = side.a.totalsHandle[0][0][x];y++;
 1671              		.loc 1 144 0 discriminator 3
 1672 02ae 013B     		subs	r3, r3, #1
 1673              	.LVL220:
 1674 02b0 9BB2     		uxth	r3, r3
 1675              	.LVL221:
 1676              	.L121:
 144:.\RFPoll.c    ****                                 buffer_tx[y] = side.a.totalsHandle[0][0][x];y++;
 1677              		.loc 1 144 0 is_stmt 0 discriminator 1
 1678 02b2 002B     		cmp	r3, #0
 1679 02b4 F4D1     		bne	.L130
 1680 02b6 0C23     		movs	r3, #12
 1681              	.LVL222:
 1682 02b8 17E0     		b	.L131
 1683              	.L202:
 1684 02ba 00BF     		.align	2
 1685              	.L201:
 1686 02bc 00000000 		.word	ActiveRF
 1687 02c0 00000000 		.word	counterRF
 1688 02c4 00000000 		.word	buffer_rf
 1689 02c8 00000000 		.word	buffer_tx
 1690 02cc 00000000 		.word	IDCast
ARM GAS  C:\Users\RECEPC~1\AppData\Local\Temp\ccIFDC7N.s 			page 44


 1691 02d0 00000000 		.word	side
 1692 02d4 00000000 		.word	digits
 1693              	.LVL223:
 1694              	.L132:
 148:.\RFPoll.c    ****                             }                        
 1695              		.loc 1 148 0 is_stmt 1 discriminator 3
 1696 02d8 AD49     		ldr	r1, .L203
 1697 02da 1944     		add	r1, r1, r3
 1698 02dc 087C     		ldrb	r0, [r1, #16]	@ zero_extendqisi2
 1699 02de AD49     		ldr	r1, .L203+4
 1700 02e0 0855     		strb	r0, [r1, r4]
 1701 02e2 0134     		adds	r4, r4, #1
 1702              	.LVL224:
 1703 02e4 A4B2     		uxth	r4, r4
 1704              	.LVL225:
 147:.\RFPoll.c    ****                                 buffer_tx[y] = side.a.totalsHandle[0][1][x];y++;
 1705              		.loc 1 147 0 discriminator 3
 1706 02e6 013B     		subs	r3, r3, #1
 1707              	.LVL226:
 1708 02e8 9BB2     		uxth	r3, r3
 1709              	.LVL227:
 1710              	.L131:
 147:.\RFPoll.c    ****                                 buffer_tx[y] = side.a.totalsHandle[0][1][x];y++;
 1711              		.loc 1 147 0 is_stmt 0 discriminator 1
 1712 02ea 002B     		cmp	r3, #0
 1713 02ec F4D1     		bne	.L132
 1714              	.L129:
 128:.\RFPoll.c    ****                         buffer_tx[y] = z; y++;                    
 1715              		.loc 1 128 0 is_stmt 1 discriminator 2
 1716 02ee 0132     		adds	r2, r2, #1
 1717              	.LVL228:
 1718 02f0 92B2     		uxth	r2, r2
 1719              	.LVL229:
 1720              	.L119:
 128:.\RFPoll.c    ****                         buffer_tx[y] = z; y++;                    
 1721              		.loc 1 128 0 is_stmt 0 discriminator 1
 1722 02f2 A74B     		ldr	r3, .L203
 1723 02f4 93F80231 		ldrb	r3, [r3, #258]	@ zero_extendqisi2
 1724 02f8 9342     		cmp	r3, r2
 1725 02fa 96D2     		bcs	.L133
 1726 02fc 00E0     		b	.L118
 1727              	.LVL230:
 1728              	.L193:
  70:.\RFPoll.c    ****         if(((buffer_rf[0]==0xBC)&&(buffer_rf[1]==0xBB)&&(buffer_rf[2]==0xB8)&&(buffer_rf[3]==IDCast
 1729              		.loc 1 70 0 is_stmt 1
 1730 02fe 0524     		movs	r4, #5
 1731              	.LVL231:
 1732              	.L118:
 153:.\RFPoll.c    ****                     getTotals(side.b.dir);
 1733              		.loc 1 153 0
 1734 0300 A54B     		ldr	r3, .L203+8
 1735 0302 5B79     		ldrb	r3, [r3, #5]	@ zero_extendqisi2
 1736 0304 A24A     		ldr	r2, .L203
 1737 0306 92F80801 		ldrb	r0, [r2, #264]	@ zero_extendqisi2
 1738 030a 8342     		cmp	r3, r0
 1739 030c 75D1     		bne	.L134
 154:.\RFPoll.c    ****                     buffer_tx[5] = side.b.dir; y++;
ARM GAS  C:\Users\RECEPC~1\AppData\Local\Temp\ccIFDC7N.s 			page 45


 1740              		.loc 1 154 0
 1741 030e FFF7FEFF 		bl	getTotals
 1742              	.LVL232:
 155:.\RFPoll.c    ****                     buffer_tx[y] = 0xE8; y++;
 1743              		.loc 1 155 0
 1744 0312 9F49     		ldr	r1, .L203
 1745 0314 91F80831 		ldrb	r3, [r1, #264]	@ zero_extendqisi2
 1746 0318 9E4A     		ldr	r2, .L203+4
 1747 031a 5371     		strb	r3, [r2, #5]
 1748 031c 631C     		adds	r3, r4, #1
 1749 031e 9BB2     		uxth	r3, r3
 1750              	.LVL233:
 156:.\RFPoll.c    ****                     buffer_tx[y] = side.b.rfState; y++;
 1751              		.loc 1 156 0
 1752 0320 E820     		movs	r0, #232
 1753 0322 D054     		strb	r0, [r2, r3]
 1754 0324 0133     		adds	r3, r3, #1
 1755              	.LVL234:
 1756 0326 9BB2     		uxth	r3, r3
 1757              	.LVL235:
 157:.\RFPoll.c    ****                     buffer_tx[y] = 0x00; y++;
 1758              		.loc 1 157 0
 1759 0328 91F80B12 		ldrb	r1, [r1, #523]	@ zero_extendqisi2
 1760 032c D154     		strb	r1, [r2, r3]
 1761 032e 0133     		adds	r3, r3, #1
 1762              	.LVL236:
 1763 0330 9BB2     		uxth	r3, r3
 1764              	.LVL237:
 158:.\RFPoll.c    ****                     for(z=1;z <= side.b.hoseNumber; z++){
 1765              		.loc 1 158 0
 1766 0332 0021     		movs	r1, #0
 1767 0334 D154     		strb	r1, [r2, r3]
 1768 0336 0133     		adds	r3, r3, #1
 1769              	.LVL238:
 1770 0338 9CB2     		uxth	r4, r3
 1771              	.LVL239:
 159:.\RFPoll.c    ****                         buffer_tx[y] = z; y++;
 1772              		.loc 1 159 0
 1773 033a 0122     		movs	r2, #1
 1774 033c 58E0     		b	.L135
 1775              	.LVL240:
 1776              	.L149:
 160:.\RFPoll.c    ****                         if (digits == 6 || digits == 5){                            
 1777              		.loc 1 160 0
 1778 033e 954B     		ldr	r3, .L203+4
 1779 0340 1A55     		strb	r2, [r3, r4]
 1780 0342 0134     		adds	r4, r4, #1
 1781              	.LVL241:
 1782 0344 A4B2     		uxth	r4, r4
 1783              	.LVL242:
 161:.\RFPoll.c    ****                             for(x = 8; x > 0; x--){ //Volumen
 1784              		.loc 1 161 0
 1785 0346 954B     		ldr	r3, .L203+12
 1786 0348 1B78     		ldrb	r3, [r3]	@ zero_extendqisi2
 1787 034a 053B     		subs	r3, r3, #5
 1788 034c DBB2     		uxtb	r3, r3
 1789 034e 012B     		cmp	r3, #1
ARM GAS  C:\Users\RECEPC~1\AppData\Local\Temp\ccIFDC7N.s 			page 46


 1790 0350 0CD9     		bls	.L195
 1791 0352 0C23     		movs	r3, #12
 1792 0354 3AE0     		b	.L137
 1793              	.LVL243:
 1794              	.L138:
 163:.\RFPoll.c    ****                             }
 1795              		.loc 1 163 0 discriminator 3
 1796 0356 8E49     		ldr	r1, .L203
 1797 0358 1944     		add	r1, r1, r3
 1798 035a 91F80901 		ldrb	r0, [r1, #265]	@ zero_extendqisi2
 1799 035e 8D49     		ldr	r1, .L203+4
 1800 0360 0855     		strb	r0, [r1, r4]
 1801 0362 0134     		adds	r4, r4, #1
 1802              	.LVL244:
 1803 0364 A4B2     		uxth	r4, r4
 1804              	.LVL245:
 162:.\RFPoll.c    ****                                 buffer_tx[y] = side.b.totalsHandle[0][0][x];y++;
 1805              		.loc 1 162 0 discriminator 3
 1806 0366 013B     		subs	r3, r3, #1
 1807              	.LVL246:
 1808 0368 9BB2     		uxth	r3, r3
 1809              	.LVL247:
 1810 036a 00E0     		b	.L136
 1811              	.LVL248:
 1812              	.L195:
 1813 036c 0823     		movs	r3, #8
 1814              	.L136:
 1815              	.LVL249:
 162:.\RFPoll.c    ****                                 buffer_tx[y] = side.b.totalsHandle[0][0][x];y++;
 1816              		.loc 1 162 0 is_stmt 0 discriminator 1
 1817 036e 002B     		cmp	r3, #0
 1818 0370 F1D1     		bne	.L138
 1819 0372 06E0     		b	.L139
 1820              	.L140:
 166:.\RFPoll.c    ****                             }
 1821              		.loc 1 166 0 is_stmt 1 discriminator 3
 1822 0374 3020     		movs	r0, #48
 1823 0376 8749     		ldr	r1, .L203+4
 1824 0378 0855     		strb	r0, [r1, r4]
 1825 037a 0134     		adds	r4, r4, #1
 1826              	.LVL250:
 1827 037c A4B2     		uxth	r4, r4
 1828              	.LVL251:
 165:.\RFPoll.c    ****                                 buffer_tx[y] = 0x30;y++;
 1829              		.loc 1 165 0 discriminator 3
 1830 037e 0133     		adds	r3, r3, #1
 1831              	.LVL252:
 1832 0380 9BB2     		uxth	r3, r3
 1833              	.LVL253:
 1834              	.L139:
 165:.\RFPoll.c    ****                                 buffer_tx[y] = 0x30;y++;
 1835              		.loc 1 165 0 is_stmt 0 discriminator 1
 1836 0382 032B     		cmp	r3, #3
 1837 0384 F6D9     		bls	.L140
 1838 0386 0823     		movs	r3, #8
 1839              	.LVL254:
 1840 0388 09E0     		b	.L141
ARM GAS  C:\Users\RECEPC~1\AppData\Local\Temp\ccIFDC7N.s 			page 47


 1841              	.LVL255:
 1842              	.L142:
 169:.\RFPoll.c    ****                             }
 1843              		.loc 1 169 0 is_stmt 1 discriminator 3
 1844 038a 8149     		ldr	r1, .L203
 1845 038c 1944     		add	r1, r1, r3
 1846 038e 91F81801 		ldrb	r0, [r1, #280]	@ zero_extendqisi2
 1847 0392 8049     		ldr	r1, .L203+4
 1848 0394 0855     		strb	r0, [r1, r4]
 1849 0396 0134     		adds	r4, r4, #1
 1850              	.LVL256:
 1851 0398 A4B2     		uxth	r4, r4
 1852              	.LVL257:
 168:.\RFPoll.c    ****                                 buffer_tx[y] = side.b.totalsHandle[0][1][x];y++;
 1853              		.loc 1 168 0 discriminator 3
 1854 039a 013B     		subs	r3, r3, #1
 1855              	.LVL258:
 1856 039c 9BB2     		uxth	r3, r3
 1857              	.LVL259:
 1858              	.L141:
 168:.\RFPoll.c    ****                                 buffer_tx[y] = side.b.totalsHandle[0][1][x];y++;
 1859              		.loc 1 168 0 is_stmt 0 discriminator 1
 1860 039e 002B     		cmp	r3, #0
 1861 03a0 F3D1     		bne	.L142
 1862 03a2 06E0     		b	.L143
 1863              	.L144:
 172:.\RFPoll.c    ****                             }
 1864              		.loc 1 172 0 is_stmt 1 discriminator 3
 1865 03a4 3020     		movs	r0, #48
 1866 03a6 7B49     		ldr	r1, .L203+4
 1867 03a8 0855     		strb	r0, [r1, r4]
 1868 03aa 0134     		adds	r4, r4, #1
 1869              	.LVL260:
 1870 03ac A4B2     		uxth	r4, r4
 1871              	.LVL261:
 171:.\RFPoll.c    ****                                 buffer_tx[y] = 0x30;y++;
 1872              		.loc 1 171 0 discriminator 3
 1873 03ae 0133     		adds	r3, r3, #1
 1874              	.LVL262:
 1875 03b0 9BB2     		uxth	r3, r3
 1876              	.LVL263:
 1877              	.L143:
 171:.\RFPoll.c    ****                                 buffer_tx[y] = 0x30;y++;
 1878              		.loc 1 171 0 is_stmt 0 discriminator 1
 1879 03b2 032B     		cmp	r3, #3
 1880 03b4 F6D9     		bls	.L144
 1881 03b6 19E0     		b	.L145
 1882              	.L146:
 176:.\RFPoll.c    ****                             }                        
 1883              		.loc 1 176 0 is_stmt 1 discriminator 3
 1884 03b8 7549     		ldr	r1, .L203
 1885 03ba 1944     		add	r1, r1, r3
 1886 03bc 91F80901 		ldrb	r0, [r1, #265]	@ zero_extendqisi2
 1887 03c0 7449     		ldr	r1, .L203+4
 1888 03c2 0855     		strb	r0, [r1, r4]
 1889 03c4 0134     		adds	r4, r4, #1
 1890              	.LVL264:
ARM GAS  C:\Users\RECEPC~1\AppData\Local\Temp\ccIFDC7N.s 			page 48


 1891 03c6 A4B2     		uxth	r4, r4
 1892              	.LVL265:
 175:.\RFPoll.c    ****                                 buffer_tx[y] = side.b.totalsHandle[0][0][x];y++;
 1893              		.loc 1 175 0 discriminator 3
 1894 03c8 013B     		subs	r3, r3, #1
 1895              	.LVL266:
 1896 03ca 9BB2     		uxth	r3, r3
 1897              	.LVL267:
 1898              	.L137:
 175:.\RFPoll.c    ****                                 buffer_tx[y] = side.b.totalsHandle[0][0][x];y++;
 1899              		.loc 1 175 0 is_stmt 0 discriminator 1
 1900 03cc 002B     		cmp	r3, #0
 1901 03ce F3D1     		bne	.L146
 1902 03d0 0C23     		movs	r3, #12
 1903              	.LVL268:
 1904 03d2 09E0     		b	.L147
 1905              	.LVL269:
 1906              	.L148:
 179:.\RFPoll.c    ****                             }                        
 1907              		.loc 1 179 0 is_stmt 1 discriminator 3
 1908 03d4 6E49     		ldr	r1, .L203
 1909 03d6 1944     		add	r1, r1, r3
 1910 03d8 91F81801 		ldrb	r0, [r1, #280]	@ zero_extendqisi2
 1911 03dc 6D49     		ldr	r1, .L203+4
 1912 03de 0855     		strb	r0, [r1, r4]
 1913 03e0 0134     		adds	r4, r4, #1
 1914              	.LVL270:
 1915 03e2 A4B2     		uxth	r4, r4
 1916              	.LVL271:
 178:.\RFPoll.c    ****                                 buffer_tx[y] = side.b.totalsHandle[0][1][x];y++;
 1917              		.loc 1 178 0 discriminator 3
 1918 03e4 013B     		subs	r3, r3, #1
 1919              	.LVL272:
 1920 03e6 9BB2     		uxth	r3, r3
 1921              	.LVL273:
 1922              	.L147:
 178:.\RFPoll.c    ****                                 buffer_tx[y] = side.b.totalsHandle[0][1][x];y++;
 1923              		.loc 1 178 0 is_stmt 0 discriminator 1
 1924 03e8 002B     		cmp	r3, #0
 1925 03ea F3D1     		bne	.L148
 1926              	.L145:
 159:.\RFPoll.c    ****                         buffer_tx[y] = z; y++;
 1927              		.loc 1 159 0 is_stmt 1 discriminator 2
 1928 03ec 0132     		adds	r2, r2, #1
 1929              	.LVL274:
 1930 03ee 92B2     		uxth	r2, r2
 1931              	.LVL275:
 1932              	.L135:
 159:.\RFPoll.c    ****                         buffer_tx[y] = z; y++;
 1933              		.loc 1 159 0 is_stmt 0 discriminator 1
 1934 03f0 674B     		ldr	r3, .L203
 1935 03f2 93F80A32 		ldrb	r3, [r3, #522]	@ zero_extendqisi2
 1936 03f6 9342     		cmp	r3, r2
 1937 03f8 A1D2     		bcs	.L149
 1938              	.LVL276:
 1939              	.L134:
 184:.\RFPoll.c    ****                 buffer_tx[y] = verificar_check(buffer_tx,y+1);y++;                 
ARM GAS  C:\Users\RECEPC~1\AppData\Local\Temp\ccIFDC7N.s 			page 49


 1940              		.loc 1 184 0 is_stmt 1
 1941 03fa 664E     		ldr	r6, .L203+4
 1942 03fc A4F10903 		sub	r3, r4, #9
 1943 0400 3372     		strb	r3, [r6, #8]
 185:.\RFPoll.c    ****                 for (x = 0; x < y; x++){
 1944              		.loc 1 185 0
 1945 0402 651C     		adds	r5, r4, #1
 1946 0404 ADB2     		uxth	r5, r5
 1947 0406 3046     		mov	r0, r6
 1948 0408 2946     		mov	r1, r5
 1949 040a FFF7FEFF 		bl	verificar_check
 1950              	.LVL277:
 1951 040e 3055     		strb	r0, [r6, r4]
 1952              	.LVL278:
 186:.\RFPoll.c    ****                     RF_Connection_PutChar(buffer_tx[x]);
 1953              		.loc 1 186 0
 1954 0410 0024     		movs	r4, #0
 1955 0412 05E0     		b	.L150
 1956              	.LVL279:
 1957              	.L151:
 187:.\RFPoll.c    ****                 }
 1958              		.loc 1 187 0 discriminator 3
 1959 0414 5F4B     		ldr	r3, .L203+4
 1960 0416 185D     		ldrb	r0, [r3, r4]	@ zero_extendqisi2
 1961 0418 FFF7FEFF 		bl	RF_Connection_PutChar
 1962              	.LVL280:
 186:.\RFPoll.c    ****                     RF_Connection_PutChar(buffer_tx[x]);
 1963              		.loc 1 186 0 discriminator 3
 1964 041c 0134     		adds	r4, r4, #1
 1965              	.LVL281:
 1966 041e A4B2     		uxth	r4, r4
 1967              	.LVL282:
 1968              	.L150:
 186:.\RFPoll.c    ****                     RF_Connection_PutChar(buffer_tx[x]);
 1969              		.loc 1 186 0 is_stmt 0 discriminator 1
 1970 0420 AC42     		cmp	r4, r5
 1971 0422 F7D3     		bcc	.L151
 1972 0424 CAE1     		b	.L97
 1973              	.LVL283:
 1974              	.L98:
 192:.\RFPoll.c    ****                     for(x=9;x < 14 ; x++ ){
 1975              		.loc 1 192 0 is_stmt 1
 1976 0426 5C4B     		ldr	r3, .L203+8
 1977 0428 5A79     		ldrb	r2, [r3, #5]	@ zero_extendqisi2
 1978 042a 594B     		ldr	r3, .L203
 1979 042c 1878     		ldrb	r0, [r3]	@ zero_extendqisi2
 1980 042e 8242     		cmp	r2, r0
 1981 0430 0DD0     		beq	.L196
  70:.\RFPoll.c    ****         if(((buffer_rf[0]==0xBC)&&(buffer_rf[1]==0xBB)&&(buffer_rf[2]==0xB8)&&(buffer_rf[3]==IDCast
 1982              		.loc 1 70 0
 1983 0432 0524     		movs	r4, #5
 1984              	.LVL284:
 1985 0434 1DE0     		b	.L153
 1986              	.LVL285:
 1987              	.L154:
 194:.\RFPoll.c    ****                     }
 1988              		.loc 1 194 0 discriminator 3
ARM GAS  C:\Users\RECEPC~1\AppData\Local\Temp\ccIFDC7N.s 			page 50


 1989 0436 584C     		ldr	r4, .L203+8
 1990 0438 257A     		ldrb	r5, [r4, #8]	@ zero_extendqisi2
 1991 043a E45C     		ldrb	r4, [r4, r3]	@ zero_extendqisi2
 1992 043c 5449     		ldr	r1, .L203
 1993 043e 01EBC501 		add	r1, r1, r5, lsl #3
 1994 0442 1944     		add	r1, r1, r3
 1995 0444 81F8AC40 		strb	r4, [r1, #172]
 193:.\RFPoll.c    ****                         side.a.ppuAuthorized[buffer_rf[8]][x-9] = buffer_rf[x];
 1996              		.loc 1 193 0 discriminator 3
 1997 0448 0133     		adds	r3, r3, #1
 1998              	.LVL286:
 1999 044a 9BB2     		uxth	r3, r3
 2000              	.LVL287:
 2001 044c 00E0     		b	.L152
 2002              	.LVL288:
 2003              	.L196:
 2004 044e 0923     		movs	r3, #9
 2005              	.LVL289:
 2006              	.L152:
 193:.\RFPoll.c    ****                         side.a.ppuAuthorized[buffer_rf[8]][x-9] = buffer_rf[x];
 2007              		.loc 1 193 0 is_stmt 0 discriminator 1
 2008 0450 0D2B     		cmp	r3, #13
 2009 0452 F0D9     		bls	.L154
 196:.\RFPoll.c    ****                     side.a.grade = buffer_rf[8];
 2010              		.loc 1 196 0 is_stmt 1
 2011 0454 4E4B     		ldr	r3, .L203
 2012              	.LVL290:
 2013 0456 0121     		movs	r1, #1
 2014 0458 83F80511 		strb	r1, [r3, #261]
 197:.\RFPoll.c    ****                     buffer_tx[5] = side.a.dir;y++;
 2015              		.loc 1 197 0
 2016 045c 4E49     		ldr	r1, .L203+8
 2017 045e 097A     		ldrb	r1, [r1, #8]	@ zero_extendqisi2
 2018 0460 83F80611 		strb	r1, [r3, #262]
 198:.\RFPoll.c    ****                     buffer_tx[y] = 0xA6;y++;
 2019              		.loc 1 198 0
 2020 0464 4B4B     		ldr	r3, .L203+4
 2021 0466 5871     		strb	r0, [r3, #5]
 2022              	.LVL291:
 199:.\RFPoll.c    ****                     buffer_tx[y] = 0x03;y++;
 2023              		.loc 1 199 0
 2024 0468 A621     		movs	r1, #166
 2025 046a 9971     		strb	r1, [r3, #6]
 2026              	.LVL292:
 200:.\RFPoll.c    ****                 } 
 2027              		.loc 1 200 0
 2028 046c 0321     		movs	r1, #3
 2029 046e D971     		strb	r1, [r3, #7]
 2030              	.LVL293:
 2031 0470 0824     		movs	r4, #8
 2032              	.LVL294:
 2033              	.L153:
 202:.\RFPoll.c    ****                     for(x=9;x < 14 ; x++ ){
 2034              		.loc 1 202 0
 2035 0472 474B     		ldr	r3, .L203
 2036 0474 93F80801 		ldrb	r0, [r3, #264]	@ zero_extendqisi2
 2037 0478 8242     		cmp	r2, r0
ARM GAS  C:\Users\RECEPC~1\AppData\Local\Temp\ccIFDC7N.s 			page 51


 2038 047a 23D1     		bne	.L156
 2039 047c 0BE0     		b	.L197
 2040              	.LVL295:
 2041              	.L157:
 204:.\RFPoll.c    ****                     }
 2042              		.loc 1 204 0 discriminator 3
 2043 047e 464D     		ldr	r5, .L203+8
 2044 0480 2E7A     		ldrb	r6, [r5, #8]	@ zero_extendqisi2
 2045 0482 ED5C     		ldrb	r5, [r5, r3]	@ zero_extendqisi2
 2046 0484 4249     		ldr	r1, .L203
 2047 0486 01EBC601 		add	r1, r1, r6, lsl #3
 2048 048a 1944     		add	r1, r1, r3
 2049 048c 81F8B451 		strb	r5, [r1, #436]
 203:.\RFPoll.c    ****                         side.b.ppuAuthorized[buffer_rf[8]][x-9] = buffer_rf[x];
 2050              		.loc 1 203 0 discriminator 3
 2051 0490 0133     		adds	r3, r3, #1
 2052              	.LVL296:
 2053 0492 9BB2     		uxth	r3, r3
 2054              	.LVL297:
 2055 0494 00E0     		b	.L155
 2056              	.LVL298:
 2057              	.L197:
 2058 0496 0923     		movs	r3, #9
 2059              	.L155:
 2060              	.LVL299:
 203:.\RFPoll.c    ****                         side.b.ppuAuthorized[buffer_rf[8]][x-9] = buffer_rf[x];
 2061              		.loc 1 203 0 is_stmt 0 discriminator 1
 2062 0498 0D2B     		cmp	r3, #13
 2063 049a F0D9     		bls	.L157
 206:.\RFPoll.c    ****                     side.b.grade = buffer_rf[8];
 2064              		.loc 1 206 0 is_stmt 1
 2065 049c 3C4B     		ldr	r3, .L203
 2066              	.LVL300:
 2067 049e 0121     		movs	r1, #1
 2068 04a0 83F80D12 		strb	r1, [r3, #525]
 207:.\RFPoll.c    ****                     buffer_tx[5] = side.b.dir; y++;
 2069              		.loc 1 207 0
 2070 04a4 3C49     		ldr	r1, .L203+8
 2071 04a6 097A     		ldrb	r1, [r1, #8]	@ zero_extendqisi2
 2072 04a8 83F80E12 		strb	r1, [r3, #526]
 208:.\RFPoll.c    ****                     buffer_tx[y] = 0xA6;y++;
 2073              		.loc 1 208 0
 2074 04ac 3949     		ldr	r1, .L203+4
 2075 04ae 4871     		strb	r0, [r1, #5]
 2076 04b0 631C     		adds	r3, r4, #1
 2077 04b2 9BB2     		uxth	r3, r3
 2078              	.LVL301:
 209:.\RFPoll.c    ****                     buffer_tx[y] = 0x03;y++;
 2079              		.loc 1 209 0
 2080 04b4 A620     		movs	r0, #166
 2081 04b6 C854     		strb	r0, [r1, r3]
 2082 04b8 0133     		adds	r3, r3, #1
 2083              	.LVL302:
 2084 04ba 9BB2     		uxth	r3, r3
 2085              	.LVL303:
 210:.\RFPoll.c    ****                 } 
 2086              		.loc 1 210 0
ARM GAS  C:\Users\RECEPC~1\AppData\Local\Temp\ccIFDC7N.s 			page 52


 2087 04bc 0320     		movs	r0, #3
 2088 04be C854     		strb	r0, [r1, r3]
 2089 04c0 0133     		adds	r3, r3, #1
 2090              	.LVL304:
 2091 04c2 9CB2     		uxth	r4, r3
 2092              	.LVL305:
 2093              	.L156:
 212:.\RFPoll.c    ****                     for(x=9;x < 14 ; x++ ){
 2094              		.loc 1 212 0
 2095 04c4 324B     		ldr	r3, .L203
 2096 04c6 93F81002 		ldrb	r0, [r3, #528]	@ zero_extendqisi2
 2097 04ca 8242     		cmp	r2, r0
 2098 04cc 23D1     		bne	.L159
 2099 04ce 0BE0     		b	.L198
 2100              	.LVL306:
 2101              	.L160:
 214:.\RFPoll.c    ****                     }
 2102              		.loc 1 214 0 discriminator 3
 2103 04d0 314D     		ldr	r5, .L203+8
 2104 04d2 2E7A     		ldrb	r6, [r5, #8]	@ zero_extendqisi2
 2105 04d4 ED5C     		ldrb	r5, [r5, r3]	@ zero_extendqisi2
 2106 04d6 2E49     		ldr	r1, .L203
 2107 04d8 01EBC601 		add	r1, r1, r6, lsl #3
 2108 04dc 1944     		add	r1, r1, r3
 2109 04de 81F8BC52 		strb	r5, [r1, #700]
 213:.\RFPoll.c    ****                         side.c.ppuAuthorized[buffer_rf[8]][x-9] = buffer_rf[x];
 2110              		.loc 1 213 0 discriminator 3
 2111 04e2 0133     		adds	r3, r3, #1
 2112              	.LVL307:
 2113 04e4 9BB2     		uxth	r3, r3
 2114              	.LVL308:
 2115 04e6 00E0     		b	.L158
 2116              	.LVL309:
 2117              	.L198:
 2118 04e8 0923     		movs	r3, #9
 2119              	.L158:
 2120              	.LVL310:
 213:.\RFPoll.c    ****                         side.c.ppuAuthorized[buffer_rf[8]][x-9] = buffer_rf[x];
 2121              		.loc 1 213 0 is_stmt 0 discriminator 1
 2122 04ea 0D2B     		cmp	r3, #13
 2123 04ec F0D9     		bls	.L160
 216:.\RFPoll.c    ****                     side.c.grade = buffer_rf[8];
 2124              		.loc 1 216 0 is_stmt 1
 2125 04ee 284B     		ldr	r3, .L203
 2126              	.LVL311:
 2127 04f0 0121     		movs	r1, #1
 2128 04f2 83F81513 		strb	r1, [r3, #789]
 217:.\RFPoll.c    ****                     buffer_tx[5] = side.c.dir; y++;
 2129              		.loc 1 217 0
 2130 04f6 2849     		ldr	r1, .L203+8
 2131 04f8 097A     		ldrb	r1, [r1, #8]	@ zero_extendqisi2
 2132 04fa 83F81613 		strb	r1, [r3, #790]
 218:.\RFPoll.c    ****                     buffer_tx[y] = 0xA6;y++;
 2133              		.loc 1 218 0
 2134 04fe 2549     		ldr	r1, .L203+4
 2135 0500 4871     		strb	r0, [r1, #5]
 2136 0502 631C     		adds	r3, r4, #1
ARM GAS  C:\Users\RECEPC~1\AppData\Local\Temp\ccIFDC7N.s 			page 53


 2137 0504 9BB2     		uxth	r3, r3
 2138              	.LVL312:
 219:.\RFPoll.c    ****                     buffer_tx[y] = 0x03;y++;
 2139              		.loc 1 219 0
 2140 0506 A620     		movs	r0, #166
 2141 0508 C854     		strb	r0, [r1, r3]
 2142 050a 0133     		adds	r3, r3, #1
 2143              	.LVL313:
 2144 050c 9BB2     		uxth	r3, r3
 2145              	.LVL314:
 220:.\RFPoll.c    ****                 } 
 2146              		.loc 1 220 0
 2147 050e 0320     		movs	r0, #3
 2148 0510 C854     		strb	r0, [r1, r3]
 2149 0512 0133     		adds	r3, r3, #1
 2150              	.LVL315:
 2151 0514 9CB2     		uxth	r4, r3
 2152              	.LVL316:
 2153              	.L159:
 222:.\RFPoll.c    ****                     for(x=9;x < 14 ; x++ ){
 2154              		.loc 1 222 0
 2155 0516 1E4B     		ldr	r3, .L203
 2156 0518 93F81813 		ldrb	r1, [r3, #792]	@ zero_extendqisi2
 2157 051c 8A42     		cmp	r2, r1
 2158 051e 23D1     		bne	.L162
 2159 0520 0BE0     		b	.L199
 2160              	.LVL317:
 2161              	.L163:
 224:.\RFPoll.c    ****                     }
 2162              		.loc 1 224 0 discriminator 3
 2163 0522 1D48     		ldr	r0, .L203+8
 2164 0524 057A     		ldrb	r5, [r0, #8]	@ zero_extendqisi2
 2165 0526 C05C     		ldrb	r0, [r0, r3]	@ zero_extendqisi2
 2166 0528 194A     		ldr	r2, .L203
 2167 052a 02EBC502 		add	r2, r2, r5, lsl #3
 2168 052e 1A44     		add	r2, r2, r3
 2169 0530 82F8C403 		strb	r0, [r2, #964]
 223:.\RFPoll.c    ****                         side.d.ppuAuthorized[buffer_rf[8]][x-9] = buffer_rf[x];
 2170              		.loc 1 223 0 discriminator 3
 2171 0534 0133     		adds	r3, r3, #1
 2172              	.LVL318:
 2173 0536 9BB2     		uxth	r3, r3
 2174              	.LVL319:
 2175 0538 00E0     		b	.L161
 2176              	.LVL320:
 2177              	.L199:
 2178 053a 0923     		movs	r3, #9
 2179              	.L161:
 2180              	.LVL321:
 223:.\RFPoll.c    ****                         side.d.ppuAuthorized[buffer_rf[8]][x-9] = buffer_rf[x];
 2181              		.loc 1 223 0 is_stmt 0 discriminator 1
 2182 053c 0D2B     		cmp	r3, #13
 2183 053e F0D9     		bls	.L163
 226:.\RFPoll.c    ****                     side.d.grade = buffer_rf[8];
 2184              		.loc 1 226 0 is_stmt 1
 2185 0540 134B     		ldr	r3, .L203
 2186              	.LVL322:
ARM GAS  C:\Users\RECEPC~1\AppData\Local\Temp\ccIFDC7N.s 			page 54


 2187 0542 0122     		movs	r2, #1
 2188 0544 83F81D24 		strb	r2, [r3, #1053]
 227:.\RFPoll.c    ****                     buffer_tx[5] = side.d.dir; y++;
 2189              		.loc 1 227 0
 2190 0548 134A     		ldr	r2, .L203+8
 2191 054a 127A     		ldrb	r2, [r2, #8]	@ zero_extendqisi2
 2192 054c 83F81E24 		strb	r2, [r3, #1054]
 228:.\RFPoll.c    ****                     buffer_tx[y] = 0xA6;y++;
 2193              		.loc 1 228 0
 2194 0550 104A     		ldr	r2, .L203+4
 2195 0552 5171     		strb	r1, [r2, #5]
 2196 0554 631C     		adds	r3, r4, #1
 2197 0556 9BB2     		uxth	r3, r3
 2198              	.LVL323:
 229:.\RFPoll.c    ****                     buffer_tx[y] = 0x03;y++;
 2199              		.loc 1 229 0
 2200 0558 A621     		movs	r1, #166
 2201 055a D154     		strb	r1, [r2, r3]
 2202 055c 0133     		adds	r3, r3, #1
 2203              	.LVL324:
 2204 055e 9BB2     		uxth	r3, r3
 2205              	.LVL325:
 230:.\RFPoll.c    ****                 }
 2206              		.loc 1 230 0
 2207 0560 0321     		movs	r1, #3
 2208 0562 D154     		strb	r1, [r2, r3]
 2209 0564 0133     		adds	r3, r3, #1
 2210              	.LVL326:
 2211 0566 9CB2     		uxth	r4, r3
 2212              	.LVL327:
 2213              	.L162:
 232:.\RFPoll.c    ****                 for (x = 0; x < y; x++){
 2214              		.loc 1 232 0
 2215 0568 651C     		adds	r5, r4, #1
 2216 056a ADB2     		uxth	r5, r5
 2217 056c 094E     		ldr	r6, .L203+4
 2218 056e 3046     		mov	r0, r6
 2219 0570 2946     		mov	r1, r5
 2220 0572 FFF7FEFF 		bl	verificar_check
 2221              	.LVL328:
 2222 0576 3055     		strb	r0, [r6, r4]
 2223              	.LVL329:
 233:.\RFPoll.c    ****                     RF_Connection_PutChar(buffer_tx[x]);
 2224              		.loc 1 233 0
 2225 0578 0024     		movs	r4, #0
 2226 057a 05E0     		b	.L164
 2227              	.LVL330:
 2228              	.L165:
 234:.\RFPoll.c    ****                 }
 2229              		.loc 1 234 0 discriminator 3
 2230 057c 054B     		ldr	r3, .L203+4
 2231 057e 185D     		ldrb	r0, [r3, r4]	@ zero_extendqisi2
 2232 0580 FFF7FEFF 		bl	RF_Connection_PutChar
 2233              	.LVL331:
 233:.\RFPoll.c    ****                     RF_Connection_PutChar(buffer_tx[x]);
 2234              		.loc 1 233 0 discriminator 3
 2235 0584 0134     		adds	r4, r4, #1
ARM GAS  C:\Users\RECEPC~1\AppData\Local\Temp\ccIFDC7N.s 			page 55


 2236              	.LVL332:
 2237 0586 A4B2     		uxth	r4, r4
 2238              	.LVL333:
 2239              	.L164:
 233:.\RFPoll.c    ****                     RF_Connection_PutChar(buffer_tx[x]);
 2240              		.loc 1 233 0 is_stmt 0 discriminator 1
 2241 0588 AC42     		cmp	r4, r5
 2242 058a F7D3     		bcc	.L165
 2243 058c 16E1     		b	.L97
 2244              	.L204:
 2245 058e 00BF     		.align	2
 2246              	.L203:
 2247 0590 00000000 		.word	side
 2248 0594 00000000 		.word	buffer_tx
 2249 0598 00000000 		.word	buffer_rf
 2250 059c 00000000 		.word	digits
 2251              	.LVL334:
 2252              	.L104:
 240:.\RFPoll.c    ****                     buffer_tx[5] = side.a.dir;
 2253              		.loc 1 240 0 is_stmt 1
 2254 05a0 884B     		ldr	r3, .L205
 2255 05a2 5B79     		ldrb	r3, [r3, #5]	@ zero_extendqisi2
 2256 05a4 884A     		ldr	r2, .L205+4
 2257 05a6 1178     		ldrb	r1, [r2]	@ zero_extendqisi2
 2258 05a8 8B42     		cmp	r3, r1
 2259 05aa 07D1     		bne	.L166
 241:.\RFPoll.c    ****                     buffer_tx[6] = 0xA7;
 2260              		.loc 1 241 0
 2261 05ac 874A     		ldr	r2, .L205+8
 2262 05ae 5171     		strb	r1, [r2, #5]
 242:.\RFPoll.c    ****                     buffer_tx[7] = side.a.rfState;
 2263              		.loc 1 242 0
 2264 05b0 A721     		movs	r1, #167
 2265 05b2 9171     		strb	r1, [r2, #6]
 243:.\RFPoll.c    ****                 }  
 2266              		.loc 1 243 0
 2267 05b4 8449     		ldr	r1, .L205+4
 2268 05b6 91F80311 		ldrb	r1, [r1, #259]	@ zero_extendqisi2
 2269 05ba D171     		strb	r1, [r2, #7]
 2270              	.L166:
 245:.\RFPoll.c    ****                     buffer_tx[5] = side.b.dir;
 2271              		.loc 1 245 0
 2272 05bc 824A     		ldr	r2, .L205+4
 2273 05be 92F80811 		ldrb	r1, [r2, #264]	@ zero_extendqisi2
 2274 05c2 8B42     		cmp	r3, r1
 2275 05c4 07D1     		bne	.L167
 246:.\RFPoll.c    ****                     buffer_tx[6] = 0xA7;
 2276              		.loc 1 246 0
 2277 05c6 814A     		ldr	r2, .L205+8
 2278 05c8 5171     		strb	r1, [r2, #5]
 247:.\RFPoll.c    ****                     buffer_tx[7] = side.b.rfState;
 2279              		.loc 1 247 0
 2280 05ca A721     		movs	r1, #167
 2281 05cc 9171     		strb	r1, [r2, #6]
 248:.\RFPoll.c    ****                 }
 2282              		.loc 1 248 0
 2283 05ce 7E49     		ldr	r1, .L205+4
ARM GAS  C:\Users\RECEPC~1\AppData\Local\Temp\ccIFDC7N.s 			page 56


 2284 05d0 91F80B12 		ldrb	r1, [r1, #523]	@ zero_extendqisi2
 2285 05d4 D171     		strb	r1, [r2, #7]
 2286              	.L167:
 250:.\RFPoll.c    ****                     buffer_tx[5] = side.c.dir;
 2287              		.loc 1 250 0
 2288 05d6 7C4A     		ldr	r2, .L205+4
 2289 05d8 92F81012 		ldrb	r1, [r2, #528]	@ zero_extendqisi2
 2290 05dc 8B42     		cmp	r3, r1
 2291 05de 07D1     		bne	.L168
 251:.\RFPoll.c    ****                     buffer_tx[6] = 0xA7;
 2292              		.loc 1 251 0
 2293 05e0 7A4A     		ldr	r2, .L205+8
 2294 05e2 5171     		strb	r1, [r2, #5]
 252:.\RFPoll.c    ****                     buffer_tx[7] = side.c.rfState;
 2295              		.loc 1 252 0
 2296 05e4 A721     		movs	r1, #167
 2297 05e6 9171     		strb	r1, [r2, #6]
 253:.\RFPoll.c    ****                 }
 2298              		.loc 1 253 0
 2299 05e8 7749     		ldr	r1, .L205+4
 2300 05ea 91F81313 		ldrb	r1, [r1, #787]	@ zero_extendqisi2
 2301 05ee D171     		strb	r1, [r2, #7]
 2302              	.L168:
 255:.\RFPoll.c    ****                     buffer_tx[5] = side.d.dir;
 2303              		.loc 1 255 0
 2304 05f0 754A     		ldr	r2, .L205+4
 2305 05f2 92F81823 		ldrb	r2, [r2, #792]	@ zero_extendqisi2
 2306 05f6 9342     		cmp	r3, r2
 2307 05f8 07D1     		bne	.L169
 256:.\RFPoll.c    ****                     buffer_tx[6] = 0xA7;
 2308              		.loc 1 256 0
 2309 05fa 744B     		ldr	r3, .L205+8
 2310 05fc 5A71     		strb	r2, [r3, #5]
 257:.\RFPoll.c    ****                     buffer_tx[7] = side.d.rfState;
 2311              		.loc 1 257 0
 2312 05fe A722     		movs	r2, #167
 2313 0600 9A71     		strb	r2, [r3, #6]
 258:.\RFPoll.c    ****                 }
 2314              		.loc 1 258 0
 2315 0602 714A     		ldr	r2, .L205+4
 2316 0604 92F81B24 		ldrb	r2, [r2, #1051]	@ zero_extendqisi2
 2317 0608 DA71     		strb	r2, [r3, #7]
 2318              	.L169:
 260:.\RFPoll.c    ****                 for (x = 0; x < 9; x++){
 2319              		.loc 1 260 0
 2320 060a 704C     		ldr	r4, .L205+8
 2321              	.LVL335:
 2322 060c 2046     		mov	r0, r4
 2323 060e 0921     		movs	r1, #9
 2324 0610 FFF7FEFF 		bl	verificar_check
 2325              	.LVL336:
 2326 0614 2072     		strb	r0, [r4, #8]
 2327              	.LVL337:
 261:.\RFPoll.c    ****                     RF_Connection_PutChar(buffer_tx[x]);
 2328              		.loc 1 261 0
 2329 0616 0024     		movs	r4, #0
 2330 0618 05E0     		b	.L170
ARM GAS  C:\Users\RECEPC~1\AppData\Local\Temp\ccIFDC7N.s 			page 57


 2331              	.LVL338:
 2332              	.L171:
 262:.\RFPoll.c    ****                 }
 2333              		.loc 1 262 0 discriminator 3
 2334 061a 6C4B     		ldr	r3, .L205+8
 2335 061c 185D     		ldrb	r0, [r3, r4]	@ zero_extendqisi2
 2336 061e FFF7FEFF 		bl	RF_Connection_PutChar
 2337              	.LVL339:
 261:.\RFPoll.c    ****                     RF_Connection_PutChar(buffer_tx[x]);
 2338              		.loc 1 261 0 discriminator 3
 2339 0622 0134     		adds	r4, r4, #1
 2340              	.LVL340:
 2341 0624 A4B2     		uxth	r4, r4
 2342              	.LVL341:
 2343              	.L170:
 261:.\RFPoll.c    ****                     RF_Connection_PutChar(buffer_tx[x]);
 2344              		.loc 1 261 0 is_stmt 0 discriminator 1
 2345 0626 082C     		cmp	r4, #8
 2346 0628 F7D9     		bls	.L171
 2347 062a C7E0     		b	.L97
 2348              	.LVL342:
 2349              	.L102:
 271:.\RFPoll.c    ****                 date[0]    = buffer_rf[9];
 2350              		.loc 1 271 0 is_stmt 1
 2351 062c 654B     		ldr	r3, .L205
 2352 062e 197A     		ldrb	r1, [r3, #8]	@ zero_extendqisi2
 2353 0630 674A     		ldr	r2, .L205+12
 2354 0632 5170     		strb	r1, [r2, #1]
 272:.\RFPoll.c    ****                 date[1]    = buffer_rf[10];
 2355              		.loc 1 272 0
 2356 0634 597A     		ldrb	r1, [r3, #9]	@ zero_extendqisi2
 2357 0636 674A     		ldr	r2, .L205+16
 2358 0638 1170     		strb	r1, [r2]
 273:.\RFPoll.c    ****                 date[2]    = buffer_rf[11];
 2359              		.loc 1 273 0
 2360 063a 997A     		ldrb	r1, [r3, #10]	@ zero_extendqisi2
 2361 063c 5170     		strb	r1, [r2, #1]
 274:.\RFPoll.c    ****                 time[1]    = buffer_rf[12];
 2362              		.loc 1 274 0
 2363 063e D97A     		ldrb	r1, [r3, #11]	@ zero_extendqisi2
 2364 0640 9170     		strb	r1, [r2, #2]
 275:.\RFPoll.c    ****                 time[0]    = buffer_rf[13];
 2365              		.loc 1 275 0
 2366 0642 197B     		ldrb	r1, [r3, #12]	@ zero_extendqisi2
 2367 0644 644A     		ldr	r2, .L205+20
 2368 0646 5170     		strb	r1, [r2, #1]
 276:.\RFPoll.c    ****                 for(x = 17; x < 47; x++){
 2369              		.loc 1 276 0
 2370 0648 5B7B     		ldrb	r3, [r3, #13]	@ zero_extendqisi2
 2371 064a 1370     		strb	r3, [r2]
 2372              	.LVL343:
 277:.\RFPoll.c    ****                     Encabezado1[x-17] = buffer_rf[x];
 2373              		.loc 1 277 0
 2374 064c 1123     		movs	r3, #17
 2375 064e 07E0     		b	.L172
 2376              	.LVL344:
 2377              	.L173:
ARM GAS  C:\Users\RECEPC~1\AppData\Local\Temp\ccIFDC7N.s 			page 58


 278:.\RFPoll.c    ****                 }
 2378              		.loc 1 278 0 discriminator 3
 2379 0650 A3F11102 		sub	r2, r3, #17
 2380 0654 5B49     		ldr	r1, .L205
 2381 0656 C85C     		ldrb	r0, [r1, r3]	@ zero_extendqisi2
 2382 0658 6049     		ldr	r1, .L205+24
 2383 065a 8854     		strb	r0, [r1, r2]
 277:.\RFPoll.c    ****                     Encabezado1[x-17] = buffer_rf[x];
 2384              		.loc 1 277 0 discriminator 3
 2385 065c 0133     		adds	r3, r3, #1
 2386              	.LVL345:
 2387 065e 9BB2     		uxth	r3, r3
 2388              	.LVL346:
 2389              	.L172:
 277:.\RFPoll.c    ****                     Encabezado1[x-17] = buffer_rf[x];
 2390              		.loc 1 277 0 is_stmt 0 discriminator 1
 2391 0660 2E2B     		cmp	r3, #46
 2392 0662 F5D9     		bls	.L173
 2393 0664 2F23     		movs	r3, #47
 2394              	.LVL347:
 2395 0666 07E0     		b	.L174
 2396              	.LVL348:
 2397              	.L175:
 281:.\RFPoll.c    ****                 }
 2398              		.loc 1 281 0 is_stmt 1 discriminator 3
 2399 0668 A3F12F02 		sub	r2, r3, #47
 2400 066c 5549     		ldr	r1, .L205
 2401 066e C85C     		ldrb	r0, [r1, r3]	@ zero_extendqisi2
 2402 0670 5B49     		ldr	r1, .L205+28
 2403 0672 8854     		strb	r0, [r1, r2]
 280:.\RFPoll.c    ****                     Encabezado2[x-47] = buffer_rf[x];
 2404              		.loc 1 280 0 discriminator 3
 2405 0674 0133     		adds	r3, r3, #1
 2406              	.LVL349:
 2407 0676 9BB2     		uxth	r3, r3
 2408              	.LVL350:
 2409              	.L174:
 280:.\RFPoll.c    ****                     Encabezado2[x-47] = buffer_rf[x];
 2410              		.loc 1 280 0 is_stmt 0 discriminator 1
 2411 0678 4C2B     		cmp	r3, #76
 2412 067a F5D9     		bls	.L175
 2413 067c 4D23     		movs	r3, #77
 2414              	.LVL351:
 2415 067e 07E0     		b	.L176
 2416              	.LVL352:
 2417              	.L177:
 284:.\RFPoll.c    ****                 }
 2418              		.loc 1 284 0 is_stmt 1 discriminator 3
 2419 0680 A3F14D02 		sub	r2, r3, #77
 2420 0684 4F49     		ldr	r1, .L205
 2421 0686 C85C     		ldrb	r0, [r1, r3]	@ zero_extendqisi2
 2422 0688 5649     		ldr	r1, .L205+32
 2423 068a 8854     		strb	r0, [r1, r2]
 283:.\RFPoll.c    ****                     Encabezado3[x-77] = buffer_rf[x];
 2424              		.loc 1 283 0 discriminator 3
 2425 068c 0133     		adds	r3, r3, #1
 2426              	.LVL353:
ARM GAS  C:\Users\RECEPC~1\AppData\Local\Temp\ccIFDC7N.s 			page 59


 2427 068e 9BB2     		uxth	r3, r3
 2428              	.LVL354:
 2429              	.L176:
 283:.\RFPoll.c    ****                     Encabezado3[x-77] = buffer_rf[x];
 2430              		.loc 1 283 0 is_stmt 0 discriminator 1
 2431 0690 6A2B     		cmp	r3, #106
 2432 0692 F5D9     		bls	.L177
 2433 0694 6B23     		movs	r3, #107
 2434              	.LVL355:
 2435 0696 07E0     		b	.L178
 2436              	.LVL356:
 2437              	.L179:
 287:.\RFPoll.c    ****                 }
 2438              		.loc 1 287 0 is_stmt 1 discriminator 3
 2439 0698 A3F14D02 		sub	r2, r3, #77
 2440 069c 4949     		ldr	r1, .L205
 2441 069e C85C     		ldrb	r0, [r1, r3]	@ zero_extendqisi2
 2442 06a0 5149     		ldr	r1, .L205+36
 2443 06a2 8854     		strb	r0, [r1, r2]
 286:.\RFPoll.c    ****                     Encabezado4[x-77] = buffer_rf[x];
 2444              		.loc 1 286 0 discriminator 3
 2445 06a4 0133     		adds	r3, r3, #1
 2446              	.LVL357:
 2447 06a6 9BB2     		uxth	r3, r3
 2448              	.LVL358:
 2449              	.L178:
 286:.\RFPoll.c    ****                     Encabezado4[x-77] = buffer_rf[x];
 2450              		.loc 1 286 0 is_stmt 0 discriminator 1
 2451 06a8 882B     		cmp	r3, #136
 2452 06aa F5D9     		bls	.L179
 289:.\RFPoll.c    ****                 write_hora();
 2453              		.loc 1 289 0 is_stmt 1
 2454 06ac 454B     		ldr	r3, .L205
 2455              	.LVL359:
 2456 06ae 1A7C     		ldrb	r2, [r3, #16]	@ zero_extendqisi2
 2457 06b0 4E4B     		ldr	r3, .L205+40
 2458 06b2 1A70     		strb	r2, [r3]
 290:.\RFPoll.c    ****                 write_fecha(); 
 2459              		.loc 1 290 0
 2460 06b4 FFF7FEFF 		bl	write_hora
 2461              	.LVL360:
 291:.\RFPoll.c    ****                 for(x =0 ; x <30; x++){
 2462              		.loc 1 291 0
 2463 06b8 FFF7FEFF 		bl	write_fecha
 2464              	.LVL361:
 292:.\RFPoll.c    ****                     EEPROM_1_WriteByte(Encabezado1[x],16+x);
 2465              		.loc 1 292 0
 2466 06bc 0024     		movs	r4, #0
 2467              	.LVL362:
 2468 06be 08E0     		b	.L180
 2469              	.LVL363:
 2470              	.L181:
 293:.\RFPoll.c    ****                 }
 2471              		.loc 1 293 0 discriminator 3
 2472 06c0 04F11001 		add	r1, r4, #16
 2473 06c4 454B     		ldr	r3, .L205+24
 2474 06c6 185D     		ldrb	r0, [r3, r4]	@ zero_extendqisi2
ARM GAS  C:\Users\RECEPC~1\AppData\Local\Temp\ccIFDC7N.s 			page 60


 2475 06c8 89B2     		uxth	r1, r1
 2476 06ca FFF7FEFF 		bl	EEPROM_1_WriteByte
 2477              	.LVL364:
 292:.\RFPoll.c    ****                     EEPROM_1_WriteByte(Encabezado1[x],16+x);
 2478              		.loc 1 292 0 discriminator 3
 2479 06ce 0134     		adds	r4, r4, #1
 2480              	.LVL365:
 2481 06d0 A4B2     		uxth	r4, r4
 2482              	.LVL366:
 2483              	.L180:
 292:.\RFPoll.c    ****                     EEPROM_1_WriteByte(Encabezado1[x],16+x);
 2484              		.loc 1 292 0 is_stmt 0 discriminator 1
 2485 06d2 1D2C     		cmp	r4, #29
 2486 06d4 F4D9     		bls	.L181
 2487 06d6 1E24     		movs	r4, #30
 2488              	.LVL367:
 2489 06d8 0AE0     		b	.L182
 2490              	.LVL368:
 2491              	.L183:
 296:.\RFPoll.c    ****                 }
 2492              		.loc 1 296 0 is_stmt 1 discriminator 3
 2493 06da A4F11E03 		sub	r3, r4, #30
 2494 06de 04F11001 		add	r1, r4, #16
 2495 06e2 3F4A     		ldr	r2, .L205+28
 2496 06e4 D05C     		ldrb	r0, [r2, r3]	@ zero_extendqisi2
 2497 06e6 89B2     		uxth	r1, r1
 2498 06e8 FFF7FEFF 		bl	EEPROM_1_WriteByte
 2499              	.LVL369:
 295:.\RFPoll.c    ****                     EEPROM_1_WriteByte(Encabezado2[x-30],16+x);
 2500              		.loc 1 295 0 discriminator 3
 2501 06ec 0134     		adds	r4, r4, #1
 2502              	.LVL370:
 2503 06ee A4B2     		uxth	r4, r4
 2504              	.LVL371:
 2505              	.L182:
 295:.\RFPoll.c    ****                     EEPROM_1_WriteByte(Encabezado2[x-30],16+x);
 2506              		.loc 1 295 0 is_stmt 0 discriminator 1
 2507 06f0 3B2C     		cmp	r4, #59
 2508 06f2 F2D9     		bls	.L183
 2509 06f4 3C24     		movs	r4, #60
 2510              	.LVL372:
 2511 06f6 0AE0     		b	.L184
 2512              	.LVL373:
 2513              	.L185:
 299:.\RFPoll.c    ****                 }
 2514              		.loc 1 299 0 is_stmt 1 discriminator 3
 2515 06f8 A4F11E03 		sub	r3, r4, #30
 2516 06fc 04F11001 		add	r1, r4, #16
 2517 0700 384A     		ldr	r2, .L205+32
 2518 0702 D05C     		ldrb	r0, [r2, r3]	@ zero_extendqisi2
 2519 0704 89B2     		uxth	r1, r1
 2520 0706 FFF7FEFF 		bl	EEPROM_1_WriteByte
 2521              	.LVL374:
 298:.\RFPoll.c    ****                     EEPROM_1_WriteByte(Encabezado3[x-30],16+x);
 2522              		.loc 1 298 0 discriminator 3
 2523 070a 0134     		adds	r4, r4, #1
 2524              	.LVL375:
ARM GAS  C:\Users\RECEPC~1\AppData\Local\Temp\ccIFDC7N.s 			page 61


 2525 070c A4B2     		uxth	r4, r4
 2526              	.LVL376:
 2527              	.L184:
 298:.\RFPoll.c    ****                     EEPROM_1_WriteByte(Encabezado3[x-30],16+x);
 2528              		.loc 1 298 0 is_stmt 0 discriminator 1
 2529 070e 592C     		cmp	r4, #89
 2530 0710 F2D9     		bls	.L185
 2531 0712 5A24     		movs	r4, #90
 2532              	.LVL377:
 2533 0714 0AE0     		b	.L186
 2534              	.LVL378:
 2535              	.L187:
 302:.\RFPoll.c    ****                 }
 2536              		.loc 1 302 0 is_stmt 1 discriminator 3
 2537 0716 A4F11E03 		sub	r3, r4, #30
 2538 071a 04F11001 		add	r1, r4, #16
 2539 071e 324A     		ldr	r2, .L205+36
 2540 0720 D05C     		ldrb	r0, [r2, r3]	@ zero_extendqisi2
 2541 0722 89B2     		uxth	r1, r1
 2542 0724 FFF7FEFF 		bl	EEPROM_1_WriteByte
 2543              	.LVL379:
 301:.\RFPoll.c    ****                     EEPROM_1_WriteByte(Encabezado4[x-30],16+x);
 2544              		.loc 1 301 0 discriminator 3
 2545 0728 0134     		adds	r4, r4, #1
 2546              	.LVL380:
 2547 072a A4B2     		uxth	r4, r4
 2548              	.LVL381:
 2549              	.L186:
 301:.\RFPoll.c    ****                     EEPROM_1_WriteByte(Encabezado4[x-30],16+x);
 2550              		.loc 1 301 0 is_stmt 0 discriminator 1
 2551 072c 772C     		cmp	r4, #119
 2552 072e F2D9     		bls	.L187
 304:.\RFPoll.c    ****                 side.b.dir = EEPROM_1_ReadByte(13);
 2553              		.loc 1 304 0 is_stmt 1
 2554 0730 0C20     		movs	r0, #12
 2555 0732 FFF7FEFF 		bl	EEPROM_1_ReadByte
 2556              	.LVL382:
 2557 0736 244C     		ldr	r4, .L205+4
 2558              	.LVL383:
 2559 0738 2070     		strb	r0, [r4]
 305:.\RFPoll.c    ****                 side.c.dir = EEPROM_1_ReadByte(14);
 2560              		.loc 1 305 0
 2561 073a 0D20     		movs	r0, #13
 2562 073c FFF7FEFF 		bl	EEPROM_1_ReadByte
 2563              	.LVL384:
 2564 0740 84F80801 		strb	r0, [r4, #264]
 306:.\RFPoll.c    ****                 side.d.dir = EEPROM_1_ReadByte(15);
 2565              		.loc 1 306 0
 2566 0744 0E20     		movs	r0, #14
 2567 0746 FFF7FEFF 		bl	EEPROM_1_ReadByte
 2568              	.LVL385:
 2569 074a 84F81002 		strb	r0, [r4, #528]
 307:.\RFPoll.c    ****                 imprimir(printPortA,side.a.dir);
 2570              		.loc 1 307 0
 2571 074e 0F20     		movs	r0, #15
 2572 0750 FFF7FEFF 		bl	EEPROM_1_ReadByte
 2573              	.LVL386:
ARM GAS  C:\Users\RECEPC~1\AppData\Local\Temp\ccIFDC7N.s 			page 62


 2574 0754 84F81803 		strb	r0, [r4, #792]
 308:.\RFPoll.c    ****                break;
 2575              		.loc 1 308 0
 2576 0758 254B     		ldr	r3, .L205+44
 2577 075a 1878     		ldrb	r0, [r3]	@ zero_extendqisi2
 2578 075c 2178     		ldrb	r1, [r4]	@ zero_extendqisi2
 2579 075e FFF7FEFF 		bl	imprimir
 2580              	.LVL387:
 309:.\RFPoll.c    ****                
 2581              		.loc 1 309 0
 2582 0762 2BE0     		b	.L97
 2583              	.LVL388:
 2584              	.L103:
 312:.\RFPoll.c    ****                 buffer_tx[6] = 0xE2;
 2585              		.loc 1 312 0
 2586 0764 174B     		ldr	r3, .L205
 2587 0766 5B79     		ldrb	r3, [r3, #5]	@ zero_extendqisi2
 2588 0768 184C     		ldr	r4, .L205+8
 2589              	.LVL389:
 2590 076a 6371     		strb	r3, [r4, #5]
 313:.\RFPoll.c    ****                 buffer_tx[7] = 0x08;
 2591              		.loc 1 313 0
 2592 076c E223     		movs	r3, #226
 2593 076e A371     		strb	r3, [r4, #6]
 314:.\RFPoll.c    ****                 buffer_tx[8] = 0x03;
 2594              		.loc 1 314 0
 2595 0770 0823     		movs	r3, #8
 2596 0772 E371     		strb	r3, [r4, #7]
 315:.\RFPoll.c    ****                 buffer_tx[9] = verificar_check(buffer_tx,10);
 2597              		.loc 1 315 0
 2598 0774 0323     		movs	r3, #3
 2599 0776 2372     		strb	r3, [r4, #8]
 316:.\RFPoll.c    ****                 for (x = 0; x < 10; x++){
 2600              		.loc 1 316 0
 2601 0778 2046     		mov	r0, r4
 2602 077a 0A21     		movs	r1, #10
 2603 077c FFF7FEFF 		bl	verificar_check
 2604              	.LVL390:
 2605 0780 6072     		strb	r0, [r4, #9]
 2606              	.LVL391:
 317:.\RFPoll.c    ****                     RF_Connection_PutChar(buffer_tx[x]);
 2607              		.loc 1 317 0
 2608 0782 0024     		movs	r4, #0
 2609 0784 05E0     		b	.L188
 2610              	.LVL392:
 2611              	.L189:
 318:.\RFPoll.c    ****                 }
 2612              		.loc 1 318 0 discriminator 3
 2613 0786 114B     		ldr	r3, .L205+8
 2614 0788 185D     		ldrb	r0, [r3, r4]	@ zero_extendqisi2
 2615 078a FFF7FEFF 		bl	RF_Connection_PutChar
 2616              	.LVL393:
 317:.\RFPoll.c    ****                     RF_Connection_PutChar(buffer_tx[x]);
 2617              		.loc 1 317 0 discriminator 3
 2618 078e 0134     		adds	r4, r4, #1
 2619              	.LVL394:
 2620 0790 A4B2     		uxth	r4, r4
ARM GAS  C:\Users\RECEPC~1\AppData\Local\Temp\ccIFDC7N.s 			page 63


 2621              	.LVL395:
 2622              	.L188:
 317:.\RFPoll.c    ****                     RF_Connection_PutChar(buffer_tx[x]);
 2623              		.loc 1 317 0 is_stmt 0 discriminator 1
 2624 0792 092C     		cmp	r4, #9
 2625 0794 F7D9     		bls	.L189
 2626 0796 0823     		movs	r3, #8
 2627 0798 07E0     		b	.L190
 2628              	.LVL396:
 2629              	.L191:
 321:.\RFPoll.c    ****                 }
 2630              		.loc 1 321 0 is_stmt 1 discriminator 3
 2631 079a A3F10802 		sub	r2, r3, #8
 2632 079e 0949     		ldr	r1, .L205
 2633 07a0 C85C     		ldrb	r0, [r1, r3]	@ zero_extendqisi2
 2634 07a2 1449     		ldr	r1, .L205+48
 2635 07a4 8854     		strb	r0, [r1, r2]
 320:.\RFPoll.c    ****                     GradesHose[x-8] = buffer_rf[x];
 2636              		.loc 1 320 0 discriminator 3
 2637 07a6 0133     		adds	r3, r3, #1
 2638              	.LVL397:
 2639 07a8 9BB2     		uxth	r3, r3
 2640              	.LVL398:
 2641              	.L190:
 320:.\RFPoll.c    ****                     GradesHose[x-8] = buffer_rf[x];
 2642              		.loc 1 320 0 is_stmt 0 discriminator 1
 2643 07aa 0B2B     		cmp	r3, #11
 2644 07ac F5D9     		bls	.L191
 323:.\RFPoll.c    ****                 EEPROM_1_WriteByte(lockTurn,7);
 2645              		.loc 1 323 0 is_stmt 1
 2646 07ae 054B     		ldr	r3, .L205
 2647              	.LVL399:
 2648 07b0 187B     		ldrb	r0, [r3, #12]	@ zero_extendqisi2
 2649 07b2 114B     		ldr	r3, .L205+52
 2650 07b4 1870     		strb	r0, [r3]
 324:.\RFPoll.c    ****                break;
 2651              		.loc 1 324 0
 2652 07b6 0721     		movs	r1, #7
 2653 07b8 FFF7FEFF 		bl	EEPROM_1_WriteByte
 2654              	.LVL400:
 2655              	.L97:
 328:.\RFPoll.c    ****     }                            
 2656              		.loc 1 328 0
 2657 07bc FFF7FEFF 		bl	RF_Connection_ClearRxBuffer
 2658              	.LVL401:
 2659              	.L93:
 2660 07c0 70BD     		pop	{r4, r5, r6, pc}
 2661              	.L206:
 2662 07c2 00BF     		.align	2
 2663              	.L205:
 2664 07c4 00000000 		.word	buffer_rf
 2665 07c8 00000000 		.word	side
 2666 07cc 00000000 		.word	buffer_tx
 2667 07d0 00000000 		.word	symbols
 2668 07d4 00000000 		.word	date
 2669 07d8 00000000 		.word	time
 2670 07dc 00000000 		.word	Encabezado1
ARM GAS  C:\Users\RECEPC~1\AppData\Local\Temp\ccIFDC7N.s 			page 64


 2671 07e0 00000000 		.word	Encabezado2
 2672 07e4 00000000 		.word	Encabezado3
 2673 07e8 00000000 		.word	Encabezado4
 2674 07ec 00000000 		.word	CopiasCredito
 2675 07f0 00000000 		.word	printPortA
 2676 07f4 00000000 		.word	GradesHose
 2677 07f8 00000000 		.word	lockTurn
 2678              		.cfi_endproc
 2679              	.LFE64:
 2680              		.size	pollingRF_Rx, .-pollingRF_Rx
 2681              		.comm	side,1056,4
 2682              		.comm	bufferDisplay4,332,4
 2683              		.comm	bufferDisplay3,332,4
 2684              		.comm	bufferDisplay2,332,4
 2685              		.comm	bufferDisplay1,332,4
 2686              		.comm	GradesHose,5,4
 2687              		.comm	CopiasCredito,1,1
 2688              		.comm	Encabezado4,30,4
 2689              		.comm	Encabezado3,30,4
 2690              		.comm	Encabezado2,30,4
 2691              		.comm	Encabezado1,30,4
 2692              		.comm	intIDStation,2,2
 2693              		.comm	buffer_txEOT,60,4
 2694              		.comm	buffer_txPreset,60,4
 2695              		.comm	buffer_tx,512,4
 2696              		.comm	buffer_rf,512,4
 2697              		.comm	printPortB,1,1
 2698              		.comm	printPortA,1,1
 2699              		.comm	pumpGap,3,4
 2700              		.comm	idStation,5,4
 2701              		.comm	controlChar,1,1
 2702              		.comm	configAccess,5,4
 2703              		.comm	count_protector2,1,1
 2704              		.comm	count_protector,1,1
 2705              		.comm	timeDownHandle,2,4
 2706              		.comm	dateDownHandle,3,4
 2707              		.comm	VolUnit,6,4
 2708              		.comm	PrinterType,1,1
 2709              		.comm	hiddenKeys,1,1
 2710              		.comm	digits,1,1
 2711              		.comm	lockTurn,1,1
 2712              		.comm	NumPositions,1,1
 2713              		.comm	statePump,4,4
 2714              		.comm	DDMode,1,1
 2715              		.comm	PPUDec,1,1
 2716              		.comm	VolDec,1,1
 2717              		.comm	MoneyDec,1,1
 2718              		.comm	ConversionFactor,1,1
 2719              		.comm	UnitType,1,1
 2720              		.comm	sizeSendB,1,1
 2721              		.comm	sizeSendA,1,1
 2722              		.comm	ShiftState,1,1
 2723              		.comm	CGrade,1,1
 2724              		.comm	tempPPU,5,4
 2725              		.comm	tempPreset,8,4
 2726              		.comm	temporal,30,4
 2727              		.comm	counterRF,1,1
ARM GAS  C:\Users\RECEPC~1\AppData\Local\Temp\ccIFDC7N.s 			page 65


 2728              		.comm	ActiveRF,1,1
 2729              		.comm	IDCast,2,4
 2730              		.comm	PlateRequest,1,1
 2731              		.comm	PrevStatePump,4,4
 2732              		.comm	stateBeagleSoft,1,1
 2733              		.comm	flagResetMux,1,1
 2734              		.comm	passwordSeller,8,4
 2735              		.comm	typeIdSeller,1,1
 2736              		.comm	idSeller,25,4
 2737              		.comm	residue,14,4
 2738              		.comm	screen,2,4
 2739              		.comm	date,3,4
 2740              		.comm	time,3,4
 2741              		.comm	symbols,2,4
 2742              		.comm	decimalVolume,1,1
 2743              		.comm	decimalMoney,1,1
 2744              		.comm	ppux10,1,1
 2745              		.comm	delayPicture2,4,4
 2746              		.comm	delayPicture1,4,4
 2747              		.comm	productNumber,1,1
 2748              		.comm	flagPoint2,1,1
 2749              		.comm	flagPoint1,1,1
 2750              		.comm	numberKeys2,1,1
 2751              		.comm	numberKeys1,1,1
 2752              		.comm	flowDisplay4,4,4
 2753              		.comm	flowDisplay3,4,4
 2754              		.comm	flowDisplay2,4,4
 2755              		.comm	flowDisplay1,4,4
 2756              		.comm	countLCD,8,8
 2757              		.comm	countPump,8,8
 2758              		.comm	countTX,8,8
 2759              		.comm	countRX,8,8
 2760              		.comm	countAnimation2,8,8
 2761              		.comm	countAnimation1,8,8
 2762              		.section	.rodata
 2763              		.align	2
 2764              		.set	.LANCHOR0,. + 0
 2765              	.LC0:
 2766 0000 00       		.byte	0
 2767 0001 5E       		.byte	94
 2768 0002 BC       		.byte	-68
 2769 0003 E2       		.byte	-30
 2770 0004 61       		.byte	97
 2771 0005 3F       		.byte	63
 2772 0006 DD       		.byte	-35
 2773 0007 83       		.byte	-125
 2774 0008 C2       		.byte	-62
 2775 0009 9C       		.byte	-100
 2776 000a 7E       		.byte	126
 2777 000b 20       		.byte	32
 2778 000c A3       		.byte	-93
 2779 000d FD       		.byte	-3
 2780 000e 1F       		.byte	31
 2781 000f 41       		.byte	65
 2782 0010 9D       		.byte	-99
 2783 0011 C3       		.byte	-61
 2784 0012 21       		.byte	33
ARM GAS  C:\Users\RECEPC~1\AppData\Local\Temp\ccIFDC7N.s 			page 66


 2785 0013 7F       		.byte	127
 2786 0014 FC       		.byte	-4
 2787 0015 A2       		.byte	-94
 2788 0016 40       		.byte	64
 2789 0017 1E       		.byte	30
 2790 0018 5F       		.byte	95
 2791 0019 01       		.byte	1
 2792 001a E3       		.byte	-29
 2793 001b BD       		.byte	-67
 2794 001c 3E       		.byte	62
 2795 001d 60       		.byte	96
 2796 001e 82       		.byte	-126
 2797 001f DC       		.byte	-36
 2798 0020 23       		.byte	35
 2799 0021 7D       		.byte	125
 2800 0022 9F       		.byte	-97
 2801 0023 C1       		.byte	-63
 2802 0024 42       		.byte	66
 2803 0025 1C       		.byte	28
 2804 0026 FE       		.byte	-2
 2805 0027 A0       		.byte	-96
 2806 0028 E1       		.byte	-31
 2807 0029 BF       		.byte	-65
 2808 002a 5D       		.byte	93
 2809 002b 03       		.byte	3
 2810 002c 80       		.byte	-128
 2811 002d DE       		.byte	-34
 2812 002e 3C       		.byte	60
 2813 002f 62       		.byte	98
 2814 0030 BE       		.byte	-66
 2815 0031 E0       		.byte	-32
 2816 0032 02       		.byte	2
 2817 0033 5C       		.byte	92
 2818 0034 DF       		.byte	-33
 2819 0035 81       		.byte	-127
 2820 0036 63       		.byte	99
 2821 0037 3D       		.byte	61
 2822 0038 7C       		.byte	124
 2823 0039 22       		.byte	34
 2824 003a C0       		.byte	-64
 2825 003b 9E       		.byte	-98
 2826 003c 1D       		.byte	29
 2827 003d 43       		.byte	67
 2828 003e A1       		.byte	-95
 2829 003f FF       		.byte	-1
 2830 0040 46       		.byte	70
 2831 0041 18       		.byte	24
 2832 0042 FA       		.byte	-6
 2833 0043 A4       		.byte	-92
 2834 0044 27       		.byte	39
 2835 0045 79       		.byte	121
 2836 0046 9B       		.byte	-101
 2837 0047 C5       		.byte	-59
 2838 0048 84       		.byte	-124
 2839 0049 DA       		.byte	-38
 2840 004a 38       		.byte	56
 2841 004b 66       		.byte	102
ARM GAS  C:\Users\RECEPC~1\AppData\Local\Temp\ccIFDC7N.s 			page 67


 2842 004c E5       		.byte	-27
 2843 004d BB       		.byte	-69
 2844 004e 59       		.byte	89
 2845 004f 07       		.byte	7
 2846 0050 DB       		.byte	-37
 2847 0051 85       		.byte	-123
 2848 0052 67       		.byte	103
 2849 0053 39       		.byte	57
 2850 0054 BA       		.byte	-70
 2851 0055 E4       		.byte	-28
 2852 0056 06       		.byte	6
 2853 0057 58       		.byte	88
 2854 0058 19       		.byte	25
 2855 0059 47       		.byte	71
 2856 005a A5       		.byte	-91
 2857 005b FB       		.byte	-5
 2858 005c 78       		.byte	120
 2859 005d 26       		.byte	38
 2860 005e C4       		.byte	-60
 2861 005f 9A       		.byte	-102
 2862 0060 65       		.byte	101
 2863 0061 3B       		.byte	59
 2864 0062 D9       		.byte	-39
 2865 0063 87       		.byte	-121
 2866 0064 04       		.byte	4
 2867 0065 5A       		.byte	90
 2868 0066 B8       		.byte	-72
 2869 0067 E6       		.byte	-26
 2870 0068 A7       		.byte	-89
 2871 0069 F9       		.byte	-7
 2872 006a 1B       		.byte	27
 2873 006b 45       		.byte	69
 2874 006c C6       		.byte	-58
 2875 006d 98       		.byte	-104
 2876 006e 7A       		.byte	122
 2877 006f 24       		.byte	36
 2878 0070 F8       		.byte	-8
 2879 0071 A6       		.byte	-90
 2880 0072 44       		.byte	68
 2881 0073 1A       		.byte	26
 2882 0074 99       		.byte	-103
 2883 0075 C7       		.byte	-57
 2884 0076 25       		.byte	37
 2885 0077 7B       		.byte	123
 2886 0078 3A       		.byte	58
 2887 0079 64       		.byte	100
 2888 007a 86       		.byte	-122
 2889 007b D8       		.byte	-40
 2890 007c 5B       		.byte	91
 2891 007d 05       		.byte	5
 2892 007e E7       		.byte	-25
 2893 007f B9       		.byte	-71
 2894 0080 8C       		.byte	-116
 2895 0081 D2       		.byte	-46
 2896 0082 30       		.byte	48
 2897 0083 6E       		.byte	110
 2898 0084 ED       		.byte	-19
ARM GAS  C:\Users\RECEPC~1\AppData\Local\Temp\ccIFDC7N.s 			page 68


 2899 0085 B3       		.byte	-77
 2900 0086 51       		.byte	81
 2901 0087 0F       		.byte	15
 2902 0088 4E       		.byte	78
 2903 0089 10       		.byte	16
 2904 008a F2       		.byte	-14
 2905 008b AC       		.byte	-84
 2906 008c 2F       		.byte	47
 2907 008d 71       		.byte	113
 2908 008e 93       		.byte	-109
 2909 008f CD       		.byte	-51
 2910 0090 11       		.byte	17
 2911 0091 4F       		.byte	79
 2912 0092 AD       		.byte	-83
 2913 0093 F3       		.byte	-13
 2914 0094 70       		.byte	112
 2915 0095 2E       		.byte	46
 2916 0096 CC       		.byte	-52
 2917 0097 92       		.byte	-110
 2918 0098 D3       		.byte	-45
 2919 0099 8D       		.byte	-115
 2920 009a 6F       		.byte	111
 2921 009b 31       		.byte	49
 2922 009c B2       		.byte	-78
 2923 009d EC       		.byte	-20
 2924 009e 0E       		.byte	14
 2925 009f 50       		.byte	80
 2926 00a0 AF       		.byte	-81
 2927 00a1 F1       		.byte	-15
 2928 00a2 13       		.byte	19
 2929 00a3 4D       		.byte	77
 2930 00a4 CE       		.byte	-50
 2931 00a5 90       		.byte	-112
 2932 00a6 72       		.byte	114
 2933 00a7 2C       		.byte	44
 2934 00a8 6D       		.byte	109
 2935 00a9 33       		.byte	51
 2936 00aa D1       		.byte	-47
 2937 00ab 8F       		.byte	-113
 2938 00ac 0C       		.byte	12
 2939 00ad 52       		.byte	82
 2940 00ae B0       		.byte	-80
 2941 00af EE       		.byte	-18
 2942 00b0 32       		.byte	50
 2943 00b1 6C       		.byte	108
 2944 00b2 8E       		.byte	-114
 2945 00b3 D0       		.byte	-48
 2946 00b4 53       		.byte	83
 2947 00b5 0D       		.byte	13
 2948 00b6 EF       		.byte	-17
 2949 00b7 B1       		.byte	-79
 2950 00b8 F0       		.byte	-16
 2951 00b9 AE       		.byte	-82
 2952 00ba 4C       		.byte	76
 2953 00bb 12       		.byte	18
 2954 00bc 91       		.byte	-111
 2955 00bd CF       		.byte	-49
ARM GAS  C:\Users\RECEPC~1\AppData\Local\Temp\ccIFDC7N.s 			page 69


 2956 00be 2D       		.byte	45
 2957 00bf 73       		.byte	115
 2958 00c0 CA       		.byte	-54
 2959 00c1 94       		.byte	-108
 2960 00c2 76       		.byte	118
 2961 00c3 28       		.byte	40
 2962 00c4 AB       		.byte	-85
 2963 00c5 F5       		.byte	-11
 2964 00c6 17       		.byte	23
 2965 00c7 49       		.byte	73
 2966 00c8 08       		.byte	8
 2967 00c9 56       		.byte	86
 2968 00ca B4       		.byte	-76
 2969 00cb EA       		.byte	-22
 2970 00cc 69       		.byte	105
 2971 00cd 37       		.byte	55
 2972 00ce D5       		.byte	-43
 2973 00cf 8B       		.byte	-117
 2974 00d0 57       		.byte	87
 2975 00d1 09       		.byte	9
 2976 00d2 EB       		.byte	-21
 2977 00d3 B5       		.byte	-75
 2978 00d4 36       		.byte	54
 2979 00d5 68       		.byte	104
 2980 00d6 8A       		.byte	-118
 2981 00d7 D4       		.byte	-44
 2982 00d8 95       		.byte	-107
 2983 00d9 CB       		.byte	-53
 2984 00da 29       		.byte	41
 2985 00db 77       		.byte	119
 2986 00dc F4       		.byte	-12
 2987 00dd AA       		.byte	-86
 2988 00de 48       		.byte	72
 2989 00df 16       		.byte	22
 2990 00e0 E9       		.byte	-23
 2991 00e1 B7       		.byte	-73
 2992 00e2 55       		.byte	85
 2993 00e3 0B       		.byte	11
 2994 00e4 88       		.byte	-120
 2995 00e5 D6       		.byte	-42
 2996 00e6 34       		.byte	52
 2997 00e7 6A       		.byte	106
 2998 00e8 2B       		.byte	43
 2999 00e9 75       		.byte	117
 3000 00ea 97       		.byte	-105
 3001 00eb C9       		.byte	-55
 3002 00ec 4A       		.byte	74
 3003 00ed 14       		.byte	20
 3004 00ee F6       		.byte	-10
 3005 00ef A8       		.byte	-88
 3006 00f0 74       		.byte	116
 3007 00f1 2A       		.byte	42
 3008 00f2 C8       		.byte	-56
 3009 00f3 96       		.byte	-106
 3010 00f4 15       		.byte	21
 3011 00f5 4B       		.byte	75
 3012 00f6 A9       		.byte	-87
ARM GAS  C:\Users\RECEPC~1\AppData\Local\Temp\ccIFDC7N.s 			page 70


 3013 00f7 F7       		.byte	-9
 3014 00f8 B6       		.byte	-74
 3015 00f9 E8       		.byte	-24
 3016 00fa 0A       		.byte	10
 3017 00fb 54       		.byte	84
 3018 00fc D7       		.byte	-41
 3019 00fd 89       		.byte	-119
 3020 00fe 6B       		.byte	107
 3021 00ff 35       		.byte	53
 3022              		.text
 3023              	.Letext0:
 3024              		.file 2 "c:\\program files (x86)\\cypress\\psoc creator\\3.3\\psoc creator\\import\\gnu\\arm\\4.9.
 3025              		.file 3 "c:\\program files (x86)\\cypress\\psoc creator\\3.3\\psoc creator\\import\\gnu\\arm\\4.9.
 3026              		.file 4 "Generated_Source\\PSoC5/cytypes.h"
 3027              		.file 5 "./variables.h"
 3028              		.file 6 "Generated_Source\\PSoC5/core_cm3.h"
 3029              		.file 7 "Generated_Source\\PSoC5/RF_Connection.h"
 3030              		.file 8 "Generated_Source\\PSoC5/CyLib.h"
 3031              		.file 9 "./protocol.h"
 3032              		.file 10 "./I2C.h"
 3033              		.file 11 "Generated_Source\\PSoC5/EEPROM_1.h"
 3034              		.file 12 "./Print.h"