ARM GAS  C:\Users\RECEPC~1\AppData\Local\Temp\ccXtGlXn.s 			page 1


   1              		.syntax unified
   2              		.cpu cortex-m3
   3              		.fpu softvfp
   4              		.eabi_attribute 20, 1
   5              		.eabi_attribute 21, 1
   6              		.eabi_attribute 23, 3
   7              		.eabi_attribute 24, 1
   8              		.eabi_attribute 25, 1
   9              		.eabi_attribute 26, 1
  10              		.eabi_attribute 30, 1
  11              		.eabi_attribute 34, 1
  12              		.eabi_attribute 18, 4
  13              		.thumb
  14              		.file	"RFPoll.c"
  15              		.text
  16              	.Ltext0:
  17              		.cfi_sections	.debug_frame
  18              		.section	.text.verificar_check,"ax",%progbits
  19              		.align	2
  20              		.global	verificar_check
  21              		.thumb
  22              		.thumb_func
  23              		.type	verificar_check, %function
  24              	verificar_check:
  25              	.LFB63:
  26              		.file 1 ".\\RFPoll.c"
   1:.\RFPoll.c    **** #include <project.h>
   2:.\RFPoll.c    **** #include <protocol.h>
   3:.\RFPoll.c    **** #include <variables.h>
   4:.\RFPoll.c    **** #include <RFPoll.h>
   5:.\RFPoll.c    **** #include <LCD.h>
   6:.\RFPoll.c    **** #include <I2C.h>
   7:.\RFPoll.c    **** #include <Print.h>
   8:.\RFPoll.c    **** #include <device.h>
   9:.\RFPoll.c    **** #include <stdio.h>
  10:.\RFPoll.c    **** #include <stdlib.h>
  11:.\RFPoll.c    **** 
  12:.\RFPoll.c    **** 
  13:.\RFPoll.c    **** 
  14:.\RFPoll.c    **** /*
  15:.\RFPoll.c    **** ***************************************************************************************************
  16:.\RFPoll.c    **** *                             uint8 verificar_check(uint8 *datos, uint16 size)
  17:.\RFPoll.c    **** *
  18:.\RFPoll.c    **** * Description : calcula el checksum
  19:.\RFPoll.c    **** *               
  20:.\RFPoll.c    **** 
  21:.\RFPoll.c    **** ***************************************************************************************************
  22:.\RFPoll.c    **** */
  23:.\RFPoll.c    **** uint8 verificar_check(uint8 *datos, uint16 size){
  27              		.loc 1 23 0
  28              		.cfi_startproc
  29              		@ args = 0, pretend = 0, frame = 256
  30              		@ frame_needed = 0, uses_anonymous_args = 0
  31              	.LVL0:
  32 0000 30B5     		push	{r4, r5, lr}
  33              		.cfi_def_cfa_offset 12
  34              		.cfi_offset 4, -12
ARM GAS  C:\Users\RECEPC~1\AppData\Local\Temp\ccXtGlXn.s 			page 2


  35              		.cfi_offset 5, -8
  36              		.cfi_offset 14, -4
  37 0002 C1B0     		sub	sp, sp, #260
  38              		.cfi_def_cfa_offset 272
  39 0004 0546     		mov	r5, r0
  40 0006 0C46     		mov	r4, r1
  24:.\RFPoll.c    **** 	uint8 checksum,index; 
  25:.\RFPoll.c    **** 	uint16 i;
  26:.\RFPoll.c    ****     uint8 table[256] = { 
  41              		.loc 1 26 0
  42 0008 6846     		mov	r0, sp
  43              	.LVL1:
  44 000a 0949     		ldr	r1, .L5
  45              	.LVL2:
  46 000c 4FF48072 		mov	r2, #256
  47 0010 FFF7FEFF 		bl	memcpy
  48              	.LVL3:
  27:.\RFPoll.c    ****     0, 94,188,226, 97, 63,221,131,194,156,126, 32,163,253, 31, 65,
  28:.\RFPoll.c    ****     157,195, 33,127,252,162, 64, 30, 95,  1,227,189, 62, 96,130,220,
  29:.\RFPoll.c    ****     35,125,159,193, 66, 28,254,160,225,191, 93,  3,128,222, 60, 98,
  30:.\RFPoll.c    ****     190,224,  2, 92,223,129, 99, 61,124, 34,192,158, 29, 67,161,255,
  31:.\RFPoll.c    ****     70, 24,250,164, 39,121,155,197,132,218, 56,102,229,187, 89,  7,
  32:.\RFPoll.c    ****     219,133,103, 57,186,228,  6, 88, 25, 71,165,251,120, 38,196,154,
  33:.\RFPoll.c    ****     101, 59,217,135,  4, 90,184,230,167,249, 27, 69,198,152,122, 36,
  34:.\RFPoll.c    ****     248,166, 68, 26,153,199, 37,123, 58,100,134,216, 91,  5,231,185,
  35:.\RFPoll.c    ****     140,210, 48,110,237,179, 81, 15, 78, 16,242,172, 47,113,147,205,
  36:.\RFPoll.c    ****     17, 79,173,243,112, 46,204,146,211,141,111, 49,178,236, 14, 80,
  37:.\RFPoll.c    ****     175,241, 19, 77,206,144,114, 44,109, 51,209,143, 12, 82,176,238,
  38:.\RFPoll.c    ****     50,108,142,208, 83, 13,239,177,240,174, 76, 18,145,207, 45,115,
  39:.\RFPoll.c    ****     202,148,118, 40,171,245, 23, 73,  8, 86,180,234,105, 55,213,139,
  40:.\RFPoll.c    ****     87,  9,235,181, 54,104,138,212,149,203, 41,119,244,170, 72, 22,
  41:.\RFPoll.c    ****     233,183, 85, 11,136,214, 52,106, 43,117,151,201, 74, 20,246,168,
  42:.\RFPoll.c    ****     116, 42,200,150, 21, 75,169,247,182,232, 10, 84,215,137,107, 53};	
  43:.\RFPoll.c    **** 	checksum=0;
  44:.\RFPoll.c    **** 	for(i=0;i<(size-1);i++){
  49              		.loc 1 44 0
  50 0014 0023     		movs	r3, #0
  43:.\RFPoll.c    **** 	for(i=0;i<(size-1);i++){
  51              		.loc 1 43 0
  52 0016 1846     		mov	r0, r3
  53              		.loc 1 44 0
  54 0018 05E0     		b	.L2
  55              	.LVL4:
  56              	.L3:
  45:.\RFPoll.c    **** 		index = (uint8)(checksum ^ datos[i]);
  57              		.loc 1 45 0 discriminator 3
  58 001a EA5C     		ldrb	r2, [r5, r3]	@ zero_extendqisi2
  59 001c 5040     		eors	r0, r0, r2
  60              	.LVL5:
  46:.\RFPoll.c    **** 		checksum = table[index];				
  61              		.loc 1 46 0 discriminator 3
  62 001e 1DF80000 		ldrb	r0, [sp, r0]	@ zero_extendqisi2
  63              	.LVL6:
  44:.\RFPoll.c    **** 		index = (uint8)(checksum ^ datos[i]);
  64              		.loc 1 44 0 discriminator 3
  65 0022 0133     		adds	r3, r3, #1
  66              	.LVL7:
ARM GAS  C:\Users\RECEPC~1\AppData\Local\Temp\ccXtGlXn.s 			page 3


  67 0024 9BB2     		uxth	r3, r3
  68              	.LVL8:
  69              	.L2:
  44:.\RFPoll.c    **** 		index = (uint8)(checksum ^ datos[i]);
  70              		.loc 1 44 0 is_stmt 0 discriminator 1
  71 0026 621E     		subs	r2, r4, #1
  72 0028 9342     		cmp	r3, r2
  73 002a F6DB     		blt	.L3
  47:.\RFPoll.c    **** 	}
  48:.\RFPoll.c    **** 	return checksum;
  49:.\RFPoll.c    **** }
  74              		.loc 1 49 0 is_stmt 1
  75 002c 41B0     		add	sp, sp, #260
  76              		.cfi_def_cfa_offset 12
  77              		@ sp needed
  78 002e 30BD     		pop	{r4, r5, pc}
  79              	.LVL9:
  80              	.L6:
  81              		.align	2
  82              	.L5:
  83 0030 00000000 		.word	.LANCHOR0
  84              		.cfi_endproc
  85              	.LFE63:
  86              		.size	verificar_check, .-verificar_check
  87              		.section	.text.pollingRF_Tx,"ax",%progbits
  88              		.align	2
  89              		.global	pollingRF_Tx
  90              		.thumb
  91              		.thumb_func
  92              		.type	pollingRF_Tx, %function
  93              	pollingRF_Tx:
  94              	.LFB65:
  50:.\RFPoll.c    **** 
  51:.\RFPoll.c    **** 
  52:.\RFPoll.c    **** 
  53:.\RFPoll.c    **** 
  54:.\RFPoll.c    **** void pollingRF_Rx(){
  55:.\RFPoll.c    ****     uint16 i,x,y;
  56:.\RFPoll.c    ****     buffer_txDisplay[0] = 0xBC;
  57:.\RFPoll.c    ****     buffer_txDisplay[1] = 0xCB;
  58:.\RFPoll.c    ****     buffer_txDisplay[2] = 0xC8;
  59:.\RFPoll.c    ****     buffer_txDisplay[3] = IDCast[0];
  60:.\RFPoll.c    ****     buffer_txDisplay[4] = IDCast[1];
  61:.\RFPoll.c    ****     if(countRX > 3){
  62:.\RFPoll.c    ****         CyDelay(30);
  63:.\RFPoll.c    ****         if(RF_Connection_GetRxBufferSize() >= 1){
  64:.\RFPoll.c    ****             ActiveRF=1;
  65:.\RFPoll.c    ****             counterRF = 0;
  66:.\RFPoll.c    ****             i=0;
  67:.\RFPoll.c    ****             while(RF_Connection_GetRxBufferSize()>0){//&& (RF_Connection_RX_STS_FIFO_NOTEMPTY)
  68:.\RFPoll.c    ****                buffer_rf[i]=RF_Connection_ReadRxData(); 	
  69:.\RFPoll.c    ****         	   i++;	
  70:.\RFPoll.c    ****             } 
  71:.\RFPoll.c    ****             y=0;
  72:.\RFPoll.c    ****             buffer_tx[y] = 0xBC; y++;
  73:.\RFPoll.c    ****             buffer_tx[y] = 0xCB; y++;
  74:.\RFPoll.c    ****             buffer_tx[y] = 0xC8; y++;
ARM GAS  C:\Users\RECEPC~1\AppData\Local\Temp\ccXtGlXn.s 			page 4


  75:.\RFPoll.c    ****             buffer_tx[y] = IDCast[0]; y++;
  76:.\RFPoll.c    ****             buffer_tx[y] = IDCast[1]; y++;
  77:.\RFPoll.c    ****             if(((buffer_rf[0]==0xBC)&&(buffer_rf[1]==0xBB)&&(buffer_rf[2]==0xB8)&&(buffer_rf[3]==ID
  78:.\RFPoll.c    ****               if(side.a.rfState == 1 || side.b.rfState == 1 || side.c.rfState == 1 || side.d.rfStat
  79:.\RFPoll.c    ****                 pollingRF_Tx();
  80:.\RFPoll.c    ****                 switch(buffer_rf[6]){
  81:.\RFPoll.c    ****                    case 0xA1:               //Peticion de estado
  82:.\RFPoll.c    ****                     
  83:.\RFPoll.c    ****                     if(buffer_rf[5] == side.a.dir){
  84:.\RFPoll.c    ****                         buffer_tx[5] = side.a.dir;y++;
  85:.\RFPoll.c    ****                         buffer_tx[y] = 0xA1;y++;
  86:.\RFPoll.c    ****                         buffer_tx[y] = side.a.rfState; y++;
  87:.\RFPoll.c    ****                     }  
  88:.\RFPoll.c    ****                     if(buffer_rf[5] == side.b.dir){
  89:.\RFPoll.c    ****                         buffer_tx[5] = side.b.dir;y++;
  90:.\RFPoll.c    ****                         buffer_tx[y] = 0xA1;y++;
  91:.\RFPoll.c    ****                         buffer_tx[y] = side.b.rfState;y++;
  92:.\RFPoll.c    ****                     }
  93:.\RFPoll.c    ****                     if(buffer_rf[5] == side.c.dir){
  94:.\RFPoll.c    ****                         buffer_tx[5] = side.c.dir; y++;
  95:.\RFPoll.c    ****                         buffer_tx[y] = 0xA1; y++;
  96:.\RFPoll.c    ****                         buffer_tx[y] = side.c.rfState; y++;
  97:.\RFPoll.c    ****                     }
  98:.\RFPoll.c    ****                     if(buffer_rf[5] == side.d.dir){
  99:.\RFPoll.c    ****                         buffer_tx[5] = side.d.dir; y++;
 100:.\RFPoll.c    ****                         buffer_tx[y] = 0xA1; y++;
 101:.\RFPoll.c    ****                         buffer_tx[y] = side.d.rfState; y++;
 102:.\RFPoll.c    ****                     }
 103:.\RFPoll.c    ****                     buffer_tx[y] = verificar_check(buffer_tx,y+1);y++;
 104:.\RFPoll.c    ****                     for (x = 0; x < y; x++){
 105:.\RFPoll.c    ****                         RF_Connection_PutChar(buffer_tx[x]);
 106:.\RFPoll.c    ****                     }
 107:.\RFPoll.c    ****                    break;
 108:.\RFPoll.c    ****                    
 109:.\RFPoll.c    ****                    
 110:.\RFPoll.c    ****                    case 0xA5:
 111:.\RFPoll.c    ****                     if(buffer_rf[5] == side.a.dir){
 112:.\RFPoll.c    ****                         getTotals(side.a.dir);
 113:.\RFPoll.c    ****                         buffer_tx[5] = side.a.dir; y++;
 114:.\RFPoll.c    ****                         buffer_tx[y] = 0xE8; y++;
 115:.\RFPoll.c    ****                         buffer_tx[y] = side.a.rfState; y++;
 116:.\RFPoll.c    ****                         buffer_tx[y] = 0x00; y++;
 117:.\RFPoll.c    ****                         buffer_tx[y] = 0x01; y++;                    
 118:.\RFPoll.c    ****                         if (digits == 6 || digits == 5){                            
 119:.\RFPoll.c    ****                             for(x = 8; x > 0; x--){ //Volumen
 120:.\RFPoll.c    ****                                 buffer_tx[y] = side.a.totalsHandle[0][0][x];y++;
 121:.\RFPoll.c    ****                             }
 122:.\RFPoll.c    ****                             for(x =0; x < 4; x++){
 123:.\RFPoll.c    ****                                 buffer_tx[y] = 0x30;y++;
 124:.\RFPoll.c    ****                             }
 125:.\RFPoll.c    ****                             for(x = 8; x > 0; x--){//Dinero
 126:.\RFPoll.c    ****                                 buffer_tx[y] = side.a.totalsHandle[0][1][x];y++;
 127:.\RFPoll.c    ****                             }
 128:.\RFPoll.c    ****                             for(x =0; x < 4; x++){
 129:.\RFPoll.c    ****                                 buffer_tx[y] = 0x30;y++;
 130:.\RFPoll.c    ****                             }
 131:.\RFPoll.c    ****                         }                        
ARM GAS  C:\Users\RECEPC~1\AppData\Local\Temp\ccXtGlXn.s 			page 5


 132:.\RFPoll.c    ****                     }
 133:.\RFPoll.c    ****                     if(buffer_rf[5] == side.b.dir){
 134:.\RFPoll.c    ****                         getTotals(side.b.dir);
 135:.\RFPoll.c    ****                         buffer_tx[5] = side.b.dir; y++;
 136:.\RFPoll.c    ****                         buffer_tx[y] = 0xE8; y++;
 137:.\RFPoll.c    ****                         buffer_tx[y] = side.b.rfState; y++;
 138:.\RFPoll.c    ****                         buffer_tx[y] = 0x00; y++;
 139:.\RFPoll.c    ****                         buffer_tx[y] = 0x01; y++;
 140:.\RFPoll.c    ****                         if (digits == 6 || digits == 5){                            
 141:.\RFPoll.c    ****                             for(x = 8; x > 0; x--){ //Volumen
 142:.\RFPoll.c    ****                                 buffer_tx[y] = side.b.totalsHandle[0][0][x];y++;
 143:.\RFPoll.c    ****                             }
 144:.\RFPoll.c    ****                             for(x =0; x < 4; x++){
 145:.\RFPoll.c    ****                                 buffer_tx[y] = 0x30;y++;
 146:.\RFPoll.c    ****                             }
 147:.\RFPoll.c    ****                             for(x = 8; x > 0; x--){//Dinero
 148:.\RFPoll.c    ****                                 buffer_tx[y] = side.b.totalsHandle[0][1][x];y++;
 149:.\RFPoll.c    ****                             }
 150:.\RFPoll.c    ****                             for(x =0; x < 4; x++){
 151:.\RFPoll.c    ****                                 buffer_tx[y] = 0x30;y++;
 152:.\RFPoll.c    ****                             }
 153:.\RFPoll.c    ****                         }                        
 154:.\RFPoll.c    ****                     }
 155:.\RFPoll.c    ****                     buffer_tx[y] = verificar_check(buffer_tx,y+1);y++;
 156:.\RFPoll.c    ****                     buffer_tx[8] = y-9;
 157:.\RFPoll.c    ****                     for (x = 0; x < y; x++){
 158:.\RFPoll.c    ****                         RF_Connection_PutChar(buffer_tx[x]);
 159:.\RFPoll.c    ****                     }
 160:.\RFPoll.c    ****                    break;
 161:.\RFPoll.c    ****                     
 162:.\RFPoll.c    ****                    case 0xA6:               //Envio de precios
 163:.\RFPoll.c    ****                     if(buffer_rf[5] == side.a.dir){
 164:.\RFPoll.c    ****                         side.a.RFstateReport = 1;
 165:.\RFPoll.c    ****                         for(x=9;x < 14 ; x++ ){
 166:.\RFPoll.c    ****                             side.a.ppuAuthorized[buffer_rf[8]][x-9] = buffer_rf[x];
 167:.\RFPoll.c    ****                         }
 168:.\RFPoll.c    ****                         side.a.changePPU = true;
 169:.\RFPoll.c    ****                         side.a.grade = buffer_rf[8];
 170:.\RFPoll.c    ****                         buffer_tx[5] = side.a.dir;y++;
 171:.\RFPoll.c    ****                         buffer_tx[y] = 0xA6;y++;
 172:.\RFPoll.c    ****                         buffer_tx[y] = 0x03;y++;
 173:.\RFPoll.c    ****                     } 
 174:.\RFPoll.c    ****                     if(buffer_rf[5] == side.b.dir){
 175:.\RFPoll.c    ****                         side.b.RFstateReport = 1;
 176:.\RFPoll.c    ****                         for(x=9;x < 14 ; x++ ){
 177:.\RFPoll.c    ****                             side.b.ppuAuthorized[buffer_rf[8]][x-9] = buffer_rf[x];
 178:.\RFPoll.c    ****                         }
 179:.\RFPoll.c    ****                         side.b.changePPU = true;
 180:.\RFPoll.c    ****                         side.b.grade = buffer_rf[8];
 181:.\RFPoll.c    ****                         buffer_tx[5] = side.b.dir; y++;
 182:.\RFPoll.c    ****                         buffer_tx[y] = 0xA6;y++;
 183:.\RFPoll.c    ****                         buffer_tx[y] = 0x03;y++;
 184:.\RFPoll.c    ****                     } 
 185:.\RFPoll.c    ****                     if(buffer_rf[5] == side.c.dir){
 186:.\RFPoll.c    ****                         side.c.RFstateReport = 1;
 187:.\RFPoll.c    ****                         for(x=9;x < 14 ; x++ ){
 188:.\RFPoll.c    ****                             side.c.ppuAuthorized[buffer_rf[8]][x-9] = buffer_rf[x];
ARM GAS  C:\Users\RECEPC~1\AppData\Local\Temp\ccXtGlXn.s 			page 6


 189:.\RFPoll.c    ****                         }
 190:.\RFPoll.c    ****                         side.c.changePPU = true;
 191:.\RFPoll.c    ****                         side.c.grade = buffer_rf[8];
 192:.\RFPoll.c    ****                         buffer_tx[5] = side.c.dir; y++;
 193:.\RFPoll.c    ****                         buffer_tx[y] = 0xA6;y++;
 194:.\RFPoll.c    ****                         buffer_tx[y] = 0x03;y++;
 195:.\RFPoll.c    ****                     } 
 196:.\RFPoll.c    ****                     if(buffer_rf[5] == side.d.dir){
 197:.\RFPoll.c    ****                         side.d.RFstateReport = 1;
 198:.\RFPoll.c    ****                         for(x=9;x < 14 ; x++ ){
 199:.\RFPoll.c    ****                             side.d.ppuAuthorized[buffer_rf[8]][x-9] = buffer_rf[x];
 200:.\RFPoll.c    ****                         }
 201:.\RFPoll.c    ****                         side.d.changePPU = true;
 202:.\RFPoll.c    ****                         side.d.grade = buffer_rf[8];
 203:.\RFPoll.c    ****                         buffer_tx[5] = side.d.dir; y++;
 204:.\RFPoll.c    ****                         buffer_tx[y] = 0xA6;y++;
 205:.\RFPoll.c    ****                         buffer_tx[y] = 0x03;y++;
 206:.\RFPoll.c    ****                     }
 207:.\RFPoll.c    ****                     buffer_tx[y] = verificar_check(buffer_tx,y+1);y++;
 208:.\RFPoll.c    ****                     for (x = 0; x < y; x++){
 209:.\RFPoll.c    ****                         RF_Connection_PutChar(buffer_tx[x]);
 210:.\RFPoll.c    ****                     }
 211:.\RFPoll.c    ****                    break;
 212:.\RFPoll.c    ****                     
 213:.\RFPoll.c    ****                    case 0xA7:               //Impresion general
 214:.\RFPoll.c    ****                     
 215:.\RFPoll.c    ****                     if(buffer_rf[5] == side.a.dir){
 216:.\RFPoll.c    ****                         buffer_tx[5] = side.a.dir;
 217:.\RFPoll.c    ****                         buffer_tx[6] = 0xA7;
 218:.\RFPoll.c    ****                         buffer_tx[7] = side.a.rfState;
 219:.\RFPoll.c    ****                     }  
 220:.\RFPoll.c    ****                     if(buffer_rf[5] == side.b.dir){
 221:.\RFPoll.c    ****                         buffer_tx[5] = side.b.dir;
 222:.\RFPoll.c    ****                         buffer_tx[6] = 0xA7;
 223:.\RFPoll.c    ****                         buffer_tx[7] = side.b.rfState;
 224:.\RFPoll.c    ****                     }
 225:.\RFPoll.c    ****                     if(buffer_rf[5] == side.c.dir){
 226:.\RFPoll.c    ****                         buffer_tx[5] = side.c.dir;
 227:.\RFPoll.c    ****                         buffer_tx[6] = 0xA7;
 228:.\RFPoll.c    ****                         buffer_tx[7] = side.c.rfState;
 229:.\RFPoll.c    ****                     }
 230:.\RFPoll.c    ****                     if(buffer_rf[5] == side.d.dir){
 231:.\RFPoll.c    ****                         buffer_tx[5] = side.d.dir;
 232:.\RFPoll.c    ****                         buffer_tx[6] = 0xA7;
 233:.\RFPoll.c    ****                         buffer_tx[7] = side.d.rfState;
 234:.\RFPoll.c    ****                     }
 235:.\RFPoll.c    ****                     buffer_tx[8] = verificar_check(buffer_tx,9);
 236:.\RFPoll.c    ****                     for (x = 0; x < 9; x++){
 237:.\RFPoll.c    ****                         RF_Connection_PutChar(buffer_tx[x]);
 238:.\RFPoll.c    ****                     }
 239:.\RFPoll.c    ****                     
 240:.\RFPoll.c    ****                    break;
 241:.\RFPoll.c    ****                    case 0xAB:
 242:.\RFPoll.c    ****                     buffer_tx[0] = 0xBC;
 243:.\RFPoll.c    ****                    break;
 244:.\RFPoll.c    ****                     
 245:.\RFPoll.c    ****                    case 0xE1:               //Configuracion de la estacion
ARM GAS  C:\Users\RECEPC~1\AppData\Local\Temp\ccXtGlXn.s 			page 7


 246:.\RFPoll.c    ****                     symbols[1] = buffer_rf[8];
 247:.\RFPoll.c    ****                     date[0]    = buffer_rf[9];
 248:.\RFPoll.c    ****                     date[1]    = buffer_rf[10];
 249:.\RFPoll.c    ****                     date[2]    = buffer_rf[11];
 250:.\RFPoll.c    ****                     time[1]    = buffer_rf[12];
 251:.\RFPoll.c    ****                     time[0]    = buffer_rf[13];
 252:.\RFPoll.c    ****                     for(x = 17; x < 47; x++){
 253:.\RFPoll.c    ****                         Encabezado1[x-17] = buffer_rf[x];
 254:.\RFPoll.c    ****                     }
 255:.\RFPoll.c    ****                     for(x = 47; x < 77; x++){
 256:.\RFPoll.c    ****                         Encabezado2[x-47] = buffer_rf[x];
 257:.\RFPoll.c    ****                     }
 258:.\RFPoll.c    ****                     for(x = 77; x < 107; x++){
 259:.\RFPoll.c    ****                         Encabezado3[x-77] = buffer_rf[x];
 260:.\RFPoll.c    ****                     }
 261:.\RFPoll.c    ****                     for(x = 107; x < 137; x++){
 262:.\RFPoll.c    ****                         Encabezado4[x-77] = buffer_rf[x];
 263:.\RFPoll.c    ****                     }
 264:.\RFPoll.c    ****                     CopiasCredito = buffer_rf[16];
 265:.\RFPoll.c    ****                     write_hora();
 266:.\RFPoll.c    ****                     write_fecha(); 
 267:.\RFPoll.c    ****                     for(x =0 ; x <30; x++){
 268:.\RFPoll.c    ****                         EEPROM_1_WriteByte(Encabezado1[x],16+x);
 269:.\RFPoll.c    ****                     }
 270:.\RFPoll.c    ****                     for(x =30 ; x <60; x++){
 271:.\RFPoll.c    ****                         EEPROM_1_WriteByte(Encabezado2[x-30],16+x);
 272:.\RFPoll.c    ****                     }
 273:.\RFPoll.c    ****                     for(x =60 ; x <90; x++){
 274:.\RFPoll.c    ****                         EEPROM_1_WriteByte(Encabezado3[x-30],16+x);
 275:.\RFPoll.c    ****                     }
 276:.\RFPoll.c    ****                     for(x =90 ; x <120; x++){
 277:.\RFPoll.c    ****                         EEPROM_1_WriteByte(Encabezado4[x-30],16+x);
 278:.\RFPoll.c    ****                     }
 279:.\RFPoll.c    ****                     side.a.dir = EEPROM_1_ReadByte(12);
 280:.\RFPoll.c    ****                     side.b.dir = EEPROM_1_ReadByte(13);
 281:.\RFPoll.c    ****                     side.c.dir = EEPROM_1_ReadByte(14);
 282:.\RFPoll.c    ****                     side.d.dir = EEPROM_1_ReadByte(15);
 283:.\RFPoll.c    ****                     imprimir(printPortA,side.a.dir);
 284:.\RFPoll.c    ****                    break;
 285:.\RFPoll.c    ****                    
 286:.\RFPoll.c    ****                    case 0xE2:               //Configuracion de la posicion                         
 287:.\RFPoll.c    ****                     buffer_tx[5] = buffer_rf[5];
 288:.\RFPoll.c    ****                     buffer_tx[6] = 0xE2;
 289:.\RFPoll.c    ****                     buffer_tx[7] = 0x08;
 290:.\RFPoll.c    ****                     buffer_tx[8] = 0x03;
 291:.\RFPoll.c    ****                     buffer_tx[9] = verificar_check(buffer_tx,10);
 292:.\RFPoll.c    ****                     for (x = 0; x < 10; x++){
 293:.\RFPoll.c    ****                         RF_Connection_PutChar(buffer_tx[x]);
 294:.\RFPoll.c    ****                     }
 295:.\RFPoll.c    ****                     for(x = 8; x < 12; x++){
 296:.\RFPoll.c    ****                         GradesHose[x-8] = buffer_rf[x];
 297:.\RFPoll.c    ****                     }
 298:.\RFPoll.c    ****                     lockTurn = buffer_rf[12];
 299:.\RFPoll.c    ****                     EEPROM_1_WriteByte(lockTurn,7);
 300:.\RFPoll.c    ****                    break;
 301:.\RFPoll.c    ****                }                       
 302:.\RFPoll.c    ****             } 
ARM GAS  C:\Users\RECEPC~1\AppData\Local\Temp\ccXtGlXn.s 			page 8


 303:.\RFPoll.c    ****             RF_Connection_ClearRxBuffer();            
 304:.\RFPoll.c    ****         }                            
 305:.\RFPoll.c    ****         countRX = 0;        
 306:.\RFPoll.c    ****         //RF_Connection_ClearTxBuffer();
 307:.\RFPoll.c    ****     }
 308:.\RFPoll.c    **** }
 309:.\RFPoll.c    **** 
 310:.\RFPoll.c    **** void pollingRF_Tx(){
  95              		.loc 1 310 0
  96              		.cfi_startproc
  97              		@ args = 0, pretend = 0, frame = 0
  98              		@ frame_needed = 0, uses_anonymous_args = 0
  99 0000 38B5     		push	{r3, r4, r5, lr}
 100              		.cfi_def_cfa_offset 16
 101              		.cfi_offset 3, -16
 102              		.cfi_offset 4, -12
 103              		.cfi_offset 5, -8
 104              		.cfi_offset 14, -4
 311:.\RFPoll.c    ****    //if(countTX > 20){
 312:.\RFPoll.c    ****     uint16 x;  
 313:.\RFPoll.c    ****     /////////////// COPIA DE RECIBO //////////////////
 314:.\RFPoll.c    ****     if(side.a.rfState == RF_COPY_RECEIPT && side.a.RFstateReport == 1){        
 105              		.loc 1 314 0
 106 0002 B34B     		ldr	r3, .L112
 107 0004 93F80331 		ldrb	r3, [r3, #259]	@ zero_extendqisi2
 108 0008 0B2B     		cmp	r3, #11
 109 000a 1BD1     		bne	.L8
 110              		.loc 1 314 0 is_stmt 0 discriminator 1
 111 000c B04B     		ldr	r3, .L112
 112 000e 93F80731 		ldrb	r3, [r3, #263]	@ zero_extendqisi2
 113 0012 012B     		cmp	r3, #1
 114 0014 16D1     		bne	.L8
 315:.\RFPoll.c    ****         buffer_txDisplay[5] = side.a.dir;
 115              		.loc 1 315 0 is_stmt 1
 116 0016 AE4B     		ldr	r3, .L112
 117 0018 1B78     		ldrb	r3, [r3]	@ zero_extendqisi2
 118 001a AE4C     		ldr	r4, .L112+4
 119 001c 6371     		strb	r3, [r4, #5]
 316:.\RFPoll.c    ****         buffer_txDisplay[6] = 0xE6;
 120              		.loc 1 316 0
 121 001e E623     		movs	r3, #230
 122 0020 A371     		strb	r3, [r4, #6]
 317:.\RFPoll.c    ****         buffer_txDisplay[7] = RF_COPY_RECEIPT;
 123              		.loc 1 317 0
 124 0022 0B23     		movs	r3, #11
 125 0024 E371     		strb	r3, [r4, #7]
 318:.\RFPoll.c    ****         buffer_txDisplay[8] = verificar_check(buffer_txDisplay,9);
 126              		.loc 1 318 0
 127 0026 2046     		mov	r0, r4
 128 0028 0921     		movs	r1, #9
 129 002a FFF7FEFF 		bl	verificar_check
 130              	.LVL10:
 131 002e 2072     		strb	r0, [r4, #8]
 132              	.LVL11:
 319:.\RFPoll.c    ****         for (x = 0; x < 9; x++){
 133              		.loc 1 319 0
 134 0030 0024     		movs	r4, #0
ARM GAS  C:\Users\RECEPC~1\AppData\Local\Temp\ccXtGlXn.s 			page 9


 135 0032 05E0     		b	.L9
 136              	.LVL12:
 137              	.L10:
 320:.\RFPoll.c    ****             RF_Connection_PutChar(buffer_txDisplay[x]);
 138              		.loc 1 320 0 discriminator 3
 139 0034 A74B     		ldr	r3, .L112+4
 140 0036 185D     		ldrb	r0, [r3, r4]	@ zero_extendqisi2
 141 0038 FFF7FEFF 		bl	RF_Connection_PutChar
 142              	.LVL13:
 319:.\RFPoll.c    ****         for (x = 0; x < 9; x++){
 143              		.loc 1 319 0 discriminator 3
 144 003c 0134     		adds	r4, r4, #1
 145              	.LVL14:
 146 003e A4B2     		uxth	r4, r4
 147              	.LVL15:
 148              	.L9:
 319:.\RFPoll.c    ****         for (x = 0; x < 9; x++){
 149              		.loc 1 319 0 is_stmt 0 discriminator 1
 150 0040 082C     		cmp	r4, #8
 151 0042 F7D9     		bls	.L10
 152              	.LVL16:
 153              	.L8:
 321:.\RFPoll.c    ****         }
 322:.\RFPoll.c    ****     }
 323:.\RFPoll.c    ****     if(side.b.rfState == RF_COPY_RECEIPT && side.a.RFstateReport == 1){
 154              		.loc 1 323 0 is_stmt 1
 155 0044 A24B     		ldr	r3, .L112
 156 0046 93F80B32 		ldrb	r3, [r3, #523]	@ zero_extendqisi2
 157 004a 0B2B     		cmp	r3, #11
 158 004c 1CD1     		bne	.L11
 159              		.loc 1 323 0 is_stmt 0 discriminator 1
 160 004e A04B     		ldr	r3, .L112
 161 0050 93F80731 		ldrb	r3, [r3, #263]	@ zero_extendqisi2
 162 0054 012B     		cmp	r3, #1
 163 0056 17D1     		bne	.L11
 324:.\RFPoll.c    ****         buffer_txDisplay[5] = side.b.dir;
 164              		.loc 1 324 0 is_stmt 1
 165 0058 9D4B     		ldr	r3, .L112
 166 005a 93F80831 		ldrb	r3, [r3, #264]	@ zero_extendqisi2
 167 005e 9D4C     		ldr	r4, .L112+4
 168 0060 6371     		strb	r3, [r4, #5]
 325:.\RFPoll.c    ****         buffer_txDisplay[6] = 0xE6;
 169              		.loc 1 325 0
 170 0062 E623     		movs	r3, #230
 171 0064 A371     		strb	r3, [r4, #6]
 326:.\RFPoll.c    ****         buffer_txDisplay[7] = RF_COPY_RECEIPT;
 172              		.loc 1 326 0
 173 0066 0B23     		movs	r3, #11
 174 0068 E371     		strb	r3, [r4, #7]
 327:.\RFPoll.c    ****         buffer_txDisplay[8] = verificar_check(buffer_txDisplay,9);
 175              		.loc 1 327 0
 176 006a 2046     		mov	r0, r4
 177 006c 0921     		movs	r1, #9
 178 006e FFF7FEFF 		bl	verificar_check
 179              	.LVL17:
 180 0072 2072     		strb	r0, [r4, #8]
 181              	.LVL18:
ARM GAS  C:\Users\RECEPC~1\AppData\Local\Temp\ccXtGlXn.s 			page 10


 328:.\RFPoll.c    ****         for (x = 0; x < 9; x++){
 182              		.loc 1 328 0
 183 0074 0024     		movs	r4, #0
 184 0076 05E0     		b	.L12
 185              	.LVL19:
 186              	.L13:
 329:.\RFPoll.c    ****             RF_Connection_PutChar(buffer_txDisplay[x]);
 187              		.loc 1 329 0 discriminator 3
 188 0078 964B     		ldr	r3, .L112+4
 189 007a 185D     		ldrb	r0, [r3, r4]	@ zero_extendqisi2
 190 007c FFF7FEFF 		bl	RF_Connection_PutChar
 191              	.LVL20:
 328:.\RFPoll.c    ****         for (x = 0; x < 9; x++){
 192              		.loc 1 328 0 discriminator 3
 193 0080 0134     		adds	r4, r4, #1
 194              	.LVL21:
 195 0082 A4B2     		uxth	r4, r4
 196              	.LVL22:
 197              	.L12:
 328:.\RFPoll.c    ****         for (x = 0; x < 9; x++){
 198              		.loc 1 328 0 is_stmt 0 discriminator 1
 199 0084 082C     		cmp	r4, #8
 200 0086 F7D9     		bls	.L13
 201              	.LVL23:
 202              	.L11:
 330:.\RFPoll.c    ****         }
 331:.\RFPoll.c    ****     }
 332:.\RFPoll.c    ****     if(side.c.rfState == RF_COPY_RECEIPT && side.a.RFstateReport == 1){
 203              		.loc 1 332 0 is_stmt 1
 204 0088 914B     		ldr	r3, .L112
 205 008a 93F81333 		ldrb	r3, [r3, #787]	@ zero_extendqisi2
 206 008e 0B2B     		cmp	r3, #11
 207 0090 1CD1     		bne	.L14
 208              		.loc 1 332 0 is_stmt 0 discriminator 1
 209 0092 8F4B     		ldr	r3, .L112
 210 0094 93F80731 		ldrb	r3, [r3, #263]	@ zero_extendqisi2
 211 0098 012B     		cmp	r3, #1
 212 009a 17D1     		bne	.L14
 333:.\RFPoll.c    ****         buffer_txDisplay[5] = side.c.dir;
 213              		.loc 1 333 0 is_stmt 1
 214 009c 8C4B     		ldr	r3, .L112
 215 009e 93F81032 		ldrb	r3, [r3, #528]	@ zero_extendqisi2
 216 00a2 8C4C     		ldr	r4, .L112+4
 217 00a4 6371     		strb	r3, [r4, #5]
 334:.\RFPoll.c    ****         buffer_txDisplay[6] = 0xE6;
 218              		.loc 1 334 0
 219 00a6 E623     		movs	r3, #230
 220 00a8 A371     		strb	r3, [r4, #6]
 335:.\RFPoll.c    ****         buffer_txDisplay[7] = RF_COPY_RECEIPT;
 221              		.loc 1 335 0
 222 00aa 0B23     		movs	r3, #11
 223 00ac E371     		strb	r3, [r4, #7]
 336:.\RFPoll.c    ****         buffer_txDisplay[8] = verificar_check(buffer_txDisplay,9);
 224              		.loc 1 336 0
 225 00ae 2046     		mov	r0, r4
 226 00b0 0921     		movs	r1, #9
 227 00b2 FFF7FEFF 		bl	verificar_check
ARM GAS  C:\Users\RECEPC~1\AppData\Local\Temp\ccXtGlXn.s 			page 11


 228              	.LVL24:
 229 00b6 2072     		strb	r0, [r4, #8]
 230              	.LVL25:
 337:.\RFPoll.c    ****         for (x = 0; x < 9; x++){
 231              		.loc 1 337 0
 232 00b8 0024     		movs	r4, #0
 233 00ba 05E0     		b	.L15
 234              	.LVL26:
 235              	.L16:
 338:.\RFPoll.c    ****             RF_Connection_PutChar(buffer_txDisplay[x]);
 236              		.loc 1 338 0 discriminator 3
 237 00bc 854B     		ldr	r3, .L112+4
 238 00be 185D     		ldrb	r0, [r3, r4]	@ zero_extendqisi2
 239 00c0 FFF7FEFF 		bl	RF_Connection_PutChar
 240              	.LVL27:
 337:.\RFPoll.c    ****         for (x = 0; x < 9; x++){
 241              		.loc 1 337 0 discriminator 3
 242 00c4 0134     		adds	r4, r4, #1
 243              	.LVL28:
 244 00c6 A4B2     		uxth	r4, r4
 245              	.LVL29:
 246              	.L15:
 337:.\RFPoll.c    ****         for (x = 0; x < 9; x++){
 247              		.loc 1 337 0 is_stmt 0 discriminator 1
 248 00c8 082C     		cmp	r4, #8
 249 00ca F7D9     		bls	.L16
 250              	.LVL30:
 251              	.L14:
 339:.\RFPoll.c    ****         }
 340:.\RFPoll.c    ****     }
 341:.\RFPoll.c    ****     if(side.d.rfState == RF_COPY_RECEIPT && side.a.RFstateReport == 1){
 252              		.loc 1 341 0 is_stmt 1
 253 00cc 804B     		ldr	r3, .L112
 254 00ce 93F81B34 		ldrb	r3, [r3, #1051]	@ zero_extendqisi2
 255 00d2 0B2B     		cmp	r3, #11
 256 00d4 1CD1     		bne	.L17
 257              		.loc 1 341 0 is_stmt 0 discriminator 1
 258 00d6 7E4B     		ldr	r3, .L112
 259 00d8 93F80731 		ldrb	r3, [r3, #263]	@ zero_extendqisi2
 260 00dc 012B     		cmp	r3, #1
 261 00de 17D1     		bne	.L17
 342:.\RFPoll.c    ****         buffer_txDisplay[5] = side.d.dir;
 262              		.loc 1 342 0 is_stmt 1
 263 00e0 7B4B     		ldr	r3, .L112
 264 00e2 93F81833 		ldrb	r3, [r3, #792]	@ zero_extendqisi2
 265 00e6 7B4C     		ldr	r4, .L112+4
 266 00e8 6371     		strb	r3, [r4, #5]
 343:.\RFPoll.c    ****         buffer_txDisplay[6] = 0xE6;
 267              		.loc 1 343 0
 268 00ea E623     		movs	r3, #230
 269 00ec A371     		strb	r3, [r4, #6]
 344:.\RFPoll.c    ****         buffer_txDisplay[7] = RF_COPY_RECEIPT;
 270              		.loc 1 344 0
 271 00ee 0B23     		movs	r3, #11
 272 00f0 E371     		strb	r3, [r4, #7]
 345:.\RFPoll.c    ****         buffer_txDisplay[8] = verificar_check(buffer_txDisplay,9);
 273              		.loc 1 345 0
ARM GAS  C:\Users\RECEPC~1\AppData\Local\Temp\ccXtGlXn.s 			page 12


 274 00f2 2046     		mov	r0, r4
 275 00f4 0921     		movs	r1, #9
 276 00f6 FFF7FEFF 		bl	verificar_check
 277              	.LVL31:
 278 00fa 2072     		strb	r0, [r4, #8]
 279              	.LVL32:
 346:.\RFPoll.c    ****         for (x = 0; x < 9; x++){
 280              		.loc 1 346 0
 281 00fc 0024     		movs	r4, #0
 282 00fe 05E0     		b	.L18
 283              	.LVL33:
 284              	.L19:
 347:.\RFPoll.c    ****             RF_Connection_PutChar(buffer_txDisplay[x]);
 285              		.loc 1 347 0 discriminator 3
 286 0100 744B     		ldr	r3, .L112+4
 287 0102 185D     		ldrb	r0, [r3, r4]	@ zero_extendqisi2
 288 0104 FFF7FEFF 		bl	RF_Connection_PutChar
 289              	.LVL34:
 346:.\RFPoll.c    ****         for (x = 0; x < 9; x++){
 290              		.loc 1 346 0 discriminator 3
 291 0108 0134     		adds	r4, r4, #1
 292              	.LVL35:
 293 010a A4B2     		uxth	r4, r4
 294              	.LVL36:
 295              	.L18:
 346:.\RFPoll.c    ****         for (x = 0; x < 9; x++){
 296              		.loc 1 346 0 is_stmt 0 discriminator 1
 297 010c 082C     		cmp	r4, #8
 298 010e F7D9     		bls	.L19
 299              	.LVL37:
 300              	.L17:
 348:.\RFPoll.c    ****         }
 349:.\RFPoll.c    ****     }
 350:.\RFPoll.c    ****     ////////////// PRESET - DISPENSANDO ////////////////////////////////////
 351:.\RFPoll.c    ****     if(bufferDisplay1.flagActiveSale && side.a.RFstateReport == 1){
 301              		.loc 1 351 0 is_stmt 1
 302 0110 714B     		ldr	r3, .L112+8
 303 0112 93F83531 		ldrb	r3, [r3, #309]	@ zero_extendqisi2
 304 0116 002B     		cmp	r3, #0
 305 0118 00F08380 		beq	.L20
 306              		.loc 1 351 0 is_stmt 0 discriminator 1
 307 011c 6C4B     		ldr	r3, .L112
 308 011e 93F80731 		ldrb	r3, [r3, #263]	@ zero_extendqisi2
 309 0122 012B     		cmp	r3, #1
 310 0124 7DD1     		bne	.L20
 352:.\RFPoll.c    ****             buffer_txDisplay[5]  = side.a.dir;
 311              		.loc 1 352 0 is_stmt 1
 312 0126 6A4A     		ldr	r2, .L112
 313 0128 1178     		ldrb	r1, [r2]	@ zero_extendqisi2
 314 012a 6A4B     		ldr	r3, .L112+4
 315 012c 5971     		strb	r1, [r3, #5]
 353:.\RFPoll.c    ****             buffer_txDisplay[6]  = 0xAA;
 316              		.loc 1 353 0
 317 012e AA21     		movs	r1, #170
 318 0130 9971     		strb	r1, [r3, #6]
 354:.\RFPoll.c    ****             buffer_txDisplay[7]  = RF_DELIVERING;
 319              		.loc 1 354 0
ARM GAS  C:\Users\RECEPC~1\AppData\Local\Temp\ccXtGlXn.s 			page 13


 320 0132 0121     		movs	r1, #1
 321 0134 D971     		strb	r1, [r3, #7]
 355:.\RFPoll.c    ****             buffer_txDisplay[8]  = side.a.activeHose;
 322              		.loc 1 355 0
 323 0136 92F80021 		ldrb	r2, [r2, #256]	@ zero_extendqisi2
 324 013a 1A72     		strb	r2, [r3, #8]
 356:.\RFPoll.c    ****             buffer_txDisplay[9]  = bufferDisplay1.presetType[0]&0x03;
 325              		.loc 1 356 0
 326 013c 6649     		ldr	r1, .L112+8
 327 013e 91F86320 		ldrb	r2, [r1, #99]	@ zero_extendqisi2
 328 0142 02F00302 		and	r2, r2, #3
 329 0146 5A72     		strb	r2, [r3, #9]
 357:.\RFPoll.c    ****             for(x = bufferDisplay1.presetValue[0][0] ; x > 0; x--){
 330              		.loc 1 357 0
 331 0148 91F86500 		ldrb	r0, [r1, #101]	@ zero_extendqisi2
 332 014c 84B2     		uxth	r4, r0
 333              	.LVL38:
 334 014e 08E0     		b	.L21
 335              	.L22:
 358:.\RFPoll.c    ****                 tempPreset[bufferDisplay1.presetValue[0][0]-x] = (bufferDisplay1.presetValue[0][x])
 336              		.loc 1 358 0 discriminator 3
 337 0150 021B     		subs	r2, r0, r4
 338 0152 614B     		ldr	r3, .L112+8
 339 0154 2344     		add	r3, r3, r4
 340 0156 93F86510 		ldrb	r1, [r3, #101]	@ zero_extendqisi2
 341 015a 604B     		ldr	r3, .L112+12
 342 015c 9954     		strb	r1, [r3, r2]
 357:.\RFPoll.c    ****             for(x = bufferDisplay1.presetValue[0][0] ; x > 0; x--){
 343              		.loc 1 357 0 discriminator 3
 344 015e 013C     		subs	r4, r4, #1
 345              	.LVL39:
 346 0160 A4B2     		uxth	r4, r4
 347              	.LVL40:
 348              	.L21:
 357:.\RFPoll.c    ****             for(x = bufferDisplay1.presetValue[0][0] ; x > 0; x--){
 349              		.loc 1 357 0 is_stmt 0 discriminator 1
 350 0162 002C     		cmp	r4, #0
 351 0164 F4D1     		bne	.L22
 352 0166 0A23     		movs	r3, #10
 353 0168 0CE0     		b	.L23
 354              	.LVL41:
 355              	.L25:
 359:.\RFPoll.c    ****             }
 360:.\RFPoll.c    ****             for(x = 10; x<=17; x++){
 361:.\RFPoll.c    ****                 buffer_txDisplay[x] = tempPreset[x-10]; 
 356              		.loc 1 361 0 is_stmt 1
 357 016a A3F10A02 		sub	r2, r3, #10
 358 016e 5B49     		ldr	r1, .L112+12
 359 0170 8A5C     		ldrb	r2, [r1, r2]	@ zero_extendqisi2
 360 0172 D2B2     		uxtb	r2, r2
 361 0174 5749     		ldr	r1, .L112+4
 362 0176 CA54     		strb	r2, [r1, r3]
 362:.\RFPoll.c    ****                 if(buffer_txDisplay[x]== 0x00)
 363              		.loc 1 362 0
 364 0178 12B9     		cbnz	r2, .L24
 363:.\RFPoll.c    ****                     buffer_txDisplay[x] = 0x30;
 365              		.loc 1 363 0
ARM GAS  C:\Users\RECEPC~1\AppData\Local\Temp\ccXtGlXn.s 			page 14


 366 017a 3021     		movs	r1, #48
 367 017c 554A     		ldr	r2, .L112+4
 368 017e D154     		strb	r1, [r2, r3]
 369              	.L24:
 360:.\RFPoll.c    ****                 buffer_txDisplay[x] = tempPreset[x-10]; 
 370              		.loc 1 360 0 discriminator 2
 371 0180 0133     		adds	r3, r3, #1
 372              	.LVL42:
 373 0182 9BB2     		uxth	r3, r3
 374              	.LVL43:
 375              	.L23:
 360:.\RFPoll.c    ****                 buffer_txDisplay[x] = tempPreset[x-10]; 
 376              		.loc 1 360 0 is_stmt 0 discriminator 1
 377 0184 112B     		cmp	r3, #17
 378 0186 F0D9     		bls	.L25
 364:.\RFPoll.c    ****             }        
 365:.\RFPoll.c    ****             buffer_txDisplay[18]  = 0x00;
 379              		.loc 1 365 0 is_stmt 1
 380 0188 0022     		movs	r2, #0
 381 018a 524B     		ldr	r3, .L112+4
 382              	.LVL44:
 383 018c 9A74     		strb	r2, [r3, #18]
 366:.\RFPoll.c    ****             if(bufferDisplay1.flagPrint == 0){
 384              		.loc 1 366 0
 385 018e 524B     		ldr	r3, .L112+8
 386 0190 93F83431 		ldrb	r3, [r3, #308]	@ zero_extendqisi2
 387 0194 63B1     		cbz	r3, .L105
 388 0196 2346     		mov	r3, r4
 389 0198 1BE0     		b	.L27
 390              	.LVL45:
 391              	.L28:
 367:.\RFPoll.c    ****                 for(x = 0; x <8 ; x++){
 368:.\RFPoll.c    ****                     buffer_txDisplay[19+x]=0x20;
 392              		.loc 1 368 0 discriminator 3
 393 019a 03F11302 		add	r2, r3, #19
 394 019e 2020     		movs	r0, #32
 395 01a0 4C49     		ldr	r1, .L112+4
 396 01a2 8854     		strb	r0, [r1, r2]
 369:.\RFPoll.c    ****                     tempPreset[x] = 0x00;
 397              		.loc 1 369 0 discriminator 3
 398 01a4 0021     		movs	r1, #0
 399 01a6 4D4A     		ldr	r2, .L112+12
 400 01a8 D154     		strb	r1, [r2, r3]
 367:.\RFPoll.c    ****                 for(x = 0; x <8 ; x++){
 401              		.loc 1 367 0 discriminator 3
 402 01aa 0133     		adds	r3, r3, #1
 403              	.LVL46:
 404 01ac 9BB2     		uxth	r3, r3
 405              	.LVL47:
 406 01ae 00E0     		b	.L26
 407              	.LVL48:
 408              	.L105:
 409 01b0 2346     		mov	r3, r4
 410              	.L26:
 411              	.LVL49:
 367:.\RFPoll.c    ****                 for(x = 0; x <8 ; x++){
 412              		.loc 1 367 0 is_stmt 0 discriminator 1
ARM GAS  C:\Users\RECEPC~1\AppData\Local\Temp\ccXtGlXn.s 			page 15


 413 01b2 072B     		cmp	r3, #7
 414 01b4 F1D9     		bls	.L28
 415 01b6 0EE0     		b	.L29
 416              	.L30:
 370:.\RFPoll.c    ****                 }
 371:.\RFPoll.c    ****             }else{
 372:.\RFPoll.c    ****                 for(x = 0; x <8 ; x++){
 373:.\RFPoll.c    ****                     buffer_txDisplay[19+x]=bufferDisplay1.licenceSale[x+1];
 417              		.loc 1 373 0 is_stmt 1 discriminator 3
 418 01b8 03F11300 		add	r0, r3, #19
 419 01bc 591C     		adds	r1, r3, #1
 420 01be 464A     		ldr	r2, .L112+8
 421 01c0 0A44     		add	r2, r2, r1
 422 01c2 92F8DF50 		ldrb	r5, [r2, #223]	@ zero_extendqisi2
 423 01c6 434A     		ldr	r2, .L112+4
 424 01c8 1554     		strb	r5, [r2, r0]
 374:.\RFPoll.c    ****                     tempPreset[x] = 0x00;
 425              		.loc 1 374 0 discriminator 3
 426 01ca 0020     		movs	r0, #0
 427 01cc 434A     		ldr	r2, .L112+12
 428 01ce D054     		strb	r0, [r2, r3]
 372:.\RFPoll.c    ****                     buffer_txDisplay[19+x]=bufferDisplay1.licenceSale[x+1];
 429              		.loc 1 372 0 discriminator 3
 430 01d0 8BB2     		uxth	r3, r1
 431              	.LVL50:
 432              	.L27:
 372:.\RFPoll.c    ****                     buffer_txDisplay[19+x]=bufferDisplay1.licenceSale[x+1];
 433              		.loc 1 372 0 is_stmt 0 discriminator 1
 434 01d2 072B     		cmp	r3, #7
 435 01d4 F0D9     		bls	.L30
 436              	.L29:
 437 01d6 1B23     		movs	r3, #27
 438              	.LVL51:
 439 01d8 04E0     		b	.L31
 440              	.LVL52:
 441              	.L32:
 375:.\RFPoll.c    ****                 }
 376:.\RFPoll.c    ****             }
 377:.\RFPoll.c    ****             for(x=27; x<=37;x++){
 378:.\RFPoll.c    ****                 buffer_txDisplay[x]= 0x30;
 442              		.loc 1 378 0 is_stmt 1 discriminator 3
 443 01da 3021     		movs	r1, #48
 444 01dc 3D4A     		ldr	r2, .L112+4
 445 01de D154     		strb	r1, [r2, r3]
 377:.\RFPoll.c    ****                 buffer_txDisplay[x]= 0x30;
 446              		.loc 1 377 0 discriminator 3
 447 01e0 0133     		adds	r3, r3, #1
 448              	.LVL53:
 449 01e2 9BB2     		uxth	r3, r3
 450              	.LVL54:
 451              	.L31:
 377:.\RFPoll.c    ****                 buffer_txDisplay[x]= 0x30;
 452              		.loc 1 377 0 is_stmt 0 discriminator 1
 453 01e4 252B     		cmp	r3, #37
 454 01e6 F8D9     		bls	.L32
 379:.\RFPoll.c    ****             }
 380:.\RFPoll.c    ****             buffer_txDisplay[38] = verificar_check(buffer_txDisplay,39);
ARM GAS  C:\Users\RECEPC~1\AppData\Local\Temp\ccXtGlXn.s 			page 16


 455              		.loc 1 380 0 is_stmt 1
 456 01e8 3A4D     		ldr	r5, .L112+4
 457 01ea 2846     		mov	r0, r5
 458 01ec 2721     		movs	r1, #39
 459 01ee FFF7FEFF 		bl	verificar_check
 460              	.LVL55:
 461 01f2 85F82600 		strb	r0, [r5, #38]
 381:.\RFPoll.c    ****             CyDelay(10);
 462              		.loc 1 381 0
 463 01f6 0A20     		movs	r0, #10
 464 01f8 FFF7FEFF 		bl	CyDelay
 465              	.LVL56:
 382:.\RFPoll.c    ****             for (x = 0; x < 40; x++){
 466              		.loc 1 382 0
 467 01fc 05E0     		b	.L33
 468              	.LVL57:
 469              	.L34:
 383:.\RFPoll.c    ****                 RF_Connection_PutChar(buffer_txDisplay[x]);
 470              		.loc 1 383 0 discriminator 3
 471 01fe 354B     		ldr	r3, .L112+4
 472 0200 185D     		ldrb	r0, [r3, r4]	@ zero_extendqisi2
 473 0202 FFF7FEFF 		bl	RF_Connection_PutChar
 474              	.LVL58:
 382:.\RFPoll.c    ****             for (x = 0; x < 40; x++){
 475              		.loc 1 382 0 discriminator 3
 476 0206 0134     		adds	r4, r4, #1
 477              	.LVL59:
 478 0208 A4B2     		uxth	r4, r4
 479              	.LVL60:
 480              	.L33:
 382:.\RFPoll.c    ****             for (x = 0; x < 40; x++){
 481              		.loc 1 382 0 is_stmt 0 discriminator 1
 482 020a 272C     		cmp	r4, #39
 483 020c F7D9     		bls	.L34
 384:.\RFPoll.c    ****             }
 385:.\RFPoll.c    ****             CyDelay(10);
 484              		.loc 1 385 0 is_stmt 1
 485 020e 0A20     		movs	r0, #10
 486 0210 FFF7FEFF 		bl	CyDelay
 487              	.LVL61:
 386:.\RFPoll.c    ****             side.a.rfState = RF_DELIVERING;
 488              		.loc 1 386 0
 489 0214 2E4B     		ldr	r3, .L112
 490 0216 0122     		movs	r2, #1
 491 0218 83F80321 		strb	r2, [r3, #259]
 387:.\RFPoll.c    ****             side.a.RFstateReport = 0;
 492              		.loc 1 387 0
 493 021c 0022     		movs	r2, #0
 494 021e 83F80721 		strb	r2, [r3, #263]
 495              	.LVL62:
 496              	.L20:
 388:.\RFPoll.c    ****         }  
 389:.\RFPoll.c    ****     if(bufferDisplay2.flagActiveSale && side.b.RFstateReport == 1){
 497              		.loc 1 389 0
 498 0222 2F4B     		ldr	r3, .L112+16
 499 0224 93F83531 		ldrb	r3, [r3, #309]	@ zero_extendqisi2
 500 0228 002B     		cmp	r3, #0
ARM GAS  C:\Users\RECEPC~1\AppData\Local\Temp\ccXtGlXn.s 			page 17


 501 022a 00F09080 		beq	.L35
 502              		.loc 1 389 0 is_stmt 0 discriminator 1
 503 022e 284B     		ldr	r3, .L112
 504 0230 93F80F32 		ldrb	r3, [r3, #527]	@ zero_extendqisi2
 505 0234 012B     		cmp	r3, #1
 506 0236 40F08A80 		bne	.L35
 390:.\RFPoll.c    ****             buffer_txDisplay[5]  = side.b.dir;
 507              		.loc 1 390 0 is_stmt 1
 508 023a 254A     		ldr	r2, .L112
 509 023c 92F80811 		ldrb	r1, [r2, #264]	@ zero_extendqisi2
 510 0240 244B     		ldr	r3, .L112+4
 511 0242 5971     		strb	r1, [r3, #5]
 391:.\RFPoll.c    ****             buffer_txDisplay[6]  = 0xAA;
 512              		.loc 1 391 0
 513 0244 AA21     		movs	r1, #170
 514 0246 9971     		strb	r1, [r3, #6]
 392:.\RFPoll.c    ****             buffer_txDisplay[7]  = RF_DELIVERING;
 515              		.loc 1 392 0
 516 0248 0121     		movs	r1, #1
 517 024a D971     		strb	r1, [r3, #7]
 393:.\RFPoll.c    ****             buffer_txDisplay[8]  = side.b.activeHose;
 518              		.loc 1 393 0
 519 024c 92F80822 		ldrb	r2, [r2, #520]	@ zero_extendqisi2
 520 0250 1A72     		strb	r2, [r3, #8]
 394:.\RFPoll.c    ****             buffer_txDisplay[9]  = bufferDisplay2.presetType[0]&0x03;
 521              		.loc 1 394 0
 522 0252 2349     		ldr	r1, .L112+16
 523 0254 91F86320 		ldrb	r2, [r1, #99]	@ zero_extendqisi2
 524 0258 02F00302 		and	r2, r2, #3
 525 025c 5A72     		strb	r2, [r3, #9]
 395:.\RFPoll.c    ****             for(x = bufferDisplay2.presetValue[0][0] ; x > 0; x--){
 526              		.loc 1 395 0
 527 025e 91F86500 		ldrb	r0, [r1, #101]	@ zero_extendqisi2
 528 0262 84B2     		uxth	r4, r0
 529              	.LVL63:
 530 0264 08E0     		b	.L36
 531              	.L37:
 396:.\RFPoll.c    ****                 tempPreset[bufferDisplay2.presetValue[0][0]-x] = (bufferDisplay2.presetValue[0][x])
 532              		.loc 1 396 0 discriminator 3
 533 0266 021B     		subs	r2, r0, r4
 534 0268 1D4B     		ldr	r3, .L112+16
 535 026a 2344     		add	r3, r3, r4
 536 026c 93F86510 		ldrb	r1, [r3, #101]	@ zero_extendqisi2
 537 0270 1A4B     		ldr	r3, .L112+12
 538 0272 9954     		strb	r1, [r3, r2]
 395:.\RFPoll.c    ****             for(x = bufferDisplay2.presetValue[0][0] ; x > 0; x--){
 539              		.loc 1 395 0 discriminator 3
 540 0274 013C     		subs	r4, r4, #1
 541              	.LVL64:
 542 0276 A4B2     		uxth	r4, r4
 543              	.LVL65:
 544              	.L36:
 395:.\RFPoll.c    ****             for(x = bufferDisplay2.presetValue[0][0] ; x > 0; x--){
 545              		.loc 1 395 0 is_stmt 0 discriminator 1
 546 0278 002C     		cmp	r4, #0
 547 027a F4D1     		bne	.L37
 548 027c 0A23     		movs	r3, #10
ARM GAS  C:\Users\RECEPC~1\AppData\Local\Temp\ccXtGlXn.s 			page 18


 549 027e 0CE0     		b	.L38
 550              	.LVL66:
 551              	.L40:
 397:.\RFPoll.c    ****             }
 398:.\RFPoll.c    ****             for(x = 10; x<=17; x++){
 399:.\RFPoll.c    ****                 buffer_txDisplay[x] = tempPreset[x-10]; 
 552              		.loc 1 399 0 is_stmt 1
 553 0280 A3F10A02 		sub	r2, r3, #10
 554 0284 1549     		ldr	r1, .L112+12
 555 0286 8A5C     		ldrb	r2, [r1, r2]	@ zero_extendqisi2
 556 0288 D2B2     		uxtb	r2, r2
 557 028a 1249     		ldr	r1, .L112+4
 558 028c CA54     		strb	r2, [r1, r3]
 400:.\RFPoll.c    ****                 if(buffer_txDisplay[x]== 0x00)
 559              		.loc 1 400 0
 560 028e 12B9     		cbnz	r2, .L39
 401:.\RFPoll.c    ****                     buffer_txDisplay[x] = 0x30;
 561              		.loc 1 401 0
 562 0290 3021     		movs	r1, #48
 563 0292 104A     		ldr	r2, .L112+4
 564 0294 D154     		strb	r1, [r2, r3]
 565              	.L39:
 398:.\RFPoll.c    ****                 buffer_txDisplay[x] = tempPreset[x-10]; 
 566              		.loc 1 398 0 discriminator 2
 567 0296 0133     		adds	r3, r3, #1
 568              	.LVL67:
 569 0298 9BB2     		uxth	r3, r3
 570              	.LVL68:
 571              	.L38:
 398:.\RFPoll.c    ****                 buffer_txDisplay[x] = tempPreset[x-10]; 
 572              		.loc 1 398 0 is_stmt 0 discriminator 1
 573 029a 112B     		cmp	r3, #17
 574 029c F0D9     		bls	.L40
 402:.\RFPoll.c    ****             }        
 403:.\RFPoll.c    ****             buffer_txDisplay[18]  = 0x00;
 575              		.loc 1 403 0 is_stmt 1
 576 029e 0022     		movs	r2, #0
 577 02a0 0C4B     		ldr	r3, .L112+4
 578              	.LVL69:
 579 02a2 9A74     		strb	r2, [r3, #18]
 404:.\RFPoll.c    ****             if(bufferDisplay2.flagPrint == 0){
 580              		.loc 1 404 0
 581 02a4 0E4B     		ldr	r3, .L112+16
 582 02a6 93F83431 		ldrb	r3, [r3, #308]	@ zero_extendqisi2
 583 02aa 63B1     		cbz	r3, .L106
 584 02ac 2346     		mov	r3, r4
 585 02ae 26E0     		b	.L42
 586              	.LVL70:
 587              	.L43:
 405:.\RFPoll.c    ****                 for(x = 0; x <8 ; x++){
 406:.\RFPoll.c    ****                     buffer_txDisplay[19+x]=0x20;
 588              		.loc 1 406 0 discriminator 3
 589 02b0 03F11302 		add	r2, r3, #19
 590 02b4 2020     		movs	r0, #32
 591 02b6 0749     		ldr	r1, .L112+4
 592 02b8 8854     		strb	r0, [r1, r2]
 407:.\RFPoll.c    ****                     tempPreset[x] = 0x00;
ARM GAS  C:\Users\RECEPC~1\AppData\Local\Temp\ccXtGlXn.s 			page 19


 593              		.loc 1 407 0 discriminator 3
 594 02ba 0021     		movs	r1, #0
 595 02bc 074A     		ldr	r2, .L112+12
 596 02be D154     		strb	r1, [r2, r3]
 405:.\RFPoll.c    ****                 for(x = 0; x <8 ; x++){
 597              		.loc 1 405 0 discriminator 3
 598 02c0 0133     		adds	r3, r3, #1
 599              	.LVL71:
 600 02c2 9BB2     		uxth	r3, r3
 601              	.LVL72:
 602 02c4 00E0     		b	.L41
 603              	.LVL73:
 604              	.L106:
 605 02c6 2346     		mov	r3, r4
 606              	.L41:
 607              	.LVL74:
 405:.\RFPoll.c    ****                 for(x = 0; x <8 ; x++){
 608              		.loc 1 405 0 is_stmt 0 discriminator 1
 609 02c8 072B     		cmp	r3, #7
 610 02ca F1D9     		bls	.L43
 611 02cc 19E0     		b	.L44
 612              	.L113:
 613 02ce 00BF     		.align	2
 614              	.L112:
 615 02d0 00000000 		.word	side
 616 02d4 00000000 		.word	buffer_txDisplay
 617 02d8 00000000 		.word	bufferDisplay1
 618 02dc 00000000 		.word	tempPreset
 619 02e0 00000000 		.word	bufferDisplay2
 620              	.L45:
 408:.\RFPoll.c    ****                 }
 409:.\RFPoll.c    ****             }else{
 410:.\RFPoll.c    ****                 for(x = 0; x <8 ; x++){
 411:.\RFPoll.c    ****                     buffer_txDisplay[19+x]=bufferDisplay2.licenceSale[x+1];
 621              		.loc 1 411 0 is_stmt 1 discriminator 3
 622 02e4 03F11300 		add	r0, r3, #19
 623 02e8 591C     		adds	r1, r3, #1
 624 02ea B34A     		ldr	r2, .L114
 625 02ec 0A44     		add	r2, r2, r1
 626 02ee 92F8DF50 		ldrb	r5, [r2, #223]	@ zero_extendqisi2
 627 02f2 B24A     		ldr	r2, .L114+4
 628 02f4 1554     		strb	r5, [r2, r0]
 412:.\RFPoll.c    ****                     tempPreset[x] = 0x00;
 629              		.loc 1 412 0 discriminator 3
 630 02f6 0020     		movs	r0, #0
 631 02f8 B14A     		ldr	r2, .L114+8
 632 02fa D054     		strb	r0, [r2, r3]
 410:.\RFPoll.c    ****                     buffer_txDisplay[19+x]=bufferDisplay2.licenceSale[x+1];
 633              		.loc 1 410 0 discriminator 3
 634 02fc 8BB2     		uxth	r3, r1
 635              	.LVL75:
 636              	.L42:
 410:.\RFPoll.c    ****                     buffer_txDisplay[19+x]=bufferDisplay2.licenceSale[x+1];
 637              		.loc 1 410 0 is_stmt 0 discriminator 1
 638 02fe 072B     		cmp	r3, #7
 639 0300 F0D9     		bls	.L45
 640              	.L44:
ARM GAS  C:\Users\RECEPC~1\AppData\Local\Temp\ccXtGlXn.s 			page 20


 641 0302 1B23     		movs	r3, #27
 642              	.LVL76:
 643 0304 04E0     		b	.L46
 644              	.LVL77:
 645              	.L47:
 413:.\RFPoll.c    ****                 }
 414:.\RFPoll.c    ****             }
 415:.\RFPoll.c    ****             for(x=27; x<=37;x++){
 416:.\RFPoll.c    ****                 buffer_txDisplay[x]= 0x30;
 646              		.loc 1 416 0 is_stmt 1 discriminator 3
 647 0306 3021     		movs	r1, #48
 648 0308 AC4A     		ldr	r2, .L114+4
 649 030a D154     		strb	r1, [r2, r3]
 415:.\RFPoll.c    ****                 buffer_txDisplay[x]= 0x30;
 650              		.loc 1 415 0 discriminator 3
 651 030c 0133     		adds	r3, r3, #1
 652              	.LVL78:
 653 030e 9BB2     		uxth	r3, r3
 654              	.LVL79:
 655              	.L46:
 415:.\RFPoll.c    ****                 buffer_txDisplay[x]= 0x30;
 656              		.loc 1 415 0 is_stmt 0 discriminator 1
 657 0310 252B     		cmp	r3, #37
 658 0312 F8D9     		bls	.L47
 417:.\RFPoll.c    ****             }
 418:.\RFPoll.c    ****             buffer_txDisplay[38] = verificar_check(buffer_txDisplay,39);
 659              		.loc 1 418 0 is_stmt 1
 660 0314 A94D     		ldr	r5, .L114+4
 661 0316 2846     		mov	r0, r5
 662 0318 2721     		movs	r1, #39
 663 031a FFF7FEFF 		bl	verificar_check
 664              	.LVL80:
 665 031e 85F82600 		strb	r0, [r5, #38]
 419:.\RFPoll.c    ****             CyDelay(10);
 666              		.loc 1 419 0
 667 0322 0A20     		movs	r0, #10
 668 0324 FFF7FEFF 		bl	CyDelay
 669              	.LVL81:
 420:.\RFPoll.c    ****             for (x = 0; x < 40; x++){
 670              		.loc 1 420 0
 671 0328 05E0     		b	.L48
 672              	.LVL82:
 673              	.L49:
 421:.\RFPoll.c    ****                 RF_Connection_PutChar(buffer_txDisplay[x]);
 674              		.loc 1 421 0 discriminator 3
 675 032a A44B     		ldr	r3, .L114+4
 676 032c 185D     		ldrb	r0, [r3, r4]	@ zero_extendqisi2
 677 032e FFF7FEFF 		bl	RF_Connection_PutChar
 678              	.LVL83:
 420:.\RFPoll.c    ****             for (x = 0; x < 40; x++){
 679              		.loc 1 420 0 discriminator 3
 680 0332 0134     		adds	r4, r4, #1
 681              	.LVL84:
 682 0334 A4B2     		uxth	r4, r4
 683              	.LVL85:
 684              	.L48:
 420:.\RFPoll.c    ****             for (x = 0; x < 40; x++){
ARM GAS  C:\Users\RECEPC~1\AppData\Local\Temp\ccXtGlXn.s 			page 21


 685              		.loc 1 420 0 is_stmt 0 discriminator 1
 686 0336 272C     		cmp	r4, #39
 687 0338 F7D9     		bls	.L49
 422:.\RFPoll.c    ****             }
 423:.\RFPoll.c    ****             CyDelay(10);
 688              		.loc 1 423 0 is_stmt 1
 689 033a 0A20     		movs	r0, #10
 690 033c FFF7FEFF 		bl	CyDelay
 691              	.LVL86:
 424:.\RFPoll.c    ****             side.b.rfState = RF_DELIVERING;
 692              		.loc 1 424 0
 693 0340 A04B     		ldr	r3, .L114+12
 694 0342 0122     		movs	r2, #1
 695 0344 83F80B22 		strb	r2, [r3, #523]
 425:.\RFPoll.c    ****             side.b.RFstateReport = 0;
 696              		.loc 1 425 0
 697 0348 0022     		movs	r2, #0
 698 034a 83F80F22 		strb	r2, [r3, #527]
 699              	.LVL87:
 700              	.L35:
 426:.\RFPoll.c    ****         } 
 427:.\RFPoll.c    ****     ////////////// FIN VENTA ////////////////////////////////////
 428:.\RFPoll.c    ****     if((side.a.pumpState == PUMP_PEOT || side.a.pumpState == PUMP_FEOT) && side.a.RFstateReport == 
 701              		.loc 1 428 0
 702 034e 9D4B     		ldr	r3, .L114+12
 703 0350 93F80431 		ldrb	r3, [r3, #260]	@ zero_extendqisi2
 704 0354 0A3B     		subs	r3, r3, #10
 705 0356 DBB2     		uxtb	r3, r3
 706 0358 012B     		cmp	r3, #1
 707 035a 00F2B080 		bhi	.L50
 708              		.loc 1 428 0 is_stmt 0 discriminator 1
 709 035e 994B     		ldr	r3, .L114+12
 710 0360 93F80731 		ldrb	r3, [r3, #263]	@ zero_extendqisi2
 711 0364 012B     		cmp	r3, #1
 712 0366 40F0AA80 		bne	.L50
 429:.\RFPoll.c    ****         buffer_txDisplay[5]  = side.a.dir;
 713              		.loc 1 429 0 is_stmt 1
 714 036a 964A     		ldr	r2, .L114+12
 715 036c 1178     		ldrb	r1, [r2]	@ zero_extendqisi2
 716 036e 934B     		ldr	r3, .L114+4
 717 0370 5971     		strb	r1, [r3, #5]
 430:.\RFPoll.c    ****         buffer_txDisplay[6]  = 0xA4;
 718              		.loc 1 430 0
 719 0372 A421     		movs	r1, #164
 720 0374 9971     		strb	r1, [r3, #6]
 431:.\RFPoll.c    ****         buffer_txDisplay[7]  = RF_CASHSALEREPORT;
 721              		.loc 1 431 0
 722 0376 0221     		movs	r1, #2
 723 0378 D971     		strb	r1, [r3, #7]
 432:.\RFPoll.c    ****         buffer_txDisplay[8]  = side.a.activeHose;
 724              		.loc 1 432 0
 725 037a 92F80011 		ldrb	r1, [r2, #256]	@ zero_extendqisi2
 726 037e 1972     		strb	r1, [r3, #8]
 433:.\RFPoll.c    ****         for(x=side.a.ppuSale[0];x > 0 ;x--){						   							
 727              		.loc 1 433 0
 728 0380 92F8F100 		ldrb	r0, [r2, #241]	@ zero_extendqisi2
 729 0384 84B2     		uxth	r4, r0
ARM GAS  C:\Users\RECEPC~1\AppData\Local\Temp\ccXtGlXn.s 			page 22


 730              	.LVL88:
 731 0386 08E0     		b	.L51
 732              	.L52:
 434:.\RFPoll.c    ****     		tempPPU[side.a.ppuSale[0]-x]= side.a.ppuSale[x];
 733              		.loc 1 434 0 discriminator 3
 734 0388 021B     		subs	r2, r0, r4
 735 038a 8E4B     		ldr	r3, .L114+12
 736 038c 2344     		add	r3, r3, r4
 737 038e 93F8F110 		ldrb	r1, [r3, #241]	@ zero_extendqisi2
 738 0392 8D4B     		ldr	r3, .L114+16
 739 0394 9954     		strb	r1, [r3, r2]
 433:.\RFPoll.c    ****         for(x=side.a.ppuSale[0];x > 0 ;x--){						   							
 740              		.loc 1 433 0 discriminator 3
 741 0396 013C     		subs	r4, r4, #1
 742              	.LVL89:
 743 0398 A4B2     		uxth	r4, r4
 744              	.LVL90:
 745              	.L51:
 433:.\RFPoll.c    ****         for(x=side.a.ppuSale[0];x > 0 ;x--){						   							
 746              		.loc 1 433 0 is_stmt 0 discriminator 1
 747 039a 002C     		cmp	r4, #0
 748 039c F4D1     		bne	.L52
 749 039e 0923     		movs	r3, #9
 750 03a0 0CE0     		b	.L53
 751              	.LVL91:
 752              	.L55:
 435:.\RFPoll.c    ****     	}
 436:.\RFPoll.c    ****         for(x = 9; x<=13; x++){
 437:.\RFPoll.c    ****             buffer_txDisplay[x] = tempPPU[x-9]; 
 753              		.loc 1 437 0 is_stmt 1
 754 03a2 A3F10902 		sub	r2, r3, #9
 755 03a6 8849     		ldr	r1, .L114+16
 756 03a8 8A5C     		ldrb	r2, [r1, r2]	@ zero_extendqisi2
 757 03aa D2B2     		uxtb	r2, r2
 758 03ac 8349     		ldr	r1, .L114+4
 759 03ae CA54     		strb	r2, [r1, r3]
 438:.\RFPoll.c    ****             if(buffer_txDisplay[x]== 0x00)
 760              		.loc 1 438 0
 761 03b0 12B9     		cbnz	r2, .L54
 439:.\RFPoll.c    ****                 buffer_txDisplay[x] = 0x30;
 762              		.loc 1 439 0
 763 03b2 3021     		movs	r1, #48
 764 03b4 814A     		ldr	r2, .L114+4
 765 03b6 D154     		strb	r1, [r2, r3]
 766              	.L54:
 436:.\RFPoll.c    ****             buffer_txDisplay[x] = tempPPU[x-9]; 
 767              		.loc 1 436 0 discriminator 2
 768 03b8 0133     		adds	r3, r3, #1
 769              	.LVL92:
 770 03ba 9BB2     		uxth	r3, r3
 771              	.LVL93:
 772              	.L53:
 436:.\RFPoll.c    ****             buffer_txDisplay[x] = tempPPU[x-9]; 
 773              		.loc 1 436 0 is_stmt 0 discriminator 1
 774 03bc 0D2B     		cmp	r3, #13
 775 03be F0D9     		bls	.L55
 440:.\RFPoll.c    ****         } 
ARM GAS  C:\Users\RECEPC~1\AppData\Local\Temp\ccXtGlXn.s 			page 23


 441:.\RFPoll.c    ****         if(digits ==5 || digits ==6){
 776              		.loc 1 441 0 is_stmt 1
 777 03c0 824B     		ldr	r3, .L114+20
 778              	.LVL94:
 779 03c2 1B78     		ldrb	r3, [r3]	@ zero_extendqisi2
 780 03c4 053B     		subs	r3, r3, #5
 781 03c6 DBB2     		uxtb	r3, r3
 782 03c8 012B     		cmp	r3, #1
 783 03ca 0CD9     		bls	.L107
 784 03cc 0123     		movs	r3, #1
 785 03ce 1BE0     		b	.L57
 786              	.LVL95:
 787              	.L58:
 442:.\RFPoll.c    ****             for(x=1;x <= side.a.volumeSale[0];x++){						   							
 443:.\RFPoll.c    ****                 buffer_txDisplay[x+13]=side.a.volumeSale[7-x];                
 788              		.loc 1 443 0 discriminator 3
 789 03d0 03F10D01 		add	r1, r3, #13
 790 03d4 7E4A     		ldr	r2, .L114+24
 791 03d6 D21A     		subs	r2, r2, r3
 792 03d8 92F8E300 		ldrb	r0, [r2, #227]	@ zero_extendqisi2
 793 03dc 774A     		ldr	r2, .L114+4
 794 03de 5054     		strb	r0, [r2, r1]
 442:.\RFPoll.c    ****             for(x=1;x <= side.a.volumeSale[0];x++){						   							
 795              		.loc 1 442 0 discriminator 3
 796 03e0 0133     		adds	r3, r3, #1
 797              	.LVL96:
 798 03e2 9BB2     		uxth	r3, r3
 799              	.LVL97:
 800 03e4 00E0     		b	.L56
 801              	.LVL98:
 802              	.L107:
 803 03e6 0123     		movs	r3, #1
 804              	.L56:
 805              	.LVL99:
 442:.\RFPoll.c    ****             for(x=1;x <= side.a.volumeSale[0];x++){						   							
 806              		.loc 1 442 0 is_stmt 0 discriminator 1
 807 03e8 764A     		ldr	r2, .L114+12
 808 03ea 92F8E320 		ldrb	r2, [r2, #227]	@ zero_extendqisi2
 809 03ee 9A42     		cmp	r2, r3
 810 03f0 EED2     		bcs	.L58
 811 03f2 0EE0     		b	.L59
 812              	.L60:
 444:.\RFPoll.c    ****         	}
 445:.\RFPoll.c    ****         }else{
 446:.\RFPoll.c    ****             for(x=1;x <= side.a.volumeSale[0];x++){						   							
 447:.\RFPoll.c    ****                 buffer_txDisplay[x+13]=side.a.volumeSale[9-x];                
 813              		.loc 1 447 0 is_stmt 1 discriminator 3
 814 03f4 03F10D01 		add	r1, r3, #13
 815 03f8 764A     		ldr	r2, .L114+28
 816 03fa D21A     		subs	r2, r2, r3
 817 03fc 92F8E300 		ldrb	r0, [r2, #227]	@ zero_extendqisi2
 818 0400 6E4A     		ldr	r2, .L114+4
 819 0402 5054     		strb	r0, [r2, r1]
 446:.\RFPoll.c    ****                 buffer_txDisplay[x+13]=side.a.volumeSale[9-x];                
 820              		.loc 1 446 0 discriminator 3
 821 0404 0133     		adds	r3, r3, #1
 822              	.LVL100:
ARM GAS  C:\Users\RECEPC~1\AppData\Local\Temp\ccXtGlXn.s 			page 24


 823 0406 9BB2     		uxth	r3, r3
 824              	.LVL101:
 825              	.L57:
 446:.\RFPoll.c    ****                 buffer_txDisplay[x+13]=side.a.volumeSale[9-x];                
 826              		.loc 1 446 0 is_stmt 0 discriminator 1
 827 0408 6E4A     		ldr	r2, .L114+12
 828 040a 92F8E320 		ldrb	r2, [r2, #227]	@ zero_extendqisi2
 829 040e 9A42     		cmp	r2, r3
 830 0410 F0D2     		bcs	.L60
 831              	.L59:
 448:.\RFPoll.c    ****         	}
 449:.\RFPoll.c    ****         }        
 450:.\RFPoll.c    ****         if(buffer_txDisplay[20]==0x00){
 832              		.loc 1 450 0 is_stmt 1
 833 0412 6A4B     		ldr	r3, .L114+4
 834              	.LVL102:
 835 0414 1B7D     		ldrb	r3, [r3, #20]	@ zero_extendqisi2
 836 0416 1BB9     		cbnz	r3, .L61
 451:.\RFPoll.c    ****             buffer_txDisplay[20] = 0x30;
 837              		.loc 1 451 0
 838 0418 684B     		ldr	r3, .L114+4
 839 041a 3022     		movs	r2, #48
 840 041c 1A75     		strb	r2, [r3, #20]
 452:.\RFPoll.c    ****             buffer_txDisplay[21] = 0x30;
 841              		.loc 1 452 0
 842 041e 5A75     		strb	r2, [r3, #21]
 843              	.L61:
 453:.\RFPoll.c    ****         }
 454:.\RFPoll.c    ****         if(digits ==5 || digits ==6){
 844              		.loc 1 454 0
 845 0420 6A4B     		ldr	r3, .L114+20
 846 0422 1B78     		ldrb	r3, [r3]	@ zero_extendqisi2
 847 0424 053B     		subs	r3, r3, #5
 848 0426 DBB2     		uxtb	r3, r3
 849 0428 012B     		cmp	r3, #1
 850 042a 0CD9     		bls	.L108
 851 042c 0123     		movs	r3, #1
 852 042e 1BE0     		b	.L63
 853              	.LVL103:
 854              	.L64:
 455:.\RFPoll.c    ****             for(x=1;x <= side.a.moneySale[0];x++){						   							
 456:.\RFPoll.c    ****         		buffer_txDisplay[x+21]=side.a.moneySale[7-x];                
 855              		.loc 1 456 0 discriminator 3
 856 0430 03F11501 		add	r1, r3, #21
 857 0434 664A     		ldr	r2, .L114+24
 858 0436 D21A     		subs	r2, r2, r3
 859 0438 92F8D500 		ldrb	r0, [r2, #213]	@ zero_extendqisi2
 860 043c 5F4A     		ldr	r2, .L114+4
 861 043e 5054     		strb	r0, [r2, r1]
 455:.\RFPoll.c    ****             for(x=1;x <= side.a.moneySale[0];x++){						   							
 862              		.loc 1 455 0 discriminator 3
 863 0440 0133     		adds	r3, r3, #1
 864              	.LVL104:
 865 0442 9BB2     		uxth	r3, r3
 866              	.LVL105:
 867 0444 00E0     		b	.L62
 868              	.LVL106:
ARM GAS  C:\Users\RECEPC~1\AppData\Local\Temp\ccXtGlXn.s 			page 25


 869              	.L108:
 870 0446 0123     		movs	r3, #1
 871              	.L62:
 872              	.LVL107:
 455:.\RFPoll.c    ****             for(x=1;x <= side.a.moneySale[0];x++){						   							
 873              		.loc 1 455 0 is_stmt 0 discriminator 1
 874 0448 5E4A     		ldr	r2, .L114+12
 875 044a 92F8D520 		ldrb	r2, [r2, #213]	@ zero_extendqisi2
 876 044e 9A42     		cmp	r2, r3
 877 0450 EED2     		bcs	.L64
 878 0452 0EE0     		b	.L65
 879              	.L66:
 457:.\RFPoll.c    ****         	} 
 458:.\RFPoll.c    ****         }else{
 459:.\RFPoll.c    ****             for(x=1;x <= side.a.moneySale[0];x++){						   							
 460:.\RFPoll.c    ****         		buffer_txDisplay[x+21]=side.a.moneySale[9-x];                
 880              		.loc 1 460 0 is_stmt 1 discriminator 3
 881 0454 03F11501 		add	r1, r3, #21
 882 0458 5E4A     		ldr	r2, .L114+28
 883 045a D21A     		subs	r2, r2, r3
 884 045c 92F8D500 		ldrb	r0, [r2, #213]	@ zero_extendqisi2
 885 0460 564A     		ldr	r2, .L114+4
 886 0462 5054     		strb	r0, [r2, r1]
 459:.\RFPoll.c    ****         		buffer_txDisplay[x+21]=side.a.moneySale[9-x];                
 887              		.loc 1 459 0 discriminator 3
 888 0464 0133     		adds	r3, r3, #1
 889              	.LVL108:
 890 0466 9BB2     		uxth	r3, r3
 891              	.LVL109:
 892              	.L63:
 459:.\RFPoll.c    ****         		buffer_txDisplay[x+21]=side.a.moneySale[9-x];                
 893              		.loc 1 459 0 is_stmt 0 discriminator 1
 894 0468 564A     		ldr	r2, .L114+12
 895 046a 92F8D520 		ldrb	r2, [r2, #213]	@ zero_extendqisi2
 896 046e 9A42     		cmp	r2, r3
 897 0470 F0D2     		bcs	.L66
 898              	.L65:
 461:.\RFPoll.c    ****         	}            
 462:.\RFPoll.c    ****         }
 463:.\RFPoll.c    ****         if(buffer_txDisplay[28]==0x00){
 899              		.loc 1 463 0 is_stmt 1
 900 0472 524B     		ldr	r3, .L114+4
 901              	.LVL110:
 902 0474 1B7F     		ldrb	r3, [r3, #28]	@ zero_extendqisi2
 903 0476 1BB9     		cbnz	r3, .L67
 464:.\RFPoll.c    ****             buffer_txDisplay[28] = 0x30;
 904              		.loc 1 464 0
 905 0478 504B     		ldr	r3, .L114+4
 906 047a 3022     		movs	r2, #48
 907 047c 1A77     		strb	r2, [r3, #28]
 465:.\RFPoll.c    ****             buffer_txDisplay[29] = 0x30;
 908              		.loc 1 465 0
 909 047e 5A77     		strb	r2, [r3, #29]
 910              	.L67:
 466:.\RFPoll.c    ****         }
 467:.\RFPoll.c    ****         buffer_txDisplay[30] = verificar_check(buffer_txDisplay,31);
 911              		.loc 1 467 0
ARM GAS  C:\Users\RECEPC~1\AppData\Local\Temp\ccXtGlXn.s 			page 26


 912 0480 4E4D     		ldr	r5, .L114+4
 913 0482 2846     		mov	r0, r5
 914 0484 1F21     		movs	r1, #31
 915 0486 FFF7FEFF 		bl	verificar_check
 916              	.LVL111:
 917 048a A877     		strb	r0, [r5, #30]
 468:.\RFPoll.c    ****         CyDelay(10);
 918              		.loc 1 468 0
 919 048c 0A20     		movs	r0, #10
 920 048e FFF7FEFF 		bl	CyDelay
 921              	.LVL112:
 469:.\RFPoll.c    ****         for (x = 0; x < 31; x++){
 922              		.loc 1 469 0
 923 0492 05E0     		b	.L68
 924              	.LVL113:
 925              	.L69:
 470:.\RFPoll.c    ****             RF_Connection_PutChar(buffer_txDisplay[x]);
 926              		.loc 1 470 0 discriminator 3
 927 0494 494B     		ldr	r3, .L114+4
 928 0496 185D     		ldrb	r0, [r3, r4]	@ zero_extendqisi2
 929 0498 FFF7FEFF 		bl	RF_Connection_PutChar
 930              	.LVL114:
 469:.\RFPoll.c    ****         for (x = 0; x < 31; x++){
 931              		.loc 1 469 0 discriminator 3
 932 049c 0134     		adds	r4, r4, #1
 933              	.LVL115:
 934 049e A4B2     		uxth	r4, r4
 935              	.LVL116:
 936              	.L68:
 469:.\RFPoll.c    ****         for (x = 0; x < 31; x++){
 937              		.loc 1 469 0 is_stmt 0 discriminator 1
 938 04a0 1E2C     		cmp	r4, #30
 939 04a2 F7D9     		bls	.L69
 471:.\RFPoll.c    ****         }
 472:.\RFPoll.c    ****         CyDelay(10);
 940              		.loc 1 472 0 is_stmt 1
 941 04a4 0A20     		movs	r0, #10
 942 04a6 FFF7FEFF 		bl	CyDelay
 943              	.LVL117:
 473:.\RFPoll.c    ****         side.a.rfState = RF_IDLE;
 944              		.loc 1 473 0
 945 04aa 464B     		ldr	r3, .L114+12
 946 04ac 0822     		movs	r2, #8
 947 04ae 83F80321 		strb	r2, [r3, #259]
 474:.\RFPoll.c    ****         bufferDisplay1.flagActiveSale = false;
 948              		.loc 1 474 0
 949 04b2 0022     		movs	r2, #0
 950 04b4 4849     		ldr	r1, .L114+32
 951 04b6 81F83521 		strb	r2, [r1, #309]
 475:.\RFPoll.c    ****         side.a.RFstateReport = 0;
 952              		.loc 1 475 0
 953 04ba 83F80721 		strb	r2, [r3, #263]
 954              	.LVL118:
 955              	.L50:
 476:.\RFPoll.c    ****     }
 477:.\RFPoll.c    ****     if((side.b.pumpState == PUMP_PEOT || side.b.pumpState == PUMP_FEOT) && side.b.RFstateReport == 
 956              		.loc 1 477 0
ARM GAS  C:\Users\RECEPC~1\AppData\Local\Temp\ccXtGlXn.s 			page 27


 957 04be 414B     		ldr	r3, .L114+12
 958 04c0 93F80C32 		ldrb	r3, [r3, #524]	@ zero_extendqisi2
 959 04c4 0A3B     		subs	r3, r3, #10
 960 04c6 DBB2     		uxtb	r3, r3
 961 04c8 012B     		cmp	r3, #1
 962 04ca 00F2C380 		bhi	.L70
 963              		.loc 1 477 0 is_stmt 0 discriminator 1
 964 04ce 3D4B     		ldr	r3, .L114+12
 965 04d0 93F80F32 		ldrb	r3, [r3, #527]	@ zero_extendqisi2
 966 04d4 012B     		cmp	r3, #1
 967 04d6 40F0BD80 		bne	.L70
 478:.\RFPoll.c    ****         buffer_txDisplay[5]  = side.b.dir;
 968              		.loc 1 478 0 is_stmt 1
 969 04da 3A4A     		ldr	r2, .L114+12
 970 04dc 92F80811 		ldrb	r1, [r2, #264]	@ zero_extendqisi2
 971 04e0 364B     		ldr	r3, .L114+4
 972 04e2 5971     		strb	r1, [r3, #5]
 479:.\RFPoll.c    ****         buffer_txDisplay[6]  = 0xA4;
 973              		.loc 1 479 0
 974 04e4 A421     		movs	r1, #164
 975 04e6 9971     		strb	r1, [r3, #6]
 480:.\RFPoll.c    ****         buffer_txDisplay[7]  = RF_CASHSALEREPORT;
 976              		.loc 1 480 0
 977 04e8 0221     		movs	r1, #2
 978 04ea D971     		strb	r1, [r3, #7]
 481:.\RFPoll.c    ****         buffer_txDisplay[8]  = side.b.activeHose;
 979              		.loc 1 481 0
 980 04ec 92F80812 		ldrb	r1, [r2, #520]	@ zero_extendqisi2
 981 04f0 1972     		strb	r1, [r3, #8]
 482:.\RFPoll.c    ****         for(x=side.b.ppuSale[0];x > 0 ;x--){						   							
 982              		.loc 1 482 0
 983 04f2 92F8F901 		ldrb	r0, [r2, #505]	@ zero_extendqisi2
 984 04f6 84B2     		uxth	r4, r0
 985              	.LVL119:
 986 04f8 08E0     		b	.L71
 987              	.L72:
 483:.\RFPoll.c    ****     		tempPPU[side.b.ppuSale[0]-x]= side.b.ppuSale[x];
 988              		.loc 1 483 0 discriminator 3
 989 04fa 021B     		subs	r2, r0, r4
 990 04fc 314B     		ldr	r3, .L114+12
 991 04fe 2344     		add	r3, r3, r4
 992 0500 93F8F911 		ldrb	r1, [r3, #505]	@ zero_extendqisi2
 993 0504 304B     		ldr	r3, .L114+16
 994 0506 9954     		strb	r1, [r3, r2]
 482:.\RFPoll.c    ****         for(x=side.b.ppuSale[0];x > 0 ;x--){						   							
 995              		.loc 1 482 0 discriminator 3
 996 0508 013C     		subs	r4, r4, #1
 997              	.LVL120:
 998 050a A4B2     		uxth	r4, r4
 999              	.LVL121:
 1000              	.L71:
 482:.\RFPoll.c    ****         for(x=side.b.ppuSale[0];x > 0 ;x--){						   							
 1001              		.loc 1 482 0 is_stmt 0 discriminator 1
 1002 050c 002C     		cmp	r4, #0
 1003 050e F4D1     		bne	.L72
 1004 0510 0923     		movs	r3, #9
 1005 0512 0CE0     		b	.L73
ARM GAS  C:\Users\RECEPC~1\AppData\Local\Temp\ccXtGlXn.s 			page 28


 1006              	.LVL122:
 1007              	.L75:
 484:.\RFPoll.c    ****     	}
 485:.\RFPoll.c    ****         for(x = 9; x<=13; x++){
 486:.\RFPoll.c    ****             buffer_txDisplay[x] = tempPPU[x-9]; 
 1008              		.loc 1 486 0 is_stmt 1
 1009 0514 A3F10902 		sub	r2, r3, #9
 1010 0518 2B49     		ldr	r1, .L114+16
 1011 051a 8A5C     		ldrb	r2, [r1, r2]	@ zero_extendqisi2
 1012 051c D2B2     		uxtb	r2, r2
 1013 051e 2749     		ldr	r1, .L114+4
 1014 0520 CA54     		strb	r2, [r1, r3]
 487:.\RFPoll.c    ****             if(buffer_txDisplay[x]== 0x00)
 1015              		.loc 1 487 0
 1016 0522 12B9     		cbnz	r2, .L74
 488:.\RFPoll.c    ****                 buffer_txDisplay[x] = 0x30;
 1017              		.loc 1 488 0
 1018 0524 3021     		movs	r1, #48
 1019 0526 254A     		ldr	r2, .L114+4
 1020 0528 D154     		strb	r1, [r2, r3]
 1021              	.L74:
 485:.\RFPoll.c    ****             buffer_txDisplay[x] = tempPPU[x-9]; 
 1022              		.loc 1 485 0 discriminator 2
 1023 052a 0133     		adds	r3, r3, #1
 1024              	.LVL123:
 1025 052c 9BB2     		uxth	r3, r3
 1026              	.LVL124:
 1027              	.L73:
 485:.\RFPoll.c    ****             buffer_txDisplay[x] = tempPPU[x-9]; 
 1028              		.loc 1 485 0 is_stmt 0 discriminator 1
 1029 052e 0D2B     		cmp	r3, #13
 1030 0530 F0D9     		bls	.L75
 489:.\RFPoll.c    ****         } 
 490:.\RFPoll.c    ****         if(digits ==5 || digits ==6){
 1031              		.loc 1 490 0 is_stmt 1
 1032 0532 264B     		ldr	r3, .L114+20
 1033              	.LVL125:
 1034 0534 1B78     		ldrb	r3, [r3]	@ zero_extendqisi2
 1035 0536 053B     		subs	r3, r3, #5
 1036 0538 DBB2     		uxtb	r3, r3
 1037 053a 012B     		cmp	r3, #1
 1038 053c 0CD9     		bls	.L109
 1039 053e 0123     		movs	r3, #1
 1040 0540 1BE0     		b	.L77
 1041              	.LVL126:
 1042              	.L78:
 491:.\RFPoll.c    ****             for(x=1;x <= side.b.volumeSale[0];x++){						   							
 492:.\RFPoll.c    ****                 buffer_txDisplay[x+13]=side.b.volumeSale[7-x];                
 1043              		.loc 1 492 0 discriminator 3
 1044 0542 03F10D01 		add	r1, r3, #13
 1045 0546 224A     		ldr	r2, .L114+24
 1046 0548 D21A     		subs	r2, r2, r3
 1047 054a 92F8EB01 		ldrb	r0, [r2, #491]	@ zero_extendqisi2
 1048 054e 1B4A     		ldr	r2, .L114+4
 1049 0550 5054     		strb	r0, [r2, r1]
 491:.\RFPoll.c    ****             for(x=1;x <= side.b.volumeSale[0];x++){						   							
 1050              		.loc 1 491 0 discriminator 3
ARM GAS  C:\Users\RECEPC~1\AppData\Local\Temp\ccXtGlXn.s 			page 29


 1051 0552 0133     		adds	r3, r3, #1
 1052              	.LVL127:
 1053 0554 9BB2     		uxth	r3, r3
 1054              	.LVL128:
 1055 0556 00E0     		b	.L76
 1056              	.LVL129:
 1057              	.L109:
 1058 0558 0123     		movs	r3, #1
 1059              	.L76:
 1060              	.LVL130:
 491:.\RFPoll.c    ****             for(x=1;x <= side.b.volumeSale[0];x++){						   							
 1061              		.loc 1 491 0 is_stmt 0 discriminator 1
 1062 055a 1A4A     		ldr	r2, .L114+12
 1063 055c 92F8EB21 		ldrb	r2, [r2, #491]	@ zero_extendqisi2
 1064 0560 9A42     		cmp	r2, r3
 1065 0562 EED2     		bcs	.L78
 1066 0564 0EE0     		b	.L79
 1067              	.L80:
 493:.\RFPoll.c    ****         	}
 494:.\RFPoll.c    ****         }else{
 495:.\RFPoll.c    ****             for(x=1;x <= side.b.volumeSale[0];x++){						   							
 496:.\RFPoll.c    ****                 buffer_txDisplay[x+13]=side.b.volumeSale[9-x];                
 1068              		.loc 1 496 0 is_stmt 1 discriminator 3
 1069 0566 03F10D01 		add	r1, r3, #13
 1070 056a 1A4A     		ldr	r2, .L114+28
 1071 056c D21A     		subs	r2, r2, r3
 1072 056e 92F8EB01 		ldrb	r0, [r2, #491]	@ zero_extendqisi2
 1073 0572 124A     		ldr	r2, .L114+4
 1074 0574 5054     		strb	r0, [r2, r1]
 495:.\RFPoll.c    ****                 buffer_txDisplay[x+13]=side.b.volumeSale[9-x];                
 1075              		.loc 1 495 0 discriminator 3
 1076 0576 0133     		adds	r3, r3, #1
 1077              	.LVL131:
 1078 0578 9BB2     		uxth	r3, r3
 1079              	.LVL132:
 1080              	.L77:
 495:.\RFPoll.c    ****                 buffer_txDisplay[x+13]=side.b.volumeSale[9-x];                
 1081              		.loc 1 495 0 is_stmt 0 discriminator 1
 1082 057a 124A     		ldr	r2, .L114+12
 1083 057c 92F8EB21 		ldrb	r2, [r2, #491]	@ zero_extendqisi2
 1084 0580 9A42     		cmp	r2, r3
 1085 0582 F0D2     		bcs	.L80
 1086              	.L79:
 497:.\RFPoll.c    ****         	}
 498:.\RFPoll.c    ****         }        
 499:.\RFPoll.c    ****         if(buffer_txDisplay[20]==0x00){
 1087              		.loc 1 499 0 is_stmt 1
 1088 0584 0D4B     		ldr	r3, .L114+4
 1089              	.LVL133:
 1090 0586 1B7D     		ldrb	r3, [r3, #20]	@ zero_extendqisi2
 1091 0588 1BB9     		cbnz	r3, .L81
 500:.\RFPoll.c    ****             buffer_txDisplay[20] = 0x30;
 1092              		.loc 1 500 0
 1093 058a 0C4B     		ldr	r3, .L114+4
 1094 058c 3022     		movs	r2, #48
 1095 058e 1A75     		strb	r2, [r3, #20]
 501:.\RFPoll.c    ****             buffer_txDisplay[21] = 0x30;
ARM GAS  C:\Users\RECEPC~1\AppData\Local\Temp\ccXtGlXn.s 			page 30


 1096              		.loc 1 501 0
 1097 0590 5A75     		strb	r2, [r3, #21]
 1098              	.L81:
 502:.\RFPoll.c    ****         }
 503:.\RFPoll.c    ****         if(digits ==5 || digits ==6){
 1099              		.loc 1 503 0
 1100 0592 0E4B     		ldr	r3, .L114+20
 1101 0594 1B78     		ldrb	r3, [r3]	@ zero_extendqisi2
 1102 0596 053B     		subs	r3, r3, #5
 1103 0598 DBB2     		uxtb	r3, r3
 1104 059a 012B     		cmp	r3, #1
 1105 059c 1ED9     		bls	.L110
 1106 059e 0123     		movs	r3, #1
 1107 05a0 2DE0     		b	.L83
 1108              	.LVL134:
 1109              	.L84:
 504:.\RFPoll.c    ****             for(x=1;x <= side.b.moneySale[0];x++){						   							
 505:.\RFPoll.c    ****         		buffer_txDisplay[x+21]=side.b.moneySale[7-x];                
 1110              		.loc 1 505 0 discriminator 3
 1111 05a2 03F11501 		add	r1, r3, #21
 1112 05a6 0A4A     		ldr	r2, .L114+24
 1113 05a8 D21A     		subs	r2, r2, r3
 1114 05aa 92F8DD01 		ldrb	r0, [r2, #477]	@ zero_extendqisi2
 1115 05ae 034A     		ldr	r2, .L114+4
 1116 05b0 5054     		strb	r0, [r2, r1]
 504:.\RFPoll.c    ****             for(x=1;x <= side.b.moneySale[0];x++){						   							
 1117              		.loc 1 504 0 discriminator 3
 1118 05b2 0133     		adds	r3, r3, #1
 1119              	.LVL135:
 1120 05b4 9BB2     		uxth	r3, r3
 1121              	.LVL136:
 1122 05b6 12E0     		b	.L82
 1123              	.L115:
 1124              		.align	2
 1125              	.L114:
 1126 05b8 00000000 		.word	bufferDisplay2
 1127 05bc 00000000 		.word	buffer_txDisplay
 1128 05c0 00000000 		.word	tempPreset
 1129 05c4 00000000 		.word	side
 1130 05c8 00000000 		.word	tempPPU
 1131 05cc 00000000 		.word	digits
 1132 05d0 07000000 		.word	side+7
 1133 05d4 09000000 		.word	side+9
 1134 05d8 00000000 		.word	bufferDisplay1
 1135              	.LVL137:
 1136              	.L110:
 1137 05dc 0123     		movs	r3, #1
 1138              	.L82:
 1139              	.LVL138:
 504:.\RFPoll.c    ****             for(x=1;x <= side.b.moneySale[0];x++){						   							
 1140              		.loc 1 504 0 is_stmt 0 discriminator 1
 1141 05de 684A     		ldr	r2, .L116
 1142 05e0 92F8DD21 		ldrb	r2, [r2, #477]	@ zero_extendqisi2
 1143 05e4 9A42     		cmp	r2, r3
 1144 05e6 DCD2     		bcs	.L84
 1145 05e8 0EE0     		b	.L85
 1146              	.L86:
ARM GAS  C:\Users\RECEPC~1\AppData\Local\Temp\ccXtGlXn.s 			page 31


 506:.\RFPoll.c    ****         	} 
 507:.\RFPoll.c    ****         }else{
 508:.\RFPoll.c    ****             for(x=1;x <= side.b.moneySale[0];x++){						   							
 509:.\RFPoll.c    ****         		buffer_txDisplay[x+21]=side.b.moneySale[9-x];                
 1147              		.loc 1 509 0 is_stmt 1 discriminator 3
 1148 05ea 03F11501 		add	r1, r3, #21
 1149 05ee 654A     		ldr	r2, .L116+4
 1150 05f0 D21A     		subs	r2, r2, r3
 1151 05f2 92F8DD01 		ldrb	r0, [r2, #477]	@ zero_extendqisi2
 1152 05f6 644A     		ldr	r2, .L116+8
 1153 05f8 5054     		strb	r0, [r2, r1]
 508:.\RFPoll.c    ****         		buffer_txDisplay[x+21]=side.b.moneySale[9-x];                
 1154              		.loc 1 508 0 discriminator 3
 1155 05fa 0133     		adds	r3, r3, #1
 1156              	.LVL139:
 1157 05fc 9BB2     		uxth	r3, r3
 1158              	.LVL140:
 1159              	.L83:
 508:.\RFPoll.c    ****         		buffer_txDisplay[x+21]=side.b.moneySale[9-x];                
 1160              		.loc 1 508 0 is_stmt 0 discriminator 1
 1161 05fe 604A     		ldr	r2, .L116
 1162 0600 92F8DD21 		ldrb	r2, [r2, #477]	@ zero_extendqisi2
 1163 0604 9A42     		cmp	r2, r3
 1164 0606 F0D2     		bcs	.L86
 1165              	.L85:
 510:.\RFPoll.c    ****         	}            
 511:.\RFPoll.c    ****         }
 512:.\RFPoll.c    ****         if(buffer_txDisplay[28]==0x00){
 1166              		.loc 1 512 0 is_stmt 1
 1167 0608 5F4B     		ldr	r3, .L116+8
 1168              	.LVL141:
 1169 060a 1B7F     		ldrb	r3, [r3, #28]	@ zero_extendqisi2
 1170 060c 1BB9     		cbnz	r3, .L87
 513:.\RFPoll.c    ****             buffer_txDisplay[28] = 0x30;
 1171              		.loc 1 513 0
 1172 060e 5E4B     		ldr	r3, .L116+8
 1173 0610 3022     		movs	r2, #48
 1174 0612 1A77     		strb	r2, [r3, #28]
 514:.\RFPoll.c    ****             buffer_txDisplay[29] = 0x30;
 1175              		.loc 1 514 0
 1176 0614 5A77     		strb	r2, [r3, #29]
 1177              	.L87:
 515:.\RFPoll.c    ****         }
 516:.\RFPoll.c    ****         buffer_txDisplay[30] = verificar_check(buffer_txDisplay,31);
 1178              		.loc 1 516 0
 1179 0616 5C4D     		ldr	r5, .L116+8
 1180 0618 2846     		mov	r0, r5
 1181 061a 1F21     		movs	r1, #31
 1182 061c FFF7FEFF 		bl	verificar_check
 1183              	.LVL142:
 1184 0620 A877     		strb	r0, [r5, #30]
 517:.\RFPoll.c    ****         CyDelay(10);
 1185              		.loc 1 517 0
 1186 0622 0A20     		movs	r0, #10
 1187 0624 FFF7FEFF 		bl	CyDelay
 1188              	.LVL143:
 518:.\RFPoll.c    ****         for (x = 0; x < 31; x++){
ARM GAS  C:\Users\RECEPC~1\AppData\Local\Temp\ccXtGlXn.s 			page 32


 1189              		.loc 1 518 0
 1190 0628 05E0     		b	.L88
 1191              	.LVL144:
 1192              	.L89:
 519:.\RFPoll.c    ****             RF_Connection_PutChar(buffer_txDisplay[x]);
 1193              		.loc 1 519 0 discriminator 3
 1194 062a 574B     		ldr	r3, .L116+8
 1195 062c 185D     		ldrb	r0, [r3, r4]	@ zero_extendqisi2
 1196 062e FFF7FEFF 		bl	RF_Connection_PutChar
 1197              	.LVL145:
 518:.\RFPoll.c    ****         for (x = 0; x < 31; x++){
 1198              		.loc 1 518 0 discriminator 3
 1199 0632 0134     		adds	r4, r4, #1
 1200              	.LVL146:
 1201 0634 A4B2     		uxth	r4, r4
 1202              	.LVL147:
 1203              	.L88:
 518:.\RFPoll.c    ****         for (x = 0; x < 31; x++){
 1204              		.loc 1 518 0 is_stmt 0 discriminator 1
 1205 0636 1E2C     		cmp	r4, #30
 1206 0638 F7D9     		bls	.L89
 520:.\RFPoll.c    ****         }
 521:.\RFPoll.c    ****         CyDelay(10);
 1207              		.loc 1 521 0 is_stmt 1
 1208 063a 0A20     		movs	r0, #10
 1209 063c FFF7FEFF 		bl	CyDelay
 1210              	.LVL148:
 522:.\RFPoll.c    ****         side.b.rfState = RF_IDLE;
 1211              		.loc 1 522 0
 1212 0640 4F4B     		ldr	r3, .L116
 1213 0642 0822     		movs	r2, #8
 1214 0644 83F80B22 		strb	r2, [r3, #523]
 523:.\RFPoll.c    ****         bufferDisplay2.flagActiveSale = false;
 1215              		.loc 1 523 0
 1216 0648 0022     		movs	r2, #0
 1217 064a 5049     		ldr	r1, .L116+12
 1218 064c 81F83521 		strb	r2, [r1, #309]
 524:.\RFPoll.c    ****         side.b.RFstateReport = 0;
 1219              		.loc 1 524 0
 1220 0650 83F80F22 		strb	r2, [r3, #527]
 1221              	.LVL149:
 1222              	.L70:
 525:.\RFPoll.c    ****     }
 526:.\RFPoll.c    ****     ////////////// TURNOS ////////////////////////////////////
 527:.\RFPoll.c    ****     if(ShiftState ==1  && side.a.RFstateReport == 1){                                    
 1223              		.loc 1 527 0
 1224 0654 4E4B     		ldr	r3, .L116+16
 1225 0656 1B78     		ldrb	r3, [r3]	@ zero_extendqisi2
 1226 0658 DBB2     		uxtb	r3, r3
 1227 065a 012B     		cmp	r3, #1
 1228 065c 63D1     		bne	.L90
 1229              		.loc 1 527 0 is_stmt 0 discriminator 1
 1230 065e 484B     		ldr	r3, .L116
 1231 0660 93F80731 		ldrb	r3, [r3, #263]	@ zero_extendqisi2
 1232 0664 012B     		cmp	r3, #1
 1233 0666 5ED1     		bne	.L90
 528:.\RFPoll.c    ****         buffer_txDisplay[5]  = side.a.dir;
ARM GAS  C:\Users\RECEPC~1\AppData\Local\Temp\ccXtGlXn.s 			page 33


 1234              		.loc 1 528 0 is_stmt 1
 1235 0668 454B     		ldr	r3, .L116
 1236 066a 1A78     		ldrb	r2, [r3]	@ zero_extendqisi2
 1237 066c 464B     		ldr	r3, .L116+8
 1238 066e 5A71     		strb	r2, [r3, #5]
 529:.\RFPoll.c    ****         buffer_txDisplay[6]  = 0xE3;
 1239              		.loc 1 529 0
 1240 0670 E322     		movs	r2, #227
 1241 0672 9A71     		strb	r2, [r3, #6]
 530:.\RFPoll.c    ****         buffer_txDisplay[7]  = RF_WORKSHIFTREQ;
 1242              		.loc 1 530 0
 1243 0674 0522     		movs	r2, #5
 1244 0676 DA71     		strb	r2, [r3, #7]
 1245              	.LVL150:
 531:.\RFPoll.c    ****         for(x=1;x <= bufferDisplay1.shiftId[0] ;x++){						   							
 1246              		.loc 1 531 0
 1247 0678 0122     		movs	r2, #1
 1248 067a 0AE0     		b	.L91
 1249              	.LVL151:
 1250              	.L92:
 532:.\RFPoll.c    ****     		buffer_txDisplay[x+7]= bufferDisplay1.shiftId[(bufferDisplay1.shiftId[0]+1)-x];            
 1251              		.loc 1 532 0 discriminator 3
 1252 067c D11D     		adds	r1, r2, #7
 1253 067e 0133     		adds	r3, r3, #1
 1254 0680 9B1A     		subs	r3, r3, r2
 1255 0682 4448     		ldr	r0, .L116+20
 1256 0684 0344     		add	r3, r3, r0
 1257 0686 93F83601 		ldrb	r0, [r3, #310]	@ zero_extendqisi2
 1258 068a 3F4B     		ldr	r3, .L116+8
 1259 068c 5854     		strb	r0, [r3, r1]
 531:.\RFPoll.c    ****         for(x=1;x <= bufferDisplay1.shiftId[0] ;x++){						   							
 1260              		.loc 1 531 0 discriminator 3
 1261 068e 0132     		adds	r2, r2, #1
 1262              	.LVL152:
 1263 0690 92B2     		uxth	r2, r2
 1264              	.LVL153:
 1265              	.L91:
 531:.\RFPoll.c    ****         for(x=1;x <= bufferDisplay1.shiftId[0] ;x++){						   							
 1266              		.loc 1 531 0 is_stmt 0 discriminator 1
 1267 0692 404B     		ldr	r3, .L116+20
 1268 0694 93F83631 		ldrb	r3, [r3, #310]	@ zero_extendqisi2
 1269 0698 99B2     		uxth	r1, r3
 1270 069a 9142     		cmp	r1, r2
 1271 069c EED2     		bcs	.L92
 1272 069e 0823     		movs	r3, #8
 1273 06a0 07E0     		b	.L93
 1274              	.LVL154:
 1275              	.L95:
 533:.\RFPoll.c    ****     	}
 534:.\RFPoll.c    ****         for(x=8; x<19; x++){
 535:.\RFPoll.c    ****             if(buffer_txDisplay[x] ==0x00)
 1276              		.loc 1 535 0 is_stmt 1
 1277 06a2 394A     		ldr	r2, .L116+8
 1278 06a4 D25C     		ldrb	r2, [r2, r3]	@ zero_extendqisi2
 1279 06a6 12B9     		cbnz	r2, .L94
 536:.\RFPoll.c    ****                 buffer_txDisplay[x]=0x30;
 1280              		.loc 1 536 0
ARM GAS  C:\Users\RECEPC~1\AppData\Local\Temp\ccXtGlXn.s 			page 34


 1281 06a8 3021     		movs	r1, #48
 1282 06aa 374A     		ldr	r2, .L116+8
 1283 06ac D154     		strb	r1, [r2, r3]
 1284              	.L94:
 534:.\RFPoll.c    ****             if(buffer_txDisplay[x] ==0x00)
 1285              		.loc 1 534 0 discriminator 2
 1286 06ae 0133     		adds	r3, r3, #1
 1287              	.LVL155:
 1288 06b0 9BB2     		uxth	r3, r3
 1289              	.LVL156:
 1290              	.L93:
 534:.\RFPoll.c    ****             if(buffer_txDisplay[x] ==0x00)
 1291              		.loc 1 534 0 is_stmt 0 discriminator 1
 1292 06b2 122B     		cmp	r3, #18
 1293 06b4 F5D9     		bls	.L95
 1294 06b6 0122     		movs	r2, #1
 1295 06b8 0BE0     		b	.L96
 1296              	.LVL157:
 1297              	.L97:
 537:.\RFPoll.c    ****         }
 538:.\RFPoll.c    ****         for(x=1;x <= bufferDisplay1.shiftPassword[0] ;x++){						   							
 539:.\RFPoll.c    ****     		buffer_txDisplay[x+18]= bufferDisplay1.shiftPassword[(bufferDisplay1.shiftPassword[0]+1)-x]; 
 1298              		.loc 1 539 0 is_stmt 1 discriminator 3
 1299 06ba 02F11201 		add	r1, r2, #18
 1300 06be 0133     		adds	r3, r3, #1
 1301 06c0 9B1A     		subs	r3, r3, r2
 1302 06c2 3448     		ldr	r0, .L116+20
 1303 06c4 0344     		add	r3, r3, r0
 1304 06c6 93F84101 		ldrb	r0, [r3, #321]	@ zero_extendqisi2
 1305 06ca 2F4B     		ldr	r3, .L116+8
 1306 06cc 5854     		strb	r0, [r3, r1]
 538:.\RFPoll.c    ****     		buffer_txDisplay[x+18]= bufferDisplay1.shiftPassword[(bufferDisplay1.shiftPassword[0]+1)-x]; 
 1307              		.loc 1 538 0 discriminator 3
 1308 06ce 0132     		adds	r2, r2, #1
 1309              	.LVL158:
 1310 06d0 92B2     		uxth	r2, r2
 1311              	.LVL159:
 1312              	.L96:
 538:.\RFPoll.c    ****     		buffer_txDisplay[x+18]= bufferDisplay1.shiftPassword[(bufferDisplay1.shiftPassword[0]+1)-x]; 
 1313              		.loc 1 538 0 is_stmt 0 discriminator 1
 1314 06d2 304B     		ldr	r3, .L116+20
 1315 06d4 93F84131 		ldrb	r3, [r3, #321]	@ zero_extendqisi2
 1316 06d8 99B2     		uxth	r1, r3
 1317 06da 9142     		cmp	r1, r2
 1318 06dc EDD2     		bcs	.L97
 1319 06de 1323     		movs	r3, #19
 1320 06e0 07E0     		b	.L98
 1321              	.LVL160:
 1322              	.L100:
 540:.\RFPoll.c    ****     	}
 541:.\RFPoll.c    ****         for(x=19; x<31; x++){
 542:.\RFPoll.c    ****             if(buffer_txDisplay[x] ==0x00)
 1323              		.loc 1 542 0 is_stmt 1
 1324 06e2 294A     		ldr	r2, .L116+8
 1325 06e4 D25C     		ldrb	r2, [r2, r3]	@ zero_extendqisi2
 1326 06e6 12B9     		cbnz	r2, .L99
 543:.\RFPoll.c    ****                 buffer_txDisplay[x]=0x30;
ARM GAS  C:\Users\RECEPC~1\AppData\Local\Temp\ccXtGlXn.s 			page 35


 1327              		.loc 1 543 0
 1328 06e8 3021     		movs	r1, #48
 1329 06ea 274A     		ldr	r2, .L116+8
 1330 06ec D154     		strb	r1, [r2, r3]
 1331              	.L99:
 541:.\RFPoll.c    ****             if(buffer_txDisplay[x] ==0x00)
 1332              		.loc 1 541 0 discriminator 2
 1333 06ee 0133     		adds	r3, r3, #1
 1334              	.LVL161:
 1335 06f0 9BB2     		uxth	r3, r3
 1336              	.LVL162:
 1337              	.L98:
 541:.\RFPoll.c    ****             if(buffer_txDisplay[x] ==0x00)
 1338              		.loc 1 541 0 is_stmt 0 discriminator 1
 1339 06f2 1E2B     		cmp	r3, #30
 1340 06f4 F5D9     		bls	.L100
 544:.\RFPoll.c    ****         }
 545:.\RFPoll.c    ****         buffer_txDisplay[32] = verificar_check(buffer_txDisplay,33);
 1341              		.loc 1 545 0 is_stmt 1
 1342 06f6 244C     		ldr	r4, .L116+8
 1343 06f8 2046     		mov	r0, r4
 1344 06fa 2121     		movs	r1, #33
 1345 06fc FFF7FEFF 		bl	verificar_check
 1346              	.LVL163:
 1347 0700 84F82000 		strb	r0, [r4, #32]
 1348              	.LVL164:
 546:.\RFPoll.c    ****         for (x = 0; x < 33; x++){
 1349              		.loc 1 546 0
 1350 0704 0024     		movs	r4, #0
 1351 0706 05E0     		b	.L101
 1352              	.LVL165:
 1353              	.L102:
 547:.\RFPoll.c    ****             RF_Connection_PutChar(buffer_txDisplay[x]);
 1354              		.loc 1 547 0 discriminator 3
 1355 0708 1F4B     		ldr	r3, .L116+8
 1356 070a 185D     		ldrb	r0, [r3, r4]	@ zero_extendqisi2
 1357 070c FFF7FEFF 		bl	RF_Connection_PutChar
 1358              	.LVL166:
 546:.\RFPoll.c    ****         for (x = 0; x < 33; x++){
 1359              		.loc 1 546 0 discriminator 3
 1360 0710 0134     		adds	r4, r4, #1
 1361              	.LVL167:
 1362 0712 A4B2     		uxth	r4, r4
 1363              	.LVL168:
 1364              	.L101:
 546:.\RFPoll.c    ****         for (x = 0; x < 33; x++){
 1365              		.loc 1 546 0 is_stmt 0 discriminator 1
 1366 0714 202C     		cmp	r4, #32
 1367 0716 F7D9     		bls	.L102
 548:.\RFPoll.c    ****         }
 549:.\RFPoll.c    ****         side.a.rfState = RF_WORKSHIFTREQ;
 1368              		.loc 1 549 0 is_stmt 1
 1369 0718 194B     		ldr	r3, .L116
 1370 071a 0522     		movs	r2, #5
 1371 071c 83F80321 		strb	r2, [r3, #259]
 550:.\RFPoll.c    ****         side.a.RFstateReport = 0;
 1372              		.loc 1 550 0
ARM GAS  C:\Users\RECEPC~1\AppData\Local\Temp\ccXtGlXn.s 			page 36


 1373 0720 0022     		movs	r2, #0
 1374 0722 83F80721 		strb	r2, [r3, #263]
 1375              	.LVL169:
 1376              	.L90:
 551:.\RFPoll.c    ****     }
 552:.\RFPoll.c    ****     ////////////// CAMBIO PPU ////////////////////////////////////
 553:.\RFPoll.c    ****     if(side.a.changePPU){
 1377              		.loc 1 553 0
 1378 0726 164B     		ldr	r3, .L116
 1379 0728 93F80531 		ldrb	r3, [r3, #261]	@ zero_extendqisi2
 1380 072c 6BB1     		cbz	r3, .L103
 554:.\RFPoll.c    ****         if(priceChange(side.a.dir,side.a.grade,side.a.ppuAuthorized[side.a.grade]))
 1381              		.loc 1 554 0
 1382 072e 144B     		ldr	r3, .L116
 1383 0730 93F80611 		ldrb	r1, [r3, #262]	@ zero_extendqisi2
 1384 0734 03EBC102 		add	r2, r3, r1, lsl #3
 1385 0738 1878     		ldrb	r0, [r3]	@ zero_extendqisi2
 1386 073a B532     		adds	r2, r2, #181
 1387 073c FFF7FEFF 		bl	priceChange
 1388              	.LVL170:
 1389 0740 18B1     		cbz	r0, .L103
 555:.\RFPoll.c    ****             side.a.changePPU = false;          
 1390              		.loc 1 555 0
 1391 0742 0022     		movs	r2, #0
 1392 0744 0E4B     		ldr	r3, .L116
 1393 0746 83F80521 		strb	r2, [r3, #261]
 1394              	.L103:
 556:.\RFPoll.c    ****     }
 557:.\RFPoll.c    ****     if(side.b.changePPU){
 1395              		.loc 1 557 0
 1396 074a 0D4B     		ldr	r3, .L116
 1397 074c 93F80D32 		ldrb	r3, [r3, #525]	@ zero_extendqisi2
 1398 0750 7BB1     		cbz	r3, .L104
 558:.\RFPoll.c    ****         if(priceChange(side.b.dir,side.b.grade,side.b.ppuAuthorized[side.b.grade]))
 1399              		.loc 1 558 0
 1400 0752 0B4B     		ldr	r3, .L116
 1401 0754 93F80E12 		ldrb	r1, [r3, #526]	@ zero_extendqisi2
 1402 0758 03EBC102 		add	r2, r3, r1, lsl #3
 1403 075c 93F80801 		ldrb	r0, [r3, #264]	@ zero_extendqisi2
 1404 0760 02F2BD12 		addw	r2, r2, #445
 1405 0764 FFF7FEFF 		bl	priceChange
 1406              	.LVL171:
 1407 0768 18B1     		cbz	r0, .L104
 559:.\RFPoll.c    ****             side.b.changePPU = false;
 1408              		.loc 1 559 0
 1409 076a 0022     		movs	r2, #0
 1410 076c 044B     		ldr	r3, .L116
 1411 076e 83F80D22 		strb	r2, [r3, #525]
 1412              	.L104:
 560:.\RFPoll.c    ****     }
 561:.\RFPoll.c    ****          
 562:.\RFPoll.c    ****     countTX=0;
 1413              		.loc 1 562 0
 1414 0772 0020     		movs	r0, #0
 1415 0774 0021     		movs	r1, #0
 1416 0776 084B     		ldr	r3, .L116+24
 1417 0778 C3E90001 		strd	r0, [r3]
ARM GAS  C:\Users\RECEPC~1\AppData\Local\Temp\ccXtGlXn.s 			page 37


 1418 077c 38BD     		pop	{r3, r4, r5, pc}
 1419              	.L117:
 1420 077e 00BF     		.align	2
 1421              	.L116:
 1422 0780 00000000 		.word	side
 1423 0784 09000000 		.word	side+9
 1424 0788 00000000 		.word	buffer_txDisplay
 1425 078c 00000000 		.word	bufferDisplay2
 1426 0790 00000000 		.word	ShiftState
 1427 0794 00000000 		.word	bufferDisplay1
 1428 0798 00000000 		.word	countTX
 1429              		.cfi_endproc
 1430              	.LFE65:
 1431              		.size	pollingRF_Tx, .-pollingRF_Tx
 1432              		.section	.text.pollingRF_Rx,"ax",%progbits
 1433              		.align	2
 1434              		.global	pollingRF_Rx
 1435              		.thumb
 1436              		.thumb_func
 1437              		.type	pollingRF_Rx, %function
 1438              	pollingRF_Rx:
 1439              	.LFB64:
  54:.\RFPoll.c    ****     uint16 i,x,y;
 1440              		.loc 1 54 0
 1441              		.cfi_startproc
 1442              		@ args = 0, pretend = 0, frame = 0
 1443              		@ frame_needed = 0, uses_anonymous_args = 0
  56:.\RFPoll.c    ****     buffer_txDisplay[1] = 0xCB;
 1444              		.loc 1 56 0
 1445 0000 A24B     		ldr	r3, .L209
 1446 0002 BC22     		movs	r2, #188
 1447 0004 1A70     		strb	r2, [r3]
  57:.\RFPoll.c    ****     buffer_txDisplay[2] = 0xC8;
 1448              		.loc 1 57 0
 1449 0006 CB22     		movs	r2, #203
 1450 0008 5A70     		strb	r2, [r3, #1]
  58:.\RFPoll.c    ****     buffer_txDisplay[3] = IDCast[0];
 1451              		.loc 1 58 0
 1452 000a C822     		movs	r2, #200
 1453 000c 9A70     		strb	r2, [r3, #2]
  59:.\RFPoll.c    ****     buffer_txDisplay[4] = IDCast[1];
 1454              		.loc 1 59 0
 1455 000e A04A     		ldr	r2, .L209+4
 1456 0010 1178     		ldrb	r1, [r2]	@ zero_extendqisi2
 1457 0012 D970     		strb	r1, [r3, #3]
  60:.\RFPoll.c    ****     if(countRX > 3){
 1458              		.loc 1 60 0
 1459 0014 5278     		ldrb	r2, [r2, #1]	@ zero_extendqisi2
 1460 0016 1A71     		strb	r2, [r3, #4]
  61:.\RFPoll.c    ****         CyDelay(30);
 1461              		.loc 1 61 0
 1462 0018 9E4B     		ldr	r3, .L209+8
 1463 001a D3E90023 		ldrd	r2, [r3]
 1464 001e 002B     		cmp	r3, #0
 1465 0020 08BF     		it	eq
 1466 0022 042A     		cmpeq	r2, #4
 1467 0024 C0F09383 		bcc	.L208
ARM GAS  C:\Users\RECEPC~1\AppData\Local\Temp\ccXtGlXn.s 			page 38


  54:.\RFPoll.c    ****     uint16 i,x,y;
 1468              		.loc 1 54 0
 1469 0028 70B5     		push	{r4, r5, r6, lr}
 1470              		.cfi_def_cfa_offset 16
 1471              		.cfi_offset 4, -16
 1472              		.cfi_offset 5, -12
 1473              		.cfi_offset 6, -8
 1474              		.cfi_offset 14, -4
  62:.\RFPoll.c    ****         if(RF_Connection_GetRxBufferSize() >= 1){
 1475              		.loc 1 62 0
 1476 002a 1E20     		movs	r0, #30
 1477 002c FFF7FEFF 		bl	CyDelay
 1478              	.LVL172:
  63:.\RFPoll.c    ****             ActiveRF=1;
 1479              		.loc 1 63 0
 1480 0030 FFF7FEFF 		bl	RF_Connection_GetRxBufferSize
 1481              	.LVL173:
 1482 0034 0028     		cmp	r0, #0
 1483 0036 00F08483 		beq	.L120
  64:.\RFPoll.c    ****             counterRF = 0;
 1484              		.loc 1 64 0
 1485 003a 0122     		movs	r2, #1
 1486 003c 964B     		ldr	r3, .L209+12
 1487 003e 1A70     		strb	r2, [r3]
  65:.\RFPoll.c    ****             i=0;
 1488              		.loc 1 65 0
 1489 0040 0024     		movs	r4, #0
 1490 0042 964B     		ldr	r3, .L209+16
 1491 0044 1C70     		strb	r4, [r3]
 1492              	.LVL174:
  67:.\RFPoll.c    ****                buffer_rf[i]=RF_Connection_ReadRxData(); 	
 1493              		.loc 1 67 0
 1494 0046 05E0     		b	.L121
 1495              	.LVL175:
 1496              	.L122:
  68:.\RFPoll.c    ****         	   i++;	
 1497              		.loc 1 68 0
 1498 0048 FFF7FEFF 		bl	RF_Connection_ReadRxData
 1499              	.LVL176:
 1500 004c 944B     		ldr	r3, .L209+20
 1501 004e 1855     		strb	r0, [r3, r4]
  69:.\RFPoll.c    ****             } 
 1502              		.loc 1 69 0
 1503 0050 0134     		adds	r4, r4, #1
 1504              	.LVL177:
 1505 0052 A4B2     		uxth	r4, r4
 1506              	.LVL178:
 1507              	.L121:
  67:.\RFPoll.c    ****                buffer_rf[i]=RF_Connection_ReadRxData(); 	
 1508              		.loc 1 67 0
 1509 0054 FFF7FEFF 		bl	RF_Connection_GetRxBufferSize
 1510              	.LVL179:
 1511 0058 0028     		cmp	r0, #0
 1512 005a F5D1     		bne	.L122
 1513              	.LVL180:
  72:.\RFPoll.c    ****             buffer_tx[y] = 0xCB; y++;
 1514              		.loc 1 72 0
ARM GAS  C:\Users\RECEPC~1\AppData\Local\Temp\ccXtGlXn.s 			page 39


 1515 005c 914B     		ldr	r3, .L209+24
 1516 005e BC22     		movs	r2, #188
 1517 0060 1A70     		strb	r2, [r3]
 1518              	.LVL181:
  73:.\RFPoll.c    ****             buffer_tx[y] = 0xC8; y++;
 1519              		.loc 1 73 0
 1520 0062 CB22     		movs	r2, #203
 1521 0064 5A70     		strb	r2, [r3, #1]
 1522              	.LVL182:
  74:.\RFPoll.c    ****             buffer_tx[y] = IDCast[0]; y++;
 1523              		.loc 1 74 0
 1524 0066 C822     		movs	r2, #200
 1525 0068 9A70     		strb	r2, [r3, #2]
 1526              	.LVL183:
  75:.\RFPoll.c    ****             buffer_tx[y] = IDCast[1]; y++;
 1527              		.loc 1 75 0
 1528 006a 894A     		ldr	r2, .L209+4
 1529 006c 1178     		ldrb	r1, [r2]	@ zero_extendqisi2
 1530 006e D970     		strb	r1, [r3, #3]
 1531              	.LVL184:
  76:.\RFPoll.c    ****             if(((buffer_rf[0]==0xBC)&&(buffer_rf[1]==0xBB)&&(buffer_rf[2]==0xB8)&&(buffer_rf[3]==ID
 1532              		.loc 1 76 0
 1533 0070 5278     		ldrb	r2, [r2, #1]	@ zero_extendqisi2
 1534 0072 1A71     		strb	r2, [r3, #4]
 1535              	.LVL185:
  77:.\RFPoll.c    ****               if(side.a.rfState == 1 || side.b.rfState == 1 || side.c.rfState == 1 || side.d.rfStat
 1536              		.loc 1 77 0
 1537 0074 8A4B     		ldr	r3, .L209+20
 1538 0076 1B78     		ldrb	r3, [r3]	@ zero_extendqisi2
 1539 0078 BC2B     		cmp	r3, #188
 1540 007a 13D1     		bne	.L123
  77:.\RFPoll.c    ****               if(side.a.rfState == 1 || side.b.rfState == 1 || side.c.rfState == 1 || side.d.rfStat
 1541              		.loc 1 77 0 is_stmt 0 discriminator 1
 1542 007c 884B     		ldr	r3, .L209+20
 1543 007e 5B78     		ldrb	r3, [r3, #1]	@ zero_extendqisi2
 1544 0080 BB2B     		cmp	r3, #187
 1545 0082 0FD1     		bne	.L123
  77:.\RFPoll.c    ****               if(side.a.rfState == 1 || side.b.rfState == 1 || side.c.rfState == 1 || side.d.rfStat
 1546              		.loc 1 77 0 discriminator 3
 1547 0084 864B     		ldr	r3, .L209+20
 1548 0086 9B78     		ldrb	r3, [r3, #2]	@ zero_extendqisi2
 1549 0088 B82B     		cmp	r3, #184
 1550 008a 0BD1     		bne	.L123
  77:.\RFPoll.c    ****               if(side.a.rfState == 1 || side.b.rfState == 1 || side.c.rfState == 1 || side.d.rfStat
 1551              		.loc 1 77 0 discriminator 5
 1552 008c 804B     		ldr	r3, .L209+4
 1553 008e 1B78     		ldrb	r3, [r3]	@ zero_extendqisi2
 1554 0090 834A     		ldr	r2, .L209+20
 1555 0092 D278     		ldrb	r2, [r2, #3]	@ zero_extendqisi2
 1556 0094 9A42     		cmp	r2, r3
 1557 0096 05D1     		bne	.L123
  77:.\RFPoll.c    ****               if(side.a.rfState == 1 || side.b.rfState == 1 || side.c.rfState == 1 || side.d.rfStat
 1558              		.loc 1 77 0 discriminator 7
 1559 0098 7D4B     		ldr	r3, .L209+4
 1560 009a 5B78     		ldrb	r3, [r3, #1]	@ zero_extendqisi2
 1561 009c 804A     		ldr	r2, .L209+20
 1562 009e 1279     		ldrb	r2, [r2, #4]	@ zero_extendqisi2
ARM GAS  C:\Users\RECEPC~1\AppData\Local\Temp\ccXtGlXn.s 			page 40


 1563 00a0 9A42     		cmp	r2, r3
 1564 00a2 1CD0     		beq	.L124
 1565              	.L123:
  77:.\RFPoll.c    ****               if(side.a.rfState == 1 || side.b.rfState == 1 || side.c.rfState == 1 || side.d.rfStat
 1566              		.loc 1 77 0 discriminator 9
 1567 00a4 7E4B     		ldr	r3, .L209+20
 1568 00a6 1B7A     		ldrb	r3, [r3, #8]	@ zero_extendqisi2
 1569 00a8 BC2B     		cmp	r3, #188
 1570 00aa 40F04883 		bne	.L125
  77:.\RFPoll.c    ****               if(side.a.rfState == 1 || side.b.rfState == 1 || side.c.rfState == 1 || side.d.rfStat
 1571              		.loc 1 77 0 discriminator 10
 1572 00ae 7C4B     		ldr	r3, .L209+20
 1573 00b0 5B7A     		ldrb	r3, [r3, #9]	@ zero_extendqisi2
 1574 00b2 BB2B     		cmp	r3, #187
 1575 00b4 40F04383 		bne	.L125
  77:.\RFPoll.c    ****               if(side.a.rfState == 1 || side.b.rfState == 1 || side.c.rfState == 1 || side.d.rfStat
 1576              		.loc 1 77 0 discriminator 11
 1577 00b8 794B     		ldr	r3, .L209+20
 1578 00ba 9B7A     		ldrb	r3, [r3, #10]	@ zero_extendqisi2
 1579 00bc B82B     		cmp	r3, #184
 1580 00be 40F03E83 		bne	.L125
  77:.\RFPoll.c    ****               if(side.a.rfState == 1 || side.b.rfState == 1 || side.c.rfState == 1 || side.d.rfStat
 1581              		.loc 1 77 0 discriminator 12
 1582 00c2 734B     		ldr	r3, .L209+4
 1583 00c4 1B78     		ldrb	r3, [r3]	@ zero_extendqisi2
 1584 00c6 764A     		ldr	r2, .L209+20
 1585 00c8 D27A     		ldrb	r2, [r2, #11]	@ zero_extendqisi2
 1586 00ca 9A42     		cmp	r2, r3
 1587 00cc 40F03783 		bne	.L125
  77:.\RFPoll.c    ****               if(side.a.rfState == 1 || side.b.rfState == 1 || side.c.rfState == 1 || side.d.rfStat
 1588              		.loc 1 77 0 discriminator 13
 1589 00d0 6F4B     		ldr	r3, .L209+4
 1590 00d2 5B78     		ldrb	r3, [r3, #1]	@ zero_extendqisi2
 1591 00d4 724A     		ldr	r2, .L209+20
 1592 00d6 127B     		ldrb	r2, [r2, #12]	@ zero_extendqisi2
 1593 00d8 9A42     		cmp	r2, r3
 1594 00da 40F03083 		bne	.L125
 1595              	.L124:
  78:.\RFPoll.c    ****                 pollingRF_Tx();
 1596              		.loc 1 78 0 is_stmt 1
 1597 00de 724B     		ldr	r3, .L209+28
 1598 00e0 93F80331 		ldrb	r3, [r3, #259]	@ zero_extendqisi2
 1599 00e4 012B     		cmp	r3, #1
 1600 00e6 0ED0     		beq	.L126
  78:.\RFPoll.c    ****                 pollingRF_Tx();
 1601              		.loc 1 78 0 is_stmt 0 discriminator 1
 1602 00e8 6F4B     		ldr	r3, .L209+28
 1603 00ea 93F80B32 		ldrb	r3, [r3, #523]	@ zero_extendqisi2
 1604 00ee 012B     		cmp	r3, #1
 1605 00f0 09D0     		beq	.L126
  78:.\RFPoll.c    ****                 pollingRF_Tx();
 1606              		.loc 1 78 0 discriminator 2
 1607 00f2 6D4B     		ldr	r3, .L209+28
 1608 00f4 93F81333 		ldrb	r3, [r3, #787]	@ zero_extendqisi2
 1609 00f8 012B     		cmp	r3, #1
 1610 00fa 04D0     		beq	.L126
  78:.\RFPoll.c    ****                 pollingRF_Tx();
ARM GAS  C:\Users\RECEPC~1\AppData\Local\Temp\ccXtGlXn.s 			page 41


 1611              		.loc 1 78 0 discriminator 3
 1612 00fc 6A4B     		ldr	r3, .L209+28
 1613 00fe 93F81B34 		ldrb	r3, [r3, #1051]	@ zero_extendqisi2
 1614 0102 012B     		cmp	r3, #1
 1615 0104 01D1     		bne	.L127
 1616              	.L126:
  79:.\RFPoll.c    ****                 switch(buffer_rf[6]){
 1617              		.loc 1 79 0 is_stmt 1
 1618 0106 FFF7FEFF 		bl	pollingRF_Tx
 1619              	.LVL186:
 1620              	.L127:
  80:.\RFPoll.c    ****                    case 0xA1:               //Peticion de estado
 1621              		.loc 1 80 0
 1622 010a 654B     		ldr	r3, .L209+20
 1623 010c 9B79     		ldrb	r3, [r3, #6]	@ zero_extendqisi2
 1624 010e A72B     		cmp	r3, #167
 1625 0110 00F0FA81 		beq	.L128
 1626 0114 06D8     		bhi	.L129
 1627 0116 A52B     		cmp	r3, #165
 1628 0118 6BD0     		beq	.L130
 1629 011a 00F23881 		bhi	.L131
 1630 011e A12B     		cmp	r3, #161
 1631 0120 0AD0     		beq	.L132
 1632 0122 0CE3     		b	.L125
 1633              	.L129:
 1634 0124 E12B     		cmp	r3, #225
 1635 0126 00F04282 		beq	.L133
 1636 012a E22B     		cmp	r3, #226
 1637 012c 00F0DB82 		beq	.L134
 1638 0130 AB2B     		cmp	r3, #171
 1639 0132 40F00483 		bne	.L125
 1640 0136 36E2     		b	.L135
 1641              	.L132:
  83:.\RFPoll.c    ****                         buffer_tx[5] = side.a.dir;y++;
 1642              		.loc 1 83 0
 1643 0138 594B     		ldr	r3, .L209+20
 1644 013a 5A79     		ldrb	r2, [r3, #5]	@ zero_extendqisi2
 1645 013c 5A4B     		ldr	r3, .L209+28
 1646 013e 1978     		ldrb	r1, [r3]	@ zero_extendqisi2
 1647 0140 8A42     		cmp	r2, r1
 1648 0142 09D1     		bne	.L202
  84:.\RFPoll.c    ****                         buffer_tx[y] = 0xA1;y++;
 1649              		.loc 1 84 0
 1650 0144 574B     		ldr	r3, .L209+24
 1651 0146 5971     		strb	r1, [r3, #5]
 1652              	.LVL187:
  85:.\RFPoll.c    ****                         buffer_tx[y] = side.a.rfState; y++;
 1653              		.loc 1 85 0
 1654 0148 A121     		movs	r1, #161
 1655 014a 9971     		strb	r1, [r3, #6]
 1656              	.LVL188:
  86:.\RFPoll.c    ****                     }  
 1657              		.loc 1 86 0
 1658 014c 5649     		ldr	r1, .L209+28
 1659 014e 91F80311 		ldrb	r1, [r1, #259]	@ zero_extendqisi2
 1660 0152 D971     		strb	r1, [r3, #7]
 1661              	.LVL189:
ARM GAS  C:\Users\RECEPC~1\AppData\Local\Temp\ccXtGlXn.s 			page 42


 1662 0154 0824     		movs	r4, #8
 1663              	.LVL190:
 1664 0156 00E0     		b	.L136
 1665              	.LVL191:
 1666              	.L202:
  76:.\RFPoll.c    ****             if(((buffer_rf[0]==0xBC)&&(buffer_rf[1]==0xBB)&&(buffer_rf[2]==0xB8)&&(buffer_rf[3]==ID
 1667              		.loc 1 76 0
 1668 0158 0524     		movs	r4, #5
 1669              	.LVL192:
 1670              	.L136:
  88:.\RFPoll.c    ****                         buffer_tx[5] = side.b.dir;y++;
 1671              		.loc 1 88 0
 1672 015a 534B     		ldr	r3, .L209+28
 1673 015c 93F80831 		ldrb	r3, [r3, #264]	@ zero_extendqisi2
 1674 0160 9A42     		cmp	r2, r3
 1675 0162 0DD1     		bne	.L137
  89:.\RFPoll.c    ****                         buffer_tx[y] = 0xA1;y++;
 1676              		.loc 1 89 0
 1677 0164 4F49     		ldr	r1, .L209+24
 1678 0166 4B71     		strb	r3, [r1, #5]
 1679 0168 631C     		adds	r3, r4, #1
 1680 016a 9BB2     		uxth	r3, r3
 1681              	.LVL193:
  90:.\RFPoll.c    ****                         buffer_tx[y] = side.b.rfState;y++;
 1682              		.loc 1 90 0
 1683 016c A120     		movs	r0, #161
 1684 016e C854     		strb	r0, [r1, r3]
 1685 0170 0133     		adds	r3, r3, #1
 1686              	.LVL194:
 1687 0172 9BB2     		uxth	r3, r3
 1688              	.LVL195:
  91:.\RFPoll.c    ****                     }
 1689              		.loc 1 91 0
 1690 0174 4C48     		ldr	r0, .L209+28
 1691 0176 90F80B02 		ldrb	r0, [r0, #523]	@ zero_extendqisi2
 1692 017a C854     		strb	r0, [r1, r3]
 1693 017c 0133     		adds	r3, r3, #1
 1694              	.LVL196:
 1695 017e 9CB2     		uxth	r4, r3
 1696              	.LVL197:
 1697              	.L137:
  93:.\RFPoll.c    ****                         buffer_tx[5] = side.c.dir; y++;
 1698              		.loc 1 93 0
 1699 0180 494B     		ldr	r3, .L209+28
 1700 0182 93F81032 		ldrb	r3, [r3, #528]	@ zero_extendqisi2
 1701 0186 9A42     		cmp	r2, r3
 1702 0188 0DD1     		bne	.L138
  94:.\RFPoll.c    ****                         buffer_tx[y] = 0xA1; y++;
 1703              		.loc 1 94 0
 1704 018a 4649     		ldr	r1, .L209+24
 1705 018c 4B71     		strb	r3, [r1, #5]
 1706 018e 631C     		adds	r3, r4, #1
 1707 0190 9BB2     		uxth	r3, r3
 1708              	.LVL198:
  95:.\RFPoll.c    ****                         buffer_tx[y] = side.c.rfState; y++;
 1709              		.loc 1 95 0
 1710 0192 A120     		movs	r0, #161
ARM GAS  C:\Users\RECEPC~1\AppData\Local\Temp\ccXtGlXn.s 			page 43


 1711 0194 C854     		strb	r0, [r1, r3]
 1712 0196 0133     		adds	r3, r3, #1
 1713              	.LVL199:
 1714 0198 9BB2     		uxth	r3, r3
 1715              	.LVL200:
  96:.\RFPoll.c    ****                     }
 1716              		.loc 1 96 0
 1717 019a 4348     		ldr	r0, .L209+28
 1718 019c 90F81303 		ldrb	r0, [r0, #787]	@ zero_extendqisi2
 1719 01a0 C854     		strb	r0, [r1, r3]
 1720 01a2 0133     		adds	r3, r3, #1
 1721              	.LVL201:
 1722 01a4 9CB2     		uxth	r4, r3
 1723              	.LVL202:
 1724              	.L138:
  98:.\RFPoll.c    ****                         buffer_tx[5] = side.d.dir; y++;
 1725              		.loc 1 98 0
 1726 01a6 404B     		ldr	r3, .L209+28
 1727 01a8 93F81833 		ldrb	r3, [r3, #792]	@ zero_extendqisi2
 1728 01ac 9A42     		cmp	r2, r3
 1729 01ae 0DD1     		bne	.L139
  99:.\RFPoll.c    ****                         buffer_tx[y] = 0xA1; y++;
 1730              		.loc 1 99 0
 1731 01b0 3C4A     		ldr	r2, .L209+24
 1732 01b2 5371     		strb	r3, [r2, #5]
 1733 01b4 631C     		adds	r3, r4, #1
 1734 01b6 9BB2     		uxth	r3, r3
 1735              	.LVL203:
 100:.\RFPoll.c    ****                         buffer_tx[y] = side.d.rfState; y++;
 1736              		.loc 1 100 0
 1737 01b8 A121     		movs	r1, #161
 1738 01ba D154     		strb	r1, [r2, r3]
 1739 01bc 0133     		adds	r3, r3, #1
 1740              	.LVL204:
 1741 01be 9BB2     		uxth	r3, r3
 1742              	.LVL205:
 101:.\RFPoll.c    ****                     }
 1743              		.loc 1 101 0
 1744 01c0 3949     		ldr	r1, .L209+28
 1745 01c2 91F81B14 		ldrb	r1, [r1, #1051]	@ zero_extendqisi2
 1746 01c6 D154     		strb	r1, [r2, r3]
 1747 01c8 0133     		adds	r3, r3, #1
 1748              	.LVL206:
 1749 01ca 9CB2     		uxth	r4, r3
 1750              	.LVL207:
 1751              	.L139:
 103:.\RFPoll.c    ****                     for (x = 0; x < y; x++){
 1752              		.loc 1 103 0
 1753 01cc 651C     		adds	r5, r4, #1
 1754 01ce ADB2     		uxth	r5, r5
 1755 01d0 344E     		ldr	r6, .L209+24
 1756 01d2 3046     		mov	r0, r6
 1757 01d4 2946     		mov	r1, r5
 1758 01d6 FFF7FEFF 		bl	verificar_check
 1759              	.LVL208:
 1760 01da 3055     		strb	r0, [r6, r4]
 1761              	.LVL209:
ARM GAS  C:\Users\RECEPC~1\AppData\Local\Temp\ccXtGlXn.s 			page 44


 104:.\RFPoll.c    ****                         RF_Connection_PutChar(buffer_tx[x]);
 1762              		.loc 1 104 0
 1763 01dc 0024     		movs	r4, #0
 1764 01de 05E0     		b	.L140
 1765              	.LVL210:
 1766              	.L141:
 105:.\RFPoll.c    ****                     }
 1767              		.loc 1 105 0 discriminator 3
 1768 01e0 304B     		ldr	r3, .L209+24
 1769 01e2 185D     		ldrb	r0, [r3, r4]	@ zero_extendqisi2
 1770 01e4 FFF7FEFF 		bl	RF_Connection_PutChar
 1771              	.LVL211:
 104:.\RFPoll.c    ****                         RF_Connection_PutChar(buffer_tx[x]);
 1772              		.loc 1 104 0 discriminator 3
 1773 01e8 0134     		adds	r4, r4, #1
 1774              	.LVL212:
 1775 01ea A4B2     		uxth	r4, r4
 1776              	.LVL213:
 1777              	.L140:
 104:.\RFPoll.c    ****                         RF_Connection_PutChar(buffer_tx[x]);
 1778              		.loc 1 104 0 is_stmt 0 discriminator 1
 1779 01ec AC42     		cmp	r4, r5
 1780 01ee F7D3     		bcc	.L141
 1781 01f0 A5E2     		b	.L125
 1782              	.LVL214:
 1783              	.L130:
 111:.\RFPoll.c    ****                         getTotals(side.a.dir);
 1784              		.loc 1 111 0 is_stmt 1
 1785 01f2 2B4B     		ldr	r3, .L209+20
 1786 01f4 5B79     		ldrb	r3, [r3, #5]	@ zero_extendqisi2
 1787 01f6 2C4A     		ldr	r2, .L209+28
 1788 01f8 1078     		ldrb	r0, [r2]	@ zero_extendqisi2
 1789 01fa 8342     		cmp	r3, r0
 1790 01fc 58D1     		bne	.L203
 112:.\RFPoll.c    ****                         buffer_tx[5] = side.a.dir; y++;
 1791              		.loc 1 112 0
 1792 01fe FFF7FEFF 		bl	getTotals
 1793              	.LVL215:
 113:.\RFPoll.c    ****                         buffer_tx[y] = 0xE8; y++;
 1794              		.loc 1 113 0
 1795 0202 294A     		ldr	r2, .L209+28
 1796 0204 1178     		ldrb	r1, [r2]	@ zero_extendqisi2
 1797 0206 274B     		ldr	r3, .L209+24
 1798 0208 5971     		strb	r1, [r3, #5]
 1799              	.LVL216:
 114:.\RFPoll.c    ****                         buffer_tx[y] = side.a.rfState; y++;
 1800              		.loc 1 114 0
 1801 020a E821     		movs	r1, #232
 1802 020c 9971     		strb	r1, [r3, #6]
 1803              	.LVL217:
 115:.\RFPoll.c    ****                         buffer_tx[y] = 0x00; y++;
 1804              		.loc 1 115 0
 1805 020e 92F80321 		ldrb	r2, [r2, #259]	@ zero_extendqisi2
 1806 0212 DA71     		strb	r2, [r3, #7]
 1807              	.LVL218:
 116:.\RFPoll.c    ****                         buffer_tx[y] = 0x01; y++;                    
 1808              		.loc 1 116 0
ARM GAS  C:\Users\RECEPC~1\AppData\Local\Temp\ccXtGlXn.s 			page 45


 1809 0214 0022     		movs	r2, #0
 1810 0216 1A72     		strb	r2, [r3, #8]
 1811              	.LVL219:
 117:.\RFPoll.c    ****                         if (digits == 6 || digits == 5){                            
 1812              		.loc 1 117 0
 1813 0218 0122     		movs	r2, #1
 1814 021a 5A72     		strb	r2, [r3, #9]
 1815              	.LVL220:
 118:.\RFPoll.c    ****                             for(x = 8; x > 0; x--){ //Volumen
 1816              		.loc 1 118 0
 1817 021c 234B     		ldr	r3, .L209+32
 1818 021e 1B78     		ldrb	r3, [r3]	@ zero_extendqisi2
 1819 0220 053B     		subs	r3, r3, #5
 1820 0222 DBB2     		uxtb	r3, r3
 1821 0224 9342     		cmp	r3, r2
 1822 0226 0BD9     		bls	.L204
 117:.\RFPoll.c    ****                         if (digits == 6 || digits == 5){                            
 1823              		.loc 1 117 0
 1824 0228 0A24     		movs	r4, #10
 1825              	.LVL221:
 1826 022a 42E0     		b	.L142
 1827              	.LVL222:
 1828              	.L144:
 120:.\RFPoll.c    ****                             }
 1829              		.loc 1 120 0 discriminator 3
 1830 022c 1E4A     		ldr	r2, .L209+28
 1831 022e 1A44     		add	r2, r2, r3
 1832 0230 5178     		ldrb	r1, [r2, #1]	@ zero_extendqisi2
 1833 0232 1C4A     		ldr	r2, .L209+24
 1834 0234 1155     		strb	r1, [r2, r4]
 1835 0236 0134     		adds	r4, r4, #1
 1836              	.LVL223:
 1837 0238 A4B2     		uxth	r4, r4
 1838              	.LVL224:
 119:.\RFPoll.c    ****                                 buffer_tx[y] = side.a.totalsHandle[0][0][x];y++;
 1839              		.loc 1 119 0 discriminator 3
 1840 023a 013B     		subs	r3, r3, #1
 1841              	.LVL225:
 1842 023c 9BB2     		uxth	r3, r3
 1843              	.LVL226:
 1844 023e 01E0     		b	.L143
 1845              	.LVL227:
 1846              	.L204:
 1847 0240 0A24     		movs	r4, #10
 1848              	.LVL228:
 1849 0242 0823     		movs	r3, #8
 1850              	.LVL229:
 1851              	.L143:
 119:.\RFPoll.c    ****                                 buffer_tx[y] = side.a.totalsHandle[0][0][x];y++;
 1852              		.loc 1 119 0 is_stmt 0 discriminator 1
 1853 0244 002B     		cmp	r3, #0
 1854 0246 F1D1     		bne	.L144
 1855 0248 06E0     		b	.L145
 1856              	.L146:
 123:.\RFPoll.c    ****                             }
 1857              		.loc 1 123 0 is_stmt 1 discriminator 3
 1858 024a 3021     		movs	r1, #48
ARM GAS  C:\Users\RECEPC~1\AppData\Local\Temp\ccXtGlXn.s 			page 46


 1859 024c 154A     		ldr	r2, .L209+24
 1860 024e 1155     		strb	r1, [r2, r4]
 1861 0250 0134     		adds	r4, r4, #1
 1862              	.LVL230:
 1863 0252 A4B2     		uxth	r4, r4
 1864              	.LVL231:
 122:.\RFPoll.c    ****                                 buffer_tx[y] = 0x30;y++;
 1865              		.loc 1 122 0 discriminator 3
 1866 0254 0133     		adds	r3, r3, #1
 1867              	.LVL232:
 1868 0256 9BB2     		uxth	r3, r3
 1869              	.LVL233:
 1870              	.L145:
 122:.\RFPoll.c    ****                                 buffer_tx[y] = 0x30;y++;
 1871              		.loc 1 122 0 is_stmt 0 discriminator 1
 1872 0258 032B     		cmp	r3, #3
 1873 025a F6D9     		bls	.L146
 1874 025c 0823     		movs	r3, #8
 1875              	.LVL234:
 1876 025e 08E0     		b	.L147
 1877              	.LVL235:
 1878              	.L148:
 126:.\RFPoll.c    ****                             }
 1879              		.loc 1 126 0 is_stmt 1 discriminator 3
 1880 0260 114A     		ldr	r2, .L209+28
 1881 0262 1A44     		add	r2, r2, r3
 1882 0264 117C     		ldrb	r1, [r2, #16]	@ zero_extendqisi2
 1883 0266 0F4A     		ldr	r2, .L209+24
 1884 0268 1155     		strb	r1, [r2, r4]
 1885 026a 0134     		adds	r4, r4, #1
 1886              	.LVL236:
 1887 026c A4B2     		uxth	r4, r4
 1888              	.LVL237:
 125:.\RFPoll.c    ****                                 buffer_tx[y] = side.a.totalsHandle[0][1][x];y++;
 1889              		.loc 1 125 0 discriminator 3
 1890 026e 013B     		subs	r3, r3, #1
 1891              	.LVL238:
 1892 0270 9BB2     		uxth	r3, r3
 1893              	.LVL239:
 1894              	.L147:
 125:.\RFPoll.c    ****                                 buffer_tx[y] = side.a.totalsHandle[0][1][x];y++;
 1895              		.loc 1 125 0 is_stmt 0 discriminator 1
 1896 0272 002B     		cmp	r3, #0
 1897 0274 F4D1     		bne	.L148
 1898 0276 06E0     		b	.L149
 1899              	.L150:
 129:.\RFPoll.c    ****                             }
 1900              		.loc 1 129 0 is_stmt 1 discriminator 3
 1901 0278 3021     		movs	r1, #48
 1902 027a 0A4A     		ldr	r2, .L209+24
 1903 027c 1155     		strb	r1, [r2, r4]
 1904 027e 0134     		adds	r4, r4, #1
 1905              	.LVL240:
 1906 0280 A4B2     		uxth	r4, r4
 1907              	.LVL241:
 128:.\RFPoll.c    ****                                 buffer_tx[y] = 0x30;y++;
 1908              		.loc 1 128 0 discriminator 3
ARM GAS  C:\Users\RECEPC~1\AppData\Local\Temp\ccXtGlXn.s 			page 47


 1909 0282 0133     		adds	r3, r3, #1
 1910              	.LVL242:
 1911 0284 9BB2     		uxth	r3, r3
 1912              	.LVL243:
 1913              	.L149:
 128:.\RFPoll.c    ****                                 buffer_tx[y] = 0x30;y++;
 1914              		.loc 1 128 0 is_stmt 0 discriminator 1
 1915 0286 032B     		cmp	r3, #3
 1916 0288 F6D9     		bls	.L150
 1917 028a 12E0     		b	.L142
 1918              	.L210:
 1919              		.align	2
 1920              	.L209:
 1921 028c 00000000 		.word	buffer_txDisplay
 1922 0290 00000000 		.word	IDCast
 1923 0294 00000000 		.word	countRX
 1924 0298 00000000 		.word	ActiveRF
 1925 029c 00000000 		.word	counterRF
 1926 02a0 00000000 		.word	buffer_rf
 1927 02a4 00000000 		.word	buffer_tx
 1928 02a8 00000000 		.word	side
 1929 02ac 00000000 		.word	digits
 1930              	.LVL244:
 1931              	.L203:
  76:.\RFPoll.c    ****             if(((buffer_rf[0]==0xBC)&&(buffer_rf[1]==0xBB)&&(buffer_rf[2]==0xB8)&&(buffer_rf[3]==ID
 1932              		.loc 1 76 0 is_stmt 1
 1933 02b0 0524     		movs	r4, #5
 1934              	.LVL245:
 1935              	.L142:
 133:.\RFPoll.c    ****                         getTotals(side.b.dir);
 1936              		.loc 1 133 0
 1937 02b2 B44B     		ldr	r3, .L211
 1938 02b4 5B79     		ldrb	r3, [r3, #5]	@ zero_extendqisi2
 1939 02b6 B44A     		ldr	r2, .L211+4
 1940 02b8 92F80801 		ldrb	r0, [r2, #264]	@ zero_extendqisi2
 1941 02bc 8342     		cmp	r3, r0
 1942 02be 50D1     		bne	.L151
 134:.\RFPoll.c    ****                         buffer_tx[5] = side.b.dir; y++;
 1943              		.loc 1 134 0
 1944 02c0 FFF7FEFF 		bl	getTotals
 1945              	.LVL246:
 135:.\RFPoll.c    ****                         buffer_tx[y] = 0xE8; y++;
 1946              		.loc 1 135 0
 1947 02c4 B049     		ldr	r1, .L211+4
 1948 02c6 91F80831 		ldrb	r3, [r1, #264]	@ zero_extendqisi2
 1949 02ca B04A     		ldr	r2, .L211+8
 1950 02cc 5371     		strb	r3, [r2, #5]
 1951 02ce 631C     		adds	r3, r4, #1
 1952 02d0 9BB2     		uxth	r3, r3
 1953              	.LVL247:
 136:.\RFPoll.c    ****                         buffer_tx[y] = side.b.rfState; y++;
 1954              		.loc 1 136 0
 1955 02d2 E820     		movs	r0, #232
 1956 02d4 D054     		strb	r0, [r2, r3]
 1957 02d6 0133     		adds	r3, r3, #1
 1958              	.LVL248:
 1959 02d8 9BB2     		uxth	r3, r3
ARM GAS  C:\Users\RECEPC~1\AppData\Local\Temp\ccXtGlXn.s 			page 48


 1960              	.LVL249:
 137:.\RFPoll.c    ****                         buffer_tx[y] = 0x00; y++;
 1961              		.loc 1 137 0
 1962 02da 91F80B12 		ldrb	r1, [r1, #523]	@ zero_extendqisi2
 1963 02de D154     		strb	r1, [r2, r3]
 1964 02e0 0133     		adds	r3, r3, #1
 1965              	.LVL250:
 1966 02e2 9BB2     		uxth	r3, r3
 1967              	.LVL251:
 138:.\RFPoll.c    ****                         buffer_tx[y] = 0x01; y++;
 1968              		.loc 1 138 0
 1969 02e4 0021     		movs	r1, #0
 1970 02e6 D154     		strb	r1, [r2, r3]
 1971 02e8 0133     		adds	r3, r3, #1
 1972              	.LVL252:
 1973 02ea 9BB2     		uxth	r3, r3
 1974              	.LVL253:
 139:.\RFPoll.c    ****                         if (digits == 6 || digits == 5){                            
 1975              		.loc 1 139 0
 1976 02ec 0121     		movs	r1, #1
 1977 02ee D154     		strb	r1, [r2, r3]
 1978 02f0 0B44     		add	r3, r3, r1
 1979              	.LVL254:
 1980 02f2 9CB2     		uxth	r4, r3
 1981              	.LVL255:
 140:.\RFPoll.c    ****                             for(x = 8; x > 0; x--){ //Volumen
 1982              		.loc 1 140 0
 1983 02f4 A64B     		ldr	r3, .L211+12
 1984 02f6 1B78     		ldrb	r3, [r3]	@ zero_extendqisi2
 1985 02f8 053B     		subs	r3, r3, #5
 1986 02fa DBB2     		uxtb	r3, r3
 1987 02fc 8B42     		cmp	r3, r1
 1988 02fe 30D8     		bhi	.L151
 1989 0300 0AE0     		b	.L205
 1990              	.LVL256:
 1991              	.L153:
 142:.\RFPoll.c    ****                             }
 1992              		.loc 1 142 0 discriminator 3
 1993 0302 A14A     		ldr	r2, .L211+4
 1994 0304 1A44     		add	r2, r2, r3
 1995 0306 92F80911 		ldrb	r1, [r2, #265]	@ zero_extendqisi2
 1996 030a A04A     		ldr	r2, .L211+8
 1997 030c 1155     		strb	r1, [r2, r4]
 1998 030e 0134     		adds	r4, r4, #1
 1999              	.LVL257:
 2000 0310 A4B2     		uxth	r4, r4
 2001              	.LVL258:
 141:.\RFPoll.c    ****                                 buffer_tx[y] = side.b.totalsHandle[0][0][x];y++;
 2002              		.loc 1 141 0 discriminator 3
 2003 0312 013B     		subs	r3, r3, #1
 2004              	.LVL259:
 2005 0314 9BB2     		uxth	r3, r3
 2006              	.LVL260:
 2007 0316 00E0     		b	.L152
 2008              	.LVL261:
 2009              	.L205:
 2010 0318 0823     		movs	r3, #8
ARM GAS  C:\Users\RECEPC~1\AppData\Local\Temp\ccXtGlXn.s 			page 49


 2011              	.L152:
 2012              	.LVL262:
 141:.\RFPoll.c    ****                                 buffer_tx[y] = side.b.totalsHandle[0][0][x];y++;
 2013              		.loc 1 141 0 is_stmt 0 discriminator 1
 2014 031a 002B     		cmp	r3, #0
 2015 031c F1D1     		bne	.L153
 2016 031e 06E0     		b	.L154
 2017              	.L155:
 145:.\RFPoll.c    ****                             }
 2018              		.loc 1 145 0 is_stmt 1 discriminator 3
 2019 0320 3021     		movs	r1, #48
 2020 0322 9A4A     		ldr	r2, .L211+8
 2021 0324 1155     		strb	r1, [r2, r4]
 2022 0326 0134     		adds	r4, r4, #1
 2023              	.LVL263:
 2024 0328 A4B2     		uxth	r4, r4
 2025              	.LVL264:
 144:.\RFPoll.c    ****                                 buffer_tx[y] = 0x30;y++;
 2026              		.loc 1 144 0 discriminator 3
 2027 032a 0133     		adds	r3, r3, #1
 2028              	.LVL265:
 2029 032c 9BB2     		uxth	r3, r3
 2030              	.LVL266:
 2031              	.L154:
 144:.\RFPoll.c    ****                                 buffer_tx[y] = 0x30;y++;
 2032              		.loc 1 144 0 is_stmt 0 discriminator 1
 2033 032e 032B     		cmp	r3, #3
 2034 0330 F6D9     		bls	.L155
 2035 0332 0823     		movs	r3, #8
 2036              	.LVL267:
 2037 0334 09E0     		b	.L156
 2038              	.LVL268:
 2039              	.L157:
 148:.\RFPoll.c    ****                             }
 2040              		.loc 1 148 0 is_stmt 1 discriminator 3
 2041 0336 944A     		ldr	r2, .L211+4
 2042 0338 1A44     		add	r2, r2, r3
 2043 033a 92F81811 		ldrb	r1, [r2, #280]	@ zero_extendqisi2
 2044 033e 934A     		ldr	r2, .L211+8
 2045 0340 1155     		strb	r1, [r2, r4]
 2046 0342 0134     		adds	r4, r4, #1
 2047              	.LVL269:
 2048 0344 A4B2     		uxth	r4, r4
 2049              	.LVL270:
 147:.\RFPoll.c    ****                                 buffer_tx[y] = side.b.totalsHandle[0][1][x];y++;
 2050              		.loc 1 147 0 discriminator 3
 2051 0346 013B     		subs	r3, r3, #1
 2052              	.LVL271:
 2053 0348 9BB2     		uxth	r3, r3
 2054              	.LVL272:
 2055              	.L156:
 147:.\RFPoll.c    ****                                 buffer_tx[y] = side.b.totalsHandle[0][1][x];y++;
 2056              		.loc 1 147 0 is_stmt 0 discriminator 1
 2057 034a 002B     		cmp	r3, #0
 2058 034c F3D1     		bne	.L157
 2059 034e 06E0     		b	.L158
 2060              	.L159:
ARM GAS  C:\Users\RECEPC~1\AppData\Local\Temp\ccXtGlXn.s 			page 50


 151:.\RFPoll.c    ****                             }
 2061              		.loc 1 151 0 is_stmt 1 discriminator 3
 2062 0350 3021     		movs	r1, #48
 2063 0352 8E4A     		ldr	r2, .L211+8
 2064 0354 1155     		strb	r1, [r2, r4]
 2065 0356 0134     		adds	r4, r4, #1
 2066              	.LVL273:
 2067 0358 A4B2     		uxth	r4, r4
 2068              	.LVL274:
 150:.\RFPoll.c    ****                                 buffer_tx[y] = 0x30;y++;
 2069              		.loc 1 150 0 discriminator 3
 2070 035a 0133     		adds	r3, r3, #1
 2071              	.LVL275:
 2072 035c 9BB2     		uxth	r3, r3
 2073              	.LVL276:
 2074              	.L158:
 150:.\RFPoll.c    ****                                 buffer_tx[y] = 0x30;y++;
 2075              		.loc 1 150 0 is_stmt 0 discriminator 1
 2076 035e 032B     		cmp	r3, #3
 2077 0360 F6D9     		bls	.L159
 2078              	.LVL277:
 2079              	.L151:
 155:.\RFPoll.c    ****                     buffer_tx[8] = y-9;
 2080              		.loc 1 155 0 is_stmt 1
 2081 0362 651C     		adds	r5, r4, #1
 2082 0364 ADB2     		uxth	r5, r5
 2083 0366 894E     		ldr	r6, .L211+8
 2084 0368 3046     		mov	r0, r6
 2085 036a 2946     		mov	r1, r5
 2086 036c FFF7FEFF 		bl	verificar_check
 2087              	.LVL278:
 2088 0370 3055     		strb	r0, [r6, r4]
 2089              	.LVL279:
 156:.\RFPoll.c    ****                     for (x = 0; x < y; x++){
 2090              		.loc 1 156 0
 2091 0372 A5F10903 		sub	r3, r5, #9
 2092 0376 3372     		strb	r3, [r6, #8]
 2093              	.LVL280:
 157:.\RFPoll.c    ****                         RF_Connection_PutChar(buffer_tx[x]);
 2094              		.loc 1 157 0
 2095 0378 0024     		movs	r4, #0
 2096 037a 05E0     		b	.L160
 2097              	.LVL281:
 2098              	.L161:
 158:.\RFPoll.c    ****                     }
 2099              		.loc 1 158 0 discriminator 3
 2100 037c 834B     		ldr	r3, .L211+8
 2101 037e 185D     		ldrb	r0, [r3, r4]	@ zero_extendqisi2
 2102 0380 FFF7FEFF 		bl	RF_Connection_PutChar
 2103              	.LVL282:
 157:.\RFPoll.c    ****                         RF_Connection_PutChar(buffer_tx[x]);
 2104              		.loc 1 157 0 discriminator 3
 2105 0384 0134     		adds	r4, r4, #1
 2106              	.LVL283:
 2107 0386 A4B2     		uxth	r4, r4
 2108              	.LVL284:
 2109              	.L160:
ARM GAS  C:\Users\RECEPC~1\AppData\Local\Temp\ccXtGlXn.s 			page 51


 157:.\RFPoll.c    ****                         RF_Connection_PutChar(buffer_tx[x]);
 2110              		.loc 1 157 0 is_stmt 0 discriminator 1
 2111 0388 AC42     		cmp	r4, r5
 2112 038a F7D3     		bcc	.L161
 2113 038c D7E1     		b	.L125
 2114              	.LVL285:
 2115              	.L131:
 163:.\RFPoll.c    ****                         side.a.RFstateReport = 1;
 2116              		.loc 1 163 0 is_stmt 1
 2117 038e 7D4B     		ldr	r3, .L211
 2118 0390 5A79     		ldrb	r2, [r3, #5]	@ zero_extendqisi2
 2119 0392 7D4B     		ldr	r3, .L211+4
 2120 0394 1878     		ldrb	r0, [r3]	@ zero_extendqisi2
 2121 0396 8242     		cmp	r2, r0
 2122 0398 21D1     		bne	.L206
 164:.\RFPoll.c    ****                         for(x=9;x < 14 ; x++ ){
 2123              		.loc 1 164 0
 2124 039a 0121     		movs	r1, #1
 2125 039c 83F80711 		strb	r1, [r3, #263]
 2126              	.LVL286:
 165:.\RFPoll.c    ****                             side.a.ppuAuthorized[buffer_rf[8]][x-9] = buffer_rf[x];
 2127              		.loc 1 165 0
 2128 03a0 0923     		movs	r3, #9
 2129 03a2 0AE0     		b	.L163
 2130              	.LVL287:
 2131              	.L164:
 166:.\RFPoll.c    ****                         }
 2132              		.loc 1 166 0 discriminator 3
 2133 03a4 774C     		ldr	r4, .L211
 2134 03a6 257A     		ldrb	r5, [r4, #8]	@ zero_extendqisi2
 2135 03a8 E45C     		ldrb	r4, [r4, r3]	@ zero_extendqisi2
 2136 03aa 7749     		ldr	r1, .L211+4
 2137 03ac 01EBC501 		add	r1, r1, r5, lsl #3
 2138 03b0 1944     		add	r1, r1, r3
 2139 03b2 81F8AC40 		strb	r4, [r1, #172]
 165:.\RFPoll.c    ****                             side.a.ppuAuthorized[buffer_rf[8]][x-9] = buffer_rf[x];
 2140              		.loc 1 165 0 discriminator 3
 2141 03b6 0133     		adds	r3, r3, #1
 2142              	.LVL288:
 2143 03b8 9BB2     		uxth	r3, r3
 2144              	.LVL289:
 2145              	.L163:
 165:.\RFPoll.c    ****                             side.a.ppuAuthorized[buffer_rf[8]][x-9] = buffer_rf[x];
 2146              		.loc 1 165 0 is_stmt 0 discriminator 1
 2147 03ba 0D2B     		cmp	r3, #13
 2148 03bc F2D9     		bls	.L164
 168:.\RFPoll.c    ****                         side.a.grade = buffer_rf[8];
 2149              		.loc 1 168 0 is_stmt 1
 2150 03be 724B     		ldr	r3, .L211+4
 2151              	.LVL290:
 2152 03c0 0121     		movs	r1, #1
 2153 03c2 83F80511 		strb	r1, [r3, #261]
 169:.\RFPoll.c    ****                         buffer_tx[5] = side.a.dir;y++;
 2154              		.loc 1 169 0
 2155 03c6 6F49     		ldr	r1, .L211
 2156 03c8 097A     		ldrb	r1, [r1, #8]	@ zero_extendqisi2
 2157 03ca 83F80611 		strb	r1, [r3, #262]
ARM GAS  C:\Users\RECEPC~1\AppData\Local\Temp\ccXtGlXn.s 			page 52


 170:.\RFPoll.c    ****                         buffer_tx[y] = 0xA6;y++;
 2158              		.loc 1 170 0
 2159 03ce 6F4B     		ldr	r3, .L211+8
 2160 03d0 5871     		strb	r0, [r3, #5]
 2161              	.LVL291:
 171:.\RFPoll.c    ****                         buffer_tx[y] = 0x03;y++;
 2162              		.loc 1 171 0
 2163 03d2 A621     		movs	r1, #166
 2164 03d4 9971     		strb	r1, [r3, #6]
 2165              	.LVL292:
 172:.\RFPoll.c    ****                     } 
 2166              		.loc 1 172 0
 2167 03d6 0321     		movs	r1, #3
 2168 03d8 D971     		strb	r1, [r3, #7]
 2169              	.LVL293:
 2170 03da 0824     		movs	r4, #8
 2171 03dc 00E0     		b	.L162
 2172              	.LVL294:
 2173              	.L206:
  76:.\RFPoll.c    ****             if(((buffer_rf[0]==0xBC)&&(buffer_rf[1]==0xBB)&&(buffer_rf[2]==0xB8)&&(buffer_rf[3]==ID
 2174              		.loc 1 76 0
 2175 03de 0524     		movs	r4, #5
 2176              	.LVL295:
 2177              	.L162:
 174:.\RFPoll.c    ****                         side.b.RFstateReport = 1;
 2178              		.loc 1 174 0
 2179 03e0 694B     		ldr	r3, .L211+4
 2180 03e2 93F80801 		ldrb	r0, [r3, #264]	@ zero_extendqisi2
 2181 03e6 8242     		cmp	r2, r0
 2182 03e8 25D1     		bne	.L165
 175:.\RFPoll.c    ****                         for(x=9;x < 14 ; x++ ){
 2183              		.loc 1 175 0
 2184 03ea 0121     		movs	r1, #1
 2185 03ec 83F80F12 		strb	r1, [r3, #527]
 2186              	.LVL296:
 176:.\RFPoll.c    ****                             side.b.ppuAuthorized[buffer_rf[8]][x-9] = buffer_rf[x];
 2187              		.loc 1 176 0
 2188 03f0 0923     		movs	r3, #9
 2189 03f2 0AE0     		b	.L166
 2190              	.LVL297:
 2191              	.L167:
 177:.\RFPoll.c    ****                         }
 2192              		.loc 1 177 0 discriminator 3
 2193 03f4 634D     		ldr	r5, .L211
 2194 03f6 2E7A     		ldrb	r6, [r5, #8]	@ zero_extendqisi2
 2195 03f8 ED5C     		ldrb	r5, [r5, r3]	@ zero_extendqisi2
 2196 03fa 6349     		ldr	r1, .L211+4
 2197 03fc 01EBC601 		add	r1, r1, r6, lsl #3
 2198 0400 1944     		add	r1, r1, r3
 2199 0402 81F8B451 		strb	r5, [r1, #436]
 176:.\RFPoll.c    ****                             side.b.ppuAuthorized[buffer_rf[8]][x-9] = buffer_rf[x];
 2200              		.loc 1 176 0 discriminator 3
 2201 0406 0133     		adds	r3, r3, #1
 2202              	.LVL298:
 2203 0408 9BB2     		uxth	r3, r3
 2204              	.LVL299:
 2205              	.L166:
ARM GAS  C:\Users\RECEPC~1\AppData\Local\Temp\ccXtGlXn.s 			page 53


 176:.\RFPoll.c    ****                             side.b.ppuAuthorized[buffer_rf[8]][x-9] = buffer_rf[x];
 2206              		.loc 1 176 0 is_stmt 0 discriminator 1
 2207 040a 0D2B     		cmp	r3, #13
 2208 040c F2D9     		bls	.L167
 179:.\RFPoll.c    ****                         side.b.grade = buffer_rf[8];
 2209              		.loc 1 179 0 is_stmt 1
 2210 040e 5E4B     		ldr	r3, .L211+4
 2211              	.LVL300:
 2212 0410 0121     		movs	r1, #1
 2213 0412 83F80D12 		strb	r1, [r3, #525]
 180:.\RFPoll.c    ****                         buffer_tx[5] = side.b.dir; y++;
 2214              		.loc 1 180 0
 2215 0416 5B49     		ldr	r1, .L211
 2216 0418 097A     		ldrb	r1, [r1, #8]	@ zero_extendqisi2
 2217 041a 83F80E12 		strb	r1, [r3, #526]
 181:.\RFPoll.c    ****                         buffer_tx[y] = 0xA6;y++;
 2218              		.loc 1 181 0
 2219 041e 5B49     		ldr	r1, .L211+8
 2220 0420 4871     		strb	r0, [r1, #5]
 2221 0422 631C     		adds	r3, r4, #1
 2222 0424 9BB2     		uxth	r3, r3
 2223              	.LVL301:
 182:.\RFPoll.c    ****                         buffer_tx[y] = 0x03;y++;
 2224              		.loc 1 182 0
 2225 0426 A620     		movs	r0, #166
 2226 0428 C854     		strb	r0, [r1, r3]
 2227 042a 0133     		adds	r3, r3, #1
 2228              	.LVL302:
 2229 042c 9BB2     		uxth	r3, r3
 2230              	.LVL303:
 183:.\RFPoll.c    ****                     } 
 2231              		.loc 1 183 0
 2232 042e 0320     		movs	r0, #3
 2233 0430 C854     		strb	r0, [r1, r3]
 2234 0432 0133     		adds	r3, r3, #1
 2235              	.LVL304:
 2236 0434 9CB2     		uxth	r4, r3
 2237              	.LVL305:
 2238              	.L165:
 185:.\RFPoll.c    ****                         side.c.RFstateReport = 1;
 2239              		.loc 1 185 0
 2240 0436 544B     		ldr	r3, .L211+4
 2241 0438 93F81002 		ldrb	r0, [r3, #528]	@ zero_extendqisi2
 2242 043c 8242     		cmp	r2, r0
 2243 043e 25D1     		bne	.L168
 186:.\RFPoll.c    ****                         for(x=9;x < 14 ; x++ ){
 2244              		.loc 1 186 0
 2245 0440 0121     		movs	r1, #1
 2246 0442 83F81713 		strb	r1, [r3, #791]
 2247              	.LVL306:
 187:.\RFPoll.c    ****                             side.c.ppuAuthorized[buffer_rf[8]][x-9] = buffer_rf[x];
 2248              		.loc 1 187 0
 2249 0446 0923     		movs	r3, #9
 2250 0448 0AE0     		b	.L169
 2251              	.LVL307:
 2252              	.L170:
 188:.\RFPoll.c    ****                         }
ARM GAS  C:\Users\RECEPC~1\AppData\Local\Temp\ccXtGlXn.s 			page 54


 2253              		.loc 1 188 0 discriminator 3
 2254 044a 4E4D     		ldr	r5, .L211
 2255 044c 2E7A     		ldrb	r6, [r5, #8]	@ zero_extendqisi2
 2256 044e ED5C     		ldrb	r5, [r5, r3]	@ zero_extendqisi2
 2257 0450 4D49     		ldr	r1, .L211+4
 2258 0452 01EBC601 		add	r1, r1, r6, lsl #3
 2259 0456 1944     		add	r1, r1, r3
 2260 0458 81F8BC52 		strb	r5, [r1, #700]
 187:.\RFPoll.c    ****                             side.c.ppuAuthorized[buffer_rf[8]][x-9] = buffer_rf[x];
 2261              		.loc 1 187 0 discriminator 3
 2262 045c 0133     		adds	r3, r3, #1
 2263              	.LVL308:
 2264 045e 9BB2     		uxth	r3, r3
 2265              	.LVL309:
 2266              	.L169:
 187:.\RFPoll.c    ****                             side.c.ppuAuthorized[buffer_rf[8]][x-9] = buffer_rf[x];
 2267              		.loc 1 187 0 is_stmt 0 discriminator 1
 2268 0460 0D2B     		cmp	r3, #13
 2269 0462 F2D9     		bls	.L170
 190:.\RFPoll.c    ****                         side.c.grade = buffer_rf[8];
 2270              		.loc 1 190 0 is_stmt 1
 2271 0464 484B     		ldr	r3, .L211+4
 2272              	.LVL310:
 2273 0466 0121     		movs	r1, #1
 2274 0468 83F81513 		strb	r1, [r3, #789]
 191:.\RFPoll.c    ****                         buffer_tx[5] = side.c.dir; y++;
 2275              		.loc 1 191 0
 2276 046c 4549     		ldr	r1, .L211
 2277 046e 097A     		ldrb	r1, [r1, #8]	@ zero_extendqisi2
 2278 0470 83F81613 		strb	r1, [r3, #790]
 192:.\RFPoll.c    ****                         buffer_tx[y] = 0xA6;y++;
 2279              		.loc 1 192 0
 2280 0474 4549     		ldr	r1, .L211+8
 2281 0476 4871     		strb	r0, [r1, #5]
 2282 0478 631C     		adds	r3, r4, #1
 2283 047a 9BB2     		uxth	r3, r3
 2284              	.LVL311:
 193:.\RFPoll.c    ****                         buffer_tx[y] = 0x03;y++;
 2285              		.loc 1 193 0
 2286 047c A620     		movs	r0, #166
 2287 047e C854     		strb	r0, [r1, r3]
 2288 0480 0133     		adds	r3, r3, #1
 2289              	.LVL312:
 2290 0482 9BB2     		uxth	r3, r3
 2291              	.LVL313:
 194:.\RFPoll.c    ****                     } 
 2292              		.loc 1 194 0
 2293 0484 0320     		movs	r0, #3
 2294 0486 C854     		strb	r0, [r1, r3]
 2295 0488 0133     		adds	r3, r3, #1
 2296              	.LVL314:
 2297 048a 9CB2     		uxth	r4, r3
 2298              	.LVL315:
 2299              	.L168:
 196:.\RFPoll.c    ****                         side.d.RFstateReport = 1;
 2300              		.loc 1 196 0
 2301 048c 3E4B     		ldr	r3, .L211+4
ARM GAS  C:\Users\RECEPC~1\AppData\Local\Temp\ccXtGlXn.s 			page 55


 2302 048e 93F81813 		ldrb	r1, [r3, #792]	@ zero_extendqisi2
 2303 0492 8A42     		cmp	r2, r1
 2304 0494 25D1     		bne	.L171
 197:.\RFPoll.c    ****                         for(x=9;x < 14 ; x++ ){
 2305              		.loc 1 197 0
 2306 0496 0122     		movs	r2, #1
 2307 0498 83F81F24 		strb	r2, [r3, #1055]
 2308              	.LVL316:
 198:.\RFPoll.c    ****                             side.d.ppuAuthorized[buffer_rf[8]][x-9] = buffer_rf[x];
 2309              		.loc 1 198 0
 2310 049c 0923     		movs	r3, #9
 2311 049e 0AE0     		b	.L172
 2312              	.LVL317:
 2313              	.L173:
 199:.\RFPoll.c    ****                         }
 2314              		.loc 1 199 0 discriminator 3
 2315 04a0 3848     		ldr	r0, .L211
 2316 04a2 057A     		ldrb	r5, [r0, #8]	@ zero_extendqisi2
 2317 04a4 C05C     		ldrb	r0, [r0, r3]	@ zero_extendqisi2
 2318 04a6 384A     		ldr	r2, .L211+4
 2319 04a8 02EBC502 		add	r2, r2, r5, lsl #3
 2320 04ac 1A44     		add	r2, r2, r3
 2321 04ae 82F8C403 		strb	r0, [r2, #964]
 198:.\RFPoll.c    ****                             side.d.ppuAuthorized[buffer_rf[8]][x-9] = buffer_rf[x];
 2322              		.loc 1 198 0 discriminator 3
 2323 04b2 0133     		adds	r3, r3, #1
 2324              	.LVL318:
 2325 04b4 9BB2     		uxth	r3, r3
 2326              	.LVL319:
 2327              	.L172:
 198:.\RFPoll.c    ****                             side.d.ppuAuthorized[buffer_rf[8]][x-9] = buffer_rf[x];
 2328              		.loc 1 198 0 is_stmt 0 discriminator 1
 2329 04b6 0D2B     		cmp	r3, #13
 2330 04b8 F2D9     		bls	.L173
 201:.\RFPoll.c    ****                         side.d.grade = buffer_rf[8];
 2331              		.loc 1 201 0 is_stmt 1
 2332 04ba 334B     		ldr	r3, .L211+4
 2333              	.LVL320:
 2334 04bc 0122     		movs	r2, #1
 2335 04be 83F81D24 		strb	r2, [r3, #1053]
 202:.\RFPoll.c    ****                         buffer_tx[5] = side.d.dir; y++;
 2336              		.loc 1 202 0
 2337 04c2 304A     		ldr	r2, .L211
 2338 04c4 127A     		ldrb	r2, [r2, #8]	@ zero_extendqisi2
 2339 04c6 83F81E24 		strb	r2, [r3, #1054]
 203:.\RFPoll.c    ****                         buffer_tx[y] = 0xA6;y++;
 2340              		.loc 1 203 0
 2341 04ca 304A     		ldr	r2, .L211+8
 2342 04cc 5171     		strb	r1, [r2, #5]
 2343 04ce 631C     		adds	r3, r4, #1
 2344 04d0 9BB2     		uxth	r3, r3
 2345              	.LVL321:
 204:.\RFPoll.c    ****                         buffer_tx[y] = 0x03;y++;
 2346              		.loc 1 204 0
 2347 04d2 A621     		movs	r1, #166
 2348 04d4 D154     		strb	r1, [r2, r3]
 2349 04d6 0133     		adds	r3, r3, #1
ARM GAS  C:\Users\RECEPC~1\AppData\Local\Temp\ccXtGlXn.s 			page 56


 2350              	.LVL322:
 2351 04d8 9BB2     		uxth	r3, r3
 2352              	.LVL323:
 205:.\RFPoll.c    ****                     }
 2353              		.loc 1 205 0
 2354 04da 0321     		movs	r1, #3
 2355 04dc D154     		strb	r1, [r2, r3]
 2356 04de 0133     		adds	r3, r3, #1
 2357              	.LVL324:
 2358 04e0 9CB2     		uxth	r4, r3
 2359              	.LVL325:
 2360              	.L171:
 207:.\RFPoll.c    ****                     for (x = 0; x < y; x++){
 2361              		.loc 1 207 0
 2362 04e2 651C     		adds	r5, r4, #1
 2363 04e4 ADB2     		uxth	r5, r5
 2364 04e6 294E     		ldr	r6, .L211+8
 2365 04e8 3046     		mov	r0, r6
 2366 04ea 2946     		mov	r1, r5
 2367 04ec FFF7FEFF 		bl	verificar_check
 2368              	.LVL326:
 2369 04f0 3055     		strb	r0, [r6, r4]
 2370              	.LVL327:
 208:.\RFPoll.c    ****                         RF_Connection_PutChar(buffer_tx[x]);
 2371              		.loc 1 208 0
 2372 04f2 0024     		movs	r4, #0
 2373 04f4 05E0     		b	.L174
 2374              	.LVL328:
 2375              	.L175:
 209:.\RFPoll.c    ****                     }
 2376              		.loc 1 209 0 discriminator 3
 2377 04f6 254B     		ldr	r3, .L211+8
 2378 04f8 185D     		ldrb	r0, [r3, r4]	@ zero_extendqisi2
 2379 04fa FFF7FEFF 		bl	RF_Connection_PutChar
 2380              	.LVL329:
 208:.\RFPoll.c    ****                         RF_Connection_PutChar(buffer_tx[x]);
 2381              		.loc 1 208 0 discriminator 3
 2382 04fe 0134     		adds	r4, r4, #1
 2383              	.LVL330:
 2384 0500 A4B2     		uxth	r4, r4
 2385              	.LVL331:
 2386              	.L174:
 208:.\RFPoll.c    ****                         RF_Connection_PutChar(buffer_tx[x]);
 2387              		.loc 1 208 0 is_stmt 0 discriminator 1
 2388 0502 AC42     		cmp	r4, r5
 2389 0504 F7D3     		bcc	.L175
 2390 0506 1AE1     		b	.L125
 2391              	.LVL332:
 2392              	.L128:
 215:.\RFPoll.c    ****                         buffer_tx[5] = side.a.dir;
 2393              		.loc 1 215 0 is_stmt 1
 2394 0508 1E4B     		ldr	r3, .L211
 2395 050a 5B79     		ldrb	r3, [r3, #5]	@ zero_extendqisi2
 2396 050c 1E4A     		ldr	r2, .L211+4
 2397 050e 1178     		ldrb	r1, [r2]	@ zero_extendqisi2
 2398 0510 8B42     		cmp	r3, r1
 2399 0512 07D1     		bne	.L176
ARM GAS  C:\Users\RECEPC~1\AppData\Local\Temp\ccXtGlXn.s 			page 57


 216:.\RFPoll.c    ****                         buffer_tx[6] = 0xA7;
 2400              		.loc 1 216 0
 2401 0514 1D4A     		ldr	r2, .L211+8
 2402 0516 5171     		strb	r1, [r2, #5]
 217:.\RFPoll.c    ****                         buffer_tx[7] = side.a.rfState;
 2403              		.loc 1 217 0
 2404 0518 A721     		movs	r1, #167
 2405 051a 9171     		strb	r1, [r2, #6]
 218:.\RFPoll.c    ****                     }  
 2406              		.loc 1 218 0
 2407 051c 1A49     		ldr	r1, .L211+4
 2408 051e 91F80311 		ldrb	r1, [r1, #259]	@ zero_extendqisi2
 2409 0522 D171     		strb	r1, [r2, #7]
 2410              	.L176:
 220:.\RFPoll.c    ****                         buffer_tx[5] = side.b.dir;
 2411              		.loc 1 220 0
 2412 0524 184A     		ldr	r2, .L211+4
 2413 0526 92F80811 		ldrb	r1, [r2, #264]	@ zero_extendqisi2
 2414 052a 8B42     		cmp	r3, r1
 2415 052c 07D1     		bne	.L177
 221:.\RFPoll.c    ****                         buffer_tx[6] = 0xA7;
 2416              		.loc 1 221 0
 2417 052e 174A     		ldr	r2, .L211+8
 2418 0530 5171     		strb	r1, [r2, #5]
 222:.\RFPoll.c    ****                         buffer_tx[7] = side.b.rfState;
 2419              		.loc 1 222 0
 2420 0532 A721     		movs	r1, #167
 2421 0534 9171     		strb	r1, [r2, #6]
 223:.\RFPoll.c    ****                     }
 2422              		.loc 1 223 0
 2423 0536 1449     		ldr	r1, .L211+4
 2424 0538 91F80B12 		ldrb	r1, [r1, #523]	@ zero_extendqisi2
 2425 053c D171     		strb	r1, [r2, #7]
 2426              	.L177:
 225:.\RFPoll.c    ****                         buffer_tx[5] = side.c.dir;
 2427              		.loc 1 225 0
 2428 053e 124A     		ldr	r2, .L211+4
 2429 0540 92F81012 		ldrb	r1, [r2, #528]	@ zero_extendqisi2
 2430 0544 8B42     		cmp	r3, r1
 2431 0546 07D1     		bne	.L178
 226:.\RFPoll.c    ****                         buffer_tx[6] = 0xA7;
 2432              		.loc 1 226 0
 2433 0548 104A     		ldr	r2, .L211+8
 2434 054a 5171     		strb	r1, [r2, #5]
 227:.\RFPoll.c    ****                         buffer_tx[7] = side.c.rfState;
 2435              		.loc 1 227 0
 2436 054c A721     		movs	r1, #167
 2437 054e 9171     		strb	r1, [r2, #6]
 228:.\RFPoll.c    ****                     }
 2438              		.loc 1 228 0
 2439 0550 0D49     		ldr	r1, .L211+4
 2440 0552 91F81313 		ldrb	r1, [r1, #787]	@ zero_extendqisi2
 2441 0556 D171     		strb	r1, [r2, #7]
 2442              	.L178:
 230:.\RFPoll.c    ****                         buffer_tx[5] = side.d.dir;
 2443              		.loc 1 230 0
 2444 0558 0B4A     		ldr	r2, .L211+4
ARM GAS  C:\Users\RECEPC~1\AppData\Local\Temp\ccXtGlXn.s 			page 58


 2445 055a 92F81823 		ldrb	r2, [r2, #792]	@ zero_extendqisi2
 2446 055e 9342     		cmp	r3, r2
 2447 0560 07D1     		bne	.L179
 231:.\RFPoll.c    ****                         buffer_tx[6] = 0xA7;
 2448              		.loc 1 231 0
 2449 0562 0A4B     		ldr	r3, .L211+8
 2450 0564 5A71     		strb	r2, [r3, #5]
 232:.\RFPoll.c    ****                         buffer_tx[7] = side.d.rfState;
 2451              		.loc 1 232 0
 2452 0566 A722     		movs	r2, #167
 2453 0568 9A71     		strb	r2, [r3, #6]
 233:.\RFPoll.c    ****                     }
 2454              		.loc 1 233 0
 2455 056a 074A     		ldr	r2, .L211+4
 2456 056c 92F81B24 		ldrb	r2, [r2, #1051]	@ zero_extendqisi2
 2457 0570 DA71     		strb	r2, [r3, #7]
 2458              	.L179:
 235:.\RFPoll.c    ****                     for (x = 0; x < 9; x++){
 2459              		.loc 1 235 0
 2460 0572 064C     		ldr	r4, .L211+8
 2461              	.LVL333:
 2462 0574 2046     		mov	r0, r4
 2463 0576 0921     		movs	r1, #9
 2464 0578 FFF7FEFF 		bl	verificar_check
 2465              	.LVL334:
 2466 057c 2072     		strb	r0, [r4, #8]
 2467              	.LVL335:
 236:.\RFPoll.c    ****                         RF_Connection_PutChar(buffer_tx[x]);
 2468              		.loc 1 236 0
 2469 057e 0024     		movs	r4, #0
 2470 0580 0EE0     		b	.L180
 2471              	.L212:
 2472 0582 00BF     		.align	2
 2473              	.L211:
 2474 0584 00000000 		.word	buffer_rf
 2475 0588 00000000 		.word	side
 2476 058c 00000000 		.word	buffer_tx
 2477 0590 00000000 		.word	digits
 2478              	.LVL336:
 2479              	.L181:
 237:.\RFPoll.c    ****                     }
 2480              		.loc 1 237 0 discriminator 3
 2481 0594 6E4B     		ldr	r3, .L213
 2482 0596 185D     		ldrb	r0, [r3, r4]	@ zero_extendqisi2
 2483 0598 FFF7FEFF 		bl	RF_Connection_PutChar
 2484              	.LVL337:
 236:.\RFPoll.c    ****                         RF_Connection_PutChar(buffer_tx[x]);
 2485              		.loc 1 236 0 discriminator 3
 2486 059c 0134     		adds	r4, r4, #1
 2487              	.LVL338:
 2488 059e A4B2     		uxth	r4, r4
 2489              	.LVL339:
 2490              	.L180:
 236:.\RFPoll.c    ****                         RF_Connection_PutChar(buffer_tx[x]);
 2491              		.loc 1 236 0 is_stmt 0 discriminator 1
 2492 05a0 082C     		cmp	r4, #8
 2493 05a2 F7D9     		bls	.L181
ARM GAS  C:\Users\RECEPC~1\AppData\Local\Temp\ccXtGlXn.s 			page 59


 2494 05a4 CBE0     		b	.L125
 2495              	.LVL340:
 2496              	.L135:
 242:.\RFPoll.c    ****                    break;
 2497              		.loc 1 242 0 is_stmt 1
 2498 05a6 BC22     		movs	r2, #188
 2499 05a8 694B     		ldr	r3, .L213
 2500 05aa 1A70     		strb	r2, [r3]
 243:.\RFPoll.c    ****                     
 2501              		.loc 1 243 0
 2502 05ac C7E0     		b	.L125
 2503              	.L133:
 246:.\RFPoll.c    ****                     date[0]    = buffer_rf[9];
 2504              		.loc 1 246 0
 2505 05ae 694B     		ldr	r3, .L213+4
 2506 05b0 197A     		ldrb	r1, [r3, #8]	@ zero_extendqisi2
 2507 05b2 694A     		ldr	r2, .L213+8
 2508 05b4 5170     		strb	r1, [r2, #1]
 247:.\RFPoll.c    ****                     date[1]    = buffer_rf[10];
 2509              		.loc 1 247 0
 2510 05b6 597A     		ldrb	r1, [r3, #9]	@ zero_extendqisi2
 2511 05b8 684A     		ldr	r2, .L213+12
 2512 05ba 1170     		strb	r1, [r2]
 248:.\RFPoll.c    ****                     date[2]    = buffer_rf[11];
 2513              		.loc 1 248 0
 2514 05bc 997A     		ldrb	r1, [r3, #10]	@ zero_extendqisi2
 2515 05be 5170     		strb	r1, [r2, #1]
 249:.\RFPoll.c    ****                     time[1]    = buffer_rf[12];
 2516              		.loc 1 249 0
 2517 05c0 D97A     		ldrb	r1, [r3, #11]	@ zero_extendqisi2
 2518 05c2 9170     		strb	r1, [r2, #2]
 250:.\RFPoll.c    ****                     time[0]    = buffer_rf[13];
 2519              		.loc 1 250 0
 2520 05c4 197B     		ldrb	r1, [r3, #12]	@ zero_extendqisi2
 2521 05c6 664A     		ldr	r2, .L213+16
 2522 05c8 5170     		strb	r1, [r2, #1]
 251:.\RFPoll.c    ****                     for(x = 17; x < 47; x++){
 2523              		.loc 1 251 0
 2524 05ca 5B7B     		ldrb	r3, [r3, #13]	@ zero_extendqisi2
 2525 05cc 1370     		strb	r3, [r2]
 2526              	.LVL341:
 252:.\RFPoll.c    ****                         Encabezado1[x-17] = buffer_rf[x];
 2527              		.loc 1 252 0
 2528 05ce 1123     		movs	r3, #17
 2529 05d0 07E0     		b	.L182
 2530              	.LVL342:
 2531              	.L183:
 253:.\RFPoll.c    ****                     }
 2532              		.loc 1 253 0 discriminator 3
 2533 05d2 A3F11102 		sub	r2, r3, #17
 2534 05d6 5F49     		ldr	r1, .L213+4
 2535 05d8 C85C     		ldrb	r0, [r1, r3]	@ zero_extendqisi2
 2536 05da 6249     		ldr	r1, .L213+20
 2537 05dc 8854     		strb	r0, [r1, r2]
 252:.\RFPoll.c    ****                         Encabezado1[x-17] = buffer_rf[x];
 2538              		.loc 1 252 0 discriminator 3
 2539 05de 0133     		adds	r3, r3, #1
ARM GAS  C:\Users\RECEPC~1\AppData\Local\Temp\ccXtGlXn.s 			page 60


 2540              	.LVL343:
 2541 05e0 9BB2     		uxth	r3, r3
 2542              	.LVL344:
 2543              	.L182:
 252:.\RFPoll.c    ****                         Encabezado1[x-17] = buffer_rf[x];
 2544              		.loc 1 252 0 is_stmt 0 discriminator 1
 2545 05e2 2E2B     		cmp	r3, #46
 2546 05e4 F5D9     		bls	.L183
 2547 05e6 2F23     		movs	r3, #47
 2548              	.LVL345:
 2549 05e8 07E0     		b	.L184
 2550              	.LVL346:
 2551              	.L185:
 256:.\RFPoll.c    ****                     }
 2552              		.loc 1 256 0 is_stmt 1 discriminator 3
 2553 05ea A3F12F02 		sub	r2, r3, #47
 2554 05ee 5949     		ldr	r1, .L213+4
 2555 05f0 C85C     		ldrb	r0, [r1, r3]	@ zero_extendqisi2
 2556 05f2 5D49     		ldr	r1, .L213+24
 2557 05f4 8854     		strb	r0, [r1, r2]
 255:.\RFPoll.c    ****                         Encabezado2[x-47] = buffer_rf[x];
 2558              		.loc 1 255 0 discriminator 3
 2559 05f6 0133     		adds	r3, r3, #1
 2560              	.LVL347:
 2561 05f8 9BB2     		uxth	r3, r3
 2562              	.LVL348:
 2563              	.L184:
 255:.\RFPoll.c    ****                         Encabezado2[x-47] = buffer_rf[x];
 2564              		.loc 1 255 0 is_stmt 0 discriminator 1
 2565 05fa 4C2B     		cmp	r3, #76
 2566 05fc F5D9     		bls	.L185
 2567 05fe 4D23     		movs	r3, #77
 2568              	.LVL349:
 2569 0600 07E0     		b	.L186
 2570              	.LVL350:
 2571              	.L187:
 259:.\RFPoll.c    ****                     }
 2572              		.loc 1 259 0 is_stmt 1 discriminator 3
 2573 0602 A3F14D02 		sub	r2, r3, #77
 2574 0606 5349     		ldr	r1, .L213+4
 2575 0608 C85C     		ldrb	r0, [r1, r3]	@ zero_extendqisi2
 2576 060a 5849     		ldr	r1, .L213+28
 2577 060c 8854     		strb	r0, [r1, r2]
 258:.\RFPoll.c    ****                         Encabezado3[x-77] = buffer_rf[x];
 2578              		.loc 1 258 0 discriminator 3
 2579 060e 0133     		adds	r3, r3, #1
 2580              	.LVL351:
 2581 0610 9BB2     		uxth	r3, r3
 2582              	.LVL352:
 2583              	.L186:
 258:.\RFPoll.c    ****                         Encabezado3[x-77] = buffer_rf[x];
 2584              		.loc 1 258 0 is_stmt 0 discriminator 1
 2585 0612 6A2B     		cmp	r3, #106
 2586 0614 F5D9     		bls	.L187
 2587 0616 6B23     		movs	r3, #107
 2588              	.LVL353:
 2589 0618 07E0     		b	.L188
ARM GAS  C:\Users\RECEPC~1\AppData\Local\Temp\ccXtGlXn.s 			page 61


 2590              	.LVL354:
 2591              	.L189:
 262:.\RFPoll.c    ****                     }
 2592              		.loc 1 262 0 is_stmt 1 discriminator 3
 2593 061a A3F14D02 		sub	r2, r3, #77
 2594 061e 4D49     		ldr	r1, .L213+4
 2595 0620 C85C     		ldrb	r0, [r1, r3]	@ zero_extendqisi2
 2596 0622 5349     		ldr	r1, .L213+32
 2597 0624 8854     		strb	r0, [r1, r2]
 261:.\RFPoll.c    ****                         Encabezado4[x-77] = buffer_rf[x];
 2598              		.loc 1 261 0 discriminator 3
 2599 0626 0133     		adds	r3, r3, #1
 2600              	.LVL355:
 2601 0628 9BB2     		uxth	r3, r3
 2602              	.LVL356:
 2603              	.L188:
 261:.\RFPoll.c    ****                         Encabezado4[x-77] = buffer_rf[x];
 2604              		.loc 1 261 0 is_stmt 0 discriminator 1
 2605 062a 882B     		cmp	r3, #136
 2606 062c F5D9     		bls	.L189
 264:.\RFPoll.c    ****                     write_hora();
 2607              		.loc 1 264 0 is_stmt 1
 2608 062e 494B     		ldr	r3, .L213+4
 2609              	.LVL357:
 2610 0630 1A7C     		ldrb	r2, [r3, #16]	@ zero_extendqisi2
 2611 0632 504B     		ldr	r3, .L213+36
 2612 0634 1A70     		strb	r2, [r3]
 265:.\RFPoll.c    ****                     write_fecha(); 
 2613              		.loc 1 265 0
 2614 0636 FFF7FEFF 		bl	write_hora
 2615              	.LVL358:
 266:.\RFPoll.c    ****                     for(x =0 ; x <30; x++){
 2616              		.loc 1 266 0
 2617 063a FFF7FEFF 		bl	write_fecha
 2618              	.LVL359:
 267:.\RFPoll.c    ****                         EEPROM_1_WriteByte(Encabezado1[x],16+x);
 2619              		.loc 1 267 0
 2620 063e 0024     		movs	r4, #0
 2621              	.LVL360:
 2622 0640 08E0     		b	.L190
 2623              	.LVL361:
 2624              	.L191:
 268:.\RFPoll.c    ****                     }
 2625              		.loc 1 268 0 discriminator 3
 2626 0642 04F11001 		add	r1, r4, #16
 2627 0646 474B     		ldr	r3, .L213+20
 2628 0648 185D     		ldrb	r0, [r3, r4]	@ zero_extendqisi2
 2629 064a 89B2     		uxth	r1, r1
 2630 064c FFF7FEFF 		bl	EEPROM_1_WriteByte
 2631              	.LVL362:
 267:.\RFPoll.c    ****                         EEPROM_1_WriteByte(Encabezado1[x],16+x);
 2632              		.loc 1 267 0 discriminator 3
 2633 0650 0134     		adds	r4, r4, #1
 2634              	.LVL363:
 2635 0652 A4B2     		uxth	r4, r4
 2636              	.LVL364:
 2637              	.L190:
ARM GAS  C:\Users\RECEPC~1\AppData\Local\Temp\ccXtGlXn.s 			page 62


 267:.\RFPoll.c    ****                         EEPROM_1_WriteByte(Encabezado1[x],16+x);
 2638              		.loc 1 267 0 is_stmt 0 discriminator 1
 2639 0654 1D2C     		cmp	r4, #29
 2640 0656 F4D9     		bls	.L191
 2641 0658 1E24     		movs	r4, #30
 2642              	.LVL365:
 2643 065a 0AE0     		b	.L192
 2644              	.LVL366:
 2645              	.L193:
 271:.\RFPoll.c    ****                     }
 2646              		.loc 1 271 0 is_stmt 1 discriminator 3
 2647 065c A4F11E03 		sub	r3, r4, #30
 2648 0660 04F11001 		add	r1, r4, #16
 2649 0664 404A     		ldr	r2, .L213+24
 2650 0666 D05C     		ldrb	r0, [r2, r3]	@ zero_extendqisi2
 2651 0668 89B2     		uxth	r1, r1
 2652 066a FFF7FEFF 		bl	EEPROM_1_WriteByte
 2653              	.LVL367:
 270:.\RFPoll.c    ****                         EEPROM_1_WriteByte(Encabezado2[x-30],16+x);
 2654              		.loc 1 270 0 discriminator 3
 2655 066e 0134     		adds	r4, r4, #1
 2656              	.LVL368:
 2657 0670 A4B2     		uxth	r4, r4
 2658              	.LVL369:
 2659              	.L192:
 270:.\RFPoll.c    ****                         EEPROM_1_WriteByte(Encabezado2[x-30],16+x);
 2660              		.loc 1 270 0 is_stmt 0 discriminator 1
 2661 0672 3B2C     		cmp	r4, #59
 2662 0674 F2D9     		bls	.L193
 2663 0676 3C24     		movs	r4, #60
 2664              	.LVL370:
 2665 0678 0AE0     		b	.L194
 2666              	.LVL371:
 2667              	.L195:
 274:.\RFPoll.c    ****                     }
 2668              		.loc 1 274 0 is_stmt 1 discriminator 3
 2669 067a A4F11E03 		sub	r3, r4, #30
 2670 067e 04F11001 		add	r1, r4, #16
 2671 0682 3A4A     		ldr	r2, .L213+28
 2672 0684 D05C     		ldrb	r0, [r2, r3]	@ zero_extendqisi2
 2673 0686 89B2     		uxth	r1, r1
 2674 0688 FFF7FEFF 		bl	EEPROM_1_WriteByte
 2675              	.LVL372:
 273:.\RFPoll.c    ****                         EEPROM_1_WriteByte(Encabezado3[x-30],16+x);
 2676              		.loc 1 273 0 discriminator 3
 2677 068c 0134     		adds	r4, r4, #1
 2678              	.LVL373:
 2679 068e A4B2     		uxth	r4, r4
 2680              	.LVL374:
 2681              	.L194:
 273:.\RFPoll.c    ****                         EEPROM_1_WriteByte(Encabezado3[x-30],16+x);
 2682              		.loc 1 273 0 is_stmt 0 discriminator 1
 2683 0690 592C     		cmp	r4, #89
 2684 0692 F2D9     		bls	.L195
 2685 0694 5A24     		movs	r4, #90
 2686              	.LVL375:
 2687 0696 0AE0     		b	.L196
ARM GAS  C:\Users\RECEPC~1\AppData\Local\Temp\ccXtGlXn.s 			page 63


 2688              	.LVL376:
 2689              	.L197:
 277:.\RFPoll.c    ****                     }
 2690              		.loc 1 277 0 is_stmt 1 discriminator 3
 2691 0698 A4F11E03 		sub	r3, r4, #30
 2692 069c 04F11001 		add	r1, r4, #16
 2693 06a0 334A     		ldr	r2, .L213+32
 2694 06a2 D05C     		ldrb	r0, [r2, r3]	@ zero_extendqisi2
 2695 06a4 89B2     		uxth	r1, r1
 2696 06a6 FFF7FEFF 		bl	EEPROM_1_WriteByte
 2697              	.LVL377:
 276:.\RFPoll.c    ****                         EEPROM_1_WriteByte(Encabezado4[x-30],16+x);
 2698              		.loc 1 276 0 discriminator 3
 2699 06aa 0134     		adds	r4, r4, #1
 2700              	.LVL378:
 2701 06ac A4B2     		uxth	r4, r4
 2702              	.LVL379:
 2703              	.L196:
 276:.\RFPoll.c    ****                         EEPROM_1_WriteByte(Encabezado4[x-30],16+x);
 2704              		.loc 1 276 0 is_stmt 0 discriminator 1
 2705 06ae 772C     		cmp	r4, #119
 2706 06b0 F2D9     		bls	.L197
 279:.\RFPoll.c    ****                     side.b.dir = EEPROM_1_ReadByte(13);
 2707              		.loc 1 279 0 is_stmt 1
 2708 06b2 0C20     		movs	r0, #12
 2709 06b4 FFF7FEFF 		bl	EEPROM_1_ReadByte
 2710              	.LVL380:
 2711 06b8 2F4C     		ldr	r4, .L213+40
 2712              	.LVL381:
 2713 06ba 2070     		strb	r0, [r4]
 280:.\RFPoll.c    ****                     side.c.dir = EEPROM_1_ReadByte(14);
 2714              		.loc 1 280 0
 2715 06bc 0D20     		movs	r0, #13
 2716 06be FFF7FEFF 		bl	EEPROM_1_ReadByte
 2717              	.LVL382:
 2718 06c2 84F80801 		strb	r0, [r4, #264]
 281:.\RFPoll.c    ****                     side.d.dir = EEPROM_1_ReadByte(15);
 2719              		.loc 1 281 0
 2720 06c6 0E20     		movs	r0, #14
 2721 06c8 FFF7FEFF 		bl	EEPROM_1_ReadByte
 2722              	.LVL383:
 2723 06cc 84F81002 		strb	r0, [r4, #528]
 282:.\RFPoll.c    ****                     imprimir(printPortA,side.a.dir);
 2724              		.loc 1 282 0
 2725 06d0 0F20     		movs	r0, #15
 2726 06d2 FFF7FEFF 		bl	EEPROM_1_ReadByte
 2727              	.LVL384:
 2728 06d6 84F81803 		strb	r0, [r4, #792]
 283:.\RFPoll.c    ****                    break;
 2729              		.loc 1 283 0
 2730 06da 284B     		ldr	r3, .L213+44
 2731 06dc 1878     		ldrb	r0, [r3]	@ zero_extendqisi2
 2732 06de 2178     		ldrb	r1, [r4]	@ zero_extendqisi2
 2733 06e0 FFF7FEFF 		bl	imprimir
 2734              	.LVL385:
 284:.\RFPoll.c    ****                    
 2735              		.loc 1 284 0
ARM GAS  C:\Users\RECEPC~1\AppData\Local\Temp\ccXtGlXn.s 			page 64


 2736 06e4 2BE0     		b	.L125
 2737              	.LVL386:
 2738              	.L134:
 287:.\RFPoll.c    ****                     buffer_tx[6] = 0xE2;
 2739              		.loc 1 287 0
 2740 06e6 1B4B     		ldr	r3, .L213+4
 2741 06e8 5B79     		ldrb	r3, [r3, #5]	@ zero_extendqisi2
 2742 06ea 194C     		ldr	r4, .L213
 2743              	.LVL387:
 2744 06ec 6371     		strb	r3, [r4, #5]
 288:.\RFPoll.c    ****                     buffer_tx[7] = 0x08;
 2745              		.loc 1 288 0
 2746 06ee E223     		movs	r3, #226
 2747 06f0 A371     		strb	r3, [r4, #6]
 289:.\RFPoll.c    ****                     buffer_tx[8] = 0x03;
 2748              		.loc 1 289 0
 2749 06f2 0823     		movs	r3, #8
 2750 06f4 E371     		strb	r3, [r4, #7]
 290:.\RFPoll.c    ****                     buffer_tx[9] = verificar_check(buffer_tx,10);
 2751              		.loc 1 290 0
 2752 06f6 0323     		movs	r3, #3
 2753 06f8 2372     		strb	r3, [r4, #8]
 291:.\RFPoll.c    ****                     for (x = 0; x < 10; x++){
 2754              		.loc 1 291 0
 2755 06fa 2046     		mov	r0, r4
 2756 06fc 0A21     		movs	r1, #10
 2757 06fe FFF7FEFF 		bl	verificar_check
 2758              	.LVL388:
 2759 0702 6072     		strb	r0, [r4, #9]
 2760              	.LVL389:
 292:.\RFPoll.c    ****                         RF_Connection_PutChar(buffer_tx[x]);
 2761              		.loc 1 292 0
 2762 0704 0024     		movs	r4, #0
 2763 0706 05E0     		b	.L198
 2764              	.LVL390:
 2765              	.L199:
 293:.\RFPoll.c    ****                     }
 2766              		.loc 1 293 0 discriminator 3
 2767 0708 114B     		ldr	r3, .L213
 2768 070a 185D     		ldrb	r0, [r3, r4]	@ zero_extendqisi2
 2769 070c FFF7FEFF 		bl	RF_Connection_PutChar
 2770              	.LVL391:
 292:.\RFPoll.c    ****                         RF_Connection_PutChar(buffer_tx[x]);
 2771              		.loc 1 292 0 discriminator 3
 2772 0710 0134     		adds	r4, r4, #1
 2773              	.LVL392:
 2774 0712 A4B2     		uxth	r4, r4
 2775              	.LVL393:
 2776              	.L198:
 292:.\RFPoll.c    ****                         RF_Connection_PutChar(buffer_tx[x]);
 2777              		.loc 1 292 0 is_stmt 0 discriminator 1
 2778 0714 092C     		cmp	r4, #9
 2779 0716 F7D9     		bls	.L199
 2780 0718 0823     		movs	r3, #8
 2781 071a 07E0     		b	.L200
 2782              	.LVL394:
 2783              	.L201:
ARM GAS  C:\Users\RECEPC~1\AppData\Local\Temp\ccXtGlXn.s 			page 65


 296:.\RFPoll.c    ****                     }
 2784              		.loc 1 296 0 is_stmt 1 discriminator 3
 2785 071c A3F10802 		sub	r2, r3, #8
 2786 0720 0C49     		ldr	r1, .L213+4
 2787 0722 C85C     		ldrb	r0, [r1, r3]	@ zero_extendqisi2
 2788 0724 1649     		ldr	r1, .L213+48
 2789 0726 8854     		strb	r0, [r1, r2]
 295:.\RFPoll.c    ****                         GradesHose[x-8] = buffer_rf[x];
 2790              		.loc 1 295 0 discriminator 3
 2791 0728 0133     		adds	r3, r3, #1
 2792              	.LVL395:
 2793 072a 9BB2     		uxth	r3, r3
 2794              	.LVL396:
 2795              	.L200:
 295:.\RFPoll.c    ****                         GradesHose[x-8] = buffer_rf[x];
 2796              		.loc 1 295 0 is_stmt 0 discriminator 1
 2797 072c 0B2B     		cmp	r3, #11
 2798 072e F5D9     		bls	.L201
 298:.\RFPoll.c    ****                     EEPROM_1_WriteByte(lockTurn,7);
 2799              		.loc 1 298 0 is_stmt 1
 2800 0730 084B     		ldr	r3, .L213+4
 2801              	.LVL397:
 2802 0732 187B     		ldrb	r0, [r3, #12]	@ zero_extendqisi2
 2803 0734 134B     		ldr	r3, .L213+52
 2804 0736 1870     		strb	r0, [r3]
 299:.\RFPoll.c    ****                    break;
 2805              		.loc 1 299 0
 2806 0738 0721     		movs	r1, #7
 2807 073a FFF7FEFF 		bl	EEPROM_1_WriteByte
 2808              	.LVL398:
 2809              	.L125:
 303:.\RFPoll.c    ****         }                            
 2810              		.loc 1 303 0
 2811 073e FFF7FEFF 		bl	RF_Connection_ClearRxBuffer
 2812              	.LVL399:
 2813              	.L120:
 305:.\RFPoll.c    ****         //RF_Connection_ClearTxBuffer();
 2814              		.loc 1 305 0
 2815 0742 0020     		movs	r0, #0
 2816 0744 0021     		movs	r1, #0
 2817 0746 104B     		ldr	r3, .L213+56
 2818 0748 C3E90001 		strd	r0, [r3]
 2819 074c 70BD     		pop	{r4, r5, r6, pc}
 2820              	.L208:
 2821              		.cfi_def_cfa_offset 0
 2822              		.cfi_restore 4
 2823              		.cfi_restore 5
 2824              		.cfi_restore 6
 2825              		.cfi_restore 14
 2826 074e 7047     		bx	lr
 2827              	.L214:
 2828              		.align	2
 2829              	.L213:
 2830 0750 00000000 		.word	buffer_tx
 2831 0754 00000000 		.word	buffer_rf
 2832 0758 00000000 		.word	symbols
 2833 075c 00000000 		.word	date
ARM GAS  C:\Users\RECEPC~1\AppData\Local\Temp\ccXtGlXn.s 			page 66


 2834 0760 00000000 		.word	time
 2835 0764 00000000 		.word	Encabezado1
 2836 0768 00000000 		.word	Encabezado2
 2837 076c 00000000 		.word	Encabezado3
 2838 0770 00000000 		.word	Encabezado4
 2839 0774 00000000 		.word	CopiasCredito
 2840 0778 00000000 		.word	side
 2841 077c 00000000 		.word	printPortA
 2842 0780 00000000 		.word	GradesHose
 2843 0784 00000000 		.word	lockTurn
 2844 0788 00000000 		.word	countRX
 2845              		.cfi_endproc
 2846              	.LFE64:
 2847              		.size	pollingRF_Rx, .-pollingRF_Rx
 2848              		.comm	side,1056,4
 2849              		.comm	bufferDisplay4,332,4
 2850              		.comm	bufferDisplay3,332,4
 2851              		.comm	bufferDisplay2,332,4
 2852              		.comm	bufferDisplay1,332,4
 2853              		.comm	GradesHose,5,4
 2854              		.comm	CopiasCredito,1,1
 2855              		.comm	Encabezado4,30,4
 2856              		.comm	Encabezado3,30,4
 2857              		.comm	Encabezado2,30,4
 2858              		.comm	Encabezado1,30,4
 2859              		.comm	intIDStation,2,2
 2860              		.comm	buffer_txDisplay,512,4
 2861              		.comm	buffer_tx,512,4
 2862              		.comm	buffer_rf,512,4
 2863              		.comm	printPortB,1,1
 2864              		.comm	printPortA,1,1
 2865              		.comm	pumpGap,3,4
 2866              		.comm	idStation,5,4
 2867              		.comm	controlChar,1,1
 2868              		.comm	configAccess,5,4
 2869              		.comm	count_protector2,1,1
 2870              		.comm	count_protector,1,1
 2871              		.comm	timeDownHandle,2,4
 2872              		.comm	dateDownHandle,3,4
 2873              		.comm	VolUnit,6,4
 2874              		.comm	PrinterType,1,1
 2875              		.comm	hiddenKeys,1,1
 2876              		.comm	digits,1,1
 2877              		.comm	lockTurn,1,1
 2878              		.comm	NumPositions,1,1
 2879              		.comm	statePump,4,4
 2880              		.comm	DDMode,1,1
 2881              		.comm	PPUDec,1,1
 2882              		.comm	VolDec,1,1
 2883              		.comm	MoneyDec,1,1
 2884              		.comm	ConversionFactor,1,1
 2885              		.comm	UnitType,1,1
 2886              		.comm	ShiftState,1,1
 2887              		.comm	CGrade,1,1
 2888              		.comm	tempPPU,5,4
 2889              		.comm	tempPreset,8,4
 2890              		.comm	temporal,30,4
ARM GAS  C:\Users\RECEPC~1\AppData\Local\Temp\ccXtGlXn.s 			page 67


 2891              		.comm	counterRF,1,1
 2892              		.comm	ActiveRF,1,1
 2893              		.comm	IDCast,2,4
 2894              		.comm	PlateRequest,1,1
 2895              		.comm	PrevStatePump,4,4
 2896              		.comm	stateBeagleSoft,1,1
 2897              		.comm	flagResetMux,1,1
 2898              		.comm	passwordSeller,8,4
 2899              		.comm	typeIdSeller,1,1
 2900              		.comm	idSeller,25,4
 2901              		.comm	residue,14,4
 2902              		.comm	screen,2,4
 2903              		.comm	date,3,4
 2904              		.comm	time,3,4
 2905              		.comm	symbols,2,4
 2906              		.comm	decimalVolume,1,1
 2907              		.comm	decimalMoney,1,1
 2908              		.comm	ppux10,1,1
 2909              		.comm	delayPicture2,4,4
 2910              		.comm	delayPicture1,4,4
 2911              		.comm	productNumber,1,1
 2912              		.comm	flagPoint2,1,1
 2913              		.comm	flagPoint1,1,1
 2914              		.comm	numberKeys2,1,1
 2915              		.comm	numberKeys1,1,1
 2916              		.comm	flowDisplay4,4,4
 2917              		.comm	flowDisplay3,4,4
 2918              		.comm	flowDisplay2,4,4
 2919              		.comm	flowDisplay1,4,4
 2920              		.comm	countLCD,8,8
 2921              		.comm	countPump,8,8
 2922              		.comm	countTX,8,8
 2923              		.comm	countRX,8,8
 2924              		.comm	countAnimation2,8,8
 2925              		.comm	countAnimation1,8,8
 2926              		.section	.rodata
 2927              		.align	2
 2928              		.set	.LANCHOR0,. + 0
 2929              	.LC0:
 2930 0000 00       		.byte	0
 2931 0001 5E       		.byte	94
 2932 0002 BC       		.byte	-68
 2933 0003 E2       		.byte	-30
 2934 0004 61       		.byte	97
 2935 0005 3F       		.byte	63
 2936 0006 DD       		.byte	-35
 2937 0007 83       		.byte	-125
 2938 0008 C2       		.byte	-62
 2939 0009 9C       		.byte	-100
 2940 000a 7E       		.byte	126
 2941 000b 20       		.byte	32
 2942 000c A3       		.byte	-93
 2943 000d FD       		.byte	-3
 2944 000e 1F       		.byte	31
 2945 000f 41       		.byte	65
 2946 0010 9D       		.byte	-99
 2947 0011 C3       		.byte	-61
ARM GAS  C:\Users\RECEPC~1\AppData\Local\Temp\ccXtGlXn.s 			page 68


 2948 0012 21       		.byte	33
 2949 0013 7F       		.byte	127
 2950 0014 FC       		.byte	-4
 2951 0015 A2       		.byte	-94
 2952 0016 40       		.byte	64
 2953 0017 1E       		.byte	30
 2954 0018 5F       		.byte	95
 2955 0019 01       		.byte	1
 2956 001a E3       		.byte	-29
 2957 001b BD       		.byte	-67
 2958 001c 3E       		.byte	62
 2959 001d 60       		.byte	96
 2960 001e 82       		.byte	-126
 2961 001f DC       		.byte	-36
 2962 0020 23       		.byte	35
 2963 0021 7D       		.byte	125
 2964 0022 9F       		.byte	-97
 2965 0023 C1       		.byte	-63
 2966 0024 42       		.byte	66
 2967 0025 1C       		.byte	28
 2968 0026 FE       		.byte	-2
 2969 0027 A0       		.byte	-96
 2970 0028 E1       		.byte	-31
 2971 0029 BF       		.byte	-65
 2972 002a 5D       		.byte	93
 2973 002b 03       		.byte	3
 2974 002c 80       		.byte	-128
 2975 002d DE       		.byte	-34
 2976 002e 3C       		.byte	60
 2977 002f 62       		.byte	98
 2978 0030 BE       		.byte	-66
 2979 0031 E0       		.byte	-32
 2980 0032 02       		.byte	2
 2981 0033 5C       		.byte	92
 2982 0034 DF       		.byte	-33
 2983 0035 81       		.byte	-127
 2984 0036 63       		.byte	99
 2985 0037 3D       		.byte	61
 2986 0038 7C       		.byte	124
 2987 0039 22       		.byte	34
 2988 003a C0       		.byte	-64
 2989 003b 9E       		.byte	-98
 2990 003c 1D       		.byte	29
 2991 003d 43       		.byte	67
 2992 003e A1       		.byte	-95
 2993 003f FF       		.byte	-1
 2994 0040 46       		.byte	70
 2995 0041 18       		.byte	24
 2996 0042 FA       		.byte	-6
 2997 0043 A4       		.byte	-92
 2998 0044 27       		.byte	39
 2999 0045 79       		.byte	121
 3000 0046 9B       		.byte	-101
 3001 0047 C5       		.byte	-59
 3002 0048 84       		.byte	-124
 3003 0049 DA       		.byte	-38
 3004 004a 38       		.byte	56
ARM GAS  C:\Users\RECEPC~1\AppData\Local\Temp\ccXtGlXn.s 			page 69


 3005 004b 66       		.byte	102
 3006 004c E5       		.byte	-27
 3007 004d BB       		.byte	-69
 3008 004e 59       		.byte	89
 3009 004f 07       		.byte	7
 3010 0050 DB       		.byte	-37
 3011 0051 85       		.byte	-123
 3012 0052 67       		.byte	103
 3013 0053 39       		.byte	57
 3014 0054 BA       		.byte	-70
 3015 0055 E4       		.byte	-28
 3016 0056 06       		.byte	6
 3017 0057 58       		.byte	88
 3018 0058 19       		.byte	25
 3019 0059 47       		.byte	71
 3020 005a A5       		.byte	-91
 3021 005b FB       		.byte	-5
 3022 005c 78       		.byte	120
 3023 005d 26       		.byte	38
 3024 005e C4       		.byte	-60
 3025 005f 9A       		.byte	-102
 3026 0060 65       		.byte	101
 3027 0061 3B       		.byte	59
 3028 0062 D9       		.byte	-39
 3029 0063 87       		.byte	-121
 3030 0064 04       		.byte	4
 3031 0065 5A       		.byte	90
 3032 0066 B8       		.byte	-72
 3033 0067 E6       		.byte	-26
 3034 0068 A7       		.byte	-89
 3035 0069 F9       		.byte	-7
 3036 006a 1B       		.byte	27
 3037 006b 45       		.byte	69
 3038 006c C6       		.byte	-58
 3039 006d 98       		.byte	-104
 3040 006e 7A       		.byte	122
 3041 006f 24       		.byte	36
 3042 0070 F8       		.byte	-8
 3043 0071 A6       		.byte	-90
 3044 0072 44       		.byte	68
 3045 0073 1A       		.byte	26
 3046 0074 99       		.byte	-103
 3047 0075 C7       		.byte	-57
 3048 0076 25       		.byte	37
 3049 0077 7B       		.byte	123
 3050 0078 3A       		.byte	58
 3051 0079 64       		.byte	100
 3052 007a 86       		.byte	-122
 3053 007b D8       		.byte	-40
 3054 007c 5B       		.byte	91
 3055 007d 05       		.byte	5
 3056 007e E7       		.byte	-25
 3057 007f B9       		.byte	-71
 3058 0080 8C       		.byte	-116
 3059 0081 D2       		.byte	-46
 3060 0082 30       		.byte	48
 3061 0083 6E       		.byte	110
ARM GAS  C:\Users\RECEPC~1\AppData\Local\Temp\ccXtGlXn.s 			page 70


 3062 0084 ED       		.byte	-19
 3063 0085 B3       		.byte	-77
 3064 0086 51       		.byte	81
 3065 0087 0F       		.byte	15
 3066 0088 4E       		.byte	78
 3067 0089 10       		.byte	16
 3068 008a F2       		.byte	-14
 3069 008b AC       		.byte	-84
 3070 008c 2F       		.byte	47
 3071 008d 71       		.byte	113
 3072 008e 93       		.byte	-109
 3073 008f CD       		.byte	-51
 3074 0090 11       		.byte	17
 3075 0091 4F       		.byte	79
 3076 0092 AD       		.byte	-83
 3077 0093 F3       		.byte	-13
 3078 0094 70       		.byte	112
 3079 0095 2E       		.byte	46
 3080 0096 CC       		.byte	-52
 3081 0097 92       		.byte	-110
 3082 0098 D3       		.byte	-45
 3083 0099 8D       		.byte	-115
 3084 009a 6F       		.byte	111
 3085 009b 31       		.byte	49
 3086 009c B2       		.byte	-78
 3087 009d EC       		.byte	-20
 3088 009e 0E       		.byte	14
 3089 009f 50       		.byte	80
 3090 00a0 AF       		.byte	-81
 3091 00a1 F1       		.byte	-15
 3092 00a2 13       		.byte	19
 3093 00a3 4D       		.byte	77
 3094 00a4 CE       		.byte	-50
 3095 00a5 90       		.byte	-112
 3096 00a6 72       		.byte	114
 3097 00a7 2C       		.byte	44
 3098 00a8 6D       		.byte	109
 3099 00a9 33       		.byte	51
 3100 00aa D1       		.byte	-47
 3101 00ab 8F       		.byte	-113
 3102 00ac 0C       		.byte	12
 3103 00ad 52       		.byte	82
 3104 00ae B0       		.byte	-80
 3105 00af EE       		.byte	-18
 3106 00b0 32       		.byte	50
 3107 00b1 6C       		.byte	108
 3108 00b2 8E       		.byte	-114
 3109 00b3 D0       		.byte	-48
 3110 00b4 53       		.byte	83
 3111 00b5 0D       		.byte	13
 3112 00b6 EF       		.byte	-17
 3113 00b7 B1       		.byte	-79
 3114 00b8 F0       		.byte	-16
 3115 00b9 AE       		.byte	-82
 3116 00ba 4C       		.byte	76
 3117 00bb 12       		.byte	18
 3118 00bc 91       		.byte	-111
ARM GAS  C:\Users\RECEPC~1\AppData\Local\Temp\ccXtGlXn.s 			page 71


 3119 00bd CF       		.byte	-49
 3120 00be 2D       		.byte	45
 3121 00bf 73       		.byte	115
 3122 00c0 CA       		.byte	-54
 3123 00c1 94       		.byte	-108
 3124 00c2 76       		.byte	118
 3125 00c3 28       		.byte	40
 3126 00c4 AB       		.byte	-85
 3127 00c5 F5       		.byte	-11
 3128 00c6 17       		.byte	23
 3129 00c7 49       		.byte	73
 3130 00c8 08       		.byte	8
 3131 00c9 56       		.byte	86
 3132 00ca B4       		.byte	-76
 3133 00cb EA       		.byte	-22
 3134 00cc 69       		.byte	105
 3135 00cd 37       		.byte	55
 3136 00ce D5       		.byte	-43
 3137 00cf 8B       		.byte	-117
 3138 00d0 57       		.byte	87
 3139 00d1 09       		.byte	9
 3140 00d2 EB       		.byte	-21
 3141 00d3 B5       		.byte	-75
 3142 00d4 36       		.byte	54
 3143 00d5 68       		.byte	104
 3144 00d6 8A       		.byte	-118
 3145 00d7 D4       		.byte	-44
 3146 00d8 95       		.byte	-107
 3147 00d9 CB       		.byte	-53
 3148 00da 29       		.byte	41
 3149 00db 77       		.byte	119
 3150 00dc F4       		.byte	-12
 3151 00dd AA       		.byte	-86
 3152 00de 48       		.byte	72
 3153 00df 16       		.byte	22
 3154 00e0 E9       		.byte	-23
 3155 00e1 B7       		.byte	-73
 3156 00e2 55       		.byte	85
 3157 00e3 0B       		.byte	11
 3158 00e4 88       		.byte	-120
 3159 00e5 D6       		.byte	-42
 3160 00e6 34       		.byte	52
 3161 00e7 6A       		.byte	106
 3162 00e8 2B       		.byte	43
 3163 00e9 75       		.byte	117
 3164 00ea 97       		.byte	-105
 3165 00eb C9       		.byte	-55
 3166 00ec 4A       		.byte	74
 3167 00ed 14       		.byte	20
 3168 00ee F6       		.byte	-10
 3169 00ef A8       		.byte	-88
 3170 00f0 74       		.byte	116
 3171 00f1 2A       		.byte	42
 3172 00f2 C8       		.byte	-56
 3173 00f3 96       		.byte	-106
 3174 00f4 15       		.byte	21
 3175 00f5 4B       		.byte	75
ARM GAS  C:\Users\RECEPC~1\AppData\Local\Temp\ccXtGlXn.s 			page 72


 3176 00f6 A9       		.byte	-87
 3177 00f7 F7       		.byte	-9
 3178 00f8 B6       		.byte	-74
 3179 00f9 E8       		.byte	-24
 3180 00fa 0A       		.byte	10
 3181 00fb 54       		.byte	84
 3182 00fc D7       		.byte	-41
 3183 00fd 89       		.byte	-119
 3184 00fe 6B       		.byte	107
 3185 00ff 35       		.byte	53
 3186              		.text
 3187              	.Letext0:
 3188              		.file 2 "c:\\program files (x86)\\cypress\\psoc creator\\3.3\\psoc creator\\import\\gnu\\arm\\4.9.
 3189              		.file 3 "c:\\program files (x86)\\cypress\\psoc creator\\3.3\\psoc creator\\import\\gnu\\arm\\4.9.
 3190              		.file 4 "Generated_Source\\PSoC5/cytypes.h"
 3191              		.file 5 "./variables.h"
 3192              		.file 6 "Generated_Source\\PSoC5/core_cm3.h"
 3193              		.file 7 "Generated_Source\\PSoC5/RF_Connection.h"
 3194              		.file 8 "Generated_Source\\PSoC5/CyLib.h"
 3195              		.file 9 "./protocol.h"
 3196              		.file 10 "./I2C.h"
 3197              		.file 11 "Generated_Source\\PSoC5/EEPROM_1.h"
 3198              		.file 12 "./Print.h"
 3199              		.section	.debug_info,"",%progbits
 3200              	.Ldebug_info0:
 3201 0000 F4100000 		.4byte	0x10f4
 3202 0004 0400     		.2byte	0x4
 3203 0006 00000000 		.4byte	.Ldebug_abbrev0
 3204 000a 04       		.byte	0x4
 3205 000b 01       		.uleb128 0x1
 3206 000c F5070000 		.4byte	.LASF197
 3207 0010 01       		.byte	0x1
 3208 0011 4A040000 		.4byte	.LASF198
 3209 0015 B4080000 		.4byte	.LASF199
 3210 0019 00000000 		.4byte	.Ldebug_ranges0+0
 3211 001d 00000000 		.4byte	0
 3212 0021 00000000 		.4byte	.Ldebug_line0
 3213 0025 02       		.uleb128 0x2
 3214 0026 01       		.byte	0x1
 3215 0027 06       		.byte	0x6
 3216 0028 44090000 		.4byte	.LASF0
 3217 002c 02       		.uleb128 0x2
 3218 002d 01       		.byte	0x1
 3219 002e 08       		.byte	0x8
 3220 002f E7070000 		.4byte	.LASF1
 3221 0033 02       		.uleb128 0x2
 3222 0034 02       		.byte	0x2
 3223 0035 05       		.byte	0x5
 3224 0036 29060000 		.4byte	.LASF2
 3225 003a 02       		.uleb128 0x2
 3226 003b 02       		.byte	0x2
 3227 003c 07       		.byte	0x7
 3228 003d 60090000 		.4byte	.LASF3
 3229 0041 03       		.uleb128 0x3
 3230 0042 EB000000 		.4byte	.LASF9
 3231 0046 02       		.byte	0x2
 3232 0047 3F       		.byte	0x3f
ARM GAS  C:\Users\RECEPC~1\AppData\Local\Temp\ccXtGlXn.s 			page 73


 3233 0048 4C000000 		.4byte	0x4c
 3234 004c 02       		.uleb128 0x2
 3235 004d 04       		.byte	0x4
 3236 004e 05       		.byte	0x5
 3237 004f 33060000 		.4byte	.LASF4
 3238 0053 02       		.uleb128 0x2
 3239 0054 04       		.byte	0x4
 3240 0055 07       		.byte	0x7
 3241 0056 76070000 		.4byte	.LASF5
 3242 005a 02       		.uleb128 0x2
 3243 005b 08       		.byte	0x8
 3244 005c 05       		.byte	0x5
 3245 005d 9E040000 		.4byte	.LASF6
 3246 0061 02       		.uleb128 0x2
 3247 0062 08       		.byte	0x8
 3248 0063 07       		.byte	0x7
 3249 0064 0E020000 		.4byte	.LASF7
 3250 0068 04       		.uleb128 0x4
 3251 0069 04       		.byte	0x4
 3252 006a 05       		.byte	0x5
 3253 006b 696E7400 		.ascii	"int\000"
 3254 006f 02       		.uleb128 0x2
 3255 0070 04       		.byte	0x4
 3256 0071 07       		.byte	0x7
 3257 0072 D2000000 		.4byte	.LASF8
 3258 0076 03       		.uleb128 0x3
 3259 0077 B2070000 		.4byte	.LASF10
 3260 007b 03       		.byte	0x3
 3261 007c 2C       		.byte	0x2c
 3262 007d 41000000 		.4byte	0x41
 3263 0081 05       		.uleb128 0x5
 3264 0082 90090000 		.4byte	.LASF11
 3265 0086 04       		.byte	0x4
 3266 0087 3801     		.2byte	0x138
 3267 0089 2C000000 		.4byte	0x2c
 3268 008d 05       		.uleb128 0x5
 3269 008e F6030000 		.4byte	.LASF12
 3270 0092 04       		.byte	0x4
 3271 0093 3901     		.2byte	0x139
 3272 0095 3A000000 		.4byte	0x3a
 3273 0099 05       		.uleb128 0x5
 3274 009a 4F050000 		.4byte	.LASF13
 3275 009e 04       		.byte	0x4
 3276 009f 3A01     		.2byte	0x13a
 3277 00a1 53000000 		.4byte	0x53
 3278 00a5 02       		.uleb128 0x2
 3279 00a6 04       		.byte	0x4
 3280 00a7 04       		.byte	0x4
 3281 00a8 A6010000 		.4byte	.LASF14
 3282 00ac 02       		.uleb128 0x2
 3283 00ad 08       		.byte	0x8
 3284 00ae 04       		.byte	0x4
 3285 00af 96090000 		.4byte	.LASF15
 3286 00b3 05       		.uleb128 0x5
 3287 00b4 11070000 		.4byte	.LASF16
 3288 00b8 04       		.byte	0x4
 3289 00b9 4401     		.2byte	0x144
ARM GAS  C:\Users\RECEPC~1\AppData\Local\Temp\ccXtGlXn.s 			page 74


 3290 00bb 61000000 		.4byte	0x61
 3291 00bf 05       		.uleb128 0x5
 3292 00c0 18040000 		.4byte	.LASF17
 3293 00c4 04       		.byte	0x4
 3294 00c5 4901     		.2byte	0x149
 3295 00c7 CB000000 		.4byte	0xcb
 3296 00cb 02       		.uleb128 0x2
 3297 00cc 01       		.byte	0x1
 3298 00cd 08       		.byte	0x8
 3299 00ce B5030000 		.4byte	.LASF18
 3300 00d2 05       		.uleb128 0x5
 3301 00d3 CC070000 		.4byte	.LASF19
 3302 00d7 04       		.byte	0x4
 3303 00d8 DA01     		.2byte	0x1da
 3304 00da 53000000 		.4byte	0x53
 3305 00de 06       		.uleb128 0x6
 3306 00df 81000000 		.4byte	0x81
 3307 00e3 06       		.uleb128 0x6
 3308 00e4 99000000 		.4byte	0x99
 3309 00e8 02       		.uleb128 0x2
 3310 00e9 04       		.byte	0x4
 3311 00ea 07       		.byte	0x7
 3312 00eb 6D070000 		.4byte	.LASF20
 3313 00ef 07       		.uleb128 0x7
 3314 00f0 04       		.byte	0x4
 3315 00f1 08       		.uleb128 0x8
 3316 00f2 81000000 		.4byte	0x81
 3317 00f6 01010000 		.4byte	0x101
 3318 00fa 09       		.uleb128 0x9
 3319 00fb E8000000 		.4byte	0xe8
 3320 00ff 03       		.byte	0x3
 3321 0100 00       		.byte	0
 3322 0101 0A       		.uleb128 0xa
 3323 0102 A8000000 		.4byte	.LASF63
 3324 0106 4C01     		.2byte	0x14c
 3325 0108 05       		.byte	0x5
 3326 0109 7B       		.byte	0x7b
 3327 010a 15030000 		.4byte	0x315
 3328 010e 0B       		.uleb128 0xb
 3329 010f 21010000 		.4byte	.LASF21
 3330 0113 05       		.byte	0x5
 3331 0114 7C       		.byte	0x7c
 3332 0115 81000000 		.4byte	0x81
 3333 0119 00       		.byte	0
 3334 011a 0B       		.uleb128 0xb
 3335 011b DE020000 		.4byte	.LASF22
 3336 011f 05       		.byte	0x5
 3337 0120 7D       		.byte	0x7d
 3338 0121 15030000 		.4byte	0x315
 3339 0125 01       		.byte	0x1
 3340 0126 0B       		.uleb128 0xb
 3341 0127 9D090000 		.4byte	.LASF23
 3342 012b 05       		.byte	0x5
 3343 012c 7E       		.byte	0x7e
 3344 012d 81000000 		.4byte	0x81
 3345 0131 1A       		.byte	0x1a
 3346 0132 0B       		.uleb128 0xb
ARM GAS  C:\Users\RECEPC~1\AppData\Local\Temp\ccXtGlXn.s 			page 75


 3347 0133 D5070000 		.4byte	.LASF24
 3348 0137 05       		.byte	0x5
 3349 0138 7F       		.byte	0x7f
 3350 0139 81000000 		.4byte	0x81
 3351 013d 1B       		.byte	0x1b
 3352 013e 0B       		.uleb128 0xb
 3353 013f 3E010000 		.4byte	.LASF25
 3354 0143 05       		.byte	0x5
 3355 0144 80       		.byte	0x80
 3356 0145 25030000 		.4byte	0x325
 3357 0149 1C       		.byte	0x1c
 3358 014a 0B       		.uleb128 0xb
 3359 014b DC050000 		.4byte	.LASF26
 3360 014f 05       		.byte	0x5
 3361 0150 81       		.byte	0x81
 3362 0151 25030000 		.4byte	0x325
 3363 0155 26       		.byte	0x26
 3364 0156 0B       		.uleb128 0xb
 3365 0157 C9090000 		.4byte	.LASF27
 3366 015b 05       		.byte	0x5
 3367 015c 82       		.byte	0x82
 3368 015d 15030000 		.4byte	0x315
 3369 0161 30       		.byte	0x30
 3370 0162 0B       		.uleb128 0xb
 3371 0163 A6050000 		.4byte	.LASF28
 3372 0167 05       		.byte	0x5
 3373 0168 83       		.byte	0x83
 3374 0169 81000000 		.4byte	0x81
 3375 016d 49       		.byte	0x49
 3376 016e 0B       		.uleb128 0xb
 3377 016f 83080000 		.4byte	.LASF29
 3378 0173 05       		.byte	0x5
 3379 0174 84       		.byte	0x84
 3380 0175 81000000 		.4byte	0x81
 3381 0179 4A       		.byte	0x4a
 3382 017a 0B       		.uleb128 0xb
 3383 017b AB030000 		.4byte	.LASF30
 3384 017f 05       		.byte	0x5
 3385 0180 85       		.byte	0x85
 3386 0181 35030000 		.4byte	0x335
 3387 0185 4B       		.byte	0x4b
 3388 0186 0B       		.uleb128 0xb
 3389 0187 24050000 		.4byte	.LASF31
 3390 018b 05       		.byte	0x5
 3391 018c 86       		.byte	0x86
 3392 018d 81000000 		.4byte	0x81
 3393 0191 60       		.byte	0x60
 3394 0192 0B       		.uleb128 0xb
 3395 0193 98030000 		.4byte	.LASF32
 3396 0197 05       		.byte	0x5
 3397 0198 87       		.byte	0x87
 3398 0199 81000000 		.4byte	0x81
 3399 019d 61       		.byte	0x61
 3400 019e 0B       		.uleb128 0xb
 3401 019f C6000000 		.4byte	.LASF33
 3402 01a3 05       		.byte	0x5
 3403 01a4 88       		.byte	0x88
ARM GAS  C:\Users\RECEPC~1\AppData\Local\Temp\ccXtGlXn.s 			page 76


 3404 01a5 81000000 		.4byte	0x81
 3405 01a9 62       		.byte	0x62
 3406 01aa 0B       		.uleb128 0xb
 3407 01ab 0A090000 		.4byte	.LASF34
 3408 01af 05       		.byte	0x5
 3409 01b0 89       		.byte	0x89
 3410 01b1 45030000 		.4byte	0x345
 3411 01b5 63       		.byte	0x63
 3412 01b6 0B       		.uleb128 0xb
 3413 01b7 6F030000 		.4byte	.LASF35
 3414 01bb 05       		.byte	0x5
 3415 01bc 8A       		.byte	0x8a
 3416 01bd 55030000 		.4byte	0x355
 3417 01c1 65       		.byte	0x65
 3418 01c2 0B       		.uleb128 0xb
 3419 01c3 BB020000 		.4byte	.LASF36
 3420 01c7 05       		.byte	0x5
 3421 01c8 8B       		.byte	0x8b
 3422 01c9 81000000 		.4byte	0x81
 3423 01cd 79       		.byte	0x79
 3424 01ce 0B       		.uleb128 0xb
 3425 01cf 34070000 		.4byte	.LASF37
 3426 01d3 05       		.byte	0x5
 3427 01d4 8C       		.byte	0x8c
 3428 01d5 6B030000 		.4byte	0x36b
 3429 01d9 7A       		.byte	0x7a
 3430 01da 0B       		.uleb128 0xb
 3431 01db 8E060000 		.4byte	.LASF38
 3432 01df 05       		.byte	0x5
 3433 01e0 8D       		.byte	0x8d
 3434 01e1 7B030000 		.4byte	0x37b
 3435 01e5 7F       		.byte	0x7f
 3436 01e6 0B       		.uleb128 0xb
 3437 01e7 AC090000 		.4byte	.LASF39
 3438 01eb 05       		.byte	0x5
 3439 01ec 8E       		.byte	0x8e
 3440 01ed 7B030000 		.4byte	0x37b
 3441 01f1 85       		.byte	0x85
 3442 01f2 0B       		.uleb128 0xb
 3443 01f3 BE050000 		.4byte	.LASF40
 3444 01f7 05       		.byte	0x5
 3445 01f8 8F       		.byte	0x8f
 3446 01f9 8B030000 		.4byte	0x38b
 3447 01fd 8B       		.byte	0x8b
 3448 01fe 0B       		.uleb128 0xb
 3449 01ff 3F020000 		.4byte	.LASF41
 3450 0203 05       		.byte	0x5
 3451 0204 90       		.byte	0x90
 3452 0205 8B030000 		.4byte	0x38b
 3453 0209 99       		.byte	0x99
 3454 020a 0B       		.uleb128 0xb
 3455 020b F4040000 		.4byte	.LASF42
 3456 020f 05       		.byte	0x5
 3457 0210 91       		.byte	0x91
 3458 0211 8B030000 		.4byte	0x38b
 3459 0215 A7       		.byte	0xa7
 3460 0216 0B       		.uleb128 0xb
ARM GAS  C:\Users\RECEPC~1\AppData\Local\Temp\ccXtGlXn.s 			page 77


 3461 0217 3A040000 		.4byte	.LASF43
 3462 021b 05       		.byte	0x5
 3463 021c 92       		.byte	0x92
 3464 021d 8B030000 		.4byte	0x38b
 3465 0221 B5       		.byte	0xb5
 3466 0222 0B       		.uleb128 0xb
 3467 0223 F7060000 		.4byte	.LASF44
 3468 0227 05       		.byte	0x5
 3469 0228 93       		.byte	0x93
 3470 0229 8B030000 		.4byte	0x38b
 3471 022d C3       		.byte	0xc3
 3472 022e 0B       		.uleb128 0xb
 3473 022f 8C050000 		.4byte	.LASF45
 3474 0233 05       		.byte	0x5
 3475 0234 94       		.byte	0x94
 3476 0235 8B030000 		.4byte	0x38b
 3477 0239 D1       		.byte	0xd1
 3478 023a 0B       		.uleb128 0xb
 3479 023b 10060000 		.4byte	.LASF46
 3480 023f 05       		.byte	0x5
 3481 0240 95       		.byte	0x95
 3482 0241 9B030000 		.4byte	0x39b
 3483 0245 DF       		.byte	0xdf
 3484 0246 0B       		.uleb128 0xb
 3485 0247 05030000 		.4byte	.LASF47
 3486 024b 05       		.byte	0x5
 3487 024c 96       		.byte	0x96
 3488 024d 9B030000 		.4byte	0x39b
 3489 0251 EA       		.byte	0xea
 3490 0252 0B       		.uleb128 0xb
 3491 0253 8D030000 		.4byte	.LASF48
 3492 0257 05       		.byte	0x5
 3493 0258 97       		.byte	0x97
 3494 0259 9B030000 		.4byte	0x39b
 3495 025d F5       		.byte	0xf5
 3496 025e 0C       		.uleb128 0xc
 3497 025f 3D050000 		.4byte	.LASF49
 3498 0263 05       		.byte	0x5
 3499 0264 98       		.byte	0x98
 3500 0265 81000000 		.4byte	0x81
 3501 0269 0001     		.2byte	0x100
 3502 026b 0C       		.uleb128 0xc
 3503 026c 0C040000 		.4byte	.LASF50
 3504 0270 05       		.byte	0x5
 3505 0271 99       		.byte	0x99
 3506 0272 81000000 		.4byte	0x81
 3507 0276 0101     		.2byte	0x101
 3508 0278 0C       		.uleb128 0xc
 3509 0279 F5000000 		.4byte	.LASF51
 3510 027d 05       		.byte	0x5
 3511 027e 9A       		.byte	0x9a
 3512 027f 81000000 		.4byte	0x81
 3513 0283 0201     		.2byte	0x102
 3514 0285 0C       		.uleb128 0xc
 3515 0286 78060000 		.4byte	.LASF52
 3516 028a 05       		.byte	0x5
 3517 028b 9B       		.byte	0x9b
ARM GAS  C:\Users\RECEPC~1\AppData\Local\Temp\ccXtGlXn.s 			page 78


 3518 028c 81000000 		.4byte	0x81
 3519 0290 0301     		.2byte	0x103
 3520 0292 0C       		.uleb128 0xc
 3521 0293 55040000 		.4byte	.LASF53
 3522 0297 05       		.byte	0x5
 3523 0298 9C       		.byte	0x9c
 3524 0299 25030000 		.4byte	0x325
 3525 029d 0401     		.2byte	0x104
 3526 029f 0C       		.uleb128 0xc
 3527 02a0 92000000 		.4byte	.LASF54
 3528 02a4 05       		.byte	0x5
 3529 02a5 9D       		.byte	0x9d
 3530 02a6 25030000 		.4byte	0x325
 3531 02aa 0E01     		.2byte	0x10e
 3532 02ac 0C       		.uleb128 0xc
 3533 02ad 2B040000 		.4byte	.LASF55
 3534 02b1 05       		.byte	0x5
 3535 02b2 9E       		.byte	0x9e
 3536 02b3 25030000 		.4byte	0x325
 3537 02b7 1801     		.2byte	0x118
 3538 02b9 0C       		.uleb128 0xc
 3539 02ba 1C060000 		.4byte	.LASF56
 3540 02be 05       		.byte	0x5
 3541 02bf 9F       		.byte	0x9f
 3542 02c0 AB030000 		.4byte	0x3ab
 3543 02c4 2201     		.2byte	0x122
 3544 02c6 0C       		.uleb128 0xc
 3545 02c7 60040000 		.4byte	.LASF57
 3546 02cb 05       		.byte	0x5
 3547 02cc A0       		.byte	0xa0
 3548 02cd 45030000 		.4byte	0x345
 3549 02d1 3101     		.2byte	0x131
 3550 02d3 0C       		.uleb128 0xc
 3551 02d4 11030000 		.4byte	.LASF58
 3552 02d8 05       		.byte	0x5
 3553 02d9 A1       		.byte	0xa1
 3554 02da 81000000 		.4byte	0x81
 3555 02de 3301     		.2byte	0x133
 3556 02e0 0C       		.uleb128 0xc
 3557 02e1 A8070000 		.4byte	.LASF59
 3558 02e5 05       		.byte	0x5
 3559 02e6 A2       		.byte	0xa2
 3560 02e7 81000000 		.4byte	0x81
 3561 02eb 3401     		.2byte	0x134
 3562 02ed 0C       		.uleb128 0xc
 3563 02ee 1F030000 		.4byte	.LASF60
 3564 02f2 05       		.byte	0x5
 3565 02f3 A3       		.byte	0xa3
 3566 02f4 81000000 		.4byte	0x81
 3567 02f8 3501     		.2byte	0x135
 3568 02fa 0C       		.uleb128 0xc
 3569 02fb 63060000 		.4byte	.LASF61
 3570 02ff 05       		.byte	0x5
 3571 0300 A4       		.byte	0xa4
 3572 0301 9B030000 		.4byte	0x39b
 3573 0305 3601     		.2byte	0x136
 3574 0307 0C       		.uleb128 0xc
ARM GAS  C:\Users\RECEPC~1\AppData\Local\Temp\ccXtGlXn.s 			page 79


 3575 0308 36090000 		.4byte	.LASF62
 3576 030c 05       		.byte	0x5
 3577 030d A5       		.byte	0xa5
 3578 030e 9B030000 		.4byte	0x39b
 3579 0312 4101     		.2byte	0x141
 3580 0314 00       		.byte	0
 3581 0315 08       		.uleb128 0x8
 3582 0316 81000000 		.4byte	0x81
 3583 031a 25030000 		.4byte	0x325
 3584 031e 09       		.uleb128 0x9
 3585 031f E8000000 		.4byte	0xe8
 3586 0323 18       		.byte	0x18
 3587 0324 00       		.byte	0
 3588 0325 08       		.uleb128 0x8
 3589 0326 81000000 		.4byte	0x81
 3590 032a 35030000 		.4byte	0x335
 3591 032e 09       		.uleb128 0x9
 3592 032f E8000000 		.4byte	0xe8
 3593 0333 09       		.byte	0x9
 3594 0334 00       		.byte	0
 3595 0335 08       		.uleb128 0x8
 3596 0336 81000000 		.4byte	0x81
 3597 033a 45030000 		.4byte	0x345
 3598 033e 09       		.uleb128 0x9
 3599 033f E8000000 		.4byte	0xe8
 3600 0343 14       		.byte	0x14
 3601 0344 00       		.byte	0
 3602 0345 08       		.uleb128 0x8
 3603 0346 81000000 		.4byte	0x81
 3604 034a 55030000 		.4byte	0x355
 3605 034e 09       		.uleb128 0x9
 3606 034f E8000000 		.4byte	0xe8
 3607 0353 01       		.byte	0x1
 3608 0354 00       		.byte	0
 3609 0355 08       		.uleb128 0x8
 3610 0356 81000000 		.4byte	0x81
 3611 035a 6B030000 		.4byte	0x36b
 3612 035e 09       		.uleb128 0x9
 3613 035f E8000000 		.4byte	0xe8
 3614 0363 01       		.byte	0x1
 3615 0364 09       		.uleb128 0x9
 3616 0365 E8000000 		.4byte	0xe8
 3617 0369 09       		.byte	0x9
 3618 036a 00       		.byte	0
 3619 036b 08       		.uleb128 0x8
 3620 036c 81000000 		.4byte	0x81
 3621 0370 7B030000 		.4byte	0x37b
 3622 0374 09       		.uleb128 0x9
 3623 0375 E8000000 		.4byte	0xe8
 3624 0379 04       		.byte	0x4
 3625 037a 00       		.byte	0
 3626 037b 08       		.uleb128 0x8
 3627 037c 81000000 		.4byte	0x81
 3628 0380 8B030000 		.4byte	0x38b
 3629 0384 09       		.uleb128 0x9
 3630 0385 E8000000 		.4byte	0xe8
 3631 0389 05       		.byte	0x5
ARM GAS  C:\Users\RECEPC~1\AppData\Local\Temp\ccXtGlXn.s 			page 80


 3632 038a 00       		.byte	0
 3633 038b 08       		.uleb128 0x8
 3634 038c 81000000 		.4byte	0x81
 3635 0390 9B030000 		.4byte	0x39b
 3636 0394 09       		.uleb128 0x9
 3637 0395 E8000000 		.4byte	0xe8
 3638 0399 0D       		.byte	0xd
 3639 039a 00       		.byte	0
 3640 039b 08       		.uleb128 0x8
 3641 039c 81000000 		.4byte	0x81
 3642 03a0 AB030000 		.4byte	0x3ab
 3643 03a4 09       		.uleb128 0x9
 3644 03a5 E8000000 		.4byte	0xe8
 3645 03a9 0A       		.byte	0xa
 3646 03aa 00       		.byte	0
 3647 03ab 08       		.uleb128 0x8
 3648 03ac 81000000 		.4byte	0x81
 3649 03b0 BB030000 		.4byte	0x3bb
 3650 03b4 09       		.uleb128 0x9
 3651 03b5 E8000000 		.4byte	0xe8
 3652 03b9 0E       		.byte	0xe
 3653 03ba 00       		.byte	0
 3654 03bb 0A       		.uleb128 0xa
 3655 03bc DC090000 		.4byte	.LASF64
 3656 03c0 0801     		.2byte	0x108
 3657 03c2 05       		.byte	0x5
 3658 03c3 B6       		.byte	0xb6
 3659 03c4 85040000 		.4byte	0x485
 3660 03c8 0D       		.uleb128 0xd
 3661 03c9 64697200 		.ascii	"dir\000"
 3662 03cd 05       		.byte	0x5
 3663 03ce B7       		.byte	0xb7
 3664 03cf 81000000 		.4byte	0x81
 3665 03d3 00       		.byte	0
 3666 03d4 0B       		.uleb128 0xb
 3667 03d5 62030000 		.4byte	.LASF65
 3668 03d9 05       		.byte	0x5
 3669 03da B8       		.byte	0xb8
 3670 03db 85040000 		.4byte	0x485
 3671 03df 01       		.byte	0x1
 3672 03e0 0B       		.uleb128 0xb
 3673 03e1 BB090000 		.4byte	.LASF66
 3674 03e5 05       		.byte	0x5
 3675 03e6 B9       		.byte	0xb9
 3676 03e7 A1040000 		.4byte	0x4a1
 3677 03eb B5       		.byte	0xb5
 3678 03ec 0B       		.uleb128 0xb
 3679 03ed 94040000 		.4byte	.LASF67
 3680 03f1 05       		.byte	0x5
 3681 03f2 BA       		.byte	0xba
 3682 03f3 8B030000 		.4byte	0x38b
 3683 03f7 D5       		.byte	0xd5
 3684 03f8 0B       		.uleb128 0xb
 3685 03f9 1E090000 		.4byte	.LASF68
 3686 03fd 05       		.byte	0x5
 3687 03fe BB       		.byte	0xbb
 3688 03ff 8B030000 		.4byte	0x38b
ARM GAS  C:\Users\RECEPC~1\AppData\Local\Temp\ccXtGlXn.s 			page 81


 3689 0403 E3       		.byte	0xe3
 3690 0404 0B       		.uleb128 0xb
 3691 0405 BF040000 		.4byte	.LASF69
 3692 0409 05       		.byte	0x5
 3693 040a BC       		.byte	0xbc
 3694 040b 8B030000 		.4byte	0x38b
 3695 040f F1       		.byte	0xf1
 3696 0410 0B       		.uleb128 0xb
 3697 0411 84090000 		.4byte	.LASF70
 3698 0415 05       		.byte	0x5
 3699 0416 BD       		.byte	0xbd
 3700 0417 81000000 		.4byte	0x81
 3701 041b FF       		.byte	0xff
 3702 041c 0C       		.uleb128 0xc
 3703 041d 9D070000 		.4byte	.LASF71
 3704 0421 05       		.byte	0x5
 3705 0422 BE       		.byte	0xbe
 3706 0423 81000000 		.4byte	0x81
 3707 0427 0001     		.2byte	0x100
 3708 0429 0C       		.uleb128 0xc
 3709 042a F1010000 		.4byte	.LASF72
 3710 042e 05       		.byte	0x5
 3711 042f BF       		.byte	0xbf
 3712 0430 81000000 		.4byte	0x81
 3713 0434 0101     		.2byte	0x101
 3714 0436 0C       		.uleb128 0xc
 3715 0437 9D060000 		.4byte	.LASF73
 3716 043b 05       		.byte	0x5
 3717 043c C0       		.byte	0xc0
 3718 043d 81000000 		.4byte	0x81
 3719 0441 0201     		.2byte	0x102
 3720 0443 0C       		.uleb128 0xc
 3721 0444 F5090000 		.4byte	.LASF74
 3722 0448 05       		.byte	0x5
 3723 0449 C1       		.byte	0xc1
 3724 044a 81000000 		.4byte	0x81
 3725 044e 0301     		.2byte	0x103
 3726 0450 0C       		.uleb128 0xc
 3727 0451 02040000 		.4byte	.LASF75
 3728 0455 05       		.byte	0x5
 3729 0456 C2       		.byte	0xc2
 3730 0457 81000000 		.4byte	0x81
 3731 045b 0401     		.2byte	0x104
 3732 045d 0C       		.uleb128 0xc
 3733 045e 5E010000 		.4byte	.LASF76
 3734 0462 05       		.byte	0x5
 3735 0463 C3       		.byte	0xc3
 3736 0464 81000000 		.4byte	0x81
 3737 0468 0501     		.2byte	0x105
 3738 046a 0C       		.uleb128 0xc
 3739 046b A6090000 		.4byte	.LASF77
 3740 046f 05       		.byte	0x5
 3741 0470 C4       		.byte	0xc4
 3742 0471 81000000 		.4byte	0x81
 3743 0475 0601     		.2byte	0x106
 3744 0477 0C       		.uleb128 0xc
 3745 0478 84000000 		.4byte	.LASF78
ARM GAS  C:\Users\RECEPC~1\AppData\Local\Temp\ccXtGlXn.s 			page 82


 3746 047c 05       		.byte	0x5
 3747 047d C5       		.byte	0xc5
 3748 047e 81000000 		.4byte	0x81
 3749 0482 0701     		.2byte	0x107
 3750 0484 00       		.byte	0
 3751 0485 08       		.uleb128 0x8
 3752 0486 81000000 		.4byte	0x81
 3753 048a A1040000 		.4byte	0x4a1
 3754 048e 09       		.uleb128 0x9
 3755 048f E8000000 		.4byte	0xe8
 3756 0493 03       		.byte	0x3
 3757 0494 09       		.uleb128 0x9
 3758 0495 E8000000 		.4byte	0xe8
 3759 0499 02       		.byte	0x2
 3760 049a 09       		.uleb128 0x9
 3761 049b E8000000 		.4byte	0xe8
 3762 049f 0E       		.byte	0xe
 3763 04a0 00       		.byte	0
 3764 04a1 08       		.uleb128 0x8
 3765 04a2 81000000 		.4byte	0x81
 3766 04a6 B7040000 		.4byte	0x4b7
 3767 04aa 09       		.uleb128 0x9
 3768 04ab E8000000 		.4byte	0xe8
 3769 04af 03       		.byte	0x3
 3770 04b0 09       		.uleb128 0x9
 3771 04b1 E8000000 		.4byte	0xe8
 3772 04b5 07       		.byte	0x7
 3773 04b6 00       		.byte	0
 3774 04b7 0A       		.uleb128 0xa
 3775 04b8 A5080000 		.4byte	.LASF79
 3776 04bc 2004     		.2byte	0x420
 3777 04be 05       		.byte	0x5
 3778 04bf C8       		.byte	0xc8
 3779 04c0 F0040000 		.4byte	0x4f0
 3780 04c4 0D       		.uleb128 0xd
 3781 04c5 6100     		.ascii	"a\000"
 3782 04c7 05       		.byte	0x5
 3783 04c8 C9       		.byte	0xc9
 3784 04c9 BB030000 		.4byte	0x3bb
 3785 04cd 00       		.byte	0
 3786 04ce 0E       		.uleb128 0xe
 3787 04cf 6200     		.ascii	"b\000"
 3788 04d1 05       		.byte	0x5
 3789 04d2 CA       		.byte	0xca
 3790 04d3 BB030000 		.4byte	0x3bb
 3791 04d7 0801     		.2byte	0x108
 3792 04d9 0E       		.uleb128 0xe
 3793 04da 6300     		.ascii	"c\000"
 3794 04dc 05       		.byte	0x5
 3795 04dd CB       		.byte	0xcb
 3796 04de BB030000 		.4byte	0x3bb
 3797 04e2 1002     		.2byte	0x210
 3798 04e4 0E       		.uleb128 0xe
 3799 04e5 6400     		.ascii	"d\000"
 3800 04e7 05       		.byte	0x5
 3801 04e8 CC       		.byte	0xcc
 3802 04e9 BB030000 		.4byte	0x3bb
ARM GAS  C:\Users\RECEPC~1\AppData\Local\Temp\ccXtGlXn.s 			page 83


 3803 04ed 1803     		.2byte	0x318
 3804 04ef 00       		.byte	0
 3805 04f0 0F       		.uleb128 0xf
 3806 04f1 74020000 		.4byte	.LASF88
 3807 04f5 01       		.byte	0x1
 3808 04f6 05       		.byte	0x5
 3809 04f7 2D01     		.2byte	0x12d
 3810 04f9 2E050000 		.4byte	0x52e
 3811 04fd 10       		.uleb128 0x10
 3812 04fe 04010000 		.4byte	.LASF80
 3813 0502 00       		.sleb128 0
 3814 0503 10       		.uleb128 0x10
 3815 0504 9C010000 		.4byte	.LASF81
 3816 0508 06       		.sleb128 6
 3817 0509 10       		.uleb128 0x10
 3818 050a 30050000 		.4byte	.LASF82
 3819 050e 07       		.sleb128 7
 3820 050f 10       		.uleb128 0x10
 3821 0510 56050000 		.4byte	.LASF83
 3822 0514 08       		.sleb128 8
 3823 0515 10       		.uleb128 0x10
 3824 0516 A1030000 		.4byte	.LASF84
 3825 051a 09       		.sleb128 9
 3826 051b 10       		.uleb128 0x10
 3827 051c AA080000 		.4byte	.LASF85
 3828 0520 0A       		.sleb128 10
 3829 0521 10       		.uleb128 0x10
 3830 0522 35020000 		.4byte	.LASF86
 3831 0526 0B       		.sleb128 11
 3832 0527 10       		.uleb128 0x10
 3833 0528 CB030000 		.4byte	.LASF87
 3834 052c 0C       		.sleb128 12
 3835 052d 00       		.byte	0
 3836 052e 0F       		.uleb128 0xf
 3837 052f F9020000 		.4byte	.LASF89
 3838 0533 01       		.byte	0x1
 3839 0534 05       		.byte	0x5
 3840 0535 3901     		.2byte	0x139
 3841 0537 72050000 		.4byte	0x572
 3842 053b 10       		.uleb128 0x10
 3843 053c 84050000 		.4byte	.LASF90
 3844 0540 08       		.sleb128 8
 3845 0541 10       		.uleb128 0x10
 3846 0542 88070000 		.4byte	.LASF91
 3847 0546 01       		.sleb128 1
 3848 0547 10       		.uleb128 0x10
 3849 0548 BA070000 		.4byte	.LASF92
 3850 054c 02       		.sleb128 2
 3851 054d 10       		.uleb128 0x10
 3852 054e 72040000 		.4byte	.LASF93
 3853 0552 03       		.sleb128 3
 3854 0553 10       		.uleb128 0x10
 3855 0554 25020000 		.4byte	.LASF94
 3856 0558 05       		.sleb128 5
 3857 0559 10       		.uleb128 0x10
 3858 055a B7060000 		.4byte	.LASF95
 3859 055e 06       		.sleb128 6
ARM GAS  C:\Users\RECEPC~1\AppData\Local\Temp\ccXtGlXn.s 			page 84


 3860 055f 10       		.uleb128 0x10
 3861 0560 15090000 		.4byte	.LASF96
 3862 0564 04       		.sleb128 4
 3863 0565 10       		.uleb128 0x10
 3864 0566 95080000 		.4byte	.LASF97
 3865 056a 0B       		.sleb128 11
 3866 056b 10       		.uleb128 0x10
 3867 056c 1E040000 		.4byte	.LASF98
 3868 0570 0C       		.sleb128 12
 3869 0571 00       		.byte	0
 3870 0572 11       		.uleb128 0x11
 3871 0573 04       		.byte	0x4
 3872 0574 78050000 		.4byte	0x578
 3873 0578 12       		.uleb128 0x12
 3874 0579 13       		.uleb128 0x13
 3875 057a 84040000 		.4byte	.LASF200
 3876 057e 01       		.byte	0x1
 3877 057f 17       		.byte	0x17
 3878 0580 81000000 		.4byte	0x81
 3879 0584 00000000 		.4byte	.LFB63
 3880 0588 34000000 		.4byte	.LFE63-.LFB63
 3881 058c 01       		.uleb128 0x1
 3882 058d 9C       		.byte	0x9c
 3883 058e 0B060000 		.4byte	0x60b
 3884 0592 14       		.uleb128 0x14
 3885 0593 34040000 		.4byte	.LASF99
 3886 0597 01       		.byte	0x1
 3887 0598 17       		.byte	0x17
 3888 0599 0B060000 		.4byte	0x60b
 3889 059d 00000000 		.4byte	.LLST0
 3890 05a1 14       		.uleb128 0x14
 3891 05a2 4A050000 		.4byte	.LASF100
 3892 05a6 01       		.byte	0x1
 3893 05a7 17       		.byte	0x17
 3894 05a8 8D000000 		.4byte	0x8d
 3895 05ac 2C000000 		.4byte	.LLST1
 3896 05b0 15       		.uleb128 0x15
 3897 05b1 AC010000 		.4byte	.LASF101
 3898 05b5 01       		.byte	0x1
 3899 05b6 18       		.byte	0x18
 3900 05b7 81000000 		.4byte	0x81
 3901 05bb 4D000000 		.4byte	.LLST2
 3902 05bf 15       		.uleb128 0x15
 3903 05c0 BC010000 		.4byte	.LASF102
 3904 05c4 01       		.byte	0x1
 3905 05c5 18       		.byte	0x18
 3906 05c6 81000000 		.4byte	0x81
 3907 05ca 77000000 		.4byte	.LLST3
 3908 05ce 16       		.uleb128 0x16
 3909 05cf 6900     		.ascii	"i\000"
 3910 05d1 01       		.byte	0x1
 3911 05d2 19       		.byte	0x19
 3912 05d3 8D000000 		.4byte	0x8d
 3913 05d7 8A000000 		.4byte	.LLST4
 3914 05db 17       		.uleb128 0x17
 3915 05dc F0030000 		.4byte	.LASF103
 3916 05e0 01       		.byte	0x1
ARM GAS  C:\Users\RECEPC~1\AppData\Local\Temp\ccXtGlXn.s 			page 85


 3917 05e1 1A       		.byte	0x1a
 3918 05e2 11060000 		.4byte	0x611
 3919 05e6 03       		.uleb128 0x3
 3920 05e7 91       		.byte	0x91
 3921 05e8 F07D     		.sleb128 -272
 3922 05ea 18       		.uleb128 0x18
 3923 05eb 14000000 		.4byte	.LVL3
 3924 05ef 0C100000 		.4byte	0x100c
 3925 05f3 19       		.uleb128 0x19
 3926 05f4 01       		.uleb128 0x1
 3927 05f5 52       		.byte	0x52
 3928 05f6 03       		.uleb128 0x3
 3929 05f7 0A       		.byte	0xa
 3930 05f8 0001     		.2byte	0x100
 3931 05fa 19       		.uleb128 0x19
 3932 05fb 01       		.uleb128 0x1
 3933 05fc 51       		.byte	0x51
 3934 05fd 05       		.uleb128 0x5
 3935 05fe 03       		.byte	0x3
 3936 05ff 00000000 		.4byte	.LANCHOR0
 3937 0603 19       		.uleb128 0x19
 3938 0604 01       		.uleb128 0x1
 3939 0605 50       		.byte	0x50
 3940 0606 02       		.uleb128 0x2
 3941 0607 7D       		.byte	0x7d
 3942 0608 00       		.sleb128 0
 3943 0609 00       		.byte	0
 3944 060a 00       		.byte	0
 3945 060b 11       		.uleb128 0x11
 3946 060c 04       		.byte	0x4
 3947 060d 81000000 		.4byte	0x81
 3948 0611 08       		.uleb128 0x8
 3949 0612 81000000 		.4byte	0x81
 3950 0616 21060000 		.4byte	0x621
 3951 061a 09       		.uleb128 0x9
 3952 061b E8000000 		.4byte	0xe8
 3953 061f FF       		.byte	0xff
 3954 0620 00       		.byte	0
 3955 0621 1A       		.uleb128 0x1a
 3956 0622 67020000 		.4byte	.LASF104
 3957 0626 01       		.byte	0x1
 3958 0627 3601     		.2byte	0x136
 3959 0629 00000000 		.4byte	.LFB65
 3960 062d 9C070000 		.4byte	.LFE65-.LFB65
 3961 0631 01       		.uleb128 0x1
 3962 0632 9C       		.byte	0x9c
 3963 0633 25080000 		.4byte	0x825
 3964 0637 1B       		.uleb128 0x1b
 3965 0638 7800     		.ascii	"x\000"
 3966 063a 01       		.byte	0x1
 3967 063b 3801     		.2byte	0x138
 3968 063d 8D000000 		.4byte	0x8d
 3969 0641 B4000000 		.4byte	.LLST5
 3970 0645 1C       		.uleb128 0x1c
 3971 0646 2E000000 		.4byte	.LVL10
 3972 064a 79050000 		.4byte	0x579
 3973 064e 5E060000 		.4byte	0x65e
ARM GAS  C:\Users\RECEPC~1\AppData\Local\Temp\ccXtGlXn.s 			page 86


 3974 0652 19       		.uleb128 0x19
 3975 0653 01       		.uleb128 0x1
 3976 0654 51       		.byte	0x51
 3977 0655 01       		.uleb128 0x1
 3978 0656 39       		.byte	0x39
 3979 0657 19       		.uleb128 0x19
 3980 0658 01       		.uleb128 0x1
 3981 0659 50       		.byte	0x50
 3982 065a 02       		.uleb128 0x2
 3983 065b 74       		.byte	0x74
 3984 065c 00       		.sleb128 0
 3985 065d 00       		.byte	0
 3986 065e 1D       		.uleb128 0x1d
 3987 065f 3C000000 		.4byte	.LVL13
 3988 0663 29100000 		.4byte	0x1029
 3989 0667 1C       		.uleb128 0x1c
 3990 0668 72000000 		.4byte	.LVL17
 3991 066c 79050000 		.4byte	0x579
 3992 0670 80060000 		.4byte	0x680
 3993 0674 19       		.uleb128 0x19
 3994 0675 01       		.uleb128 0x1
 3995 0676 51       		.byte	0x51
 3996 0677 01       		.uleb128 0x1
 3997 0678 39       		.byte	0x39
 3998 0679 19       		.uleb128 0x19
 3999 067a 01       		.uleb128 0x1
 4000 067b 50       		.byte	0x50
 4001 067c 02       		.uleb128 0x2
 4002 067d 74       		.byte	0x74
 4003 067e 00       		.sleb128 0
 4004 067f 00       		.byte	0
 4005 0680 1D       		.uleb128 0x1d
 4006 0681 80000000 		.4byte	.LVL20
 4007 0685 29100000 		.4byte	0x1029
 4008 0689 1C       		.uleb128 0x1c
 4009 068a B6000000 		.4byte	.LVL24
 4010 068e 79050000 		.4byte	0x579
 4011 0692 A2060000 		.4byte	0x6a2
 4012 0696 19       		.uleb128 0x19
 4013 0697 01       		.uleb128 0x1
 4014 0698 51       		.byte	0x51
 4015 0699 01       		.uleb128 0x1
 4016 069a 39       		.byte	0x39
 4017 069b 19       		.uleb128 0x19
 4018 069c 01       		.uleb128 0x1
 4019 069d 50       		.byte	0x50
 4020 069e 02       		.uleb128 0x2
 4021 069f 74       		.byte	0x74
 4022 06a0 00       		.sleb128 0
 4023 06a1 00       		.byte	0
 4024 06a2 1D       		.uleb128 0x1d
 4025 06a3 C4000000 		.4byte	.LVL27
 4026 06a7 29100000 		.4byte	0x1029
 4027 06ab 1C       		.uleb128 0x1c
 4028 06ac FA000000 		.4byte	.LVL31
 4029 06b0 79050000 		.4byte	0x579
 4030 06b4 C4060000 		.4byte	0x6c4
ARM GAS  C:\Users\RECEPC~1\AppData\Local\Temp\ccXtGlXn.s 			page 87


 4031 06b8 19       		.uleb128 0x19
 4032 06b9 01       		.uleb128 0x1
 4033 06ba 51       		.byte	0x51
 4034 06bb 01       		.uleb128 0x1
 4035 06bc 39       		.byte	0x39
 4036 06bd 19       		.uleb128 0x19
 4037 06be 01       		.uleb128 0x1
 4038 06bf 50       		.byte	0x50
 4039 06c0 02       		.uleb128 0x2
 4040 06c1 74       		.byte	0x74
 4041 06c2 00       		.sleb128 0
 4042 06c3 00       		.byte	0
 4043 06c4 1D       		.uleb128 0x1d
 4044 06c5 08010000 		.4byte	.LVL34
 4045 06c9 29100000 		.4byte	0x1029
 4046 06cd 1C       		.uleb128 0x1c
 4047 06ce F2010000 		.4byte	.LVL55
 4048 06d2 79050000 		.4byte	0x579
 4049 06d6 E7060000 		.4byte	0x6e7
 4050 06da 19       		.uleb128 0x19
 4051 06db 01       		.uleb128 0x1
 4052 06dc 51       		.byte	0x51
 4053 06dd 02       		.uleb128 0x2
 4054 06de 08       		.byte	0x8
 4055 06df 27       		.byte	0x27
 4056 06e0 19       		.uleb128 0x19
 4057 06e1 01       		.uleb128 0x1
 4058 06e2 50       		.byte	0x50
 4059 06e3 02       		.uleb128 0x2
 4060 06e4 75       		.byte	0x75
 4061 06e5 00       		.sleb128 0
 4062 06e6 00       		.byte	0
 4063 06e7 1C       		.uleb128 0x1c
 4064 06e8 FC010000 		.4byte	.LVL56
 4065 06ec 3A100000 		.4byte	0x103a
 4066 06f0 FA060000 		.4byte	0x6fa
 4067 06f4 19       		.uleb128 0x19
 4068 06f5 01       		.uleb128 0x1
 4069 06f6 50       		.byte	0x50
 4070 06f7 01       		.uleb128 0x1
 4071 06f8 3A       		.byte	0x3a
 4072 06f9 00       		.byte	0
 4073 06fa 1D       		.uleb128 0x1d
 4074 06fb 06020000 		.4byte	.LVL58
 4075 06ff 29100000 		.4byte	0x1029
 4076 0703 1C       		.uleb128 0x1c
 4077 0704 14020000 		.4byte	.LVL61
 4078 0708 3A100000 		.4byte	0x103a
 4079 070c 16070000 		.4byte	0x716
 4080 0710 19       		.uleb128 0x19
 4081 0711 01       		.uleb128 0x1
 4082 0712 50       		.byte	0x50
 4083 0713 01       		.uleb128 0x1
 4084 0714 3A       		.byte	0x3a
 4085 0715 00       		.byte	0
 4086 0716 1C       		.uleb128 0x1c
 4087 0717 1E030000 		.4byte	.LVL80
ARM GAS  C:\Users\RECEPC~1\AppData\Local\Temp\ccXtGlXn.s 			page 88


 4088 071b 79050000 		.4byte	0x579
 4089 071f 30070000 		.4byte	0x730
 4090 0723 19       		.uleb128 0x19
 4091 0724 01       		.uleb128 0x1
 4092 0725 51       		.byte	0x51
 4093 0726 02       		.uleb128 0x2
 4094 0727 08       		.byte	0x8
 4095 0728 27       		.byte	0x27
 4096 0729 19       		.uleb128 0x19
 4097 072a 01       		.uleb128 0x1
 4098 072b 50       		.byte	0x50
 4099 072c 02       		.uleb128 0x2
 4100 072d 75       		.byte	0x75
 4101 072e 00       		.sleb128 0
 4102 072f 00       		.byte	0
 4103 0730 1C       		.uleb128 0x1c
 4104 0731 28030000 		.4byte	.LVL81
 4105 0735 3A100000 		.4byte	0x103a
 4106 0739 43070000 		.4byte	0x743
 4107 073d 19       		.uleb128 0x19
 4108 073e 01       		.uleb128 0x1
 4109 073f 50       		.byte	0x50
 4110 0740 01       		.uleb128 0x1
 4111 0741 3A       		.byte	0x3a
 4112 0742 00       		.byte	0
 4113 0743 1D       		.uleb128 0x1d
 4114 0744 32030000 		.4byte	.LVL83
 4115 0748 29100000 		.4byte	0x1029
 4116 074c 1C       		.uleb128 0x1c
 4117 074d 40030000 		.4byte	.LVL86
 4118 0751 3A100000 		.4byte	0x103a
 4119 0755 5F070000 		.4byte	0x75f
 4120 0759 19       		.uleb128 0x19
 4121 075a 01       		.uleb128 0x1
 4122 075b 50       		.byte	0x50
 4123 075c 01       		.uleb128 0x1
 4124 075d 3A       		.byte	0x3a
 4125 075e 00       		.byte	0
 4126 075f 1C       		.uleb128 0x1c
 4127 0760 8A040000 		.4byte	.LVL111
 4128 0764 79050000 		.4byte	0x579
 4129 0768 78070000 		.4byte	0x778
 4130 076c 19       		.uleb128 0x19
 4131 076d 01       		.uleb128 0x1
 4132 076e 51       		.byte	0x51
 4133 076f 01       		.uleb128 0x1
 4134 0770 4F       		.byte	0x4f
 4135 0771 19       		.uleb128 0x19
 4136 0772 01       		.uleb128 0x1
 4137 0773 50       		.byte	0x50
 4138 0774 02       		.uleb128 0x2
 4139 0775 75       		.byte	0x75
 4140 0776 00       		.sleb128 0
 4141 0777 00       		.byte	0
 4142 0778 1C       		.uleb128 0x1c
 4143 0779 92040000 		.4byte	.LVL112
 4144 077d 3A100000 		.4byte	0x103a
ARM GAS  C:\Users\RECEPC~1\AppData\Local\Temp\ccXtGlXn.s 			page 89


 4145 0781 8B070000 		.4byte	0x78b
 4146 0785 19       		.uleb128 0x19
 4147 0786 01       		.uleb128 0x1
 4148 0787 50       		.byte	0x50
 4149 0788 01       		.uleb128 0x1
 4150 0789 3A       		.byte	0x3a
 4151 078a 00       		.byte	0
 4152 078b 1D       		.uleb128 0x1d
 4153 078c 9C040000 		.4byte	.LVL114
 4154 0790 29100000 		.4byte	0x1029
 4155 0794 1C       		.uleb128 0x1c
 4156 0795 AA040000 		.4byte	.LVL117
 4157 0799 3A100000 		.4byte	0x103a
 4158 079d A7070000 		.4byte	0x7a7
 4159 07a1 19       		.uleb128 0x19
 4160 07a2 01       		.uleb128 0x1
 4161 07a3 50       		.byte	0x50
 4162 07a4 01       		.uleb128 0x1
 4163 07a5 3A       		.byte	0x3a
 4164 07a6 00       		.byte	0
 4165 07a7 1C       		.uleb128 0x1c
 4166 07a8 20060000 		.4byte	.LVL142
 4167 07ac 79050000 		.4byte	0x579
 4168 07b0 C0070000 		.4byte	0x7c0
 4169 07b4 19       		.uleb128 0x19
 4170 07b5 01       		.uleb128 0x1
 4171 07b6 51       		.byte	0x51
 4172 07b7 01       		.uleb128 0x1
 4173 07b8 4F       		.byte	0x4f
 4174 07b9 19       		.uleb128 0x19
 4175 07ba 01       		.uleb128 0x1
 4176 07bb 50       		.byte	0x50
 4177 07bc 02       		.uleb128 0x2
 4178 07bd 75       		.byte	0x75
 4179 07be 00       		.sleb128 0
 4180 07bf 00       		.byte	0
 4181 07c0 1C       		.uleb128 0x1c
 4182 07c1 28060000 		.4byte	.LVL143
 4183 07c5 3A100000 		.4byte	0x103a
 4184 07c9 D3070000 		.4byte	0x7d3
 4185 07cd 19       		.uleb128 0x19
 4186 07ce 01       		.uleb128 0x1
 4187 07cf 50       		.byte	0x50
 4188 07d0 01       		.uleb128 0x1
 4189 07d1 3A       		.byte	0x3a
 4190 07d2 00       		.byte	0
 4191 07d3 1D       		.uleb128 0x1d
 4192 07d4 32060000 		.4byte	.LVL145
 4193 07d8 29100000 		.4byte	0x1029
 4194 07dc 1C       		.uleb128 0x1c
 4195 07dd 40060000 		.4byte	.LVL148
 4196 07e1 3A100000 		.4byte	0x103a
 4197 07e5 EF070000 		.4byte	0x7ef
 4198 07e9 19       		.uleb128 0x19
 4199 07ea 01       		.uleb128 0x1
 4200 07eb 50       		.byte	0x50
 4201 07ec 01       		.uleb128 0x1
ARM GAS  C:\Users\RECEPC~1\AppData\Local\Temp\ccXtGlXn.s 			page 90


 4202 07ed 3A       		.byte	0x3a
 4203 07ee 00       		.byte	0
 4204 07ef 1C       		.uleb128 0x1c
 4205 07f0 00070000 		.4byte	.LVL163
 4206 07f4 79050000 		.4byte	0x579
 4207 07f8 09080000 		.4byte	0x809
 4208 07fc 19       		.uleb128 0x19
 4209 07fd 01       		.uleb128 0x1
 4210 07fe 51       		.byte	0x51
 4211 07ff 02       		.uleb128 0x2
 4212 0800 08       		.byte	0x8
 4213 0801 21       		.byte	0x21
 4214 0802 19       		.uleb128 0x19
 4215 0803 01       		.uleb128 0x1
 4216 0804 50       		.byte	0x50
 4217 0805 02       		.uleb128 0x2
 4218 0806 74       		.byte	0x74
 4219 0807 00       		.sleb128 0
 4220 0808 00       		.byte	0
 4221 0809 1D       		.uleb128 0x1d
 4222 080a 10070000 		.4byte	.LVL166
 4223 080e 29100000 		.4byte	0x1029
 4224 0812 1D       		.uleb128 0x1d
 4225 0813 40070000 		.4byte	.LVL170
 4226 0817 4B100000 		.4byte	0x104b
 4227 081b 1D       		.uleb128 0x1d
 4228 081c 68070000 		.4byte	.LVL171
 4229 0820 4B100000 		.4byte	0x104b
 4230 0824 00       		.byte	0
 4231 0825 1E       		.uleb128 0x1e
 4232 0826 37000000 		.4byte	.LASF105
 4233 082a 01       		.byte	0x1
 4234 082b 36       		.byte	0x36
 4235 082c 00000000 		.4byte	.LFB64
 4236 0830 8C070000 		.4byte	.LFE64-.LFB64
 4237 0834 01       		.uleb128 0x1
 4238 0835 9C       		.byte	0x9c
 4239 0836 2B0A0000 		.4byte	0xa2b
 4240 083a 16       		.uleb128 0x16
 4241 083b 6900     		.ascii	"i\000"
 4242 083d 01       		.byte	0x1
 4243 083e 37       		.byte	0x37
 4244 083f 8D000000 		.4byte	0x8d
 4245 0843 20040000 		.4byte	.LLST6
 4246 0847 16       		.uleb128 0x16
 4247 0848 7800     		.ascii	"x\000"
 4248 084a 01       		.byte	0x1
 4249 084b 37       		.byte	0x37
 4250 084c 8D000000 		.4byte	0x8d
 4251 0850 AD040000 		.4byte	.LLST7
 4252 0854 16       		.uleb128 0x16
 4253 0855 7900     		.ascii	"y\000"
 4254 0857 01       		.byte	0x1
 4255 0858 37       		.byte	0x37
 4256 0859 8D000000 		.4byte	0x8d
 4257 085d 5F070000 		.4byte	.LLST8
 4258 0861 1C       		.uleb128 0x1c
ARM GAS  C:\Users\RECEPC~1\AppData\Local\Temp\ccXtGlXn.s 			page 91


 4259 0862 30000000 		.4byte	.LVL172
 4260 0866 3A100000 		.4byte	0x103a
 4261 086a 74080000 		.4byte	0x874
 4262 086e 19       		.uleb128 0x19
 4263 086f 01       		.uleb128 0x1
 4264 0870 50       		.byte	0x50
 4265 0871 01       		.uleb128 0x1
 4266 0872 4E       		.byte	0x4e
 4267 0873 00       		.byte	0
 4268 0874 1D       		.uleb128 0x1d
 4269 0875 34000000 		.4byte	.LVL173
 4270 0879 6A100000 		.4byte	0x106a
 4271 087d 1D       		.uleb128 0x1d
 4272 087e 4C000000 		.4byte	.LVL176
 4273 0882 75100000 		.4byte	0x1075
 4274 0886 1D       		.uleb128 0x1d
 4275 0887 58000000 		.4byte	.LVL179
 4276 088b 6A100000 		.4byte	0x106a
 4277 088f 1D       		.uleb128 0x1d
 4278 0890 0A010000 		.4byte	.LVL186
 4279 0894 21060000 		.4byte	0x621
 4280 0898 1C       		.uleb128 0x1c
 4281 0899 DA010000 		.4byte	.LVL208
 4282 089d 79050000 		.4byte	0x579
 4283 08a1 B2080000 		.4byte	0x8b2
 4284 08a5 19       		.uleb128 0x19
 4285 08a6 01       		.uleb128 0x1
 4286 08a7 51       		.byte	0x51
 4287 08a8 02       		.uleb128 0x2
 4288 08a9 75       		.byte	0x75
 4289 08aa 00       		.sleb128 0
 4290 08ab 19       		.uleb128 0x19
 4291 08ac 01       		.uleb128 0x1
 4292 08ad 50       		.byte	0x50
 4293 08ae 02       		.uleb128 0x2
 4294 08af 76       		.byte	0x76
 4295 08b0 00       		.sleb128 0
 4296 08b1 00       		.byte	0
 4297 08b2 1D       		.uleb128 0x1d
 4298 08b3 E8010000 		.4byte	.LVL211
 4299 08b7 29100000 		.4byte	0x1029
 4300 08bb 1D       		.uleb128 0x1d
 4301 08bc 02020000 		.4byte	.LVL215
 4302 08c0 80100000 		.4byte	0x1080
 4303 08c4 1D       		.uleb128 0x1d
 4304 08c5 C4020000 		.4byte	.LVL246
 4305 08c9 80100000 		.4byte	0x1080
 4306 08cd 1C       		.uleb128 0x1c
 4307 08ce 70030000 		.4byte	.LVL278
 4308 08d2 79050000 		.4byte	0x579
 4309 08d6 E7080000 		.4byte	0x8e7
 4310 08da 19       		.uleb128 0x19
 4311 08db 01       		.uleb128 0x1
 4312 08dc 51       		.byte	0x51
 4313 08dd 02       		.uleb128 0x2
 4314 08de 75       		.byte	0x75
 4315 08df 00       		.sleb128 0
ARM GAS  C:\Users\RECEPC~1\AppData\Local\Temp\ccXtGlXn.s 			page 92


 4316 08e0 19       		.uleb128 0x19
 4317 08e1 01       		.uleb128 0x1
 4318 08e2 50       		.byte	0x50
 4319 08e3 02       		.uleb128 0x2
 4320 08e4 76       		.byte	0x76
 4321 08e5 00       		.sleb128 0
 4322 08e6 00       		.byte	0
 4323 08e7 1D       		.uleb128 0x1d
 4324 08e8 84030000 		.4byte	.LVL282
 4325 08ec 29100000 		.4byte	0x1029
 4326 08f0 1C       		.uleb128 0x1c
 4327 08f1 F0040000 		.4byte	.LVL326
 4328 08f5 79050000 		.4byte	0x579
 4329 08f9 0A090000 		.4byte	0x90a
 4330 08fd 19       		.uleb128 0x19
 4331 08fe 01       		.uleb128 0x1
 4332 08ff 51       		.byte	0x51
 4333 0900 02       		.uleb128 0x2
 4334 0901 75       		.byte	0x75
 4335 0902 00       		.sleb128 0
 4336 0903 19       		.uleb128 0x19
 4337 0904 01       		.uleb128 0x1
 4338 0905 50       		.byte	0x50
 4339 0906 02       		.uleb128 0x2
 4340 0907 76       		.byte	0x76
 4341 0908 00       		.sleb128 0
 4342 0909 00       		.byte	0
 4343 090a 1D       		.uleb128 0x1d
 4344 090b FE040000 		.4byte	.LVL329
 4345 090f 29100000 		.4byte	0x1029
 4346 0913 1C       		.uleb128 0x1c
 4347 0914 7C050000 		.4byte	.LVL334
 4348 0918 79050000 		.4byte	0x579
 4349 091c 2C090000 		.4byte	0x92c
 4350 0920 19       		.uleb128 0x19
 4351 0921 01       		.uleb128 0x1
 4352 0922 51       		.byte	0x51
 4353 0923 01       		.uleb128 0x1
 4354 0924 39       		.byte	0x39
 4355 0925 19       		.uleb128 0x19
 4356 0926 01       		.uleb128 0x1
 4357 0927 50       		.byte	0x50
 4358 0928 02       		.uleb128 0x2
 4359 0929 74       		.byte	0x74
 4360 092a 00       		.sleb128 0
 4361 092b 00       		.byte	0
 4362 092c 1D       		.uleb128 0x1d
 4363 092d 9C050000 		.4byte	.LVL337
 4364 0931 29100000 		.4byte	0x1029
 4365 0935 1D       		.uleb128 0x1d
 4366 0936 3A060000 		.4byte	.LVL358
 4367 093a 95100000 		.4byte	0x1095
 4368 093e 1D       		.uleb128 0x1d
 4369 093f 3E060000 		.4byte	.LVL359
 4370 0943 A0100000 		.4byte	0x10a0
 4371 0947 1C       		.uleb128 0x1c
 4372 0948 50060000 		.4byte	.LVL362
ARM GAS  C:\Users\RECEPC~1\AppData\Local\Temp\ccXtGlXn.s 			page 93


 4373 094c AB100000 		.4byte	0x10ab
 4374 0950 5B090000 		.4byte	0x95b
 4375 0954 19       		.uleb128 0x19
 4376 0955 01       		.uleb128 0x1
 4377 0956 51       		.byte	0x51
 4378 0957 02       		.uleb128 0x2
 4379 0958 74       		.byte	0x74
 4380 0959 10       		.sleb128 16
 4381 095a 00       		.byte	0
 4382 095b 1C       		.uleb128 0x1c
 4383 095c 6E060000 		.4byte	.LVL367
 4384 0960 AB100000 		.4byte	0x10ab
 4385 0964 6F090000 		.4byte	0x96f
 4386 0968 19       		.uleb128 0x19
 4387 0969 01       		.uleb128 0x1
 4388 096a 51       		.byte	0x51
 4389 096b 02       		.uleb128 0x2
 4390 096c 74       		.byte	0x74
 4391 096d 10       		.sleb128 16
 4392 096e 00       		.byte	0
 4393 096f 1C       		.uleb128 0x1c
 4394 0970 8C060000 		.4byte	.LVL372
 4395 0974 AB100000 		.4byte	0x10ab
 4396 0978 83090000 		.4byte	0x983
 4397 097c 19       		.uleb128 0x19
 4398 097d 01       		.uleb128 0x1
 4399 097e 51       		.byte	0x51
 4400 097f 02       		.uleb128 0x2
 4401 0980 74       		.byte	0x74
 4402 0981 10       		.sleb128 16
 4403 0982 00       		.byte	0
 4404 0983 1C       		.uleb128 0x1c
 4405 0984 AA060000 		.4byte	.LVL377
 4406 0988 AB100000 		.4byte	0x10ab
 4407 098c 97090000 		.4byte	0x997
 4408 0990 19       		.uleb128 0x19
 4409 0991 01       		.uleb128 0x1
 4410 0992 51       		.byte	0x51
 4411 0993 02       		.uleb128 0x2
 4412 0994 74       		.byte	0x74
 4413 0995 10       		.sleb128 16
 4414 0996 00       		.byte	0
 4415 0997 1C       		.uleb128 0x1c
 4416 0998 B8060000 		.4byte	.LVL380
 4417 099c C5100000 		.4byte	0x10c5
 4418 09a0 AA090000 		.4byte	0x9aa
 4419 09a4 19       		.uleb128 0x19
 4420 09a5 01       		.uleb128 0x1
 4421 09a6 50       		.byte	0x50
 4422 09a7 01       		.uleb128 0x1
 4423 09a8 3C       		.byte	0x3c
 4424 09a9 00       		.byte	0
 4425 09aa 1C       		.uleb128 0x1c
 4426 09ab C2060000 		.4byte	.LVL382
 4427 09af C5100000 		.4byte	0x10c5
 4428 09b3 BD090000 		.4byte	0x9bd
 4429 09b7 19       		.uleb128 0x19
ARM GAS  C:\Users\RECEPC~1\AppData\Local\Temp\ccXtGlXn.s 			page 94


 4430 09b8 01       		.uleb128 0x1
 4431 09b9 50       		.byte	0x50
 4432 09ba 01       		.uleb128 0x1
 4433 09bb 3D       		.byte	0x3d
 4434 09bc 00       		.byte	0
 4435 09bd 1C       		.uleb128 0x1c
 4436 09be CC060000 		.4byte	.LVL383
 4437 09c2 C5100000 		.4byte	0x10c5
 4438 09c6 D0090000 		.4byte	0x9d0
 4439 09ca 19       		.uleb128 0x19
 4440 09cb 01       		.uleb128 0x1
 4441 09cc 50       		.byte	0x50
 4442 09cd 01       		.uleb128 0x1
 4443 09ce 3E       		.byte	0x3e
 4444 09cf 00       		.byte	0
 4445 09d0 1C       		.uleb128 0x1c
 4446 09d1 D6060000 		.4byte	.LVL384
 4447 09d5 C5100000 		.4byte	0x10c5
 4448 09d9 E3090000 		.4byte	0x9e3
 4449 09dd 19       		.uleb128 0x19
 4450 09de 01       		.uleb128 0x1
 4451 09df 50       		.byte	0x50
 4452 09e0 01       		.uleb128 0x1
 4453 09e1 3F       		.byte	0x3f
 4454 09e2 00       		.byte	0
 4455 09e3 1D       		.uleb128 0x1d
 4456 09e4 E4060000 		.4byte	.LVL385
 4457 09e8 DA100000 		.4byte	0x10da
 4458 09ec 1C       		.uleb128 0x1c
 4459 09ed 02070000 		.4byte	.LVL388
 4460 09f1 79050000 		.4byte	0x579
 4461 09f5 050A0000 		.4byte	0xa05
 4462 09f9 19       		.uleb128 0x19
 4463 09fa 01       		.uleb128 0x1
 4464 09fb 51       		.byte	0x51
 4465 09fc 01       		.uleb128 0x1
 4466 09fd 3A       		.byte	0x3a
 4467 09fe 19       		.uleb128 0x19
 4468 09ff 01       		.uleb128 0x1
 4469 0a00 50       		.byte	0x50
 4470 0a01 02       		.uleb128 0x2
 4471 0a02 74       		.byte	0x74
 4472 0a03 00       		.sleb128 0
 4473 0a04 00       		.byte	0
 4474 0a05 1D       		.uleb128 0x1d
 4475 0a06 10070000 		.4byte	.LVL391
 4476 0a0a 29100000 		.4byte	0x1029
 4477 0a0e 1C       		.uleb128 0x1c
 4478 0a0f 3E070000 		.4byte	.LVL398
 4479 0a13 AB100000 		.4byte	0x10ab
 4480 0a17 210A0000 		.4byte	0xa21
 4481 0a1b 19       		.uleb128 0x19
 4482 0a1c 01       		.uleb128 0x1
 4483 0a1d 51       		.byte	0x51
 4484 0a1e 01       		.uleb128 0x1
 4485 0a1f 37       		.byte	0x37
 4486 0a20 00       		.byte	0
ARM GAS  C:\Users\RECEPC~1\AppData\Local\Temp\ccXtGlXn.s 			page 95


 4487 0a21 1D       		.uleb128 0x1d
 4488 0a22 42070000 		.4byte	.LVL399
 4489 0a26 F0100000 		.4byte	0x10f0
 4490 0a2a 00       		.byte	0
 4491 0a2b 1F       		.uleb128 0x1f
 4492 0a2c 4B060000 		.4byte	.LASF106
 4493 0a30 06       		.byte	0x6
 4494 0a31 5506     		.2byte	0x655
 4495 0a33 370A0000 		.4byte	0xa37
 4496 0a37 06       		.uleb128 0x6
 4497 0a38 76000000 		.4byte	0x76
 4498 0a3c 20       		.uleb128 0x20
 4499 0a3d C7040000 		.4byte	.LASF107
 4500 0a41 05       		.byte	0x5
 4501 0a42 2C       		.byte	0x2c
 4502 0a43 4D0A0000 		.4byte	0xa4d
 4503 0a47 05       		.uleb128 0x5
 4504 0a48 03       		.byte	0x3
 4505 0a49 00000000 		.4byte	countAnimation1
 4506 0a4d 06       		.uleb128 0x6
 4507 0a4e B3000000 		.4byte	0xb3
 4508 0a52 20       		.uleb128 0x20
 4509 0a53 05050000 		.4byte	.LASF108
 4510 0a57 05       		.byte	0x5
 4511 0a58 2D       		.byte	0x2d
 4512 0a59 4D0A0000 		.4byte	0xa4d
 4513 0a5d 05       		.uleb128 0x5
 4514 0a5e 03       		.byte	0x3
 4515 0a5f 00000000 		.4byte	countAnimation2
 4516 0a63 20       		.uleb128 0x20
 4517 0a64 7C000000 		.4byte	.LASF109
 4518 0a68 05       		.byte	0x5
 4519 0a69 2E       		.byte	0x2e
 4520 0a6a 4D0A0000 		.4byte	0xa4d
 4521 0a6e 05       		.uleb128 0x5
 4522 0a6f 03       		.byte	0x3
 4523 0a70 00000000 		.4byte	countRX
 4524 0a74 20       		.uleb128 0x20
 4525 0a75 56010000 		.4byte	.LASF110
 4526 0a79 05       		.byte	0x5
 4527 0a7a 2F       		.byte	0x2f
 4528 0a7b 4D0A0000 		.4byte	0xa4d
 4529 0a7f 05       		.uleb128 0x5
 4530 0a80 03       		.byte	0x3
 4531 0a81 00000000 		.4byte	countTX
 4532 0a85 20       		.uleb128 0x20
 4533 0a86 73090000 		.4byte	.LASF111
 4534 0a8a 05       		.byte	0x5
 4535 0a8b 30       		.byte	0x30
 4536 0a8c 4D0A0000 		.4byte	0xa4d
 4537 0a90 05       		.uleb128 0x5
 4538 0a91 03       		.byte	0x3
 4539 0a92 00000000 		.4byte	countPump
 4540 0a96 20       		.uleb128 0x20
 4541 0a97 F0020000 		.4byte	.LASF112
 4542 0a9b 05       		.byte	0x5
 4543 0a9c 31       		.byte	0x31
ARM GAS  C:\Users\RECEPC~1\AppData\Local\Temp\ccXtGlXn.s 			page 96


 4544 0a9d 4D0A0000 		.4byte	0xa4d
 4545 0aa1 05       		.uleb128 0x5
 4546 0aa2 03       		.byte	0x3
 4547 0aa3 00000000 		.4byte	countLCD
 4548 0aa7 20       		.uleb128 0x20
 4549 0aa8 2E030000 		.4byte	.LASF113
 4550 0aac 05       		.byte	0x5
 4551 0aad 32       		.byte	0x32
 4552 0aae E3000000 		.4byte	0xe3
 4553 0ab2 05       		.uleb128 0x5
 4554 0ab3 03       		.byte	0x3
 4555 0ab4 00000000 		.4byte	flowDisplay1
 4556 0ab8 20       		.uleb128 0x20
 4557 0ab9 3B030000 		.4byte	.LASF114
 4558 0abd 05       		.byte	0x5
 4559 0abe 33       		.byte	0x33
 4560 0abf E3000000 		.4byte	0xe3
 4561 0ac3 05       		.uleb128 0x5
 4562 0ac4 03       		.byte	0x3
 4563 0ac5 00000000 		.4byte	flowDisplay2
 4564 0ac9 20       		.uleb128 0x20
 4565 0aca 48030000 		.4byte	.LASF115
 4566 0ace 05       		.byte	0x5
 4567 0acf 34       		.byte	0x34
 4568 0ad0 E3000000 		.4byte	0xe3
 4569 0ad4 05       		.uleb128 0x5
 4570 0ad5 03       		.byte	0x3
 4571 0ad6 00000000 		.4byte	flowDisplay3
 4572 0ada 20       		.uleb128 0x20
 4573 0adb 55030000 		.4byte	.LASF116
 4574 0adf 05       		.byte	0x5
 4575 0ae0 35       		.byte	0x35
 4576 0ae1 E3000000 		.4byte	0xe3
 4577 0ae5 05       		.uleb128 0x5
 4578 0ae6 03       		.byte	0x3
 4579 0ae7 00000000 		.4byte	flowDisplay4
 4580 0aeb 20       		.uleb128 0x20
 4581 0aec D8030000 		.4byte	.LASF117
 4582 0af0 05       		.byte	0x5
 4583 0af1 36       		.byte	0x36
 4584 0af2 DE000000 		.4byte	0xde
 4585 0af6 05       		.uleb128 0x5
 4586 0af7 03       		.byte	0x3
 4587 0af8 00000000 		.4byte	numberKeys1
 4588 0afc 20       		.uleb128 0x20
 4589 0afd E4030000 		.4byte	.LASF118
 4590 0b01 05       		.byte	0x5
 4591 0b02 37       		.byte	0x37
 4592 0b03 DE000000 		.4byte	0xde
 4593 0b07 05       		.uleb128 0x5
 4594 0b08 03       		.byte	0x3
 4595 0b09 00000000 		.4byte	numberKeys2
 4596 0b0d 20       		.uleb128 0x20
 4597 0b0e D1050000 		.4byte	.LASF119
 4598 0b12 05       		.byte	0x5
 4599 0b13 38       		.byte	0x38
 4600 0b14 DE000000 		.4byte	0xde
ARM GAS  C:\Users\RECEPC~1\AppData\Local\Temp\ccXtGlXn.s 			page 97


 4601 0b18 05       		.uleb128 0x5
 4602 0b19 03       		.byte	0x3
 4603 0b1a 00000000 		.4byte	flagPoint1
 4604 0b1e 20       		.uleb128 0x20
 4605 0b1f 4B010000 		.4byte	.LASF120
 4606 0b23 05       		.byte	0x5
 4607 0b24 39       		.byte	0x39
 4608 0b25 DE000000 		.4byte	0xde
 4609 0b29 05       		.uleb128 0x5
 4610 0b2a 03       		.byte	0x3
 4611 0b2b 00000000 		.4byte	flagPoint2
 4612 0b2f 20       		.uleb128 0x20
 4613 0b30 C7020000 		.4byte	.LASF121
 4614 0b34 05       		.byte	0x5
 4615 0b35 3A       		.byte	0x3a
 4616 0b36 DE000000 		.4byte	0xde
 4617 0b3a 05       		.uleb128 0x5
 4618 0b3b 03       		.byte	0x3
 4619 0b3c 00000000 		.4byte	productNumber
 4620 0b40 20       		.uleb128 0x20
 4621 0b41 18070000 		.4byte	.LASF122
 4622 0b45 05       		.byte	0x5
 4623 0b46 3B       		.byte	0x3b
 4624 0b47 E3000000 		.4byte	0xe3
 4625 0b4b 05       		.uleb128 0x5
 4626 0b4c 03       		.byte	0x3
 4627 0b4d 00000000 		.4byte	delayPicture1
 4628 0b51 20       		.uleb128 0x20
 4629 0b52 26070000 		.4byte	.LASF123
 4630 0b56 05       		.byte	0x5
 4631 0b57 3C       		.byte	0x3c
 4632 0b58 E3000000 		.4byte	0xe3
 4633 0b5c 05       		.uleb128 0x5
 4634 0b5d 03       		.byte	0x3
 4635 0b5e 00000000 		.4byte	delayPicture2
 4636 0b62 20       		.uleb128 0x20
 4637 0b63 B7050000 		.4byte	.LASF124
 4638 0b67 05       		.byte	0x5
 4639 0b68 3D       		.byte	0x3d
 4640 0b69 DE000000 		.4byte	0xde
 4641 0b6d 05       		.uleb128 0x5
 4642 0b6e 03       		.byte	0x3
 4643 0b6f 00000000 		.4byte	ppux10
 4644 0b73 20       		.uleb128 0x20
 4645 0b74 B9000000 		.4byte	.LASF125
 4646 0b78 05       		.byte	0x5
 4647 0b79 3E       		.byte	0x3e
 4648 0b7a DE000000 		.4byte	0xde
 4649 0b7e 05       		.uleb128 0x5
 4650 0b7f 03       		.byte	0x3
 4651 0b80 00000000 		.4byte	decimalMoney
 4652 0b84 20       		.uleb128 0x20
 4653 0b85 55000000 		.4byte	.LASF126
 4654 0b89 05       		.byte	0x5
 4655 0b8a 3F       		.byte	0x3f
 4656 0b8b DE000000 		.4byte	0xde
 4657 0b8f 05       		.uleb128 0x5
ARM GAS  C:\Users\RECEPC~1\AppData\Local\Temp\ccXtGlXn.s 			page 98


 4658 0b90 03       		.byte	0x3
 4659 0b91 00000000 		.4byte	decimalVolume
 4660 0b95 20       		.uleb128 0x20
 4661 0b96 EE050000 		.4byte	.LASF127
 4662 0b9a 05       		.byte	0x5
 4663 0b9b 40       		.byte	0x40
 4664 0b9c A60B0000 		.4byte	0xba6
 4665 0ba0 05       		.uleb128 0x5
 4666 0ba1 03       		.byte	0x3
 4667 0ba2 00000000 		.4byte	symbols
 4668 0ba6 06       		.uleb128 0x6
 4669 0ba7 45030000 		.4byte	0x345
 4670 0bab 08       		.uleb128 0x8
 4671 0bac 81000000 		.4byte	0x81
 4672 0bb0 BB0B0000 		.4byte	0xbbb
 4673 0bb4 09       		.uleb128 0x9
 4674 0bb5 E8000000 		.4byte	0xe8
 4675 0bb9 02       		.byte	0x2
 4676 0bba 00       		.byte	0
 4677 0bbb 20       		.uleb128 0x20
 4678 0bbc 82020000 		.4byte	.LASF128
 4679 0bc0 05       		.byte	0x5
 4680 0bc1 41       		.byte	0x41
 4681 0bc2 CC0B0000 		.4byte	0xbcc
 4682 0bc6 05       		.uleb128 0x5
 4683 0bc7 03       		.byte	0x3
 4684 0bc8 00000000 		.4byte	time
 4685 0bcc 06       		.uleb128 0x6
 4686 0bcd AB0B0000 		.4byte	0xbab
 4687 0bd1 20       		.uleb128 0x20
 4688 0bd2 FD030000 		.4byte	.LASF129
 4689 0bd6 05       		.byte	0x5
 4690 0bd7 42       		.byte	0x42
 4691 0bd8 E20B0000 		.4byte	0xbe2
 4692 0bdc 05       		.uleb128 0x5
 4693 0bdd 03       		.byte	0x3
 4694 0bde 00000000 		.4byte	date
 4695 0be2 06       		.uleb128 0x6
 4696 0be3 AB0B0000 		.4byte	0xbab
 4697 0be7 20       		.uleb128 0x20
 4698 0be8 68010000 		.4byte	.LASF130
 4699 0bec 05       		.byte	0x5
 4700 0bed 43       		.byte	0x43
 4701 0bee F80B0000 		.4byte	0xbf8
 4702 0bf2 05       		.uleb128 0x5
 4703 0bf3 03       		.byte	0x3
 4704 0bf4 00000000 		.4byte	screen
 4705 0bf8 06       		.uleb128 0x6
 4706 0bf9 45030000 		.4byte	0x345
 4707 0bfd 20       		.uleb128 0x20
 4708 0bfe 0E010000 		.4byte	.LASF131
 4709 0c02 05       		.byte	0x5
 4710 0c03 44       		.byte	0x44
 4711 0c04 0E0C0000 		.4byte	0xc0e
 4712 0c08 05       		.uleb128 0x5
 4713 0c09 03       		.byte	0x3
 4714 0c0a 00000000 		.4byte	residue
ARM GAS  C:\Users\RECEPC~1\AppData\Local\Temp\ccXtGlXn.s 			page 99


 4715 0c0e 06       		.uleb128 0x6
 4716 0c0f 8B030000 		.4byte	0x38b
 4717 0c13 20       		.uleb128 0x20
 4718 0c14 D5020000 		.4byte	.LASF132
 4719 0c18 05       		.byte	0x5
 4720 0c19 45       		.byte	0x45
 4721 0c1a 240C0000 		.4byte	0xc24
 4722 0c1e 05       		.uleb128 0x5
 4723 0c1f 03       		.byte	0x3
 4724 0c20 00000000 		.4byte	idSeller
 4725 0c24 06       		.uleb128 0x6
 4726 0c25 15030000 		.4byte	0x315
 4727 0c29 20       		.uleb128 0x20
 4728 0c2a 6B060000 		.4byte	.LASF133
 4729 0c2e 05       		.byte	0x5
 4730 0c2f 46       		.byte	0x46
 4731 0c30 DE000000 		.4byte	0xde
 4732 0c34 05       		.uleb128 0x5
 4733 0c35 03       		.byte	0x3
 4734 0c36 00000000 		.4byte	typeIdSeller
 4735 0c3a 08       		.uleb128 0x8
 4736 0c3b 81000000 		.4byte	0x81
 4737 0c3f 4A0C0000 		.4byte	0xc4a
 4738 0c43 09       		.uleb128 0x9
 4739 0c44 E8000000 		.4byte	0xe8
 4740 0c48 07       		.byte	0x7
 4741 0c49 00       		.byte	0
 4742 0c4a 20       		.uleb128 0x20
 4743 0c4b E8060000 		.4byte	.LASF134
 4744 0c4f 05       		.byte	0x5
 4745 0c50 47       		.byte	0x47
 4746 0c51 5B0C0000 		.4byte	0xc5b
 4747 0c55 05       		.uleb128 0x5
 4748 0c56 03       		.byte	0x3
 4749 0c57 00000000 		.4byte	passwordSeller
 4750 0c5b 06       		.uleb128 0x6
 4751 0c5c 3A0C0000 		.4byte	0xc3a
 4752 0c60 20       		.uleb128 0x20
 4753 0c61 66050000 		.4byte	.LASF135
 4754 0c65 05       		.byte	0x5
 4755 0c66 48       		.byte	0x48
 4756 0c67 DE000000 		.4byte	0xde
 4757 0c6b 05       		.uleb128 0x5
 4758 0c6c 03       		.byte	0x3
 4759 0c6d 00000000 		.4byte	flagResetMux
 4760 0c71 20       		.uleb128 0x20
 4761 0c72 E4040000 		.4byte	.LASF136
 4762 0c76 05       		.byte	0x5
 4763 0c77 49       		.byte	0x49
 4764 0c78 DE000000 		.4byte	0xde
 4765 0c7c 05       		.uleb128 0x5
 4766 0c7d 03       		.byte	0x3
 4767 0c7e 00000000 		.4byte	stateBeagleSoft
 4768 0c82 20       		.uleb128 0x20
 4769 0c83 63000000 		.4byte	.LASF137
 4770 0c87 05       		.byte	0x5
 4771 0c88 4A       		.byte	0x4a
ARM GAS  C:\Users\RECEPC~1\AppData\Local\Temp\ccXtGlXn.s 			page 100


 4772 0c89 930C0000 		.4byte	0xc93
 4773 0c8d 05       		.uleb128 0x5
 4774 0c8e 03       		.byte	0x3
 4775 0c8f 00000000 		.4byte	PrevStatePump
 4776 0c93 06       		.uleb128 0x6
 4777 0c94 F1000000 		.4byte	0xf1
 4778 0c98 20       		.uleb128 0x20
 4779 0c99 85010000 		.4byte	.LASF138
 4780 0c9d 05       		.byte	0x5
 4781 0c9e 4B       		.byte	0x4b
 4782 0c9f DE000000 		.4byte	0xde
 4783 0ca3 05       		.uleb128 0x5
 4784 0ca4 03       		.byte	0x3
 4785 0ca5 00000000 		.4byte	PlateRequest
 4786 0ca9 20       		.uleb128 0x20
 4787 0caa 44060000 		.4byte	.LASF139
 4788 0cae 05       		.byte	0x5
 4789 0caf 4C       		.byte	0x4c
 4790 0cb0 BA0C0000 		.4byte	0xcba
 4791 0cb4 05       		.uleb128 0x5
 4792 0cb5 03       		.byte	0x3
 4793 0cb6 00000000 		.4byte	IDCast
 4794 0cba 06       		.uleb128 0x6
 4795 0cbb 45030000 		.4byte	0x345
 4796 0cbf 20       		.uleb128 0x20
 4797 0cc0 69040000 		.4byte	.LASF140
 4798 0cc4 05       		.byte	0x5
 4799 0cc5 4D       		.byte	0x4d
 4800 0cc6 DE000000 		.4byte	0xde
 4801 0cca 05       		.uleb128 0x5
 4802 0ccb 03       		.byte	0x3
 4803 0ccc 00000000 		.4byte	ActiveRF
 4804 0cd0 20       		.uleb128 0x20
 4805 0cd1 7B010000 		.4byte	.LASF141
 4806 0cd5 05       		.byte	0x5
 4807 0cd6 4E       		.byte	0x4e
 4808 0cd7 DE000000 		.4byte	0xde
 4809 0cdb 05       		.uleb128 0x5
 4810 0cdc 03       		.byte	0x3
 4811 0cdd 00000000 		.4byte	counterRF
 4812 0ce1 08       		.uleb128 0x8
 4813 0ce2 81000000 		.4byte	0x81
 4814 0ce6 F10C0000 		.4byte	0xcf1
 4815 0cea 09       		.uleb128 0x9
 4816 0ceb E8000000 		.4byte	0xe8
 4817 0cef 1D       		.byte	0x1d
 4818 0cf0 00       		.byte	0
 4819 0cf1 20       		.uleb128 0x20
 4820 0cf2 FA080000 		.4byte	.LASF142
 4821 0cf6 05       		.byte	0x5
 4822 0cf7 4F       		.byte	0x4f
 4823 0cf8 020D0000 		.4byte	0xd02
 4824 0cfc 05       		.uleb128 0x5
 4825 0cfd 03       		.byte	0x3
 4826 0cfe 00000000 		.4byte	temporal
 4827 0d02 06       		.uleb128 0x6
 4828 0d03 E10C0000 		.4byte	0xce1
ARM GAS  C:\Users\RECEPC~1\AppData\Local\Temp\ccXtGlXn.s 			page 101


 4829 0d07 20       		.uleb128 0x20
 4830 0d08 16010000 		.4byte	.LASF143
 4831 0d0c 05       		.byte	0x5
 4832 0d0d 50       		.byte	0x50
 4833 0d0e 180D0000 		.4byte	0xd18
 4834 0d12 05       		.uleb128 0x5
 4835 0d13 03       		.byte	0x3
 4836 0d14 00000000 		.4byte	tempPreset
 4837 0d18 06       		.uleb128 0x6
 4838 0d19 3A0C0000 		.4byte	0xc3a
 4839 0d1d 20       		.uleb128 0x20
 4840 0d1e E5090000 		.4byte	.LASF144
 4841 0d22 05       		.byte	0x5
 4842 0d23 51       		.byte	0x51
 4843 0d24 2E0D0000 		.4byte	0xd2e
 4844 0d28 05       		.uleb128 0x5
 4845 0d29 03       		.byte	0x3
 4846 0d2a 00000000 		.4byte	tempPPU
 4847 0d2e 06       		.uleb128 0x6
 4848 0d2f 6B030000 		.4byte	0x36b
 4849 0d33 20       		.uleb128 0x20
 4850 0d34 B5010000 		.4byte	.LASF145
 4851 0d38 05       		.byte	0x5
 4852 0d39 52       		.byte	0x52
 4853 0d3a DE000000 		.4byte	0xde
 4854 0d3e 05       		.uleb128 0x5
 4855 0d3f 03       		.byte	0x3
 4856 0d40 00000000 		.4byte	CGrade
 4857 0d44 20       		.uleb128 0x20
 4858 0d45 CE010000 		.4byte	.LASF146
 4859 0d49 05       		.byte	0x5
 4860 0d4a 53       		.byte	0x53
 4861 0d4b DE000000 		.4byte	0xde
 4862 0d4f 05       		.uleb128 0x5
 4863 0d50 03       		.byte	0x3
 4864 0d51 00000000 		.4byte	ShiftState
 4865 0d55 20       		.uleb128 0x20
 4866 0d56 08070000 		.4byte	.LASF147
 4867 0d5a 05       		.byte	0x5
 4868 0d5b 55       		.byte	0x55
 4869 0d5c 81000000 		.4byte	0x81
 4870 0d60 05       		.uleb128 0x5
 4871 0d61 03       		.byte	0x3
 4872 0d62 00000000 		.4byte	UnitType
 4873 0d66 20       		.uleb128 0x20
 4874 0d67 BA030000 		.4byte	.LASF148
 4875 0d6b 05       		.byte	0x5
 4876 0d6c 55       		.byte	0x55
 4877 0d6d 81000000 		.4byte	0x81
 4878 0d71 05       		.uleb128 0x5
 4879 0d72 03       		.byte	0x3
 4880 0d73 00000000 		.4byte	ConversionFactor
 4881 0d77 20       		.uleb128 0x20
 4882 0d78 D9010000 		.4byte	.LASF149
 4883 0d7c 05       		.byte	0x5
 4884 0d7d 55       		.byte	0x55
 4885 0d7e 81000000 		.4byte	0x81
ARM GAS  C:\Users\RECEPC~1\AppData\Local\Temp\ccXtGlXn.s 			page 102


 4886 0d82 05       		.uleb128 0x5
 4887 0d83 03       		.byte	0x3
 4888 0d84 00000000 		.4byte	MoneyDec
 4889 0d88 20       		.uleb128 0x20
 4890 0d89 03090000 		.4byte	.LASF150
 4891 0d8d 05       		.byte	0x5
 4892 0d8e 55       		.byte	0x55
 4893 0d8f 81000000 		.4byte	0x81
 4894 0d93 05       		.uleb128 0x5
 4895 0d94 03       		.byte	0x3
 4896 0d95 00000000 		.4byte	VolDec
 4897 0d99 20       		.uleb128 0x20
 4898 0d9a 96070000 		.4byte	.LASF151
 4899 0d9e 05       		.byte	0x5
 4900 0d9f 55       		.byte	0x55
 4901 0da0 81000000 		.4byte	0x81
 4902 0da4 05       		.uleb128 0x5
 4903 0da5 03       		.byte	0x3
 4904 0da6 00000000 		.4byte	PPUDec
 4905 0daa 20       		.uleb128 0x20
 4906 0dab 28010000 		.4byte	.LASF152
 4907 0daf 05       		.byte	0x5
 4908 0db0 55       		.byte	0x55
 4909 0db1 81000000 		.4byte	0x81
 4910 0db5 05       		.uleb128 0x5
 4911 0db6 03       		.byte	0x3
 4912 0db7 00000000 		.4byte	DDMode
 4913 0dbb 20       		.uleb128 0x20
 4914 0dbc 9E000000 		.4byte	.LASF153
 4915 0dc0 05       		.byte	0x5
 4916 0dc1 56       		.byte	0x56
 4917 0dc2 F1000000 		.4byte	0xf1
 4918 0dc6 05       		.uleb128 0x5
 4919 0dc7 03       		.byte	0x3
 4920 0dc8 00000000 		.4byte	statePump
 4921 0dcc 20       		.uleb128 0x20
 4922 0dcd D7040000 		.4byte	.LASF154
 4923 0dd1 05       		.byte	0x5
 4924 0dd2 57       		.byte	0x57
 4925 0dd3 81000000 		.4byte	0x81
 4926 0dd7 05       		.uleb128 0x5
 4927 0dd8 03       		.byte	0x3
 4928 0dd9 00000000 		.4byte	NumPositions
 4929 0ddd 20       		.uleb128 0x20
 4930 0dde E7020000 		.4byte	.LASF155
 4931 0de2 05       		.byte	0x5
 4932 0de3 58       		.byte	0x58
 4933 0de4 81000000 		.4byte	0x81
 4934 0de8 05       		.uleb128 0x5
 4935 0de9 03       		.byte	0x3
 4936 0dea 00000000 		.4byte	lockTurn
 4937 0dee 20       		.uleb128 0x20
 4938 0def 60020000 		.4byte	.LASF156
 4939 0df3 05       		.byte	0x5
 4940 0df4 59       		.byte	0x59
 4941 0df5 81000000 		.4byte	0x81
 4942 0df9 05       		.uleb128 0x5
ARM GAS  C:\Users\RECEPC~1\AppData\Local\Temp\ccXtGlXn.s 			page 103


 4943 0dfa 03       		.byte	0x3
 4944 0dfb 00000000 		.4byte	digits
 4945 0dff 20       		.uleb128 0x20
 4946 0e00 58060000 		.4byte	.LASF157
 4947 0e04 05       		.byte	0x5
 4948 0e05 5A       		.byte	0x5a
 4949 0e06 81000000 		.4byte	0x81
 4950 0e0a 05       		.uleb128 0x5
 4951 0e0b 03       		.byte	0x3
 4952 0e0c 00000000 		.4byte	hiddenKeys
 4953 0e10 20       		.uleb128 0x20
 4954 0e11 DF000000 		.4byte	.LASF158
 4955 0e15 05       		.byte	0x5
 4956 0e16 5B       		.byte	0x5b
 4957 0e17 81000000 		.4byte	0x81
 4958 0e1b 05       		.uleb128 0x5
 4959 0e1c 03       		.byte	0x3
 4960 0e1d 00000000 		.4byte	PrinterType
 4961 0e21 08       		.uleb128 0x8
 4962 0e22 BF000000 		.4byte	0xbf
 4963 0e26 310E0000 		.4byte	0xe31
 4964 0e2a 09       		.uleb128 0x9
 4965 0e2b E8000000 		.4byte	0xe8
 4966 0e2f 05       		.byte	0x5
 4967 0e30 00       		.byte	0
 4968 0e31 20       		.uleb128 0x20
 4969 0e32 3C060000 		.4byte	.LASF159
 4970 0e36 05       		.byte	0x5
 4971 0e37 5C       		.byte	0x5c
 4972 0e38 210E0000 		.4byte	0xe21
 4973 0e3c 05       		.uleb128 0x5
 4974 0e3d 03       		.byte	0x3
 4975 0e3e 00000000 		.4byte	VolUnit
 4976 0e42 20       		.uleb128 0x20
 4977 0e43 01060000 		.4byte	.LASF160
 4978 0e47 05       		.byte	0x5
 4979 0e48 5D       		.byte	0x5d
 4980 0e49 AB0B0000 		.4byte	0xbab
 4981 0e4d 05       		.uleb128 0x5
 4982 0e4e 03       		.byte	0x3
 4983 0e4f 00000000 		.4byte	dateDownHandle
 4984 0e53 20       		.uleb128 0x20
 4985 0e54 15050000 		.4byte	.LASF161
 4986 0e58 05       		.byte	0x5
 4987 0e59 5E       		.byte	0x5e
 4988 0e5a 45030000 		.4byte	0x345
 4989 0e5e 05       		.uleb128 0x5
 4990 0e5f 03       		.byte	0x3
 4991 0e60 00000000 		.4byte	timeDownHandle
 4992 0e64 20       		.uleb128 0x20
 4993 0e65 50090000 		.4byte	.LASF162
 4994 0e69 05       		.byte	0x5
 4995 0e6a 5F       		.byte	0x5f
 4996 0e6b 81000000 		.4byte	0x81
 4997 0e6f 05       		.uleb128 0x5
 4998 0e70 03       		.byte	0x3
 4999 0e71 00000000 		.4byte	count_protector
ARM GAS  C:\Users\RECEPC~1\AppData\Local\Temp\ccXtGlXn.s 			page 104


 5000 0e75 20       		.uleb128 0x20
 5001 0e76 44000000 		.4byte	.LASF163
 5002 0e7a 05       		.byte	0x5
 5003 0e7b 5F       		.byte	0x5f
 5004 0e7c 81000000 		.4byte	0x81
 5005 0e80 05       		.uleb128 0x5
 5006 0e81 03       		.byte	0x3
 5007 0e82 00000000 		.4byte	count_protector2
 5008 0e86 20       		.uleb128 0x20
 5009 0e87 53020000 		.4byte	.LASF164
 5010 0e8b 05       		.byte	0x5
 5011 0e8c 60       		.byte	0x60
 5012 0e8d 6B030000 		.4byte	0x36b
 5013 0e91 05       		.uleb128 0x5
 5014 0e92 03       		.byte	0x3
 5015 0e93 00000000 		.4byte	configAccess
 5016 0e97 20       		.uleb128 0x20
 5017 0e98 6F010000 		.4byte	.LASF165
 5018 0e9c 05       		.byte	0x5
 5019 0e9d 61       		.byte	0x61
 5020 0e9e 81000000 		.4byte	0x81
 5021 0ea2 05       		.uleb128 0x5
 5022 0ea3 03       		.byte	0x3
 5023 0ea4 00000000 		.4byte	controlChar
 5024 0ea8 08       		.uleb128 0x8
 5025 0ea9 BF000000 		.4byte	0xbf
 5026 0ead B80E0000 		.4byte	0xeb8
 5027 0eb1 09       		.uleb128 0x9
 5028 0eb2 E8000000 		.4byte	0xe8
 5029 0eb6 04       		.byte	0x4
 5030 0eb7 00       		.byte	0
 5031 0eb8 20       		.uleb128 0x20
 5032 0eb9 34010000 		.4byte	.LASF166
 5033 0ebd 05       		.byte	0x5
 5034 0ebe 62       		.byte	0x62
 5035 0ebf A80E0000 		.4byte	0xea8
 5036 0ec3 05       		.uleb128 0x5
 5037 0ec4 03       		.byte	0x3
 5038 0ec5 00000000 		.4byte	idStation
 5039 0ec9 20       		.uleb128 0x20
 5040 0eca ED090000 		.4byte	.LASF167
 5041 0ece 05       		.byte	0x5
 5042 0ecf 63       		.byte	0x63
 5043 0ed0 AB0B0000 		.4byte	0xbab
 5044 0ed4 05       		.uleb128 0x5
 5045 0ed5 03       		.byte	0x3
 5046 0ed6 00000000 		.4byte	pumpGap
 5047 0eda 20       		.uleb128 0x20
 5048 0edb A5020000 		.4byte	.LASF168
 5049 0edf 05       		.byte	0x5
 5050 0ee0 64       		.byte	0x64
 5051 0ee1 81000000 		.4byte	0x81
 5052 0ee5 05       		.uleb128 0x5
 5053 0ee6 03       		.byte	0x3
 5054 0ee7 00000000 		.4byte	printPortA
 5055 0eeb 20       		.uleb128 0x20
 5056 0eec B0020000 		.4byte	.LASF169
ARM GAS  C:\Users\RECEPC~1\AppData\Local\Temp\ccXtGlXn.s 			page 105


 5057 0ef0 05       		.byte	0x5
 5058 0ef1 65       		.byte	0x65
 5059 0ef2 81000000 		.4byte	0x81
 5060 0ef6 05       		.uleb128 0x5
 5061 0ef7 03       		.byte	0x3
 5062 0ef8 00000000 		.4byte	printPortB
 5063 0efc 08       		.uleb128 0x8
 5064 0efd 81000000 		.4byte	0x81
 5065 0f01 0D0F0000 		.4byte	0xf0d
 5066 0f05 21       		.uleb128 0x21
 5067 0f06 E8000000 		.4byte	0xe8
 5068 0f0a FF01     		.2byte	0x1ff
 5069 0f0c 00       		.byte	0
 5070 0f0d 20       		.uleb128 0x20
 5071 0f0e AF000000 		.4byte	.LASF170
 5072 0f12 05       		.byte	0x5
 5073 0f13 66       		.byte	0x66
 5074 0f14 FC0E0000 		.4byte	0xefc
 5075 0f18 05       		.uleb128 0x5
 5076 0f19 03       		.byte	0x3
 5077 0f1a 00000000 		.4byte	buffer_rf
 5078 0f1e 20       		.uleb128 0x20
 5079 0f1f 92010000 		.4byte	.LASF171
 5080 0f23 05       		.byte	0x5
 5081 0f24 67       		.byte	0x67
 5082 0f25 FC0E0000 		.4byte	0xefc
 5083 0f29 05       		.uleb128 0x5
 5084 0f2a 03       		.byte	0x3
 5085 0f2b 00000000 		.4byte	buffer_tx
 5086 0f2f 20       		.uleb128 0x20
 5087 0f30 73050000 		.4byte	.LASF172
 5088 0f34 05       		.byte	0x5
 5089 0f35 68       		.byte	0x68
 5090 0f36 FC0E0000 		.4byte	0xefc
 5091 0f3a 05       		.uleb128 0x5
 5092 0f3b 03       		.byte	0x3
 5093 0f3c 00000000 		.4byte	buffer_txDisplay
 5094 0f40 20       		.uleb128 0x20
 5095 0f41 29090000 		.4byte	.LASF173
 5096 0f45 05       		.byte	0x5
 5097 0f46 69       		.byte	0x69
 5098 0f47 8D000000 		.4byte	0x8d
 5099 0f4b 05       		.uleb128 0x5
 5100 0f4c 03       		.byte	0x3
 5101 0f4d 00000000 		.4byte	intIDStation
 5102 0f51 20       		.uleb128 0x20
 5103 0f52 3D070000 		.4byte	.LASF174
 5104 0f56 05       		.byte	0x5
 5105 0f57 6A       		.byte	0x6a
 5106 0f58 E10C0000 		.4byte	0xce1
 5107 0f5c 05       		.uleb128 0x5
 5108 0f5d 03       		.byte	0x3
 5109 0f5e 00000000 		.4byte	Encabezado1
 5110 0f62 20       		.uleb128 0x20
 5111 0f63 49070000 		.4byte	.LASF175
 5112 0f67 05       		.byte	0x5
 5113 0f68 6B       		.byte	0x6b
ARM GAS  C:\Users\RECEPC~1\AppData\Local\Temp\ccXtGlXn.s 			page 106


 5114 0f69 E10C0000 		.4byte	0xce1
 5115 0f6d 05       		.uleb128 0x5
 5116 0f6e 03       		.byte	0x3
 5117 0f6f 00000000 		.4byte	Encabezado2
 5118 0f73 20       		.uleb128 0x20
 5119 0f74 55070000 		.4byte	.LASF176
 5120 0f78 05       		.byte	0x5
 5121 0f79 6C       		.byte	0x6c
 5122 0f7a E10C0000 		.4byte	0xce1
 5123 0f7e 05       		.uleb128 0x5
 5124 0f7f 03       		.byte	0x3
 5125 0f80 00000000 		.4byte	Encabezado3
 5126 0f84 20       		.uleb128 0x20
 5127 0f85 61070000 		.4byte	.LASF177
 5128 0f89 05       		.byte	0x5
 5129 0f8a 6D       		.byte	0x6d
 5130 0f8b E10C0000 		.4byte	0xce1
 5131 0f8f 05       		.uleb128 0x5
 5132 0f90 03       		.byte	0x3
 5133 0f91 00000000 		.4byte	Encabezado4
 5134 0f95 20       		.uleb128 0x20
 5135 0f96 DA060000 		.4byte	.LASF178
 5136 0f9a 05       		.byte	0x5
 5137 0f9b 6E       		.byte	0x6e
 5138 0f9c 81000000 		.4byte	0x81
 5139 0fa0 05       		.uleb128 0x5
 5140 0fa1 03       		.byte	0x3
 5141 0fa2 00000000 		.4byte	CopiasCredito
 5142 0fa6 20       		.uleb128 0x20
 5143 0fa7 71000000 		.4byte	.LASF179
 5144 0fab 05       		.byte	0x5
 5145 0fac 6F       		.byte	0x6f
 5146 0fad 6B030000 		.4byte	0x36b
 5147 0fb1 05       		.uleb128 0x5
 5148 0fb2 03       		.byte	0x3
 5149 0fb3 00000000 		.4byte	GradesHose
 5150 0fb7 20       		.uleb128 0x20
 5151 0fb8 E2010000 		.4byte	.LASF180
 5152 0fbc 05       		.byte	0x5
 5153 0fbd A8       		.byte	0xa8
 5154 0fbe 01010000 		.4byte	0x101
 5155 0fc2 05       		.uleb128 0x5
 5156 0fc3 03       		.byte	0x3
 5157 0fc4 00000000 		.4byte	bufferDisplay1
 5158 0fc8 20       		.uleb128 0x20
 5159 0fc9 A8060000 		.4byte	.LASF181
 5160 0fcd 05       		.byte	0x5
 5161 0fce A9       		.byte	0xa9
 5162 0fcf 01010000 		.4byte	0x101
 5163 0fd3 05       		.uleb128 0x5
 5164 0fd4 03       		.byte	0x3
 5165 0fd5 00000000 		.4byte	bufferDisplay2
 5166 0fd9 20       		.uleb128 0x20
 5167 0fda FF010000 		.4byte	.LASF182
 5168 0fde 05       		.byte	0x5
 5169 0fdf AA       		.byte	0xaa
 5170 0fe0 01010000 		.4byte	0x101
ARM GAS  C:\Users\RECEPC~1\AppData\Local\Temp\ccXtGlXn.s 			page 107


 5171 0fe4 05       		.uleb128 0x5
 5172 0fe5 03       		.byte	0x3
 5173 0fe6 00000000 		.4byte	bufferDisplay3
 5174 0fea 20       		.uleb128 0x20
 5175 0feb CB060000 		.4byte	.LASF183
 5176 0fef 05       		.byte	0x5
 5177 0ff0 AB       		.byte	0xab
 5178 0ff1 01010000 		.4byte	0x101
 5179 0ff5 05       		.uleb128 0x5
 5180 0ff6 03       		.byte	0x3
 5181 0ff7 00000000 		.4byte	bufferDisplay4
 5182 0ffb 20       		.uleb128 0x20
 5183 0ffc 2F010000 		.4byte	.LASF184
 5184 1000 05       		.byte	0x5
 5185 1001 CF       		.byte	0xcf
 5186 1002 B7040000 		.4byte	0x4b7
 5187 1006 05       		.uleb128 0x5
 5188 1007 03       		.byte	0x3
 5189 1008 00000000 		.4byte	side
 5190 100c 22       		.uleb128 0x22
 5191 100d 7D090000 		.4byte	.LASF185
 5192 1011 EF000000 		.4byte	0xef
 5193 1015 29100000 		.4byte	0x1029
 5194 1019 23       		.uleb128 0x23
 5195 101a EF000000 		.4byte	0xef
 5196 101e 23       		.uleb128 0x23
 5197 101f 72050000 		.4byte	0x572
 5198 1023 23       		.uleb128 0x23
 5199 1024 E8000000 		.4byte	0xe8
 5200 1028 00       		.byte	0
 5201 1029 24       		.uleb128 0x24
 5202 102a 21000000 		.4byte	.LASF186
 5203 102e 07       		.byte	0x7
 5204 102f 8A       		.byte	0x8a
 5205 1030 3A100000 		.4byte	0x103a
 5206 1034 23       		.uleb128 0x23
 5207 1035 81000000 		.4byte	0x81
 5208 1039 00       		.byte	0
 5209 103a 24       		.uleb128 0x24
 5210 103b 19000000 		.4byte	.LASF187
 5211 103f 08       		.byte	0x8
 5212 1040 77       		.byte	0x77
 5213 1041 4B100000 		.4byte	0x104b
 5214 1045 23       		.uleb128 0x23
 5215 1046 99000000 		.4byte	0x99
 5216 104a 00       		.byte	0
 5217 104b 25       		.uleb128 0x25
 5218 104c 9A050000 		.4byte	.LASF190
 5219 1050 09       		.byte	0x9
 5220 1051 26       		.byte	0x26
 5221 1052 81000000 		.4byte	0x81
 5222 1056 6A100000 		.4byte	0x106a
 5223 105a 23       		.uleb128 0x23
 5224 105b 81000000 		.4byte	0x81
 5225 105f 23       		.uleb128 0x23
 5226 1060 81000000 		.4byte	0x81
 5227 1064 23       		.uleb128 0x23
ARM GAS  C:\Users\RECEPC~1\AppData\Local\Temp\ccXtGlXn.s 			page 108


 5228 1065 0B060000 		.4byte	0x60b
 5229 1069 00       		.byte	0
 5230 106a 26       		.uleb128 0x26
 5231 106b 87020000 		.4byte	.LASF188
 5232 106f 07       		.byte	0x7
 5233 1070 73       		.byte	0x73
 5234 1071 8D000000 		.4byte	0x8d
 5235 1075 26       		.uleb128 0x26
 5236 1076 00000000 		.4byte	.LASF189
 5237 107a 07       		.byte	0x7
 5238 107b 6F       		.byte	0x6f
 5239 107c 81000000 		.4byte	0x81
 5240 1080 25       		.uleb128 0x25
 5241 1081 84060000 		.4byte	.LASF191
 5242 1085 09       		.byte	0x9
 5243 1086 25       		.byte	0x25
 5244 1087 81000000 		.4byte	0x81
 5245 108b 95100000 		.4byte	0x1095
 5246 108f 23       		.uleb128 0x23
 5247 1090 81000000 		.4byte	0x81
 5248 1094 00       		.byte	0
 5249 1095 26       		.uleb128 0x26
 5250 1096 F6050000 		.4byte	.LASF192
 5251 109a 0A       		.byte	0xa
 5252 109b 23       		.byte	0x23
 5253 109c 81000000 		.4byte	0x81
 5254 10a0 26       		.uleb128 0x26
 5255 10a1 C2010000 		.4byte	.LASF193
 5256 10a5 0A       		.byte	0xa
 5257 10a6 24       		.byte	0x24
 5258 10a7 81000000 		.4byte	0x81
 5259 10ab 25       		.uleb128 0x25
 5260 10ac AC040000 		.4byte	.LASF194
 5261 10b0 0B       		.byte	0xb
 5262 10b1 21       		.byte	0x21
 5263 10b2 D2000000 		.4byte	0xd2
 5264 10b6 C5100000 		.4byte	0x10c5
 5265 10ba 23       		.uleb128 0x23
 5266 10bb 81000000 		.4byte	0x81
 5267 10bf 23       		.uleb128 0x23
 5268 10c0 8D000000 		.4byte	0x8d
 5269 10c4 00       		.byte	0
 5270 10c5 25       		.uleb128 0x25
 5271 10c6 7B030000 		.4byte	.LASF195
 5272 10ca 0B       		.byte	0xb
 5273 10cb 23       		.byte	0x23
 5274 10cc 81000000 		.4byte	0x81
 5275 10d0 DA100000 		.4byte	0x10da
 5276 10d4 23       		.uleb128 0x23
 5277 10d5 8D000000 		.4byte	0x8d
 5278 10d9 00       		.byte	0
 5279 10da 24       		.uleb128 0x24
 5280 10db F6010000 		.4byte	.LASF196
 5281 10df 0C       		.byte	0xc
 5282 10e0 25       		.byte	0x25
 5283 10e1 F0100000 		.4byte	0x10f0
 5284 10e5 23       		.uleb128 0x23
ARM GAS  C:\Users\RECEPC~1\AppData\Local\Temp\ccXtGlXn.s 			page 109


 5285 10e6 81000000 		.4byte	0x81
 5286 10ea 23       		.uleb128 0x23
 5287 10eb 81000000 		.4byte	0x81
 5288 10ef 00       		.byte	0
 5289 10f0 27       		.uleb128 0x27
 5290 10f1 FD090000 		.4byte	.LASF201
 5291 10f5 07       		.byte	0x7
 5292 10f6 75       		.byte	0x75
 5293 10f7 00       		.byte	0
 5294              		.section	.debug_abbrev,"",%progbits
 5295              	.Ldebug_abbrev0:
 5296 0000 01       		.uleb128 0x1
 5297 0001 11       		.uleb128 0x11
 5298 0002 01       		.byte	0x1
 5299 0003 25       		.uleb128 0x25
 5300 0004 0E       		.uleb128 0xe
 5301 0005 13       		.uleb128 0x13
 5302 0006 0B       		.uleb128 0xb
 5303 0007 03       		.uleb128 0x3
 5304 0008 0E       		.uleb128 0xe
 5305 0009 1B       		.uleb128 0x1b
 5306 000a 0E       		.uleb128 0xe
 5307 000b 55       		.uleb128 0x55
 5308 000c 17       		.uleb128 0x17
 5309 000d 11       		.uleb128 0x11
 5310 000e 01       		.uleb128 0x1
 5311 000f 10       		.uleb128 0x10
 5312 0010 17       		.uleb128 0x17
 5313 0011 00       		.byte	0
 5314 0012 00       		.byte	0
 5315 0013 02       		.uleb128 0x2
 5316 0014 24       		.uleb128 0x24
 5317 0015 00       		.byte	0
 5318 0016 0B       		.uleb128 0xb
 5319 0017 0B       		.uleb128 0xb
 5320 0018 3E       		.uleb128 0x3e
 5321 0019 0B       		.uleb128 0xb
 5322 001a 03       		.uleb128 0x3
 5323 001b 0E       		.uleb128 0xe
 5324 001c 00       		.byte	0
 5325 001d 00       		.byte	0
 5326 001e 03       		.uleb128 0x3
 5327 001f 16       		.uleb128 0x16
 5328 0020 00       		.byte	0
 5329 0021 03       		.uleb128 0x3
 5330 0022 0E       		.uleb128 0xe
 5331 0023 3A       		.uleb128 0x3a
 5332 0024 0B       		.uleb128 0xb
 5333 0025 3B       		.uleb128 0x3b
 5334 0026 0B       		.uleb128 0xb
 5335 0027 49       		.uleb128 0x49
 5336 0028 13       		.uleb128 0x13
 5337 0029 00       		.byte	0
 5338 002a 00       		.byte	0
 5339 002b 04       		.uleb128 0x4
 5340 002c 24       		.uleb128 0x24
 5341 002d 00       		.byte	0
ARM GAS  C:\Users\RECEPC~1\AppData\Local\Temp\ccXtGlXn.s 			page 110


 5342 002e 0B       		.uleb128 0xb
 5343 002f 0B       		.uleb128 0xb
 5344 0030 3E       		.uleb128 0x3e
 5345 0031 0B       		.uleb128 0xb
 5346 0032 03       		.uleb128 0x3
 5347 0033 08       		.uleb128 0x8
 5348 0034 00       		.byte	0
 5349 0035 00       		.byte	0
 5350 0036 05       		.uleb128 0x5
 5351 0037 16       		.uleb128 0x16
 5352 0038 00       		.byte	0
 5353 0039 03       		.uleb128 0x3
 5354 003a 0E       		.uleb128 0xe
 5355 003b 3A       		.uleb128 0x3a
 5356 003c 0B       		.uleb128 0xb
 5357 003d 3B       		.uleb128 0x3b
 5358 003e 05       		.uleb128 0x5
 5359 003f 49       		.uleb128 0x49
 5360 0040 13       		.uleb128 0x13
 5361 0041 00       		.byte	0
 5362 0042 00       		.byte	0
 5363 0043 06       		.uleb128 0x6
 5364 0044 35       		.uleb128 0x35
 5365 0045 00       		.byte	0
 5366 0046 49       		.uleb128 0x49
 5367 0047 13       		.uleb128 0x13
 5368 0048 00       		.byte	0
 5369 0049 00       		.byte	0
 5370 004a 07       		.uleb128 0x7
 5371 004b 0F       		.uleb128 0xf
 5372 004c 00       		.byte	0
 5373 004d 0B       		.uleb128 0xb
 5374 004e 0B       		.uleb128 0xb
 5375 004f 00       		.byte	0
 5376 0050 00       		.byte	0
 5377 0051 08       		.uleb128 0x8
 5378 0052 01       		.uleb128 0x1
 5379 0053 01       		.byte	0x1
 5380 0054 49       		.uleb128 0x49
 5381 0055 13       		.uleb128 0x13
 5382 0056 01       		.uleb128 0x1
 5383 0057 13       		.uleb128 0x13
 5384 0058 00       		.byte	0
 5385 0059 00       		.byte	0
 5386 005a 09       		.uleb128 0x9
 5387 005b 21       		.uleb128 0x21
 5388 005c 00       		.byte	0
 5389 005d 49       		.uleb128 0x49
 5390 005e 13       		.uleb128 0x13
 5391 005f 2F       		.uleb128 0x2f
 5392 0060 0B       		.uleb128 0xb
 5393 0061 00       		.byte	0
 5394 0062 00       		.byte	0
 5395 0063 0A       		.uleb128 0xa
 5396 0064 13       		.uleb128 0x13
 5397 0065 01       		.byte	0x1
 5398 0066 03       		.uleb128 0x3
ARM GAS  C:\Users\RECEPC~1\AppData\Local\Temp\ccXtGlXn.s 			page 111


 5399 0067 0E       		.uleb128 0xe
 5400 0068 0B       		.uleb128 0xb
 5401 0069 05       		.uleb128 0x5
 5402 006a 3A       		.uleb128 0x3a
 5403 006b 0B       		.uleb128 0xb
 5404 006c 3B       		.uleb128 0x3b
 5405 006d 0B       		.uleb128 0xb
 5406 006e 01       		.uleb128 0x1
 5407 006f 13       		.uleb128 0x13
 5408 0070 00       		.byte	0
 5409 0071 00       		.byte	0
 5410 0072 0B       		.uleb128 0xb
 5411 0073 0D       		.uleb128 0xd
 5412 0074 00       		.byte	0
 5413 0075 03       		.uleb128 0x3
 5414 0076 0E       		.uleb128 0xe
 5415 0077 3A       		.uleb128 0x3a
 5416 0078 0B       		.uleb128 0xb
 5417 0079 3B       		.uleb128 0x3b
 5418 007a 0B       		.uleb128 0xb
 5419 007b 49       		.uleb128 0x49
 5420 007c 13       		.uleb128 0x13
 5421 007d 38       		.uleb128 0x38
 5422 007e 0B       		.uleb128 0xb
 5423 007f 00       		.byte	0
 5424 0080 00       		.byte	0
 5425 0081 0C       		.uleb128 0xc
 5426 0082 0D       		.uleb128 0xd
 5427 0083 00       		.byte	0
 5428 0084 03       		.uleb128 0x3
 5429 0085 0E       		.uleb128 0xe
 5430 0086 3A       		.uleb128 0x3a
 5431 0087 0B       		.uleb128 0xb
 5432 0088 3B       		.uleb128 0x3b
 5433 0089 0B       		.uleb128 0xb
 5434 008a 49       		.uleb128 0x49
 5435 008b 13       		.uleb128 0x13
 5436 008c 38       		.uleb128 0x38
 5437 008d 05       		.uleb128 0x5
 5438 008e 00       		.byte	0
 5439 008f 00       		.byte	0
 5440 0090 0D       		.uleb128 0xd
 5441 0091 0D       		.uleb128 0xd
 5442 0092 00       		.byte	0
 5443 0093 03       		.uleb128 0x3
 5444 0094 08       		.uleb128 0x8
 5445 0095 3A       		.uleb128 0x3a
 5446 0096 0B       		.uleb128 0xb
 5447 0097 3B       		.uleb128 0x3b
 5448 0098 0B       		.uleb128 0xb
 5449 0099 49       		.uleb128 0x49
 5450 009a 13       		.uleb128 0x13
 5451 009b 38       		.uleb128 0x38
 5452 009c 0B       		.uleb128 0xb
 5453 009d 00       		.byte	0
 5454 009e 00       		.byte	0
 5455 009f 0E       		.uleb128 0xe
ARM GAS  C:\Users\RECEPC~1\AppData\Local\Temp\ccXtGlXn.s 			page 112


 5456 00a0 0D       		.uleb128 0xd
 5457 00a1 00       		.byte	0
 5458 00a2 03       		.uleb128 0x3
 5459 00a3 08       		.uleb128 0x8
 5460 00a4 3A       		.uleb128 0x3a
 5461 00a5 0B       		.uleb128 0xb
 5462 00a6 3B       		.uleb128 0x3b
 5463 00a7 0B       		.uleb128 0xb
 5464 00a8 49       		.uleb128 0x49
 5465 00a9 13       		.uleb128 0x13
 5466 00aa 38       		.uleb128 0x38
 5467 00ab 05       		.uleb128 0x5
 5468 00ac 00       		.byte	0
 5469 00ad 00       		.byte	0
 5470 00ae 0F       		.uleb128 0xf
 5471 00af 04       		.uleb128 0x4
 5472 00b0 01       		.byte	0x1
 5473 00b1 03       		.uleb128 0x3
 5474 00b2 0E       		.uleb128 0xe
 5475 00b3 0B       		.uleb128 0xb
 5476 00b4 0B       		.uleb128 0xb
 5477 00b5 3A       		.uleb128 0x3a
 5478 00b6 0B       		.uleb128 0xb
 5479 00b7 3B       		.uleb128 0x3b
 5480 00b8 05       		.uleb128 0x5
 5481 00b9 01       		.uleb128 0x1
 5482 00ba 13       		.uleb128 0x13
 5483 00bb 00       		.byte	0
 5484 00bc 00       		.byte	0
 5485 00bd 10       		.uleb128 0x10
 5486 00be 28       		.uleb128 0x28
 5487 00bf 00       		.byte	0
 5488 00c0 03       		.uleb128 0x3
 5489 00c1 0E       		.uleb128 0xe
 5490 00c2 1C       		.uleb128 0x1c
 5491 00c3 0D       		.uleb128 0xd
 5492 00c4 00       		.byte	0
 5493 00c5 00       		.byte	0
 5494 00c6 11       		.uleb128 0x11
 5495 00c7 0F       		.uleb128 0xf
 5496 00c8 00       		.byte	0
 5497 00c9 0B       		.uleb128 0xb
 5498 00ca 0B       		.uleb128 0xb
 5499 00cb 49       		.uleb128 0x49
 5500 00cc 13       		.uleb128 0x13
 5501 00cd 00       		.byte	0
 5502 00ce 00       		.byte	0
 5503 00cf 12       		.uleb128 0x12
 5504 00d0 26       		.uleb128 0x26
 5505 00d1 00       		.byte	0
 5506 00d2 00       		.byte	0
 5507 00d3 00       		.byte	0
 5508 00d4 13       		.uleb128 0x13
 5509 00d5 2E       		.uleb128 0x2e
 5510 00d6 01       		.byte	0x1
 5511 00d7 3F       		.uleb128 0x3f
 5512 00d8 19       		.uleb128 0x19
ARM GAS  C:\Users\RECEPC~1\AppData\Local\Temp\ccXtGlXn.s 			page 113


 5513 00d9 03       		.uleb128 0x3
 5514 00da 0E       		.uleb128 0xe
 5515 00db 3A       		.uleb128 0x3a
 5516 00dc 0B       		.uleb128 0xb
 5517 00dd 3B       		.uleb128 0x3b
 5518 00de 0B       		.uleb128 0xb
 5519 00df 27       		.uleb128 0x27
 5520 00e0 19       		.uleb128 0x19
 5521 00e1 49       		.uleb128 0x49
 5522 00e2 13       		.uleb128 0x13
 5523 00e3 11       		.uleb128 0x11
 5524 00e4 01       		.uleb128 0x1
 5525 00e5 12       		.uleb128 0x12
 5526 00e6 06       		.uleb128 0x6
 5527 00e7 40       		.uleb128 0x40
 5528 00e8 18       		.uleb128 0x18
 5529 00e9 9742     		.uleb128 0x2117
 5530 00eb 19       		.uleb128 0x19
 5531 00ec 01       		.uleb128 0x1
 5532 00ed 13       		.uleb128 0x13
 5533 00ee 00       		.byte	0
 5534 00ef 00       		.byte	0
 5535 00f0 14       		.uleb128 0x14
 5536 00f1 05       		.uleb128 0x5
 5537 00f2 00       		.byte	0
 5538 00f3 03       		.uleb128 0x3
 5539 00f4 0E       		.uleb128 0xe
 5540 00f5 3A       		.uleb128 0x3a
 5541 00f6 0B       		.uleb128 0xb
 5542 00f7 3B       		.uleb128 0x3b
 5543 00f8 0B       		.uleb128 0xb
 5544 00f9 49       		.uleb128 0x49
 5545 00fa 13       		.uleb128 0x13
 5546 00fb 02       		.uleb128 0x2
 5547 00fc 17       		.uleb128 0x17
 5548 00fd 00       		.byte	0
 5549 00fe 00       		.byte	0
 5550 00ff 15       		.uleb128 0x15
 5551 0100 34       		.uleb128 0x34
 5552 0101 00       		.byte	0
 5553 0102 03       		.uleb128 0x3
 5554 0103 0E       		.uleb128 0xe
 5555 0104 3A       		.uleb128 0x3a
 5556 0105 0B       		.uleb128 0xb
 5557 0106 3B       		.uleb128 0x3b
 5558 0107 0B       		.uleb128 0xb
 5559 0108 49       		.uleb128 0x49
 5560 0109 13       		.uleb128 0x13
 5561 010a 02       		.uleb128 0x2
 5562 010b 17       		.uleb128 0x17
 5563 010c 00       		.byte	0
 5564 010d 00       		.byte	0
 5565 010e 16       		.uleb128 0x16
 5566 010f 34       		.uleb128 0x34
 5567 0110 00       		.byte	0
 5568 0111 03       		.uleb128 0x3
 5569 0112 08       		.uleb128 0x8
ARM GAS  C:\Users\RECEPC~1\AppData\Local\Temp\ccXtGlXn.s 			page 114


 5570 0113 3A       		.uleb128 0x3a
 5571 0114 0B       		.uleb128 0xb
 5572 0115 3B       		.uleb128 0x3b
 5573 0116 0B       		.uleb128 0xb
 5574 0117 49       		.uleb128 0x49
 5575 0118 13       		.uleb128 0x13
 5576 0119 02       		.uleb128 0x2
 5577 011a 17       		.uleb128 0x17
 5578 011b 00       		.byte	0
 5579 011c 00       		.byte	0
 5580 011d 17       		.uleb128 0x17
 5581 011e 34       		.uleb128 0x34
 5582 011f 00       		.byte	0
 5583 0120 03       		.uleb128 0x3
 5584 0121 0E       		.uleb128 0xe
 5585 0122 3A       		.uleb128 0x3a
 5586 0123 0B       		.uleb128 0xb
 5587 0124 3B       		.uleb128 0x3b
 5588 0125 0B       		.uleb128 0xb
 5589 0126 49       		.uleb128 0x49
 5590 0127 13       		.uleb128 0x13
 5591 0128 02       		.uleb128 0x2
 5592 0129 18       		.uleb128 0x18
 5593 012a 00       		.byte	0
 5594 012b 00       		.byte	0
 5595 012c 18       		.uleb128 0x18
 5596 012d 898201   		.uleb128 0x4109
 5597 0130 01       		.byte	0x1
 5598 0131 11       		.uleb128 0x11
 5599 0132 01       		.uleb128 0x1
 5600 0133 31       		.uleb128 0x31
 5601 0134 13       		.uleb128 0x13
 5602 0135 00       		.byte	0
 5603 0136 00       		.byte	0
 5604 0137 19       		.uleb128 0x19
 5605 0138 8A8201   		.uleb128 0x410a
 5606 013b 00       		.byte	0
 5607 013c 02       		.uleb128 0x2
 5608 013d 18       		.uleb128 0x18
 5609 013e 9142     		.uleb128 0x2111
 5610 0140 18       		.uleb128 0x18
 5611 0141 00       		.byte	0
 5612 0142 00       		.byte	0
 5613 0143 1A       		.uleb128 0x1a
 5614 0144 2E       		.uleb128 0x2e
 5615 0145 01       		.byte	0x1
 5616 0146 3F       		.uleb128 0x3f
 5617 0147 19       		.uleb128 0x19
 5618 0148 03       		.uleb128 0x3
 5619 0149 0E       		.uleb128 0xe
 5620 014a 3A       		.uleb128 0x3a
 5621 014b 0B       		.uleb128 0xb
 5622 014c 3B       		.uleb128 0x3b
 5623 014d 05       		.uleb128 0x5
 5624 014e 27       		.uleb128 0x27
 5625 014f 19       		.uleb128 0x19
 5626 0150 11       		.uleb128 0x11
ARM GAS  C:\Users\RECEPC~1\AppData\Local\Temp\ccXtGlXn.s 			page 115


 5627 0151 01       		.uleb128 0x1
 5628 0152 12       		.uleb128 0x12
 5629 0153 06       		.uleb128 0x6
 5630 0154 40       		.uleb128 0x40
 5631 0155 18       		.uleb128 0x18
 5632 0156 9742     		.uleb128 0x2117
 5633 0158 19       		.uleb128 0x19
 5634 0159 01       		.uleb128 0x1
 5635 015a 13       		.uleb128 0x13
 5636 015b 00       		.byte	0
 5637 015c 00       		.byte	0
 5638 015d 1B       		.uleb128 0x1b
 5639 015e 34       		.uleb128 0x34
 5640 015f 00       		.byte	0
 5641 0160 03       		.uleb128 0x3
 5642 0161 08       		.uleb128 0x8
 5643 0162 3A       		.uleb128 0x3a
 5644 0163 0B       		.uleb128 0xb
 5645 0164 3B       		.uleb128 0x3b
 5646 0165 05       		.uleb128 0x5
 5647 0166 49       		.uleb128 0x49
 5648 0167 13       		.uleb128 0x13
 5649 0168 02       		.uleb128 0x2
 5650 0169 17       		.uleb128 0x17
 5651 016a 00       		.byte	0
 5652 016b 00       		.byte	0
 5653 016c 1C       		.uleb128 0x1c
 5654 016d 898201   		.uleb128 0x4109
 5655 0170 01       		.byte	0x1
 5656 0171 11       		.uleb128 0x11
 5657 0172 01       		.uleb128 0x1
 5658 0173 31       		.uleb128 0x31
 5659 0174 13       		.uleb128 0x13
 5660 0175 01       		.uleb128 0x1
 5661 0176 13       		.uleb128 0x13
 5662 0177 00       		.byte	0
 5663 0178 00       		.byte	0
 5664 0179 1D       		.uleb128 0x1d
 5665 017a 898201   		.uleb128 0x4109
 5666 017d 00       		.byte	0
 5667 017e 11       		.uleb128 0x11
 5668 017f 01       		.uleb128 0x1
 5669 0180 31       		.uleb128 0x31
 5670 0181 13       		.uleb128 0x13
 5671 0182 00       		.byte	0
 5672 0183 00       		.byte	0
 5673 0184 1E       		.uleb128 0x1e
 5674 0185 2E       		.uleb128 0x2e
 5675 0186 01       		.byte	0x1
 5676 0187 3F       		.uleb128 0x3f
 5677 0188 19       		.uleb128 0x19
 5678 0189 03       		.uleb128 0x3
 5679 018a 0E       		.uleb128 0xe
 5680 018b 3A       		.uleb128 0x3a
 5681 018c 0B       		.uleb128 0xb
 5682 018d 3B       		.uleb128 0x3b
 5683 018e 0B       		.uleb128 0xb
ARM GAS  C:\Users\RECEPC~1\AppData\Local\Temp\ccXtGlXn.s 			page 116


 5684 018f 27       		.uleb128 0x27
 5685 0190 19       		.uleb128 0x19
 5686 0191 11       		.uleb128 0x11
 5687 0192 01       		.uleb128 0x1
 5688 0193 12       		.uleb128 0x12
 5689 0194 06       		.uleb128 0x6
 5690 0195 40       		.uleb128 0x40
 5691 0196 18       		.uleb128 0x18
 5692 0197 9742     		.uleb128 0x2117
 5693 0199 19       		.uleb128 0x19
 5694 019a 01       		.uleb128 0x1
 5695 019b 13       		.uleb128 0x13
 5696 019c 00       		.byte	0
 5697 019d 00       		.byte	0
 5698 019e 1F       		.uleb128 0x1f
 5699 019f 34       		.uleb128 0x34
 5700 01a0 00       		.byte	0
 5701 01a1 03       		.uleb128 0x3
 5702 01a2 0E       		.uleb128 0xe
 5703 01a3 3A       		.uleb128 0x3a
 5704 01a4 0B       		.uleb128 0xb
 5705 01a5 3B       		.uleb128 0x3b
 5706 01a6 05       		.uleb128 0x5
 5707 01a7 49       		.uleb128 0x49
 5708 01a8 13       		.uleb128 0x13
 5709 01a9 3F       		.uleb128 0x3f
 5710 01aa 19       		.uleb128 0x19
 5711 01ab 3C       		.uleb128 0x3c
 5712 01ac 19       		.uleb128 0x19
 5713 01ad 00       		.byte	0
 5714 01ae 00       		.byte	0
 5715 01af 20       		.uleb128 0x20
 5716 01b0 34       		.uleb128 0x34
 5717 01b1 00       		.byte	0
 5718 01b2 03       		.uleb128 0x3
 5719 01b3 0E       		.uleb128 0xe
 5720 01b4 3A       		.uleb128 0x3a
 5721 01b5 0B       		.uleb128 0xb
 5722 01b6 3B       		.uleb128 0x3b
 5723 01b7 0B       		.uleb128 0xb
 5724 01b8 49       		.uleb128 0x49
 5725 01b9 13       		.uleb128 0x13
 5726 01ba 3F       		.uleb128 0x3f
 5727 01bb 19       		.uleb128 0x19
 5728 01bc 02       		.uleb128 0x2
 5729 01bd 18       		.uleb128 0x18
 5730 01be 00       		.byte	0
 5731 01bf 00       		.byte	0
 5732 01c0 21       		.uleb128 0x21
 5733 01c1 21       		.uleb128 0x21
 5734 01c2 00       		.byte	0
 5735 01c3 49       		.uleb128 0x49
 5736 01c4 13       		.uleb128 0x13
 5737 01c5 2F       		.uleb128 0x2f
 5738 01c6 05       		.uleb128 0x5
 5739 01c7 00       		.byte	0
 5740 01c8 00       		.byte	0
ARM GAS  C:\Users\RECEPC~1\AppData\Local\Temp\ccXtGlXn.s 			page 117


 5741 01c9 22       		.uleb128 0x22
 5742 01ca 2E       		.uleb128 0x2e
 5743 01cb 01       		.byte	0x1
 5744 01cc 3F       		.uleb128 0x3f
 5745 01cd 19       		.uleb128 0x19
 5746 01ce 03       		.uleb128 0x3
 5747 01cf 0E       		.uleb128 0xe
 5748 01d0 27       		.uleb128 0x27
 5749 01d1 19       		.uleb128 0x19
 5750 01d2 49       		.uleb128 0x49
 5751 01d3 13       		.uleb128 0x13
 5752 01d4 34       		.uleb128 0x34
 5753 01d5 19       		.uleb128 0x19
 5754 01d6 3C       		.uleb128 0x3c
 5755 01d7 19       		.uleb128 0x19
 5756 01d8 01       		.uleb128 0x1
 5757 01d9 13       		.uleb128 0x13
 5758 01da 00       		.byte	0
 5759 01db 00       		.byte	0
 5760 01dc 23       		.uleb128 0x23
 5761 01dd 05       		.uleb128 0x5
 5762 01de 00       		.byte	0
 5763 01df 49       		.uleb128 0x49
 5764 01e0 13       		.uleb128 0x13
 5765 01e1 00       		.byte	0
 5766 01e2 00       		.byte	0
 5767 01e3 24       		.uleb128 0x24
 5768 01e4 2E       		.uleb128 0x2e
 5769 01e5 01       		.byte	0x1
 5770 01e6 3F       		.uleb128 0x3f
 5771 01e7 19       		.uleb128 0x19
 5772 01e8 03       		.uleb128 0x3
 5773 01e9 0E       		.uleb128 0xe
 5774 01ea 3A       		.uleb128 0x3a
 5775 01eb 0B       		.uleb128 0xb
 5776 01ec 3B       		.uleb128 0x3b
 5777 01ed 0B       		.uleb128 0xb
 5778 01ee 27       		.uleb128 0x27
 5779 01ef 19       		.uleb128 0x19
 5780 01f0 3C       		.uleb128 0x3c
 5781 01f1 19       		.uleb128 0x19
 5782 01f2 01       		.uleb128 0x1
 5783 01f3 13       		.uleb128 0x13
 5784 01f4 00       		.byte	0
 5785 01f5 00       		.byte	0
 5786 01f6 25       		.uleb128 0x25
 5787 01f7 2E       		.uleb128 0x2e
 5788 01f8 01       		.byte	0x1
 5789 01f9 3F       		.uleb128 0x3f
 5790 01fa 19       		.uleb128 0x19
 5791 01fb 03       		.uleb128 0x3
 5792 01fc 0E       		.uleb128 0xe
 5793 01fd 3A       		.uleb128 0x3a
 5794 01fe 0B       		.uleb128 0xb
 5795 01ff 3B       		.uleb128 0x3b
 5796 0200 0B       		.uleb128 0xb
 5797 0201 27       		.uleb128 0x27
ARM GAS  C:\Users\RECEPC~1\AppData\Local\Temp\ccXtGlXn.s 			page 118


 5798 0202 19       		.uleb128 0x19
 5799 0203 49       		.uleb128 0x49
 5800 0204 13       		.uleb128 0x13
 5801 0205 3C       		.uleb128 0x3c
 5802 0206 19       		.uleb128 0x19
 5803 0207 01       		.uleb128 0x1
 5804 0208 13       		.uleb128 0x13
 5805 0209 00       		.byte	0
 5806 020a 00       		.byte	0
 5807 020b 26       		.uleb128 0x26
 5808 020c 2E       		.uleb128 0x2e
 5809 020d 00       		.byte	0
 5810 020e 3F       		.uleb128 0x3f
 5811 020f 19       		.uleb128 0x19
 5812 0210 03       		.uleb128 0x3
 5813 0211 0E       		.uleb128 0xe
 5814 0212 3A       		.uleb128 0x3a
 5815 0213 0B       		.uleb128 0xb
 5816 0214 3B       		.uleb128 0x3b
 5817 0215 0B       		.uleb128 0xb
 5818 0216 27       		.uleb128 0x27
 5819 0217 19       		.uleb128 0x19
 5820 0218 49       		.uleb128 0x49
 5821 0219 13       		.uleb128 0x13
 5822 021a 3C       		.uleb128 0x3c
 5823 021b 19       		.uleb128 0x19
 5824 021c 00       		.byte	0
 5825 021d 00       		.byte	0
 5826 021e 27       		.uleb128 0x27
 5827 021f 2E       		.uleb128 0x2e
 5828 0220 00       		.byte	0
 5829 0221 3F       		.uleb128 0x3f
 5830 0222 19       		.uleb128 0x19
 5831 0223 03       		.uleb128 0x3
 5832 0224 0E       		.uleb128 0xe
 5833 0225 3A       		.uleb128 0x3a
 5834 0226 0B       		.uleb128 0xb
 5835 0227 3B       		.uleb128 0x3b
 5836 0228 0B       		.uleb128 0xb
 5837 0229 27       		.uleb128 0x27
 5838 022a 19       		.uleb128 0x19
 5839 022b 3C       		.uleb128 0x3c
 5840 022c 19       		.uleb128 0x19
 5841 022d 00       		.byte	0
 5842 022e 00       		.byte	0
 5843 022f 00       		.byte	0
 5844              		.section	.debug_loc,"",%progbits
 5845              	.Ldebug_loc0:
 5846              	.LLST0:
 5847 0000 00000000 		.4byte	.LVL0
 5848 0004 0A000000 		.4byte	.LVL1
 5849 0008 0100     		.2byte	0x1
 5850 000a 50       		.byte	0x50
 5851 000b 0A000000 		.4byte	.LVL1
 5852 000f 30000000 		.4byte	.LVL9
 5853 0013 0100     		.2byte	0x1
 5854 0015 55       		.byte	0x55
ARM GAS  C:\Users\RECEPC~1\AppData\Local\Temp\ccXtGlXn.s 			page 119


 5855 0016 30000000 		.4byte	.LVL9
 5856 001a 34000000 		.4byte	.LFE63
 5857 001e 0400     		.2byte	0x4
 5858 0020 F3       		.byte	0xf3
 5859 0021 01       		.uleb128 0x1
 5860 0022 50       		.byte	0x50
 5861 0023 9F       		.byte	0x9f
 5862 0024 00000000 		.4byte	0
 5863 0028 00000000 		.4byte	0
 5864              	.LLST1:
 5865 002c 00000000 		.4byte	.LVL0
 5866 0030 0C000000 		.4byte	.LVL2
 5867 0034 0100     		.2byte	0x1
 5868 0036 51       		.byte	0x51
 5869 0037 0C000000 		.4byte	.LVL2
 5870 003b 34000000 		.4byte	.LFE63
 5871 003f 0400     		.2byte	0x4
 5872 0041 F3       		.byte	0xf3
 5873 0042 01       		.uleb128 0x1
 5874 0043 51       		.byte	0x51
 5875 0044 9F       		.byte	0x9f
 5876 0045 00000000 		.4byte	0
 5877 0049 00000000 		.4byte	0
 5878              	.LLST2:
 5879 004d 14000000 		.4byte	.LVL3
 5880 0051 1A000000 		.4byte	.LVL4
 5881 0055 0200     		.2byte	0x2
 5882 0057 30       		.byte	0x30
 5883 0058 9F       		.byte	0x9f
 5884 0059 1A000000 		.4byte	.LVL4
 5885 005d 1E000000 		.4byte	.LVL5
 5886 0061 0100     		.2byte	0x1
 5887 0063 50       		.byte	0x50
 5888 0064 22000000 		.4byte	.LVL6
 5889 0068 34000000 		.4byte	.LFE63
 5890 006c 0100     		.2byte	0x1
 5891 006e 50       		.byte	0x50
 5892 006f 00000000 		.4byte	0
 5893 0073 00000000 		.4byte	0
 5894              	.LLST3:
 5895 0077 1E000000 		.4byte	.LVL5
 5896 007b 22000000 		.4byte	.LVL6
 5897 007f 0100     		.2byte	0x1
 5898 0081 50       		.byte	0x50
 5899 0082 00000000 		.4byte	0
 5900 0086 00000000 		.4byte	0
 5901              	.LLST4:
 5902 008a 14000000 		.4byte	.LVL3
 5903 008e 1A000000 		.4byte	.LVL4
 5904 0092 0200     		.2byte	0x2
 5905 0094 30       		.byte	0x30
 5906 0095 9F       		.byte	0x9f
 5907 0096 1A000000 		.4byte	.LVL4
 5908 009a 24000000 		.4byte	.LVL7
 5909 009e 0100     		.2byte	0x1
 5910 00a0 53       		.byte	0x53
 5911 00a1 26000000 		.4byte	.LVL8
ARM GAS  C:\Users\RECEPC~1\AppData\Local\Temp\ccXtGlXn.s 			page 120


 5912 00a5 34000000 		.4byte	.LFE63
 5913 00a9 0100     		.2byte	0x1
 5914 00ab 53       		.byte	0x53
 5915 00ac 00000000 		.4byte	0
 5916 00b0 00000000 		.4byte	0
 5917              	.LLST5:
 5918 00b4 30000000 		.4byte	.LVL11
 5919 00b8 34000000 		.4byte	.LVL12
 5920 00bc 0200     		.2byte	0x2
 5921 00be 30       		.byte	0x30
 5922 00bf 9F       		.byte	0x9f
 5923 00c0 34000000 		.4byte	.LVL12
 5924 00c4 3E000000 		.4byte	.LVL14
 5925 00c8 0100     		.2byte	0x1
 5926 00ca 54       		.byte	0x54
 5927 00cb 40000000 		.4byte	.LVL15
 5928 00cf 44000000 		.4byte	.LVL16
 5929 00d3 0100     		.2byte	0x1
 5930 00d5 54       		.byte	0x54
 5931 00d6 74000000 		.4byte	.LVL18
 5932 00da 78000000 		.4byte	.LVL19
 5933 00de 0200     		.2byte	0x2
 5934 00e0 30       		.byte	0x30
 5935 00e1 9F       		.byte	0x9f
 5936 00e2 78000000 		.4byte	.LVL19
 5937 00e6 82000000 		.4byte	.LVL21
 5938 00ea 0100     		.2byte	0x1
 5939 00ec 54       		.byte	0x54
 5940 00ed 84000000 		.4byte	.LVL22
 5941 00f1 88000000 		.4byte	.LVL23
 5942 00f5 0100     		.2byte	0x1
 5943 00f7 54       		.byte	0x54
 5944 00f8 B8000000 		.4byte	.LVL25
 5945 00fc BC000000 		.4byte	.LVL26
 5946 0100 0200     		.2byte	0x2
 5947 0102 30       		.byte	0x30
 5948 0103 9F       		.byte	0x9f
 5949 0104 BC000000 		.4byte	.LVL26
 5950 0108 C6000000 		.4byte	.LVL28
 5951 010c 0100     		.2byte	0x1
 5952 010e 54       		.byte	0x54
 5953 010f C8000000 		.4byte	.LVL29
 5954 0113 CC000000 		.4byte	.LVL30
 5955 0117 0100     		.2byte	0x1
 5956 0119 54       		.byte	0x54
 5957 011a FC000000 		.4byte	.LVL32
 5958 011e 00010000 		.4byte	.LVL33
 5959 0122 0200     		.2byte	0x2
 5960 0124 30       		.byte	0x30
 5961 0125 9F       		.byte	0x9f
 5962 0126 00010000 		.4byte	.LVL33
 5963 012a 0A010000 		.4byte	.LVL35
 5964 012e 0100     		.2byte	0x1
 5965 0130 54       		.byte	0x54
 5966 0131 0C010000 		.4byte	.LVL36
 5967 0135 10010000 		.4byte	.LVL37
 5968 0139 0100     		.2byte	0x1
ARM GAS  C:\Users\RECEPC~1\AppData\Local\Temp\ccXtGlXn.s 			page 121


 5969 013b 54       		.byte	0x54
 5970 013c 4E010000 		.4byte	.LVL38
 5971 0140 60010000 		.4byte	.LVL39
 5972 0144 0100     		.2byte	0x1
 5973 0146 54       		.byte	0x54
 5974 0147 62010000 		.4byte	.LVL40
 5975 014b 6A010000 		.4byte	.LVL41
 5976 014f 0100     		.2byte	0x1
 5977 0151 54       		.byte	0x54
 5978 0152 6A010000 		.4byte	.LVL41
 5979 0156 82010000 		.4byte	.LVL42
 5980 015a 0100     		.2byte	0x1
 5981 015c 53       		.byte	0x53
 5982 015d 84010000 		.4byte	.LVL43
 5983 0161 8C010000 		.4byte	.LVL44
 5984 0165 0100     		.2byte	0x1
 5985 0167 53       		.byte	0x53
 5986 0168 9A010000 		.4byte	.LVL45
 5987 016c AC010000 		.4byte	.LVL46
 5988 0170 0100     		.2byte	0x1
 5989 0172 53       		.byte	0x53
 5990 0173 AE010000 		.4byte	.LVL47
 5991 0177 B0010000 		.4byte	.LVL48
 5992 017b 0100     		.2byte	0x1
 5993 017d 53       		.byte	0x53
 5994 017e B2010000 		.4byte	.LVL49
 5995 0182 D8010000 		.4byte	.LVL51
 5996 0186 0100     		.2byte	0x1
 5997 0188 53       		.byte	0x53
 5998 0189 DA010000 		.4byte	.LVL52
 5999 018d E2010000 		.4byte	.LVL53
 6000 0191 0100     		.2byte	0x1
 6001 0193 53       		.byte	0x53
 6002 0194 E4010000 		.4byte	.LVL54
 6003 0198 F1010000 		.4byte	.LVL55-1
 6004 019c 0100     		.2byte	0x1
 6005 019e 53       		.byte	0x53
 6006 019f FC010000 		.4byte	.LVL56
 6007 01a3 FE010000 		.4byte	.LVL57
 6008 01a7 0200     		.2byte	0x2
 6009 01a9 30       		.byte	0x30
 6010 01aa 9F       		.byte	0x9f
 6011 01ab FE010000 		.4byte	.LVL57
 6012 01af 08020000 		.4byte	.LVL59
 6013 01b3 0100     		.2byte	0x1
 6014 01b5 54       		.byte	0x54
 6015 01b6 0A020000 		.4byte	.LVL60
 6016 01ba 22020000 		.4byte	.LVL62
 6017 01be 0100     		.2byte	0x1
 6018 01c0 54       		.byte	0x54
 6019 01c1 64020000 		.4byte	.LVL63
 6020 01c5 76020000 		.4byte	.LVL64
 6021 01c9 0100     		.2byte	0x1
 6022 01cb 54       		.byte	0x54
 6023 01cc 78020000 		.4byte	.LVL65
 6024 01d0 80020000 		.4byte	.LVL66
 6025 01d4 0100     		.2byte	0x1
ARM GAS  C:\Users\RECEPC~1\AppData\Local\Temp\ccXtGlXn.s 			page 122


 6026 01d6 54       		.byte	0x54
 6027 01d7 80020000 		.4byte	.LVL66
 6028 01db 98020000 		.4byte	.LVL67
 6029 01df 0100     		.2byte	0x1
 6030 01e1 53       		.byte	0x53
 6031 01e2 9A020000 		.4byte	.LVL68
 6032 01e6 A2020000 		.4byte	.LVL69
 6033 01ea 0100     		.2byte	0x1
 6034 01ec 53       		.byte	0x53
 6035 01ed B0020000 		.4byte	.LVL70
 6036 01f1 C2020000 		.4byte	.LVL71
 6037 01f5 0100     		.2byte	0x1
 6038 01f7 53       		.byte	0x53
 6039 01f8 C4020000 		.4byte	.LVL72
 6040 01fc C6020000 		.4byte	.LVL73
 6041 0200 0100     		.2byte	0x1
 6042 0202 53       		.byte	0x53
 6043 0203 C8020000 		.4byte	.LVL74
 6044 0207 04030000 		.4byte	.LVL76
 6045 020b 0100     		.2byte	0x1
 6046 020d 53       		.byte	0x53
 6047 020e 06030000 		.4byte	.LVL77
 6048 0212 0E030000 		.4byte	.LVL78
 6049 0216 0100     		.2byte	0x1
 6050 0218 53       		.byte	0x53
 6051 0219 10030000 		.4byte	.LVL79
 6052 021d 1D030000 		.4byte	.LVL80-1
 6053 0221 0100     		.2byte	0x1
 6054 0223 53       		.byte	0x53
 6055 0224 28030000 		.4byte	.LVL81
 6056 0228 2A030000 		.4byte	.LVL82
 6057 022c 0200     		.2byte	0x2
 6058 022e 30       		.byte	0x30
 6059 022f 9F       		.byte	0x9f
 6060 0230 2A030000 		.4byte	.LVL82
 6061 0234 34030000 		.4byte	.LVL84
 6062 0238 0100     		.2byte	0x1
 6063 023a 54       		.byte	0x54
 6064 023b 36030000 		.4byte	.LVL85
 6065 023f 4E030000 		.4byte	.LVL87
 6066 0243 0100     		.2byte	0x1
 6067 0245 54       		.byte	0x54
 6068 0246 86030000 		.4byte	.LVL88
 6069 024a 98030000 		.4byte	.LVL89
 6070 024e 0100     		.2byte	0x1
 6071 0250 54       		.byte	0x54
 6072 0251 9A030000 		.4byte	.LVL90
 6073 0255 A2030000 		.4byte	.LVL91
 6074 0259 0100     		.2byte	0x1
 6075 025b 54       		.byte	0x54
 6076 025c A2030000 		.4byte	.LVL91
 6077 0260 BA030000 		.4byte	.LVL92
 6078 0264 0100     		.2byte	0x1
 6079 0266 53       		.byte	0x53
 6080 0267 BC030000 		.4byte	.LVL93
 6081 026b C2030000 		.4byte	.LVL94
 6082 026f 0100     		.2byte	0x1
ARM GAS  C:\Users\RECEPC~1\AppData\Local\Temp\ccXtGlXn.s 			page 123


 6083 0271 53       		.byte	0x53
 6084 0272 D0030000 		.4byte	.LVL95
 6085 0276 E2030000 		.4byte	.LVL96
 6086 027a 0100     		.2byte	0x1
 6087 027c 53       		.byte	0x53
 6088 027d E4030000 		.4byte	.LVL97
 6089 0281 E6030000 		.4byte	.LVL98
 6090 0285 0100     		.2byte	0x1
 6091 0287 53       		.byte	0x53
 6092 0288 E8030000 		.4byte	.LVL99
 6093 028c 06040000 		.4byte	.LVL100
 6094 0290 0100     		.2byte	0x1
 6095 0292 53       		.byte	0x53
 6096 0293 08040000 		.4byte	.LVL101
 6097 0297 14040000 		.4byte	.LVL102
 6098 029b 0100     		.2byte	0x1
 6099 029d 53       		.byte	0x53
 6100 029e 30040000 		.4byte	.LVL103
 6101 02a2 42040000 		.4byte	.LVL104
 6102 02a6 0100     		.2byte	0x1
 6103 02a8 53       		.byte	0x53
 6104 02a9 44040000 		.4byte	.LVL105
 6105 02ad 46040000 		.4byte	.LVL106
 6106 02b1 0100     		.2byte	0x1
 6107 02b3 53       		.byte	0x53
 6108 02b4 48040000 		.4byte	.LVL107
 6109 02b8 66040000 		.4byte	.LVL108
 6110 02bc 0100     		.2byte	0x1
 6111 02be 53       		.byte	0x53
 6112 02bf 68040000 		.4byte	.LVL109
 6113 02c3 74040000 		.4byte	.LVL110
 6114 02c7 0100     		.2byte	0x1
 6115 02c9 53       		.byte	0x53
 6116 02ca 92040000 		.4byte	.LVL112
 6117 02ce 94040000 		.4byte	.LVL113
 6118 02d2 0200     		.2byte	0x2
 6119 02d4 30       		.byte	0x30
 6120 02d5 9F       		.byte	0x9f
 6121 02d6 94040000 		.4byte	.LVL113
 6122 02da 9E040000 		.4byte	.LVL115
 6123 02de 0100     		.2byte	0x1
 6124 02e0 54       		.byte	0x54
 6125 02e1 A0040000 		.4byte	.LVL116
 6126 02e5 BE040000 		.4byte	.LVL118
 6127 02e9 0100     		.2byte	0x1
 6128 02eb 54       		.byte	0x54
 6129 02ec F8040000 		.4byte	.LVL119
 6130 02f0 0A050000 		.4byte	.LVL120
 6131 02f4 0100     		.2byte	0x1
 6132 02f6 54       		.byte	0x54
 6133 02f7 0C050000 		.4byte	.LVL121
 6134 02fb 14050000 		.4byte	.LVL122
 6135 02ff 0100     		.2byte	0x1
 6136 0301 54       		.byte	0x54
 6137 0302 14050000 		.4byte	.LVL122
 6138 0306 2C050000 		.4byte	.LVL123
 6139 030a 0100     		.2byte	0x1
ARM GAS  C:\Users\RECEPC~1\AppData\Local\Temp\ccXtGlXn.s 			page 124


 6140 030c 53       		.byte	0x53
 6141 030d 2E050000 		.4byte	.LVL124
 6142 0311 34050000 		.4byte	.LVL125
 6143 0315 0100     		.2byte	0x1
 6144 0317 53       		.byte	0x53
 6145 0318 42050000 		.4byte	.LVL126
 6146 031c 54050000 		.4byte	.LVL127
 6147 0320 0100     		.2byte	0x1
 6148 0322 53       		.byte	0x53
 6149 0323 56050000 		.4byte	.LVL128
 6150 0327 58050000 		.4byte	.LVL129
 6151 032b 0100     		.2byte	0x1
 6152 032d 53       		.byte	0x53
 6153 032e 5A050000 		.4byte	.LVL130
 6154 0332 78050000 		.4byte	.LVL131
 6155 0336 0100     		.2byte	0x1
 6156 0338 53       		.byte	0x53
 6157 0339 7A050000 		.4byte	.LVL132
 6158 033d 86050000 		.4byte	.LVL133
 6159 0341 0100     		.2byte	0x1
 6160 0343 53       		.byte	0x53
 6161 0344 A2050000 		.4byte	.LVL134
 6162 0348 B4050000 		.4byte	.LVL135
 6163 034c 0100     		.2byte	0x1
 6164 034e 53       		.byte	0x53
 6165 034f B6050000 		.4byte	.LVL136
 6166 0353 DC050000 		.4byte	.LVL137
 6167 0357 0100     		.2byte	0x1
 6168 0359 53       		.byte	0x53
 6169 035a DE050000 		.4byte	.LVL138
 6170 035e FC050000 		.4byte	.LVL139
 6171 0362 0100     		.2byte	0x1
 6172 0364 53       		.byte	0x53
 6173 0365 FE050000 		.4byte	.LVL140
 6174 0369 0A060000 		.4byte	.LVL141
 6175 036d 0100     		.2byte	0x1
 6176 036f 53       		.byte	0x53
 6177 0370 28060000 		.4byte	.LVL143
 6178 0374 2A060000 		.4byte	.LVL144
 6179 0378 0200     		.2byte	0x2
 6180 037a 30       		.byte	0x30
 6181 037b 9F       		.byte	0x9f
 6182 037c 2A060000 		.4byte	.LVL144
 6183 0380 34060000 		.4byte	.LVL146
 6184 0384 0100     		.2byte	0x1
 6185 0386 54       		.byte	0x54
 6186 0387 36060000 		.4byte	.LVL147
 6187 038b 54060000 		.4byte	.LVL149
 6188 038f 0100     		.2byte	0x1
 6189 0391 54       		.byte	0x54
 6190 0392 78060000 		.4byte	.LVL150
 6191 0396 7C060000 		.4byte	.LVL151
 6192 039a 0200     		.2byte	0x2
 6193 039c 31       		.byte	0x31
 6194 039d 9F       		.byte	0x9f
 6195 039e 7C060000 		.4byte	.LVL151
 6196 03a2 90060000 		.4byte	.LVL152
ARM GAS  C:\Users\RECEPC~1\AppData\Local\Temp\ccXtGlXn.s 			page 125


 6197 03a6 0100     		.2byte	0x1
 6198 03a8 52       		.byte	0x52
 6199 03a9 92060000 		.4byte	.LVL153
 6200 03ad A2060000 		.4byte	.LVL154
 6201 03b1 0100     		.2byte	0x1
 6202 03b3 52       		.byte	0x52
 6203 03b4 A2060000 		.4byte	.LVL154
 6204 03b8 B0060000 		.4byte	.LVL155
 6205 03bc 0100     		.2byte	0x1
 6206 03be 53       		.byte	0x53
 6207 03bf B2060000 		.4byte	.LVL156
 6208 03c3 BA060000 		.4byte	.LVL157
 6209 03c7 0100     		.2byte	0x1
 6210 03c9 53       		.byte	0x53
 6211 03ca BA060000 		.4byte	.LVL157
 6212 03ce D0060000 		.4byte	.LVL158
 6213 03d2 0100     		.2byte	0x1
 6214 03d4 52       		.byte	0x52
 6215 03d5 D2060000 		.4byte	.LVL159
 6216 03d9 E2060000 		.4byte	.LVL160
 6217 03dd 0100     		.2byte	0x1
 6218 03df 52       		.byte	0x52
 6219 03e0 E2060000 		.4byte	.LVL160
 6220 03e4 F0060000 		.4byte	.LVL161
 6221 03e8 0100     		.2byte	0x1
 6222 03ea 53       		.byte	0x53
 6223 03eb F2060000 		.4byte	.LVL162
 6224 03ef FF060000 		.4byte	.LVL163-1
 6225 03f3 0100     		.2byte	0x1
 6226 03f5 53       		.byte	0x53
 6227 03f6 04070000 		.4byte	.LVL164
 6228 03fa 08070000 		.4byte	.LVL165
 6229 03fe 0200     		.2byte	0x2
 6230 0400 30       		.byte	0x30
 6231 0401 9F       		.byte	0x9f
 6232 0402 08070000 		.4byte	.LVL165
 6233 0406 12070000 		.4byte	.LVL167
 6234 040a 0100     		.2byte	0x1
 6235 040c 54       		.byte	0x54
 6236 040d 14070000 		.4byte	.LVL168
 6237 0411 26070000 		.4byte	.LVL169
 6238 0415 0100     		.2byte	0x1
 6239 0417 54       		.byte	0x54
 6240 0418 00000000 		.4byte	0
 6241 041c 00000000 		.4byte	0
 6242              	.LLST6:
 6243 0420 46000000 		.4byte	.LVL174
 6244 0424 48000000 		.4byte	.LVL175
 6245 0428 0200     		.2byte	0x2
 6246 042a 30       		.byte	0x30
 6247 042b 9F       		.byte	0x9f
 6248 042c 48000000 		.4byte	.LVL175
 6249 0430 52000000 		.4byte	.LVL177
 6250 0434 0100     		.2byte	0x1
 6251 0436 54       		.byte	0x54
 6252 0437 54000000 		.4byte	.LVL178
 6253 043b 56010000 		.4byte	.LVL190
ARM GAS  C:\Users\RECEPC~1\AppData\Local\Temp\ccXtGlXn.s 			page 126


 6254 043f 0100     		.2byte	0x1
 6255 0441 54       		.byte	0x54
 6256 0442 58010000 		.4byte	.LVL191
 6257 0446 5A010000 		.4byte	.LVL192
 6258 044a 0100     		.2byte	0x1
 6259 044c 54       		.byte	0x54
 6260 044d F2010000 		.4byte	.LVL214
 6261 0451 2A020000 		.4byte	.LVL221
 6262 0455 0100     		.2byte	0x1
 6263 0457 54       		.byte	0x54
 6264 0458 40020000 		.4byte	.LVL227
 6265 045c 42020000 		.4byte	.LVL228
 6266 0460 0100     		.2byte	0x1
 6267 0462 54       		.byte	0x54
 6268 0463 B0020000 		.4byte	.LVL244
 6269 0467 B2020000 		.4byte	.LVL245
 6270 046b 0100     		.2byte	0x1
 6271 046d 54       		.byte	0x54
 6272 046e 8E030000 		.4byte	.LVL285
 6273 0472 A4030000 		.4byte	.LVL287
 6274 0476 0100     		.2byte	0x1
 6275 0478 54       		.byte	0x54
 6276 0479 DE030000 		.4byte	.LVL294
 6277 047d E0030000 		.4byte	.LVL295
 6278 0481 0100     		.2byte	0x1
 6279 0483 54       		.byte	0x54
 6280 0484 08050000 		.4byte	.LVL332
 6281 0488 74050000 		.4byte	.LVL333
 6282 048c 0100     		.2byte	0x1
 6283 048e 54       		.byte	0x54
 6284 048f A6050000 		.4byte	.LVL340
 6285 0493 40060000 		.4byte	.LVL360
 6286 0497 0100     		.2byte	0x1
 6287 0499 54       		.byte	0x54
 6288 049a E6060000 		.4byte	.LVL386
 6289 049e EC060000 		.4byte	.LVL387
 6290 04a2 0100     		.2byte	0x1
 6291 04a4 54       		.byte	0x54
 6292 04a5 00000000 		.4byte	0
 6293 04a9 00000000 		.4byte	0
 6294              	.LLST7:
 6295 04ad DC010000 		.4byte	.LVL209
 6296 04b1 E0010000 		.4byte	.LVL210
 6297 04b5 0200     		.2byte	0x2
 6298 04b7 30       		.byte	0x30
 6299 04b8 9F       		.byte	0x9f
 6300 04b9 E0010000 		.4byte	.LVL210
 6301 04bd EA010000 		.4byte	.LVL212
 6302 04c1 0100     		.2byte	0x1
 6303 04c3 54       		.byte	0x54
 6304 04c4 EC010000 		.4byte	.LVL213
 6305 04c8 F2010000 		.4byte	.LVL214
 6306 04cc 0100     		.2byte	0x1
 6307 04ce 54       		.byte	0x54
 6308 04cf 2C020000 		.4byte	.LVL222
 6309 04d3 3C020000 		.4byte	.LVL225
 6310 04d7 0100     		.2byte	0x1
ARM GAS  C:\Users\RECEPC~1\AppData\Local\Temp\ccXtGlXn.s 			page 127


 6311 04d9 53       		.byte	0x53
 6312 04da 3E020000 		.4byte	.LVL226
 6313 04de 40020000 		.4byte	.LVL227
 6314 04e2 0100     		.2byte	0x1
 6315 04e4 53       		.byte	0x53
 6316 04e5 44020000 		.4byte	.LVL229
 6317 04e9 56020000 		.4byte	.LVL232
 6318 04ed 0100     		.2byte	0x1
 6319 04ef 53       		.byte	0x53
 6320 04f0 58020000 		.4byte	.LVL233
 6321 04f4 5E020000 		.4byte	.LVL234
 6322 04f8 0100     		.2byte	0x1
 6323 04fa 53       		.byte	0x53
 6324 04fb 60020000 		.4byte	.LVL235
 6325 04ff 70020000 		.4byte	.LVL238
 6326 0503 0100     		.2byte	0x1
 6327 0505 53       		.byte	0x53
 6328 0506 72020000 		.4byte	.LVL239
 6329 050a 84020000 		.4byte	.LVL242
 6330 050e 0100     		.2byte	0x1
 6331 0510 53       		.byte	0x53
 6332 0511 86020000 		.4byte	.LVL243
 6333 0515 B0020000 		.4byte	.LVL244
 6334 0519 0100     		.2byte	0x1
 6335 051b 53       		.byte	0x53
 6336 051c 02030000 		.4byte	.LVL256
 6337 0520 14030000 		.4byte	.LVL259
 6338 0524 0100     		.2byte	0x1
 6339 0526 53       		.byte	0x53
 6340 0527 16030000 		.4byte	.LVL260
 6341 052b 18030000 		.4byte	.LVL261
 6342 052f 0100     		.2byte	0x1
 6343 0531 53       		.byte	0x53
 6344 0532 1A030000 		.4byte	.LVL262
 6345 0536 2C030000 		.4byte	.LVL265
 6346 053a 0100     		.2byte	0x1
 6347 053c 53       		.byte	0x53
 6348 053d 2E030000 		.4byte	.LVL266
 6349 0541 34030000 		.4byte	.LVL267
 6350 0545 0100     		.2byte	0x1
 6351 0547 53       		.byte	0x53
 6352 0548 36030000 		.4byte	.LVL268
 6353 054c 48030000 		.4byte	.LVL271
 6354 0550 0100     		.2byte	0x1
 6355 0552 53       		.byte	0x53
 6356 0553 4A030000 		.4byte	.LVL272
 6357 0557 5C030000 		.4byte	.LVL275
 6358 055b 0100     		.2byte	0x1
 6359 055d 53       		.byte	0x53
 6360 055e 5E030000 		.4byte	.LVL276
 6361 0562 62030000 		.4byte	.LVL277
 6362 0566 0100     		.2byte	0x1
 6363 0568 53       		.byte	0x53
 6364 0569 78030000 		.4byte	.LVL280
 6365 056d 7C030000 		.4byte	.LVL281
 6366 0571 0200     		.2byte	0x2
 6367 0573 30       		.byte	0x30
ARM GAS  C:\Users\RECEPC~1\AppData\Local\Temp\ccXtGlXn.s 			page 128


 6368 0574 9F       		.byte	0x9f
 6369 0575 7C030000 		.4byte	.LVL281
 6370 0579 86030000 		.4byte	.LVL283
 6371 057d 0100     		.2byte	0x1
 6372 057f 54       		.byte	0x54
 6373 0580 88030000 		.4byte	.LVL284
 6374 0584 8E030000 		.4byte	.LVL285
 6375 0588 0100     		.2byte	0x1
 6376 058a 54       		.byte	0x54
 6377 058b A0030000 		.4byte	.LVL286
 6378 058f A4030000 		.4byte	.LVL287
 6379 0593 0200     		.2byte	0x2
 6380 0595 39       		.byte	0x39
 6381 0596 9F       		.byte	0x9f
 6382 0597 A4030000 		.4byte	.LVL287
 6383 059b B8030000 		.4byte	.LVL288
 6384 059f 0100     		.2byte	0x1
 6385 05a1 53       		.byte	0x53
 6386 05a2 BA030000 		.4byte	.LVL289
 6387 05a6 C0030000 		.4byte	.LVL290
 6388 05aa 0100     		.2byte	0x1
 6389 05ac 53       		.byte	0x53
 6390 05ad F0030000 		.4byte	.LVL296
 6391 05b1 F4030000 		.4byte	.LVL297
 6392 05b5 0200     		.2byte	0x2
 6393 05b7 39       		.byte	0x39
 6394 05b8 9F       		.byte	0x9f
 6395 05b9 F4030000 		.4byte	.LVL297
 6396 05bd 08040000 		.4byte	.LVL298
 6397 05c1 0100     		.2byte	0x1
 6398 05c3 53       		.byte	0x53
 6399 05c4 0A040000 		.4byte	.LVL299
 6400 05c8 10040000 		.4byte	.LVL300
 6401 05cc 0100     		.2byte	0x1
 6402 05ce 53       		.byte	0x53
 6403 05cf 46040000 		.4byte	.LVL306
 6404 05d3 4A040000 		.4byte	.LVL307
 6405 05d7 0200     		.2byte	0x2
 6406 05d9 39       		.byte	0x39
 6407 05da 9F       		.byte	0x9f
 6408 05db 4A040000 		.4byte	.LVL307
 6409 05df 5E040000 		.4byte	.LVL308
 6410 05e3 0100     		.2byte	0x1
 6411 05e5 53       		.byte	0x53
 6412 05e6 60040000 		.4byte	.LVL309
 6413 05ea 66040000 		.4byte	.LVL310
 6414 05ee 0100     		.2byte	0x1
 6415 05f0 53       		.byte	0x53
 6416 05f1 9C040000 		.4byte	.LVL316
 6417 05f5 A0040000 		.4byte	.LVL317
 6418 05f9 0200     		.2byte	0x2
 6419 05fb 39       		.byte	0x39
 6420 05fc 9F       		.byte	0x9f
 6421 05fd A0040000 		.4byte	.LVL317
 6422 0601 B4040000 		.4byte	.LVL318
 6423 0605 0100     		.2byte	0x1
 6424 0607 53       		.byte	0x53
ARM GAS  C:\Users\RECEPC~1\AppData\Local\Temp\ccXtGlXn.s 			page 129


 6425 0608 B6040000 		.4byte	.LVL319
 6426 060c BC040000 		.4byte	.LVL320
 6427 0610 0100     		.2byte	0x1
 6428 0612 53       		.byte	0x53
 6429 0613 F2040000 		.4byte	.LVL327
 6430 0617 F6040000 		.4byte	.LVL328
 6431 061b 0200     		.2byte	0x2
 6432 061d 30       		.byte	0x30
 6433 061e 9F       		.byte	0x9f
 6434 061f F6040000 		.4byte	.LVL328
 6435 0623 00050000 		.4byte	.LVL330
 6436 0627 0100     		.2byte	0x1
 6437 0629 54       		.byte	0x54
 6438 062a 02050000 		.4byte	.LVL331
 6439 062e 08050000 		.4byte	.LVL332
 6440 0632 0100     		.2byte	0x1
 6441 0634 54       		.byte	0x54
 6442 0635 7E050000 		.4byte	.LVL335
 6443 0639 94050000 		.4byte	.LVL336
 6444 063d 0200     		.2byte	0x2
 6445 063f 30       		.byte	0x30
 6446 0640 9F       		.byte	0x9f
 6447 0641 94050000 		.4byte	.LVL336
 6448 0645 9E050000 		.4byte	.LVL338
 6449 0649 0100     		.2byte	0x1
 6450 064b 54       		.byte	0x54
 6451 064c A0050000 		.4byte	.LVL339
 6452 0650 A6050000 		.4byte	.LVL340
 6453 0654 0100     		.2byte	0x1
 6454 0656 54       		.byte	0x54
 6455 0657 CE050000 		.4byte	.LVL341
 6456 065b D2050000 		.4byte	.LVL342
 6457 065f 0200     		.2byte	0x2
 6458 0661 41       		.byte	0x41
 6459 0662 9F       		.byte	0x9f
 6460 0663 D2050000 		.4byte	.LVL342
 6461 0667 E0050000 		.4byte	.LVL343
 6462 066b 0100     		.2byte	0x1
 6463 066d 53       		.byte	0x53
 6464 066e E2050000 		.4byte	.LVL344
 6465 0672 E8050000 		.4byte	.LVL345
 6466 0676 0100     		.2byte	0x1
 6467 0678 53       		.byte	0x53
 6468 0679 EA050000 		.4byte	.LVL346
 6469 067d F8050000 		.4byte	.LVL347
 6470 0681 0100     		.2byte	0x1
 6471 0683 53       		.byte	0x53
 6472 0684 FA050000 		.4byte	.LVL348
 6473 0688 00060000 		.4byte	.LVL349
 6474 068c 0100     		.2byte	0x1
 6475 068e 53       		.byte	0x53
 6476 068f 02060000 		.4byte	.LVL350
 6477 0693 10060000 		.4byte	.LVL351
 6478 0697 0100     		.2byte	0x1
 6479 0699 53       		.byte	0x53
 6480 069a 12060000 		.4byte	.LVL352
 6481 069e 18060000 		.4byte	.LVL353
ARM GAS  C:\Users\RECEPC~1\AppData\Local\Temp\ccXtGlXn.s 			page 130


 6482 06a2 0100     		.2byte	0x1
 6483 06a4 53       		.byte	0x53
 6484 06a5 1A060000 		.4byte	.LVL354
 6485 06a9 28060000 		.4byte	.LVL355
 6486 06ad 0100     		.2byte	0x1
 6487 06af 53       		.byte	0x53
 6488 06b0 2A060000 		.4byte	.LVL356
 6489 06b4 30060000 		.4byte	.LVL357
 6490 06b8 0100     		.2byte	0x1
 6491 06ba 53       		.byte	0x53
 6492 06bb 3E060000 		.4byte	.LVL359
 6493 06bf 42060000 		.4byte	.LVL361
 6494 06c3 0200     		.2byte	0x2
 6495 06c5 30       		.byte	0x30
 6496 06c6 9F       		.byte	0x9f
 6497 06c7 42060000 		.4byte	.LVL361
 6498 06cb 52060000 		.4byte	.LVL363
 6499 06cf 0100     		.2byte	0x1
 6500 06d1 54       		.byte	0x54
 6501 06d2 54060000 		.4byte	.LVL364
 6502 06d6 5A060000 		.4byte	.LVL365
 6503 06da 0100     		.2byte	0x1
 6504 06dc 54       		.byte	0x54
 6505 06dd 5C060000 		.4byte	.LVL366
 6506 06e1 70060000 		.4byte	.LVL368
 6507 06e5 0100     		.2byte	0x1
 6508 06e7 54       		.byte	0x54
 6509 06e8 72060000 		.4byte	.LVL369
 6510 06ec 78060000 		.4byte	.LVL370
 6511 06f0 0100     		.2byte	0x1
 6512 06f2 54       		.byte	0x54
 6513 06f3 7A060000 		.4byte	.LVL371
 6514 06f7 8E060000 		.4byte	.LVL373
 6515 06fb 0100     		.2byte	0x1
 6516 06fd 54       		.byte	0x54
 6517 06fe 90060000 		.4byte	.LVL374
 6518 0702 96060000 		.4byte	.LVL375
 6519 0706 0100     		.2byte	0x1
 6520 0708 54       		.byte	0x54
 6521 0709 98060000 		.4byte	.LVL376
 6522 070d AC060000 		.4byte	.LVL378
 6523 0711 0100     		.2byte	0x1
 6524 0713 54       		.byte	0x54
 6525 0714 AE060000 		.4byte	.LVL379
 6526 0718 BA060000 		.4byte	.LVL381
 6527 071c 0100     		.2byte	0x1
 6528 071e 54       		.byte	0x54
 6529 071f 04070000 		.4byte	.LVL389
 6530 0723 08070000 		.4byte	.LVL390
 6531 0727 0200     		.2byte	0x2
 6532 0729 30       		.byte	0x30
 6533 072a 9F       		.byte	0x9f
 6534 072b 08070000 		.4byte	.LVL390
 6535 072f 12070000 		.4byte	.LVL392
 6536 0733 0100     		.2byte	0x1
 6537 0735 54       		.byte	0x54
 6538 0736 14070000 		.4byte	.LVL393
ARM GAS  C:\Users\RECEPC~1\AppData\Local\Temp\ccXtGlXn.s 			page 131


 6539 073a 1C070000 		.4byte	.LVL394
 6540 073e 0100     		.2byte	0x1
 6541 0740 54       		.byte	0x54
 6542 0741 1C070000 		.4byte	.LVL394
 6543 0745 2A070000 		.4byte	.LVL395
 6544 0749 0100     		.2byte	0x1
 6545 074b 53       		.byte	0x53
 6546 074c 2C070000 		.4byte	.LVL396
 6547 0750 32070000 		.4byte	.LVL397
 6548 0754 0100     		.2byte	0x1
 6549 0756 53       		.byte	0x53
 6550 0757 00000000 		.4byte	0
 6551 075b 00000000 		.4byte	0
 6552              	.LLST8:
 6553 075f 5C000000 		.4byte	.LVL180
 6554 0763 62000000 		.4byte	.LVL181
 6555 0767 0200     		.2byte	0x2
 6556 0769 30       		.byte	0x30
 6557 076a 9F       		.byte	0x9f
 6558 076b 62000000 		.4byte	.LVL181
 6559 076f 66000000 		.4byte	.LVL182
 6560 0773 0200     		.2byte	0x2
 6561 0775 31       		.byte	0x31
 6562 0776 9F       		.byte	0x9f
 6563 0777 66000000 		.4byte	.LVL182
 6564 077b 6A000000 		.4byte	.LVL183
 6565 077f 0200     		.2byte	0x2
 6566 0781 32       		.byte	0x32
 6567 0782 9F       		.byte	0x9f
 6568 0783 6A000000 		.4byte	.LVL183
 6569 0787 70000000 		.4byte	.LVL184
 6570 078b 0200     		.2byte	0x2
 6571 078d 33       		.byte	0x33
 6572 078e 9F       		.byte	0x9f
 6573 078f 70000000 		.4byte	.LVL184
 6574 0793 74000000 		.4byte	.LVL185
 6575 0797 0200     		.2byte	0x2
 6576 0799 34       		.byte	0x34
 6577 079a 9F       		.byte	0x9f
 6578 079b 74000000 		.4byte	.LVL185
 6579 079f 48010000 		.4byte	.LVL187
 6580 07a3 0200     		.2byte	0x2
 6581 07a5 35       		.byte	0x35
 6582 07a6 9F       		.byte	0x9f
 6583 07a7 48010000 		.4byte	.LVL187
 6584 07ab 4C010000 		.4byte	.LVL188
 6585 07af 0200     		.2byte	0x2
 6586 07b1 36       		.byte	0x36
 6587 07b2 9F       		.byte	0x9f
 6588 07b3 4C010000 		.4byte	.LVL188
 6589 07b7 54010000 		.4byte	.LVL189
 6590 07bb 0200     		.2byte	0x2
 6591 07bd 37       		.byte	0x37
 6592 07be 9F       		.byte	0x9f
 6593 07bf 54010000 		.4byte	.LVL189
 6594 07c3 58010000 		.4byte	.LVL191
 6595 07c7 0200     		.2byte	0x2
ARM GAS  C:\Users\RECEPC~1\AppData\Local\Temp\ccXtGlXn.s 			page 132


 6596 07c9 38       		.byte	0x38
 6597 07ca 9F       		.byte	0x9f
 6598 07cb 58010000 		.4byte	.LVL191
 6599 07cf 5A010000 		.4byte	.LVL192
 6600 07d3 0200     		.2byte	0x2
 6601 07d5 35       		.byte	0x35
 6602 07d6 9F       		.byte	0x9f
 6603 07d7 5A010000 		.4byte	.LVL192
 6604 07db 6C010000 		.4byte	.LVL193
 6605 07df 0100     		.2byte	0x1
 6606 07e1 54       		.byte	0x54
 6607 07e2 6C010000 		.4byte	.LVL193
 6608 07e6 72010000 		.4byte	.LVL194
 6609 07ea 0100     		.2byte	0x1
 6610 07ec 53       		.byte	0x53
 6611 07ed 72010000 		.4byte	.LVL194
 6612 07f1 74010000 		.4byte	.LVL195
 6613 07f5 0300     		.2byte	0x3
 6614 07f7 73       		.byte	0x73
 6615 07f8 7F       		.sleb128 -1
 6616 07f9 9F       		.byte	0x9f
 6617 07fa 74010000 		.4byte	.LVL195
 6618 07fe 7E010000 		.4byte	.LVL196
 6619 0802 0100     		.2byte	0x1
 6620 0804 53       		.byte	0x53
 6621 0805 7E010000 		.4byte	.LVL196
 6622 0809 80010000 		.4byte	.LVL197
 6623 080d 0300     		.2byte	0x3
 6624 080f 73       		.byte	0x73
 6625 0810 7F       		.sleb128 -1
 6626 0811 9F       		.byte	0x9f
 6627 0812 80010000 		.4byte	.LVL197
 6628 0816 92010000 		.4byte	.LVL198
 6629 081a 0100     		.2byte	0x1
 6630 081c 54       		.byte	0x54
 6631 081d 92010000 		.4byte	.LVL198
 6632 0821 98010000 		.4byte	.LVL199
 6633 0825 0100     		.2byte	0x1
 6634 0827 53       		.byte	0x53
 6635 0828 98010000 		.4byte	.LVL199
 6636 082c 9A010000 		.4byte	.LVL200
 6637 0830 0300     		.2byte	0x3
 6638 0832 73       		.byte	0x73
 6639 0833 7F       		.sleb128 -1
 6640 0834 9F       		.byte	0x9f
 6641 0835 9A010000 		.4byte	.LVL200
 6642 0839 A4010000 		.4byte	.LVL201
 6643 083d 0100     		.2byte	0x1
 6644 083f 53       		.byte	0x53
 6645 0840 A4010000 		.4byte	.LVL201
 6646 0844 A6010000 		.4byte	.LVL202
 6647 0848 0300     		.2byte	0x3
 6648 084a 73       		.byte	0x73
 6649 084b 7F       		.sleb128 -1
 6650 084c 9F       		.byte	0x9f
 6651 084d A6010000 		.4byte	.LVL202
 6652 0851 B8010000 		.4byte	.LVL203
ARM GAS  C:\Users\RECEPC~1\AppData\Local\Temp\ccXtGlXn.s 			page 133


 6653 0855 0100     		.2byte	0x1
 6654 0857 54       		.byte	0x54
 6655 0858 B8010000 		.4byte	.LVL203
 6656 085c BE010000 		.4byte	.LVL204
 6657 0860 0100     		.2byte	0x1
 6658 0862 53       		.byte	0x53
 6659 0863 BE010000 		.4byte	.LVL204
 6660 0867 C0010000 		.4byte	.LVL205
 6661 086b 0300     		.2byte	0x3
 6662 086d 73       		.byte	0x73
 6663 086e 7F       		.sleb128 -1
 6664 086f 9F       		.byte	0x9f
 6665 0870 C0010000 		.4byte	.LVL205
 6666 0874 CA010000 		.4byte	.LVL206
 6667 0878 0100     		.2byte	0x1
 6668 087a 53       		.byte	0x53
 6669 087b CA010000 		.4byte	.LVL206
 6670 087f CC010000 		.4byte	.LVL207
 6671 0883 0300     		.2byte	0x3
 6672 0885 73       		.byte	0x73
 6673 0886 7F       		.sleb128 -1
 6674 0887 9F       		.byte	0x9f
 6675 0888 CC010000 		.4byte	.LVL207
 6676 088c DC010000 		.4byte	.LVL209
 6677 0890 0100     		.2byte	0x1
 6678 0892 54       		.byte	0x54
 6679 0893 DC010000 		.4byte	.LVL209
 6680 0897 F2010000 		.4byte	.LVL214
 6681 089b 0100     		.2byte	0x1
 6682 089d 55       		.byte	0x55
 6683 089e F2010000 		.4byte	.LVL214
 6684 08a2 0A020000 		.4byte	.LVL216
 6685 08a6 0200     		.2byte	0x2
 6686 08a8 35       		.byte	0x35
 6687 08a9 9F       		.byte	0x9f
 6688 08aa 0A020000 		.4byte	.LVL216
 6689 08ae 0E020000 		.4byte	.LVL217
 6690 08b2 0200     		.2byte	0x2
 6691 08b4 36       		.byte	0x36
 6692 08b5 9F       		.byte	0x9f
 6693 08b6 0E020000 		.4byte	.LVL217
 6694 08ba 14020000 		.4byte	.LVL218
 6695 08be 0200     		.2byte	0x2
 6696 08c0 37       		.byte	0x37
 6697 08c1 9F       		.byte	0x9f
 6698 08c2 14020000 		.4byte	.LVL218
 6699 08c6 18020000 		.4byte	.LVL219
 6700 08ca 0200     		.2byte	0x2
 6701 08cc 38       		.byte	0x38
 6702 08cd 9F       		.byte	0x9f
 6703 08ce 18020000 		.4byte	.LVL219
 6704 08d2 1C020000 		.4byte	.LVL220
 6705 08d6 0200     		.2byte	0x2
 6706 08d8 39       		.byte	0x39
 6707 08d9 9F       		.byte	0x9f
 6708 08da 1C020000 		.4byte	.LVL220
 6709 08de 2C020000 		.4byte	.LVL222
ARM GAS  C:\Users\RECEPC~1\AppData\Local\Temp\ccXtGlXn.s 			page 134


 6710 08e2 0200     		.2byte	0x2
 6711 08e4 3A       		.byte	0x3a
 6712 08e5 9F       		.byte	0x9f
 6713 08e6 2C020000 		.4byte	.LVL222
 6714 08ea 38020000 		.4byte	.LVL223
 6715 08ee 0100     		.2byte	0x1
 6716 08f0 54       		.byte	0x54
 6717 08f1 3A020000 		.4byte	.LVL224
 6718 08f5 40020000 		.4byte	.LVL227
 6719 08f9 0100     		.2byte	0x1
 6720 08fb 54       		.byte	0x54
 6721 08fc 40020000 		.4byte	.LVL227
 6722 0900 44020000 		.4byte	.LVL229
 6723 0904 0200     		.2byte	0x2
 6724 0906 3A       		.byte	0x3a
 6725 0907 9F       		.byte	0x9f
 6726 0908 44020000 		.4byte	.LVL229
 6727 090c 52020000 		.4byte	.LVL230
 6728 0910 0100     		.2byte	0x1
 6729 0912 54       		.byte	0x54
 6730 0913 54020000 		.4byte	.LVL231
 6731 0917 6C020000 		.4byte	.LVL236
 6732 091b 0100     		.2byte	0x1
 6733 091d 54       		.byte	0x54
 6734 091e 6E020000 		.4byte	.LVL237
 6735 0922 80020000 		.4byte	.LVL240
 6736 0926 0100     		.2byte	0x1
 6737 0928 54       		.byte	0x54
 6738 0929 82020000 		.4byte	.LVL241
 6739 092d B0020000 		.4byte	.LVL244
 6740 0931 0100     		.2byte	0x1
 6741 0933 54       		.byte	0x54
 6742 0934 B0020000 		.4byte	.LVL244
 6743 0938 B2020000 		.4byte	.LVL245
 6744 093c 0200     		.2byte	0x2
 6745 093e 35       		.byte	0x35
 6746 093f 9F       		.byte	0x9f
 6747 0940 B2020000 		.4byte	.LVL245
 6748 0944 D2020000 		.4byte	.LVL247
 6749 0948 0100     		.2byte	0x1
 6750 094a 54       		.byte	0x54
 6751 094b D2020000 		.4byte	.LVL247
 6752 094f D8020000 		.4byte	.LVL248
 6753 0953 0100     		.2byte	0x1
 6754 0955 53       		.byte	0x53
 6755 0956 D8020000 		.4byte	.LVL248
 6756 095a DA020000 		.4byte	.LVL249
 6757 095e 0300     		.2byte	0x3
 6758 0960 73       		.byte	0x73
 6759 0961 7F       		.sleb128 -1
 6760 0962 9F       		.byte	0x9f
 6761 0963 DA020000 		.4byte	.LVL249
 6762 0967 E2020000 		.4byte	.LVL250
 6763 096b 0100     		.2byte	0x1
 6764 096d 53       		.byte	0x53
 6765 096e E2020000 		.4byte	.LVL250
 6766 0972 E4020000 		.4byte	.LVL251
ARM GAS  C:\Users\RECEPC~1\AppData\Local\Temp\ccXtGlXn.s 			page 135


 6767 0976 0300     		.2byte	0x3
 6768 0978 73       		.byte	0x73
 6769 0979 7F       		.sleb128 -1
 6770 097a 9F       		.byte	0x9f
 6771 097b E4020000 		.4byte	.LVL251
 6772 097f EA020000 		.4byte	.LVL252
 6773 0983 0100     		.2byte	0x1
 6774 0985 53       		.byte	0x53
 6775 0986 EA020000 		.4byte	.LVL252
 6776 098a EC020000 		.4byte	.LVL253
 6777 098e 0300     		.2byte	0x3
 6778 0990 73       		.byte	0x73
 6779 0991 7F       		.sleb128 -1
 6780 0992 9F       		.byte	0x9f
 6781 0993 EC020000 		.4byte	.LVL253
 6782 0997 F2020000 		.4byte	.LVL254
 6783 099b 0100     		.2byte	0x1
 6784 099d 53       		.byte	0x53
 6785 099e F2020000 		.4byte	.LVL254
 6786 09a2 F4020000 		.4byte	.LVL255
 6787 09a6 0300     		.2byte	0x3
 6788 09a8 73       		.byte	0x73
 6789 09a9 7F       		.sleb128 -1
 6790 09aa 9F       		.byte	0x9f
 6791 09ab F4020000 		.4byte	.LVL255
 6792 09af 10030000 		.4byte	.LVL257
 6793 09b3 0100     		.2byte	0x1
 6794 09b5 54       		.byte	0x54
 6795 09b6 12030000 		.4byte	.LVL258
 6796 09ba 28030000 		.4byte	.LVL263
 6797 09be 0100     		.2byte	0x1
 6798 09c0 54       		.byte	0x54
 6799 09c1 2A030000 		.4byte	.LVL264
 6800 09c5 44030000 		.4byte	.LVL269
 6801 09c9 0100     		.2byte	0x1
 6802 09cb 54       		.byte	0x54
 6803 09cc 46030000 		.4byte	.LVL270
 6804 09d0 58030000 		.4byte	.LVL273
 6805 09d4 0100     		.2byte	0x1
 6806 09d6 54       		.byte	0x54
 6807 09d7 5A030000 		.4byte	.LVL274
 6808 09db 72030000 		.4byte	.LVL279
 6809 09df 0100     		.2byte	0x1
 6810 09e1 54       		.byte	0x54
 6811 09e2 72030000 		.4byte	.LVL279
 6812 09e6 8E030000 		.4byte	.LVL285
 6813 09ea 0100     		.2byte	0x1
 6814 09ec 55       		.byte	0x55
 6815 09ed 8E030000 		.4byte	.LVL285
 6816 09f1 D2030000 		.4byte	.LVL291
 6817 09f5 0200     		.2byte	0x2
 6818 09f7 35       		.byte	0x35
 6819 09f8 9F       		.byte	0x9f
 6820 09f9 D2030000 		.4byte	.LVL291
 6821 09fd D6030000 		.4byte	.LVL292
 6822 0a01 0200     		.2byte	0x2
 6823 0a03 36       		.byte	0x36
ARM GAS  C:\Users\RECEPC~1\AppData\Local\Temp\ccXtGlXn.s 			page 136


 6824 0a04 9F       		.byte	0x9f
 6825 0a05 D6030000 		.4byte	.LVL292
 6826 0a09 DA030000 		.4byte	.LVL293
 6827 0a0d 0200     		.2byte	0x2
 6828 0a0f 37       		.byte	0x37
 6829 0a10 9F       		.byte	0x9f
 6830 0a11 DA030000 		.4byte	.LVL293
 6831 0a15 DE030000 		.4byte	.LVL294
 6832 0a19 0200     		.2byte	0x2
 6833 0a1b 38       		.byte	0x38
 6834 0a1c 9F       		.byte	0x9f
 6835 0a1d DE030000 		.4byte	.LVL294
 6836 0a21 E0030000 		.4byte	.LVL295
 6837 0a25 0200     		.2byte	0x2
 6838 0a27 35       		.byte	0x35
 6839 0a28 9F       		.byte	0x9f
 6840 0a29 E0030000 		.4byte	.LVL295
 6841 0a2d 26040000 		.4byte	.LVL301
 6842 0a31 0100     		.2byte	0x1
 6843 0a33 54       		.byte	0x54
 6844 0a34 26040000 		.4byte	.LVL301
 6845 0a38 2C040000 		.4byte	.LVL302
 6846 0a3c 0100     		.2byte	0x1
 6847 0a3e 53       		.byte	0x53
 6848 0a3f 2C040000 		.4byte	.LVL302
 6849 0a43 2E040000 		.4byte	.LVL303
 6850 0a47 0300     		.2byte	0x3
 6851 0a49 73       		.byte	0x73
 6852 0a4a 7F       		.sleb128 -1
 6853 0a4b 9F       		.byte	0x9f
 6854 0a4c 2E040000 		.4byte	.LVL303
 6855 0a50 34040000 		.4byte	.LVL304
 6856 0a54 0100     		.2byte	0x1
 6857 0a56 53       		.byte	0x53
 6858 0a57 34040000 		.4byte	.LVL304
 6859 0a5b 36040000 		.4byte	.LVL305
 6860 0a5f 0300     		.2byte	0x3
 6861 0a61 73       		.byte	0x73
 6862 0a62 7F       		.sleb128 -1
 6863 0a63 9F       		.byte	0x9f
 6864 0a64 36040000 		.4byte	.LVL305
 6865 0a68 7C040000 		.4byte	.LVL311
 6866 0a6c 0100     		.2byte	0x1
 6867 0a6e 54       		.byte	0x54
 6868 0a6f 7C040000 		.4byte	.LVL311
 6869 0a73 82040000 		.4byte	.LVL312
 6870 0a77 0100     		.2byte	0x1
 6871 0a79 53       		.byte	0x53
 6872 0a7a 82040000 		.4byte	.LVL312
 6873 0a7e 84040000 		.4byte	.LVL313
 6874 0a82 0300     		.2byte	0x3
 6875 0a84 73       		.byte	0x73
 6876 0a85 7F       		.sleb128 -1
 6877 0a86 9F       		.byte	0x9f
 6878 0a87 84040000 		.4byte	.LVL313
 6879 0a8b 8A040000 		.4byte	.LVL314
 6880 0a8f 0100     		.2byte	0x1
ARM GAS  C:\Users\RECEPC~1\AppData\Local\Temp\ccXtGlXn.s 			page 137


 6881 0a91 53       		.byte	0x53
 6882 0a92 8A040000 		.4byte	.LVL314
 6883 0a96 8C040000 		.4byte	.LVL315
 6884 0a9a 0300     		.2byte	0x3
 6885 0a9c 73       		.byte	0x73
 6886 0a9d 7F       		.sleb128 -1
 6887 0a9e 9F       		.byte	0x9f
 6888 0a9f 8C040000 		.4byte	.LVL315
 6889 0aa3 D2040000 		.4byte	.LVL321
 6890 0aa7 0100     		.2byte	0x1
 6891 0aa9 54       		.byte	0x54
 6892 0aaa D2040000 		.4byte	.LVL321
 6893 0aae D8040000 		.4byte	.LVL322
 6894 0ab2 0100     		.2byte	0x1
 6895 0ab4 53       		.byte	0x53
 6896 0ab5 D8040000 		.4byte	.LVL322
 6897 0ab9 DA040000 		.4byte	.LVL323
 6898 0abd 0300     		.2byte	0x3
 6899 0abf 73       		.byte	0x73
 6900 0ac0 7F       		.sleb128 -1
 6901 0ac1 9F       		.byte	0x9f
 6902 0ac2 DA040000 		.4byte	.LVL323
 6903 0ac6 E0040000 		.4byte	.LVL324
 6904 0aca 0100     		.2byte	0x1
 6905 0acc 53       		.byte	0x53
 6906 0acd E0040000 		.4byte	.LVL324
 6907 0ad1 E2040000 		.4byte	.LVL325
 6908 0ad5 0300     		.2byte	0x3
 6909 0ad7 73       		.byte	0x73
 6910 0ad8 7F       		.sleb128 -1
 6911 0ad9 9F       		.byte	0x9f
 6912 0ada E2040000 		.4byte	.LVL325
 6913 0ade F2040000 		.4byte	.LVL327
 6914 0ae2 0100     		.2byte	0x1
 6915 0ae4 54       		.byte	0x54
 6916 0ae5 F2040000 		.4byte	.LVL327
 6917 0ae9 08050000 		.4byte	.LVL332
 6918 0aed 0100     		.2byte	0x1
 6919 0aef 55       		.byte	0x55
 6920 0af0 08050000 		.4byte	.LVL332
 6921 0af4 3E070000 		.4byte	.LVL398
 6922 0af8 0200     		.2byte	0x2
 6923 0afa 35       		.byte	0x35
 6924 0afb 9F       		.byte	0x9f
 6925 0afc 00000000 		.4byte	0
 6926 0b00 00000000 		.4byte	0
 6927              		.section	.debug_aranges,"",%progbits
 6928 0000 2C000000 		.4byte	0x2c
 6929 0004 0200     		.2byte	0x2
 6930 0006 00000000 		.4byte	.Ldebug_info0
 6931 000a 04       		.byte	0x4
 6932 000b 00       		.byte	0
 6933 000c 0000     		.2byte	0
 6934 000e 0000     		.2byte	0
 6935 0010 00000000 		.4byte	.LFB63
 6936 0014 34000000 		.4byte	.LFE63-.LFB63
 6937 0018 00000000 		.4byte	.LFB65
ARM GAS  C:\Users\RECEPC~1\AppData\Local\Temp\ccXtGlXn.s 			page 138


 6938 001c 9C070000 		.4byte	.LFE65-.LFB65
 6939 0020 00000000 		.4byte	.LFB64
 6940 0024 8C070000 		.4byte	.LFE64-.LFB64
 6941 0028 00000000 		.4byte	0
 6942 002c 00000000 		.4byte	0
 6943              		.section	.debug_ranges,"",%progbits
 6944              	.Ldebug_ranges0:
 6945 0000 00000000 		.4byte	.LFB63
 6946 0004 34000000 		.4byte	.LFE63
 6947 0008 00000000 		.4byte	.LFB65
 6948 000c 9C070000 		.4byte	.LFE65
 6949 0010 00000000 		.4byte	.LFB64
 6950 0014 8C070000 		.4byte	.LFE64
 6951 0018 00000000 		.4byte	0
 6952 001c 00000000 		.4byte	0
 6953              		.section	.debug_line,"",%progbits
 6954              	.Ldebug_line0:
 6955 0000 A8070000 		.section	.debug_str,"MS",%progbits,1
 6955      0200B001 
 6955      00000201 
 6955      FB0E0D00 
 6955      01010101 
 6956              	.LASF189:
 6957 0000 52465F43 		.ascii	"RF_Connection_ReadRxData\000"
 6957      6F6E6E65 
 6957      6374696F 
 6957      6E5F5265 
 6957      61645278 
 6958              	.LASF187:
 6959 0019 43794465 		.ascii	"CyDelay\000"
 6959      6C617900 
 6960              	.LASF186:
 6961 0021 52465F43 		.ascii	"RF_Connection_PutChar\000"
 6961      6F6E6E65 
 6961      6374696F 
 6961      6E5F5075 
 6961      74436861 
 6962              	.LASF105:
 6963 0037 706F6C6C 		.ascii	"pollingRF_Rx\000"
 6963      696E6752 
 6963      465F5278 
 6963      00
 6964              	.LASF163:
 6965 0044 636F756E 		.ascii	"count_protector2\000"
 6965      745F7072 
 6965      6F746563 
 6965      746F7232 
 6965      00
 6966              	.LASF126:
 6967 0055 64656369 		.ascii	"decimalVolume\000"
 6967      6D616C56 
 6967      6F6C756D 
 6967      6500
 6968              	.LASF137:
 6969 0063 50726576 		.ascii	"PrevStatePump\000"
 6969      53746174 
 6969      6550756D 
ARM GAS  C:\Users\RECEPC~1\AppData\Local\Temp\ccXtGlXn.s 			page 139


 6969      7000
 6970              	.LASF179:
 6971 0071 47726164 		.ascii	"GradesHose\000"
 6971      6573486F 
 6971      736500
 6972              	.LASF109:
 6973 007c 636F756E 		.ascii	"countRX\000"
 6973      74525800 
 6974              	.LASF78:
 6975 0084 52467374 		.ascii	"RFstateReport\000"
 6975      61746552 
 6975      65706F72 
 6975      7400
 6976              	.LASF54:
 6977 0092 766F6C75 		.ascii	"volumeQuota\000"
 6977      6D655175 
 6977      6F746100 
 6978              	.LASF153:
 6979 009e 73746174 		.ascii	"statePump\000"
 6979      6550756D 
 6979      7000
 6980              	.LASF63:
 6981 00a8 62756666 		.ascii	"buffer\000"
 6981      657200
 6982              	.LASF170:
 6983 00af 62756666 		.ascii	"buffer_rf\000"
 6983      65725F72 
 6983      6600
 6984              	.LASF125:
 6985 00b9 64656369 		.ascii	"decimalMoney\000"
 6985      6D616C4D 
 6985      6F6E6579 
 6985      00
 6986              	.LASF33:
 6987 00c6 73616C65 		.ascii	"salePerform\000"
 6987      50657266 
 6987      6F726D00 
 6988              	.LASF8:
 6989 00d2 756E7369 		.ascii	"unsigned int\000"
 6989      676E6564 
 6989      20696E74 
 6989      00
 6990              	.LASF158:
 6991 00df 5072696E 		.ascii	"PrinterType\000"
 6991      74657254 
 6991      79706500 
 6992              	.LASF9:
 6993 00eb 5F5F696E 		.ascii	"__int32_t\000"
 6993      7433325F 
 6993      7400
 6994              	.LASF51:
 6995 00f5 666C6167 		.ascii	"flagLiftHandle\000"
 6995      4C696674 
 6995      48616E64 
 6995      6C6500
 6996              	.LASF80:
 6997 0104 50554D50 		.ascii	"PUMP_FAIL\000"
ARM GAS  C:\Users\RECEPC~1\AppData\Local\Temp\ccXtGlXn.s 			page 140


 6997      5F464149 
 6997      4C00
 6998              	.LASF131:
 6999 010e 72657369 		.ascii	"residue\000"
 6999      64756500 
 7000              	.LASF143:
 7001 0116 74656D70 		.ascii	"tempPreset\000"
 7001      50726573 
 7001      657400
 7002              	.LASF21:
 7003 0121 69645479 		.ascii	"idType\000"
 7003      706500
 7004              	.LASF152:
 7005 0128 44444D6F 		.ascii	"DDMode\000"
 7005      646500
 7006              	.LASF184:
 7007 012f 73696465 		.ascii	"side\000"
 7007      00
 7008              	.LASF166:
 7009 0134 69645374 		.ascii	"idStation\000"
 7009      6174696F 
 7009      6E00
 7010              	.LASF25:
 7011 013e 73656C65 		.ascii	"selectedSale\000"
 7011      63746564 
 7011      53616C65 
 7011      00
 7012              	.LASF120:
 7013 014b 666C6167 		.ascii	"flagPoint2\000"
 7013      506F696E 
 7013      743200
 7014              	.LASF110:
 7015 0156 636F756E 		.ascii	"countTX\000"
 7015      74545800 
 7016              	.LASF76:
 7017 015e 6368616E 		.ascii	"changePPU\000"
 7017      67655050 
 7017      5500
 7018              	.LASF130:
 7019 0168 73637265 		.ascii	"screen\000"
 7019      656E00
 7020              	.LASF165:
 7021 016f 636F6E74 		.ascii	"controlChar\000"
 7021      726F6C43 
 7021      68617200 
 7022              	.LASF141:
 7023 017b 636F756E 		.ascii	"counterRF\000"
 7023      74657252 
 7023      4600
 7024              	.LASF138:
 7025 0185 506C6174 		.ascii	"PlateRequest\000"
 7025      65526571 
 7025      75657374 
 7025      00
 7026              	.LASF171:
 7027 0192 62756666 		.ascii	"buffer_tx\000"
 7027      65725F74 
ARM GAS  C:\Users\RECEPC~1\AppData\Local\Temp\ccXtGlXn.s 			page 141


 7027      7800
 7028              	.LASF81:
 7029 019c 50554D50 		.ascii	"PUMP_IDLE\000"
 7029      5F49444C 
 7029      4500
 7030              	.LASF14:
 7031 01a6 666C6F61 		.ascii	"float\000"
 7031      7400
 7032              	.LASF101:
 7033 01ac 63686563 		.ascii	"checksum\000"
 7033      6B73756D 
 7033      00
 7034              	.LASF145:
 7035 01b5 43477261 		.ascii	"CGrade\000"
 7035      646500
 7036              	.LASF102:
 7037 01bc 696E6465 		.ascii	"index\000"
 7037      7800
 7038              	.LASF193:
 7039 01c2 77726974 		.ascii	"write_fecha\000"
 7039      655F6665 
 7039      63686100 
 7040              	.LASF146:
 7041 01ce 53686966 		.ascii	"ShiftState\000"
 7041      74537461 
 7041      746500
 7042              	.LASF149:
 7043 01d9 4D6F6E65 		.ascii	"MoneyDec\000"
 7043      79446563 
 7043      00
 7044              	.LASF180:
 7045 01e2 62756666 		.ascii	"bufferDisplay1\000"
 7045      65724469 
 7045      73706C61 
 7045      793100
 7046              	.LASF72:
 7047 01f1 686F7365 		.ascii	"hose\000"
 7047      00
 7048              	.LASF196:
 7049 01f6 696D7072 		.ascii	"imprimir\000"
 7049      696D6972 
 7049      00
 7050              	.LASF182:
 7051 01ff 62756666 		.ascii	"bufferDisplay3\000"
 7051      65724469 
 7051      73706C61 
 7051      793300
 7052              	.LASF7:
 7053 020e 6C6F6E67 		.ascii	"long long unsigned int\000"
 7053      206C6F6E 
 7053      6720756E 
 7053      7369676E 
 7053      65642069 
 7054              	.LASF94:
 7055 0225 52465F57 		.ascii	"RF_WORKSHIFTREQ\000"
 7055      4F524B53 
 7055      48494654 
ARM GAS  C:\Users\RECEPC~1\AppData\Local\Temp\ccXtGlXn.s 			page 142


 7055      52455100 
 7056              	.LASF86:
 7057 0235 50554D50 		.ascii	"PUMP_FEOT\000"
 7057      5F46454F 
 7057      5400
 7058              	.LASF41:
 7059 023f 746F7461 		.ascii	"totalVolumePrevious\000"
 7059      6C566F6C 
 7059      756D6550 
 7059      72657669 
 7059      6F757300 
 7060              	.LASF164:
 7061 0253 636F6E66 		.ascii	"configAccess\000"
 7061      69674163 
 7061      63657373 
 7061      00
 7062              	.LASF156:
 7063 0260 64696769 		.ascii	"digits\000"
 7063      747300
 7064              	.LASF104:
 7065 0267 706F6C6C 		.ascii	"pollingRF_Tx\000"
 7065      696E6752 
 7065      465F5478 
 7065      00
 7066              	.LASF88:
 7067 0274 5F50554D 		.ascii	"_PUMP_STATES_\000"
 7067      505F5354 
 7067      41544553 
 7067      5F00
 7068              	.LASF128:
 7069 0282 74696D65 		.ascii	"time\000"
 7069      00
 7070              	.LASF188:
 7071 0287 52465F43 		.ascii	"RF_Connection_GetRxBufferSize\000"
 7071      6F6E6E65 
 7071      6374696F 
 7071      6E5F4765 
 7071      74527842 
 7072              	.LASF168:
 7073 02a5 7072696E 		.ascii	"printPortA\000"
 7073      74506F72 
 7073      744100
 7074              	.LASF169:
 7075 02b0 7072696E 		.ascii	"printPortB\000"
 7075      74506F72 
 7075      744200
 7076              	.LASF36:
 7077 02bb 70726F64 		.ascii	"productType\000"
 7077      75637454 
 7077      79706500 
 7078              	.LASF121:
 7079 02c7 70726F64 		.ascii	"productNumber\000"
 7079      7563744E 
 7079      756D6265 
 7079      7200
 7080              	.LASF132:
 7081 02d5 69645365 		.ascii	"idSeller\000"
ARM GAS  C:\Users\RECEPC~1\AppData\Local\Temp\ccXtGlXn.s 			page 143


 7081      6C6C6572 
 7081      00
 7082              	.LASF22:
 7083 02de 69645365 		.ascii	"idSerial\000"
 7083      7269616C 
 7083      00
 7084              	.LASF155:
 7085 02e7 6C6F636B 		.ascii	"lockTurn\000"
 7085      5475726E 
 7085      00
 7086              	.LASF112:
 7087 02f0 636F756E 		.ascii	"countLCD\000"
 7087      744C4344 
 7087      00
 7088              	.LASF89:
 7089 02f9 5F52465F 		.ascii	"_RF_STATES_\000"
 7089      53544154 
 7089      45535F00 
 7090              	.LASF47:
 7091 0305 6D696C65 		.ascii	"mileageSale\000"
 7091      61676553 
 7091      616C6500 
 7092              	.LASF58:
 7093 0311 666C6167 		.ascii	"flagChangePPU\000"
 7093      4368616E 
 7093      67655050 
 7093      5500
 7094              	.LASF60:
 7095 031f 666C6167 		.ascii	"flagActiveSale\000"
 7095      41637469 
 7095      76655361 
 7095      6C6500
 7096              	.LASF113:
 7097 032e 666C6F77 		.ascii	"flowDisplay1\000"
 7097      44697370 
 7097      6C617931 
 7097      00
 7098              	.LASF114:
 7099 033b 666C6F77 		.ascii	"flowDisplay2\000"
 7099      44697370 
 7099      6C617932 
 7099      00
 7100              	.LASF115:
 7101 0348 666C6F77 		.ascii	"flowDisplay3\000"
 7101      44697370 
 7101      6C617933 
 7101      00
 7102              	.LASF116:
 7103 0355 666C6F77 		.ascii	"flowDisplay4\000"
 7103      44697370 
 7103      6C617934 
 7103      00
 7104              	.LASF65:
 7105 0362 746F7461 		.ascii	"totalsHandle\000"
 7105      6C734861 
 7105      6E646C65 
 7105      00
ARM GAS  C:\Users\RECEPC~1\AppData\Local\Temp\ccXtGlXn.s 			page 144


 7106              	.LASF35:
 7107 036f 70726573 		.ascii	"presetValue\000"
 7107      65745661 
 7107      6C756500 
 7108              	.LASF195:
 7109 037b 45455052 		.ascii	"EEPROM_1_ReadByte\000"
 7109      4F4D5F31 
 7109      5F526561 
 7109      64427974 
 7109      6500
 7110              	.LASF48:
 7111 038d 6964656E 		.ascii	"identySale\000"
 7111      74795361 
 7111      6C6500
 7112              	.LASF32:
 7113 0398 73616C65 		.ascii	"saleType\000"
 7113      54797065 
 7113      00
 7114              	.LASF84:
 7115 03a1 50554D50 		.ascii	"PUMP_BUSY\000"
 7115      5F425553 
 7115      5900
 7116              	.LASF30:
 7117 03ab 76616C75 		.ascii	"valueKeys\000"
 7117      654B6579 
 7117      7300
 7118              	.LASF18:
 7119 03b5 63686172 		.ascii	"char\000"
 7119      00
 7120              	.LASF148:
 7121 03ba 436F6E76 		.ascii	"ConversionFactor\000"
 7121      65727369 
 7121      6F6E4661 
 7121      63746F72 
 7121      00
 7122              	.LASF87:
 7123 03cb 50554D50 		.ascii	"PUMP_STOPPED\000"
 7123      5F53544F 
 7123      50504544 
 7123      00
 7124              	.LASF117:
 7125 03d8 6E756D62 		.ascii	"numberKeys1\000"
 7125      65724B65 
 7125      79733100 
 7126              	.LASF118:
 7127 03e4 6E756D62 		.ascii	"numberKeys2\000"
 7127      65724B65 
 7127      79733200 
 7128              	.LASF103:
 7129 03f0 7461626C 		.ascii	"table\000"
 7129      6500
 7130              	.LASF12:
 7131 03f6 75696E74 		.ascii	"uint16\000"
 7131      313600
 7132              	.LASF129:
 7133 03fd 64617465 		.ascii	"date\000"
 7133      00
ARM GAS  C:\Users\RECEPC~1\AppData\Local\Temp\ccXtGlXn.s 			page 145


 7134              	.LASF75:
 7135 0402 70756D70 		.ascii	"pumpState\000"
 7135      53746174 
 7135      6500
 7136              	.LASF50:
 7137 040c 666C6167 		.ascii	"flagPayment\000"
 7137      5061796D 
 7137      656E7400 
 7138              	.LASF17:
 7139 0418 63686172 		.ascii	"char8\000"
 7139      3800
 7140              	.LASF98:
 7141 041e 52465F5A 		.ascii	"RF_ZERO_SALE\000"
 7141      45524F5F 
 7141      53414C45 
 7141      00
 7142              	.LASF55:
 7143 042b 70707551 		.ascii	"ppuQuota\000"
 7143      756F7461 
 7143      00
 7144              	.LASF99:
 7145 0434 6461746F 		.ascii	"datos\000"
 7145      7300
 7146              	.LASF43:
 7147 043a 746F7461 		.ascii	"totalMoneyAfter\000"
 7147      6C4D6F6E 
 7147      65794166 
 7147      74657200 
 7148              	.LASF198:
 7149 044a 2E5C5246 		.ascii	".\\RFPoll.c\000"
 7149      506F6C6C 
 7149      2E6300
 7150              	.LASF53:
 7151 0455 6D6F6E65 		.ascii	"moneyQuota\000"
 7151      7951756F 
 7151      746100
 7152              	.LASF57:
 7153 0460 7072696E 		.ascii	"printers\000"
 7153      74657273 
 7153      00
 7154              	.LASF140:
 7155 0469 41637469 		.ascii	"ActiveRF\000"
 7155      76655246 
 7155      00
 7156              	.LASF93:
 7157 0472 52465F43 		.ascii	"RF_CREDITSALEAUTH\000"
 7157      52454449 
 7157      5453414C 
 7157      45415554 
 7157      4800
 7158              	.LASF200:
 7159 0484 76657269 		.ascii	"verificar_check\000"
 7159      66696361 
 7159      725F6368 
 7159      65636B00 
 7160              	.LASF67:
 7161 0494 6D6F6E65 		.ascii	"moneySale\000"
ARM GAS  C:\Users\RECEPC~1\AppData\Local\Temp\ccXtGlXn.s 			page 146


 7161      7953616C 
 7161      6500
 7162              	.LASF6:
 7163 049e 6C6F6E67 		.ascii	"long long int\000"
 7163      206C6F6E 
 7163      6720696E 
 7163      7400
 7164              	.LASF194:
 7165 04ac 45455052 		.ascii	"EEPROM_1_WriteByte\000"
 7165      4F4D5F31 
 7165      5F577269 
 7165      74654279 
 7165      746500
 7166              	.LASF69:
 7167 04bf 70707553 		.ascii	"ppuSale\000"
 7167      616C6500 
 7168              	.LASF107:
 7169 04c7 636F756E 		.ascii	"countAnimation1\000"
 7169      74416E69 
 7169      6D617469 
 7169      6F6E3100 
 7170              	.LASF154:
 7171 04d7 4E756D50 		.ascii	"NumPositions\000"
 7171      6F736974 
 7171      696F6E73 
 7171      00
 7172              	.LASF136:
 7173 04e4 73746174 		.ascii	"stateBeagleSoft\000"
 7173      65426561 
 7173      676C6553 
 7173      6F667400 
 7174              	.LASF42:
 7175 04f4 746F7461 		.ascii	"totalPPUPrevious\000"
 7175      6C505055 
 7175      50726576 
 7175      696F7573 
 7175      00
 7176              	.LASF108:
 7177 0505 636F756E 		.ascii	"countAnimation2\000"
 7177      74416E69 
 7177      6D617469 
 7177      6F6E3200 
 7178              	.LASF161:
 7179 0515 74696D65 		.ascii	"timeDownHandle\000"
 7179      446F776E 
 7179      48616E64 
 7179      6C6500
 7180              	.LASF31:
 7181 0524 76656869 		.ascii	"vehicleType\000"
 7181      636C6554 
 7181      79706500 
 7182              	.LASF82:
 7183 0530 50554D50 		.ascii	"PUMP_CALLING\000"
 7183      5F43414C 
 7183      4C494E47 
 7183      00
 7184              	.LASF49:
ARM GAS  C:\Users\RECEPC~1\AppData\Local\Temp\ccXtGlXn.s 			page 147


 7185 053d 666C6167 		.ascii	"flagKeyboard\000"
 7185      4B657962 
 7185      6F617264 
 7185      00
 7186              	.LASF100:
 7187 054a 73697A65 		.ascii	"size\000"
 7187      00
 7188              	.LASF13:
 7189 054f 75696E74 		.ascii	"uint32\000"
 7189      333200
 7190              	.LASF83:
 7191 0556 50554D50 		.ascii	"PUMP_AUTHORIZED\000"
 7191      5F415554 
 7191      484F5249 
 7191      5A454400 
 7192              	.LASF135:
 7193 0566 666C6167 		.ascii	"flagResetMux\000"
 7193      52657365 
 7193      744D7578 
 7193      00
 7194              	.LASF172:
 7195 0573 62756666 		.ascii	"buffer_txDisplay\000"
 7195      65725F74 
 7195      78446973 
 7195      706C6179 
 7195      00
 7196              	.LASF90:
 7197 0584 52465F49 		.ascii	"RF_IDLE\000"
 7197      444C4500 
 7198              	.LASF45:
 7199 058c 746F7461 		.ascii	"totalPPUAfter\000"
 7199      6C505055 
 7199      41667465 
 7199      7200
 7200              	.LASF190:
 7201 059a 70726963 		.ascii	"priceChange\000"
 7201      65436861 
 7201      6E676500 
 7202              	.LASF28:
 7203 05a6 6B657962 		.ascii	"keyboardWayToPay\000"
 7203      6F617264 
 7203      57617954 
 7203      6F506179 
 7203      00
 7204              	.LASF124:
 7205 05b7 70707578 		.ascii	"ppux10\000"
 7205      313000
 7206              	.LASF40:
 7207 05be 746F7461 		.ascii	"totalMoneyPrevious\000"
 7207      6C4D6F6E 
 7207      65795072 
 7207      6576696F 
 7207      757300
 7208              	.LASF119:
 7209 05d1 666C6167 		.ascii	"flagPoint1\000"
 7209      506F696E 
 7209      743100
ARM GAS  C:\Users\RECEPC~1\AppData\Local\Temp\ccXtGlXn.s 			page 148


 7210              	.LASF26:
 7211 05dc 6D6F6E65 		.ascii	"moneySelectedSale\000"
 7211      7953656C 
 7211      65637465 
 7211      6453616C 
 7211      6500
 7212              	.LASF127:
 7213 05ee 73796D62 		.ascii	"symbols\000"
 7213      6F6C7300 
 7214              	.LASF192:
 7215 05f6 77726974 		.ascii	"write_hora\000"
 7215      655F686F 
 7215      726100
 7216              	.LASF160:
 7217 0601 64617465 		.ascii	"dateDownHandle\000"
 7217      446F776E 
 7217      48616E64 
 7217      6C6500
 7218              	.LASF46:
 7219 0610 6C696365 		.ascii	"licenceSale\000"
 7219      6E636553 
 7219      616C6500 
 7220              	.LASF56:
 7221 061c 70726963 		.ascii	"priceConsign\000"
 7221      65436F6E 
 7221      7369676E 
 7221      00
 7222              	.LASF2:
 7223 0629 73686F72 		.ascii	"short int\000"
 7223      7420696E 
 7223      7400
 7224              	.LASF4:
 7225 0633 6C6F6E67 		.ascii	"long int\000"
 7225      20696E74 
 7225      00
 7226              	.LASF159:
 7227 063c 566F6C55 		.ascii	"VolUnit\000"
 7227      6E697400 
 7228              	.LASF139:
 7229 0644 49444361 		.ascii	"IDCast\000"
 7229      737400
 7230              	.LASF106:
 7231 064b 49544D5F 		.ascii	"ITM_RxBuffer\000"
 7231      52784275 
 7231      66666572 
 7231      00
 7232              	.LASF157:
 7233 0658 68696464 		.ascii	"hiddenKeys\000"
 7233      656E4B65 
 7233      797300
 7234              	.LASF61:
 7235 0663 73686966 		.ascii	"shiftId\000"
 7235      74496400 
 7236              	.LASF133:
 7237 066b 74797065 		.ascii	"typeIdSeller\000"
 7237      49645365 
 7237      6C6C6572 
ARM GAS  C:\Users\RECEPC~1\AppData\Local\Temp\ccXtGlXn.s 			page 149


 7237      00
 7238              	.LASF52:
 7239 0678 666C6167 		.ascii	"flagEndSale\000"
 7239      456E6453 
 7239      616C6500 
 7240              	.LASF191:
 7241 0684 67657454 		.ascii	"getTotals\000"
 7241      6F74616C 
 7241      7300
 7242              	.LASF38:
 7243 068e 64617465 		.ascii	"dateLiftHandle\000"
 7243      4C696674 
 7243      48616E64 
 7243      6C6500
 7244              	.LASF73:
 7245 069d 686F7365 		.ascii	"hoseNumber\000"
 7245      4E756D62 
 7245      657200
 7246              	.LASF181:
 7247 06a8 62756666 		.ascii	"bufferDisplay2\000"
 7247      65724469 
 7247      73706C61 
 7247      793200
 7248              	.LASF95:
 7249 06b7 52465F43 		.ascii	"RF_CREDITSALEREPORT\000"
 7249      52454449 
 7249      5453414C 
 7249      45524550 
 7249      4F525400 
 7250              	.LASF183:
 7251 06cb 62756666 		.ascii	"bufferDisplay4\000"
 7251      65724469 
 7251      73706C61 
 7251      793400
 7252              	.LASF178:
 7253 06da 436F7069 		.ascii	"CopiasCredito\000"
 7253      61734372 
 7253      65646974 
 7253      6F00
 7254              	.LASF134:
 7255 06e8 70617373 		.ascii	"passwordSeller\000"
 7255      776F7264 
 7255      53656C6C 
 7255      657200
 7256              	.LASF44:
 7257 06f7 746F7461 		.ascii	"totalVolumeAfter\000"
 7257      6C566F6C 
 7257      756D6541 
 7257      66746572 
 7257      00
 7258              	.LASF147:
 7259 0708 556E6974 		.ascii	"UnitType\000"
 7259      54797065 
 7259      00
 7260              	.LASF16:
 7261 0711 75696E74 		.ascii	"uint64\000"
 7261      363400
ARM GAS  C:\Users\RECEPC~1\AppData\Local\Temp\ccXtGlXn.s 			page 150


 7262              	.LASF122:
 7263 0718 64656C61 		.ascii	"delayPicture1\000"
 7263      79506963 
 7263      74757265 
 7263      3100
 7264              	.LASF123:
 7265 0726 64656C61 		.ascii	"delayPicture2\000"
 7265      79506963 
 7265      74757265 
 7265      3200
 7266              	.LASF37:
 7267 0734 73746174 		.ascii	"stateMux\000"
 7267      654D7578 
 7267      00
 7268              	.LASF174:
 7269 073d 456E6361 		.ascii	"Encabezado1\000"
 7269      62657A61 
 7269      646F3100 
 7270              	.LASF175:
 7271 0749 456E6361 		.ascii	"Encabezado2\000"
 7271      62657A61 
 7271      646F3200 
 7272              	.LASF176:
 7273 0755 456E6361 		.ascii	"Encabezado3\000"
 7273      62657A61 
 7273      646F3300 
 7274              	.LASF177:
 7275 0761 456E6361 		.ascii	"Encabezado4\000"
 7275      62657A61 
 7275      646F3400 
 7276              	.LASF20:
 7277 076d 73697A65 		.ascii	"sizetype\000"
 7277      74797065 
 7277      00
 7278              	.LASF5:
 7279 0776 6C6F6E67 		.ascii	"long unsigned int\000"
 7279      20756E73 
 7279      69676E65 
 7279      6420696E 
 7279      7400
 7280              	.LASF91:
 7281 0788 52465F44 		.ascii	"RF_DELIVERING\000"
 7281      454C4956 
 7281      4552494E 
 7281      4700
 7282              	.LASF151:
 7283 0796 50505544 		.ascii	"PPUDec\000"
 7283      656300
 7284              	.LASF71:
 7285 079d 61637469 		.ascii	"activeHose\000"
 7285      7665486F 
 7285      736500
 7286              	.LASF59:
 7287 07a8 666C6167 		.ascii	"flagPrint\000"
 7287      5072696E 
 7287      7400
 7288              	.LASF10:
ARM GAS  C:\Users\RECEPC~1\AppData\Local\Temp\ccXtGlXn.s 			page 151


 7289 07b2 696E7433 		.ascii	"int32_t\000"
 7289      325F7400 
 7290              	.LASF92:
 7291 07ba 52465F43 		.ascii	"RF_CASHSALEREPORT\000"
 7291      41534853 
 7291      414C4552 
 7291      45504F52 
 7291      5400
 7292              	.LASF19:
 7293 07cc 63797374 		.ascii	"cystatus\000"
 7293      61747573 
 7293      00
 7294              	.LASF24:
 7295 07d5 666C6167 		.ascii	"flagWayToPayMixed\000"
 7295      57617954 
 7295      6F506179 
 7295      4D697865 
 7295      6400
 7296              	.LASF1:
 7297 07e7 756E7369 		.ascii	"unsigned char\000"
 7297      676E6564 
 7297      20636861 
 7297      7200
 7298              	.LASF197:
 7299 07f5 474E5520 		.ascii	"GNU C 4.9.3 20150303 (release) [ARM/embedded-4_9-br"
 7299      4320342E 
 7299      392E3320 
 7299      32303135 
 7299      30333033 
 7300 0828 616E6368 		.ascii	"anch revision 221220] -mcpu=cortex-m3 -mthumb -g -O"
 7300      20726576 
 7300      6973696F 
 7300      6E203232 
 7300      31323230 
 7301 085b 67202D66 		.ascii	"g -ffunction-sections -ffat-lto-objects\000"
 7301      66756E63 
 7301      74696F6E 
 7301      2D736563 
 7301      74696F6E 
 7302              	.LASF29:
 7303 0883 61757468 		.ascii	"authorizationFlag\000"
 7303      6F72697A 
 7303      6174696F 
 7303      6E466C61 
 7303      6700
 7304              	.LASF97:
 7305 0895 52465F43 		.ascii	"RF_COPY_RECEIPT\000"
 7305      4F50595F 
 7305      52454345 
 7305      49505400 
 7306              	.LASF79:
 7307 08a5 70756D70 		.ascii	"pump\000"
 7307      00
 7308              	.LASF85:
 7309 08aa 50554D50 		.ascii	"PUMP_PEOT\000"
 7309      5F50454F 
 7309      5400
ARM GAS  C:\Users\RECEPC~1\AppData\Local\Temp\ccXtGlXn.s 			page 152


 7310              	.LASF199:
 7311 08b4 433A5C55 		.ascii	"C:\\Users\\Recepcion\\Documents\\GitHub\\NSY-DH\\Wo"
 7311      73657273 
 7311      5C526563 
 7311      65706369 
 7311      6F6E5C44 
 7312 08e1 726B7370 		.ascii	"rkspace01\\Design01.cydsn\000"
 7312      61636530 
 7312      315C4465 
 7312      7369676E 
 7312      30312E63 
 7313              	.LASF142:
 7314 08fa 74656D70 		.ascii	"temporal\000"
 7314      6F72616C 
 7314      00
 7315              	.LASF150:
 7316 0903 566F6C44 		.ascii	"VolDec\000"
 7316      656300
 7317              	.LASF34:
 7318 090a 70726573 		.ascii	"presetType\000"
 7318      65745479 
 7318      706500
 7319              	.LASF96:
 7320 0915 52465F45 		.ascii	"RF_ERROR\000"
 7320      52524F52 
 7320      00
 7321              	.LASF68:
 7322 091e 766F6C75 		.ascii	"volumeSale\000"
 7322      6D655361 
 7322      6C6500
 7323              	.LASF173:
 7324 0929 696E7449 		.ascii	"intIDStation\000"
 7324      44537461 
 7324      74696F6E 
 7324      00
 7325              	.LASF62:
 7326 0936 73686966 		.ascii	"shiftPassword\000"
 7326      74506173 
 7326      73776F72 
 7326      6400
 7327              	.LASF0:
 7328 0944 7369676E 		.ascii	"signed char\000"
 7328      65642063 
 7328      68617200 
 7329              	.LASF162:
 7330 0950 636F756E 		.ascii	"count_protector\000"
 7330      745F7072 
 7330      6F746563 
 7330      746F7200 
 7331              	.LASF3:
 7332 0960 73686F72 		.ascii	"short unsigned int\000"
 7332      7420756E 
 7332      7369676E 
 7332      65642069 
 7332      6E7400
 7333              	.LASF111:
 7334 0973 636F756E 		.ascii	"countPump\000"
ARM GAS  C:\Users\RECEPC~1\AppData\Local\Temp\ccXtGlXn.s 			page 153


 7334      7450756D 
 7334      7000
 7335              	.LASF185:
 7336 097d 6D656D63 		.ascii	"memcpy\000"
 7336      707900
 7337              	.LASF70:
 7338 0984 70726F64 		.ascii	"productSale\000"
 7338      75637453 
 7338      616C6500 
 7339              	.LASF11:
 7340 0990 75696E74 		.ascii	"uint8\000"
 7340      3800
 7341              	.LASF15:
 7342 0996 646F7562 		.ascii	"double\000"
 7342      6C6500
 7343              	.LASF23:
 7344 099d 77617954 		.ascii	"wayToPay\000"
 7344      6F506179 
 7344      00
 7345              	.LASF77:
 7346 09a6 67726164 		.ascii	"grade\000"
 7346      6500
 7347              	.LASF39:
 7348 09ac 74696D65 		.ascii	"timeLiftHandle\000"
 7348      4C696674 
 7348      48616E64 
 7348      6C6500
 7349              	.LASF66:
 7350 09bb 70707541 		.ascii	"ppuAuthorized\000"
 7350      7574686F 
 7350      72697A65 
 7350      6400
 7351              	.LASF27:
 7352 09c9 73657269 		.ascii	"serialSelectedSale\000"
 7352      616C5365 
 7352      6C656374 
 7352      65645361 
 7352      6C6500
 7353              	.LASF64:
 7354 09dc 706F7369 		.ascii	"position\000"
 7354      74696F6E 
 7354      00
 7355              	.LASF144:
 7356 09e5 74656D70 		.ascii	"tempPPU\000"
 7356      50505500 
 7357              	.LASF167:
 7358 09ed 70756D70 		.ascii	"pumpGap\000"
 7358      47617000 
 7359              	.LASF74:
 7360 09f5 72665374 		.ascii	"rfState\000"
 7360      61746500 
 7361              	.LASF201:
 7362 09fd 52465F43 		.ascii	"RF_Connection_ClearRxBuffer\000"
 7362      6F6E6E65 
 7362      6374696F 
 7362      6E5F436C 
 7362      65617252 
ARM GAS  C:\Users\RECEPC~1\AppData\Local\Temp\ccXtGlXn.s 			page 154


 7363              		.ident	"GCC: (GNU Tools for ARM Embedded Processors) 4.9.3 20150303 (release) [ARM/embedded-4_9-br
